	.file	"TcgMorLockDxe.c"
	.option pic
	.option norelax
	.attribute arch, "rv64i2p1_m2p0_a2p1_f2p2_d2p2_c2p0_zicsr2p0_zifencei2p0_zmmul1p0_zaamo1p0_zalrsc1p0_zca1p0_zcd1p0"
	.attribute unaligned_access, 0
	.attribute stack_align, 16
	.text
.Ltext0:
	.cfi_sections	.debug_frame
	.file 0 "/home/kapoagaeming/Downloads/spacemit-image-builder/components/Build/Milk-V-Jupiter/RELEASE_GCC5/RISCV64/MdeModulePkg/Universal/Variable/RuntimeDxe/VariableRuntimeDxe" "/home/kapoagaeming/Downloads/spacemit-image-builder/components/edk2/MdeModulePkg/Universal/Variable/RuntimeDxe/TcgMorLockDxe.c"
	.section	.text.SetVariableCheckHandlerMor,"ax",@progbits
	.align	1
	.globl	SetVariableCheckHandlerMor
	.type	SetVariableCheckHandlerMor, @function
SetVariableCheckHandlerMor:
.LFB0:
	.file 1 "/home/kapoagaeming/Downloads/spacemit-image-builder/components/edk2/MdeModulePkg/Universal/Variable/RuntimeDxe/TcgMorLockDxe.c"
	.loc 1 51 1
	.cfi_startproc
	addi	sp,sp,-64
	.cfi_def_cfa_offset 64
	sd	ra,56(sp)
	sd	s0,48(sp)
	.cfi_offset 1, -8
	.cfi_offset 8, -16
	addi	s0,sp,64
	.cfi_def_cfa 8, 0
	sd	a0,-24(s0)
	sd	a1,-32(s0)
	mv	a5,a2
	sd	a3,-48(s0)
	sd	a4,-56(s0)
	sw	a5,-36(s0)
	.loc 1 55 10
	li	a5,0
	.loc 1 56 1
	mv	a0,a5
	ld	ra,56(sp)
	.cfi_restore 1
	ld	s0,48(sp)
	.cfi_restore 8
	.cfi_def_cfa 2, 64
	addi	sp,sp,64
	.cfi_def_cfa_offset 0
	jr	ra
	.cfi_endproc
.LFE0:
	.size	SetVariableCheckHandlerMor, .-SetVariableCheckHandlerMor
	.section	.rodata
	.align	3
.LC0:
	.string	"M"
	.string	"e"
	.string	"m"
	.string	"o"
	.string	"r"
	.string	"y"
	.string	"O"
	.string	"v"
	.string	"e"
	.string	"r"
	.string	"w"
	.string	"r"
	.string	"i"
	.string	"t"
	.string	"e"
	.string	"R"
	.string	"e"
	.string	"q"
	.string	"u"
	.string	"e"
	.string	"s"
	.string	"t"
	.string	"C"
	.string	"o"
	.string	"n"
	.string	"t"
	.string	"r"
	.string	"o"
	.string	"l"
	.string	"L"
	.string	"o"
	.string	"c"
	.string	"k"
	.zero	2
	.align	3
.LC1:
	.string	"M"
	.string	"e"
	.string	"m"
	.string	"o"
	.string	"r"
	.string	"y"
	.string	"O"
	.string	"v"
	.string	"e"
	.string	"r"
	.string	"w"
	.string	"r"
	.string	"i"
	.string	"t"
	.string	"e"
	.string	"R"
	.string	"e"
	.string	"q"
	.string	"u"
	.string	"e"
	.string	"s"
	.string	"t"
	.string	"C"
	.string	"o"
	.string	"n"
	.string	"t"
	.string	"r"
	.string	"o"
	.string	"l"
	.zero	2
	.section	.text.MorLockInit,"ax",@progbits
	.align	1
	.globl	MorLockInit
	.type	MorLockInit, @function
MorLockInit:
.LFB1:
	.loc 1 68 1
	.cfi_startproc
	addi	sp,sp,-16
	.cfi_def_cfa_offset 16
	sd	ra,8(sp)
	sd	s0,0(sp)
	.cfi_offset 1, -8
	.cfi_offset 8, -16
	addi	s0,sp,16
	.cfi_def_cfa 8, 0
	.loc 1 74 3
	li	a4,0
	li	a3,0
	li	a2,0
	la	a1,gEfiMemoryOverwriteRequestControlLockGuid
	lla	a0,.LC0
	call	VariableServiceSetVariable@plt
	.loc 1 92 3
	li	a4,0
	li	a3,0
	li	a2,0
	la	a1,gEfiMemoryOverwriteControlDataGuid
	lla	a0,.LC1
	call	VariableServiceSetVariable@plt
	.loc 1 100 10
	li	a5,0
	.loc 1 101 1
	mv	a0,a5
	ld	ra,8(sp)
	.cfi_restore 1
	ld	s0,0(sp)
	.cfi_restore 8
	.cfi_def_cfa 2, 16
	addi	sp,sp,16
	.cfi_def_cfa_offset 0
	jr	ra
	.cfi_endproc
.LFE1:
	.size	MorLockInit, .-MorLockInit
	.section	.text.MorLockInitAtEndOfDxe,"ax",@progbits
	.align	1
	.globl	MorLockInitAtEndOfDxe
	.type	MorLockInitAtEndOfDxe, @function
MorLockInitAtEndOfDxe:
.LFB2:
	.loc 1 112 1
	.cfi_startproc
	addi	sp,sp,-32
	.cfi_def_cfa_offset 32
	sd	ra,24(sp)
	sd	s0,16(sp)
	.cfi_offset 1, -8
	.cfi_offset 8, -16
	addi	s0,sp,32
	.cfi_def_cfa 8, 0
	.loc 1 117 15
	la	a5,gBS
	ld	a5,0(a5)
	ld	a5,320(a5)
	.loc 1 117 12
	addi	a4,s0,-32
	mv	a2,a4
	li	a1,0
	la	a0,gEdkiiVariablePolicyProtocolGuid
	jalr	a5
.LVL0:
	sd	a0,-24(s0)
	.loc 1 118 34
	ld	a5,-24(s0)
	.loc 1 118 6
	blt	a5,zero,.L9
	.loc 1 124 12
	ld	a0,-32(s0)
	li	a7,1
	li	a6,0
	li	a5,0
	li	a4,-1
	li	a3,0
	lla	a2,.LC0
	la	a1,gEfiMemoryOverwriteRequestControlLockGuid
	call	RegisterBasicVariablePolicy@plt
	sd	a0,-24(s0)
	.loc 1 138 12
	ld	a0,-32(s0)
	li	a7,1
	li	a6,0
	li	a5,0
	li	a4,-1
	li	a3,0
	lla	a2,.LC1
	la	a1,gEfiMemoryOverwriteControlDataGuid
	call	RegisterBasicVariablePolicy@plt
	sd	a0,-24(s0)
	.loc 1 152 3
	j	.L5
.L9:
	.loc 1 120 5
	nop
.L5:
	.loc 1 153 1
	ld	ra,24(sp)
	.cfi_restore 1
	ld	s0,16(sp)
	.cfi_restore 8
	.cfi_def_cfa 2, 32
	addi	sp,sp,32
	.cfi_def_cfa_offset 0
	jr	ra
	.cfi_endproc
.LFE2:
	.size	MorLockInitAtEndOfDxe, .-MorLockInitAtEndOfDxe
	.text
.Letext0:
	.file 2 "/home/kapoagaeming/Downloads/spacemit-image-builder/components/edk2/MdePkg/Include/RiscV64/ProcessorBind.h"
	.file 3 "/home/kapoagaeming/Downloads/spacemit-image-builder/components/edk2/MdePkg/Include/Base.h"
	.file 4 "/home/kapoagaeming/Downloads/spacemit-image-builder/components/edk2/MdePkg/Include/Uefi/UefiBaseType.h"
	.file 5 "/home/kapoagaeming/Downloads/spacemit-image-builder/components/edk2/MdePkg/Include/Uefi/UefiMultiPhase.h"
	.file 6 "/home/kapoagaeming/Downloads/spacemit-image-builder/components/edk2/MdePkg/Include/Protocol/DevicePath.h"
	.file 7 "/home/kapoagaeming/Downloads/spacemit-image-builder/components/edk2/MdePkg/Include/Uefi/UefiSpec.h"
	.file 8 "/home/kapoagaeming/Downloads/spacemit-image-builder/components/Build/Milk-V-Jupiter/RELEASE_GCC5/RISCV64/MdeModulePkg/Universal/Variable/RuntimeDxe/VariableRuntimeDxe/DEBUG/AutoGen.h"
	.file 9 "/home/kapoagaeming/Downloads/spacemit-image-builder/components/edk2/MdeModulePkg/Include/Protocol/VariablePolicy.h"
	.file 10 "/home/kapoagaeming/Downloads/spacemit-image-builder/components/edk2/MdeModulePkg/Include/Library/VariablePolicyHelperLib.h"
	.file 11 "/home/kapoagaeming/Downloads/spacemit-image-builder/components/edk2/MdeModulePkg/Universal/Variable/RuntimeDxe/Variable.h"
	.file 12 "/home/kapoagaeming/Downloads/spacemit-image-builder/components/edk2/MdePkg/Include/Library/UefiBootServicesTableLib.h"
	.section	.note.GNU-stack,"",@progbits
