	.file	"VariableExLib.c"
	.option pic
	.option norelax
	.attribute arch, "rv64i2p1_m2p0_a2p1_f2p2_d2p2_c2p0_zicsr2p0_zifencei2p0_zmmul1p0_zaamo1p0_zalrsc1p0_zca1p0_zcd1p0"
	.attribute unaligned_access, 0
	.attribute stack_align, 16
	.text
.Ltext0:
	.cfi_sections	.debug_frame
	.file 0 "/home/kapoagaeming/Downloads/spacemit-image-builder/components/Build/Milk-V-Jupiter/RELEASE_GCC5/RISCV64/MdeModulePkg/Universal/Variable/RuntimeDxe/VariableRuntimeDxe" "/home/kapoagaeming/Downloads/spacemit-image-builder/components/edk2/MdeModulePkg/Universal/Variable/RuntimeDxe/VariableExLib.c"
	.section	.text.VariableExLibFindVariable,"ax",@progbits
	.align	1
	.globl	VariableExLibFindVariable
	.type	VariableExLibFindVariable, @function
VariableExLibFindVariable:
.LFB0:
	.file 1 "/home/kapoagaeming/Downloads/spacemit-image-builder/components/edk2/MdeModulePkg/Universal/Variable/RuntimeDxe/VariableExLib.c"
	.loc 1 37 1
	.cfi_startproc
	addi	sp,sp,-112
	.cfi_def_cfa_offset 112
	sd	ra,104(sp)
	sd	s0,96(sp)
	.cfi_offset 1, -8
	.cfi_offset 8, -16
	addi	s0,sp,112
	.cfi_def_cfa 8, 0
	sd	a0,-88(s0)
	sd	a1,-96(s0)
	sd	a2,-104(s0)
	.loc 1 46 36
	la	a5,mVariableModuleGlobal
	ld	a5,0(a5)
	.loc 1 42 12
	mv	a3,a5
	addi	a5,s0,-72
	li	a4,0
	mv	a2,a5
	ld	a1,-96(s0)
	ld	a0,-88(s0)
	call	FindVariable@plt
	sd	a0,-24(s0)
	.loc 1 49 34
	ld	a5,-24(s0)
	.loc 1 49 6
	bge	a5,zero,.L2
	.loc 1 50 28
	ld	a5,-104(s0)
	sd	zero,32(a5)
	.loc 1 51 32
	ld	a5,-104(s0)
	sd	zero,24(a5)
	.loc 1 52 34
	ld	a5,-104(s0)
	sw	zero,16(a5)
	.loc 1 53 35
	ld	a5,-104(s0)
	sw	zero,40(a5)
	.loc 1 54 38
	ld	a5,-104(s0)
	sd	zero,48(a5)
	.loc 1 55 33
	ld	a5,-104(s0)
	sd	zero,56(a5)
	.loc 1 56 12
	ld	a5,-24(s0)
	j	.L5
.L2:
	.loc 1 59 32
	ld	a4,-72(s0)
	.loc 1 59 91
	la	a5,mVariableModuleGlobal
	ld	a5,0(a5)
	.loc 1 59 32
	lbu	a5,124(a5)
	mv	a1,a5
	mv	a0,a4
	call	DataSizeOfVariable@plt
	mv	a4,a0
	.loc 1 59 30 discriminator 1
	ld	a5,-104(s0)
	sd	a4,24(a5)
	.loc 1 60 28
	ld	a4,-72(s0)
	.loc 1 60 87
	la	a5,mVariableModuleGlobal
	ld	a5,0(a5)
	.loc 1 60 28
	lbu	a5,124(a5)
	mv	a1,a5
	mv	a0,a4
	call	GetVariableDataPtr@plt
	mv	a4,a0
	.loc 1 60 26 discriminator 1
	ld	a5,-104(s0)
	sd	a4,32(a5)
	.loc 1 61 42
	ld	a5,-72(s0)
	.loc 1 61 50
	lbu	a4,4(a5)
	lbu	a3,5(a5)
	slli	a3,a3,8
	or	a4,a3,a4
	lbu	a3,6(a5)
	slli	a3,a3,16
	or	a4,a3,a4
	lbu	a5,7(a5)
	slli	a5,a5,24
	or	a5,a5,a4
	sext.w	a4,a5
	.loc 1 61 32
	ld	a5,-104(s0)
	sw	a4,16(a5)
	.loc 1 62 28
	la	a5,mVariableModuleGlobal
	ld	a5,0(a5)
	.loc 1 62 44
	lbu	a5,124(a5)
	.loc 1 62 6
	beq	a5,zero,.L4
	.loc 1 63 18
	ld	a5,-72(s0)
	sd	a5,-32(s0)
	.loc 1 64 49
	ld	a5,-32(s0)
	lbu	a4,32(a5)
	lbu	a3,33(a5)
	slli	a3,a3,8
	or	a4,a3,a4
	lbu	a3,34(a5)
	slli	a3,a3,16
	or	a4,a3,a4
	lbu	a5,35(a5)
	slli	a5,a5,24
	or	a5,a5,a4
	sext.w	a4,a5
	.loc 1 64 35
	ld	a5,-104(s0)
	sw	a4,40(a5)
	.loc 1 65 57
	ld	a5,-32(s0)
	addi	a5,a5,8
	.loc 1 65 40
	mv	a0,a5
	call	ReadUnaligned64@plt
	mv	a4,a0
	.loc 1 65 38 discriminator 1
	ld	a5,-104(s0)
	sd	a4,48(a5)
	.loc 1 66 35
	ld	a5,-32(s0)
	addi	a4,a5,16
	.loc 1 66 33
	ld	a5,-104(s0)
	sd	a4,56(a5)
.L4:
	.loc 1 69 10
	li	a5,0
.L5:
	.loc 1 70 1
	mv	a0,a5
	ld	ra,104(sp)
	.cfi_restore 1
	ld	s0,96(sp)
	.cfi_restore 8
	.cfi_def_cfa 2, 112
	addi	sp,sp,112
	.cfi_def_cfa_offset 0
	jr	ra
	.cfi_endproc
.LFE0:
	.size	VariableExLibFindVariable, .-VariableExLibFindVariable
	.section	.text.VariableExLibFindNextVariable,"ax",@progbits
	.align	1
	.globl	VariableExLibFindNextVariable
	.type	VariableExLibFindNextVariable, @function
VariableExLibFindNextVariable:
.LFB1:
	.loc 1 97 1
	.cfi_startproc
	addi	sp,sp,-96
	.cfi_def_cfa_offset 96
	sd	ra,88(sp)
	sd	s0,80(sp)
	.cfi_offset 1, -8
	.cfi_offset 8, -16
	addi	s0,sp,96
	.cfi_def_cfa 8, 0
	sd	a0,-72(s0)
	sd	a1,-80(s0)
	sd	a2,-88(s0)
	.loc 1 103 105
	la	a5,mVariableModuleGlobal
	ld	a5,0(a5)
	.loc 1 103 121
	ld	a5,8(a5)
	.loc 1 103 50
	sd	a5,-64(s0)
	.loc 1 104 100
	la	a5,mVariableModuleGlobal
	ld	a5,0(a5)
	.loc 1 104 116
	ld	a5,0(a5)
	.loc 1 104 45
	sd	a5,-56(s0)
	.loc 1 105 44
	la	a5,mNvVariableCache
	ld	a5,0(a5)
	sd	a5,-48(s0)
	.loc 1 112 35
	la	a5,mVariableModuleGlobal
	ld	a5,0(a5)
	.loc 1 107 12
	lbu	a4,124(a5)
	addi	a3,s0,-40
	addi	a5,s0,-64
	mv	a2,a5
	ld	a1,-80(s0)
	ld	a0,-72(s0)
	call	VariableServiceGetNextVariableInternal@plt
	sd	a0,-24(s0)
	.loc 1 114 34
	ld	a5,-24(s0)
	.loc 1 114 6
	bge	a5,zero,.L7
	.loc 1 115 36
	ld	a5,-88(s0)
	sd	zero,0(a5)
	.loc 1 116 34
	ld	a5,-88(s0)
	sd	zero,8(a5)
	.loc 1 117 28
	ld	a5,-88(s0)
	sd	zero,32(a5)
	.loc 1 118 32
	ld	a5,-88(s0)
	sd	zero,24(a5)
	.loc 1 119 34
	ld	a5,-88(s0)
	sw	zero,16(a5)
	.loc 1 120 35
	ld	a5,-88(s0)
	sw	zero,40(a5)
	.loc 1 121 38
	ld	a5,-88(s0)
	sd	zero,48(a5)
	.loc 1 122 33
	ld	a5,-88(s0)
	sd	zero,56(a5)
	.loc 1 123 12
	ld	a5,-24(s0)
	j	.L10
.L7:
	.loc 1 126 36
	ld	a4,-40(s0)
	.loc 1 126 90
	la	a5,mVariableModuleGlobal
	ld	a5,0(a5)
	.loc 1 126 36
	lbu	a5,124(a5)
	mv	a1,a5
	mv	a0,a4
	call	GetVariableNamePtr@plt
	mv	a4,a0
	.loc 1 126 34 discriminator 1
	ld	a5,-88(s0)
	sd	a4,0(a5)
	.loc 1 127 34
	ld	a4,-40(s0)
	.loc 1 127 86
	la	a5,mVariableModuleGlobal
	ld	a5,0(a5)
	.loc 1 127 34
	lbu	a5,124(a5)
	mv	a1,a5
	mv	a0,a4
	call	GetVendorGuidPtr@plt
	mv	a4,a0
	.loc 1 127 32 discriminator 1
	ld	a5,-88(s0)
	sd	a4,8(a5)
	.loc 1 128 32
	ld	a4,-40(s0)
	.loc 1 128 86
	la	a5,mVariableModuleGlobal
	ld	a5,0(a5)
	.loc 1 128 32
	lbu	a5,124(a5)
	mv	a1,a5
	mv	a0,a4
	call	DataSizeOfVariable@plt
	mv	a4,a0
	.loc 1 128 30 discriminator 1
	ld	a5,-88(s0)
	sd	a4,24(a5)
	.loc 1 129 28
	ld	a4,-40(s0)
	.loc 1 129 82
	la	a5,mVariableModuleGlobal
	ld	a5,0(a5)
	.loc 1 129 28
	lbu	a5,124(a5)
	mv	a1,a5
	mv	a0,a4
	call	GetVariableDataPtr@plt
	mv	a4,a0
	.loc 1 129 26 discriminator 1
	ld	a5,-88(s0)
	sd	a4,32(a5)
	.loc 1 130 45
	ld	a5,-40(s0)
	lbu	a4,4(a5)
	lbu	a3,5(a5)
	slli	a3,a3,8
	or	a4,a3,a4
	lbu	a3,6(a5)
	slli	a3,a3,16
	or	a4,a3,a4
	lbu	a5,7(a5)
	slli	a5,a5,24
	or	a5,a5,a4
	sext.w	a4,a5
	.loc 1 130 32
	ld	a5,-88(s0)
	sw	a4,16(a5)
	.loc 1 131 28
	la	a5,mVariableModuleGlobal
	ld	a5,0(a5)
	.loc 1 131 44
	lbu	a5,124(a5)
	.loc 1 131 6
	beq	a5,zero,.L9
	.loc 1 132 21
	ld	a5,-40(s0)
	sd	a5,-32(s0)
	.loc 1 133 52
	ld	a5,-32(s0)
	lbu	a4,32(a5)
	lbu	a3,33(a5)
	slli	a3,a3,8
	or	a4,a3,a4
	lbu	a3,34(a5)
	slli	a3,a3,16
	or	a4,a3,a4
	lbu	a5,35(a5)
	slli	a5,a5,24
	or	a5,a5,a4
	sext.w	a4,a5
	.loc 1 133 35
	ld	a5,-88(s0)
	sw	a4,40(a5)
	.loc 1 134 57
	ld	a5,-32(s0)
	addi	a5,a5,8
	.loc 1 134 40
	mv	a0,a5
	call	ReadUnaligned64@plt
	mv	a4,a0
	.loc 1 134 38 discriminator 1
	ld	a5,-88(s0)
	sd	a4,48(a5)
	.loc 1 135 35
	ld	a5,-32(s0)
	addi	a4,a5,16
	.loc 1 135 33
	ld	a5,-88(s0)
	sd	a4,56(a5)
.L9:
	.loc 1 138 10
	li	a5,0
.L10:
	.loc 1 139 1
	mv	a0,a5
	ld	ra,88(sp)
	.cfi_restore 1
	ld	s0,80(sp)
	.cfi_restore 8
	.cfi_def_cfa 2, 96
	addi	sp,sp,96
	.cfi_def_cfa_offset 0
	jr	ra
	.cfi_endproc
.LFE1:
	.size	VariableExLibFindNextVariable, .-VariableExLibFindNextVariable
	.section	.text.VariableExLibUpdateVariable,"ax",@progbits
	.align	1
	.globl	VariableExLibUpdateVariable
	.type	VariableExLibUpdateVariable, @function
VariableExLibUpdateVariable:
.LFB2:
	.loc 1 158 1
	.cfi_startproc
	addi	sp,sp,-96
	.cfi_def_cfa_offset 96
	sd	ra,88(sp)
	sd	s0,80(sp)
	.cfi_offset 1, -8
	.cfi_offset 8, -16
	addi	s0,sp,96
	.cfi_def_cfa 8, 0
	sd	a0,-72(s0)
	.loc 1 161 3
	ld	a5,-72(s0)
	ld	a0,0(a5)
	ld	a5,-72(s0)
	ld	a1,8(a5)
	.loc 1 161 112
	la	a5,mVariableModuleGlobal
	ld	a5,0(a5)
	.loc 1 161 3
	mv	a3,a5
	addi	a5,s0,-56
	li	a4,0
	mv	a2,a5
	call	FindVariable@plt
	.loc 1 162 10
	ld	a5,-72(s0)
	ld	a0,0(a5)
	ld	a5,-72(s0)
	ld	a1,8(a5)
	ld	a5,-72(s0)
	ld	a2,32(a5)
	ld	a5,-72(s0)
	ld	a3,24(a5)
	ld	a5,-72(s0)
	lw	a4,16(a5)
	ld	a5,-72(s0)
	lw	t1,40(a5)
	ld	a5,-72(s0)
	ld	a6,48(a5)
	ld	a5,-72(s0)
	ld	a5,56(a5)
	addi	a7,s0,-56
	sd	a5,0(sp)
	mv	a5,t1
	call	UpdateVariable@plt
	mv	a5,a0
	.loc 1 173 1
	mv	a0,a5
	ld	ra,88(sp)
	.cfi_restore 1
	ld	s0,80(sp)
	.cfi_restore 8
	.cfi_def_cfa 2, 96
	addi	sp,sp,96
	.cfi_def_cfa_offset 0
	jr	ra
	.cfi_endproc
.LFE2:
	.size	VariableExLibUpdateVariable, .-VariableExLibUpdateVariable
	.section	.text.VariableExLibGetScratchBuffer,"ax",@progbits
	.align	1
	.globl	VariableExLibGetScratchBuffer
	.type	VariableExLibGetScratchBuffer, @function
VariableExLibGetScratchBuffer:
.LFB3:
	.loc 1 193 1
	.cfi_startproc
	addi	sp,sp,-48
	.cfi_def_cfa_offset 48
	sd	ra,40(sp)
	sd	s0,32(sp)
	.cfi_offset 1, -8
	.cfi_offset 8, -16
	addi	s0,sp,48
	.cfi_def_cfa 8, 0
	sd	a0,-40(s0)
	sd	a1,-48(s0)
	.loc 1 196 40
	la	a5,mVariableModuleGlobal
	ld	a5,0(a5)
	.loc 1 196 17
	ld	a5,216(a5)
	sd	a5,-24(s0)
	.loc 1 197 7
	ld	a5,-40(s0)
	ld	a5,0(a5)
	.loc 1 197 6
	ld	a4,-24(s0)
	bgeu	a4,a5,.L14
	.loc 1 198 24
	ld	a5,-40(s0)
	ld	a4,-24(s0)
	sd	a4,0(a5)
	.loc 1 199 12
	li	a5,-1
	slli	a5,a5,63
	addi	a5,a5,3
	j	.L15
.L14:
	.loc 1 202 89
	la	a5,mVariableModuleGlobal
	ld	a5,0(a5)
	.loc 1 202 105
	ld	a5,8(a5)
	.loc 1 202 20
	mv	a0,a5
	call	GetEndPointer@plt
	mv	a4,a0
	.loc 1 202 18 discriminator 1
	ld	a5,-48(s0)
	sd	a4,0(a5)
	.loc 1 203 10
	li	a5,0
.L15:
	.loc 1 204 1
	mv	a0,a5
	ld	ra,40(sp)
	.cfi_restore 1
	ld	s0,32(sp)
	.cfi_restore 8
	.cfi_def_cfa 2, 48
	addi	sp,sp,48
	.cfi_def_cfa_offset 0
	jr	ra
	.cfi_endproc
.LFE3:
	.size	VariableExLibGetScratchBuffer, .-VariableExLibGetScratchBuffer
	.section	.text.VariableExLibCheckRemainingSpaceForConsistency,"ax",@progbits
	.align	1
	.globl	VariableExLibCheckRemainingSpaceForConsistency
	.type	VariableExLibCheckRemainingSpaceForConsistency, @function
VariableExLibCheckRemainingSpaceForConsistency:
.LFB4:
	.loc 1 231 1
	.cfi_startproc
	addi	sp,sp,-112
	.cfi_def_cfa_offset 112
	sd	ra,40(sp)
	sd	s0,32(sp)
	.cfi_offset 1, -72
	.cfi_offset 8, -80
	addi	s0,sp,48
	.cfi_def_cfa 8, 64
	sd	a1,8(s0)
	sd	a2,16(s0)
	sd	a3,24(s0)
	sd	a4,32(s0)
	sd	a5,40(s0)
	sd	a6,48(s0)
	sd	a7,56(s0)
	mv	a5,a0
	sw	a5,-36(s0)
	.loc 1 235 3
	addi	a5,s0,64
	sd	a5,-48(s0)
	ld	a5,-48(s0)
	addi	a5,a5,-56
	sd	a5,-32(s0)
	.loc 1 237 12
	ld	a4,-32(s0)
	lw	a5,-36(s0)
	mv	a1,a4
	mv	a0,a5
	call	CheckRemainingSpaceForConsistencyInternal@plt
	mv	a5,a0
	sb	a5,-17(s0)
	.loc 1 241 10
	lbu	a5,-17(s0)
	.loc 1 242 1
	mv	a0,a5
	ld	ra,40(sp)
	.cfi_restore 1
	ld	s0,32(sp)
	.cfi_restore 8
	.cfi_def_cfa 2, 112
	addi	sp,sp,112
	.cfi_def_cfa_offset 0
	jr	ra
	.cfi_endproc
.LFE4:
	.size	VariableExLibCheckRemainingSpaceForConsistency, .-VariableExLibCheckRemainingSpaceForConsistency
	.section	.text.VariableExLibAtRuntime,"ax",@progbits
	.align	1
	.globl	VariableExLibAtRuntime
	.type	VariableExLibAtRuntime, @function
VariableExLibAtRuntime:
.LFB5:
	.loc 1 256 1
	.cfi_startproc
	addi	sp,sp,-16
	.cfi_def_cfa_offset 16
	sd	ra,8(sp)
	sd	s0,0(sp)
	.cfi_offset 1, -8
	.cfi_offset 8, -16
	addi	s0,sp,16
	.cfi_def_cfa 8, 0
	.loc 1 257 10
	call	AtRuntime@plt
	mv	a5,a0
	.loc 1 258 1
	mv	a0,a5
	ld	ra,8(sp)
	.cfi_restore 1
	ld	s0,0(sp)
	.cfi_restore 8
	.cfi_def_cfa 2, 16
	addi	sp,sp,16
	.cfi_def_cfa_offset 0
	jr	ra
	.cfi_endproc
.LFE5:
	.size	VariableExLibAtRuntime, .-VariableExLibAtRuntime
	.text
.Letext0:
	.file 2 "/home/kapoagaeming/Downloads/spacemit-image-builder/components/edk2/MdePkg/Include/RiscV64/ProcessorBind.h"
	.file 3 "/home/kapoagaeming/Downloads/spacemit-image-builder/components/edk2/MdePkg/Include/Base.h"
	.file 4 "/home/kapoagaeming/Downloads/spacemit-image-builder/components/edk2/MdePkg/Include/Uefi/UefiBaseType.h"
	.file 5 "/home/kapoagaeming/Downloads/spacemit-image-builder/components/edk2/MdePkg/Include/Pi/PiFirmwareVolume.h"
	.file 6 "/home/kapoagaeming/Downloads/spacemit-image-builder/components/edk2/MdePkg/Include/Protocol/FirmwareVolumeBlock.h"
	.file 7 "/home/kapoagaeming/Downloads/spacemit-image-builder/components/edk2/MdePkg/Include/Library/UefiLib.h"
	.file 8 "/home/kapoagaeming/Downloads/spacemit-image-builder/components/edk2/MdeModulePkg/Include/Library/AuthVariableLib.h"
	.file 9 "/home/kapoagaeming/Downloads/spacemit-image-builder/components/edk2/MdeModulePkg/Include/Guid/VariableFormat.h"
	.file 10 "/home/kapoagaeming/Downloads/spacemit-image-builder/components/edk2/MdeModulePkg/Universal/Variable/RuntimeDxe/Variable.h"
	.file 11 "/home/kapoagaeming/Downloads/spacemit-image-builder/components/edk2/MdeModulePkg/Universal/Variable/RuntimeDxe/VariableParsing.h"
	.file 12 "/home/kapoagaeming/Downloads/spacemit-image-builder/components/edk2/MdePkg/Include/Library/BaseLib.h"
	.section	.note.GNU-stack,"",@progbits
