	.file	"VariableLockRequestToLock.c"
	.option pic
	.option norelax
	.attribute arch, "rv64i2p1_m2p0_a2p1_f2p2_d2p2_c2p0_zicsr2p0_zifencei2p0_zmmul1p0_zaamo1p0_zalrsc1p0_zca1p0_zcd1p0"
	.attribute unaligned_access, 0
	.attribute stack_align, 16
	.text
.Ltext0:
	.cfi_sections	.debug_frame
	.file 0 "/home/kapoagaeming/spacemit-image-builder/components/Build/Milk-V-Jupiter/RELEASE_GCC5/RISCV64/MdeModulePkg/Universal/Variable/RuntimeDxe/VariableRuntimeDxe" "/home/kapoagaeming/spacemit-image-builder/components/edk2/MdeModulePkg/Universal/Variable/RuntimeDxe/VariableLockRequestToLock.c"
	.section	.text.VariableLockRequestToLock,"ax",@progbits
	.align	1
	.globl	VariableLockRequestToLock
	.type	VariableLockRequestToLock, @function
VariableLockRequestToLock:
.LFB0:
	.file 1 "/home/kapoagaeming/spacemit-image-builder/components/edk2/MdeModulePkg/Universal/Variable/RuntimeDxe/VariableLockRequestToLock.c"
	.loc 1 47 1
	.cfi_startproc
	addi	sp,sp,-64
	.cfi_def_cfa_offset 64
	sd	ra,56(sp)
	sd	s0,48(sp)
	.cfi_offset 1, -8
	.cfi_offset 8, -16
	addi	s0,sp,64
	.cfi_def_cfa 8, 0
	sd	a0,-40(s0)
	sd	a1,-48(s0)
	sd	a2,-56(s0)
	.loc 1 55 13
	sd	zero,-32(s0)
	.loc 1 56 12
	addi	a5,s0,-32
	mv	a7,a5
	li	a6,1
	li	a5,0
	li	a4,0
	li	a3,-1
	li	a2,0
	ld	a1,-48(s0)
	ld	a0,-56(s0)
	call	CreateBasicVariablePolicy@plt
	sd	a0,-24(s0)
	.loc 1 66 7
	ld	a5,-24(s0)
	.loc 1 66 6
	blt	a5,zero,.L2
	.loc 1 67 14
	ld	a5,-32(s0)
	mv	a0,a5
	call	RegisterVariablePolicy@plt
	sd	a0,-24(s0)
	.loc 1 75 8
	ld	a4,-24(s0)
	li	a5,-1
	slli	a5,a5,63
	addi	a5,a5,20
	bne	a4,a5,.L2
	.loc 1 76 16
	li	a4,0
	li	a3,0
	li	a2,0
	ld	a1,-56(s0)
	ld	a0,-48(s0)
	call	ValidateSetVariable@plt
	sd	a0,-24(s0)
	.loc 1 77 10
	ld	a4,-24(s0)
	li	a5,-1
	slli	a5,a5,63
	addi	a5,a5,8
	bne	a4,a5,.L3
	.loc 1 79 16
	sd	zero,-24(s0)
	j	.L2
.L3:
	.loc 1 82 16
	li	a5,-1
	slli	a5,a5,63
	addi	a5,a5,15
	sd	a5,-24(s0)
.L2:
	.loc 1 91 17
	ld	a5,-32(s0)
	.loc 1 91 6
	beq	a5,zero,.L4
	.loc 1 92 5
	ld	a5,-32(s0)
	mv	a0,a5
	call	FreePool@plt
.L4:
	.loc 1 95 10
	ld	a5,-24(s0)
	.loc 1 96 1
	mv	a0,a5
	ld	ra,56(sp)
	.cfi_restore 1
	ld	s0,48(sp)
	.cfi_restore 8
	.cfi_def_cfa 2, 64
	addi	sp,sp,64
	.cfi_def_cfa_offset 0
	jr	ra
	.cfi_endproc
.LFE0:
	.size	VariableLockRequestToLock, .-VariableLockRequestToLock
	.text
.Letext0:
	.file 2 "/home/kapoagaeming/spacemit-image-builder/components/edk2/MdePkg/Include/RiscV64/ProcessorBind.h"
	.file 3 "/home/kapoagaeming/spacemit-image-builder/components/edk2/MdePkg/Include/Base.h"
	.file 4 "/home/kapoagaeming/spacemit-image-builder/components/edk2/MdePkg/Include/Uefi/UefiBaseType.h"
	.file 5 "/home/kapoagaeming/spacemit-image-builder/components/edk2/MdeModulePkg/Include/Protocol/VariablePolicy.h"
	.file 6 "/home/kapoagaeming/spacemit-image-builder/components/edk2/MdeModulePkg/Include/Protocol/VariableLock.h"
	.file 7 "/home/kapoagaeming/spacemit-image-builder/components/edk2/MdeModulePkg/Include/Library/VariablePolicyLib.h"
	.file 8 "/home/kapoagaeming/spacemit-image-builder/components/edk2/MdeModulePkg/Include/Library/VariablePolicyHelperLib.h"
	.file 9 "/home/kapoagaeming/spacemit-image-builder/components/edk2/MdePkg/Include/Library/MemoryAllocationLib.h"
	.section	.note.GNU-stack,"",@progbits
