	.file	"VariableRuntimeCache.c"
	.option pic
	.option norelax
	.attribute arch, "rv64i2p1_m2p0_a2p1_f2p2_d2p2_c2p0_zicsr2p0_zifencei2p0_zmmul1p0_zaamo1p0_zalrsc1p0_zca1p0_zcd1p0"
	.attribute unaligned_access, 0
	.attribute stack_align, 16
	.text
.Ltext0:
	.cfi_sections	.debug_frame
	.file 0 "/home/kapoagaeming/Downloads/spacemit-image-builder/components/Build/Milk-V-Jupiter/RELEASE_GCC5/RISCV64/MdeModulePkg/Universal/Variable/RuntimeDxe/VariableRuntimeDxe" "/home/kapoagaeming/Downloads/spacemit-image-builder/components/edk2/MdeModulePkg/Universal/Variable/RuntimeDxe/VariableRuntimeCache.c"
	.section	.text.FlushPendingRuntimeVariableCacheUpdates,"ax",@progbits
	.align	1
	.globl	FlushPendingRuntimeVariableCacheUpdates
	.type	FlushPendingRuntimeVariableCacheUpdates, @function
FlushPendingRuntimeVariableCacheUpdates:
.LFB0:
	.file 1 "/home/kapoagaeming/Downloads/spacemit-image-builder/components/edk2/MdeModulePkg/Universal/Variable/RuntimeDxe/VariableRuntimeCache.c"
	.loc 1 32 1
	.cfi_startproc
	addi	sp,sp,-32
	.cfi_def_cfa_offset 32
	sd	ra,24(sp)
	sd	s0,16(sp)
	.cfi_offset 1, -8
	.cfi_offset 8, -16
	addi	s0,sp,32
	.cfi_def_cfa 8, 0
	.loc 1 35 55
	la	a5,mVariableModuleGlobal
	ld	a5,0(a5)
	.loc 1 35 31
	addi	a5,a5,24
	sd	a5,-24(s0)
	.loc 1 37 59
	ld	a5,-24(s0)
	ld	a5,48(a5)
	.loc 1 37 6
	beq	a5,zero,.L2
	.loc 1 38 65
	ld	a5,-24(s0)
	ld	a5,64(a5)
	.loc 1 37 83 discriminator 1
	beq	a5,zero,.L2
	.loc 1 39 35
	ld	a5,-24(s0)
	ld	a5,8(a5)
	.loc 1 38 89
	bne	a5,zero,.L3
.L2:
	.loc 1 41 12
	li	a5,-1
	slli	a5,a5,63
	addi	a5,a5,3
	j	.L4
.L3:
	.loc 1 44 36
	ld	a5,-24(s0)
	ld	a5,8(a5)
	.loc 1 44 7
	lbu	a5,0(a5)
	.loc 1 44 6
	beq	a5,zero,.L5
	.loc 1 45 62
	ld	a5,-24(s0)
	ld	a5,32(a5)
	.loc 1 45 8
	beq	a5,zero,.L6
	.loc 1 46 31
	la	a5,mVariableModuleGlobal
	ld	a5,0(a5)
	.loc 1 46 47
	ld	a5,0(a5)
	.loc 1 45 86 discriminator 1
	beq	a5,zero,.L6
	.loc 1 50 87
	ld	a5,-24(s0)
	ld	a4,32(a5)
	.loc 1 51 70
	ld	a5,-24(s0)
	lw	a5,24(a5)
	slli	a5,a5,32
	srli	a5,a5,32
	.loc 1 48 7
	add	a3,a4,a5
	.loc 1 55 70
	ld	a5,-24(s0)
	lw	a5,24(a5)
	slli	a4,a5,32
	srli	a4,a4,32
	.loc 1 54 56
	la	a5,mVariableModuleGlobal
	ld	a5,0(a5)
	.loc 1 54 72
	ld	a5,0(a5)
	.loc 1 54 90
	add	a5,a4,a5
	.loc 1 48 7
	mv	a4,a5
	.loc 1 57 61
	ld	a5,-24(s0)
	lw	a5,28(a5)
	.loc 1 48 7
	slli	a5,a5,32
	srli	a5,a5,32
	mv	a2,a5
	mv	a1,a4
	mv	a0,a3
	call	CopyMem@plt
	.loc 1 59 80
	ld	a5,-24(s0)
	sw	zero,28(a5)
	.loc 1 60 80
	ld	a5,-24(s0)
	sw	zero,24(a5)
.L6:
	.loc 1 65 84
	ld	a5,-24(s0)
	ld	a4,48(a5)
	.loc 1 66 67
	ld	a5,-24(s0)
	lw	a5,40(a5)
	slli	a5,a5,32
	srli	a5,a5,32
	.loc 1 63 5
	add	a3,a4,a5
	.loc 1 68 7
	la	a5,mNvVariableCache
	ld	a4,0(a5)
	.loc 1 70 67
	ld	a5,-24(s0)
	lw	a5,40(a5)
	slli	a5,a5,32
	srli	a5,a5,32
	.loc 1 63 5
	add	a4,a4,a5
	.loc 1 72 58
	ld	a5,-24(s0)
	lw	a5,44(a5)
	.loc 1 63 5
	slli	a5,a5,32
	srli	a5,a5,32
	mv	a2,a5
	mv	a1,a4
	mv	a0,a3
	call	CopyMem@plt
	.loc 1 74 77
	ld	a5,-24(s0)
	sw	zero,44(a5)
	.loc 1 75 77
	ld	a5,-24(s0)
	sw	zero,40(a5)
	.loc 1 79 90
	ld	a5,-24(s0)
	ld	a4,64(a5)
	.loc 1 80 73
	ld	a5,-24(s0)
	lw	a5,56(a5)
	slli	a5,a5,32
	srli	a5,a5,32
	.loc 1 77 5
	add	a3,a4,a5
	.loc 1 84 73
	ld	a5,-24(s0)
	lw	a5,56(a5)
	slli	a4,a5,32
	srli	a4,a4,32
	.loc 1 83 54
	la	a5,mVariableModuleGlobal
	ld	a5,0(a5)
	.loc 1 83 70
	ld	a5,8(a5)
	.loc 1 83 93
	add	a5,a4,a5
	.loc 1 77 5
	mv	a4,a5
	.loc 1 86 64
	ld	a5,-24(s0)
	lw	a5,60(a5)
	.loc 1 77 5
	slli	a5,a5,32
	srli	a5,a5,32
	mv	a2,a5
	mv	a1,a4
	mv	a0,a3
	call	CopyMem@plt
	.loc 1 88 83
	ld	a5,-24(s0)
	sw	zero,60(a5)
	.loc 1 89 83
	ld	a5,-24(s0)
	sw	zero,56(a5)
	.loc 1 90 34
	ld	a5,-24(s0)
	ld	a5,8(a5)
	.loc 1 90 51
	sb	zero,0(a5)
.L5:
	.loc 1 93 10
	li	a5,0
.L4:
	.loc 1 94 1
	mv	a0,a5
	ld	ra,24(sp)
	.cfi_restore 1
	ld	s0,16(sp)
	.cfi_restore 8
	.cfi_def_cfa 2, 32
	addi	sp,sp,32
	.cfi_def_cfa_offset 0
	jr	ra
	.cfi_endproc
.LFE0:
	.size	FlushPendingRuntimeVariableCacheUpdates, .-FlushPendingRuntimeVariableCacheUpdates
	.section	.text.SynchronizeRuntimeVariableCache,"ax",@progbits
	.align	1
	.globl	SynchronizeRuntimeVariableCache
	.type	SynchronizeRuntimeVariableCache, @function
SynchronizeRuntimeVariableCache:
.LFB1:
	.loc 1 119 1
	.cfi_startproc
	addi	sp,sp,-48
	.cfi_def_cfa_offset 48
	sd	ra,40(sp)
	sd	s0,32(sp)
	.cfi_offset 1, -8
	.cfi_offset 8, -16
	addi	s0,sp,48
	.cfi_def_cfa 8, 0
	sd	a0,-24(s0)
	sd	a1,-32(s0)
	sd	a2,-40(s0)
	.loc 1 120 6
	ld	a5,-24(s0)
	bne	a5,zero,.L8
	.loc 1 121 12
	li	a5,-1
	slli	a5,a5,63
	addi	a5,a5,2
	j	.L9
.L8:
	.loc 1 122 34
	ld	a5,-24(s0)
	ld	a5,8(a5)
	.loc 1 122 13
	bne	a5,zero,.L10
	.loc 1 125 12
	li	a5,0
	j	.L9
.L10:
	.loc 1 128 29
	la	a5,mVariableModuleGlobal
	ld	a5,0(a5)
	.loc 1 128 73
	ld	a5,32(a5)
	.loc 1 128 6
	beq	a5,zero,.L11
	.loc 1 129 29
	la	a5,mVariableModuleGlobal
	ld	a5,0(a5)
	.loc 1 129 73
	ld	a5,24(a5)
	.loc 1 128 105 discriminator 1
	bne	a5,zero,.L12
.L11:
	.loc 1 131 12
	li	a5,-1
	slli	a5,a5,63
	addi	a5,a5,3
	j	.L9
.L12:
	.loc 1 134 30
	la	a5,mVariableModuleGlobal
	ld	a5,0(a5)
	.loc 1 134 74
	ld	a5,32(a5)
	.loc 1 134 7
	lbu	a5,0(a5)
	.loc 1 134 6
	beq	a5,zero,.L13
	.loc 1 135 28
	ld	a5,-24(s0)
	lw	a5,4(a5)
	.loc 1 134 90 discriminator 1
	beq	a5,zero,.L13
	.loc 1 139 47
	ld	a5,-24(s0)
	lw	a4,0(a5)
	.loc 1 139 91
	ld	a5,-24(s0)
	lw	a5,4(a5)
	.loc 1 139 69
	addw	a5,a4,a5
	sext.w	a5,a5
	.loc 1 139 19
	slli	a4,a5,32
	srli	a4,a4,32
	.loc 1 139 125
	ld	a3,-32(s0)
	ld	a5,-40(s0)
	add	a5,a3,a5
	.loc 1 138 7
	bleu	a4,a5,.L14
	.loc 1 139 167
	ld	a5,-24(s0)
	lw	a4,0(a5)
	.loc 1 139 211
	ld	a5,-24(s0)
	lw	a5,4(a5)
	.loc 1 138 7 discriminator 1
	addw	a5,a4,a5
	sext.w	a4,a5
	j	.L15
.L14:
	.loc 1 139 245
	ld	a5,-32(s0)
	sext.w	a4,a5
	ld	a5,-40(s0)
	sext.w	a5,a5
	.loc 1 138 7 discriminator 2
	addw	a5,a4,a5
	sext.w	a4,a5
.L15:
	.loc 1 142 52
	ld	a5,-24(s0)
	lw	a5,0(a5)
	.loc 1 142 25
	slli	a5,a5,32
	srli	a5,a5,32
	.loc 1 138 7 discriminator 4
	ld	a3,-32(s0)
	bleu	a3,a5,.L16
	.loc 1 138 7 is_stmt 0 discriminator 5
	ld	a5,-24(s0)
	lw	a5,0(a5)
	j	.L17
.L16:
	.loc 1 138 7 discriminator 6
	ld	a5,-32(s0)
	sext.w	a5,a5
.L17:
	.loc 1 138 7 discriminator 8
	subw	a5,a4,a5
	sext.w	a4,a5
	.loc 1 137 47 is_stmt 1
	ld	a5,-24(s0)
	sw	a4,4(a5)
	.loc 1 145 45
	ld	a5,-24(s0)
	lw	a5,0(a5)
	.loc 1 145 18
	slli	a5,a5,32
	srli	a5,a5,32
	.loc 1 145 7
	ld	a4,-32(s0)
	bleu	a4,a5,.L18
	.loc 1 145 7 is_stmt 0 discriminator 1
	ld	a5,-24(s0)
	lw	a5,0(a5)
	j	.L19
.L18:
	.loc 1 145 7 discriminator 2
	ld	a5,-32(s0)
	sext.w	a5,a5
.L19:
	.loc 1 144 47 is_stmt 1
	ld	a4,-24(s0)
	sw	a5,0(a4)
	j	.L20
.L13:
	.loc 1 147 49
	ld	a5,-40(s0)
	sext.w	a4,a5
	.loc 1 147 47
	ld	a5,-24(s0)
	sw	a4,4(a5)
	.loc 1 148 49
	ld	a5,-32(s0)
	sext.w	a4,a5
	.loc 1 148 47
	ld	a5,-24(s0)
	sw	a4,0(a5)
.L20:
	.loc 1 151 26
	la	a5,mVariableModuleGlobal
	ld	a5,0(a5)
	.loc 1 151 70
	ld	a5,32(a5)
	.loc 1 151 86
	li	a4,1
	sb	a4,0(a5)
	.loc 1 153 30
	la	a5,mVariableModuleGlobal
	ld	a5,0(a5)
	.loc 1 153 74
	ld	a5,24(a5)
	.loc 1 153 7
	lbu	a5,0(a5)
	.loc 1 153 6
	bne	a5,zero,.L21
	.loc 1 154 12
	call	FlushPendingRuntimeVariableCacheUpdates
	mv	a5,a0
	j	.L9
.L21:
	.loc 1 157 10
	li	a5,0
.L9:
	.loc 1 158 1
	mv	a0,a5
	ld	ra,40(sp)
	.cfi_restore 1
	ld	s0,32(sp)
	.cfi_restore 8
	.cfi_def_cfa 2, 48
	addi	sp,sp,48
	.cfi_def_cfa_offset 0
	jr	ra
	.cfi_endproc
.LFE1:
	.size	SynchronizeRuntimeVariableCache, .-SynchronizeRuntimeVariableCache
	.text
.Letext0:
	.file 2 "/home/kapoagaeming/Downloads/spacemit-image-builder/components/edk2/MdePkg/Include/RiscV64/ProcessorBind.h"
	.file 3 "/home/kapoagaeming/Downloads/spacemit-image-builder/components/edk2/MdePkg/Include/Base.h"
	.file 4 "/home/kapoagaeming/Downloads/spacemit-image-builder/components/edk2/MdePkg/Include/Uefi/UefiBaseType.h"
	.file 5 "/home/kapoagaeming/Downloads/spacemit-image-builder/components/edk2/MdePkg/Include/Pi/PiFirmwareVolume.h"
	.file 6 "/home/kapoagaeming/Downloads/spacemit-image-builder/components/edk2/MdePkg/Include/Protocol/FirmwareVolumeBlock.h"
	.file 7 "/home/kapoagaeming/Downloads/spacemit-image-builder/components/edk2/MdePkg/Include/Library/UefiLib.h"
	.file 8 "/home/kapoagaeming/Downloads/spacemit-image-builder/components/edk2/MdeModulePkg/Include/Guid/VariableFormat.h"
	.file 9 "/home/kapoagaeming/Downloads/spacemit-image-builder/components/edk2/MdeModulePkg/Universal/Variable/RuntimeDxe/Variable.h"
	.file 10 "/home/kapoagaeming/Downloads/spacemit-image-builder/components/edk2/MdePkg/Include/Library/BaseMemoryLib.h"
	.section	.note.GNU-stack,"",@progbits
