	.file	"VariableNonVolatile.c"
	.option pic
	.option norelax
	.attribute arch, "rv64i2p1_m2p0_a2p1_f2p2_d2p2_c2p0_zicsr2p0_zifencei2p0_zmmul1p0_zaamo1p0_zalrsc1p0_zca1p0_zcd1p0"
	.attribute unaligned_access, 0
	.attribute stack_align, 16
	.text
.Ltext0:
	.cfi_sections	.debug_frame
	.file 0 "/home/kapoagaeming/spacemit-image-builder/components/Build/Milk-V-Jupiter/RELEASE_GCC5/RISCV64/MdeModulePkg/Universal/Variable/RuntimeDxe/VariableRuntimeDxe" "/home/kapoagaeming/spacemit-image-builder/components/edk2/MdeModulePkg/Universal/Variable/RuntimeDxe/VariableNonVolatile.c"
	.section	.text.GetNonVolatileMaxVariableSize,"ax",@progbits
	.align	1
	.globl	GetNonVolatileMaxVariableSize
	.type	GetNonVolatileMaxVariableSize, @function
GetNonVolatileMaxVariableSize:
.LFB0:
	.file 1 "/home/kapoagaeming/spacemit-image-builder/components/edk2/MdeModulePkg/Universal/Variable/RuntimeDxe/VariableNonVolatile.c"
	.loc 1 24 1
	.cfi_startproc
	addi	sp,sp,-16
	.cfi_def_cfa_offset 16
	sd	ra,8(sp)
	sd	s0,0(sp)
	.cfi_offset 1, -8
	.cfi_offset 8, -16
	addi	s0,sp,16
	.cfi_def_cfa 8, 0
	.loc 1 25 46
	la	a5,_gPcd_FixedAtBuild_PcdHwErrStorageSize
	lw	a5,0(a5)
	.loc 1 25 6
	beq	a5,zero,.L2
	.loc 1 26 146
	la	a5,_gPcd_FixedAtBuild_PcdMaxAuthVariableSize
	lw	a4,0(a5)
	la	a5,_gPcd_FixedAtBuild_PcdMaxVariableSize
	lw	a5,0(a5)
	mv	a2,a5
	mv	a3,a4
	sext.w	a4,a3
	sext.w	a5,a2
	bgeu	a4,a5,.L3
	mv	a3,a2
.L3:
	sext.w	a4,a3
	.loc 1 26 432
	la	a5,_gPcd_FixedAtBuild_PcdMaxHardwareErrorVariableSize
	lw	a5,0(a5)
	mv	a2,a5
	mv	a3,a4
	sext.w	a4,a3
	sext.w	a5,a2
	bgeu	a4,a5,.L4
	mv	a3,a2
.L4:
	sext.w	a5,a3
	slli	a5,a5,32
	srli	a5,a5,32
	j	.L5
.L2:
	.loc 1 31 143
	la	a5,_gPcd_FixedAtBuild_PcdMaxAuthVariableSize
	lw	a4,0(a5)
	la	a5,_gPcd_FixedAtBuild_PcdMaxVariableSize
	lw	a5,0(a5)
	mv	a2,a5
	mv	a3,a4
	sext.w	a4,a3
	sext.w	a5,a2
	bgeu	a4,a5,.L6
	mv	a3,a2
.L6:
	sext.w	a5,a3
	slli	a5,a5,32
	srli	a5,a5,32
.L5:
	.loc 1 33 1
	mv	a0,a5
	ld	ra,8(sp)
	.cfi_restore 1
	ld	s0,0(sp)
	.cfi_restore 8
	.cfi_def_cfa 2, 16
	addi	sp,sp,16
	.cfi_def_cfa_offset 0
	jr	ra
	.cfi_endproc
.LFE0:
	.size	GetNonVolatileMaxVariableSize, .-GetNonVolatileMaxVariableSize
	.section	.text.InitEmuNonVolatileVariableStore,"ax",@progbits
	.align	1
	.globl	InitEmuNonVolatileVariableStore
	.type	InitEmuNonVolatileVariableStore, @function
InitEmuNonVolatileVariableStore:
.LFB1:
	.loc 1 48 1
	.cfi_startproc
	addi	sp,sp,-64
	.cfi_def_cfa_offset 64
	sd	ra,56(sp)
	sd	s0,48(sp)
	.cfi_offset 1, -8
	.cfi_offset 8, -16
	addi	s0,sp,64
	.cfi_def_cfa 8, 0
	sd	a0,-56(s0)
	.loc 1 54 24
	li	a5,1
	sb	a5,-25(s0)
	.loc 1 56 23
	la	a5,_gPcd_FixedAtBuild_PcdVariableStoreSize
	lw	a5,0(a5)
	sw	a5,-32(s0)
	.loc 1 62 56
	la	a5,_gPcd_FixedAtBuild_PcdEmuVariableNvStoreReserved
	ld	a5,0(a5)
	.loc 1 62 6
	bne	a5,zero,.L8
	.loc 1 63 46
	lwu	a5,-32(s0)
	mv	a0,a5
	call	AllocateRuntimePool@plt
	sd	a0,-24(s0)
	.loc 1 64 8
	ld	a5,-24(s0)
	bne	a5,zero,.L9
	.loc 1 65 14
	li	a5,-1
	slli	a5,a5,63
	addi	a5,a5,9
	j	.L10
.L8:
	.loc 1 74 7
	la	a5,_gPcd_FixedAtBuild_PcdEmuVariableNvStoreReserved
	ld	a5,0(a5)
	.loc 1 73 19
	sd	a5,-24(s0)
	.loc 1 76 23
	ld	a5,-24(s0)
	lbu	a4,16(a5)
	lbu	a3,17(a5)
	slli	a3,a3,8
	or	a4,a3,a4
	lbu	a3,18(a5)
	slli	a3,a3,16
	or	a4,a3,a4
	lbu	a5,19(a5)
	slli	a5,a5,24
	or	a5,a5,a4
	sext.w	a5,a5
	.loc 1 76 8
	lw	a4,-32(s0)
	sext.w	a4,a4
	bne	a4,a5,.L9
	.loc 1 77 23
	ld	a5,-24(s0)
	.loc 1 77 10
	la	a1,gEfiAuthenticatedVariableGuid
	mv	a0,a5
	call	CompareGuid@plt
	mv	a5,a0
	.loc 1 76 54 discriminator 1
	bne	a5,zero,.L11
	.loc 1 78 23
	ld	a5,-24(s0)
	.loc 1 78 10
	la	a1,gEfiVariableGuid
	mv	a0,a5
	call	CompareGuid@plt
	mv	a5,a0
	.loc 1 77 82
	beq	a5,zero,.L9
.L11:
	.loc 1 79 23
	ld	a5,-24(s0)
	lbu	a5,20(a5)
	.loc 1 78 70
	mv	a4,a5
	li	a5,90
	bne	a4,a5,.L9
	.loc 1 80 23
	ld	a5,-24(s0)
	lbu	a5,21(a5)
	.loc 1 79 41
	mv	a4,a5
	li	a5,254
	bne	a4,a5,.L9
	.loc 1 87 28
	sb	zero,-25(s0)
.L9:
	.loc 1 91 6
	lbu	a5,-25(s0)
	andi	a5,a5,0xff
	beq	a5,zero,.L12
	.loc 1 92 5
	lwu	a5,-32(s0)
	li	a2,255
	mv	a1,a5
	ld	a0,-24(s0)
	call	SetMem@plt
	.loc 1 96 15
	ld	a5,-24(s0)
	.loc 1 96 5
	la	a1,gEfiAuthenticatedVariableGuid
	mv	a0,a5
	call	CopyGuid@plt
	.loc 1 97 25
	ld	a5,-24(s0)
	ld	a4,-32(s0)
	andi	a4,a4,255
	lbu	a3,16(a5)
	andi	a3,a3,0
	or	a4,a3,a4
	sb	a4,16(a5)
	ld	a4,-32(s0)
	srli	a4,a4,8
	andi	a4,a4,255
	lbu	a3,17(a5)
	andi	a3,a3,0
	or	a4,a3,a4
	sb	a4,17(a5)
	ld	a4,-32(s0)
	srli	a4,a4,16
	andi	a4,a4,255
	lbu	a3,18(a5)
	andi	a3,a3,0
	or	a4,a3,a4
	sb	a4,18(a5)
	ld	a4,-32(s0)
	srli	a4,a4,24
	andi	a4,a4,255
	lbu	a3,19(a5)
	andi	a3,a3,0
	or	a4,a3,a4
	sb	a4,19(a5)
	.loc 1 98 27
	ld	a5,-24(s0)
	li	a4,90
	sb	a4,20(a5)
	.loc 1 99 26
	ld	a5,-24(s0)
	li	a4,-2
	sb	a4,21(a5)
	.loc 1 100 29
	ld	a5,-24(s0)
	lbu	a4,22(a5)
	andi	a4,a4,0
	sb	a4,22(a5)
	lbu	a4,23(a5)
	andi	a4,a4,0
	sb	a4,23(a5)
	.loc 1 101 30
	ld	a5,-24(s0)
	lbu	a4,24(a5)
	andi	a4,a4,0
	sb	a4,24(a5)
	lbu	a4,25(a5)
	andi	a4,a4,0
	sb	a4,25(a5)
	lbu	a4,26(a5)
	andi	a4,a4,0
	sb	a4,26(a5)
	lbu	a4,27(a5)
	andi	a4,a4,0
	sb	a4,27(a5)
.L12:
	.loc 1 104 24
	ld	a4,-24(s0)
	.loc 1 104 22
	ld	a5,-56(s0)
	sd	a4,0(a5)
	.loc 1 106 20
	la	a5,_gPcd_FixedAtBuild_PcdHwErrStorageSize
	lw	a5,0(a5)
	sw	a5,-36(s0)
	.loc 1 116 49
	lwu	a4,-32(s0)
	.loc 1 116 109
	lwu	a5,-36(s0)
	sub	a4,a4,a5
	.loc 1 116 24
	la	a5,mVariableModuleGlobal
	ld	a5,0(a5)
	.loc 1 116 109
	addi	a4,a4,-28
	.loc 1 116 46
	sd	a4,144(a5)
	.loc 1 117 76
	la	a5,mVariableModuleGlobal
	ld	a4,0(a5)
	.loc 1 117 24
	la	a5,mVariableModuleGlobal
	ld	a5,0(a5)
	.loc 1 117 76
	ld	a4,144(a4)
	.loc 1 117 53
	sd	a4,152(a5)
	.loc 1 118 76
	la	a5,mVariableModuleGlobal
	ld	a4,0(a5)
	.loc 1 118 24
	la	a5,mVariableModuleGlobal
	ld	a5,0(a5)
	.loc 1 118 76
	ld	a4,144(a4)
	.loc 1 118 53
	sd	a4,160(a5)
	.loc 1 120 10
	li	a5,0
.L10:
	.loc 1 121 1
	mv	a0,a5
	ld	ra,56(sp)
	.cfi_restore 1
	ld	s0,48(sp)
	.cfi_restore 8
	.cfi_def_cfa 2, 64
	addi	sp,sp,64
	.cfi_def_cfa_offset 0
	jr	ra
	.cfi_endproc
.LFE1:
	.size	InitEmuNonVolatileVariableStore, .-InitEmuNonVolatileVariableStore
	.section	.text.InitRealNonVolatileVariableStore,"ax",@progbits
	.align	1
	.globl	InitRealNonVolatileVariableStore
	.type	InitRealNonVolatileVariableStore, @function
InitRealNonVolatileVariableStore:
.LFB2:
	.loc 1 137 1
	.cfi_startproc
	addi	sp,sp,-144
	.cfi_def_cfa_offset 144
	sd	ra,136(sp)
	sd	s0,128(sp)
	.cfi_offset 1, -8
	.cfi_offset 8, -16
	addi	s0,sp,144
	.cfi_def_cfa 8, 0
	sd	a0,-136(s0)
	.loc 1 155 24
	la	a5,mVariableModuleGlobal
	ld	a5,0(a5)
	.loc 1 155 38
	sd	zero,256(a5)
	.loc 1 157 12
	addi	a4,s0,-112
	addi	a5,s0,-96
	mv	a1,a4
	mv	a0,a5
	call	GetVariableFlashNvStorageInfo@plt
	sd	a0,-24(s0)
	.loc 1 160 12
	ld	a5,-112(s0)
	addi	a4,s0,-100
	mv	a1,a4
	mv	a0,a5
	call	SafeUint64ToUint32@plt
	sd	a0,-24(s0)
	.loc 1 170 19
	lw	a5,-100(s0)
	slli	a5,a5,32
	srli	a5,a5,32
	mv	a0,a5
	call	AllocateRuntimeZeroPool@plt
	sd	a0,-32(s0)
	.loc 1 171 6
	ld	a5,-32(s0)
	bne	a5,zero,.L14
	.loc 1 172 12
	li	a5,-1
	slli	a5,a5,63
	addi	a5,a5,9
	j	.L23
.L14:
	.loc 1 178 3
	ld	a5,-96(s0)
	mv	a4,a5
	lw	a5,-100(s0)
	slli	a5,a5,32
	srli	a5,a5,32
	mv	a2,a5
	mv	a1,a4
	ld	a0,-32(s0)
	call	CopyMem@plt
	.loc 1 180 12
	addi	a5,s0,-120
	mv	a0,a5
	call	GetFtwProtocol@plt
	sd	a0,-24(s0)
	.loc 1 184 34
	ld	a5,-24(s0)
	.loc 1 184 6
	bge	a5,zero,.L16
	.loc 1 188 15
	la	a0,gEdkiiFaultTolerantWriteGuid
	call	GetFirstGuidHob@plt
	mv	a5,a0
	.loc 1 188 13 discriminator 1
	sd	a5,-88(s0)
	.loc 1 189 17
	ld	a5,-88(s0)
	.loc 1 189 8
	beq	a5,zero,.L16
	.loc 1 190 86
	addi	a5,s0,-88
	.loc 1 190 75
	ld	a5,0(a5)
	.loc 1 190 24
	addi	a5,a5,24
	sd	a5,-40(s0)
	.loc 1 191 27
	ld	a5,-40(s0)
	ld	a4,0(a5)
	.loc 1 191 43
	ld	a5,-96(s0)
	.loc 1 191 10
	bne	a4,a5,.L17
	.loc 1 196 66
	ld	a5,-40(s0)
	ld	a5,8(a5)
	.loc 1 196 9
	mv	a4,a5
	lw	a5,-100(s0)
	slli	a5,a5,32
	srli	a5,a5,32
	mv	a2,a5
	mv	a1,a4
	ld	a0,-32(s0)
	call	CopyMem@plt
	j	.L16
.L17:
	.loc 1 197 35
	ld	a5,-40(s0)
	ld	a4,0(a5)
	.loc 1 197 51
	ld	a5,-96(s0)
	.loc 1 197 17
	bleu	a4,a5,.L16
	.loc 1 198 35
	ld	a5,-40(s0)
	ld	a4,0(a5)
	.loc 1 198 68
	lw	a5,-100(s0)
	slli	a3,a5,32
	srli	a3,a3,32
	ld	a5,-96(s0)
	add	a5,a3,a5
	.loc 1 197 68 discriminator 1
	bgeu	a4,a5,.L16
	.loc 1 203 49
	ld	a5,-40(s0)
	ld	a5,0(a5)
	.loc 1 203 24
	sext.w	a4,a5
	ld	a5,-96(s0)
	sext.w	a5,a5
	.loc 1 203 22
	subw	a5,a4,a5
	sw	a5,-44(s0)
	.loc 1 204 36
	lw	a5,-100(s0)
	.loc 1 204 20
	lw	a4,-44(s0)
	subw	a5,a5,a4
	sw	a5,-48(s0)
	.loc 1 209 9
	lwu	a5,-44(s0)
	.loc 1 209 32
	ld	a4,-32(s0)
	add	a4,a4,a5
	.loc 1 209 80
	ld	a5,-40(s0)
	ld	a5,8(a5)
	.loc 1 209 9
	mv	a3,a5
	lwu	a5,-48(s0)
	mv	a2,a5
	mv	a1,a3
	mv	a0,a4
	call	CopyMem@plt
.L16:
	.loc 1 214 12
	ld	a5,-32(s0)
	sd	a5,-56(s0)
	.loc 1 219 16
	ld	a5,-56(s0)
	lw	a4,40(a5)
	.loc 1 219 6
	li	a5,1213612032
	addi	a5,a5,1631
	bne	a4,a5,.L18
	.loc 1 219 129 discriminator 1
	ld	a5,-56(s0)
	addi	a5,a5,16
	.loc 1 219 91 discriminator 1
	mv	a1,a5
	la	a0,gEfiSystemNvDataFvGuid
	call	CompareGuid@plt
	mv	a5,a0
	.loc 1 219 86 discriminator 2
	bne	a5,zero,.L19
.L18:
	.loc 1 220 5
	ld	a0,-32(s0)
	call	FreePool@plt
	.loc 1 222 12
	li	a5,-1
	slli	a5,a5,63
	addi	a5,a5,10
	j	.L23
.L19:
	.loc 1 225 71
	ld	a5,-56(s0)
	lhu	a5,48(a5)
	mv	a4,a5
	.loc 1 225 45
	ld	a5,-56(s0)
	.loc 1 225 61
	add	a5,a4,a5
	.loc 1 225 17
	sd	a5,-64(s0)
	.loc 1 226 39
	lw	a4,-100(s0)
	.loc 1 226 49
	ld	a5,-56(s0)
	lhu	a5,48(a5)
	sext.w	a5,a5
	.loc 1 226 23
	subw	a5,a4,a5
	sw	a5,-68(s0)
	.loc 1 233 7
	ld	a0,-64(s0)
	call	GetVariableStoreStatus@plt
	mv	a5,a0
	mv	a4,a5
	.loc 1 233 6 discriminator 1
	li	a5,1
	beq	a4,a5,.L20
	.loc 1 234 5
	ld	a0,-32(s0)
	call	FreePool@plt
	.loc 1 236 12
	li	a5,-1
	slli	a5,a5,63
	addi	a5,a5,10
	j	.L23
.L20:
	.loc 1 239 20
	la	a5,mNvFvHeaderCache
	ld	a4,-56(s0)
	sd	a4,0(a5)
	.loc 1 241 24
	ld	a4,-64(s0)
	.loc 1 241 22
	ld	a5,-136(s0)
	sd	a4,0(a5)
	.loc 1 243 20
	la	a5,_gPcd_FixedAtBuild_PcdHwErrStorageSize
	lw	a5,0(a5)
	sw	a5,-72(s0)
	.loc 1 244 30
	la	a5,_gPcd_FixedAtBuild_PcdMaxUserNvVariableSpaceSize
	lw	a5,0(a5)
	sw	a5,-76(s0)
	.loc 1 245 39
	la	a5,_gPcd_FixedAtBuild_PcdBoottimeReservedNvVariableSpaceSize
	lw	a5,0(a5)
	sw	a5,-80(s0)
	.loc 1 265 49
	lwu	a4,-68(s0)
	.loc 1 265 109
	lwu	a5,-72(s0)
	sub	a4,a4,a5
	.loc 1 265 24
	la	a5,mVariableModuleGlobal
	ld	a5,0(a5)
	.loc 1 265 109
	addi	a4,a4,-28
	.loc 1 265 46
	sd	a4,144(a5)
	.loc 1 266 119
	lw	a5,-76(s0)
	sext.w	a5,a5
	beq	a5,zero,.L21
	.loc 1 266 119 is_stmt 0 discriminator 1
	lwu	a5,-76(s0)
	j	.L22
.L21:
	.loc 1 266 142 is_stmt 1 discriminator 2
	la	a5,mVariableModuleGlobal
	ld	a5,0(a5)
	.loc 1 266 119 discriminator 2
	ld	a5,144(a5)
.L22:
	.loc 1 266 24 discriminator 4
	la	a4,mVariableModuleGlobal
	ld	a4,0(a4)
	.loc 1 266 53 discriminator 4
	sd	a5,152(a4)
	.loc 1 267 76
	la	a5,mVariableModuleGlobal
	ld	a5,0(a5)
	ld	a3,144(a5)
	.loc 1 267 98
	lwu	a4,-80(s0)
	.loc 1 267 24
	la	a5,mVariableModuleGlobal
	ld	a5,0(a5)
	.loc 1 267 98
	sub	a4,a3,a4
	.loc 1 267 53
	sd	a4,160(a5)
	.loc 1 282 10
	li	a5,0
.L23:
	.loc 1 283 1
	mv	a0,a5
	ld	ra,136(sp)
	.cfi_restore 1
	ld	s0,128(sp)
	.cfi_restore 8
	.cfi_def_cfa 2, 144
	addi	sp,sp,144
	.cfi_def_cfa_offset 0
	jr	ra
	.cfi_endproc
.LFE2:
	.size	InitRealNonVolatileVariableStore, .-InitRealNonVolatileVariableStore
	.section	.text.InitNonVolatileVariableStore,"ax",@progbits
	.align	1
	.globl	InitNonVolatileVariableStore
	.type	InitNonVolatileVariableStore, @function
InitNonVolatileVariableStore:
.LFB3:
	.loc 1 297 1
	.cfi_startproc
	addi	sp,sp,-80
	.cfi_def_cfa_offset 80
	sd	ra,72(sp)
	sd	s0,64(sp)
	sd	s1,56(sp)
	.cfi_offset 1, -8
	.cfi_offset 8, -16
	.cfi_offset 9, -24
	addi	s0,sp,80
	.cfi_def_cfa 8, 0
	.loc 1 304 7
	li	a0,3
	call	LibPcdGetBool@plt
	mv	a5,a0
	.loc 1 304 6 discriminator 1
	beq	a5,zero,.L25
	.loc 1 305 14
	addi	a5,s0,-72
	mv	a0,a5
	call	InitEmuNonVolatileVariableStore
	sd	a0,-48(s0)
	.loc 1 306 36
	ld	a5,-48(s0)
	.loc 1 306 8
	bge	a5,zero,.L26
	.loc 1 307 14
	ld	a5,-48(s0)
	j	.L36
.L26:
	.loc 1 310 26
	la	a5,mVariableModuleGlobal
	ld	a5,0(a5)
	.loc 1 310 53
	li	a4,1
	sb	a4,126(a5)
	j	.L28
.L25:
	.loc 1 313 14
	addi	a5,s0,-72
	mv	a0,a5
	call	InitRealNonVolatileVariableStore
	sd	a0,-48(s0)
	.loc 1 314 36
	ld	a5,-48(s0)
	.loc 1 314 8
	bge	a5,zero,.L29
	.loc 1 315 14
	ld	a5,-48(s0)
	j	.L36
.L29:
	.loc 1 318 26
	la	a5,mVariableModuleGlobal
	ld	a5,0(a5)
	.loc 1 318 53
	sb	zero,126(a5)
.L28:
	.loc 1 321 24
	la	a5,mVariableModuleGlobal
	ld	a5,0(a5)
	.loc 1 321 65
	ld	a4,-72(s0)
	sd	a4,16(a5)
	.loc 1 322 22
	ld	a5,-72(s0)
	mv	a4,a5
	.loc 1 322 20
	la	a5,mNvVariableCache
	sd	a4,0(a5)
	.loc 1 323 94
	la	a5,mNvVariableCache
	ld	a5,0(a5)
	.loc 1 323 77
	mv	a4,a5
	.loc 1 323 24
	la	a5,mVariableModuleGlobal
	ld	s1,0(a5)
	.loc 1 323 64
	la	a1,gEfiAuthenticatedVariableGuid
	mv	a0,a4
	call	CompareGuid@plt
	mv	a5,a0
	.loc 1 323 52 discriminator 1
	sb	a5,124(s1)
	.loc 1 325 42
	la	a5,_gPcd_FixedAtBuild_PcdMaxVariableSize
	lw	a4,0(a5)
	.loc 1 325 24
	la	a5,mVariableModuleGlobal
	ld	a5,0(a5)
	.loc 1 325 42
	slli	a4,a4,32
	srli	a4,a4,32
	sd	a4,192(a5)
	.loc 1 326 92
	la	a5,_gPcd_FixedAtBuild_PcdMaxAuthVariableSize
	lw	a5,0(a5)
	.loc 1 326 142
	beq	a5,zero,.L30
	.loc 1 326 142 is_stmt 0 discriminator 1
	la	a5,_gPcd_FixedAtBuild_PcdMaxAuthVariableSize
	lw	a5,0(a5)
	slli	a5,a5,32
	srli	a5,a5,32
	j	.L31
.L30:
	.loc 1 326 165 is_stmt 1 discriminator 2
	la	a5,mVariableModuleGlobal
	ld	a5,0(a5)
	.loc 1 326 142 discriminator 2
	ld	a5,192(a5)
.L31:
	.loc 1 326 24 discriminator 4
	la	a4,mVariableModuleGlobal
	ld	a4,0(a4)
	.loc 1 326 46 discriminator 4
	sd	a5,200(a4)
	.loc 1 331 14
	la	a5,mNvVariableCache
	ld	a5,0(a5)
	mv	a0,a5
	call	GetStartPointer@plt
	sd	a0,-40(s0)
	.loc 1 332 9
	j	.L32
.L35:
	.loc 1 333 71
	la	a5,mVariableModuleGlobal
	ld	a5,0(a5)
	.loc 1 333 20
	lbu	a5,124(a5)
	mv	a1,a5
	ld	a0,-40(s0)
	call	GetNextVariablePtr@plt
	sd	a0,-56(s0)
	.loc 1 334 20
	ld	a4,-56(s0)
	.loc 1 334 42
	ld	a5,-40(s0)
	.loc 1 334 18
	sub	a5,a4,a5
	sd	a5,-64(s0)
	.loc 1 335 18
	ld	a5,-40(s0)
	lbu	a4,4(a5)
	lbu	a3,5(a5)
	slli	a3,a3,8
	or	a4,a3,a4
	lbu	a3,6(a5)
	slli	a3,a3,16
	or	a4,a3,a4
	lbu	a5,7(a5)
	slli	a5,a5,24
	or	a5,a5,a4
	sext.w	a5,a5
	.loc 1 335 31
	andi	a5,a5,9
	sext.w	a4,a5
	.loc 1 335 8
	li	a5,9
	bne	a4,a5,.L33
	.loc 1 336 28
	la	a5,mVariableModuleGlobal
	ld	a5,0(a5)
	ld	a3,184(a5)
	la	a5,mVariableModuleGlobal
	ld	a5,0(a5)
	.loc 1 336 53
	ld	a4,-64(s0)
	add	a4,a3,a4
	sd	a4,184(a5)
	j	.L34
.L33:
	.loc 1 338 28
	la	a5,mVariableModuleGlobal
	ld	a5,0(a5)
	ld	a3,168(a5)
	la	a5,mVariableModuleGlobal
	ld	a5,0(a5)
	.loc 1 338 54
	ld	a4,-64(s0)
	add	a4,a3,a4
	sd	a4,168(a5)
.L34:
	.loc 1 341 14
	ld	a5,-56(s0)
	sd	a5,-40(s0)
.L32:
	.loc 1 332 10
	la	a5,mNvVariableCache
	ld	a5,0(a5)
	mv	a0,a5
	call	GetEndPointer@plt
	mv	a5,a0
	.loc 1 332 10 is_stmt 0 discriminator 1
	mv	a1,a5
	ld	a0,-40(s0)
	call	IsValidVariableHeader@plt
	mv	a5,a0
	.loc 1 332 10 discriminator 2
	bne	a5,zero,.L35
	.loc 1 344 58 is_stmt 1
	ld	a4,-40(s0)
	.loc 1 344 76
	la	a5,mNvVariableCache
	ld	a5,0(a5)
	mv	a3,a5
	.loc 1 344 24
	la	a5,mVariableModuleGlobal
	ld	a5,0(a5)
	.loc 1 344 74
	sub	a4,a4,a3
	.loc 1 344 56
	sd	a4,136(a5)
	.loc 1 346 10
	li	a5,0
.L36:
	.loc 1 347 1
	mv	a0,a5
	ld	ra,72(sp)
	.cfi_restore 1
	ld	s0,64(sp)
	.cfi_restore 8
	.cfi_def_cfa 2, 80
	ld	s1,56(sp)
	.cfi_restore 9
	addi	sp,sp,80
	.cfi_def_cfa_offset 0
	jr	ra
	.cfi_endproc
.LFE3:
	.size	InitNonVolatileVariableStore, .-InitNonVolatileVariableStore
	.text
.Letext0:
	.file 2 "/home/kapoagaeming/spacemit-image-builder/components/edk2/MdePkg/Include/RiscV64/ProcessorBind.h"
	.file 3 "/home/kapoagaeming/spacemit-image-builder/components/edk2/MdePkg/Include/Base.h"
	.file 4 "/home/kapoagaeming/spacemit-image-builder/components/edk2/MdePkg/Include/Uefi/UefiBaseType.h"
	.file 5 "/home/kapoagaeming/spacemit-image-builder/components/edk2/MdePkg/Include/Pi/PiFirmwareVolume.h"
	.file 6 "/home/kapoagaeming/spacemit-image-builder/components/edk2/MdePkg/Include/Pi/PiHob.h"
	.file 7 "/home/kapoagaeming/spacemit-image-builder/components/Build/Milk-V-Jupiter/RELEASE_GCC5/RISCV64/MdeModulePkg/Universal/Variable/RuntimeDxe/VariableRuntimeDxe/DEBUG/AutoGen.h"
	.file 8 "/home/kapoagaeming/spacemit-image-builder/components/edk2/MdePkg/Include/Protocol/FirmwareVolumeBlock.h"
	.file 9 "/home/kapoagaeming/spacemit-image-builder/components/edk2/MdePkg/Include/Library/UefiLib.h"
	.file 10 "/home/kapoagaeming/spacemit-image-builder/components/edk2/MdeModulePkg/Include/Guid/VariableFormat.h"
	.file 11 "/home/kapoagaeming/spacemit-image-builder/components/edk2/MdeModulePkg/Include/Guid/FaultTolerantWrite.h"
	.file 12 "/home/kapoagaeming/spacemit-image-builder/components/edk2/MdeModulePkg/Universal/Variable/RuntimeDxe/Variable.h"
	.file 13 "/home/kapoagaeming/spacemit-image-builder/components/edk2/MdeModulePkg/Universal/Variable/RuntimeDxe/VariableParsing.h"
	.file 14 "/home/kapoagaeming/spacemit-image-builder/components/edk2/MdePkg/Include/Library/PcdLib.h"
	.file 15 "/home/kapoagaeming/spacemit-image-builder/components/edk2/MdePkg/Include/Library/HobLib.h"
	.file 16 "/home/kapoagaeming/spacemit-image-builder/components/edk2/MdePkg/Include/Library/BaseMemoryLib.h"
	.file 17 "/home/kapoagaeming/spacemit-image-builder/components/edk2/MdePkg/Include/Library/MemoryAllocationLib.h"
	.file 18 "/home/kapoagaeming/spacemit-image-builder/components/edk2/MdePkg/Include/Library/SafeIntLib.h"
	.file 19 "/home/kapoagaeming/spacemit-image-builder/components/edk2/MdeModulePkg/Include/Library/VariableFlashInfoLib.h"
	.section	.note.GNU-stack,"",@progbits
