	.file	"CpuExceptionHandlerLib.c"
	.option pic
	.option norelax
	.attribute arch, "rv64i2p1_m2p0_a2p1_f2p2_d2p2_c2p0_zicsr2p0_zifencei2p0_zmmul1p0_zaamo1p0_zalrsc1p0_zca1p0_zcd1p0"
	.attribute unaligned_access, 0
	.attribute stack_align, 16
	.text
.Ltext0:
	.cfi_sections	.debug_frame
	.file 0 "/home/kapoagaeming/Downloads/spacemit-image-builder/components/Build/Milk-V-Jupiter/RELEASE_GCC5/RISCV64/UefiCpuPkg/Library/BaseRiscV64CpuExceptionHandlerLib/BaseRiscV64CpuExceptionHandlerLib" "/home/kapoagaeming/Downloads/spacemit-image-builder/components/edk2/UefiCpuPkg/Library/BaseRiscV64CpuExceptionHandlerLib/CpuExceptionHandlerLib.c"
	.section	.bss.mExceptionHandlers,"aw",@nobits
	.align	3
	.type	mExceptionHandlers, @object
	.size	mExceptionHandlers, 192
mExceptionHandlers:
	.zero	192
	.section	.bss.mIrqHandlers,"aw",@nobits
	.align	3
	.type	mIrqHandlers, @object
	.size	mIrqHandlers, 48
mIrqHandlers:
	.zero	48
	.section	.rodata.mExceptionOrIrqUnknown,"a"
	.align	3
	.type	mExceptionOrIrqUnknown, @object
	.size	mExceptionOrIrqUnknown, 8
mExceptionOrIrqUnknown:
	.string	"Unknown"
	.section	.rodata
	.align	3
.LC0:
	.string	"EXCEPT_RISCV_INST_MISALIGNED"
	.align	3
.LC1:
	.string	"EXCEPT_RISCV_INST_ACCESS_FAULT"
	.align	3
.LC2:
	.string	"EXCEPT_RISCV_ILLEGAL_INST"
	.align	3
.LC3:
	.string	"EXCEPT_RISCV_BREAKPOINT"
	.align	3
.LC4:
	.string	"EXCEPT_RISCV_LOAD_ADDRESS_MISALIGNED"
	.align	3
.LC5:
	.string	"EXCEPT_RISCV_LOAD_ACCESS_FAULT"
	.align	3
.LC6:
	.string	"EXCEPT_RISCV_STORE_AMO_ADDRESS_MISALIGNED"
	.align	3
.LC7:
	.string	"EXCEPT_RISCV_STORE_AMO_ACCESS_FAULT"
	.align	3
.LC8:
	.string	"EXCEPT_RISCV_ENV_CALL_FROM_UMODE"
	.align	3
.LC9:
	.string	"EXCEPT_RISCV_ENV_CALL_FROM_SMODE"
	.align	3
.LC10:
	.string	"EXCEPT_RISCV_ENV_CALL_FROM_VS_MODE"
	.align	3
.LC11:
	.string	"EXCEPT_RISCV_ENV_CALL_FROM_MMODE"
	.align	3
.LC12:
	.string	"EXCEPT_RISCV_INST_ACCESS_PAGE_FAULT"
	.align	3
.LC13:
	.string	"EXCEPT_RISCV_LOAD_ACCESS_PAGE_FAULT"
	.align	3
.LC14:
	.string	"EXCEPT_RISCV_14"
	.align	3
.LC15:
	.string	"EXCEPT_RISCV_STORE_ACCESS_PAGE_FAULT"
	.align	3
.LC16:
	.string	"EXCEPT_RISCV_16"
	.align	3
.LC17:
	.string	"EXCEPT_RISCV_17"
	.align	3
.LC18:
	.string	"EXCEPT_RISCV_18"
	.align	3
.LC19:
	.string	"EXCEPT_RISCV_19"
	.align	3
.LC20:
	.string	"EXCEPT_RISCV_INST_GUEST_PAGE_FAULT"
	.align	3
.LC21:
	.string	"EXCEPT_RISCV_LOAD_GUEST_PAGE_FAULT"
	.align	3
.LC22:
	.string	"EXCEPT_RISCV_VIRTUAL_INSTRUCTION"
	.align	3
.LC23:
	.string	"EXCEPT_RISCV_STORE_GUEST_PAGE_FAULT"
	.section	.data.rel.local.mExceptionNameStr,"aw"
	.align	3
	.type	mExceptionNameStr, @object
	.size	mExceptionNameStr, 192
mExceptionNameStr:
	.dword	.LC0
	.dword	.LC1
	.dword	.LC2
	.dword	.LC3
	.dword	.LC4
	.dword	.LC5
	.dword	.LC6
	.dword	.LC7
	.dword	.LC8
	.dword	.LC9
	.dword	.LC10
	.dword	.LC11
	.dword	.LC12
	.dword	.LC13
	.dword	.LC14
	.dword	.LC15
	.dword	.LC16
	.dword	.LC17
	.dword	.LC18
	.dword	.LC19
	.dword	.LC20
	.dword	.LC21
	.dword	.LC22
	.dword	.LC23
	.section	.rodata
	.align	3
.LC24:
	.string	"EXCEPT_RISCV_IRQ_0"
	.align	3
.LC25:
	.string	"EXCEPT_RISCV_IRQ_SOFT_FROM_SMODE"
	.align	3
.LC26:
	.string	"EXCEPT_RISCV_IRQ_SOFT_FROM_VSMODE"
	.align	3
.LC27:
	.string	"EXCEPT_RISCV_IRQ_SOFT_FROM_MMODE"
	.align	3
.LC28:
	.string	"EXCEPT_RISCV_IRQ_4"
	.align	3
.LC29:
	.string	"EXCEPT_RISCV_IRQ_TIMER_FROM_SMODE"
	.section	.data.rel.local.mIrqNameStr,"aw"
	.align	3
	.type	mIrqNameStr, @object
	.size	mIrqNameStr, 48
mIrqNameStr:
	.dword	.LC24
	.dword	.LC25
	.dword	.LC26
	.dword	.LC27
	.dword	.LC28
	.dword	.LC29
	.section	.text.InternalPrintMessage,"ax",@progbits
	.align	1
	.type	InternalPrintMessage, @function
InternalPrintMessage:
.LFB0:
	.file 1 "/home/kapoagaeming/Downloads/spacemit-image-builder/components/edk2/UefiCpuPkg/Library/BaseRiscV64CpuExceptionHandlerLib/CpuExceptionHandlerLib.c"
	.loc 1 79 1
	.cfi_startproc
	addi	sp,sp,-368
	.cfi_def_cfa_offset 368
	sd	ra,296(sp)
	sd	s0,288(sp)
	.cfi_offset 1, -72
	.cfi_offset 8, -80
	addi	s0,sp,304
	.cfi_def_cfa 8, 64
	sd	a0,-296(s0)
	sd	a1,8(s0)
	sd	a2,16(s0)
	sd	a3,24(s0)
	sd	a4,32(s0)
	sd	a5,40(s0)
	sd	a6,48(s0)
	sd	a7,56(s0)
	.loc 1 86 3
	addi	a5,s0,64
	sd	a5,-304(s0)
	ld	a5,-304(s0)
	addi	a5,a5,-56
	sd	a5,-280(s0)
	.loc 1 87 3
	ld	a4,-280(s0)
	addi	a5,s0,-272
	mv	a3,a4
	ld	a2,-296(s0)
	li	a1,256
	mv	a0,a5
	call	AsciiVSPrint@plt
	.loc 1 93 3
	addi	a5,s0,-272
	mv	a0,a5
	call	AsciiStrLen@plt
	mv	a4,a0
	.loc 1 93 3 is_stmt 0 discriminator 1
	addi	a5,s0,-272
	mv	a1,a4
	mv	a0,a5
	call	SerialPortWrite@plt
	.loc 1 94 1 is_stmt 1
	nop
	ld	ra,296(sp)
	.cfi_restore 1
	ld	s0,288(sp)
	.cfi_restore 8
	.cfi_def_cfa 2, 368
	addi	sp,sp,368
	.cfi_def_cfa_offset 0
	jr	ra
	.cfi_endproc
.LFE0:
	.size	InternalPrintMessage, .-InternalPrintMessage
	.section	.text.GetExceptionNameStr,"ax",@progbits
	.align	1
	.type	GetExceptionNameStr, @function
GetExceptionNameStr:
.LFB1:
	.loc 1 108 1
	.cfi_startproc
	addi	sp,sp,-32
	.cfi_def_cfa_offset 32
	sd	ra,24(sp)
	sd	s0,16(sp)
	.cfi_offset 1, -8
	.cfi_offset 8, -16
	addi	s0,sp,32
	.cfi_def_cfa 8, 0
	sd	a0,-24(s0)
	.loc 1 109 6
	ld	a5,-24(s0)
	bge	a5,zero,.L3
	.loc 1 110 24
	ld	a4,-24(s0)
	li	a5,-1
	srli	a5,a5,1
	and	a4,a4,a5
	.loc 1 110 8
	li	a5,5
	bleu	a4,a5,.L4
	.loc 1 111 14
	lla	a5,mExceptionOrIrqUnknown
	j	.L5
.L4:
	.loc 1 114 39
	ld	a4,-24(s0)
	li	a5,-1
	srli	a5,a5,1
	and	a5,a4,a5
	.loc 1 114 23
	lla	a4,mIrqNameStr
	slli	a5,a5,3
	add	a5,a4,a5
	ld	a5,0(a5)
	j	.L5
.L3:
	.loc 1 117 6
	ld	a4,-24(s0)
	li	a5,23
	ble	a4,a5,.L6
	.loc 1 118 12
	lla	a5,mExceptionOrIrqUnknown
	j	.L5
.L6:
	.loc 1 121 27
	lla	a4,mExceptionNameStr
	ld	a5,-24(s0)
	slli	a5,a5,3
	add	a5,a4,a5
	ld	a5,0(a5)
.L5:
	.loc 1 122 1
	mv	a0,a5
	ld	ra,24(sp)
	.cfi_restore 1
	ld	s0,16(sp)
	.cfi_restore 8
	.cfi_def_cfa 2, 32
	addi	sp,sp,32
	.cfi_def_cfa_offset 0
	jr	ra
	.cfi_endproc
.LFE1:
	.size	GetExceptionNameStr, .-GetExceptionNameStr
	.section	.rodata
	.align	3
.LC30:
	.string	"!!!! RISCV64 Exception Type - %016x(%a) !!!!\n"
	.align	3
.LC31:
	.string	"t0"
	.align	3
.LC32:
	.string	"%7a = 0x%017lx%c"
	.align	3
.LC33:
	.string	"t1"
	.align	3
.LC34:
	.string	"t2"
	.align	3
.LC35:
	.string	"t3"
	.align	3
.LC36:
	.string	"t4"
	.align	3
.LC37:
	.string	"t5"
	.align	3
.LC38:
	.string	"t6"
	.align	3
.LC39:
	.string	"s0"
	.align	3
.LC40:
	.string	"s1"
	.align	3
.LC41:
	.string	"s2"
	.align	3
.LC42:
	.string	"s3"
	.align	3
.LC43:
	.string	"s4"
	.align	3
.LC44:
	.string	"s5"
	.align	3
.LC45:
	.string	"s6"
	.align	3
.LC46:
	.string	"s7"
	.align	3
.LC47:
	.string	"s8"
	.align	3
.LC48:
	.string	"s9"
	.align	3
.LC49:
	.string	"s10"
	.align	3
.LC50:
	.string	"s11"
	.align	3
.LC51:
	.string	"a0"
	.align	3
.LC52:
	.string	"a1"
	.align	3
.LC53:
	.string	"a2"
	.align	3
.LC54:
	.string	"a3"
	.align	3
.LC55:
	.string	"a4"
	.align	3
.LC56:
	.string	"a5"
	.align	3
.LC57:
	.string	"a6"
	.align	3
.LC58:
	.string	"a7"
	.align	3
.LC59:
	.string	"zero"
	.align	3
.LC60:
	.string	"ra"
	.align	3
.LC61:
	.string	"sp"
	.align	3
.LC62:
	.string	"gp"
	.align	3
.LC63:
	.string	"tp"
	.align	3
.LC64:
	.string	"sepc"
	.align	3
.LC65:
	.string	"sstatus"
	.align	3
.LC66:
	.string	"stval"
	.align	3
.LC67:
	.string	"\n"
	.section	.text.DumpCpuContext,"ax",@progbits
	.align	1
	.globl	DumpCpuContext
	.type	DumpCpuContext, @function
DumpCpuContext:
.LFB2:
	.loc 1 137 1
	.cfi_startproc
	addi	sp,sp,-48
	.cfi_def_cfa_offset 48
	sd	ra,40(sp)
	sd	s0,32(sp)
	.cfi_offset 1, -8
	.cfi_offset 8, -16
	addi	s0,sp,48
	.cfi_def_cfa 8, 0
	sd	a0,-40(s0)
	sd	a1,-48(s0)
	.loc 1 141 11
	sd	zero,-24(s0)
	.loc 1 142 8
	ld	a5,-48(s0)
	sd	a5,-32(s0)
	.loc 1 144 3
	ld	a0,-40(s0)
	call	GetExceptionNameStr
	mv	a5,a0
	.loc 1 144 3 is_stmt 0 discriminator 1
	mv	a2,a5
	ld	a1,-40(s0)
	lla	a0,.LC30
	call	InternalPrintMessage
	.loc 1 150 12 is_stmt 1
	call	DebugCodeEnabled@plt
	mv	a5,a0
	.loc 1 150 11 discriminator 1
	beq	a5,zero,.L79
	.loc 1 166 8
	ld	a5,-32(s0)
	lbu	a4,40(a5)
	lbu	a3,41(a5)
	slli	a3,a3,8
	or	a4,a3,a4
	lbu	a3,42(a5)
	slli	a3,a3,16
	or	a4,a3,a4
	lbu	a3,43(a5)
	slli	a3,a3,24
	or	a4,a3,a4
	lbu	a3,44(a5)
	slli	a3,a3,32
	or	a4,a3,a4
	lbu	a3,45(a5)
	slli	a3,a3,40
	or	a4,a3,a4
	lbu	a3,46(a5)
	slli	a3,a3,48
	or	a4,a3,a4
	lbu	a5,47(a5)
	slli	a5,a5,56
	or	a5,a5,a4
	mv	a4,a5
	ld	a5,-24(s0)
	addi	a5,a5,1
	sd	a5,-24(s0)
	.loc 1 166 77
	ld	a5,-24(s0)
	andi	a5,a5,1
	.loc 1 166 8
	beq	a5,zero,.L9
	.loc 1 166 8 is_stmt 0 discriminator 1
	li	a5,9
	j	.L10
.L9:
	.loc 1 166 8 discriminator 2
	li	a5,10
.L10:
	.loc 1 166 8 discriminator 4
	mv	a3,a5
	mv	a2,a4
	lla	a1,.LC31
	lla	a0,.LC32
	call	InternalPrintMessage
	.loc 1 166 119 is_stmt 1 discriminator 5
	ld	a5,-32(s0)
	lbu	a4,48(a5)
	lbu	a3,49(a5)
	slli	a3,a3,8
	or	a4,a3,a4
	lbu	a3,50(a5)
	slli	a3,a3,16
	or	a4,a3,a4
	lbu	a3,51(a5)
	slli	a3,a3,24
	or	a4,a3,a4
	lbu	a3,52(a5)
	slli	a3,a3,32
	or	a4,a3,a4
	lbu	a3,53(a5)
	slli	a3,a3,40
	or	a4,a3,a4
	lbu	a3,54(a5)
	slli	a3,a3,48
	or	a4,a3,a4
	lbu	a5,55(a5)
	slli	a5,a5,56
	or	a5,a5,a4
	mv	a4,a5
	ld	a5,-24(s0)
	addi	a5,a5,1
	sd	a5,-24(s0)
	.loc 1 166 188 discriminator 5
	ld	a5,-24(s0)
	andi	a5,a5,1
	.loc 1 166 119 discriminator 5
	beq	a5,zero,.L11
	.loc 1 166 119 is_stmt 0 discriminator 6
	li	a5,9
	j	.L12
.L11:
	.loc 1 166 119 discriminator 7
	li	a5,10
.L12:
	.loc 1 166 119 discriminator 9
	mv	a3,a5
	mv	a2,a4
	lla	a1,.LC33
	lla	a0,.LC32
	call	InternalPrintMessage
	.loc 1 166 230 is_stmt 1 discriminator 10
	ld	a5,-32(s0)
	lbu	a4,56(a5)
	lbu	a3,57(a5)
	slli	a3,a3,8
	or	a4,a3,a4
	lbu	a3,58(a5)
	slli	a3,a3,16
	or	a4,a3,a4
	lbu	a3,59(a5)
	slli	a3,a3,24
	or	a4,a3,a4
	lbu	a3,60(a5)
	slli	a3,a3,32
	or	a4,a3,a4
	lbu	a3,61(a5)
	slli	a3,a3,40
	or	a4,a3,a4
	lbu	a3,62(a5)
	slli	a3,a3,48
	or	a4,a3,a4
	lbu	a5,63(a5)
	slli	a5,a5,56
	or	a5,a5,a4
	mv	a4,a5
	ld	a5,-24(s0)
	addi	a5,a5,1
	sd	a5,-24(s0)
	.loc 1 166 299 discriminator 10
	ld	a5,-24(s0)
	andi	a5,a5,1
	.loc 1 166 230 discriminator 10
	beq	a5,zero,.L13
	.loc 1 166 230 is_stmt 0 discriminator 11
	li	a5,9
	j	.L14
.L13:
	.loc 1 166 230 discriminator 12
	li	a5,10
.L14:
	.loc 1 166 230 discriminator 14
	mv	a3,a5
	mv	a2,a4
	lla	a1,.LC34
	lla	a0,.LC32
	call	InternalPrintMessage
	.loc 1 166 341 is_stmt 1 discriminator 15
	ld	a5,-32(s0)
	lbu	a4,224(a5)
	lbu	a3,225(a5)
	slli	a3,a3,8
	or	a4,a3,a4
	lbu	a3,226(a5)
	slli	a3,a3,16
	or	a4,a3,a4
	lbu	a3,227(a5)
	slli	a3,a3,24
	or	a4,a3,a4
	lbu	a3,228(a5)
	slli	a3,a3,32
	or	a4,a3,a4
	lbu	a3,229(a5)
	slli	a3,a3,40
	or	a4,a3,a4
	lbu	a3,230(a5)
	slli	a3,a3,48
	or	a4,a3,a4
	lbu	a5,231(a5)
	slli	a5,a5,56
	or	a5,a5,a4
	mv	a4,a5
	ld	a5,-24(s0)
	addi	a5,a5,1
	sd	a5,-24(s0)
	.loc 1 166 410 discriminator 15
	ld	a5,-24(s0)
	andi	a5,a5,1
	.loc 1 166 341 discriminator 15
	beq	a5,zero,.L15
	.loc 1 166 341 is_stmt 0 discriminator 16
	li	a5,9
	j	.L16
.L15:
	.loc 1 166 341 discriminator 17
	li	a5,10
.L16:
	.loc 1 166 341 discriminator 19
	mv	a3,a5
	mv	a2,a4
	lla	a1,.LC35
	lla	a0,.LC32
	call	InternalPrintMessage
	.loc 1 166 452 is_stmt 1 discriminator 20
	ld	a5,-32(s0)
	lbu	a4,232(a5)
	lbu	a3,233(a5)
	slli	a3,a3,8
	or	a4,a3,a4
	lbu	a3,234(a5)
	slli	a3,a3,16
	or	a4,a3,a4
	lbu	a3,235(a5)
	slli	a3,a3,24
	or	a4,a3,a4
	lbu	a3,236(a5)
	slli	a3,a3,32
	or	a4,a3,a4
	lbu	a3,237(a5)
	slli	a3,a3,40
	or	a4,a3,a4
	lbu	a3,238(a5)
	slli	a3,a3,48
	or	a4,a3,a4
	lbu	a5,239(a5)
	slli	a5,a5,56
	or	a5,a5,a4
	mv	a4,a5
	ld	a5,-24(s0)
	addi	a5,a5,1
	sd	a5,-24(s0)
	.loc 1 166 521 discriminator 20
	ld	a5,-24(s0)
	andi	a5,a5,1
	.loc 1 166 452 discriminator 20
	beq	a5,zero,.L17
	.loc 1 166 452 is_stmt 0 discriminator 21
	li	a5,9
	j	.L18
.L17:
	.loc 1 166 452 discriminator 22
	li	a5,10
.L18:
	.loc 1 166 452 discriminator 24
	mv	a3,a5
	mv	a2,a4
	lla	a1,.LC36
	lla	a0,.LC32
	call	InternalPrintMessage
	.loc 1 166 563 is_stmt 1 discriminator 25
	ld	a5,-32(s0)
	lbu	a4,240(a5)
	lbu	a3,241(a5)
	slli	a3,a3,8
	or	a4,a3,a4
	lbu	a3,242(a5)
	slli	a3,a3,16
	or	a4,a3,a4
	lbu	a3,243(a5)
	slli	a3,a3,24
	or	a4,a3,a4
	lbu	a3,244(a5)
	slli	a3,a3,32
	or	a4,a3,a4
	lbu	a3,245(a5)
	slli	a3,a3,40
	or	a4,a3,a4
	lbu	a3,246(a5)
	slli	a3,a3,48
	or	a4,a3,a4
	lbu	a5,247(a5)
	slli	a5,a5,56
	or	a5,a5,a4
	mv	a4,a5
	ld	a5,-24(s0)
	addi	a5,a5,1
	sd	a5,-24(s0)
	.loc 1 166 632 discriminator 25
	ld	a5,-24(s0)
	andi	a5,a5,1
	.loc 1 166 563 discriminator 25
	beq	a5,zero,.L19
	.loc 1 166 563 is_stmt 0 discriminator 26
	li	a5,9
	j	.L20
.L19:
	.loc 1 166 563 discriminator 27
	li	a5,10
.L20:
	.loc 1 166 563 discriminator 29
	mv	a3,a5
	mv	a2,a4
	lla	a1,.LC37
	lla	a0,.LC32
	call	InternalPrintMessage
	.loc 1 166 674 is_stmt 1 discriminator 30
	ld	a5,-32(s0)
	lbu	a4,248(a5)
	lbu	a3,249(a5)
	slli	a3,a3,8
	or	a4,a3,a4
	lbu	a3,250(a5)
	slli	a3,a3,16
	or	a4,a3,a4
	lbu	a3,251(a5)
	slli	a3,a3,24
	or	a4,a3,a4
	lbu	a3,252(a5)
	slli	a3,a3,32
	or	a4,a3,a4
	lbu	a3,253(a5)
	slli	a3,a3,40
	or	a4,a3,a4
	lbu	a3,254(a5)
	slli	a3,a3,48
	or	a4,a3,a4
	lbu	a5,255(a5)
	slli	a5,a5,56
	or	a5,a5,a4
	mv	a4,a5
	ld	a5,-24(s0)
	addi	a5,a5,1
	sd	a5,-24(s0)
	.loc 1 166 743 discriminator 30
	ld	a5,-24(s0)
	andi	a5,a5,1
	.loc 1 166 674 discriminator 30
	beq	a5,zero,.L21
	.loc 1 166 674 is_stmt 0 discriminator 31
	li	a5,9
	j	.L22
.L21:
	.loc 1 166 674 discriminator 32
	li	a5,10
.L22:
	.loc 1 166 674 discriminator 34
	mv	a3,a5
	mv	a2,a4
	lla	a1,.LC38
	lla	a0,.LC32
	call	InternalPrintMessage
	.loc 1 166 785 is_stmt 1 discriminator 35
	ld	a5,-32(s0)
	lbu	a4,64(a5)
	lbu	a3,65(a5)
	slli	a3,a3,8
	or	a4,a3,a4
	lbu	a3,66(a5)
	slli	a3,a3,16
	or	a4,a3,a4
	lbu	a3,67(a5)
	slli	a3,a3,24
	or	a4,a3,a4
	lbu	a3,68(a5)
	slli	a3,a3,32
	or	a4,a3,a4
	lbu	a3,69(a5)
	slli	a3,a3,40
	or	a4,a3,a4
	lbu	a3,70(a5)
	slli	a3,a3,48
	or	a4,a3,a4
	lbu	a5,71(a5)
	slli	a5,a5,56
	or	a5,a5,a4
	mv	a4,a5
	ld	a5,-24(s0)
	addi	a5,a5,1
	sd	a5,-24(s0)
	.loc 1 166 854 discriminator 35
	ld	a5,-24(s0)
	andi	a5,a5,1
	.loc 1 166 785 discriminator 35
	beq	a5,zero,.L23
	.loc 1 166 785 is_stmt 0 discriminator 36
	li	a5,9
	j	.L24
.L23:
	.loc 1 166 785 discriminator 37
	li	a5,10
.L24:
	.loc 1 166 785 discriminator 39
	mv	a3,a5
	mv	a2,a4
	lla	a1,.LC39
	lla	a0,.LC32
	call	InternalPrintMessage
	.loc 1 166 896 is_stmt 1 discriminator 40
	ld	a5,-32(s0)
	lbu	a4,72(a5)
	lbu	a3,73(a5)
	slli	a3,a3,8
	or	a4,a3,a4
	lbu	a3,74(a5)
	slli	a3,a3,16
	or	a4,a3,a4
	lbu	a3,75(a5)
	slli	a3,a3,24
	or	a4,a3,a4
	lbu	a3,76(a5)
	slli	a3,a3,32
	or	a4,a3,a4
	lbu	a3,77(a5)
	slli	a3,a3,40
	or	a4,a3,a4
	lbu	a3,78(a5)
	slli	a3,a3,48
	or	a4,a3,a4
	lbu	a5,79(a5)
	slli	a5,a5,56
	or	a5,a5,a4
	mv	a4,a5
	ld	a5,-24(s0)
	addi	a5,a5,1
	sd	a5,-24(s0)
	.loc 1 166 965 discriminator 40
	ld	a5,-24(s0)
	andi	a5,a5,1
	.loc 1 166 896 discriminator 40
	beq	a5,zero,.L25
	.loc 1 166 896 is_stmt 0 discriminator 41
	li	a5,9
	j	.L26
.L25:
	.loc 1 166 896 discriminator 42
	li	a5,10
.L26:
	.loc 1 166 896 discriminator 44
	mv	a3,a5
	mv	a2,a4
	lla	a1,.LC40
	lla	a0,.LC32
	call	InternalPrintMessage
	.loc 1 166 1007 is_stmt 1 discriminator 45
	ld	a5,-32(s0)
	lbu	a4,144(a5)
	lbu	a3,145(a5)
	slli	a3,a3,8
	or	a4,a3,a4
	lbu	a3,146(a5)
	slli	a3,a3,16
	or	a4,a3,a4
	lbu	a3,147(a5)
	slli	a3,a3,24
	or	a4,a3,a4
	lbu	a3,148(a5)
	slli	a3,a3,32
	or	a4,a3,a4
	lbu	a3,149(a5)
	slli	a3,a3,40
	or	a4,a3,a4
	lbu	a3,150(a5)
	slli	a3,a3,48
	or	a4,a3,a4
	lbu	a5,151(a5)
	slli	a5,a5,56
	or	a5,a5,a4
	mv	a4,a5
	ld	a5,-24(s0)
	addi	a5,a5,1
	sd	a5,-24(s0)
	.loc 1 166 1076 discriminator 45
	ld	a5,-24(s0)
	andi	a5,a5,1
	.loc 1 166 1007 discriminator 45
	beq	a5,zero,.L27
	.loc 1 166 1007 is_stmt 0 discriminator 46
	li	a5,9
	j	.L28
.L27:
	.loc 1 166 1007 discriminator 47
	li	a5,10
.L28:
	.loc 1 166 1007 discriminator 49
	mv	a3,a5
	mv	a2,a4
	lla	a1,.LC41
	lla	a0,.LC32
	call	InternalPrintMessage
	.loc 1 166 1118 is_stmt 1 discriminator 50
	ld	a5,-32(s0)
	lbu	a4,152(a5)
	lbu	a3,153(a5)
	slli	a3,a3,8
	or	a4,a3,a4
	lbu	a3,154(a5)
	slli	a3,a3,16
	or	a4,a3,a4
	lbu	a3,155(a5)
	slli	a3,a3,24
	or	a4,a3,a4
	lbu	a3,156(a5)
	slli	a3,a3,32
	or	a4,a3,a4
	lbu	a3,157(a5)
	slli	a3,a3,40
	or	a4,a3,a4
	lbu	a3,158(a5)
	slli	a3,a3,48
	or	a4,a3,a4
	lbu	a5,159(a5)
	slli	a5,a5,56
	or	a5,a5,a4
	mv	a4,a5
	ld	a5,-24(s0)
	addi	a5,a5,1
	sd	a5,-24(s0)
	.loc 1 166 1187 discriminator 50
	ld	a5,-24(s0)
	andi	a5,a5,1
	.loc 1 166 1118 discriminator 50
	beq	a5,zero,.L29
	.loc 1 166 1118 is_stmt 0 discriminator 51
	li	a5,9
	j	.L30
.L29:
	.loc 1 166 1118 discriminator 52
	li	a5,10
.L30:
	.loc 1 166 1118 discriminator 54
	mv	a3,a5
	mv	a2,a4
	lla	a1,.LC42
	lla	a0,.LC32
	call	InternalPrintMessage
	.loc 1 166 1229 is_stmt 1 discriminator 55
	ld	a5,-32(s0)
	lbu	a4,160(a5)
	lbu	a3,161(a5)
	slli	a3,a3,8
	or	a4,a3,a4
	lbu	a3,162(a5)
	slli	a3,a3,16
	or	a4,a3,a4
	lbu	a3,163(a5)
	slli	a3,a3,24
	or	a4,a3,a4
	lbu	a3,164(a5)
	slli	a3,a3,32
	or	a4,a3,a4
	lbu	a3,165(a5)
	slli	a3,a3,40
	or	a4,a3,a4
	lbu	a3,166(a5)
	slli	a3,a3,48
	or	a4,a3,a4
	lbu	a5,167(a5)
	slli	a5,a5,56
	or	a5,a5,a4
	mv	a4,a5
	ld	a5,-24(s0)
	addi	a5,a5,1
	sd	a5,-24(s0)
	.loc 1 166 1298 discriminator 55
	ld	a5,-24(s0)
	andi	a5,a5,1
	.loc 1 166 1229 discriminator 55
	beq	a5,zero,.L31
	.loc 1 166 1229 is_stmt 0 discriminator 56
	li	a5,9
	j	.L32
.L31:
	.loc 1 166 1229 discriminator 57
	li	a5,10
.L32:
	.loc 1 166 1229 discriminator 59
	mv	a3,a5
	mv	a2,a4
	lla	a1,.LC43
	lla	a0,.LC32
	call	InternalPrintMessage
	.loc 1 166 1340 is_stmt 1 discriminator 60
	ld	a5,-32(s0)
	lbu	a4,168(a5)
	lbu	a3,169(a5)
	slli	a3,a3,8
	or	a4,a3,a4
	lbu	a3,170(a5)
	slli	a3,a3,16
	or	a4,a3,a4
	lbu	a3,171(a5)
	slli	a3,a3,24
	or	a4,a3,a4
	lbu	a3,172(a5)
	slli	a3,a3,32
	or	a4,a3,a4
	lbu	a3,173(a5)
	slli	a3,a3,40
	or	a4,a3,a4
	lbu	a3,174(a5)
	slli	a3,a3,48
	or	a4,a3,a4
	lbu	a5,175(a5)
	slli	a5,a5,56
	or	a5,a5,a4
	mv	a4,a5
	ld	a5,-24(s0)
	addi	a5,a5,1
	sd	a5,-24(s0)
	.loc 1 166 1409 discriminator 60
	ld	a5,-24(s0)
	andi	a5,a5,1
	.loc 1 166 1340 discriminator 60
	beq	a5,zero,.L33
	.loc 1 166 1340 is_stmt 0 discriminator 61
	li	a5,9
	j	.L34
.L33:
	.loc 1 166 1340 discriminator 62
	li	a5,10
.L34:
	.loc 1 166 1340 discriminator 64
	mv	a3,a5
	mv	a2,a4
	lla	a1,.LC44
	lla	a0,.LC32
	call	InternalPrintMessage
	.loc 1 166 1451 is_stmt 1 discriminator 65
	ld	a5,-32(s0)
	lbu	a4,176(a5)
	lbu	a3,177(a5)
	slli	a3,a3,8
	or	a4,a3,a4
	lbu	a3,178(a5)
	slli	a3,a3,16
	or	a4,a3,a4
	lbu	a3,179(a5)
	slli	a3,a3,24
	or	a4,a3,a4
	lbu	a3,180(a5)
	slli	a3,a3,32
	or	a4,a3,a4
	lbu	a3,181(a5)
	slli	a3,a3,40
	or	a4,a3,a4
	lbu	a3,182(a5)
	slli	a3,a3,48
	or	a4,a3,a4
	lbu	a5,183(a5)
	slli	a5,a5,56
	or	a5,a5,a4
	mv	a4,a5
	ld	a5,-24(s0)
	addi	a5,a5,1
	sd	a5,-24(s0)
	.loc 1 166 1520 discriminator 65
	ld	a5,-24(s0)
	andi	a5,a5,1
	.loc 1 166 1451 discriminator 65
	beq	a5,zero,.L35
	.loc 1 166 1451 is_stmt 0 discriminator 66
	li	a5,9
	j	.L36
.L35:
	.loc 1 166 1451 discriminator 67
	li	a5,10
.L36:
	.loc 1 166 1451 discriminator 69
	mv	a3,a5
	mv	a2,a4
	lla	a1,.LC45
	lla	a0,.LC32
	call	InternalPrintMessage
	.loc 1 166 1562 is_stmt 1 discriminator 70
	ld	a5,-32(s0)
	lbu	a4,184(a5)
	lbu	a3,185(a5)
	slli	a3,a3,8
	or	a4,a3,a4
	lbu	a3,186(a5)
	slli	a3,a3,16
	or	a4,a3,a4
	lbu	a3,187(a5)
	slli	a3,a3,24
	or	a4,a3,a4
	lbu	a3,188(a5)
	slli	a3,a3,32
	or	a4,a3,a4
	lbu	a3,189(a5)
	slli	a3,a3,40
	or	a4,a3,a4
	lbu	a3,190(a5)
	slli	a3,a3,48
	or	a4,a3,a4
	lbu	a5,191(a5)
	slli	a5,a5,56
	or	a5,a5,a4
	mv	a4,a5
	ld	a5,-24(s0)
	addi	a5,a5,1
	sd	a5,-24(s0)
	.loc 1 166 1631 discriminator 70
	ld	a5,-24(s0)
	andi	a5,a5,1
	.loc 1 166 1562 discriminator 70
	beq	a5,zero,.L37
	.loc 1 166 1562 is_stmt 0 discriminator 71
	li	a5,9
	j	.L38
.L37:
	.loc 1 166 1562 discriminator 72
	li	a5,10
.L38:
	.loc 1 166 1562 discriminator 74
	mv	a3,a5
	mv	a2,a4
	lla	a1,.LC46
	lla	a0,.LC32
	call	InternalPrintMessage
	.loc 1 166 1673 is_stmt 1 discriminator 75
	ld	a5,-32(s0)
	lbu	a4,192(a5)
	lbu	a3,193(a5)
	slli	a3,a3,8
	or	a4,a3,a4
	lbu	a3,194(a5)
	slli	a3,a3,16
	or	a4,a3,a4
	lbu	a3,195(a5)
	slli	a3,a3,24
	or	a4,a3,a4
	lbu	a3,196(a5)
	slli	a3,a3,32
	or	a4,a3,a4
	lbu	a3,197(a5)
	slli	a3,a3,40
	or	a4,a3,a4
	lbu	a3,198(a5)
	slli	a3,a3,48
	or	a4,a3,a4
	lbu	a5,199(a5)
	slli	a5,a5,56
	or	a5,a5,a4
	mv	a4,a5
	ld	a5,-24(s0)
	addi	a5,a5,1
	sd	a5,-24(s0)
	.loc 1 166 1742 discriminator 75
	ld	a5,-24(s0)
	andi	a5,a5,1
	.loc 1 166 1673 discriminator 75
	beq	a5,zero,.L39
	.loc 1 166 1673 is_stmt 0 discriminator 76
	li	a5,9
	j	.L40
.L39:
	.loc 1 166 1673 discriminator 77
	li	a5,10
.L40:
	.loc 1 166 1673 discriminator 79
	mv	a3,a5
	mv	a2,a4
	lla	a1,.LC47
	lla	a0,.LC32
	call	InternalPrintMessage
	.loc 1 166 1784 is_stmt 1 discriminator 80
	ld	a5,-32(s0)
	lbu	a4,200(a5)
	lbu	a3,201(a5)
	slli	a3,a3,8
	or	a4,a3,a4
	lbu	a3,202(a5)
	slli	a3,a3,16
	or	a4,a3,a4
	lbu	a3,203(a5)
	slli	a3,a3,24
	or	a4,a3,a4
	lbu	a3,204(a5)
	slli	a3,a3,32
	or	a4,a3,a4
	lbu	a3,205(a5)
	slli	a3,a3,40
	or	a4,a3,a4
	lbu	a3,206(a5)
	slli	a3,a3,48
	or	a4,a3,a4
	lbu	a5,207(a5)
	slli	a5,a5,56
	or	a5,a5,a4
	mv	a4,a5
	ld	a5,-24(s0)
	addi	a5,a5,1
	sd	a5,-24(s0)
	.loc 1 166 1853 discriminator 80
	ld	a5,-24(s0)
	andi	a5,a5,1
	.loc 1 166 1784 discriminator 80
	beq	a5,zero,.L41
	.loc 1 166 1784 is_stmt 0 discriminator 81
	li	a5,9
	j	.L42
.L41:
	.loc 1 166 1784 discriminator 82
	li	a5,10
.L42:
	.loc 1 166 1784 discriminator 84
	mv	a3,a5
	mv	a2,a4
	lla	a1,.LC48
	lla	a0,.LC32
	call	InternalPrintMessage
	.loc 1 166 1895 is_stmt 1 discriminator 85
	ld	a5,-32(s0)
	lbu	a4,208(a5)
	lbu	a3,209(a5)
	slli	a3,a3,8
	or	a4,a3,a4
	lbu	a3,210(a5)
	slli	a3,a3,16
	or	a4,a3,a4
	lbu	a3,211(a5)
	slli	a3,a3,24
	or	a4,a3,a4
	lbu	a3,212(a5)
	slli	a3,a3,32
	or	a4,a3,a4
	lbu	a3,213(a5)
	slli	a3,a3,40
	or	a4,a3,a4
	lbu	a3,214(a5)
	slli	a3,a3,48
	or	a4,a3,a4
	lbu	a5,215(a5)
	slli	a5,a5,56
	or	a5,a5,a4
	mv	a4,a5
	ld	a5,-24(s0)
	addi	a5,a5,1
	sd	a5,-24(s0)
	.loc 1 166 1966 discriminator 85
	ld	a5,-24(s0)
	andi	a5,a5,1
	.loc 1 166 1895 discriminator 85
	beq	a5,zero,.L43
	.loc 1 166 1895 is_stmt 0 discriminator 86
	li	a5,9
	j	.L44
.L43:
	.loc 1 166 1895 discriminator 87
	li	a5,10
.L44:
	.loc 1 166 1895 discriminator 89
	mv	a3,a5
	mv	a2,a4
	lla	a1,.LC49
	lla	a0,.LC32
	call	InternalPrintMessage
	.loc 1 166 2008 is_stmt 1 discriminator 90
	ld	a5,-32(s0)
	lbu	a4,216(a5)
	lbu	a3,217(a5)
	slli	a3,a3,8
	or	a4,a3,a4
	lbu	a3,218(a5)
	slli	a3,a3,16
	or	a4,a3,a4
	lbu	a3,219(a5)
	slli	a3,a3,24
	or	a4,a3,a4
	lbu	a3,220(a5)
	slli	a3,a3,32
	or	a4,a3,a4
	lbu	a3,221(a5)
	slli	a3,a3,40
	or	a4,a3,a4
	lbu	a3,222(a5)
	slli	a3,a3,48
	or	a4,a3,a4
	lbu	a5,223(a5)
	slli	a5,a5,56
	or	a5,a5,a4
	mv	a4,a5
	ld	a5,-24(s0)
	addi	a5,a5,1
	sd	a5,-24(s0)
	.loc 1 166 2079 discriminator 90
	ld	a5,-24(s0)
	andi	a5,a5,1
	.loc 1 166 2008 discriminator 90
	beq	a5,zero,.L45
	.loc 1 166 2008 is_stmt 0 discriminator 91
	li	a5,9
	j	.L46
.L45:
	.loc 1 166 2008 discriminator 92
	li	a5,10
.L46:
	.loc 1 166 2008 discriminator 94
	mv	a3,a5
	mv	a2,a4
	lla	a1,.LC50
	lla	a0,.LC32
	call	InternalPrintMessage
	.loc 1 166 2121 is_stmt 1 discriminator 95
	ld	a5,-32(s0)
	lbu	a4,80(a5)
	lbu	a3,81(a5)
	slli	a3,a3,8
	or	a4,a3,a4
	lbu	a3,82(a5)
	slli	a3,a3,16
	or	a4,a3,a4
	lbu	a3,83(a5)
	slli	a3,a3,24
	or	a4,a3,a4
	lbu	a3,84(a5)
	slli	a3,a3,32
	or	a4,a3,a4
	lbu	a3,85(a5)
	slli	a3,a3,40
	or	a4,a3,a4
	lbu	a3,86(a5)
	slli	a3,a3,48
	or	a4,a3,a4
	lbu	a5,87(a5)
	slli	a5,a5,56
	or	a5,a5,a4
	mv	a4,a5
	ld	a5,-24(s0)
	addi	a5,a5,1
	sd	a5,-24(s0)
	.loc 1 166 2190 discriminator 95
	ld	a5,-24(s0)
	andi	a5,a5,1
	.loc 1 166 2121 discriminator 95
	beq	a5,zero,.L47
	.loc 1 166 2121 is_stmt 0 discriminator 96
	li	a5,9
	j	.L48
.L47:
	.loc 1 166 2121 discriminator 97
	li	a5,10
.L48:
	.loc 1 166 2121 discriminator 99
	mv	a3,a5
	mv	a2,a4
	lla	a1,.LC51
	lla	a0,.LC32
	call	InternalPrintMessage
	.loc 1 166 2232 is_stmt 1 discriminator 100
	ld	a5,-32(s0)
	lbu	a4,88(a5)
	lbu	a3,89(a5)
	slli	a3,a3,8
	or	a4,a3,a4
	lbu	a3,90(a5)
	slli	a3,a3,16
	or	a4,a3,a4
	lbu	a3,91(a5)
	slli	a3,a3,24
	or	a4,a3,a4
	lbu	a3,92(a5)
	slli	a3,a3,32
	or	a4,a3,a4
	lbu	a3,93(a5)
	slli	a3,a3,40
	or	a4,a3,a4
	lbu	a3,94(a5)
	slli	a3,a3,48
	or	a4,a3,a4
	lbu	a5,95(a5)
	slli	a5,a5,56
	or	a5,a5,a4
	mv	a4,a5
	ld	a5,-24(s0)
	addi	a5,a5,1
	sd	a5,-24(s0)
	.loc 1 166 2301 discriminator 100
	ld	a5,-24(s0)
	andi	a5,a5,1
	.loc 1 166 2232 discriminator 100
	beq	a5,zero,.L49
	.loc 1 166 2232 is_stmt 0 discriminator 101
	li	a5,9
	j	.L50
.L49:
	.loc 1 166 2232 discriminator 102
	li	a5,10
.L50:
	.loc 1 166 2232 discriminator 104
	mv	a3,a5
	mv	a2,a4
	lla	a1,.LC52
	lla	a0,.LC32
	call	InternalPrintMessage
	.loc 1 166 2343 is_stmt 1 discriminator 105
	ld	a5,-32(s0)
	lbu	a4,96(a5)
	lbu	a3,97(a5)
	slli	a3,a3,8
	or	a4,a3,a4
	lbu	a3,98(a5)
	slli	a3,a3,16
	or	a4,a3,a4
	lbu	a3,99(a5)
	slli	a3,a3,24
	or	a4,a3,a4
	lbu	a3,100(a5)
	slli	a3,a3,32
	or	a4,a3,a4
	lbu	a3,101(a5)
	slli	a3,a3,40
	or	a4,a3,a4
	lbu	a3,102(a5)
	slli	a3,a3,48
	or	a4,a3,a4
	lbu	a5,103(a5)
	slli	a5,a5,56
	or	a5,a5,a4
	mv	a4,a5
	ld	a5,-24(s0)
	addi	a5,a5,1
	sd	a5,-24(s0)
	.loc 1 166 2412 discriminator 105
	ld	a5,-24(s0)
	andi	a5,a5,1
	.loc 1 166 2343 discriminator 105
	beq	a5,zero,.L51
	.loc 1 166 2343 is_stmt 0 discriminator 106
	li	a5,9
	j	.L52
.L51:
	.loc 1 166 2343 discriminator 107
	li	a5,10
.L52:
	.loc 1 166 2343 discriminator 109
	mv	a3,a5
	mv	a2,a4
	lla	a1,.LC53
	lla	a0,.LC32
	call	InternalPrintMessage
	.loc 1 166 2454 is_stmt 1 discriminator 110
	ld	a5,-32(s0)
	lbu	a4,104(a5)
	lbu	a3,105(a5)
	slli	a3,a3,8
	or	a4,a3,a4
	lbu	a3,106(a5)
	slli	a3,a3,16
	or	a4,a3,a4
	lbu	a3,107(a5)
	slli	a3,a3,24
	or	a4,a3,a4
	lbu	a3,108(a5)
	slli	a3,a3,32
	or	a4,a3,a4
	lbu	a3,109(a5)
	slli	a3,a3,40
	or	a4,a3,a4
	lbu	a3,110(a5)
	slli	a3,a3,48
	or	a4,a3,a4
	lbu	a5,111(a5)
	slli	a5,a5,56
	or	a5,a5,a4
	mv	a4,a5
	ld	a5,-24(s0)
	addi	a5,a5,1
	sd	a5,-24(s0)
	.loc 1 166 2523 discriminator 110
	ld	a5,-24(s0)
	andi	a5,a5,1
	.loc 1 166 2454 discriminator 110
	beq	a5,zero,.L53
	.loc 1 166 2454 is_stmt 0 discriminator 111
	li	a5,9
	j	.L54
.L53:
	.loc 1 166 2454 discriminator 112
	li	a5,10
.L54:
	.loc 1 166 2454 discriminator 114
	mv	a3,a5
	mv	a2,a4
	lla	a1,.LC54
	lla	a0,.LC32
	call	InternalPrintMessage
	.loc 1 166 2565 is_stmt 1 discriminator 115
	ld	a5,-32(s0)
	lbu	a4,112(a5)
	lbu	a3,113(a5)
	slli	a3,a3,8
	or	a4,a3,a4
	lbu	a3,114(a5)
	slli	a3,a3,16
	or	a4,a3,a4
	lbu	a3,115(a5)
	slli	a3,a3,24
	or	a4,a3,a4
	lbu	a3,116(a5)
	slli	a3,a3,32
	or	a4,a3,a4
	lbu	a3,117(a5)
	slli	a3,a3,40
	or	a4,a3,a4
	lbu	a3,118(a5)
	slli	a3,a3,48
	or	a4,a3,a4
	lbu	a5,119(a5)
	slli	a5,a5,56
	or	a5,a5,a4
	mv	a4,a5
	ld	a5,-24(s0)
	addi	a5,a5,1
	sd	a5,-24(s0)
	.loc 1 166 2634 discriminator 115
	ld	a5,-24(s0)
	andi	a5,a5,1
	.loc 1 166 2565 discriminator 115
	beq	a5,zero,.L55
	.loc 1 166 2565 is_stmt 0 discriminator 116
	li	a5,9
	j	.L56
.L55:
	.loc 1 166 2565 discriminator 117
	li	a5,10
.L56:
	.loc 1 166 2565 discriminator 119
	mv	a3,a5
	mv	a2,a4
	lla	a1,.LC55
	lla	a0,.LC32
	call	InternalPrintMessage
	.loc 1 166 2676 is_stmt 1 discriminator 120
	ld	a5,-32(s0)
	lbu	a4,120(a5)
	lbu	a3,121(a5)
	slli	a3,a3,8
	or	a4,a3,a4
	lbu	a3,122(a5)
	slli	a3,a3,16
	or	a4,a3,a4
	lbu	a3,123(a5)
	slli	a3,a3,24
	or	a4,a3,a4
	lbu	a3,124(a5)
	slli	a3,a3,32
	or	a4,a3,a4
	lbu	a3,125(a5)
	slli	a3,a3,40
	or	a4,a3,a4
	lbu	a3,126(a5)
	slli	a3,a3,48
	or	a4,a3,a4
	lbu	a5,127(a5)
	slli	a5,a5,56
	or	a5,a5,a4
	mv	a4,a5
	ld	a5,-24(s0)
	addi	a5,a5,1
	sd	a5,-24(s0)
	.loc 1 166 2745 discriminator 120
	ld	a5,-24(s0)
	andi	a5,a5,1
	.loc 1 166 2676 discriminator 120
	beq	a5,zero,.L57
	.loc 1 166 2676 is_stmt 0 discriminator 121
	li	a5,9
	j	.L58
.L57:
	.loc 1 166 2676 discriminator 122
	li	a5,10
.L58:
	.loc 1 166 2676 discriminator 124
	mv	a3,a5
	mv	a2,a4
	lla	a1,.LC56
	lla	a0,.LC32
	call	InternalPrintMessage
	.loc 1 166 2787 is_stmt 1 discriminator 125
	ld	a5,-32(s0)
	lbu	a4,128(a5)
	lbu	a3,129(a5)
	slli	a3,a3,8
	or	a4,a3,a4
	lbu	a3,130(a5)
	slli	a3,a3,16
	or	a4,a3,a4
	lbu	a3,131(a5)
	slli	a3,a3,24
	or	a4,a3,a4
	lbu	a3,132(a5)
	slli	a3,a3,32
	or	a4,a3,a4
	lbu	a3,133(a5)
	slli	a3,a3,40
	or	a4,a3,a4
	lbu	a3,134(a5)
	slli	a3,a3,48
	or	a4,a3,a4
	lbu	a5,135(a5)
	slli	a5,a5,56
	or	a5,a5,a4
	mv	a4,a5
	ld	a5,-24(s0)
	addi	a5,a5,1
	sd	a5,-24(s0)
	.loc 1 166 2856 discriminator 125
	ld	a5,-24(s0)
	andi	a5,a5,1
	.loc 1 166 2787 discriminator 125
	beq	a5,zero,.L59
	.loc 1 166 2787 is_stmt 0 discriminator 126
	li	a5,9
	j	.L60
.L59:
	.loc 1 166 2787 discriminator 127
	li	a5,10
.L60:
	.loc 1 166 2787 discriminator 129
	mv	a3,a5
	mv	a2,a4
	lla	a1,.LC57
	lla	a0,.LC32
	call	InternalPrintMessage
	.loc 1 166 2898 is_stmt 1 discriminator 130
	ld	a5,-32(s0)
	lbu	a4,136(a5)
	lbu	a3,137(a5)
	slli	a3,a3,8
	or	a4,a3,a4
	lbu	a3,138(a5)
	slli	a3,a3,16
	or	a4,a3,a4
	lbu	a3,139(a5)
	slli	a3,a3,24
	or	a4,a3,a4
	lbu	a3,140(a5)
	slli	a3,a3,32
	or	a4,a3,a4
	lbu	a3,141(a5)
	slli	a3,a3,40
	or	a4,a3,a4
	lbu	a3,142(a5)
	slli	a3,a3,48
	or	a4,a3,a4
	lbu	a5,143(a5)
	slli	a5,a5,56
	or	a5,a5,a4
	mv	a4,a5
	ld	a5,-24(s0)
	addi	a5,a5,1
	sd	a5,-24(s0)
	.loc 1 166 2967 discriminator 130
	ld	a5,-24(s0)
	andi	a5,a5,1
	.loc 1 166 2898 discriminator 130
	beq	a5,zero,.L61
	.loc 1 166 2898 is_stmt 0 discriminator 131
	li	a5,9
	j	.L62
.L61:
	.loc 1 166 2898 discriminator 132
	li	a5,10
.L62:
	.loc 1 166 2898 discriminator 134
	mv	a3,a5
	mv	a2,a4
	lla	a1,.LC58
	lla	a0,.LC32
	call	InternalPrintMessage
	.loc 1 166 3009 is_stmt 1 discriminator 135
	ld	a5,-32(s0)
	lbu	a4,0(a5)
	lbu	a3,1(a5)
	slli	a3,a3,8
	or	a4,a3,a4
	lbu	a3,2(a5)
	slli	a3,a3,16
	or	a4,a3,a4
	lbu	a3,3(a5)
	slli	a3,a3,24
	or	a4,a3,a4
	lbu	a3,4(a5)
	slli	a3,a3,32
	or	a4,a3,a4
	lbu	a3,5(a5)
	slli	a3,a3,40
	or	a4,a3,a4
	lbu	a3,6(a5)
	slli	a3,a3,48
	or	a4,a3,a4
	lbu	a5,7(a5)
	slli	a5,a5,56
	or	a5,a5,a4
	mv	a4,a5
	ld	a5,-24(s0)
	addi	a5,a5,1
	sd	a5,-24(s0)
	.loc 1 166 3082 discriminator 135
	ld	a5,-24(s0)
	andi	a5,a5,1
	.loc 1 166 3009 discriminator 135
	beq	a5,zero,.L63
	.loc 1 166 3009 is_stmt 0 discriminator 136
	li	a5,9
	j	.L64
.L63:
	.loc 1 166 3009 discriminator 137
	li	a5,10
.L64:
	.loc 1 166 3009 discriminator 139
	mv	a3,a5
	mv	a2,a4
	lla	a1,.LC59
	lla	a0,.LC32
	call	InternalPrintMessage
	.loc 1 166 3124 is_stmt 1 discriminator 140
	ld	a5,-32(s0)
	lbu	a4,8(a5)
	lbu	a3,9(a5)
	slli	a3,a3,8
	or	a4,a3,a4
	lbu	a3,10(a5)
	slli	a3,a3,16
	or	a4,a3,a4
	lbu	a3,11(a5)
	slli	a3,a3,24
	or	a4,a3,a4
	lbu	a3,12(a5)
	slli	a3,a3,32
	or	a4,a3,a4
	lbu	a3,13(a5)
	slli	a3,a3,40
	or	a4,a3,a4
	lbu	a3,14(a5)
	slli	a3,a3,48
	or	a4,a3,a4
	lbu	a5,15(a5)
	slli	a5,a5,56
	or	a5,a5,a4
	mv	a4,a5
	ld	a5,-24(s0)
	addi	a5,a5,1
	sd	a5,-24(s0)
	.loc 1 166 3193 discriminator 140
	ld	a5,-24(s0)
	andi	a5,a5,1
	.loc 1 166 3124 discriminator 140
	beq	a5,zero,.L65
	.loc 1 166 3124 is_stmt 0 discriminator 141
	li	a5,9
	j	.L66
.L65:
	.loc 1 166 3124 discriminator 142
	li	a5,10
.L66:
	.loc 1 166 3124 discriminator 144
	mv	a3,a5
	mv	a2,a4
	lla	a1,.LC60
	lla	a0,.LC32
	call	InternalPrintMessage
	.loc 1 166 3235 is_stmt 1 discriminator 145
	ld	a5,-32(s0)
	lbu	a4,16(a5)
	lbu	a3,17(a5)
	slli	a3,a3,8
	or	a4,a3,a4
	lbu	a3,18(a5)
	slli	a3,a3,16
	or	a4,a3,a4
	lbu	a3,19(a5)
	slli	a3,a3,24
	or	a4,a3,a4
	lbu	a3,20(a5)
	slli	a3,a3,32
	or	a4,a3,a4
	lbu	a3,21(a5)
	slli	a3,a3,40
	or	a4,a3,a4
	lbu	a3,22(a5)
	slli	a3,a3,48
	or	a4,a3,a4
	lbu	a5,23(a5)
	slli	a5,a5,56
	or	a5,a5,a4
	mv	a4,a5
	ld	a5,-24(s0)
	addi	a5,a5,1
	sd	a5,-24(s0)
	.loc 1 166 3304 discriminator 145
	ld	a5,-24(s0)
	andi	a5,a5,1
	.loc 1 166 3235 discriminator 145
	beq	a5,zero,.L67
	.loc 1 166 3235 is_stmt 0 discriminator 146
	li	a5,9
	j	.L68
.L67:
	.loc 1 166 3235 discriminator 147
	li	a5,10
.L68:
	.loc 1 166 3235 discriminator 149
	mv	a3,a5
	mv	a2,a4
	lla	a1,.LC61
	lla	a0,.LC32
	call	InternalPrintMessage
	.loc 1 166 3346 is_stmt 1 discriminator 150
	ld	a5,-32(s0)
	lbu	a4,24(a5)
	lbu	a3,25(a5)
	slli	a3,a3,8
	or	a4,a3,a4
	lbu	a3,26(a5)
	slli	a3,a3,16
	or	a4,a3,a4
	lbu	a3,27(a5)
	slli	a3,a3,24
	or	a4,a3,a4
	lbu	a3,28(a5)
	slli	a3,a3,32
	or	a4,a3,a4
	lbu	a3,29(a5)
	slli	a3,a3,40
	or	a4,a3,a4
	lbu	a3,30(a5)
	slli	a3,a3,48
	or	a4,a3,a4
	lbu	a5,31(a5)
	slli	a5,a5,56
	or	a5,a5,a4
	mv	a4,a5
	ld	a5,-24(s0)
	addi	a5,a5,1
	sd	a5,-24(s0)
	.loc 1 166 3415 discriminator 150
	ld	a5,-24(s0)
	andi	a5,a5,1
	.loc 1 166 3346 discriminator 150
	beq	a5,zero,.L69
	.loc 1 166 3346 is_stmt 0 discriminator 151
	li	a5,9
	j	.L70
.L69:
	.loc 1 166 3346 discriminator 152
	li	a5,10
.L70:
	.loc 1 166 3346 discriminator 154
	mv	a3,a5
	mv	a2,a4
	lla	a1,.LC62
	lla	a0,.LC32
	call	InternalPrintMessage
	.loc 1 166 3457 is_stmt 1 discriminator 155
	ld	a5,-32(s0)
	lbu	a4,32(a5)
	lbu	a3,33(a5)
	slli	a3,a3,8
	or	a4,a3,a4
	lbu	a3,34(a5)
	slli	a3,a3,16
	or	a4,a3,a4
	lbu	a3,35(a5)
	slli	a3,a3,24
	or	a4,a3,a4
	lbu	a3,36(a5)
	slli	a3,a3,32
	or	a4,a3,a4
	lbu	a3,37(a5)
	slli	a3,a3,40
	or	a4,a3,a4
	lbu	a3,38(a5)
	slli	a3,a3,48
	or	a4,a3,a4
	lbu	a5,39(a5)
	slli	a5,a5,56
	or	a5,a5,a4
	mv	a4,a5
	ld	a5,-24(s0)
	addi	a5,a5,1
	sd	a5,-24(s0)
	.loc 1 166 3526 discriminator 155
	ld	a5,-24(s0)
	andi	a5,a5,1
	.loc 1 166 3457 discriminator 155
	beq	a5,zero,.L71
	.loc 1 166 3457 is_stmt 0 discriminator 156
	li	a5,9
	j	.L72
.L71:
	.loc 1 166 3457 discriminator 157
	li	a5,10
.L72:
	.loc 1 166 3457 discriminator 159
	mv	a3,a5
	mv	a2,a4
	lla	a1,.LC63
	lla	a0,.LC32
	call	InternalPrintMessage
	.loc 1 166 3568 is_stmt 1 discriminator 160
	ld	a5,-32(s0)
	lbu	a4,256(a5)
	lbu	a3,257(a5)
	slli	a3,a3,8
	or	a4,a3,a4
	lbu	a3,258(a5)
	slli	a3,a3,16
	or	a4,a3,a4
	lbu	a3,259(a5)
	slli	a3,a3,24
	or	a4,a3,a4
	lbu	a3,260(a5)
	slli	a3,a3,32
	or	a4,a3,a4
	lbu	a3,261(a5)
	slli	a3,a3,40
	or	a4,a3,a4
	lbu	a3,262(a5)
	slli	a3,a3,48
	or	a4,a3,a4
	lbu	a5,263(a5)
	slli	a5,a5,56
	or	a5,a5,a4
	mv	a4,a5
	ld	a5,-24(s0)
	addi	a5,a5,1
	sd	a5,-24(s0)
	.loc 1 166 3641 discriminator 160
	ld	a5,-24(s0)
	andi	a5,a5,1
	.loc 1 166 3568 discriminator 160
	beq	a5,zero,.L73
	.loc 1 166 3568 is_stmt 0 discriminator 161
	li	a5,9
	j	.L74
.L73:
	.loc 1 166 3568 discriminator 162
	li	a5,10
.L74:
	.loc 1 166 3568 discriminator 164
	mv	a3,a5
	mv	a2,a4
	lla	a1,.LC64
	lla	a0,.LC32
	call	InternalPrintMessage
	.loc 1 166 3683 is_stmt 1 discriminator 165
	ld	a5,-32(s0)
	lbu	a4,264(a5)
	lbu	a3,265(a5)
	slli	a3,a3,8
	or	a4,a3,a4
	lbu	a3,266(a5)
	slli	a3,a3,16
	or	a4,a3,a4
	lbu	a3,267(a5)
	slli	a3,a3,24
	or	a4,a3,a4
	lbu	a3,268(a5)
	slli	a3,a3,32
	or	a4,a3,a4
	lbu	a3,269(a5)
	slli	a3,a3,40
	or	a4,a3,a4
	lbu	a3,270(a5)
	slli	a3,a3,48
	or	a4,a3,a4
	lbu	a5,271(a5)
	slli	a5,a5,56
	or	a5,a5,a4
	mv	a4,a5
	ld	a5,-24(s0)
	addi	a5,a5,1
	sd	a5,-24(s0)
	.loc 1 166 3762 discriminator 165
	ld	a5,-24(s0)
	andi	a5,a5,1
	.loc 1 166 3683 discriminator 165
	beq	a5,zero,.L75
	.loc 1 166 3683 is_stmt 0 discriminator 166
	li	a5,9
	j	.L76
.L75:
	.loc 1 166 3683 discriminator 167
	li	a5,10
.L76:
	.loc 1 166 3683 discriminator 169
	mv	a3,a5
	mv	a2,a4
	lla	a1,.LC65
	lla	a0,.LC32
	call	InternalPrintMessage
	.loc 1 166 3804 is_stmt 1 discriminator 170
	ld	a5,-32(s0)
	lbu	a4,272(a5)
	lbu	a3,273(a5)
	slli	a3,a3,8
	or	a4,a3,a4
	lbu	a3,274(a5)
	slli	a3,a3,16
	or	a4,a3,a4
	lbu	a3,275(a5)
	slli	a3,a3,24
	or	a4,a3,a4
	lbu	a3,276(a5)
	slli	a3,a3,32
	or	a4,a3,a4
	lbu	a3,277(a5)
	slli	a3,a3,40
	or	a4,a3,a4
	lbu	a3,278(a5)
	slli	a3,a3,48
	or	a4,a3,a4
	lbu	a5,279(a5)
	slli	a5,a5,56
	or	a5,a5,a4
	mv	a4,a5
	ld	a5,-24(s0)
	addi	a5,a5,1
	sd	a5,-24(s0)
	.loc 1 166 3879 discriminator 170
	ld	a5,-24(s0)
	andi	a5,a5,1
	.loc 1 166 3804 discriminator 170
	beq	a5,zero,.L77
	.loc 1 166 3804 is_stmt 0 discriminator 171
	li	a5,9
	j	.L78
.L77:
	.loc 1 166 3804 discriminator 172
	li	a5,10
.L78:
	.loc 1 166 3804 discriminator 174
	mv	a3,a5
	mv	a2,a4
	lla	a1,.LC66
	lla	a0,.LC32
	call	InternalPrintMessage
	.loc 1 167 15 is_stmt 1
	ld	a5,-24(s0)
	andi	a5,a5,1
	.loc 1 167 6
	beq	a5,zero,.L79
	.loc 1 168 5
	lla	a0,.LC67
	call	InternalPrintMessage
.L79:
	.loc 1 175 1
	nop
	ld	ra,40(sp)
	.cfi_restore 1
	ld	s0,32(sp)
	.cfi_restore 8
	.cfi_def_cfa 2, 48
	addi	sp,sp,48
	.cfi_def_cfa_offset 0
	jr	ra
	.cfi_endproc
.LFE2:
	.size	DumpCpuContext, .-DumpCpuContext
	.section	.text.InitializeCpuExceptionHandlers,"ax",@progbits
	.align	1
	.globl	InitializeCpuExceptionHandlers
	.type	InitializeCpuExceptionHandlers, @function
InitializeCpuExceptionHandlers:
.LFB3:
	.loc 1 198 1
	.cfi_startproc
	addi	sp,sp,-32
	.cfi_def_cfa_offset 32
	sd	ra,24(sp)
	sd	s0,16(sp)
	.cfi_offset 1, -8
	.cfi_offset 8, -16
	addi	s0,sp,32
	.cfi_def_cfa 8, 0
	sd	a0,-24(s0)
	.loc 1 199 3
	la	a5,SupervisorModeTrap
	mv	a0,a5
	call	RiscVSetSupervisorStvec@plt
	.loc 1 200 10
	li	a5,0
	.loc 1 201 1
	mv	a0,a5
	ld	ra,24(sp)
	.cfi_restore 1
	ld	s0,16(sp)
	.cfi_restore 8
	.cfi_def_cfa 2, 32
	addi	sp,sp,32
	.cfi_def_cfa_offset 0
	jr	ra
	.cfi_endproc
.LFE3:
	.size	InitializeCpuExceptionHandlers, .-InitializeCpuExceptionHandlers
	.section	.text.RegisterCpuInterruptHandler,"ax",@progbits
	.align	1
	.globl	RegisterCpuInterruptHandler
	.type	RegisterCpuInterruptHandler, @function
RegisterCpuInterruptHandler:
.LFB4:
	.loc 1 232 1
	.cfi_startproc
	addi	sp,sp,-32
	.cfi_def_cfa_offset 32
	sd	ra,24(sp)
	sd	s0,16(sp)
	.cfi_offset 1, -8
	.cfi_offset 8, -16
	addi	s0,sp,32
	.cfi_def_cfa 8, 0
	sd	a0,-24(s0)
	sd	a1,-32(s0)
	.loc 1 234 6
	ld	a5,-24(s0)
	bge	a5,zero,.L83
	.loc 1 235 24
	ld	a4,-24(s0)
	li	a5,-1
	srli	a5,a5,1
	and	a4,a4,a5
	.loc 1 235 8
	li	a5,5
	bleu	a4,a5,.L84
	.loc 1 236 14
	li	a5,-1
	slli	a5,a5,63
	addi	a5,a5,3
	j	.L85
.L84:
	.loc 1 239 37
	ld	a4,-24(s0)
	li	a5,-1
	srli	a5,a5,1
	and	a5,a4,a5
	.loc 1 239 21
	lla	a4,mIrqHandlers
	slli	a5,a5,3
	add	a5,a4,a5
	ld	a5,0(a5)
	.loc 1 239 8
	beq	a5,zero,.L86
	.loc 1 240 14
	li	a5,-1
	slli	a5,a5,63
	addi	a5,a5,20
	j	.L85
.L86:
	.loc 1 241 15
	ld	a5,-32(s0)
	bne	a5,zero,.L87
	.loc 1 242 14
	li	a5,-1
	slli	a5,a5,63
	addi	a5,a5,2
	j	.L85
.L87:
	.loc 1 245 33
	ld	a4,-24(s0)
	li	a5,-1
	srli	a5,a5,1
	and	a5,a4,a5
	.loc 1 245 58
	lla	a4,mIrqHandlers
	slli	a5,a5,3
	add	a5,a4,a5
	ld	a4,-32(s0)
	sd	a4,0(a5)
	j	.L88
.L83:
	.loc 1 247 8
	ld	a4,-24(s0)
	li	a5,23
	ble	a4,a5,.L89
	.loc 1 248 14
	li	a5,-1
	slli	a5,a5,63
	addi	a5,a5,3
	j	.L85
.L89:
	.loc 1 251 27
	lla	a4,mExceptionHandlers
	ld	a5,-24(s0)
	slli	a5,a5,3
	add	a5,a4,a5
	ld	a5,0(a5)
	.loc 1 251 8
	beq	a5,zero,.L90
	.loc 1 252 14
	li	a5,-1
	slli	a5,a5,63
	addi	a5,a5,20
	j	.L85
.L90:
	.loc 1 253 15
	ld	a5,-32(s0)
	bne	a5,zero,.L91
	.loc 1 254 14
	li	a5,-1
	slli	a5,a5,63
	addi	a5,a5,2
	j	.L85
.L91:
	.loc 1 257 39
	lla	a4,mExceptionHandlers
	ld	a5,-24(s0)
	slli	a5,a5,3
	add	a5,a4,a5
	ld	a4,-32(s0)
	sd	a4,0(a5)
.L88:
	.loc 1 260 10
	li	a5,0
.L85:
	.loc 1 261 1
	mv	a0,a5
	ld	ra,24(sp)
	.cfi_restore 1
	ld	s0,16(sp)
	.cfi_restore 8
	.cfi_def_cfa 2, 32
	addi	sp,sp,32
	.cfi_def_cfa_offset 0
	jr	ra
	.cfi_endproc
.LFE4:
	.size	RegisterCpuInterruptHandler, .-RegisterCpuInterruptHandler
	.section	.text.InitializeSeparateExceptionStacks,"ax",@progbits
	.align	1
	.globl	InitializeSeparateExceptionStacks
	.type	InitializeSeparateExceptionStacks, @function
InitializeSeparateExceptionStacks:
.LFB5:
	.loc 1 283 1
	.cfi_startproc
	addi	sp,sp,-32
	.cfi_def_cfa_offset 32
	sd	ra,24(sp)
	sd	s0,16(sp)
	.cfi_offset 1, -8
	.cfi_offset 8, -16
	addi	s0,sp,32
	.cfi_def_cfa 8, 0
	sd	a0,-24(s0)
	sd	a1,-32(s0)
	.loc 1 284 10
	li	a5,0
	.loc 1 285 1
	mv	a0,a5
	ld	ra,24(sp)
	.cfi_restore 1
	ld	s0,16(sp)
	.cfi_restore 8
	.cfi_def_cfa 2, 32
	addi	sp,sp,32
	.cfi_def_cfa_offset 0
	jr	ra
	.cfi_endproc
.LFE5:
	.size	InitializeSeparateExceptionStacks, .-InitializeSeparateExceptionStacks
	.section	.text.RiscVSupervisorModeTrapHandler,"ax",@progbits
	.align	1
	.globl	RiscVSupervisorModeTrapHandler
	.type	RiscVSupervisorModeTrapHandler, @function
RiscVSupervisorModeTrapHandler:
.LFB6:
	.loc 1 297 1
	.cfi_startproc
	addi	sp,sp,-64
	.cfi_def_cfa_offset 64
	sd	ra,56(sp)
	sd	s0,48(sp)
	.cfi_offset 1, -8
	.cfi_offset 8, -16
	addi	s0,sp,64
	.cfi_def_cfa 8, 0
	sd	a0,-56(s0)
	.loc 1 302 43
	ld	a5,-56(s0)
	sd	a5,-40(s0)
	.loc 1 303 26
	call	RiscVGetSupervisorTrapCause@plt
	mv	a5,a0
	.loc 1 303 17 discriminator 1
	sd	a5,-24(s0)
	.loc 1 305 6
	ld	a5,-24(s0)
	bge	a5,zero,.L95
	.loc 1 306 31
	ld	a4,-24(s0)
	.loc 1 306 14
	li	a5,-1
	srli	a5,a5,1
	and	a5,a4,a5
	sd	a5,-32(s0)
	.loc 1 308 8
	ld	a4,-32(s0)
	li	a5,5
	bgtu	a4,a5,.L96
	.loc 1 309 22
	lla	a4,mIrqHandlers
	ld	a5,-32(s0)
	slli	a5,a5,3
	add	a5,a4,a5
	ld	a5,0(a5)
	.loc 1 308 71 discriminator 1
	beq	a5,zero,.L96
	.loc 1 311 19
	lla	a4,mIrqHandlers
	ld	a5,-32(s0)
	slli	a5,a5,3
	add	a5,a4,a5
	ld	a5,0(a5)
	.loc 1 311 7
	ld	a1,-40(s0)
	ld	a0,-24(s0)
	jalr	a5
.LVL0:
	.loc 1 312 7
	j	.L94
.L95:
	.loc 1 315 8
	ld	a4,-24(s0)
	li	a5,23
	bgt	a4,a5,.L96
	.loc 1 316 28
	lla	a4,mExceptionHandlers
	ld	a5,-24(s0)
	slli	a5,a5,3
	add	a5,a4,a5
	ld	a5,0(a5)
	.loc 1 315 33 discriminator 1
	beq	a5,zero,.L96
	.loc 1 318 25
	lla	a4,mExceptionHandlers
	ld	a5,-24(s0)
	slli	a5,a5,3
	add	a5,a4,a5
	ld	a5,0(a5)
	.loc 1 318 7
	ld	a1,-40(s0)
	ld	a0,-24(s0)
	jalr	a5
.LVL1:
	.loc 1 319 7
	j	.L94
.L96:
	.loc 1 323 3
	ld	a1,-40(s0)
	ld	a0,-24(s0)
	call	DumpCpuContext
	.loc 1 324 3
	call	CpuDeadLoop@plt
.L94:
	.loc 1 325 1
	ld	ra,56(sp)
	.cfi_restore 1
	ld	s0,48(sp)
	.cfi_restore 8
	.cfi_def_cfa 2, 64
	addi	sp,sp,64
	.cfi_def_cfa_offset 0
	jr	ra
	.cfi_endproc
.LFE6:
	.size	RiscVSupervisorModeTrapHandler, .-RiscVSupervisorModeTrapHandler
	.text
.Letext0:
	.file 2 "/home/kapoagaeming/Downloads/spacemit-image-builder/components/edk2/MdePkg/Include/RiscV64/ProcessorBind.h"
	.file 3 "/home/kapoagaeming/Downloads/spacemit-image-builder/components/edk2/MdePkg/Include/Base.h"
	.file 4 "/home/kapoagaeming/Downloads/spacemit-image-builder/components/edk2/MdePkg/Include/Uefi/UefiBaseType.h"
	.file 5 "/home/kapoagaeming/Downloads/spacemit-image-builder/components/edk2/MdePkg/Include/Protocol/DebugSupport.h"
	.file 6 "/home/kapoagaeming/Downloads/spacemit-image-builder/components/edk2/MdePkg/Include/Ppi/VectorHandoffInfo.h"
	.file 7 "/home/kapoagaeming/Downloads/spacemit-image-builder/components/edk2/MdePkg/Include/Protocol/Cpu.h"
	.file 8 "/home/kapoagaeming/Downloads/spacemit-image-builder/components/edk2/UefiCpuPkg/Library/BaseRiscV64CpuExceptionHandlerLib/CpuExceptionHandlerLib.h"
	.file 9 "/home/kapoagaeming/Downloads/spacemit-image-builder/components/edk2/MdePkg/Include/Library/BaseLib.h"
	.file 10 "/home/kapoagaeming/Downloads/spacemit-image-builder/components/edk2/MdePkg/Include/Library/DebugLib.h"
	.file 11 "/home/kapoagaeming/Downloads/spacemit-image-builder/components/edk2/MdePkg/Include/Library/SerialPortLib.h"
	.file 12 "/home/kapoagaeming/Downloads/spacemit-image-builder/components/edk2/MdePkg/Include/Library/PrintLib.h"
	.section	.note.GNU-stack,"",@progbits
