	.file	"Ifconfig.c"
	.option pic
	.option norelax
	.attribute arch, "rv64i2p1_m2p0_a2p1_f2p2_d2p2_c2p0_zicsr2p0_zifencei2p0_zmmul1p0_zaamo1p0_zalrsc1p0_zca1p0_zcd1p0"
	.attribute unaligned_access, 0
	.attribute stack_align, 16
	.text
.Ltext0:
	.cfi_sections	.debug_frame
	.file 0 "/home/kapoagaeming/spacemit-image-builder/components/Build/Milk-V-Jupiter/RELEASE_GCC5/RISCV64/ShellPkg/Library/UefiShellNetwork1CommandsLib/UefiShellNetwork1CommandsLib" "/home/kapoagaeming/spacemit-image-builder/components/edk2/ShellPkg/Library/UefiShellNetwork1CommandsLib/Ifconfig.c"
	.globl	mIfConfigCheckList
	.section	.rodata
	.align	3
.LC0:
	.string	"-"
	.string	"b"
	.zero	2
	.align	3
.LC1:
	.string	"-"
	.string	"l"
	.zero	2
	.align	3
.LC2:
	.string	"-"
	.string	"r"
	.zero	2
	.align	3
.LC3:
	.string	"-"
	.string	"c"
	.zero	2
	.align	3
.LC4:
	.string	"-"
	.string	"s"
	.zero	2
	.section	.data.rel.local.mIfConfigCheckList,"aw"
	.align	3
	.type	mIfConfigCheckList, @object
	.size	mIfConfigCheckList, 96
mIfConfigCheckList:
	.dword	.LC0
	.word	0
	.zero	4
	.dword	.LC1
	.word	1
	.zero	4
	.dword	.LC2
	.word	1
	.zero	4
	.dword	.LC3
	.word	1
	.zero	4
	.dword	.LC4
	.word	5
	.zero	4
	.dword	0
	.word	7
	.zero	4
	.globl	mSetCheckList
	.section	.rodata
	.align	3
.LC5:
	.string	"s"
	.string	"t"
	.string	"a"
	.string	"t"
	.string	"i"
	.string	"c"
	.zero	2
	.align	3
.LC6:
	.string	"d"
	.string	"h"
	.string	"c"
	.string	"p"
	.zero	2
	.align	3
.LC7:
	.string	"d"
	.string	"n"
	.string	"s"
	.zero	2
	.section	.data.rel.local.mSetCheckList,"aw"
	.align	3
	.type	mSetCheckList, @object
	.size	mSetCheckList, 96
mSetCheckList:
	.dword	.LC5
	.word	1
	.word	1
	.word	0
	.zero	4
	.dword	.LC6
	.word	2
	.word	1
	.word	0
	.zero	4
	.dword	.LC7
	.word	8
	.word	4
	.word	0
	.zero	4
	.dword	0
	.word	0
	.word	0
	.word	3
	.zero	4
	.section	.rodata.PermanentString,"a"
	.align	3
	.type	PermanentString, @object
	.size	PermanentString, 20
PermanentString:
	.string	"P"
	.string	"E"
	.string	"R"
	.string	"M"
	.string	"A"
	.string	"N"
	.string	"E"
	.string	"N"
	.string	"T"
	.zero	2
	.section	.text.FreeArgList,"ax",@progbits
	.align	1
	.globl	FreeArgList
	.type	FreeArgList, @function
FreeArgList:
.LFB0:
	.file 1 "/home/kapoagaeming/spacemit-image-builder/components/edk2/ShellPkg/Library/UefiShellNetwork1CommandsLib/Ifconfig.c"
	.loc 1 135 1
	.cfi_startproc
	addi	sp,sp,-48
	.cfi_def_cfa_offset 48
	sd	ra,40(sp)
	sd	s0,32(sp)
	.cfi_offset 1, -8
	.cfi_offset 8, -16
	addi	s0,sp,48
	.cfi_def_cfa 8, 0
	sd	a0,-40(s0)
	.loc 1 138 9
	j	.L2
.L3:
	.loc 1 139 10
	ld	a5,-40(s0)
	ld	a5,0(a5)
	sd	a5,-24(s0)
	.loc 1 140 5
	ld	a0,-40(s0)
	call	FreePool@plt
	.loc 1 141 10
	ld	a5,-24(s0)
	sd	a5,-40(s0)
.L2:
	.loc 1 138 14
	ld	a5,-40(s0)
	ld	a5,0(a5)
	.loc 1 138 21
	bne	a5,zero,.L3
	.loc 1 144 3
	ld	a0,-40(s0)
	call	FreePool@plt
	.loc 1 145 1
	nop
	ld	ra,40(sp)
	.cfi_restore 1
	ld	s0,32(sp)
	.cfi_restore 8
	.cfi_def_cfa 2, 48
	addi	sp,sp,48
	.cfi_def_cfa_offset 0
	jr	ra
	.cfi_endproc
.LFE0:
	.size	FreeArgList, .-FreeArgList
	.section	.text.SplitStrToList,"ax",@progbits
	.align	1
	.globl	SplitStrToList
	.type	SplitStrToList, @function
SplitStrToList:
.LFB1:
	.loc 1 161 1
	.cfi_startproc
	addi	sp,sp,-64
	.cfi_def_cfa_offset 64
	sd	ra,56(sp)
	sd	s0,48(sp)
	.cfi_offset 1, -8
	.cfi_offset 8, -16
	addi	s0,sp,64
	.cfi_def_cfa 8, 0
	sd	a0,-56(s0)
	mv	a5,a1
	sh	a5,-58(s0)
	.loc 1 167 7
	ld	a5,-56(s0)
	lhu	a5,0(a5)
	.loc 1 167 6
	bne	a5,zero,.L5
	.loc 1 168 12
	li	a5,0
	j	.L6
.L5:
	.loc 1 174 9
	ld	a0,-56(s0)
	call	StrSize@plt
	mv	a5,a0
	.loc 1 174 9 is_stmt 0 discriminator 1
	ld	a1,-56(s0)
	mv	a0,a5
	call	AllocateCopyPool@plt
	sd	a0,-24(s0)
	.loc 1 175 6 is_stmt 1
	ld	a5,-24(s0)
	bne	a5,zero,.L7
	.loc 1 176 12
	li	a5,0
	j	.L6
.L7:
	.loc 1 179 10
	ld	a5,-24(s0)
	sd	a5,-32(s0)
	.loc 1 184 25
	li	a0,16
	call	AllocateZeroPool@plt
	sd	a0,-40(s0)
	.loc 1 185 6
	ld	a5,-40(s0)
	bne	a5,zero,.L8
	.loc 1 186 12
	li	a5,0
	j	.L6
.L8:
	.loc 1 189 11
	ld	a5,-40(s0)
	sd	a5,-48(s0)
	.loc 1 194 9
	j	.L9
.L12:
	.loc 1 195 9
	ld	a5,-24(s0)
	lhu	a5,0(a5)
	.loc 1 195 8
	lhu	a4,-58(s0)
	sext.w	a4,a4
	sext.w	a5,a5
	bne	a4,a5,.L10
	.loc 1 196 12
	ld	a5,-24(s0)
	sh	zero,0(a5)
	.loc 1 197 20
	ld	a5,-40(s0)
	ld	a4,-32(s0)
	sd	a4,8(a5)
	.loc 1 198 14
	ld	a5,-24(s0)
	addi	a5,a5,2
	sd	a5,-32(s0)
	.loc 1 199 35
	li	a0,16
	call	AllocateZeroPool@plt
	mv	a4,a0
	.loc 1 199 21 discriminator 1
	ld	a5,-40(s0)
	sd	a4,0(a5)
	.loc 1 200 18
	ld	a5,-40(s0)
	ld	a5,0(a5)
	.loc 1 200 10
	bne	a5,zero,.L11
	.loc 1 204 26
	ld	a5,-48(s0)
	ld	a5,8(a5)
	.loc 1 204 9
	mv	a0,a5
	call	FreePool@plt
	.loc 1 205 9
	ld	a0,-48(s0)
	call	FreeArgList
	.loc 1 206 16
	li	a5,0
	j	.L6
.L11:
	.loc 1 209 15
	ld	a5,-40(s0)
	ld	a5,0(a5)
	sd	a5,-40(s0)
.L10:
	.loc 1 212 8
	ld	a5,-24(s0)
	addi	a5,a5,2
	sd	a5,-24(s0)
.L9:
	.loc 1 194 10
	ld	a5,-24(s0)
	lhu	a5,0(a5)
	.loc 1 194 15
	bne	a5,zero,.L12
	.loc 1 215 16
	ld	a5,-40(s0)
	ld	a4,-32(s0)
	sd	a4,8(a5)
	.loc 1 216 17
	ld	a5,-40(s0)
	sd	zero,0(a5)
	.loc 1 218 10
	ld	a5,-48(s0)
.L6:
	.loc 1 219 1
	mv	a0,a5
	ld	ra,56(sp)
	.cfi_restore 1
	ld	s0,48(sp)
	.cfi_restore 8
	.cfi_def_cfa 2, 64
	addi	sp,sp,64
	.cfi_def_cfa_offset 0
	jr	ra
	.cfi_endproc
.LFE1:
	.size	SplitStrToList, .-SplitStrToList
	.section	.text.IfConfigRetriveCheckListByName,"ax",@progbits
	.align	1
	.globl	IfConfigRetriveCheckListByName
	.type	IfConfigRetriveCheckListByName, @function
IfConfigRetriveCheckListByName:
.LFB2:
	.loc 1 240 1
	.cfi_startproc
	addi	sp,sp,-80
	.cfi_def_cfa_offset 80
	sd	ra,72(sp)
	sd	s0,64(sp)
	.cfi_offset 1, -8
	.cfi_offset 8, -16
	addi	s0,sp,80
	.cfi_def_cfa 8, 0
	sd	a0,-56(s0)
	sd	a1,-64(s0)
	mv	a5,a2
	sb	a5,-65(s0)
	.loc 1 247 6
	lbu	a5,-65(s0)
	andi	a5,a5,0xff
	beq	a5,zero,.L14
	.loc 1 248 20
	lla	a5,CheckDuplicate.1
	sw	zero,0(a5)
	.loc 1 249 19
	lla	a5,CheckConflict.0
	sw	zero,0(a5)
	.loc 1 250 12
	li	a5,0
	j	.L23
.L14:
	.loc 1 253 10
	sw	zero,-20(s0)
	.loc 1 254 9
	sw	zero,-24(s0)
	.loc 1 255 18
	lwu	a4,-24(s0)
	mv	a5,a4
	slli	a5,a5,1
	add	a5,a5,a4
	slli	a5,a5,3
	mv	a4,a5
	ld	a5,-56(s0)
	add	a5,a5,a4
	.loc 1 255 7
	ld	a4,0(a5)
	sd	a4,-48(s0)
	ld	a4,8(a5)
	sd	a4,-40(s0)
	ld	a5,16(a5)
	sd	a5,-32(s0)
	.loc 1 260 9
	j	.L16
.L21:
	.loc 1 261 20
	ld	a5,-48(s0)
	.loc 1 261 9
	ld	a1,-64(s0)
	mv	a0,a5
	call	StrCmp@plt
	mv	a5,a0
	.loc 1 261 8 discriminator 1
	bne	a5,zero,.L17
	.loc 1 262 31
	lw	a4,-40(s0)
	.loc 1 262 26
	lla	a5,CheckDuplicate.1
	lw	a5,0(a5)
	and	a5,a4,a5
	sext.w	a5,a5
	.loc 1 262 10
	beq	a5,zero,.L18
	.loc 1 263 16
	li	a5,1
	sw	a5,-20(s0)
	.loc 1 264 9
	j	.L19
.L18:
	.loc 1 267 30
	lw	a4,-36(s0)
	.loc 1 267 25
	lla	a5,CheckConflict.0
	lw	a5,0(a5)
	and	a5,a4,a5
	sext.w	a5,a5
	.loc 1 267 10
	beq	a5,zero,.L20
	.loc 1 268 16
	li	a5,2
	sw	a5,-20(s0)
	.loc 1 269 9
	j	.L19
.L20:
	.loc 1 272 28
	lw	a4,-40(s0)
	.loc 1 272 22
	lla	a5,CheckDuplicate.1
	lw	a5,0(a5)
	or	a5,a4,a5
	sext.w	a4,a5
	lla	a5,CheckDuplicate.1
	sw	a4,0(a5)
	.loc 1 273 27
	lw	a4,-36(s0)
	.loc 1 273 21
	lla	a5,CheckConflict.0
	lw	a5,0(a5)
	or	a5,a4,a5
	sext.w	a4,a5
	lla	a5,CheckConflict.0
	sw	a4,0(a5)
	.loc 1 274 7
	j	.L19
.L17:
	.loc 1 277 9
	lw	a5,-24(s0)
	addiw	a5,a5,1
	sw	a5,-24(s0)
	.loc 1 277 21
	lwu	a4,-24(s0)
	.loc 1 277 20
	mv	a5,a4
	slli	a5,a5,1
	add	a5,a5,a4
	slli	a5,a5,3
	mv	a4,a5
	ld	a5,-56(s0)
	add	a5,a5,a4
	.loc 1 277 9
	ld	a4,0(a5)
	sd	a4,-48(s0)
	ld	a4,8(a5)
	sd	a4,-40(s0)
	ld	a5,16(a5)
	sd	a5,-32(s0)
.L16:
	.loc 1 260 13
	ld	a5,-48(s0)
	.loc 1 260 22
	bne	a5,zero,.L21
.L19:
	.loc 1 280 10
	ld	a5,-48(s0)
	.loc 1 280 6
	bne	a5,zero,.L22
	.loc 1 281 12
	li	a5,3
	sw	a5,-20(s0)
.L22:
	.loc 1 284 10
	lw	a5,-20(s0)
.L23:
	.loc 1 285 1
	mv	a0,a5
	ld	ra,72(sp)
	.cfi_restore 1
	ld	s0,64(sp)
	.cfi_restore 8
	.cfi_def_cfa 2, 80
	addi	sp,sp,80
	.cfi_def_cfa_offset 0
	jr	ra
	.cfi_endproc
.LFE2:
	.size	IfConfigRetriveCheckListByName, .-IfConfigRetriveCheckListByName
	.section	.text.IfConfigManualAddressNotify,"ax",@progbits
	.align	1
	.globl	IfConfigManualAddressNotify
	.type	IfConfigManualAddressNotify, @function
IfConfigManualAddressNotify:
.LFB3:
	.loc 1 300 1
	.cfi_startproc
	addi	sp,sp,-32
	.cfi_def_cfa_offset 32
	sd	ra,24(sp)
	sd	s0,16(sp)
	.cfi_offset 1, -8
	.cfi_offset 8, -16
	addi	s0,sp,32
	.cfi_def_cfa 8, 0
	sd	a0,-24(s0)
	sd	a1,-32(s0)
	.loc 1 301 25
	ld	a5,-32(s0)
	li	a4,1
	sb	a4,0(a5)
	.loc 1 302 1
	nop
	ld	ra,24(sp)
	.cfi_restore 1
	ld	s0,16(sp)
	.cfi_restore 8
	.cfi_def_cfa 2, 32
	addi	sp,sp,32
	.cfi_def_cfa_offset 0
	jr	ra
	.cfi_endproc
.LFE3:
	.size	IfConfigManualAddressNotify, .-IfConfigManualAddressNotify
	.section	.text.IfConfigPrintMacAddr,"ax",@progbits
	.align	1
	.globl	IfConfigPrintMacAddr
	.type	IfConfigPrintMacAddr, @function
IfConfigPrintMacAddr:
.LFB4:
	.loc 1 316 1
	.cfi_startproc
	addi	sp,sp,-48
	.cfi_def_cfa_offset 48
	sd	ra,40(sp)
	sd	s0,32(sp)
	.cfi_offset 1, -8
	.cfi_offset 8, -16
	addi	s0,sp,48
	.cfi_def_cfa 8, 0
	sd	a0,-40(s0)
	mv	a5,a1
	sw	a5,-44(s0)
	.loc 1 321 14
	sd	zero,-24(s0)
	.loc 1 321 3
	j	.L26
.L28:
	.loc 1 322 5
	la	a5,gShellNetwork1HiiHandle
	ld	a3,0(a5)
	.loc 1 322 81
	ld	a4,-40(s0)
	ld	a5,-24(s0)
	add	a5,a4,a5
	lbu	a5,0(a5)
	.loc 1 322 5
	sext.w	a5,a5
	mv	a4,a3
	li	a3,45
	li	a2,0
	li	a1,-1
	li	a0,-1
	call	ShellPrintHiiEx@plt
	.loc 1 323 15
	ld	a5,-24(s0)
	addi	a4,a5,1
	.loc 1 323 19
	lwu	a5,-44(s0)
	.loc 1 323 8
	bgeu	a4,a5,.L27
	.loc 1 324 7
	la	a5,gShellNetwork1HiiHandle
	ld	a5,0(a5)
	mv	a4,a5
	li	a3,39
	li	a2,0
	li	a1,-1
	li	a0,-1
	call	ShellPrintHiiEx@plt
.L27:
	.loc 1 321 38 discriminator 2
	ld	a5,-24(s0)
	addi	a5,a5,1
	sd	a5,-24(s0)
.L26:
	.loc 1 321 25 discriminator 1
	lwu	a5,-44(s0)
	ld	a4,-24(s0)
	bltu	a4,a5,.L28
	.loc 1 328 3
	la	a5,gShellNetwork1HiiHandle
	ld	a5,0(a5)
	mv	a4,a5
	li	a3,36
	li	a2,0
	li	a1,-1
	li	a0,-1
	call	ShellPrintHiiEx@plt
	.loc 1 329 1
	nop
	ld	ra,40(sp)
	.cfi_restore 1
	ld	s0,32(sp)
	.cfi_restore 8
	.cfi_def_cfa 2, 48
	addi	sp,sp,48
	.cfi_def_cfa_offset 0
	jr	ra
	.cfi_endproc
.LFE4:
	.size	IfConfigPrintMacAddr, .-IfConfigPrintMacAddr
	.section	.text.IfConfigGetInterfaceInfo,"ax",@progbits
	.align	1
	.globl	IfConfigGetInterfaceInfo
	.type	IfConfigGetInterfaceInfo, @function
IfConfigGetInterfaceInfo:
.LFB5:
	.loc 1 346 1
	.cfi_startproc
	addi	sp,sp,-96
	.cfi_def_cfa_offset 96
	sd	ra,88(sp)
	sd	s0,80(sp)
	.cfi_offset 1, -8
	.cfi_offset 8, -16
	addi	s0,sp,96
	.cfi_def_cfa 8, 0
	sd	a0,-88(s0)
	sd	a1,-96(s0)
	.loc 1 356 16
	sd	zero,-64(s0)
	.loc 1 357 13
	sd	zero,-56(s0)
	.loc 1 359 10
	sd	zero,-40(s0)
	.loc 1 360 8
	sd	zero,-48(s0)
	.loc 1 365 15
	la	a5,gBS
	ld	a5,0(a5)
	ld	a5,312(a5)
	.loc 1 365 12
	addi	a4,s0,-64
	addi	a3,s0,-56
	li	a2,0
	la	a1,gEfiIp4ServiceBindingProtocolGuid
	li	a0,2
	jalr	a5
.LVL0:
	sd	a0,-24(s0)
	.loc 1 372 34
	ld	a5,-24(s0)
	.loc 1 372 6
	blt	a5,zero,.L30
	.loc 1 372 74 discriminator 1
	ld	a5,-56(s0)
	.loc 1 372 60 discriminator 1
	bne	a5,zero,.L31
.L30:
	.loc 1 373 12
	ld	a5,-24(s0)
	j	.L50
.L31:
	.loc 1 379 20
	sd	zero,-32(s0)
	.loc 1 379 3
	j	.L33
.L46:
	.loc 1 380 10
	sd	zero,-48(s0)
	.loc 1 381 12
	sd	zero,-40(s0)
	.loc 1 382 14
	sd	zero,-80(s0)
	.loc 1 389 17
	la	a5,gBS
	ld	a5,0(a5)
	ld	a5,152(a5)
	.loc 1 390 33
	ld	a3,-64(s0)
	ld	a4,-32(s0)
	slli	a4,a4,3
	add	a4,a3,a4
	.loc 1 389 14
	ld	a4,0(a4)
	addi	a3,s0,-72
	mv	a2,a3
	la	a1,gEfiIp4Config2ProtocolGuid
	mv	a0,a4
	jalr	a5
.LVL1:
	sd	a0,-24(s0)
	.loc 1 395 36
	ld	a5,-24(s0)
	.loc 1 395 8
	blt	a5,zero,.L51
	.loc 1 402 21
	ld	a5,-72(s0)
	ld	a5,8(a5)
	.loc 1 402 14
	ld	a4,-72(s0)
	addi	a2,s0,-80
	li	a3,0
	li	a1,0
	mv	a0,a4
	jalr	a5
.LVL2:
	sd	a0,-24(s0)
	.loc 1 409 8
	ld	a4,-24(s0)
	li	a5,-1
	slli	a5,a5,63
	addi	a5,a5,5
	bne	a4,a5,.L52
	.loc 1 413 14
	ld	a5,-80(s0)
	mv	a0,a5
	call	AllocateZeroPool@plt
	sd	a0,-40(s0)
	.loc 1 415 8
	ld	a5,-40(s0)
	bne	a5,zero,.L37
	.loc 1 416 14
	li	a5,-1
	slli	a5,a5,63
	addi	a5,a5,9
	sd	a5,-24(s0)
	.loc 1 417 7
	j	.L35
.L37:
	.loc 1 423 21
	ld	a5,-72(s0)
	ld	a5,8(a5)
	.loc 1 423 14
	ld	a4,-72(s0)
	addi	a2,s0,-80
	ld	a3,-40(s0)
	li	a1,0
	mv	a0,a4
	jalr	a5
.LVL3:
	sd	a0,-24(s0)
	.loc 1 430 36
	ld	a5,-24(s0)
	.loc 1 430 8
	blt	a5,zero,.L53
	.loc 1 437 8
	ld	a5,-88(s0)
	beq	a5,zero,.L39
	.loc 1 437 60 discriminator 1
	ld	a5,-40(s0)
	.loc 1 437 38 discriminator 1
	mv	a1,a5
	ld	a0,-88(s0)
	call	StrCmp@plt
	mv	a5,a0
	.loc 1 437 34 discriminator 2
	beq	a5,zero,.L39
	.loc 1 438 7
	ld	a0,-40(s0)
	call	FreePool@plt
	.loc 1 439 7
	j	.L40
.L39:
	.loc 1 442 14
	sd	zero,-80(s0)
	.loc 1 447 21
	ld	a5,-72(s0)
	ld	a5,8(a5)
	.loc 1 447 14
	ld	a4,-72(s0)
	addi	a2,s0,-80
	li	a3,0
	li	a1,4
	mv	a0,a4
	jalr	a5
.LVL4:
	sd	a0,-24(s0)
	.loc 1 454 8
	ld	a4,-24(s0)
	li	a5,-1
	slli	a5,a5,63
	addi	a5,a5,5
	beq	a4,a5,.L41
	.loc 1 454 68 discriminator 1
	ld	a4,-24(s0)
	li	a5,-1
	slli	a5,a5,63
	addi	a5,a5,14
	bne	a4,a5,.L54
.L41:
	.loc 1 458 12
	ld	a5,-80(s0)
	.loc 1 458 61
	addi	a5,a5,56
	.loc 1 458 12
	mv	a0,a5
	call	AllocateZeroPool@plt
	sd	a0,-48(s0)
	.loc 1 460 8
	ld	a5,-48(s0)
	bne	a5,zero,.L42
	.loc 1 461 14
	li	a5,-1
	slli	a5,a5,63
	addi	a5,a5,9
	sd	a5,-24(s0)
	.loc 1 462 7
	j	.L35
.L42:
	.loc 1 465 35
	ld	a4,-64(s0)
	ld	a5,-32(s0)
	slli	a5,a5,3
	add	a5,a4,a5
	ld	a4,0(a5)
	.loc 1 465 21
	ld	a5,-48(s0)
	sd	a4,0(a5)
	.loc 1 466 18
	ld	a5,-48(s0)
	ld	a4,-40(s0)
	sd	a4,32(a5)
	.loc 1 467 17
	ld	a4,-72(s0)
	ld	a5,-48(s0)
	sd	a4,24(a5)
	.loc 1 468 38
	ld	a5,-80(s0)
	srli	a5,a5,2
	.loc 1 468 20
	sext.w	a4,a5
	.loc 1 468 18
	ld	a5,-48(s0)
	sw	a4,44(a5)
	.loc 1 473 18
	ld	a5,-80(s0)
	.loc 1 473 8
	beq	a5,zero,.L43
	.loc 1 474 23
	ld	a5,-72(s0)
	ld	a5,8(a5)
	.loc 1 474 16
	ld	a0,-72(s0)
	.loc 1 478 31
	ld	a4,-48(s0)
	addi	a3,a4,48
	.loc 1 474 16
	addi	a4,s0,-80
	mv	a2,a4
	li	a1,4
	jalr	a5
.LVL5:
	sd	a0,-24(s0)
	.loc 1 481 38
	ld	a5,-24(s0)
	.loc 1 481 10
	blt	a5,zero,.L55
.L43:
	.loc 1 489 14
	li	a5,4
	sd	a5,-80(s0)
	.loc 1 490 21
	ld	a5,-72(s0)
	ld	a5,8(a5)
	.loc 1 490 14
	ld	a0,-72(s0)
	.loc 1 494 27
	ld	a4,-48(s0)
	addi	a3,a4,40
	.loc 1 490 14
	addi	a4,s0,-80
	mv	a2,a4
	li	a1,1
	jalr	a5
.LVL6:
	sd	a0,-24(s0)
	.loc 1 497 36
	ld	a5,-24(s0)
	.loc 1 497 8
	blt	a5,zero,.L56
	.loc 1 501 5
	ld	a5,-48(s0)
	addi	a5,a5,8
	mv	a1,a5
	ld	a0,-96(s0)
	call	InsertTailList@plt
	.loc 1 503 8
	ld	a5,-88(s0)
	beq	a5,zero,.L40
	.loc 1 503 60 discriminator 1
	ld	a5,-40(s0)
	.loc 1 503 38 discriminator 1
	mv	a1,a5
	ld	a0,-88(s0)
	call	StrCmp@plt
	mv	a5,a0
	.loc 1 503 34 discriminator 2
	bne	a5,zero,.L40
	.loc 1 507 12
	sd	zero,-48(s0)
	.loc 1 508 14
	sd	zero,-40(s0)
	.loc 1 509 7
	j	.L45
.L40:
	.loc 1 379 61 discriminator 2
	ld	a5,-32(s0)
	addi	a5,a5,1
	sd	a5,-32(s0)
.L33:
	.loc 1 379 37 discriminator 1
	ld	a5,-56(s0)
	ld	a4,-32(s0)
	bltu	a4,a5,.L46
.L45:
	.loc 1 513 20
	ld	a5,-64(s0)
	.loc 1 513 6
	beq	a5,zero,.L47
	.loc 1 514 5
	ld	a5,-64(s0)
	mv	a0,a5
	call	FreePool@plt
.L47:
	.loc 1 517 10
	li	a5,0
	j	.L50
.L51:
	.loc 1 396 7
	nop
	j	.L35
.L52:
	.loc 1 410 7
	nop
	j	.L35
.L53:
	.loc 1 431 7
	nop
	j	.L35
.L54:
	.loc 1 455 7
	nop
	j	.L35
.L55:
	.loc 1 482 9
	nop
	j	.L35
.L56:
	.loc 1 498 7
	nop
.L35:
	.loc 1 521 6
	ld	a5,-40(s0)
	beq	a5,zero,.L48
	.loc 1 522 5
	ld	a0,-40(s0)
	call	FreePool@plt
.L48:
	.loc 1 525 6
	ld	a5,-48(s0)
	beq	a5,zero,.L49
	.loc 1 526 5
	ld	a0,-48(s0)
	call	FreePool@plt
.L49:
	.loc 1 529 10
	ld	a5,-24(s0)
.L50:
	.loc 1 530 1
	mv	a0,a5
	ld	ra,88(sp)
	.cfi_restore 1
	ld	s0,80(sp)
	.cfi_restore 8
	.cfi_def_cfa 2, 96
	addi	sp,sp,96
	.cfi_def_cfa_offset 0
	jr	ra
	.cfi_endproc
.LFE5:
	.size	IfConfigGetInterfaceInfo, .-IfConfigGetInterfaceInfo
	.section	.rodata
	.align	3
.LC8:
	.string	"M"
	.string	"e"
	.string	"d"
	.string	"i"
	.string	"a"
	.string	" "
	.string	"d"
	.string	"i"
	.string	"s"
	.string	"c"
	.string	"o"
	.string	"n"
	.string	"n"
	.string	"e"
	.string	"c"
	.string	"t"
	.string	"e"
	.string	"d"
	.zero	2
	.align	3
.LC9:
	.string	"M"
	.string	"e"
	.string	"d"
	.string	"i"
	.string	"a"
	.string	" "
	.string	"p"
	.string	"r"
	.string	"e"
	.string	"s"
	.string	"e"
	.string	"n"
	.string	"t"
	.zero	2
	.align	3
.LC10:
	.string	"M"
	.string	"e"
	.string	"d"
	.string	"i"
	.string	"a"
	.string	" "
	.string	"s"
	.string	"t"
	.string	"a"
	.string	"t"
	.string	"e"
	.string	" "
	.string	"u"
	.string	"n"
	.string	"k"
	.string	"n"
	.string	"o"
	.string	"w"
	.string	"n"
	.zero	2
	.align	3
.LC11:
	.string	"S"
	.string	"u"
	.string	"b"
	.string	"n"
	.string	"e"
	.string	"t"
	.string	" "
	.zero	2
	.align	3
.LC12:
	.string	"N"
	.string	"e"
	.string	"t"
	.string	"m"
	.string	"a"
	.string	"s"
	.string	"k"
	.zero	2
	.align	3
.LC13:
	.string	"G"
	.string	"a"
	.string	"t"
	.string	"e"
	.string	"w"
	.string	"a"
	.string	"y"
	.zero	2
	.section	.text.IfConfigShowInterfaceInfo,"ax",@progbits
	.align	1
	.globl	IfConfigShowInterfaceInfo
	.type	IfConfigShowInterfaceInfo, @function
IfConfigShowInterfaceInfo:
.LFB6:
	.loc 1 545 1
	.cfi_startproc
	addi	sp,sp,-96
	.cfi_def_cfa_offset 96
	sd	ra,88(sp)
	sd	s0,80(sp)
	.cfi_offset 1, -8
	.cfi_offset 8, -16
	addi	s0,sp,96
	.cfi_def_cfa 8, 0
	sd	a0,-72(s0)
	.loc 1 553 15
	sd	zero,-56(s0)
	.loc 1 555 7
	ld	a0,-72(s0)
	call	IsListEmpty@plt
	mv	a5,a0
	.loc 1 555 6 discriminator 1
	beq	a5,zero,.L58
	.loc 1 556 5
	la	a5,gShellNetwork1HiiHandle
	ld	a5,0(a5)
	mv	a4,a5
	li	a3,26
	li	a2,0
	li	a1,-1
	li	a0,-1
	call	ShellPrintHiiEx@plt
.L58:
	.loc 1 562 13
	ld	a5,-72(s0)
	ld	a5,0(a5)
	sd	a5,-24(s0)
	.loc 1 562 43
	ld	a5,-24(s0)
	ld	a5,0(a5)
	sd	a5,-32(s0)
	.loc 1 562 3
	j	.L59
.L72:
	.loc 1 563 10
	ld	a5,-24(s0)
	addi	a5,a5,-8
	sd	a5,-48(s0)
	.loc 1 565 5
	la	a5,gShellNetwork1HiiHandle
	ld	a5,0(a5)
	mv	a4,a5
	li	a3,38
	li	a2,0
	li	a1,-1
	li	a0,-1
	call	ShellPrintHiiEx@plt
	.loc 1 570 5
	la	a5,gShellNetwork1HiiHandle
	ld	a4,0(a5)
	.loc 1 570 81
	ld	a5,-48(s0)
	ld	a5,32(a5)
	.loc 1 570 5
	li	a3,40
	li	a2,0
	li	a1,-1
	li	a0,-1
	call	ShellPrintHiiEx@plt
	.loc 1 575 31
	ld	a5,-48(s0)
	ld	a5,0(a5)
	addi	a4,s0,-56
	mv	a2,a4
	li	a1,0
	mv	a0,a5
	call	NetLibDetectMediaWaitTimeout@plt
	mv	a5,a0
	.loc 1 575 8 discriminator 1
	bne	a5,zero,.L60
	.loc 1 576 23
	ld	a5,-56(s0)
	.loc 1 576 10
	beq	a5,zero,.L61
	.loc 1 577 9
	la	a5,gShellNetwork1HiiHandle
	ld	a4,0(a5)
	lla	a5,.LC8
	li	a3,41
	li	a2,0
	li	a1,-1
	li	a0,-1
	call	ShellPrintHiiEx@plt
	j	.L62
.L61:
	.loc 1 579 9
	la	a5,gShellNetwork1HiiHandle
	ld	a4,0(a5)
	lla	a5,.LC9
	li	a3,41
	li	a2,0
	li	a1,-1
	li	a0,-1
	call	ShellPrintHiiEx@plt
	j	.L62
.L60:
	.loc 1 582 7
	la	a5,gShellNetwork1HiiHandle
	ld	a4,0(a5)
	lla	a5,.LC10
	li	a3,41
	li	a2,0
	li	a1,-1
	li	a0,-1
	call	ShellPrintHiiEx@plt
.L62:
	.loc 1 588 13
	ld	a5,-48(s0)
	lw	a4,40(a5)
	.loc 1 588 8
	li	a5,1
	bne	a4,a5,.L63
	.loc 1 589 7
	la	a5,gShellNetwork1HiiHandle
	ld	a5,0(a5)
	mv	a4,a5
	li	a3,42
	li	a2,0
	li	a1,-1
	li	a0,-1
	call	ShellPrintHiiEx@plt
	j	.L64
.L63:
	.loc 1 591 7
	la	a5,gShellNetwork1HiiHandle
	ld	a5,0(a5)
	mv	a4,a5
	li	a3,43
	li	a2,0
	li	a1,-1
	li	a0,-1
	call	ShellPrintHiiEx@plt
.L64:
	.loc 1 597 5
	la	a5,gShellNetwork1HiiHandle
	ld	a5,0(a5)
	mv	a4,a5
	li	a3,44
	li	a2,0
	li	a1,-1
	li	a0,-1
	call	ShellPrintHiiEx@plt
	.loc 1 600 11
	ld	a5,-48(s0)
	ld	a5,32(a5)
	.loc 1 600 30
	addi	a4,a5,72
	.loc 1 601 11
	ld	a5,-48(s0)
	ld	a5,32(a5)
	.loc 1 599 5
	lw	a5,68(a5)
	mv	a1,a5
	mv	a0,a4
	call	IfConfigPrintMacAddr
	.loc 1 607 5
	la	a5,gShellNetwork1HiiHandle
	ld	a5,0(a5)
	mv	a4,a5
	li	a3,46
	li	a2,0
	li	a1,-1
	li	a0,-1
	call	ShellPrintHiiEx@plt
	.loc 1 609 5
	la	a5,gShellNetwork1HiiHandle
	ld	a4,0(a5)
	.loc 1 615 18
	ld	a5,-48(s0)
	ld	a5,32(a5)
	.loc 1 615 47
	lbu	a5,104(a5)
	.loc 1 609 5
	mv	a3,a5
	.loc 1 616 18
	ld	a5,-48(s0)
	ld	a5,32(a5)
	.loc 1 616 47
	lbu	a5,105(a5)
	.loc 1 609 5
	mv	a2,a5
	.loc 1 617 18
	ld	a5,-48(s0)
	ld	a5,32(a5)
	.loc 1 617 47
	lbu	a5,106(a5)
	.loc 1 609 5
	mv	a1,a5
	.loc 1 618 18
	ld	a5,-48(s0)
	ld	a5,32(a5)
	.loc 1 618 47
	lbu	a5,107(a5)
	.loc 1 609 5
	sd	a5,0(sp)
	mv	a7,a1
	mv	a6,a2
	mv	a5,a3
	li	a3,50
	li	a2,0
	li	a1,-1
	li	a0,-1
	call	ShellPrintHiiEx@plt
	.loc 1 624 5
	la	a5,gShellNetwork1HiiHandle
	ld	a5,0(a5)
	mv	a4,a5
	li	a3,47
	li	a2,0
	li	a1,-1
	li	a0,-1
	call	ShellPrintHiiEx@plt
	.loc 1 626 5
	la	a5,gShellNetwork1HiiHandle
	ld	a4,0(a5)
	.loc 1 632 18
	ld	a5,-48(s0)
	ld	a5,32(a5)
	.loc 1 632 43
	lbu	a5,108(a5)
	.loc 1 626 5
	mv	a3,a5
	.loc 1 633 18
	ld	a5,-48(s0)
	ld	a5,32(a5)
	.loc 1 633 43
	lbu	a5,109(a5)
	.loc 1 626 5
	mv	a2,a5
	.loc 1 634 18
	ld	a5,-48(s0)
	ld	a5,32(a5)
	.loc 1 634 43
	lbu	a5,110(a5)
	.loc 1 626 5
	mv	a1,a5
	.loc 1 635 18
	ld	a5,-48(s0)
	ld	a5,32(a5)
	.loc 1 635 43
	lbu	a5,111(a5)
	.loc 1 626 5
	sd	a5,0(sp)
	mv	a7,a1
	mv	a6,a2
	mv	a5,a3
	li	a3,50
	li	a2,0
	li	a1,-1
	li	a0,-1
	call	ShellPrintHiiEx@plt
	.loc 1 641 5
	la	a5,gShellNetwork1HiiHandle
	ld	a5,0(a5)
	mv	a4,a5
	li	a3,48
	li	a2,0
	li	a1,-1
	li	a0,-1
	call	ShellPrintHiiEx@plt
	.loc 1 643 5
	addi	a5,s0,-64
	li	a1,4
	mv	a0,a5
	call	ZeroMem@plt
	.loc 1 645 16
	sw	zero,-36(s0)
	.loc 1 645 5
	j	.L65
.L67:
	.loc 1 646 29
	ld	a5,-48(s0)
	ld	a5,32(a5)
	.loc 1 646 37
	ld	a3,120(a5)
	.loc 1 646 49
	lwu	a4,-36(s0)
	mv	a5,a4
	slli	a5,a5,1
	add	a5,a5,a4
	slli	a5,a5,2
	add	a5,a3,a5
	.loc 1 646 12
	li	a2,4
	la	a1,mZeroIp4Addr
	mv	a0,a5
	call	CompareMem@plt
	mv	a5,a0
	.loc 1 646 10 discriminator 1
	bne	a5,zero,.L66
	.loc 1 647 29
	ld	a5,-48(s0)
	ld	a5,32(a5)
	.loc 1 647 37
	ld	a3,120(a5)
	.loc 1 647 49
	lwu	a4,-36(s0)
	mv	a5,a4
	slli	a5,a5,1
	add	a5,a5,a4
	slli	a5,a5,2
	add	a5,a3,a5
	.loc 1 647 24
	addi	a5,a5,4
	.loc 1 647 12
	li	a2,4
	la	a1,mZeroIp4Addr
	mv	a0,a5
	call	CompareMem@plt
	mv	a5,a0
	.loc 1 646 120 discriminator 2
	bne	a5,zero,.L66
	.loc 1 649 33
	ld	a5,-48(s0)
	ld	a5,32(a5)
	.loc 1 649 41
	ld	a3,120(a5)
	.loc 1 649 53
	lwu	a4,-36(s0)
	mv	a5,a4
	slli	a5,a5,1
	add	a5,a5,a4
	slli	a5,a5,2
	add	a5,a3,a5
	.loc 1 649 28
	addi	a4,a5,8
	.loc 1 649 9
	addi	a5,s0,-64
	li	a2,4
	mv	a1,a4
	mv	a0,a5
	call	CopyMem@plt
.L66:
	.loc 1 645 64 discriminator 2
	lw	a5,-36(s0)
	addiw	a5,a5,1
	sw	a5,-36(s0)
.L65:
	.loc 1 645 33 discriminator 1
	ld	a5,-48(s0)
	ld	a5,32(a5)
	.loc 1 645 41 discriminator 1
	lw	a5,112(a5)
	.loc 1 645 27 discriminator 1
	lw	a4,-36(s0)
	sext.w	a4,a4
	bltu	a4,a5,.L67
	.loc 1 653 5
	la	a5,gShellNetwork1HiiHandle
	ld	a4,0(a5)
	.loc 1 659 26
	lbu	a5,-64(s0)
	.loc 1 653 5
	mv	a3,a5
	.loc 1 660 26
	lbu	a5,-63(s0)
	.loc 1 653 5
	mv	a2,a5
	.loc 1 661 26
	lbu	a5,-62(s0)
	.loc 1 653 5
	mv	a1,a5
	.loc 1 662 26
	lbu	a5,-61(s0)
	.loc 1 653 5
	sd	a5,0(sp)
	mv	a7,a1
	mv	a6,a2
	mv	a5,a3
	li	a3,50
	li	a2,0
	li	a1,-1
	li	a0,-1
	call	ShellPrintHiiEx@plt
	.loc 1 668 5
	la	a5,gShellNetwork1HiiHandle
	ld	a4,0(a5)
	.loc 1 668 81
	ld	a5,-48(s0)
	ld	a5,32(a5)
	.loc 1 668 5
	lw	a5,112(a5)
	li	a3,33
	li	a2,0
	li	a1,-1
	li	a0,-1
	call	ShellPrintHiiEx@plt
	.loc 1 670 16
	sw	zero,-36(s0)
	.loc 1 670 5
	j	.L68
.L69:
	.loc 1 671 7
	la	a5,gShellNetwork1HiiHandle
	ld	a4,0(a5)
	lw	a5,-36(s0)
	li	a3,34
	li	a2,0
	li	a1,-1
	li	a0,-1
	call	ShellPrintHiiEx@plt
	.loc 1 673 7
	la	a5,gShellNetwork1HiiHandle
	ld	a2,0(a5)
	.loc 1 680 20
	ld	a5,-48(s0)
	ld	a5,32(a5)
	.loc 1 680 28
	ld	a3,120(a5)
	.loc 1 680 40
	lwu	a4,-36(s0)
	mv	a5,a4
	slli	a5,a5,1
	add	a5,a5,a4
	slli	a5,a5,2
	add	a5,a3,a5
	.loc 1 680 66
	lbu	a5,0(a5)
	.loc 1 673 7
	mv	a0,a5
	.loc 1 681 20
	ld	a5,-48(s0)
	ld	a5,32(a5)
	.loc 1 681 28
	ld	a3,120(a5)
	.loc 1 681 40
	lwu	a4,-36(s0)
	mv	a5,a4
	slli	a5,a5,1
	add	a5,a5,a4
	slli	a5,a5,2
	add	a5,a3,a5
	.loc 1 681 66
	lbu	a5,1(a5)
	.loc 1 673 7
	mv	a6,a5
	.loc 1 682 20
	ld	a5,-48(s0)
	ld	a5,32(a5)
	.loc 1 682 28
	ld	a3,120(a5)
	.loc 1 682 40
	lwu	a4,-36(s0)
	mv	a5,a4
	slli	a5,a5,1
	add	a5,a5,a4
	slli	a5,a5,2
	add	a5,a3,a5
	.loc 1 682 66
	lbu	a5,2(a5)
	.loc 1 673 7
	mv	a1,a5
	.loc 1 683 20
	ld	a5,-48(s0)
	ld	a5,32(a5)
	.loc 1 683 28
	ld	a3,120(a5)
	.loc 1 683 40
	lwu	a4,-36(s0)
	mv	a5,a4
	slli	a5,a5,1
	add	a5,a5,a4
	slli	a5,a5,2
	add	a5,a3,a5
	.loc 1 683 66
	lbu	a5,3(a5)
	.loc 1 673 7
	sd	a5,8(sp)
	sd	a1,0(sp)
	mv	a7,a6
	mv	a6,a0
	lla	a5,.LC11
	mv	a4,a2
	li	a3,35
	li	a2,0
	li	a1,-1
	li	a0,-1
	call	ShellPrintHiiEx@plt
	.loc 1 686 7
	la	a5,gShellNetwork1HiiHandle
	ld	a2,0(a5)
	.loc 1 693 20
	ld	a5,-48(s0)
	ld	a5,32(a5)
	.loc 1 693 28
	ld	a3,120(a5)
	.loc 1 693 40
	lwu	a4,-36(s0)
	mv	a5,a4
	slli	a5,a5,1
	add	a5,a5,a4
	slli	a5,a5,2
	add	a5,a3,a5
	.loc 1 693 63
	lbu	a5,4(a5)
	.loc 1 686 7
	mv	a0,a5
	.loc 1 694 20
	ld	a5,-48(s0)
	ld	a5,32(a5)
	.loc 1 694 28
	ld	a3,120(a5)
	.loc 1 694 40
	lwu	a4,-36(s0)
	mv	a5,a4
	slli	a5,a5,1
	add	a5,a5,a4
	slli	a5,a5,2
	add	a5,a3,a5
	.loc 1 694 63
	lbu	a5,5(a5)
	.loc 1 686 7
	mv	a6,a5
	.loc 1 695 20
	ld	a5,-48(s0)
	ld	a5,32(a5)
	.loc 1 695 28
	ld	a3,120(a5)
	.loc 1 695 40
	lwu	a4,-36(s0)
	mv	a5,a4
	slli	a5,a5,1
	add	a5,a5,a4
	slli	a5,a5,2
	add	a5,a3,a5
	.loc 1 695 63
	lbu	a5,6(a5)
	.loc 1 686 7
	mv	a1,a5
	.loc 1 696 20
	ld	a5,-48(s0)
	ld	a5,32(a5)
	.loc 1 696 28
	ld	a3,120(a5)
	.loc 1 696 40
	lwu	a4,-36(s0)
	mv	a5,a4
	slli	a5,a5,1
	add	a5,a5,a4
	slli	a5,a5,2
	add	a5,a3,a5
	.loc 1 696 63
	lbu	a5,7(a5)
	.loc 1 686 7
	sd	a5,8(sp)
	sd	a1,0(sp)
	mv	a7,a6
	mv	a6,a0
	lla	a5,.LC12
	mv	a4,a2
	li	a3,35
	li	a2,0
	li	a1,-1
	li	a0,-1
	call	ShellPrintHiiEx@plt
	.loc 1 699 7
	la	a5,gShellNetwork1HiiHandle
	ld	a2,0(a5)
	.loc 1 706 20
	ld	a5,-48(s0)
	ld	a5,32(a5)
	.loc 1 706 28
	ld	a3,120(a5)
	.loc 1 706 40
	lwu	a4,-36(s0)
	mv	a5,a4
	slli	a5,a5,1
	add	a5,a5,a4
	slli	a5,a5,2
	add	a5,a3,a5
	.loc 1 706 67
	lbu	a5,8(a5)
	.loc 1 699 7
	mv	a0,a5
	.loc 1 707 20
	ld	a5,-48(s0)
	ld	a5,32(a5)
	.loc 1 707 28
	ld	a3,120(a5)
	.loc 1 707 40
	lwu	a4,-36(s0)
	mv	a5,a4
	slli	a5,a5,1
	add	a5,a5,a4
	slli	a5,a5,2
	add	a5,a3,a5
	.loc 1 707 67
	lbu	a5,9(a5)
	.loc 1 699 7
	mv	a6,a5
	.loc 1 708 20
	ld	a5,-48(s0)
	ld	a5,32(a5)
	.loc 1 708 28
	ld	a3,120(a5)
	.loc 1 708 40
	lwu	a4,-36(s0)
	mv	a5,a4
	slli	a5,a5,1
	add	a5,a5,a4
	slli	a5,a5,2
	add	a5,a3,a5
	.loc 1 708 67
	lbu	a5,10(a5)
	.loc 1 699 7
	mv	a1,a5
	.loc 1 709 20
	ld	a5,-48(s0)
	ld	a5,32(a5)
	.loc 1 709 28
	ld	a3,120(a5)
	.loc 1 709 40
	lwu	a4,-36(s0)
	mv	a5,a4
	slli	a5,a5,1
	add	a5,a5,a4
	slli	a5,a5,2
	add	a5,a3,a5
	.loc 1 709 67
	lbu	a5,11(a5)
	.loc 1 699 7
	sd	a5,8(sp)
	sd	a1,0(sp)
	mv	a7,a6
	mv	a6,a0
	lla	a5,.LC13
	mv	a4,a2
	li	a3,35
	li	a2,0
	li	a1,-1
	li	a0,-1
	call	ShellPrintHiiEx@plt
	.loc 1 670 64 discriminator 3
	lw	a5,-36(s0)
	addiw	a5,a5,1
	sw	a5,-36(s0)
.L68:
	.loc 1 670 33 discriminator 1
	ld	a5,-48(s0)
	ld	a5,32(a5)
	.loc 1 670 41 discriminator 1
	lw	a5,112(a5)
	.loc 1 670 27 discriminator 1
	lw	a4,-36(s0)
	sext.w	a4,a4
	bltu	a4,a5,.L69
	.loc 1 716 5
	la	a5,gShellNetwork1HiiHandle
	ld	a5,0(a5)
	mv	a4,a5
	li	a3,49
	li	a2,0
	li	a1,-1
	li	a0,-1
	call	ShellPrintHiiEx@plt
	.loc 1 718 16
	sw	zero,-36(s0)
	.loc 1 718 5
	j	.L70
.L71:
	.loc 1 719 7
	la	a5,gShellNetwork1HiiHandle
	ld	a3,0(a5)
	.loc 1 725 41
	ld	a4,-48(s0)
	lwu	a5,-36(s0)
	addi	a5,a5,12
	slli	a5,a5,2
	add	a5,a4,a5
	lbu	a5,0(a5)
	.loc 1 719 7
	mv	a2,a5
	.loc 1 726 41
	ld	a4,-48(s0)
	lwu	a5,-36(s0)
	slli	a5,a5,2
	add	a5,a4,a5
	lbu	a5,49(a5)
	.loc 1 719 7
	mv	a1,a5
	.loc 1 727 41
	ld	a4,-48(s0)
	lwu	a5,-36(s0)
	slli	a5,a5,2
	add	a5,a4,a5
	lbu	a5,50(a5)
	.loc 1 719 7
	mv	a0,a5
	.loc 1 728 41
	ld	a4,-48(s0)
	lwu	a5,-36(s0)
	slli	a5,a5,2
	add	a5,a4,a5
	lbu	a5,51(a5)
	.loc 1 719 7
	sd	a5,0(sp)
	mv	a7,a0
	mv	a6,a1
	mv	a5,a2
	mv	a4,a3
	li	a3,37
	li	a2,0
	li	a1,-1
	li	a0,-1
	call	ShellPrintHiiEx@plt
	.loc 1 731 7
	la	a5,gShellNetwork1HiiHandle
	ld	a5,0(a5)
	mv	a4,a5
	li	a3,36
	li	a2,0
	li	a1,-1
	li	a0,-1
	call	ShellPrintHiiEx@plt
	.loc 1 718 48 discriminator 3
	lw	a5,-36(s0)
	addiw	a5,a5,1
	sw	a5,-36(s0)
.L70:
	.loc 1 718 33 discriminator 1
	ld	a5,-48(s0)
	lw	a5,44(a5)
	.loc 1 718 27 discriminator 1
	lw	a4,-36(s0)
	sext.w	a4,a4
	bltu	a4,a5,.L71
	.loc 1 562 90 discriminator 2
	ld	a5,-32(s0)
	sd	a5,-24(s0)
	.loc 1 562 103 discriminator 2
	ld	a5,-24(s0)
	ld	a5,0(a5)
	sd	a5,-32(s0)
.L59:
	.loc 1 562 71 discriminator 1
	ld	a4,-24(s0)
	ld	a5,-72(s0)
	bne	a4,a5,.L72
	.loc 1 735 3
	la	a5,gShellNetwork1HiiHandle
	ld	a5,0(a5)
	mv	a4,a5
	li	a3,38
	li	a2,0
	li	a1,-1
	li	a0,-1
	call	ShellPrintHiiEx@plt
	.loc 1 737 10
	li	a5,0
	.loc 1 738 1
	mv	a0,a5
	ld	ra,88(sp)
	.cfi_restore 1
	ld	s0,80(sp)
	.cfi_restore 8
	.cfi_def_cfa 2, 96
	addi	sp,sp,96
	.cfi_def_cfa_offset 0
	jr	ra
	.cfi_endproc
.LFE6:
	.size	IfConfigShowInterfaceInfo, .-IfConfigShowInterfaceInfo
	.section	.rodata
	.align	3
.LC14:
	.string	"i"
	.string	"f"
	.string	"c"
	.string	"o"
	.string	"n"
	.string	"f"
	.string	"i"
	.string	"g"
	.zero	2
	.section	.text.IfConfigClearInterfaceInfo,"ax",@progbits
	.align	1
	.globl	IfConfigClearInterfaceInfo
	.type	IfConfigClearInterfaceInfo, @function
IfConfigClearInterfaceInfo:
.LFB7:
	.loc 1 755 1
	.cfi_startproc
	addi	sp,sp,-80
	.cfi_def_cfa_offset 80
	sd	ra,72(sp)
	sd	s0,64(sp)
	.cfi_offset 1, -8
	.cfi_offset 8, -16
	addi	s0,sp,80
	.cfi_def_cfa 8, 0
	sd	a0,-72(s0)
	sd	a1,-80(s0)
	.loc 1 763 10
	sd	zero,-48(s0)
	.loc 1 764 15
	sw	zero,-20(s0)
	.loc 1 766 7
	ld	a0,-72(s0)
	call	IsListEmpty@plt
	mv	a5,a0
	.loc 1 766 6 discriminator 1
	beq	a5,zero,.L75
	.loc 1 767 5
	la	a5,gShellNetwork1HiiHandle
	ld	a5,0(a5)
	mv	a4,a5
	li	a3,26
	li	a2,0
	li	a1,-1
	li	a0,-1
	call	ShellPrintHiiEx@plt
.L75:
	.loc 1 775 13
	ld	a5,-72(s0)
	ld	a5,0(a5)
	sd	a5,-32(s0)
	.loc 1 775 43
	ld	a5,-32(s0)
	ld	a5,0(a5)
	sd	a5,-40(s0)
	.loc 1 775 3
	j	.L76
.L80:
	.loc 1 776 10
	ld	a5,-32(s0)
	addi	a5,a5,-8
	sd	a5,-56(s0)
	.loc 1 778 8
	ld	a5,-80(s0)
	beq	a5,zero,.L77
	.loc 1 778 58 discriminator 1
	ld	a5,-56(s0)
	ld	a5,32(a5)
	.loc 1 778 38 discriminator 1
	mv	a1,a5
	ld	a0,-80(s0)
	call	StrCmp@plt
	mv	a5,a0
	.loc 1 778 34 discriminator 2
	bne	a5,zero,.L77
	.loc 1 779 14
	sw	zero,-60(s0)
	.loc 1 781 20
	ld	a5,-56(s0)
	ld	a5,24(a5)
	.loc 1 781 27
	ld	a5,0(a5)
	.loc 1 781 16
	ld	a4,-56(s0)
	ld	a4,24(a4)
	addi	a3,s0,-60
	li	a2,4
	li	a1,1
	mv	a0,a4
	jalr	a5
.LVL7:
	sd	a0,-48(s0)
	.loc 1 787 38
	ld	a5,-48(s0)
	.loc 1 787 10
	bge	a5,zero,.L77
	.loc 1 788 9
	la	a5,gShellNetwork1HiiHandle
	ld	a4,0(a5)
	lla	a5,.LC14
	li	a3,5
	li	a2,0
	li	a1,-1
	li	a0,-1
	call	ShellPrintHiiEx@plt
	.loc 1 789 21
	li	a5,15
	sw	a5,-20(s0)
	.loc 1 790 9
	j	.L78
.L77:
	.loc 1 794 12
	li	a5,1
	sw	a5,-60(s0)
	.loc 1 796 18
	ld	a5,-56(s0)
	ld	a5,24(a5)
	.loc 1 796 25
	ld	a5,0(a5)
	.loc 1 796 14
	ld	a4,-56(s0)
	ld	a4,24(a4)
	addi	a3,s0,-60
	li	a2,4
	li	a1,1
	mv	a0,a4
	jalr	a5
.LVL8:
	sd	a0,-48(s0)
	.loc 1 802 36
	ld	a5,-48(s0)
	.loc 1 802 8
	bge	a5,zero,.L79
	.loc 1 803 7
	la	a5,gShellNetwork1HiiHandle
	ld	a4,0(a5)
	lla	a5,.LC14
	li	a3,5
	li	a2,0
	li	a1,-1
	li	a0,-1
	call	ShellPrintHiiEx@plt
	.loc 1 804 19
	li	a5,15
	sw	a5,-20(s0)
	.loc 1 805 7
	j	.L78
.L79:
	.loc 1 775 90 discriminator 2
	ld	a5,-40(s0)
	sd	a5,-32(s0)
	.loc 1 775 103 discriminator 2
	ld	a5,-32(s0)
	ld	a5,0(a5)
	sd	a5,-40(s0)
.L76:
	.loc 1 775 71 discriminator 1
	ld	a4,-32(s0)
	ld	a5,-72(s0)
	bne	a4,a5,.L80
.L78:
	.loc 1 809 10
	lw	a5,-20(s0)
	.loc 1 810 1
	mv	a0,a5
	ld	ra,72(sp)
	.cfi_restore 1
	ld	s0,64(sp)
	.cfi_restore 8
	.cfi_def_cfa 2, 80
	addi	sp,sp,80
	.cfi_def_cfa_offset 0
	jr	ra
	.cfi_endproc
.LFE7:
	.size	IfConfigClearInterfaceInfo, .-IfConfigClearInterfaceInfo
	.section	.text.IfConfigSetInterfaceInfo,"ax",@progbits
	.align	1
	.globl	IfConfigSetInterfaceInfo
	.type	IfConfigSetInterfaceInfo, @function
IfConfigSetInterfaceInfo:
.LFB8:
	.loc 1 827 1
	.cfi_startproc
	addi	sp,sp,-160
	.cfi_def_cfa_offset 160
	sd	ra,152(sp)
	sd	s0,144(sp)
	.cfi_offset 1, -8
	.cfi_offset 8, -16
	addi	s0,sp,160
	.cfi_def_cfa 8, 0
	sd	a0,-152(s0)
	sd	a1,-160(s0)
	.loc 1 848 7
	sd	zero,-40(s0)
	.loc 1 850 7
	ld	a0,-152(s0)
	call	IsListEmpty@plt
	mv	a5,a0
	.loc 1 850 6 discriminator 1
	beq	a5,zero,.L83
	.loc 1 851 5
	la	a5,gShellNetwork1HiiHandle
	ld	a5,0(a5)
	mv	a4,a5
	li	a3,26
	li	a2,0
	li	a1,-1
	li	a0,-1
	call	ShellPrintHiiEx@plt
	.loc 1 852 12
	li	a5,2
	j	.L122
.L83:
	.loc 1 858 64
	ld	a5,-152(s0)
	ld	a5,0(a5)
	.loc 1 858 8
	addi	a5,a5,-8
	sd	a5,-64(s0)
	.loc 1 859 10
	sd	zero,-24(s0)
	.loc 1 860 15
	sw	zero,-28(s0)
	.loc 1 865 15
	li	a2,1
	li	a1,0
	li	a0,0
	call	IfConfigRetriveCheckListByName
	mv	a5,a0
	sw	a5,-68(s0)
	.loc 1 874 15
	la	a5,gBS
	ld	a5,0(a5)
	ld	a5,80(a5)
	.loc 1 874 12
	addi	a4,s0,-88
	li	a3,0
	li	a2,0
	li	a1,8
	li	a0,-2147483648
	jalr	a5
.LVL9:
	sd	a0,-24(s0)
	.loc 1 881 34
	ld	a5,-24(s0)
	.loc 1 881 6
	bge	a5,zero,.L85
	.loc 1 882 5
	la	a5,gShellNetwork1HiiHandle
	ld	a4,0(a5)
	lla	a5,.LC14
	li	a3,5
	li	a2,0
	li	a1,-1
	li	a0,-1
	call	ShellPrintHiiEx@plt
	.loc 1 883 17
	li	a5,15
	sw	a5,-28(s0)
	.loc 1 884 5
	j	.L86
.L85:
	.loc 1 887 15
	la	a5,gBS
	ld	a5,0(a5)
	ld	a5,80(a5)
	.loc 1 887 12
	addi	a4,s0,-96
	addi	a3,s0,-97
	lla	a2,IfConfigManualAddressNotify
	li	a1,16
	li	a0,512
	jalr	a5
.LVL10:
	sd	a0,-24(s0)
	.loc 1 894 34
	ld	a5,-24(s0)
	.loc 1 894 6
	bge	a5,zero,.L88
	.loc 1 895 5
	la	a5,gShellNetwork1HiiHandle
	ld	a4,0(a5)
	lla	a5,.LC14
	li	a3,5
	li	a2,0
	li	a1,-1
	li	a0,-1
	call	ShellPrintHiiEx@plt
	.loc 1 896 17
	li	a5,15
	sw	a5,-28(s0)
	.loc 1 897 5
	j	.L86
.L120:
	.loc 1 907 17
	ld	a5,-160(s0)
	ld	a5,8(a5)
	li	a2,0
	mv	a1,a5
	lla	a0,mSetCheckList
	call	IfConfigRetriveCheckListByName
	mv	a5,a0
	sw	a5,-68(s0)
	.loc 1 913 8
	lw	a5,-68(s0)
	sext.w	a5,a5
	beq	a5,zero,.L89
	.loc 1 914 7
	lw	a5,-68(s0)
	sext.w	a4,a5
	li	a5,3
	beq	a4,a5,.L90
	lw	a5,-68(s0)
	sext.w	a4,a5
	li	a5,3
	bgt	a4,a5,.L123
	lw	a5,-68(s0)
	sext.w	a4,a5
	li	a5,1
	beq	a4,a5,.L92
	lw	a5,-68(s0)
	sext.w	a4,a5
	li	a5,2
	beq	a4,a5,.L93
	.loc 1 940 11
	j	.L123
.L92:
	.loc 1 916 11
	la	a5,gShellNetwork1HiiHandle
	ld	a4,0(a5)
	ld	a5,-160(s0)
	ld	a5,8(a5)
	li	a3,29
	li	a2,0
	li	a1,-1
	li	a0,-1
	call	ShellPrintHiiEx@plt
	.loc 1 917 11
	j	.L94
.L93:
	.loc 1 920 11
	la	a5,gShellNetwork1HiiHandle
	ld	a4,0(a5)
	ld	a5,-160(s0)
	ld	a5,8(a5)
	li	a3,30
	li	a2,0
	li	a1,-1
	li	a0,-1
	call	ShellPrintHiiEx@plt
	.loc 1 921 11
	j	.L94
.L90:
	.loc 1 927 22
	lla	a5,PermanentString
	sd	a5,-136(s0)
	.loc 1 928 36
	ld	a5,-160(s0)
	addi	a5,a5,8
	.loc 1 928 15
	addi	a4,s0,-136
	mv	a1,a4
	mv	a0,a5
	call	StringNoCaseCompare@plt
	mv	a5,a0
	.loc 1 928 14 discriminator 1
	bne	a5,zero,.L95
	.loc 1 929 13
	la	a5,gShellNetwork1HiiHandle
	ld	a4,0(a5)
	lla	a5,PermanentString
	li	a3,22
	li	a2,0
	li	a1,-1
	li	a0,-1
	call	ShellPrintHiiEx@plt
	.loc 1 930 13
	j	.L86
.L95:
	.loc 1 936 11
	la	a5,gShellNetwork1HiiHandle
	ld	a4,0(a5)
	ld	a5,-160(s0)
	ld	a5,8(a5)
	li	a3,31
	li	a2,0
	li	a1,-1
	li	a0,-1
	call	ShellPrintHiiEx@plt
	.loc 1 937 11
	j	.L94
.L123:
	.loc 1 940 11
	nop
.L94:
	.loc 1 943 14
	ld	a5,-160(s0)
	ld	a5,0(a5)
	sd	a5,-160(s0)
	.loc 1 944 7
	j	.L88
.L89:
	.loc 1 950 23
	ld	a5,-160(s0)
	ld	a5,8(a5)
	.loc 1 950 9
	lla	a1,.LC6
	mv	a0,a5
	call	StrCmp@plt
	mv	a5,a0
	.loc 1 950 8 discriminator 1
	bne	a5,zero,.L97
	.loc 1 954 14
	li	a5,1
	sw	a5,-104(s0)
	.loc 1 955 20
	ld	a5,-64(s0)
	ld	a5,24(a5)
	.loc 1 955 27
	ld	a5,0(a5)
	.loc 1 955 16
	ld	a4,-64(s0)
	ld	a4,24(a4)
	addi	a3,s0,-104
	li	a2,4
	li	a1,1
	mv	a0,a4
	jalr	a5
.LVL11:
	sd	a0,-24(s0)
	.loc 1 961 38
	ld	a5,-24(s0)
	.loc 1 961 10
	bge	a5,zero,.L98
	.loc 1 962 9
	la	a5,gShellNetwork1HiiHandle
	ld	a4,0(a5)
	lla	a5,.LC14
	li	a3,5
	li	a2,0
	li	a1,-1
	li	a0,-1
	call	ShellPrintHiiEx@plt
	.loc 1 963 21
	li	a5,15
	sw	a5,-28(s0)
	.loc 1 964 9
	j	.L86
.L98:
	.loc 1 967 14
	ld	a5,-160(s0)
	ld	a5,0(a5)
	sd	a5,-160(s0)
	j	.L88
.L97:
	.loc 1 968 30
	ld	a5,-160(s0)
	ld	a5,8(a5)
	.loc 1 968 16
	lla	a1,.LC5
	mv	a0,a5
	call	StrCmp@plt
	mv	a5,a0
	.loc 1 968 15 discriminator 1
	bne	a5,zero,.L99
	.loc 1 969 14
	ld	a5,-160(s0)
	ld	a5,0(a5)
	sd	a5,-160(s0)
	.loc 1 970 10
	ld	a5,-160(s0)
	bne	a5,zero,.L100
	.loc 1 971 9
	la	a5,gShellNetwork1HiiHandle
	ld	a5,0(a5)
	mv	a4,a5
	li	a3,25
	li	a2,0
	li	a1,-1
	li	a0,-1
	call	ShellPrintHiiEx@plt
	.loc 1 972 21
	li	a5,2
	sw	a5,-28(s0)
	.loc 1 973 9
	j	.L86
.L100:
	.loc 1 976 7
	addi	a5,s0,-112
	li	a1,8
	mv	a0,a5
	call	ZeroMem@plt
	.loc 1 981 38
	ld	a5,-160(s0)
	ld	a5,8(a5)
	.loc 1 981 16
	addi	a4,s0,-112
	mv	a1,a4
	mv	a0,a5
	call	NetLibStrToIp4@plt
	sd	a0,-24(s0)
	.loc 1 982 38
	ld	a5,-24(s0)
	.loc 1 982 10
	bge	a5,zero,.L101
	.loc 1 983 9
	la	a5,gShellNetwork1HiiHandle
	ld	a4,0(a5)
	ld	a5,-160(s0)
	ld	a5,8(a5)
	li	a3,27
	li	a2,0
	li	a1,-1
	li	a0,-1
	call	ShellPrintHiiEx@plt
	.loc 1 984 21
	li	a5,2
	sw	a5,-28(s0)
	.loc 1 985 9
	j	.L86
.L101:
	.loc 1 991 14
	ld	a5,-160(s0)
	ld	a5,0(a5)
	sd	a5,-160(s0)
	.loc 1 992 10
	ld	a5,-160(s0)
	bne	a5,zero,.L102
	.loc 1 993 9
	la	a5,gShellNetwork1HiiHandle
	ld	a5,0(a5)
	mv	a4,a5
	li	a3,25
	li	a2,0
	li	a1,-1
	li	a0,-1
	call	ShellPrintHiiEx@plt
	.loc 1 994 21
	li	a5,2
	sw	a5,-28(s0)
	.loc 1 995 9
	j	.L86
.L102:
	.loc 1 998 38
	ld	a5,-160(s0)
	ld	a4,8(a5)
	.loc 1 998 16
	addi	a5,s0,-112
	addi	a5,a5,4
	mv	a1,a5
	mv	a0,a4
	call	NetLibStrToIp4@plt
	sd	a0,-24(s0)
	.loc 1 999 38
	ld	a5,-24(s0)
	.loc 1 999 10
	bge	a5,zero,.L103
	.loc 1 1000 9
	la	a5,gShellNetwork1HiiHandle
	ld	a4,0(a5)
	ld	a5,-160(s0)
	ld	a5,8(a5)
	li	a3,27
	li	a2,0
	li	a1,-1
	li	a0,-1
	call	ShellPrintHiiEx@plt
	.loc 1 1001 21
	li	a5,2
	sw	a5,-28(s0)
	.loc 1 1002 9
	j	.L86
.L103:
	.loc 1 1008 14
	ld	a5,-160(s0)
	ld	a5,0(a5)
	sd	a5,-160(s0)
	.loc 1 1009 10
	ld	a5,-160(s0)
	bne	a5,zero,.L104
	.loc 1 1010 9
	la	a5,gShellNetwork1HiiHandle
	ld	a5,0(a5)
	mv	a4,a5
	li	a3,25
	li	a2,0
	li	a1,-1
	li	a0,-1
	call	ShellPrintHiiEx@plt
	.loc 1 1011 21
	li	a5,2
	sw	a5,-28(s0)
	.loc 1 1012 9
	j	.L86
.L104:
	.loc 1 1015 38
	ld	a5,-160(s0)
	ld	a5,8(a5)
	.loc 1 1015 16
	addi	a4,s0,-120
	mv	a1,a4
	mv	a0,a5
	call	NetLibStrToIp4@plt
	sd	a0,-24(s0)
	.loc 1 1016 38
	ld	a5,-24(s0)
	.loc 1 1016 10
	bge	a5,zero,.L105
	.loc 1 1017 9
	la	a5,gShellNetwork1HiiHandle
	ld	a4,0(a5)
	ld	a5,-160(s0)
	ld	a5,8(a5)
	li	a3,27
	li	a2,0
	li	a1,-1
	li	a0,-1
	call	ShellPrintHiiEx@plt
	.loc 1 1018 21
	li	a5,2
	sw	a5,-28(s0)
	.loc 1 1019 9
	j	.L86
.L105:
	.loc 1 1026 7
	addi	a5,s0,-112
	addi	a4,a5,4
	addi	a5,s0,-124
	li	a2,4
	mv	a1,a4
	mv	a0,a5
	call	CopyMem@plt
	.loc 1 1027 7
	addi	a4,s0,-120
	addi	a5,s0,-128
	li	a2,4
	mv	a1,a4
	mv	a0,a5
	call	CopyMem@plt
	.loc 1 1028 20
	lw	a5,-124(s0)
	mv	a0,a5
	call	SwapBytes32@plt
	mv	a5,a0
	.loc 1 1028 18 discriminator 1
	sw	a5,-124(s0)
	.loc 1 1029 21
	lw	a5,-128(s0)
	mv	a0,a5
	call	SwapBytes32@plt
	mv	a5,a0
	.loc 1 1029 19 discriminator 1
	sw	a5,-128(s0)
	.loc 1 1030 23
	lw	a5,-124(s0)
	.loc 1 1030 10
	beq	a5,zero,.L106
	.loc 1 1031 23
	lw	a4,-124(s0)
	.loc 1 1030 29 discriminator 1
	li	a5,-1
	beq	a4,a5,.L106
	.loc 1 1032 12
	lw	a5,-128(s0)
	lw	a4,-124(s0)
	mv	a1,a4
	mv	a0,a5
	call	NetIp4IsUnicast@plt
	mv	a5,a0
	.loc 1 1031 39
	bne	a5,zero,.L106
	.loc 1 1034 9
	la	a5,gShellNetwork1HiiHandle
	ld	a4,0(a5)
	ld	a5,-160(s0)
	ld	a5,8(a5)
	li	a3,28
	li	a2,0
	li	a1,-1
	li	a0,-1
	call	ShellPrintHiiEx@plt
	.loc 1 1035 21
	li	a5,2
	sw	a5,-28(s0)
	.loc 1 1036 9
	j	.L86
.L106:
	.loc 1 1042 14
	sw	zero,-104(s0)
	.loc 1 1043 20
	ld	a5,-64(s0)
	ld	a5,24(a5)
	.loc 1 1043 27
	ld	a5,0(a5)
	.loc 1 1043 16
	ld	a4,-64(s0)
	ld	a4,24(a4)
	addi	a3,s0,-104
	li	a2,4
	li	a1,1
	mv	a0,a4
	jalr	a5
.LVL12:
	sd	a0,-24(s0)
	.loc 1 1049 38
	ld	a5,-24(s0)
	.loc 1 1049 10
	bge	a5,zero,.L107
	.loc 1 1050 9
	la	a5,gShellNetwork1HiiHandle
	ld	a4,0(a5)
	lla	a5,.LC14
	li	a3,5
	li	a2,0
	li	a1,-1
	li	a0,-1
	call	ShellPrintHiiEx@plt
	.loc 1 1051 21
	li	a5,15
	sw	a5,-28(s0)
	.loc 1 1052 9
	j	.L86
.L107:
	.loc 1 1058 19
	sb	zero,-97(s0)
	.loc 1 1060 20
	ld	a5,-64(s0)
	ld	a5,24(a5)
	.loc 1 1060 27
	ld	a5,16(a5)
	.loc 1 1060 16
	ld	a4,-64(s0)
	ld	a4,24(a4)
	ld	a3,-96(s0)
	mv	a2,a3
	li	a1,2
	mv	a0,a4
	jalr	a5
.LVL13:
	sd	a0,-24(s0)
	.loc 1 1065 38
	ld	a5,-24(s0)
	.loc 1 1065 10
	bge	a5,zero,.L108
	.loc 1 1066 9
	la	a5,gShellNetwork1HiiHandle
	ld	a4,0(a5)
	ld	a5,-24(s0)
	li	a3,32
	li	a2,0
	li	a1,-1
	li	a0,-1
	call	ShellPrintHiiEx@plt
	.loc 1 1067 21
	li	a5,15
	sw	a5,-28(s0)
	.loc 1 1068 9
	j	.L86
.L108:
	.loc 1 1071 16
	li	a5,8
	sd	a5,-80(s0)
	.loc 1 1073 20
	ld	a5,-64(s0)
	ld	a5,24(a5)
	.loc 1 1073 27
	ld	a5,0(a5)
	.loc 1 1073 16
	ld	a4,-64(s0)
	ld	a4,24(a4)
	addi	a3,s0,-112
	ld	a2,-80(s0)
	li	a1,2
	mv	a0,a4
	jalr	a5
.LVL14:
	sd	a0,-24(s0)
	.loc 1 1080 10
	ld	a4,-24(s0)
	li	a5,-1
	slli	a5,a5,63
	addi	a5,a5,6
	bne	a4,a5,.L109
	.loc 1 1081 12
	la	a5,gBS
	ld	a5,0(a5)
	ld	a5,88(a5)
	.loc 1 1081 9
	ld	a3,-88(s0)
	li	a4,49999872
	addi	a2,a4,128
	li	a1,2
	mv	a0,a3
	jalr	a5
.LVL15:
	.loc 1 1083 15
	j	.L110
.L111:
	.loc 1 1084 15
	lbu	a5,-97(s0)
	.loc 1 1084 14
	beq	a5,zero,.L110
	.loc 1 1085 20
	sd	zero,-24(s0)
	.loc 1 1086 13
	j	.L109
.L110:
	.loc 1 1083 37
	la	a5,gBS
	ld	a5,0(a5)
	ld	a5,120(a5)
	.loc 1 1083 34
	ld	a4,-88(s0)
	mv	a0,a4
	jalr	a5
.LVL16:
	mv	a5,a0
	.loc 1 1083 65 discriminator 1
	blt	a5,zero,.L111
.L109:
	.loc 1 1091 11
	ld	a5,-64(s0)
	ld	a5,24(a5)
	.loc 1 1091 18
	ld	a5,24(a5)
	.loc 1 1091 7
	ld	a4,-64(s0)
	ld	a4,24(a4)
	ld	a3,-96(s0)
	mv	a2,a3
	li	a1,2
	mv	a0,a4
	jalr	a5
.LVL17:
	.loc 1 1097 38
	ld	a5,-24(s0)
	.loc 1 1097 10
	bge	a5,zero,.L112
	.loc 1 1098 9
	la	a5,gShellNetwork1HiiHandle
	ld	a4,0(a5)
	ld	a5,-24(s0)
	li	a3,32
	li	a2,0
	li	a1,-1
	li	a0,-1
	call	ShellPrintHiiEx@plt
	.loc 1 1099 21
	li	a5,15
	sw	a5,-28(s0)
	.loc 1 1100 9
	j	.L86
.L112:
	.loc 1 1106 16
	li	a5,4
	sd	a5,-80(s0)
	.loc 1 1108 20
	ld	a5,-64(s0)
	ld	a5,24(a5)
	.loc 1 1108 27
	ld	a5,0(a5)
	.loc 1 1108 16
	ld	a4,-64(s0)
	ld	a4,24(a4)
	addi	a3,s0,-120
	ld	a2,-80(s0)
	li	a1,3
	mv	a0,a4
	jalr	a5
.LVL18:
	sd	a0,-24(s0)
	.loc 1 1114 38
	ld	a5,-24(s0)
	.loc 1 1114 10
	bge	a5,zero,.L113
	.loc 1 1115 9
	la	a5,gShellNetwork1HiiHandle
	ld	a4,0(a5)
	ld	a5,-24(s0)
	li	a3,32
	li	a2,0
	li	a1,-1
	li	a0,-1
	call	ShellPrintHiiEx@plt
	.loc 1 1116 21
	li	a5,15
	sw	a5,-28(s0)
	.loc 1 1117 9
	j	.L86
.L113:
	.loc 1 1120 14
	ld	a5,-160(s0)
	ld	a5,0(a5)
	sd	a5,-160(s0)
	j	.L88
.L99:
	.loc 1 1121 30
	ld	a5,-160(s0)
	ld	a5,8(a5)
	.loc 1 1121 16
	lla	a1,.LC7
	mv	a0,a5
	call	StrCmp@plt
	mv	a5,a0
	.loc 1 1121 15 discriminator 1
	bne	a5,zero,.L88
	.loc 1 1125 14
	ld	a5,-160(s0)
	ld	a5,0(a5)
	sd	a5,-160(s0)
	.loc 1 1126 11
	ld	a5,-160(s0)
	sd	a5,-48(s0)
	.loc 1 1127 13
	sd	zero,-56(s0)
	.loc 1 1128 13
	j	.L114
.L115:
	.loc 1 1129 14
	ld	a5,-56(s0)
	addi	a5,a5,1
	sd	a5,-56(s0)
	.loc 1 1130 13
	ld	a5,-48(s0)
	ld	a5,0(a5)
	sd	a5,-48(s0)
.L114:
	.loc 1 1128 18
	ld	a5,-48(s0)
	bne	a5,zero,.L115
	.loc 1 1133 33
	ld	a5,-56(s0)
	slli	a5,a5,2
	.loc 1 1133 13
	mv	a0,a5
	call	AllocatePool@plt
	sd	a0,-40(s0)
	.loc 1 1134 10
	ld	a5,-40(s0)
	bne	a5,zero,.L116
	.loc 1 1135 9
	la	a5,gShellNetwork1HiiHandle
	ld	a4,0(a5)
	lla	a5,.LC14
	li	a3,7
	li	a2,0
	li	a1,-1
	li	a0,-1
	call	ShellPrintHiiEx@plt
	.loc 1 1136 21
	li	a5,9
	sw	a5,-28(s0)
	.loc 1 1137 9
	j	.L86
.L116:
	.loc 1 1140 11
	ld	a5,-160(s0)
	sd	a5,-48(s0)
	.loc 1 1141 13
	sd	zero,-56(s0)
	.loc 1 1142 13
	j	.L117
.L119:
	.loc 1 1143 37
	ld	a5,-48(s0)
	ld	a3,8(a5)
	.loc 1 1143 48
	ld	a5,-56(s0)
	slli	a5,a5,2
	.loc 1 1143 18
	ld	a4,-40(s0)
	add	a5,a4,a5
	mv	a1,a5
	mv	a0,a3
	call	NetLibStrToIp4@plt
	sd	a0,-24(s0)
	.loc 1 1144 40
	ld	a5,-24(s0)
	.loc 1 1144 12
	bge	a5,zero,.L118
	.loc 1 1145 11
	la	a5,gShellNetwork1HiiHandle
	ld	a4,0(a5)
	ld	a5,-48(s0)
	ld	a5,8(a5)
	li	a3,27
	li	a2,0
	li	a1,-1
	li	a0,-1
	call	ShellPrintHiiEx@plt
	.loc 1 1146 23
	li	a5,2
	sw	a5,-28(s0)
	.loc 1 1147 11
	j	.L86
.L118:
	.loc 1 1150 14
	ld	a5,-56(s0)
	addi	a5,a5,1
	sd	a5,-56(s0)
	.loc 1 1151 13
	ld	a5,-48(s0)
	ld	a5,0(a5)
	sd	a5,-48(s0)
.L117:
	.loc 1 1142 18
	ld	a5,-48(s0)
	bne	a5,zero,.L119
	.loc 1 1154 14
	ld	a5,-48(s0)
	sd	a5,-160(s0)
	.loc 1 1159 16
	ld	a5,-56(s0)
	slli	a5,a5,2
	sd	a5,-80(s0)
	.loc 1 1161 20
	ld	a5,-64(s0)
	ld	a5,24(a5)
	.loc 1 1161 27
	ld	a5,0(a5)
	.loc 1 1161 16
	ld	a4,-64(s0)
	ld	a4,24(a4)
	ld	a3,-40(s0)
	ld	a2,-80(s0)
	li	a1,4
	mv	a0,a4
	jalr	a5
.LVL19:
	sd	a0,-24(s0)
	.loc 1 1167 38
	ld	a5,-24(s0)
	.loc 1 1167 10
	bge	a5,zero,.L88
	.loc 1 1168 9
	la	a5,gShellNetwork1HiiHandle
	ld	a4,0(a5)
	lla	a5,.LC14
	li	a3,5
	li	a2,0
	li	a1,-1
	li	a0,-1
	call	ShellPrintHiiEx@plt
	.loc 1 1169 21
	li	a5,15
	sw	a5,-28(s0)
	.loc 1 1170 9
	j	.L86
.L88:
	.loc 1 903 17
	ld	a5,-160(s0)
	bne	a5,zero,.L120
	.loc 1 1175 1
	nop
.L86:
	.loc 1 1176 6
	ld	a5,-40(s0)
	beq	a5,zero,.L121
	.loc 1 1177 5
	ld	a0,-40(s0)
	call	FreePool@plt
.L121:
	.loc 1 1180 10
	lw	a5,-28(s0)
.L122:
	.loc 1 1181 1
	mv	a0,a5
	ld	ra,152(sp)
	.cfi_restore 1
	ld	s0,144(sp)
	.cfi_restore 8
	.cfi_def_cfa 2, 160
	addi	sp,sp,160
	.cfi_def_cfa_offset 0
	jr	ra
	.cfi_endproc
.LFE8:
	.size	IfConfigSetInterfaceInfo, .-IfConfigSetInterfaceInfo
	.section	.text.IfConfig,"ax",@progbits
	.align	1
	.globl	IfConfig
	.type	IfConfig, @function
IfConfig:
.LFB9:
	.loc 1 1196 1
	.cfi_startproc
	addi	sp,sp,-48
	.cfi_def_cfa_offset 48
	sd	ra,40(sp)
	sd	s0,32(sp)
	.cfi_offset 1, -8
	.cfi_offset 8, -16
	addi	s0,sp,48
	.cfi_def_cfa 8, 0
	sd	a0,-40(s0)
	.loc 1 1200 15
	sw	zero,-20(s0)
	.loc 1 1205 12
	ld	a5,-40(s0)
	ld	a5,24(a5)
	ld	a4,-40(s0)
	mv	a1,a4
	mv	a0,a5
	call	IfConfigGetInterfaceInfo
	sd	a0,-32(s0)
	.loc 1 1209 34
	ld	a5,-32(s0)
	.loc 1 1209 6
	bge	a5,zero,.L125
	.loc 1 1210 17
	li	a5,14
	sw	a5,-20(s0)
	.loc 1 1211 5
	j	.L126
.L125:
	.loc 1 1214 18
	ld	a5,-40(s0)
	lw	a5,16(a5)
	.loc 1 1214 3
	li	a4,3
	beq	a5,a4,.L127
	li	a4,3
	bgtu	a5,a4,.L128
	li	a4,1
	beq	a5,a4,.L129
	li	a4,2
	beq	a5,a4,.L130
	j	.L128
.L129:
	.loc 1 1216 21
	ld	a5,-40(s0)
	mv	a0,a5
	call	IfConfigShowInterfaceInfo
	mv	a5,a0
	sw	a5,-20(s0)
	.loc 1 1217 7
	j	.L126
.L127:
	.loc 1 1220 21
	ld	a4,-40(s0)
	ld	a5,-40(s0)
	ld	a5,24(a5)
	mv	a1,a5
	mv	a0,a4
	call	IfConfigClearInterfaceInfo
	mv	a5,a0
	sw	a5,-20(s0)
	.loc 1 1221 7
	j	.L126
.L130:
	.loc 1 1224 21
	ld	a4,-40(s0)
	ld	a5,-40(s0)
	ld	a5,32(a5)
	mv	a1,a5
	mv	a0,a4
	call	IfConfigSetInterfaceInfo
	mv	a5,a0
	sw	a5,-20(s0)
	.loc 1 1225 7
	j	.L126
.L128:
	.loc 1 1228 19
	li	a5,3
	sw	a5,-20(s0)
.L126:
	.loc 1 1232 10
	lw	a5,-20(s0)
	.loc 1 1233 1
	mv	a0,a5
	ld	ra,40(sp)
	.cfi_restore 1
	ld	s0,32(sp)
	.cfi_restore 8
	.cfi_def_cfa 2, 48
	addi	sp,sp,48
	.cfi_def_cfa_offset 0
	jr	ra
	.cfi_endproc
.LFE9:
	.size	IfConfig, .-IfConfig
	.section	.text.IfConfigCleanup,"ax",@progbits
	.align	1
	.globl	IfConfigCleanup
	.type	IfConfigCleanup, @function
IfConfigCleanup:
.LFB10:
	.loc 1 1245 1
	.cfi_startproc
	addi	sp,sp,-64
	.cfi_def_cfa_offset 64
	sd	ra,56(sp)
	sd	s0,48(sp)
	.cfi_offset 1, -8
	.cfi_offset 8, -16
	addi	s0,sp,64
	.cfi_def_cfa 8, 0
	sd	a0,-56(s0)
	.loc 1 1255 14
	ld	a5,-56(s0)
	ld	a5,32(a5)
	.loc 1 1255 6
	beq	a5,zero,.L133
	.loc 1 1256 5
	ld	a5,-56(s0)
	ld	a5,32(a5)
	mv	a0,a5
	call	FreeArgList
.L133:
	.loc 1 1259 14
	ld	a5,-56(s0)
	ld	a5,24(a5)
	.loc 1 1259 6
	beq	a5,zero,.L134
	.loc 1 1260 22
	ld	a5,-56(s0)
	ld	a5,24(a5)
	.loc 1 1260 5
	mv	a0,a5
	call	FreePool@plt
.L134:
	.loc 1 1266 13
	ld	a5,-56(s0)
	ld	a5,0(a5)
	sd	a5,-24(s0)
	.loc 1 1266 58
	ld	a5,-24(s0)
	ld	a5,0(a5)
	sd	a5,-32(s0)
	.loc 1 1266 3
	j	.L135
.L137:
	.loc 1 1267 10
	ld	a5,-24(s0)
	addi	a5,a5,-8
	sd	a5,-40(s0)
	.loc 1 1269 22
	ld	a5,-40(s0)
	addi	a5,a5,8
	.loc 1 1269 5
	mv	a0,a5
	call	RemoveEntryList@plt
	.loc 1 1271 13
	ld	a5,-40(s0)
	ld	a5,32(a5)
	.loc 1 1271 8
	beq	a5,zero,.L136
	.loc 1 1272 21
	ld	a5,-40(s0)
	ld	a5,32(a5)
	.loc 1 1272 7
	mv	a0,a5
	call	FreePool@plt
.L136:
	.loc 1 1275 5
	ld	a0,-40(s0)
	call	FreePool@plt
	.loc 1 1266 115 discriminator 2
	ld	a5,-32(s0)
	sd	a5,-24(s0)
	.loc 1 1266 138 discriminator 2
	ld	a5,-24(s0)
	ld	a5,0(a5)
	sd	a5,-32(s0)
.L135:
	.loc 1 1266 90 discriminator 1
	ld	a5,-56(s0)
	.loc 1 1266 86 discriminator 1
	ld	a4,-24(s0)
	bne	a4,a5,.L137
	.loc 1 1278 3
	ld	a0,-56(s0)
	call	FreePool@plt
	.loc 1 1279 1
	nop
	ld	ra,56(sp)
	.cfi_restore 1
	ld	s0,48(sp)
	.cfi_restore 8
	.cfi_def_cfa 2, 64
	addi	sp,sp,64
	.cfi_def_cfa_offset 0
	jr	ra
	.cfi_endproc
.LFE10:
	.size	IfConfigCleanup, .-IfConfigCleanup
	.section	.text.ShellCommandRunIfconfig,"ax",@progbits
	.align	1
	.globl	ShellCommandRunIfconfig
	.type	ShellCommandRunIfconfig, @function
ShellCommandRunIfconfig:
.LFB11:
	.loc 1 1297 1
	.cfi_startproc
	addi	sp,sp,-96
	.cfi_def_cfa_offset 96
	sd	ra,88(sp)
	sd	s0,80(sp)
	.cfi_offset 1, -8
	.cfi_offset 8, -16
	addi	s0,sp,96
	.cfi_def_cfa 8, 0
	sd	a0,-88(s0)
	sd	a1,-96(s0)
	.loc 1 1307 10
	li	a5,-1
	slli	a5,a5,63
	addi	a5,a5,2
	sd	a5,-40(s0)
	.loc 1 1308 11
	sd	zero,-24(s0)
	.loc 1 1309 15
	sw	zero,-28(s0)
	.loc 1 1311 12
	addi	a2,s0,-80
	addi	a5,s0,-72
	li	a4,0
	li	a3,1
	mv	a1,a5
	lla	a0,mIfConfigCheckList
	call	ShellCommandLineParseEx@plt
	sd	a0,-40(s0)
	.loc 1 1312 34
	ld	a5,-40(s0)
	.loc 1 1312 6
	bge	a5,zero,.L139
	.loc 1 1313 8
	ld	a4,-40(s0)
	li	a5,-1
	slli	a5,a5,63
	addi	a5,a5,10
	bne	a4,a5,.L159
	.loc 1 1313 86 discriminator 1
	ld	a5,-80(s0)
	.loc 1 1313 69 discriminator 1
	beq	a5,zero,.L159
	.loc 1 1314 7
	la	a5,gShellNetwork1HiiHandle
	ld	a4,0(a5)
	ld	a5,-80(s0)
	mv	a6,a5
	lla	a5,.LC14
	li	a3,4
	li	a2,0
	li	a1,-1
	li	a0,-1
	call	ShellPrintHiiEx@plt
	.loc 1 1315 7
	ld	a5,-80(s0)
	mv	a0,a5
	call	FreePool@plt
	.loc 1 1316 19
	li	a5,2
	sw	a5,-28(s0)
	.loc 1 1321 5
	j	.L159
.L139:
	.loc 1 1327 7
	ld	a5,-72(s0)
	lla	a1,.LC3
	mv	a0,a5
	call	ShellCommandLineGetFlag@plt
	mv	a5,a0
	.loc 1 1327 6 discriminator 1
	beq	a5,zero,.L142
	.loc 1 1328 5
	la	a5,gShellNetwork1HiiHandle
	ld	a4,0(a5)
	lla	a5,.LC3
	li	a3,22
	li	a2,0
	li	a1,-1
	li	a0,-1
	call	ShellPrintHiiEx@plt
	.loc 1 1329 17
	li	a5,2
	sw	a5,-28(s0)
	.loc 1 1330 5
	j	.L141
.L142:
	.loc 1 1336 8
	ld	a5,-72(s0)
	lla	a1,.LC2
	mv	a0,a5
	call	ShellCommandLineGetFlag@plt
	mv	a5,a0
	.loc 1 1336 6 discriminator 1
	bne	a5,zero,.L143
	.loc 1 1336 58 discriminator 2
	ld	a5,-72(s0)
	lla	a1,.LC4
	mv	a0,a5
	call	ShellCommandLineGetFlag@plt
	mv	a5,a0
	.loc 1 1336 54 discriminator 3
	bne	a5,zero,.L143
	.loc 1 1337 8
	ld	a5,-72(s0)
	lla	a1,.LC1
	mv	a0,a5
	call	ShellCommandLineGetFlag@plt
	mv	a5,a0
	.loc 1 1336 104 discriminator 4
	bne	a5,zero,.L143
	.loc 1 1339 5
	la	a5,gShellNetwork1HiiHandle
	ld	a5,0(a5)
	mv	a4,a5
	li	a3,23
	li	a2,0
	li	a1,-1
	li	a0,-1
	call	ShellPrintHiiEx@plt
	.loc 1 1340 17
	li	a5,2
	sw	a5,-28(s0)
	.loc 1 1341 5
	j	.L141
.L143:
	.loc 1 1347 9
	ld	a5,-72(s0)
	lla	a1,.LC2
	mv	a0,a5
	call	ShellCommandLineGetFlag@plt
	mv	a5,a0
	.loc 1 1347 6 discriminator 1
	beq	a5,zero,.L144
	.loc 1 1347 60 discriminator 2
	ld	a5,-72(s0)
	lla	a1,.LC4
	mv	a0,a5
	call	ShellCommandLineGetFlag@plt
	mv	a5,a0
	.loc 1 1347 56 discriminator 4
	bne	a5,zero,.L145
.L144:
	.loc 1 1348 9
	ld	a5,-72(s0)
	lla	a1,.LC2
	mv	a0,a5
	call	ShellCommandLineGetFlag@plt
	mv	a5,a0
	.loc 1 1347 108 discriminator 5
	beq	a5,zero,.L146
	.loc 1 1348 60
	ld	a5,-72(s0)
	lla	a1,.LC1
	mv	a0,a5
	call	ShellCommandLineGetFlag@plt
	mv	a5,a0
	.loc 1 1348 56 discriminator 2
	bne	a5,zero,.L145
.L146:
	.loc 1 1349 9
	ld	a5,-72(s0)
	lla	a1,.LC4
	mv	a0,a5
	call	ShellCommandLineGetFlag@plt
	mv	a5,a0
	.loc 1 1348 108 discriminator 3
	beq	a5,zero,.L147
	.loc 1 1349 60
	ld	a5,-72(s0)
	lla	a1,.LC1
	mv	a0,a5
	call	ShellCommandLineGetFlag@plt
	mv	a5,a0
	.loc 1 1349 56 discriminator 2
	beq	a5,zero,.L147
.L145:
	.loc 1 1351 5
	la	a5,gShellNetwork1HiiHandle
	ld	a4,0(a5)
	lla	a5,.LC14
	li	a3,6
	li	a2,0
	li	a1,-1
	li	a0,-1
	call	ShellPrintHiiEx@plt
	.loc 1 1352 17
	li	a5,2
	sw	a5,-28(s0)
	.loc 1 1353 5
	j	.L141
.L147:
	.loc 1 1356 13
	li	a0,40
	call	AllocateZeroPool@plt
	sd	a0,-24(s0)
	.loc 1 1357 6
	ld	a5,-24(s0)
	bne	a5,zero,.L148
	.loc 1 1358 17
	li	a5,9
	sw	a5,-28(s0)
	.loc 1 1359 5
	j	.L141
.L148:
	.loc 1 1362 3
	ld	a5,-24(s0)
	mv	a0,a5
	call	InitializeListHead@plt
	.loc 1 1367 7
	ld	a5,-72(s0)
	lla	a1,.LC1
	mv	a0,a5
	call	ShellCommandLineGetFlag@plt
	mv	a5,a0
	.loc 1 1367 6 discriminator 1
	beq	a5,zero,.L149
	.loc 1 1368 21
	ld	a5,-24(s0)
	li	a4,1
	sw	a4,16(a5)
	.loc 1 1369 16
	ld	a5,-72(s0)
	lla	a1,.LC1
	mv	a0,a5
	call	ShellCommandLineGetValue@plt
	sd	a0,-48(s0)
	.loc 1 1370 8
	ld	a5,-48(s0)
	beq	a5,zero,.L149
	.loc 1 1371 13
	ld	a0,-48(s0)
	call	StrSize@plt
	mv	a5,a0
	.loc 1 1371 13 is_stmt 0 discriminator 1
	ld	a1,-48(s0)
	mv	a0,a5
	call	AllocateCopyPool@plt
	sd	a0,-56(s0)
	.loc 1 1372 10 is_stmt 1
	ld	a5,-56(s0)
	bne	a5,zero,.L150
	.loc 1 1373 9
	la	a5,gShellNetwork1HiiHandle
	ld	a4,0(a5)
	lla	a5,.LC14
	li	a3,7
	li	a2,0
	li	a1,-1
	li	a0,-1
	call	ShellPrintHiiEx@plt
	.loc 1 1374 21
	li	a5,9
	sw	a5,-28(s0)
	.loc 1 1375 9
	j	.L141
.L150:
	.loc 1 1378 23
	ld	a5,-24(s0)
	ld	a4,-56(s0)
	sd	a4,24(a5)
.L149:
	.loc 1 1385 7
	ld	a5,-72(s0)
	lla	a1,.LC2
	mv	a0,a5
	call	ShellCommandLineGetFlag@plt
	mv	a5,a0
	.loc 1 1385 6 discriminator 1
	beq	a5,zero,.L151
	.loc 1 1386 21
	ld	a5,-24(s0)
	li	a4,3
	sw	a4,16(a5)
	.loc 1 1387 16
	ld	a5,-72(s0)
	lla	a1,.LC2
	mv	a0,a5
	call	ShellCommandLineGetValue@plt
	sd	a0,-48(s0)
	.loc 1 1388 8
	ld	a5,-48(s0)
	beq	a5,zero,.L151
	.loc 1 1389 13
	ld	a0,-48(s0)
	call	StrSize@plt
	mv	a5,a0
	.loc 1 1389 13 is_stmt 0 discriminator 1
	ld	a1,-48(s0)
	mv	a0,a5
	call	AllocateCopyPool@plt
	sd	a0,-56(s0)
	.loc 1 1390 10 is_stmt 1
	ld	a5,-56(s0)
	bne	a5,zero,.L152
	.loc 1 1391 9
	la	a5,gShellNetwork1HiiHandle
	ld	a4,0(a5)
	lla	a5,.LC14
	li	a3,7
	li	a2,0
	li	a1,-1
	li	a0,-1
	call	ShellPrintHiiEx@plt
	.loc 1 1392 21
	li	a5,9
	sw	a5,-28(s0)
	.loc 1 1393 9
	j	.L141
.L152:
	.loc 1 1396 23
	ld	a5,-24(s0)
	ld	a4,-56(s0)
	sd	a4,24(a5)
.L151:
	.loc 1 1403 7
	ld	a5,-72(s0)
	lla	a1,.LC4
	mv	a0,a5
	call	ShellCommandLineGetFlag@plt
	mv	a5,a0
	.loc 1 1403 6 discriminator 1
	beq	a5,zero,.L153
	.loc 1 1404 16
	ld	a5,-72(s0)
	lla	a1,.LC4
	mv	a0,a5
	call	ShellCommandLineGetValue@plt
	sd	a0,-48(s0)
	.loc 1 1405 8
	ld	a5,-48(s0)
	bne	a5,zero,.L154
	.loc 1 1406 7
	la	a5,gShellNetwork1HiiHandle
	ld	a5,0(a5)
	mv	a4,a5
	li	a3,24
	li	a2,0
	li	a1,-1
	li	a0,-1
	call	ShellPrintHiiEx@plt
	.loc 1 1407 19
	li	a5,2
	sw	a5,-28(s0)
	.loc 1 1408 7
	j	.L141
.L154:
	.loc 1 1414 15
	li	a1,32
	ld	a0,-48(s0)
	call	SplitStrToList
	sd	a0,-64(s0)
	.loc 1 1415 8
	ld	a5,-64(s0)
	bne	a5,zero,.L155
	.loc 1 1416 7
	la	a5,gShellNetwork1HiiHandle
	ld	a4,0(a5)
	lla	a5,.LC14
	li	a3,7
	li	a2,0
	li	a1,-1
	li	a0,-1
	call	ShellPrintHiiEx@plt
	.loc 1 1417 19
	li	a5,9
	sw	a5,-28(s0)
	.loc 1 1418 7
	j	.L141
.L155:
	.loc 1 1421 21
	ld	a5,-24(s0)
	li	a4,2
	sw	a4,16(a5)
	.loc 1 1422 30
	ld	a5,-64(s0)
	ld	a4,8(a5)
	.loc 1 1422 21
	ld	a5,-24(s0)
	sd	a4,24(a5)
	.loc 1 1424 30
	ld	a5,-64(s0)
	ld	a4,0(a5)
	.loc 1 1424 21
	ld	a5,-24(s0)
	sd	a4,32(a5)
	.loc 1 1426 17
	ld	a5,-24(s0)
	ld	a5,24(a5)
	.loc 1 1426 8
	beq	a5,zero,.L156
	.loc 1 1426 54 discriminator 1
	ld	a5,-24(s0)
	ld	a5,32(a5)
	.loc 1 1426 43 discriminator 1
	bne	a5,zero,.L153
.L156:
	.loc 1 1427 7
	la	a5,gShellNetwork1HiiHandle
	ld	a5,0(a5)
	mv	a4,a5
	li	a3,25
	li	a2,0
	li	a1,-1
	li	a0,-1
	call	ShellPrintHiiEx@plt
	.loc 1 1428 19
	li	a5,2
	sw	a5,-28(s0)
	.loc 1 1429 7
	j	.L141
.L153:
	.loc 1 1436 17
	ld	a0,-24(s0)
	call	IfConfig
	mv	a5,a0
	sw	a5,-28(s0)
	j	.L141
.L159:
	.loc 1 1321 5
	nop
.L141:
	.loc 1 1440 3
	ld	a5,-72(s0)
	mv	a0,a5
	call	ShellCommandLineFreeVarList@plt
	.loc 1 1442 6
	ld	a5,-24(s0)
	beq	a5,zero,.L157
	.loc 1 1443 5
	ld	a0,-24(s0)
	call	IfConfigCleanup
.L157:
	.loc 1 1446 10
	lw	a5,-28(s0)
	.loc 1 1447 1
	mv	a0,a5
	ld	ra,88(sp)
	.cfi_restore 1
	ld	s0,80(sp)
	.cfi_restore 8
	.cfi_def_cfa 2, 96
	addi	sp,sp,96
	.cfi_def_cfa_offset 0
	jr	ra
	.cfi_endproc
.LFE11:
	.size	ShellCommandRunIfconfig, .-ShellCommandRunIfconfig
	.section	.bss.CheckDuplicate.1,"aw",@nobits
	.align	2
	.type	CheckDuplicate.1, @object
	.size	CheckDuplicate.1, 4
CheckDuplicate.1:
	.zero	4
	.section	.bss.CheckConflict.0,"aw",@nobits
	.align	2
	.type	CheckConflict.0, @object
	.size	CheckConflict.0, 4
CheckConflict.0:
	.zero	4
	.text
.Letext0:
	.file 2 "/home/kapoagaeming/spacemit-image-builder/components/edk2/MdePkg/Include/RiscV64/ProcessorBind.h"
	.file 3 "/home/kapoagaeming/spacemit-image-builder/components/edk2/MdePkg/Include/Base.h"
	.file 4 "/home/kapoagaeming/spacemit-image-builder/components/edk2/MdePkg/Include/Uefi/UefiBaseType.h"
	.file 5 "/home/kapoagaeming/spacemit-image-builder/components/edk2/MdePkg/Include/Uefi/UefiMultiPhase.h"
	.file 6 "/home/kapoagaeming/spacemit-image-builder/components/edk2/MdePkg/Include/Protocol/DevicePath.h"
	.file 7 "/home/kapoagaeming/spacemit-image-builder/components/edk2/MdePkg/Include/Protocol/SimpleTextIn.h"
	.file 8 "/home/kapoagaeming/spacemit-image-builder/components/edk2/MdePkg/Include/Protocol/SimpleTextOut.h"
	.file 9 "/home/kapoagaeming/spacemit-image-builder/components/edk2/MdePkg/Include/Uefi/UefiSpec.h"
	.file 10 "/home/kapoagaeming/spacemit-image-builder/components/edk2/MdePkg/Include/Uefi/UefiInternalFormRepresentation.h"
	.file 11 "/home/kapoagaeming/spacemit-image-builder/components/Build/Milk-V-Jupiter/RELEASE_GCC5/RISCV64/ShellPkg/Library/UefiShellNetwork1CommandsLib/UefiShellNetwork1CommandsLib/DEBUG/AutoGen.h"
	.file 12 "/home/kapoagaeming/spacemit-image-builder/components/edk2/MdePkg/Include/Protocol/Ip4.h"
	.file 13 "/home/kapoagaeming/spacemit-image-builder/components/edk2/MdePkg/Include/Protocol/Ip4Config2.h"
	.file 14 "/home/kapoagaeming/spacemit-image-builder/components/edk2/MdePkg/Include/Protocol/Shell.h"
	.file 15 "/home/kapoagaeming/spacemit-image-builder/components/edk2/ShellPkg/Include/Library/ShellLib.h"
	.file 16 "/home/kapoagaeming/spacemit-image-builder/components/edk2/NetworkPkg/Include/Library/NetLib.h"
	.file 17 "/home/kapoagaeming/spacemit-image-builder/components/edk2/ShellPkg/Library/UefiShellNetwork1CommandsLib/UefiShellNetwork1CommandsLib.h"
	.file 18 "/home/kapoagaeming/spacemit-image-builder/components/edk2/MdePkg/Include/Library/BaseLib.h"
	.file 19 "/home/kapoagaeming/spacemit-image-builder/components/edk2/MdePkg/Include/Library/MemoryAllocationLib.h"
	.file 20 "/home/kapoagaeming/spacemit-image-builder/components/edk2/MdeModulePkg/Include/Library/SortLib.h"
	.file 21 "/home/kapoagaeming/spacemit-image-builder/components/edk2/MdePkg/Include/Library/BaseMemoryLib.h"
	.file 22 "/home/kapoagaeming/spacemit-image-builder/components/edk2/MdePkg/Include/Library/UefiBootServicesTableLib.h"
	.section	.note.GNU-stack,"",@progbits
