	.file	"UefiShellNetwork1CommandsLib.c"
	.option pic
	.option norelax
	.attribute arch, "rv64i2p1_m2p0_a2p1_f2p2_d2p2_c2p0_zicsr2p0_zifencei2p0_zmmul1p0_zaamo1p0_zalrsc1p0_zca1p0_zcd1p0"
	.attribute unaligned_access, 0
	.attribute stack_align, 16
	.text
.Ltext0:
	.cfi_sections	.debug_frame
	.file 0 "/home/kapoagaeming/spacemit-image-builder/components/Build/Milk-V-Jupiter/RELEASE_GCC5/RISCV64/ShellPkg/Library/UefiShellNetwork1CommandsLib/UefiShellNetwork1CommandsLib" "/home/kapoagaeming/spacemit-image-builder/components/edk2/ShellPkg/Library/UefiShellNetwork1CommandsLib/UefiShellNetwork1CommandsLib.c"
	.globl	gShellNetwork1FileName
	.section	.rodata.gShellNetwork1FileName,"a"
	.align	3
	.type	gShellNetwork1FileName, @object
	.size	gShellNetwork1FileName, 28
gShellNetwork1FileName:
	.string	"S"
	.string	"h"
	.string	"e"
	.string	"l"
	.string	"l"
	.string	"C"
	.string	"o"
	.string	"m"
	.string	"m"
	.string	"a"
	.string	"n"
	.string	"d"
	.string	"s"
	.zero	2
	.globl	gShellNetwork1HiiHandle
	.section	.bss.gShellNetwork1HiiHandle,"aw",@nobits
	.align	3
	.type	gShellNetwork1HiiHandle, @object
	.size	gShellNetwork1HiiHandle, 8
gShellNetwork1HiiHandle:
	.zero	8
	.section	.text.ShellCommandGetManFileNameNetwork1,"ax",@progbits
	.align	1
	.globl	ShellCommandGetManFileNameNetwork1
	.type	ShellCommandGetManFileNameNetwork1, @function
ShellCommandGetManFileNameNetwork1:
.LFB0:
	.file 1 "/home/kapoagaeming/spacemit-image-builder/components/edk2/ShellPkg/Library/UefiShellNetwork1CommandsLib/UefiShellNetwork1CommandsLib.c"
	.loc 1 23 1
	.cfi_startproc
	addi	sp,sp,-16
	.cfi_def_cfa_offset 16
	sd	ra,8(sp)
	sd	s0,0(sp)
	.cfi_offset 1, -8
	.cfi_offset 8, -16
	addi	s0,sp,16
	.cfi_def_cfa 8, 0
	.loc 1 24 10
	lla	a5,gShellNetwork1FileName
	.loc 1 25 1
	mv	a0,a5
	ld	ra,8(sp)
	.cfi_restore 1
	ld	s0,0(sp)
	.cfi_restore 8
	.cfi_def_cfa 2, 16
	addi	sp,sp,16
	.cfi_def_cfa_offset 0
	jr	ra
	.cfi_endproc
.LFE0:
	.size	ShellCommandGetManFileNameNetwork1, .-ShellCommandGetManFileNameNetwork1
	.section	.rodata
	.align	3
.LC0:
	.string	"n"
	.string	"e"
	.string	"t"
	.string	"w"
	.string	"o"
	.string	"r"
	.string	"k"
	.string	"1"
	.zero	2
	.align	3
.LC1:
	.string	"p"
	.string	"i"
	.string	"n"
	.string	"g"
	.zero	2
	.align	3
.LC2:
	.string	"i"
	.string	"f"
	.string	"c"
	.string	"o"
	.string	"n"
	.string	"f"
	.string	"i"
	.string	"g"
	.zero	2
	.section	.text.ShellNetwork1CommandsLibConstructor,"ax",@progbits
	.align	1
	.globl	ShellNetwork1CommandsLibConstructor
	.type	ShellNetwork1CommandsLibConstructor, @function
ShellNetwork1CommandsLibConstructor:
.LFB1:
	.loc 1 44 1
	.cfi_startproc
	addi	sp,sp,-32
	.cfi_def_cfa_offset 32
	sd	ra,24(sp)
	sd	s0,16(sp)
	.cfi_offset 1, -8
	.cfi_offset 8, -16
	addi	s0,sp,32
	.cfi_def_cfa 8, 0
	sd	a0,-24(s0)
	sd	a1,-32(s0)
	.loc 1 45 27
	lla	a5,gShellNetwork1HiiHandle
	sd	zero,0(a5)
	.loc 1 50 47
	la	a5,_gPcd_FixedAtBuild_PcdShellProfileMask
	lbu	a5,0(a5)
	sext.w	a5,a5
	andi	a5,a5,8
	sext.w	a5,a5
	.loc 1 50 6
	bne	a5,zero,.L4
	.loc 1 51 12
	li	a5,0
	j	.L5
.L4:
	.loc 1 54 29
	la	a5,gImageHandle
	ld	a5,0(a5)
	li	a3,0
	la	a2,UefiShellNetwork1CommandsLibStrings
	mv	a1,a5
	la	a0,gShellNetwork1HiiGuid
	call	HiiAddPackages@plt
	mv	a4,a0
	.loc 1 54 27 discriminator 1
	lla	a5,gShellNetwork1HiiHandle
	sd	a4,0(a5)
	.loc 1 55 31
	lla	a5,gShellNetwork1HiiHandle
	ld	a5,0(a5)
	.loc 1 55 6
	bne	a5,zero,.L6
	.loc 1 56 12
	li	a5,-1
	slli	a5,a5,63
	addi	a5,a5,7
	j	.L5
.L6:
	.loc 1 62 3
	lla	a5,gShellNetwork1HiiHandle
	ld	a5,0(a5)
	li	a7,51
	mv	a6,a5
	li	a5,1
	lla	a4,.LC0
	li	a3,0
	lla	a2,ShellCommandGetManFileNameNetwork1
	la	a1,ShellCommandRunPing
	lla	a0,.LC1
	call	ShellCommandRegisterCommandName@plt
	.loc 1 63 3
	lla	a5,gShellNetwork1HiiHandle
	ld	a5,0(a5)
	li	a7,52
	mv	a6,a5
	li	a5,1
	lla	a4,.LC0
	li	a3,0
	lla	a2,ShellCommandGetManFileNameNetwork1
	la	a1,ShellCommandRunIfconfig
	lla	a0,.LC2
	call	ShellCommandRegisterCommandName@plt
	.loc 1 65 10
	li	a5,0
.L5:
	.loc 1 66 1
	mv	a0,a5
	ld	ra,24(sp)
	.cfi_restore 1
	ld	s0,16(sp)
	.cfi_restore 8
	.cfi_def_cfa 2, 32
	addi	sp,sp,32
	.cfi_def_cfa_offset 0
	jr	ra
	.cfi_endproc
.LFE1:
	.size	ShellNetwork1CommandsLibConstructor, .-ShellNetwork1CommandsLibConstructor
	.section	.text.ShellNetwork1CommandsLibDestructor,"ax",@progbits
	.align	1
	.globl	ShellNetwork1CommandsLibDestructor
	.type	ShellNetwork1CommandsLibDestructor, @function
ShellNetwork1CommandsLibDestructor:
.LFB2:
	.loc 1 80 1
	.cfi_startproc
	addi	sp,sp,-32
	.cfi_def_cfa_offset 32
	sd	ra,24(sp)
	sd	s0,16(sp)
	.cfi_offset 1, -8
	.cfi_offset 8, -16
	addi	s0,sp,32
	.cfi_def_cfa 8, 0
	sd	a0,-24(s0)
	sd	a1,-32(s0)
	.loc 1 81 31
	lla	a5,gShellNetwork1HiiHandle
	ld	a5,0(a5)
	.loc 1 81 6
	beq	a5,zero,.L8
	.loc 1 82 5
	lla	a5,gShellNetwork1HiiHandle
	ld	a5,0(a5)
	mv	a0,a5
	call	HiiRemovePackages@plt
.L8:
	.loc 1 85 10
	li	a5,0
	.loc 1 86 1
	mv	a0,a5
	ld	ra,24(sp)
	.cfi_restore 1
	ld	s0,16(sp)
	.cfi_restore 8
	.cfi_def_cfa 2, 32
	addi	sp,sp,32
	.cfi_def_cfa_offset 0
	jr	ra
	.cfi_endproc
.LFE2:
	.size	ShellNetwork1CommandsLibDestructor, .-ShellNetwork1CommandsLibDestructor
	.text
.Letext0:
	.file 2 "/home/kapoagaeming/spacemit-image-builder/components/edk2/MdePkg/Include/RiscV64/ProcessorBind.h"
	.file 3 "/home/kapoagaeming/spacemit-image-builder/components/edk2/MdePkg/Include/Base.h"
	.file 4 "/home/kapoagaeming/spacemit-image-builder/components/edk2/MdePkg/Include/Uefi/UefiBaseType.h"
	.file 5 "/home/kapoagaeming/spacemit-image-builder/components/edk2/MdePkg/Include/Uefi/UefiMultiPhase.h"
	.file 6 "/home/kapoagaeming/spacemit-image-builder/components/edk2/MdePkg/Include/Protocol/DevicePath.h"
	.file 7 "/home/kapoagaeming/spacemit-image-builder/components/edk2/MdePkg/Include/Protocol/SimpleTextIn.h"
	.file 8 "/home/kapoagaeming/spacemit-image-builder/components/edk2/MdePkg/Include/Protocol/SimpleTextOut.h"
	.file 9 "/home/kapoagaeming/spacemit-image-builder/components/edk2/MdePkg/Include/Uefi/UefiSpec.h"
	.file 10 "/home/kapoagaeming/spacemit-image-builder/components/edk2/MdePkg/Include/Uefi/UefiInternalFormRepresentation.h"
	.file 11 "/home/kapoagaeming/spacemit-image-builder/components/Build/Milk-V-Jupiter/RELEASE_GCC5/RISCV64/ShellPkg/Library/UefiShellNetwork1CommandsLib/UefiShellNetwork1CommandsLib/DEBUG/AutoGen.h"
	.file 12 "/home/kapoagaeming/spacemit-image-builder/components/Build/Milk-V-Jupiter/RELEASE_GCC5/RISCV64/ShellPkg/Library/UefiShellNetwork1CommandsLib/UefiShellNetwork1CommandsLib/DEBUG/UefiShellNetwork1CommandsLibStrDefs.h"
	.file 13 "/home/kapoagaeming/spacemit-image-builder/components/edk2/MdePkg/Include/Protocol/Shell.h"
	.file 14 "/home/kapoagaeming/spacemit-image-builder/components/edk2/MdePkg/Include/Library/UefiBootServicesTableLib.h"
	.file 15 "/home/kapoagaeming/spacemit-image-builder/components/edk2/ShellPkg/Include/Library/ShellCommandLib.h"
	.file 16 "/home/kapoagaeming/spacemit-image-builder/components/edk2/ShellPkg/Library/UefiShellNetwork1CommandsLib/UefiShellNetwork1CommandsLib.h"
	.file 17 "/home/kapoagaeming/spacemit-image-builder/components/edk2/MdeModulePkg/Include/Library/HiiLib.h"
	.section	.note.GNU-stack,"",@progbits
