	.file	"Cp.c"
	.option pic
	.option norelax
	.attribute arch, "rv64i2p1_m2p0_a2p1_f2p2_d2p2_c2p0_zicsr2p0_zifencei2p0_zmmul1p0_zaamo1p0_zalrsc1p0_zca1p0_zcd1p0"
	.attribute unaligned_access, 0
	.attribute stack_align, 16
	.text
.Ltext0:
	.cfi_sections	.debug_frame
	.file 0 "/home/kapoagaeming/spacemit-image-builder/components/Build/Milk-V-Jupiter/RELEASE_GCC5/RISCV64/ShellPkg/Library/UefiShellLevel2CommandsLib/UefiShellLevel2CommandsLib" "/home/kapoagaeming/spacemit-image-builder/components/edk2/ShellPkg/Library/UefiShellLevel2CommandsLib/Cp.c"
	.section	.rodata
	.align	3
.LC0:
	.string	"\\"
	.string	"*"
	.zero	2
	.align	3
.LC1:
	.string	"\\"
	.zero	2
	.align	3
.LC2:
	.string	"c"
	.string	"p"
	.zero	2
	.section	.text.CopySingleFile,"ax",@progbits
	.align	1
	.globl	CopySingleFile
	.type	CopySingleFile, @function
CopySingleFile:
.LFB0:
	.file 1 "/home/kapoagaeming/spacemit-image-builder/components/edk2/ShellPkg/Library/UefiShellLevel2CommandsLib/Cp.c"
	.loc 1 61 1
	.cfi_startproc
	addi	sp,sp,-192
	.cfi_def_cfa_offset 192
	sd	ra,184(sp)
	sd	s0,176(sp)
	.cfi_offset 1, -8
	.cfi_offset 8, -16
	addi	s0,sp,192
	.cfi_def_cfa 8, 0
	sd	a0,-152(s0)
	sd	a1,-160(s0)
	sd	a2,-168(s0)
	mv	a5,a3
	sd	a4,-184(s0)
	sb	a5,-169(s0)
	.loc 1 80 16
	sd	zero,-80(s0)
	.loc 1 81 14
	sd	zero,-88(s0)
	.loc 1 82 14
	ld	a5,-168(s0)
	ld	a5,0(a5)
	.loc 1 82 12
	sd	a5,-64(s0)
	.loc 1 83 8
	sd	zero,-112(s0)
	.loc 1 84 18
	sd	zero,-40(s0)
	.loc 1 85 15
	sw	zero,-28(s0)
	.loc 1 87 12
	la	a5,_gPcd_FixedAtBuild_PcdShellFileOperationSize
	lw	a5,0(a5)
	slli	a5,a5,32
	srli	a5,a5,32
	sd	a5,-72(s0)
	.loc 1 89 7
	ld	a1,-160(s0)
	ld	a0,-152(s0)
	call	StrCmp@plt
	mv	a5,a0
	.loc 1 89 6 discriminator 1
	bne	a5,zero,.L2
	.loc 1 90 12
	li	a5,0
	j	.L30
.L2:
	.loc 1 96 7
	ld	a0,-160(s0)
	call	ShellFileExists@plt
	mv	a5,a0
	.loc 1 96 6 discriminator 1
	bne	a5,zero,.L4
	.loc 1 97 19
	ld	a5,-64(s0)
	.loc 1 97 8
	bne	a5,zero,.L5
	.loc 1 97 36 discriminator 1
	lbu	a5,-169(s0)
	andi	a5,a5,0xff
	bne	a5,zero,.L5
	.loc 1 98 16
	la	a5,gShellLevel2HiiHandle
	ld	a5,0(a5)
	addi	a4,s0,-64
	mv	a3,a4
	mv	a2,a5
	li	a1,30
	li	a0,4
	call	ShellPromptForResponseHii@plt
	sd	a0,-24(s0)
.L5:
	.loc 1 104 8
	lbu	a5,-169(s0)
	andi	a5,a5,0xff
	bne	a5,zero,.L4
	.loc 1 105 20
	ld	a5,-64(s0)
	.loc 1 105 10
	bne	a5,zero,.L6
	.loc 1 106 16
	li	a5,21
	j	.L30
.L6:
	.loc 1 109 16
	ld	a5,-64(s0)
	.loc 1 109 15
	lw	a5,0(a5)
	.loc 1 109 7
	li	a4,5
	beq	a5,a4,.L7
	li	a4,5
	bgtu	a5,a4,.L8
	li	a4,2
	beq	a5,a4,.L9
	li	a4,2
	bgtu	a5,a4,.L8
	beq	a5,zero,.L31
	li	a4,1
	bne	a5,a4,.L8
	.loc 1 114 18
	li	a5,0
	j	.L30
.L9:
	.loc 1 116 17
	ld	a4,-64(s0)
	ld	a5,-168(s0)
	sd	a4,0(a5)
	.loc 1 120 18
	li	a5,21
	j	.L30
.L7:
	.loc 1 122 17
	ld	a4,-64(s0)
	ld	a5,-168(s0)
	sd	a4,0(a5)
	.loc 1 124 11
	j	.L31
.L8:
	.loc 1 126 18
	li	a5,21
	j	.L30
.L31:
	.loc 1 124 11
	nop
.L4:
	.loc 1 131 7
	ld	a0,-152(s0)
	call	ShellIsDirectory@plt
	mv	a5,a0
	.loc 1 131 6 discriminator 1
	bne	a5,zero,.L11
	.loc 1 132 14
	addi	a5,s0,-88
	mv	a1,a5
	ld	a0,-160(s0)
	call	ShellCreateDirectory@plt
	sd	a0,-24(s0)
	.loc 1 133 36
	ld	a5,-24(s0)
	.loc 1 133 8
	bge	a5,zero,.L12
	.loc 1 134 7
	la	a5,gShellLevel2HiiHandle
	ld	a4,0(a5)
	ld	a6,-160(s0)
	ld	a5,-184(s0)
	li	a3,133
	li	a2,0
	li	a1,-1
	li	a0,-1
	call	ShellPrintHiiEx@plt
	.loc 1 135 14
	li	a5,15
	j	.L30
.L12:
	.loc 1 141 14
	sd	zero,-96(s0)
	.loc 1 142 10
	sd	zero,-104(s0)
	.loc 1 143 5
	addi	a4,s0,-104
	addi	a5,s0,-96
	li	a3,0
	ld	a2,-152(s0)
	mv	a1,a4
	mv	a0,a5
	call	StrnCatGrow@plt
	.loc 1 144 5
	addi	a4,s0,-104
	addi	a5,s0,-96
	li	a3,0
	lla	a2,.LC0
	mv	a1,a4
	mv	a0,a5
	call	StrnCatGrow@plt
	.loc 1 145 18
	ld	a5,-96(s0)
	.loc 1 145 8
	beq	a5,zero,.L13
	.loc 1 146 7
	ld	a5,-96(s0)
	addi	a4,s0,-112
	mv	a2,a4
	li	a1,1
	mv	a0,a5
	call	ShellOpenFileMetaArg@plt
	.loc 1 147 7
	ld	a5,-96(s0)
	.loc 1 147 17
	sh	zero,0(a5)
	.loc 1 148 7
	addi	a4,s0,-104
	addi	a5,s0,-96
	li	a3,0
	ld	a2,-160(s0)
	mv	a1,a4
	mv	a0,a5
	call	StrnCatGrow@plt
	.loc 1 149 7
	addi	a4,s0,-104
	addi	a5,s0,-96
	li	a3,0
	lla	a2,.LC1
	mv	a1,a4
	mv	a0,a5
	call	StrnCatGrow@plt
	.loc 1 150 21
	ld	a5,-112(s0)
	ld	a1,-96(s0)
	lbu	a2,-169(s0)
	ld	a4,-168(s0)
	li	a3,1
	mv	a0,a5
	call	ValidateAndCopyFiles
	mv	a5,a0
	sw	a5,-28(s0)
	.loc 1 151 7
	addi	a5,s0,-112
	mv	a0,a5
	call	ShellCloseFileMetaArg@plt
	.loc 1 152 27
	ld	a5,-96(s0)
	.loc 1 152 15
	beq	a5,zero,.L14
	.loc 1 152 46 discriminator 1
	ld	a5,-96(s0)
	mv	a0,a5
	call	FreePool@plt
	.loc 1 152 79 discriminator 2
	sd	zero,-96(s0)
.L14:
	.loc 1 153 12
	sd	zero,-104(s0)
	j	.L13
.L11:
	.loc 1 156 14
	ld	a0,-160(s0)
	call	ShellDeleteFileByName@plt
	sd	a0,-24(s0)
	.loc 1 161 14
	addi	a4,s0,-88
	li	a3,0
	li	a5,-1
	slli	a5,a5,63
	addi	a2,a5,3
	mv	a1,a4
	ld	a0,-160(s0)
	call	ShellOpenFileByName@plt
	sd	a0,-24(s0)
	.loc 1 162 36
	ld	a5,-24(s0)
	.loc 1 162 8
	bge	a5,zero,.L15
	.loc 1 163 7
	la	a5,gShellLevel2HiiHandle
	ld	a4,0(a5)
	ld	a6,-160(s0)
	ld	a5,-184(s0)
	li	a3,132
	li	a2,0
	li	a1,-1
	li	a0,-1
	call	ShellPrintHiiEx@plt
	.loc 1 164 14
	li	a5,15
	j	.L30
.L15:
	.loc 1 170 14
	addi	a5,s0,-80
	li	a3,0
	li	a2,1
	mv	a1,a5
	ld	a0,-152(s0)
	call	ShellOpenFileByName@plt
	sd	a0,-24(s0)
	.loc 1 171 36
	ld	a5,-24(s0)
	.loc 1 171 8
	bge	a5,zero,.L16
	.loc 1 172 7
	la	a5,gShellLevel2HiiHandle
	ld	a4,0(a5)
	ld	a6,-152(s0)
	ld	a5,-184(s0)
	li	a3,134
	li	a2,0
	li	a1,-1
	li	a0,-1
	call	ShellPrintHiiEx@plt
	.loc 1 173 14
	li	a5,15
	j	.L30
.L16:
	.loc 1 179 5
	ld	a5,-80(s0)
	addi	a4,s0,-120
	mv	a1,a4
	mv	a0,a5
	call	ShellGetFileSize@plt
	.loc 1 180 5
	ld	a5,-88(s0)
	addi	a4,s0,-128
	mv	a1,a4
	mv	a0,a5
	call	ShellGetFileSize@plt
	.loc 1 185 22
	ld	a4,-128(s0)
	ld	a5,-120(s0)
	.loc 1 185 8
	bgeu	a4,a5,.L17
	.loc 1 186 22
	ld	a4,-120(s0)
	ld	a5,-128(s0)
	sub	a5,a4,a5
	sd	a5,-120(s0)
	j	.L18
.L17:
	.loc 1 188 22
	sd	zero,-120(s0)
.L18:
	.loc 1 194 20
	ld	a5,-88(s0)
	mv	a0,a5
	call	ConvertShellHandleToEfiFileProtocol@plt
	sd	a0,-48(s0)
	.loc 1 195 20
	sd	zero,-40(s0)
	.loc 1 196 24
	sd	zero,-136(s0)
	.loc 1 197 26
	ld	a5,-48(s0)
	ld	a5,64(a5)
	.loc 1 197 14
	addi	a4,s0,-136
	ld	a3,-40(s0)
	mv	a2,a4
	la	a1,gEfiFileSystemInfoGuid
	ld	a0,-48(s0)
	jalr	a5
.LVL0:
	sd	a0,-24(s0)
	.loc 1 204 8
	ld	a4,-24(s0)
	li	a5,-1
	slli	a5,a5,63
	addi	a5,a5,5
	bne	a4,a5,.L19
	.loc 1 205 24
	ld	a5,-136(s0)
	mv	a0,a5
	call	AllocateZeroPool@plt
	sd	a0,-40(s0)
	.loc 1 206 10
	ld	a5,-40(s0)
	bne	a5,zero,.L20
	.loc 1 207 9
	la	a5,gShellLevel2HiiHandle
	ld	a4,0(a5)
	lla	a5,.LC2
	li	a3,34
	li	a2,0
	li	a1,-1
	li	a0,-1
	call	ShellPrintHiiEx@plt
	.loc 1 208 21
	li	a5,9
	sw	a5,-28(s0)
	.loc 1 209 9
	j	.L13
.L20:
	.loc 1 212 28
	ld	a5,-48(s0)
	ld	a5,64(a5)
	.loc 1 212 16
	addi	a4,s0,-136
	ld	a3,-40(s0)
	mv	a2,a4
	la	a1,gEfiFileSystemInfoGuid
	ld	a0,-48(s0)
	jalr	a5
.LVL1:
	sd	a0,-24(s0)
.L19:
	.loc 1 223 8
	ld	a5,-40(s0)
	beq	a5,zero,.L21
	.loc 1 223 60 discriminator 1
	ld	a5,-40(s0)
	ld	a4,24(a5)
	.loc 1 223 72 discriminator 1
	ld	a5,-120(s0)
	.loc 1 223 42 discriminator 1
	bgeu	a4,a5,.L21
	.loc 1 227 15
	ld	a5,-40(s0)
	beq	a5,zero,.L22
	.loc 1 227 52 discriminator 1
	ld	a0,-40(s0)
	call	FreePool@plt
	.loc 1 227 97 discriminator 2
	sd	zero,-40(s0)
.L22:
	.loc 1 228 7
	la	a5,gShellLevel2HiiHandle
	ld	a4,0(a5)
	ld	a5,-184(s0)
	li	a3,31
	li	a2,0
	li	a1,-1
	li	a0,-1
	call	ShellPrintHiiEx@plt
	.loc 1 229 14
	li	a5,11
	j	.L30
.L21:
	.loc 1 234 16
	ld	a5,-72(s0)
	mv	a0,a5
	call	AllocateZeroPool@plt
	sd	a0,-56(s0)
	.loc 1 235 10
	ld	a5,-56(s0)
	bne	a5,zero,.L24
	.loc 1 236 9
	la	a5,gShellLevel2HiiHandle
	ld	a4,0(a5)
	ld	a5,-184(s0)
	li	a3,34
	li	a2,0
	li	a1,-1
	li	a0,-1
	call	ShellPrintHiiEx@plt
	.loc 1 237 16
	li	a5,9
	j	.L30
.L27:
	.loc 1 241 18
	ld	a5,-80(s0)
	addi	a4,s0,-72
	ld	a2,-56(s0)
	mv	a1,a4
	mv	a0,a5
	call	ShellReadFile@plt
	sd	a0,-24(s0)
	.loc 1 242 13
	ld	a5,-24(s0)
	.loc 1 242 12
	blt	a5,zero,.L25
	.loc 1 243 20
	ld	a5,-88(s0)
	addi	a4,s0,-72
	ld	a2,-56(s0)
	mv	a1,a4
	mv	a0,a5
	call	ShellWriteFile@plt
	sd	a0,-24(s0)
	.loc 1 244 42
	ld	a5,-24(s0)
	.loc 1 244 14
	bge	a5,zero,.L24
	.loc 1 245 25
	ld	a5,-24(s0)
	sw	a5,-28(s0)
	.loc 1 246 13
	la	a5,gShellLevel2HiiHandle
	ld	a4,0(a5)
	ld	a6,-160(s0)
	ld	a5,-184(s0)
	li	a3,33
	li	a2,0
	li	a1,-1
	li	a0,-1
	call	ShellPrintHiiEx@plt
	.loc 1 247 13
	j	.L26
.L25:
	.loc 1 250 23
	ld	a5,-24(s0)
	sw	a5,-28(s0)
	.loc 1 251 11
	la	a5,gShellLevel2HiiHandle
	ld	a4,0(a5)
	ld	a6,-152(s0)
	ld	a5,-184(s0)
	li	a3,32
	li	a2,0
	li	a1,-1
	li	a0,-1
	call	ShellPrintHiiEx@plt
	.loc 1 252 11
	j	.L26
.L24:
	.loc 1 240 23
	la	a5,_gPcd_FixedAtBuild_PcdShellFileOperationSize
	lw	a5,0(a5)
	slli	a4,a5,32
	srli	a4,a4,32
	ld	a5,-72(s0)
	.loc 1 240 71
	bne	a4,a5,.L26
	.loc 1 240 74 discriminator 1
	ld	a5,-24(s0)
	.loc 1 240 71 discriminator 1
	bge	a5,zero,.L27
.L26:
	.loc 1 257 13
	ld	a5,-40(s0)
	beq	a5,zero,.L32
	.loc 1 257 50 discriminator 1
	ld	a0,-40(s0)
	call	FreePool@plt
	.loc 1 257 95 discriminator 2
	sd	zero,-40(s0)
	j	.L13
.L32:
	.loc 1 260 1
	nop
.L13:
	.loc 1 264 18
	ld	a5,-88(s0)
	.loc 1 264 6
	beq	a5,zero,.L28
	.loc 1 265 5
	addi	a5,s0,-88
	mv	a0,a5
	call	ShellCloseFile@plt
	.loc 1 266 16
	sd	zero,-88(s0)
.L28:
	.loc 1 269 20
	ld	a5,-80(s0)
	.loc 1 269 6
	beq	a5,zero,.L29
	.loc 1 270 5
	addi	a5,s0,-80
	mv	a0,a5
	call	ShellCloseFile@plt
	.loc 1 271 18
	sd	zero,-80(s0)
.L29:
	.loc 1 277 10
	lw	a5,-28(s0)
.L30:
	.loc 1 278 1
	mv	a0,a5
	ld	ra,184(sp)
	.cfi_restore 1
	ld	s0,176(sp)
	.cfi_restore 8
	.cfi_def_cfa 2, 192
	addi	sp,sp,192
	.cfi_def_cfa_offset 0
	jr	ra
	.cfi_endproc
.LFE0:
	.size	CopySingleFile, .-CopySingleFile
	.section	.rodata
	.align	3
.LC3:
	.string	"."
	.zero	2
	.align	3
.LC4:
	.string	"."
	.string	"."
	.zero	2
	.align	3
.LC5:
	.string	":"
	.zero	2
	.align	3
.LC6:
	.string	"%"
	.string	"s"
	.zero	2
	.section	.text.ValidateAndCopyFiles,"ax",@progbits
	.align	1
	.globl	ValidateAndCopyFiles
	.type	ValidateAndCopyFiles, @function
ValidateAndCopyFiles:
.LFB1:
	.loc 1 308 1
	.cfi_startproc
	addi	sp,sp,-160
	.cfi_def_cfa_offset 160
	sd	ra,152(sp)
	sd	s0,144(sp)
	sd	s1,136(sp)
	sd	s2,128(sp)
	.cfi_offset 1, -8
	.cfi_offset 8, -16
	.cfi_offset 9, -24
	.cfi_offset 18, -32
	addi	s0,sp,160
	.cfi_def_cfa 8, 0
	sd	a0,-136(s0)
	sd	a1,-144(s0)
	mv	a5,a2
	sd	a4,-160(s0)
	sb	a5,-145(s0)
	mv	a5,a3
	sb	a5,-146(s0)
	.loc 1 321 6
	ld	a5,-160(s0)
	bne	a5,zero,.L34
	.loc 1 322 14
	sd	zero,-112(s0)
	j	.L35
.L34:
	.loc 1 324 16
	ld	a5,-160(s0)
	ld	a5,0(a5)
	.loc 1 324 14
	sd	a5,-112(s0)
.L35:
	.loc 1 327 12
	sd	zero,-104(s0)
	.loc 1 328 15
	sw	zero,-44(s0)
	.loc 1 329 12
	sd	zero,-56(s0)
	.loc 1 330 9
	li	a0,0
	call	ShellGetCurrentDir@plt
	sd	a0,-64(s0)
	.loc 1 331 20
	sd	zero,-120(s0)
	.loc 1 336 12
	addi	a5,s0,-120
	mv	a1,a5
	ld	a0,-144(s0)
	call	ShellLevel2StripQuotes@plt
	sd	a0,-72(s0)
	.loc 1 337 34
	ld	a5,-72(s0)
	.loc 1 337 6
	bge	a5,zero,.L36
	.loc 1 338 8
	ld	a4,-72(s0)
	li	a5,-1
	slli	a5,a5,63
	addi	a5,a5,9
	bne	a4,a5,.L37
	.loc 1 339 14
	li	a5,9
	j	.L94
.L37:
	.loc 1 341 14
	li	a5,2
	j	.L94
.L36:
	.loc 1 350 25
	ld	a5,-120(s0)
	mv	a0,a5
	call	ShellIsDirectory@plt
	mv	a5,a0
	.loc 1 350 6 discriminator 1
	bge	a5,zero,.L39
	.loc 1 350 107 discriminator 2
	ld	a5,-136(s0)
	ld	a4,0(a5)
	.loc 1 350 137 discriminator 2
	ld	a5,-136(s0)
	ld	a5,8(a5)
	.loc 1 350 89 discriminator 2
	beq	a4,a5,.L39
	.loc 1 354 5
	la	a5,gShellLevel2HiiHandle
	ld	a4,0(a5)
	ld	a5,-120(s0)
	mv	a6,a5
	lla	a5,.LC2
	li	a3,23
	li	a2,0
	li	a1,-1
	li	a0,-1
	call	ShellPrintHiiEx@plt
	.loc 1 355 5
	ld	a5,-120(s0)
	mv	a0,a5
	call	FreePool@plt
	.loc 1 356 12
	li	a5,2
	j	.L94
.L39:
	.loc 1 359 38
	ld	a5,-136(s0)
	mv	a0,a5
	call	GetFirstNode@plt
	sd	a0,-40(s0)
	.loc 1 359 3
	j	.L40
.L48:
	.loc 1 367 22
	ld	a5,-40(s0)
	ld	a5,32(a5)
	.loc 1 367 10
	lla	a1,.LC3
	mv	a0,a5
	call	StrCmp@plt
	mv	a5,a0
	.loc 1 367 8 discriminator 1
	beq	a5,zero,.L97
	.loc 1 367 62 discriminator 3
	ld	a5,-40(s0)
	ld	a5,32(a5)
	.loc 1 367 50 discriminator 3
	lla	a1,.LC4
	mv	a0,a5
	call	StrCmp@plt
	mv	a5,a0
	.loc 1 367 46 discriminator 4
	beq	a5,zero,.L97
	.loc 1 371 15
	ld	a5,-120(s0)
	mv	a0,a5
	call	StrSize@plt
	sd	a0,-96(s0)
	.loc 1 372 29
	ld	a5,-40(s0)
	ld	a5,24(a5)
	.loc 1 372 16
	mv	a0,a5
	call	StrSize@plt
	mv	a4,a0
	.loc 1 372 13 discriminator 1
	ld	a5,-96(s0)
	add	a5,a5,a4
	sd	a5,-96(s0)
	.loc 1 373 42
	ld	a5,-64(s0)
	beq	a5,zero,.L44
	.loc 1 373 45 discriminator 1
	ld	a0,-64(s0)
	call	StrSize@plt
	mv	a5,a0
	.loc 1 373 42 discriminator 3
	addi	a5,a5,2
	j	.L45
.L44:
	.loc 1 373 42 is_stmt 0 discriminator 2
	li	a5,0
.L45:
	.loc 1 373 13 is_stmt 1 discriminator 5
	ld	a4,-96(s0)
	add	a5,a4,a5
	sd	a5,-96(s0)
	.loc 1 374 8
	ld	a4,-96(s0)
	ld	a5,-56(s0)
	bleu	a4,a5,.L46
	.loc 1 375 16
	ld	a5,-96(s0)
	sd	a5,-56(s0)
.L46:
	.loc 1 381 8
	lbu	a5,-146(s0)
	andi	a5,a5,0xff
	bne	a5,zero,.L47
	.loc 1 381 68 discriminator 1
	ld	a5,-40(s0)
	ld	a5,24(a5)
	.loc 1 381 46 discriminator 1
	mv	a0,a5
	call	ShellIsDirectory@plt
	mv	a5,a0
	.loc 1 381 24 discriminator 2
	blt	a5,zero,.L47
	.loc 1 382 7
	la	a5,gShellLevel2HiiHandle
	ld	a4,0(a5)
	lla	a5,.LC2
	li	a3,127
	li	a2,0
	li	a1,-1
	li	a0,-1
	call	ShellPrintHiiEx@plt
	.loc 1 383 7
	ld	a5,-120(s0)
	mv	a0,a5
	call	FreePool@plt
	.loc 1 384 14
	li	a5,2
	j	.L94
.L47:
	.loc 1 390 50
	ld	a5,-40(s0)
	ld	a5,24(a5)
	.loc 1 390 28
	mv	a0,a5
	call	ShellIsDirectory@plt
	mv	a5,a0
	.loc 1 390 8 discriminator 1
	blt	a5,zero,.L43
	.loc 1 390 111 discriminator 2
	ld	a5,-120(s0)
	mv	a0,a5
	call	ShellIsDirectory@plt
	mv	a5,a0
	.loc 1 390 90 discriminator 3
	bge	a5,zero,.L43
	.loc 1 394 7
	la	a5,gShellLevel2HiiHandle
	ld	a4,0(a5)
	ld	a5,-120(s0)
	mv	a6,a5
	lla	a5,.LC2
	li	a3,23
	li	a2,0
	li	a1,-1
	li	a0,-1
	call	ShellPrintHiiEx@plt
	.loc 1 395 7
	ld	a5,-120(s0)
	mv	a0,a5
	call	FreePool@plt
	.loc 1 396 14
	li	a5,2
	j	.L94
.L97:
	.loc 1 368 7
	nop
.L43:
	.loc 1 361 40
	ld	a5,-136(s0)
	ld	a4,-40(s0)
	mv	a1,a4
	mv	a0,a5
	call	GetNextNode@plt
	sd	a0,-40(s0)
.L40:
	.loc 1 360 11
	ld	a5,-136(s0)
	ld	a4,-40(s0)
	mv	a1,a4
	mv	a0,a5
	call	IsNull@plt
	mv	a5,a0
	.loc 1 360 10 discriminator 1
	beq	a5,zero,.L48
	.loc 1 400 15
	la	a5,gShellLevel2HiiHandle
	ld	a5,0(a5)
	li	a2,0
	li	a1,126
	mv	a0,a5
	call	HiiGetString@plt
	sd	a0,-80(s0)
	.loc 1 401 17
	la	a5,gShellLevel2HiiHandle
	ld	a5,0(a5)
	li	a2,0
	li	a1,22
	mv	a0,a5
	call	HiiGetString@plt
	sd	a0,-88(s0)
	.loc 1 402 14
	ld	a0,-56(s0)
	call	AllocateZeroPool@plt
	mv	a5,a0
	.loc 1 402 12 discriminator 1
	sd	a5,-104(s0)
	.loc 1 404 17
	ld	a5,-104(s0)
	.loc 1 404 6
	beq	a5,zero,.L49
	.loc 1 404 34 discriminator 1
	ld	a5,-80(s0)
	beq	a5,zero,.L49
	.loc 1 404 65 discriminator 2
	ld	a5,-88(s0)
	bne	a5,zero,.L50
.L49:
	.loc 1 405 25
	ld	a5,-104(s0)
	.loc 1 405 13
	beq	a5,zero,.L51
	.loc 1 405 44 discriminator 1
	ld	a5,-104(s0)
	mv	a0,a5
	call	FreePool@plt
	.loc 1 405 77 discriminator 2
	sd	zero,-104(s0)
.L51:
	.loc 1 406 13
	ld	a5,-80(s0)
	beq	a5,zero,.L52
	.loc 1 406 45 discriminator 1
	ld	a0,-80(s0)
	call	FreePool@plt
	.loc 1 406 80 discriminator 2
	sd	zero,-80(s0)
.L52:
	.loc 1 407 13
	ld	a5,-88(s0)
	beq	a5,zero,.L53
	.loc 1 407 47 discriminator 1
	ld	a0,-88(s0)
	call	FreePool@plt
	.loc 1 407 86 discriminator 2
	sd	zero,-88(s0)
.L53:
	.loc 1 408 5
	ld	a5,-120(s0)
	mv	a0,a5
	call	FreePool@plt
	.loc 1 409 12
	li	a5,9
	j	.L94
.L50:
	.loc 1 415 38
	ld	a5,-136(s0)
	mv	a0,a5
	call	GetFirstNode@plt
	sd	a0,-40(s0)
	.loc 1 415 3
	j	.L54
.L87:
	.loc 1 420 9
	call	ShellGetExecutionBreakFlag@plt
	mv	a5,a0
	.loc 1 420 8 discriminator 1
	bne	a5,zero,.L98
	.loc 1 430 22
	ld	a5,-40(s0)
	ld	a5,32(a5)
	.loc 1 430 10
	lla	a1,.LC3
	mv	a0,a5
	call	StrCmp@plt
	mv	a5,a0
	.loc 1 430 8 discriminator 1
	beq	a5,zero,.L99
	.loc 1 430 62 discriminator 3
	ld	a5,-40(s0)
	ld	a5,32(a5)
	.loc 1 430 50 discriminator 3
	lla	a1,.LC4
	mv	a0,a5
	call	StrCmp@plt
	mv	a5,a0
	.loc 1 430 46 discriminator 4
	beq	a5,zero,.L99
	.loc 1 434 25
	ld	a5,-136(s0)
	ld	a4,0(a5)
	.loc 1 434 55
	ld	a5,-136(s0)
	ld	a5,8(a5)
	.loc 1 434 8
	bne	a4,a5,.L60
	.loc 1 435 29
	ld	a5,-120(s0)
	mv	a0,a5
	call	ShellIsDirectory@plt
	mv	a5,a0
	.loc 1 435 8 discriminator 1
	bge	a5,zero,.L60
	.loc 1 438 11
	ld	a5,-120(s0)
	lla	a1,.LC5
	mv	a0,a5
	call	StrStr@plt
	mv	a5,a0
	.loc 1 438 10 discriminator 1
	bne	a5,zero,.L61
	.loc 1 442 12
	ld	a5,-64(s0)
	beq	a5,zero,.L62
	.loc 1 443 11
	ld	a4,-104(s0)
	.loc 1 443 39
	ld	a5,-56(s0)
	srli	a5,a5,1
	.loc 1 443 11
	ld	a2,-64(s0)
	mv	a1,a5
	mv	a0,a4
	call	StrCpyS@plt
	.loc 1 444 11
	ld	a4,-104(s0)
	.loc 1 444 39
	ld	a5,-56(s0)
	srli	a5,a5,1
	.loc 1 444 11
	lla	a2,.LC1
	mv	a1,a5
	mv	a0,a4
	call	StrCatS@plt
	.loc 1 451 22
	ld	s1,-104(s0)
	.loc 1 451 23
	ld	a5,-104(s0)
	mv	a0,a5
	call	StrLen@plt
	mv	a5,a0
	.loc 1 451 22 discriminator 1
	slli	a5,a5,1
	addi	a5,a5,-2
	add	a5,s1,a5
	lhu	a5,0(a5)
	.loc 1 451 12 discriminator 1
	sext.w	a4,a5
	li	a5,92
	beq	a4,a5,.L64
	j	.L95
.L62:
	.loc 1 446 11
	la	a5,gShellLevel2HiiHandle
	ld	a4,0(a5)
	ld	a5,-120(s0)
	mv	a6,a5
	lla	a5,.LC2
	li	a3,21
	li	a2,0
	li	a1,-1
	li	a0,-1
	call	ShellPrintHiiEx@plt
	.loc 1 447 11
	ld	a5,-120(s0)
	mv	a0,a5
	call	FreePool@plt
	.loc 1 448 18
	li	a5,2
	j	.L94
.L95:
	.loc 1 451 74 discriminator 2
	ld	a5,-120(s0)
	lhu	a5,0(a5)
	.loc 1 451 54 discriminator 2
	sext.w	a4,a5
	li	a5,92
	beq	a4,a5,.L64
	.loc 1 452 11
	ld	a4,-104(s0)
	.loc 1 452 39
	ld	a5,-56(s0)
	srli	a5,a5,1
	.loc 1 452 11
	lla	a2,.LC1
	mv	a1,a5
	mv	a0,a4
	call	StrCatS@plt
	j	.L65
.L64:
	.loc 1 453 29
	ld	s1,-104(s0)
	.loc 1 453 30
	ld	a5,-104(s0)
	mv	a0,a5
	call	StrLen@plt
	mv	a5,a0
	.loc 1 453 29 discriminator 1
	slli	a5,a5,1
	addi	a5,a5,-2
	add	a5,s1,a5
	lhu	a5,0(a5)
	.loc 1 453 19 discriminator 1
	sext.w	a4,a5
	li	a5,92
	bne	a4,a5,.L65
	.loc 1 453 81 discriminator 2
	ld	a5,-120(s0)
	lhu	a5,0(a5)
	.loc 1 453 61 discriminator 2
	sext.w	a4,a5
	li	a5,92
	bne	a4,a5,.L65
	.loc 1 454 31
	ld	s1,-104(s0)
	.loc 1 454 32
	ld	a5,-104(s0)
	mv	a0,a5
	call	StrLen@plt
	mv	a5,a0
	.loc 1 454 31 discriminator 1
	slli	a5,a5,1
	addi	a5,a5,-2
	add	a5,s1,a5
	.loc 1 454 53 discriminator 1
	sh	zero,0(a5)
.L65:
	.loc 1 457 9
	ld	a4,-104(s0)
	.loc 1 457 36
	ld	a5,-56(s0)
	srli	a5,a5,1
	.loc 1 457 9
	ld	a3,-120(s0)
	mv	a2,a3
	mv	a1,a5
	mv	a0,a4
	call	StrCatS@plt
	.loc 1 438 10
	j	.L67
.L61:
	.loc 1 459 9
	ld	a4,-104(s0)
	.loc 1 459 36
	ld	a5,-56(s0)
	srli	a5,a5,1
	.loc 1 459 9
	ld	a3,-120(s0)
	mv	a2,a3
	mv	a1,a5
	mv	a0,a4
	call	StrCpyS@plt
	.loc 1 438 10
	j	.L67
.L60:
	.loc 1 469 27
	ld	a5,-120(s0)
	lhu	a5,0(a5)
	.loc 1 469 10
	sext.w	a4,a5
	li	a5,92
	bne	a4,a5,.L68
	.loc 1 473 12
	ld	a5,-64(s0)
	beq	a5,zero,.L69
	.loc 1 474 11
	ld	a4,-104(s0)
	.loc 1 474 38
	ld	a5,-56(s0)
	srli	a5,a5,1
	.loc 1 474 11
	ld	a2,-64(s0)
	mv	a1,a5
	mv	a0,a4
	call	StrCpyS@plt
	.loc 1 475 11
	ld	a4,-104(s0)
	.loc 1 475 38
	ld	a5,-56(s0)
	srli	a5,a5,1
	.loc 1 475 11
	lla	a2,.LC1
	mv	a1,a5
	mv	a0,a4
	call	StrCatS@plt
	.loc 1 482 15
	j	.L71
.L69:
	.loc 1 477 11
	la	a5,gShellLevel2HiiHandle
	ld	a4,0(a5)
	ld	a5,-120(s0)
	mv	a6,a5
	lla	a5,.LC2
	li	a3,21
	li	a2,0
	li	a1,-1
	li	a0,-1
	call	ShellPrintHiiEx@plt
	.loc 1 478 11
	ld	a5,-120(s0)
	mv	a0,a5
	call	FreePool@plt
	.loc 1 479 18
	li	a5,2
	j	.L94
.L71:
	.loc 1 482 16 discriminator 2
	ld	a5,-104(s0)
	mv	a0,a5
	call	PathRemoveLastItem@plt
	mv	a5,a0
	bne	a5,zero,.L71
	.loc 1 485 9
	ld	a4,-104(s0)
	.loc 1 485 36
	ld	a5,-56(s0)
	srli	a3,a5,1
	.loc 1 485 9
	ld	a5,-120(s0)
	.loc 1 485 70
	addi	a5,a5,2
	.loc 1 485 9
	mv	a2,a5
	mv	a1,a3
	mv	a0,a4
	call	StrCatS@plt
	.loc 1 486 9
	ld	a4,-104(s0)
	.loc 1 486 36
	ld	a5,-56(s0)
	srli	a3,a5,1
	.loc 1 486 58
	ld	a5,-40(s0)
	ld	a5,32(a5)
	.loc 1 486 9
	mv	a2,a5
	mv	a1,a3
	mv	a0,a4
	call	StrCatS@plt
	j	.L67
.L68:
	.loc 1 487 18
	ld	a5,-120(s0)
	lla	a1,.LC5
	mv	a0,a5
	call	StrStr@plt
	mv	a5,a0
	.loc 1 487 17 discriminator 1
	bne	a5,zero,.L72
	.loc 1 488 12
	ld	a5,-64(s0)
	beq	a5,zero,.L73
	.loc 1 489 11
	ld	a4,-104(s0)
	.loc 1 489 38
	ld	a5,-56(s0)
	srli	a5,a5,1
	.loc 1 489 11
	ld	a2,-64(s0)
	mv	a1,a5
	mv	a0,a4
	call	StrCpyS@plt
	.loc 1 490 11
	ld	a4,-104(s0)
	.loc 1 490 38
	ld	a5,-56(s0)
	srli	a5,a5,1
	.loc 1 490 11
	lla	a2,.LC1
	mv	a1,a5
	mv	a0,a4
	call	StrCatS@plt
	.loc 1 497 22
	ld	s1,-104(s0)
	.loc 1 497 23
	ld	a5,-104(s0)
	mv	a0,a5
	call	StrLen@plt
	mv	a5,a0
	.loc 1 497 22 discriminator 1
	slli	a5,a5,1
	addi	a5,a5,-2
	add	a5,s1,a5
	lhu	a5,0(a5)
	.loc 1 497 12 discriminator 1
	sext.w	a4,a5
	li	a5,92
	beq	a4,a5,.L75
	j	.L96
.L73:
	.loc 1 492 11
	la	a5,gShellLevel2HiiHandle
	ld	a4,0(a5)
	ld	a5,-120(s0)
	mv	a6,a5
	lla	a5,.LC2
	li	a3,21
	li	a2,0
	li	a1,-1
	li	a0,-1
	call	ShellPrintHiiEx@plt
	.loc 1 493 11
	ld	a5,-120(s0)
	mv	a0,a5
	call	FreePool@plt
	.loc 1 494 18
	li	a5,2
	j	.L94
.L96:
	.loc 1 497 74 discriminator 2
	ld	a5,-120(s0)
	lhu	a5,0(a5)
	.loc 1 497 54 discriminator 2
	sext.w	a4,a5
	li	a5,92
	beq	a4,a5,.L75
	.loc 1 498 11
	ld	a4,-104(s0)
	.loc 1 498 38
	ld	a5,-56(s0)
	srli	a5,a5,1
	.loc 1 498 11
	lla	a2,.LC1
	mv	a1,a5
	mv	a0,a4
	call	StrCatS@plt
	j	.L76
.L75:
	.loc 1 499 29
	ld	s1,-104(s0)
	.loc 1 499 30
	ld	a5,-104(s0)
	mv	a0,a5
	call	StrLen@plt
	mv	a5,a0
	.loc 1 499 29 discriminator 1
	slli	a5,a5,1
	addi	a5,a5,-2
	add	a5,s1,a5
	lhu	a5,0(a5)
	.loc 1 499 19 discriminator 1
	sext.w	a4,a5
	li	a5,92
	bne	a4,a5,.L76
	.loc 1 499 81 discriminator 2
	ld	a5,-120(s0)
	lhu	a5,0(a5)
	.loc 1 499 61 discriminator 2
	sext.w	a4,a5
	li	a5,92
	bne	a4,a5,.L76
	.loc 1 500 31
	ld	s1,-104(s0)
	.loc 1 500 32
	ld	a5,-104(s0)
	mv	a0,a5
	call	StrLen@plt
	mv	a5,a0
	.loc 1 500 31 discriminator 1
	slli	a5,a5,1
	addi	a5,a5,-2
	add	a5,s1,a5
	.loc 1 500 53 discriminator 1
	sh	zero,0(a5)
.L76:
	.loc 1 503 9
	ld	a4,-104(s0)
	.loc 1 503 36
	ld	a5,-56(s0)
	srli	a5,a5,1
	.loc 1 503 9
	ld	a3,-120(s0)
	mv	a2,a3
	mv	a1,a5
	mv	a0,a4
	call	StrCatS@plt
	.loc 1 504 30
	ld	s1,-120(s0)
	.loc 1 504 31
	ld	a5,-120(s0)
	mv	a0,a5
	call	StrLen@plt
	mv	a5,a0
	.loc 1 504 30 discriminator 1
	slli	a5,a5,1
	addi	a5,a5,-2
	add	a5,s1,a5
	lhu	a5,0(a5)
	.loc 1 504 12 discriminator 1
	sext.w	a4,a5
	li	a5,92
	beq	a4,a5,.L77
	.loc 1 504 78 discriminator 2
	ld	a5,-40(s0)
	ld	a5,32(a5)
	.loc 1 504 88 discriminator 2
	lhu	a5,0(a5)
	.loc 1 504 70 discriminator 2
	sext.w	a4,a5
	li	a5,92
	beq	a4,a5,.L77
	.loc 1 505 11
	ld	a4,-104(s0)
	.loc 1 505 38
	ld	a5,-56(s0)
	srli	a5,a5,1
	.loc 1 505 11
	lla	a2,.LC1
	mv	a1,a5
	mv	a0,a4
	call	StrCatS@plt
	j	.L78
.L77:
	.loc 1 506 37
	ld	s1,-120(s0)
	.loc 1 506 38
	ld	a5,-120(s0)
	mv	a0,a5
	call	StrLen@plt
	mv	a5,a0
	.loc 1 506 37 discriminator 1
	slli	a5,a5,1
	addi	a5,a5,-2
	add	a5,s1,a5
	lhu	a5,0(a5)
	.loc 1 506 19 discriminator 1
	sext.w	a4,a5
	li	a5,92
	bne	a4,a5,.L78
	.loc 1 506 85 discriminator 2
	ld	a5,-40(s0)
	ld	a5,32(a5)
	.loc 1 506 95 discriminator 2
	lhu	a5,0(a5)
	.loc 1 506 77 discriminator 2
	sext.w	a4,a5
	li	a5,92
	bne	a4,a5,.L78
	.loc 1 507 31
	ld	s1,-104(s0)
	.loc 1 507 32
	ld	a5,-104(s0)
	mv	a0,a5
	call	StrLen@plt
	mv	a5,a0
	.loc 1 507 31 discriminator 1
	slli	a5,a5,1
	addi	a5,a5,-2
	add	a5,s1,a5
	.loc 1 507 53 discriminator 1
	sh	zero,0(a5)
.L78:
	.loc 1 510 9
	ld	a4,-104(s0)
	.loc 1 510 36
	ld	a5,-56(s0)
	srli	a3,a5,1
	.loc 1 510 58
	ld	a5,-40(s0)
	ld	a5,32(a5)
	.loc 1 510 9
	mv	a2,a5
	mv	a1,a3
	mv	a0,a4
	call	StrCatS@plt
	j	.L67
.L72:
	.loc 1 512 9
	ld	a4,-104(s0)
	.loc 1 512 36
	ld	a5,-56(s0)
	srli	a5,a5,1
	.loc 1 512 9
	ld	a3,-120(s0)
	mv	a2,a3
	mv	a1,a5
	mv	a0,a4
	call	StrCpyS@plt
	.loc 1 513 30
	ld	s1,-120(s0)
	.loc 1 513 31
	ld	a5,-120(s0)
	mv	a0,a5
	call	StrLen@plt
	mv	a5,a0
	.loc 1 513 30 discriminator 1
	slli	a5,a5,1
	addi	a5,a5,-2
	add	a5,s1,a5
	lhu	a5,0(a5)
	.loc 1 513 12 discriminator 1
	sext.w	a4,a5
	li	a5,92
	beq	a4,a5,.L79
	.loc 1 513 78 discriminator 2
	ld	a5,-40(s0)
	ld	a5,32(a5)
	.loc 1 513 88 discriminator 2
	lhu	a5,0(a5)
	.loc 1 513 70 discriminator 2
	sext.w	a4,a5
	li	a5,92
	beq	a4,a5,.L79
	.loc 1 514 11
	ld	a4,-104(s0)
	.loc 1 514 38
	ld	a5,-56(s0)
	srli	a5,a5,1
	.loc 1 514 11
	lla	a2,.LC1
	mv	a1,a5
	mv	a0,a4
	call	StrCatS@plt
	j	.L80
.L79:
	.loc 1 515 37
	ld	s1,-120(s0)
	.loc 1 515 38
	ld	a5,-120(s0)
	mv	a0,a5
	call	StrLen@plt
	mv	a5,a0
	.loc 1 515 37 discriminator 1
	slli	a5,a5,1
	addi	a5,a5,-2
	add	a5,s1,a5
	lhu	a5,0(a5)
	.loc 1 515 19 discriminator 1
	sext.w	a4,a5
	li	a5,92
	bne	a4,a5,.L80
	.loc 1 515 85 discriminator 2
	ld	a5,-40(s0)
	ld	a5,32(a5)
	.loc 1 515 95 discriminator 2
	lhu	a5,0(a5)
	.loc 1 515 77 discriminator 2
	sext.w	a4,a5
	li	a5,92
	bne	a4,a5,.L80
	.loc 1 516 39
	ld	s1,-120(s0)
	.loc 1 516 40
	ld	a5,-120(s0)
	mv	a0,a5
	call	StrLen@plt
	mv	a5,a0
	.loc 1 516 39 discriminator 1
	slli	a5,a5,1
	addi	a5,a5,-2
	add	a5,s1,a5
	.loc 1 516 69 discriminator 1
	sh	zero,0(a5)
.L80:
	.loc 1 519 9
	ld	a4,-104(s0)
	.loc 1 519 36
	ld	a5,-56(s0)
	srli	a3,a5,1
	.loc 1 519 58
	ld	a5,-40(s0)
	ld	a5,32(a5)
	.loc 1 519 9
	mv	a2,a5
	mv	a1,a3
	mv	a0,a4
	call	StrCatS@plt
.L67:
	.loc 1 526 27
	ld	a5,-104(s0)
	mv	a0,a5
	call	VerifyIntermediateDirectories@plt
	mv	a5,a0
	.loc 1 526 8 discriminator 1
	bge	a5,zero,.L81
	.loc 1 527 7
	la	a5,gShellLevel2HiiHandle
	ld	a4,0(a5)
	ld	a5,-104(s0)
	mv	a6,a5
	lla	a5,.LC2
	li	a3,128
	li	a2,0
	li	a1,-1
	li	a0,-1
	call	ShellPrintHiiEx@plt
	.loc 1 528 19
	li	a5,7
	sw	a5,-44(s0)
	.loc 1 529 7
	j	.L56
.L81:
	.loc 1 532 51
	ld	a5,-40(s0)
	ld	a5,24(a5)
	.loc 1 532 29
	mv	a0,a5
	call	ShellIsDirectory@plt
	mv	a5,a0
	.loc 1 532 8 discriminator 1
	blt	a5,zero,.L82
	.loc 1 533 30
	ld	a5,-104(s0)
	mv	a0,a5
	call	ShellIsDirectory@plt
	mv	a5,a0
	.loc 1 533 8 discriminator 1
	blt	a5,zero,.L82
	.loc 1 534 26
	ld	a5,-40(s0)
	ld	s1,24(a5)
	.loc 1 534 12
	ld	s2,-104(s0)
	.loc 1 534 48
	ld	a5,-104(s0)
	mv	a0,a5
	call	StrLen@plt
	mv	a5,a0
	.loc 1 534 12 discriminator 1
	mv	a2,a5
	mv	a1,s2
	mv	a0,s1
	call	StrniCmp@plt
	mv	a5,a0
	.loc 1 534 8 discriminator 2
	bne	a5,zero,.L82
	.loc 1 537 7
	la	a5,gShellLevel2HiiHandle
	ld	a4,0(a5)
	lla	a5,.LC2
	li	a3,130
	li	a2,0
	li	a1,-1
	li	a0,-1
	call	ShellPrintHiiEx@plt
	.loc 1 538 19
	li	a5,2
	sw	a5,-44(s0)
	.loc 1 539 7
	j	.L56
.L82:
	.loc 1 542 30
	ld	a5,-40(s0)
	addi	a5,a5,24
	.loc 1 542 9
	addi	a4,s0,-104
	mv	a1,a4
	mv	a0,a5
	call	StringNoCaseCompare@plt
	mv	a5,a0
	.loc 1 542 8 discriminator 1
	bne	a5,zero,.L83
	.loc 1 543 7
	la	a5,gShellLevel2HiiHandle
	ld	a4,0(a5)
	lla	a5,.LC2
	li	a3,129
	li	a2,0
	li	a1,-1
	li	a0,-1
	call	ShellPrintHiiEx@plt
	.loc 1 544 19
	li	a5,2
	sw	a5,-44(s0)
	.loc 1 545 7
	j	.L56
.L83:
	.loc 1 548 25
	ld	a5,-40(s0)
	ld	s1,24(a5)
	.loc 1 548 11
	ld	s2,-104(s0)
	.loc 1 548 59
	ld	a5,-40(s0)
	ld	a5,24(a5)
	.loc 1 548 47
	mv	a0,a5
	call	StrLen@plt
	mv	a5,a0
	.loc 1 548 11 discriminator 1
	mv	a2,a5
	mv	a1,s2
	mv	a0,s1
	call	StrniCmp@plt
	mv	a5,a0
	.loc 1 548 8 discriminator 2
	bne	a5,zero,.L84
	.loc 1 549 21
	ld	s1,-104(s0)
	.loc 1 549 34
	ld	a5,-40(s0)
	ld	a5,24(a5)
	.loc 1 549 22
	mv	a0,a5
	call	StrLen@plt
	mv	a5,a0
	.loc 1 549 21 discriminator 1
	slli	a5,a5,1
	add	a5,s1,a5
	lhu	a5,0(a5)
	.loc 1 549 8 discriminator 1
	beq	a5,zero,.L85
	.loc 1 549 70 discriminator 2
	ld	s1,-104(s0)
	.loc 1 549 83 discriminator 2
	ld	a5,-40(s0)
	ld	a5,24(a5)
	.loc 1 549 71 discriminator 2
	mv	a0,a5
	call	StrLen@plt
	mv	a5,a0
	.loc 1 549 70 discriminator 3
	slli	a5,a5,1
	add	a5,s1,a5
	lhu	a5,0(a5)
	.loc 1 549 58 discriminator 3
	sext.w	a4,a5
	li	a5,92
	bne	a4,a5,.L84
.L85:
	.loc 1 552 7
	la	a5,gShellLevel2HiiHandle
	ld	a4,0(a5)
	lla	a5,.LC2
	li	a3,129
	li	a2,0
	li	a1,-1
	li	a0,-1
	call	ShellPrintHiiEx@plt
	.loc 1 553 19
	li	a5,2
	sw	a5,-44(s0)
	.loc 1 554 7
	j	.L56
.L84:
	.loc 1 557 5
	ld	a5,-104(s0)
	mv	a0,a5
	call	PathCleanUpDirectories@plt
	.loc 1 559 8
	lbu	a5,-145(s0)
	andi	a5,a5,0xff
	bne	a5,zero,.L86
	.loc 1 560 44
	ld	a5,-40(s0)
	ld	a5,24(a5)
	.loc 1 560 7
	ld	a4,-104(s0)
	mv	a3,a5
	ld	a2,-80(s0)
	li	a1,-1
	li	a0,-1
	call	ShellPrintEx@plt
.L86:
	.loc 1 566 39
	ld	a5,-40(s0)
	ld	a5,24(a5)
	.loc 1 566 19
	ld	a1,-104(s0)
	lbu	a3,-145(s0)
	addi	a2,s0,-112
	lla	a4,.LC2
	mv	a0,a5
	call	CopySingleFile
	mv	a5,a0
	sw	a5,-44(s0)
	.loc 1 567 8
	lw	a5,-44(s0)
	sext.w	a5,a5
	bne	a5,zero,.L100
	j	.L59
.L99:
	.loc 1 431 7
	nop
.L59:
	.loc 1 417 40
	ld	a5,-136(s0)
	ld	a4,-40(s0)
	mv	a1,a4
	mv	a0,a5
	call	GetNextNode@plt
	sd	a0,-40(s0)
.L54:
	.loc 1 416 11
	ld	a5,-136(s0)
	ld	a4,-40(s0)
	mv	a1,a4
	mv	a0,a5
	call	IsNull@plt
	mv	a5,a0
	.loc 1 416 10 discriminator 1
	beq	a5,zero,.L87
	j	.L56
.L98:
	.loc 1 421 7
	nop
	j	.L56
.L100:
	.loc 1 568 7
	nop
.L56:
	.loc 1 572 6
	lw	a5,-44(s0)
	sext.w	a5,a5
	bne	a5,zero,.L88
	.loc 1 572 38 discriminator 1
	ld	a5,-160(s0)
	bne	a5,zero,.L88
	.loc 1 573 5
	ld	a3,-88(s0)
	lla	a2,.LC6
	li	a1,-1
	li	a0,-1
	call	ShellPrintEx@plt
.L88:
	.loc 1 576 23
	ld	a5,-104(s0)
	.loc 1 576 11
	beq	a5,zero,.L89
	.loc 1 576 42 discriminator 1
	ld	a5,-104(s0)
	mv	a0,a5
	call	FreePool@plt
	.loc 1 576 75 discriminator 2
	sd	zero,-104(s0)
.L89:
	.loc 1 577 11
	ld	a5,-80(s0)
	beq	a5,zero,.L90
	.loc 1 577 43 discriminator 1
	ld	a0,-80(s0)
	call	FreePool@plt
	.loc 1 577 78 discriminator 2
	sd	zero,-80(s0)
.L90:
	.loc 1 578 11
	ld	a5,-88(s0)
	beq	a5,zero,.L91
	.loc 1 578 45 discriminator 1
	ld	a0,-88(s0)
	call	FreePool@plt
	.loc 1 578 84 discriminator 2
	sd	zero,-88(s0)
.L91:
	.loc 1 579 31
	ld	a5,-120(s0)
	.loc 1 579 11
	beq	a5,zero,.L92
	.loc 1 579 50 discriminator 1
	ld	a5,-120(s0)
	mv	a0,a5
	call	FreePool@plt
	.loc 1 579 99 discriminator 2
	sd	zero,-120(s0)
.L92:
	.loc 1 580 6
	ld	a5,-160(s0)
	bne	a5,zero,.L93
	.loc 1 581 25
	ld	a5,-112(s0)
	.loc 1 581 13
	beq	a5,zero,.L93
	.loc 1 581 44 discriminator 1
	ld	a5,-112(s0)
	mv	a0,a5
	call	FreePool@plt
	.loc 1 581 77 discriminator 2
	sd	zero,-112(s0)
.L93:
	.loc 1 584 10
	lw	a5,-44(s0)
.L94:
	.loc 1 585 1
	mv	a0,a5
	ld	ra,152(sp)
	.cfi_restore 1
	ld	s0,144(sp)
	.cfi_restore 8
	.cfi_def_cfa 2, 160
	ld	s1,136(sp)
	.cfi_restore 9
	ld	s2,128(sp)
	.cfi_restore 18
	addi	sp,sp,160
	.cfi_def_cfa_offset 0
	jr	ra
	.cfi_endproc
.LFE1:
	.size	ValidateAndCopyFiles, .-ValidateAndCopyFiles
	.section	.text.ProcessValidateAndCopyFiles,"ax",@progbits
	.align	1
	.globl	ProcessValidateAndCopyFiles
	.type	ProcessValidateAndCopyFiles, @function
ProcessValidateAndCopyFiles:
.LFB2:
	.loc 1 606 1
	.cfi_startproc
	addi	sp,sp,-80
	.cfi_def_cfa_offset 80
	sd	ra,72(sp)
	sd	s0,64(sp)
	.cfi_offset 1, -8
	.cfi_offset 8, -16
	addi	s0,sp,80
	.cfi_def_cfa 8, 0
	sd	a0,-56(s0)
	sd	a1,-64(s0)
	mv	a5,a2
	mv	a4,a3
	sb	a5,-65(s0)
	mv	a5,a4
	sb	a5,-66(s0)
	.loc 1 612 8
	sd	zero,-40(s0)
	.loc 1 613 12
	sd	zero,-48(s0)
	.loc 1 614 12
	sd	zero,-32(s0)
	.loc 1 616 3
	addi	a5,s0,-40
	mv	a2,a5
	li	a1,1
	ld	a0,-64(s0)
	call	ShellOpenFileMetaArg@plt
	.loc 1 617 13
	ld	a5,-40(s0)
	.loc 1 617 6
	beq	a5,zero,.L102
	.loc 1 617 38 discriminator 1
	ld	a5,-40(s0)
	.loc 1 617 44 discriminator 1
	ld	a4,0(a5)
	.loc 1 617 64 discriminator 1
	ld	a5,-40(s0)
	.loc 1 617 70 discriminator 1
	ld	a5,8(a5)
	.loc 1 617 30 discriminator 1
	beq	a4,a5,.L102
	.loc 1 618 5
	la	a5,gShellLevel2HiiHandle
	ld	a4,0(a5)
	ld	a6,-64(s0)
	lla	a5,.LC2
	li	a3,26
	li	a2,0
	li	a1,-1
	li	a0,-1
	call	ShellPrintHiiEx@plt
	.loc 1 619 17
	li	a5,2
	sw	a5,-20(s0)
	.loc 1 620 5
	addi	a5,s0,-40
	mv	a0,a5
	call	ShellCloseFileMetaArg@plt
	j	.L103
.L102:
	.loc 1 621 19
	ld	a5,-40(s0)
	.loc 1 621 13
	beq	a5,zero,.L104
	.loc 1 624 33
	la	a5,gEfiShellProtocol
	ld	a5,0(a5)
	ld	a5,176(a5)
	.loc 1 624 76
	ld	a4,-40(s0)
	.loc 1 624 82
	ld	a4,0(a4)
	.loc 1 624 16
	ld	a4,40(a4)
	mv	a0,a4
	jalr	a5
.LVL2:
	sd	a0,-32(s0)
	.loc 1 626 71
	ld	a5,-40(s0)
	.loc 1 626 77
	ld	a5,0(a5)
	.loc 1 626 5
	ld	a4,24(a5)
	addi	a5,s0,-48
	li	a3,0
	mv	a2,a4
	li	a1,0
	mv	a0,a5
	call	StrnCatGrow@plt
	.loc 1 627 5
	addi	a5,s0,-40
	mv	a0,a5
	call	ShellCloseFileMetaArg@plt
	.loc 1 628 18
	ld	a5,-32(s0)
	ld	a5,72(a5)
	.loc 1 628 30
	andi	a5,a5,1
	.loc 1 628 8
	bne	a5,zero,.L105
	.loc 1 629 21
	ld	a5,-48(s0)
	lbu	a3,-66(s0)
	lbu	a2,-65(s0)
	li	a4,0
	mv	a1,a5
	ld	a0,-56(s0)
	call	ValidateAndCopyFiles
	mv	a5,a0
	sw	a5,-20(s0)
	j	.L103
.L105:
	.loc 1 631 7
	la	a5,gShellLevel2HiiHandle
	ld	a4,0(a5)
	lla	a5,.LC2
	li	a3,131
	li	a2,0
	li	a1,-1
	li	a0,-1
	call	ShellPrintHiiEx@plt
	.loc 1 632 19
	li	a5,15
	sw	a5,-20(s0)
	j	.L103
.L104:
	.loc 1 635 5
	addi	a5,s0,-40
	mv	a0,a5
	call	ShellCloseFileMetaArg@plt
	.loc 1 636 19
	lbu	a3,-66(s0)
	lbu	a5,-65(s0)
	li	a4,0
	mv	a2,a5
	ld	a1,-64(s0)
	ld	a0,-56(s0)
	call	ValidateAndCopyFiles
	mv	a5,a0
	sw	a5,-20(s0)
.L103:
	.loc 1 639 11
	ld	a5,-32(s0)
	beq	a5,zero,.L106
	.loc 1 639 42 discriminator 1
	ld	a0,-32(s0)
	call	FreePool@plt
	.loc 1 639 75 discriminator 2
	sd	zero,-32(s0)
.L106:
	.loc 1 640 23
	ld	a5,-48(s0)
	.loc 1 640 11
	beq	a5,zero,.L107
	.loc 1 640 42 discriminator 1
	ld	a5,-48(s0)
	mv	a0,a5
	call	FreePool@plt
	.loc 1 640 75 discriminator 2
	sd	zero,-48(s0)
.L107:
	.loc 1 641 10
	lw	a5,-20(s0)
	.loc 1 642 1
	mv	a0,a5
	ld	ra,72(sp)
	.cfi_restore 1
	ld	s0,64(sp)
	.cfi_restore 8
	.cfi_def_cfa 2, 80
	addi	sp,sp,80
	.cfi_def_cfa_offset 0
	jr	ra
	.cfi_endproc
.LFE2:
	.size	ProcessValidateAndCopyFiles, .-ProcessValidateAndCopyFiles
	.section	.rodata
	.align	3
.LC7:
	.string	"-"
	.string	"r"
	.zero	2
	.align	3
.LC8:
	.string	"-"
	.string	"q"
	.zero	2
	.section	.data.rel.ro.local.ParamList,"aw"
	.align	3
	.type	ParamList, @object
	.size	ParamList, 48
ParamList:
	.dword	.LC7
	.word	0
	.zero	4
	.dword	.LC8
	.word	0
	.zero	4
	.dword	0
	.word	7
	.zero	4
	.section	.rodata
	.align	3
.LC9:
	.string	"-"
	.string	"?"
	.zero	2
	.section	.text.ShellCommandRunCp,"ax",@progbits
	.align	1
	.globl	ShellCommandRunCp
	.type	ShellCommandRunCp, @function
ShellCommandRunCp:
.LFB3:
	.loc 1 662 1
	.cfi_startproc
	addi	sp,sp,-144
	.cfi_def_cfa_offset 144
	sd	ra,136(sp)
	sd	s0,128(sp)
	sd	s1,120(sp)
	.cfi_offset 1, -8
	.cfi_offset 8, -16
	.cfi_offset 9, -24
	addi	s0,sp,144
	.cfi_def_cfa 8, 0
	sd	a0,-136(s0)
	sd	a1,-144(s0)
	.loc 1 675 16
	sd	zero,-112(s0)
	.loc 1 676 15
	sw	zero,-36(s0)
	.loc 1 677 14
	sd	zero,-64(s0)
	.loc 1 678 12
	sd	zero,-120(s0)
	.loc 1 683 12
	call	ShellInitialize@plt
	sd	a0,-72(s0)
	.loc 1 686 12
	call	CommandInit@plt
	sd	a0,-72(s0)
	.loc 1 692 12
	addi	a2,s0,-112
	addi	a5,s0,-104
	li	a4,0
	li	a3,1
	mv	a1,a5
	lla	a0,ParamList
	call	ShellCommandLineParseEx@plt
	sd	a0,-72(s0)
	.loc 1 693 34
	ld	a5,-72(s0)
	.loc 1 693 6
	bge	a5,zero,.L110
	.loc 1 694 8
	ld	a4,-72(s0)
	li	a5,-1
	slli	a5,a5,63
	addi	a5,a5,10
	bne	a4,a5,.L111
	.loc 1 694 86 discriminator 1
	ld	a5,-112(s0)
	.loc 1 694 69 discriminator 1
	beq	a5,zero,.L111
	.loc 1 695 7
	la	a5,gShellLevel2HiiHandle
	ld	a4,0(a5)
	ld	a5,-112(s0)
	mv	a6,a5
	lla	a5,.LC2
	li	a3,6
	li	a2,0
	li	a1,-1
	li	a0,-1
	call	ShellPrintHiiEx@plt
	.loc 1 696 7
	ld	a5,-112(s0)
	mv	a0,a5
	call	FreePool@plt
	.loc 1 697 19
	li	a5,2
	sw	a5,-36(s0)
	j	.L111
.L110:
	.loc 1 705 9
	ld	a5,-104(s0)
	lla	a1,.LC9
	mv	a0,a5
	call	ShellCommandLineGetFlag@plt
	.loc 1 712 26
	la	a5,gEfiShellProtocol
	ld	a5,0(a5)
	ld	a5,128(a5)
	.loc 1 712 9
	jalr	a5
.LVL3:
	mv	a5,a0
	.loc 1 712 8 discriminator 1
	beq	a5,zero,.L112
	.loc 1 713 18
	li	a5,1
	sb	a5,-49(s0)
	j	.L113
.L112:
	.loc 1 715 20
	ld	a5,-104(s0)
	lla	a1,.LC8
	mv	a0,a5
	call	ShellCommandLineGetFlag@plt
	mv	a5,a0
	sb	a5,-49(s0)
.L113:
	.loc 1 718 21
	ld	a5,-104(s0)
	lla	a1,.LC7
	mv	a0,a5
	call	ShellCommandLineGetFlag@plt
	mv	a5,a0
	sb	a5,-73(s0)
	.loc 1 720 26
	ld	a5,-104(s0)
	mv	a0,a5
	call	ShellCommandLineGetCount@plt
	sd	a0,-64(s0)
	.loc 1 720 5 discriminator 1
	ld	a4,-64(s0)
	li	a5,1
	bleu	a4,a5,.L114
	ld	a4,-64(s0)
	li	a5,2
	beq	a4,a5,.L115
	j	.L135
.L114:
	.loc 1 726 9
	la	a5,gShellLevel2HiiHandle
	ld	a4,0(a5)
	lla	a5,.LC2
	li	a3,4
	li	a2,0
	li	a1,-1
	li	a0,-1
	call	ShellPrintHiiEx@plt
	.loc 1 727 21
	li	a5,2
	sw	a5,-36(s0)
	.loc 1 728 9
	j	.L117
.L115:
	.loc 1 733 15
	li	a0,0
	call	ShellGetCurrentDir@plt
	sd	a0,-88(s0)
	.loc 1 734 12
	ld	a5,-88(s0)
	bne	a5,zero,.L118
	.loc 1 735 11
	la	a5,gShellLevel2HiiHandle
	ld	a4,0(a5)
	lla	a5,.LC2
	li	a3,20
	li	a2,0
	li	a1,-1
	li	a0,-1
	call	ShellPrintHiiEx@plt
	.loc 1 736 23
	li	a5,2
	sw	a5,-36(s0)
	.loc 1 755 9
	j	.L117
.L118:
	.loc 1 738 52
	ld	a5,-104(s0)
	li	a1,1
	mv	a0,a5
	call	ShellCommandLineGetRawValue@plt
	mv	a4,a0
	.loc 1 738 20 discriminator 1
	addi	a5,s0,-120
	mv	a2,a5
	li	a1,3
	mv	a0,a4
	call	ShellOpenFileMetaArg@plt
	sd	a0,-72(s0)
	.loc 1 739 25
	ld	a5,-120(s0)
	.loc 1 739 14
	beq	a5,zero,.L120
	.loc 1 739 67 discriminator 1
	ld	a5,-120(s0)
	.loc 1 739 45 discriminator 1
	mv	a0,a5
	call	IsListEmpty@plt
	mv	a5,a0
	.loc 1 739 42 discriminator 2
	bne	a5,zero,.L120
	.loc 1 739 105 discriminator 3
	ld	a5,-72(s0)
	.loc 1 739 75 discriminator 3
	bge	a5,zero,.L121
.L120:
	.loc 1 740 13
	la	a5,gShellLevel2HiiHandle
	ld	s1,0(a5)
	ld	a5,-104(s0)
	li	a1,1
	mv	a0,a5
	call	ShellCommandLineGetRawValue@plt
	mv	a5,a0
	.loc 1 740 13 is_stmt 0 discriminator 1
	mv	a6,a5
	lla	a5,.LC2
	mv	a4,s1
	li	a3,18
	li	a2,0
	li	a1,-1
	li	a0,-1
	call	ShellPrintHiiEx@plt
	.loc 1 741 25 is_stmt 1
	li	a5,14
	sw	a5,-36(s0)
	.loc 1 755 9
	j	.L117
.L121:
	.loc 1 743 41
	ld	a0,-88(s0)
	call	StrSize@plt
	mv	a5,a0
	.loc 1 743 55 discriminator 1
	addi	a5,a5,2
	.loc 1 743 23 discriminator 1
	mv	a0,a5
	call	AllocateZeroPool@plt
	sd	a0,-96(s0)
	.loc 1 744 16
	ld	a5,-96(s0)
	bne	a5,zero,.L122
	.loc 1 745 15
	la	a5,gShellLevel2HiiHandle
	ld	a4,0(a5)
	lla	a5,.LC2
	li	a3,34
	li	a2,0
	li	a1,-1
	li	a0,-1
	call	ShellPrintHiiEx@plt
	.loc 1 746 27
	li	a5,9
	sw	a5,-36(s0)
	.loc 1 755 9
	j	.L117
.L122:
	.loc 1 748 33
	ld	a0,-88(s0)
	call	StrSize@plt
	mv	a5,a0
	.loc 1 748 47 discriminator 1
	srli	a5,a5,1
	.loc 1 748 65 discriminator 1
	addi	a5,a5,1
	.loc 1 748 15 discriminator 1
	ld	a2,-88(s0)
	mv	a1,a5
	ld	a0,-96(s0)
	call	StrCpyS@plt
	.loc 1 749 29
	ld	a5,-120(s0)
	lbu	a3,-73(s0)
	lbu	a4,-49(s0)
	mv	a2,a4
	ld	a1,-96(s0)
	mv	a0,a5
	call	ProcessValidateAndCopyFiles
	mv	a5,a0
	sw	a5,-36(s0)
	.loc 1 750 15
	ld	a0,-96(s0)
	call	FreePool@plt
	.loc 1 755 9
	j	.L117
.L135:
	.loc 1 760 24
	ld	a5,-64(s0)
	addi	a5,a5,-1
	sd	a5,-64(s0)
	.loc 1 760 40
	li	a5,1
	sd	a5,-48(s0)
	.loc 1 760 9
	j	.L123
.L128:
	.loc 1 761 15
	call	ShellGetExecutionBreakFlag@plt
	mv	a5,a0
	.loc 1 761 14 discriminator 1
	bne	a5,zero,.L136
	.loc 1 765 52
	ld	a5,-104(s0)
	ld	a1,-48(s0)
	mv	a0,a5
	call	ShellCommandLineGetRawValue@plt
	mv	a4,a0
	.loc 1 765 20 discriminator 1
	addi	a5,s0,-120
	mv	a2,a5
	li	a1,3
	mv	a0,a4
	call	ShellOpenFileMetaArg@plt
	sd	a0,-72(s0)
	.loc 1 766 42
	ld	a5,-72(s0)
	.loc 1 766 14
	blt	a5,zero,.L126
	.loc 1 766 81 discriminator 1
	ld	a5,-120(s0)
	.loc 1 766 68 discriminator 1
	beq	a5,zero,.L126
	.loc 1 766 123 discriminator 2
	ld	a5,-120(s0)
	.loc 1 766 101 discriminator 2
	mv	a0,a5
	call	IsListEmpty@plt
	mv	a5,a0
	.loc 1 766 98 discriminator 3
	beq	a5,zero,.L127
.L126:
	.loc 1 767 13
	la	a5,gShellLevel2HiiHandle
	ld	s1,0(a5)
	ld	a5,-104(s0)
	ld	a1,-48(s0)
	mv	a0,a5
	call	ShellCommandLineGetRawValue@plt
	mv	a5,a0
	.loc 1 767 13 is_stmt 0 discriminator 1
	mv	a6,a5
	lla	a5,.LC2
	mv	a4,s1
	li	a3,18
	li	a2,0
	li	a1,-1
	li	a0,-1
	call	ShellPrintHiiEx@plt
	.loc 1 768 25 is_stmt 1
	li	a5,14
	sw	a5,-36(s0)
.L127:
	.loc 1 760 114 discriminator 2
	ld	a5,-48(s0)
	addi	a5,a5,1
	sd	a5,-48(s0)
.L123:
	.loc 1 760 70 discriminator 1
	ld	a4,-48(s0)
	ld	a5,-64(s0)
	bgeu	a4,a5,.L125
	.loc 1 760 70 is_stmt 0 discriminator 3
	lw	a5,-36(s0)
	sext.w	a5,a5
	beq	a5,zero,.L128
	j	.L125
.L136:
	.loc 1 762 13 is_stmt 1
	nop
.L125:
	.loc 1 772 12
	lw	a5,-36(s0)
	sext.w	a5,a5
	beq	a5,zero,.L129
	.loc 1 773 20
	addi	a5,s0,-120
	mv	a0,a5
	call	ShellCloseFileMetaArg@plt
	sd	a0,-72(s0)
	.loc 1 788 9
	j	.L137
.L129:
	.loc 1 778 25
	ld	a5,-120(s0)
	.loc 1 778 14
	beq	a5,zero,.L137
	.loc 1 778 68 discriminator 1
	ld	a5,-120(s0)
	.loc 1 778 46 discriminator 1
	mv	a0,a5
	call	IsListEmpty@plt
	mv	a5,a0
	.loc 1 778 42 discriminator 2
	bne	a5,zero,.L137
	.loc 1 779 27
	ld	s1,-120(s0)
	.loc 1 779 100
	ld	a5,-104(s0)
	ld	a1,-64(s0)
	mv	a0,a5
	call	ShellCommandLineGetRawValue@plt
	mv	a5,a0
	.loc 1 779 66 discriminator 1
	mv	a0,a5
	call	PathCleanUpDirectories@plt
	mv	a1,a0
	.loc 1 779 27 discriminator 2
	lbu	a4,-73(s0)
	lbu	a5,-49(s0)
	mv	a3,a4
	mv	a2,a5
	mv	a0,s1
	call	ProcessValidateAndCopyFiles
	mv	a5,a0
	sw	a5,-36(s0)
	.loc 1 780 22
	addi	a5,s0,-120
	mv	a0,a5
	call	ShellCloseFileMetaArg@plt
	sd	a0,-72(s0)
	.loc 1 781 44
	ld	a5,-72(s0)
	.loc 1 781 16
	bge	a5,zero,.L137
	.loc 1 781 70 discriminator 1
	lw	a5,-36(s0)
	sext.w	a5,a5
	bne	a5,zero,.L137
	.loc 1 782 15
	la	a5,gShellLevel2HiiHandle
	ld	s1,0(a5)
	ld	a5,-104(s0)
	ld	a1,-64(s0)
	mv	a0,a5
	call	ShellCommandLineGetRawValue@plt
	mv	a3,a0
	.loc 1 782 15 is_stmt 0 discriminator 1
	lwu	a4,-36(s0)
	li	a5,-1
	slli	a5,a5,63
	or	a5,a4,a5
	mv	a7,a5
	mv	a6,a3
	lla	a5,.LC2
	mv	a4,s1
	li	a3,11
	li	a2,0
	li	a1,-1
	li	a0,-1
	call	ShellPrintHiiEx@plt
	.loc 1 783 27 is_stmt 1
	li	a5,15
	sw	a5,-36(s0)
.L137:
	.loc 1 788 9
	nop
.L117:
	.loc 1 791 18
	ld	a5,-120(s0)
	.loc 1 791 8
	beq	a5,zero,.L131
	.loc 1 792 7
	addi	a5,s0,-120
	mv	a0,a5
	call	ShellCloseFileMetaArg@plt
.L131:
	.loc 1 798 5
	ld	a5,-104(s0)
	mv	a0,a5
	call	ShellCommandLineFreeVarList@plt
.L111:
	.loc 1 801 7
	call	ShellGetExecutionBreakFlag@plt
	mv	a5,a0
	.loc 1 801 6 discriminator 1
	beq	a5,zero,.L132
	.loc 1 802 12
	li	a5,21
	j	.L134
.L132:
	.loc 1 805 10
	lw	a5,-36(s0)
.L134:
	.loc 1 806 1
	mv	a0,a5
	ld	ra,136(sp)
	.cfi_restore 1
	ld	s0,128(sp)
	.cfi_restore 8
	.cfi_def_cfa 2, 144
	ld	s1,120(sp)
	.cfi_restore 9
	addi	sp,sp,144
	.cfi_def_cfa_offset 0
	jr	ra
	.cfi_endproc
.LFE3:
	.size	ShellCommandRunCp, .-ShellCommandRunCp
	.text
.Letext0:
	.file 2 "/home/kapoagaeming/spacemit-image-builder/components/edk2/MdePkg/Include/RiscV64/ProcessorBind.h"
	.file 3 "/home/kapoagaeming/spacemit-image-builder/components/edk2/MdePkg/Include/Base.h"
	.file 4 "/home/kapoagaeming/spacemit-image-builder/components/edk2/MdePkg/Include/Uefi/UefiBaseType.h"
	.file 5 "/home/kapoagaeming/spacemit-image-builder/components/edk2/MdePkg/Include/Uefi/UefiMultiPhase.h"
	.file 6 "/home/kapoagaeming/spacemit-image-builder/components/edk2/MdePkg/Include/Protocol/DevicePath.h"
	.file 7 "/home/kapoagaeming/spacemit-image-builder/components/edk2/MdePkg/Include/Protocol/SimpleTextIn.h"
	.file 8 "/home/kapoagaeming/spacemit-image-builder/components/edk2/MdePkg/Include/Protocol/SimpleTextOut.h"
	.file 9 "/home/kapoagaeming/spacemit-image-builder/components/edk2/MdePkg/Include/Uefi/UefiSpec.h"
	.file 10 "/home/kapoagaeming/spacemit-image-builder/components/edk2/MdePkg/Include/Uefi/UefiInternalFormRepresentation.h"
	.file 11 "/home/kapoagaeming/spacemit-image-builder/components/Build/Milk-V-Jupiter/RELEASE_GCC5/RISCV64/ShellPkg/Library/UefiShellLevel2CommandsLib/UefiShellLevel2CommandsLib/DEBUG/AutoGen.h"
	.file 12 "/home/kapoagaeming/spacemit-image-builder/components/edk2/MdePkg/Include/Guid/FileInfo.h"
	.file 13 "/home/kapoagaeming/spacemit-image-builder/components/edk2/MdePkg/Include/Protocol/Shell.h"
	.file 14 "/home/kapoagaeming/spacemit-image-builder/components/edk2/MdePkg/Include/Protocol/SimpleFileSystem.h"
	.file 15 "/home/kapoagaeming/spacemit-image-builder/components/edk2/ShellPkg/Include/Library/ShellLib.h"
	.file 16 "/home/kapoagaeming/spacemit-image-builder/components/edk2/ShellPkg/Library/UefiShellLevel2CommandsLib/UefiShellLevel2CommandsLib.h"
	.file 17 "/home/kapoagaeming/spacemit-image-builder/components/edk2/MdePkg/Include/Guid/FileSystemInfo.h"
	.file 18 "/home/kapoagaeming/spacemit-image-builder/components/edk2/MdePkg/Include/Library/BaseLib.h"
	.file 19 "/home/kapoagaeming/spacemit-image-builder/components/edk2/ShellPkg/Include/Library/ShellCommandLib.h"
	.file 20 "/home/kapoagaeming/spacemit-image-builder/components/edk2/MdeModulePkg/Include/Library/SortLib.h"
	.file 21 "/home/kapoagaeming/spacemit-image-builder/components/edk2/MdeModulePkg/Include/Library/HiiLib.h"
	.file 22 "/home/kapoagaeming/spacemit-image-builder/components/edk2/MdePkg/Include/Library/MemoryAllocationLib.h"
	.section	.note.GNU-stack,"",@progbits
