	.file	"Ls.c"
	.option pic
	.option norelax
	.attribute arch, "rv64i2p1_m2p0_a2p1_f2p2_d2p2_c2p0_zicsr2p0_zifencei2p0_zmmul1p0_zaamo1p0_zalrsc1p0_zca1p0_zcd1p0"
	.attribute unaligned_access, 0
	.attribute stack_align, 16
	.text
.Ltext0:
	.cfi_sections	.debug_frame
	.file 0 "/home/kapoagaeming/spacemit-image-builder/components/Build/Milk-V-Jupiter/RELEASE_GCC5/RISCV64/ShellPkg/Library/UefiShellLevel2CommandsLib/UefiShellLevel2CommandsLib" "/home/kapoagaeming/spacemit-image-builder/components/edk2/ShellPkg/Library/UefiShellLevel2CommandsLib/Ls.c"
	.globl	mDayOfMonth
	.section	.data.mDayOfMonth,"aw"
	.align	3
	.type	mDayOfMonth, @object
	.size	mDayOfMonth, 96
mDayOfMonth:
	.dword	31
	.dword	28
	.dword	31
	.dword	30
	.dword	31
	.dword	30
	.dword	31
	.dword	30
	.dword	31
	.dword	30
	.dword	31
	.dword	30
	.section	.rodata
	.align	3
.LC0:
	.string	"l"
	.string	"s"
	.zero	2
	.align	3
.LC1:
	.string	"T"
	.string	"R"
	.string	"U"
	.string	"E"
	.zero	2
	.align	3
.LC2:
	.string	"F"
	.string	"A"
	.string	"L"
	.string	"S"
	.string	"E"
	.zero	2
	.section	.text.PrintSfoVolumeInfoTableEntry,"ax",@progbits
	.align	1
	.globl	PrintSfoVolumeInfoTableEntry
	.type	PrintSfoVolumeInfoTableEntry, @function
PrintSfoVolumeInfoTableEntry:
.LFB0:
	.file 1 "/home/kapoagaeming/spacemit-image-builder/components/edk2/ShellPkg/Library/UefiShellLevel2CommandsLib/Ls.c"
	.loc 1 24 1
	.cfi_startproc
	addi	sp,sp,-112
	.cfi_def_cfa_offset 112
	sd	ra,104(sp)
	sd	s0,96(sp)
	.cfi_offset 1, -8
	.cfi_offset 8, -16
	addi	s0,sp,112
	.cfi_def_cfa 8, 0
	sd	a0,-88(s0)
	.loc 1 36 39
	ld	a5,-88(s0)
	mv	a0,a5
	call	GetFirstNode@plt
	sd	a0,-32(s0)
	.loc 1 36 3
	j	.L2
.L4:
	.loc 1 38 41
	ld	a5,-88(s0)
	.loc 1 38 70
	ld	a4,-32(s0)
	.loc 1 38 41
	mv	a1,a4
	mv	a0,a5
	call	GetNextNode@plt
	sd	a0,-32(s0)
.L2:
	.loc 1 37 12
	ld	a5,-88(s0)
	.loc 1 37 36
	ld	a4,-32(s0)
	.loc 1 37 12
	mv	a1,a4
	mv	a0,a5
	call	IsNull@plt
	mv	a5,a0
	.loc 1 37 49 discriminator 1
	bne	a5,zero,.L3
	.loc 1 37 56 discriminator 2
	ld	a5,-32(s0)
	ld	a5,40(a5)
	.loc 1 37 49 discriminator 2
	beq	a5,zero,.L4
.L3:
	.loc 1 43 11
	ld	a5,-32(s0)
	ld	a5,40(a5)
	.loc 1 43 6
	bne	a5,zero,.L5
	.loc 1 44 68
	ld	a5,-88(s0)
	mv	a0,a5
	call	GetFirstNode@plt
	mv	a5,a0
	.loc 1 44 21 discriminator 1
	ld	a5,24(a5)
	mv	a0,a5
	call	GetFullyQualifiedPath@plt
	sd	a0,-56(s0)
	.loc 1 45 8
	ld	a5,-56(s0)
	bne	a5,zero,.L6
	.loc 1 46 14
	li	a5,-1
	slli	a5,a5,63
	addi	a5,a5,9
	j	.L15
.L6:
	.loc 1 52 31
	la	a5,gEfiShellProtocol
	ld	a5,0(a5)
	ld	a5,192(a5)
	.loc 1 52 14
	addi	a4,s0,-72
	li	a2,1
	mv	a1,a4
	ld	a0,-56(s0)
	jalr	a5
.LVL0:
	sd	a0,-24(s0)
	.loc 1 59 5
	ld	a0,-56(s0)
	call	FreePool@plt
	.loc 1 64 13
	sd	zero,-40(s0)
	.loc 1 65 17
	sd	zero,-64(s0)
	.loc 1 66 19
	ld	a5,-72(s0)
	mv	a0,a5
	call	ConvertShellHandleToEfiFileProtocol@plt
	sd	a0,-48(s0)
	.loc 1 67 25
	ld	a5,-48(s0)
	ld	a5,64(a5)
	.loc 1 67 14
	addi	a4,s0,-64
	ld	a3,-40(s0)
	mv	a2,a4
	la	a1,gEfiFileSystemInfoGuid
	ld	a0,-48(s0)
	jalr	a5
.LVL1:
	sd	a0,-24(s0)
	.loc 1 74 8
	ld	a4,-24(s0)
	li	a5,-1
	slli	a5,a5,63
	addi	a5,a5,5
	bne	a4,a5,.L8
	.loc 1 75 17
	ld	a5,-64(s0)
	mv	a0,a5
	call	AllocateZeroPool@plt
	sd	a0,-40(s0)
	.loc 1 76 10
	ld	a5,-40(s0)
	bne	a5,zero,.L9
	.loc 1 77 26
	la	a5,gEfiShellProtocol
	ld	a5,0(a5)
	ld	a5,200(a5)
	.loc 1 77 9
	ld	a4,-72(s0)
	mv	a0,a4
	jalr	a5
.LVL2:
	.loc 1 78 16
	li	a5,-1
	slli	a5,a5,63
	addi	a5,a5,9
	j	.L15
.L9:
	.loc 1 81 27
	ld	a5,-48(s0)
	ld	a5,64(a5)
	.loc 1 81 16
	addi	a4,s0,-64
	ld	a3,-40(s0)
	mv	a2,a4
	la	a1,gEfiFileSystemInfoGuid
	ld	a0,-48(s0)
	jalr	a5
.LVL3:
	sd	a0,-24(s0)
.L8:
	.loc 1 91 22
	la	a5,gEfiShellProtocol
	ld	a5,0(a5)
	ld	a5,200(a5)
	.loc 1 91 5
	ld	a4,-72(s0)
	mv	a0,a4
	jalr	a5
.LVL4:
	j	.L10
.L5:
	.loc 1 96 13
	sd	zero,-40(s0)
	.loc 1 97 17
	sd	zero,-64(s0)
	.loc 1 98 60
	ld	a5,-32(s0)
	ld	a5,40(a5)
	.loc 1 98 19
	mv	a0,a5
	call	ConvertShellHandleToEfiFileProtocol@plt
	sd	a0,-48(s0)
	.loc 1 99 25
	ld	a5,-48(s0)
	ld	a5,64(a5)
	.loc 1 99 14
	addi	a4,s0,-64
	ld	a3,-40(s0)
	mv	a2,a4
	la	a1,gEfiFileSystemInfoGuid
	ld	a0,-48(s0)
	jalr	a5
.LVL5:
	sd	a0,-24(s0)
	.loc 1 106 8
	ld	a4,-24(s0)
	li	a5,-1
	slli	a5,a5,63
	addi	a5,a5,5
	bne	a4,a5,.L10
	.loc 1 107 17
	ld	a5,-64(s0)
	mv	a0,a5
	call	AllocateZeroPool@plt
	sd	a0,-40(s0)
	.loc 1 108 10
	ld	a5,-40(s0)
	bne	a5,zero,.L11
	.loc 1 109 16
	li	a5,-1
	slli	a5,a5,63
	addi	a5,a5,9
	j	.L15
.L11:
	.loc 1 112 27
	ld	a5,-48(s0)
	ld	a5,64(a5)
	.loc 1 112 16
	addi	a4,s0,-64
	ld	a3,-40(s0)
	mv	a2,a4
	la	a1,gEfiFileSystemInfoGuid
	ld	a0,-48(s0)
	jalr	a5
.LVL6:
	sd	a0,-24(s0)
.L10:
	.loc 1 123 3
	la	a5,gShellLevel2HiiHandle
	ld	a4,0(a5)
	lla	a5,.LC0
	li	a3,25
	li	a2,0
	li	a1,-1
	li	a0,-1
	call	ShellPrintHiiEx@plt
	.loc 1 137 8
	la	a5,gST
	ld	a5,0(a5)
	ld	a5,64(a5)
	.loc 1 137 16
	ld	a5,72(a5)
	.loc 1 135 3
	lw	a1,16(a5)
	la	a5,gShellLevel2HiiHandle
	ld	a2,0(a5)
	.loc 1 141 12
	ld	a5,-40(s0)
	addi	a0,a5,36
	.loc 1 135 3
	ld	a5,-40(s0)
	ld	a6,16(a5)
	.loc 1 143 12
	ld	a5,-40(s0)
	lbu	a5,8(a5)
	.loc 1 135 3
	beq	a5,zero,.L12
	.loc 1 135 3 is_stmt 0 discriminator 1
	lla	a5,.LC1
	j	.L13
.L12:
	.loc 1 135 3 discriminator 2
	lla	a5,.LC2
.L13:
	.loc 1 135 3 discriminator 4
	ld	a4,-40(s0)
	ld	a4,24(a4)
	ld	a3,-40(s0)
	lw	a3,32(a3)
	sd	a3,8(sp)
	sd	a4,0(sp)
	mv	a7,a5
	mv	a5,a0
	mv	a4,a2
	li	a3,112
	li	a2,0
	li	a0,0
	call	ShellPrintHiiEx@plt
	.loc 1 148 11 is_stmt 1
	ld	a5,-40(s0)
	beq	a5,zero,.L14
	.loc 1 148 41 discriminator 1
	ld	a0,-40(s0)
	call	FreePool@plt
	.loc 1 148 72 discriminator 2
	sd	zero,-40(s0)
.L14:
	.loc 1 150 10
	ld	a5,-24(s0)
.L15:
	.loc 1 151 1
	mv	a0,a5
	ld	ra,104(sp)
	.cfi_restore 1
	ld	s0,96(sp)
	.cfi_restore 8
	.cfi_def_cfa 2, 112
	addi	sp,sp,112
	.cfi_def_cfa_offset 0
	jr	ra
	.cfi_endproc
.LFE0:
	.size	PrintSfoVolumeInfoTableEntry, .-PrintSfoVolumeInfoTableEntry
	.section	.rodata
	.align	3
.LC3:
	.string	"a"
	.zero	2
	.align	3
.LC4:
	.zero	2
	.align	3
.LC5:
	.string	"d"
	.zero	2
	.align	3
.LC6:
	.string	"h"
	.zero	2
	.align	3
.LC7:
	.string	"r"
	.zero	2
	.align	3
.LC8:
	.string	"s"
	.zero	2
	.align	3
.LC9:
	.string	"<"
	.string	"D"
	.string	"I"
	.string	"R"
	.string	">"
	.zero	2
	.align	3
.LC10:
	.string	"."
	.string	"n"
	.string	"s"
	.string	"h"
	.zero	2
	.align	3
.LC11:
	.string	"."
	.string	"e"
	.string	"f"
	.string	"i"
	.zero	2
	.section	.text.PrintFileInformation,"ax",@progbits
	.align	1
	.globl	PrintFileInformation
	.type	PrintFileInformation, @function
PrintFileInformation:
.LFB1:
	.loc 1 171 1
	.cfi_startproc
	addi	sp,sp,-368
	.cfi_def_cfa_offset 368
	sd	ra,360(sp)
	sd	s0,352(sp)
	sd	s1,344(sp)
	sd	s2,336(sp)
	sd	s3,328(sp)
	sd	s4,320(sp)
	sd	s5,312(sp)
	sd	s6,304(sp)
	sd	s7,296(sp)
	sd	s8,288(sp)
	sd	s9,280(sp)
	sd	s10,272(sp)
	sd	s11,264(sp)
	.cfi_offset 1, -8
	.cfi_offset 8, -16
	.cfi_offset 9, -24
	.cfi_offset 18, -32
	.cfi_offset 19, -40
	.cfi_offset 20, -48
	.cfi_offset 21, -56
	.cfi_offset 22, -64
	.cfi_offset 23, -72
	.cfi_offset 24, -80
	.cfi_offset 25, -88
	.cfi_offset 26, -96
	.cfi_offset 27, -104
	addi	s0,sp,368
	.cfi_def_cfa 8, 0
	mv	a5,a0
	sd	a1,-128(s0)
	sd	a2,-136(s0)
	sd	a3,-144(s0)
	sd	a4,-152(s0)
	sb	a5,-113(s0)
	.loc 1 177 6
	lbu	a5,-113(s0)
	andi	a5,a5,0xff
	beq	a5,zero,.L17
	.loc 1 183 10
	la	a5,gST
	ld	a5,0(a5)
	ld	a5,64(a5)
	.loc 1 183 18
	ld	a5,72(a5)
	.loc 1 181 5
	lw	s9,16(a5)
	la	a5,gShellLevel2HiiHandle
	ld	s10,0(a5)
	.loc 1 187 14
	ld	a5,-128(s0)
	ld	s11,24(a5)
	.loc 1 188 14
	ld	a5,-128(s0)
	ld	a5,48(a5)
	.loc 1 181 5
	ld	a5,8(a5)
	sd	a5,-160(s0)
	.loc 1 189 14
	ld	a5,-128(s0)
	ld	a5,48(a5)
	.loc 1 181 5
	ld	a5,16(a5)
	sd	a5,-168(s0)
	.loc 1 190 15
	ld	a5,-128(s0)
	ld	a5,48(a5)
	.loc 1 190 21
	ld	a5,72(a5)
	.loc 1 190 33
	andi	a5,a5,32
	.loc 1 181 5
	beq	a5,zero,.L18
	.loc 1 181 5 is_stmt 0 discriminator 1
	lla	a4,.LC3
	j	.L19
.L18:
	.loc 1 181 5 discriminator 2
	lla	a4,.LC4
.L19:
	.loc 1 191 15 is_stmt 1
	ld	a5,-128(s0)
	ld	a5,48(a5)
	.loc 1 191 21
	ld	a5,72(a5)
	.loc 1 191 33
	andi	a5,a5,16
	.loc 1 181 5 discriminator 4
	beq	a5,zero,.L20
	.loc 1 181 5 is_stmt 0 discriminator 5
	lla	a3,.LC5
	j	.L21
.L20:
	.loc 1 181 5 discriminator 6
	lla	a3,.LC4
.L21:
	.loc 1 192 15 is_stmt 1
	ld	a5,-128(s0)
	ld	a5,48(a5)
	.loc 1 192 21
	ld	a5,72(a5)
	.loc 1 192 33
	andi	a5,a5,2
	.loc 1 181 5 discriminator 8
	beq	a5,zero,.L22
	.loc 1 181 5 is_stmt 0 discriminator 9
	lla	a2,.LC6
	j	.L23
.L22:
	.loc 1 181 5 discriminator 10
	lla	a2,.LC4
.L23:
	.loc 1 193 15 is_stmt 1
	ld	a5,-128(s0)
	ld	a5,48(a5)
	.loc 1 193 21
	ld	a5,72(a5)
	.loc 1 193 33
	andi	a5,a5,1
	.loc 1 181 5 discriminator 12
	beq	a5,zero,.L24
	.loc 1 181 5 is_stmt 0 discriminator 13
	lla	a1,.LC7
	j	.L25
.L24:
	.loc 1 181 5 discriminator 14
	lla	a1,.LC4
.L25:
	.loc 1 194 15 is_stmt 1
	ld	a5,-128(s0)
	ld	a5,48(a5)
	.loc 1 194 21
	ld	a5,72(a5)
	.loc 1 194 33
	andi	a5,a5,4
	.loc 1 181 5 discriminator 16
	beq	a5,zero,.L26
	.loc 1 181 5 is_stmt 0 discriminator 17
	lla	a0,.LC8
	j	.L27
.L26:
	.loc 1 181 5 discriminator 18
	lla	a0,.LC4
.L27:
	.loc 1 195 14 is_stmt 1
	ld	a5,-128(s0)
	ld	a5,48(a5)
	.loc 1 195 32
	lbu	a5,28(a5)
	.loc 1 181 5 discriminator 20
	sext.w	a7,a5
	.loc 1 196 14
	ld	a5,-128(s0)
	ld	a5,48(a5)
	.loc 1 196 32
	lbu	a5,29(a5)
	.loc 1 181 5 discriminator 20
	sext.w	t1,a5
	.loc 1 197 14
	ld	a5,-128(s0)
	ld	a5,48(a5)
	.loc 1 197 32
	lbu	a5,30(a5)
	.loc 1 181 5 discriminator 20
	sext.w	t3,a5
	.loc 1 198 14
	ld	a5,-128(s0)
	ld	a5,48(a5)
	.loc 1 198 32
	lbu	a5,27(a5)
	.loc 1 181 5 discriminator 20
	sext.w	t4,a5
	.loc 1 199 14
	ld	a5,-128(s0)
	ld	a5,48(a5)
	.loc 1 199 32
	lbu	a5,26(a5)
	.loc 1 181 5 discriminator 20
	sext.w	t5,a5
	.loc 1 200 14
	ld	a5,-128(s0)
	ld	a5,48(a5)
	.loc 1 200 32
	lhu	a5,24(a5)
	.loc 1 181 5 discriminator 20
	sext.w	t6,a5
	.loc 1 201 14
	ld	a5,-128(s0)
	ld	a5,48(a5)
	.loc 1 201 36
	lbu	a5,44(a5)
	.loc 1 181 5 discriminator 20
	sext.w	t0,a5
	.loc 1 202 14
	ld	a5,-128(s0)
	ld	a5,48(a5)
	.loc 1 202 36
	lbu	a5,45(a5)
	.loc 1 181 5 discriminator 20
	sext.w	t2,a5
	.loc 1 203 14
	ld	a5,-128(s0)
	ld	a5,48(a5)
	.loc 1 203 36
	lbu	a5,46(a5)
	.loc 1 181 5 discriminator 20
	sext.w	s1,a5
	.loc 1 204 14
	ld	a5,-128(s0)
	ld	a5,48(a5)
	.loc 1 204 36
	lbu	a5,43(a5)
	.loc 1 181 5 discriminator 20
	sext.w	s2,a5
	.loc 1 205 14
	ld	a5,-128(s0)
	ld	a5,48(a5)
	.loc 1 205 36
	lbu	a5,42(a5)
	.loc 1 181 5 discriminator 20
	sext.w	s3,a5
	.loc 1 206 14
	ld	a5,-128(s0)
	ld	a5,48(a5)
	.loc 1 206 36
	lhu	a5,40(a5)
	.loc 1 181 5 discriminator 20
	sext.w	s4,a5
	.loc 1 207 14
	ld	a5,-128(s0)
	ld	a5,48(a5)
	.loc 1 207 38
	lbu	a5,60(a5)
	.loc 1 181 5 discriminator 20
	sext.w	s5,a5
	.loc 1 208 14
	ld	a5,-128(s0)
	ld	a5,48(a5)
	.loc 1 208 38
	lbu	a5,61(a5)
	.loc 1 181 5 discriminator 20
	sext.w	s6,a5
	.loc 1 209 14
	ld	a5,-128(s0)
	ld	a5,48(a5)
	.loc 1 209 38
	lbu	a5,62(a5)
	.loc 1 181 5 discriminator 20
	sext.w	s7,a5
	.loc 1 210 14
	ld	a5,-128(s0)
	ld	a5,48(a5)
	.loc 1 210 38
	lbu	a5,59(a5)
	.loc 1 181 5 discriminator 20
	sext.w	s8,a5
	.loc 1 211 14
	ld	a5,-128(s0)
	ld	a5,48(a5)
	.loc 1 211 38
	lbu	a5,58(a5)
	.loc 1 181 5 discriminator 20
	sext.w	a6,a5
	.loc 1 212 14
	ld	a5,-128(s0)
	ld	a5,48(a5)
	.loc 1 212 38
	lhu	a5,56(a5)
	.loc 1 181 5 discriminator 20
	sext.w	a5,a5
	sd	a5,176(sp)
	sd	a6,168(sp)
	sd	s8,160(sp)
	sd	s7,152(sp)
	sd	s6,144(sp)
	sd	s5,136(sp)
	sd	s4,128(sp)
	sd	s3,120(sp)
	sd	s2,112(sp)
	sd	s1,104(sp)
	sd	t2,96(sp)
	sd	t0,88(sp)
	sd	t6,80(sp)
	sd	t5,72(sp)
	sd	t4,64(sp)
	sd	t3,56(sp)
	sd	t1,48(sp)
	sd	a7,40(sp)
	sd	a0,32(sp)
	sd	a1,24(sp)
	sd	a2,16(sp)
	sd	a3,8(sp)
	sd	a4,0(sp)
	ld	a7,-168(s0)
	ld	a6,-160(s0)
	mv	a5,s11
	mv	a4,s10
	li	a3,113
	li	a2,0
	mv	a1,s9
	li	a0,0
	call	ShellPrintHiiEx@plt
	.loc 1 267 1
	j	.L36
.L17:
	.loc 1 219 5
	la	a5,gShellLevel2HiiHandle
	ld	a2,0(a5)
	.loc 1 225 15
	ld	a5,-128(s0)
	ld	a5,48(a5)
	.loc 1 219 5
	addi	a1,a5,56
	.loc 1 226 15
	ld	a5,-128(s0)
	ld	a5,48(a5)
	.loc 1 226 21
	ld	a5,72(a5)
	.loc 1 226 33
	andi	a5,a5,16
	.loc 1 219 5
	beq	a5,zero,.L29
	.loc 1 219 5 is_stmt 0 discriminator 1
	lla	a5,.LC9
	j	.L30
.L29:
	.loc 1 219 5 discriminator 2
	lla	a5,.LC4
.L30:
	.loc 1 227 15 is_stmt 1
	ld	a4,-128(s0)
	ld	a4,48(a4)
	.loc 1 227 21
	ld	a4,72(a4)
	.loc 1 227 33
	andi	a4,a4,1
	.loc 1 219 5 discriminator 4
	beq	a4,zero,.L31
	.loc 1 219 5 is_stmt 0 discriminator 5
	li	a4,114
	j	.L32
.L31:
	.loc 1 219 5 discriminator 6
	li	a4,32
.L32:
	.loc 1 228 14 is_stmt 1
	ld	a3,-128(s0)
	ld	a3,48(a3)
	.loc 1 219 5
	ld	a3,8(a3)
	sd	a3,0(sp)
	mv	a7,a4
	mv	a6,a5
	mv	a5,a1
	mv	a4,a2
	li	a3,105
	li	a2,0
	li	a1,-1
	li	a0,-1
	call	ShellPrintHiiEx@plt
	.loc 1 230 16
	ld	a5,-128(s0)
	ld	a5,48(a5)
	.loc 1 230 22
	ld	a5,72(a5)
	.loc 1 230 34
	andi	a5,a5,16
	.loc 1 230 8
	beq	a5,zero,.L33
	.loc 1 231 8
	ld	a5,-152(s0)
	ld	a5,0(a5)
	.loc 1 231 14
	addi	a4,a5,1
	ld	a5,-152(s0)
	sd	a4,0(a5)
	.loc 1 232 7
	la	a5,gShellLevel2HiiHandle
	ld	a4,0(a5)
	.loc 1 238 16
	ld	a5,-128(s0)
	ld	a5,32(a5)
	.loc 1 232 7
	li	a3,108
	li	a2,0
	li	a1,-1
	li	a0,-1
	call	ShellPrintHiiEx@plt
	.loc 1 267 1
	j	.L36
.L33:
	.loc 1 241 8
	ld	a5,-136(s0)
	ld	a5,0(a5)
	.loc 1 241 15
	addi	a4,a5,1
	ld	a5,-136(s0)
	sd	a4,0(a5)
	.loc 1 242 8
	ld	a5,-144(s0)
	ld	a4,0(a5)
	.loc 1 242 25
	ld	a5,-128(s0)
	ld	a5,48(a5)
	.loc 1 242 31
	ld	a5,8(a5)
	.loc 1 242 15
	add	a4,a4,a5
	ld	a5,-144(s0)
	sd	a4,0(a5)
	.loc 1 243 30
	la	a5,gUnicodeCollation
	ld	a5,0(a5)
	ld	s1,0(a5)
	.loc 1 243 13
	la	a5,gUnicodeCollation
	ld	s3,0(a5)
	.loc 1 243 99
	ld	a5,-128(s0)
	ld	s2,32(a5)
	.loc 1 243 125
	ld	a5,-128(s0)
	ld	a5,32(a5)
	.loc 1 243 110
	mv	a0,a5
	call	StrLen@plt
	mv	a5,a0
	.loc 1 243 109 discriminator 1
	slli	a5,a5,1
	addi	a5,a5,-8
	.loc 1 243 90 discriminator 1
	add	a5,s2,a5
	.loc 1 243 13 discriminator 1
	mv	a2,a5
	lla	a1,.LC10
	mv	a0,s3
	jalr	s1
.LVL7:
	mv	a5,a0
	.loc 1 243 10 discriminator 2
	beq	a5,zero,.L34
	.loc 1 244 31
	la	a5,gUnicodeCollation
	ld	a5,0(a5)
	ld	s1,0(a5)
	.loc 1 244 14
	la	a5,gUnicodeCollation
	ld	s3,0(a5)
	.loc 1 244 100
	ld	a5,-128(s0)
	ld	s2,32(a5)
	.loc 1 244 126
	ld	a5,-128(s0)
	ld	a5,32(a5)
	.loc 1 244 111
	mv	a0,a5
	call	StrLen@plt
	mv	a5,a0
	.loc 1 244 110 discriminator 1
	slli	a5,a5,1
	addi	a5,a5,-8
	.loc 1 244 91 discriminator 1
	add	a5,s2,a5
	.loc 1 244 14 discriminator 1
	mv	a2,a5
	lla	a1,.LC11
	mv	a0,s3
	jalr	s1
.LVL8:
	mv	a5,a0
	.loc 1 244 10 discriminator 2
	bne	a5,zero,.L35
.L34:
	.loc 1 247 9
	la	a5,gShellLevel2HiiHandle
	ld	a4,0(a5)
	.loc 1 253 18
	ld	a5,-128(s0)
	ld	a5,32(a5)
	.loc 1 247 9
	li	a3,107
	li	a2,0
	li	a1,-1
	li	a0,-1
	call	ShellPrintHiiEx@plt
	.loc 1 267 1
	j	.L36
.L35:
	.loc 1 256 9
	la	a5,gShellLevel2HiiHandle
	ld	a4,0(a5)
	.loc 1 262 18
	ld	a5,-128(s0)
	ld	a5,32(a5)
	.loc 1 256 9
	li	a3,106
	li	a2,0
	li	a1,-1
	li	a0,-1
	call	ShellPrintHiiEx@plt
.L36:
	.loc 1 267 1
	nop
	ld	ra,360(sp)
	.cfi_restore 1
	ld	s0,352(sp)
	.cfi_restore 8
	.cfi_def_cfa 2, 368
	ld	s1,344(sp)
	.cfi_restore 9
	ld	s2,336(sp)
	.cfi_restore 18
	ld	s3,328(sp)
	.cfi_restore 19
	ld	s4,320(sp)
	.cfi_restore 20
	ld	s5,312(sp)
	.cfi_restore 21
	ld	s6,304(sp)
	.cfi_restore 22
	ld	s7,296(sp)
	.cfi_restore 23
	ld	s8,288(sp)
	.cfi_restore 24
	ld	s9,280(sp)
	.cfi_restore 25
	ld	s10,272(sp)
	.cfi_restore 26
	ld	s11,264(sp)
	.cfi_restore 27
	addi	sp,sp,368
	.cfi_def_cfa_offset 0
	jr	ra
	.cfi_endproc
.LFE1:
	.size	PrintFileInformation, .-PrintFileInformation
	.section	.text.PrintNonSfoHeader,"ax",@progbits
	.align	1
	.globl	PrintNonSfoHeader
	.type	PrintNonSfoHeader, @function
PrintNonSfoHeader:
.LFB2:
	.loc 1 278 1
	.cfi_startproc
	addi	sp,sp,-48
	.cfi_def_cfa_offset 48
	sd	ra,40(sp)
	sd	s0,32(sp)
	.cfi_offset 1, -8
	.cfi_offset 8, -16
	addi	s0,sp,48
	.cfi_def_cfa 8, 0
	sd	a0,-40(s0)
	.loc 1 284 19
	ld	a0,-40(s0)
	call	GetFullyQualifiedPath@plt
	sd	a0,-24(s0)
	.loc 1 286 6
	ld	a5,-24(s0)
	beq	a5,zero,.L39
	.loc 1 292 10
	la	a5,gST
	ld	a5,0(a5)
	ld	a5,64(a5)
	.loc 1 292 18
	ld	a5,72(a5)
	.loc 1 290 5
	lw	a1,16(a5)
	la	a5,gShellLevel2HiiHandle
	ld	a4,0(a5)
	ld	a5,-24(s0)
	li	a3,110
	li	a2,0
	li	a0,0
	call	ShellPrintHiiEx@plt
	.loc 1 299 13
	ld	a5,-24(s0)
	beq	a5,zero,.L39
	.loc 1 299 49 discriminator 1
	ld	a0,-24(s0)
	call	FreePool@plt
	.loc 1 299 92 discriminator 2
	sd	zero,-24(s0)
.L39:
	.loc 1 301 1
	nop
	ld	ra,40(sp)
	.cfi_restore 1
	ld	s0,32(sp)
	.cfi_restore 8
	.cfi_def_cfa 2, 48
	addi	sp,sp,48
	.cfi_def_cfa_offset 0
	jr	ra
	.cfi_endproc
.LFE2:
	.size	PrintNonSfoHeader, .-PrintNonSfoHeader
	.section	.text.PrintNonSfoFooter,"ax",@progbits
	.align	1
	.globl	PrintNonSfoFooter
	.type	PrintNonSfoFooter, @function
PrintNonSfoFooter:
.LFB3:
	.loc 1 316 1
	.cfi_startproc
	addi	sp,sp,-48
	.cfi_def_cfa_offset 48
	sd	ra,40(sp)
	sd	s0,32(sp)
	.cfi_offset 1, -8
	.cfi_offset 8, -16
	addi	s0,sp,48
	.cfi_def_cfa 8, 0
	sd	a0,-24(s0)
	sd	a1,-32(s0)
	sd	a2,-40(s0)
	.loc 1 320 3
	la	a5,gShellLevel2HiiHandle
	ld	a4,0(a5)
	ld	a7,-40(s0)
	ld	a6,-32(s0)
	ld	a5,-24(s0)
	li	a3,109
	li	a2,0
	li	a1,-1
	li	a0,-1
	call	ShellPrintHiiEx@plt
	.loc 1 330 1
	nop
	ld	ra,40(sp)
	.cfi_restore 1
	ld	s0,32(sp)
	.cfi_restore 8
	.cfi_def_cfa 2, 48
	addi	sp,sp,48
	.cfi_def_cfa_offset 0
	jr	ra
	.cfi_endproc
.LFE3:
	.size	PrintNonSfoFooter, .-PrintNonSfoFooter
	.section	.text.FileTimeToLocalTime,"ax",@progbits
	.align	1
	.globl	FileTimeToLocalTime
	.type	FileTimeToLocalTime, @function
FileTimeToLocalTime:
.LFB4:
	.loc 1 343 1
	.cfi_startproc
	addi	sp,sp,-112
	.cfi_def_cfa_offset 112
	sd	ra,104(sp)
	sd	s0,96(sp)
	.cfi_offset 1, -8
	.cfi_offset 8, -16
	addi	s0,sp,112
	.cfi_def_cfa 8, 0
	sd	a0,-104(s0)
	mv	a5,a1
	sh	a5,-106(s0)
	.loc 1 359 11
	ld	a5,-104(s0)
	lh	a5,12(a5)
	.loc 1 359 6
	lh	a4,-106(s0)
	sext.w	a4,a4
	beq	a4,a5,.L51
	.loc 1 366 13
	ld	a5,-104(s0)
	lhu	a5,0(a5)
	.loc 1 366 24
	andi	a5,a5,3
	slli	a5,a5,48
	srli	a5,a5,48
	.loc 1 366 6
	bne	a5,zero,.L44
	.loc 1 366 38 discriminator 1
	ld	a5,-104(s0)
	lhu	a5,0(a5)
	.loc 1 366 30 discriminator 1
	sext.w	a4,a5
	li	a5,99
	bgtu	a4,a5,.L45
.L44:
	.loc 1 366 66 discriminator 3
	ld	a5,-104(s0)
	lhu	a5,0(a5)
	.loc 1 366 79 discriminator 3
	mv	a3,a5
	slli	a4,a3,32
	srli	a4,a4,32
	li	a5,1374388224
	addi	a5,a5,1311
	mul	a5,a4,a5
	srli	a5,a5,32
	srliw	a5,a5,7
	mv	a4,a5
	li	a5,400
	mulw	a5,a4,a5
	subw	a5,a3,a5
	slli	a5,a5,48
	srli	a5,a5,48
	.loc 1 366 58 discriminator 3
	bne	a5,zero,.L46
.L45:
	.loc 1 370 20
	lla	a5,mDayOfMonth
	li	a4,29
	sd	a4,8(a5)
.L46:
	.loc 1 373 20
	ld	a5,-104(s0)
	lh	a5,12(a5)
	mv	a4,a5
	.loc 1 373 31
	lh	a5,-106(s0)
	sext.w	a5,a5
	subw	a5,a4,a5
	sext.w	a5,a5
	.loc 1 373 14
	sd	a5,-64(s0)
	.loc 1 374 20
	ld	a5,-104(s0)
	lbu	a5,5(a5)
	mv	a4,a5
	.loc 1 374 14
	ld	a5,-64(s0)
	add	a5,a5,a4
	sd	a5,-72(s0)
	.loc 1 380 26
	ld	a5,-72(s0)
	lla	a4,.LC12
	ld	a4,0(a4)
	mulh	a4,a5,a4
	add	a4,a4,a5
	srai	a4,a4,5
	srai	a5,a5,63
	sub	a5,a4,a5
	sd	a5,-24(s0)
	.loc 1 381 6
	ld	a5,-72(s0)
	bge	a5,zero,.L47
	.loc 1 382 27
	ld	a5,-24(s0)
	addi	a5,a5,-1
	sd	a5,-24(s0)
.L47:
	.loc 1 385 18
	ld	a5,-104(s0)
	lbu	a5,4(a5)
	mv	a4,a5
	.loc 1 385 12
	ld	a5,-24(s0)
	add	a5,a5,a4
	sd	a5,-80(s0)
	.loc 1 386 18
	ld	a5,-72(s0)
	andi	a4,a5,0xff
	ld	a5,-24(s0)
	andi	a5,a5,0xff
	mv	a3,a5
	mv	a5,a3
	slliw	a5,a5,4
	subw	a5,a5,a3
	slliw	a5,a5,2
	andi	a5,a5,0xff
	subw	a5,a4,a5
	andi	a4,a5,0xff
	.loc 1 386 16
	ld	a5,-104(s0)
	sb	a4,5(a5)
	.loc 1 392 23
	ld	a5,-80(s0)
	lla	a4,.LC13
	ld	a4,0(a4)
	mulh	a4,a5,a4
	srai	a4,a4,2
	srai	a5,a5,63
	sub	a5,a4,a5
	sd	a5,-32(s0)
	.loc 1 393 6
	ld	a5,-80(s0)
	bge	a5,zero,.L48
	.loc 1 394 24
	ld	a5,-32(s0)
	addi	a5,a5,-1
	sd	a5,-32(s0)
.L48:
	.loc 1 397 17
	ld	a5,-104(s0)
	lbu	a5,3(a5)
	mv	a4,a5
	.loc 1 397 11
	ld	a5,-32(s0)
	add	a5,a5,a4
	sd	a5,-88(s0)
	.loc 1 398 16
	ld	a5,-80(s0)
	andi	a4,a5,0xff
	ld	a5,-32(s0)
	andi	a5,a5,0xff
	mv	a3,a5
	mv	a5,a3
	slliw	a5,a5,1
	addw	a5,a5,a3
	slliw	a5,a5,3
	andi	a5,a5,0xff
	subw	a5,a4,a5
	andi	a4,a5,0xff
	.loc 1 398 14
	ld	a5,-104(s0)
	sb	a4,4(a5)
	.loc 1 404 35
	ld	a5,-88(s0)
	addi	a5,a5,-1
	.loc 1 404 64
	ld	a4,-104(s0)
	lbu	a4,2(a4)
	sext.w	a4,a4
	.loc 1 404 72
	addiw	a4,a4,-1
	sext.w	a4,a4
	.loc 1 404 59
	lla	a3,mDayOfMonth
	slli	a4,a4,3
	add	a4,a3,a4
	ld	a4,0(a4)
	.loc 1 404 24
	div	a5,a5,a4
	sd	a5,-40(s0)
	.loc 1 405 28
	ld	a5,-104(s0)
	lbu	a5,2(a5)
	.loc 1 405 15
	sd	a5,-56(s0)
	.loc 1 406 6
	ld	a5,-88(s0)
	bgt	a5,zero,.L49
	.loc 1 407 25
	ld	a5,-40(s0)
	addi	a5,a5,-1
	sd	a5,-40(s0)
	.loc 1 408 16
	ld	a5,-56(s0)
	addi	a5,a5,-1
	sd	a5,-56(s0)
.L49:
	.loc 1 411 19
	ld	a5,-104(s0)
	lbu	a5,2(a5)
	mv	a4,a5
	.loc 1 411 13
	ld	a5,-40(s0)
	add	a5,a5,a4
	sd	a5,-96(s0)
	.loc 1 412 15
	ld	a5,-88(s0)
	andi	a2,a5,0xff
	.loc 1 412 68
	ld	a5,-56(s0)
	addi	a3,a5,11
	.loc 1 412 74
	lla	a5,.LC13
	ld	a5,0(a5)
	mulh	a5,a3,a5
	srai	a4,a5,1
	srai	a5,a3,63
	sub	a4,a4,a5
	mv	a5,a4
	slli	a5,a5,1
	add	a5,a5,a4
	slli	a5,a5,2
	sub	a4,a3,a5
	.loc 1 412 50
	lla	a3,mDayOfMonth
	slli	a5,a4,3
	add	a5,a3,a5
	ld	a5,0(a5)
	.loc 1 412 15
	andi	a4,a5,0xff
	ld	a5,-40(s0)
	andi	a5,a5,0xff
	mulw	a5,a4,a5
	andi	a5,a5,0xff
	subw	a5,a2,a5
	andi	a4,a5,0xff
	.loc 1 412 13
	ld	a5,-104(s0)
	sb	a4,3(a5)
	.loc 1 417 38
	ld	a5,-96(s0)
	addi	a5,a5,-1
	.loc 1 417 25
	lla	a4,.LC13
	ld	a4,0(a4)
	mulh	a4,a5,a4
	srai	a4,a4,1
	srai	a5,a5,63
	sub	a5,a4,a5
	sd	a5,-48(s0)
	.loc 1 418 6
	ld	a5,-96(s0)
	bgt	a5,zero,.L50
	.loc 1 419 26
	ld	a5,-48(s0)
	addi	a5,a5,-1
	sd	a5,-48(s0)
.L50:
	.loc 1 422 17
	ld	a5,-96(s0)
	andi	a4,a5,0xff
	ld	a5,-48(s0)
	andi	a5,a5,0xff
	mv	a3,a5
	mv	a5,a3
	slliw	a5,a5,1
	addw	a5,a5,a3
	slliw	a5,a5,2
	andi	a5,a5,0xff
	subw	a5,a4,a5
	andi	a4,a5,0xff
	.loc 1 422 15
	ld	a5,-104(s0)
	sb	a4,2(a5)
	.loc 1 423 29
	ld	a5,-104(s0)
	lhu	a4,0(a5)
	.loc 1 423 16
	ld	a5,-48(s0)
	slli	a5,a5,48
	srli	a5,a5,48
	addw	a5,a4,a5
	slli	a4,a5,48
	srli	a4,a4,48
	.loc 1 423 14
	ld	a5,-104(s0)
	sh	a4,0(a5)
	j	.L41
.L51:
	.loc 1 363 5
	nop
.L41:
	.loc 1 424 1
	ld	ra,104(sp)
	.cfi_restore 1
	ld	s0,96(sp)
	.cfi_restore 8
	.cfi_def_cfa 2, 112
	addi	sp,sp,112
	.cfi_def_cfa_offset 0
	jr	ra
	.cfi_endproc
.LFE4:
	.size	FileTimeToLocalTime, .-FileTimeToLocalTime
	.section	.rodata
	.align	3
.LC14:
	.string	"\\"
	.zero	2
	.align	3
.LC15:
	.string	"*"
	.zero	2
	.align	3
.LC16:
	.string	"."
	.zero	2
	.align	3
.LC17:
	.string	"."
	.string	"."
	.zero	2
	.section	.text.PrintLsOutput,"ax",@progbits
	.align	1
	.globl	PrintLsOutput
	.type	PrintLsOutput, @function
PrintLsOutput:
.LFB5:
	.loc 1 456 1
	.cfi_startproc
	addi	sp,sp,-192
	.cfi_def_cfa_offset 192
	sd	ra,184(sp)
	sd	s0,176(sp)
	sd	s1,168(sp)
	.cfi_offset 1, -8
	.cfi_offset 8, -16
	.cfi_offset 9, -24
	addi	s0,sp,192
	.cfi_def_cfa 8, 0
	sd	a1,-144(s0)
	sd	a3,-152(s0)
	sd	a4,-160(s0)
	sd	a5,-168(s0)
	sd	a6,-176(s0)
	mv	a4,a7
	mv	a5,a0
	sb	a5,-129(s0)
	mv	a5,a2
	sb	a5,-130(s0)
	mv	a5,a4
	sh	a5,-132(s0)
	.loc 1 470 17
	sb	zero,-45(s0)
	.loc 1 471 13
	sd	zero,-72(s0)
	.loc 1 472 12
	sd	zero,-80(s0)
	.loc 1 473 12
	sd	zero,-88(s0)
	.loc 1 474 12
	sd	zero,-64(s0)
	.loc 1 475 15
	sw	zero,-44(s0)
	.loc 1 476 15
	sd	zero,-96(s0)
	.loc 1 477 17
	sd	zero,-104(s0)
	.loc 1 479 6
	ld	a5,-168(s0)
	beq	a5,zero,.L53
	.loc 1 480 16
	ld	a5,-168(s0)
	lbu	a5,0(a5)
	.loc 1 480 14
	sb	a5,-105(s0)
	j	.L54
.L53:
	.loc 1 482 14
	sb	zero,-105(s0)
.L54:
	.loc 1 485 19
	addi	a4,s0,-96
	addi	a5,s0,-104
	li	a3,0
	ld	a2,-152(s0)
	mv	a1,a4
	mv	a0,a5
	call	StrnCatGrow@plt
	mv	a5,a0
	.loc 1 485 17 discriminator 1
	sd	a5,-104(s0)
	.loc 1 486 21
	ld	a5,-104(s0)
	.loc 1 486 6
	bne	a5,zero,.L55
	.loc 1 487 12
	li	a5,9
	j	.L91
.L55:
	.loc 1 490 22
	ld	s1,-104(s0)
	.loc 1 490 23
	ld	a5,-104(s0)
	mv	a0,a5
	call	StrLen@plt
	mv	a5,a0
	.loc 1 490 22 discriminator 1
	slli	a5,a5,1
	addi	a5,a5,-2
	add	a5,s1,a5
	lhu	a5,0(a5)
	.loc 1 490 6 discriminator 1
	sext.w	a4,a5
	li	a5,92
	beq	a4,a5,.L57
	.loc 1 491 23
	ld	s1,-104(s0)
	.loc 1 491 24
	ld	a5,-104(s0)
	mv	a0,a5
	call	StrLen@plt
	mv	a5,a0
	.loc 1 491 23 discriminator 1
	slli	a5,a5,1
	addi	a5,a5,-2
	add	a5,s1,a5
	lhu	a5,0(a5)
	.loc 1 491 6 discriminator 1
	sext.w	a4,a5
	li	a5,47
	beq	a4,a5,.L57
	.loc 1 493 21
	addi	a4,s0,-96
	addi	a5,s0,-104
	li	a3,0
	lla	a2,.LC14
	mv	a1,a4
	mv	a0,a5
	call	StrnCatGrow@plt
	mv	a5,a0
	.loc 1 493 19 discriminator 1
	sd	a5,-104(s0)
.L57:
	.loc 1 496 19
	addi	a4,s0,-96
	addi	a5,s0,-104
	li	a3,0
	ld	a2,-160(s0)
	mv	a1,a4
	mv	a0,a5
	call	StrnCatGrow@plt
	mv	a5,a0
	.loc 1 496 17 discriminator 1
	sd	a5,-104(s0)
	.loc 1 497 21
	ld	a5,-104(s0)
	.loc 1 497 6
	bne	a5,zero,.L58
	.loc 1 498 12
	li	a5,9
	j	.L91
.L58:
	.loc 1 501 3
	ld	a5,-104(s0)
	mv	a0,a5
	call	PathCleanUpDirectories@plt
	.loc 1 503 12
	ld	a5,-104(s0)
	addi	a4,s0,-64
	mv	a2,a4
	li	a1,1
	mv	a0,a5
	call	ShellOpenFileMetaArg@plt
	sd	a0,-56(s0)
	.loc 1 504 7
	ld	a5,-56(s0)
	.loc 1 504 6
	blt	a5,zero,.L59
	.loc 1 505 19
	ld	a5,-64(s0)
	.loc 1 505 8
	beq	a5,zero,.L60
	.loc 1 505 61 discriminator 1
	ld	a5,-64(s0)
	.loc 1 505 39 discriminator 1
	mv	a0,a5
	call	IsListEmpty@plt
	mv	a5,a0
	.loc 1 505 36 discriminator 2
	beq	a5,zero,.L61
.L60:
	.loc 1 506 32
	ld	a5,-104(s0)
	.loc 1 506 15
	beq	a5,zero,.L62
	.loc 1 506 51 discriminator 1
	ld	a5,-104(s0)
	mv	a0,a5
	call	FreePool@plt
	.loc 1 506 94 discriminator 2
	sd	zero,-104(s0)
.L62:
	.loc 1 507 14
	li	a5,0
	j	.L91
.L61:
	.loc 1 510 8
	lbu	a5,-130(s0)
	andi	a5,a5,0xff
	beq	a5,zero,.L63
	.loc 1 510 13 discriminator 1
	ld	a5,-168(s0)
	bne	a5,zero,.L63
	.loc 1 511 7
	ld	a5,-64(s0)
	mv	a0,a5
	call	PrintSfoVolumeInfoTableEntry
.L63:
	.loc 1 514 8
	lbu	a5,-130(s0)
	andi	a5,a5,0xff
	bne	a5,zero,.L64
	.loc 1 521 7
	addi	a5,s0,-64
	li	a2,0
	li	a1,0
	mv	a0,a5
	call	ShellSortFileList@plt
.L64:
	.loc 1 528 64
	ld	a5,-64(s0)
	.loc 1 528 41
	mv	a0,a5
	call	GetFirstNode@plt
	sd	a0,-40(s0)
	.loc 1 528 85 discriminator 1
	sd	zero,-96(s0)
	.loc 1 528 5
	j	.L65
.L78:
	.loc 1 533 11
	call	ShellGetExecutionBreakFlag@plt
	mv	a5,a0
	.loc 1 533 10 discriminator 1
	beq	a5,zero,.L66
	.loc 1 534 21
	li	a5,21
	sw	a5,-44(s0)
	.loc 1 535 9
	j	.L67
.L66:
	.loc 1 543 19
	la	a5,gRT
	ld	a5,0(a5)
	ld	a5,24(a5)
	.loc 1 543 16
	addi	a4,s0,-128
	li	a1,0
	mv	a0,a4
	jalr	a5
.LVL9:
	sd	a0,-56(s0)
	.loc 1 544 11
	ld	a5,-56(s0)
	.loc 1 544 10
	blt	a5,zero,.L68
	.loc 1 544 78 discriminator 1
	lh	a4,-116(s0)
	.loc 1 544 65 discriminator 1
	li	a5,2047
	beq	a4,a5,.L68
	.loc 1 545 18
	ld	a5,-40(s0)
	ld	a5,48(a5)
	.loc 1 545 36
	lh	a4,36(a5)
	.loc 1 545 12
	li	a5,2047
	beq	a4,a5,.L69
	.loc 1 546 19
	ld	a5,-40(s0)
	ld	a5,48(a5)
	.loc 1 546 37
	lbu	a5,26(a5)
	.loc 1 545 57 discriminator 1
	beq	a5,zero,.L69
	.loc 1 546 58
	ld	a5,-40(s0)
	ld	a5,48(a5)
	.loc 1 546 76
	lbu	a5,26(a5)
	.loc 1 546 50
	mv	a4,a5
	li	a5,12
	bgtu	a4,a5,.L69
	.loc 1 551 37
	ld	a5,-40(s0)
	ld	a5,48(a5)
	.loc 1 551 11
	addi	a5,a5,24
	lh	a4,-116(s0)
	mv	a1,a4
	mv	a0,a5
	call	FileTimeToLocalTime
.L69:
	.loc 1 554 18
	ld	a5,-40(s0)
	ld	a5,48(a5)
	.loc 1 554 40
	lh	a4,52(a5)
	.loc 1 554 12
	li	a5,2047
	beq	a4,a5,.L70
	.loc 1 555 19
	ld	a5,-40(s0)
	ld	a5,48(a5)
	.loc 1 555 41
	lbu	a5,42(a5)
	.loc 1 554 61 discriminator 1
	beq	a5,zero,.L70
	.loc 1 555 62
	ld	a5,-40(s0)
	ld	a5,48(a5)
	.loc 1 555 84
	lbu	a5,42(a5)
	.loc 1 555 54
	mv	a4,a5
	li	a5,12
	bgtu	a4,a5,.L70
	.loc 1 557 37
	ld	a5,-40(s0)
	ld	a5,48(a5)
	.loc 1 557 11
	addi	a5,a5,40
	lh	a4,-116(s0)
	mv	a1,a4
	mv	a0,a5
	call	FileTimeToLocalTime
.L70:
	.loc 1 560 18
	ld	a5,-40(s0)
	ld	a5,48(a5)
	.loc 1 560 42
	lh	a4,68(a5)
	.loc 1 560 12
	li	a5,2047
	beq	a4,a5,.L68
	.loc 1 561 19
	ld	a5,-40(s0)
	ld	a5,48(a5)
	.loc 1 561 43
	lbu	a5,58(a5)
	.loc 1 560 63 discriminator 1
	beq	a5,zero,.L68
	.loc 1 561 64
	ld	a5,-40(s0)
	ld	a5,48(a5)
	.loc 1 561 88
	lbu	a5,58(a5)
	.loc 1 561 56
	mv	a4,a5
	li	a5,12
	bgtu	a4,a5,.L68
	.loc 1 563 37
	ld	a5,-40(s0)
	ld	a5,48(a5)
	.loc 1 563 11
	addi	a5,a5,56
	lh	a4,-116(s0)
	mv	a1,a4
	mv	a0,a5
	call	FileTimeToLocalTime
.L68:
	.loc 1 567 25
	ld	a5,-40(s0)
	ld	a5,24(a5)
	mv	a0,a5
	call	StrSize@plt
	mv	a4,a0
	.loc 1 567 23 discriminator 1
	ld	a5,-96(s0)
	.loc 1 567 10 discriminator 1
	bleu	a4,a5,.L71
	.loc 1 568 23
	ld	a5,-40(s0)
	ld	a5,24(a5)
	mv	a0,a5
	call	StrSize@plt
	mv	a5,a0
	.loc 1 568 21 discriminator 1
	sd	a5,-96(s0)
.L71:
	.loc 1 573 10
	ld	a5,-144(s0)
	bne	a5,zero,.L72
	.loc 1 577 19
	ld	a5,-40(s0)
	ld	a5,48(a5)
	.loc 1 577 25
	ld	a5,72(a5)
	.loc 1 577 37
	andi	a5,a5,4
	.loc 1 577 12
	bne	a5,zero,.L92
	.loc 1 578 20
	ld	a5,-40(s0)
	ld	a5,48(a5)
	.loc 1 578 26
	ld	a5,72(a5)
	.loc 1 578 38
	andi	a5,a5,2
	.loc 1 578 12
	beq	a5,zero,.L74
	.loc 1 581 11
	j	.L92
.L72:
	.loc 1 583 17
	ld	a4,-144(s0)
	li	a5,55
	bne	a4,a5,.L76
	.loc 1 583 53 discriminator 1
	ld	a4,-176(s0)
	li	a5,5
	bne	a4,a5,.L74
.L76:
	.loc 1 593 18
	ld	a5,-40(s0)
	ld	a5,48(a5)
	.loc 1 593 24
	ld	a4,72(a5)
	.loc 1 593 36
	ld	a5,-144(s0)
	and	a5,a4,a5
	.loc 1 593 12
	ld	a4,-144(s0)
	bne	a4,a5,.L93
.L74:
	.loc 1 598 10
	lbu	a5,-130(s0)
	andi	a5,a5,0xff
	bne	a5,zero,.L77
	.loc 1 598 16 discriminator 1
	lbu	a5,-45(s0)
	andi	a5,a5,0xff
	bne	a5,zero,.L77
	.loc 1 599 9
	ld	a5,-104(s0)
	mv	a0,a5
	call	PathRemoveLastItem@plt
	.loc 1 600 9
	ld	a5,-104(s0)
	mv	a0,a5
	call	PrintNonSfoHeader
.L77:
	.loc 1 603 7
	addi	a4,s0,-80
	addi	a3,s0,-88
	addi	a2,s0,-72
	lbu	a5,-130(s0)
	ld	a1,-40(s0)
	mv	a0,a5
	call	PrintFileInformation
	.loc 1 604 16
	li	a5,1
	sb	a5,-105(s0)
	.loc 1 605 21
	li	a5,1
	sb	a5,-45(s0)
	j	.L75
.L92:
	.loc 1 581 11
	nop
	j	.L75
.L93:
	.loc 1 594 11
	nop
.L75:
	.loc 1 530 65
	ld	a5,-64(s0)
	.loc 1 530 56
	mv	a4,a5
	.loc 1 530 73
	ld	a5,-40(s0)
	.loc 1 530 43
	mv	a1,a5
	mv	a0,a4
	call	GetNextNode@plt
	sd	a0,-40(s0)
.L65:
	.loc 1 529 31
	ld	a5,-64(s0)
	.loc 1 529 22
	mv	a4,a5
	.loc 1 529 39
	ld	a5,-40(s0)
	.loc 1 529 14
	mv	a1,a5
	mv	a0,a4
	call	IsNull@plt
	mv	a5,a0
	.loc 1 529 13 discriminator 1
	beq	a5,zero,.L78
.L67:
	.loc 1 608 8
	lbu	a5,-130(s0)
	andi	a5,a5,0xff
	bne	a5,zero,.L59
	.loc 1 608 14 discriminator 1
	lw	a5,-44(s0)
	sext.w	a4,a5
	li	a5,21
	beq	a4,a5,.L59
	.loc 1 608 48 discriminator 2
	lbu	a5,-45(s0)
	andi	a5,a5,0xff
	beq	a5,zero,.L59
	.loc 1 609 7
	ld	a5,-72(s0)
	ld	a4,-88(s0)
	ld	a3,-80(s0)
	mv	a2,a3
	mv	a1,a4
	mv	a0,a5
	call	PrintNonSfoFooter
.L59:
	.loc 1 613 6
	lbu	a5,-129(s0)
	andi	a5,a5,0xff
	beq	a5,zero,.L79
	.loc 1 613 11 discriminator 1
	lw	a5,-44(s0)
	sext.w	a4,a5
	li	a5,21
	beq	a4,a5,.L79
	.loc 1 617 5
	addi	a5,s0,-64
	mv	a0,a5
	call	ShellCloseFileMetaArg@plt
	.loc 1 618 18
	ld	a5,-104(s0)
	.loc 1 618 22
	sh	zero,0(a5)
	.loc 1 619 21
	addi	a4,s0,-96
	addi	a5,s0,-104
	li	a3,0
	ld	a2,-152(s0)
	mv	a1,a4
	mv	a0,a5
	call	StrnCatGrow@plt
	mv	a5,a0
	.loc 1 619 19 discriminator 1
	sd	a5,-104(s0)
	.loc 1 620 23
	ld	a5,-104(s0)
	.loc 1 620 8
	bne	a5,zero,.L80
	.loc 1 621 14
	li	a5,9
	j	.L91
.L80:
	.loc 1 624 24
	ld	s1,-104(s0)
	.loc 1 624 25
	ld	a5,-104(s0)
	mv	a0,a5
	call	StrLen@plt
	mv	a5,a0
	.loc 1 624 24 discriminator 1
	slli	a5,a5,1
	addi	a5,a5,-2
	add	a5,s1,a5
	lhu	a5,0(a5)
	.loc 1 624 8 discriminator 1
	sext.w	a4,a5
	li	a5,92
	beq	a4,a5,.L81
	.loc 1 625 25
	ld	s1,-104(s0)
	.loc 1 625 26
	ld	a5,-104(s0)
	mv	a0,a5
	call	StrLen@plt
	mv	a5,a0
	.loc 1 625 25 discriminator 1
	slli	a5,a5,1
	addi	a5,a5,-2
	add	a5,s1,a5
	lhu	a5,0(a5)
	.loc 1 625 8 discriminator 1
	sext.w	a4,a5
	li	a5,47
	beq	a4,a5,.L81
	.loc 1 627 23
	addi	a4,s0,-96
	addi	a5,s0,-104
	li	a3,0
	lla	a2,.LC14
	mv	a1,a4
	mv	a0,a5
	call	StrnCatGrow@plt
	mv	a5,a0
	.loc 1 627 21 discriminator 1
	sd	a5,-104(s0)
.L81:
	.loc 1 630 21
	addi	a4,s0,-96
	addi	a5,s0,-104
	li	a3,0
	lla	a2,.LC15
	mv	a1,a4
	mv	a0,a5
	call	StrnCatGrow@plt
	mv	a5,a0
	.loc 1 630 19 discriminator 1
	sd	a5,-104(s0)
	.loc 1 631 23
	ld	a5,-104(s0)
	.loc 1 631 8
	bne	a5,zero,.L82
	.loc 1 632 14
	li	a5,9
	j	.L91
.L82:
	.loc 1 635 14
	ld	a5,-104(s0)
	addi	a4,s0,-64
	mv	a2,a4
	li	a1,1
	mv	a0,a5
	call	ShellOpenFileMetaArg@plt
	sd	a0,-56(s0)
	.loc 1 637 9
	ld	a5,-56(s0)
	.loc 1 637 8
	blt	a5,zero,.L79
	.loc 1 638 66
	ld	a5,-64(s0)
	.loc 1 638 43
	mv	a0,a5
	call	GetFirstNode@plt
	sd	a0,-40(s0)
	.loc 1 638 7
	j	.L83
.L86:
	.loc 1 643 13
	call	ShellGetExecutionBreakFlag@plt
	mv	a5,a0
	.loc 1 643 12 discriminator 1
	beq	a5,zero,.L84
	.loc 1 644 23
	li	a5,21
	sw	a5,-44(s0)
	.loc 1 645 11
	j	.L79
.L84:
	.loc 1 651 20
	ld	a5,-40(s0)
	ld	a5,48(a5)
	.loc 1 651 26
	ld	a5,72(a5)
	.loc 1 651 38
	andi	a5,a5,16
	.loc 1 651 12
	beq	a5,zero,.L85
	.loc 1 652 16
	ld	a5,-40(s0)
	ld	a5,32(a5)
	lla	a1,.LC16
	mv	a0,a5
	call	StrCmp@plt
	mv	a5,a0
	.loc 1 652 12 discriminator 1
	beq	a5,zero,.L85
	.loc 1 653 16
	ld	a5,-40(s0)
	ld	a5,32(a5)
	lla	a1,.LC17
	mv	a0,a5
	call	StrCmp@plt
	mv	a5,a0
	.loc 1 653 12 discriminator 1
	beq	a5,zero,.L85
	.loc 1 656 25
	ld	a5,-40(s0)
	ld	a3,24(a5)
	lh	a4,-132(s0)
	addi	a5,s0,-105
	lbu	a2,-130(s0)
	lbu	a0,-129(s0)
	sd	zero,0(sp)
	mv	a7,a4
	ld	a6,-176(s0)
	ld	a4,-160(s0)
	ld	a1,-144(s0)
	call	PrintLsOutput
	mv	a5,a0
	sw	a5,-44(s0)
	.loc 1 671 14
	lw	a5,-44(s0)
	sext.w	a4,a5
	li	a5,21
	beq	a4,a5,.L94
.L85:
	.loc 1 640 67
	ld	a5,-64(s0)
	.loc 1 640 58
	mv	a4,a5
	.loc 1 640 75
	ld	a5,-40(s0)
	.loc 1 640 45
	mv	a1,a5
	mv	a0,a4
	call	GetNextNode@plt
	sd	a0,-40(s0)
.L83:
	.loc 1 639 33
	ld	a5,-64(s0)
	.loc 1 639 24
	mv	a4,a5
	.loc 1 639 41
	ld	a5,-40(s0)
	.loc 1 639 16
	mv	a1,a5
	mv	a0,a4
	call	IsNull@plt
	mv	a5,a0
	.loc 1 639 54 discriminator 1
	bne	a5,zero,.L79
	.loc 1 639 54 is_stmt 0 discriminator 2
	lw	a5,-44(s0)
	sext.w	a5,a5
	beq	a5,zero,.L86
	j	.L79
.L94:
	.loc 1 672 13 is_stmt 1
	nop
.L79:
	.loc 1 679 28
	ld	a5,-104(s0)
	.loc 1 679 11
	beq	a5,zero,.L87
	.loc 1 679 47 discriminator 1
	ld	a5,-104(s0)
	mv	a0,a5
	call	FreePool@plt
	.loc 1 679 90 discriminator 2
	sd	zero,-104(s0)
.L87:
	.loc 1 680 3
	addi	a5,s0,-64
	mv	a0,a5
	call	ShellCloseFileMetaArg@plt
	.loc 1 682 6
	ld	a5,-168(s0)
	bne	a5,zero,.L88
	.loc 1 682 34 discriminator 1
	lbu	a5,-105(s0)
	.loc 1 682 31 discriminator 1
	bne	a5,zero,.L88
	.loc 1 683 8
	lbu	a5,0(s0)
	andi	a5,a5,0xff
	beq	a5,zero,.L89
	.loc 1 689 10
	lbu	a5,-130(s0)
	andi	a5,a5,0xff
	bne	a5,zero,.L88
	.loc 1 690 9
	ld	a0,-152(s0)
	call	PrintNonSfoHeader
	.loc 1 691 12
	lw	a5,-44(s0)
	sext.w	a4,a5
	li	a5,21
	beq	a4,a5,.L88
	.loc 1 692 11
	ld	a5,-72(s0)
	ld	a4,-88(s0)
	ld	a3,-80(s0)
	mv	a2,a3
	mv	a1,a4
	mv	a0,a5
	call	PrintNonSfoFooter
	j	.L88
.L89:
	.loc 1 696 14
	li	a5,14
	j	.L91
.L88:
	.loc 1 700 6
	ld	a5,-168(s0)
	beq	a5,zero,.L90
	.loc 1 701 12
	lbu	a4,-105(s0)
	ld	a5,-168(s0)
	sb	a4,0(a5)
.L90:
	.loc 1 704 10
	lw	a5,-44(s0)
.L91:
	.loc 1 705 1
	mv	a0,a5
	ld	ra,184(sp)
	.cfi_restore 1
	ld	s0,176(sp)
	.cfi_restore 8
	.cfi_def_cfa 2, 192
	ld	s1,168(sp)
	.cfi_restore 9
	addi	sp,sp,192
	.cfi_def_cfa_offset 0
	jr	ra
	.cfi_endproc
.LFE5:
	.size	PrintLsOutput, .-PrintLsOutput
	.section	.rodata
	.align	3
.LC18:
	.string	"-"
	.string	"r"
	.zero	2
	.align	3
.LC19:
	.string	"-"
	.string	"a"
	.zero	2
	.align	3
.LC20:
	.string	"-"
	.string	"s"
	.string	"f"
	.string	"o"
	.zero	2
	.section	.data.rel.ro.local.LsParamList,"aw"
	.align	3
	.type	LsParamList, @object
	.size	LsParamList, 64
LsParamList:
	.dword	.LC18
	.word	0
	.zero	4
	.dword	.LC19
	.word	3
	.zero	4
	.dword	.LC20
	.word	0
	.zero	4
	.dword	0
	.word	7
	.zero	4
	.section	.rodata
	.align	3
.LC21:
	.string	"-"
	.string	"?"
	.zero	2
	.align	3
.LC22:
	.string	":"
	.zero	2
	.align	3
.LC23:
	.string	"g"
	.string	"R"
	.string	"T"
	.string	"-"
	.string	">"
	.string	"G"
	.string	"e"
	.string	"t"
	.string	"T"
	.string	"i"
	.string	"m"
	.string	"e"
	.zero	2
	.section	.text.ShellCommandRunLs,"ax",@progbits
	.align	1
	.globl	ShellCommandRunLs
	.type	ShellCommandRunLs, @function
ShellCommandRunLs:
.LFB6:
	.loc 1 726 1
	.cfi_startproc
	addi	sp,sp,-208
	.cfi_def_cfa_offset 208
	sd	ra,200(sp)
	sd	s0,192(sp)
	sd	s1,184(sp)
	sd	s2,176(sp)
	sd	s3,168(sp)
	.cfi_offset 1, -8
	.cfi_offset 8, -16
	.cfi_offset 9, -24
	.cfi_offset 18, -32
	.cfi_offset 19, -40
	addi	s0,sp,208
	.cfi_def_cfa 8, 0
	sd	a0,-184(s0)
	sd	a1,-192(s0)
	.loc 1 742 8
	sd	zero,-144(s0)
	.loc 1 743 12
	sd	zero,-136(s0)
	.loc 1 744 16
	sd	zero,-128(s0)
	.loc 1 745 11
	sd	zero,-56(s0)
	.loc 1 746 15
	sw	zero,-60(s0)
	.loc 1 747 22
	sd	zero,-72(s0)
	.loc 1 748 12
	sd	zero,-96(s0)
	.loc 1 749 16
	sd	zero,-168(s0)
	.loc 1 750 10
	sd	zero,-104(s0)
	.loc 1 751 9
	sd	zero,-80(s0)
	.loc 1 752 18
	sb	zero,-81(s0)
	.loc 1 757 12
	call	ShellInitialize@plt
	sd	a0,-112(s0)
	.loc 1 763 12
	call	CommandInit@plt
	sd	a0,-112(s0)
	.loc 1 769 12
	addi	a2,s0,-128
	addi	a5,s0,-120
	li	a4,0
	li	a3,1
	mv	a1,a5
	lla	a0,LsParamList
	call	ShellCommandLineParseEx@plt
	sd	a0,-112(s0)
	.loc 1 770 34
	ld	a5,-112(s0)
	.loc 1 770 6
	bge	a5,zero,.L96
	.loc 1 771 8
	ld	a4,-112(s0)
	li	a5,-1
	slli	a5,a5,63
	addi	a5,a5,10
	bne	a4,a5,.L97
	.loc 1 771 86 discriminator 1
	ld	a5,-128(s0)
	.loc 1 771 69 discriminator 1
	beq	a5,zero,.L97
	.loc 1 772 7
	la	a5,gShellLevel2HiiHandle
	ld	a4,0(a5)
	ld	a5,-128(s0)
	mv	a6,a5
	lla	a5,.LC0
	li	a3,6
	li	a2,0
	li	a1,-1
	li	a0,-1
	call	ShellPrintHiiEx@plt
	.loc 1 773 7
	ld	a5,-128(s0)
	mv	a0,a5
	call	FreePool@plt
	.loc 1 774 19
	li	a5,2
	sw	a5,-60(s0)
	j	.L97
.L96:
	.loc 1 782 9
	ld	a5,-120(s0)
	lla	a1,.LC21
	mv	a0,a5
	call	ShellCommandLineGetFlag@plt
	.loc 1 786 9
	ld	a5,-120(s0)
	mv	a0,a5
	call	ShellCommandLineGetCount@plt
	mv	a4,a0
	.loc 1 786 8 discriminator 1
	li	a5,2
	bleu	a4,a5,.L98
	.loc 1 787 7
	la	a5,gShellLevel2HiiHandle
	ld	a4,0(a5)
	lla	a5,.LC0
	li	a3,3
	li	a2,0
	li	a1,-1
	li	a0,-1
	call	ShellPrintHiiEx@plt
	.loc 1 788 19
	li	a5,2
	sw	a5,-60(s0)
	j	.L97
.L98:
	.loc 1 793 11
	ld	a5,-120(s0)
	lla	a1,.LC19
	mv	a0,a5
	call	ShellCommandLineGetFlag@plt
	mv	a5,a0
	.loc 1 793 10 discriminator 1
	beq	a5,zero,.L99
	.loc 1 794 25
	ld	a5,-120(s0)
	lla	a1,.LC19
	mv	a0,a5
	call	ShellCommandLineGetValue@plt
	sd	a0,-56(s0)
	.loc 1 794 9
	j	.L100
.L109:
	.loc 1 799 19
	ld	a5,-56(s0)
	lhu	a5,0(a5)
	sext.w	a5,a5
	.loc 1 799 11
	li	a4,115
	beq	a5,a4,.L101
	li	a4,115
	bgt	a5,a4,.L102
	li	a4,114
	beq	a5,a4,.L103
	li	a4,114
	bgt	a5,a4,.L102
	li	a4,104
	beq	a5,a4,.L104
	li	a4,104
	bgt	a5,a4,.L102
	li	a4,100
	beq	a5,a4,.L105
	li	a4,100
	bgt	a5,a4,.L102
	li	a4,97
	beq	a5,a4,.L106
	li	a4,97
	bgt	a5,a4,.L102
	li	a4,83
	beq	a5,a4,.L101
	li	a4,83
	bgt	a5,a4,.L102
	li	a4,82
	beq	a5,a4,.L103
	li	a4,82
	bgt	a5,a4,.L102
	li	a4,72
	beq	a5,a4,.L104
	li	a4,72
	bgt	a5,a4,.L102
	li	a4,65
	beq	a5,a4,.L106
	li	a4,68
	beq	a5,a4,.L105
	j	.L102
.L106:
	.loc 1 802 34
	ld	a5,-72(s0)
	ori	a5,a5,32
	sd	a5,-72(s0)
	.loc 1 803 20
	ld	a5,-80(s0)
	addi	a5,a5,1
	sd	a5,-80(s0)
	.loc 1 804 15
	j	.L107
.L101:
	.loc 1 807 34
	ld	a5,-72(s0)
	ori	a5,a5,4
	sd	a5,-72(s0)
	.loc 1 808 20
	ld	a5,-80(s0)
	addi	a5,a5,1
	sd	a5,-80(s0)
	.loc 1 809 15
	j	.L107
.L104:
	.loc 1 812 34
	ld	a5,-72(s0)
	ori	a5,a5,2
	sd	a5,-72(s0)
	.loc 1 813 20
	ld	a5,-80(s0)
	addi	a5,a5,1
	sd	a5,-80(s0)
	.loc 1 814 15
	j	.L107
.L103:
	.loc 1 817 34
	ld	a5,-72(s0)
	ori	a5,a5,1
	sd	a5,-72(s0)
	.loc 1 818 20
	ld	a5,-80(s0)
	addi	a5,a5,1
	sd	a5,-80(s0)
	.loc 1 819 15
	j	.L107
.L105:
	.loc 1 822 34
	ld	a5,-72(s0)
	ori	a5,a5,16
	sd	a5,-72(s0)
	.loc 1 823 20
	ld	a5,-80(s0)
	addi	a5,a5,1
	sd	a5,-80(s0)
	.loc 1 824 15
	j	.L107
.L102:
	.loc 1 826 15
	la	a5,gShellLevel2HiiHandle
	ld	s1,0(a5)
	ld	a5,-120(s0)
	lla	a1,.LC19
	mv	a0,a5
	call	ShellCommandLineGetValue@plt
	mv	a5,a0
	.loc 1 826 15 is_stmt 0 discriminator 1
	mv	a6,a5
	lla	a5,.LC0
	mv	a4,s1
	li	a3,8
	li	a2,0
	li	a1,-1
	li	a0,-1
	call	ShellPrintHiiEx@plt
	.loc 1 827 27 is_stmt 1
	li	a5,2
	sw	a5,-60(s0)
	.loc 1 828 15
	nop
.L107:
	.loc 1 796 24
	ld	a5,-56(s0)
	addi	a5,a5,2
	sd	a5,-56(s0)
.L100:
	.loc 1 795 63
	ld	a5,-56(s0)
	beq	a5,zero,.L108
	.loc 1 795 44 discriminator 1
	ld	a5,-56(s0)
	lhu	a5,0(a5)
	.loc 1 795 41 discriminator 1
	beq	a5,zero,.L108
	.loc 1 795 63 discriminator 2
	lw	a5,-60(s0)
	sext.w	a5,a5
	beq	a5,zero,.L109
.L108:
	.loc 1 835 12
	ld	a5,-72(s0)
	bne	a5,zero,.L99
	.loc 1 836 30
	li	a5,55
	sd	a5,-72(s0)
.L99:
	.loc 1 840 10
	lw	a5,-60(s0)
	sext.w	a5,a5
	bne	a5,zero,.L97
	.loc 1 841 20
	ld	a5,-120(s0)
	li	a1,1
	mv	a0,a5
	call	ShellCommandLineGetRawValue@plt
	sd	a0,-96(s0)
	.loc 1 842 12
	ld	a5,-96(s0)
	bne	a5,zero,.L110
	.loc 1 846 37
	la	a5,gEfiShellProtocol
	ld	a5,0(a5)
	ld	a5,88(a5)
	.loc 1 846 20
	li	a0,0
	jalr	a5
.LVL10:
	sd	a0,-104(s0)
	.loc 1 847 14
	ld	a5,-104(s0)
	bne	a5,zero,.L111
	.loc 1 848 25
	li	a5,14
	sw	a5,-60(s0)
	.loc 1 849 13
	la	a5,gShellLevel2HiiHandle
	ld	a4,0(a5)
	lla	a5,.LC0
	li	a3,20
	li	a2,0
	li	a1,-1
	li	a0,-1
	call	ShellPrintHiiEx@plt
.L111:
	.loc 1 852 26
	li	a5,1
	sb	a5,-81(s0)
	.loc 1 858 11
	addi	a5,s0,-168
	li	a3,0
	lla	a2,.LC15
	li	a1,0
	mv	a0,a5
	call	StrnCatGrow@plt
	.loc 1 859 11
	addi	a5,s0,-136
	li	a3,0
	ld	a2,-104(s0)
	li	a1,0
	mv	a0,a5
	call	StrnCatGrow@plt
	.loc 1 860 27
	ld	a5,-136(s0)
	.loc 1 860 64
	beq	a5,zero,.L112
	.loc 1 860 45 discriminator 1
	ld	a5,-136(s0)
	mv	a0,a5
	call	StrSize@plt
	mv	a5,a0
	j	.L113
.L112:
	.loc 1 860 64 discriminator 2
	li	a5,0
.L113:
	.loc 1 860 16 discriminator 5
	sd	a5,-144(s0)
	.loc 1 861 11
	addi	a4,s0,-144
	addi	a5,s0,-136
	li	a3,0
	lla	a2,.LC14
	mv	a1,a4
	mv	a0,a5
	call	StrnCatGrow@plt
	j	.L114
.L110:
	.loc 1 863 16
	lla	a1,.LC22
	ld	a0,-96(s0)
	call	StrStr@plt
	mv	a5,a0
	.loc 1 863 14 discriminator 1
	bne	a5,zero,.L115
	.loc 1 863 78 discriminator 2
	la	a5,gEfiShellProtocol
	ld	a5,0(a5)
	ld	a5,88(a5)
	.loc 1 863 61 discriminator 2
	li	a0,0
	jalr	a5
.LVL11:
	mv	a5,a0
	.loc 1 863 57 discriminator 3
	bne	a5,zero,.L115
	.loc 1 867 25
	li	a5,14
	sw	a5,-60(s0)
	.loc 1 868 13
	la	a5,gShellLevel2HiiHandle
	ld	a4,0(a5)
	lla	a5,.LC0
	li	a3,20
	li	a2,0
	li	a1,-1
	li	a0,-1
	call	ShellPrintHiiEx@plt
	j	.L114
.L115:
	.loc 1 874 17
	lla	a1,.LC22
	ld	a0,-96(s0)
	call	StrStr@plt
	mv	a5,a0
	.loc 1 874 16 discriminator 1
	bne	a5,zero,.L116
	.loc 1 875 63
	la	a5,gEfiShellProtocol
	ld	a5,0(a5)
	ld	a5,88(a5)
	.loc 1 875 15
	li	a0,0
	jalr	a5
.LVL12:
	mv	a2,a0
	.loc 1 875 15 is_stmt 0 discriminator 1
	addi	a4,s0,-144
	addi	a5,s0,-136
	li	a3,0
	mv	a1,a4
	mv	a0,a5
	call	StrnCatGrow@plt
	.loc 1 876 28 is_stmt 1
	ld	a5,-136(s0)
	.loc 1 876 18
	bne	a5,zero,.L117
	.loc 1 877 17
	ld	a5,-120(s0)
	mv	a0,a5
	call	ShellCommandLineFreeVarList@plt
	.loc 1 878 24
	li	a5,9
	j	.L129
.L117:
	.loc 1 881 31
	ld	a5,-136(s0)
	.loc 1 881 68
	beq	a5,zero,.L119
	.loc 1 881 49 discriminator 1
	ld	a5,-136(s0)
	mv	a0,a5
	call	StrSize@plt
	mv	a5,a0
	j	.L120
.L119:
	.loc 1 881 68 discriminator 2
	li	a5,0
.L120:
	.loc 1 881 20 discriminator 5
	sd	a5,-144(s0)
	.loc 1 882 15
	addi	a4,s0,-144
	addi	a5,s0,-136
	li	a3,0
	lla	a2,.LC14
	mv	a1,a4
	mv	a0,a5
	call	StrnCatGrow@plt
.L116:
	.loc 1 885 13
	addi	a4,s0,-144
	addi	a5,s0,-136
	li	a3,0
	ld	a2,-96(s0)
	mv	a1,a4
	mv	a0,a5
	call	StrnCatGrow@plt
	.loc 1 886 26
	ld	a5,-136(s0)
	.loc 1 886 16
	bne	a5,zero,.L121
	.loc 1 887 15
	ld	a5,-120(s0)
	mv	a0,a5
	call	ShellCommandLineFreeVarList@plt
	.loc 1 888 22
	li	a5,9
	j	.L129
.L121:
	.loc 1 891 17
	ld	a0,-96(s0)
	call	ShellIsDirectory@plt
	mv	a5,a0
	.loc 1 891 16 discriminator 1
	bne	a5,zero,.L122
	.loc 1 895 30
	li	a5,1
	sb	a5,-81(s0)
	.loc 1 896 15
	addi	a5,s0,-168
	li	a3,0
	lla	a2,.LC15
	li	a1,0
	mv	a0,a5
	call	StrnCatGrow@plt
	j	.L114
.L122:
	.loc 1 901 15
	ld	a4,-136(s0)
	addi	a5,s0,-168
	li	a3,0
	mv	a2,a4
	li	a1,0
	mv	a0,a5
	call	StrnCatGrow@plt
	.loc 1 902 32
	ld	a5,-168(s0)
	.loc 1 902 18
	bne	a5,zero,.L123
	.loc 1 903 17
	ld	a5,-136(s0)
	mv	a0,a5
	call	FreePool@plt
	.loc 1 904 17
	ld	a5,-120(s0)
	mv	a0,a5
	call	ShellCommandLineFreeVarList@plt
	.loc 1 905 24
	li	a5,9
	j	.L129
.L123:
	.loc 1 908 15
	ld	a5,-136(s0)
	mv	a0,a5
	call	PathRemoveLastItem@plt
	.loc 1 909 15
	ld	s2,-168(s0)
	ld	s1,-168(s0)
	.loc 1 909 53
	ld	a5,-136(s0)
	mv	a0,a5
	call	StrLen@plt
	mv	a5,a0
	.loc 1 909 51 discriminator 1
	slli	a5,a5,1
	add	s3,s1,a5
	.loc 1 909 15 discriminator 1
	ld	s1,-168(s0)
	.loc 1 909 96 discriminator 1
	ld	a5,-136(s0)
	mv	a0,a5
	call	StrLen@plt
	mv	a5,a0
	.loc 1 909 94 discriminator 2
	slli	a5,a5,1
	add	a5,s1,a5
	.loc 1 909 15 discriminator 2
	mv	a0,a5
	call	StrSize@plt
	mv	a5,a0
	.loc 1 909 15 is_stmt 0 discriminator 3
	mv	a2,a5
	mv	a1,s3
	mv	a0,s2
	call	CopyMem@plt
.L114:
	.loc 1 914 21 is_stmt 1
	la	a5,gRT
	ld	a5,0(a5)
	ld	a5,24(a5)
	.loc 1 914 18
	addi	a4,s0,-160
	li	a1,0
	mv	a0,a4
	jalr	a5
.LVL13:
	sd	a0,-112(s0)
	.loc 1 915 40
	ld	a5,-112(s0)
	.loc 1 915 12
	bge	a5,zero,.L124
	.loc 1 916 11
	la	a5,gShellLevel2HiiHandle
	ld	a4,0(a5)
	ld	a7,-112(s0)
	lla	a6,.LC23
	lla	a5,.LC0
	li	a3,29
	li	a2,0
	li	a1,-1
	li	a0,-1
	call	ShellPrintHiiEx@plt
	.loc 1 917 28
	li	a5,2047
	sh	a5,-148(s0)
.L124:
	.loc 1 920 12
	lw	a5,-60(s0)
	sext.w	a5,a5
	bne	a5,zero,.L97
	.loc 1 922 27
	ld	a5,-120(s0)
	lla	a1,.LC18
	mv	a0,a5
	call	ShellCommandLineGetFlag@plt
	mv	a5,a0
	mv	s1,a5
	.loc 1 924 27
	ld	a5,-120(s0)
	lla	a1,.LC20
	mv	a0,a5
	call	ShellCommandLineGetFlag@plt
	mv	a5,a0
	mv	a1,a5
	.loc 1 921 25
	ld	a3,-136(s0)
	ld	a4,-168(s0)
	.loc 1 929 34
	lh	a2,-148(s0)
	.loc 1 921 25
	lbu	a5,-81(s0)
	sd	a5,0(sp)
	mv	a7,a2
	ld	a6,-80(s0)
	li	a5,0
	mv	a2,a1
	ld	a1,-72(s0)
	mv	a0,s1
	call	PrintLsOutput
	mv	a5,a0
	sw	a5,-60(s0)
	.loc 1 932 14
	lw	a5,-60(s0)
	sext.w	a4,a5
	li	a5,14
	bne	a4,a5,.L125
	.loc 1 933 13
	la	a5,gShellLevel2HiiHandle
	ld	a4,0(a5)
	ld	a5,-136(s0)
	mv	a6,a5
	lla	a5,.LC0
	li	a3,111
	li	a2,0
	li	a1,-1
	li	a0,-1
	call	ShellPrintHiiEx@plt
	j	.L97
.L125:
	.loc 1 934 21
	lw	a5,-60(s0)
	sext.w	a4,a5
	li	a5,2
	bne	a4,a5,.L126
	.loc 1 935 13
	la	a5,gShellLevel2HiiHandle
	ld	a4,0(a5)
	ld	a5,-136(s0)
	mv	a6,a5
	lla	a5,.LC0
	li	a3,5
	li	a2,0
	li	a1,-1
	li	a0,-1
	call	ShellPrintHiiEx@plt
	j	.L97
.L126:
	.loc 1 936 21
	lw	a5,-60(s0)
	sext.w	a4,a5
	li	a5,21
	beq	a4,a5,.L97
	.loc 1 940 21
	lw	a5,-60(s0)
	sext.w	a5,a5
	beq	a5,zero,.L97
	.loc 1 941 13
	la	a5,gShellLevel2HiiHandle
	ld	a4,0(a5)
	ld	a5,-136(s0)
	mv	a6,a5
	lla	a5,.LC0
	li	a3,5
	li	a2,0
	li	a1,-1
	li	a0,-1
	call	ShellPrintHiiEx@plt
.L97:
	.loc 1 951 27
	ld	a5,-168(s0)
	.loc 1 951 11
	beq	a5,zero,.L127
	.loc 1 951 46 discriminator 1
	ld	a5,-168(s0)
	mv	a0,a5
	call	FreePool@plt
	.loc 1 951 87 discriminator 2
	sd	zero,-168(s0)
.L127:
	.loc 1 952 23
	ld	a5,-136(s0)
	.loc 1 952 11
	beq	a5,zero,.L128
	.loc 1 952 42 discriminator 1
	ld	a5,-136(s0)
	mv	a0,a5
	call	FreePool@plt
	.loc 1 952 75 discriminator 2
	sd	zero,-136(s0)
.L128:
	.loc 1 953 3
	ld	a5,-120(s0)
	mv	a0,a5
	call	ShellCommandLineFreeVarList@plt
	.loc 1 955 10
	lw	a5,-60(s0)
.L129:
	.loc 1 956 1
	mv	a0,a5
	ld	ra,200(sp)
	.cfi_restore 1
	ld	s0,192(sp)
	.cfi_restore 8
	.cfi_def_cfa 2, 208
	ld	s1,184(sp)
	.cfi_restore 9
	ld	s2,176(sp)
	.cfi_restore 18
	ld	s3,168(sp)
	.cfi_restore 19
	addi	sp,sp,208
	.cfi_def_cfa_offset 0
	jr	ra
	.cfi_endproc
.LFE6:
	.size	ShellCommandRunLs, .-ShellCommandRunLs
	.section	.rodata
	.align	3
.LC12:
	.dword	-8608480567731124087
	.align	3
.LC13:
	.dword	3074457345618258603
	.text
.Letext0:
	.file 2 "/home/kapoagaeming/spacemit-image-builder/components/edk2/MdePkg/Include/RiscV64/ProcessorBind.h"
	.file 3 "/home/kapoagaeming/spacemit-image-builder/components/edk2/MdePkg/Include/Base.h"
	.file 4 "/home/kapoagaeming/spacemit-image-builder/components/edk2/MdePkg/Include/Uefi/UefiBaseType.h"
	.file 5 "/home/kapoagaeming/spacemit-image-builder/components/edk2/MdePkg/Include/Uefi/UefiMultiPhase.h"
	.file 6 "/home/kapoagaeming/spacemit-image-builder/components/edk2/MdePkg/Include/Protocol/DevicePath.h"
	.file 7 "/home/kapoagaeming/spacemit-image-builder/components/edk2/MdePkg/Include/Protocol/SimpleTextIn.h"
	.file 8 "/home/kapoagaeming/spacemit-image-builder/components/edk2/MdePkg/Include/Protocol/SimpleTextOut.h"
	.file 9 "/home/kapoagaeming/spacemit-image-builder/components/edk2/MdePkg/Include/Uefi/UefiSpec.h"
	.file 10 "/home/kapoagaeming/spacemit-image-builder/components/edk2/MdePkg/Include/Uefi/UefiInternalFormRepresentation.h"
	.file 11 "/home/kapoagaeming/spacemit-image-builder/components/edk2/MdePkg/Include/Guid/FileInfo.h"
	.file 12 "/home/kapoagaeming/spacemit-image-builder/components/edk2/MdePkg/Include/Protocol/Shell.h"
	.file 13 "/home/kapoagaeming/spacemit-image-builder/components/edk2/MdePkg/Include/Protocol/UnicodeCollation.h"
	.file 14 "/home/kapoagaeming/spacemit-image-builder/components/edk2/MdePkg/Include/Protocol/SimpleFileSystem.h"
	.file 15 "/home/kapoagaeming/spacemit-image-builder/components/Build/Milk-V-Jupiter/RELEASE_GCC5/RISCV64/ShellPkg/Library/UefiShellLevel2CommandsLib/UefiShellLevel2CommandsLib/DEBUG/AutoGen.h"
	.file 16 "/home/kapoagaeming/spacemit-image-builder/components/edk2/ShellPkg/Include/Library/ShellCommandLib.h"
	.file 17 "/home/kapoagaeming/spacemit-image-builder/components/edk2/ShellPkg/Include/Library/ShellLib.h"
	.file 18 "/home/kapoagaeming/spacemit-image-builder/components/edk2/MdePkg/Include/Library/UefiBootServicesTableLib.h"
	.file 19 "/home/kapoagaeming/spacemit-image-builder/components/edk2/MdePkg/Include/Library/UefiRuntimeServicesTableLib.h"
	.file 20 "/home/kapoagaeming/spacemit-image-builder/components/edk2/ShellPkg/Library/UefiShellLevel2CommandsLib/UefiShellLevel2CommandsLib.h"
	.file 21 "/home/kapoagaeming/spacemit-image-builder/components/edk2/MdePkg/Include/Guid/FileSystemInfo.h"
	.file 22 "/home/kapoagaeming/spacemit-image-builder/components/edk2/MdePkg/Include/Library/BaseMemoryLib.h"
	.file 23 "/home/kapoagaeming/spacemit-image-builder/components/edk2/MdePkg/Include/Library/BaseLib.h"
	.file 24 "/home/kapoagaeming/spacemit-image-builder/components/edk2/MdePkg/Include/Library/MemoryAllocationLib.h"
	.section	.note.GNU-stack,"",@progbits
