	.file	"Map.c"
	.option pic
	.option norelax
	.attribute arch, "rv64i2p1_m2p0_a2p1_f2p2_d2p2_c2p0_zicsr2p0_zifencei2p0_zmmul1p0_zaamo1p0_zalrsc1p0_zca1p0_zcd1p0"
	.attribute unaligned_access, 0
	.attribute stack_align, 16
	.text
.Ltext0:
	.cfi_sections	.debug_frame
	.file 0 "/home/kapoagaeming/Downloads/spacemit-image-builder/components/Build/Milk-V-Jupiter/RELEASE_GCC5/RISCV64/ShellPkg/Library/UefiShellLevel2CommandsLib/UefiShellLevel2CommandsLib" "/home/kapoagaeming/Downloads/spacemit-image-builder/components/edk2/ShellPkg/Library/UefiShellLevel2CommandsLib/Map.c"
	.section	.text.IsNumberLetterOnly,"ax",@progbits
	.align	1
	.globl	IsNumberLetterOnly
	.type	IsNumberLetterOnly, @function
IsNumberLetterOnly:
.LFB0:
	.file 1 "/home/kapoagaeming/Downloads/spacemit-image-builder/components/edk2/ShellPkg/Library/UefiShellLevel2CommandsLib/Map.c"
	.loc 1 35 1
	.cfi_startproc
	addi	sp,sp,-48
	.cfi_def_cfa_offset 48
	sd	ra,40(sp)
	sd	s0,32(sp)
	.cfi_offset 1, -8
	.cfi_offset 8, -16
	addi	s0,sp,48
	.cfi_def_cfa 8, 0
	sd	a0,-40(s0)
	sd	a1,-48(s0)
	.loc 1 38 14
	sd	zero,-24(s0)
	.loc 1 38 3
	j	.L2
.L9:
	.loc 1 39 13
	ld	a5,-40(s0)
	lhu	a5,0(a5)
	.loc 1 39 8
	sext.w	a4,a5
	li	a5,96
	bleu	a4,a5,.L3
	.loc 1 39 34 discriminator 2
	ld	a5,-40(s0)
	lhu	a5,0(a5)
	.loc 1 39 30 discriminator 2
	sext.w	a4,a5
	li	a5,122
	bleu	a4,a5,.L4
.L3:
	.loc 1 40 13
	ld	a5,-40(s0)
	lhu	a5,0(a5)
	.loc 1 39 52 discriminator 3
	sext.w	a4,a5
	li	a5,64
	bleu	a4,a5,.L5
	.loc 1 40 34
	ld	a5,-40(s0)
	lhu	a5,0(a5)
	.loc 1 40 30
	sext.w	a4,a5
	li	a5,90
	bleu	a4,a5,.L4
.L5:
	.loc 1 41 13
	ld	a5,-40(s0)
	lhu	a5,0(a5)
	.loc 1 39 9 discriminator 4
	sext.w	a4,a5
	li	a5,47
	bleu	a4,a5,.L6
	.loc 1 41 34
	ld	a5,-40(s0)
	lhu	a5,0(a5)
	.loc 1 41 30
	sext.w	a4,a5
	li	a5,57
	bleu	a4,a5,.L4
.L6:
	.loc 1 44 14
	li	a5,0
	j	.L7
.L4:
	.loc 1 38 85 discriminator 2
	ld	a5,-40(s0)
	addi	a5,a5,2
	sd	a5,-40(s0)
	.loc 1 38 94 discriminator 2
	ld	a5,-24(s0)
	addi	a5,a5,1
	sd	a5,-24(s0)
.L2:
	.loc 1 38 57 discriminator 1
	ld	a4,-24(s0)
	ld	a5,-48(s0)
	bgeu	a4,a5,.L8
	.loc 1 38 31 discriminator 3
	ld	a5,-40(s0)
	beq	a5,zero,.L8
	.loc 1 38 60 discriminator 4
	ld	a5,-40(s0)
	lhu	a5,0(a5)
	.loc 1 38 57 discriminator 4
	bne	a5,zero,.L9
.L8:
	.loc 1 48 10
	li	a5,1
.L7:
	.loc 1 49 1
	mv	a0,a5
	ld	ra,40(sp)
	.cfi_restore 1
	ld	s0,32(sp)
	.cfi_restore 8
	.cfi_def_cfa 2, 48
	addi	sp,sp,48
	.cfi_def_cfa_offset 0
	jr	ra
	.cfi_endproc
.LFE0:
	.size	IsNumberLetterOnly, .-IsNumberLetterOnly
	.section	.text.SearchList,"ax",@progbits
	.align	1
	.globl	SearchList
	.type	SearchList, @function
SearchList:
.LFB1:
	.loc 1 73 1
	.cfi_startproc
	addi	sp,sp,-112
	.cfi_def_cfa_offset 112
	sd	ra,104(sp)
	sd	s0,96(sp)
	sd	s1,88(sp)
	.cfi_offset 1, -8
	.cfi_offset 8, -16
	.cfi_offset 9, -24
	addi	s0,sp,112
	.cfi_def_cfa 8, 0
	sd	a0,-72(s0)
	sd	a1,-80(s0)
	sd	a2,-88(s0)
	sd	a5,-104(s0)
	mv	a5,a3
	sb	a5,-89(s0)
	mv	a5,a4
	sb	a5,-90(s0)
	.loc 1 79 19
	ld	a5,-72(s0)
	sd	a5,-40(s0)
	.loc 1 79 36
	sd	zero,-64(s0)
	.loc 1 79 3
	j	.L11
.L27:
	.loc 1 84 16
	addi	a5,s0,-64
	li	a3,0
	ld	a2,-40(s0)
	li	a1,0
	mv	a0,a5
	call	StrnCatGrow@plt
	mv	a5,a0
	.loc 1 84 14 discriminator 1
	sd	a5,-64(s0)
	.loc 1 85 18
	ld	a5,-64(s0)
	.loc 1 85 8
	bne	a5,zero,.L12
	.loc 1 87 14
	li	a5,0
	j	.L28
.L12:
	.loc 1 90 16
	ld	a5,-64(s0)
	ld	a1,-104(s0)
	mv	a0,a5
	call	StrStr@plt
	sd	a0,-56(s0)
	.loc 1 91 8
	ld	a5,-56(s0)
	beq	a5,zero,.L15
	.loc 1 92 17
	ld	a5,-56(s0)
	sh	zero,0(a5)
	.loc 1 95 11
	j	.L15
.L17:
	.loc 1 96 15
	ld	s1,-64(s0)
	.loc 1 96 16
	ld	a5,-64(s0)
	mv	a0,a5
	call	StrLen@plt
	mv	a5,a0
	.loc 1 96 15 discriminator 1
	slli	a5,a5,1
	addi	a5,a5,-2
	add	a5,s1,a5
	.loc 1 96 37 discriminator 1
	sh	zero,0(a5)
.L15:
	.loc 1 95 32
	lbu	a5,-90(s0)
	andi	a5,a5,0xff
	beq	a5,zero,.L16
	.loc 1 95 74 discriminator 1
	ld	s1,-64(s0)
	.loc 1 95 75 discriminator 1
	ld	a5,-64(s0)
	mv	a0,a5
	call	StrLen@plt
	mv	a5,a0
	.loc 1 95 74 discriminator 2
	slli	a5,a5,1
	addi	a5,a5,-2
	add	a5,s1,a5
	.loc 1 95 36 discriminator 2
	lhu	a5,0(a5)
	mv	a0,a5
	call	ShellIsDecimalDigitCharacter@plt
	mv	a5,a0
	.loc 1 95 32 discriminator 3
	bne	a5,zero,.L17
	.loc 1 95 108 discriminator 4
	ld	s1,-64(s0)
	.loc 1 95 109 discriminator 4
	ld	a5,-64(s0)
	mv	a0,a5
	call	StrLen@plt
	mv	a5,a0
	.loc 1 95 108 discriminator 5
	slli	a5,a5,1
	addi	a5,a5,-2
	add	a5,s1,a5
	lhu	a5,0(a5)
	.loc 1 95 97 discriminator 5
	sext.w	a4,a5
	li	a5,58
	beq	a4,a5,.L17
.L16:
	.loc 1 99 18
	ld	a1,-104(s0)
	ld	a0,-40(s0)
	call	StrStr@plt
	sd	a0,-40(s0)
	.loc 1 100 11
	j	.L18
.L20:
	.loc 1 101 17
	ld	a5,-40(s0)
	addi	a5,a5,2
	sd	a5,-40(s0)
.L18:
	.loc 1 100 39
	ld	a5,-40(s0)
	beq	a5,zero,.L19
	.loc 1 100 42 discriminator 1
	ld	a5,-40(s0)
	lhu	a4,0(a5)
	.loc 1 100 57 discriminator 1
	ld	a5,-104(s0)
	lhu	a5,0(a5)
	.loc 1 100 39 discriminator 1
	sext.w	a4,a4
	sext.w	a5,a5
	beq	a4,a5,.L20
.L19:
	.loc 1 104 8
	lbu	a5,-89(s0)
	andi	a5,a5,0xff
	beq	a5,zero,.L21
	.loc 1 105 33
	la	a5,gUnicodeCollation
	ld	a5,0(a5)
	ld	a5,8(a5)
	.loc 1 105 16
	la	a4,gUnicodeCollation
	ld	a4,0(a4)
	ld	a3,-64(s0)
	ld	a2,-80(s0)
	mv	a1,a3
	mv	a0,a4
	jalr	a5
.LVL0:
	mv	a5,a0
	sb	a5,-41(s0)
	j	.L22
.L21:
	.loc 1 107 26
	ld	a5,-64(s0)
	ld	a1,-80(s0)
	mv	a0,a5
	call	StrCmp@plt
	mv	a5,a0
	.loc 1 107 16 discriminator 1
	seqz	a5,a5
	andi	a5,a5,0xff
	.loc 1 107 14 discriminator 1
	sb	a5,-41(s0)
.L22:
	.loc 1 110 8
	lbu	a5,-41(s0)
	andi	a5,a5,0xff
	beq	a5,zero,.L23
	.loc 1 111 10
	ld	a5,-88(s0)
	beq	a5,zero,.L24
	.loc 1 112 19
	ld	a4,-64(s0)
	ld	a5,-88(s0)
	sd	a4,0(a5)
	j	.L25
.L24:
	.loc 1 114 9
	ld	a5,-64(s0)
	mv	a0,a5
	call	FreePool@plt
.L25:
	.loc 1 117 14
	li	a5,1
	j	.L28
.L23:
	.loc 1 120 5
	ld	a5,-64(s0)
	mv	a0,a5
	call	FreePool@plt
	.loc 1 121 14
	sd	zero,-64(s0)
.L11:
	.loc 1 80 37
	ld	a5,-40(s0)
	beq	a5,zero,.L26
	.loc 1 80 40 discriminator 1
	ld	a5,-40(s0)
	lhu	a5,0(a5)
	.loc 1 80 37 discriminator 1
	bne	a5,zero,.L27
.L26:
	.loc 1 124 10
	li	a5,0
.L28:
	.loc 1 125 1
	mv	a0,a5
	ld	ra,104(sp)
	.cfi_restore 1
	ld	s0,96(sp)
	.cfi_restore 8
	.cfi_def_cfa 2, 112
	ld	s1,88(sp)
	.cfi_restore 9
	addi	sp,sp,112
	.cfi_def_cfa_offset 0
	jr	ra
	.cfi_endproc
.LFE1:
	.size	SearchList, .-SearchList
	.section	.text.GetDeviceMediaType,"ax",@progbits
	.align	1
	.globl	GetDeviceMediaType
	.type	GetDeviceMediaType, @function
GetDeviceMediaType:
.LFB2:
	.loc 1 143 1
	.cfi_startproc
	addi	sp,sp,-48
	.cfi_def_cfa_offset 48
	sd	ra,40(sp)
	sd	s0,32(sp)
	.cfi_offset 1, -8
	.cfi_offset 8, -16
	addi	s0,sp,48
	.cfi_def_cfa 8, 0
	sd	a0,-40(s0)
	.loc 1 153 6
	ld	a5,-40(s0)
	bne	a5,zero,.L32
	.loc 1 154 12
	la	a5,gShellLevel2HiiHandle
	ld	a5,0(a5)
	li	a2,0
	li	a1,49
	mv	a0,a5
	call	HiiGetString@plt
	mv	a5,a0
	j	.L31
.L37:
	.loc 1 158 9
	ld	a0,-40(s0)
	call	DevicePathType@plt
	mv	a5,a0
	.loc 1 158 8 discriminator 1
	mv	a4,a5
	li	a5,4
	bne	a4,a5,.L33
	.loc 1 159 15
	ld	a0,-40(s0)
	call	DevicePathSubType@plt
	mv	a5,a0
	.loc 1 159 15 is_stmt 0 discriminator 1
	sext.w	a5,a5
	.loc 1 159 7 is_stmt 1 discriminator 1
	li	a4,1
	beq	a5,a4,.L34
	li	a4,2
	beq	a5,a4,.L35
	j	.L36
.L34:
	.loc 1 161 18
	la	a5,gShellLevel2HiiHandle
	ld	a5,0(a5)
	li	a2,0
	li	a1,50
	mv	a0,a5
	call	HiiGetString@plt
	mv	a5,a0
	j	.L31
.L35:
	.loc 1 163 18
	la	a5,gShellLevel2HiiHandle
	ld	a5,0(a5)
	li	a2,0
	li	a1,51
	mv	a0,a5
	call	HiiGetString@plt
	mv	a5,a0
	j	.L31
.L33:
	.loc 1 165 16
	ld	a0,-40(s0)
	call	DevicePathType@plt
	mv	a5,a0
	.loc 1 165 15 discriminator 1
	mv	a4,a5
	li	a5,2
	bne	a4,a5,.L36
	.loc 1 166 12
	ld	a5,-40(s0)
	sd	a5,-24(s0)
	.loc 1 167 17
	ld	a5,-24(s0)
	lbu	a4,4(a5)
	lbu	a3,5(a5)
	slli	a3,a3,8
	or	a4,a3,a4
	lbu	a3,6(a5)
	slli	a3,a3,16
	or	a4,a3,a4
	lbu	a5,7(a5)
	slli	a5,a5,24
	or	a5,a5,a4
	sext.w	a5,a5
	.loc 1 167 24
	srliw	a5,a5,16
	sext.w	a4,a5
	.loc 1 167 10
	li	a5,1540
	bne	a4,a5,.L36
	.loc 1 168 16
	la	a5,gShellLevel2HiiHandle
	ld	a5,0(a5)
	li	a2,0
	li	a1,48
	mv	a0,a5
	call	HiiGetString@plt
	mv	a5,a0
	j	.L31
.L36:
	.loc 1 157 59
	ld	a0,-40(s0)
	call	NextDevicePathNode@plt
	sd	a0,-40(s0)
.L32:
	.loc 1 157 12 discriminator 2
	ld	a0,-40(s0)
	call	IsDevicePathEndType@plt
	mv	a5,a0
	.loc 1 157 11 discriminator 3
	beq	a5,zero,.L37
	.loc 1 173 10
	la	a5,gShellLevel2HiiHandle
	ld	a5,0(a5)
	li	a2,0
	li	a1,49
	mv	a0,a5
	call	HiiGetString@plt
	mv	a5,a0
.L31:
	.loc 1 174 1
	mv	a0,a5
	ld	ra,40(sp)
	.cfi_restore 1
	ld	s0,32(sp)
	.cfi_restore 8
	.cfi_def_cfa 2, 48
	addi	sp,sp,48
	.cfi_def_cfa_offset 0
	jr	ra
	.cfi_endproc
.LFE2:
	.size	GetDeviceMediaType, .-GetDeviceMediaType
	.section	.text.IsRemoveableDevice,"ax",@progbits
	.align	1
	.globl	IsRemoveableDevice
	.type	IsRemoveableDevice, @function
IsRemoveableDevice:
.LFB3:
	.loc 1 188 1
	.cfi_startproc
	addi	sp,sp,-32
	.cfi_def_cfa_offset 32
	sd	ra,24(sp)
	sd	s0,16(sp)
	.cfi_offset 1, -8
	.cfi_offset 8, -16
	addi	s0,sp,32
	.cfi_def_cfa 8, 0
	sd	a0,-24(s0)
	.loc 1 189 6
	ld	a5,-24(s0)
	bne	a5,zero,.L41
	.loc 1 190 12
	li	a5,0
	j	.L40
.L45:
	.loc 1 194 9
	ld	a0,-24(s0)
	call	DevicePathType@plt
	mv	a5,a0
	.loc 1 194 8 discriminator 1
	mv	a4,a5
	li	a5,3
	bne	a4,a5,.L42
	.loc 1 195 15
	ld	a0,-24(s0)
	call	DevicePathSubType@plt
	mv	a5,a0
	.loc 1 195 15 is_stmt 0 discriminator 1
	sext.w	a5,a5
	.loc 1 195 7 is_stmt 1 discriminator 1
	li	a4,2
	beq	a5,a4,.L43
	li	a4,5
	bne	a5,a4,.L44
.L43:
	.loc 1 198 18
	li	a5,1
	j	.L40
.L44:
	.loc 1 200 18
	li	a5,0
	j	.L40
.L42:
	.loc 1 204 18
	ld	a0,-24(s0)
	call	NextDevicePathNode@plt
	sd	a0,-24(s0)
.L41:
	.loc 1 193 11
	ld	a0,-24(s0)
	call	IsDevicePathEndType@plt
	mv	a5,a0
	.loc 1 193 10 discriminator 1
	beq	a5,zero,.L45
	.loc 1 207 10
	li	a5,0
.L40:
	.loc 1 208 1
	mv	a0,a5
	ld	ra,24(sp)
	.cfi_restore 1
	ld	s0,16(sp)
	.cfi_restore 8
	.cfi_def_cfa 2, 32
	addi	sp,sp,32
	.cfi_def_cfa_offset 0
	jr	ra
	.cfi_endproc
.LFE3:
	.size	IsRemoveableDevice, .-IsRemoveableDevice
	.section	.rodata
	.align	3
.LC0:
	.string	":"
	.zero	2
	.align	3
.LC1:
	.string	";"
	.zero	2
	.align	3
.LC2:
	.string	"H"
	.string	"D"
	.string	"*"
	.zero	2
	.align	3
.LC3:
	.string	"C"
	.string	"D"
	.string	"*"
	.zero	2
	.align	3
.LC4:
	.string	"F"
	.string	"*"
	.zero	2
	.align	3
.LC5:
	.string	"F"
	.string	"P"
	.string	"*"
	.zero	2
	.align	3
.LC6:
	.string	"F"
	.string	"S"
	.zero	2
	.align	3
.LC7:
	.string	"B"
	.string	"L"
	.string	"K"
	.zero	2
	.section	.text.MappingListHasType,"ax",@progbits
	.align	1
	.globl	MappingListHasType
	.type	MappingListHasType, @function
MappingListHasType:
.LFB4:
	.loc 1 230 1
	.cfi_startproc
	addi	sp,sp,-96
	.cfi_def_cfa_offset 96
	sd	ra,88(sp)
	sd	s0,80(sp)
	sd	s1,72(sp)
	.cfi_offset 1, -8
	.cfi_offset 8, -16
	.cfi_offset 9, -24
	addi	s0,sp,96
	.cfi_def_cfa 8, 0
	sd	a0,-72(s0)
	sd	a1,-80(s0)
	sd	a2,-88(s0)
	mv	a5,a3
	sb	a5,-89(s0)
	mv	a5,a4
	sb	a5,-90(s0)
	.loc 1 238 6
	ld	a5,-80(s0)
	beq	a5,zero,.L47
	.loc 1 239 14
	ld	a0,-80(s0)
	call	StrLen@plt
	sd	a0,-40(s0)
	.loc 1 243 41
	ld	a5,-40(s0)
	addi	a5,a5,2
	.loc 1 243 46
	slli	a5,a5,1
	.loc 1 243 19
	mv	a0,a5
	call	AllocatePool@plt
	sd	a0,-48(s0)
	.loc 1 244 8
	ld	a5,-48(s0)
	bne	a5,zero,.L48
	.loc 1 245 14
	li	a5,0
	j	.L49
.L48:
	.loc 1 248 5
	ld	a5,-40(s0)
	addi	a5,a5,2
	ld	a2,-80(s0)
	mv	a1,a5
	ld	a0,-48(s0)
	call	StrCpyS@plt
	.loc 1 249 17
	ld	a5,-40(s0)
	slli	a5,a5,1
	addi	a5,a5,-2
	ld	a4,-80(s0)
	add	a5,a4,a5
	lhu	a5,0(a5)
	.loc 1 249 8
	sext.w	a4,a5
	li	a5,58
	beq	a4,a5,.L50
	.loc 1 250 16
	ld	a5,-40(s0)
	addi	s1,a5,2
	lla	a0,.LC0
	call	StrLen@plt
	mv	a5,a0
	.loc 1 250 16 is_stmt 0 discriminator 1
	mv	a3,a5
	lla	a2,.LC0
	mv	a1,s1
	ld	a0,-48(s0)
	call	StrnCatS@plt
	sd	a0,-56(s0)
	.loc 1 251 38 is_stmt 1
	ld	a5,-56(s0)
	.loc 1 251 10
	bge	a5,zero,.L50
	.loc 1 252 9
	ld	a0,-48(s0)
	call	FreePool@plt
	.loc 1 253 16
	li	a5,0
	j	.L49
.L50:
	.loc 1 257 9
	lla	a5,.LC1
	li	a4,0
	li	a3,1
	li	a2,0
	ld	a1,-48(s0)
	ld	a0,-72(s0)
	call	SearchList
	mv	a5,a0
	.loc 1 257 8 discriminator 1
	beq	a5,zero,.L51
	.loc 1 258 7
	ld	a0,-48(s0)
	call	FreePool@plt
	.loc 1 259 14
	li	a5,1
	j	.L49
.L51:
	.loc 1 262 5
	ld	a0,-48(s0)
	call	FreePool@plt
.L47:
	.loc 1 265 6
	lbu	a5,-90(s0)
	andi	a5,a5,0xff
	beq	a5,zero,.L52
	.loc 1 266 6
	ld	a5,-80(s0)
	bne	a5,zero,.L52
	.loc 1 267 11
	lla	a5,.LC1
	li	a4,1
	li	a3,1
	li	a2,0
	lla	a1,.LC2
	ld	a0,-72(s0)
	call	SearchList
	mv	a5,a0
	.loc 1 267 6 discriminator 1
	bne	a5,zero,.L53
	.loc 1 268 12
	lla	a5,.LC1
	li	a4,1
	li	a3,1
	li	a2,0
	lla	a1,.LC3
	ld	a0,-72(s0)
	call	SearchList
	mv	a5,a0
	.loc 1 268 9 discriminator 1
	bne	a5,zero,.L53
	.loc 1 269 12
	lla	a5,.LC1
	li	a4,1
	li	a3,1
	li	a2,0
	lla	a1,.LC4
	ld	a0,-72(s0)
	call	SearchList
	mv	a5,a0
	.loc 1 269 9 discriminator 1
	bne	a5,zero,.L53
	.loc 1 270 12
	lla	a5,.LC1
	li	a4,1
	li	a3,1
	li	a2,0
	lla	a1,.LC5
	ld	a0,-72(s0)
	call	SearchList
	mv	a5,a0
	.loc 1 270 9 discriminator 1
	beq	a5,zero,.L52
.L53:
	.loc 1 272 12
	li	a5,1
	j	.L49
.L52:
	.loc 1 275 6
	lbu	a5,-89(s0)
	andi	a5,a5,0xff
	beq	a5,zero,.L54
	.loc 1 276 6
	ld	a5,-80(s0)
	bne	a5,zero,.L54
	.loc 1 277 11
	lla	a5,.LC1
	li	a4,1
	li	a3,0
	li	a2,0
	lla	a1,.LC6
	ld	a0,-72(s0)
	call	SearchList
	mv	a5,a0
	.loc 1 277 6 discriminator 1
	bne	a5,zero,.L55
	.loc 1 278 12
	lla	a5,.LC1
	li	a4,1
	li	a3,0
	li	a2,0
	lla	a1,.LC7
	ld	a0,-72(s0)
	call	SearchList
	mv	a5,a0
	.loc 1 278 9 discriminator 1
	beq	a5,zero,.L54
.L55:
	.loc 1 280 12
	li	a5,1
	j	.L49
.L54:
	.loc 1 283 6
	ld	a5,-88(s0)
	beq	a5,zero,.L56
	.loc 1 283 39 discriminator 1
	lla	a5,.LC1
	li	a4,1
	li	a3,1
	li	a2,0
	ld	a1,-88(s0)
	ld	a0,-72(s0)
	call	SearchList
	mv	a5,a0
	.loc 1 283 36 discriminator 2
	beq	a5,zero,.L56
	.loc 1 284 12
	li	a5,1
	j	.L49
.L56:
	.loc 1 287 10
	li	a5,0
.L49:
	.loc 1 288 1
	mv	a0,a5
	ld	ra,88(sp)
	.cfi_restore 1
	ld	s0,80(sp)
	.cfi_restore 8
	.cfi_def_cfa 2, 96
	ld	s1,72(sp)
	.cfi_restore 9
	addi	sp,sp,96
	.cfi_def_cfa_offset 0
	jr	ra
	.cfi_endproc
.LFE4:
	.size	MappingListHasType, .-MappingListHasType
	.section	.rodata
	.align	3
.LC8:
	.zero	2
	.align	3
.LC9:
	.string	"Y"
	.string	"e"
	.string	"s"
	.zero	2
	.align	3
.LC10:
	.string	"N"
	.string	"o"
	.zero	2
	.section	.text.PerformSingleMappingDisplay,"ax",@progbits
	.align	1
	.globl	PerformSingleMappingDisplay
	.type	PerformSingleMappingDisplay, @function
PerformSingleMappingDisplay:
.LFB5:
	.loc 1 313 1
	.cfi_startproc
	addi	sp,sp,-176
	.cfi_def_cfa_offset 176
	sd	ra,168(sp)
	sd	s0,160(sp)
	sd	s1,152(sp)
	sd	s2,144(sp)
	.cfi_offset 1, -8
	.cfi_offset 8, -16
	.cfi_offset 9, -24
	.cfi_offset 18, -32
	addi	s0,sp,176
	.cfi_def_cfa 8, 0
	sd	a3,-144(s0)
	sd	a5,-152(s0)
	sd	a6,-160(s0)
	mv	a5,a0
	sb	a5,-129(s0)
	mv	a5,a1
	sb	a5,-130(s0)
	mv	a5,a2
	sb	a5,-131(s0)
	mv	a5,a4
	sb	a5,-132(s0)
	.loc 1 326 9
	sd	zero,-120(s0)
	.loc 1 327 13
	sd	zero,-48(s0)
	.loc 1 328 15
	sd	zero,-112(s0)
	.loc 1 329 13
	ld	a0,-160(s0)
	call	DevicePathFromHandle@plt
	sd	a0,-56(s0)
	.loc 1 330 15
	ld	a5,-56(s0)
	sd	a5,-104(s0)
	.loc 1 331 30
	la	a5,gEfiShellProtocol
	ld	a5,0(a5)
	ld	a5,56(a5)
	.loc 1 331 13
	addi	a4,s0,-104
	mv	a0,a4
	jalr	a5
.LVL1:
	sd	a0,-64(s0)
	.loc 1 332 6
	ld	a5,-64(s0)
	bne	a5,zero,.L58
	.loc 1 333 12
	li	a5,-1
	slli	a5,a5,63
	addi	a5,a5,14
	j	.L91
.L58:
	.loc 1 336 8
	lbu	a4,-130(s0)
	lbu	a5,-131(s0)
	mv	a3,a5
	ld	a2,-144(s0)
	ld	a1,-152(s0)
	ld	a0,-64(s0)
	call	MappingListHasType
	mv	a5,a0
	.loc 1 336 6 discriminator 1
	bne	a5,zero,.L60
	.loc 1 337 12
	li	a5,-1
	slli	a5,a5,63
	addi	a5,a5,14
	j	.L91
.L60:
	.loc 1 340 6
	lbu	a5,-131(s0)
	andi	a5,a5,0xff
	bne	a5,zero,.L61
	.loc 1 340 14 discriminator 1
	lbu	a5,-130(s0)
	andi	a5,a5,0xff
	bne	a5,zero,.L62
.L61:
	.loc 1 348 17
	sd	zero,-112(s0)
	.loc 1 349 19
	addi	a5,s0,-112
	li	a3,0
	ld	a2,-64(s0)
	li	a1,0
	mv	a0,a5
	call	StrnCatGrow@plt
	mv	a5,a0
	.loc 1 349 17 discriminator 1
	sd	a5,-112(s0)
	.loc 1 350 21
	ld	a5,-112(s0)
	.loc 1 350 8
	bne	a5,zero,.L63
	.loc 1 351 14
	li	a5,-1
	slli	a5,a5,63
	addi	a5,a5,9
	j	.L91
.L63:
	.loc 1 358 16
	ld	a5,-112(s0)
	lla	a1,.LC1
	mv	a0,a5
	call	StrStr@plt
	sd	a0,-40(s0)
	.loc 1 359 8
	ld	a5,-40(s0)
	beq	a5,zero,.L65
	.loc 1 360 17
	ld	a5,-40(s0)
	sh	zero,0(a5)
	.loc 1 359 8
	j	.L65
.L62:
	.loc 1 363 17
	sd	zero,-112(s0)
	.loc 1 368 16
	lla	a1,.LC1
	ld	a0,-64(s0)
	call	StrStr@plt
	sd	a0,-40(s0)
	.loc 1 369 8
	ld	a5,-40(s0)
	beq	a5,zero,.L66
	.loc 1 370 15
	ld	a5,-40(s0)
	addi	a5,a5,2
	sd	a5,-40(s0)
.L66:
	.loc 1 373 5
	addi	a2,s0,-112
	lla	a5,.LC1
	li	a4,0
	li	a3,1
	lla	a1,.LC2
	ld	a0,-40(s0)
	call	SearchList
	.loc 1 374 21
	ld	a5,-112(s0)
	.loc 1 374 8
	bne	a5,zero,.L67
	.loc 1 375 7
	addi	a2,s0,-112
	lla	a5,.LC1
	li	a4,0
	li	a3,1
	lla	a1,.LC3
	ld	a0,-40(s0)
	call	SearchList
.L67:
	.loc 1 378 21
	ld	a5,-112(s0)
	.loc 1 378 8
	bne	a5,zero,.L68
	.loc 1 379 7
	addi	a2,s0,-112
	lla	a5,.LC1
	li	a4,0
	li	a3,1
	lla	a1,.LC5
	ld	a0,-40(s0)
	call	SearchList
.L68:
	.loc 1 382 21
	ld	a5,-112(s0)
	.loc 1 382 8
	bne	a5,zero,.L69
	.loc 1 383 7
	addi	a2,s0,-112
	lla	a5,.LC1
	li	a4,0
	li	a3,1
	lla	a1,.LC4
	ld	a0,-40(s0)
	call	SearchList
.L69:
	.loc 1 386 21
	ld	a5,-112(s0)
	.loc 1 386 8
	bne	a5,zero,.L70
	.loc 1 390 21
	addi	a5,s0,-112
	li	a3,0
	ld	a2,-64(s0)
	li	a1,0
	mv	a0,a5
	call	StrnCatGrow@plt
	mv	a5,a0
	.loc 1 390 19 discriminator 1
	sd	a5,-112(s0)
	.loc 1 391 23
	ld	a5,-112(s0)
	.loc 1 391 10
	bne	a5,zero,.L71
	.loc 1 392 16
	li	a5,-1
	slli	a5,a5,63
	addi	a5,a5,9
	j	.L91
.L71:
	.loc 1 395 18
	ld	a5,-112(s0)
	lla	a1,.LC1
	mv	a0,a5
	call	StrStr@plt
	sd	a0,-40(s0)
	.loc 1 396 10
	ld	a5,-40(s0)
	beq	a5,zero,.L65
	.loc 1 397 19
	ld	a5,-40(s0)
	sh	zero,0(a5)
	j	.L65
.L70:
	.loc 1 400 15
	addi	a5,s0,-120
	li	a3,0
	ld	a2,-64(s0)
	li	a1,0
	mv	a0,a5
	call	StrnCatGrow@plt
	mv	a5,a0
	.loc 1 400 13 discriminator 1
	sd	a5,-120(s0)
	.loc 1 401 17
	ld	a5,-120(s0)
	.loc 1 401 10
	bne	a5,zero,.L72
	.loc 1 402 16
	li	a5,-1
	slli	a5,a5,63
	addi	a5,a5,9
	j	.L91
.L72:
	.loc 1 405 18
	ld	a5,-120(s0)
	ld	a4,-112(s0)
	mv	a1,a4
	mv	a0,a5
	call	StrStr@plt
	sd	a0,-40(s0)
	.loc 1 406 10
	ld	a5,-40(s0)
	beq	a5,zero,.L73
	.loc 1 407 21
	lla	a1,.LC1
	ld	a0,-40(s0)
	call	StrStr@plt
	sd	a0,-48(s0)
	.loc 1 408 12
	ld	a5,-48(s0)
	beq	a5,zero,.L74
	.loc 1 409 20
	ld	a5,-48(s0)
	addi	a5,a5,2
	sd	a5,-48(s0)
	.loc 1 410 11
	ld	a0,-48(s0)
	call	StrSize@plt
	mv	a5,a0
	.loc 1 410 11 is_stmt 0 discriminator 1
	mv	a2,a5
	ld	a1,-48(s0)
	ld	a0,-40(s0)
	call	CopyMem@plt
	j	.L73
.L74:
	.loc 1 412 21 is_stmt 1
	ld	a5,-40(s0)
	sh	zero,0(a5)
.L73:
	.loc 1 416 16
	ld	s1,-120(s0)
	.loc 1 416 17
	ld	a5,-120(s0)
	mv	a0,a5
	call	StrLen@plt
	mv	a5,a0
	.loc 1 416 16 discriminator 1
	slli	a5,a5,1
	addi	a5,a5,-2
	add	a5,s1,a5
	lhu	a5,0(a5)
	.loc 1 416 10 discriminator 1
	sext.w	a4,a5
	li	a5,59
	bne	a4,a5,.L65
	.loc 1 417 14
	ld	s1,-120(s0)
	.loc 1 417 15
	ld	a5,-120(s0)
	mv	a0,a5
	call	StrLen@plt
	mv	a5,a0
	.loc 1 417 14 discriminator 1
	slli	a5,a5,1
	addi	a5,a5,-2
	add	a5,s1,a5
	.loc 1 417 33 discriminator 1
	sh	zero,0(a5)
.L65:
	.loc 1 422 19
	li	a2,0
	li	a1,1
	ld	a0,-56(s0)
	call	ConvertDevicePathToText@plt
	sd	a0,-72(s0)
	.loc 1 423 13
	ld	a5,-112(s0)
	mv	a0,a5
	call	StrLen@plt
	sd	a0,-80(s0)
	.loc 1 424 6
	lbu	a5,-132(s0)
	andi	a5,a5,0xff
	bne	a5,zero,.L75
	.loc 1 425 5
	la	a5,gShellLevel2HiiHandle
	ld	s1,0(a5)
	ld	s2,-112(s0)
	.loc 1 432 13
	ld	a5,-120(s0)
	.loc 1 425 5
	bne	a5,zero,.L76
	.loc 1 432 50
	ld	a0,-64(s0)
	call	StrLen@plt
	mv	a4,a0
	.loc 1 432 89 discriminator 1
	ld	a5,-80(s0)
	bgeu	a5,a4,.L77
	.loc 1 432 86 discriminator 2
	ld	a5,-80(s0)
	addi	a5,a5,1
	slli	a5,a5,1
	.loc 1 425 5
	ld	a4,-64(s0)
	add	a5,a4,a5
	j	.L78
.L77:
	lla	a5,.LC8
	j	.L78
.L76:
	.loc 1 425 5 is_stmt 0 discriminator 1
	ld	a5,-120(s0)
.L78:
	.loc 1 425 5 discriminator 2
	ld	a7,-72(s0)
	mv	a6,a5
	mv	a5,s2
	mv	a4,s1
	li	a3,45
	li	a2,0
	li	a1,-1
	li	a0,-1
	call	ShellPrintHiiEx@plt
	.loc 1 435 8 is_stmt 1
	lbu	a5,-129(s0)
	andi	a5,a5,0xff
	beq	a5,zero,.L79
	.loc 1 439 19
	ld	a0,-56(s0)
	call	GetDeviceMediaType
	sd	a0,-88(s0)
	.loc 1 440 10
	ld	a5,-144(s0)
	beq	a5,zero,.L80
	.loc 1 440 41 discriminator 1
	ld	a5,-88(s0)
	beq	a5,zero,.L80
	.loc 1 440 76 discriminator 3
	ld	a1,-88(s0)
	ld	a0,-144(s0)
	call	StrStr@plt
	mv	a5,a0
	.loc 1 440 72 discriminator 5
	bne	a5,zero,.L81
.L80:
	.loc 1 440 125 discriminator 6
	ld	a5,-144(s0)
	bne	a5,zero,.L82
.L81:
	.loc 1 441 21
	ld	a0,-56(s0)
	call	IsRemoveableDevice
	mv	a5,a0
	sb	a5,-89(s0)
	.loc 1 442 21
	ld	a5,-112(s0)
	mv	a0,a5
	call	ShellGetCurrentDir@plt
	sd	a0,-48(s0)
	.loc 1 443 9
	la	a5,gShellLevel2HiiHandle
	ld	s1,0(a5)
	ld	a0,-160(s0)
	call	ConvertHandleToHandleIndex@plt
	mv	a3,a0
	.loc 1 443 9 is_stmt 0 discriminator 1
	lbu	a5,-89(s0)
	andi	a5,a5,0xff
	beq	a5,zero,.L83
	.loc 1 443 9 discriminator 2
	lla	a5,.LC9
	j	.L84
.L83:
	.loc 1 443 9 discriminator 3
	lla	a5,.LC10
.L84:
	.loc 1 443 9 discriminator 5
	ld	a4,-48(s0)
	sd	a4,0(sp)
	mv	a7,a5
	ld	a6,-88(s0)
	mv	a5,a3
	mv	a4,s1
	li	a3,46
	li	a2,0
	li	a1,-1
	li	a0,-1
	call	ShellPrintHiiEx@plt
.L82:
	.loc 1 456 15 is_stmt 1
	ld	a5,-88(s0)
	beq	a5,zero,.L79
	.loc 1 456 47 discriminator 1
	ld	a0,-88(s0)
	call	FreePool@plt
	.loc 1 456 82 discriminator 2
	sd	zero,-88(s0)
	j	.L79
.L75:
	.loc 1 459 5
	la	a5,gShellLevel2HiiHandle
	ld	s1,0(a5)
	ld	s2,-112(s0)
	lbu	a5,-130(s0)
	andi	a5,a5,0xff
	bne	a5,zero,.L85
	.loc 1 467 34
	ld	a0,-64(s0)
	call	StrLen@plt
	mv	a4,a0
	.loc 1 467 73 discriminator 1
	ld	a5,-80(s0)
	bgeu	a5,a4,.L86
	.loc 1 467 70 discriminator 2
	ld	a5,-80(s0)
	addi	a5,a5,1
	slli	a5,a5,1
	.loc 1 459 5
	ld	a4,-64(s0)
	add	a5,a4,a5
	j	.L87
.L86:
	lla	a5,.LC8
	j	.L87
.L85:
	.loc 1 459 5 is_stmt 0 discriminator 1
	lla	a5,.LC8
.L87:
	.loc 1 459 5 discriminator 2
	mv	a7,a5
	ld	a6,-72(s0)
	mv	a5,s2
	mv	a4,s1
	li	a3,43
	li	a2,0
	li	a1,-1
	li	a0,-1
	call	ShellPrintHiiEx@plt
.L79:
	.loc 1 471 11 is_stmt 1
	ld	a5,-72(s0)
	beq	a5,zero,.L88
	.loc 1 471 47 discriminator 1
	ld	a0,-72(s0)
	call	FreePool@plt
	.loc 1 471 90 discriminator 2
	sd	zero,-72(s0)
.L88:
	.loc 1 472 26
	ld	a5,-112(s0)
	.loc 1 472 11
	beq	a5,zero,.L89
	.loc 1 472 45 discriminator 1
	ld	a5,-112(s0)
	mv	a0,a5
	call	FreePool@plt
	.loc 1 472 84 discriminator 2
	sd	zero,-112(s0)
.L89:
	.loc 1 473 20
	ld	a5,-120(s0)
	.loc 1 473 11
	beq	a5,zero,.L90
	.loc 1 473 39 discriminator 1
	ld	a5,-120(s0)
	mv	a0,a5
	call	FreePool@plt
	.loc 1 473 66 discriminator 2
	sd	zero,-120(s0)
.L90:
	.loc 1 474 10
	li	a5,0
.L91:
	.loc 1 475 1
	mv	a0,a5
	ld	ra,168(sp)
	.cfi_restore 1
	ld	s0,160(sp)
	.cfi_restore 8
	.cfi_def_cfa 2, 176
	ld	s1,152(sp)
	.cfi_restore 9
	ld	s2,144(sp)
	.cfi_restore 18
	addi	sp,sp,176
	.cfi_def_cfa_offset 0
	jr	ra
	.cfi_endproc
.LFE5:
	.size	PerformSingleMappingDisplay, .-PerformSingleMappingDisplay
	.section	.text.PerformSingleMappingDelete,"ax",@progbits
	.align	1
	.globl	PerformSingleMappingDelete
	.type	PerformSingleMappingDelete, @function
PerformSingleMappingDelete:
.LFB6:
	.loc 1 491 1
	.cfi_startproc
	addi	sp,sp,-64
	.cfi_def_cfa_offset 64
	sd	ra,56(sp)
	sd	s0,48(sp)
	.cfi_offset 1, -8
	.cfi_offset 8, -16
	addi	s0,sp,64
	.cfi_def_cfa 8, 0
	sd	a0,-56(s0)
	sd	a1,-64(s0)
	.loc 1 497 13
	ld	a0,-64(s0)
	call	DevicePathFromHandle@plt
	sd	a0,-24(s0)
	.loc 1 498 15
	ld	a5,-24(s0)
	sd	a5,-40(s0)
	.loc 1 499 30
	la	a5,gEfiShellProtocol
	ld	a5,0(a5)
	ld	a5,56(a5)
	.loc 1 499 13
	addi	a4,s0,-40
	mv	a0,a4
	jalr	a5
.LVL2:
	sd	a0,-32(s0)
	.loc 1 500 15
	sd	zero,-48(s0)
	.loc 1 502 6
	ld	a5,-32(s0)
	bne	a5,zero,.L93
	.loc 1 503 12
	li	a5,-1
	slli	a5,a5,63
	addi	a5,a5,14
	j	.L96
.L93:
	.loc 1 509 8
	addi	a2,s0,-48
	lla	a5,.LC1
	li	a4,0
	li	a3,1
	ld	a1,-56(s0)
	ld	a0,-32(s0)
	call	SearchList
	mv	a5,a0
	.loc 1 509 6 discriminator 1
	bne	a5,zero,.L95
	.loc 1 510 12
	li	a5,-1
	slli	a5,a5,63
	addi	a5,a5,14
	j	.L96
.L95:
	.loc 1 513 28
	la	a5,gEfiShellProtocol
	ld	a5,0(a5)
	ld	a5,80(a5)
	.loc 1 513 11
	ld	a4,-48(s0)
	mv	a1,a4
	li	a0,0
	jalr	a5
.LVL3:
	mv	a5,a0
.L96:
	.loc 1 514 1
	mv	a0,a5
	ld	ra,56(sp)
	.cfi_restore 1
	ld	s0,48(sp)
	.cfi_restore 8
	.cfi_def_cfa 2, 64
	addi	sp,sp,64
	.cfi_def_cfa_offset 0
	jr	ra
	.cfi_endproc
.LFE6:
	.size	PerformSingleMappingDelete, .-PerformSingleMappingDelete
	.globl	Cd
	.section	.rodata.Cd,"a"
	.align	3
	.type	Cd, @object
	.size	Cd, 8
Cd:
	.string	"c"
	.string	"d"
	.string	"*"
	.zero	2
	.globl	Hd
	.section	.rodata.Hd,"a"
	.align	3
	.type	Hd, @object
	.size	Hd, 8
Hd:
	.string	"h"
	.string	"d"
	.string	"*"
	.zero	2
	.globl	Fp
	.section	.rodata.Fp,"a"
	.align	3
	.type	Fp, @object
	.size	Fp, 8
Fp:
	.string	"f"
	.string	"p"
	.string	"*"
	.zero	2
	.globl	AnyF
	.section	.rodata.AnyF,"a"
	.align	3
	.type	AnyF, @object
	.size	AnyF, 6
AnyF:
	.string	"F"
	.string	"*"
	.zero	2
	.section	.rodata
	.align	3
.LC11:
	.string	"m"
	.string	"a"
	.string	"p"
	.zero	2
	.section	.text.PerformMappingDisplay,"ax",@progbits
	.align	1
	.globl	PerformMappingDisplay
	.type	PerformMappingDisplay, @function
PerformMappingDisplay:
.LFB7:
	.loc 1 549 1
	.cfi_startproc
	addi	sp,sp,-96
	.cfi_def_cfa_offset 96
	sd	ra,88(sp)
	sd	s0,80(sp)
	.cfi_offset 1, -8
	.cfi_offset 8, -16
	addi	s0,sp,96
	.cfi_def_cfa 8, 0
	sd	a3,-80(s0)
	mv	a3,a4
	sd	a5,-88(s0)
	mv	a4,a6
	mv	a5,a0
	sb	a5,-65(s0)
	mv	a5,a1
	sb	a5,-66(s0)
	mv	a5,a2
	sb	a5,-67(s0)
	mv	a5,a3
	sb	a5,-68(s0)
	mv	a5,a4
	sb	a5,-69(s0)
	.loc 1 557 6
	lbu	a5,-66(s0)
	andi	a5,a5,0xff
	bne	a5,zero,.L98
	.loc 1 557 16 discriminator 1
	lbu	a5,-67(s0)
	andi	a5,a5,0xff
	bne	a5,zero,.L98
	.loc 1 557 27 discriminator 2
	ld	a5,-88(s0)
	bne	a5,zero,.L98
	.loc 1 557 57 discriminator 3
	ld	a5,-80(s0)
	bne	a5,zero,.L98
	.loc 1 558 5
	la	a5,gShellLevel2HiiHandle
	ld	a4,0(a5)
	lla	a5,.LC11
	li	a3,4
	li	a2,0
	li	a1,-1
	li	a0,-1
	call	ShellPrintHiiEx@plt
	.loc 1 559 12
	li	a5,2
	j	.L121
.L98:
	.loc 1 562 6
	ld	a5,-80(s0)
	beq	a5,zero,.L100
	.loc 1 563 10
	lla	a5,Cd
	sd	a5,-48(s0)
	.loc 1 564 36
	ld	a0,-48(s0)
	call	StrLen@plt
	mv	a5,a0
	.loc 1 564 9 discriminator 1
	addi	a5,a5,-1
	mv	a2,a5
	ld	a1,-48(s0)
	ld	a0,-80(s0)
	call	StrnCmp@plt
	mv	a5,a0
	.loc 1 564 8 discriminator 2
	beq	a5,zero,.L101
	.loc 1 565 12
	lla	a5,Hd
	sd	a5,-48(s0)
	.loc 1 566 38
	ld	a0,-48(s0)
	call	StrLen@plt
	mv	a5,a0
	.loc 1 566 11 discriminator 1
	addi	a5,a5,-1
	mv	a2,a5
	ld	a1,-48(s0)
	ld	a0,-80(s0)
	call	StrnCmp@plt
	mv	a5,a0
	.loc 1 566 10 discriminator 2
	beq	a5,zero,.L102
	.loc 1 567 14
	lla	a5,Fp
	sd	a5,-48(s0)
	.loc 1 568 40
	ld	a0,-48(s0)
	call	StrLen@plt
	mv	a5,a0
	.loc 1 568 13 discriminator 1
	addi	a5,a5,-1
	mv	a2,a5
	ld	a1,-48(s0)
	ld	a0,-80(s0)
	call	StrnCmp@plt
	mv	a5,a0
	.loc 1 568 12 discriminator 2
	beq	a5,zero,.L101
	.loc 1 569 11
	la	a5,gShellLevel2HiiHandle
	ld	a4,0(a5)
	ld	a6,-80(s0)
	lla	a5,.LC11
	li	a3,5
	li	a2,0
	li	a1,-1
	li	a0,-1
	call	ShellPrintHiiEx@plt
	.loc 1 570 18
	li	a5,2
	j	.L121
.L102:
	.loc 1 572 17
	ld	a5,-48(s0)
	bne	a5,zero,.L101
	.loc 1 573 14
	lla	a5,AnyF
	sd	a5,-48(s0)
	j	.L101
.L100:
	.loc 1 577 10
	sd	zero,-48(s0)
.L101:
	.loc 1 580 6
	lbu	a5,-69(s0)
	andi	a5,a5,0xff
	beq	a5,zero,.L103
	.loc 1 584 8
	lbu	a5,-68(s0)
	andi	a5,a5,0xff
	bne	a5,zero,.L104
	.loc 1 585 7
	la	a5,gShellLevel2HiiHandle
	ld	a5,0(a5)
	mv	a4,a5
	li	a3,44
	li	a2,0
	li	a1,-1
	li	a0,-1
	call	ShellPrintHiiEx@plt
	j	.L103
.L104:
	.loc 1 587 7
	la	a5,gShellLevel2HiiHandle
	ld	a4,0(a5)
	lla	a5,.LC11
	li	a3,25
	li	a2,0
	li	a1,-1
	li	a0,-1
	call	ShellPrintHiiEx@plt
.L103:
	.loc 1 591 14
	sd	zero,-64(s0)
	.loc 1 592 16
	sd	zero,-32(s0)
	.loc 1 597 15
	la	a5,gBS
	ld	a5,0(a5)
	ld	a5,176(a5)
	.loc 1 597 12
	addi	a3,s0,-64
	ld	a4,-32(s0)
	li	a2,0
	la	a1,gEfiSimpleFileSystemProtocolGuid
	li	a0,2
	jalr	a5
.LVL4:
	sd	a0,-24(s0)
	.loc 1 604 6
	ld	a4,-24(s0)
	li	a5,-1
	slli	a5,a5,63
	addi	a5,a5,5
	bne	a4,a5,.L105
	.loc 1 605 20
	ld	a5,-64(s0)
	mv	a0,a5
	call	AllocateZeroPool@plt
	sd	a0,-32(s0)
	.loc 1 606 8
	ld	a5,-32(s0)
	bne	a5,zero,.L106
	.loc 1 607 14
	li	a5,9
	j	.L121
.L106:
	.loc 1 610 17
	la	a5,gBS
	ld	a5,0(a5)
	ld	a5,176(a5)
	.loc 1 610 14
	addi	a3,s0,-64
	ld	a4,-32(s0)
	li	a2,0
	la	a1,gEfiSimpleFileSystemProtocolGuid
	li	a0,2
	jalr	a5
.LVL5:
	sd	a0,-24(s0)
.L105:
	.loc 1 622 17
	sd	zero,-40(s0)
	.loc 1 622 28
	sb	zero,-49(s0)
	.loc 1 622 3
	j	.L107
.L110:
	.loc 1 634 28
	ld	a5,-40(s0)
	slli	a5,a5,3
	ld	a4,-32(s0)
	add	a5,a4,a5
	.loc 1 627 14
	ld	a5,0(a5)
	lbu	a4,-68(s0)
	lbu	a2,-67(s0)
	lbu	a1,-66(s0)
	lbu	a0,-65(s0)
	mv	a6,a5
	ld	a5,-88(s0)
	ld	a3,-48(s0)
	call	PerformSingleMappingDisplay
	sd	a0,-24(s0)
	.loc 1 636 9
	ld	a5,-24(s0)
	.loc 1 636 8
	blt	a5,zero,.L108
	.loc 1 637 13
	li	a5,1
	sb	a5,-49(s0)
.L108:
	.loc 1 624 18
	ld	a5,-40(s0)
	addi	a5,a5,1
	sd	a5,-40(s0)
.L107:
	.loc 1 623 33
	ld	a5,-64(s0)
	srli	a5,a5,3
	.loc 1 623 56
	ld	a4,-40(s0)
	bgeu	a4,a5,.L109
	.loc 1 623 56 is_stmt 0 discriminator 1
	ld	a5,-32(s0)
	bne	a5,zero,.L110
.L109:
	.loc 1 644 15 is_stmt 1
	la	a5,gBS
	ld	a5,0(a5)
	ld	a5,176(a5)
	.loc 1 644 12
	addi	a3,s0,-64
	ld	a4,-32(s0)
	li	a2,0
	la	a1,gEfiBlockIoProtocolGuid
	li	a0,2
	jalr	a5
.LVL6:
	sd	a0,-24(s0)
	.loc 1 651 6
	ld	a4,-24(s0)
	li	a5,-1
	slli	a5,a5,63
	addi	a5,a5,5
	bne	a4,a5,.L111
	.loc 1 652 13
	ld	a5,-32(s0)
	beq	a5,zero,.L112
	.loc 1 652 48 discriminator 1
	ld	a0,-32(s0)
	call	FreePool@plt
	.loc 1 652 89 discriminator 2
	sd	zero,-32(s0)
.L112:
	.loc 1 653 20
	ld	a5,-64(s0)
	mv	a0,a5
	call	AllocateZeroPool@plt
	sd	a0,-32(s0)
	.loc 1 654 8
	ld	a5,-32(s0)
	bne	a5,zero,.L113
	.loc 1 655 14
	li	a5,9
	j	.L121
.L113:
	.loc 1 658 17
	la	a5,gBS
	ld	a5,0(a5)
	ld	a5,176(a5)
	.loc 1 658 14
	addi	a3,s0,-64
	ld	a4,-32(s0)
	li	a2,0
	la	a1,gEfiBlockIoProtocolGuid
	li	a0,2
	jalr	a5
.LVL7:
	sd	a0,-24(s0)
.L111:
	.loc 1 667 7
	ld	a5,-24(s0)
	.loc 1 667 6
	blt	a5,zero,.L114
	.loc 1 667 61 discriminator 1
	ld	a5,-32(s0)
	beq	a5,zero,.L114
	.loc 1 671 19
	sd	zero,-40(s0)
	.loc 1 671 5
	j	.L115
.L118:
	.loc 1 679 14
	la	a5,gBS
	ld	a5,0(a5)
	ld	a6,280(a5)
	.loc 1 680 30
	ld	a5,-40(s0)
	slli	a5,a5,3
	ld	a4,-32(s0)
	add	a5,a4,a5
	.loc 1 679 11
	ld	a0,0(a5)
	la	a5,gImageHandle
	ld	a3,0(a5)
	li	a5,4
	li	a4,0
	li	a2,0
	la	a1,gEfiSimpleFileSystemProtocolGuid
	jalr	a6
.LVL8:
	mv	a5,a0
	.loc 1 679 10 discriminator 1
	beq	a5,zero,.L122
	.loc 1 698 30
	ld	a5,-40(s0)
	slli	a5,a5,3
	ld	a4,-32(s0)
	add	a5,a4,a5
	.loc 1 691 16
	ld	a5,0(a5)
	lbu	a4,-68(s0)
	lbu	a2,-67(s0)
	lbu	a1,-66(s0)
	lbu	a0,-65(s0)
	mv	a6,a5
	ld	a5,-88(s0)
	ld	a3,-48(s0)
	call	PerformSingleMappingDisplay
	sd	a0,-24(s0)
	.loc 1 700 11
	ld	a5,-24(s0)
	.loc 1 700 10
	blt	a5,zero,.L117
	.loc 1 701 15
	li	a5,1
	sb	a5,-49(s0)
	j	.L117
.L122:
	.loc 1 688 9
	nop
.L117:
	.loc 1 673 20
	ld	a5,-40(s0)
	addi	a5,a5,1
	sd	a5,-40(s0)
.L115:
	.loc 1 672 34
	ld	a5,-64(s0)
	srli	a5,a5,3
	.loc 1 672 21
	ld	a4,-40(s0)
	bltu	a4,a5,.L118
	.loc 1 705 5
	ld	a0,-32(s0)
	call	FreePool@plt
.L114:
	.loc 1 708 6
	lbu	a5,-49(s0)
	andi	a5,a5,0xff
	bne	a5,zero,.L119
	.loc 1 709 8
	ld	a5,-88(s0)
	beq	a5,zero,.L120
	.loc 1 710 27
	la	a5,gST
	ld	a5,0(a5)
	ld	a5,64(a5)
	.loc 1 710 35
	ld	a5,72(a5)
	.loc 1 710 7
	lw	a0,12(a5)
	.loc 1 710 60
	la	a5,gST
	ld	a5,0(a5)
	ld	a5,64(a5)
	.loc 1 710 68
	ld	a5,72(a5)
	.loc 1 710 74
	lw	a5,16(a5)
	.loc 1 710 85
	addiw	a5,a5,-1
	sext.w	a1,a5
	.loc 1 710 7
	la	a5,gShellLevel2HiiHandle
	ld	a4,0(a5)
	ld	a6,-88(s0)
	lla	a5,.LC11
	li	a3,41
	li	a2,0
	call	ShellPrintHiiEx@plt
	j	.L119
.L120:
	.loc 1 712 27
	la	a5,gST
	ld	a5,0(a5)
	ld	a5,64(a5)
	.loc 1 712 35
	ld	a5,72(a5)
	.loc 1 712 7
	lw	a0,12(a5)
	.loc 1 712 60
	la	a5,gST
	ld	a5,0(a5)
	ld	a5,64(a5)
	.loc 1 712 68
	ld	a5,72(a5)
	.loc 1 712 74
	lw	a5,16(a5)
	.loc 1 712 85
	addiw	a5,a5,-1
	sext.w	a1,a5
	.loc 1 712 7
	la	a5,gShellLevel2HiiHandle
	ld	a4,0(a5)
	lla	a5,.LC11
	li	a3,40
	li	a2,0
	call	ShellPrintHiiEx@plt
.L119:
	.loc 1 716 10
	li	a5,0
.L121:
	.loc 1 717 1
	mv	a0,a5
	ld	ra,88(sp)
	.cfi_restore 1
	ld	s0,80(sp)
	.cfi_restore 8
	.cfi_def_cfa 2, 96
	addi	sp,sp,96
	.cfi_def_cfa_offset 0
	jr	ra
	.cfi_endproc
.LFE7:
	.size	PerformMappingDisplay, .-PerformMappingDisplay
	.section	.rodata
	.align	3
.LC12:
	.string	","
	.zero	2
	.section	.text.PerformMappingDisplay2,"ax",@progbits
	.align	1
	.globl	PerformMappingDisplay2
	.type	PerformMappingDisplay2, @function
PerformMappingDisplay2:
.LFB8:
	.loc 1 742 1
	.cfi_startproc
	addi	sp,sp,-80
	.cfi_def_cfa_offset 80
	sd	ra,72(sp)
	sd	s0,64(sp)
	.cfi_offset 1, -8
	.cfi_offset 8, -16
	addi	s0,sp,80
	.cfi_def_cfa 8, 0
	sd	a3,-64(s0)
	sd	a5,-72(s0)
	mv	a5,a0
	sb	a5,-49(s0)
	mv	a5,a1
	sb	a5,-50(s0)
	mv	a5,a2
	sb	a5,-51(s0)
	mv	a5,a4
	sb	a5,-52(s0)
	.loc 1 747 6
	ld	a5,-64(s0)
	bne	a5,zero,.L124
	.loc 1 748 13
	lbu	a4,-52(s0)
	lbu	a2,-51(s0)
	lbu	a1,-50(s0)
	lbu	a0,-49(s0)
	li	a6,1
	ld	a5,-72(s0)
	li	a3,0
	call	PerformMappingDisplay
	mv	a5,a0
	j	.L125
.L124:
	.loc 1 751 15
	sw	zero,-28(s0)
	.loc 1 752 19
	ld	a5,-64(s0)
	sd	a5,-24(s0)
	.loc 1 752 3
	j	.L126
.L133:
	.loc 1 753 13
	lla	a1,.LC12
	ld	a0,-24(s0)
	call	StrStr@plt
	sd	a0,-40(s0)
	.loc 1 754 8
	ld	a5,-40(s0)
	bne	a5,zero,.L127
	.loc 1 755 10
	lw	a5,-28(s0)
	sext.w	a5,a5
	bne	a5,zero,.L128
	.loc 1 756 99
	ld	a4,-24(s0)
	ld	a5,-64(s0)
	sub	a5,a4,a5
	seqz	a5,a5
	andi	a5,a5,0xff
	.loc 1 756 23
	lbu	a4,-52(s0)
	lbu	a2,-51(s0)
	lbu	a1,-50(s0)
	lbu	a0,-49(s0)
	mv	a6,a5
	ld	a5,-72(s0)
	ld	a3,-24(s0)
	call	PerformMappingDisplay
	mv	a5,a0
	sw	a5,-28(s0)
	.loc 1 761 7
	j	.L130
.L128:
	.loc 1 758 85
	ld	a4,-24(s0)
	ld	a5,-64(s0)
	sub	a5,a4,a5
	seqz	a5,a5
	andi	a5,a5,0xff
	.loc 1 758 9
	lbu	a4,-52(s0)
	lbu	a2,-51(s0)
	lbu	a1,-50(s0)
	lbu	a0,-49(s0)
	mv	a6,a5
	ld	a5,-72(s0)
	ld	a3,-24(s0)
	call	PerformMappingDisplay
	.loc 1 761 7
	j	.L130
.L127:
	.loc 1 763 14
	ld	a5,-40(s0)
	sh	zero,0(a5)
	.loc 1 764 10
	lw	a5,-28(s0)
	sext.w	a5,a5
	bne	a5,zero,.L131
	.loc 1 765 99
	ld	a4,-24(s0)
	ld	a5,-64(s0)
	sub	a5,a4,a5
	seqz	a5,a5
	andi	a5,a5,0xff
	.loc 1 765 23
	lbu	a4,-52(s0)
	lbu	a2,-51(s0)
	lbu	a1,-50(s0)
	lbu	a0,-49(s0)
	mv	a6,a5
	ld	a5,-72(s0)
	ld	a3,-24(s0)
	call	PerformMappingDisplay
	mv	a5,a0
	sw	a5,-28(s0)
	j	.L132
.L131:
	.loc 1 767 85
	ld	a4,-24(s0)
	ld	a5,-64(s0)
	sub	a5,a4,a5
	seqz	a5,a5
	andi	a5,a5,0xff
	.loc 1 767 9
	lbu	a4,-52(s0)
	lbu	a2,-51(s0)
	lbu	a1,-50(s0)
	lbu	a0,-49(s0)
	mv	a6,a5
	ld	a5,-72(s0)
	ld	a3,-24(s0)
	call	PerformMappingDisplay
.L132:
	.loc 1 770 14
	ld	a5,-40(s0)
	li	a4,44
	sh	a4,0(a5)
	.loc 1 771 18
	ld	a5,-40(s0)
	addi	a5,a5,2
	sd	a5,-24(s0)
.L126:
	.loc 1 752 60 discriminator 1
	ld	a5,-24(s0)
	beq	a5,zero,.L130
	.loc 1 752 63 discriminator 2
	ld	a5,-24(s0)
	lhu	a5,0(a5)
	.loc 1 752 60 discriminator 2
	bne	a5,zero,.L133
.L130:
	.loc 1 775 10
	lw	a5,-28(s0)
.L125:
	.loc 1 776 1
	mv	a0,a5
	ld	ra,72(sp)
	.cfi_restore 1
	ld	s0,64(sp)
	.cfi_restore 8
	.cfi_def_cfa 2, 80
	addi	sp,sp,80
	.cfi_def_cfa_offset 0
	jr	ra
	.cfi_endproc
.LFE8:
	.size	PerformMappingDisplay2, .-PerformMappingDisplay2
	.section	.text.PerformMappingDelete,"ax",@progbits
	.align	1
	.globl	PerformMappingDelete
	.type	PerformMappingDelete, @function
PerformMappingDelete:
.LFB9:
	.loc 1 791 1
	.cfi_startproc
	addi	sp,sp,-80
	.cfi_def_cfa_offset 80
	sd	ra,72(sp)
	sd	s0,64(sp)
	.cfi_offset 1, -8
	.cfi_offset 8, -16
	addi	s0,sp,80
	.cfi_def_cfa 8, 0
	sd	a0,-72(s0)
	.loc 1 798 6
	ld	a5,-72(s0)
	bne	a5,zero,.L135
	.loc 1 799 12
	li	a5,-1
	slli	a5,a5,63
	addi	a5,a5,2
	j	.L156
.L135:
	.loc 1 802 14
	sd	zero,-56(s0)
	.loc 1 803 16
	sd	zero,-32(s0)
	.loc 1 804 11
	sb	zero,-41(s0)
	.loc 1 809 15
	la	a5,gBS
	ld	a5,0(a5)
	ld	a5,176(a5)
	.loc 1 809 12
	addi	a3,s0,-56
	ld	a4,-32(s0)
	li	a2,0
	la	a1,gEfiDevicePathProtocolGuid
	li	a0,2
	jalr	a5
.LVL9:
	sd	a0,-24(s0)
	.loc 1 816 6
	ld	a4,-24(s0)
	li	a5,-1
	slli	a5,a5,63
	addi	a5,a5,5
	bne	a4,a5,.L137
	.loc 1 817 20
	ld	a5,-56(s0)
	mv	a0,a5
	call	AllocateZeroPool@plt
	sd	a0,-32(s0)
	.loc 1 818 8
	ld	a5,-32(s0)
	bne	a5,zero,.L138
	.loc 1 819 14
	li	a5,-1
	slli	a5,a5,63
	addi	a5,a5,9
	j	.L156
.L138:
	.loc 1 822 17
	la	a5,gBS
	ld	a5,0(a5)
	ld	a5,176(a5)
	.loc 1 822 14
	addi	a3,s0,-56
	ld	a4,-32(s0)
	li	a2,0
	la	a1,gEfiDevicePathProtocolGuid
	li	a0,2
	jalr	a5
.LVL10:
	sd	a0,-24(s0)
.L137:
	.loc 1 831 34
	ld	a5,-24(s0)
	.loc 1 831 6
	bge	a5,zero,.L139
	.loc 1 832 13
	ld	a5,-32(s0)
	beq	a5,zero,.L140
	.loc 1 832 48 discriminator 1
	ld	a0,-32(s0)
	call	FreePool@plt
	.loc 1 832 89 discriminator 2
	sd	zero,-32(s0)
.L140:
	.loc 1 833 12
	ld	a5,-24(s0)
	j	.L156
.L139:
	.loc 1 836 6
	ld	a5,-32(s0)
	beq	a5,zero,.L141
	.loc 1 840 19
	sd	zero,-40(s0)
	.loc 1 840 5
	j	.L142
.L144:
	.loc 1 845 61
	ld	a5,-40(s0)
	slli	a5,a5,3
	ld	a4,-32(s0)
	add	a5,a4,a5
	.loc 1 845 11
	ld	a5,0(a5)
	mv	a1,a5
	ld	a0,-72(s0)
	call	PerformSingleMappingDelete
	mv	a5,a0
	.loc 1 845 10 discriminator 1
	bne	a5,zero,.L143
	.loc 1 846 17
	li	a5,1
	sb	a5,-41(s0)
.L143:
	.loc 1 842 20
	ld	a5,-40(s0)
	addi	a5,a5,1
	sd	a5,-40(s0)
.L142:
	.loc 1 841 34
	ld	a5,-56(s0)
	srli	a5,a5,3
	.loc 1 841 21
	ld	a4,-40(s0)
	bltu	a4,a5,.L144
.L141:
	.loc 1 854 15
	la	a5,gBS
	ld	a5,0(a5)
	ld	a5,176(a5)
	.loc 1 854 12
	addi	a3,s0,-56
	ld	a4,-32(s0)
	li	a2,0
	la	a1,gEfiBlockIoProtocolGuid
	li	a0,2
	jalr	a5
.LVL11:
	sd	a0,-24(s0)
	.loc 1 861 6
	ld	a4,-24(s0)
	li	a5,-1
	slli	a5,a5,63
	addi	a5,a5,5
	bne	a4,a5,.L145
	.loc 1 862 5
	ld	a0,-32(s0)
	call	FreePool@plt
	.loc 1 863 20
	ld	a5,-56(s0)
	mv	a0,a5
	call	AllocateZeroPool@plt
	sd	a0,-32(s0)
	.loc 1 864 8
	ld	a5,-32(s0)
	bne	a5,zero,.L146
	.loc 1 865 14
	li	a5,-1
	slli	a5,a5,63
	addi	a5,a5,9
	j	.L156
.L146:
	.loc 1 868 17
	la	a5,gBS
	ld	a5,0(a5)
	ld	a5,176(a5)
	.loc 1 868 14
	addi	a3,s0,-56
	ld	a4,-32(s0)
	li	a2,0
	la	a1,gEfiBlockIoProtocolGuid
	li	a0,2
	jalr	a5
.LVL12:
	sd	a0,-24(s0)
.L145:
	.loc 1 877 34
	ld	a5,-24(s0)
	.loc 1 877 6
	bge	a5,zero,.L147
	.loc 1 878 13
	ld	a5,-32(s0)
	beq	a5,zero,.L148
	.loc 1 878 48 discriminator 1
	ld	a0,-32(s0)
	call	FreePool@plt
	.loc 1 878 89 discriminator 2
	sd	zero,-32(s0)
.L148:
	.loc 1 879 12
	ld	a5,-24(s0)
	j	.L156
.L147:
	.loc 1 882 6
	ld	a5,-32(s0)
	beq	a5,zero,.L149
	.loc 1 886 19
	sd	zero,-40(s0)
	.loc 1 886 5
	j	.L150
.L153:
	.loc 1 894 14
	la	a5,gBS
	ld	a5,0(a5)
	ld	a6,280(a5)
	.loc 1 895 30
	ld	a5,-40(s0)
	slli	a5,a5,3
	ld	a4,-32(s0)
	add	a5,a4,a5
	.loc 1 894 11
	ld	a0,0(a5)
	la	a5,gImageHandle
	ld	a3,0(a5)
	li	a5,4
	li	a4,0
	li	a2,0
	la	a1,gEfiDevicePathProtocolGuid
	jalr	a6
.LVL13:
	mv	a5,a0
	.loc 1 894 10 discriminator 1
	beq	a5,zero,.L157
	.loc 1 906 61
	ld	a5,-40(s0)
	slli	a5,a5,3
	ld	a4,-32(s0)
	add	a5,a4,a5
	.loc 1 906 11
	ld	a5,0(a5)
	mv	a1,a5
	ld	a0,-72(s0)
	call	PerformSingleMappingDelete
	mv	a5,a0
	.loc 1 906 10 discriminator 1
	bne	a5,zero,.L152
	.loc 1 907 17
	li	a5,1
	sb	a5,-41(s0)
	j	.L152
.L157:
	.loc 1 903 9
	nop
.L152:
	.loc 1 888 20
	ld	a5,-40(s0)
	addi	a5,a5,1
	sd	a5,-40(s0)
.L150:
	.loc 1 887 34
	ld	a5,-56(s0)
	srli	a5,a5,3
	.loc 1 887 21
	ld	a4,-40(s0)
	bltu	a4,a5,.L153
.L149:
	.loc 1 912 11
	ld	a5,-32(s0)
	beq	a5,zero,.L154
	.loc 1 912 46 discriminator 1
	ld	a0,-32(s0)
	call	FreePool@plt
	.loc 1 912 87 discriminator 2
	sd	zero,-32(s0)
.L154:
	.loc 1 913 6
	lbu	a5,-41(s0)
	andi	a5,a5,0xff
	bne	a5,zero,.L155
	.loc 1 914 12
	li	a5,-1
	slli	a5,a5,63
	addi	a5,a5,14
	j	.L156
.L155:
	.loc 1 917 10
	li	a5,0
.L156:
	.loc 1 918 1
	mv	a0,a5
	ld	ra,72(sp)
	.cfi_restore 1
	ld	s0,64(sp)
	.cfi_restore 8
	.cfi_def_cfa 2, 80
	addi	sp,sp,80
	.cfi_def_cfa_offset 0
	jr	ra
	.cfi_endproc
.LFE9:
	.size	PerformMappingDelete, .-PerformMappingDelete
	.section	.text.AddMappingFromMapping,"ax",@progbits
	.align	1
	.globl	AddMappingFromMapping
	.type	AddMappingFromMapping, @function
AddMappingFromMapping:
.LFB10:
	.loc 1 938 1
	.cfi_startproc
	addi	sp,sp,-80
	.cfi_def_cfa_offset 80
	sd	ra,72(sp)
	sd	s0,64(sp)
	sd	s1,56(sp)
	.cfi_offset 1, -8
	.cfi_offset 8, -16
	.cfi_offset 9, -24
	addi	s0,sp,80
	.cfi_def_cfa 8, 0
	sd	a0,-72(s0)
	sd	a1,-80(s0)
	.loc 1 944 32
	ld	a0,-80(s0)
	call	StrSize@plt
	mv	a5,a0
	.loc 1 944 48 discriminator 1
	addi	a5,a5,2
	.loc 1 944 14 discriminator 1
	ld	a1,-80(s0)
	mv	a0,a5
	call	AllocateCopyPool@plt
	sd	a0,-40(s0)
	.loc 1 945 6
	ld	a5,-40(s0)
	bne	a5,zero,.L159
	.loc 1 946 12
	li	a5,9
	j	.L160
.L159:
	.loc 1 949 16
	ld	a0,-40(s0)
	call	StrLen@plt
	mv	a5,a0
	.loc 1 949 15 discriminator 1
	slli	a5,a5,1
	addi	a5,a5,-2
	ld	a4,-40(s0)
	add	a5,a4,a5
	lhu	a5,0(a5)
	.loc 1 949 6 discriminator 1
	sext.w	a4,a5
	li	a5,58
	beq	a4,a5,.L161
	.loc 1 950 41
	ld	a0,-80(s0)
	call	StrSize@plt
	mv	a5,a0
	.loc 1 950 57 discriminator 1
	addi	a5,a5,2
	.loc 1 950 75 discriminator 1
	srli	s1,a5,1
	.loc 1 950 20 discriminator 1
	lla	a0,.LC0
	call	StrLen@plt
	mv	a5,a0
	.loc 1 950 20 is_stmt 0 discriminator 2
	mv	a3,a5
	lla	a2,.LC0
	mv	a1,s1
	ld	a0,-40(s0)
	call	StrnCatS@plt
	sd	a0,-48(s0)
	.loc 1 951 42 is_stmt 1
	ld	a5,-48(s0)
	.loc 1 951 8
	bge	a5,zero,.L161
	.loc 1 952 7
	ld	a0,-40(s0)
	call	FreePool@plt
	.loc 1 953 15
	ld	a5,-48(s0)
	sext.w	a5,a5
	j	.L160
.L161:
	.loc 1 957 38
	ld	a0,-40(s0)
	call	StrLen@plt
	mv	a5,a0
	.loc 1 957 55 discriminator 1
	addi	a5,a5,-1
	.loc 1 957 8 discriminator 1
	mv	a1,a5
	ld	a0,-40(s0)
	call	IsNumberLetterOnly
	mv	a5,a0
	.loc 1 957 6 discriminator 2
	bne	a5,zero,.L162
	.loc 1 958 5
	ld	a0,-40(s0)
	call	FreePool@plt
	.loc 1 959 12
	li	a5,2
	j	.L160
.L162:
	.loc 1 962 30
	la	a5,gEfiShellProtocol
	ld	a5,0(a5)
	ld	a5,48(a5)
	.loc 1 962 13
	ld	a0,-72(s0)
	jalr	a5
.LVL14:
	sd	a0,-56(s0)
	.loc 1 963 6
	ld	a5,-56(s0)
	bne	a5,zero,.L163
	.loc 1 964 5
	ld	a0,-40(s0)
	call	FreePool@plt
	.loc 1 965 12
	li	a5,2
	j	.L160
.L163:
	.loc 1 968 29
	la	a5,gEfiShellProtocol
	ld	a5,0(a5)
	ld	a5,80(a5)
	.loc 1 968 12
	ld	a1,-40(s0)
	ld	a0,-56(s0)
	jalr	a5
.LVL15:
	sd	a0,-64(s0)
	.loc 1 969 3
	ld	a0,-40(s0)
	call	FreePool@plt
	.loc 1 970 34
	ld	a5,-64(s0)
	.loc 1 970 6
	bge	a5,zero,.L164
	.loc 1 971 12
	li	a5,7
	j	.L160
.L164:
	.loc 1 974 10
	li	a5,0
.L160:
	.loc 1 975 1
	mv	a0,a5
	ld	ra,72(sp)
	.cfi_restore 1
	ld	s0,64(sp)
	.cfi_restore 8
	.cfi_def_cfa 2, 80
	ld	s1,56(sp)
	.cfi_restore 9
	addi	sp,sp,80
	.cfi_def_cfa_offset 0
	jr	ra
	.cfi_endproc
.LFE10:
	.size	AddMappingFromMapping, .-AddMappingFromMapping
	.section	.text.AddMappingFromHandle,"ax",@progbits
	.align	1
	.globl	AddMappingFromHandle
	.type	AddMappingFromHandle, @function
AddMappingFromHandle:
.LFB11:
	.loc 1 996 1
	.cfi_startproc
	addi	sp,sp,-80
	.cfi_def_cfa_offset 80
	sd	ra,72(sp)
	sd	s0,64(sp)
	sd	s1,56(sp)
	.cfi_offset 1, -8
	.cfi_offset 8, -16
	.cfi_offset 9, -24
	addi	s0,sp,80
	.cfi_def_cfa 8, 0
	sd	a0,-72(s0)
	sd	a1,-80(s0)
	.loc 1 1002 32
	ld	a0,-80(s0)
	call	StrSize@plt
	mv	a5,a0
	.loc 1 1002 48 discriminator 1
	addi	a5,a5,2
	.loc 1 1002 14 discriminator 1
	ld	a1,-80(s0)
	mv	a0,a5
	call	AllocateCopyPool@plt
	sd	a0,-40(s0)
	.loc 1 1003 6
	ld	a5,-40(s0)
	bne	a5,zero,.L166
	.loc 1 1004 12
	li	a5,9
	j	.L172
.L166:
	.loc 1 1007 16
	ld	a0,-40(s0)
	call	StrLen@plt
	mv	a5,a0
	.loc 1 1007 15 discriminator 1
	slli	a5,a5,1
	addi	a5,a5,-2
	ld	a4,-40(s0)
	add	a5,a4,a5
	lhu	a5,0(a5)
	.loc 1 1007 6 discriminator 1
	sext.w	a4,a5
	li	a5,58
	beq	a4,a5,.L168
	.loc 1 1008 41
	ld	a0,-80(s0)
	call	StrSize@plt
	mv	a5,a0
	.loc 1 1008 57 discriminator 1
	addi	a5,a5,2
	.loc 1 1008 75 discriminator 1
	srli	s1,a5,1
	.loc 1 1008 20 discriminator 1
	lla	a0,.LC0
	call	StrLen@plt
	mv	a5,a0
	.loc 1 1008 20 is_stmt 0 discriminator 2
	mv	a3,a5
	lla	a2,.LC0
	mv	a1,s1
	ld	a0,-40(s0)
	call	StrnCatS@plt
	sd	a0,-48(s0)
	.loc 1 1009 42 is_stmt 1
	ld	a5,-48(s0)
	.loc 1 1009 8
	bge	a5,zero,.L168
	.loc 1 1010 7
	ld	a0,-40(s0)
	call	FreePool@plt
	.loc 1 1011 15
	ld	a5,-48(s0)
	sext.w	a5,a5
	j	.L172
.L168:
	.loc 1 1015 38
	ld	a0,-40(s0)
	call	StrLen@plt
	mv	a5,a0
	.loc 1 1015 55 discriminator 1
	addi	a5,a5,-1
	.loc 1 1015 8 discriminator 1
	mv	a1,a5
	ld	a0,-40(s0)
	call	IsNumberLetterOnly
	mv	a5,a0
	.loc 1 1015 6 discriminator 2
	bne	a5,zero,.L169
	.loc 1 1016 5
	ld	a0,-40(s0)
	call	FreePool@plt
	.loc 1 1017 12
	li	a5,2
	j	.L172
.L169:
	.loc 1 1020 15
	la	a5,gBS
	ld	a5,0(a5)
	ld	a6,280(a5)
	.loc 1 1020 12
	la	a5,gImageHandle
	ld	a3,0(a5)
	addi	a2,s0,-64
	li	a5,2
	li	a4,0
	la	a1,gEfiDevicePathProtocolGuid
	ld	a0,-72(s0)
	jalr	a6
.LVL16:
	sd	a0,-56(s0)
	.loc 1 1028 34
	ld	a5,-56(s0)
	.loc 1 1028 6
	bge	a5,zero,.L170
	.loc 1 1029 5
	ld	a0,-40(s0)
	call	FreePool@plt
	.loc 1 1030 12
	li	a5,7
	j	.L172
.L170:
	.loc 1 1033 29
	la	a5,gEfiShellProtocol
	ld	a5,0(a5)
	ld	a5,80(a5)
	.loc 1 1033 12
	ld	a4,-64(s0)
	ld	a1,-40(s0)
	mv	a0,a4
	jalr	a5
.LVL17:
	sd	a0,-56(s0)
	.loc 1 1034 3
	ld	a0,-40(s0)
	call	FreePool@plt
	.loc 1 1035 34
	ld	a5,-56(s0)
	.loc 1 1035 6
	bge	a5,zero,.L171
	.loc 1 1036 12
	li	a5,7
	j	.L172
.L171:
	.loc 1 1039 10
	li	a5,0
.L172:
	.loc 1 1040 1
	mv	a0,a5
	ld	ra,72(sp)
	.cfi_restore 1
	ld	s0,64(sp)
	.cfi_restore 8
	.cfi_def_cfa 2, 80
	ld	s1,56(sp)
	.cfi_restore 9
	addi	sp,sp,80
	.cfi_def_cfa_offset 0
	jr	ra
	.cfi_endproc
.LFE11:
	.size	AddMappingFromHandle, .-AddMappingFromHandle
	.section	.rodata
	.align	3
.LC13:
	.string	"-"
	.string	"d"
	.zero	2
	.align	3
.LC14:
	.string	"-"
	.string	"r"
	.zero	2
	.align	3
.LC15:
	.string	"-"
	.string	"v"
	.zero	2
	.align	3
.LC16:
	.string	"-"
	.string	"c"
	.zero	2
	.align	3
.LC17:
	.string	"-"
	.string	"f"
	.zero	2
	.align	3
.LC18:
	.string	"-"
	.string	"u"
	.zero	2
	.align	3
.LC19:
	.string	"-"
	.string	"t"
	.zero	2
	.align	3
.LC20:
	.string	"-"
	.string	"s"
	.string	"f"
	.string	"o"
	.zero	2
	.section	.data.rel.ro.local.MapParamList,"aw"
	.align	3
	.type	MapParamList, @object
	.size	MapParamList, 144
MapParamList:
	.dword	.LC13
	.word	1
	.zero	4
	.dword	.LC14
	.word	0
	.zero	4
	.dword	.LC15
	.word	0
	.zero	4
	.dword	.LC16
	.word	0
	.zero	4
	.dword	.LC17
	.word	0
	.zero	4
	.dword	.LC18
	.word	0
	.zero	4
	.dword	.LC19
	.word	1
	.zero	4
	.dword	.LC20
	.word	1
	.zero	4
	.dword	0
	.word	7
	.zero	4
	.section	.text.ProbeForMediaChange,"ax",@progbits
	.align	1
	.globl	ProbeForMediaChange
	.type	ProbeForMediaChange, @function
ProbeForMediaChange:
.LFB12:
	.loc 1 1062 1
	.cfi_startproc
	addi	sp,sp,-64
	.cfi_def_cfa_offset 64
	sd	ra,56(sp)
	sd	s0,48(sp)
	.cfi_offset 1, -8
	.cfi_offset 8, -16
	addi	s0,sp,64
	.cfi_def_cfa 8, 0
	.loc 1 1069 6
	la	a5,gBS
	ld	a5,0(a5)
	ld	a5,312(a5)
	.loc 1 1069 3
	addi	a4,s0,-48
	addi	a3,s0,-40
	li	a2,0
	la	a1,gEfiBlockIoProtocolGuid
	li	a0,2
	jalr	a5
.LVL18:
	.loc 1 1079 14
	sd	zero,-24(s0)
	.loc 1 1079 3
	j	.L174
.L176:
	.loc 1 1080 17
	la	a5,gBS
	ld	a5,0(a5)
	ld	a5,152(a5)
	.loc 1 1081 28
	ld	a3,-48(s0)
	ld	a4,-24(s0)
	slli	a4,a4,3
	add	a4,a3,a4
	.loc 1 1080 14
	ld	a4,0(a4)
	addi	a3,s0,-56
	mv	a2,a3
	la	a1,gEfiBlockIoProtocolGuid
	mv	a0,a4
	jalr	a5
.LVL19:
	sd	a0,-32(s0)
	.loc 1 1085 9
	ld	a5,-32(s0)
	.loc 1 1085 8
	blt	a5,zero,.L175
	.loc 1 1086 19
	ld	a5,-56(s0)
	ld	a5,8(a5)
	.loc 1 1086 26
	lbu	a5,6(a5)
	.loc 1 1086 10
	bne	a5,zero,.L175
	.loc 1 1093 16
	ld	a5,-56(s0)
	ld	a5,24(a5)
	.loc 1 1093 9
	ld	a0,-56(s0)
	.loc 1 1095 27
	ld	a4,-56(s0)
	ld	a4,8(a4)
	.loc 1 1093 9
	lw	a1,0(a4)
	li	a4,0
	li	a3,0
	li	a2,0
	jalr	a5
.LVL20:
.L175:
	.loc 1 1079 45 discriminator 2
	ld	a5,-24(s0)
	addi	a5,a5,1
	sd	a5,-24(s0)
.L174:
	.loc 1 1079 25 discriminator 1
	ld	a5,-40(s0)
	ld	a4,-24(s0)
	bltu	a4,a5,.L176
	.loc 1 1103 1
	nop
	nop
	ld	ra,56(sp)
	.cfi_restore 1
	ld	s0,48(sp)
	.cfi_restore 8
	.cfi_def_cfa 2, 64
	addi	sp,sp,64
	.cfi_def_cfa_offset 0
	jr	ra
	.cfi_endproc
.LFE12:
	.size	ProbeForMediaChange, .-ProbeForMediaChange
	.section	.rodata
	.align	3
.LC21:
	.string	"-"
	.string	"?"
	.zero	2
	.section	.text.ShellCommandRunMap,"ax",@progbits
	.align	1
	.globl	ShellCommandRunMap
	.type	ShellCommandRunMap, @function
ShellCommandRunMap:
.LFB13:
	.loc 1 1117 1
	.cfi_startproc
	addi	sp,sp,-128
	.cfi_def_cfa_offset 128
	sd	ra,120(sp)
	sd	s0,112(sp)
	.cfi_offset 1, -8
	.cfi_offset 8, -16
	addi	s0,sp,128
	.cfi_def_cfa 8, 0
	sd	a0,-120(s0)
	sd	a1,-128(s0)
	.loc 1 1132 16
	sd	zero,-104(s0)
	.loc 1 1133 11
	sd	zero,-40(s0)
	.loc 1 1134 9
	sd	zero,-48(s0)
	.loc 1 1135 15
	sw	zero,-28(s0)
	.loc 1 1136 15
	sd	zero,-24(s0)
	.loc 1 1141 12
	call	ShellInitialize@plt
	sd	a0,-56(s0)
	.loc 1 1144 12
	call	CommandInit@plt
	sd	a0,-56(s0)
	.loc 1 1150 12
	addi	a2,s0,-104
	addi	a5,s0,-96
	li	a4,0
	li	a3,1
	mv	a1,a5
	lla	a0,MapParamList
	call	ShellCommandLineParseEx@plt
	sd	a0,-56(s0)
	.loc 1 1151 34
	ld	a5,-56(s0)
	.loc 1 1151 6
	bge	a5,zero,.L178
	.loc 1 1152 8
	ld	a4,-56(s0)
	li	a5,-1
	slli	a5,a5,63
	addi	a5,a5,10
	bne	a4,a5,.L179
	.loc 1 1152 86 discriminator 1
	ld	a5,-104(s0)
	.loc 1 1152 69 discriminator 1
	beq	a5,zero,.L179
	.loc 1 1153 7
	la	a5,gShellLevel2HiiHandle
	ld	a4,0(a5)
	ld	a5,-104(s0)
	mv	a6,a5
	lla	a5,.LC11
	li	a3,6
	li	a2,0
	li	a1,-1
	li	a0,-1
	call	ShellPrintHiiEx@plt
	.loc 1 1154 7
	ld	a5,-104(s0)
	mv	a0,a5
	call	FreePool@plt
	.loc 1 1155 19
	li	a5,2
	sw	a5,-28(s0)
	j	.L179
.L178:
	.loc 1 1163 15
	ld	a5,-96(s0)
	lla	a1,.LC20
	mv	a0,a5
	call	ShellCommandLineGetFlag@plt
	mv	a5,a0
	sb	a5,-57(s0)
	.loc 1 1164 17
	ld	a5,-96(s0)
	lla	a1,.LC16
	mv	a0,a5
	call	ShellCommandLineGetFlag@plt
	mv	a5,a0
	sb	a5,-58(s0)
	.loc 1 1165 17
	ld	a5,-96(s0)
	lla	a1,.LC17
	mv	a0,a5
	call	ShellCommandLineGetFlag@plt
	mv	a5,a0
	sb	a5,-59(s0)
	.loc 1 1166 9
	ld	a5,-96(s0)
	lla	a1,.LC21
	mv	a0,a5
	call	ShellCommandLineGetFlag@plt
	mv	a5,a0
	.loc 1 1166 8 discriminator 1
	bne	a5,zero,.L179
	.loc 1 1168 16
	ld	a5,-96(s0)
	li	a1,3
	mv	a0,a5
	call	ShellCommandLineGetRawValue@plt
	mv	a5,a0
	.loc 1 1168 15 discriminator 1
	beq	a5,zero,.L180
	.loc 1 1169 7
	la	a5,gShellLevel2HiiHandle
	ld	a4,0(a5)
	lla	a5,.LC11
	li	a3,3
	li	a2,0
	li	a1,-1
	li	a0,-1
	call	ShellPrintHiiEx@plt
	.loc 1 1170 19
	li	a5,2
	sw	a5,-28(s0)
	j	.L179
.L180:
	.loc 1 1175 11
	ld	a5,-96(s0)
	lla	a1,.LC13
	mv	a0,a5
	call	ShellCommandLineGetFlag@plt
	mv	a5,a0
	.loc 1 1175 10 discriminator 1
	beq	a5,zero,.L181
	.loc 1 1176 14
	ld	a5,-96(s0)
	lla	a1,.LC14
	mv	a0,a5
	call	ShellCommandLineGetFlag@plt
	mv	a5,a0
	.loc 1 1176 12 discriminator 1
	bne	a5,zero,.L182
	.loc 1 1177 15
	ld	a5,-96(s0)
	lla	a1,.LC15
	mv	a0,a5
	call	ShellCommandLineGetFlag@plt
	mv	a5,a0
	.loc 1 1177 12 discriminator 1
	bne	a5,zero,.L182
	.loc 1 1178 12
	lbu	a5,-58(s0)
	andi	a5,a5,0xff
	bne	a5,zero,.L182
	.loc 1 1179 12
	lbu	a5,-59(s0)
	andi	a5,a5,0xff
	bne	a5,zero,.L182
	.loc 1 1180 15
	ld	a5,-96(s0)
	lla	a1,.LC18
	mv	a0,a5
	call	ShellCommandLineGetFlag@plt
	mv	a5,a0
	.loc 1 1180 12 discriminator 1
	bne	a5,zero,.L182
	.loc 1 1181 15
	ld	a5,-96(s0)
	lla	a1,.LC19
	mv	a0,a5
	call	ShellCommandLineGetFlag@plt
	mv	a5,a0
	.loc 1 1181 12 discriminator 1
	beq	a5,zero,.L183
.L182:
	.loc 1 1184 11
	la	a5,gShellLevel2HiiHandle
	ld	a4,0(a5)
	lla	a5,.LC11
	li	a3,13
	li	a2,0
	li	a1,-1
	li	a0,-1
	call	ShellPrintHiiEx@plt
	.loc 1 1185 23
	li	a5,2
	sw	a5,-28(s0)
	j	.L179
.L183:
	.loc 1 1187 19
	ld	a5,-96(s0)
	lla	a1,.LC13
	mv	a0,a5
	call	ShellCommandLineGetValue@plt
	sd	a0,-48(s0)
	.loc 1 1188 14
	ld	a5,-48(s0)
	beq	a5,zero,.L185
	.loc 1 1189 22
	ld	a0,-48(s0)
	call	PerformMappingDelete
	sd	a0,-56(s0)
	.loc 1 1190 44
	ld	a5,-56(s0)
	.loc 1 1190 16
	bge	a5,zero,.L179
	.loc 1 1191 18
	ld	a4,-56(s0)
	li	a5,-1
	slli	a5,a5,63
	addi	a5,a5,15
	bne	a4,a5,.L186
	.loc 1 1192 17
	la	a5,gShellLevel2HiiHandle
	ld	a4,0(a5)
	lla	a5,.LC11
	li	a3,10
	li	a2,0
	li	a1,-1
	li	a0,-1
	call	ShellPrintHiiEx@plt
	.loc 1 1193 29
	li	a5,15
	sw	a5,-28(s0)
	j	.L179
.L186:
	.loc 1 1194 25
	ld	a4,-56(s0)
	li	a5,-1
	slli	a5,a5,63
	addi	a5,a5,14
	bne	a4,a5,.L187
	.loc 1 1195 17
	la	a5,gShellLevel2HiiHandle
	ld	a4,0(a5)
	ld	a6,-48(s0)
	lla	a5,.LC11
	li	a3,41
	li	a2,0
	li	a1,-1
	li	a0,-1
	call	ShellPrintHiiEx@plt
	.loc 1 1196 29
	li	a5,2
	sw	a5,-28(s0)
	j	.L179
.L187:
	.loc 1 1198 17
	la	a5,gShellLevel2HiiHandle
	ld	a4,0(a5)
	ld	a6,-56(s0)
	lla	a5,.LC11
	li	a3,12
	li	a2,0
	li	a1,-1
	li	a0,-1
	call	ShellPrintHiiEx@plt
	.loc 1 1199 29
	li	a5,3
	sw	a5,-28(s0)
	j	.L179
.L185:
	.loc 1 1203 13
	la	a5,gShellLevel2HiiHandle
	ld	a4,0(a5)
	lla	a5,.LC11
	li	a3,4
	li	a2,0
	li	a1,-1
	li	a0,-1
	call	ShellPrintHiiEx@plt
	.loc 1 1204 25
	li	a5,2
	sw	a5,-28(s0)
	j	.L179
.L181:
	.loc 1 1207 19
	ld	a5,-96(s0)
	lla	a1,.LC14
	mv	a0,a5
	call	ShellCommandLineGetFlag@plt
	mv	a5,a0
	.loc 1 1207 17 discriminator 1
	bne	a5,zero,.L188
	.loc 1 1209 17
	lbu	a5,-58(s0)
	andi	a5,a5,0xff
	bne	a5,zero,.L188
	.loc 1 1210 17
	lbu	a5,-59(s0)
	andi	a5,a5,0xff
	bne	a5,zero,.L188
	.loc 1 1211 20
	ld	a5,-96(s0)
	lla	a1,.LC18
	mv	a0,a5
	call	ShellCommandLineGetFlag@plt
	mv	a5,a0
	.loc 1 1211 17 discriminator 1
	bne	a5,zero,.L188
	.loc 1 1212 20
	ld	a5,-96(s0)
	lla	a1,.LC19
	mv	a0,a5
	call	ShellCommandLineGetFlag@plt
	mv	a5,a0
	.loc 1 1212 17 discriminator 1
	beq	a5,zero,.L189
.L188:
	.loc 1 1215 9
	call	ProbeForMediaChange
	.loc 1 1216 14
	ld	a5,-96(s0)
	lla	a1,.LC14
	mv	a0,a5
	call	ShellCommandLineGetFlag@plt
	mv	a5,a0
	.loc 1 1216 12 discriminator 1
	beq	a5,zero,.L190
	.loc 1 1220 20
	call	ShellCommandCreateInitialMappingsAndPaths@plt
	sd	a0,-56(s0)
	.loc 1 1221 42
	ld	a5,-56(s0)
	.loc 1 1221 14
	bge	a5,zero,.L190
	.loc 1 1222 13
	la	a5,gShellLevel2HiiHandle
	ld	a4,0(a5)
	ld	a6,-56(s0)
	lla	a5,.LC11
	li	a3,12
	li	a2,0
	li	a1,-1
	li	a0,-1
	call	ShellPrintHiiEx@plt
	.loc 1 1223 25
	li	a5,3
	sw	a5,-28(s0)
.L190:
	.loc 1 1227 12
	lw	a5,-28(s0)
	sext.w	a5,a5
	bne	a5,zero,.L191
	.loc 1 1227 47 discriminator 1
	ld	a5,-96(s0)
	lla	a1,.LC18
	mv	a0,a5
	call	ShellCommandLineGetFlag@plt
	mv	a5,a0
	.loc 1 1227 44 discriminator 2
	beq	a5,zero,.L191
	.loc 1 1231 20
	call	ShellCommandUpdateMapping@plt
	sd	a0,-56(s0)
	.loc 1 1232 42
	ld	a5,-56(s0)
	.loc 1 1232 14
	bge	a5,zero,.L191
	.loc 1 1233 13
	la	a5,gShellLevel2HiiHandle
	ld	a4,0(a5)
	ld	a6,-56(s0)
	lla	a5,.LC11
	li	a3,12
	li	a2,0
	li	a1,-1
	li	a0,-1
	call	ShellPrintHiiEx@plt
	.loc 1 1234 25
	li	a5,3
	sw	a5,-28(s0)
.L191:
	.loc 1 1238 12
	lw	a5,-28(s0)
	sext.w	a5,a5
	bne	a5,zero,.L179
	.loc 1 1239 20
	ld	a5,-96(s0)
	li	a1,1
	mv	a0,a5
	call	ShellCommandLineGetRawValue@plt
	sd	a0,-80(s0)
	.loc 1 1240 24
	ld	a5,-96(s0)
	lla	a1,.LC19
	mv	a0,a5
	call	ShellCommandLineGetValue@plt
	sd	a0,-88(s0)
	.loc 1 1241 14
	lbu	a5,-58(s0)
	andi	a5,a5,0xff
	bne	a5,zero,.L193
	.loc 1 1242 14
	lbu	a5,-59(s0)
	andi	a5,a5,0xff
	bne	a5,zero,.L193
	.loc 1 1243 14
	ld	a5,-88(s0)
	bne	a5,zero,.L193
	.loc 1 1250 29
	ld	a5,-96(s0)
	lla	a1,.LC15
	mv	a0,a5
	call	ShellCommandLineGetFlag@plt
	mv	a5,a0
	mv	a0,a5
	.loc 1 1249 27
	lbu	a4,-57(s0)
	li	a6,1
	ld	a5,-80(s0)
	li	a3,0
	li	a2,1
	li	a1,1
	call	PerformMappingDisplay
	mv	a5,a0
	sw	a5,-28(s0)
	.loc 1 1249 25
	nop
	.loc 1 1238 12
	j	.L179
.L193:
	.loc 1 1263 29
	ld	a5,-96(s0)
	lla	a1,.LC15
	mv	a0,a5
	call	ShellCommandLineGetFlag@plt
	mv	a5,a0
	mv	a0,a5
	.loc 1 1262 27
	lbu	a4,-57(s0)
	lbu	a2,-59(s0)
	lbu	a1,-58(s0)
	ld	a5,-80(s0)
	ld	a3,-88(s0)
	call	PerformMappingDisplay2
	mv	a5,a0
	sw	a5,-28(s0)
	.loc 1 1238 12
	j	.L179
.L189:
	.loc 1 1276 17
	ld	a5,-96(s0)
	li	a1,1
	mv	a0,a5
	call	ShellCommandLineGetRawValue@plt
	sd	a0,-48(s0)
	.loc 1 1277 19
	ld	a5,-96(s0)
	li	a1,2
	mv	a0,a5
	call	ShellCommandLineGetRawValue@plt
	sd	a0,-40(s0)
	.loc 1 1278 12
	ld	a5,-48(s0)
	bne	a5,zero,.L194
	.loc 1 1279 12
	ld	a5,-40(s0)
	bne	a5,zero,.L194
	.loc 1 1286 27
	ld	a5,-96(s0)
	lla	a1,.LC15
	mv	a0,a5
	call	ShellCommandLineGetFlag@plt
	mv	a5,a0
	mv	a0,a5
	.loc 1 1285 25
	lbu	a4,-57(s0)
	li	a6,1
	li	a5,0
	li	a3,0
	li	a2,1
	li	a1,1
	call	PerformMappingDisplay
	mv	a5,a0
	sw	a5,-28(s0)
	.loc 1 1285 23
	j	.L179
.L194:
	.loc 1 1294 19
	ld	a5,-48(s0)
	beq	a5,zero,.L195
	.loc 1 1295 19
	ld	a5,-40(s0)
	bne	a5,zero,.L196
.L195:
	.loc 1 1301 25
	lbu	a4,-57(s0)
	li	a6,1
	ld	a5,-48(s0)
	li	a3,0
	li	a2,0
	li	a1,0
	li	a0,0
	call	PerformMappingDisplay
	mv	a5,a0
	sw	a5,-28(s0)
	.loc 1 1301 23
	j	.L179
.L196:
	.loc 1 1311 15
	li	a2,0
	li	a1,1
	ld	a0,-40(s0)
	call	ShellIsHexOrDecimalNumber@plt
	mv	a5,a0
	.loc 1 1311 14 discriminator 1
	beq	a5,zero,.L197
	.loc 1 1312 55
	ld	a0,-40(s0)
	call	ShellStrToUintn@plt
	mv	a5,a0
	.loc 1 1312 27 discriminator 1
	mv	a0,a5
	call	ConvertHandleIndexToHandle@plt
	sd	a0,-24(s0)
	j	.L198
.L197:
	.loc 1 1314 25
	sd	zero,-24(s0)
.L198:
	.loc 1 1317 14
	ld	a5,-24(s0)
	bne	a5,zero,.L199
	.loc 1 1317 57 discriminator 1
	ld	a0,-40(s0)
	call	StrLen@plt
	mv	a5,a0
	.loc 1 1317 56 discriminator 2
	slli	a5,a5,1
	addi	a5,a5,-2
	ld	a4,-40(s0)
	add	a5,a4,a5
	lhu	a5,0(a5)
	.loc 1 1317 45 discriminator 2
	sext.w	a4,a5
	li	a5,58
	beq	a4,a5,.L199
	.loc 1 1318 13
	la	a5,gShellLevel2HiiHandle
	ld	a4,0(a5)
	ld	a6,-40(s0)
	lla	a5,.LC11
	li	a3,5
	li	a2,0
	li	a1,-1
	li	a0,-1
	call	ShellPrintHiiEx@plt
	.loc 1 1319 25
	li	a5,2
	sw	a5,-28(s0)
	j	.L179
.L199:
	.loc 1 1321 32
	ld	a0,-48(s0)
	call	StrLen@plt
	sd	a0,-72(s0)
	.loc 1 1322 69
	ld	a5,-72(s0)
	slli	a5,a5,1
	addi	a5,a5,-2
	ld	a4,-48(s0)
	add	a5,a4,a5
	lhu	a5,0(a5)
	.loc 1 1322 103
	sext.w	a4,a5
	li	a5,58
	bne	a4,a5,.L200
	.loc 1 1322 103 is_stmt 0 discriminator 1
	li	a5,1
	j	.L201
.L200:
	.loc 1 1322 103 discriminator 2
	li	a5,0
.L201:
	.loc 1 1322 61 is_stmt 1 discriminator 4
	ld	a4,-72(s0)
	sub	a5,a4,a5
	.loc 1 1322 18 discriminator 4
	mv	a1,a5
	ld	a0,-48(s0)
	call	IsNumberLetterOnly
	mv	a5,a0
	.loc 1 1322 16 discriminator 5
	bne	a5,zero,.L202
	.loc 1 1323 15
	la	a5,gShellLevel2HiiHandle
	ld	a4,0(a5)
	ld	a6,-48(s0)
	lla	a5,.LC11
	li	a3,5
	li	a2,0
	li	a1,-1
	li	a0,-1
	call	ShellPrintHiiEx@plt
	.loc 1 1324 27
	li	a5,2
	sw	a5,-28(s0)
.L202:
	.loc 1 1327 16
	lw	a5,-28(s0)
	sext.w	a5,a5
	bne	a5,zero,.L179
	.loc 1 1328 18
	ld	a5,-24(s0)
	beq	a5,zero,.L203
	.loc 1 1329 31
	ld	a1,-48(s0)
	ld	a0,-24(s0)
	call	AddMappingFromHandle
	mv	a5,a0
	sw	a5,-28(s0)
	j	.L204
.L203:
	.loc 1 1331 31
	ld	a1,-48(s0)
	ld	a0,-40(s0)
	call	AddMappingFromMapping
	mv	a5,a0
	sw	a5,-28(s0)
.L204:
	.loc 1 1334 18
	lw	a5,-28(s0)
	sext.w	a5,a5
	beq	a5,zero,.L205
	.loc 1 1335 17
	lw	a5,-28(s0)
	sext.w	a4,a5
	li	a5,15
	beq	a4,a5,.L206
	lw	a5,-28(s0)
	sext.w	a4,a5
	li	a5,15
	bgtu	a4,a5,.L207
	lw	a5,-28(s0)
	sext.w	a4,a5
	li	a5,2
	beq	a4,a5,.L208
	lw	a5,-28(s0)
	sext.w	a4,a5
	li	a5,7
	beq	a4,a5,.L209
	j	.L207
.L206:
	.loc 1 1337 21
	la	a5,gShellLevel2HiiHandle
	ld	a4,0(a5)
	lla	a5,.LC11
	li	a3,10
	li	a2,0
	li	a1,-1
	li	a0,-1
	call	ShellPrintHiiEx@plt
	.loc 1 1338 21
	j	.L179
.L208:
	.loc 1 1340 21
	la	a5,gShellLevel2HiiHandle
	ld	a4,0(a5)
	ld	a6,-40(s0)
	lla	a5,.LC11
	li	a3,5
	li	a2,0
	li	a1,-1
	li	a0,-1
	call	ShellPrintHiiEx@plt
	.loc 1 1341 21
	j	.L179
.L209:
	.loc 1 1343 21
	la	a5,gShellLevel2HiiHandle
	ld	a4,0(a5)
	ld	a6,-40(s0)
	lla	a5,.LC11
	li	a3,42
	li	a2,0
	li	a1,-1
	li	a0,-1
	call	ShellPrintHiiEx@plt
	.loc 1 1344 21
	j	.L179
.L207:
	.loc 1 1346 21
	la	a5,gShellLevel2HiiHandle
	ld	a3,0(a5)
	lwu	a4,-28(s0)
	li	a5,-1
	slli	a5,a5,63
	or	a5,a4,a5
	mv	a6,a5
	lla	a5,.LC11
	mv	a4,a3
	li	a3,12
	li	a2,0
	li	a1,-1
	li	a0,-1
	call	ShellPrintHiiEx@plt
	j	.L179
.L205:
	.loc 1 1352 31
	lbu	a4,-57(s0)
	li	a6,1
	ld	a5,-48(s0)
	li	a3,0
	li	a2,0
	li	a1,0
	li	a0,0
	call	PerformMappingDisplay
	mv	a5,a0
	sw	a5,-28(s0)
.L179:
	.loc 1 1372 3
	ld	a5,-96(s0)
	mv	a0,a5
	call	ShellCommandLineFreeVarList@plt
	.loc 1 1374 10
	lw	a5,-28(s0)
	.loc 1 1375 1
	mv	a0,a5
	ld	ra,120(sp)
	.cfi_restore 1
	ld	s0,112(sp)
	.cfi_restore 8
	.cfi_def_cfa 2, 128
	addi	sp,sp,128
	.cfi_def_cfa_offset 0
	jr	ra
	.cfi_endproc
.LFE13:
	.size	ShellCommandRunMap, .-ShellCommandRunMap
	.text
.Letext0:
	.file 2 "/home/kapoagaeming/Downloads/spacemit-image-builder/components/edk2/MdePkg/Include/RiscV64/ProcessorBind.h"
	.file 3 "/home/kapoagaeming/Downloads/spacemit-image-builder/components/edk2/MdePkg/Include/Base.h"
	.file 4 "/home/kapoagaeming/Downloads/spacemit-image-builder/components/edk2/MdePkg/Include/Uefi/UefiBaseType.h"
	.file 5 "/home/kapoagaeming/Downloads/spacemit-image-builder/components/edk2/MdePkg/Include/Uefi/UefiMultiPhase.h"
	.file 6 "/home/kapoagaeming/Downloads/spacemit-image-builder/components/edk2/MdePkg/Include/Protocol/DevicePath.h"
	.file 7 "/home/kapoagaeming/Downloads/spacemit-image-builder/components/edk2/MdePkg/Include/Protocol/SimpleTextIn.h"
	.file 8 "/home/kapoagaeming/Downloads/spacemit-image-builder/components/edk2/MdePkg/Include/Protocol/SimpleTextOut.h"
	.file 9 "/home/kapoagaeming/Downloads/spacemit-image-builder/components/edk2/MdePkg/Include/Uefi/UefiSpec.h"
	.file 10 "/home/kapoagaeming/Downloads/spacemit-image-builder/components/edk2/MdePkg/Include/Uefi/UefiInternalFormRepresentation.h"
	.file 11 "/home/kapoagaeming/Downloads/spacemit-image-builder/components/Build/Milk-V-Jupiter/RELEASE_GCC5/RISCV64/ShellPkg/Library/UefiShellLevel2CommandsLib/UefiShellLevel2CommandsLib/DEBUG/AutoGen.h"
	.file 12 "/home/kapoagaeming/Downloads/spacemit-image-builder/components/edk2/MdePkg/Include/Guid/FileInfo.h"
	.file 13 "/home/kapoagaeming/Downloads/spacemit-image-builder/components/edk2/MdePkg/Include/Protocol/Shell.h"
	.file 14 "/home/kapoagaeming/Downloads/spacemit-image-builder/components/edk2/MdePkg/Include/Protocol/UnicodeCollation.h"
	.file 15 "/home/kapoagaeming/Downloads/spacemit-image-builder/components/edk2/MdePkg/Include/Library/UefiBootServicesTableLib.h"
	.file 16 "/home/kapoagaeming/Downloads/spacemit-image-builder/components/edk2/ShellPkg/Include/Library/ShellCommandLib.h"
	.file 17 "/home/kapoagaeming/Downloads/spacemit-image-builder/components/edk2/ShellPkg/Include/Library/ShellLib.h"
	.file 18 "/home/kapoagaeming/Downloads/spacemit-image-builder/components/edk2/ShellPkg/Library/UefiShellLevel2CommandsLib/UefiShellLevel2CommandsLib.h"
	.file 19 "/home/kapoagaeming/Downloads/spacemit-image-builder/components/edk2/MdePkg/Include/Protocol/BlockIo.h"
	.file 20 "/home/kapoagaeming/Downloads/spacemit-image-builder/components/edk2/ShellPkg/Include/Library/HandleParsingLib.h"
	.file 21 "/home/kapoagaeming/Downloads/spacemit-image-builder/components/edk2/MdePkg/Include/Library/MemoryAllocationLib.h"
	.file 22 "/home/kapoagaeming/Downloads/spacemit-image-builder/components/edk2/MdePkg/Include/Library/BaseLib.h"
	.file 23 "/home/kapoagaeming/Downloads/spacemit-image-builder/components/edk2/MdePkg/Include/Library/DevicePathLib.h"
	.file 24 "/home/kapoagaeming/Downloads/spacemit-image-builder/components/edk2/MdePkg/Include/Library/BaseMemoryLib.h"
	.file 25 "/home/kapoagaeming/Downloads/spacemit-image-builder/components/edk2/MdeModulePkg/Include/Library/HiiLib.h"
	.section	.note.GNU-stack,"",@progbits
