	.file	"TimeDate.c"
	.option pic
	.option norelax
	.attribute arch, "rv64i2p1_m2p0_a2p1_f2p2_d2p2_c2p0_zicsr2p0_zifencei2p0_zmmul1p0_zaamo1p0_zalrsc1p0_zca1p0_zcd1p0"
	.attribute unaligned_access, 0
	.attribute stack_align, 16
	.text
.Ltext0:
	.cfi_sections	.debug_frame
	.file 0 "/home/kapoagaeming/Downloads/spacemit-image-builder/components/Build/Milk-V-Jupiter/RELEASE_GCC5/RISCV64/ShellPkg/Library/UefiShellLevel2CommandsLib/UefiShellLevel2CommandsLib" "/home/kapoagaeming/Downloads/spacemit-image-builder/components/edk2/ShellPkg/Library/UefiShellLevel2CommandsLib/TimeDate.c"
	.section	.text.InternalIsTimeLikeString,"ax",@progbits
	.align	1
	.globl	InternalIsTimeLikeString
	.type	InternalIsTimeLikeString, @function
InternalIsTimeLikeString:
.LFB0:
	.file 1 "/home/kapoagaeming/Downloads/spacemit-image-builder/components/edk2/ShellPkg/Library/UefiShellLevel2CommandsLib/TimeDate.c"
	.loc 1 32 1
	.cfi_startproc
	addi	sp,sp,-64
	.cfi_def_cfa_offset 64
	sd	ra,56(sp)
	sd	s0,48(sp)
	.cfi_offset 1, -8
	.cfi_offset 8, -16
	addi	s0,sp,64
	.cfi_def_cfa 8, 0
	sd	a0,-40(s0)
	mv	a5,a1
	sd	a2,-56(s0)
	sd	a3,-64(s0)
	sh	a5,-42(s0)
	mv	a5,a4
	sb	a5,-43(s0)
	.loc 1 35 9
	sd	zero,-24(s0)
	.loc 1 37 6
	lbu	a5,-43(s0)
	andi	a5,a5,0xff
	beq	a5,zero,.L2
	.loc 1 41 9
	ld	a5,-40(s0)
	lhu	a5,0(a5)
	.loc 1 41 8
	sext.w	a4,a5
	li	a5,45
	bne	a4,a5,.L2
	.loc 1 42 13
	ld	a5,-40(s0)
	addi	a5,a5,2
	sd	a5,-40(s0)
.L2:
	.loc 1 49 8
	ld	a5,-40(s0)
	lhu	a5,0(a5)
	mv	a0,a5
	call	ShellIsDecimalDigitCharacter@plt
	mv	a5,a0
	.loc 1 49 6 discriminator 1
	bne	a5,zero,.L5
	.loc 1 50 12
	li	a5,0
	j	.L4
.L10:
	.loc 1 57 9
	ld	a5,-40(s0)
	lhu	a5,0(a5)
	.loc 1 57 8
	lhu	a4,-42(s0)
	sext.w	a4,a4
	sext.w	a5,a5
	bne	a4,a5,.L6
	.loc 1 58 12
	ld	a5,-24(s0)
	addi	a5,a5,1
	sd	a5,-24(s0)
	.loc 1 59 10
	ld	a4,-24(s0)
	ld	a5,-64(s0)
	bleu	a4,a5,.L12
	.loc 1 60 16
	li	a5,0
	j	.L4
.L6:
	.loc 1 66 10
	ld	a5,-40(s0)
	lhu	a5,0(a5)
	mv	a0,a5
	call	ShellIsDecimalDigitCharacter@plt
	mv	a5,a0
	.loc 1 66 8 discriminator 1
	bne	a5,zero,.L8
	.loc 1 67 14
	li	a5,0
	j	.L4
.L12:
	.loc 1 63 7
	nop
.L8:
	.loc 1 56 62
	ld	a5,-40(s0)
	addi	a5,a5,2
	sd	a5,-40(s0)
.L5:
	.loc 1 56 34 discriminator 1
	ld	a5,-40(s0)
	beq	a5,zero,.L9
	.loc 1 56 37 discriminator 2
	ld	a5,-40(s0)
	lhu	a5,0(a5)
	.loc 1 56 34 discriminator 2
	bne	a5,zero,.L10
.L9:
	.loc 1 71 6
	ld	a4,-24(s0)
	ld	a5,-56(s0)
	bgeu	a4,a5,.L11
	.loc 1 72 12
	li	a5,0
	j	.L4
.L11:
	.loc 1 75 10
	li	a5,1
.L4:
	.loc 1 76 1
	mv	a0,a5
	ld	ra,56(sp)
	.cfi_restore 1
	ld	s0,48(sp)
	.cfi_restore 8
	.cfi_def_cfa 2, 64
	addi	sp,sp,64
	.cfi_def_cfa_offset 0
	jr	ra
	.cfi_endproc
.LFE0:
	.size	InternalIsTimeLikeString, .-InternalIsTimeLikeString
	.section	.rodata
	.align	3
.LC0:
	.string	"g"
	.string	"R"
	.string	"T"
	.string	"-"
	.string	">"
	.string	"G"
	.string	"e"
	.string	"t"
	.string	"T"
	.string	"i"
	.string	"m"
	.string	"e"
	.zero	2
	.align	3
.LC1:
	.string	"d"
	.string	"a"
	.string	"t"
	.string	"e"
	.zero	2
	.align	3
.LC2:
	.string	"/"
	.zero	2
	.section	.text.CheckAndSetDate,"ax",@progbits
	.align	1
	.globl	CheckAndSetDate
	.type	CheckAndSetDate, @function
CheckAndSetDate:
.LFB1:
	.loc 1 92 1
	.cfi_startproc
	addi	sp,sp,-80
	.cfi_def_cfa_offset 80
	sd	ra,72(sp)
	sd	s0,64(sp)
	.cfi_offset 1, -8
	.cfi_offset 8, -16
	addi	s0,sp,80
	.cfi_def_cfa 8, 0
	sd	a0,-72(s0)
	.loc 1 99 8
	li	a4,0
	li	a3,2
	li	a2,2
	li	a1,47
	ld	a0,-72(s0)
	call	InternalIsTimeLikeString
	mv	a5,a0
	.loc 1 99 6 discriminator 1
	bne	a5,zero,.L14
	.loc 1 100 12
	li	a5,2
	j	.L31
.L14:
	.loc 1 103 15
	la	a5,gRT
	ld	a5,0(a5)
	ld	a5,24(a5)
	.loc 1 103 12
	addi	a4,s0,-56
	li	a1,0
	mv	a0,a4
	jalr	a5
.LVL0:
	sd	a0,-40(s0)
	.loc 1 104 34
	ld	a5,-40(s0)
	.loc 1 104 6
	bge	a5,zero,.L16
	.loc 1 105 5
	la	a5,gShellLevel2HiiHandle
	ld	a4,0(a5)
	ld	a7,-40(s0)
	lla	a6,.LC0
	lla	a5,.LC1
	li	a3,29
	li	a2,0
	li	a1,-1
	li	a0,-1
	call	ShellPrintHiiEx@plt
	.loc 1 106 12
	li	a5,7
	j	.L31
.L16:
	.loc 1 109 18
	sd	zero,-64(s0)
	.loc 1 110 20
	addi	a5,s0,-64
	li	a3,0
	ld	a2,-72(s0)
	li	a1,0
	mv	a0,a5
	call	StrnCatGrow@plt
	mv	a5,a0
	.loc 1 110 18 discriminator 1
	sd	a5,-64(s0)
	.loc 1 111 22
	ld	a5,-64(s0)
	.loc 1 111 6
	bne	a5,zero,.L17
	.loc 1 112 12
	li	a5,9
	j	.L31
.L17:
	.loc 1 115 10
	ld	a5,-64(s0)
	sd	a5,-24(s0)
	.loc 1 117 17
	li	a5,-1
	sb	a5,-54(s0)
	.loc 1 118 15
	li	a5,-1
	sb	a5,-53(s0)
	.loc 1 119 16
	li	a5,-1
	sh	a5,-56(s0)
	.loc 1 121 13
	lla	a1,.LC2
	ld	a0,-24(s0)
	call	StrStr@plt
	sd	a0,-32(s0)
	.loc 1 122 6
	ld	a5,-32(s0)
	beq	a5,zero,.L18
	.loc 1 122 37 discriminator 1
	ld	a5,-32(s0)
	lhu	a5,0(a5)
	.loc 1 122 33 discriminator 1
	sext.w	a4,a5
	li	a5,47
	bne	a4,a5,.L18
	.loc 1 123 14
	ld	a5,-32(s0)
	sh	zero,0(a5)
.L18:
	.loc 1 126 26
	ld	a0,-24(s0)
	call	ShellStrToUintn@plt
	mv	a5,a0
	.loc 1 126 19 discriminator 1
	andi	a5,a5,0xff
	.loc 1 126 17 discriminator 1
	sb	a5,-54(s0)
	.loc 1 127 6
	ld	a5,-32(s0)
	beq	a5,zero,.L19
	.loc 1 128 12
	ld	a5,-32(s0)
	addi	a5,a5,2
	sd	a5,-24(s0)
.L19:
	.loc 1 131 60
	ld	a5,-24(s0)
	beq	a5,zero,.L20
	.loc 1 131 38 discriminator 1
	lla	a1,.LC2
	ld	a0,-24(s0)
	call	StrStr@plt
	sd	a0,-32(s0)
	j	.L21
.L20:
	.loc 1 131 11 discriminator 2
	sd	zero,-32(s0)
.L21:
	.loc 1 132 6
	ld	a5,-32(s0)
	beq	a5,zero,.L22
	.loc 1 132 37 discriminator 1
	ld	a5,-32(s0)
	lhu	a5,0(a5)
	.loc 1 132 33 discriminator 1
	sext.w	a4,a5
	li	a5,47
	bne	a4,a5,.L22
	.loc 1 133 14
	ld	a5,-32(s0)
	sh	zero,0(a5)
.L22:
	.loc 1 136 6
	ld	a5,-24(s0)
	beq	a5,zero,.L23
	.loc 1 136 42 discriminator 1
	ld	a5,-24(s0)
	lhu	a5,0(a5)
	.loc 1 136 32 discriminator 1
	beq	a5,zero,.L23
	.loc 1 137 26
	ld	a0,-24(s0)
	call	ShellStrToUintn@plt
	mv	a5,a0
	.loc 1 137 19 discriminator 1
	andi	a5,a5,0xff
	.loc 1 137 17 discriminator 1
	sb	a5,-53(s0)
	.loc 1 138 8
	ld	a5,-32(s0)
	beq	a5,zero,.L24
	.loc 1 139 14
	ld	a5,-32(s0)
	addi	a5,a5,2
	sd	a5,-24(s0)
.L24:
	.loc 1 142 62
	ld	a5,-24(s0)
	beq	a5,zero,.L25
	.loc 1 142 40 discriminator 1
	lla	a1,.LC2
	ld	a0,-24(s0)
	call	StrStr@plt
	sd	a0,-32(s0)
	j	.L26
.L25:
	.loc 1 142 13 discriminator 2
	sd	zero,-32(s0)
.L26:
	.loc 1 143 8
	ld	a5,-32(s0)
	beq	a5,zero,.L27
	.loc 1 143 39 discriminator 1
	ld	a5,-32(s0)
	lhu	a5,0(a5)
	.loc 1 143 35 discriminator 1
	sext.w	a4,a5
	li	a5,47
	bne	a4,a5,.L27
	.loc 1 144 16
	ld	a5,-32(s0)
	sh	zero,0(a5)
.L27:
	.loc 1 147 8
	ld	a5,-24(s0)
	beq	a5,zero,.L23
	.loc 1 147 44 discriminator 1
	ld	a5,-24(s0)
	lhu	a5,0(a5)
	.loc 1 147 34 discriminator 1
	beq	a5,zero,.L23
	.loc 1 148 30
	ld	a0,-24(s0)
	call	ShellStrToUintn@plt
	mv	a5,a0
	.loc 1 148 22 discriminator 1
	slli	a5,a5,48
	srli	a5,a5,48
	.loc 1 148 20 discriminator 1
	sh	a5,-56(s0)
.L23:
	.loc 1 152 14
	lhu	a5,-56(s0)
	.loc 1 152 6
	sext.w	a4,a5
	li	a5,99
	bgtu	a4,a5,.L28
	.loc 1 153 16
	lhu	a5,-56(s0)
	.loc 1 153 8
	sext.w	a4,a5
	li	a5,97
	bleu	a4,a5,.L29
	.loc 1 154 45
	lhu	a5,-56(s0)
	.loc 1 154 22
	addiw	a5,a5,1900
	slli	a5,a5,48
	srli	a5,a5,48
	.loc 1 154 20
	sh	a5,-56(s0)
	j	.L28
.L29:
	.loc 1 156 45
	lhu	a5,-56(s0)
	.loc 1 156 22
	addiw	a5,a5,2000
	slli	a5,a5,48
	srli	a5,a5,48
	.loc 1 156 20
	sh	a5,-56(s0)
.L28:
	.loc 1 160 15
	la	a5,gRT
	ld	a5,0(a5)
	ld	a5,32(a5)
	.loc 1 160 12
	addi	a4,s0,-56
	mv	a0,a4
	jalr	a5
.LVL1:
	sd	a0,-40(s0)
	.loc 1 162 7
	ld	a5,-40(s0)
	.loc 1 162 6
	blt	a5,zero,.L30
	.loc 1 163 12
	li	a5,0
	j	.L31
.L30:
	.loc 1 166 10
	li	a5,2
.L31:
	.loc 1 167 1
	mv	a0,a5
	ld	ra,72(sp)
	.cfi_restore 1
	ld	s0,64(sp)
	.cfi_restore 8
	.cfi_def_cfa 2, 80
	addi	sp,sp,80
	.cfi_def_cfa_offset 0
	jr	ra
	.cfi_endproc
.LFE1:
	.size	CheckAndSetDate, .-CheckAndSetDate
	.section	.rodata
	.align	3
.LC3:
	.string	"-"
	.string	"?"
	.zero	2
	.align	3
.LC4:
	.string	"-"
	.string	"s"
	.string	"f"
	.string	"o"
	.zero	2
	.section	.text.ShellCommandRunDate,"ax",@progbits
	.align	1
	.globl	ShellCommandRunDate
	.type	ShellCommandRunDate, @function
ShellCommandRunDate:
.LFB2:
	.loc 1 181 1
	.cfi_startproc
	addi	sp,sp,-96
	.cfi_def_cfa_offset 96
	sd	ra,88(sp)
	sd	s0,80(sp)
	.cfi_offset 1, -8
	.cfi_offset 8, -16
	addi	s0,sp,96
	.cfi_def_cfa 8, 0
	sd	a0,-88(s0)
	sd	a1,-96(s0)
	.loc 1 189 15
	sw	zero,-20(s0)
	.loc 1 190 16
	sd	zero,-72(s0)
	.loc 1 195 12
	call	ShellInitialize@plt
	sd	a0,-32(s0)
	.loc 1 201 12
	addi	a2,s0,-72
	addi	a5,s0,-48
	li	a4,0
	li	a3,1
	mv	a1,a5
	la	a0,SfoParamList
	call	ShellCommandLineParseEx@plt
	sd	a0,-32(s0)
	.loc 1 202 34
	ld	a5,-32(s0)
	.loc 1 202 6
	bge	a5,zero,.L33
	.loc 1 203 8
	ld	a4,-32(s0)
	li	a5,-1
	slli	a5,a5,63
	addi	a5,a5,10
	bne	a4,a5,.L34
	.loc 1 203 86 discriminator 1
	ld	a5,-72(s0)
	.loc 1 203 69 discriminator 1
	beq	a5,zero,.L34
	.loc 1 204 7
	la	a5,gShellLevel2HiiHandle
	ld	a4,0(a5)
	ld	a5,-72(s0)
	mv	a6,a5
	lla	a5,.LC1
	li	a3,6
	li	a2,0
	li	a1,-1
	li	a0,-1
	call	ShellPrintHiiEx@plt
	.loc 1 205 7
	ld	a5,-72(s0)
	mv	a0,a5
	call	FreePool@plt
	.loc 1 206 19
	li	a5,2
	sw	a5,-20(s0)
	j	.L34
.L33:
	.loc 1 214 9
	ld	a5,-48(s0)
	lla	a1,.LC3
	mv	a0,a5
	call	ShellCommandLineGetFlag@plt
	mv	a5,a0
	.loc 1 214 8 discriminator 1
	bne	a5,zero,.L34
	.loc 1 216 16
	ld	a5,-48(s0)
	li	a1,2
	mv	a0,a5
	call	ShellCommandLineGetRawValue@plt
	mv	a5,a0
	.loc 1 216 15 discriminator 1
	beq	a5,zero,.L35
	.loc 1 217 7
	la	a5,gShellLevel2HiiHandle
	ld	a4,0(a5)
	lla	a5,.LC1
	li	a3,3
	li	a2,0
	li	a1,-1
	li	a0,-1
	call	ShellPrintHiiEx@plt
	.loc 1 218 19
	li	a5,2
	sw	a5,-20(s0)
	j	.L34
.L35:
	.loc 1 224 11
	ld	a5,-48(s0)
	li	a1,1
	mv	a0,a5
	call	ShellCommandLineGetRawValue@plt
	mv	a5,a0
	.loc 1 224 10 discriminator 1
	bne	a5,zero,.L36
	.loc 1 228 21
	la	a5,gRT
	ld	a5,0(a5)
	ld	a5,24(a5)
	.loc 1 228 18
	addi	a4,s0,-64
	li	a1,0
	mv	a0,a4
	jalr	a5
.LVL2:
	sd	a0,-32(s0)
	.loc 1 229 40
	ld	a5,-32(s0)
	.loc 1 229 12
	bge	a5,zero,.L37
	.loc 1 230 11
	la	a5,gShellLevel2HiiHandle
	ld	a4,0(a5)
	ld	a7,-32(s0)
	lla	a6,.LC0
	lla	a5,.LC1
	li	a3,29
	li	a2,0
	li	a1,-1
	li	a0,-1
	call	ShellPrintHiiEx@plt
	.loc 1 231 18
	li	a5,7
	j	.L43
.L37:
	.loc 1 237 13
	ld	a5,-48(s0)
	lla	a1,.LC4
	mv	a0,a5
	call	ShellCommandLineGetFlag@plt
	mv	a5,a0
	.loc 1 237 12 discriminator 1
	beq	a5,zero,.L39
	.loc 1 243 11
	la	a5,gShellLevel2HiiHandle
	ld	a4,0(a5)
	lla	a5,.LC1
	li	a3,25
	li	a2,0
	li	a1,-1
	li	a0,-1
	call	ShellPrintHiiEx@plt
	.loc 1 244 11
	la	a5,gShellLevel2HiiHandle
	ld	a4,0(a5)
	.loc 1 244 88
	lbu	a5,-61(s0)
	.loc 1 244 11
	sext.w	a5,a5
	.loc 1 244 101
	lbu	a3,-62(s0)
	.loc 1 244 11
	sext.w	a3,a3
	.loc 1 244 116
	lhu	a2,-64(s0)
	.loc 1 244 11
	sext.w	a2,a2
	mv	a7,a2
	mv	a6,a3
	li	a3,55
	li	a2,0
	li	a1,-1
	li	a0,-1
	call	ShellPrintHiiEx@plt
	j	.L34
.L39:
	.loc 1 246 11
	la	a5,gShellLevel2HiiHandle
	ld	a4,0(a5)
	.loc 1 246 88
	lbu	a5,-62(s0)
	.loc 1 246 11
	sext.w	a5,a5
	.loc 1 246 103
	lbu	a3,-61(s0)
	.loc 1 246 11
	sext.w	a3,a3
	.loc 1 246 116
	lhu	a2,-64(s0)
	.loc 1 246 11
	sext.w	a2,a2
	mv	a7,a2
	mv	a6,a3
	li	a3,54
	li	a2,0
	li	a1,-1
	li	a0,-1
	call	ShellPrintHiiEx@plt
	j	.L34
.L36:
	.loc 1 249 53
	la	a5,_gPcd_FixedAtBuild_PcdShellSupportLevel
	lbu	a5,0(a5)
	.loc 1 249 12
	mv	a4,a5
	li	a5,2
	bne	a4,a5,.L40
	.loc 1 250 11
	la	a5,gShellLevel2HiiHandle
	ld	a4,0(a5)
	lla	a5,.LC1
	li	a3,3
	li	a2,0
	li	a1,-1
	li	a0,-1
	call	ShellPrintHiiEx@plt
	.loc 1 251 23
	li	a5,2
	sw	a5,-20(s0)
	j	.L34
.L40:
	.loc 1 256 20
	ld	a5,-48(s0)
	li	a1,1
	mv	a0,a5
	call	ShellCommandLineGetRawValue@plt
	sd	a0,-40(s0)
	.loc 1 257 14
	ld	a5,-40(s0)
	bne	a5,zero,.L41
	.loc 1 258 25
	li	a5,2
	sw	a5,-20(s0)
	j	.L42
.L41:
	.loc 1 260 27
	ld	a0,-40(s0)
	call	CheckAndSetDate
	mv	a5,a0
	sw	a5,-20(s0)
.L42:
	.loc 1 263 14
	lw	a5,-20(s0)
	sext.w	a5,a5
	beq	a5,zero,.L34
	.loc 1 264 13
	la	a5,gShellLevel2HiiHandle
	ld	a4,0(a5)
	ld	a6,-40(s0)
	lla	a5,.LC1
	li	a3,5
	li	a2,0
	li	a1,-1
	li	a0,-1
	call	ShellPrintHiiEx@plt
	.loc 1 265 25
	li	a5,2
	sw	a5,-20(s0)
.L34:
	.loc 1 275 3
	ld	a5,-48(s0)
	mv	a0,a5
	call	ShellCommandLineFreeVarList@plt
	.loc 1 280 10
	lw	a5,-20(s0)
.L43:
	.loc 1 281 1
	mv	a0,a5
	ld	ra,88(sp)
	.cfi_restore 1
	ld	s0,80(sp)
	.cfi_restore 8
	.cfi_def_cfa 2, 96
	addi	sp,sp,96
	.cfi_def_cfa_offset 0
	jr	ra
	.cfi_endproc
.LFE2:
	.size	ShellCommandRunDate, .-ShellCommandRunDate
	.section	.rodata
	.align	3
.LC5:
	.string	"-"
	.string	"d"
	.zero	2
	.section	.data.rel.ro.local.TimeParamList2,"aw"
	.align	3
	.type	TimeParamList2, @object
	.size	TimeParamList2, 32
TimeParamList2:
	.dword	.LC5
	.word	1
	.zero	4
	.dword	0
	.word	7
	.zero	4
	.section	.rodata
	.align	3
.LC6:
	.string	"-"
	.string	"t"
	.string	"z"
	.zero	2
	.section	.data.rel.ro.local.TimeParamList3,"aw"
	.align	3
	.type	TimeParamList3, @object
	.size	TimeParamList3, 48
TimeParamList3:
	.dword	.LC5
	.word	1
	.zero	4
	.dword	.LC6
	.word	1
	.zero	4
	.dword	0
	.word	7
	.zero	4
	.section	.rodata
	.align	3
.LC7:
	.string	"t"
	.string	"i"
	.string	"m"
	.string	"e"
	.zero	2
	.align	3
.LC8:
	.string	":"
	.zero	2
	.section	.text.CheckAndSetTime,"ax",@progbits
	.align	1
	.globl	CheckAndSetTime
	.type	CheckAndSetTime, @function
CheckAndSetTime:
.LFB3:
	.loc 1 315 1
	.cfi_startproc
	addi	sp,sp,-80
	.cfi_def_cfa_offset 80
	sd	ra,72(sp)
	sd	s0,64(sp)
	.cfi_offset 1, -8
	.cfi_offset 8, -16
	addi	s0,sp,80
	.cfi_def_cfa 8, 0
	sd	a0,-72(s0)
	mv	a5,a1
	mv	a4,a2
	sh	a5,-74(s0)
	mv	a5,a4
	sb	a5,-75(s0)
	.loc 1 322 6
	ld	a5,-72(s0)
	beq	a5,zero,.L45
	.loc 1 322 40 discriminator 1
	li	a4,0
	li	a3,2
	li	a2,1
	li	a1,58
	ld	a0,-72(s0)
	call	InternalIsTimeLikeString
	mv	a5,a0
	.loc 1 322 36 discriminator 2
	bne	a5,zero,.L45
	.loc 1 323 12
	li	a5,2
	j	.L63
.L45:
	.loc 1 326 6
	lbu	a5,-75(s0)
	andi	a4,a5,0xff
	li	a5,255
	beq	a4,a5,.L47
	.loc 1 326 26 discriminator 1
	lbu	a5,-75(s0)
	andi	a4,a5,0xff
	li	a5,3
	bleu	a4,a5,.L47
	.loc 1 327 12
	li	a5,2
	j	.L63
.L47:
	.loc 1 330 15
	la	a5,gRT
	ld	a5,0(a5)
	ld	a5,24(a5)
	.loc 1 330 12
	addi	a4,s0,-56
	li	a1,0
	mv	a0,a4
	jalr	a5
.LVL3:
	sd	a0,-40(s0)
	.loc 1 331 34
	ld	a5,-40(s0)
	.loc 1 331 6
	bge	a5,zero,.L48
	.loc 1 332 5
	la	a5,gShellLevel2HiiHandle
	ld	a4,0(a5)
	ld	a7,-40(s0)
	lla	a6,.LC0
	lla	a5,.LC7
	li	a3,29
	li	a2,0
	li	a1,-1
	li	a0,-1
	call	ShellPrintHiiEx@plt
	.loc 1 333 12
	li	a5,7
	j	.L63
.L48:
	.loc 1 336 6
	ld	a5,-72(s0)
	beq	a5,zero,.L49
	.loc 1 337 20
	sd	zero,-64(s0)
	.loc 1 338 22
	addi	a5,s0,-64
	li	a3,0
	ld	a2,-72(s0)
	li	a1,0
	mv	a0,a5
	call	StrnCatGrow@plt
	mv	a5,a0
	.loc 1 338 20 discriminator 1
	sd	a5,-64(s0)
	.loc 1 339 13
	ld	a5,-64(s0)
	sd	a5,-24(s0)
	.loc 1 340 18
	li	a5,-1
	sb	a5,-52(s0)
	.loc 1 341 20
	li	a5,-1
	sb	a5,-51(s0)
	.loc 1 343 64
	ld	a5,-24(s0)
	beq	a5,zero,.L50
	.loc 1 343 41 discriminator 1
	lla	a1,.LC8
	ld	a0,-24(s0)
	call	StrStr@plt
	sd	a0,-32(s0)
	j	.L51
.L50:
	.loc 1 343 13 discriminator 2
	sd	zero,-32(s0)
.L51:
	.loc 1 344 8
	ld	a5,-32(s0)
	beq	a5,zero,.L52
	.loc 1 344 39 discriminator 1
	ld	a5,-32(s0)
	lhu	a5,0(a5)
	.loc 1 344 35 discriminator 1
	sext.w	a4,a5
	li	a5,58
	bne	a4,a5,.L52
	.loc 1 345 16
	ld	a5,-32(s0)
	sh	zero,0(a5)
.L52:
	.loc 1 348 27
	ld	a0,-24(s0)
	call	ShellStrToUintn@plt
	mv	a5,a0
	.loc 1 348 20 discriminator 1
	andi	a5,a5,0xff
	.loc 1 348 18 discriminator 1
	sb	a5,-52(s0)
	.loc 1 349 8
	ld	a5,-32(s0)
	beq	a5,zero,.L53
	.loc 1 350 15
	ld	a5,-32(s0)
	addi	a5,a5,2
	sd	a5,-24(s0)
.L53:
	.loc 1 353 64
	ld	a5,-24(s0)
	beq	a5,zero,.L54
	.loc 1 353 41 discriminator 1
	lla	a1,.LC8
	ld	a0,-24(s0)
	call	StrStr@plt
	sd	a0,-32(s0)
	j	.L55
.L54:
	.loc 1 353 13 discriminator 2
	sd	zero,-32(s0)
.L55:
	.loc 1 354 8
	ld	a5,-32(s0)
	beq	a5,zero,.L56
	.loc 1 354 39 discriminator 1
	ld	a5,-32(s0)
	lhu	a5,0(a5)
	.loc 1 354 35 discriminator 1
	sext.w	a4,a5
	li	a5,58
	bne	a4,a5,.L56
	.loc 1 355 16
	ld	a5,-32(s0)
	sh	zero,0(a5)
	.loc 1 356 22
	sb	zero,-50(s0)
	j	.L57
.L56:
	.loc 1 357 15
	ld	a5,-32(s0)
	bne	a5,zero,.L57
	.loc 1 358 22
	sb	zero,-50(s0)
.L57:
	.loc 1 361 8
	ld	a5,-24(s0)
	beq	a5,zero,.L58
	.loc 1 361 46 discriminator 1
	ld	a5,-24(s0)
	lhu	a5,0(a5)
	.loc 1 361 35 discriminator 1
	beq	a5,zero,.L58
	.loc 1 362 31
	ld	a0,-24(s0)
	call	ShellStrToUintn@plt
	mv	a5,a0
	.loc 1 362 24 discriminator 1
	andi	a5,a5,0xff
	.loc 1 362 22 discriminator 1
	sb	a5,-51(s0)
	.loc 1 363 10
	ld	a5,-32(s0)
	beq	a5,zero,.L58
	.loc 1 364 17
	ld	a5,-32(s0)
	addi	a5,a5,2
	sd	a5,-24(s0)
	.loc 1 365 12
	ld	a5,-24(s0)
	beq	a5,zero,.L58
	.loc 1 365 50 discriminator 1
	ld	a5,-24(s0)
	lhu	a5,0(a5)
	.loc 1 365 39 discriminator 1
	beq	a5,zero,.L58
	.loc 1 366 35
	ld	a0,-24(s0)
	call	ShellStrToUintn@plt
	mv	a5,a0
	.loc 1 366 28 discriminator 1
	andi	a5,a5,0xff
	.loc 1 366 26 discriminator 1
	sb	a5,-50(s0)
.L58:
	.loc 1 371 31
	ld	a5,-64(s0)
	.loc 1 371 13
	beq	a5,zero,.L49
	.loc 1 371 50 discriminator 1
	ld	a5,-64(s0)
	mv	a0,a5
	call	FreePool@plt
	.loc 1 371 95 discriminator 2
	sd	zero,-64(s0)
.L49:
	.loc 1 374 6
	lh	a5,-74(s0)
	sext.w	a4,a5
	li	a5,-1440
	blt	a4,a5,.L59
	.loc 1 374 21 discriminator 1
	lh	a5,-74(s0)
	sext.w	a4,a5
	li	a5,1440
	bgt	a4,a5,.L59
	.loc 1 383 22
	lhu	a5,-74(s0)
	negw	a5,a5
	slli	a5,a5,48
	srli	a5,a5,48
	slliw	a5,a5,16
	sraiw	a5,a5,16
	sh	a5,-44(s0)
	j	.L60
.L59:
	.loc 1 384 13
	lh	a5,-74(s0)
	sext.w	a4,a5
	li	a5,2047
	bne	a4,a5,.L60
	.loc 1 385 22
	lhu	a5,-74(s0)
	sh	a5,-44(s0)
.L60:
	.loc 1 388 6
	lbu	a5,-75(s0)
	andi	a4,a5,0xff
	li	a5,255
	beq	a4,a5,.L61
	.loc 1 389 22
	lbu	a5,-75(s0)
	sb	a5,-42(s0)
.L61:
	.loc 1 392 15
	la	a5,gRT
	ld	a5,0(a5)
	ld	a5,32(a5)
	.loc 1 392 12
	addi	a4,s0,-56
	mv	a0,a4
	jalr	a5
.LVL4:
	sd	a0,-40(s0)
	.loc 1 394 7
	ld	a5,-40(s0)
	.loc 1 394 6
	blt	a5,zero,.L62
	.loc 1 395 12
	li	a5,0
	j	.L63
.L62:
	.loc 1 398 10
	li	a5,2
.L63:
	.loc 1 399 1
	mv	a0,a5
	ld	ra,72(sp)
	.cfi_restore 1
	ld	s0,64(sp)
	.cfi_restore 8
	.cfi_def_cfa 2, 80
	addi	sp,sp,80
	.cfi_def_cfa_offset 0
	jr	ra
	.cfi_endproc
.LFE3:
	.size	CheckAndSetTime, .-CheckAndSetTime
	.section	.rodata
	.align	3
.LC9:
	.string	"-"
	.zero	2
	.align	3
.LC10:
	.string	"+"
	.zero	2
	.align	3
.LC11:
	.string	"T"
	.string	"h"
	.string	"e"
	.string	"T"
	.string	"i"
	.string	"m"
	.string	"e"
	.string	"."
	.string	"D"
	.string	"a"
	.string	"y"
	.string	"l"
	.string	"i"
	.string	"g"
	.string	"h"
	.string	"t"
	.zero	2
	.align	3
.LC12:
	.string	"_"
	.string	"l"
	.string	"o"
	.string	"c"
	.string	"a"
	.string	"l"
	.zero	2
	.section	.text.ShellCommandRunTime,"ax",@progbits
	.align	1
	.globl	ShellCommandRunTime
	.type	ShellCommandRunTime, @function
ShellCommandRunTime:
.LFB4:
	.loc 1 413 1
	.cfi_startproc
	addi	sp,sp,-144
	.cfi_def_cfa_offset 144
	sd	ra,136(sp)
	sd	s0,128(sp)
	sd	s1,120(sp)
	.cfi_offset 1, -8
	.cfi_offset 8, -16
	.cfi_offset 9, -24
	addi	s0,sp,144
	.cfi_def_cfa 8, 0
	sd	a0,-104(s0)
	sd	a1,-112(s0)
	.loc 1 427 15
	sw	zero,-44(s0)
	.loc 1 428 16
	sd	zero,-96(s0)
	.loc 1 433 12
	call	ShellInitialize@plt
	sd	a0,-40(s0)
	.loc 1 439 47
	la	a5,_gPcd_FixedAtBuild_PcdShellSupportLevel
	lbu	a5,0(a5)
	.loc 1 439 6
	mv	a4,a5
	li	a5,2
	bne	a4,a5,.L65
	.loc 1 440 14
	addi	a2,s0,-96
	addi	a5,s0,-72
	li	a4,1
	li	a3,1
	mv	a1,a5
	lla	a0,TimeParamList2
	call	ShellCommandLineParseEx@plt
	sd	a0,-40(s0)
	j	.L66
.L65:
	.loc 1 443 14
	addi	a2,s0,-96
	addi	a5,s0,-72
	li	a4,1
	li	a3,1
	mv	a1,a5
	lla	a0,TimeParamList3
	call	ShellCommandLineParseEx@plt
	sd	a0,-40(s0)
.L66:
	.loc 1 446 34
	ld	a5,-40(s0)
	.loc 1 446 6
	bge	a5,zero,.L67
	.loc 1 447 8
	ld	a4,-40(s0)
	li	a5,-1
	slli	a5,a5,63
	addi	a5,a5,10
	bne	a4,a5,.L68
	.loc 1 447 86 discriminator 1
	ld	a5,-96(s0)
	.loc 1 447 69 discriminator 1
	beq	a5,zero,.L68
	.loc 1 448 7
	la	a5,gShellLevel2HiiHandle
	ld	a4,0(a5)
	ld	a5,-96(s0)
	mv	a6,a5
	lla	a5,.LC7
	li	a3,6
	li	a2,0
	li	a1,-1
	li	a0,-1
	call	ShellPrintHiiEx@plt
	.loc 1 449 7
	ld	a5,-96(s0)
	mv	a0,a5
	call	FreePool@plt
	.loc 1 450 19
	li	a5,2
	sw	a5,-44(s0)
	j	.L68
.L67:
	.loc 1 458 17
	la	a5,gRT
	ld	a5,0(a5)
	ld	a5,24(a5)
	.loc 1 458 14
	addi	a4,s0,-88
	li	a1,0
	mv	a0,a4
	jalr	a5
.LVL5:
	sd	a0,-40(s0)
	.loc 1 459 36
	ld	a5,-40(s0)
	.loc 1 459 8
	bge	a5,zero,.L69
	.loc 1 460 7
	la	a5,gShellLevel2HiiHandle
	ld	a4,0(a5)
	ld	a7,-40(s0)
	lla	a6,.LC0
	lla	a5,.LC7
	li	a3,29
	li	a2,0
	li	a1,-1
	li	a0,-1
	call	ShellPrintHiiEx@plt
	.loc 1 461 14
	li	a5,7
	j	.L103
.L69:
	.loc 1 464 9
	ld	a5,-72(s0)
	lla	a1,.LC3
	mv	a0,a5
	call	ShellCommandLineGetFlag@plt
	mv	a5,a0
	.loc 1 464 8 discriminator 1
	bne	a5,zero,.L68
	.loc 1 466 16
	ld	a5,-72(s0)
	li	a1,2
	mv	a0,a5
	call	ShellCommandLineGetRawValue@plt
	mv	a5,a0
	.loc 1 466 15 discriminator 1
	beq	a5,zero,.L71
	.loc 1 467 7
	la	a5,gShellLevel2HiiHandle
	ld	a4,0(a5)
	lla	a5,.LC7
	li	a3,3
	li	a2,0
	li	a1,-1
	li	a0,-1
	call	ShellPrintHiiEx@plt
	.loc 1 468 19
	li	a5,2
	sw	a5,-44(s0)
	j	.L68
.L71:
	.loc 1 473 13
	ld	a5,-72(s0)
	li	a1,1
	mv	a0,a5
	call	ShellCommandLineGetRawValue@plt
	mv	a5,a0
	.loc 1 473 10 discriminator 1
	bne	a5,zero,.L72
	.loc 1 474 14
	ld	a5,-72(s0)
	lla	a1,.LC5
	mv	a0,a5
	call	ShellCommandLineGetFlag@plt
	mv	a5,a0
	.loc 1 474 10 discriminator 1
	bne	a5,zero,.L72
	.loc 1 475 14
	ld	a5,-72(s0)
	lla	a1,.LC6
	mv	a0,a5
	call	ShellCommandLineGetFlag@plt
	mv	a5,a0
	.loc 1 475 10 discriminator 1
	bne	a5,zero,.L72
	.loc 1 480 20
	lh	a4,-76(s0)
	.loc 1 480 12
	li	a5,2047
	bne	a4,a5,.L73
	.loc 1 481 21
	sd	zero,-64(s0)
	j	.L74
.L73:
	.loc 1 483 84
	lh	a5,-76(s0)
	.loc 1 483 74
	sraiw	a4,a5,15
	mv	a3,a4
	mv	a4,a3
	xor	a5,a5,a4
	mv	a4,a5
	mv	a5,a3
	subw	a5,a4,a5
	slli	a5,a5,48
	srli	a5,a5,48
	sext.w	a5,a5
	.loc 1 483 97
	sext.w	a3,a5
	li	a4,-2004316160
	addi	a4,a4,-1911
	mul	a4,a3,a4
	srli	a4,a4,32
	addw	a4,a5,a4
	sraiw	a4,a4,5
	mv	a3,a4
	sraiw	a4,a5,31
	subw	a4,a3,a4
	mv	a3,a4
	mv	a4,a3
	slliw	a4,a4,4
	subw	a4,a4,a3
	slliw	a4,a4,2
	subw	a5,a5,a4
	sext.w	a5,a5
	.loc 1 483 21
	sd	a5,-64(s0)
.L74:
	.loc 1 486 20
	lh	a4,-76(s0)
	.loc 1 486 12
	li	a5,2047
	beq	a4,a5,.L75
	.loc 1 487 11
	la	a5,gShellLevel2HiiHandle
	ld	a1,0(a5)
	.loc 1 493 20
	lbu	a5,-84(s0)
	.loc 1 487 11
	sext.w	a0,a5
	.loc 1 494 20
	lbu	a5,-83(s0)
	.loc 1 487 11
	sext.w	a6,a5
	.loc 1 495 20
	lbu	a5,-82(s0)
	.loc 1 487 11
	sext.w	a7,a5
	.loc 1 496 21
	lh	a5,-76(s0)
	.loc 1 487 11
	ble	a5,zero,.L76
	.loc 1 487 11 is_stmt 0 discriminator 1
	lla	a4,.LC9
	j	.L77
.L76:
	.loc 1 487 11 discriminator 2
	lla	a4,.LC10
.L77:
	.loc 1 497 75 is_stmt 1
	lh	a5,-76(s0)
	.loc 1 497 65
	sraiw	a3,a5,15
	mv	a2,a3
	mv	a3,a2
	xor	a5,a5,a3
	mv	a3,a5
	mv	a5,a2
	subw	a5,a3,a5
	slli	a5,a5,48
	srli	a5,a5,48
	sext.w	a5,a5
	.loc 1 487 11 discriminator 4
	sext.w	a2,a5
	li	a3,-2004316160
	addi	a3,a3,-1911
	mul	a3,a2,a3
	srli	a3,a3,32
	addw	a3,a5,a3
	sraiw	a3,a3,5
	sraiw	a5,a5,31
	subw	a5,a3,a5
	sext.w	a5,a5
	ld	a3,-64(s0)
	sd	a3,16(sp)
	sd	a5,8(sp)
	sd	a4,0(sp)
	mv	a5,a0
	mv	a4,a1
	li	a3,56
	li	a2,0
	li	a1,-1
	li	a0,-1
	call	ShellPrintHiiEx@plt
	j	.L78
.L75:
	.loc 1 501 11
	la	a5,gShellLevel2HiiHandle
	ld	a4,0(a5)
	.loc 1 507 20
	lbu	a5,-84(s0)
	.loc 1 501 11
	sext.w	a5,a5
	.loc 1 508 20
	lbu	a3,-83(s0)
	.loc 1 501 11
	sext.w	a3,a3
	.loc 1 509 20
	lbu	a2,-82(s0)
	.loc 1 501 11
	sext.w	a2,a2
	mv	a7,a2
	mv	a6,a3
	li	a3,57
	li	a2,0
	li	a1,-1
	li	a0,-1
	call	ShellPrintHiiEx@plt
.L78:
	.loc 1 513 9
	la	a5,gShellLevel2HiiHandle
	ld	a5,0(a5)
	mv	a4,a5
	li	a3,19
	li	a2,0
	li	a1,-1
	li	a0,-1
	call	ShellPrintHiiEx@plt
	j	.L68
.L72:
	.loc 1 514 18
	ld	a5,-72(s0)
	lla	a1,.LC5
	mv	a0,a5
	call	ShellCommandLineGetFlag@plt
	mv	a5,a0
	.loc 1 514 17 discriminator 1
	beq	a5,zero,.L79
	.loc 1 514 63 discriminator 2
	ld	a5,-72(s0)
	lla	a1,.LC5
	mv	a0,a5
	call	ShellCommandLineGetValue@plt
	mv	a5,a0
	.loc 1 514 59 discriminator 3
	bne	a5,zero,.L79
	.loc 1 515 20
	lh	a4,-76(s0)
	.loc 1 515 12
	li	a5,2047
	bne	a4,a5,.L80
	.loc 1 516 11
	la	a5,gShellLevel2HiiHandle
	ld	a4,0(a5)
	.loc 1 522 20
	lbu	a5,-84(s0)
	.loc 1 516 11
	sext.w	a5,a5
	.loc 1 523 20
	lbu	a3,-83(s0)
	.loc 1 516 11
	sext.w	a3,a3
	.loc 1 524 20
	lbu	a2,-82(s0)
	.loc 1 516 11
	sext.w	a2,a2
	mv	a7,a2
	mv	a6,a3
	li	a3,57
	li	a2,0
	li	a1,-1
	li	a0,-1
	call	ShellPrintHiiEx@plt
	j	.L81
.L80:
	.loc 1 527 84
	lh	a5,-76(s0)
	.loc 1 527 74
	sraiw	a4,a5,15
	mv	a3,a4
	mv	a4,a3
	xor	a5,a5,a4
	mv	a4,a5
	mv	a5,a3
	subw	a5,a4,a5
	slli	a5,a5,48
	srli	a5,a5,48
	sext.w	a5,a5
	.loc 1 527 97
	sext.w	a3,a5
	li	a4,-2004316160
	addi	a4,a4,-1911
	mul	a4,a3,a4
	srli	a4,a4,32
	addw	a4,a5,a4
	sraiw	a4,a4,5
	mv	a3,a4
	sraiw	a4,a5,31
	subw	a4,a3,a4
	mv	a3,a4
	mv	a4,a3
	slliw	a4,a4,4
	subw	a4,a4,a3
	slliw	a4,a4,2
	subw	a5,a5,a4
	sext.w	a5,a5
	.loc 1 527 21
	sd	a5,-64(s0)
	.loc 1 528 11
	la	a5,gShellLevel2HiiHandle
	ld	a1,0(a5)
	.loc 1 534 20
	lbu	a5,-84(s0)
	.loc 1 528 11
	sext.w	a0,a5
	.loc 1 535 20
	lbu	a5,-83(s0)
	.loc 1 528 11
	sext.w	a6,a5
	.loc 1 536 20
	lbu	a5,-82(s0)
	.loc 1 528 11
	sext.w	a7,a5
	.loc 1 537 21
	lh	a5,-76(s0)
	.loc 1 528 11
	ble	a5,zero,.L82
	.loc 1 528 11 is_stmt 0 discriminator 1
	lla	a4,.LC9
	j	.L83
.L82:
	.loc 1 528 11 discriminator 2
	lla	a4,.LC10
.L83:
	.loc 1 538 75 is_stmt 1
	lh	a5,-76(s0)
	.loc 1 538 65
	sraiw	a3,a5,15
	mv	a2,a3
	mv	a3,a2
	xor	a5,a5,a3
	mv	a3,a5
	mv	a5,a2
	subw	a5,a3,a5
	slli	a5,a5,48
	srli	a5,a5,48
	sext.w	a5,a5
	.loc 1 528 11 discriminator 4
	sext.w	a2,a5
	li	a3,-2004316160
	addi	a3,a3,-1911
	mul	a3,a2,a3
	srli	a3,a3,32
	addw	a3,a5,a3
	sraiw	a3,a3,5
	sraiw	a5,a5,31
	subw	a5,a3,a5
	sext.w	a5,a5
	ld	a3,-64(s0)
	sd	a3,16(sp)
	sd	a5,8(sp)
	sd	a4,0(sp)
	mv	a5,a0
	mv	a4,a1
	li	a3,56
	li	a2,0
	li	a1,-1
	li	a0,-1
	call	ShellPrintHiiEx@plt
.L81:
	.loc 1 543 24
	lbu	a5,-74(s0)
	sext.w	a5,a5
	.loc 1 543 9
	li	a4,3
	beq	a5,a4,.L84
	li	a4,3
	bgt	a5,a4,.L85
	li	a4,2
	beq	a5,a4,.L86
	li	a4,2
	bgt	a5,a4,.L85
	beq	a5,zero,.L87
	li	a4,1
	beq	a5,a4,.L88
	j	.L85
.L87:
	.loc 1 545 13
	la	a5,gShellLevel2HiiHandle
	ld	a5,0(a5)
	mv	a4,a5
	li	a3,58
	li	a2,0
	li	a1,-1
	li	a0,-1
	call	ShellPrintHiiEx@plt
	.loc 1 546 13
	j	.L89
.L88:
	.loc 1 548 13
	la	a5,gShellLevel2HiiHandle
	ld	a5,0(a5)
	mv	a4,a5
	li	a3,59
	li	a2,0
	li	a1,-1
	li	a0,-1
	call	ShellPrintHiiEx@plt
	.loc 1 549 13
	j	.L89
.L86:
	.loc 1 551 13
	la	a5,gShellLevel2HiiHandle
	ld	a5,0(a5)
	mv	a4,a5
	li	a3,60
	li	a2,0
	li	a1,-1
	li	a0,-1
	call	ShellPrintHiiEx@plt
	.loc 1 552 13
	j	.L89
.L84:
	.loc 1 554 13
	la	a5,gShellLevel2HiiHandle
	ld	a5,0(a5)
	mv	a4,a5
	li	a3,61
	li	a2,0
	li	a1,-1
	li	a0,-1
	call	ShellPrintHiiEx@plt
	.loc 1 555 13
	j	.L89
.L85:
	.loc 1 557 13
	la	a5,gShellLevel2HiiHandle
	ld	a4,0(a5)
	.loc 1 557 137
	lbu	a5,-74(s0)
	.loc 1 557 13
	sext.w	a5,a5
	sd	a5,0(sp)
	lla	a7,.LC11
	lla	a6,.LC0
	lla	a5,.LC7
	li	a3,28
	li	a2,0
	li	a1,-1
	li	a0,-1
	call	ShellPrintHiiEx@plt
	.loc 1 543 9
	j	.L68
.L89:
	j	.L68
.L79:
	.loc 1 560 53
	la	a5,_gPcd_FixedAtBuild_PcdShellSupportLevel
	lbu	a5,0(a5)
	.loc 1 560 12
	mv	a4,a5
	li	a5,2
	bne	a4,a5,.L90
	.loc 1 561 11
	la	a5,gShellLevel2HiiHandle
	ld	a4,0(a5)
	lla	a5,.LC7
	li	a3,3
	li	a2,0
	li	a1,-1
	li	a0,-1
	call	ShellPrintHiiEx@plt
	.loc 1 562 23
	li	a5,2
	sw	a5,-44(s0)
	j	.L68
.L90:
	.loc 1 567 31
	ld	a5,-72(s0)
	lla	a1,.LC6
	mv	a0,a5
	call	ShellCommandLineGetValue@plt
	sd	a0,-56(s0)
	.loc 1 567 14 discriminator 1
	ld	a5,-56(s0)
	beq	a5,zero,.L91
	.loc 1 568 34
	la	a5,gUnicodeCollation
	ld	a5,0(a5)
	ld	a5,0(a5)
	.loc 1 568 17
	la	a4,gUnicodeCollation
	ld	a4,0(a4)
	lla	a2,.LC12
	ld	a1,-56(s0)
	mv	a0,a4
	jalr	a5
.LVL6:
	mv	a5,a0
	.loc 1 568 16 discriminator 1
	bne	a5,zero,.L92
	.loc 1 569 18
	li	a5,2047
	sh	a5,-46(s0)
	j	.L93
.L92:
	.loc 1 570 36
	ld	a5,-56(s0)
	lhu	a5,0(a5)
	.loc 1 570 23
	sext.w	a4,a5
	li	a5,45
	bne	a4,a5,.L94
	.loc 1 571 18
	ld	a5,-56(s0)
	addi	a5,a5,2
	sd	a5,-56(s0)
	.loc 1 571 27
	ld	a0,-56(s0)
	call	ShellStrToUintn@plt
	mv	a5,a0
	.loc 1 571 18 discriminator 1
	sh	a5,-46(s0)
	.loc 1 576 18
	lh	a5,-46(s0)
	sext.w	a4,a5
	li	a5,-1
	bne	a4,a5,.L95
	.loc 1 577 20
	li	a5,1441
	sh	a5,-46(s0)
	j	.L93
.L95:
	.loc 1 579 20
	lhu	a5,-46(s0)
	negw	a5,a5
	slli	a5,a5,48
	srli	a5,a5,48
	sh	a5,-46(s0)
	j	.L93
.L94:
	.loc 1 582 31
	ld	a5,-56(s0)
	lhu	a5,0(a5)
	.loc 1 582 18
	sext.w	a4,a5
	li	a5,43
	bne	a4,a5,.L96
	.loc 1 583 20
	ld	a5,-56(s0)
	addi	a5,a5,2
	sd	a5,-56(s0)
	.loc 1 583 29
	ld	a0,-56(s0)
	call	ShellStrToUintn@plt
	mv	a5,a0
	.loc 1 583 20 discriminator 1
	sh	a5,-46(s0)
	j	.L97
.L96:
	.loc 1 585 29
	ld	a0,-56(s0)
	call	ShellStrToUintn@plt
	mv	a5,a0
	.loc 1 585 20 discriminator 1
	sh	a5,-46(s0)
.L97:
	.loc 1 591 18
	lh	a5,-46(s0)
	sext.w	a4,a5
	li	a5,-1
	bne	a4,a5,.L93
	.loc 1 592 20
	li	a5,1441
	sh	a5,-46(s0)
.L93:
	.loc 1 596 16
	lh	a5,-46(s0)
	sext.w	a4,a5
	li	a5,-1440
	blt	a4,a5,.L98
	.loc 1 596 17 discriminator 2
	lh	a5,-46(s0)
	sext.w	a4,a5
	li	a5,1440
	ble	a4,a5,.L99
.L98:
	.loc 1 596 50 discriminator 3
	lh	a5,-46(s0)
	sext.w	a4,a5
	li	a5,2047
	beq	a4,a5,.L99
	.loc 1 597 15
	la	a5,gShellLevel2HiiHandle
	ld	a4,0(a5)
	lla	a7,.LC6
	ld	a6,-56(s0)
	lla	a5,.LC7
	li	a3,7
	li	a2,0
	li	a1,-1
	li	a0,-1
	call	ShellPrintHiiEx@plt
	.loc 1 598 27
	li	a5,2
	sw	a5,-44(s0)
	j	.L99
.L91:
	.loc 1 604 16
	li	a5,1441
	sh	a5,-46(s0)
.L99:
	.loc 1 607 26
	ld	a5,-72(s0)
	lla	a1,.LC5
	mv	a0,a5
	call	ShellCommandLineGetValue@plt
	sd	a0,-56(s0)
	.loc 1 608 14
	ld	a5,-56(s0)
	beq	a5,zero,.L100
	.loc 1 609 31
	ld	a0,-56(s0)
	call	ShellStrToUintn@plt
	mv	a5,a0
	.loc 1 609 22 discriminator 1
	sb	a5,-47(s0)
	.loc 1 615 29
	ld	a5,-56(s0)
	lhu	a5,0(a5)
	.loc 1 615 16
	sext.w	a4,a5
	li	a5,45
	bne	a4,a5,.L101
	.loc 1 616 24
	li	a5,-1
	sb	a5,-47(s0)
.L101:
	.loc 1 619 16
	lbu	a5,-47(s0)
	andi	a5,a5,0xff
	beq	a5,zero,.L102
	.loc 1 619 33 discriminator 1
	lbu	a5,-47(s0)
	andi	a4,a5,0xff
	li	a5,1
	beq	a4,a5,.L102
	.loc 1 619 52 discriminator 2
	lbu	a5,-47(s0)
	andi	a4,a5,0xff
	li	a5,3
	beq	a4,a5,.L102
	.loc 1 620 15
	la	a5,gShellLevel2HiiHandle
	ld	a4,0(a5)
	lla	a7,.LC5
	ld	a6,-56(s0)
	lla	a5,.LC7
	li	a3,7
	li	a2,0
	li	a1,-1
	li	a0,-1
	call	ShellPrintHiiEx@plt
	.loc 1 621 27
	li	a5,2
	sw	a5,-44(s0)
	j	.L102
.L100:
	.loc 1 627 22
	li	a5,-1
	sb	a5,-47(s0)
.L102:
	.loc 1 630 14
	lw	a5,-44(s0)
	sext.w	a5,a5
	bne	a5,zero,.L68
	.loc 1 631 27
	ld	a5,-72(s0)
	li	a1,1
	mv	a0,a5
	call	ShellCommandLineGetRawValue@plt
	mv	a3,a0
	.loc 1 631 27 is_stmt 0 discriminator 1
	lbu	a4,-47(s0)
	lh	a5,-46(s0)
	mv	a2,a4
	mv	a1,a5
	mv	a0,a3
	call	CheckAndSetTime
	mv	a5,a0
	sw	a5,-44(s0)
	.loc 1 632 16 is_stmt 1
	lw	a5,-44(s0)
	sext.w	a5,a5
	beq	a5,zero,.L68
	.loc 1 633 15
	la	a5,gShellLevel2HiiHandle
	ld	s1,0(a5)
	ld	a5,-72(s0)
	li	a1,1
	mv	a0,a5
	call	ShellCommandLineGetRawValue@plt
	mv	a5,a0
	.loc 1 633 15 is_stmt 0 discriminator 1
	mv	a6,a5
	lla	a5,.LC7
	mv	a4,s1
	li	a3,5
	li	a2,0
	li	a1,-1
	li	a0,-1
	call	ShellPrintHiiEx@plt
	.loc 1 634 27 is_stmt 1
	li	a5,2
	sw	a5,-44(s0)
.L68:
	.loc 1 645 3
	ld	a5,-72(s0)
	mv	a0,a5
	call	ShellCommandLineFreeVarList@plt
	.loc 1 650 10
	lw	a5,-44(s0)
.L103:
	.loc 1 651 1
	mv	a0,a5
	ld	ra,136(sp)
	.cfi_restore 1
	ld	s0,128(sp)
	.cfi_restore 8
	.cfi_def_cfa 2, 144
	ld	s1,120(sp)
	.cfi_restore 9
	addi	sp,sp,144
	.cfi_def_cfa_offset 0
	jr	ra
	.cfi_endproc
.LFE4:
	.size	ShellCommandRunTime, .-ShellCommandRunTime
	.section	.rodata
	.align	3
.LC13:
	.string	"-"
	.string	"l"
	.zero	2
	.align	3
.LC14:
	.string	"-"
	.string	"f"
	.zero	2
	.section	.data.rel.ro.local.TimeZoneParamList2,"aw"
	.align	3
	.type	TimeZoneParamList2, @object
	.size	TimeZoneParamList2, 48
TimeZoneParamList2:
	.dword	.LC13
	.word	0
	.zero	4
	.dword	.LC14
	.word	0
	.zero	4
	.dword	0
	.word	7
	.zero	4
	.section	.rodata
	.align	3
.LC15:
	.string	"-"
	.string	"s"
	.zero	2
	.section	.data.rel.ro.local.TimeZoneParamList3,"aw"
	.align	3
	.type	TimeZoneParamList3, @object
	.size	TimeZoneParamList3, 64
TimeZoneParamList3:
	.dword	.LC13
	.word	0
	.zero	4
	.dword	.LC14
	.word	0
	.zero	4
	.dword	.LC15
	.word	6
	.zero	4
	.dword	0
	.word	7
	.zero	4
	.section	.rodata.TimeZoneList,"a"
	.align	3
	.type	TimeZoneList, @object
	.size	TimeZoneList, 144
TimeZoneList:
	.half	720
	.half	62
	.half	660
	.half	63
	.half	600
	.half	64
	.half	540
	.half	65
	.half	480
	.half	66
	.half	420
	.half	67
	.half	360
	.half	68
	.half	300
	.half	69
	.half	270
	.half	70
	.half	240
	.half	71
	.half	210
	.half	72
	.half	180
	.half	73
	.half	120
	.half	74
	.half	60
	.half	75
	.half	0
	.half	76
	.half	-60
	.half	77
	.half	-120
	.half	78
	.half	-180
	.half	79
	.half	-210
	.half	80
	.half	-240
	.half	81
	.half	-270
	.half	82
	.half	-300
	.half	83
	.half	-330
	.half	84
	.half	-345
	.half	85
	.half	-360
	.half	86
	.half	-390
	.half	87
	.half	-420
	.half	88
	.half	-480
	.half	89
	.half	-540
	.half	90
	.half	-570
	.half	91
	.half	-600
	.half	92
	.half	-660
	.half	93
	.half	-720
	.half	94
	.half	-780
	.half	95
	.half	-840
	.half	96
	.half	2047
	.half	97
	.section	.rodata
	.align	3
.LC16:
	.string	"t"
	.string	"i"
	.string	"m"
	.string	"e"
	.string	"z"
	.string	"o"
	.string	"n"
	.string	"e"
	.zero	2
	.section	.text.CheckAndSetTimeZone,"ax",@progbits
	.align	1
	.globl	CheckAndSetTimeZone
	.type	CheckAndSetTimeZone, @function
CheckAndSetTimeZone:
.LFB5:
	.loc 1 723 1
	.cfi_startproc
	addi	sp,sp,-112
	.cfi_def_cfa_offset 112
	sd	ra,104(sp)
	sd	s0,96(sp)
	sd	s1,88(sp)
	.cfi_offset 1, -8
	.cfi_offset 8, -16
	.cfi_offset 9, -24
	addi	s0,sp,112
	.cfi_def_cfa 8, 0
	sd	a0,-104(s0)
	.loc 1 731 6
	ld	a5,-104(s0)
	bne	a5,zero,.L105
	.loc 1 732 12
	li	a5,2
	j	.L124
.L105:
	.loc 1 735 24
	la	a5,gUnicodeCollation
	ld	a5,0(a5)
	ld	a5,0(a5)
	.loc 1 735 7
	la	a4,gUnicodeCollation
	ld	a4,0(a4)
	lla	a2,.LC12
	ld	a1,-104(s0)
	mv	a0,a4
	jalr	a5
.LVL7:
	mv	a5,a0
	.loc 1 735 6 discriminator 1
	bne	a5,zero,.L107
	.loc 1 736 17
	la	a5,gRT
	ld	a5,0(a5)
	ld	a5,24(a5)
	.loc 1 736 14
	addi	a4,s0,-80
	li	a1,0
	mv	a0,a4
	jalr	a5
.LVL8:
	sd	a0,-40(s0)
	.loc 1 737 36
	ld	a5,-40(s0)
	.loc 1 737 8
	bge	a5,zero,.L108
	.loc 1 738 7
	la	a5,gShellLevel2HiiHandle
	ld	a4,0(a5)
	ld	a6,-40(s0)
	lla	a5,.LC0
	li	a3,29
	li	a2,0
	li	a1,-1
	li	a0,-1
	call	ShellPrintHiiEx@plt
	.loc 1 739 14
	li	a5,7
	j	.L124
.L108:
	.loc 1 742 22
	li	a5,2047
	sh	a5,-68(s0)
	.loc 1 743 17
	la	a5,gRT
	ld	a5,0(a5)
	ld	a5,32(a5)
	.loc 1 743 14
	addi	a4,s0,-80
	mv	a0,a4
	jalr	a5
.LVL9:
	sd	a0,-40(s0)
	.loc 1 744 9
	ld	a5,-40(s0)
	.loc 1 744 8
	blt	a5,zero,.L109
	.loc 1 745 14
	li	a5,0
	j	.L124
.L109:
	.loc 1 748 12
	li	a5,2
	j	.L124
.L107:
	.loc 1 751 6
	ld	a5,-104(s0)
	beq	a5,zero,.L110
	.loc 1 751 44 discriminator 1
	li	a4,1
	li	a3,1
	li	a2,1
	li	a1,58
	ld	a0,-104(s0)
	call	InternalIsTimeLikeString
	mv	a5,a0
	.loc 1 751 40 discriminator 2
	bne	a5,zero,.L110
	.loc 1 752 12
	li	a5,2
	j	.L124
.L110:
	.loc 1 755 15
	la	a5,gRT
	ld	a5,0(a5)
	ld	a5,24(a5)
	.loc 1 755 12
	addi	a4,s0,-80
	li	a1,0
	mv	a0,a4
	jalr	a5
.LVL10:
	sd	a0,-40(s0)
	.loc 1 756 34
	ld	a5,-40(s0)
	.loc 1 756 6
	bge	a5,zero,.L111
	.loc 1 757 5
	la	a5,gShellLevel2HiiHandle
	ld	a4,0(a5)
	ld	a7,-40(s0)
	lla	a6,.LC0
	lla	a5,.LC16
	li	a3,29
	li	a2,0
	li	a1,-1
	li	a0,-1
	call	ShellPrintHiiEx@plt
	.loc 1 758 12
	li	a5,7
	j	.L124
.L111:
	.loc 1 761 16
	sd	zero,-88(s0)
	.loc 1 762 18
	addi	a5,s0,-88
	li	a3,0
	ld	a2,-104(s0)
	li	a1,0
	mv	a0,a5
	call	StrnCatGrow@plt
	mv	a5,a0
	.loc 1 762 16 discriminator 1
	sd	a5,-88(s0)
	.loc 1 763 20
	ld	a5,-88(s0)
	.loc 1 763 6
	bne	a5,zero,.L112
	.loc 1 764 12
	li	a5,9
	j	.L124
.L112:
	.loc 1 767 10
	ld	a5,-88(s0)
	sd	a5,-48(s0)
	.loc 1 768 13
	lla	a1,.LC8
	ld	a0,-48(s0)
	call	StrStr@plt
	sd	a0,-64(s0)
	.loc 1 769 6
	ld	a5,-64(s0)
	beq	a5,zero,.L113
	.loc 1 769 37 discriminator 1
	ld	a5,-64(s0)
	lhu	a5,0(a5)
	.loc 1 769 33 discriminator 1
	sext.w	a4,a5
	li	a5,58
	bne	a4,a5,.L113
	.loc 1 770 14
	ld	a5,-64(s0)
	sh	zero,0(a5)
.L113:
	.loc 1 773 7
	ld	a5,-48(s0)
	lhu	a5,0(a5)
	.loc 1 773 6
	sext.w	a4,a5
	li	a5,45
	bne	a4,a5,.L114
	.loc 1 774 22
	ld	a5,-48(s0)
	addi	a5,a5,2
	sd	a5,-48(s0)
	.loc 1 774 33
	ld	a0,-48(s0)
	call	ShellStrToUintn@plt
	mv	a5,a0
	.loc 1 774 24 discriminator 1
	slli	a5,a5,48
	srli	a5,a5,48
	mv	a4,a5
	mv	a5,a4
	slliw	a5,a5,4
	subw	a5,a5,a4
	slliw	a5,a5,2
	slli	a5,a5,48
	srli	a5,a5,48
	slliw	a5,a5,16
	sraiw	a5,a5,16
	.loc 1 774 22 discriminator 1
	sh	a5,-68(s0)
	j	.L115
.L114:
	.loc 1 776 40
	ld	a0,-48(s0)
	call	ShellStrToUintn@plt
	mv	a5,a0
	.loc 1 776 32 discriminator 1
	slli	a5,a5,48
	srli	a5,a5,48
	.loc 1 776 66 discriminator 1
	mv	a4,a5
	slliw	a5,a5,4
	subw	a5,a4,a5
	slliw	a5,a5,2
	slli	a5,a5,48
	srli	a5,a5,48
	.loc 1 776 24 discriminator 1
	slliw	a5,a5,16
	sraiw	a5,a5,16
	.loc 1 776 22 discriminator 1
	sh	a5,-68(s0)
.L115:
	.loc 1 779 6
	ld	a5,-64(s0)
	beq	a5,zero,.L116
	.loc 1 780 12
	ld	a5,-64(s0)
	addi	a5,a5,2
	sd	a5,-48(s0)
.L116:
	.loc 1 783 6
	ld	a5,-48(s0)
	beq	a5,zero,.L117
	.loc 1 783 42 discriminator 1
	ld	a5,-48(s0)
	lhu	a5,0(a5)
	.loc 1 783 32 discriminator 1
	beq	a5,zero,.L117
	.loc 1 784 16
	lh	a5,-68(s0)
	.loc 1 784 8
	bge	a5,zero,.L118
	.loc 1 785 41
	lh	a5,-68(s0)
	slli	s1,a5,48
	srli	s1,s1,48
	.loc 1 785 60
	ld	a0,-48(s0)
	call	ShellStrToUintn@plt
	mv	a5,a0
	.loc 1 785 53 discriminator 1
	andi	a5,a5,0xff
	.loc 1 785 51 discriminator 1
	subw	a5,s1,a5
	slli	a5,a5,48
	srli	a5,a5,48
	.loc 1 785 26 discriminator 1
	slliw	a5,a5,16
	sraiw	a5,a5,16
	.loc 1 785 24 discriminator 1
	sh	a5,-68(s0)
	j	.L117
.L118:
	.loc 1 787 41
	lh	a5,-68(s0)
	slli	s1,a5,48
	srli	s1,s1,48
	.loc 1 787 60
	ld	a0,-48(s0)
	call	ShellStrToUintn@plt
	mv	a5,a0
	.loc 1 787 53 discriminator 1
	andi	a5,a5,0xff
	.loc 1 787 51 discriminator 1
	addw	a5,s1,a5
	slli	a5,a5,48
	srli	a5,a5,48
	.loc 1 787 26 discriminator 1
	slliw	a5,a5,16
	sraiw	a5,a5,16
	.loc 1 787 24 discriminator 1
	sh	a5,-68(s0)
.L117:
	.loc 1 791 10
	li	a5,-1
	slli	a5,a5,63
	addi	a5,a5,2
	sd	a5,-40(s0)
	.loc 1 793 17
	sd	zero,-56(s0)
	.loc 1 793 3
	j	.L119
.L122:
	.loc 1 798 16
	lh	a4,-68(s0)
	.loc 1 798 50
	lla	a3,TimeZoneList
	ld	a5,-56(s0)
	slli	a5,a5,2
	add	a5,a3,a5
	lh	a5,0(a5)
	.loc 1 798 8
	bne	a4,a5,.L120
	.loc 1 799 19
	la	a5,gRT
	ld	a5,0(a5)
	ld	a5,32(a5)
	.loc 1 799 16
	addi	a4,s0,-80
	mv	a0,a4
	jalr	a5
.LVL11:
	sd	a0,-40(s0)
	.loc 1 800 7
	j	.L121
.L120:
	.loc 1 795 18
	ld	a5,-56(s0)
	addi	a5,a5,1
	sd	a5,-56(s0)
.L119:
	.loc 1 794 19
	ld	a4,-56(s0)
	li	a5,35
	bleu	a4,a5,.L122
.L121:
	.loc 1 804 3
	ld	a5,-88(s0)
	mv	a0,a5
	call	FreePool@plt
	.loc 1 806 7
	ld	a5,-40(s0)
	.loc 1 806 6
	blt	a5,zero,.L123
	.loc 1 807 12
	li	a5,0
	j	.L124
.L123:
	.loc 1 810 10
	li	a5,2
.L124:
	.loc 1 811 1
	mv	a0,a5
	ld	ra,104(sp)
	.cfi_restore 1
	ld	s0,96(sp)
	.cfi_restore 8
	.cfi_def_cfa 2, 112
	ld	s1,88(sp)
	.cfi_restore 9
	addi	sp,sp,112
	.cfi_def_cfa_offset 0
	jr	ra
	.cfi_endproc
.LFE5:
	.size	CheckAndSetTimeZone, .-CheckAndSetTimeZone
	.section	.rodata
	.align	3
.LC17:
	.string	"-"
	.string	"l"
	.string	" "
	.string	"o"
	.string	"r"
	.string	" "
	.string	"-"
	.string	"f"
	.zero	2
	.section	.text.ShellCommandRunTimeZone,"ax",@progbits
	.align	1
	.globl	ShellCommandRunTimeZone
	.type	ShellCommandRunTimeZone, @function
ShellCommandRunTimeZone:
.LFB6:
	.loc 1 825 1
	.cfi_startproc
	addi	sp,sp,-112
	.cfi_def_cfa_offset 112
	sd	ra,104(sp)
	sd	s0,96(sp)
	sd	s1,88(sp)
	.cfi_offset 1, -8
	.cfi_offset 8, -16
	.cfi_offset 9, -24
	addi	s0,sp,112
	.cfi_def_cfa 8, 0
	sd	a0,-104(s0)
	sd	a1,-112(s0)
	.loc 1 838 15
	sw	zero,-44(s0)
	.loc 1 839 16
	sd	zero,-72(s0)
	.loc 1 844 12
	call	ShellInitialize@plt
	sd	a0,-40(s0)
	.loc 1 850 47
	la	a5,_gPcd_FixedAtBuild_PcdShellSupportLevel
	lbu	a5,0(a5)
	.loc 1 850 6
	mv	a4,a5
	li	a5,2
	bne	a4,a5,.L126
	.loc 1 851 14
	addi	a2,s0,-72
	addi	a5,s0,-64
	li	a4,0
	li	a3,1
	mv	a1,a5
	lla	a0,TimeZoneParamList2
	call	ShellCommandLineParseEx@plt
	sd	a0,-40(s0)
	j	.L127
.L126:
	.loc 1 854 14
	addi	a2,s0,-72
	addi	a5,s0,-64
	li	a4,1
	li	a3,1
	mv	a1,a5
	lla	a0,TimeZoneParamList3
	call	ShellCommandLineParseEx@plt
	sd	a0,-40(s0)
.L127:
	.loc 1 857 34
	ld	a5,-40(s0)
	.loc 1 857 6
	bge	a5,zero,.L128
	.loc 1 858 8
	ld	a4,-40(s0)
	li	a5,-1
	slli	a5,a5,63
	addi	a5,a5,10
	bne	a4,a5,.L129
	.loc 1 858 86 discriminator 1
	ld	a5,-72(s0)
	.loc 1 858 69 discriminator 1
	beq	a5,zero,.L129
	.loc 1 859 7
	la	a5,gShellLevel2HiiHandle
	ld	a4,0(a5)
	ld	a5,-72(s0)
	mv	a6,a5
	lla	a5,.LC16
	li	a3,6
	li	a2,0
	li	a1,-1
	li	a0,-1
	call	ShellPrintHiiEx@plt
	.loc 1 860 7
	ld	a5,-72(s0)
	mv	a0,a5
	call	FreePool@plt
	.loc 1 861 19
	li	a5,2
	sw	a5,-44(s0)
	j	.L129
.L128:
	.loc 1 869 9
	ld	a5,-64(s0)
	mv	a0,a5
	call	ShellCommandLineGetCount@plt
	mv	a4,a0
	.loc 1 869 8 discriminator 1
	li	a5,1
	bleu	a4,a5,.L130
	.loc 1 870 7
	la	a5,gShellLevel2HiiHandle
	ld	a4,0(a5)
	lla	a5,.LC16
	li	a3,3
	li	a2,0
	li	a1,-1
	li	a0,-1
	call	ShellPrintHiiEx@plt
	.loc 1 871 19
	li	a5,2
	sw	a5,-44(s0)
	j	.L129
.L130:
	.loc 1 872 16
	ld	a5,-64(s0)
	lla	a1,.LC3
	mv	a0,a5
	call	ShellCommandLineGetFlag@plt
	mv	a5,a0
	.loc 1 872 15 discriminator 1
	bne	a5,zero,.L129
	.loc 1 874 16
	ld	a5,-64(s0)
	lla	a1,.LC15
	mv	a0,a5
	call	ShellCommandLineGetFlag@plt
	mv	a5,a0
	.loc 1 874 15 discriminator 1
	beq	a5,zero,.L131
	.loc 1 875 12
	ld	a5,-64(s0)
	lla	a1,.LC13
	mv	a0,a5
	call	ShellCommandLineGetFlag@plt
	mv	a5,a0
	.loc 1 875 10 discriminator 1
	bne	a5,zero,.L132
	.loc 1 875 58 discriminator 2
	ld	a5,-64(s0)
	lla	a1,.LC14
	mv	a0,a5
	call	ShellCommandLineGetFlag@plt
	mv	a5,a0
	.loc 1 875 54 discriminator 3
	beq	a5,zero,.L133
.L132:
	.loc 1 876 9
	la	a5,gShellLevel2HiiHandle
	ld	a4,0(a5)
	lla	a6,.LC17
	lla	a5,.LC16
	li	a3,5
	li	a2,0
	li	a1,-1
	li	a0,-1
	call	ShellPrintHiiEx@plt
	.loc 1 877 21
	li	a5,2
	sw	a5,-44(s0)
	j	.L129
.L133:
	.loc 1 880 13
	ld	a5,-64(s0)
	lla	a1,.LC15
	mv	a0,a5
	call	ShellCommandLineGetValue@plt
	mv	a5,a0
	.loc 1 880 12 discriminator 1
	bne	a5,zero,.L135
	.loc 1 881 11
	la	a5,gShellLevel2HiiHandle
	ld	a4,0(a5)
	lla	a6,.LC15
	lla	a5,.LC16
	li	a3,9
	li	a2,0
	li	a1,-1
	li	a0,-1
	call	ShellPrintHiiEx@plt
	.loc 1 882 23
	li	a5,2
	sw	a5,-44(s0)
	j	.L129
.L135:
	.loc 1 887 25
	ld	a5,-64(s0)
	lla	a1,.LC15
	mv	a0,a5
	call	ShellCommandLineGetValue@plt
	mv	a5,a0
	.loc 1 887 25 is_stmt 0 discriminator 1
	mv	a0,a5
	call	CheckAndSetTimeZone
	mv	a5,a0
	sw	a5,-44(s0)
	.loc 1 888 14 is_stmt 1
	lw	a5,-44(s0)
	sext.w	a5,a5
	beq	a5,zero,.L129
	.loc 1 889 13
	la	a5,gShellLevel2HiiHandle
	ld	s1,0(a5)
	ld	a5,-64(s0)
	lla	a1,.LC15
	mv	a0,a5
	call	ShellCommandLineGetValue@plt
	mv	a5,a0
	.loc 1 889 13 is_stmt 0 discriminator 1
	mv	a6,a5
	lla	a5,.LC16
	mv	a4,s1
	li	a3,5
	li	a2,0
	li	a1,-1
	li	a0,-1
	call	ShellPrintHiiEx@plt
	.loc 1 890 25 is_stmt 1
	li	a5,2
	sw	a5,-44(s0)
	j	.L129
.L131:
	.loc 1 894 16
	ld	a5,-64(s0)
	lla	a1,.LC13
	mv	a0,a5
	call	ShellCommandLineGetFlag@plt
	mv	a5,a0
	.loc 1 894 15 discriminator 1
	beq	a5,zero,.L136
	.loc 1 898 21
	sb	zero,-45(s0)
	.loc 1 898 7
	j	.L137
.L138:
	.loc 1 903 9
	lbu	a5,-45(s0)
	sext.w	a5,a5
	lla	a4,TimeZoneList
	slli	a5,a5,2
	add	a5,a4,a5
	lhu	a3,2(a5)
	la	a5,gShellLevel2HiiHandle
	ld	a5,0(a5)
	mv	a4,a5
	li	a2,0
	li	a1,-1
	li	a0,-1
	call	ShellPrintHiiEx@plt
	.loc 1 900 22
	lbu	a5,-45(s0)
	addiw	a5,a5,1
	sb	a5,-45(s0)
.L137:
	.loc 1 899 23
	lbu	a5,-45(s0)
	andi	a4,a5,0xff
	li	a5,35
	bleu	a4,a5,.L138
	j	.L129
.L136:
	.loc 1 909 19
	la	a5,gRT
	ld	a5,0(a5)
	ld	a5,24(a5)
	.loc 1 909 16
	addi	a4,s0,-88
	li	a1,0
	mv	a0,a4
	jalr	a5
.LVL12:
	sd	a0,-40(s0)
	.loc 1 910 38
	ld	a5,-40(s0)
	.loc 1 910 10
	bge	a5,zero,.L139
	.loc 1 911 9
	la	a5,gShellLevel2HiiHandle
	ld	a4,0(a5)
	ld	a7,-40(s0)
	lla	a6,.LC0
	lla	a5,.LC16
	li	a3,29
	li	a2,0
	li	a1,-1
	li	a0,-1
	call	ShellPrintHiiEx@plt
	.loc 1 912 16
	li	a5,7
	j	.L157
.L139:
	.loc 1 915 18
	lh	a4,-76(s0)
	.loc 1 915 10
	li	a5,2047
	beq	a4,a5,.L141
	.loc 1 916 15
	sb	zero,-46(s0)
	.loc 1 917 23
	sb	zero,-45(s0)
	.loc 1 917 9
	j	.L142
.L149:
	.loc 1 922 22
	lh	a4,-76(s0)
	.loc 1 922 32
	lbu	a5,-45(s0)
	sext.w	a5,a5
	.loc 1 922 56
	lla	a3,TimeZoneList
	slli	a5,a5,2
	add	a5,a3,a5
	lh	a5,0(a5)
	.loc 1 922 14
	bne	a4,a5,.L143
	.loc 1 923 17
	ld	a5,-64(s0)
	lla	a1,.LC14
	mv	a0,a5
	call	ShellCommandLineGetFlag@plt
	mv	a5,a0
	.loc 1 923 16 discriminator 1
	beq	a5,zero,.L144
	.loc 1 927 15
	lbu	a5,-45(s0)
	sext.w	a5,a5
	lla	a4,TimeZoneList
	slli	a5,a5,2
	add	a5,a4,a5
	lhu	a3,2(a5)
	la	a5,gShellLevel2HiiHandle
	ld	a5,0(a5)
	mv	a4,a5
	li	a2,0
	li	a1,-1
	li	a0,-1
	call	ShellPrintHiiEx@plt
	j	.L145
.L144:
	.loc 1 932 88
	lh	a5,-76(s0)
	.loc 1 932 78
	sraiw	a4,a5,15
	mv	a3,a4
	mv	a4,a3
	xor	a5,a5,a4
	mv	a4,a5
	mv	a5,a3
	subw	a5,a4,a5
	slli	a5,a5,48
	srli	a5,a5,48
	sext.w	a5,a5
	.loc 1 932 101
	sext.w	a3,a5
	li	a4,-2004316160
	addi	a4,a4,-1911
	mul	a4,a3,a4
	srli	a4,a4,32
	addw	a4,a5,a4
	sraiw	a4,a4,5
	mv	a3,a4
	sraiw	a4,a5,31
	subw	a4,a3,a4
	mv	a3,a4
	mv	a4,a3
	slliw	a4,a4,4
	subw	a4,a4,a3
	slliw	a4,a4,2
	subw	a5,a5,a4
	sext.w	a5,a5
	.loc 1 932 25
	sd	a5,-56(s0)
	.loc 1 934 15
	la	a5,gShellLevel2HiiHandle
	ld	a1,0(a5)
	.loc 1 940 25
	lh	a5,-76(s0)
	.loc 1 934 15
	ble	a5,zero,.L146
	.loc 1 934 15 is_stmt 0 discriminator 1
	lla	a4,.LC9
	j	.L147
.L146:
	.loc 1 934 15 discriminator 2
	lla	a4,.LC10
.L147:
	.loc 1 941 78 is_stmt 1
	lh	a5,-76(s0)
	.loc 1 941 68
	sraiw	a3,a5,15
	mv	a2,a3
	mv	a3,a2
	xor	a5,a5,a3
	mv	a3,a5
	mv	a5,a2
	subw	a5,a3,a5
	slli	a5,a5,48
	srli	a5,a5,48
	sext.w	a5,a5
	.loc 1 934 15 discriminator 4
	sext.w	a2,a5
	li	a3,-2004316160
	addi	a3,a3,-1911
	mul	a3,a2,a3
	srli	a3,a3,32
	addw	a3,a5,a3
	sraiw	a3,a3,5
	sraiw	a5,a5,31
	subw	a5,a3,a5
	sext.w	a5,a5
	ld	a7,-56(s0)
	mv	a6,a5
	mv	a5,a4
	mv	a4,a1
	li	a3,98
	li	a2,0
	li	a1,-1
	li	a0,-1
	call	ShellPrintHiiEx@plt
.L145:
	.loc 1 946 19
	li	a5,1
	sb	a5,-46(s0)
	.loc 1 947 13
	j	.L148
.L143:
	.loc 1 919 24
	lbu	a5,-45(s0)
	addiw	a5,a5,1
	sb	a5,-45(s0)
.L142:
	.loc 1 918 25
	lbu	a5,-45(s0)
	andi	a4,a5,0xff
	li	a5,35
	bleu	a4,a5,.L149
.L148:
	.loc 1 951 12
	lbu	a5,-46(s0)
	andi	a5,a5,0xff
	bne	a5,zero,.L129
	.loc 1 955 84
	lh	a5,-76(s0)
	.loc 1 955 74
	sraiw	a4,a5,15
	mv	a3,a4
	mv	a4,a3
	xor	a5,a5,a4
	mv	a4,a5
	mv	a5,a3
	subw	a5,a4,a5
	slli	a5,a5,48
	srli	a5,a5,48
	sext.w	a5,a5
	.loc 1 955 97
	sext.w	a3,a5
	li	a4,-2004316160
	addi	a4,a4,-1911
	mul	a4,a3,a4
	srli	a4,a4,32
	addw	a4,a5,a4
	sraiw	a4,a4,5
	mv	a3,a4
	sraiw	a4,a5,31
	subw	a4,a3,a4
	mv	a3,a4
	mv	a4,a3
	slliw	a4,a4,4
	subw	a4,a4,a3
	slliw	a4,a4,2
	subw	a5,a5,a4
	sext.w	a5,a5
	.loc 1 955 21
	sd	a5,-56(s0)
	.loc 1 957 11
	la	a5,gShellLevel2HiiHandle
	ld	a1,0(a5)
	.loc 1 963 21
	lh	a5,-76(s0)
	.loc 1 957 11
	ble	a5,zero,.L150
	.loc 1 957 11 is_stmt 0 discriminator 1
	lla	a4,.LC9
	j	.L151
.L150:
	.loc 1 957 11 discriminator 2
	lla	a4,.LC10
.L151:
	.loc 1 964 74 is_stmt 1
	lh	a5,-76(s0)
	.loc 1 964 64
	sraiw	a3,a5,15
	mv	a2,a3
	mv	a3,a2
	xor	a5,a5,a3
	mv	a3,a5
	mv	a5,a2
	subw	a5,a3,a5
	slli	a5,a5,48
	srli	a5,a5,48
	sext.w	a5,a5
	.loc 1 957 11
	sext.w	a2,a5
	li	a3,-2004316160
	addi	a3,a3,-1911
	mul	a3,a2,a3
	srli	a3,a3,32
	addw	a3,a5,a3
	sraiw	a3,a3,5
	sraiw	a5,a5,31
	subw	a5,a3,a5
	sext.w	a5,a5
	ld	a7,-56(s0)
	mv	a6,a5
	mv	a5,a4
	mv	a4,a1
	li	a3,98
	li	a2,0
	li	a1,-1
	li	a0,-1
	call	ShellPrintHiiEx@plt
	.loc 1 968 15
	ld	a5,-64(s0)
	lla	a1,.LC14
	mv	a0,a5
	call	ShellCommandLineGetFlag@plt
	mv	a5,a0
	.loc 1 968 14 discriminator 1
	beq	a5,zero,.L129
	.loc 1 969 13
	la	a5,gShellLevel2HiiHandle
	ld	a5,0(a5)
	mv	a4,a5
	li	a3,100
	li	a2,0
	li	a1,-1
	li	a0,-1
	call	ShellPrintHiiEx@plt
	j	.L129
.L141:
	.loc 1 976 13
	ld	a5,-64(s0)
	lla	a1,.LC14
	mv	a0,a5
	call	ShellCommandLineGetFlag@plt
	mv	a5,a0
	.loc 1 976 12 discriminator 1
	beq	a5,zero,.L152
	.loc 1 977 25
	sb	zero,-45(s0)
	.loc 1 977 11
	j	.L153
.L156:
	.loc 1 982 24
	lh	a4,-76(s0)
	.loc 1 982 34
	lbu	a5,-45(s0)
	sext.w	a5,a5
	.loc 1 982 58
	lla	a3,TimeZoneList
	slli	a5,a5,2
	add	a5,a3,a5
	lh	a5,0(a5)
	.loc 1 982 16
	bne	a4,a5,.L154
	.loc 1 986 15
	lbu	a5,-45(s0)
	sext.w	a5,a5
	lla	a4,TimeZoneList
	slli	a5,a5,2
	add	a5,a4,a5
	lhu	a3,2(a5)
	la	a5,gShellLevel2HiiHandle
	ld	a5,0(a5)
	mv	a4,a5
	li	a2,0
	li	a1,-1
	li	a0,-1
	call	ShellPrintHiiEx@plt
	.loc 1 987 15
	j	.L129
.L154:
	.loc 1 979 26
	lbu	a5,-45(s0)
	addiw	a5,a5,1
	sb	a5,-45(s0)
.L153:
	.loc 1 978 27
	lbu	a5,-45(s0)
	andi	a4,a5,0xff
	li	a5,35
	bleu	a4,a5,.L156
	j	.L129
.L152:
	.loc 1 994 11
	la	a5,gShellLevel2HiiHandle
	ld	a5,0(a5)
	mv	a4,a5
	li	a3,99
	li	a2,0
	li	a1,-1
	li	a0,-1
	call	ShellPrintHiiEx@plt
.L129:
	.loc 1 1003 3
	ld	a5,-64(s0)
	mv	a0,a5
	call	ShellCommandLineFreeVarList@plt
	.loc 1 1005 10
	lw	a5,-44(s0)
.L157:
	.loc 1 1006 1
	mv	a0,a5
	ld	ra,104(sp)
	.cfi_restore 1
	ld	s0,96(sp)
	.cfi_restore 8
	.cfi_def_cfa 2, 112
	ld	s1,88(sp)
	.cfi_restore 9
	addi	sp,sp,112
	.cfi_def_cfa_offset 0
	jr	ra
	.cfi_endproc
.LFE6:
	.size	ShellCommandRunTimeZone, .-ShellCommandRunTimeZone
	.text
.Letext0:
	.file 2 "/home/kapoagaeming/Downloads/spacemit-image-builder/components/edk2/MdePkg/Include/RiscV64/ProcessorBind.h"
	.file 3 "/home/kapoagaeming/Downloads/spacemit-image-builder/components/edk2/MdePkg/Include/Base.h"
	.file 4 "/home/kapoagaeming/Downloads/spacemit-image-builder/components/edk2/MdePkg/Include/Uefi/UefiBaseType.h"
	.file 5 "/home/kapoagaeming/Downloads/spacemit-image-builder/components/edk2/MdePkg/Include/Uefi/UefiMultiPhase.h"
	.file 6 "/home/kapoagaeming/Downloads/spacemit-image-builder/components/edk2/MdePkg/Include/Protocol/DevicePath.h"
	.file 7 "/home/kapoagaeming/Downloads/spacemit-image-builder/components/edk2/MdePkg/Include/Protocol/SimpleTextIn.h"
	.file 8 "/home/kapoagaeming/Downloads/spacemit-image-builder/components/edk2/MdePkg/Include/Protocol/SimpleTextOut.h"
	.file 9 "/home/kapoagaeming/Downloads/spacemit-image-builder/components/edk2/MdePkg/Include/Uefi/UefiSpec.h"
	.file 10 "/home/kapoagaeming/Downloads/spacemit-image-builder/components/edk2/MdePkg/Include/Uefi/UefiInternalFormRepresentation.h"
	.file 11 "/home/kapoagaeming/Downloads/spacemit-image-builder/components/edk2/MdePkg/Include/Protocol/Shell.h"
	.file 12 "/home/kapoagaeming/Downloads/spacemit-image-builder/components/edk2/MdePkg/Include/Protocol/UnicodeCollation.h"
	.file 13 "/home/kapoagaeming/Downloads/spacemit-image-builder/components/Build/Milk-V-Jupiter/RELEASE_GCC5/RISCV64/ShellPkg/Library/UefiShellLevel2CommandsLib/UefiShellLevel2CommandsLib/DEBUG/AutoGen.h"
	.file 14 "/home/kapoagaeming/Downloads/spacemit-image-builder/components/edk2/ShellPkg/Include/Library/ShellCommandLib.h"
	.file 15 "/home/kapoagaeming/Downloads/spacemit-image-builder/components/edk2/ShellPkg/Include/Library/ShellLib.h"
	.file 16 "/home/kapoagaeming/Downloads/spacemit-image-builder/components/edk2/ShellPkg/Library/UefiShellLevel2CommandsLib/UefiShellLevel2CommandsLib.h"
	.file 17 "/home/kapoagaeming/Downloads/spacemit-image-builder/components/edk2/MdePkg/Include/Library/MemoryAllocationLib.h"
	.file 18 "/home/kapoagaeming/Downloads/spacemit-image-builder/components/edk2/MdePkg/Include/Library/BaseLib.h"
	.file 19 "/home/kapoagaeming/Downloads/spacemit-image-builder/components/edk2/MdePkg/Include/Library/UefiRuntimeServicesTableLib.h"
	.section	.note.GNU-stack,"",@progbits
