	.file	"UefiShellLevel2CommandsLib.c"
	.option pic
	.option norelax
	.attribute arch, "rv64i2p1_m2p0_a2p1_f2p2_d2p2_c2p0_zicsr2p0_zifencei2p0_zmmul1p0_zaamo1p0_zalrsc1p0_zca1p0_zcd1p0"
	.attribute unaligned_access, 0
	.attribute stack_align, 16
	.text
.Ltext0:
	.cfi_sections	.debug_frame
	.file 0 "/home/kapoagaeming/Downloads/spacemit-image-builder/components/Build/Milk-V-Jupiter/RELEASE_GCC5/RISCV64/ShellPkg/Library/UefiShellLevel2CommandsLib/UefiShellLevel2CommandsLib" "/home/kapoagaeming/Downloads/spacemit-image-builder/components/edk2/ShellPkg/Library/UefiShellLevel2CommandsLib/UefiShellLevel2CommandsLib.c"
	.globl	mFileName
	.section	.rodata.mFileName,"a"
	.align	3
	.type	mFileName, @object
	.size	mFileName, 28
mFileName:
	.string	"S"
	.string	"h"
	.string	"e"
	.string	"l"
	.string	"l"
	.string	"C"
	.string	"o"
	.string	"m"
	.string	"m"
	.string	"a"
	.string	"n"
	.string	"d"
	.string	"s"
	.zero	2
	.globl	gShellLevel2HiiHandle
	.section	.bss.gShellLevel2HiiHandle,"aw",@nobits
	.align	3
	.type	gShellLevel2HiiHandle, @object
	.size	gShellLevel2HiiHandle, 8
gShellLevel2HiiHandle:
	.zero	8
	.section	.text.ShellCommandGetManFileNameLevel2,"ax",@progbits
	.align	1
	.globl	ShellCommandGetManFileNameLevel2
	.type	ShellCommandGetManFileNameLevel2, @function
ShellCommandGetManFileNameLevel2:
.LFB0:
	.file 1 "/home/kapoagaeming/Downloads/spacemit-image-builder/components/edk2/ShellPkg/Library/UefiShellLevel2CommandsLib/UefiShellLevel2CommandsLib.c"
	.loc 1 44 1
	.cfi_startproc
	addi	sp,sp,-16
	.cfi_def_cfa_offset 16
	sd	ra,8(sp)
	sd	s0,0(sp)
	.cfi_offset 1, -8
	.cfi_offset 8, -16
	addi	s0,sp,16
	.cfi_def_cfa 8, 0
	.loc 1 45 10
	lla	a5,mFileName
	.loc 1 46 1
	mv	a0,a5
	ld	ra,8(sp)
	.cfi_restore 1
	ld	s0,0(sp)
	.cfi_restore 8
	.cfi_def_cfa 2, 16
	addi	sp,sp,16
	.cfi_def_cfa_offset 0
	jr	ra
	.cfi_endproc
.LFE0:
	.size	ShellCommandGetManFileNameLevel2, .-ShellCommandGetManFileNameLevel2
	.section	.rodata
	.align	3
.LC0:
	.zero	2
	.align	3
.LC1:
	.string	"a"
	.string	"t"
	.string	"t"
	.string	"r"
	.string	"i"
	.string	"b"
	.zero	2
	.align	3
.LC2:
	.string	"c"
	.string	"d"
	.zero	2
	.align	3
.LC3:
	.string	"c"
	.string	"p"
	.zero	2
	.align	3
.LC4:
	.string	"l"
	.string	"o"
	.string	"a"
	.string	"d"
	.zero	2
	.align	3
.LC5:
	.string	"m"
	.string	"a"
	.string	"p"
	.zero	2
	.align	3
.LC6:
	.string	"m"
	.string	"k"
	.string	"d"
	.string	"i"
	.string	"r"
	.zero	2
	.align	3
.LC7:
	.string	"m"
	.string	"v"
	.zero	2
	.align	3
.LC8:
	.string	"p"
	.string	"a"
	.string	"r"
	.string	"s"
	.string	"e"
	.zero	2
	.align	3
.LC9:
	.string	"r"
	.string	"e"
	.string	"s"
	.string	"e"
	.string	"t"
	.zero	2
	.align	3
.LC10:
	.string	"s"
	.string	"e"
	.string	"t"
	.zero	2
	.align	3
.LC11:
	.string	"l"
	.string	"s"
	.zero	2
	.align	3
.LC12:
	.string	"r"
	.string	"m"
	.zero	2
	.align	3
.LC13:
	.string	"v"
	.string	"o"
	.string	"l"
	.zero	2
	.align	3
.LC14:
	.string	"d"
	.string	"e"
	.string	"l"
	.zero	2
	.align	3
.LC15:
	.string	"d"
	.string	"i"
	.string	"r"
	.zero	2
	.align	3
.LC16:
	.string	"c"
	.string	"o"
	.string	"p"
	.string	"y"
	.zero	2
	.align	3
.LC17:
	.string	"m"
	.string	"d"
	.zero	2
	.align	3
.LC18:
	.string	"c"
	.string	"d"
	.string	"."
	.string	"."
	.zero	2
	.align	3
.LC19:
	.string	"c"
	.string	"d"
	.string	" "
	.string	"."
	.string	"."
	.zero	2
	.align	3
.LC20:
	.string	"c"
	.string	"d"
	.string	"\\"
	.zero	2
	.align	3
.LC21:
	.string	"c"
	.string	"d"
	.string	" "
	.string	"\\"
	.zero	2
	.align	3
.LC22:
	.string	"r"
	.string	"e"
	.string	"n"
	.zero	2
	.align	3
.LC23:
	.string	"m"
	.string	"o"
	.string	"v"
	.string	"e"
	.zero	2
	.align	3
.LC24:
	.string	"m"
	.string	"o"
	.string	"u"
	.string	"n"
	.string	"t"
	.zero	2
	.align	3
.LC25:
	.string	"d"
	.string	"a"
	.string	"t"
	.string	"e"
	.zero	2
	.align	3
.LC26:
	.string	"t"
	.string	"i"
	.string	"m"
	.string	"e"
	.zero	2
	.align	3
.LC27:
	.string	"t"
	.string	"i"
	.string	"m"
	.string	"e"
	.string	"z"
	.string	"o"
	.string	"n"
	.string	"e"
	.zero	2
	.align	3
.LC28:
	.string	"l"
	.string	"2"
	.string	"d"
	.string	"a"
	.string	"t"
	.string	"e"
	.zero	2
	.align	3
.LC29:
	.string	"l"
	.string	"2"
	.string	"t"
	.string	"i"
	.string	"m"
	.string	"e"
	.zero	2
	.align	3
.LC30:
	.string	"l"
	.string	"2"
	.string	"t"
	.string	"i"
	.string	"m"
	.string	"e"
	.string	"z"
	.string	"o"
	.string	"n"
	.string	"e"
	.zero	2
	.section	.text.ShellLevel2CommandsLibConstructor,"ax",@progbits
	.align	1
	.globl	ShellLevel2CommandsLibConstructor
	.type	ShellLevel2CommandsLibConstructor, @function
ShellLevel2CommandsLibConstructor:
.LFB1:
	.loc 1 65 1
	.cfi_startproc
	addi	sp,sp,-32
	.cfi_def_cfa_offset 32
	sd	ra,24(sp)
	sd	s0,16(sp)
	.cfi_offset 1, -8
	.cfi_offset 8, -16
	addi	s0,sp,32
	.cfi_def_cfa 8, 0
	sd	a0,-24(s0)
	sd	a1,-32(s0)
	.loc 1 69 47
	la	a5,_gPcd_FixedAtBuild_PcdShellSupportLevel
	lbu	a5,0(a5)
	.loc 1 69 6
	mv	a4,a5
	li	a5,1
	bgtu	a4,a5,.L4
	.loc 1 70 12
	li	a5,0
	j	.L5
.L4:
	.loc 1 73 27
	la	a5,gImageHandle
	ld	a5,0(a5)
	li	a3,0
	la	a2,UefiShellLevel2CommandsLibStrings
	mv	a1,a5
	la	a0,gShellLevel2HiiGuid
	call	HiiAddPackages@plt
	mv	a4,a0
	.loc 1 73 25 discriminator 1
	lla	a5,gShellLevel2HiiHandle
	sd	a4,0(a5)
	.loc 1 74 29
	lla	a5,gShellLevel2HiiHandle
	ld	a5,0(a5)
	.loc 1 74 6
	bne	a5,zero,.L6
	.loc 1 75 12
	li	a5,-1
	slli	a5,a5,63
	addi	a5,a5,7
	j	.L5
.L6:
	.loc 1 81 3
	lla	a5,gShellLevel2HiiHandle
	ld	a5,0(a5)
	li	a7,135
	mv	a6,a5
	li	a5,1
	lla	a4,.LC0
	li	a3,2
	lla	a2,ShellCommandGetManFileNameLevel2
	la	a1,ShellCommandRunAttrib
	lla	a0,.LC1
	call	ShellCommandRegisterCommandName@plt
	.loc 1 82 3
	lla	a5,gShellLevel2HiiHandle
	ld	a5,0(a5)
	li	a7,136
	mv	a6,a5
	li	a5,1
	lla	a4,.LC0
	li	a3,2
	lla	a2,ShellCommandGetManFileNameLevel2
	la	a1,ShellCommandRunCd
	lla	a0,.LC2
	call	ShellCommandRegisterCommandName@plt
	.loc 1 83 3
	lla	a5,gShellLevel2HiiHandle
	ld	a5,0(a5)
	li	a7,137
	mv	a6,a5
	li	a5,1
	lla	a4,.LC0
	li	a3,2
	lla	a2,ShellCommandGetManFileNameLevel2
	la	a1,ShellCommandRunCp
	lla	a0,.LC3
	call	ShellCommandRegisterCommandName@plt
	.loc 1 84 3
	lla	a5,gShellLevel2HiiHandle
	ld	a5,0(a5)
	li	a7,149
	mv	a6,a5
	li	a5,1
	lla	a4,.LC0
	li	a3,2
	lla	a2,ShellCommandGetManFileNameLevel2
	la	a1,ShellCommandRunLoad
	lla	a0,.LC4
	call	ShellCommandRegisterCommandName@plt
	.loc 1 85 3
	lla	a5,gShellLevel2HiiHandle
	ld	a5,0(a5)
	li	a7,138
	mv	a6,a5
	li	a5,1
	lla	a4,.LC0
	li	a3,2
	lla	a2,ShellCommandGetManFileNameLevel2
	la	a1,ShellCommandRunMap
	lla	a0,.LC5
	call	ShellCommandRegisterCommandName@plt
	.loc 1 86 3
	lla	a5,gShellLevel2HiiHandle
	ld	a5,0(a5)
	li	a7,139
	mv	a6,a5
	li	a5,1
	lla	a4,.LC0
	li	a3,2
	lla	a2,ShellCommandGetManFileNameLevel2
	la	a1,ShellCommandRunMkDir
	lla	a0,.LC6
	call	ShellCommandRegisterCommandName@plt
	.loc 1 87 3
	lla	a5,gShellLevel2HiiHandle
	ld	a5,0(a5)
	li	a7,140
	mv	a6,a5
	li	a5,1
	lla	a4,.LC0
	li	a3,2
	lla	a2,ShellCommandGetManFileNameLevel2
	la	a1,ShellCommandRunMv
	lla	a0,.LC7
	call	ShellCommandRegisterCommandName@plt
	.loc 1 88 3
	lla	a5,gShellLevel2HiiHandle
	ld	a5,0(a5)
	li	a7,141
	mv	a6,a5
	li	a5,1
	lla	a4,.LC0
	li	a3,2
	lla	a2,ShellCommandGetManFileNameLevel2
	la	a1,ShellCommandRunParse
	lla	a0,.LC8
	call	ShellCommandRegisterCommandName@plt
	.loc 1 89 3
	lla	a5,gShellLevel2HiiHandle
	ld	a5,0(a5)
	li	a7,142
	mv	a6,a5
	li	a5,1
	lla	a4,.LC0
	li	a3,2
	lla	a2,ShellCommandGetManFileNameLevel2
	la	a1,ShellCommandRunReset
	lla	a0,.LC9
	call	ShellCommandRegisterCommandName@plt
	.loc 1 90 3
	lla	a5,gShellLevel2HiiHandle
	ld	a5,0(a5)
	li	a7,144
	mv	a6,a5
	li	a5,0
	lla	a4,.LC0
	li	a3,2
	lla	a2,ShellCommandGetManFileNameLevel2
	la	a1,ShellCommandRunSet
	lla	a0,.LC10
	call	ShellCommandRegisterCommandName@plt
	.loc 1 91 3
	lla	a5,gShellLevel2HiiHandle
	ld	a5,0(a5)
	li	a7,148
	mv	a6,a5
	li	a5,1
	lla	a4,.LC0
	li	a3,2
	lla	a2,ShellCommandGetManFileNameLevel2
	la	a1,ShellCommandRunLs
	lla	a0,.LC11
	call	ShellCommandRegisterCommandName@plt
	.loc 1 92 3
	lla	a5,gShellLevel2HiiHandle
	ld	a5,0(a5)
	li	a7,143
	mv	a6,a5
	li	a5,1
	lla	a4,.LC0
	li	a3,2
	lla	a2,ShellCommandGetManFileNameLevel2
	la	a1,ShellCommandRunRm
	lla	a0,.LC12
	call	ShellCommandRegisterCommandName@plt
	.loc 1 93 3
	lla	a5,gShellLevel2HiiHandle
	ld	a5,0(a5)
	li	a7,150
	mv	a6,a5
	li	a5,1
	lla	a4,.LC0
	li	a3,2
	lla	a2,ShellCommandGetManFileNameLevel2
	la	a1,ShellCommandRunVol
	lla	a0,.LC13
	call	ShellCommandRegisterCommandName@plt
	.loc 1 98 3
	lla	a1,.LC14
	lla	a0,.LC12
	call	ShellCommandRegisterAlias@plt
	.loc 1 99 3
	lla	a1,.LC15
	lla	a0,.LC11
	call	ShellCommandRegisterAlias@plt
	.loc 1 100 3
	lla	a1,.LC16
	lla	a0,.LC3
	call	ShellCommandRegisterAlias@plt
	.loc 1 101 3
	lla	a1,.LC17
	lla	a0,.LC6
	call	ShellCommandRegisterAlias@plt
	.loc 1 102 3
	lla	a1,.LC18
	lla	a0,.LC19
	call	ShellCommandRegisterAlias@plt
	.loc 1 103 3
	lla	a1,.LC20
	lla	a0,.LC21
	call	ShellCommandRegisterAlias@plt
	.loc 1 104 3
	lla	a1,.LC22
	lla	a0,.LC7
	call	ShellCommandRegisterAlias@plt
	.loc 1 105 3
	lla	a1,.LC23
	lla	a0,.LC7
	call	ShellCommandRegisterAlias@plt
	.loc 1 106 3
	lla	a1,.LC24
	lla	a0,.LC5
	call	ShellCommandRegisterAlias@plt
	.loc 1 110 48
	la	a5,_gPcd_FixedAtBuild_PcdShellSupportLevel
	lbu	a5,0(a5)
	.loc 1 110 6
	mv	a4,a5
	li	a5,2
	beq	a4,a5,.L7
	.loc 1 110 98 discriminator 1
	la	a5,_gPcd_FixedAtBuild_PcdShellSupportLevel
	lbu	a5,0(a5)
	.loc 1 110 54 discriminator 1
	mv	a4,a5
	li	a5,3
	bne	a4,a5,.L8
.L7:
	.loc 1 111 5
	la	a5,_gPcd_FixedAtBuild_PcdShellSupportLevel
	lbu	a5,0(a5)
	sext.w	a3,a5
	lla	a5,gShellLevel2HiiHandle
	ld	a5,0(a5)
	li	a7,145
	mv	a6,a5
	li	a5,1
	lla	a4,.LC0
	lla	a2,ShellCommandGetManFileNameLevel2
	la	a1,ShellCommandRunDate
	lla	a0,.LC25
	call	ShellCommandRegisterCommandName@plt
	.loc 1 112 5
	la	a5,_gPcd_FixedAtBuild_PcdShellSupportLevel
	lbu	a5,0(a5)
	sext.w	a3,a5
	lla	a5,gShellLevel2HiiHandle
	ld	a5,0(a5)
	li	a7,146
	mv	a6,a5
	li	a5,1
	lla	a4,.LC0
	lla	a2,ShellCommandGetManFileNameLevel2
	la	a1,ShellCommandRunTime
	lla	a0,.LC26
	call	ShellCommandRegisterCommandName@plt
	.loc 1 113 5
	la	a5,_gPcd_FixedAtBuild_PcdShellSupportLevel
	lbu	a5,0(a5)
	sext.w	a3,a5
	lla	a5,gShellLevel2HiiHandle
	ld	a5,0(a5)
	li	a7,147
	mv	a6,a5
	li	a5,1
	lla	a4,.LC0
	lla	a2,ShellCommandGetManFileNameLevel2
	la	a1,ShellCommandRunTimeZone
	lla	a0,.LC27
	call	ShellCommandRegisterCommandName@plt
	j	.L9
.L8:
	.loc 1 115 14
	call	DebugCodeEnabled@plt
	mv	a5,a0
	.loc 1 115 13 discriminator 1
	beq	a5,zero,.L9
	.loc 1 119 5
	lla	a5,gShellLevel2HiiHandle
	ld	a5,0(a5)
	li	a7,145
	mv	a6,a5
	li	a5,1
	lla	a4,.LC0
	li	a3,2
	lla	a2,ShellCommandGetManFileNameLevel2
	la	a1,ShellCommandRunDate
	lla	a0,.LC28
	call	ShellCommandRegisterCommandName@plt
	.loc 1 120 5
	lla	a5,gShellLevel2HiiHandle
	ld	a5,0(a5)
	li	a7,146
	mv	a6,a5
	li	a5,1
	lla	a4,.LC0
	li	a3,2
	lla	a2,ShellCommandGetManFileNameLevel2
	la	a1,ShellCommandRunTime
	lla	a0,.LC29
	call	ShellCommandRegisterCommandName@plt
	.loc 1 121 5
	lla	a5,gShellLevel2HiiHandle
	ld	a5,0(a5)
	li	a7,147
	mv	a6,a5
	li	a5,1
	lla	a4,.LC0
	li	a3,2
	lla	a2,ShellCommandGetManFileNameLevel2
	la	a1,ShellCommandRunTimeZone
	lla	a0,.LC30
	call	ShellCommandRegisterCommandName@plt
.L9:
	.loc 1 125 10
	li	a5,0
.L5:
	.loc 1 126 1
	mv	a0,a5
	ld	ra,24(sp)
	.cfi_restore 1
	ld	s0,16(sp)
	.cfi_restore 8
	.cfi_def_cfa 2, 32
	addi	sp,sp,32
	.cfi_def_cfa_offset 0
	jr	ra
	.cfi_endproc
.LFE1:
	.size	ShellLevel2CommandsLibConstructor, .-ShellLevel2CommandsLibConstructor
	.section	.text.ShellLevel2CommandsLibDestructor,"ax",@progbits
	.align	1
	.globl	ShellLevel2CommandsLibDestructor
	.type	ShellLevel2CommandsLibDestructor, @function
ShellLevel2CommandsLibDestructor:
.LFB2:
	.loc 1 142 1
	.cfi_startproc
	addi	sp,sp,-32
	.cfi_def_cfa_offset 32
	sd	ra,24(sp)
	sd	s0,16(sp)
	.cfi_offset 1, -8
	.cfi_offset 8, -16
	addi	s0,sp,32
	.cfi_def_cfa 8, 0
	sd	a0,-24(s0)
	sd	a1,-32(s0)
	.loc 1 143 29
	lla	a5,gShellLevel2HiiHandle
	ld	a5,0(a5)
	.loc 1 143 6
	beq	a5,zero,.L11
	.loc 1 144 5
	lla	a5,gShellLevel2HiiHandle
	ld	a5,0(a5)
	mv	a0,a5
	call	HiiRemovePackages@plt
.L11:
	.loc 1 147 10
	li	a5,0
	.loc 1 148 1
	mv	a0,a5
	ld	ra,24(sp)
	.cfi_restore 1
	ld	s0,16(sp)
	.cfi_restore 8
	.cfi_def_cfa 2, 32
	addi	sp,sp,32
	.cfi_def_cfa_offset 0
	jr	ra
	.cfi_endproc
.LFE2:
	.size	ShellLevel2CommandsLibDestructor, .-ShellLevel2CommandsLibDestructor
	.section	.rodata
	.align	3
.LC31:
	.string	":"
	.zero	2
	.align	3
.LC32:
	.string	"\\"
	.zero	2
	.section	.text.GetFullyQualifiedPath,"ax",@progbits
	.align	1
	.globl	GetFullyQualifiedPath
	.type	GetFullyQualifiedPath, @function
GetFullyQualifiedPath:
.LFB3:
	.loc 1 170 1
	.cfi_startproc
	addi	sp,sp,-80
	.cfi_def_cfa_offset 80
	sd	ra,72(sp)
	sd	s0,64(sp)
	sd	s1,56(sp)
	.cfi_offset 1, -8
	.cfi_offset 8, -16
	.cfi_offset 9, -24
	addi	s0,sp,80
	.cfi_def_cfa 8, 0
	sd	a0,-72(s0)
	.loc 1 175 16
	sd	zero,-48(s0)
	.loc 1 176 8
	sd	zero,-56(s0)
	.loc 1 182 7
	lla	a1,.LC31
	ld	a0,-72(s0)
	call	StrStr@plt
	mv	a5,a0
	.loc 1 182 6 discriminator 1
	bne	a5,zero,.L14
	.loc 1 183 31
	la	a5,gEfiShellProtocol
	ld	a5,0(a5)
	ld	a5,88(a5)
	.loc 1 183 14
	li	a0,0
	jalr	a5
.LVL0:
	sd	a0,-40(s0)
	.loc 1 184 5
	addi	a4,s0,-56
	addi	a5,s0,-48
	li	a3,0
	ld	a2,-40(s0)
	mv	a1,a4
	mv	a0,a5
	call	StrnCatGrow@plt
	.loc 1 185 5
	addi	a4,s0,-56
	addi	a5,s0,-48
	li	a3,0
	lla	a2,.LC32
	mv	a1,a4
	mv	a0,a5
	call	StrnCatGrow@plt
	.loc 1 186 9
	ld	a5,-72(s0)
	lhu	a5,0(a5)
	.loc 1 186 8
	sext.w	a4,a5
	li	a5,92
	bne	a4,a5,.L14
	.loc 1 187 11
	ld	a5,-72(s0)
	addi	a5,a5,2
	sd	a5,-72(s0)
.L14:
	.loc 1 191 3
	addi	a4,s0,-56
	addi	a5,s0,-48
	li	a3,0
	ld	a2,-72(s0)
	mv	a1,a4
	mv	a0,a5
	call	StrnCatGrow@plt
	.loc 1 193 3
	ld	a5,-48(s0)
	mv	a0,a5
	call	PathCleanUpDirectories@plt
	.loc 1 195 20
	ld	a5,-48(s0)
	.loc 1 195 6
	bne	a5,zero,.L17
	.loc 1 196 12
	li	a5,0
	j	.L19
.L18:
	.loc 1 200 17
	ld	s1,-48(s0)
	.loc 1 200 18
	ld	a5,-48(s0)
	mv	a0,a5
	call	StrLen@plt
	mv	a5,a0
	.loc 1 200 17 discriminator 1
	slli	a5,a5,1
	addi	a5,a5,-2
	add	a5,s1,a5
	.loc 1 200 43 discriminator 1
	sh	zero,0(a5)
.L17:
	.loc 1 199 22
	ld	s1,-48(s0)
	.loc 1 199 23
	ld	a5,-48(s0)
	mv	a0,a5
	call	StrLen@plt
	mv	a5,a0
	.loc 1 199 22 discriminator 1
	slli	a5,a5,1
	addi	a5,a5,-2
	add	a5,s1,a5
	lhu	a5,0(a5)
	.loc 1 199 48 discriminator 1
	sext.w	a4,a5
	li	a5,42
	beq	a4,a5,.L18
	.loc 1 203 10
	ld	a5,-48(s0)
.L19:
	.loc 1 204 1
	mv	a0,a5
	ld	ra,72(sp)
	.cfi_restore 1
	ld	s0,64(sp)
	.cfi_restore 8
	.cfi_def_cfa 2, 80
	ld	s1,56(sp)
	.cfi_restore 9
	addi	sp,sp,80
	.cfi_def_cfa_offset 0
	jr	ra
	.cfi_endproc
.LFE3:
	.size	GetFullyQualifiedPath, .-GetFullyQualifiedPath
	.section	.text.VerifyIntermediateDirectories,"ax",@progbits
	.align	1
	.globl	VerifyIntermediateDirectories
	.type	VerifyIntermediateDirectories, @function
VerifyIntermediateDirectories:
.LFB4:
	.loc 1 217 1
	.cfi_startproc
	addi	sp,sp,-80
	.cfi_def_cfa_offset 80
	sd	ra,72(sp)
	sd	s0,64(sp)
	sd	s1,56(sp)
	.cfi_offset 1, -8
	.cfi_offset 8, -16
	.cfi_offset 9, -24
	addi	s0,sp,80
	.cfi_def_cfa 8, 0
	sd	a0,-72(s0)
	.loc 1 225 10
	sd	zero,-40(s0)
	.loc 1 226 12
	sd	zero,-56(s0)
	.loc 1 227 14
	addi	a5,s0,-56
	li	a3,0
	ld	a2,-72(s0)
	li	a1,0
	mv	a0,a5
	call	StrnCatGrow@plt
	mv	a5,a0
	.loc 1 227 12 discriminator 1
	sd	a5,-56(s0)
	.loc 1 228 14
	sd	zero,-64(s0)
	.loc 1 230 16
	ld	a5,-56(s0)
	.loc 1 230 6
	bne	a5,zero,.L21
	.loc 1 231 12
	li	a5,-1
	slli	a5,a5,63
	addi	a5,a5,9
	j	.L29
.L21:
	.loc 1 234 19
	ld	s1,-56(s0)
	.loc 1 234 29
	ld	a5,-56(s0)
	mv	a0,a5
	call	StrLen@plt
	mv	a5,a0
	.loc 1 234 28 discriminator 1
	slli	a5,a5,1
	addi	a5,a5,-2
	.loc 1 234 17 discriminator 1
	add	a5,s1,a5
	sd	a5,-48(s0)
	.loc 1 234 3
	j	.L23
.L25:
	.loc 1 235 15
	ld	a5,-48(s0)
	sh	zero,0(a5)
	.loc 1 234 105 discriminator 6
	ld	s1,-56(s0)
	.loc 1 234 115 discriminator 6
	ld	a5,-56(s0)
	mv	a0,a5
	call	StrLen@plt
	mv	a5,a0
	.loc 1 234 114 discriminator 6
	slli	a5,a5,1
	addi	a5,a5,-2
	.loc 1 234 103 discriminator 6
	add	a5,s1,a5
	sd	a5,-48(s0)
.L23:
	.loc 1 234 51 discriminator 4
	ld	a5,-48(s0)
	lhu	a5,0(a5)
	.loc 1 234 71 discriminator 4
	beq	a5,zero,.L24
	.loc 1 234 74 discriminator 5
	ld	a5,-48(s0)
	lhu	a5,0(a5)
	.loc 1 234 71 discriminator 5
	sext.w	a4,a5
	li	a5,92
	bne	a4,a5,.L25
.L24:
	.loc 1 238 7
	ld	a5,-48(s0)
	lhu	a5,0(a5)
	.loc 1 238 6
	sext.w	a4,a5
	li	a5,92
	bne	a4,a5,.L26
	.loc 1 239 15
	ld	a5,-48(s0)
	sh	zero,0(a5)
.L26:
	.loc 1 242 17
	ld	a5,-56(s0)
	.loc 1 242 6
	beq	a5,zero,.L27
	.loc 1 242 38 discriminator 1
	ld	a5,-56(s0)
	lhu	a5,0(a5)
	.loc 1 242 34 discriminator 1
	beq	a5,zero,.L27
	.loc 1 243 14
	ld	a5,-56(s0)
	mv	a0,a5
	call	VerifyIntermediateDirectories
	sd	a0,-40(s0)
	.loc 1 245 17
	ld	s1,-56(s0)
	.loc 1 245 18
	ld	a5,-56(s0)
	mv	a0,a5
	call	StrLen@plt
	mv	a5,a0
	.loc 1 245 17 discriminator 1
	slli	a5,a5,1
	addi	a5,a5,-2
	add	a5,s1,a5
	lhu	a5,0(a5)
	.loc 1 245 8 discriminator 1
	sext.w	a4,a5
	li	a5,58
	beq	a4,a5,.L27
	.loc 1 246 11
	ld	a5,-40(s0)
	.loc 1 246 10
	blt	a5,zero,.L27
	.loc 1 247 18
	ld	a5,-56(s0)
	addi	a4,s0,-64
	li	a3,0
	li	a2,1
	mv	a1,a4
	mv	a0,a5
	call	ShellOpenFileByName@plt
	sd	a0,-40(s0)
	.loc 1 248 24
	ld	a5,-64(s0)
	.loc 1 248 12
	beq	a5,zero,.L27
	.loc 1 249 11
	addi	a5,s0,-64
	mv	a0,a5
	call	ShellCloseFile@plt
.L27:
	.loc 1 255 23
	ld	a5,-56(s0)
	.loc 1 255 11
	beq	a5,zero,.L28
	.loc 1 255 42 discriminator 1
	ld	a5,-56(s0)
	mv	a0,a5
	call	FreePool@plt
	.loc 1 255 75 discriminator 2
	sd	zero,-56(s0)
.L28:
	.loc 1 257 10
	ld	a5,-40(s0)
.L29:
	.loc 1 258 1
	mv	a0,a5
	ld	ra,72(sp)
	.cfi_restore 1
	ld	s0,64(sp)
	.cfi_restore 8
	.cfi_def_cfa 2, 80
	ld	s1,56(sp)
	.cfi_restore 9
	addi	sp,sp,80
	.cfi_def_cfa_offset 0
	jr	ra
	.cfi_endproc
.LFE4:
	.size	VerifyIntermediateDirectories, .-VerifyIntermediateDirectories
	.section	.text.StrniCmp,"ax",@progbits
	.align	1
	.globl	StrniCmp
	.type	StrniCmp, @function
StrniCmp:
.LFB5:
	.loc 1 277 1
	.cfi_startproc
	addi	sp,sp,-96
	.cfi_def_cfa_offset 96
	sd	ra,88(sp)
	sd	s0,80(sp)
	.cfi_offset 1, -8
	.cfi_offset 8, -16
	addi	s0,sp,96
	.cfi_def_cfa 8, 0
	sd	a0,-72(s0)
	sd	a1,-80(s0)
	sd	a2,-88(s0)
	.loc 1 284 6
	ld	a5,-88(s0)
	bne	a5,zero,.L31
	.loc 1 285 12
	li	a5,0
	j	.L32
.L31:
	.loc 1 288 18
	ld	a0,-72(s0)
	call	StrLen@plt
	sd	a0,-24(s0)
	.loc 1 289 18
	ld	a0,-80(s0)
	call	StrLen@plt
	sd	a0,-32(s0)
	.loc 1 290 16
	ld	a4,-24(s0)
	ld	a5,-88(s0)
	bleu	a5,a4,.L33
	mv	a5,a4
.L33:
	sd	a5,-24(s0)
	.loc 1 291 16
	ld	a4,-32(s0)
	ld	a5,-88(s0)
	bleu	a5,a4,.L34
	mv	a5,a4
.L34:
	sd	a5,-32(s0)
	.loc 1 292 48
	ld	a5,-24(s0)
	addi	a5,a5,1
	.loc 1 292 53
	slli	a5,a5,1
	.loc 1 292 16
	ld	a1,-72(s0)
	mv	a0,a5
	call	AllocateCopyPool@plt
	sd	a0,-40(s0)
	.loc 1 293 6
	ld	a5,-40(s0)
	bne	a5,zero,.L35
	.loc 1 294 12
	li	a5,-1
	j	.L32
.L35:
	.loc 1 297 48
	ld	a5,-32(s0)
	addi	a5,a5,1
	.loc 1 297 53
	slli	a5,a5,1
	.loc 1 297 16
	ld	a1,-80(s0)
	mv	a0,a5
	call	AllocateCopyPool@plt
	sd	a0,-48(s0)
	.loc 1 298 6
	ld	a5,-48(s0)
	bne	a5,zero,.L36
	.loc 1 299 5
	ld	a0,-40(s0)
	call	FreePool@plt
	.loc 1 300 12
	li	a5,-1
	j	.L32
.L36:
	.loc 1 303 13
	ld	a5,-24(s0)
	slli	a5,a5,1
	ld	a4,-40(s0)
	add	a5,a4,a5
	.loc 1 303 28
	sh	zero,0(a5)
	.loc 1 304 13
	ld	a5,-32(s0)
	slli	a5,a5,1
	ld	a4,-48(s0)
	add	a5,a4,a5
	.loc 1 304 28
	sh	zero,0(a5)
	.loc 1 305 29
	la	a5,gUnicodeCollation
	ld	a5,0(a5)
	ld	a5,0(a5)
	.loc 1 305 12
	la	a4,gUnicodeCollation
	ld	a4,0(a4)
	ld	a2,-48(s0)
	ld	a1,-40(s0)
	mv	a0,a4
	jalr	a5
.LVL1:
	sd	a0,-56(s0)
	.loc 1 306 3
	ld	a0,-40(s0)
	call	FreePool@plt
	.loc 1 307 3
	ld	a0,-48(s0)
	call	FreePool@plt
	.loc 1 308 10
	ld	a5,-56(s0)
.L32:
	.loc 1 309 1
	mv	a0,a5
	ld	ra,88(sp)
	.cfi_restore 1
	ld	s0,80(sp)
	.cfi_restore 8
	.cfi_def_cfa 2, 96
	addi	sp,sp,96
	.cfi_def_cfa_offset 0
	jr	ra
	.cfi_endproc
.LFE5:
	.size	StrniCmp, .-StrniCmp
	.section	.text.ShellLevel2StripQuotes,"ax",@progbits
	.align	1
	.globl	ShellLevel2StripQuotes
	.type	ShellLevel2StripQuotes, @function
ShellLevel2StripQuotes:
.LFB6:
	.loc 1 326 1
	.cfi_startproc
	addi	sp,sp,-64
	.cfi_def_cfa_offset 64
	sd	ra,56(sp)
	sd	s0,48(sp)
	sd	s1,40(sp)
	.cfi_offset 1, -8
	.cfi_offset 8, -16
	.cfi_offset 9, -24
	addi	s0,sp,64
	.cfi_def_cfa 8, 0
	sd	a0,-56(s0)
	sd	a1,-64(s0)
	.loc 1 329 6
	ld	a5,-56(s0)
	beq	a5,zero,.L38
	.loc 1 329 40 discriminator 1
	ld	a5,-64(s0)
	bne	a5,zero,.L39
.L38:
	.loc 1 330 12
	li	a5,-1
	slli	a5,a5,63
	addi	a5,a5,2
	j	.L40
.L39:
	.loc 1 333 18
	ld	a0,-56(s0)
	call	StrSize@plt
	mv	a5,a0
	.loc 1 333 18 is_stmt 0 discriminator 1
	ld	a1,-56(s0)
	mv	a0,a5
	call	AllocateCopyPool@plt
	mv	a4,a0
	.loc 1 333 16 is_stmt 1 discriminator 2
	ld	a5,-64(s0)
	sd	a4,0(a5)
	.loc 1 334 7
	ld	a5,-64(s0)
	ld	a5,0(a5)
	.loc 1 334 6
	bne	a5,zero,.L41
	.loc 1 335 12
	li	a5,-1
	slli	a5,a5,63
	addi	a5,a5,9
	j	.L40
.L41:
	.loc 1 338 15
	ld	a5,-64(s0)
	ld	a5,0(a5)
	sd	a5,-40(s0)
	.loc 1 338 3
	j	.L42
.L46:
	.loc 1 339 9
	ld	a5,-40(s0)
	lhu	a5,0(a5)
	.loc 1 339 8
	sext.w	a4,a5
	li	a5,34
	bne	a4,a5,.L43
	.loc 1 340 30
	ld	a5,-40(s0)
	addi	s1,a5,2
	.loc 1 340 34
	ld	a0,-40(s0)
	call	StrSize@plt
	mv	a5,a0
	.loc 1 340 51 discriminator 1
	addi	a5,a5,-2
	.loc 1 340 7 discriminator 1
	mv	a2,a5
	mv	a1,s1
	ld	a0,-40(s0)
	call	CopyMem@plt
	j	.L42
.L43:
	.loc 1 342 13
	ld	a5,-40(s0)
	addi	a5,a5,2
	sd	a5,-40(s0)
.L42:
	.loc 1 338 54 discriminator 1
	ld	a5,-40(s0)
	beq	a5,zero,.L45
	.loc 1 338 57 discriminator 2
	ld	a5,-40(s0)
	lhu	a5,0(a5)
	.loc 1 338 54 discriminator 2
	bne	a5,zero,.L46
.L45:
	.loc 1 346 10
	li	a5,0
.L40:
	.loc 1 347 1
	mv	a0,a5
	ld	ra,56(sp)
	.cfi_restore 1
	ld	s0,48(sp)
	.cfi_restore 8
	.cfi_def_cfa 2, 64
	ld	s1,40(sp)
	.cfi_restore 9
	addi	sp,sp,64
	.cfi_def_cfa_offset 0
	jr	ra
	.cfi_endproc
.LFE6:
	.size	ShellLevel2StripQuotes, .-ShellLevel2StripQuotes
	.text
.Letext0:
	.file 2 "/home/kapoagaeming/Downloads/spacemit-image-builder/components/edk2/MdePkg/Include/RiscV64/ProcessorBind.h"
	.file 3 "/home/kapoagaeming/Downloads/spacemit-image-builder/components/edk2/MdePkg/Include/Base.h"
	.file 4 "/home/kapoagaeming/Downloads/spacemit-image-builder/components/edk2/MdePkg/Include/Uefi/UefiBaseType.h"
	.file 5 "/home/kapoagaeming/Downloads/spacemit-image-builder/components/edk2/MdePkg/Include/Uefi/UefiMultiPhase.h"
	.file 6 "/home/kapoagaeming/Downloads/spacemit-image-builder/components/edk2/MdePkg/Include/Protocol/DevicePath.h"
	.file 7 "/home/kapoagaeming/Downloads/spacemit-image-builder/components/edk2/MdePkg/Include/Protocol/SimpleTextIn.h"
	.file 8 "/home/kapoagaeming/Downloads/spacemit-image-builder/components/edk2/MdePkg/Include/Protocol/SimpleTextOut.h"
	.file 9 "/home/kapoagaeming/Downloads/spacemit-image-builder/components/edk2/MdePkg/Include/Uefi/UefiSpec.h"
	.file 10 "/home/kapoagaeming/Downloads/spacemit-image-builder/components/edk2/MdePkg/Include/Uefi/UefiInternalFormRepresentation.h"
	.file 11 "/home/kapoagaeming/Downloads/spacemit-image-builder/components/Build/Milk-V-Jupiter/RELEASE_GCC5/RISCV64/ShellPkg/Library/UefiShellLevel2CommandsLib/UefiShellLevel2CommandsLib/DEBUG/AutoGen.h"
	.file 12 "/home/kapoagaeming/Downloads/spacemit-image-builder/components/Build/Milk-V-Jupiter/RELEASE_GCC5/RISCV64/ShellPkg/Library/UefiShellLevel2CommandsLib/UefiShellLevel2CommandsLib/DEBUG/UefiShellLevel2CommandsLibStrDefs.h"
	.file 13 "/home/kapoagaeming/Downloads/spacemit-image-builder/components/edk2/MdePkg/Include/Guid/FileInfo.h"
	.file 14 "/home/kapoagaeming/Downloads/spacemit-image-builder/components/edk2/MdePkg/Include/Protocol/Shell.h"
	.file 15 "/home/kapoagaeming/Downloads/spacemit-image-builder/components/edk2/MdePkg/Include/Protocol/UnicodeCollation.h"
	.file 16 "/home/kapoagaeming/Downloads/spacemit-image-builder/components/edk2/MdePkg/Include/Library/UefiBootServicesTableLib.h"
	.file 17 "/home/kapoagaeming/Downloads/spacemit-image-builder/components/edk2/ShellPkg/Include/Library/ShellCommandLib.h"
	.file 18 "/home/kapoagaeming/Downloads/spacemit-image-builder/components/edk2/ShellPkg/Include/Library/ShellLib.h"
	.file 19 "/home/kapoagaeming/Downloads/spacemit-image-builder/components/edk2/ShellPkg/Library/UefiShellLevel2CommandsLib/UefiShellLevel2CommandsLib.h"
	.file 20 "/home/kapoagaeming/Downloads/spacemit-image-builder/components/edk2/MdePkg/Include/Library/BaseMemoryLib.h"
	.file 21 "/home/kapoagaeming/Downloads/spacemit-image-builder/components/edk2/MdePkg/Include/Library/BaseLib.h"
	.file 22 "/home/kapoagaeming/Downloads/spacemit-image-builder/components/edk2/MdePkg/Include/Library/MemoryAllocationLib.h"
	.file 23 "/home/kapoagaeming/Downloads/spacemit-image-builder/components/edk2/MdeModulePkg/Include/Library/HiiLib.h"
	.file 24 "/home/kapoagaeming/Downloads/spacemit-image-builder/components/edk2/MdePkg/Include/Library/DebugLib.h"
	.section	.note.GNU-stack,"",@progbits
