	.file	"BaseSerialPortLibRiscVSbiLib.c"
	.option pic
	.option norelax
	.attribute arch, "rv64i2p1_m2p0_a2p1_f2p2_d2p2_c2p0_zicsr2p0_zifencei2p0_zmmul1p0_zaamo1p0_zalrsc1p0_zca1p0_zcd1p0"
	.attribute unaligned_access, 0
	.attribute stack_align, 16
	.text
.Ltext0:
	.cfi_sections	.debug_frame
	.file 0 "/home/kapoagaeming/Downloads/spacemit-image-builder/components/Build/Milk-V-Jupiter/RELEASE_GCC5/RISCV64/MdePkg/Library/BaseSerialPortLibRiscVSbiLib/BaseSerialPortLibRiscVSbiLib" "/home/kapoagaeming/Downloads/spacemit-image-builder/components/edk2/MdePkg/Library/BaseSerialPortLibRiscVSbiLib/BaseSerialPortLibRiscVSbiLib.c"
	.section	.text.SerialPortInitialize,"ax",@progbits
	.align	1
	.globl	SerialPortInitialize
	.type	SerialPortInitialize, @function
SerialPortInitialize:
.LFB0:
	.file 1 "/home/kapoagaeming/Downloads/spacemit-image-builder/components/edk2/MdePkg/Library/BaseSerialPortLibRiscVSbiLib/BaseSerialPortLibRiscVSbiLib.c"
	.loc 1 34 1
	.cfi_startproc
	addi	sp,sp,-16
	.cfi_def_cfa_offset 16
	sd	ra,8(sp)
	sd	s0,0(sp)
	.cfi_offset 1, -8
	.cfi_offset 8, -16
	addi	s0,sp,16
	.cfi_def_cfa 8, 0
	.loc 1 35 10
	li	a5,0
	.loc 1 36 1
	mv	a0,a5
	ld	ra,8(sp)
	.cfi_restore 1
	ld	s0,0(sp)
	.cfi_restore 8
	.cfi_def_cfa 2, 16
	addi	sp,sp,16
	.cfi_def_cfa_offset 0
	jr	ra
	.cfi_endproc
.LFE0:
	.size	SerialPortInitialize, .-SerialPortInitialize
	.section	.text.SerialPortWrite,"ax",@progbits
	.align	1
	.globl	SerialPortWrite
	.type	SerialPortWrite, @function
SerialPortWrite:
.LFB1:
	.loc 1 60 1
	.cfi_startproc
	addi	sp,sp,-32
	.cfi_def_cfa_offset 32
	sd	ra,24(sp)
	sd	s0,16(sp)
	.cfi_offset 1, -8
	.cfi_offset 8, -16
	addi	s0,sp,32
	.cfi_def_cfa 8, 0
	sd	a0,-24(s0)
	sd	a1,-32(s0)
	.loc 1 61 6
	ld	a5,-32(s0)
	bne	a5,zero,.L4
	.loc 1 62 12
	li	a5,0
	j	.L5
.L4:
	.loc 1 65 7
	call	SbiImplementsDbcn@plt
	mv	a5,a0
	.loc 1 65 6 discriminator 1
	beq	a5,zero,.L6
	.loc 1 66 12
	ld	a1,-32(s0)
	ld	a0,-24(s0)
	call	SbiDbcnWrite@plt
	mv	a5,a0
	j	.L5
.L6:
	.loc 1 69 7
	call	SbiImplementsLegacyPutchar@plt
	mv	a5,a0
	.loc 1 69 6 discriminator 1
	beq	a5,zero,.L7
	.loc 1 70 12
	ld	a1,-32(s0)
	ld	a0,-24(s0)
	call	SbiLegacyPutchar@plt
	mv	a5,a0
	j	.L5
.L7:
	.loc 1 76 10
	li	a5,0
.L5:
	.loc 1 77 1
	mv	a0,a5
	ld	ra,24(sp)
	.cfi_restore 1
	ld	s0,16(sp)
	.cfi_restore 8
	.cfi_def_cfa 2, 32
	addi	sp,sp,32
	.cfi_def_cfa_offset 0
	jr	ra
	.cfi_endproc
.LFE1:
	.size	SerialPortWrite, .-SerialPortWrite
	.section	.text.SerialPortRead,"ax",@progbits
	.align	1
	.globl	SerialPortRead
	.type	SerialPortRead, @function
SerialPortRead:
.LFB2:
	.loc 1 100 1
	.cfi_startproc
	addi	sp,sp,-32
	.cfi_def_cfa_offset 32
	sd	ra,24(sp)
	sd	s0,16(sp)
	.cfi_offset 1, -8
	.cfi_offset 8, -16
	addi	s0,sp,32
	.cfi_def_cfa 8, 0
	sd	a0,-24(s0)
	sd	a1,-32(s0)
	.loc 1 101 10
	li	a5,0
	.loc 1 102 1
	mv	a0,a5
	ld	ra,24(sp)
	.cfi_restore 1
	ld	s0,16(sp)
	.cfi_restore 8
	.cfi_def_cfa 2, 32
	addi	sp,sp,32
	.cfi_def_cfa_offset 0
	jr	ra
	.cfi_endproc
.LFE2:
	.size	SerialPortRead, .-SerialPortRead
	.section	.text.SerialPortPoll,"ax",@progbits
	.align	1
	.globl	SerialPortPoll
	.type	SerialPortPoll, @function
SerialPortPoll:
.LFB3:
	.loc 1 120 1
	.cfi_startproc
	addi	sp,sp,-16
	.cfi_def_cfa_offset 16
	sd	ra,8(sp)
	sd	s0,0(sp)
	.cfi_offset 1, -8
	.cfi_offset 8, -16
	addi	s0,sp,16
	.cfi_def_cfa 8, 0
	.loc 1 121 10
	li	a5,0
	.loc 1 122 1
	mv	a0,a5
	ld	ra,8(sp)
	.cfi_restore 1
	ld	s0,0(sp)
	.cfi_restore 8
	.cfi_def_cfa 2, 16
	addi	sp,sp,16
	.cfi_def_cfa_offset 0
	jr	ra
	.cfi_endproc
.LFE3:
	.size	SerialPortPoll, .-SerialPortPoll
	.section	.text.SerialPortSetControl,"ax",@progbits
	.align	1
	.globl	SerialPortSetControl
	.type	SerialPortSetControl, @function
SerialPortSetControl:
.LFB4:
	.loc 1 139 1
	.cfi_startproc
	addi	sp,sp,-32
	.cfi_def_cfa_offset 32
	sd	ra,24(sp)
	sd	s0,16(sp)
	.cfi_offset 1, -8
	.cfi_offset 8, -16
	addi	s0,sp,32
	.cfi_def_cfa 8, 0
	mv	a5,a0
	sw	a5,-20(s0)
	.loc 1 140 10
	li	a5,0
	.loc 1 141 1
	mv	a0,a5
	ld	ra,24(sp)
	.cfi_restore 1
	ld	s0,16(sp)
	.cfi_restore 8
	.cfi_def_cfa 2, 32
	addi	sp,sp,32
	.cfi_def_cfa_offset 0
	jr	ra
	.cfi_endproc
.LFE4:
	.size	SerialPortSetControl, .-SerialPortSetControl
	.section	.text.SerialPortGetControl,"ax",@progbits
	.align	1
	.globl	SerialPortGetControl
	.type	SerialPortGetControl, @function
SerialPortGetControl:
.LFB5:
	.loc 1 158 1
	.cfi_startproc
	addi	sp,sp,-32
	.cfi_def_cfa_offset 32
	sd	ra,24(sp)
	sd	s0,16(sp)
	.cfi_offset 1, -8
	.cfi_offset 8, -16
	addi	s0,sp,32
	.cfi_def_cfa 8, 0
	sd	a0,-24(s0)
	.loc 1 159 12
	ld	a5,-24(s0)
	sw	zero,0(a5)
	.loc 1 160 10
	li	a5,0
	.loc 1 161 1
	mv	a0,a5
	ld	ra,24(sp)
	.cfi_restore 1
	ld	s0,16(sp)
	.cfi_restore 8
	.cfi_def_cfa 2, 32
	addi	sp,sp,32
	.cfi_def_cfa_offset 0
	jr	ra
	.cfi_endproc
.LFE5:
	.size	SerialPortGetControl, .-SerialPortGetControl
	.section	.text.SerialPortSetAttributes,"ax",@progbits
	.align	1
	.globl	SerialPortSetAttributes
	.type	SerialPortSetAttributes, @function
SerialPortSetAttributes:
.LFB6:
	.loc 1 206 1
	.cfi_startproc
	addi	sp,sp,-64
	.cfi_def_cfa_offset 64
	sd	ra,56(sp)
	sd	s0,48(sp)
	.cfi_offset 1, -8
	.cfi_offset 8, -16
	addi	s0,sp,64
	.cfi_def_cfa 8, 0
	sd	a0,-24(s0)
	sd	a1,-32(s0)
	sd	a2,-40(s0)
	sd	a3,-48(s0)
	sd	a4,-56(s0)
	sd	a5,-64(s0)
	.loc 1 207 10
	li	a5,0
	.loc 1 208 1
	mv	a0,a5
	ld	ra,56(sp)
	.cfi_restore 1
	ld	s0,48(sp)
	.cfi_restore 8
	.cfi_def_cfa 2, 64
	addi	sp,sp,64
	.cfi_def_cfa_offset 0
	jr	ra
	.cfi_endproc
.LFE6:
	.size	SerialPortSetAttributes, .-SerialPortSetAttributes
	.text
.Letext0:
	.file 2 "/home/kapoagaeming/Downloads/spacemit-image-builder/components/edk2/MdePkg/Include/RiscV64/ProcessorBind.h"
	.file 3 "/home/kapoagaeming/Downloads/spacemit-image-builder/components/edk2/MdePkg/Include/Base.h"
	.file 4 "/home/kapoagaeming/Downloads/spacemit-image-builder/components/edk2/MdePkg/Include/Protocol/SerialIo.h"
	.file 5 "/home/kapoagaeming/Downloads/spacemit-image-builder/components/edk2/MdePkg/Library/BaseSerialPortLibRiscVSbiLib/Common.h"
	.section	.note.GNU-stack,"",@progbits
