	.file	"DdrFrequency.c"
	.option pic
	.option norelax
	.attribute arch, "rv64i2p1_m2p0_a2p1_f2p2_d2p2_c2p0_zicsr2p0_zifencei2p0_zmmul1p0_zaamo1p0_zalrsc1p0_zca1p0_zcd1p0"
	.attribute unaligned_access, 0
	.attribute stack_align, 16
	.text
.Ltext0:
	.cfi_sections	.debug_frame
	.file 0 "/home/kapoagaeming/spacemit-image-builder/components/Build/Milk-V-Jupiter/RELEASE_GCC5/RISCV64/Silicon/Spacemit/K1/Drivers/PlatformInfoDxe/PlatformInfoDxe" "/home/kapoagaeming/spacemit-image-builder/components/edk2-platforms/Silicon/Spacemit/K1/Drivers/PlatformInfoDxe/DdrFrequency.c"
	.section	.data.FreqLevels,"aw"
	.align	3
	.type	FreqLevels, @object
	.size	FreqLevels, 224
FreqLevels:
	.word	0
	.word	0
	.word	1
	.word	3
	.word	0
	.word	600
	.word	0
	.word	0
	.word	1
	.word	0
	.word	1
	.word	3
	.word	0
	.word	600
	.word	0
	.word	0
	.word	2
	.word	0
	.word	1
	.word	2
	.word	0
	.word	800
	.word	0
	.word	0
	.word	3
	.word	0
	.word	0
	.word	2
	.word	0
	.word	1066
	.word	0
	.word	0
	.word	4
	.word	0
	.word	1
	.word	1
	.word	0
	.word	1200
	.word	0
	.word	1
	.word	5
	.word	1
	.word	0
	.word	1
	.word	0
	.word	1600
	.word	0
	.word	2
	.word	6
	.word	2
	.word	1
	.word	0
	.word	0
	.word	2400
	.word	1
	.word	3
	.section	.rodata
	.align	3
.LC0:
	.string	"ddr_datarate"
	.section	.text.UpdateDfcLevelArray,"ax",@progbits
	.align	1
	.type	UpdateDfcLevelArray, @function
UpdateDfcLevelArray:
.LFB0:
	.file 1 "/home/kapoagaeming/spacemit-image-builder/components/edk2-platforms/Silicon/Spacemit/K1/Drivers/PlatformInfoDxe/DdrFrequency.c"
	.loc 1 151 1
	.cfi_startproc
	addi	sp,sp,-48
	.cfi_def_cfa_offset 48
	sd	ra,40(sp)
	sd	s0,32(sp)
	.cfi_offset 1, -8
	.cfi_offset 8, -16
	addi	s0,sp,48
	.cfi_def_cfa 8, 0
	sd	a0,-40(s0)
	.loc 1 159 80
	lla	a5,FreqLevels
	lw	a4,212(a5)
	.loc 1 159 6
	li	a5,4096
	addi	a5,a5,-1430
	beq	a4,a5,.L6
	.loc 1 160 33
	ld	a5,-40(s0)
	ld	a5,8(a5)
	.loc 1 160 29
	addi	a4,s0,-28
	li	a3,4
	mv	a2,a4
	lla	a1,.LC0
	ld	a0,-40(s0)
	jalr	a5
.LVL0:
	mv	a5,a0
	.loc 1 160 7 discriminator 1
	blt	a5,zero,.L6
	.loc 1 168 16
	lw	a4,-28(s0)
	.loc 1 168 7
	li	a5,4096
	addi	a5,a5,-1430
	bne	a4,a5,.L6
	.loc 1 170 13
	li	a5,1333
	sw	a5,-24(s0)
	.loc 1 171 12
	sw	zero,-20(s0)
	.loc 1 171 5
	j	.L3
.L5:
	.loc 1 172 37
	lla	a4,FreqLevels
	lwu	a5,-20(s0)
	slli	a5,a5,5
	add	a5,a4,a5
	lw	a4,8(a5)
	.loc 1 172 10
	li	a5,1
	bne	a4,a5,.L4
	.loc 1 173 43
	lw	a5,-24(s0)
	slliw	a5,a5,1
	sext.w	a4,a5
	.loc 1 173 64
	lla	a3,FreqLevels
	lwu	a5,-20(s0)
	slli	a5,a5,5
	add	a5,a3,a5
	lw	a5,12(a5)
	.loc 1 173 72
	addiw	a5,a5,1
	sext.w	a5,a5
	.loc 1 173 48
	divuw	a5,a4,a5
	sext.w	a4,a5
	.loc 1 173 32
	lla	a3,FreqLevels
	lwu	a5,-20(s0)
	slli	a5,a5,5
	add	a5,a3,a5
	sw	a4,20(a5)
.L4:
	.loc 1 171 72 discriminator 2
	lw	a5,-20(s0)
	addiw	a5,a5,1
	sw	a5,-20(s0)
.L3:
	.loc 1 171 19 discriminator 1
	lw	a5,-20(s0)
	sext.w	a4,a5
	li	a5,6
	bleu	a4,a5,.L5
.L6:
	.loc 1 177 1
	nop
	ld	ra,40(sp)
	.cfi_restore 1
	ld	s0,32(sp)
	.cfi_restore 8
	.cfi_def_cfa 2, 48
	addi	sp,sp,48
	.cfi_def_cfa_offset 0
	jr	ra
	.cfi_endproc
.LFE0:
	.size	UpdateDfcLevelArray, .-UpdateDfcLevelArray
	.section	.text.GetCurFreqLevel,"ax",@progbits
	.align	1
	.type	GetCurFreqLevel, @function
GetCurFreqLevel:
.LFB1:
	.loc 1 184 1
	.cfi_startproc
	addi	sp,sp,-32
	.cfi_def_cfa_offset 32
	sd	ra,24(sp)
	sd	s0,16(sp)
	.cfi_offset 1, -8
	.cfi_offset 8, -16
	addi	s0,sp,32
	.cfi_def_cfa 8, 0
	.loc 1 185 18
	li	a5,444923904
	addi	a5,a5,1329
	slli	a0,a5,3
	call	MmioRead32@plt
	mv	a5,a0
	sw	a5,-20(s0)
	.loc 1 187 18
	lw	a5,-20(s0)
	srliw	a5,a5,1
	sext.w	a5,a5
	.loc 1 187 9
	andi	a5,a5,7
	sw	a5,-20(s0)
	.loc 1 189 10
	lw	a5,-20(s0)
	.loc 1 190 1
	mv	a0,a5
	ld	ra,24(sp)
	.cfi_restore 1
	ld	s0,16(sp)
	.cfi_restore 8
	.cfi_def_cfa 2, 32
	addi	sp,sp,32
	.cfi_def_cfa_offset 0
	jr	ra
	.cfi_endproc
.LFE1:
	.size	GetCurFreqLevel, .-GetCurFreqLevel
	.section	.text.FindDatarateFreqLevel,"ax",@progbits
	.align	1
	.type	FindDatarateFreqLevel, @function
FindDatarateFreqLevel:
.LFB2:
	.loc 1 197 1
	.cfi_startproc
	addi	sp,sp,-48
	.cfi_def_cfa_offset 48
	sd	ra,40(sp)
	sd	s0,32(sp)
	.cfi_offset 1, -8
	.cfi_offset 8, -16
	addi	s0,sp,48
	.cfi_def_cfa 8, 0
	mv	a5,a0
	sw	a5,-36(s0)
	.loc 1 200 10
	li	a5,6
	sw	a5,-20(s0)
	.loc 1 200 3
	j	.L10
.L13:
	.loc 1 201 34
	lla	a4,FreqLevels
	lw	a5,-20(s0)
	slli	a5,a5,5
	add	a5,a4,a5
	lw	a5,20(a5)
	.loc 1 201 8
	lw	a4,-36(s0)
	sext.w	a4,a4
	bltu	a4,a5,.L11
	.loc 1 202 27
	lla	a4,FreqLevels
	lw	a5,-20(s0)
	slli	a5,a5,5
	add	a5,a4,a5
	lw	a5,0(a5)
	j	.L12
.L11:
	.loc 1 200 75 discriminator 2
	lw	a5,-20(s0)
	addiw	a5,a5,-1
	sw	a5,-20(s0)
.L10:
	.loc 1 200 68 discriminator 1
	lw	a5,-20(s0)
	sext.w	a5,a5
	bge	a5,zero,.L13
	.loc 1 206 23
	lla	a5,FreqLevels
	lw	a5,32(a5)
.L12:
	.loc 1 207 1
	mv	a0,a5
	ld	ra,40(sp)
	.cfi_restore 1
	ld	s0,32(sp)
	.cfi_restore 8
	.cfi_def_cfa 2, 48
	addi	sp,sp,48
	.cfi_def_cfa_offset 0
	jr	ra
	.cfi_endproc
.LFE2:
	.size	FindDatarateFreqLevel, .-FindDatarateFreqLevel
	.section	.text.ConfigCore,"ax",@progbits
	.align	1
	.type	ConfigCore, @function
ConfigCore:
.LFB3:
	.loc 1 214 1
	.cfi_startproc
	addi	sp,sp,-32
	.cfi_def_cfa_offset 32
	sd	ra,24(sp)
	sd	s0,16(sp)
	.cfi_offset 1, -8
	.cfi_offset 8, -16
	addi	s0,sp,32
	.cfi_def_cfa 8, 0
	.loc 1 218 9
	li	a5,889851904
	addi	a5,a5,-1535
	slli	a0,a5,2
	call	MmioRead32@plt
	mv	a5,a0
	sw	a5,-20(s0)
	.loc 1 219 7
	lw	a5,-20(s0)
	mv	a4,a5
	li	a5,262144
	or	a5,a4,a5
	sw	a5,-20(s0)
	.loc 1 220 3
	lw	a5,-20(s0)
	mv	a1,a5
	li	a5,889851904
	addi	a5,a5,-1535
	slli	a0,a5,2
	call	MmioWrite32@plt
	.loc 1 223 9
	li	a5,222461952
	addi	a5,a5,651
	slli	a0,a5,4
	call	MmioRead32@plt
	mv	a5,a0
	sw	a5,-20(s0)
	.loc 1 224 7
	lw	a5,-20(s0)
	andi	a5,a5,-1025
	sw	a5,-20(s0)
	.loc 1 225 3
	lw	a5,-20(s0)
	mv	a1,a5
	li	a5,222461952
	addi	a5,a5,651
	slli	a0,a5,4
	call	MmioWrite32@plt
	.loc 1 226 1
	nop
	ld	ra,24(sp)
	.cfi_restore 1
	ld	s0,16(sp)
	.cfi_restore 8
	.cfi_def_cfa 2, 32
	addi	sp,sp,32
	.cfi_def_cfa_offset 0
	jr	ra
	.cfi_endproc
.LFE3:
	.size	ConfigCore, .-ConfigCore
	.section	.text.EnableDfcInt,"ax",@progbits
	.align	1
	.type	EnableDfcInt, @function
EnableDfcInt:
.LFB4:
	.loc 1 234 1
	.cfi_startproc
	addi	sp,sp,-48
	.cfi_def_cfa_offset 48
	sd	ra,40(sp)
	sd	s0,32(sp)
	.cfi_offset 1, -8
	.cfi_offset 8, -16
	addi	s0,sp,48
	.cfi_def_cfa 8, 0
	mv	a5,a0
	sb	a5,-33(s0)
	.loc 1 237 9
	li	a5,444923904
	addi	a5,a5,1299
	slli	a0,a5,3
	call	MmioRead32@plt
	mv	a5,a0
	sw	a5,-20(s0)
	.loc 1 238 6
	lbu	a5,-33(s0)
	andi	a5,a5,0xff
	beq	a5,zero,.L16
	.loc 1 239 9
	lw	a5,-20(s0)
	mv	a4,a5
	li	a5,32768
	or	a5,a4,a5
	sw	a5,-20(s0)
	j	.L17
.L16:
	.loc 1 241 9
	lw	a5,-20(s0)
	mv	a4,a5
	li	a5,-32768
	addi	a5,a5,-1
	and	a5,a4,a5
	sw	a5,-20(s0)
.L17:
	.loc 1 244 3
	lw	a5,-20(s0)
	mv	a1,a5
	li	a5,444923904
	addi	a5,a5,1299
	slli	a0,a5,3
	call	MmioWrite32@plt
	.loc 1 245 1
	nop
	ld	ra,40(sp)
	.cfi_restore 1
	ld	s0,32(sp)
	.cfi_restore 8
	.cfi_def_cfa 2, 48
	addi	sp,sp,48
	.cfi_def_cfa_offset 0
	jr	ra
	.cfi_endproc
.LFE4:
	.size	EnableDfcInt, .-EnableDfcInt
	.section	.text.ClearDfcIntStatus,"ax",@progbits
	.align	1
	.type	ClearDfcIntStatus, @function
ClearDfcIntStatus:
.LFB5:
	.loc 1 253 1
	.cfi_startproc
	addi	sp,sp,-32
	.cfi_def_cfa_offset 32
	sd	ra,24(sp)
	sd	s0,16(sp)
	.cfi_offset 1, -8
	.cfi_offset 8, -16
	addi	s0,sp,32
	.cfi_def_cfa 8, 0
	.loc 1 256 9
	li	a5,111230976
	addi	a5,a5,325
	slli	a0,a5,5
	call	MmioRead32@plt
	mv	a5,a0
	sw	a5,-20(s0)
	.loc 1 257 7
	lw	a5,-20(s0)
	mv	a4,a5
	li	a5,-32768
	addi	a5,a5,-3
	and	a5,a4,a5
	sw	a5,-20(s0)
	.loc 1 258 3
	lw	a5,-20(s0)
	mv	a1,a5
	li	a5,111230976
	addi	a5,a5,325
	slli	a0,a5,5
	call	MmioWrite32@plt
	.loc 1 259 1
	nop
	ld	ra,24(sp)
	.cfi_restore 1
	ld	s0,16(sp)
	.cfi_restore 8
	.cfi_def_cfa 2, 32
	addi	sp,sp,32
	.cfi_def_cfa_offset 0
	jr	ra
	.cfi_endproc
.LFE5:
	.size	ClearDfcIntStatus, .-ClearDfcIntStatus
	.section	.text.ChangeDdrcFreq,"ax",@progbits
	.align	1
	.type	ChangeDdrcFreq, @function
ChangeDdrcFreq:
.LFB6:
	.loc 1 266 1
	.cfi_startproc
	addi	sp,sp,-48
	.cfi_def_cfa_offset 48
	sd	ra,40(sp)
	sd	s0,32(sp)
	.cfi_offset 1, -8
	.cfi_offset 8, -16
	addi	s0,sp,48
	.cfi_def_cfa 8, 0
	mv	a5,a0
	sw	a5,-36(s0)
	.loc 1 269 6
	lw	a5,-36(s0)
	sext.w	a4,a5
	li	a5,6
	bleu	a4,a5,.L20
	.loc 1 271 12
	li	a5,-1
	slli	a5,a5,63
	addi	a5,a5,2
	j	.L21
.L20:
	.loc 1 275 11
	li	a5,1000
	sw	a5,-20(s0)
	.loc 1 276 9
	j	.L22
.L25:
	.loc 1 277 11
	li	a5,444923904
	addi	a5,a5,1329
	slli	a0,a5,3
	call	MmioRead32@plt
	mv	a5,a0
	.loc 1 277 50 discriminator 1
	andi	a5,a5,1
	sext.w	a5,a5
	.loc 1 277 8 discriminator 1
	beq	a5,zero,.L31
	.loc 1 281 8
	la	a5,gBS
	ld	a5,0(a5)
	ld	a5,248(a5)
	.loc 1 281 5
	li	a0,10
	jalr	a5
.LVL1:
.L22:
	.loc 1 276 10
	lw	a5,-20(s0)
	addiw	a5,a5,-1
	sw	a5,-20(s0)
	lw	a5,-20(s0)
	sext.w	a5,a5
	bne	a5,zero,.L25
	j	.L24
.L31:
	.loc 1 278 7
	nop
.L24:
	.loc 1 284 6
	lw	a5,-20(s0)
	sext.w	a5,a5
	bne	a5,zero,.L26
	.loc 1 289 12
	li	a5,-1
	slli	a5,a5,63
	addi	a5,a5,18
	j	.L21
.L26:
	.loc 1 293 58
	lw	a5,-36(s0)
	slliw	a5,a5,1
	sext.w	a5,a5
	andi	a5,a5,14
	sext.w	a5,a5
	.loc 1 293 3
	ori	a5,a5,1
	sext.w	a5,a5
	mv	a1,a5
	li	a5,27807744
	addi	a5,a5,83
	slli	a0,a5,7
	call	MmioWrite32@plt
	.loc 1 295 11
	li	a5,1000
	sw	a5,-20(s0)
	.loc 1 296 9
	j	.L27
.L29:
	.loc 1 297 8
	la	a5,gBS
	ld	a5,0(a5)
	ld	a5,248(a5)
	.loc 1 297 5
	li	a0,10
	jalr	a5
.LVL2:
	.loc 1 298 11
	li	a5,444923904
	addi	a5,a5,1329
	slli	a0,a5,3
	call	MmioRead32@plt
	mv	a5,a0
	.loc 1 298 50 discriminator 1
	andi	a5,a5,1
	sext.w	a5,a5
	.loc 1 298 8 discriminator 1
	beq	a5,zero,.L32
.L27:
	.loc 1 296 10
	lw	a5,-20(s0)
	addiw	a5,a5,-1
	sw	a5,-20(s0)
	lw	a5,-20(s0)
	sext.w	a5,a5
	bne	a5,zero,.L29
	j	.L28
.L32:
	.loc 1 299 7
	nop
.L28:
	.loc 1 303 6
	lw	a5,-20(s0)
	sext.w	a5,a5
	bne	a5,zero,.L30
	.loc 1 305 12
	li	a5,-1
	slli	a5,a5,63
	addi	a5,a5,18
	j	.L21
.L30:
	.loc 1 308 10
	li	a5,0
.L21:
	.loc 1 309 1
	mv	a0,a5
	ld	ra,40(sp)
	.cfi_restore 1
	ld	s0,32(sp)
	.cfi_restore 8
	.cfi_def_cfa 2, 48
	addi	sp,sp,48
	.cfi_def_cfa_offset 0
	jr	ra
	.cfi_endproc
.LFE6:
	.size	ChangeDdrcFreq, .-ChangeDdrcFreq
	.section	.text.WaitFreqChangeDone,"ax",@progbits
	.align	1
	.type	WaitFreqChangeDone, @function
WaitFreqChangeDone:
.LFB7:
	.loc 1 316 1
	.cfi_startproc
	addi	sp,sp,-32
	.cfi_def_cfa_offset 32
	sd	ra,24(sp)
	sd	s0,16(sp)
	.cfi_offset 1, -8
	.cfi_offset 8, -16
	addi	s0,sp,32
	.cfi_def_cfa 8, 0
	.loc 1 317 15
	li	a5,100
	sw	a5,-20(s0)
	.loc 1 319 9
	j	.L34
.L36:
	.loc 1 320 8
	la	a5,gBS
	ld	a5,0(a5)
	ld	a5,248(a5)
	.loc 1 320 5
	li	a0,10
	jalr	a5
.LVL3:
	.loc 1 321 11
	li	a5,111230976
	addi	a5,a5,325
	slli	a0,a5,5
	call	MmioRead32@plt
	mv	a5,a0
	sw	a5,-24(s0)
	.loc 1 322 13
	lw	a5,-24(s0)
	mv	a4,a5
	li	a5,32768
	and	a5,a4,a5
	sext.w	a5,a5
	.loc 1 322 8
	bne	a5,zero,.L39
.L34:
	.loc 1 319 10
	lw	a5,-20(s0)
	addiw	a5,a5,-1
	sw	a5,-20(s0)
	lw	a5,-20(s0)
	sext.w	a5,a5
	bne	a5,zero,.L36
	j	.L35
.L39:
	.loc 1 323 7
	nop
.L35:
	.loc 1 327 6
	lw	a5,-20(s0)
	sext.w	a5,a5
	bne	a5,zero,.L37
	.loc 1 329 12
	li	a5,-1
	slli	a5,a5,63
	addi	a5,a5,18
	j	.L38
.L37:
	.loc 1 332 10
	li	a5,0
.L38:
	.loc 1 333 1
	mv	a0,a5
	ld	ra,24(sp)
	.cfi_restore 1
	ld	s0,16(sp)
	.cfi_restore 8
	.cfi_def_cfa 2, 32
	addi	sp,sp,32
	.cfi_def_cfa_offset 0
	jr	ra
	.cfi_endproc
.LFE7:
	.size	WaitFreqChangeDone, .-WaitFreqChangeDone
	.section	.text.ChangeDdrDatarate,"ax",@progbits
	.align	1
	.globl	ChangeDdrDatarate
	.type	ChangeDdrDatarate, @function
ChangeDdrDatarate:
.LFB8:
	.loc 1 342 1
	.cfi_startproc
	addi	sp,sp,-80
	.cfi_def_cfa_offset 80
	sd	ra,72(sp)
	sd	s0,64(sp)
	.cfi_offset 1, -8
	.cfi_offset 8, -16
	addi	s0,sp,80
	.cfi_def_cfa 8, 0
	sd	a0,-56(s0)
	sd	a1,-64(s0)
	sd	a2,-72(s0)
	sd	a3,-80(s0)
	.loc 1 347 3
	ld	a0,-56(s0)
	call	UpdateDfcLevelArray
	.loc 1 349 14
	ld	a5,-72(s0)
	.loc 1 349 12
	sw	a5,-20(s0)
	.loc 1 350 14
	call	GetCurFreqLevel
	mv	a5,a0
	sw	a5,-24(s0)
	.loc 1 351 15
	lw	a5,-20(s0)
	mv	a0,a5
	call	FindDatarateFreqLevel
	mv	a5,a0
	sw	a5,-28(s0)
	.loc 1 353 6
	lw	a5,-24(s0)
	mv	a4,a5
	lw	a5,-28(s0)
	sext.w	a4,a4
	sext.w	a5,a5
	bne	a4,a5,.L41
	.loc 1 355 12
	li	a5,0
	j	.L42
.L41:
	.loc 1 358 3
	call	ConfigCore
	.loc 1 361 3
	li	a0,1
	call	EnableDfcInt
	.loc 1 362 12
	lw	a5,-28(s0)
	mv	a0,a5
	call	ChangeDdrcFreq
	sd	a0,-40(s0)
	.loc 1 363 34
	ld	a5,-40(s0)
	.loc 1 363 6
	bge	a5,zero,.L43
	.loc 1 365 12
	ld	a5,-40(s0)
	j	.L42
.L43:
	.loc 1 369 12
	call	WaitFreqChangeDone
	sd	a0,-40(s0)
	.loc 1 370 34
	ld	a5,-40(s0)
	.loc 1 370 6
	bge	a5,zero,.L44
	.loc 1 372 12
	ld	a5,-40(s0)
	j	.L42
.L44:
	.loc 1 375 3
	call	ClearDfcIntStatus
	.loc 1 376 3
	li	a0,0
	call	EnableDfcInt
	.loc 1 380 10
	ld	a5,-40(s0)
.L42:
	.loc 1 381 1
	mv	a0,a5
	ld	ra,72(sp)
	.cfi_restore 1
	ld	s0,64(sp)
	.cfi_restore 8
	.cfi_def_cfa 2, 80
	addi	sp,sp,80
	.cfi_def_cfa_offset 0
	jr	ra
	.cfi_endproc
.LFE8:
	.size	ChangeDdrDatarate, .-ChangeDdrDatarate
	.text
.Letext0:
	.file 2 "/home/kapoagaeming/spacemit-image-builder/components/edk2/MdePkg/Include/RiscV64/ProcessorBind.h"
	.file 3 "/home/kapoagaeming/spacemit-image-builder/components/edk2/MdePkg/Include/Base.h"
	.file 4 "/home/kapoagaeming/spacemit-image-builder/components/edk2/MdePkg/Include/Uefi/UefiBaseType.h"
	.file 5 "/home/kapoagaeming/spacemit-image-builder/components/edk2/MdePkg/Include/Uefi/UefiMultiPhase.h"
	.file 6 "/home/kapoagaeming/spacemit-image-builder/components/edk2/MdePkg/Include/Protocol/DevicePath.h"
	.file 7 "/home/kapoagaeming/spacemit-image-builder/components/edk2/MdePkg/Include/Uefi/UefiSpec.h"
	.file 8 "/home/kapoagaeming/spacemit-image-builder/components/edk2-platforms/Silicon/Spacemit/Include/Protocol/PlatformInfo.h"
	.file 9 "/home/kapoagaeming/spacemit-image-builder/components/edk2/MdePkg/Include/Library/IoLib.h"
	.file 10 "/home/kapoagaeming/spacemit-image-builder/components/edk2/MdePkg/Include/Library/UefiBootServicesTableLib.h"
	.section	.note.GNU-stack,"",@progbits
