	.file	"PciHostBridgeLib.c"
	.option pic
	.option norelax
	.attribute arch, "rv64i2p1_m2p0_a2p1_f2p2_d2p2_c2p0_zicsr2p0_zifencei2p0_zmmul1p0_zaamo1p0_zalrsc1p0_zca1p0_zcd1p0"
	.attribute unaligned_access, 0
	.attribute stack_align, 16
	.text
.Ltext0:
	.cfi_sections	.debug_frame
	.file 0 "/home/kapoagaeming/spacemit-image-builder/components/Build/Milk-V-Jupiter/RELEASE_GCC5/RISCV64/Silicon/Spacemit/Library/PciHostBridgeLib/PciHostBridgeLib" "/home/kapoagaeming/spacemit-image-builder/components/edk2-platforms/Silicon/Spacemit/Library/PciHostBridgeLib/PciHostBridgeLib.c"
	.section	.rodata.mEfiPciRootBridgeDevicePathTemplate,"a"
	.align	3
	.type	mEfiPciRootBridgeDevicePathTemplate, @object
	.size	mEfiPciRootBridgeDevicePathTemplate, 16
mEfiPciRootBridgeDevicePathTemplate:
	.byte	2
	.byte	1
	.string	"\f"
	.word	167985616
	.word	0
	.byte	127
	.byte	-1
	.string	"\004"
	.section	.rodata
	.align	3
.LC0:
	.string	"M"
	.string	"e"
	.string	"m"
	.zero	2
	.align	3
.LC1:
	.string	"I"
	.string	"/"
	.string	"O"
	.zero	2
	.align	3
.LC2:
	.string	"B"
	.string	"u"
	.string	"s"
	.zero	2
	.section	.data.rel.local.mPciHostBridgeLibAcpiAddressSpaceTypeStr,"aw"
	.align	3
	.type	mPciHostBridgeLibAcpiAddressSpaceTypeStr, @object
	.size	mPciHostBridgeLibAcpiAddressSpaceTypeStr, 24
mPciHostBridgeLibAcpiAddressSpaceTypeStr:
	.dword	.LC0
	.dword	.LC1
	.dword	.LC2
	.section	.text.PrintRootBridgeResources,"ax",@progbits
	.align	1
	.type	PrintRootBridgeResources, @function
PrintRootBridgeResources:
.LFB0:
	.file 1 "/home/kapoagaeming/spacemit-image-builder/components/edk2-platforms/Silicon/Spacemit/Library/PciHostBridgeLib/PciHostBridgeLib.c"
	.loc 1 65 1
	.cfi_startproc
	addi	sp,sp,-48
	.cfi_def_cfa_offset 48
	sd	ra,40(sp)
	sd	s0,32(sp)
	.cfi_offset 1, -8
	.cfi_offset 8, -16
	addi	s0,sp,48
	.cfi_def_cfa 8, 0
	sd	a0,-40(s0)
	.loc 1 66 12
	call	DebugCodeEnabled@plt
	mv	a5,a0
	.loc 1 66 11 discriminator 1
	beq	a5,zero,.L7
.LBB2:
	.loc 1 69 8
	ld	a5,-40(s0)
	beq	a5,zero,.L8
	.loc 1 75 16
	sd	zero,-24(s0)
	.loc 1 75 5
	j	.L5
.L6:
	.loc 1 75 57 discriminator 2
	ld	a5,-24(s0)
	addi	a5,a5,1
	sd	a5,-24(s0)
.L5:
	.loc 1 75 40 discriminator 1
	ld	a5,-40(s0)
	lhu	a5,0(a5)
	mv	a4,a5
	.loc 1 75 27 discriminator 1
	ld	a5,-24(s0)
	bltu	a5,a4,.L6
.L7:
.LBE2:
	.loc 1 100 3
	nop
	j	.L1
.L8:
.LBB3:
	.loc 1 70 7
	nop
.L1:
.LBE3:
	.loc 1 101 1
	ld	ra,40(sp)
	.cfi_restore 1
	ld	s0,32(sp)
	.cfi_restore 8
	.cfi_def_cfa 2, 48
	addi	sp,sp,48
	.cfi_def_cfa_offset 0
	jr	ra
	.cfi_endproc
.LFE0:
	.size	PrintRootBridgeResources, .-PrintRootBridgeResources
	.section	.text.PciHostBridgeMapGcdMmioSpace,"ax",@progbits
	.align	1
	.type	PciHostBridgeMapGcdMmioSpace, @function
PciHostBridgeMapGcdMmioSpace:
.LFB1:
	.loc 1 117 1
	.cfi_startproc
	addi	sp,sp,-48
	.cfi_def_cfa_offset 48
	sd	ra,40(sp)
	sd	s0,32(sp)
	.cfi_offset 1, -8
	.cfi_offset 8, -16
	addi	s0,sp,48
	.cfi_def_cfa 8, 0
	sd	a0,-40(s0)
	sd	a1,-48(s0)
	.loc 1 120 15
	la	a5,gDS
	ld	a5,0(a5)
	ld	a5,24(a5)
	.loc 1 120 12
	li	a3,1
	ld	a2,-48(s0)
	ld	a1,-40(s0)
	li	a0,3
	jalr	a5
.LVL0:
	sd	a0,-24(s0)
	.loc 1 126 34
	ld	a5,-24(s0)
	.loc 1 126 6
	blt	a5,zero,.L12
	.loc 1 137 15
	la	a5,gDS
	ld	a5,0(a5)
	ld	a5,64(a5)
	.loc 1 137 12
	li	a2,1
	ld	a1,-48(s0)
	ld	a0,-40(s0)
	jalr	a5
.LVL1:
	sd	a0,-24(s0)
	.loc 1 148 3
	j	.L9
.L12:
	.loc 1 134 5
	nop
.L9:
	.loc 1 149 1
	ld	ra,40(sp)
	.cfi_restore 1
	ld	s0,32(sp)
	.cfi_restore 8
	.cfi_def_cfa 2, 48
	addi	sp,sp,48
	.cfi_def_cfa_offset 0
	jr	ra
	.cfi_endproc
.LFE1:
	.size	PciHostBridgeMapGcdMmioSpace, .-PciHostBridgeMapGcdMmioSpace
	.section	.text.PciHostBridgeGetRootBridges,"ax",@progbits
	.align	1
	.globl	PciHostBridgeGetRootBridges
	.type	PciHostBridgeGetRootBridges, @function
PciHostBridgeGetRootBridges:
.LFB2:
	.loc 1 166 1
	.cfi_startproc
	addi	sp,sp,-96
	.cfi_def_cfa_offset 96
	sd	ra,88(sp)
	sd	s0,80(sp)
	.cfi_offset 1, -8
	.cfi_offset 8, -16
	addi	s0,sp,96
	.cfi_def_cfa 8, 0
	sd	a0,-88(s0)
	.loc 1 175 9
	sd	zero,-24(s0)
	.loc 1 176 20
	sd	zero,-56(s0)
	.loc 1 177 19
	sd	zero,-32(s0)
	.loc 1 178 15
	sd	zero,-64(s0)
	.loc 1 179 14
	sd	zero,-72(s0)
	.loc 1 181 6
	ld	a5,-88(s0)
	bne	a5,zero,.L14
	.loc 1 182 12
	li	a5,0
	j	.L15
.L14:
	.loc 1 185 10
	ld	a5,-88(s0)
	sd	zero,0(a5)
	.loc 1 187 20
	la	a5,_gPcd_FixedAtBuild_PcdBoardPciRootBridgeResourceConfigTable
	sd	a5,-56(s0)
	.loc 1 188 6
	ld	a5,-56(s0)
	bne	a5,zero,.L16
	.loc 1 189 12
	li	a5,0
	j	.L15
.L16:
	.loc 1 192 3
	ld	a0,-56(s0)
	call	PrintRootBridgeResources
	.loc 1 194 19
	sd	zero,-32(s0)
	.loc 1 195 19
	sd	zero,-40(s0)
	.loc 1 195 3
	j	.L17
.L19:
	.loc 1 196 48
	ld	a4,-56(s0)
	ld	a3,-40(s0)
	li	a5,168
	mul	a5,a3,a5
	add	a5,a4,a5
	lbu	a5,168(a5)
	.loc 1 196 8
	beq	a5,zero,.L18
	.loc 1 197 22
	ld	a5,-32(s0)
	addi	a5,a5,1
	sd	a5,-32(s0)
.L18:
	.loc 1 195 75 discriminator 2
	ld	a5,-40(s0)
	addi	a5,a5,1
	sd	a5,-40(s0)
.L17:
	.loc 1 195 53 discriminator 1
	ld	a5,-56(s0)
	lhu	a5,0(a5)
	mv	a4,a5
	.loc 1 195 35 discriminator 1
	ld	a5,-40(s0)
	blt	a5,a4,.L19
	.loc 1 201 6
	ld	a5,-32(s0)
	bne	a5,zero,.L20
	.loc 1 202 12
	li	a5,0
	j	.L15
.L20:
	.loc 1 205 71
	ld	a4,-32(s0)
	mv	a5,a4
	slli	a5,a5,1
	add	a5,a5,a4
	slli	a5,a5,6
	.loc 1 205 37
	mv	a0,a5
	call	AllocateZeroPool@plt
	sd	a0,-64(s0)
	.loc 1 206 6
	ld	a5,-64(s0)
	bne	a5,zero,.L21
	.loc 1 207 12
	li	a5,0
	j	.L15
.L21:
	.loc 1 210 22
	li	a5,-1
	sd	a5,-48(s0)
	.loc 1 211 14
	sd	zero,-24(s0)
	.loc 1 211 3
	j	.L22
.L44:
	.loc 1 215 21
	ld	a5,-48(s0)
	addi	a5,a5,1
	sd	a5,-40(s0)
	.loc 1 215 5
	j	.L23
.L26:
	.loc 1 216 50
	ld	a4,-56(s0)
	ld	a3,-40(s0)
	li	a5,168
	mul	a5,a3,a5
	add	a5,a4,a5
	lbu	a5,168(a5)
	.loc 1 216 10
	beq	a5,zero,.L24
	.loc 1 217 28
	ld	a5,-40(s0)
	sd	a5,-48(s0)
	.loc 1 218 9
	j	.L25
.L24:
	.loc 1 215 98 discriminator 2
	ld	a5,-40(s0)
	addi	a5,a5,1
	sd	a5,-40(s0)
.L23:
	.loc 1 215 76 discriminator 1
	ld	a5,-56(s0)
	lhu	a5,0(a5)
	mv	a4,a5
	.loc 1 215 58 discriminator 1
	ld	a5,-40(s0)
	blt	a5,a4,.L26
.L25:
	.loc 1 221 39
	ld	a5,-56(s0)
	lhu	a5,0(a5)
	mv	a4,a5
	.loc 1 221 8
	ld	a5,-40(s0)
	bge	a5,a4,.L45
	.loc 1 225 73
	ld	a4,-56(s0)
	ld	a3,-40(s0)
	li	a5,168
	mul	a5,a3,a5
	add	a5,a4,a5
	lhu	a3,8(a5)
	.loc 1 225 16
	ld	a4,-24(s0)
	mv	a5,a4
	slli	a5,a5,1
	add	a5,a5,a4
	slli	a5,a5,6
	mv	a4,a5
	ld	a5,-64(s0)
	add	a5,a5,a4
	.loc 1 225 73
	sext.w	a4,a3
	.loc 1 225 32
	sw	a4,0(a5)
	.loc 1 226 16
	ld	a4,-24(s0)
	mv	a5,a4
	slli	a5,a5,1
	add	a5,a5,a4
	slli	a5,a5,6
	mv	a4,a5
	ld	a5,-64(s0)
	add	a5,a5,a4
	.loc 1 226 33
	sd	zero,8(a5)
	.loc 1 227 16
	ld	a4,-24(s0)
	mv	a5,a4
	slli	a5,a5,1
	add	a5,a5,a4
	slli	a5,a5,6
	mv	a4,a5
	ld	a5,-64(s0)
	add	a5,a5,a4
	.loc 1 227 35
	sd	zero,16(a5)
	.loc 1 228 16
	ld	a4,-24(s0)
	mv	a5,a4
	slli	a5,a5,1
	add	a5,a5,a4
	slli	a5,a5,6
	mv	a4,a5
	ld	a5,-64(s0)
	add	a5,a5,a4
	.loc 1 228 35
	li	a4,1
	sb	a4,24(a5)
	.loc 1 229 16
	ld	a4,-24(s0)
	mv	a5,a4
	slli	a5,a5,1
	add	a5,a5,a4
	slli	a5,a5,6
	mv	a4,a5
	ld	a5,-64(s0)
	add	a5,a5,a4
	.loc 1 229 46
	sb	zero,25(a5)
	.loc 1 230 16
	ld	a4,-24(s0)
	mv	a5,a4
	slli	a5,a5,1
	add	a5,a5,a4
	slli	a5,a5,6
	mv	a4,a5
	ld	a5,-64(s0)
	add	a5,a5,a4
	.loc 1 230 41
	sb	zero,26(a5)
	.loc 1 232 55
	ld	a4,-56(s0)
	ld	a3,-40(s0)
	li	a5,168
	mul	a5,a3,a5
	add	a5,a4,a5
	ld	a5,128(a5)
	.loc 1 232 8
	bne	a5,zero,.L29
	.loc 1 233 57
	ld	a4,-56(s0)
	ld	a3,-40(s0)
	li	a5,168
	mul	a5,a3,a5
	add	a5,a4,a5
	ld	a5,152(a5)
	.loc 1 232 9 discriminator 1
	bne	a5,zero,.L29
	.loc 1 234 18
	ld	a4,-24(s0)
	mv	a5,a4
	slli	a5,a5,1
	add	a5,a5,a4
	slli	a5,a5,6
	mv	a4,a5
	ld	a5,-64(s0)
	add	a5,a5,a4
	.loc 1 234 25
	ld	a3,32(a5)
	.loc 1 234 18
	ld	a4,-24(s0)
	mv	a5,a4
	slli	a5,a5,1
	add	a5,a5,a4
	slli	a5,a5,6
	mv	a4,a5
	ld	a5,-64(s0)
	add	a5,a5,a4
	.loc 1 234 47
	ori	a4,a3,1
	sd	a4,32(a5)
.L29:
	.loc 1 236 54
	ld	a4,-56(s0)
	ld	a3,-40(s0)
	li	a5,168
	mul	a5,a3,a5
	add	a5,a4,a5
	ld	a5,104(a5)
	.loc 1 236 8
	bne	a5,zero,.L30
	.loc 1 237 55
	ld	a4,-56(s0)
	ld	a3,-40(s0)
	li	a5,168
	mul	a5,a3,a5
	add	a5,a4,a5
	ld	a5,152(a5)
	.loc 1 236 63 discriminator 1
	beq	a5,zero,.L31
.L30:
	.loc 1 238 18
	ld	a4,-24(s0)
	mv	a5,a4
	slli	a5,a5,1
	add	a5,a5,a4
	slli	a5,a5,6
	mv	a4,a5
	ld	a5,-64(s0)
	add	a5,a5,a4
	.loc 1 238 25
	ld	a3,32(a5)
	.loc 1 238 18
	ld	a4,-24(s0)
	mv	a5,a4
	slli	a5,a5,1
	add	a5,a5,a4
	slli	a5,a5,6
	mv	a4,a5
	ld	a5,-64(s0)
	add	a5,a5,a4
	.loc 1 238 47
	ori	a4,a3,2
	sd	a4,32(a5)
.L31:
	.loc 1 241 16
	ld	a4,-24(s0)
	mv	a5,a4
	slli	a5,a5,1
	add	a5,a5,a4
	slli	a5,a5,6
	mv	a4,a5
	ld	a5,-64(s0)
	add	a4,a5,a4
	.loc 1 241 74
	ld	a3,-56(s0)
	ld	a2,-40(s0)
	li	a5,168
	mul	a5,a2,a5
	add	a5,a3,a5
	ld	a5,32(a5)
	.loc 1 241 33
	sd	a5,40(a4)
	.loc 1 242 16
	ld	a4,-24(s0)
	mv	a5,a4
	slli	a5,a5,1
	add	a5,a5,a4
	slli	a5,a5,6
	mv	a4,a5
	ld	a5,-64(s0)
	add	a4,a5,a4
	.loc 1 242 75
	ld	a3,-56(s0)
	ld	a2,-40(s0)
	li	a5,168
	mul	a5,a2,a5
	add	a5,a3,a5
	ld	a5,40(a5)
	.loc 1 242 34
	sd	a5,48(a4)
	.loc 1 244 51
	ld	a4,-56(s0)
	ld	a3,-40(s0)
	li	a5,168
	mul	a5,a3,a5
	add	a5,a4,a5
	ld	a5,56(a5)
	.loc 1 244 8
	beq	a5,zero,.L32
	.loc 1 245 18
	ld	a4,-24(s0)
	mv	a5,a4
	slli	a5,a5,1
	add	a5,a5,a4
	slli	a5,a5,6
	mv	a4,a5
	ld	a5,-64(s0)
	add	a4,a5,a4
	.loc 1 245 78
	ld	a3,-56(s0)
	ld	a2,-40(s0)
	li	a5,168
	mul	a5,a2,a5
	add	a5,a3,a5
	ld	a5,48(a5)
	.loc 1 245 34
	sd	a5,64(a4)
	.loc 1 246 79
	ld	a4,-56(s0)
	ld	a3,-40(s0)
	li	a5,168
	mul	a5,a3,a5
	add	a5,a4,a5
	ld	a4,48(a5)
	.loc 1 246 132
	ld	a3,-56(s0)
	ld	a2,-40(s0)
	li	a5,168
	mul	a5,a2,a5
	add	a5,a3,a5
	ld	a5,56(a5)
	.loc 1 246 88
	add	a3,a4,a5
	.loc 1 246 18
	ld	a4,-24(s0)
	mv	a5,a4
	slli	a5,a5,1
	add	a5,a5,a4
	slli	a5,a5,6
	mv	a4,a5
	ld	a5,-64(s0)
	add	a5,a5,a4
	.loc 1 246 141
	addi	a4,a3,-1
	.loc 1 246 35
	sd	a4,72(a5)
	.loc 1 247 173
	ld	a4,-56(s0)
	ld	a3,-40(s0)
	li	a5,168
	mul	a5,a3,a5
	add	a5,a4,a5
	ld	a2,48(a5)
	.loc 1 247 120
	ld	a4,-56(s0)
	ld	a3,-40(s0)
	li	a5,168
	mul	a5,a3,a5
	add	a5,a4,a5
	ld	a3,64(a5)
	.loc 1 247 18
	ld	a4,-24(s0)
	mv	a5,a4
	slli	a5,a5,1
	add	a5,a5,a4
	slli	a5,a5,6
	mv	a4,a5
	ld	a5,-64(s0)
	add	a5,a5,a4
	.loc 1 247 183
	sub	a4,a2,a3
	.loc 1 247 41
	sd	a4,80(a5)
	j	.L33
.L32:
	.loc 1 249 18
	ld	a4,-24(s0)
	mv	a5,a4
	slli	a5,a5,1
	add	a5,a5,a4
	slli	a5,a5,6
	mv	a4,a5
	ld	a5,-64(s0)
	add	a5,a5,a4
	.loc 1 249 34
	li	a4,-1
	sd	a4,64(a5)
	.loc 1 250 18
	ld	a4,-24(s0)
	mv	a5,a4
	slli	a5,a5,1
	add	a5,a5,a4
	slli	a5,a5,6
	mv	a4,a5
	ld	a5,-64(s0)
	add	a5,a5,a4
	.loc 1 250 35
	sd	zero,72(a5)
.L33:
	.loc 1 252 52
	ld	a4,-56(s0)
	ld	a3,-40(s0)
	li	a5,168
	mul	a5,a3,a5
	add	a5,a4,a5
	ld	a5,80(a5)
	.loc 1 252 8
	beq	a5,zero,.L34
	.loc 1 253 18
	ld	a4,-24(s0)
	mv	a5,a4
	slli	a5,a5,1
	add	a5,a5,a4
	slli	a5,a5,6
	mv	a4,a5
	ld	a5,-64(s0)
	add	a4,a5,a4
	.loc 1 253 80
	ld	a3,-56(s0)
	ld	a2,-40(s0)
	li	a5,168
	mul	a5,a2,a5
	add	a5,a3,a5
	ld	a5,72(a5)
	.loc 1 253 35
	sd	a5,88(a4)
	.loc 1 254 81
	ld	a4,-56(s0)
	ld	a3,-40(s0)
	li	a5,168
	mul	a5,a3,a5
	add	a5,a4,a5
	ld	a4,72(a5)
	.loc 1 254 135
	ld	a3,-56(s0)
	ld	a2,-40(s0)
	li	a5,168
	mul	a5,a2,a5
	add	a5,a3,a5
	ld	a5,80(a5)
	.loc 1 254 90
	add	a3,a4,a5
	.loc 1 254 18
	ld	a4,-24(s0)
	mv	a5,a4
	slli	a5,a5,1
	add	a5,a5,a4
	slli	a5,a5,6
	mv	a4,a5
	ld	a5,-64(s0)
	add	a5,a5,a4
	.loc 1 254 144
	addi	a4,a3,-1
	.loc 1 254 36
	sd	a4,96(a5)
	.loc 1 255 176
	ld	a4,-56(s0)
	ld	a3,-40(s0)
	li	a5,168
	mul	a5,a3,a5
	add	a5,a4,a5
	ld	a2,72(a5)
	.loc 1 255 122
	ld	a4,-56(s0)
	ld	a3,-40(s0)
	li	a5,168
	mul	a5,a3,a5
	add	a5,a4,a5
	ld	a3,88(a5)
	.loc 1 255 18
	ld	a4,-24(s0)
	mv	a5,a4
	slli	a5,a5,1
	add	a5,a5,a4
	slli	a5,a5,6
	mv	a4,a5
	ld	a5,-64(s0)
	add	a5,a5,a4
	.loc 1 255 186
	sub	a4,a2,a3
	.loc 1 255 42
	sd	a4,104(a5)
	j	.L35
.L34:
	.loc 1 257 18
	ld	a4,-24(s0)
	mv	a5,a4
	slli	a5,a5,1
	add	a5,a5,a4
	slli	a5,a5,6
	mv	a4,a5
	ld	a5,-64(s0)
	add	a5,a5,a4
	.loc 1 257 35
	li	a4,-1
	sd	a4,88(a5)
	.loc 1 258 18
	ld	a4,-24(s0)
	mv	a5,a4
	slli	a5,a5,1
	add	a5,a5,a4
	slli	a5,a5,6
	mv	a4,a5
	ld	a5,-64(s0)
	add	a5,a5,a4
	.loc 1 258 36
	sd	zero,96(a5)
.L35:
	.loc 1 260 54
	ld	a4,-56(s0)
	ld	a3,-40(s0)
	li	a5,168
	mul	a5,a3,a5
	add	a5,a4,a5
	ld	a5,104(a5)
	.loc 1 260 8
	beq	a5,zero,.L36
	.loc 1 261 18
	ld	a4,-24(s0)
	mv	a5,a4
	slli	a5,a5,1
	add	a5,a5,a4
	slli	a5,a5,6
	mv	a4,a5
	ld	a5,-64(s0)
	add	a4,a5,a4
	.loc 1 261 89
	ld	a3,-56(s0)
	ld	a2,-40(s0)
	li	a5,168
	mul	a5,a2,a5
	add	a5,a3,a5
	ld	a5,96(a5)
	.loc 1 261 42
	sd	a5,112(a4)
	.loc 1 262 90
	ld	a4,-56(s0)
	ld	a3,-40(s0)
	li	a5,168
	mul	a5,a3,a5
	add	a5,a4,a5
	ld	a4,96(a5)
	.loc 1 262 146
	ld	a3,-56(s0)
	ld	a2,-40(s0)
	li	a5,168
	mul	a5,a2,a5
	add	a5,a3,a5
	ld	a5,104(a5)
	.loc 1 262 99
	add	a3,a4,a5
	.loc 1 262 18
	ld	a4,-24(s0)
	mv	a5,a4
	slli	a5,a5,1
	add	a5,a5,a4
	slli	a5,a5,6
	mv	a4,a5
	ld	a5,-64(s0)
	add	a5,a5,a4
	.loc 1 262 155
	addi	a4,a3,-1
	.loc 1 262 43
	sd	a4,120(a5)
	.loc 1 263 187
	ld	a4,-56(s0)
	ld	a3,-40(s0)
	li	a5,168
	mul	a5,a3,a5
	add	a5,a4,a5
	ld	a2,96(a5)
	.loc 1 263 131
	ld	a4,-56(s0)
	ld	a3,-40(s0)
	li	a5,168
	mul	a5,a3,a5
	add	a5,a4,a5
	ld	a3,112(a5)
	.loc 1 263 18
	ld	a4,-24(s0)
	mv	a5,a4
	slli	a5,a5,1
	add	a5,a5,a4
	slli	a5,a5,6
	mv	a4,a5
	ld	a5,-64(s0)
	add	a5,a5,a4
	.loc 1 263 197
	sub	a4,a2,a3
	.loc 1 263 49
	sd	a4,128(a5)
	j	.L37
.L36:
	.loc 1 265 18
	ld	a4,-24(s0)
	mv	a5,a4
	slli	a5,a5,1
	add	a5,a5,a4
	slli	a5,a5,6
	mv	a4,a5
	ld	a5,-64(s0)
	add	a5,a5,a4
	.loc 1 265 42
	li	a4,-1
	sd	a4,112(a5)
	.loc 1 266 18
	ld	a4,-24(s0)
	mv	a5,a4
	slli	a5,a5,1
	add	a5,a5,a4
	slli	a5,a5,6
	mv	a4,a5
	ld	a5,-64(s0)
	add	a5,a5,a4
	.loc 1 266 43
	sd	zero,120(a5)
.L37:
	.loc 1 268 53
	ld	a4,-56(s0)
	ld	a3,-40(s0)
	li	a5,168
	mul	a5,a3,a5
	add	a5,a4,a5
	ld	a5,128(a5)
	.loc 1 268 8
	beq	a5,zero,.L38
	.loc 1 269 18
	ld	a4,-24(s0)
	mv	a5,a4
	slli	a5,a5,1
	add	a5,a5,a4
	slli	a5,a5,6
	mv	a4,a5
	ld	a5,-64(s0)
	add	a4,a5,a4
	.loc 1 269 82
	ld	a3,-56(s0)
	ld	a2,-40(s0)
	li	a5,168
	mul	a5,a2,a5
	add	a5,a3,a5
	ld	a5,120(a5)
	.loc 1 269 36
	sd	a5,136(a4)
	.loc 1 270 83
	ld	a4,-56(s0)
	ld	a3,-40(s0)
	li	a5,168
	mul	a5,a3,a5
	add	a5,a4,a5
	ld	a4,120(a5)
	.loc 1 270 138
	ld	a3,-56(s0)
	ld	a2,-40(s0)
	li	a5,168
	mul	a5,a2,a5
	add	a5,a3,a5
	ld	a5,128(a5)
	.loc 1 270 92
	add	a3,a4,a5
	.loc 1 270 18
	ld	a4,-24(s0)
	mv	a5,a4
	slli	a5,a5,1
	add	a5,a5,a4
	slli	a5,a5,6
	mv	a4,a5
	ld	a5,-64(s0)
	add	a5,a5,a4
	.loc 1 270 147
	addi	a4,a3,-1
	.loc 1 270 37
	sd	a4,144(a5)
	.loc 1 271 179
	ld	a4,-56(s0)
	ld	a3,-40(s0)
	li	a5,168
	mul	a5,a3,a5
	add	a5,a4,a5
	ld	a2,120(a5)
	.loc 1 271 124
	ld	a4,-56(s0)
	ld	a3,-40(s0)
	li	a5,168
	mul	a5,a3,a5
	add	a5,a4,a5
	ld	a3,136(a5)
	.loc 1 271 18
	ld	a4,-24(s0)
	mv	a5,a4
	slli	a5,a5,1
	add	a5,a5,a4
	slli	a5,a5,6
	mv	a4,a5
	ld	a5,-64(s0)
	add	a5,a5,a4
	.loc 1 271 189
	sub	a4,a2,a3
	.loc 1 271 43
	sd	a4,152(a5)
	j	.L39
.L38:
	.loc 1 273 18
	ld	a4,-24(s0)
	mv	a5,a4
	slli	a5,a5,1
	add	a5,a5,a4
	slli	a5,a5,6
	mv	a4,a5
	ld	a5,-64(s0)
	add	a5,a5,a4
	.loc 1 273 36
	li	a4,-1
	sd	a4,136(a5)
	.loc 1 274 18
	ld	a4,-24(s0)
	mv	a5,a4
	slli	a5,a5,1
	add	a5,a5,a4
	slli	a5,a5,6
	mv	a4,a5
	ld	a5,-64(s0)
	add	a5,a5,a4
	.loc 1 274 37
	sd	zero,144(a5)
.L39:
	.loc 1 276 55
	ld	a4,-56(s0)
	ld	a3,-40(s0)
	li	a5,168
	mul	a5,a3,a5
	add	a5,a4,a5
	ld	a5,152(a5)
	.loc 1 276 8
	beq	a5,zero,.L40
	.loc 1 277 18
	ld	a4,-24(s0)
	mv	a5,a4
	slli	a5,a5,1
	add	a5,a5,a4
	slli	a5,a5,6
	mv	a4,a5
	ld	a5,-64(s0)
	add	a4,a5,a4
	.loc 1 277 91
	ld	a3,-56(s0)
	ld	a2,-40(s0)
	li	a5,168
	mul	a5,a2,a5
	add	a5,a3,a5
	ld	a5,144(a5)
	.loc 1 277 43
	sd	a5,160(a4)
	.loc 1 278 92
	ld	a4,-56(s0)
	ld	a3,-40(s0)
	li	a5,168
	mul	a5,a3,a5
	add	a5,a4,a5
	ld	a4,144(a5)
	.loc 1 278 149
	ld	a3,-56(s0)
	ld	a2,-40(s0)
	li	a5,168
	mul	a5,a2,a5
	add	a5,a3,a5
	ld	a5,152(a5)
	.loc 1 278 101
	add	a3,a4,a5
	.loc 1 278 18
	ld	a4,-24(s0)
	mv	a5,a4
	slli	a5,a5,1
	add	a5,a5,a4
	slli	a5,a5,6
	mv	a4,a5
	ld	a5,-64(s0)
	add	a5,a5,a4
	.loc 1 278 158
	addi	a4,a3,-1
	.loc 1 278 44
	sd	a4,168(a5)
	.loc 1 279 190
	ld	a4,-56(s0)
	ld	a3,-40(s0)
	li	a5,168
	mul	a5,a3,a5
	add	a5,a4,a5
	ld	a2,144(a5)
	.loc 1 279 133
	ld	a4,-56(s0)
	ld	a3,-40(s0)
	li	a5,168
	mul	a5,a3,a5
	add	a5,a4,a5
	ld	a3,160(a5)
	.loc 1 279 18
	ld	a4,-24(s0)
	mv	a5,a4
	slli	a5,a5,1
	add	a5,a5,a4
	slli	a5,a5,6
	mv	a4,a5
	ld	a5,-64(s0)
	add	a5,a5,a4
	.loc 1 279 200
	sub	a4,a2,a3
	.loc 1 279 50
	sd	a4,176(a5)
	j	.L41
.L40:
	.loc 1 281 18
	ld	a4,-24(s0)
	mv	a5,a4
	slli	a5,a5,1
	add	a5,a5,a4
	slli	a5,a5,6
	mv	a4,a5
	ld	a5,-64(s0)
	add	a5,a5,a4
	.loc 1 281 43
	li	a4,-1
	sd	a4,160(a5)
	.loc 1 282 18
	ld	a4,-24(s0)
	mv	a5,a4
	slli	a5,a5,1
	add	a5,a5,a4
	slli	a5,a5,6
	mv	a4,a5
	ld	a5,-64(s0)
	add	a5,a5,a4
	.loc 1 282 44
	sd	zero,168(a5)
.L41:
	.loc 1 285 54
	lla	a1,mEfiPciRootBridgeDevicePathTemplate
	li	a0,16
	call	AllocateCopyPool@plt
	sd	a0,-72(s0)
	.loc 1 286 8
	ld	a5,-72(s0)
	beq	a5,zero,.L42
	.loc 1 287 51
	ld	a4,-24(s0)
	mv	a5,a4
	slli	a5,a5,1
	add	a5,a5,a4
	slli	a5,a5,6
	mv	a4,a5
	ld	a5,-64(s0)
	add	a5,a5,a4
	.loc 1 287 58
	lw	a4,0(a5)
	.loc 1 287 38
	ld	a5,-72(s0)
	slli	a3,a4,32
	srli	a3,a3,32
	andi	a3,a3,255
	lbu	a2,8(a5)
	andi	a2,a2,0
	or	a3,a2,a3
	sb	a3,8(a5)
	srliw	a3,a4,8
	slli	a3,a3,32
	srli	a3,a3,32
	andi	a3,a3,255
	lbu	a2,9(a5)
	andi	a2,a2,0
	or	a3,a2,a3
	sb	a3,9(a5)
	srliw	a3,a4,16
	slli	a3,a3,32
	srli	a3,a3,32
	andi	a3,a3,255
	lbu	a2,10(a5)
	andi	a2,a2,0
	or	a3,a2,a3
	sb	a3,10(a5)
	srliw	a4,a4,24
	slli	a4,a4,32
	srli	a4,a4,32
	lbu	a3,11(a5)
	andi	a3,a3,0
	or	a4,a3,a4
	sb	a4,11(a5)
	.loc 1 288 18
	ld	a4,-24(s0)
	mv	a5,a4
	slli	a5,a5,1
	add	a5,a5,a4
	slli	a5,a5,6
	mv	a4,a5
	ld	a5,-64(s0)
	add	a5,a5,a4
	.loc 1 288 37
	ld	a4,-72(s0)
	sd	a4,184(a5)
.L42:
	.loc 1 294 5
	ld	a4,-56(s0)
	ld	a3,-40(s0)
	li	a5,168
	mul	a5,a3,a5
	add	a5,a4,a5
	ld	a2,16(a5)
	ld	a4,-56(s0)
	ld	a3,-40(s0)
	li	a5,168
	mul	a5,a3,a5
	add	a5,a4,a5
	ld	a5,24(a5)
	mv	a1,a5
	mv	a0,a2
	call	PciHostBridgeMapGcdMmioSpace
	.loc 1 299 51
	ld	a4,-56(s0)
	ld	a3,-40(s0)
	li	a5,168
	mul	a5,a3,a5
	add	a5,a4,a5
	ld	a5,56(a5)
	.loc 1 299 8
	beq	a5,zero,.L43
	.loc 1 306 34
	ld	a4,-24(s0)
	mv	a5,a4
	slli	a5,a5,1
	add	a5,a5,a4
	slli	a5,a5,6
	mv	a4,a5
	ld	a5,-64(s0)
	add	a5,a5,a4
	.loc 1 306 44
	ld	a3,64(a5)
	.loc 1 306 63
	ld	a4,-24(s0)
	mv	a5,a4
	slli	a5,a5,1
	add	a5,a5,a4
	slli	a5,a5,6
	mv	a4,a5
	ld	a5,-64(s0)
	add	a5,a5,a4
	.loc 1 306 73
	ld	a5,80(a5)
	.loc 1 305 7
	sub	a2,a3,a5
	.loc 1 307 34
	ld	a4,-24(s0)
	mv	a5,a4
	slli	a5,a5,1
	add	a5,a5,a4
	slli	a5,a5,6
	mv	a4,a5
	ld	a5,-64(s0)
	add	a5,a5,a4
	.loc 1 307 44
	ld	a3,72(a5)
	.loc 1 307 64
	ld	a4,-24(s0)
	mv	a5,a4
	slli	a5,a5,1
	add	a5,a5,a4
	slli	a5,a5,6
	mv	a4,a5
	ld	a5,-64(s0)
	add	a5,a5,a4
	.loc 1 307 74
	ld	a5,64(a5)
	.loc 1 307 51
	sub	a5,a3,a5
	.loc 1 305 7
	addi	a5,a5,1
	mv	a1,a5
	mv	a0,a2
	call	PciHostBridgeMapGcdMmioSpace
.L43:
	.loc 1 211 49 discriminator 2
	ld	a5,-24(s0)
	addi	a5,a5,1
	sd	a5,-24(s0)
.L22:
	.loc 1 211 25 discriminator 1
	ld	a4,-24(s0)
	ld	a5,-32(s0)
	bltu	a4,a5,.L44
	j	.L28
.L45:
	.loc 1 222 7
	nop
.L28:
	.loc 1 312 10
	ld	a5,-88(s0)
	ld	a4,-32(s0)
	sd	a4,0(a5)
	.loc 1 314 10
	ld	a5,-64(s0)
.L15:
	.loc 1 315 1
	mv	a0,a5
	ld	ra,88(sp)
	.cfi_restore 1
	ld	s0,80(sp)
	.cfi_restore 8
	.cfi_def_cfa 2, 96
	addi	sp,sp,96
	.cfi_def_cfa_offset 0
	jr	ra
	.cfi_endproc
.LFE2:
	.size	PciHostBridgeGetRootBridges, .-PciHostBridgeGetRootBridges
	.section	.text.PciHostBridgeFreeRootBridges,"ax",@progbits
	.align	1
	.globl	PciHostBridgeFreeRootBridges
	.type	PciHostBridgeFreeRootBridges, @function
PciHostBridgeFreeRootBridges:
.LFB3:
	.loc 1 331 1
	.cfi_startproc
	addi	sp,sp,-48
	.cfi_def_cfa_offset 48
	sd	ra,40(sp)
	sd	s0,32(sp)
	.cfi_offset 1, -8
	.cfi_offset 8, -16
	addi	s0,sp,48
	.cfi_def_cfa 8, 0
	sd	a0,-40(s0)
	sd	a1,-48(s0)
	.loc 1 334 6
	ld	a5,-40(s0)
	beq	a5,zero,.L52
	.loc 1 338 14
	sd	zero,-24(s0)
	.loc 1 338 3
	j	.L49
.L51:
	.loc 1 339 16
	ld	a4,-24(s0)
	mv	a5,a4
	slli	a5,a5,1
	add	a5,a5,a4
	slli	a5,a5,6
	mv	a4,a5
	ld	a5,-40(s0)
	add	a5,a5,a4
	.loc 1 339 23
	ld	a5,184(a5)
	.loc 1 339 8
	beq	a5,zero,.L50
	.loc 1 340 33
	ld	a4,-24(s0)
	mv	a5,a4
	slli	a5,a5,1
	add	a5,a5,a4
	slli	a5,a5,6
	mv	a4,a5
	ld	a5,-40(s0)
	add	a5,a5,a4
	.loc 1 340 40
	ld	a5,184(a5)
	.loc 1 340 7
	mv	a0,a5
	call	FreePool@plt
.L50:
	.loc 1 338 39 discriminator 2
	ld	a5,-24(s0)
	addi	a5,a5,1
	sd	a5,-24(s0)
.L49:
	.loc 1 338 25 discriminator 1
	ld	a4,-24(s0)
	ld	a5,-48(s0)
	bltu	a4,a5,.L51
	.loc 1 344 3
	ld	a0,-40(s0)
	call	FreePool@plt
	.loc 1 346 3
	j	.L46
.L52:
	.loc 1 335 5
	nop
.L46:
	.loc 1 347 1
	ld	ra,40(sp)
	.cfi_restore 1
	ld	s0,32(sp)
	.cfi_restore 8
	.cfi_def_cfa 2, 48
	addi	sp,sp,48
	.cfi_def_cfa_offset 0
	jr	ra
	.cfi_endproc
.LFE3:
	.size	PciHostBridgeFreeRootBridges, .-PciHostBridgeFreeRootBridges
	.section	.text.PciHostBridgeResourceConflict,"ax",@progbits
	.align	1
	.globl	PciHostBridgeResourceConflict
	.type	PciHostBridgeResourceConflict, @function
PciHostBridgeResourceConflict:
.LFB4:
	.loc 1 371 1
	.cfi_startproc
	addi	sp,sp,-48
	.cfi_def_cfa_offset 48
	sd	ra,40(sp)
	sd	s0,32(sp)
	.cfi_offset 1, -8
	.cfi_offset 8, -16
	addi	s0,sp,48
	.cfi_def_cfa 8, 0
	sd	a0,-40(s0)
	sd	a1,-48(s0)
	.loc 1 375 14
	ld	a5,-48(s0)
	sd	a5,-24(s0)
	.loc 1 376 9
	j	.L54
.L57:
	.loc 1 385 21
	ld	a5,-24(s0)
	lbu	a5,3(a5)
	.loc 1 385 10
	bne	a5,zero,.L56
	.loc 1 387 37
	ld	a5,-24(s0)
	lbu	a5,5(a5)
	.loc 1 387 52
	sext.w	a5,a5
	andi	a5,a5,6
	sext.w	a5,a5
	.loc 1 388 21
	snez	a5,a5
	andi	a5,a5,0xff
	.loc 1 387 24
	sb	a5,-25(s0)
.L56:
	.loc 1 377 48
	ld	a5,-24(s0)
	addi	a5,a5,46
	sd	a5,-24(s0)
.L55:
	.loc 1 377 22 discriminator 1
	ld	a5,-24(s0)
	lbu	a5,0(a5)
	.loc 1 377 29 discriminator 1
	mv	a4,a5
	li	a5,138
	beq	a4,a5,.L57
	.loc 1 401 16
	ld	a5,-24(s0)
	addi	a5,a5,2
	sd	a5,-24(s0)
.L54:
	.loc 1 376 20
	ld	a5,-24(s0)
	lbu	a5,0(a5)
	.loc 1 376 27
	mv	a4,a5
	li	a5,138
	beq	a4,a5,.L55
	.loc 1 406 3
	nop
	.loc 1 407 1
	ld	ra,40(sp)
	.cfi_restore 1
	ld	s0,32(sp)
	.cfi_restore 8
	.cfi_def_cfa 2, 48
	addi	sp,sp,48
	.cfi_def_cfa_offset 0
	jr	ra
	.cfi_endproc
.LFE4:
	.size	PciHostBridgeResourceConflict, .-PciHostBridgeResourceConflict
	.text
.Letext0:
	.file 2 "/home/kapoagaeming/spacemit-image-builder/components/edk2/MdePkg/Include/RiscV64/ProcessorBind.h"
	.file 3 "/home/kapoagaeming/spacemit-image-builder/components/edk2/MdePkg/Include/Base.h"
	.file 4 "/home/kapoagaeming/spacemit-image-builder/components/edk2/MdePkg/Include/Uefi/UefiBaseType.h"
	.file 5 "/home/kapoagaeming/spacemit-image-builder/components/edk2/MdePkg/Include/Uefi/UefiMultiPhase.h"
	.file 6 "/home/kapoagaeming/spacemit-image-builder/components/edk2/MdePkg/Include/IndustryStandard/Acpi10.h"
	.file 7 "/home/kapoagaeming/spacemit-image-builder/components/edk2/MdePkg/Include/Protocol/DevicePath.h"
	.file 8 "/home/kapoagaeming/spacemit-image-builder/components/edk2/MdePkg/Include/Pi/PiDxeCis.h"
	.file 9 "/home/kapoagaeming/spacemit-image-builder/components/edk2/MdeModulePkg/Include/Library/PciHostBridgeLib.h"
	.file 10 "/home/kapoagaeming/spacemit-image-builder/components/edk2-platforms/Silicon/Spacemit/Include/Library/PciRootBrdigeResourceConfig.h"
	.file 11 "/home/kapoagaeming/spacemit-image-builder/components/edk2/MdePkg/Include/Library/MemoryAllocationLib.h"
	.file 12 "/home/kapoagaeming/spacemit-image-builder/components/Build/Milk-V-Jupiter/RELEASE_GCC5/RISCV64/Silicon/Spacemit/Library/PciHostBridgeLib/PciHostBridgeLib/DEBUG/AutoGen.h"
	.file 13 "/home/kapoagaeming/spacemit-image-builder/components/edk2/MdePkg/Include/Library/DxeServicesTableLib.h"
	.file 14 "/home/kapoagaeming/spacemit-image-builder/components/edk2/MdePkg/Include/Library/DebugLib.h"
	.section	.note.GNU-stack,"",@progbits
