	.file	"BaseVariableFlashInfoLib.c"
	.option pic
	.option norelax
	.attribute arch, "rv64i2p1_m2p0_a2p1_f2p2_d2p2_c2p0_zicsr2p0_zifencei2p0_zmmul1p0_zaamo1p0_zalrsc1p0_zca1p0_zcd1p0"
	.attribute unaligned_access, 0
	.attribute stack_align, 16
	.text
.Ltext0:
	.cfi_sections	.debug_frame
	.file 0 "/home/kapoagaeming/Downloads/spacemit-image-builder/components/Build/Milk-V-Jupiter/RELEASE_GCC5/RISCV64/MdeModulePkg/Library/BaseVariableFlashInfoLib/BaseVariableFlashInfoLib" "/home/kapoagaeming/Downloads/spacemit-image-builder/components/edk2/MdeModulePkg/Library/BaseVariableFlashInfoLib/BaseVariableFlashInfoLib.c"
	.section	.text.GetVariableFlashInfoFromHob,"ax",@progbits
	.align	1
	.type	GetVariableFlashInfoFromHob, @function
GetVariableFlashInfoFromHob:
.LFB0:
	.file 1 "/home/kapoagaeming/Downloads/spacemit-image-builder/components/edk2/MdeModulePkg/Library/BaseVariableFlashInfoLib/BaseVariableFlashInfoLib.c"
	.loc 1 32 1
	.cfi_startproc
	addi	sp,sp,-48
	.cfi_def_cfa_offset 48
	sd	ra,40(sp)
	sd	s0,32(sp)
	.cfi_offset 1, -8
	.cfi_offset 8, -16
	addi	s0,sp,48
	.cfi_def_cfa 8, 0
	sd	a0,-40(s0)
	.loc 1 35 6
	ld	a5,-40(s0)
	bne	a5,zero,.L2
	.loc 1 36 12
	li	a5,-1
	slli	a5,a5,63
	addi	a5,a5,2
	j	.L6
.L2:
	.loc 1 39 13
	la	a0,gVariableFlashInfoHobGuid
	call	GetFirstGuidHob@plt
	mv	a5,a0
	.loc 1 39 11 discriminator 1
	sd	a5,-24(s0)
	.loc 1 40 15
	ld	a5,-24(s0)
	.loc 1 40 6
	bne	a5,zero,.L4
	.loc 1 41 12
	li	a5,-1
	slli	a5,a5,63
	addi	a5,a5,14
	j	.L6
.L4:
	.loc 1 44 44
	addi	a5,s0,-24
	.loc 1 44 33
	ld	a5,0(a5)
	.loc 1 44 55
	addi	a4,a5,24
	.loc 1 44 22
	ld	a5,-40(s0)
	sd	a4,0(a5)
	.loc 1 49 12
	call	DebugCodeEnabled@plt
	mv	a5,a0
	.loc 1 49 11 discriminator 1
	beq	a5,zero,.L5
	.loc 1 49 138 discriminator 2
	addi	a5,s0,-24
	.loc 1 49 127 discriminator 2
	ld	a5,0(a5)
	.loc 1 49 181 discriminator 2
	addi	a4,s0,-24
	.loc 1 49 153 discriminator 2
	ld	a4,0(a4)
	.loc 1 49 192 discriminator 2
	lhu	a4,2(a4)
	.loc 1 49 149 discriminator 2
	add	a5,a5,a4
	.loc 1 49 74 discriminator 2
	mv	a1,a5
	la	a0,gVariableFlashInfoHobGuid
	call	GetNextGuidHob@plt
.L5:
	.loc 1 57 10
	li	a5,0
.L6:
	.loc 1 58 1
	mv	a0,a5
	ld	ra,40(sp)
	.cfi_restore 1
	ld	s0,32(sp)
	.cfi_restore 8
	.cfi_def_cfa 2, 48
	addi	sp,sp,48
	.cfi_def_cfa_offset 0
	jr	ra
	.cfi_endproc
.LFE0:
	.size	GetVariableFlashInfoFromHob, .-GetVariableFlashInfoFromHob
	.section	.text.GetVariableFlashNvStorageInfo,"ax",@progbits
	.align	1
	.globl	GetVariableFlashNvStorageInfo
	.type	GetVariableFlashNvStorageInfo, @function
GetVariableFlashNvStorageInfo:
.LFB1:
	.loc 1 76 1
	.cfi_startproc
	addi	sp,sp,-48
	.cfi_def_cfa_offset 48
	sd	ra,40(sp)
	sd	s0,32(sp)
	.cfi_offset 1, -8
	.cfi_offset 8, -16
	addi	s0,sp,48
	.cfi_def_cfa 8, 0
	sd	a0,-40(s0)
	sd	a1,-48(s0)
	.loc 1 80 6
	ld	a5,-40(s0)
	beq	a5,zero,.L8
	.loc 1 80 37 discriminator 1
	ld	a5,-48(s0)
	bne	a5,zero,.L9
.L8:
	.loc 1 81 12
	li	a5,-1
	slli	a5,a5,63
	addi	a5,a5,2
	j	.L15
.L9:
	.loc 1 84 12
	addi	a5,s0,-32
	mv	a0,a5
	call	GetVariableFlashInfoFromHob
	sd	a0,-24(s0)
	.loc 1 85 7
	ld	a5,-24(s0)
	.loc 1 85 6
	blt	a5,zero,.L11
	.loc 1 86 37
	ld	a5,-32(s0)
	lbu	a4,8(a5)
	lbu	a3,9(a5)
	slli	a3,a3,8
	or	a4,a3,a4
	lbu	a3,10(a5)
	slli	a3,a3,16
	or	a4,a3,a4
	lbu	a3,11(a5)
	slli	a3,a3,24
	or	a4,a3,a4
	lbu	a3,12(a5)
	slli	a3,a3,32
	or	a4,a3,a4
	lbu	a3,13(a5)
	slli	a3,a3,40
	or	a4,a3,a4
	lbu	a3,14(a5)
	slli	a3,a3,48
	or	a4,a3,a4
	lbu	a5,15(a5)
	slli	a5,a5,56
	or	a5,a5,a4
	mv	a4,a5
	.loc 1 86 18
	ld	a5,-40(s0)
	sd	a4,0(a5)
	.loc 1 87 32
	ld	a5,-32(s0)
	lbu	a4,16(a5)
	lbu	a3,17(a5)
	slli	a3,a3,8
	or	a4,a3,a4
	lbu	a3,18(a5)
	slli	a3,a3,16
	or	a4,a3,a4
	lbu	a3,19(a5)
	slli	a3,a3,24
	or	a4,a3,a4
	lbu	a3,20(a5)
	slli	a3,a3,32
	or	a4,a3,a4
	lbu	a3,21(a5)
	slli	a3,a3,40
	or	a4,a3,a4
	lbu	a3,22(a5)
	slli	a3,a3,48
	or	a4,a3,a4
	lbu	a5,23(a5)
	slli	a5,a5,56
	or	a5,a5,a4
	mv	a4,a5
	.loc 1 87 13
	ld	a5,-48(s0)
	sd	a4,0(a5)
	j	.L12
.L11:
	.loc 1 89 94
	la	a5,_gPcd_FixedAtBuild_PcdFlashNvStorageVariableBase64
	ld	a5,0(a5)
	.loc 1 89 20
	bne	a5,zero,.L13
	.loc 1 89 20 is_stmt 0 discriminator 1
	la	a5,_gPcd_FixedAtBuild_PcdFlashNvStorageVariableBase
	lw	a5,0(a5)
	slli	a5,a5,32
	srli	a5,a5,32
	j	.L14
.L13:
	.loc 1 89 20 discriminator 2
	la	a5,_gPcd_FixedAtBuild_PcdFlashNvStorageVariableBase64
	ld	a5,0(a5)
.L14:
	.loc 1 89 18 is_stmt 1 discriminator 4
	ld	a4,-40(s0)
	sd	a5,0(a4)
	.loc 1 93 15
	la	a5,_gPcd_FixedAtBuild_PcdFlashNvStorageVariableSize
	lw	a5,0(a5)
	slli	a4,a5,32
	srli	a4,a4,32
	.loc 1 93 13
	ld	a5,-48(s0)
	sd	a4,0(a5)
.L12:
	.loc 1 96 10
	li	a5,0
.L15:
	.loc 1 97 1
	mv	a0,a5
	ld	ra,40(sp)
	.cfi_restore 1
	ld	s0,32(sp)
	.cfi_restore 8
	.cfi_def_cfa 2, 48
	addi	sp,sp,48
	.cfi_def_cfa_offset 0
	jr	ra
	.cfi_endproc
.LFE1:
	.size	GetVariableFlashNvStorageInfo, .-GetVariableFlashNvStorageInfo
	.section	.text.GetVariableFlashFtwSpareInfo,"ax",@progbits
	.align	1
	.globl	GetVariableFlashFtwSpareInfo
	.type	GetVariableFlashFtwSpareInfo, @function
GetVariableFlashFtwSpareInfo:
.LFB2:
	.loc 1 117 1
	.cfi_startproc
	addi	sp,sp,-48
	.cfi_def_cfa_offset 48
	sd	ra,40(sp)
	sd	s0,32(sp)
	.cfi_offset 1, -8
	.cfi_offset 8, -16
	addi	s0,sp,48
	.cfi_def_cfa 8, 0
	sd	a0,-40(s0)
	sd	a1,-48(s0)
	.loc 1 121 6
	ld	a5,-40(s0)
	beq	a5,zero,.L17
	.loc 1 121 37 discriminator 1
	ld	a5,-48(s0)
	bne	a5,zero,.L18
.L17:
	.loc 1 122 12
	li	a5,-1
	slli	a5,a5,63
	addi	a5,a5,2
	j	.L24
.L18:
	.loc 1 125 12
	addi	a5,s0,-32
	mv	a0,a5
	call	GetVariableFlashInfoFromHob
	sd	a0,-24(s0)
	.loc 1 126 7
	ld	a5,-24(s0)
	.loc 1 126 6
	blt	a5,zero,.L20
	.loc 1 127 37
	ld	a5,-32(s0)
	lbu	a4,24(a5)
	lbu	a3,25(a5)
	slli	a3,a3,8
	or	a4,a3,a4
	lbu	a3,26(a5)
	slli	a3,a3,16
	or	a4,a3,a4
	lbu	a3,27(a5)
	slli	a3,a3,24
	or	a4,a3,a4
	lbu	a3,28(a5)
	slli	a3,a3,32
	or	a4,a3,a4
	lbu	a3,29(a5)
	slli	a3,a3,40
	or	a4,a3,a4
	lbu	a3,30(a5)
	slli	a3,a3,48
	or	a4,a3,a4
	lbu	a5,31(a5)
	slli	a5,a5,56
	or	a5,a5,a4
	mv	a4,a5
	.loc 1 127 18
	ld	a5,-40(s0)
	sd	a4,0(a5)
	.loc 1 128 32
	ld	a5,-32(s0)
	lbu	a4,32(a5)
	lbu	a3,33(a5)
	slli	a3,a3,8
	or	a4,a3,a4
	lbu	a3,34(a5)
	slli	a3,a3,16
	or	a4,a3,a4
	lbu	a3,35(a5)
	slli	a3,a3,24
	or	a4,a3,a4
	lbu	a3,36(a5)
	slli	a3,a3,32
	or	a4,a3,a4
	lbu	a3,37(a5)
	slli	a3,a3,40
	or	a4,a3,a4
	lbu	a3,38(a5)
	slli	a3,a3,48
	or	a4,a3,a4
	lbu	a5,39(a5)
	slli	a5,a5,56
	or	a5,a5,a4
	mv	a4,a5
	.loc 1 128 13
	ld	a5,-48(s0)
	sd	a4,0(a5)
	j	.L21
.L20:
	.loc 1 130 94
	la	a5,_gPcd_FixedAtBuild_PcdFlashNvStorageFtwSpareBase64
	ld	a5,0(a5)
	.loc 1 130 20
	bne	a5,zero,.L22
	.loc 1 130 20 is_stmt 0 discriminator 1
	la	a5,_gPcd_FixedAtBuild_PcdFlashNvStorageFtwSpareBase
	lw	a5,0(a5)
	slli	a5,a5,32
	srli	a5,a5,32
	j	.L23
.L22:
	.loc 1 130 20 discriminator 2
	la	a5,_gPcd_FixedAtBuild_PcdFlashNvStorageFtwSpareBase64
	ld	a5,0(a5)
.L23:
	.loc 1 130 18 is_stmt 1 discriminator 4
	ld	a4,-40(s0)
	sd	a5,0(a4)
	.loc 1 134 15
	la	a5,_gPcd_FixedAtBuild_PcdFlashNvStorageFtwSpareSize
	lw	a5,0(a5)
	slli	a4,a5,32
	srli	a4,a4,32
	.loc 1 134 13
	ld	a5,-48(s0)
	sd	a4,0(a5)
.L21:
	.loc 1 137 10
	li	a5,0
.L24:
	.loc 1 138 1
	mv	a0,a5
	ld	ra,40(sp)
	.cfi_restore 1
	ld	s0,32(sp)
	.cfi_restore 8
	.cfi_def_cfa 2, 48
	addi	sp,sp,48
	.cfi_def_cfa_offset 0
	jr	ra
	.cfi_endproc
.LFE2:
	.size	GetVariableFlashFtwSpareInfo, .-GetVariableFlashFtwSpareInfo
	.section	.text.GetVariableFlashFtwWorkingInfo,"ax",@progbits
	.align	1
	.globl	GetVariableFlashFtwWorkingInfo
	.type	GetVariableFlashFtwWorkingInfo, @function
GetVariableFlashFtwWorkingInfo:
.LFB3:
	.loc 1 158 1
	.cfi_startproc
	addi	sp,sp,-48
	.cfi_def_cfa_offset 48
	sd	ra,40(sp)
	sd	s0,32(sp)
	.cfi_offset 1, -8
	.cfi_offset 8, -16
	addi	s0,sp,48
	.cfi_def_cfa 8, 0
	sd	a0,-40(s0)
	sd	a1,-48(s0)
	.loc 1 162 6
	ld	a5,-40(s0)
	beq	a5,zero,.L26
	.loc 1 162 37 discriminator 1
	ld	a5,-48(s0)
	bne	a5,zero,.L27
.L26:
	.loc 1 163 12
	li	a5,-1
	slli	a5,a5,63
	addi	a5,a5,2
	j	.L33
.L27:
	.loc 1 166 12
	addi	a5,s0,-32
	mv	a0,a5
	call	GetVariableFlashInfoFromHob
	sd	a0,-24(s0)
	.loc 1 167 7
	ld	a5,-24(s0)
	.loc 1 167 6
	blt	a5,zero,.L29
	.loc 1 168 37
	ld	a5,-32(s0)
	lbu	a4,40(a5)
	lbu	a3,41(a5)
	slli	a3,a3,8
	or	a4,a3,a4
	lbu	a3,42(a5)
	slli	a3,a3,16
	or	a4,a3,a4
	lbu	a3,43(a5)
	slli	a3,a3,24
	or	a4,a3,a4
	lbu	a3,44(a5)
	slli	a3,a3,32
	or	a4,a3,a4
	lbu	a3,45(a5)
	slli	a3,a3,40
	or	a4,a3,a4
	lbu	a3,46(a5)
	slli	a3,a3,48
	or	a4,a3,a4
	lbu	a5,47(a5)
	slli	a5,a5,56
	or	a5,a5,a4
	mv	a4,a5
	.loc 1 168 18
	ld	a5,-40(s0)
	sd	a4,0(a5)
	.loc 1 169 32
	ld	a5,-32(s0)
	lbu	a4,48(a5)
	lbu	a3,49(a5)
	slli	a3,a3,8
	or	a4,a3,a4
	lbu	a3,50(a5)
	slli	a3,a3,16
	or	a4,a3,a4
	lbu	a3,51(a5)
	slli	a3,a3,24
	or	a4,a3,a4
	lbu	a3,52(a5)
	slli	a3,a3,32
	or	a4,a3,a4
	lbu	a3,53(a5)
	slli	a3,a3,40
	or	a4,a3,a4
	lbu	a3,54(a5)
	slli	a3,a3,48
	or	a4,a3,a4
	lbu	a5,55(a5)
	slli	a5,a5,56
	or	a5,a5,a4
	mv	a4,a5
	.loc 1 169 13
	ld	a5,-48(s0)
	sd	a4,0(a5)
	j	.L30
.L29:
	.loc 1 171 96
	la	a5,_gPcd_FixedAtBuild_PcdFlashNvStorageFtwWorkingBase64
	ld	a5,0(a5)
	.loc 1 171 20
	bne	a5,zero,.L31
	.loc 1 171 20 is_stmt 0 discriminator 1
	la	a5,_gPcd_FixedAtBuild_PcdFlashNvStorageFtwWorkingBase
	lw	a5,0(a5)
	slli	a5,a5,32
	srli	a5,a5,32
	j	.L32
.L31:
	.loc 1 171 20 discriminator 2
	la	a5,_gPcd_FixedAtBuild_PcdFlashNvStorageFtwWorkingBase64
	ld	a5,0(a5)
.L32:
	.loc 1 171 18 is_stmt 1 discriminator 4
	ld	a4,-40(s0)
	sd	a5,0(a4)
	.loc 1 175 15
	la	a5,_gPcd_FixedAtBuild_PcdFlashNvStorageFtwWorkingSize
	lw	a5,0(a5)
	slli	a4,a5,32
	srli	a4,a4,32
	.loc 1 175 13
	ld	a5,-48(s0)
	sd	a4,0(a5)
.L30:
	.loc 1 178 10
	li	a5,0
.L33:
	.loc 1 179 1
	mv	a0,a5
	ld	ra,40(sp)
	.cfi_restore 1
	ld	s0,32(sp)
	.cfi_restore 8
	.cfi_def_cfa 2, 48
	addi	sp,sp,48
	.cfi_def_cfa_offset 0
	jr	ra
	.cfi_endproc
.LFE3:
	.size	GetVariableFlashFtwWorkingInfo, .-GetVariableFlashFtwWorkingInfo
	.text
.Letext0:
	.file 2 "/home/kapoagaeming/Downloads/spacemit-image-builder/components/edk2/MdePkg/Include/RiscV64/ProcessorBind.h"
	.file 3 "/home/kapoagaeming/Downloads/spacemit-image-builder/components/edk2/MdePkg/Include/Base.h"
	.file 4 "/home/kapoagaeming/Downloads/spacemit-image-builder/components/Build/Milk-V-Jupiter/RELEASE_GCC5/RISCV64/MdeModulePkg/Library/BaseVariableFlashInfoLib/BaseVariableFlashInfoLib/DEBUG/AutoGen.h"
	.file 5 "/home/kapoagaeming/Downloads/spacemit-image-builder/components/edk2/MdePkg/Include/Uefi/UefiBaseType.h"
	.file 6 "/home/kapoagaeming/Downloads/spacemit-image-builder/components/edk2/MdePkg/Include/Pi/PiHob.h"
	.file 7 "/home/kapoagaeming/Downloads/spacemit-image-builder/components/edk2/MdeModulePkg/Include/Guid/VariableFlashInfo.h"
	.file 8 "/home/kapoagaeming/Downloads/spacemit-image-builder/components/edk2/MdePkg/Include/Library/HobLib.h"
	.file 9 "/home/kapoagaeming/Downloads/spacemit-image-builder/components/edk2/MdePkg/Include/Library/DebugLib.h"
	.section	.note.GNU-stack,"",@progbits
