	.file	"BaseRiscVMmuLib.c"
	.option pic
	.option norelax
	.attribute arch, "rv64i2p1_m2p0_a2p1_f2p2_d2p2_c2p0_zicsr2p0_zifencei2p0_zmmul1p0_zaamo1p0_zalrsc1p0_zca1p0_zcd1p0"
	.attribute unaligned_access, 0
	.attribute stack_align, 16
	.text
.Ltext0:
	.cfi_sections	.debug_frame
	.file 0 "/home/kapoagaeming/spacemit-image-builder/components/Build/Milk-V-Jupiter/RELEASE_GCC5/RISCV64/UefiCpuPkg/Library/BaseRiscVMmuLib/BaseRiscVMmuLib" "/home/kapoagaeming/spacemit-image-builder/components/edk2/UefiCpuPkg/Library/BaseRiscVMmuLib/BaseRiscVMmuLib.c"
	.section	.data.mModeSupport,"aw"
	.align	3
	.type	mModeSupport, @object
	.size	mModeSupport, 32
mModeSupport:
	.dword	10
	.dword	9
	.dword	8
	.dword	0
	.section	.bss.mMaxRootTableLevel,"aw",@nobits
	.align	3
	.type	mMaxRootTableLevel, @object
	.size	mMaxRootTableLevel, 8
mMaxRootTableLevel:
	.zero	8
	.section	.bss.mBitPerLevel,"aw",@nobits
	.align	3
	.type	mBitPerLevel, @object
	.size	mBitPerLevel, 8
mBitPerLevel:
	.zero	8
	.section	.bss.mTableEntryCount,"aw",@nobits
	.align	3
	.type	mTableEntryCount, @object
	.size	mTableEntryCount, 8
mTableEntryCount:
	.zero	8
	.section	.text.RiscVMmuEnabled,"ax",@progbits
	.align	1
	.type	RiscVMmuEnabled, @function
RiscVMmuEnabled:
.LFB0:
	.file 1 "/home/kapoagaeming/spacemit-image-builder/components/edk2/UefiCpuPkg/Library/BaseRiscVMmuLib/BaseRiscVMmuLib.c"
	.loc 1 61 1
	.cfi_startproc
	addi	sp,sp,-16
	.cfi_def_cfa_offset 16
	sd	ra,8(sp)
	sd	s0,0(sp)
	.cfi_offset 1, -8
	.cfi_offset 8, -16
	addi	s0,sp,16
	.cfi_def_cfa 8, 0
	.loc 1 62 12
	call	RiscVGetSupervisorAddressTranslationRegister@plt
	mv	a4,a0
	.loc 1 63 35
	li	a5,1
	slli	a5,a5,60
	sltu	a5,a4,a5
	seqz	a5,a5
	andi	a5,a5,0xff
	.loc 1 64 1
	mv	a0,a5
	ld	ra,8(sp)
	.cfi_restore 1
	ld	s0,0(sp)
	.cfi_restore 8
	.cfi_def_cfa 2, 16
	addi	sp,sp,16
	.cfi_def_cfa_offset 0
	jr	ra
	.cfi_endproc
.LFE0:
	.size	RiscVMmuEnabled, .-RiscVMmuEnabled
	.section	.text.RiscVGetRootTranslateTable,"ax",@progbits
	.align	1
	.type	RiscVGetRootTranslateTable, @function
RiscVGetRootTranslateTable:
.LFB1:
	.loc 1 77 1
	.cfi_startproc
	addi	sp,sp,-16
	.cfi_def_cfa_offset 16
	sd	ra,8(sp)
	sd	s0,0(sp)
	.cfi_offset 1, -8
	.cfi_offset 8, -16
	addi	s0,sp,16
	.cfi_def_cfa 8, 0
	.loc 1 78 11
	call	RiscVGetSupervisorAddressTranslationRegister@plt
	mv	a5,a0
	.loc 1 78 84 discriminator 1
	slli	a4,a5,12
	li	a5,-1048576
	srli	a5,a5,8
	and	a5,a4,a5
	.loc 1 80 1
	mv	a0,a5
	ld	ra,8(sp)
	.cfi_restore 1
	ld	s0,0(sp)
	.cfi_restore 8
	.cfi_def_cfa 2, 16
	addi	sp,sp,16
	.cfi_def_cfa_offset 0
	jr	ra
	.cfi_endproc
.LFE1:
	.size	RiscVGetRootTranslateTable, .-RiscVGetRootTranslateTable
	.section	.text.IsValidPte,"ax",@progbits
	.align	1
	.type	IsValidPte, @function
IsValidPte:
.LFB2:
	.loc 1 96 1
	.cfi_startproc
	addi	sp,sp,-32
	.cfi_def_cfa_offset 32
	sd	ra,24(sp)
	sd	s0,16(sp)
	.cfi_offset 1, -8
	.cfi_offset 8, -16
	addi	s0,sp,32
	.cfi_def_cfa 8, 0
	sd	a0,-24(s0)
	.loc 1 97 15
	ld	a5,-24(s0)
	andi	a5,a5,1
	.loc 1 97 6
	beq	a5,zero,.L6
	.loc 1 98 16
	ld	a5,-24(s0)
	andi	a4,a5,6
	.loc 1 97 35 discriminator 1
	li	a5,4
	bne	a4,a5,.L7
.L6:
	.loc 1 100 12
	li	a5,0
	j	.L8
.L7:
	.loc 1 103 10
	li	a5,1
.L8:
	.loc 1 104 1
	mv	a0,a5
	ld	ra,24(sp)
	.cfi_restore 1
	ld	s0,16(sp)
	.cfi_restore 8
	.cfi_def_cfa 2, 32
	addi	sp,sp,32
	.cfi_def_cfa_offset 0
	jr	ra
	.cfi_endproc
.LFE2:
	.size	IsValidPte, .-IsValidPte
	.section	.text.SetValidPte,"ax",@progbits
	.align	1
	.type	SetValidPte, @function
SetValidPte:
.LFB3:
	.loc 1 119 1
	.cfi_startproc
	addi	sp,sp,-32
	.cfi_def_cfa_offset 32
	sd	ra,24(sp)
	sd	s0,16(sp)
	.cfi_offset 1, -8
	.cfi_offset 8, -16
	addi	s0,sp,32
	.cfi_def_cfa 8, 0
	sd	a0,-24(s0)
	.loc 1 121 29
	ld	a5,-24(s0)
	ori	a5,a5,33
	.loc 1 122 1
	mv	a0,a5
	ld	ra,24(sp)
	.cfi_restore 1
	ld	s0,16(sp)
	.cfi_restore 8
	.cfi_def_cfa 2, 32
	addi	sp,sp,32
	.cfi_def_cfa_offset 0
	jr	ra
	.cfi_endproc
.LFE3:
	.size	SetValidPte, .-SetValidPte
	.section	.text.IsBlockEntry,"ax",@progbits
	.align	1
	.type	IsBlockEntry, @function
IsBlockEntry:
.LFB4:
	.loc 1 138 1
	.cfi_startproc
	addi	sp,sp,-32
	.cfi_def_cfa_offset 32
	sd	ra,24(sp)
	sd	s0,16(sp)
	.cfi_offset 1, -8
	.cfi_offset 8, -16
	addi	s0,sp,32
	.cfi_def_cfa 8, 0
	sd	a0,-24(s0)
	.loc 1 139 10
	ld	a0,-24(s0)
	call	IsValidPte
	mv	a5,a0
	.loc 1 139 29 discriminator 1
	beq	a5,zero,.L12
	.loc 1 140 17
	ld	a5,-24(s0)
	andi	a5,a5,10
	.loc 1 139 29 discriminator 2
	beq	a5,zero,.L12
	.loc 1 139 29 is_stmt 0 discriminator 4
	li	a5,1
	.loc 1 139 29
	j	.L13
.L12:
	.loc 1 139 29 discriminator 5
	li	a5,0
.L13:
	.loc 1 139 29 discriminator 7
	andi	a5,a5,0xff
	.loc 1 141 1 is_stmt 1
	mv	a0,a5
	ld	ra,24(sp)
	.cfi_restore 1
	ld	s0,16(sp)
	.cfi_restore 8
	.cfi_def_cfa 2, 32
	addi	sp,sp,32
	.cfi_def_cfa_offset 0
	jr	ra
	.cfi_endproc
.LFE4:
	.size	IsBlockEntry, .-IsBlockEntry
	.section	.text.IsTableEntry,"ax",@progbits
	.align	1
	.type	IsTableEntry, @function
IsTableEntry:
.LFB5:
	.loc 1 157 1
	.cfi_startproc
	addi	sp,sp,-32
	.cfi_def_cfa_offset 32
	sd	ra,24(sp)
	sd	s0,16(sp)
	.cfi_offset 1, -8
	.cfi_offset 8, -16
	addi	s0,sp,32
	.cfi_def_cfa 8, 0
	sd	a0,-24(s0)
	.loc 1 158 10
	ld	a0,-24(s0)
	call	IsValidPte
	mv	a5,a0
	.loc 1 158 29 discriminator 1
	beq	a5,zero,.L16
	.loc 1 159 11
	ld	a0,-24(s0)
	call	IsBlockEntry
	mv	a5,a0
	.loc 1 158 29 discriminator 2
	bne	a5,zero,.L16
	.loc 1 158 29 is_stmt 0 discriminator 4
	li	a5,1
	.loc 1 158 29
	j	.L17
.L16:
	.loc 1 158 29 discriminator 5
	li	a5,0
.L17:
	.loc 1 158 29 discriminator 7
	andi	a5,a5,0xff
	.loc 1 160 1 is_stmt 1
	mv	a0,a5
	ld	ra,24(sp)
	.cfi_restore 1
	ld	s0,16(sp)
	.cfi_restore 8
	.cfi_def_cfa 2, 32
	addi	sp,sp,32
	.cfi_def_cfa_offset 0
	jr	ra
	.cfi_endproc
.LFE5:
	.size	IsTableEntry, .-IsTableEntry
	.section	.text.SetTableEntry,"ax",@progbits
	.align	1
	.type	SetTableEntry, @function
SetTableEntry:
.LFB6:
	.loc 1 175 1
	.cfi_startproc
	addi	sp,sp,-32
	.cfi_def_cfa_offset 32
	sd	ra,24(sp)
	sd	s0,16(sp)
	.cfi_offset 1, -8
	.cfi_offset 8, -16
	addi	s0,sp,32
	.cfi_def_cfa 8, 0
	sd	a0,-24(s0)
	.loc 1 176 11
	ld	a0,-24(s0)
	call	SetValidPte
	sd	a0,-24(s0)
	.loc 1 177 9
	ld	a5,-24(s0)
	andi	a5,a5,-15
	sd	a5,-24(s0)
	.loc 1 179 10
	ld	a5,-24(s0)
	.loc 1 180 1
	mv	a0,a5
	ld	ra,24(sp)
	.cfi_restore 1
	ld	s0,16(sp)
	.cfi_restore 8
	.cfi_def_cfa 2, 32
	addi	sp,sp,32
	.cfi_def_cfa_offset 0
	jr	ra
	.cfi_endproc
.LFE6:
	.size	SetTableEntry, .-SetTableEntry
	.section	.text.ReplaceTableEntry,"ax",@progbits
	.align	1
	.type	ReplaceTableEntry, @function
ReplaceTableEntry:
.LFB7:
	.loc 1 199 1
	.cfi_startproc
	addi	sp,sp,-48
	.cfi_def_cfa_offset 48
	sd	ra,40(sp)
	sd	s0,32(sp)
	.cfi_offset 1, -8
	.cfi_offset 8, -16
	addi	s0,sp,48
	.cfi_def_cfa 8, 0
	sd	a0,-24(s0)
	sd	a1,-32(s0)
	sd	a2,-40(s0)
	mv	a5,a3
	sb	a5,-41(s0)
	.loc 1 200 10
	ld	a5,-24(s0)
	ld	a4,-32(s0)
	sd	a4,0(a5)
	.loc 1 202 6
	lbu	a5,-41(s0)
	andi	a5,a5,0xff
	beq	a5,zero,.L23
	.loc 1 202 29 discriminator 1
	call	RiscVMmuEnabled
	mv	a5,a0
	.loc 1 202 26 discriminator 2
	beq	a5,zero,.L23
	.loc 1 203 5
	ld	a0,-40(s0)
	call	RiscVLocalTlbFlush@plt
.L23:
	.loc 1 205 1
	nop
	ld	ra,40(sp)
	.cfi_restore 1
	ld	s0,32(sp)
	.cfi_restore 8
	.cfi_def_cfa 2, 48
	addi	sp,sp,48
	.cfi_def_cfa_offset 0
	jr	ra
	.cfi_endproc
.LFE7:
	.size	ReplaceTableEntry, .-ReplaceTableEntry
	.section	.text.GetPpnfromPte,"ax",@progbits
	.align	1
	.type	GetPpnfromPte, @function
GetPpnfromPte:
.LFB8:
	.loc 1 220 1
	.cfi_startproc
	addi	sp,sp,-32
	.cfi_def_cfa_offset 32
	sd	ra,24(sp)
	sd	s0,16(sp)
	.cfi_offset 1, -8
	.cfi_offset 8, -16
	addi	s0,sp,32
	.cfi_def_cfa 8, 0
	sd	a0,-24(s0)
	.loc 1 221 41
	ld	a5,-24(s0)
	srli	a4,a5,10
	li	a5,-1
	srli	a5,a5,20
	and	a5,a4,a5
	.loc 1 222 1
	mv	a0,a5
	ld	ra,24(sp)
	.cfi_restore 1
	ld	s0,16(sp)
	.cfi_restore 8
	.cfi_def_cfa 2, 32
	addi	sp,sp,32
	.cfi_def_cfa_offset 0
	jr	ra
	.cfi_endproc
.LFE8:
	.size	GetPpnfromPte, .-GetPpnfromPte
	.section	.text.SetPpnToPte,"ax",@progbits
	.align	1
	.type	SetPpnToPte, @function
SetPpnToPte:
.LFB9:
	.loc 1 239 1
	.cfi_startproc
	addi	sp,sp,-48
	.cfi_def_cfa_offset 48
	sd	ra,40(sp)
	sd	s0,32(sp)
	.cfi_offset 1, -8
	.cfi_offset 8, -16
	addi	s0,sp,48
	.cfi_def_cfa 8, 0
	sd	a0,-40(s0)
	sd	a1,-48(s0)
	.loc 1 242 19
	ld	a5,-48(s0)
	srli	a5,a5,12
	.loc 1 242 7
	slli	a5,a5,10
	sd	a5,-24(s0)
	.loc 1 244 9
	ld	a4,-40(s0)
	li	a5,-1
	slli	a5,a5,54
	addi	a5,a5,1023
	and	a5,a4,a5
	sd	a5,-40(s0)
	.loc 1 245 16
	ld	a4,-40(s0)
	ld	a5,-24(s0)
	or	a5,a4,a5
	.loc 1 246 1
	mv	a0,a5
	ld	ra,40(sp)
	.cfi_restore 1
	ld	s0,32(sp)
	.cfi_restore 8
	.cfi_def_cfa 2, 48
	addi	sp,sp,48
	.cfi_def_cfa_offset 0
	jr	ra
	.cfi_endproc
.LFE9:
	.size	SetPpnToPte, .-SetPpnToPte
	.section	.text.FreePageTablesRecursive,"ax",@progbits
	.align	1
	.type	FreePageTablesRecursive, @function
FreePageTablesRecursive:
.LFB10:
	.loc 1 261 1
	.cfi_startproc
	addi	sp,sp,-48
	.cfi_def_cfa_offset 48
	sd	ra,40(sp)
	sd	s0,32(sp)
	.cfi_offset 1, -8
	.cfi_offset 8, -16
	addi	s0,sp,48
	.cfi_def_cfa 8, 0
	sd	a0,-40(s0)
	sd	a1,-48(s0)
	.loc 1 264 34
	lla	a5,mMaxRootTableLevel
	ld	a5,0(a5)
	addi	a5,a5,-1
	.loc 1 264 6
	ld	a4,-48(s0)
	bgeu	a4,a5,.L29
	.loc 1 265 16
	sd	zero,-24(s0)
	.loc 1 265 5
	j	.L30
.L32:
	.loc 1 266 41
	ld	a5,-24(s0)
	slli	a5,a5,3
	ld	a4,-40(s0)
	add	a5,a4,a5
	.loc 1 266 11
	ld	a5,0(a5)
	mv	a0,a5
	call	IsTableEntry
	mv	a5,a0
	.loc 1 266 10 discriminator 1
	beq	a5,zero,.L31
	.loc 1 268 54
	ld	a5,-24(s0)
	slli	a5,a5,3
	ld	a4,-40(s0)
	add	a5,a4,a5
	.loc 1 268 22
	ld	a5,0(a5)
	mv	a0,a5
	call	GetPpnfromPte
	mv	a5,a0
	.loc 1 268 64 discriminator 1
	slli	a5,a5,12
	.loc 1 267 9
	mv	a4,a5
	ld	a5,-48(s0)
	addi	a5,a5,1
	mv	a1,a5
	mv	a0,a4
	call	FreePageTablesRecursive
.L31:
	.loc 1 265 52 discriminator 2
	ld	a5,-24(s0)
	addi	a5,a5,1
	sd	a5,-24(s0)
.L30:
	.loc 1 265 27 discriminator 1
	lla	a5,mTableEntryCount
	ld	a5,0(a5)
	ld	a4,-24(s0)
	bltu	a4,a5,.L32
.L29:
	.loc 1 276 3
	li	a1,1
	ld	a0,-40(s0)
	call	FreePages@plt
	.loc 1 277 1
	nop
	ld	ra,40(sp)
	.cfi_restore 1
	ld	s0,32(sp)
	.cfi_restore 8
	.cfi_def_cfa 2, 48
	addi	sp,sp,48
	.cfi_def_cfa_offset 0
	jr	ra
	.cfi_endproc
.LFE10:
	.size	FreePageTablesRecursive, .-FreePageTablesRecursive
	.section	.text.UpdateRegionMappingRecursive,"ax",@progbits
	.align	1
	.type	UpdateRegionMappingRecursive, @function
UpdateRegionMappingRecursive:
.LFB11:
	.loc 1 305 1
	.cfi_startproc
	addi	sp,sp,-144
	.cfi_def_cfa_offset 144
	sd	ra,136(sp)
	sd	s0,128(sp)
	.cfi_offset 1, -8
	.cfi_offset 8, -16
	addi	s0,sp,144
	.cfi_def_cfa 8, 0
	sd	a0,-88(s0)
	sd	a1,-96(s0)
	sd	a2,-104(s0)
	sd	a3,-112(s0)
	sd	a4,-120(s0)
	sd	a5,-128(s0)
	mv	a5,a6
	sb	a5,-129(s0)
	.loc 1 318 36
	lla	a5,mMaxRootTableLevel
	ld	a4,0(a5)
	ld	a5,-128(s0)
	sub	a5,a4,a5
	.loc 1 318 44
	addi	a4,a5,-1
	.loc 1 318 49
	lla	a5,mBitPerLevel
	ld	a5,0(a5)
	mul	a5,a4,a5
	.loc 1 318 14
	addi	a5,a5,12
	sd	a5,-48(s0)
	.loc 1 319 44
	ld	a5,-48(s0)
	sext.w	a5,a5
	li	a4,64
	subw	a5,a4,a5
	sext.w	a5,a5
	.loc 1 319 13
	mv	a4,a5
	li	a5,-1
	srl	a5,a5,a4
	sd	a5,-56(s0)
	.loc 1 332 3
	j	.L34
.L49:
	.loc 1 333 46
	ld	a4,-88(s0)
	ld	a5,-56(s0)
	or	a5,a4,a5
	.loc 1 333 59
	addi	a4,a5,1
	.loc 1 333 14
	ld	a5,-96(s0)
	bleu	a5,a4,.L35
	mv	a5,a4
.L35:
	sd	a5,-64(s0)
	.loc 1 334 37
	ld	a5,-48(s0)
	sext.w	a5,a5
	mv	a4,a5
	ld	a5,-88(s0)
	srl	a4,a5,a4
	.loc 1 334 72
	lla	a5,mTableEntryCount
	ld	a5,0(a5)
	addi	a5,a5,-1
	.loc 1 334 52
	and	a5,a4,a5
	.loc 1 334 23
	slli	a5,a5,3
	.loc 1 334 11
	ld	a4,-120(s0)
	add	a5,a4,a5
	sd	a5,-72(s0)
	.loc 1 343 8
	ld	a5,-128(s0)
	beq	a5,zero,.L36
	.loc 1 344 24
	ld	a4,-88(s0)
	ld	a5,-64(s0)
	or	a4,a4,a5
	.loc 1 344 36
	ld	a5,-56(s0)
	and	a5,a4,a5
	.loc 1 343 22 discriminator 1
	bne	a5,zero,.L36
	.loc 1 344 58
	ld	a5,-72(s0)
	ld	a5,0(a5)
	mv	a0,a5
	call	IsTableEntry
	mv	a5,a0
	.loc 1 344 55 discriminator 1
	beq	a5,zero,.L37
.L36:
	.loc 1 347 12
	ld	a5,-72(s0)
	ld	a5,0(a5)
	mv	a0,a5
	call	IsTableEntry
	mv	a5,a0
	.loc 1 347 10 discriminator 1
	bne	a5,zero,.L38
	.loc 1 352 28
	li	a0,1
	call	AllocatePages@plt
	sd	a0,-32(s0)
	.loc 1 353 12
	ld	a5,-32(s0)
	bne	a5,zero,.L39
	.loc 1 354 18
	li	a5,-1
	slli	a5,a5,63
	addi	a5,a5,9
	j	.L40
.L39:
	.loc 1 357 9
	li	a1,4096
	ld	a0,-32(s0)
	call	ZeroMem@plt
	.loc 1 359 13
	ld	a5,-72(s0)
	ld	a5,0(a5)
	mv	a0,a5
	call	IsBlockEntry
	mv	a5,a0
	.loc 1 359 12 discriminator 1
	beq	a5,zero,.L41
	.loc 1 365 36
	ld	a5,-56(s0)
	not	a4,a5
	.loc 1 364 20
	ld	a5,-88(s0)
	and	a0,a4,a5
	.loc 1 366 35
	ld	a4,-88(s0)
	ld	a5,-56(s0)
	or	a5,a4,a5
	.loc 1 364 20
	addi	a1,a5,1
	.loc 1 367 22
	ld	a5,-72(s0)
	ld	a5,0(a5)
	.loc 1 364 20
	andi	a2,a5,14
	ld	a5,-128(s0)
	addi	a5,a5,1
	li	a6,0
	ld	a4,-32(s0)
	li	a3,14
	call	UpdateRegionMappingRecursive
	sd	a0,-80(s0)
	.loc 1 373 42
	ld	a5,-80(s0)
	.loc 1 373 14
	bge	a5,zero,.L41
	.loc 1 379 13
	li	a1,1
	ld	a0,-32(s0)
	call	FreePages@plt
	.loc 1 380 20
	ld	a5,-80(s0)
	j	.L40
.L41:
	.loc 1 384 25
	sb	zero,-33(s0)
	j	.L42
.L38:
	.loc 1 386 39
	ld	a5,-72(s0)
	ld	a5,0(a5)
	mv	a0,a5
	call	GetPpnfromPte
	mv	a5,a0
	.loc 1 386 62 discriminator 1
	slli	a5,a5,12
	.loc 1 386 26 discriminator 1
	sd	a5,-32(s0)
	.loc 1 387 25
	lbu	a5,-129(s0)
	sb	a5,-33(s0)
.L42:
	.loc 1 393 16
	ld	a5,-128(s0)
	addi	a5,a5,1
	lbu	a4,-33(s0)
	mv	a6,a4
	ld	a4,-32(s0)
	ld	a3,-112(s0)
	ld	a2,-104(s0)
	ld	a1,-64(s0)
	ld	a0,-88(s0)
	call	UpdateRegionMappingRecursive
	sd	a0,-80(s0)
	.loc 1 402 38
	ld	a5,-80(s0)
	.loc 1 402 10
	bge	a5,zero,.L43
	.loc 1 403 14
	ld	a5,-72(s0)
	ld	a5,0(a5)
	mv	a0,a5
	call	IsTableEntry
	mv	a5,a0
	.loc 1 403 12 discriminator 1
	bne	a5,zero,.L44
	.loc 1 411 11
	ld	a5,-128(s0)
	addi	a5,a5,1
	mv	a1,a5
	ld	a0,-32(s0)
	call	FreePageTablesRecursive
.L44:
	.loc 1 414 16
	ld	a5,-80(s0)
	j	.L40
.L43:
	.loc 1 417 12
	ld	a5,-72(s0)
	ld	a5,0(a5)
	mv	a0,a5
	call	IsTableEntry
	mv	a5,a0
	.loc 1 417 10 discriminator 1
	bne	a5,zero,.L46
	.loc 1 418 22
	ld	a5,-32(s0)
	mv	a1,a5
	li	a0,0
	call	SetPpnToPte
	sd	a0,-24(s0)
	.loc 1 419 22
	ld	a0,-24(s0)
	call	SetTableEntry
	sd	a0,-24(s0)
	.loc 1 420 9
	lbu	a5,-129(s0)
	mv	a3,a5
	ld	a2,-88(s0)
	ld	a1,-24(s0)
	ld	a0,-72(s0)
	call	ReplaceTableEntry
	.loc 1 417 10
	j	.L46
.L37:
	.loc 1 428 21
	ld	a5,-72(s0)
	ld	a4,0(a5)
	.loc 1 428 30
	ld	a5,-112(s0)
	not	a5,a5
	.loc 1 428 28
	and	a5,a4,a5
	.loc 1 428 18
	ld	a4,-104(s0)
	or	a5,a4,a5
	sd	a5,-24(s0)
	.loc 1 434 29
	ld	a5,-104(s0)
	andi	a5,a5,2
	.loc 1 434 10
	beq	a5,zero,.L47
	.loc 1 435 20
	ld	a5,-24(s0)
	ori	a5,a5,64
	sd	a5,-24(s0)
.L47:
	.loc 1 438 29
	ld	a5,-104(s0)
	andi	a5,a5,4
	.loc 1 438 10
	beq	a5,zero,.L48
	.loc 1 439 20
	ld	a5,-24(s0)
	ori	a5,a5,128
	sd	a5,-24(s0)
.L48:
	.loc 1 442 20
	ld	a1,-88(s0)
	ld	a0,-24(s0)
	call	SetPpnToPte
	sd	a0,-24(s0)
	.loc 1 443 20
	ld	a0,-24(s0)
	call	SetValidPte
	sd	a0,-24(s0)
	.loc 1 444 7
	lbu	a5,-129(s0)
	mv	a3,a5
	ld	a2,-88(s0)
	ld	a1,-24(s0)
	ld	a0,-72(s0)
	call	ReplaceTableEntry
.L46:
	.loc 1 332 48
	ld	a5,-64(s0)
	sd	a5,-88(s0)
.L34:
	.loc 1 332 23 discriminator 1
	ld	a4,-88(s0)
	ld	a5,-96(s0)
	bltu	a4,a5,.L49
	.loc 1 448 10
	li	a5,0
.L40:
	.loc 1 449 1
	mv	a0,a5
	ld	ra,136(sp)
	.cfi_restore 1
	ld	s0,128(sp)
	.cfi_restore 8
	.cfi_def_cfa 2, 144
	addi	sp,sp,144
	.cfi_def_cfa_offset 0
	jr	ra
	.cfi_endproc
.LFE11:
	.size	UpdateRegionMappingRecursive, .-UpdateRegionMappingRecursive
	.section	.text.UpdateRegionMapping,"ax",@progbits
	.align	1
	.type	UpdateRegionMapping, @function
UpdateRegionMapping:
.LFB12:
	.loc 1 476 1
	.cfi_startproc
	addi	sp,sp,-64
	.cfi_def_cfa_offset 64
	sd	ra,56(sp)
	sd	s0,48(sp)
	.cfi_offset 1, -8
	.cfi_offset 8, -16
	addi	s0,sp,64
	.cfi_def_cfa 8, 0
	sd	a0,-24(s0)
	sd	a1,-32(s0)
	sd	a2,-40(s0)
	sd	a3,-48(s0)
	sd	a4,-56(s0)
	sb	a5,-57(s0)
	.loc 1 477 21
	ld	a4,-24(s0)
	ld	a5,-32(s0)
	or	a4,a4,a5
	.loc 1 477 37
	li	a5,4096
	addi	a5,a5,-1
	and	a5,a4,a5
	.loc 1 477 6
	beq	a5,zero,.L51
	.loc 1 478 12
	li	a5,-1
	slli	a5,a5,63
	addi	a5,a5,2
	j	.L52
.L51:
	.loc 1 481 10
	ld	a4,-24(s0)
	ld	a5,-32(s0)
	add	a1,a4,a5
	lbu	a5,-57(s0)
	mv	a6,a5
	li	a5,0
	ld	a4,-56(s0)
	ld	a3,-48(s0)
	ld	a2,-40(s0)
	ld	a0,-24(s0)
	call	UpdateRegionMappingRecursive
	mv	a5,a0
.L52:
	.loc 1 490 1
	mv	a0,a5
	ld	ra,56(sp)
	.cfi_restore 1
	ld	s0,48(sp)
	.cfi_restore 8
	.cfi_def_cfa 2, 64
	addi	sp,sp,64
	.cfi_def_cfa_offset 0
	jr	ra
	.cfi_endproc
.LFE12:
	.size	UpdateRegionMapping, .-UpdateRegionMapping
	.section	.text.GcdAttributeToPageAttribute,"ax",@progbits
	.align	1
	.type	GcdAttributeToPageAttribute, @function
GcdAttributeToPageAttribute:
.LFB13:
	.loc 1 508 1
	.cfi_startproc
	addi	sp,sp,-48
	.cfi_def_cfa_offset 48
	sd	ra,40(sp)
	sd	s0,32(sp)
	.cfi_offset 1, -8
	.cfi_offset 8, -16
	addi	s0,sp,48
	.cfi_def_cfa 8, 0
	sd	a0,-40(s0)
	sd	a1,-48(s0)
	.loc 1 512 6
	ld	a5,-48(s0)
	bne	a5,zero,.L54
	.loc 1 513 12
	li	a5,-1
	slli	a5,a5,63
	addi	a5,a5,2
	j	.L55
.L54:
	.loc 1 516 20
	ld	a5,-48(s0)
	li	a4,14
	sd	a4,0(a5)
	.loc 1 518 18
	sb	zero,-17(s0)
	.loc 1 519 51
	la	a5,_gPcd_FixedAtBuild_PcdRiscVFeatureOverride
	ld	a5,0(a5)
	andi	a5,a5,4
	.loc 1 519 6
	beq	a5,zero,.L56
	.loc 1 520 20
	li	a5,1
	sb	a5,-17(s0)
.L56:
	.loc 1 524 22
	ld	a4,-40(s0)
	li	a5,131072
	and	a5,a4,a5
	.loc 1 524 6
	beq	a5,zero,.L57
	.loc 1 525 5
	ld	a5,-48(s0)
	ld	a5,0(a5)
	.loc 1 525 22
	andi	a4,a5,-5
	ld	a5,-48(s0)
	sd	a4,0(a5)
.L57:
	.loc 1 529 22
	ld	a4,-40(s0)
	li	a5,16384
	and	a5,a4,a5
	.loc 1 529 6
	beq	a5,zero,.L58
	.loc 1 530 5
	ld	a5,-48(s0)
	ld	a5,0(a5)
	.loc 1 530 22
	andi	a4,a5,-9
	ld	a5,-48(s0)
	sd	a4,0(a5)
.L58:
	.loc 1 533 17
	ld	a4,-40(s0)
	li	a5,4096
	addi	a5,a5,31
	and	a5,a4,a5
	sd	a5,-32(s0)
	.loc 1 534 6
	ld	a5,-32(s0)
	beq	a5,zero,.L59
	.loc 1 535 24
	ld	a5,-32(s0)
	addi	a4,a5,-1
	.loc 1 535 29
	ld	a5,-32(s0)
	and	a5,a4,a5
	.loc 1 534 28 discriminator 1
	beq	a5,zero,.L59
	.loc 1 543 12
	li	a5,-1
	slli	a5,a5,63
	addi	a5,a5,2
	j	.L55
.L59:
	.loc 1 546 3
	ld	a4,-32(s0)
	li	a5,1
	beq	a4,a5,.L60
	ld	a4,-32(s0)
	li	a5,2
	beq	a4,a5,.L61
	.loc 1 567 7
	j	.L64
.L60:
	.loc 1 548 10
	lbu	a5,-17(s0)
	andi	a5,a5,0xff
	beq	a5,zero,.L66
	.loc 1 549 9
	ld	a5,-48(s0)
	ld	a4,0(a5)
	.loc 1 549 26
	li	a5,1
	slli	a5,a5,62
	or	a4,a4,a5
	ld	a5,-48(s0)
	sd	a4,0(a5)
	.loc 1 552 7
	j	.L66
.L61:
	.loc 1 554 10
	lbu	a5,-17(s0)
	andi	a5,a5,0xff
	beq	a5,zero,.L67
	.loc 1 555 9
	ld	a5,-48(s0)
	ld	a4,0(a5)
	.loc 1 555 26
	li	a5,1
	slli	a5,a5,61
	or	a4,a4,a5
	ld	a5,-48(s0)
	sd	a4,0(a5)
	.loc 1 564 7
	j	.L67
.L66:
	.loc 1 552 7
	nop
	j	.L64
.L67:
	.loc 1 564 7
	nop
.L64:
	.loc 1 570 10
	li	a5,0
.L55:
	.loc 1 571 1
	mv	a0,a5
	ld	ra,40(sp)
	.cfi_restore 1
	ld	s0,32(sp)
	.cfi_restore 8
	.cfi_def_cfa 2, 48
	addi	sp,sp,48
	.cfi_def_cfa_offset 0
	jr	ra
	.cfi_endproc
.LFE13:
	.size	GcdAttributeToPageAttribute, .-GcdAttributeToPageAttribute
	.section	.text.RiscVSetMemoryAttributes,"ax",@progbits
	.align	1
	.globl	RiscVSetMemoryAttributes
	.type	RiscVSetMemoryAttributes, @function
RiscVSetMemoryAttributes:
.LFB14:
	.loc 1 592 1
	.cfi_startproc
	addi	sp,sp,-96
	.cfi_def_cfa_offset 96
	sd	ra,88(sp)
	sd	s0,80(sp)
	sd	s1,72(sp)
	.cfi_offset 1, -8
	.cfi_offset 8, -16
	.cfi_offset 9, -24
	addi	s0,sp,96
	.cfi_def_cfa 8, 0
	sd	a0,-72(s0)
	sd	a1,-80(s0)
	sd	a2,-88(s0)
	.loc 1 597 12
	addi	a5,s0,-56
	mv	a1,a5
	ld	a0,-88(s0)
	call	GcdAttributeToPageAttribute
	sd	a0,-48(s0)
	.loc 1 598 34
	ld	a5,-48(s0)
	.loc 1 598 6
	bge	a5,zero,.L69
	.loc 1 599 12
	ld	a5,-48(s0)
	j	.L73
.L69:
	.loc 1 602 8
	call	RiscVMmuEnabled
	mv	a5,a0
	.loc 1 602 6 discriminator 1
	bne	a5,zero,.L71
	.loc 1 603 12
	li	a5,0
	j	.L73
.L71:
	.loc 1 606 23
	li	a5,14
	sd	a5,-40(s0)
	.loc 1 607 51
	la	a5,_gPcd_FixedAtBuild_PcdRiscVFeatureOverride
	ld	a5,0(a5)
	andi	a5,a5,4
	.loc 1 607 6
	beq	a5,zero,.L72
	.loc 1 608 25
	ld	a4,-40(s0)
	li	a5,3
	slli	a5,a5,61
	or	a5,a4,a5
	sd	a5,-40(s0)
.L72:
	.loc 1 620 10
	ld	s1,-56(s0)
	.loc 1 625 22
	call	RiscVGetRootTranslateTable
	mv	a5,a0
	.loc 1 620 10
	mv	a4,a5
	li	a5,1
	ld	a3,-40(s0)
	mv	a2,s1
	ld	a1,-80(s0)
	ld	a0,-72(s0)
	call	UpdateRegionMapping
	mv	a5,a0
.L73:
	.loc 1 628 1
	mv	a0,a5
	ld	ra,88(sp)
	.cfi_restore 1
	ld	s0,80(sp)
	.cfi_restore 8
	.cfi_def_cfa 2, 96
	ld	s1,72(sp)
	.cfi_restore 9
	addi	sp,sp,96
	.cfi_def_cfa_offset 0
	jr	ra
	.cfi_endproc
.LFE14:
	.size	RiscVSetMemoryAttributes, .-RiscVSetMemoryAttributes
	.section	.text.RiscVMmuSetSatpMode,"ax",@progbits
	.align	1
	.type	RiscVMmuSetSatpMode, @function
RiscVMmuSetSatpMode:
.LFB15:
	.loc 1 646 1
	.cfi_startproc
	addi	sp,sp,-96
	.cfi_def_cfa_offset 96
	sd	ra,88(sp)
	sd	s0,80(sp)
	.cfi_offset 1, -8
	.cfi_offset 8, -16
	addi	s0,sp,96
	.cfi_def_cfa 8, 0
	sd	a0,-88(s0)
	.loc 1 655 16
	la	a5,_gPcd_FixedAtBuild_PcdCpuRiscVMmuMaxSatpMode
	lw	a5,0(a5)
	slli	a5,a5,32
	srli	a5,a5,32
	.loc 1 655 6
	ld	a4,-88(s0)
	bleu	a4,a5,.L75
	.loc 1 656 12
	li	a5,-1
	slli	a5,a5,63
	addi	a5,a5,7
	j	.L91
.L75:
	.loc 1 659 3
	ld	a4,-88(s0)
	li	a5,10
	beq	a4,a5,.L77
	ld	a4,-88(s0)
	li	a5,10
	bgtu	a4,a5,.L78
	ld	a4,-88(s0)
	li	a5,9
	beq	a4,a5,.L79
	ld	a4,-88(s0)
	li	a5,9
	bgtu	a4,a5,.L78
	ld	a5,-88(s0)
	beq	a5,zero,.L80
	ld	a4,-88(s0)
	li	a5,8
	beq	a4,a5,.L81
	j	.L78
.L80:
	.loc 1 661 14
	li	a5,0
	j	.L91
.L81:
	.loc 1 663 26
	lla	a5,mMaxRootTableLevel
	li	a4,3
	sd	a4,0(a5)
	.loc 1 664 20
	lla	a5,mBitPerLevel
	li	a4,9
	sd	a4,0(a5)
	.loc 1 665 24
	lla	a5,mTableEntryCount
	li	a4,512
	sd	a4,0(a5)
	.loc 1 666 7
	j	.L82
.L79:
	.loc 1 668 26
	lla	a5,mMaxRootTableLevel
	li	a4,4
	sd	a4,0(a5)
	.loc 1 669 20
	lla	a5,mBitPerLevel
	li	a4,9
	sd	a4,0(a5)
	.loc 1 670 24
	lla	a5,mTableEntryCount
	li	a4,512
	sd	a4,0(a5)
	.loc 1 671 7
	j	.L82
.L77:
	.loc 1 673 26
	lla	a5,mMaxRootTableLevel
	li	a4,5
	sd	a4,0(a5)
	.loc 1 674 20
	lla	a5,mBitPerLevel
	li	a4,9
	sd	a4,0(a5)
	.loc 1 675 24
	lla	a5,mTableEntryCount
	li	a4,512
	sd	a4,0(a5)
	.loc 1 676 7
	j	.L82
.L78:
	.loc 1 678 14
	li	a5,-1
	slli	a5,a5,63
	addi	a5,a5,2
	j	.L91
.L82:
	.loc 1 682 22
	li	a0,1
	call	AllocatePages@plt
	sd	a0,-32(s0)
	.loc 1 683 6
	ld	a5,-32(s0)
	bne	a5,zero,.L83
	.loc 1 684 12
	li	a5,-1
	slli	a5,a5,63
	addi	a5,a5,9
	j	.L91
.L83:
	.loc 1 687 3
	lla	a5,mTableEntryCount
	ld	a5,0(a5)
	.loc 1 687 47
	slli	a5,a5,3
	.loc 1 687 3
	mv	a1,a5
	ld	a0,-32(s0)
	call	ZeroMem@plt
	.loc 1 689 23
	sd	zero,-72(s0)
	.loc 1 690 13
	sd	zero,-64(s0)
	.loc 1 691 15
	la	a5,gDS
	ld	a5,0(a5)
	ld	a5,72(a5)
	.loc 1 691 12
	addi	a3,s0,-64
	addi	a4,s0,-72
	mv	a1,a3
	mv	a0,a4
	jalr	a5
.LVL0:
	sd	a0,-40(s0)
	.loc 1 697 14
	sd	zero,-24(s0)
	.loc 1 697 3
	j	.L84
.L87:
	.loc 1 698 18
	ld	a3,-64(s0)
	ld	a4,-24(s0)
	mv	a5,a4
	slli	a5,a5,3
	sub	a5,a5,a4
	slli	a5,a5,3
	add	a5,a3,a5
	.loc 1 698 25
	lw	a4,32(a5)
	.loc 1 698 8
	li	a5,3
	bne	a4,a5,.L85
	.loc 1 701 18
	ld	a3,-64(s0)
	ld	a4,-24(s0)
	mv	a5,a4
	slli	a5,a5,3
	sub	a5,a5,a4
	slli	a5,a5,3
	add	a5,a3,a5
	.loc 1 701 25
	ld	a0,0(a5)
	.loc 1 702 18
	ld	a3,-64(s0)
	ld	a4,-24(s0)
	mv	a5,a4
	slli	a5,a5,3
	sub	a5,a5,a4
	slli	a5,a5,3
	add	a5,a3,a5
	.loc 1 700 7
	ld	a1,8(a5)
	li	a5,0
	ld	a4,-32(s0)
	li	a3,14
	li	a2,6
	call	UpdateRegionMapping
	j	.L86
.L85:
	.loc 1 708 25
	ld	a3,-64(s0)
	ld	a4,-24(s0)
	mv	a5,a4
	slli	a5,a5,3
	sub	a5,a5,a4
	slli	a5,a5,3
	add	a5,a3,a5
	.loc 1 708 32
	lw	a4,32(a5)
	.loc 1 708 15
	li	a5,2
	bne	a4,a5,.L86
	.loc 1 711 18
	ld	a3,-64(s0)
	ld	a4,-24(s0)
	mv	a5,a4
	slli	a5,a5,3
	sub	a5,a5,a4
	slli	a5,a5,3
	add	a5,a3,a5
	.loc 1 711 25
	ld	a0,0(a5)
	.loc 1 712 18
	ld	a3,-64(s0)
	ld	a4,-24(s0)
	mv	a5,a4
	slli	a5,a5,3
	sub	a5,a5,a4
	slli	a5,a5,3
	add	a5,a3,a5
	.loc 1 710 7
	ld	a1,8(a5)
	li	a5,0
	ld	a4,-32(s0)
	li	a3,14
	li	a2,14
	call	UpdateRegionMapping
.L86:
	.loc 1 697 53 discriminator 2
	ld	a5,-24(s0)
	addi	a5,a5,1
	sd	a5,-24(s0)
.L84:
	.loc 1 697 25 discriminator 1
	ld	a5,-72(s0)
	ld	a4,-24(s0)
	bltu	a4,a5,.L87
	.loc 1 721 3
	ld	a5,-64(s0)
	mv	a0,a5
	call	FreePool@plt
	.loc 1 723 7
	call	GetInterruptState@plt
	mv	a5,a0
	.loc 1 723 6 discriminator 1
	beq	a5,zero,.L88
	.loc 1 724 5
	call	DisableInterrupts@plt
.L88:
	.loc 1 727 9
	ld	a5,-32(s0)
	.loc 1 727 7
	srli	a5,a5,12
	sd	a5,-48(s0)
	.loc 1 730 11
	ld	a5,-48(s0)
	sd	a5,-56(s0)
	.loc 1 732 19
	ld	a5,-88(s0)
	slli	a5,a5,60
	.loc 1 731 11
	ld	a4,-56(s0)
	or	a5,a4,a5
	sd	a5,-56(s0)
	.loc 1 733 3
	ld	a0,-56(s0)
	call	RiscVSetSupervisorAddressTranslationRegister@plt
	.loc 1 735 18
	call	RiscVGetSupervisorAddressTranslationRegister@plt
	mv	a4,a0
	.loc 1 735 6 discriminator 1
	ld	a5,-56(s0)
	beq	a5,a4,.L89
	.loc 1 742 5
	li	a1,0
	ld	a0,-32(s0)
	call	FreePageTablesRecursive
	.loc 1 743 12
	li	a5,-1
	slli	a5,a5,63
	addi	a5,a5,7
	j	.L91
.L89:
	.loc 1 746 3
	call	RiscVLocalTlbFlushAll@plt
	.loc 1 748 7
	call	GetInterruptState@plt
	mv	a5,a0
	.loc 1 748 6 discriminator 1
	beq	a5,zero,.L90
	.loc 1 749 5
	call	EnableInterrupts@plt
.L90:
	.loc 1 752 10
	ld	a5,-40(s0)
.L91:
	.loc 1 753 1
	mv	a0,a5
	ld	ra,88(sp)
	.cfi_restore 1
	ld	s0,80(sp)
	.cfi_restore 8
	.cfi_def_cfa 2, 96
	addi	sp,sp,96
	.cfi_def_cfa_offset 0
	jr	ra
	.cfi_endproc
.LFE15:
	.size	RiscVMmuSetSatpMode, .-RiscVMmuSetSatpMode
	.section	.text.RiscVConfigureMmu,"ax",@progbits
	.align	1
	.globl	RiscVConfigureMmu
	.type	RiscVConfigureMmu, @function
RiscVConfigureMmu:
.LFB16:
	.loc 1 767 1
	.cfi_startproc
	addi	sp,sp,-32
	.cfi_def_cfa_offset 32
	sd	ra,24(sp)
	sd	s0,16(sp)
	.cfi_offset 1, -8
	.cfi_offset 8, -16
	addi	s0,sp,32
	.cfi_def_cfa 8, 0
	.loc 1 771 10
	sd	zero,-24(s0)
	.loc 1 774 12
	sd	zero,-32(s0)
	.loc 1 774 3
	j	.L93
.L99:
	.loc 1 775 14
	lla	a4,mModeSupport
	ld	a5,-32(s0)
	slli	a5,a5,3
	add	a5,a4,a5
	ld	a5,0(a5)
	mv	a0,a5
	call	RiscVMmuSetSatpMode
	sd	a0,-24(s0)
	.loc 1 776 8
	ld	a4,-24(s0)
	li	a5,-1
	slli	a5,a5,63
	addi	a5,a5,7
	beq	a4,a5,.L101
	.loc 1 778 43
	ld	a5,-24(s0)
	.loc 1 778 15
	bge	a5,zero,.L102
	.loc 1 779 14
	ld	a5,-24(s0)
	j	.L97
.L101:
	.loc 1 777 7
	nop
	.loc 1 774 80 discriminator 2
	ld	a5,-32(s0)
	addi	a5,a5,1
	sd	a5,-32(s0)
.L93:
	.loc 1 774 21 discriminator 1
	ld	a4,-32(s0)
	li	a5,3
	bleu	a4,a5,.L99
	j	.L98
.L102:
	.loc 1 788 5
	nop
.L98:
	.loc 1 791 10
	ld	a5,-24(s0)
.L97:
	.loc 1 792 1
	mv	a0,a5
	ld	ra,24(sp)
	.cfi_restore 1
	ld	s0,16(sp)
	.cfi_restore 8
	.cfi_def_cfa 2, 32
	addi	sp,sp,32
	.cfi_def_cfa_offset 0
	jr	ra
	.cfi_endproc
.LFE16:
	.size	RiscVConfigureMmu, .-RiscVConfigureMmu
	.text
.Letext0:
	.file 2 "/home/kapoagaeming/spacemit-image-builder/components/edk2/MdePkg/Include/RiscV64/ProcessorBind.h"
	.file 3 "/home/kapoagaeming/spacemit-image-builder/components/edk2/MdePkg/Include/Base.h"
	.file 4 "/home/kapoagaeming/spacemit-image-builder/components/Build/Milk-V-Jupiter/RELEASE_GCC5/RISCV64/UefiCpuPkg/Library/BaseRiscVMmuLib/BaseRiscVMmuLib/DEBUG/AutoGen.h"
	.file 5 "/home/kapoagaeming/spacemit-image-builder/components/edk2/MdePkg/Include/Uefi/UefiBaseType.h"
	.file 6 "/home/kapoagaeming/spacemit-image-builder/components/edk2/MdePkg/Include/Uefi/UefiMultiPhase.h"
	.file 7 "/home/kapoagaeming/spacemit-image-builder/components/edk2/MdePkg/Include/Pi/PiDxeCis.h"
	.file 8 "/home/kapoagaeming/spacemit-image-builder/components/edk2/MdePkg/Include/Library/BaseLib.h"
	.file 9 "/home/kapoagaeming/spacemit-image-builder/components/edk2/UefiCpuPkg/Include/Library/BaseRiscVMmuLib.h"
	.file 10 "/home/kapoagaeming/spacemit-image-builder/components/edk2/MdePkg/Include/Library/MemoryAllocationLib.h"
	.file 11 "/home/kapoagaeming/spacemit-image-builder/components/edk2/MdePkg/Include/Library/BaseMemoryLib.h"
	.file 12 "/home/kapoagaeming/spacemit-image-builder/components/edk2/MdePkg/Include/Library/DxeServicesTableLib.h"
	.section	.note.GNU-stack,"",@progbits
