	.file	"UefiShellCommandLib.c"
	.option pic
	.option norelax
	.attribute arch, "rv64i2p1_m2p0_a2p1_f2p2_d2p2_c2p0_zicsr2p0_zifencei2p0_zmmul1p0_zaamo1p0_zalrsc1p0_zca1p0_zcd1p0"
	.attribute unaligned_access, 0
	.attribute stack_align, 16
	.text
.Ltext0:
	.cfi_sections	.debug_frame
	.file 0 "/home/kapoagaeming/spacemit-image-builder/components/Build/Milk-V-Jupiter/RELEASE_GCC5/RISCV64/ShellPkg/Library/UefiShellCommandLib/UefiShellCommandLib" "/home/kapoagaeming/spacemit-image-builder/components/edk2/ShellPkg/Library/UefiShellCommandLib/UefiShellCommandLib.c"
	.section	.bss.mCommandList,"aw",@nobits
	.align	3
	.type	mCommandList, @object
	.size	mCommandList, 64
mCommandList:
	.zero	64
	.section	.bss.mScriptList,"aw",@nobits
	.align	3
	.type	mScriptList, @object
	.size	mScriptList, 24
mScriptList:
	.zero	24
	.section	.bss.mAliasList,"aw",@nobits
	.align	3
	.type	mAliasList, @object
	.size	mAliasList, 32
mAliasList:
	.zero	32
	.section	.bss.mEchoState,"aw",@nobits
	.type	mEchoState, @object
	.size	mEchoState, 1
mEchoState:
	.zero	1
	.section	.bss.mExitRequested,"aw",@nobits
	.type	mExitRequested, @object
	.size	mExitRequested, 1
mExitRequested:
	.zero	1
	.section	.bss.mExitCode,"aw",@nobits
	.align	3
	.type	mExitCode, @object
	.size	mExitCode, 8
mExitCode:
	.zero	8
	.section	.bss.mExitScript,"aw",@nobits
	.type	mExitScript, @object
	.size	mExitScript, 1
mExitScript:
	.zero	1
	.section	.bss.mProfileList,"aw",@nobits
	.align	3
	.type	mProfileList, @object
	.size	mProfileList, 8
mProfileList:
	.zero	8
	.section	.bss.mProfileListSize,"aw",@nobits
	.align	3
	.type	mProfileListSize, @object
	.size	mProfileListSize, 8
mProfileListSize:
	.zero	8
	.section	.bss.mFsMaxCount,"aw",@nobits
	.align	3
	.type	mFsMaxCount, @object
	.size	mFsMaxCount, 8
mFsMaxCount:
	.zero	8
	.section	.bss.mBlkMaxCount,"aw",@nobits
	.align	3
	.type	mBlkMaxCount, @object
	.size	mBlkMaxCount, 8
mBlkMaxCount:
	.zero	8
	.section	.bss.mFileHandleList,"aw",@nobits
	.align	3
	.type	mFileHandleList, @object
	.size	mFileHandleList, 24
mFileHandleList:
	.zero	24
	.section	.rodata.Hex,"a"
	.align	3
	.type	Hex, @object
	.size	Hex, 16
Hex:
	.ascii	"0123456789ABCDEF"
	.globl	gUnicodeCollation
	.section	.bss.gUnicodeCollation,"aw",@nobits
	.align	3
	.type	gUnicodeCollation, @object
	.size	gUnicodeCollation, 8
gUnicodeCollation:
	.zero	8
	.globl	gShellMapList
	.section	.bss.gShellMapList,"aw",@nobits
	.align	3
	.type	gShellMapList, @object
	.size	gShellMapList, 48
gShellMapList:
	.zero	48
	.globl	gShellCurMapping
	.section	.bss.gShellCurMapping,"aw",@nobits
	.align	3
	.type	gShellCurMapping, @object
	.size	gShellCurMapping, 8
gShellCurMapping:
	.zero	8
	.globl	SupportLevel
	.section	.rodata
	.align	3
.LC0:
	.string	"M"
	.string	"i"
	.string	"n"
	.string	"i"
	.string	"m"
	.string	"a"
	.string	"l"
	.zero	2
	.align	3
.LC1:
	.string	"S"
	.string	"c"
	.string	"r"
	.string	"i"
	.string	"p"
	.string	"t"
	.string	"i"
	.string	"n"
	.string	"g"
	.zero	2
	.align	3
.LC2:
	.string	"B"
	.string	"a"
	.string	"s"
	.string	"i"
	.string	"c"
	.zero	2
	.align	3
.LC3:
	.string	"I"
	.string	"n"
	.string	"t"
	.string	"e"
	.string	"r"
	.string	"a"
	.string	"c"
	.string	"t"
	.string	"i"
	.string	"v"
	.string	"e"
	.zero	2
	.section	.data.rel.local.SupportLevel,"aw"
	.align	3
	.type	SupportLevel, @object
	.size	SupportLevel, 32
SupportLevel:
	.dword	.LC0
	.dword	.LC1
	.dword	.LC2
	.dword	.LC3
	.section	.rodata
	.align	3
.LC4:
	.string	"P"
	.string	"l"
	.string	"a"
	.string	"t"
	.string	"f"
	.string	"o"
	.string	"r"
	.string	"m"
	.string	"L"
	.string	"a"
	.string	"n"
	.string	"g"
	.zero	2
	.section	.text.CommandInit,"ax",@progbits
	.align	1
	.globl	CommandInit
	.type	CommandInit, @function
CommandInit:
.LFB0:
	.file 1 "/home/kapoagaeming/spacemit-image-builder/components/edk2/ShellPkg/Library/UefiShellCommandLib/UefiShellCommandLib.c"
	.loc 1 68 1
	.cfi_startproc
	addi	sp,sp,-80
	.cfi_def_cfa_offset 80
	sd	ra,72(sp)
	sd	s0,64(sp)
	.cfi_offset 1, -8
	.cfi_offset 8, -16
	addi	s0,sp,80
	.cfi_def_cfa 8, 0
	.loc 1 77 25
	lla	a5,gUnicodeCollation
	ld	a5,0(a5)
	.loc 1 77 6
	bne	a5,zero,.L2
	.loc 1 78 5
	addi	a5,s0,-72
	li	a2,0
	mv	a1,a5
	lla	a0,.LC4
	call	GetEfiGlobalVariable2@plt
	.loc 1 80 17
	la	a5,gBS
	ld	a5,0(a5)
	ld	a5,312(a5)
	.loc 1 80 14
	addi	a4,s0,-56
	addi	a3,s0,-48
	li	a2,0
	la	a1,gEfiUnicodeCollation2ProtocolGuid
	li	a0,2
	jalr	a5
.LVL0:
	sd	a0,-32(s0)
	.loc 1 87 36
	ld	a5,-32(s0)
	.loc 1 87 8
	bge	a5,zero,.L3
	.loc 1 88 18
	sd	zero,-48(s0)
	.loc 1 89 15
	sd	zero,-56(s0)
.L3:
	.loc 1 92 16
	sd	zero,-24(s0)
	.loc 1 92 5
	j	.L4
.L10:
	.loc 1 96 19
	la	a5,gBS
	ld	a5,0(a5)
	ld	a6,280(a5)
	.loc 1 97 30
	ld	a4,-56(s0)
	ld	a5,-24(s0)
	slli	a5,a5,3
	add	a5,a4,a5
	.loc 1 96 16
	ld	a0,0(a5)
	la	a5,gImageHandle
	ld	a3,0(a5)
	addi	a2,s0,-64
	li	a5,2
	li	a4,0
	la	a1,gEfiUnicodeCollation2ProtocolGuid
	jalr	a6
.LVL1:
	sd	a0,-32(s0)
	.loc 1 104 38
	ld	a5,-32(s0)
	.loc 1 104 10
	blt	a5,zero,.L15
	.loc 1 113 29
	lla	a5,gUnicodeCollation
	ld	a5,0(a5)
	.loc 1 113 10
	bne	a5,zero,.L7
	.loc 1 114 27
	ld	a4,-64(s0)
	lla	a5,gUnicodeCollation
	sd	a4,0(a5)
.L7:
	.loc 1 117 24
	ld	a5,-72(s0)
	.loc 1 117 10
	beq	a5,zero,.L16
	.loc 1 126 26
	ld	a5,-64(s0)
	ld	a5,48(a5)
	.loc 1 125 22
	ld	a4,-72(s0)
	li	a3,0
	mv	a2,a4
	li	a1,0
	mv	a0,a5
	call	GetBestLanguage@plt
	sd	a0,-40(s0)
	.loc 1 131 10
	ld	a5,-40(s0)
	beq	a5,zero,.L6
	.loc 1 132 9
	ld	a0,-40(s0)
	call	FreePool@plt
	.loc 1 133 27
	ld	a4,-64(s0)
	lla	a5,gUnicodeCollation
	sd	a4,0(a5)
	.loc 1 134 9
	j	.L9
.L15:
	.loc 1 105 9
	nop
.L6:
	.loc 1 92 46 discriminator 2
	ld	a5,-24(s0)
	addi	a5,a5,1
	sd	a5,-24(s0)
.L4:
	.loc 1 92 27 discriminator 1
	ld	a5,-48(s0)
	ld	a4,-24(s0)
	bltu	a4,a5,.L10
	j	.L9
.L16:
	.loc 1 118 9
	nop
.L9:
	.loc 1 138 17
	ld	a5,-56(s0)
	.loc 1 138 8
	beq	a5,zero,.L11
	.loc 1 139 7
	ld	a5,-56(s0)
	mv	a0,a5
	call	FreePool@plt
.L11:
	.loc 1 142 22
	ld	a5,-72(s0)
	.loc 1 142 8
	beq	a5,zero,.L2
	.loc 1 143 7
	ld	a5,-72(s0)
	mv	a0,a5
	call	FreePool@plt
.L2:
	.loc 1 147 29
	lla	a5,gUnicodeCollation
	ld	a5,0(a5)
	.loc 1 147 95
	bne	a5,zero,.L12
	.loc 1 147 95 is_stmt 0 discriminator 1
	li	a5,-1
	slli	a5,a5,63
	addi	a5,a5,3
	.loc 1 147 95
	j	.L14
.L12:
	.loc 1 147 95 discriminator 2
	li	a5,0
.L14:
	.loc 1 148 1 is_stmt 1
	mv	a0,a5
	ld	ra,72(sp)
	.cfi_restore 1
	ld	s0,64(sp)
	.cfi_restore 8
	.cfi_def_cfa 2, 80
	addi	sp,sp,80
	.cfi_def_cfa_offset 0
	jr	ra
	.cfi_endproc
.LFE0:
	.size	CommandInit, .-CommandInit
	.section	.text.ShellCommandLibConstructor,"ax",@progbits
	.align	1
	.globl	ShellCommandLibConstructor
	.type	ShellCommandLibConstructor, @function
ShellCommandLibConstructor:
.LFB1:
	.loc 1 166 1
	.cfi_startproc
	addi	sp,sp,-48
	.cfi_def_cfa_offset 48
	sd	ra,40(sp)
	sd	s0,32(sp)
	.cfi_offset 1, -8
	.cfi_offset 8, -16
	addi	s0,sp,48
	.cfi_def_cfa 8, 0
	sd	a0,-40(s0)
	sd	a1,-48(s0)
	.loc 1 169 3
	lla	a0,gShellMapList
	call	InitializeListHead@plt
	.loc 1 170 3
	lla	a0,mCommandList
	call	InitializeListHead@plt
	.loc 1 171 3
	lla	a0,mAliasList
	call	InitializeListHead@plt
	.loc 1 172 3
	lla	a0,mScriptList
	call	InitializeListHead@plt
	.loc 1 173 3
	lla	a0,mFileHandleList
	call	InitializeListHead@plt
	.loc 1 174 14
	lla	a5,mEchoState
	li	a4,1
	sb	a4,0(a5)
	.loc 1 176 18
	lla	a5,mExitRequested
	sb	zero,0(a5)
	.loc 1 177 15
	lla	a5,mExitScript
	sb	zero,0(a5)
	.loc 1 178 20
	lla	a5,mProfileListSize
	sd	zero,0(a5)
	.loc 1 179 16
	lla	a5,mProfileList
	sd	zero,0(a5)
	.loc 1 181 12
	call	CommandInit
	sd	a0,-24(s0)
	.loc 1 182 34
	ld	a5,-24(s0)
	.loc 1 182 6
	bge	a5,zero,.L18
	.loc 1 183 12
	li	a5,-1
	slli	a5,a5,63
	addi	a5,a5,7
	j	.L19
.L18:
	.loc 1 186 10
	li	a5,0
.L19:
	.loc 1 187 1
	mv	a0,a5
	ld	ra,40(sp)
	.cfi_restore 1
	ld	s0,32(sp)
	.cfi_restore 8
	.cfi_def_cfa 2, 48
	addi	sp,sp,48
	.cfi_def_cfa_offset 0
	jr	ra
	.cfi_endproc
.LFE1:
	.size	ShellCommandLibConstructor, .-ShellCommandLibConstructor
	.section	.text.FreeFileHandleList,"ax",@progbits
	.align	1
	.globl	FreeFileHandleList
	.type	FreeFileHandleList, @function
FreeFileHandleList:
.LFB2:
	.loc 1 198 1
	.cfi_startproc
	addi	sp,sp,-48
	.cfi_def_cfa_offset 48
	sd	ra,40(sp)
	sd	s0,32(sp)
	.cfi_offset 1, -8
	.cfi_offset 8, -16
	addi	s0,sp,48
	.cfi_def_cfa 8, 0
	sd	a0,-40(s0)
	.loc 1 201 6
	ld	a5,-40(s0)
	beq	a5,zero,.L28
	.loc 1 208 56
	ld	a5,-40(s0)
	.loc 1 208 42
	mv	a0,a5
	call	GetFirstNode@plt
	sd	a0,-24(s0)
	.loc 1 208 3
	j	.L23
.L27:
	.loc 1 213 22
	ld	a5,-24(s0)
	.loc 1 213 5
	mv	a0,a5
	call	RemoveEntryList@plt
	.loc 1 215 61
	ld	a5,-24(s0)
	ld	a5,16(a5)
	.loc 1 215 71
	ld	a5,8(a5)
	.loc 1 215 13
	beq	a5,zero,.L24
	.loc 1 215 154 discriminator 1
	ld	a5,-24(s0)
	ld	a5,16(a5)
	.loc 1 215 164 discriminator 1
	ld	a5,8(a5)
	.loc 1 215 98 discriminator 1
	mv	a0,a5
	call	FreePool@plt
	.loc 1 215 221 discriminator 2
	ld	a5,-24(s0)
	ld	a5,16(a5)
	.loc 1 215 239 discriminator 2
	sd	zero,8(a5)
.L24:
	.loc 1 216 30
	ld	a5,-24(s0)
	ld	a5,16(a5)
	.loc 1 216 13
	beq	a5,zero,.L25
	.loc 1 216 59 discriminator 1
	ld	a5,-24(s0)
	ld	a5,16(a5)
	mv	a0,a5
	call	FreePool@plt
	.loc 1 216 122 discriminator 2
	ld	a5,-24(s0)
	sd	zero,16(a5)
.L25:
	.loc 1 217 13
	ld	a5,-24(s0)
	beq	a5,zero,.L26
	.loc 1 217 51 discriminator 1
	ld	a0,-24(s0)
	call	FreePool@plt
	.loc 1 217 98 discriminator 2
	sd	zero,-24(s0)
.L26:
	.loc 1 210 58
	ld	a5,-40(s0)
	.loc 1 210 44
	mv	a0,a5
	call	GetFirstNode@plt
	sd	a0,-24(s0)
.L23:
	.loc 1 209 25
	ld	a5,-40(s0)
	.loc 1 209 12
	mv	a0,a5
	call	IsListEmpty@plt
	mv	a5,a0
	.loc 1 209 11 discriminator 1
	beq	a5,zero,.L27
	j	.L20
.L28:
	.loc 1 202 5
	nop
.L20:
	.loc 1 219 1
	ld	ra,40(sp)
	.cfi_restore 1
	ld	s0,32(sp)
	.cfi_restore 8
	.cfi_def_cfa 2, 48
	addi	sp,sp,48
	.cfi_def_cfa_offset 0
	jr	ra
	.cfi_endproc
.LFE2:
	.size	FreeFileHandleList, .-FreeFileHandleList
	.section	.text.ShellCommandLibDestructor,"ax",@progbits
	.align	1
	.globl	ShellCommandLibDestructor
	.type	ShellCommandLibDestructor, @function
ShellCommandLibDestructor:
.LFB3:
	.loc 1 235 1
	.cfi_startproc
	addi	sp,sp,-64
	.cfi_def_cfa_offset 64
	sd	ra,56(sp)
	sd	s0,48(sp)
	.cfi_offset 1, -8
	.cfi_offset 8, -16
	addi	s0,sp,64
	.cfi_def_cfa 8, 0
	sd	a0,-56(s0)
	sd	a1,-64(s0)
	.loc 1 244 9
	j	.L30
.L33:
	.loc 1 245 49
	lla	a0,mCommandList
	call	GetFirstNode@plt
	sd	a0,-48(s0)
	.loc 1 246 22
	ld	a5,-48(s0)
	.loc 1 246 5
	mv	a0,a5
	call	RemoveEntryList@plt
	.loc 1 247 19
	ld	a5,-48(s0)
	ld	a5,16(a5)
	.loc 1 247 13
	beq	a5,zero,.L31
	.loc 1 247 69 discriminator 1
	ld	a5,-48(s0)
	ld	a5,16(a5)
	.loc 1 247 55 discriminator 1
	mv	a0,a5
	call	FreePool@plt
	.loc 1 247 110 discriminator 2
	ld	a5,-48(s0)
	sd	zero,16(a5)
.L31:
	.loc 1 248 5
	ld	a0,-48(s0)
	call	FreePool@plt
	.loc 1 249 14
	call	DebugCodeEnabled@plt
	mv	a5,a0
	.loc 1 249 13 discriminator 1
	beq	a5,zero,.L30
	.loc 1 249 76 discriminator 2
	sd	zero,-48(s0)
.L30:
	.loc 1 244 11
	lla	a0,mCommandList
	call	IsListEmpty@plt
	mv	a5,a0
	.loc 1 244 10 discriminator 1
	beq	a5,zero,.L33
	.loc 1 257 9
	j	.L34
.L39:
	.loc 1 258 27
	lla	a0,mAliasList
	call	GetFirstNode@plt
	sd	a0,-40(s0)
	.loc 1 259 22
	ld	a5,-40(s0)
	.loc 1 259 5
	mv	a0,a5
	call	RemoveEntryList@plt
	.loc 1 260 20
	ld	a5,-40(s0)
	ld	a5,16(a5)
	.loc 1 260 13
	beq	a5,zero,.L35
	.loc 1 260 71 discriminator 1
	ld	a5,-40(s0)
	ld	a5,16(a5)
	.loc 1 260 56 discriminator 1
	mv	a0,a5
	call	FreePool@plt
	.loc 1 260 113 discriminator 2
	ld	a5,-40(s0)
	sd	zero,16(a5)
.L35:
	.loc 1 261 20
	ld	a5,-40(s0)
	ld	a5,24(a5)
	.loc 1 261 13
	beq	a5,zero,.L36
	.loc 1 261 63 discriminator 1
	ld	a5,-40(s0)
	ld	a5,24(a5)
	.loc 1 261 48 discriminator 1
	mv	a0,a5
	call	FreePool@plt
	.loc 1 261 89 discriminator 2
	ld	a5,-40(s0)
	sd	zero,24(a5)
.L36:
	.loc 1 262 13
	ld	a5,-40(s0)
	beq	a5,zero,.L37
	.loc 1 262 41 discriminator 1
	ld	a0,-40(s0)
	call	FreePool@plt
	.loc 1 262 68 discriminator 2
	sd	zero,-40(s0)
.L37:
	.loc 1 263 14
	call	DebugCodeEnabled@plt
	mv	a5,a0
	.loc 1 263 13 discriminator 1
	beq	a5,zero,.L34
	.loc 1 263 77 discriminator 2
	sd	zero,-40(s0)
.L34:
	.loc 1 257 11
	lla	a0,mAliasList
	call	IsListEmpty@plt
	mv	a5,a0
	.loc 1 257 10 discriminator 1
	beq	a5,zero,.L39
	.loc 1 271 9
	j	.L40
.L41:
	.loc 1 272 33
	lla	a0,mScriptList
	call	GetFirstNode@plt
	sd	a0,-32(s0)
	.loc 1 273 22
	ld	a5,-32(s0)
	.loc 1 273 5
	mv	a0,a5
	call	RemoveEntryList@plt
	.loc 1 274 5
	ld	a5,-32(s0)
	ld	a5,16(a5)
	mv	a0,a5
	call	DeleteScriptFileStruct
	.loc 1 275 5
	ld	a0,-32(s0)
	call	FreePool@plt
.L40:
	.loc 1 271 11
	lla	a0,mScriptList
	call	IsListEmpty@plt
	mv	a5,a0
	.loc 1 271 10 discriminator 1
	beq	a5,zero,.L41
	.loc 1 281 8
	lla	a0,gShellMapList
	call	IsListEmpty@plt
	mv	a5,a0
	.loc 1 281 6 discriminator 1
	bne	a5,zero,.L42
	.loc 1 282 38
	lla	a0,gShellMapList
	call	GetFirstNode@plt
	sd	a0,-24(s0)
	.loc 1 282 5
	j	.L43
.L47:
	.loc 1 288 24
	ld	a5,-24(s0)
	.loc 1 288 7
	mv	a0,a5
	call	RemoveEntryList@plt
	.loc 1 289 24
	ld	a5,-24(s0)
	ld	a5,16(a5)
	.loc 1 289 15
	beq	a5,zero,.L44
	.loc 1 289 74 discriminator 1
	ld	a5,-24(s0)
	ld	a5,16(a5)
	.loc 1 289 57 discriminator 1
	mv	a0,a5
	call	FreePool@plt
	.loc 1 289 112 discriminator 2
	ld	a5,-24(s0)
	sd	zero,16(a5)
.L44:
	.loc 1 290 24
	ld	a5,-24(s0)
	ld	a5,24(a5)
	.loc 1 290 15
	beq	a5,zero,.L45
	.loc 1 290 71 discriminator 1
	ld	a5,-24(s0)
	ld	a5,24(a5)
	.loc 1 290 54 discriminator 1
	mv	a0,a5
	call	FreePool@plt
	.loc 1 290 103 discriminator 2
	ld	a5,-24(s0)
	sd	zero,24(a5)
.L45:
	.loc 1 291 24
	ld	a5,-24(s0)
	ld	a5,32(a5)
	.loc 1 291 15
	beq	a5,zero,.L46
	.loc 1 291 84 discriminator 1
	ld	a5,-24(s0)
	ld	a5,32(a5)
	.loc 1 291 67 discriminator 1
	mv	a0,a5
	call	FreePool@plt
	.loc 1 291 142 discriminator 2
	ld	a5,-24(s0)
	sd	zero,32(a5)
.L46:
	.loc 1 292 7
	ld	a0,-24(s0)
	call	FreePool@plt
	.loc 1 284 40
	lla	a0,gShellMapList
	call	GetFirstNode@plt
	sd	a0,-24(s0)
.L43:
	.loc 1 283 13
	lla	a0,gShellMapList
	call	IsListEmpty@plt
	mv	a5,a0
	.loc 1 283 12 discriminator 1
	beq	a5,zero,.L47
.L42:
	.loc 1 296 8
	lla	a0,mFileHandleList
	call	IsListEmpty@plt
	mv	a5,a0
	.loc 1 296 6 discriminator 1
	bne	a5,zero,.L48
	.loc 1 297 5
	lla	a0,mFileHandleList
	call	FreeFileHandleList
.L48:
	.loc 1 300 20
	lla	a5,mProfileList
	ld	a5,0(a5)
	.loc 1 300 6
	beq	a5,zero,.L49
	.loc 1 301 5
	lla	a5,mProfileList
	ld	a5,0(a5)
	mv	a0,a5
	call	FreePool@plt
.L49:
	.loc 1 304 21
	lla	a5,gUnicodeCollation
	sd	zero,0(a5)
	.loc 1 305 20
	lla	a5,gShellCurMapping
	sd	zero,0(a5)
	.loc 1 307 10
	li	a5,0
	.loc 1 308 1
	mv	a0,a5
	ld	ra,56(sp)
	.cfi_restore 1
	ld	s0,48(sp)
	.cfi_restore 8
	.cfi_def_cfa 2, 64
	addi	sp,sp,64
	.cfi_def_cfa_offset 0
	jr	ra
	.cfi_endproc
.LFE3:
	.size	ShellCommandLibDestructor, .-ShellCommandLibDestructor
	.section	.text.ShellCommandFindDynamicCommand,"ax",@progbits
	.align	1
	.globl	ShellCommandFindDynamicCommand
	.type	ShellCommandFindDynamicCommand, @function
ShellCommandFindDynamicCommand:
.LFB4:
	.loc 1 322 1
	.cfi_startproc
	addi	sp,sp,-64
	.cfi_def_cfa_offset 64
	sd	ra,56(sp)
	sd	s0,48(sp)
	.cfi_offset 1, -8
	.cfi_offset 8, -16
	addi	s0,sp,64
	.cfi_def_cfa 8, 0
	sd	a0,-56(s0)
	.loc 1 328 23
	la	a0,gEfiShellDynamicCommandProtocolGuid
	call	GetHandleListByProtocol@plt
	sd	a0,-32(s0)
	.loc 1 329 6
	ld	a5,-32(s0)
	bne	a5,zero,.L52
	.loc 1 333 12
	li	a5,0
	j	.L58
.L52:
	.loc 1 336 20
	ld	a5,-32(s0)
	sd	a5,-24(s0)
	.loc 1 336 3
	j	.L54
.L57:
	.loc 1 337 17
	la	a5,gBS
	ld	a5,0(a5)
	ld	a5,152(a5)
	.loc 1 337 14
	ld	a4,-24(s0)
	ld	a4,0(a4)
	addi	a3,s0,-48
	mv	a2,a3
	la	a1,gEfiShellDynamicCommandProtocolGuid
	mv	a0,a4
	jalr	a5
.LVL2:
	sd	a0,-40(s0)
	.loc 1 343 36
	ld	a5,-40(s0)
	.loc 1 343 8
	blt	a5,zero,.L59
	.loc 1 347 26
	lla	a5,gUnicodeCollation
	ld	a5,0(a5)
	ld	a5,0(a5)
	.loc 1 347 9
	lla	a4,gUnicodeCollation
	ld	a3,0(a4)
	.loc 1 350 54
	ld	a4,-48(s0)
	ld	a4,0(a4)
	.loc 1 347 9
	mv	a2,a4
	ld	a1,-56(s0)
	mv	a0,a3
	jalr	a5
.LVL3:
	mv	a5,a0
	.loc 1 347 8 discriminator 1
	bne	a5,zero,.L56
	.loc 1 354 7
	ld	a0,-32(s0)
	call	FreePool@plt
	.loc 1 355 14
	ld	a5,-48(s0)
	j	.L58
.L59:
	.loc 1 344 7
	nop
.L56:
	.loc 1 336 82 discriminator 2
	ld	a5,-24(s0)
	addi	a5,a5,8
	sd	a5,-24(s0)
.L54:
	.loc 1 336 41 discriminator 1
	ld	a5,-24(s0)
	ld	a5,0(a5)
	.loc 1 336 54 discriminator 1
	bne	a5,zero,.L57
	.loc 1 359 3
	ld	a0,-32(s0)
	call	FreePool@plt
	.loc 1 360 10
	li	a5,0
.L58:
	.loc 1 361 1
	mv	a0,a5
	ld	ra,56(sp)
	.cfi_restore 1
	ld	s0,48(sp)
	.cfi_restore 8
	.cfi_def_cfa 2, 64
	addi	sp,sp,64
	.cfi_def_cfa_offset 0
	jr	ra
	.cfi_endproc
.LFE4:
	.size	ShellCommandFindDynamicCommand, .-ShellCommandFindDynamicCommand
	.section	.text.ShellCommandDynamicCommandExists,"ax",@progbits
	.align	1
	.globl	ShellCommandDynamicCommandExists
	.type	ShellCommandDynamicCommandExists, @function
ShellCommandDynamicCommandExists:
.LFB5:
	.loc 1 372 1
	.cfi_startproc
	addi	sp,sp,-32
	.cfi_def_cfa_offset 32
	sd	ra,24(sp)
	sd	s0,16(sp)
	.cfi_offset 1, -8
	.cfi_offset 8, -16
	addi	s0,sp,32
	.cfi_def_cfa 8, 0
	sd	a0,-24(s0)
	.loc 1 373 21
	ld	a0,-24(s0)
	call	ShellCommandFindDynamicCommand
	mv	a5,a0
	.loc 1 373 10 discriminator 1
	snez	a5,a5
	andi	a5,a5,0xff
	.loc 1 374 1
	mv	a0,a5
	ld	ra,24(sp)
	.cfi_restore 1
	ld	s0,16(sp)
	.cfi_restore 8
	.cfi_def_cfa 2, 32
	addi	sp,sp,32
	.cfi_def_cfa_offset 0
	jr	ra
	.cfi_endproc
.LFE5:
	.size	ShellCommandDynamicCommandExists, .-ShellCommandDynamicCommandExists
	.section	.text.ShellCommandIsCommandOnInternalList,"ax",@progbits
	.align	1
	.globl	ShellCommandIsCommandOnInternalList
	.type	ShellCommandIsCommandOnInternalList, @function
ShellCommandIsCommandOnInternalList:
.LFB6:
	.loc 1 385 1
	.cfi_startproc
	addi	sp,sp,-48
	.cfi_def_cfa_offset 48
	sd	ra,40(sp)
	sd	s0,32(sp)
	.cfi_offset 1, -8
	.cfi_offset 8, -16
	addi	s0,sp,48
	.cfi_def_cfa 8, 0
	sd	a0,-40(s0)
	.loc 1 396 53
	lla	a0,mCommandList
	call	GetFirstNode@plt
	sd	a0,-24(s0)
	.loc 1 396 3
	j	.L63
.L66:
	.loc 1 402 26
	lla	a5,gUnicodeCollation
	ld	a5,0(a5)
	ld	a5,0(a5)
	.loc 1 402 9
	lla	a4,gUnicodeCollation
	ld	a3,0(a4)
	ld	a4,-24(s0)
	ld	a4,16(a4)
	mv	a2,a4
	ld	a1,-40(s0)
	mv	a0,a3
	jalr	a5
.LVL4:
	mv	a5,a0
	.loc 1 402 8 discriminator 1
	bne	a5,zero,.L64
	.loc 1 409 14
	li	a5,1
	j	.L65
.L64:
	.loc 1 398 88
	ld	a5,-24(s0)
	.loc 1 398 55
	mv	a1,a5
	lla	a0,mCommandList
	call	GetNextNode@plt
	sd	a0,-24(s0)
.L63:
	.loc 1 397 40
	ld	a5,-24(s0)
	.loc 1 397 12
	mv	a1,a5
	lla	a0,mCommandList
	call	IsNull@plt
	mv	a5,a0
	.loc 1 397 11 discriminator 1
	beq	a5,zero,.L66
	.loc 1 413 10
	li	a5,0
.L65:
	.loc 1 414 1
	mv	a0,a5
	ld	ra,40(sp)
	.cfi_restore 1
	ld	s0,32(sp)
	.cfi_restore 8
	.cfi_def_cfa 2, 48
	addi	sp,sp,48
	.cfi_def_cfa_offset 0
	jr	ra
	.cfi_endproc
.LFE6:
	.size	ShellCommandIsCommandOnInternalList, .-ShellCommandIsCommandOnInternalList
	.section	.text.ShellCommandIsCommandOnList,"ax",@progbits
	.align	1
	.globl	ShellCommandIsCommandOnList
	.type	ShellCommandIsCommandOnList, @function
ShellCommandIsCommandOnList:
.LFB7:
	.loc 1 426 1
	.cfi_startproc
	addi	sp,sp,-32
	.cfi_def_cfa_offset 32
	sd	ra,24(sp)
	sd	s0,16(sp)
	.cfi_offset 1, -8
	.cfi_offset 8, -16
	addi	s0,sp,32
	.cfi_def_cfa 8, 0
	sd	a0,-24(s0)
	.loc 1 427 7
	ld	a0,-24(s0)
	call	ShellCommandIsCommandOnInternalList
	mv	a5,a0
	.loc 1 427 6 discriminator 1
	beq	a5,zero,.L68
	.loc 1 428 12
	li	a5,1
	j	.L69
.L68:
	.loc 1 431 10
	ld	a0,-24(s0)
	call	ShellCommandDynamicCommandExists
	mv	a5,a0
.L69:
	.loc 1 432 1
	mv	a0,a5
	ld	ra,24(sp)
	.cfi_restore 1
	ld	s0,16(sp)
	.cfi_restore 8
	.cfi_def_cfa 2, 32
	addi	sp,sp,32
	.cfi_def_cfa_offset 0
	jr	ra
	.cfi_endproc
.LFE7:
	.size	ShellCommandIsCommandOnList, .-ShellCommandIsCommandOnList
	.section	.rodata
	.align	3
.LC5:
	.string	"en"
	.section	.text.ShellCommandGetDynamicCommandHelp,"ax",@progbits
	.align	1
	.globl	ShellCommandGetDynamicCommandHelp
	.type	ShellCommandGetDynamicCommandHelp, @function
ShellCommandGetDynamicCommandHelp:
.LFB8:
	.loc 1 446 1
	.cfi_startproc
	addi	sp,sp,-48
	.cfi_def_cfa_offset 48
	sd	ra,40(sp)
	sd	s0,32(sp)
	.cfi_offset 1, -8
	.cfi_offset 8, -16
	addi	s0,sp,48
	.cfi_def_cfa 8, 0
	sd	a0,-40(s0)
	.loc 1 449 58
	ld	a0,-40(s0)
	call	ShellCommandFindDynamicCommand
	sd	a0,-24(s0)
	.loc 1 450 6
	ld	a5,-24(s0)
	bne	a5,zero,.L71
	.loc 1 451 12
	li	a5,0
	j	.L72
.L71:
	.loc 1 457 24
	ld	a5,-24(s0)
	ld	a5,16(a5)
	.loc 1 457 10
	lla	a1,.LC5
	ld	a0,-24(s0)
	jalr	a5
.LVL5:
	mv	a5,a0
.L72:
	.loc 1 458 1
	mv	a0,a5
	ld	ra,40(sp)
	.cfi_restore 1
	ld	s0,32(sp)
	.cfi_restore 8
	.cfi_def_cfa 2, 48
	addi	sp,sp,48
	.cfi_def_cfa_offset 0
	jr	ra
	.cfi_endproc
.LFE8:
	.size	ShellCommandGetDynamicCommandHelp, .-ShellCommandGetDynamicCommandHelp
	.section	.text.ShellCommandGetInternalCommandHelp,"ax",@progbits
	.align	1
	.globl	ShellCommandGetInternalCommandHelp
	.type	ShellCommandGetInternalCommandHelp, @function
ShellCommandGetInternalCommandHelp:
.LFB9:
	.loc 1 472 1
	.cfi_startproc
	addi	sp,sp,-48
	.cfi_def_cfa_offset 48
	sd	ra,40(sp)
	sd	s0,32(sp)
	.cfi_offset 1, -8
	.cfi_offset 8, -16
	addi	s0,sp,48
	.cfi_def_cfa 8, 0
	sd	a0,-40(s0)
	.loc 1 483 53
	lla	a0,mCommandList
	call	GetFirstNode@plt
	sd	a0,-24(s0)
	.loc 1 483 3
	j	.L74
.L77:
	.loc 1 489 26
	lla	a5,gUnicodeCollation
	ld	a5,0(a5)
	ld	a5,0(a5)
	.loc 1 489 9
	lla	a4,gUnicodeCollation
	ld	a3,0(a4)
	ld	a4,-24(s0)
	ld	a4,16(a4)
	mv	a2,a4
	ld	a1,-40(s0)
	mv	a0,a3
	jalr	a5
.LVL6:
	mv	a5,a0
	.loc 1 489 8 discriminator 1
	bne	a5,zero,.L75
	.loc 1 496 15
	ld	a5,-24(s0)
	ld	a4,48(a5)
	ld	a5,-24(s0)
	lhu	a5,56(a5)
	li	a2,0
	mv	a1,a5
	mv	a0,a4
	call	HiiGetString@plt
	mv	a5,a0
	j	.L76
.L75:
	.loc 1 485 88
	ld	a5,-24(s0)
	.loc 1 485 55
	mv	a1,a5
	lla	a0,mCommandList
	call	GetNextNode@plt
	sd	a0,-24(s0)
.L74:
	.loc 1 484 40
	ld	a5,-24(s0)
	.loc 1 484 12
	mv	a1,a5
	lla	a0,mCommandList
	call	IsNull@plt
	mv	a5,a0
	.loc 1 484 11 discriminator 1
	beq	a5,zero,.L77
	.loc 1 500 10
	li	a5,0
.L76:
	.loc 1 501 1
	mv	a0,a5
	ld	ra,40(sp)
	.cfi_restore 1
	ld	s0,32(sp)
	.cfi_restore 8
	.cfi_def_cfa 2, 48
	addi	sp,sp,48
	.cfi_def_cfa_offset 0
	jr	ra
	.cfi_endproc
.LFE9:
	.size	ShellCommandGetInternalCommandHelp, .-ShellCommandGetInternalCommandHelp
	.section	.text.ShellCommandGetCommandHelp,"ax",@progbits
	.align	1
	.globl	ShellCommandGetCommandHelp
	.type	ShellCommandGetCommandHelp, @function
ShellCommandGetCommandHelp:
.LFB10:
	.loc 1 516 1
	.cfi_startproc
	addi	sp,sp,-48
	.cfi_def_cfa_offset 48
	sd	ra,40(sp)
	sd	s0,32(sp)
	.cfi_offset 1, -8
	.cfi_offset 8, -16
	addi	s0,sp,48
	.cfi_def_cfa 8, 0
	sd	a0,-40(s0)
	.loc 1 519 13
	ld	a0,-40(s0)
	call	ShellCommandGetInternalCommandHelp
	sd	a0,-24(s0)
	.loc 1 521 6
	ld	a5,-24(s0)
	bne	a5,zero,.L79
	.loc 1 522 15
	ld	a0,-40(s0)
	call	ShellCommandGetDynamicCommandHelp
	sd	a0,-24(s0)
.L79:
	.loc 1 525 10
	ld	a5,-24(s0)
	.loc 1 526 1
	mv	a0,a5
	ld	ra,40(sp)
	.cfi_restore 1
	ld	s0,32(sp)
	.cfi_restore 8
	.cfi_def_cfa 2, 48
	addi	sp,sp,48
	.cfi_def_cfa_offset 0
	jr	ra
	.cfi_endproc
.LFE10:
	.size	ShellCommandGetCommandHelp, .-ShellCommandGetCommandHelp
	.section	.rodata
	.align	3
.LC6:
	.string	";"
	.zero	2
	.section	.text.ShellCommandRegisterCommandName,"ax",@progbits
	.align	1
	.globl	ShellCommandRegisterCommandName
	.type	ShellCommandRegisterCommandName, @function
ShellCommandRegisterCommandName:
.LFB11:
	.loc 1 587 1
	.cfi_startproc
	addi	sp,sp,-96
	.cfi_def_cfa_offset 96
	sd	ra,88(sp)
	sd	s0,80(sp)
	.cfi_offset 1, -8
	.cfi_offset 8, -16
	addi	s0,sp,96
	.cfi_def_cfa 8, 0
	sd	a0,-56(s0)
	sd	a1,-64(s0)
	sd	a2,-72(s0)
	mv	a2,a3
	sd	a4,-88(s0)
	mv	a3,a5
	sd	a6,-96(s0)
	mv	a4,a7
	mv	a5,a2
	sw	a5,-76(s0)
	mv	a5,a3
	sb	a5,-77(s0)
	mv	a5,a4
	sh	a5,-80(s0)
	.loc 1 596 11
	sd	zero,-24(s0)
	.loc 1 597 15
	sd	zero,-32(s0)
	.loc 1 598 21
	sd	zero,-40(s0)
	.loc 1 611 47
	la	a5,_gPcd_FixedAtBuild_PcdShellSupportLevel
	lbu	a5,0(a5)
	sext.w	a5,a5
	.loc 1 611 6
	lw	a4,-76(s0)
	sext.w	a4,a4
	bleu	a4,a5,.L82
	.loc 1 612 12
	li	a5,-1
	slli	a5,a5,63
	addi	a5,a5,3
	j	.L83
.L82:
	.loc 1 618 7
	ld	a0,-56(s0)
	call	ShellCommandIsCommandOnList
	mv	a5,a0
	.loc 1 618 6 discriminator 1
	beq	a5,zero,.L84
	.loc 1 619 12
	li	a5,-1
	slli	a5,a5,63
	addi	a5,a5,20
	j	.L83
.L84:
	.loc 1 625 10
	li	a0,64
	call	AllocateZeroPool@plt
	sd	a0,-48(s0)
	.loc 1 626 6
	ld	a5,-48(s0)
	bne	a5,zero,.L85
	.loc 1 627 12
	li	a5,-1
	slli	a5,a5,63
	addi	a5,a5,9
	j	.L83
.L85:
	.loc 1 630 25
	ld	a0,-56(s0)
	call	StrSize@plt
	mv	a5,a0
	.loc 1 630 25 is_stmt 0 discriminator 1
	ld	a1,-56(s0)
	mv	a0,a5
	call	AllocateCopyPool@plt
	mv	a4,a0
	.loc 1 630 23 is_stmt 1 discriminator 2
	ld	a5,-48(s0)
	sd	a4,16(a5)
	.loc 1 631 11
	ld	a5,-48(s0)
	ld	a5,16(a5)
	.loc 1 631 6
	bne	a5,zero,.L86
	.loc 1 632 5
	ld	a0,-48(s0)
	call	FreePool@plt
	.loc 1 633 12
	li	a5,-1
	slli	a5,a5,63
	addi	a5,a5,9
	j	.L83
.L86:
	.loc 1 636 24
	ld	a5,-48(s0)
	ld	a4,-72(s0)
	sd	a4,24(a5)
	.loc 1 637 24
	ld	a5,-48(s0)
	ld	a4,-64(s0)
	sd	a4,32(a5)
	.loc 1 638 19
	ld	a5,-48(s0)
	lbu	a4,-77(s0)
	sb	a4,40(a5)
	.loc 1 639 19
	ld	a5,-48(s0)
	ld	a4,-96(s0)
	sd	a4,48(a5)
	.loc 1 640 23
	ld	a5,-48(s0)
	lhu	a4,-80(s0)
	sh	a4,56(a5)
	.loc 1 642 9
	ld	a0,-88(s0)
	call	StrLen@plt
	mv	a5,a0
	.loc 1 642 6 discriminator 1
	beq	a5,zero,.L87
	.loc 1 643 26
	lla	a5,mProfileList
	ld	a5,0(a5)
	.loc 1 643 6
	beq	a5,zero,.L88
	.loc 1 644 14
	lla	a5,mProfileList
	ld	a5,0(a5)
	ld	a1,-88(s0)
	mv	a0,a5
	call	StrStr@plt
	mv	a5,a0
	.loc 1 644 10 discriminator 1
	beq	a5,zero,.L89
.L88:
	.loc 1 644 84 discriminator 2
	lla	a5,mProfileList
	ld	a5,0(a5)
	.loc 1 644 67 discriminator 2
	bne	a5,zero,.L87
.L89:
	.loc 1 648 22
	lla	a5,mProfileList
	ld	a5,0(a5)
	.loc 1 648 8
	bne	a5,zero,.L90
	.loc 1 652 7
	li	a3,0
	lla	a2,.LC6
	lla	a1,mProfileListSize
	lla	a0,mProfileList
	call	StrnCatGrow@plt
.L90:
	.loc 1 655 5
	li	a3,0
	ld	a2,-88(s0)
	lla	a1,mProfileListSize
	lla	a0,mProfileList
	call	StrnCatGrow@plt
	.loc 1 656 5
	li	a3,0
	lla	a2,.LC6
	lla	a1,mProfileListSize
	lla	a0,mProfileList
	call	StrnCatGrow@plt
.L87:
	.loc 1 662 3
	ld	a5,-48(s0)
	mv	a1,a5
	lla	a0,mCommandList
	call	InsertHeadList@plt
	.loc 1 667 55
	lla	a0,mCommandList
	call	GetFirstNode@plt
	sd	a0,-24(s0)
	.loc 1 668 59
	lla	a0,mCommandList
	call	GetFirstNode@plt
	sd	a0,-32(s0)
	.loc 1 667 3
	j	.L91
.L95:
	.loc 1 675 42
	lla	a5,gUnicodeCollation
	ld	a5,0(a5)
	ld	a5,0(a5)
	.loc 1 675 25
	lla	a4,gUnicodeCollation
	ld	a3,0(a4)
	ld	a4,-32(s0)
	ld	a1,16(a4)
	ld	a4,-24(s0)
	ld	a4,16(a4)
	mv	a2,a4
	mv	a0,a3
	jalr	a5
.LVL7:
	sd	a0,-40(s0)
	.loc 1 685 8
	ld	a5,-40(s0)
	ble	a5,zero,.L92
	.loc 1 686 54
	ld	a5,-32(s0)
	ld	a4,-24(s0)
	mv	a1,a4
	mv	a0,a5
	call	SwapListEntries@plt
	sd	a0,-24(s0)
	j	.L93
.L92:
	.loc 1 687 15
	ld	a5,-40(s0)
	blt	a5,zero,.L96
.L93:
	.loc 1 670 90
	ld	a5,-24(s0)
	.loc 1 670 57
	mv	a1,a5
	lla	a0,mCommandList
	call	GetNextNode@plt
	sd	a0,-24(s0)
.L91:
	.loc 1 669 39
	ld	a5,-24(s0)
	.loc 1 669 11
	mv	a1,a5
	lla	a0,mCommandList
	call	IsNull@plt
	mv	a5,a0
	.loc 1 669 10 discriminator 1
	beq	a5,zero,.L95
	j	.L94
.L96:
	.loc 1 691 7
	nop
.L94:
	.loc 1 695 10
	li	a5,0
.L83:
	.loc 1 696 1
	mv	a0,a5
	ld	ra,88(sp)
	.cfi_restore 1
	ld	s0,80(sp)
	.cfi_restore 8
	.cfi_def_cfa 2, 96
	addi	sp,sp,96
	.cfi_def_cfa_offset 0
	jr	ra
	.cfi_endproc
.LFE11:
	.size	ShellCommandRegisterCommandName, .-ShellCommandRegisterCommandName
	.section	.text.ShellCommandGetProfileList,"ax",@progbits
	.align	1
	.globl	ShellCommandGetProfileList
	.type	ShellCommandGetProfileList, @function
ShellCommandGetProfileList:
.LFB12:
	.loc 1 709 1
	.cfi_startproc
	addi	sp,sp,-16
	.cfi_def_cfa_offset 16
	sd	ra,8(sp)
	sd	s0,0(sp)
	.cfi_offset 1, -8
	.cfi_offset 8, -16
	addi	s0,sp,16
	.cfi_def_cfa 8, 0
	.loc 1 710 10
	lla	a5,mProfileList
	ld	a5,0(a5)
	.loc 1 711 1
	mv	a0,a5
	ld	ra,8(sp)
	.cfi_restore 1
	ld	s0,0(sp)
	.cfi_restore 8
	.cfi_def_cfa 2, 16
	addi	sp,sp,16
	.cfi_def_cfa_offset 0
	jr	ra
	.cfi_endproc
.LFE12:
	.size	ShellCommandGetProfileList, .-ShellCommandGetProfileList
	.section	.text.ShellCommandRunCommandHandler,"ax",@progbits
	.align	1
	.globl	ShellCommandRunCommandHandler
	.type	ShellCommandRunCommandHandler, @function
ShellCommandRunCommandHandler:
.LFB13:
	.loc 1 744 1
	.cfi_startproc
	addi	sp,sp,-64
	.cfi_def_cfa_offset 64
	sd	ra,56(sp)
	sd	s0,48(sp)
	.cfi_offset 1, -8
	.cfi_offset 8, -16
	addi	s0,sp,64
	.cfi_def_cfa 8, 0
	sd	a0,-40(s0)
	sd	a1,-48(s0)
	sd	a2,-56(s0)
	.loc 1 756 53
	lla	a0,mCommandList
	call	GetFirstNode@plt
	sd	a0,-24(s0)
	.loc 1 756 3
	j	.L100
.L106:
	.loc 1 762 26
	lla	a5,gUnicodeCollation
	ld	a5,0(a5)
	ld	a5,0(a5)
	.loc 1 762 9
	lla	a4,gUnicodeCollation
	ld	a3,0(a4)
	ld	a4,-24(s0)
	ld	a4,16(a4)
	mv	a2,a4
	ld	a1,-40(s0)
	mv	a0,a3
	jalr	a5
.LVL8:
	mv	a5,a0
	.loc 1 762 8 discriminator 1
	bne	a5,zero,.L101
	.loc 1 769 10
	ld	a5,-56(s0)
	beq	a5,zero,.L102
	.loc 1 770 28
	ld	a5,-24(s0)
	lbu	a4,40(a5)
	.loc 1 770 22
	ld	a5,-56(s0)
	sb	a4,0(a5)
.L102:
	.loc 1 773 10
	ld	a5,-48(s0)
	beq	a5,zero,.L103
	.loc 1 774 23
	ld	a5,-24(s0)
	ld	a5,32(a5)
	.loc 1 774 19
	la	a4,gST
	ld	a4,0(a4)
	mv	a1,a4
	li	a0,0
	jalr	a5
.LVL9:
	mv	a5,a0
	mv	a4,a5
	.loc 1 774 17 discriminator 1
	ld	a5,-48(s0)
	sw	a4,0(a5)
	j	.L104
.L103:
	.loc 1 776 13
	ld	a5,-24(s0)
	ld	a5,32(a5)
	.loc 1 776 9
	la	a4,gST
	ld	a4,0(a4)
	mv	a1,a4
	li	a0,0
	jalr	a5
.LVL10:
.L104:
	.loc 1 779 14
	li	a5,0
	j	.L105
.L101:
	.loc 1 758 88
	ld	a5,-24(s0)
	.loc 1 758 55
	mv	a1,a5
	lla	a0,mCommandList
	call	GetNextNode@plt
	sd	a0,-24(s0)
.L100:
	.loc 1 757 40
	ld	a5,-24(s0)
	.loc 1 757 12
	mv	a1,a5
	lla	a0,mCommandList
	call	IsNull@plt
	mv	a5,a0
	.loc 1 757 11 discriminator 1
	beq	a5,zero,.L106
	.loc 1 786 58
	ld	a0,-40(s0)
	call	ShellCommandFindDynamicCommand
	sd	a0,-32(s0)
	.loc 1 787 6
	ld	a5,-32(s0)
	beq	a5,zero,.L107
	.loc 1 788 8
	ld	a5,-48(s0)
	beq	a5,zero,.L108
	.loc 1 789 31
	ld	a5,-32(s0)
	ld	a5,8(a5)
	.loc 1 789 17
	la	a4,gST
	ld	a1,0(a4)
	la	a4,gEfiShellParametersProtocol
	ld	a2,0(a4)
	la	a4,gEfiShellProtocol
	ld	a4,0(a4)
	mv	a3,a4
	ld	a0,-32(s0)
	jalr	a5
.LVL11:
	mv	a5,a0
	mv	a4,a5
	.loc 1 789 15 discriminator 1
	ld	a5,-48(s0)
	sw	a4,0(a5)
	j	.L109
.L108:
	.loc 1 791 21
	ld	a5,-32(s0)
	ld	a5,8(a5)
	.loc 1 791 7
	la	a4,gST
	ld	a1,0(a4)
	la	a4,gEfiShellParametersProtocol
	ld	a2,0(a4)
	la	a4,gEfiShellProtocol
	ld	a4,0(a4)
	mv	a3,a4
	ld	a0,-32(s0)
	jalr	a5
.LVL12:
.L109:
	.loc 1 794 12
	li	a5,0
	j	.L105
.L107:
	.loc 1 797 10
	li	a5,-1
	slli	a5,a5,63
	addi	a5,a5,14
.L105:
	.loc 1 798 1
	mv	a0,a5
	ld	ra,56(sp)
	.cfi_restore 1
	ld	s0,48(sp)
	.cfi_restore 8
	.cfi_def_cfa 2, 64
	addi	sp,sp,64
	.cfi_def_cfa_offset 0
	jr	ra
	.cfi_endproc
.LFE13:
	.size	ShellCommandRunCommandHandler, .-ShellCommandRunCommandHandler
	.section	.text.ShellCommandGetManFileNameHandler,"ax",@progbits
	.align	1
	.globl	ShellCommandGetManFileNameHandler
	.type	ShellCommandGetManFileNameHandler, @function
ShellCommandGetManFileNameHandler:
.LFB14:
	.loc 1 818 1
	.cfi_startproc
	addi	sp,sp,-48
	.cfi_def_cfa_offset 48
	sd	ra,40(sp)
	sd	s0,32(sp)
	.cfi_offset 1, -8
	.cfi_offset 8, -16
	addi	s0,sp,48
	.cfi_def_cfa 8, 0
	sd	a0,-40(s0)
	.loc 1 829 53
	lla	a0,mCommandList
	call	GetFirstNode@plt
	sd	a0,-24(s0)
	.loc 1 829 3
	j	.L111
.L114:
	.loc 1 835 26
	lla	a5,gUnicodeCollation
	ld	a5,0(a5)
	ld	a5,0(a5)
	.loc 1 835 9
	lla	a4,gUnicodeCollation
	ld	a3,0(a4)
	ld	a4,-24(s0)
	ld	a4,16(a4)
	mv	a2,a4
	ld	a1,-40(s0)
	mv	a0,a3
	jalr	a5
.LVL13:
	mv	a5,a0
	.loc 1 835 8 discriminator 1
	bne	a5,zero,.L112
	.loc 1 842 19
	ld	a5,-24(s0)
	ld	a5,24(a5)
	.loc 1 842 15
	jalr	a5
.LVL14:
	mv	a5,a0
	j	.L113
.L112:
	.loc 1 831 88
	ld	a5,-24(s0)
	.loc 1 831 55
	mv	a1,a5
	lla	a0,mCommandList
	call	GetNextNode@plt
	sd	a0,-24(s0)
.L111:
	.loc 1 830 40
	ld	a5,-24(s0)
	.loc 1 830 12
	mv	a1,a5
	lla	a0,mCommandList
	call	IsNull@plt
	mv	a5,a0
	.loc 1 830 11 discriminator 1
	beq	a5,zero,.L114
	.loc 1 846 10
	li	a5,0
.L113:
	.loc 1 847 1
	mv	a0,a5
	ld	ra,40(sp)
	.cfi_restore 1
	ld	s0,32(sp)
	.cfi_restore 8
	.cfi_def_cfa 2, 48
	addi	sp,sp,48
	.cfi_def_cfa_offset 0
	jr	ra
	.cfi_endproc
.LFE14:
	.size	ShellCommandGetManFileNameHandler, .-ShellCommandGetManFileNameHandler
	.section	.text.ShellCommandGetCommandList,"ax",@progbits
	.align	1
	.globl	ShellCommandGetCommandList
	.type	ShellCommandGetCommandList, @function
ShellCommandGetCommandList:
.LFB15:
	.loc 1 863 1
	.cfi_startproc
	addi	sp,sp,-32
	.cfi_def_cfa_offset 32
	sd	ra,24(sp)
	sd	s0,16(sp)
	.cfi_offset 1, -8
	.cfi_offset 8, -16
	addi	s0,sp,32
	.cfi_def_cfa 8, 0
	mv	a5,a0
	sb	a5,-17(s0)
	.loc 1 867 11
	lla	a5,mCommandList
	.loc 1 868 1
	mv	a0,a5
	ld	ra,24(sp)
	.cfi_restore 1
	ld	s0,16(sp)
	.cfi_restore 8
	.cfi_def_cfa 2, 32
	addi	sp,sp,32
	.cfi_def_cfa_offset 0
	jr	ra
	.cfi_endproc
.LFE15:
	.size	ShellCommandGetCommandList, .-ShellCommandGetCommandList
	.section	.text.ShellCommandRegisterAlias,"ax",@progbits
	.align	1
	.globl	ShellCommandRegisterAlias
	.type	ShellCommandRegisterAlias, @function
ShellCommandRegisterAlias:
.LFB16:
	.loc 1 889 1
	.cfi_startproc
	addi	sp,sp,-64
	.cfi_def_cfa_offset 64
	sd	ra,56(sp)
	sd	s0,48(sp)
	.cfi_offset 1, -8
	.cfi_offset 8, -16
	addi	s0,sp,64
	.cfi_def_cfa 8, 0
	sd	a0,-56(s0)
	sd	a1,-64(s0)
	.loc 1 904 10
	li	a0,32
	call	AllocateZeroPool@plt
	sd	a0,-32(s0)
	.loc 1 905 6
	ld	a5,-32(s0)
	bne	a5,zero,.L118
	.loc 1 906 12
	li	a5,-1
	slli	a5,a5,63
	addi	a5,a5,9
	j	.L119
.L118:
	.loc 1 909 25
	ld	a0,-56(s0)
	call	StrSize@plt
	mv	a5,a0
	.loc 1 909 25 is_stmt 0 discriminator 1
	ld	a1,-56(s0)
	mv	a0,a5
	call	AllocateCopyPool@plt
	mv	a4,a0
	.loc 1 909 23 is_stmt 1 discriminator 2
	ld	a5,-32(s0)
	sd	a4,16(a5)
	.loc 1 910 11
	ld	a5,-32(s0)
	ld	a5,16(a5)
	.loc 1 910 6
	bne	a5,zero,.L120
	.loc 1 911 5
	ld	a0,-32(s0)
	call	FreePool@plt
	.loc 1 912 12
	li	a5,-1
	slli	a5,a5,63
	addi	a5,a5,9
	j	.L119
.L120:
	.loc 1 915 17
	ld	a0,-64(s0)
	call	StrSize@plt
	mv	a5,a0
	.loc 1 915 17 is_stmt 0 discriminator 1
	ld	a1,-64(s0)
	mv	a0,a5
	call	AllocateCopyPool@plt
	mv	a4,a0
	.loc 1 915 15 is_stmt 1 discriminator 2
	ld	a5,-32(s0)
	sd	a4,24(a5)
	.loc 1 916 11
	ld	a5,-32(s0)
	ld	a5,24(a5)
	.loc 1 916 6
	bne	a5,zero,.L121
	.loc 1 917 19
	ld	a5,-32(s0)
	ld	a5,16(a5)
	.loc 1 917 5
	mv	a0,a5
	call	FreePool@plt
	.loc 1 918 5
	ld	a0,-32(s0)
	call	FreePool@plt
	.loc 1 919 12
	li	a5,-1
	slli	a5,a5,63
	addi	a5,a5,9
	j	.L119
.L121:
	.loc 1 922 3
	ld	a5,-32(s0)
	mv	a1,a5
	lla	a0,mAliasList
	call	InsertHeadList@plt
	.loc 1 927 38
	lla	a0,mAliasList
	call	GetFirstNode@plt
	sd	a0,-24(s0)
	.loc 1 928 42
	lla	a0,mAliasList
	call	GetFirstNode@plt
	sd	a0,-40(s0)
	.loc 1 927 3
	j	.L122
.L126:
	.loc 1 935 42
	lla	a5,gUnicodeCollation
	ld	a5,0(a5)
	ld	a5,0(a5)
	.loc 1 935 25
	lla	a4,gUnicodeCollation
	ld	a3,0(a4)
	ld	a4,-40(s0)
	ld	a1,24(a4)
	ld	a4,-24(s0)
	ld	a4,24(a4)
	mv	a2,a4
	mv	a0,a3
	jalr	a5
.LVL15:
	sd	a0,-48(s0)
	.loc 1 945 8
	ld	a5,-48(s0)
	ble	a5,zero,.L123
	.loc 1 946 36
	ld	a5,-40(s0)
	ld	a4,-24(s0)
	mv	a1,a4
	mv	a0,a5
	call	SwapListEntries@plt
	sd	a0,-24(s0)
	j	.L124
.L123:
	.loc 1 947 15
	ld	a5,-48(s0)
	blt	a5,zero,.L127
.L124:
	.loc 1 930 71
	ld	a5,-24(s0)
	.loc 1 930 40
	mv	a1,a5
	lla	a0,mAliasList
	call	GetNextNode@plt
	sd	a0,-24(s0)
.L122:
	.loc 1 929 38
	ld	a5,-24(s0)
	.loc 1 929 12
	mv	a1,a5
	lla	a0,mAliasList
	call	IsNull@plt
	mv	a5,a0
	.loc 1 929 11 discriminator 1
	beq	a5,zero,.L126
	j	.L125
.L127:
	.loc 1 951 7
	nop
.L125:
	.loc 1 955 10
	li	a5,0
.L119:
	.loc 1 956 1
	mv	a0,a5
	ld	ra,56(sp)
	.cfi_restore 1
	ld	s0,48(sp)
	.cfi_restore 8
	.cfi_def_cfa 2, 64
	addi	sp,sp,64
	.cfi_def_cfa_offset 0
	jr	ra
	.cfi_endproc
.LFE16:
	.size	ShellCommandRegisterAlias, .-ShellCommandRegisterAlias
	.section	.text.ShellCommandGetInitAliasList,"ax",@progbits
	.align	1
	.globl	ShellCommandGetInitAliasList
	.type	ShellCommandGetInitAliasList, @function
ShellCommandGetInitAliasList:
.LFB17:
	.loc 1 970 1
	.cfi_startproc
	addi	sp,sp,-16
	.cfi_def_cfa_offset 16
	sd	ra,8(sp)
	sd	s0,0(sp)
	.cfi_offset 1, -8
	.cfi_offset 8, -16
	addi	s0,sp,16
	.cfi_def_cfa 8, 0
	.loc 1 971 11
	lla	a5,mAliasList
	.loc 1 972 1
	mv	a0,a5
	ld	ra,8(sp)
	.cfi_restore 1
	ld	s0,0(sp)
	.cfi_restore 8
	.cfi_def_cfa 2, 16
	addi	sp,sp,16
	.cfi_def_cfa_offset 0
	jr	ra
	.cfi_endproc
.LFE17:
	.size	ShellCommandGetInitAliasList, .-ShellCommandGetInitAliasList
	.section	.text.ShellCommandIsOnAliasList,"ax",@progbits
	.align	1
	.globl	ShellCommandIsOnAliasList
	.type	ShellCommandIsOnAliasList, @function
ShellCommandIsOnAliasList:
.LFB18:
	.loc 1 987 1
	.cfi_startproc
	addi	sp,sp,-48
	.cfi_def_cfa_offset 48
	sd	ra,40(sp)
	sd	s0,32(sp)
	.cfi_offset 1, -8
	.cfi_offset 8, -16
	addi	s0,sp,48
	.cfi_def_cfa 8, 0
	sd	a0,-40(s0)
	.loc 1 998 30
	lla	a0,mAliasList
	call	GetFirstNode@plt
	sd	a0,-24(s0)
	.loc 1 998 3
	j	.L131
.L135:
	.loc 1 1005 26
	lla	a5,gUnicodeCollation
	ld	a5,0(a5)
	ld	a5,0(a5)
	.loc 1 1005 9
	lla	a4,gUnicodeCollation
	ld	a3,0(a4)
	ld	a4,-24(s0)
	ld	a4,16(a4)
	mv	a2,a4
	ld	a1,-40(s0)
	mv	a0,a3
	jalr	a5
.LVL16:
	mv	a5,a0
	.loc 1 1005 8 discriminator 1
	bne	a5,zero,.L132
	.loc 1 1012 14
	li	a5,1
	j	.L133
.L132:
	.loc 1 1015 26
	lla	a5,gUnicodeCollation
	ld	a5,0(a5)
	ld	a5,0(a5)
	.loc 1 1015 9
	lla	a4,gUnicodeCollation
	ld	a3,0(a4)
	ld	a4,-24(s0)
	ld	a4,24(a4)
	mv	a2,a4
	ld	a1,-40(s0)
	mv	a0,a3
	jalr	a5
.LVL17:
	mv	a5,a0
	.loc 1 1015 8 discriminator 1
	bne	a5,zero,.L134
	.loc 1 1022 14
	li	a5,1
	j	.L133
.L134:
	.loc 1 1000 63
	ld	a5,-24(s0)
	.loc 1 1000 32
	mv	a1,a5
	lla	a0,mAliasList
	call	GetNextNode@plt
	sd	a0,-24(s0)
.L131:
	.loc 1 999 38
	ld	a5,-24(s0)
	.loc 1 999 12
	mv	a1,a5
	lla	a0,mAliasList
	call	IsNull@plt
	mv	a5,a0
	.loc 1 999 11 discriminator 1
	beq	a5,zero,.L135
	.loc 1 1026 10
	li	a5,0
.L133:
	.loc 1 1027 1
	mv	a0,a5
	ld	ra,40(sp)
	.cfi_restore 1
	ld	s0,32(sp)
	.cfi_restore 8
	.cfi_def_cfa 2, 48
	addi	sp,sp,48
	.cfi_def_cfa_offset 0
	jr	ra
	.cfi_endproc
.LFE18:
	.size	ShellCommandIsOnAliasList, .-ShellCommandIsOnAliasList
	.section	.text.ShellCommandGetEchoState,"ax",@progbits
	.align	1
	.globl	ShellCommandGetEchoState
	.type	ShellCommandGetEchoState, @function
ShellCommandGetEchoState:
.LFB19:
	.loc 1 1041 1
	.cfi_startproc
	addi	sp,sp,-16
	.cfi_def_cfa_offset 16
	sd	ra,8(sp)
	sd	s0,0(sp)
	.cfi_offset 1, -8
	.cfi_offset 8, -16
	addi	s0,sp,16
	.cfi_def_cfa 8, 0
	.loc 1 1042 10
	lla	a5,mEchoState
	lbu	a5,0(a5)
	.loc 1 1043 1
	mv	a0,a5
	ld	ra,8(sp)
	.cfi_restore 1
	ld	s0,0(sp)
	.cfi_restore 8
	.cfi_def_cfa 2, 16
	addi	sp,sp,16
	.cfi_def_cfa_offset 0
	jr	ra
	.cfi_endproc
.LFE19:
	.size	ShellCommandGetEchoState, .-ShellCommandGetEchoState
	.section	.text.ShellCommandSetEchoState,"ax",@progbits
	.align	1
	.globl	ShellCommandSetEchoState
	.type	ShellCommandSetEchoState, @function
ShellCommandSetEchoState:
.LFB20:
	.loc 1 1059 1
	.cfi_startproc
	addi	sp,sp,-32
	.cfi_def_cfa_offset 32
	sd	ra,24(sp)
	sd	s0,16(sp)
	.cfi_offset 1, -8
	.cfi_offset 8, -16
	addi	s0,sp,32
	.cfi_def_cfa 8, 0
	mv	a5,a0
	sb	a5,-17(s0)
	.loc 1 1060 14
	lla	a5,mEchoState
	lbu	a4,-17(s0)
	sb	a4,0(a5)
	.loc 1 1061 1
	nop
	ld	ra,24(sp)
	.cfi_restore 1
	ld	s0,16(sp)
	.cfi_restore 8
	.cfi_def_cfa 2, 32
	addi	sp,sp,32
	.cfi_def_cfa_offset 0
	jr	ra
	.cfi_endproc
.LFE20:
	.size	ShellCommandSetEchoState, .-ShellCommandSetEchoState
	.section	.text.ShellCommandRegisterExit,"ax",@progbits
	.align	1
	.globl	ShellCommandRegisterExit
	.type	ShellCommandRegisterExit, @function
ShellCommandRegisterExit:
.LFB21:
	.loc 1 1075 1
	.cfi_startproc
	addi	sp,sp,-32
	.cfi_def_cfa_offset 32
	sd	ra,24(sp)
	sd	s0,16(sp)
	.cfi_offset 1, -8
	.cfi_offset 8, -16
	addi	s0,sp,32
	.cfi_def_cfa 8, 0
	mv	a5,a0
	sd	a1,-32(s0)
	sb	a5,-17(s0)
	.loc 1 1076 20
	lla	a5,mExitRequested
	lbu	a5,0(a5)
	sext.w	a5,a5
	seqz	a5,a5
	andi	a5,a5,0xff
	mv	a4,a5
	.loc 1 1076 18
	lla	a5,mExitRequested
	sb	a4,0(a5)
	.loc 1 1077 7
	lla	a5,mExitRequested
	lbu	a5,0(a5)
	.loc 1 1077 6
	beq	a5,zero,.L140
	.loc 1 1078 17
	lla	a5,mExitScript
	lbu	a4,-17(s0)
	sb	a4,0(a5)
	j	.L141
.L140:
	.loc 1 1080 17
	lla	a5,mExitScript
	sb	zero,0(a5)
.L141:
	.loc 1 1083 13
	lla	a5,mExitCode
	ld	a4,-32(s0)
	sd	a4,0(a5)
	.loc 1 1084 1
	nop
	ld	ra,24(sp)
	.cfi_restore 1
	ld	s0,16(sp)
	.cfi_restore 8
	.cfi_def_cfa 2, 32
	addi	sp,sp,32
	.cfi_def_cfa_offset 0
	jr	ra
	.cfi_endproc
.LFE21:
	.size	ShellCommandRegisterExit, .-ShellCommandRegisterExit
	.section	.text.ShellCommandGetExit,"ax",@progbits
	.align	1
	.globl	ShellCommandGetExit
	.type	ShellCommandGetExit, @function
ShellCommandGetExit:
.LFB22:
	.loc 1 1097 1
	.cfi_startproc
	addi	sp,sp,-16
	.cfi_def_cfa_offset 16
	sd	ra,8(sp)
	sd	s0,0(sp)
	.cfi_offset 1, -8
	.cfi_offset 8, -16
	addi	s0,sp,16
	.cfi_def_cfa 8, 0
	.loc 1 1098 10
	lla	a5,mExitRequested
	lbu	a5,0(a5)
	.loc 1 1099 1
	mv	a0,a5
	ld	ra,8(sp)
	.cfi_restore 1
	ld	s0,0(sp)
	.cfi_restore 8
	.cfi_def_cfa 2, 16
	addi	sp,sp,16
	.cfi_def_cfa_offset 0
	jr	ra
	.cfi_endproc
.LFE22:
	.size	ShellCommandGetExit, .-ShellCommandGetExit
	.section	.text.ShellCommandGetExitCode,"ax",@progbits
	.align	1
	.globl	ShellCommandGetExitCode
	.type	ShellCommandGetExitCode, @function
ShellCommandGetExitCode:
.LFB23:
	.loc 1 1113 1
	.cfi_startproc
	addi	sp,sp,-16
	.cfi_def_cfa_offset 16
	sd	ra,8(sp)
	sd	s0,0(sp)
	.cfi_offset 1, -8
	.cfi_offset 8, -16
	addi	s0,sp,16
	.cfi_def_cfa 8, 0
	.loc 1 1114 10
	lla	a5,mExitCode
	ld	a5,0(a5)
	.loc 1 1115 1
	mv	a0,a5
	ld	ra,8(sp)
	.cfi_restore 1
	ld	s0,0(sp)
	.cfi_restore 8
	.cfi_def_cfa 2, 16
	addi	sp,sp,16
	.cfi_def_cfa_offset 0
	jr	ra
	.cfi_endproc
.LFE23:
	.size	ShellCommandGetExitCode, .-ShellCommandGetExitCode
	.section	.text.ShellCommandGetScriptExit,"ax",@progbits
	.align	1
	.globl	ShellCommandGetScriptExit
	.type	ShellCommandGetScriptExit, @function
ShellCommandGetScriptExit:
.LFB24:
	.loc 1 1130 1
	.cfi_startproc
	addi	sp,sp,-16
	.cfi_def_cfa_offset 16
	sd	ra,8(sp)
	sd	s0,0(sp)
	.cfi_offset 1, -8
	.cfi_offset 8, -16
	addi	s0,sp,16
	.cfi_def_cfa 8, 0
	.loc 1 1131 10
	lla	a5,mExitScript
	lbu	a5,0(a5)
	.loc 1 1132 1
	mv	a0,a5
	ld	ra,8(sp)
	.cfi_restore 1
	ld	s0,0(sp)
	.cfi_restore 8
	.cfi_def_cfa 2, 16
	addi	sp,sp,16
	.cfi_def_cfa_offset 0
	jr	ra
	.cfi_endproc
.LFE24:
	.size	ShellCommandGetScriptExit, .-ShellCommandGetScriptExit
	.section	.text.DeleteScriptFileStruct,"ax",@progbits
	.align	1
	.globl	DeleteScriptFileStruct
	.type	DeleteScriptFileStruct, @function
DeleteScriptFileStruct:
.LFB25:
	.loc 1 1144 1
	.cfi_startproc
	addi	sp,sp,-48
	.cfi_def_cfa_offset 48
	sd	ra,40(sp)
	sd	s0,32(sp)
	.cfi_offset 1, -8
	.cfi_offset 8, -16
	addi	s0,sp,48
	.cfi_def_cfa 8, 0
	sd	a0,-40(s0)
	.loc 1 1147 6
	ld	a5,-40(s0)
	beq	a5,zero,.L162
	.loc 1 1151 16
	sd	zero,-24(s0)
	.loc 1 1151 3
	j	.L151
.L153:
	.loc 1 1152 21
	ld	a5,-40(s0)
	ld	a4,8(a5)
	.loc 1 1152 27
	ld	a5,-24(s0)
	slli	a5,a5,3
	add	a5,a4,a5
	ld	a5,0(a5)
	.loc 1 1152 13
	beq	a5,zero,.L152
	.loc 1 1152 73 discriminator 1
	ld	a5,-40(s0)
	ld	a4,8(a5)
	.loc 1 1152 79 discriminator 1
	ld	a5,-24(s0)
	slli	a5,a5,3
	add	a5,a4,a5
	.loc 1 1152 57 discriminator 1
	ld	a5,0(a5)
	mv	a0,a5
	call	FreePool@plt
	.loc 1 1152 99 discriminator 2
	ld	a5,-40(s0)
	ld	a4,8(a5)
	.loc 1 1152 105 discriminator 2
	ld	a5,-24(s0)
	slli	a5,a5,3
	add	a5,a4,a5
	.loc 1 1152 116 discriminator 2
	sd	zero,0(a5)
.L152:
	.loc 1 1151 52 discriminator 2
	ld	a5,-24(s0)
	addi	a5,a5,1
	sd	a5,-24(s0)
.L151:
	.loc 1 1151 37 discriminator 1
	ld	a5,-40(s0)
	ld	a5,16(a5)
	.loc 1 1151 29 discriminator 1
	ld	a4,-24(s0)
	bltu	a4,a5,.L153
	.loc 1 1155 13
	ld	a5,-40(s0)
	ld	a5,8(a5)
	.loc 1 1155 6
	beq	a5,zero,.L154
	.loc 1 1156 21
	ld	a5,-40(s0)
	ld	a5,8(a5)
	.loc 1 1156 13
	beq	a5,zero,.L154
	.loc 1 1156 64 discriminator 1
	ld	a5,-40(s0)
	ld	a5,8(a5)
	.loc 1 1156 48 discriminator 1
	mv	a0,a5
	call	FreePool@plt
	.loc 1 1156 89 discriminator 2
	ld	a5,-40(s0)
	sd	zero,8(a5)
.L154:
	.loc 1 1159 26
	ld	a5,-40(s0)
	sd	zero,40(a5)
	.loc 1 1160 9
	j	.L156
.L160:
	.loc 1 1161 67
	ld	a5,-40(s0)
	addi	a5,a5,24
	.loc 1 1161 53
	mv	a0,a5
	call	GetFirstNode@plt
	mv	a4,a0
	.loc 1 1161 28 discriminator 1
	ld	a5,-40(s0)
	sd	a4,40(a5)
	.loc 1 1162 15
	ld	a5,-40(s0)
	ld	a5,40(a5)
	.loc 1 1162 8
	beq	a5,zero,.L156
	.loc 1 1163 31
	ld	a5,-40(s0)
	ld	a5,40(a5)
	.loc 1 1163 7
	mv	a0,a5
	call	RemoveEntryList@plt
	.loc 1 1164 17
	ld	a5,-40(s0)
	ld	a5,40(a5)
	.loc 1 1164 33
	ld	a5,24(a5)
	.loc 1 1164 10
	beq	a5,zero,.L157
	.loc 1 1165 25
	ld	a5,-40(s0)
	ld	a5,40(a5)
	.loc 1 1165 41
	ld	a5,24(a5)
	.loc 1 1165 17
	beq	a5,zero,.L157
	.loc 1 1165 82 discriminator 1
	ld	a5,-40(s0)
	ld	a5,40(a5)
	.loc 1 1165 98 discriminator 1
	ld	a5,24(a5)
	.loc 1 1165 66 discriminator 1
	mv	a0,a5
	call	FreePool@plt
	.loc 1 1165 113 discriminator 2
	ld	a5,-40(s0)
	ld	a5,40(a5)
	.loc 1 1165 135 discriminator 2
	sd	zero,24(a5)
.L157:
	.loc 1 1168 17
	ld	a5,-40(s0)
	ld	a5,40(a5)
	.loc 1 1168 33
	ld	a5,32(a5)
	.loc 1 1168 10
	beq	a5,zero,.L158
	.loc 1 1169 25
	ld	a5,-40(s0)
	ld	a5,40(a5)
	.loc 1 1169 41
	ld	a5,32(a5)
	.loc 1 1169 17
	beq	a5,zero,.L158
	.loc 1 1169 84 discriminator 1
	ld	a5,-40(s0)
	ld	a5,40(a5)
	.loc 1 1169 68 discriminator 1
	ld	a5,32(a5)
	mv	a0,a5
	call	FreePool@plt
	.loc 1 1169 117 discriminator 2
	ld	a5,-40(s0)
	ld	a5,40(a5)
	.loc 1 1169 141 discriminator 2
	sd	zero,32(a5)
.L158:
	.loc 1 1172 23
	ld	a5,-40(s0)
	ld	a5,40(a5)
	.loc 1 1172 15
	beq	a5,zero,.L156
	.loc 1 1172 76 discriminator 1
	ld	a5,-40(s0)
	ld	a5,40(a5)
	.loc 1 1172 60 discriminator 1
	mv	a0,a5
	call	FreePool@plt
	.loc 1 1172 121 discriminator 2
	ld	a5,-40(s0)
	sd	zero,40(a5)
.L156:
	.loc 1 1160 24
	ld	a5,-40(s0)
	addi	a5,a5,24
	.loc 1 1160 11
	mv	a0,a5
	call	IsListEmpty@plt
	mv	a5,a0
	.loc 1 1160 10 discriminator 1
	beq	a5,zero,.L160
	.loc 1 1176 19
	ld	a5,-40(s0)
	ld	a5,0(a5)
	.loc 1 1176 11
	beq	a5,zero,.L161
	.loc 1 1176 68 discriminator 1
	ld	a5,-40(s0)
	ld	a5,0(a5)
	.loc 1 1176 52 discriminator 1
	mv	a0,a5
	call	FreePool@plt
	.loc 1 1176 105 discriminator 2
	ld	a5,-40(s0)
	sd	zero,0(a5)
.L161:
	.loc 1 1177 11
	ld	a5,-40(s0)
	beq	a5,zero,.L148
	.loc 1 1177 40 discriminator 1
	ld	a0,-40(s0)
	call	FreePool@plt
	.loc 1 1177 69 discriminator 2
	sd	zero,-40(s0)
	j	.L148
.L162:
	.loc 1 1148 5
	nop
.L148:
	.loc 1 1178 1
	ld	ra,40(sp)
	.cfi_restore 1
	ld	s0,32(sp)
	.cfi_restore 8
	.cfi_def_cfa 2, 48
	addi	sp,sp,48
	.cfi_def_cfa_offset 0
	jr	ra
	.cfi_endproc
.LFE25:
	.size	DeleteScriptFileStruct, .-DeleteScriptFileStruct
	.section	.text.ShellCommandGetCurrentScriptFile,"ax",@progbits
	.align	1
	.globl	ShellCommandGetCurrentScriptFile
	.type	ShellCommandGetCurrentScriptFile, @function
ShellCommandGetCurrentScriptFile:
.LFB26:
	.loc 1 1191 1
	.cfi_startproc
	addi	sp,sp,-32
	.cfi_def_cfa_offset 32
	sd	ra,24(sp)
	sd	s0,16(sp)
	.cfi_offset 1, -8
	.cfi_offset 8, -16
	addi	s0,sp,32
	.cfi_def_cfa 8, 0
	.loc 1 1194 7
	lla	a0,mScriptList
	call	IsListEmpty@plt
	mv	a5,a0
	.loc 1 1194 6 discriminator 1
	beq	a5,zero,.L164
	.loc 1 1195 12
	li	a5,0
	j	.L165
.L164:
	.loc 1 1198 31
	lla	a0,mScriptList
	call	GetFirstNode@plt
	sd	a0,-24(s0)
	.loc 1 1199 15
	ld	a5,-24(s0)
	ld	a5,16(a5)
.L165:
	.loc 1 1200 1
	mv	a0,a5
	ld	ra,24(sp)
	.cfi_restore 1
	ld	s0,16(sp)
	.cfi_restore 8
	.cfi_def_cfa 2, 32
	addi	sp,sp,32
	.cfi_def_cfa_offset 0
	jr	ra
	.cfi_endproc
.LFE26:
	.size	ShellCommandGetCurrentScriptFile, .-ShellCommandGetCurrentScriptFile
	.section	.text.ShellCommandSetNewScript,"ax",@progbits
	.align	1
	.globl	ShellCommandSetNewScript
	.type	ShellCommandSetNewScript, @function
ShellCommandSetNewScript:
.LFB27:
	.loc 1 1218 1
	.cfi_startproc
	addi	sp,sp,-48
	.cfi_def_cfa_offset 48
	sd	ra,40(sp)
	sd	s0,32(sp)
	.cfi_offset 1, -8
	.cfi_offset 8, -16
	addi	s0,sp,48
	.cfi_def_cfa 8, 0
	sd	a0,-40(s0)
	.loc 1 1221 6
	ld	a5,-40(s0)
	bne	a5,zero,.L167
	.loc 1 1222 9
	lla	a0,mScriptList
	call	IsListEmpty@plt
	mv	a5,a0
	.loc 1 1222 8 discriminator 1
	beq	a5,zero,.L168
	.loc 1 1223 14
	li	a5,0
	j	.L169
.L168:
	.loc 1 1226 32
	lla	a0,mScriptList
	call	GetFirstNode@plt
	sd	a0,-24(s0)
	.loc 1 1227 22
	ld	a5,-24(s0)
	.loc 1 1227 5
	mv	a0,a5
	call	RemoveEntryList@plt
	.loc 1 1228 5
	ld	a5,-24(s0)
	ld	a5,16(a5)
	mv	a0,a5
	call	DeleteScriptFileStruct
	.loc 1 1229 5
	ld	a0,-24(s0)
	call	FreePool@plt
	j	.L170
.L167:
	.loc 1 1231 12
	li	a0,24
	call	AllocateZeroPool@plt
	sd	a0,-24(s0)
	.loc 1 1232 8
	ld	a5,-24(s0)
	bne	a5,zero,.L171
	.loc 1 1233 14
	li	a5,0
	j	.L169
.L171:
	.loc 1 1236 16
	ld	a5,-24(s0)
	ld	a4,-40(s0)
	sd	a4,16(a5)
	.loc 1 1237 5
	ld	a5,-24(s0)
	mv	a1,a5
	lla	a0,mScriptList
	call	InsertHeadList@plt
.L170:
	.loc 1 1240 11
	call	ShellCommandGetCurrentScriptFile
	mv	a5,a0
.L169:
	.loc 1 1241 1
	mv	a0,a5
	ld	ra,40(sp)
	.cfi_restore 1
	ld	s0,32(sp)
	.cfi_restore 8
	.cfi_def_cfa 2, 48
	addi	sp,sp,48
	.cfi_def_cfa_offset 0
	jr	ra
	.cfi_endproc
.LFE27:
	.size	ShellCommandSetNewScript, .-ShellCommandSetNewScript
	.section	.rodata
	.align	3
.LC7:
	.string	"F"
	.string	"S"
	.string	"%"
	.string	"d"
	.string	":"
	.zero	2
	.align	3
.LC8:
	.string	"B"
	.string	"L"
	.string	"K"
	.string	"%"
	.string	"d"
	.string	":"
	.zero	2
	.section	.text.ShellCommandCreateNewMappingName,"ax",@progbits
	.align	1
	.globl	ShellCommandCreateNewMappingName
	.type	ShellCommandCreateNewMappingName, @function
ShellCommandCreateNewMappingName:
.LFB28:
	.loc 1 1258 1
	.cfi_startproc
	addi	sp,sp,-48
	.cfi_def_cfa_offset 48
	sd	ra,40(sp)
	sd	s0,32(sp)
	.cfi_offset 1, -8
	.cfi_offset 8, -16
	addi	s0,sp,48
	.cfi_def_cfa 8, 0
	mv	a5,a0
	sw	a5,-36(s0)
	.loc 1 1263 10
	sd	zero,-24(s0)
	.loc 1 1265 12
	la	a5,_gPcd_FixedAtBuild_PcdShellMapNameLength
	lbu	a5,0(a5)
	.loc 1 1265 71
	slli	a5,a5,1
	.loc 1 1265 12
	mv	a0,a5
	call	AllocateZeroPool@plt
	sd	a0,-24(s0)
	.loc 1 1266 6
	ld	a5,-24(s0)
	bne	a5,zero,.L173
	.loc 1 1267 12
	li	a5,0
	j	.L174
.L173:
	.loc 1 1270 3
	la	a5,_gPcd_FixedAtBuild_PcdShellMapNameLength
	lbu	a5,0(a5)
	.loc 1 1272 46
	slli	a1,a5,1
	.loc 1 1270 3
	lw	a5,-36(s0)
	sext.w	a5,a5
	bne	a5,zero,.L175
	.loc 1 1270 3 is_stmt 0 discriminator 1
	lla	a4,.LC7
	j	.L176
.L175:
	.loc 1 1270 3 discriminator 2
	lla	a4,.LC8
.L176:
	.loc 1 1270 3 discriminator 4
	lw	a5,-36(s0)
	sext.w	a5,a5
	bne	a5,zero,.L177
	.loc 1 1274 48 is_stmt 1
	lla	a5,mFsMaxCount
	ld	a5,0(a5)
	addi	a2,a5,1
	lla	a3,mFsMaxCount
	sd	a2,0(a3)
	j	.L178
.L177:
	.loc 1 1274 65
	lla	a5,mBlkMaxCount
	ld	a5,0(a5)
	addi	a2,a5,1
	lla	a3,mBlkMaxCount
	sd	a2,0(a3)
.L178:
	.loc 1 1270 3 discriminator 8
	mv	a3,a5
	mv	a2,a4
	ld	a0,-24(s0)
	call	UnicodeSPrint@plt
	.loc 1 1277 10
	ld	a5,-24(s0)
.L174:
	.loc 1 1278 1
	mv	a0,a5
	ld	ra,40(sp)
	.cfi_restore 1
	ld	s0,32(sp)
	.cfi_restore 8
	.cfi_def_cfa 2, 48
	addi	sp,sp,48
	.cfi_def_cfa_offset 0
	jr	ra
	.cfi_endproc
.LFE28:
	.size	ShellCommandCreateNewMappingName, .-ShellCommandCreateNewMappingName
	.section	.rodata
	.align	3
.LC9:
	.string	"p"
	.string	"a"
	.string	"t"
	.string	"h"
	.zero	2
	.align	3
.LC10:
	.string	"\\"
	.string	"e"
	.string	"f"
	.string	"i"
	.string	"\\"
	.string	"t"
	.string	"o"
	.string	"o"
	.string	"l"
	.string	"s"
	.string	"\\"
	.string	";"
	.zero	2
	.align	3
.LC11:
	.string	"\\"
	.string	"e"
	.string	"f"
	.string	"i"
	.string	"\\"
	.string	"b"
	.string	"o"
	.string	"o"
	.string	"t"
	.string	"\\"
	.string	";"
	.zero	2
	.align	3
.LC12:
	.string	"\\"
	.zero	2
	.section	.text.ShellCommandAddMapItemAndUpdatePath,"ax",@progbits
	.align	1
	.globl	ShellCommandAddMapItemAndUpdatePath
	.type	ShellCommandAddMapItemAndUpdatePath, @function
ShellCommandAddMapItemAndUpdatePath:
.LFB29:
	.loc 1 1305 1
	.cfi_startproc
	addi	sp,sp,-96
	.cfi_def_cfa_offset 96
	sd	ra,88(sp)
	sd	s0,80(sp)
	.cfi_offset 1, -8
	.cfi_offset 8, -16
	addi	s0,sp,96
	.cfi_def_cfa 8, 0
	sd	a0,-72(s0)
	sd	a1,-80(s0)
	sd	a2,-88(s0)
	mv	a5,a3
	sb	a5,-89(s0)
	.loc 1 1312 15
	sd	zero,-56(s0)
	.loc 1 1313 11
	sd	zero,-48(s0)
	.loc 1 1314 16
	sd	zero,-32(s0)
	.loc 1 1315 10
	sd	zero,-24(s0)
	.loc 1 1317 17
	li	a0,48
	call	AllocateZeroPool@plt
	sd	a0,-40(s0)
	.loc 1 1318 6
	ld	a5,-40(s0)
	bne	a5,zero,.L180
	.loc 1 1319 12
	li	a5,-1
	slli	a5,a5,63
	addi	a5,a5,9
	sd	a5,-24(s0)
	j	.L181
.L180:
	.loc 1 1321 24
	ld	a5,-40(s0)
	ld	a4,-88(s0)
	sd	a4,40(a5)
	.loc 1 1322 28
	ld	a0,-72(s0)
	call	StrSize@plt
	mv	a5,a0
	.loc 1 1322 28 is_stmt 0 discriminator 1
	ld	a1,-72(s0)
	mv	a0,a5
	call	AllocateCopyPool@plt
	mv	a4,a0
	.loc 1 1322 26 is_stmt 1 discriminator 2
	ld	a5,-40(s0)
	sd	a4,24(a5)
	.loc 1 1323 31
	ld	a0,-80(s0)
	call	DuplicateDevicePath@plt
	mv	a4,a0
	.loc 1 1323 29 discriminator 1
	ld	a5,-40(s0)
	sd	a4,16(a5)
	.loc 1 1324 21
	ld	a5,-40(s0)
	ld	a5,24(a5)
	.loc 1 1324 8
	beq	a5,zero,.L182
	.loc 1 1324 63 discriminator 1
	ld	a5,-40(s0)
	ld	a5,16(a5)
	.loc 1 1324 48 discriminator 1
	bne	a5,zero,.L183
.L182:
	.loc 1 1325 14
	li	a5,-1
	slli	a5,a5,63
	addi	a5,a5,9
	sd	a5,-24(s0)
	j	.L181
.L183:
	.loc 1 1327 7
	ld	a5,-40(s0)
	mv	a1,a5
	lla	a0,gShellMapList
	call	InsertTailList@plt
.L181:
	.loc 1 1331 34
	ld	a5,-24(s0)
	.loc 1 1331 6
	bge	a5,zero,.L184
	.loc 1 1332 8
	ld	a5,-40(s0)
	beq	a5,zero,.L185
	.loc 1 1333 22
	ld	a5,-40(s0)
	ld	a5,16(a5)
	.loc 1 1333 10
	beq	a5,zero,.L186
	.loc 1 1334 30
	ld	a5,-40(s0)
	ld	a5,16(a5)
	.loc 1 1334 9
	mv	a0,a5
	call	FreePool@plt
.L186:
	.loc 1 1337 22
	ld	a5,-40(s0)
	ld	a5,24(a5)
	.loc 1 1337 10
	beq	a5,zero,.L187
	.loc 1 1338 30
	ld	a5,-40(s0)
	ld	a5,24(a5)
	.loc 1 1338 9
	mv	a0,a5
	call	FreePool@plt
.L187:
	.loc 1 1341 7
	ld	a0,-40(s0)
	call	FreePool@plt
	j	.L185
.L184:
	.loc 1 1343 13
	lbu	a5,-89(s0)
	andi	a5,a5,0xff
	beq	a5,zero,.L185
	.loc 1 1348 37
	la	a5,gEfiShellProtocol
	ld	a5,0(a5)
	ld	a5,8(a5)
	.loc 1 1348 20
	lla	a0,.LC9
	jalr	a5
.LVL18:
	sd	a0,-32(s0)
	.loc 1 1350 8
	ld	a5,-32(s0)
	beq	a5,zero,.L188
	.loc 1 1351 7
	addi	a4,s0,-56
	addi	a5,s0,-48
	li	a3,0
	ld	a2,-32(s0)
	mv	a1,a4
	mv	a0,a5
	call	StrnCatGrow@plt
	.loc 1 1352 7
	addi	a4,s0,-56
	addi	a5,s0,-48
	li	a3,0
	lla	a2,.LC6
	mv	a1,a4
	mv	a0,a5
	call	StrnCatGrow@plt
.L188:
	.loc 1 1355 5
	addi	a4,s0,-56
	addi	a5,s0,-48
	li	a3,0
	ld	a2,-72(s0)
	mv	a1,a4
	mv	a0,a5
	call	StrnCatGrow@plt
	.loc 1 1356 5
	addi	a4,s0,-56
	addi	a5,s0,-48
	li	a3,0
	lla	a2,.LC10
	mv	a1,a4
	mv	a0,a5
	call	StrnCatGrow@plt
	.loc 1 1357 5
	addi	a4,s0,-56
	addi	a5,s0,-48
	li	a3,0
	ld	a2,-72(s0)
	mv	a1,a4
	mv	a0,a5
	call	StrnCatGrow@plt
	.loc 1 1358 5
	addi	a4,s0,-56
	addi	a5,s0,-48
	li	a3,0
	lla	a2,.LC11
	mv	a1,a4
	mv	a0,a5
	call	StrnCatGrow@plt
	.loc 1 1359 5
	addi	a4,s0,-56
	addi	a5,s0,-48
	li	a3,0
	ld	a2,-72(s0)
	mv	a1,a4
	mv	a0,a5
	call	StrnCatGrow@plt
	.loc 1 1360 5
	addi	a4,s0,-56
	addi	a5,s0,-48
	li	a3,0
	lla	a2,.LC12
	mv	a1,a4
	mv	a0,a5
	call	StrnCatGrow@plt
	.loc 1 1362 31
	la	a5,gEfiShellProtocol
	ld	a5,0(a5)
	ld	a5,16(a5)
	.loc 1 1362 14
	ld	a4,-48(s0)
	li	a2,1
	mv	a1,a4
	lla	a0,.LC9
	jalr	a5
.LVL19:
	sd	a0,-24(s0)
	.loc 1 1364 5
	ld	a5,-48(s0)
	mv	a0,a5
	call	FreePool@plt
.L185:
	.loc 1 1367 10
	ld	a5,-24(s0)
	.loc 1 1368 1
	mv	a0,a5
	ld	ra,88(sp)
	.cfi_restore 1
	ld	s0,80(sp)
	.cfi_restore 8
	.cfi_def_cfa 2, 96
	addi	sp,sp,96
	.cfi_def_cfa_offset 0
	jr	ra
	.cfi_endproc
.LFE29:
	.size	ShellCommandAddMapItemAndUpdatePath, .-ShellCommandAddMapItemAndUpdatePath
	.section	.rodata
	.align	3
.LC13:
	.zero	2
	.align	3
.LC14:
	.string	"c"
	.string	"w"
	.string	"d"
	.zero	2
	.align	3
.LC15:
	.string	":"
	.zero	2
	.section	.text.ShellCommandCreateInitialMappingsAndPaths,"ax",@progbits
	.align	1
	.globl	ShellCommandCreateInitialMappingsAndPaths
	.type	ShellCommandCreateInitialMappingsAndPaths, @function
ShellCommandCreateInitialMappingsAndPaths:
.LFB30:
	.loc 1 1392 1
	.cfi_startproc
	addi	sp,sp,-128
	.cfi_def_cfa_offset 128
	sd	ra,120(sp)
	sd	s0,112(sp)
	sd	s1,104(sp)
	.cfi_offset 1, -8
	.cfi_offset 8, -16
	.cfi_offset 9, -24
	addi	s0,sp,128
	.cfi_def_cfa 8, 0
	.loc 1 1406 23
	sd	zero,-128(s0)
	.loc 1 1407 15
	sd	zero,-56(s0)
	.loc 1 1408 11
	sd	zero,-64(s0)
	.loc 1 1409 15
	sd	zero,-72(s0)
	.loc 1 1410 14
	sd	zero,-80(s0)
	.loc 1 1415 15
	lla	a5,mFsMaxCount
	sd	zero,0(a5)
	.loc 1 1416 16
	lla	a5,mBlkMaxCount
	sd	zero,0(a5)
	.loc 1 1418 20
	la	a5,gEfiShellProtocol
	ld	a5,0(a5)
	ld	a5,16(a5)
	.loc 1 1418 3
	li	a2,1
	lla	a1,.LC13
	lla	a0,.LC9
	jalr	a5
.LVL20:
	.loc 1 1423 8
	lla	a0,gShellMapList
	call	IsListEmpty@plt
	mv	a5,a0
	.loc 1 1423 6 discriminator 1
	bne	a5,zero,.L191
	.loc 1 1424 43
	lla	a0,gShellMapList
	call	GetFirstNode@plt
	sd	a0,-48(s0)
	.loc 1 1424 5
	j	.L192
.L196:
	.loc 1 1429 24
	ld	a5,-48(s0)
	.loc 1 1429 7
	mv	a0,a5
	call	RemoveEntryList@plt
	.loc 1 1430 28
	ld	a5,-48(s0)
	ld	a5,16(a5)
	.loc 1 1430 15
	beq	a5,zero,.L193
	.loc 1 1430 82 discriminator 1
	ld	a5,-48(s0)
	ld	a5,16(a5)
	.loc 1 1430 61 discriminator 1
	mv	a0,a5
	call	FreePool@plt
	.loc 1 1430 124 discriminator 2
	ld	a5,-48(s0)
	sd	zero,16(a5)
.L193:
	.loc 1 1431 28
	ld	a5,-48(s0)
	ld	a5,24(a5)
	.loc 1 1431 15
	beq	a5,zero,.L194
	.loc 1 1431 79 discriminator 1
	ld	a5,-48(s0)
	ld	a5,24(a5)
	.loc 1 1431 58 discriminator 1
	mv	a0,a5
	call	FreePool@plt
	.loc 1 1431 115 discriminator 2
	ld	a5,-48(s0)
	sd	zero,24(a5)
.L194:
	.loc 1 1432 28
	ld	a5,-48(s0)
	ld	a5,32(a5)
	.loc 1 1432 15
	beq	a5,zero,.L195
	.loc 1 1432 92 discriminator 1
	ld	a5,-48(s0)
	ld	a5,32(a5)
	.loc 1 1432 71 discriminator 1
	mv	a0,a5
	call	FreePool@plt
	.loc 1 1432 154 discriminator 2
	ld	a5,-48(s0)
	sd	zero,32(a5)
.L195:
	.loc 1 1433 7
	ld	a0,-48(s0)
	call	FreePool@plt
	.loc 1 1426 45
	lla	a0,gShellMapList
	call	GetFirstNode@plt
	sd	a0,-48(s0)
.L192:
	.loc 1 1425 14
	lla	a0,gShellMapList
	call	IsListEmpty@plt
	mv	a5,a0
	.loc 1 1425 13 discriminator 1
	beq	a5,zero,.L196
.L191:
	.loc 1 1440 16
	la	a0,gEfiSimpleFileSystemProtocolGuid
	call	GetHandleListByProtocol@plt
	sd	a0,-80(s0)
	.loc 1 1441 6
	ld	a5,-80(s0)
	beq	a5,zero,.L197
	.loc 1 1445 16
	sd	zero,-40(s0)
	.loc 1 1445 5
	j	.L198
.L199:
	.loc 1 1445 61 discriminator 3
	ld	a5,-40(s0)
	addi	a5,a5,1
	sd	a5,-40(s0)
.L198:
	.loc 1 1445 31 discriminator 1
	ld	a5,-40(s0)
	slli	a5,a5,3
	ld	a4,-80(s0)
	add	a5,a4,a5
	ld	a5,0(a5)
	.loc 1 1445 39 discriminator 1
	bne	a5,zero,.L199
	.loc 1 1451 76
	ld	a5,-40(s0)
	slli	a5,a5,3
	.loc 1 1451 22
	mv	a0,a5
	call	AllocateZeroPool@plt
	sd	a0,-88(s0)
	.loc 1 1452 8
	ld	a5,-88(s0)
	bne	a5,zero,.L200
	.loc 1 1453 15
	ld	a5,-80(s0)
	beq	a5,zero,.L201
	.loc 1 1453 48 discriminator 1
	ld	a0,-80(s0)
	call	FreePool@plt
	.loc 1 1453 85 discriminator 2
	sd	zero,-80(s0)
.L201:
	.loc 1 1454 14
	li	a5,-1
	slli	a5,a5,63
	addi	a5,a5,9
	j	.L235
.L200:
	.loc 1 1457 16
	sd	zero,-40(s0)
	.loc 1 1457 5
	j	.L203
.L204:
	.loc 1 1458 63
	ld	a5,-40(s0)
	slli	a5,a5,3
	ld	a4,-80(s0)
	add	a5,a4,a5
	.loc 1 1458 31
	ld	a3,0(a5)
	.loc 1 1458 21
	ld	a5,-40(s0)
	slli	a5,a5,3
	ld	a4,-88(s0)
	add	s1,a4,a5
	.loc 1 1458 31
	mv	a0,a3
	call	DevicePathFromHandle@plt
	mv	a5,a0
	.loc 1 1458 29 discriminator 1
	sd	a5,0(s1)
	.loc 1 1457 61 discriminator 3
	ld	a5,-40(s0)
	addi	a5,a5,1
	sd	a5,-40(s0)
.L203:
	.loc 1 1457 31 discriminator 1
	ld	a5,-40(s0)
	slli	a5,a5,3
	ld	a4,-80(s0)
	add	a5,a4,a5
	ld	a5,0(a5)
	.loc 1 1457 39 discriminator 1
	bne	a5,zero,.L204
	.loc 1 1464 5
	la	a3,DevicePathCompare
	li	a2,8
	ld	a1,-40(s0)
	ld	a0,-88(s0)
	call	PerformQuickSort@plt
	.loc 1 1466 14
	addi	a5,s0,-128
	mv	a0,a5
	call	ShellCommandConsistMappingInitialize@plt
	sd	a0,-96(s0)
	.loc 1 1467 36
	ld	a5,-96(s0)
	.loc 1 1467 8
	bge	a5,zero,.L205
	.loc 1 1468 15
	ld	a5,-80(s0)
	beq	a5,zero,.L206
	.loc 1 1468 48 discriminator 1
	ld	a0,-80(s0)
	call	FreePool@plt
	.loc 1 1468 85 discriminator 2
	sd	zero,-80(s0)
.L206:
	.loc 1 1469 15
	ld	a5,-88(s0)
	beq	a5,zero,.L207
	.loc 1 1469 52 discriminator 1
	ld	a0,-88(s0)
	call	FreePool@plt
	.loc 1 1469 97 discriminator 2
	sd	zero,-88(s0)
.L207:
	.loc 1 1470 14
	ld	a5,-96(s0)
	j	.L235
.L205:
	.loc 1 1476 16
	sd	zero,-40(s0)
	.loc 1 1476 5
	j	.L208
.L212:
	.loc 1 1480 24
	li	a0,0
	call	ShellCommandCreateNewMappingName
	sd	a0,-104(s0)
	.loc 1 1481 10
	ld	a5,-104(s0)
	bne	a5,zero,.L209
	.loc 1 1483 16
	li	a5,-1
	slli	a5,a5,63
	addi	a5,a5,9
	sd	a5,-96(s0)
	.loc 1 1484 9
	j	.L210
.L209:
	.loc 1 1487 83
	ld	a5,-40(s0)
	slli	a5,a5,3
	ld	a4,-88(s0)
	add	a5,a4,a5
	.loc 1 1487 16
	ld	a5,0(a5)
	li	a3,1
	li	a2,0
	mv	a1,a5
	ld	a0,-104(s0)
	call	ShellCommandAddMapItemAndUpdatePath
	sd	a0,-96(s0)
	.loc 1 1489 7
	ld	a0,-104(s0)
	call	FreePool@plt
	.loc 1 1494 80
	ld	a5,-40(s0)
	slli	a5,a5,3
	ld	a4,-88(s0)
	add	a5,a4,a5
	.loc 1 1494 24
	ld	a5,0(a5)
	ld	a4,-128(s0)
	mv	a1,a4
	mv	a0,a5
	call	ShellCommandConsistMappingGenMappingName@plt
	sd	a0,-112(s0)
	.loc 1 1495 10
	ld	a5,-112(s0)
	beq	a5,zero,.L211
	.loc 1 1496 85
	ld	a5,-40(s0)
	slli	a5,a5,3
	ld	a4,-88(s0)
	add	a5,a4,a5
	.loc 1 1496 18
	ld	a5,0(a5)
	li	a3,0
	li	a2,0
	mv	a1,a5
	ld	a0,-112(s0)
	call	ShellCommandAddMapItemAndUpdatePath
	sd	a0,-96(s0)
	.loc 1 1498 9
	ld	a0,-112(s0)
	call	FreePool@plt
.L211:
	.loc 1 1476 61 discriminator 2
	ld	a5,-40(s0)
	addi	a5,a5,1
	sd	a5,-40(s0)
.L208:
	.loc 1 1476 31 discriminator 1
	ld	a5,-40(s0)
	slli	a5,a5,3
	ld	a4,-80(s0)
	add	a5,a4,a5
	ld	a5,0(a5)
	.loc 1 1476 39 discriminator 1
	bne	a5,zero,.L212
.L210:
	.loc 1 1502 29
	ld	a5,-128(s0)
	.loc 1 1502 8
	beq	a5,zero,.L213
	.loc 1 1503 7
	ld	a5,-128(s0)
	mv	a0,a5
	call	ShellCommandConsistMappingUnInitialize@plt
.L213:
	.loc 1 1506 13
	ld	a5,-80(s0)
	beq	a5,zero,.L214
	.loc 1 1506 46 discriminator 1
	ld	a0,-80(s0)
	call	FreePool@plt
	.loc 1 1506 83 discriminator 2
	sd	zero,-80(s0)
.L214:
	.loc 1 1507 13
	ld	a5,-88(s0)
	beq	a5,zero,.L215
	.loc 1 1507 50 discriminator 1
	ld	a0,-88(s0)
	call	FreePool@plt
	.loc 1 1507 95 discriminator 2
	sd	zero,-88(s0)
.L215:
	.loc 1 1509 16
	sd	zero,-80(s0)
	.loc 1 1516 26
	lla	a5,gShellCurMapping
	ld	a5,0(a5)
	.loc 1 1516 8
	beq	a5,zero,.L216
	.loc 1 1517 24
	lla	a5,gShellCurMapping
	sd	zero,0(a5)
	.loc 1 1518 33
	la	a5,gEfiShellProtocol
	ld	a5,0(a5)
	ld	a5,8(a5)
	.loc 1 1518 16
	lla	a0,.LC14
	jalr	a5
.LVL21:
	sd	a0,-120(s0)
	.loc 1 1519 10
	ld	a5,-120(s0)
	beq	a5,zero,.L216
	.loc 1 1520 19
	ld	a0,-120(s0)
	call	StrSize@plt
	mv	a5,a0
	.loc 1 1520 19 is_stmt 0 discriminator 1
	ld	a1,-120(s0)
	mv	a0,a5
	call	AllocateCopyPool@plt
	sd	a0,-64(s0)
	.loc 1 1521 12 is_stmt 1
	ld	a5,-64(s0)
	bne	a5,zero,.L217
	.loc 1 1522 18
	li	a5,-1
	slli	a5,a5,63
	addi	a5,a5,9
	j	.L235
.L217:
	.loc 1 1525 23
	lla	a1,.LC15
	ld	a0,-64(s0)
	call	StrStr@plt
	sd	a0,-56(s0)
	.loc 1 1526 12
	ld	a5,-56(s0)
	bne	a5,zero,.L218
	.loc 1 1527 19
	ld	a5,-64(s0)
	beq	a5,zero,.L219
	.loc 1 1527 49 discriminator 1
	ld	a0,-64(s0)
	call	FreePool@plt
	.loc 1 1527 80 discriminator 2
	sd	zero,-64(s0)
.L219:
	.loc 1 1528 18
	li	a5,-1
	slli	a5,a5,63
	addi	a5,a5,3
	j	.L235
.L218:
	.loc 1 1531 23
	ld	a5,-56(s0)
	addi	a5,a5,2
	.loc 1 1531 28
	sh	zero,0(a5)
	.loc 1 1532 23
	ld	a0,-64(s0)
	call	ShellCommandFindMapItem@plt
	sd	a0,-72(s0)
	.loc 1 1533 12
	ld	a5,-72(s0)
	beq	a5,zero,.L220
	.loc 1 1534 28
	lla	a5,gShellCurMapping
	ld	a4,-72(s0)
	sd	a4,0(a5)
.L220:
	.loc 1 1537 17
	ld	a5,-64(s0)
	beq	a5,zero,.L216
	.loc 1 1537 47 discriminator 1
	ld	a0,-64(s0)
	call	FreePool@plt
	.loc 1 1537 78 discriminator 2
	sd	zero,-64(s0)
	j	.L216
.L197:
	.loc 1 1541 11
	li	a5,-1
	sd	a5,-40(s0)
.L216:
	.loc 1 1547 16
	la	a0,gEfiBlockIoProtocolGuid
	call	GetHandleListByProtocol@plt
	sd	a0,-80(s0)
	.loc 1 1548 6
	ld	a5,-80(s0)
	beq	a5,zero,.L221
	.loc 1 1549 16
	sd	zero,-40(s0)
	.loc 1 1549 5
	j	.L222
.L223:
	.loc 1 1549 61 discriminator 3
	ld	a5,-40(s0)
	addi	a5,a5,1
	sd	a5,-40(s0)
.L222:
	.loc 1 1549 31 discriminator 1
	ld	a5,-40(s0)
	slli	a5,a5,3
	ld	a4,-80(s0)
	add	a5,a4,a5
	ld	a5,0(a5)
	.loc 1 1549 39 discriminator 1
	bne	a5,zero,.L223
	.loc 1 1555 76
	ld	a5,-40(s0)
	slli	a5,a5,3
	.loc 1 1555 22
	mv	a0,a5
	call	AllocateZeroPool@plt
	sd	a0,-88(s0)
	.loc 1 1556 8
	ld	a5,-88(s0)
	bne	a5,zero,.L224
	.loc 1 1557 15
	ld	a5,-80(s0)
	beq	a5,zero,.L225
	.loc 1 1557 48 discriminator 1
	ld	a0,-80(s0)
	call	FreePool@plt
	.loc 1 1557 85 discriminator 2
	sd	zero,-80(s0)
.L225:
	.loc 1 1558 14
	li	a5,-1
	slli	a5,a5,63
	addi	a5,a5,9
	j	.L235
.L224:
	.loc 1 1561 16
	sd	zero,-40(s0)
	.loc 1 1561 5
	j	.L226
.L227:
	.loc 1 1562 63
	ld	a5,-40(s0)
	slli	a5,a5,3
	ld	a4,-80(s0)
	add	a5,a4,a5
	.loc 1 1562 31
	ld	a3,0(a5)
	.loc 1 1562 21
	ld	a5,-40(s0)
	slli	a5,a5,3
	ld	a4,-88(s0)
	add	s1,a4,a5
	.loc 1 1562 31
	mv	a0,a3
	call	DevicePathFromHandle@plt
	mv	a5,a0
	.loc 1 1562 29 discriminator 1
	sd	a5,0(s1)
	.loc 1 1561 61 discriminator 3
	ld	a5,-40(s0)
	addi	a5,a5,1
	sd	a5,-40(s0)
.L226:
	.loc 1 1561 31 discriminator 1
	ld	a5,-40(s0)
	slli	a5,a5,3
	ld	a4,-80(s0)
	add	a5,a4,a5
	ld	a5,0(a5)
	.loc 1 1561 39 discriminator 1
	bne	a5,zero,.L227
	.loc 1 1568 5
	la	a3,DevicePathCompare
	li	a2,8
	ld	a1,-40(s0)
	ld	a0,-88(s0)
	call	PerformQuickSort@plt
	.loc 1 1573 16
	sd	zero,-40(s0)
	.loc 1 1573 5
	j	.L228
.L232:
	.loc 1 1577 24
	li	a0,1
	call	ShellCommandCreateNewMappingName
	sd	a0,-104(s0)
	.loc 1 1578 10
	ld	a5,-104(s0)
	bne	a5,zero,.L229
	.loc 1 1580 17
	ld	a5,-80(s0)
	beq	a5,zero,.L230
	.loc 1 1580 50 discriminator 1
	ld	a0,-80(s0)
	call	FreePool@plt
	.loc 1 1580 87 discriminator 2
	sd	zero,-80(s0)
.L230:
	.loc 1 1581 17
	ld	a5,-88(s0)
	beq	a5,zero,.L231
	.loc 1 1581 54 discriminator 1
	ld	a0,-88(s0)
	call	FreePool@plt
	.loc 1 1581 99 discriminator 2
	sd	zero,-88(s0)
.L231:
	.loc 1 1582 16
	li	a5,-1
	slli	a5,a5,63
	addi	a5,a5,9
	j	.L235
.L229:
	.loc 1 1585 83
	ld	a5,-40(s0)
	slli	a5,a5,3
	ld	a4,-88(s0)
	add	a5,a4,a5
	.loc 1 1585 16
	ld	a5,0(a5)
	li	a3,0
	li	a2,0
	mv	a1,a5
	ld	a0,-104(s0)
	call	ShellCommandAddMapItemAndUpdatePath
	sd	a0,-96(s0)
	.loc 1 1587 7
	ld	a0,-104(s0)
	call	FreePool@plt
	.loc 1 1573 61 discriminator 2
	ld	a5,-40(s0)
	addi	a5,a5,1
	sd	a5,-40(s0)
.L228:
	.loc 1 1573 31 discriminator 1
	ld	a5,-40(s0)
	slli	a5,a5,3
	ld	a4,-80(s0)
	add	a5,a4,a5
	ld	a5,0(a5)
	.loc 1 1573 39 discriminator 1
	bne	a5,zero,.L232
	.loc 1 1590 13
	ld	a5,-80(s0)
	beq	a5,zero,.L233
	.loc 1 1590 46 discriminator 1
	ld	a0,-80(s0)
	call	FreePool@plt
	.loc 1 1590 83 discriminator 2
	sd	zero,-80(s0)
.L233:
	.loc 1 1591 13
	ld	a5,-88(s0)
	beq	a5,zero,.L234
	.loc 1 1591 50 discriminator 1
	ld	a0,-88(s0)
	call	FreePool@plt
	.loc 1 1591 95 discriminator 2
	sd	zero,-88(s0)
	j	.L234
.L221:
	.loc 1 1592 13
	ld	a4,-40(s0)
	li	a5,-1
	bne	a4,a5,.L234
	.loc 1 1593 12
	li	a5,-1
	slli	a5,a5,63
	addi	a5,a5,14
	j	.L235
.L234:
	.loc 1 1596 10
	li	a5,0
.L235:
	.loc 1 1597 1
	mv	a0,a5
	ld	ra,120(sp)
	.cfi_restore 1
	ld	s0,112(sp)
	.cfi_restore 8
	.cfi_def_cfa 2, 128
	ld	s1,104(sp)
	.cfi_restore 9
	addi	sp,sp,128
	.cfi_def_cfa_offset 0
	jr	ra
	.cfi_endproc
.LFE30:
	.size	ShellCommandCreateInitialMappingsAndPaths, .-ShellCommandCreateInitialMappingsAndPaths
	.section	.text.ShellCommandUpdateMapping,"ax",@progbits
	.align	1
	.globl	ShellCommandUpdateMapping
	.type	ShellCommandUpdateMapping, @function
ShellCommandUpdateMapping:
.LFB31:
	.loc 1 1609 1
	.cfi_startproc
	addi	sp,sp,-96
	.cfi_def_cfa_offset 96
	sd	ra,88(sp)
	sd	s0,80(sp)
	sd	s1,72(sp)
	.cfi_offset 1, -8
	.cfi_offset 8, -16
	.cfi_offset 9, -24
	addi	s0,sp,96
	.cfi_def_cfa 8, 0
	.loc 1 1618 14
	sd	zero,-56(s0)
	.loc 1 1619 10
	sd	zero,-40(s0)
	.loc 1 1628 16
	la	a0,gEfiSimpleFileSystemProtocolGuid
	call	GetHandleListByProtocol@plt
	sd	a0,-56(s0)
	.loc 1 1629 6
	ld	a5,-56(s0)
	beq	a5,zero,.L237
	.loc 1 1633 16
	sd	zero,-48(s0)
	.loc 1 1633 5
	j	.L238
.L239:
	.loc 1 1633 61 discriminator 3
	ld	a5,-48(s0)
	addi	a5,a5,1
	sd	a5,-48(s0)
.L238:
	.loc 1 1633 31 discriminator 1
	ld	a5,-48(s0)
	slli	a5,a5,3
	ld	a4,-56(s0)
	add	a5,a4,a5
	ld	a5,0(a5)
	.loc 1 1633 39 discriminator 1
	bne	a5,zero,.L239
	.loc 1 1639 76
	ld	a5,-48(s0)
	slli	a5,a5,3
	.loc 1 1639 22
	mv	a0,a5
	call	AllocateZeroPool@plt
	sd	a0,-64(s0)
	.loc 1 1640 8
	ld	a5,-64(s0)
	bne	a5,zero,.L240
	.loc 1 1641 14
	li	a5,-1
	slli	a5,a5,63
	addi	a5,a5,9
	j	.L257
.L240:
	.loc 1 1644 16
	sd	zero,-48(s0)
	.loc 1 1644 5
	j	.L242
.L243:
	.loc 1 1645 63
	ld	a5,-48(s0)
	slli	a5,a5,3
	ld	a4,-56(s0)
	add	a5,a4,a5
	.loc 1 1645 31
	ld	a3,0(a5)
	.loc 1 1645 21
	ld	a5,-48(s0)
	slli	a5,a5,3
	ld	a4,-64(s0)
	add	s1,a4,a5
	.loc 1 1645 31
	mv	a0,a3
	call	DevicePathFromHandle@plt
	mv	a5,a0
	.loc 1 1645 29 discriminator 1
	sd	a5,0(s1)
	.loc 1 1644 61 discriminator 3
	ld	a5,-48(s0)
	addi	a5,a5,1
	sd	a5,-48(s0)
.L242:
	.loc 1 1644 31 discriminator 1
	ld	a5,-48(s0)
	slli	a5,a5,3
	ld	a4,-56(s0)
	add	a5,a4,a5
	ld	a5,0(a5)
	.loc 1 1644 39 discriminator 1
	bne	a5,zero,.L243
	.loc 1 1651 5
	la	a3,DevicePathCompare
	li	a2,8
	ld	a1,-48(s0)
	ld	a0,-64(s0)
	call	PerformQuickSort@plt
	.loc 1 1653 14
	addi	a5,s0,-88
	mv	a0,a5
	call	ShellCommandConsistMappingInitialize@plt
	sd	a0,-40(s0)
	.loc 1 1654 36
	ld	a5,-40(s0)
	.loc 1 1654 8
	bge	a5,zero,.L244
	.loc 1 1655 15
	ld	a5,-56(s0)
	beq	a5,zero,.L245
	.loc 1 1655 48 discriminator 1
	ld	a0,-56(s0)
	call	FreePool@plt
	.loc 1 1655 85 discriminator 2
	sd	zero,-56(s0)
.L245:
	.loc 1 1656 15
	ld	a5,-64(s0)
	beq	a5,zero,.L246
	.loc 1 1656 52 discriminator 1
	ld	a0,-64(s0)
	call	FreePool@plt
	.loc 1 1656 97 discriminator 2
	sd	zero,-64(s0)
.L246:
	.loc 1 1657 14
	ld	a5,-40(s0)
	j	.L257
.L244:
	.loc 1 1663 16
	sd	zero,-48(s0)
	.loc 1 1663 5
	j	.L247
.L253:
	.loc 1 1667 28
	la	a5,gEfiShellProtocol
	ld	a5,0(a5)
	ld	a5,56(a5)
	.loc 1 1667 67
	ld	a4,-48(s0)
	slli	a4,a4,3
	.loc 1 1667 11
	ld	a3,-64(s0)
	add	a4,a3,a4
	mv	a0,a4
	jalr	a5
.LVL22:
	mv	a5,a0
	.loc 1 1667 10 discriminator 1
	bne	a5,zero,.L258
	.loc 1 1674 24
	li	a0,0
	call	ShellCommandCreateNewMappingName
	sd	a0,-72(s0)
	.loc 1 1675 10
	ld	a5,-72(s0)
	bne	a5,zero,.L250
	.loc 1 1676 16
	li	a5,-1
	slli	a5,a5,63
	addi	a5,a5,9
	sd	a5,-40(s0)
	.loc 1 1677 9
	j	.L251
.L250:
	.loc 1 1683 33
	la	a5,gEfiShellProtocol
	ld	a5,0(a5)
	ld	a5,80(a5)
	.loc 1 1683 57
	ld	a4,-48(s0)
	slli	a4,a4,3
	ld	a3,-64(s0)
	add	a4,a3,a4
	.loc 1 1683 16
	ld	a4,0(a4)
	ld	a1,-72(s0)
	mv	a0,a4
	jalr	a5
.LVL23:
	sd	a0,-40(s0)
	.loc 1 1685 11
	ld	a5,-40(s0)
	.loc 1 1685 10
	blt	a5,zero,.L252
	.loc 1 1689 82
	ld	a5,-48(s0)
	slli	a5,a5,3
	ld	a4,-64(s0)
	add	a5,a4,a5
	.loc 1 1689 26
	ld	a5,0(a5)
	ld	a4,-88(s0)
	mv	a1,a4
	mv	a0,a5
	call	ShellCommandConsistMappingGenMappingName@plt
	sd	a0,-80(s0)
	.loc 1 1690 12
	ld	a5,-80(s0)
	beq	a5,zero,.L252
	.loc 1 1691 37
	la	a5,gEfiShellProtocol
	ld	a5,0(a5)
	ld	a5,80(a5)
	.loc 1 1691 61
	ld	a4,-48(s0)
	slli	a4,a4,3
	ld	a3,-64(s0)
	add	a4,a3,a4
	.loc 1 1691 20
	ld	a4,0(a4)
	ld	a1,-80(s0)
	mv	a0,a4
	jalr	a5
.LVL24:
	sd	a0,-40(s0)
	.loc 1 1692 11
	ld	a0,-80(s0)
	call	FreePool@plt
.L252:
	.loc 1 1696 7
	ld	a0,-72(s0)
	call	FreePool@plt
	j	.L249
.L258:
	.loc 1 1668 9
	nop
.L249:
	.loc 1 1663 118 discriminator 2
	ld	a5,-48(s0)
	addi	a5,a5,1
	sd	a5,-48(s0)
.L247:
	.loc 1 1663 21 discriminator 1
	ld	a5,-40(s0)
	.loc 1 1663 75 discriminator 1
	blt	a5,zero,.L251
	.loc 1 1663 88 discriminator 3
	ld	a5,-48(s0)
	slli	a5,a5,3
	ld	a4,-56(s0)
	add	a5,a4,a5
	ld	a5,0(a5)
	.loc 1 1663 75 discriminator 3
	bne	a5,zero,.L253
.L251:
	.loc 1 1699 5
	ld	a5,-88(s0)
	mv	a0,a5
	call	ShellCommandConsistMappingUnInitialize@plt
	.loc 1 1700 13
	ld	a5,-56(s0)
	beq	a5,zero,.L254
	.loc 1 1700 46 discriminator 1
	ld	a0,-56(s0)
	call	FreePool@plt
	.loc 1 1700 83 discriminator 2
	sd	zero,-56(s0)
.L254:
	.loc 1 1701 13
	ld	a5,-64(s0)
	beq	a5,zero,.L255
	.loc 1 1701 50 discriminator 1
	ld	a0,-64(s0)
	call	FreePool@plt
	.loc 1 1701 95 discriminator 2
	sd	zero,-64(s0)
.L255:
	.loc 1 1703 16
	sd	zero,-56(s0)
	j	.L256
.L237:
	.loc 1 1705 11
	li	a5,-1
	sd	a5,-48(s0)
.L256:
	.loc 1 1712 10
	ld	a5,-40(s0)
.L257:
	.loc 1 1713 1
	mv	a0,a5
	ld	ra,88(sp)
	.cfi_restore 1
	ld	s0,80(sp)
	.cfi_restore 8
	.cfi_def_cfa 2, 96
	ld	s1,72(sp)
	.cfi_restore 9
	addi	sp,sp,96
	.cfi_def_cfa_offset 0
	jr	ra
	.cfi_endproc
.LFE31:
	.size	ShellCommandUpdateMapping, .-ShellCommandUpdateMapping
	.section	.text.ConvertShellHandleToEfiFileProtocol,"ax",@progbits
	.align	1
	.globl	ConvertShellHandleToEfiFileProtocol
	.type	ConvertShellHandleToEfiFileProtocol, @function
ConvertShellHandleToEfiFileProtocol:
.LFB32:
	.loc 1 1727 1
	.cfi_startproc
	addi	sp,sp,-32
	.cfi_def_cfa_offset 32
	sd	ra,24(sp)
	sd	s0,16(sp)
	.cfi_offset 1, -8
	.cfi_offset 8, -16
	addi	s0,sp,32
	.cfi_def_cfa 8, 0
	sd	a0,-24(s0)
	.loc 1 1728 11
	ld	a5,-24(s0)
	.loc 1 1729 1
	mv	a0,a5
	ld	ra,24(sp)
	.cfi_restore 1
	ld	s0,16(sp)
	.cfi_restore 8
	.cfi_def_cfa 2, 32
	addi	sp,sp,32
	.cfi_def_cfa_offset 0
	jr	ra
	.cfi_endproc
.LFE32:
	.size	ConvertShellHandleToEfiFileProtocol, .-ConvertShellHandleToEfiFileProtocol
	.section	.text.ConvertEfiFileProtocolToShellHandle,"ax",@progbits
	.align	1
	.globl	ConvertEfiFileProtocolToShellHandle
	.type	ConvertEfiFileProtocolToShellHandle, @function
ConvertEfiFileProtocolToShellHandle:
.LFB33:
	.loc 1 1746 1
	.cfi_startproc
	addi	sp,sp,-48
	.cfi_def_cfa_offset 48
	sd	ra,40(sp)
	sd	s0,32(sp)
	.cfi_offset 1, -8
	.cfi_offset 8, -16
	addi	s0,sp,48
	.cfi_def_cfa 8, 0
	sd	a0,-40(s0)
	sd	a1,-48(s0)
	.loc 1 1750 6
	ld	a5,-48(s0)
	beq	a5,zero,.L262
	.loc 1 1751 14
	li	a0,16
	call	AllocateZeroPool@plt
	sd	a0,-24(s0)
	.loc 1 1752 8
	ld	a5,-24(s0)
	bne	a5,zero,.L263
	.loc 1 1753 14
	li	a5,0
	j	.L264
.L263:
	.loc 1 1756 15
	li	a0,24
	call	AllocateZeroPool@plt
	sd	a0,-32(s0)
	.loc 1 1757 8
	ld	a5,-32(s0)
	bne	a5,zero,.L265
	.loc 1 1758 15
	ld	a5,-24(s0)
	beq	a5,zero,.L266
	.loc 1 1758 44 discriminator 1
	ld	a0,-24(s0)
	call	FreePool@plt
	.loc 1 1758 73 discriminator 2
	sd	zero,-24(s0)
.L266:
	.loc 1 1759 14
	li	a5,0
	j	.L264
.L265:
	.loc 1 1762 24
	ld	a5,-24(s0)
	ld	a4,-40(s0)
	sd	a4,0(a5)
	.loc 1 1763 20
	ld	a5,-24(s0)
	addi	a5,a5,8
	li	a3,0
	ld	a2,-48(s0)
	li	a1,0
	mv	a0,a5
	call	StrnCatGrow@plt
	mv	a4,a0
	.loc 1 1763 18 discriminator 1
	ld	a5,-24(s0)
	sd	a4,8(a5)
	.loc 1 1764 15
	ld	a5,-24(s0)
	ld	a5,8(a5)
	.loc 1 1764 8
	bne	a5,zero,.L267
	.loc 1 1765 15
	ld	a5,-32(s0)
	beq	a5,zero,.L268
	.loc 1 1765 45 discriminator 1
	ld	a0,-32(s0)
	call	FreePool@plt
	.loc 1 1765 76 discriminator 2
	sd	zero,-32(s0)
.L268:
	.loc 1 1766 15
	ld	a5,-24(s0)
	beq	a5,zero,.L269
	.loc 1 1766 44 discriminator 1
	ld	a0,-24(s0)
	call	FreePool@plt
	.loc 1 1766 73 discriminator 2
	sd	zero,-24(s0)
.L269:
	.loc 1 1767 14
	li	a5,0
	j	.L264
.L267:
	.loc 1 1770 21
	ld	a5,-32(s0)
	ld	a4,-24(s0)
	sd	a4,16(a5)
	.loc 1 1772 5
	ld	a5,-32(s0)
	mv	a1,a5
	lla	a0,mFileHandleList
	call	InsertHeadList@plt
.L262:
	.loc 1 1775 11
	ld	a5,-40(s0)
.L264:
	.loc 1 1776 1
	mv	a0,a5
	ld	ra,40(sp)
	.cfi_restore 1
	ld	s0,32(sp)
	.cfi_restore 8
	.cfi_def_cfa 2, 48
	addi	sp,sp,48
	.cfi_def_cfa_offset 0
	jr	ra
	.cfi_endproc
.LFE33:
	.size	ConvertEfiFileProtocolToShellHandle, .-ConvertEfiFileProtocolToShellHandle
	.section	.text.ShellFileHandleGetPath,"ax",@progbits
	.align	1
	.globl	ShellFileHandleGetPath
	.type	ShellFileHandleGetPath, @function
ShellFileHandleGetPath:
.LFB34:
	.loc 1 1790 1
	.cfi_startproc
	addi	sp,sp,-48
	.cfi_def_cfa_offset 48
	sd	ra,40(sp)
	sd	s0,32(sp)
	.cfi_offset 1, -8
	.cfi_offset 8, -16
	addi	s0,sp,48
	.cfi_def_cfa 8, 0
	sd	a0,-40(s0)
	.loc 1 1793 30
	lla	a0,mFileHandleList
	call	GetFirstNode@plt
	sd	a0,-24(s0)
	.loc 1 1793 3
	j	.L271
.L274:
	.loc 1 1798 14
	ld	a5,-24(s0)
	ld	a5,16(a5)
	.loc 1 1798 8
	beq	a5,zero,.L272
	.loc 1 1798 62 discriminator 1
	ld	a5,-24(s0)
	ld	a5,16(a5)
	.loc 1 1798 71 discriminator 1
	ld	a5,0(a5)
	.loc 1 1798 24 discriminator 1
	ld	a4,-40(s0)
	bne	a4,a5,.L272
	.loc 1 1799 49
	ld	a5,-24(s0)
	ld	a5,16(a5)
	.loc 1 1799 58
	ld	a5,8(a5)
	j	.L273
.L272:
	.loc 1 1795 68
	ld	a5,-24(s0)
	.loc 1 1795 32
	mv	a1,a5
	lla	a0,mFileHandleList
	call	GetNextNode@plt
	sd	a0,-24(s0)
.L271:
	.loc 1 1794 42
	ld	a5,-24(s0)
	.loc 1 1794 11
	mv	a1,a5
	lla	a0,mFileHandleList
	call	IsNull@plt
	mv	a5,a0
	.loc 1 1794 10 discriminator 1
	beq	a5,zero,.L274
	.loc 1 1803 10
	li	a5,0
.L273:
	.loc 1 1804 1
	mv	a0,a5
	ld	ra,40(sp)
	.cfi_restore 1
	ld	s0,32(sp)
	.cfi_restore 8
	.cfi_def_cfa 2, 48
	addi	sp,sp,48
	.cfi_def_cfa_offset 0
	jr	ra
	.cfi_endproc
.LFE34:
	.size	ShellFileHandleGetPath, .-ShellFileHandleGetPath
	.section	.text.ShellFileHandleRemove,"ax",@progbits
	.align	1
	.globl	ShellFileHandleRemove
	.type	ShellFileHandleRemove, @function
ShellFileHandleRemove:
.LFB35:
	.loc 1 1819 1
	.cfi_startproc
	addi	sp,sp,-48
	.cfi_def_cfa_offset 48
	sd	ra,40(sp)
	sd	s0,32(sp)
	.cfi_offset 1, -8
	.cfi_offset 8, -16
	addi	s0,sp,48
	.cfi_def_cfa 8, 0
	sd	a0,-40(s0)
	.loc 1 1822 30
	lla	a0,mFileHandleList
	call	GetFirstNode@plt
	sd	a0,-24(s0)
	.loc 1 1822 3
	j	.L276
.L282:
	.loc 1 1827 14
	ld	a5,-24(s0)
	ld	a5,16(a5)
	.loc 1 1827 8
	beq	a5,zero,.L277
	.loc 1 1827 62 discriminator 1
	ld	a5,-24(s0)
	ld	a5,16(a5)
	.loc 1 1827 71 discriminator 1
	ld	a5,0(a5)
	.loc 1 1827 24 discriminator 1
	ld	a4,-40(s0)
	bne	a4,a5,.L277
	.loc 1 1828 24
	ld	a5,-24(s0)
	.loc 1 1828 7
	mv	a0,a5
	call	RemoveEntryList@plt
	.loc 1 1829 51
	ld	a5,-24(s0)
	ld	a5,16(a5)
	.loc 1 1829 60
	ld	a5,8(a5)
	.loc 1 1829 15
	beq	a5,zero,.L278
	.loc 1 1829 131 discriminator 1
	ld	a5,-24(s0)
	ld	a5,16(a5)
	.loc 1 1829 140 discriminator 1
	ld	a5,8(a5)
	.loc 1 1829 87 discriminator 1
	mv	a0,a5
	call	FreePool@plt
	.loc 1 1829 185 discriminator 2
	ld	a5,-24(s0)
	ld	a5,16(a5)
	.loc 1 1829 202 discriminator 2
	sd	zero,8(a5)
.L278:
	.loc 1 1830 21
	ld	a5,-24(s0)
	ld	a5,16(a5)
	.loc 1 1830 15
	beq	a5,zero,.L279
	.loc 1 1830 50 discriminator 1
	ld	a5,-24(s0)
	ld	a5,16(a5)
	mv	a0,a5
	call	FreePool@plt
	.loc 1 1830 91 discriminator 2
	ld	a5,-24(s0)
	sd	zero,16(a5)
.L279:
	.loc 1 1831 15
	ld	a5,-24(s0)
	beq	a5,zero,.L280
	.loc 1 1831 42 discriminator 1
	ld	a0,-24(s0)
	call	FreePool@plt
	.loc 1 1831 67 discriminator 2
	sd	zero,-24(s0)
.L280:
	.loc 1 1832 14
	li	a5,1
	j	.L281
.L277:
	.loc 1 1824 68
	ld	a5,-24(s0)
	.loc 1 1824 32
	mv	a1,a5
	lla	a0,mFileHandleList
	call	GetNextNode@plt
	sd	a0,-24(s0)
.L276:
	.loc 1 1823 42
	ld	a5,-24(s0)
	.loc 1 1823 11
	mv	a1,a5
	lla	a0,mFileHandleList
	call	IsNull@plt
	mv	a5,a0
	.loc 1 1823 10 discriminator 1
	beq	a5,zero,.L282
	.loc 1 1836 10
	li	a5,0
.L281:
	.loc 1 1837 1
	mv	a0,a5
	ld	ra,40(sp)
	.cfi_restore 1
	ld	s0,32(sp)
	.cfi_restore 8
	.cfi_def_cfa 2, 48
	addi	sp,sp,48
	.cfi_def_cfa_offset 0
	jr	ra
	.cfi_endproc
.LFE35:
	.size	ShellFileHandleRemove, .-ShellFileHandleRemove
	.section	.text.ShellFileHandleEof,"ax",@progbits
	.align	1
	.globl	ShellFileHandleEof
	.type	ShellFileHandleEof, @function
ShellFileHandleEof:
.LFB36:
	.loc 1 1856 1
	.cfi_startproc
	addi	sp,sp,-64
	.cfi_def_cfa_offset 64
	sd	ra,56(sp)
	sd	s0,48(sp)
	.cfi_offset 1, -8
	.cfi_offset 8, -16
	addi	s0,sp,64
	.cfi_def_cfa 8, 0
	sd	a0,-56(s0)
	.loc 1 1866 20
	la	a5,gEfiShellProtocol
	ld	a5,0(a5)
	ld	a5,248(a5)
	.loc 1 1866 3
	addi	a4,s0,-40
	mv	a1,a4
	ld	a0,-56(s0)
	jalr	a5
.LVL25:
	.loc 1 1867 27
	la	a5,gEfiShellProtocol
	ld	a5,0(a5)
	ld	a5,176(a5)
	.loc 1 1867 10
	ld	a0,-56(s0)
	jalr	a5
.LVL26:
	sd	a0,-32(s0)
	.loc 1 1868 20
	la	a5,gEfiShellProtocol
	ld	a5,0(a5)
	ld	a5,256(a5)
	.loc 1 1868 3
	ld	a4,-40(s0)
	mv	a1,a4
	ld	a0,-56(s0)
	jalr	a5
.LVL27:
	.loc 1 1870 6
	ld	a5,-32(s0)
	bne	a5,zero,.L284
	.loc 1 1871 12
	li	a5,0
	j	.L288
.L284:
	.loc 1 1874 18
	ld	a5,-32(s0)
	ld	a4,8(a5)
	.loc 1 1874 11
	ld	a5,-40(s0)
	.loc 1 1874 6
	bne	a4,a5,.L286
	.loc 1 1875 12
	li	a5,1
	sb	a5,-17(s0)
	j	.L287
.L286:
	.loc 1 1877 12
	sb	zero,-17(s0)
.L287:
	.loc 1 1880 3
	ld	a0,-32(s0)
	call	FreePool@plt
	.loc 1 1882 10
	lbu	a5,-17(s0)
.L288:
	.loc 1 1883 1
	mv	a0,a5
	ld	ra,56(sp)
	.cfi_restore 1
	ld	s0,48(sp)
	.cfi_restore 8
	.cfi_def_cfa 2, 64
	addi	sp,sp,64
	.cfi_def_cfa_offset 0
	jr	ra
	.cfi_endproc
.LFE36:
	.size	ShellFileHandleEof, .-ShellFileHandleEof
	.section	.text.FreeBufferList,"ax",@progbits
	.align	1
	.globl	FreeBufferList
	.type	FreeBufferList, @function
FreeBufferList:
.LFB37:
	.loc 1 1895 1
	.cfi_startproc
	addi	sp,sp,-48
	.cfi_def_cfa_offset 48
	sd	ra,40(sp)
	sd	s0,32(sp)
	.cfi_offset 1, -8
	.cfi_offset 8, -16
	addi	s0,sp,48
	.cfi_def_cfa 8, 0
	sd	a0,-40(s0)
	.loc 1 1898 6
	ld	a5,-40(s0)
	beq	a5,zero,.L295
	.loc 1 1905 56
	ld	a5,-40(s0)
	.loc 1 1905 42
	mv	a0,a5
	call	GetFirstNode@plt
	sd	a0,-24(s0)
	.loc 1 1905 3
	j	.L292
.L294:
	.loc 1 1910 22
	ld	a5,-24(s0)
	.loc 1 1910 5
	mv	a0,a5
	call	RemoveEntryList@plt
	.loc 1 1911 24
	ld	a5,-24(s0)
	ld	a5,16(a5)
	.loc 1 1911 8
	beq	a5,zero,.L293
	.loc 1 1912 7
	ld	a5,-24(s0)
	ld	a5,16(a5)
	mv	a0,a5
	call	FreePool@plt
.L293:
	.loc 1 1915 5
	ld	a0,-24(s0)
	call	FreePool@plt
	.loc 1 1907 58
	ld	a5,-40(s0)
	.loc 1 1907 44
	mv	a0,a5
	call	GetFirstNode@plt
	sd	a0,-24(s0)
.L292:
	.loc 1 1906 25
	ld	a5,-40(s0)
	.loc 1 1906 12
	mv	a0,a5
	call	IsListEmpty@plt
	mv	a5,a0
	.loc 1 1906 11 discriminator 1
	beq	a5,zero,.L294
	j	.L289
.L295:
	.loc 1 1899 5
	nop
.L289:
	.loc 1 1917 1
	ld	ra,40(sp)
	.cfi_restore 1
	ld	s0,32(sp)
	.cfi_restore 8
	.cfi_def_cfa 2, 48
	addi	sp,sp,48
	.cfi_def_cfa_offset 0
	jr	ra
	.cfi_endproc
.LFE37:
	.size	FreeBufferList, .-FreeBufferList
	.section	.rodata
	.align	3
.LC16:
	.string	""
	.align	3
.LC17:
	.string	"%"
	.string	"*"
	.string	"a"
	.string	"%"
	.string	"0"
	.string	"8"
	.string	"X"
	.string	":"
	.string	" "
	.string	"%"
	.string	"-"
	.string	"4"
	.string	"8"
	.string	"a"
	.string	" "
	.string	"*"
	.string	"%"
	.string	"a"
	.string	"*"
	.string	"\r"
	.string	"\n"
	.zero	2
	.section	.text.DumpHex,"ax",@progbits
	.align	1
	.globl	DumpHex
	.type	DumpHex, @function
DumpHex:
.LFB38:
	.loc 1 1935 1
	.cfi_startproc
	addi	sp,sp,-160
	.cfi_def_cfa_offset 160
	sd	ra,152(sp)
	sd	s0,144(sp)
	.cfi_offset 1, -8
	.cfi_offset 8, -16
	addi	s0,sp,160
	.cfi_def_cfa 8, 0
	sd	a0,-136(s0)
	sd	a1,-144(s0)
	sd	a2,-152(s0)
	sd	a3,-160(s0)
	.loc 1 1946 8
	ld	a5,-160(s0)
	sd	a5,-24(s0)
	.loc 1 1947 9
	j	.L297
.L305:
	.loc 1 1948 10
	li	a5,16
	sd	a5,-32(s0)
	.loc 1 1949 8
	ld	a4,-32(s0)
	ld	a5,-152(s0)
	bleu	a4,a5,.L298
	.loc 1 1950 12
	ld	a5,-152(s0)
	sd	a5,-32(s0)
.L298:
	.loc 1 1953 16
	sd	zero,-40(s0)
	.loc 1 1953 5
	j	.L299
.L304:
	.loc 1 1954 22
	ld	a4,-24(s0)
	ld	a5,-40(s0)
	add	a5,a4,a5
	.loc 1 1954 16
	lbu	a5,0(a5)
	sb	a5,-41(s0)
	.loc 1 1955 41
	lbu	a5,-41(s0)
	srliw	a5,a5,4
	andi	a5,a5,0xff
	sext.w	a3,a5
	.loc 1 1955 21
	ld	a4,-40(s0)
	mv	a5,a4
	slli	a5,a5,1
	add	a5,a5,a4
	.loc 1 1955 31
	lla	a4,Hex
	add	a4,a4,a3
	lbu	a4,0(a4)
	.loc 1 1955 26
	addi	a5,a5,-16
	add	a5,a5,s0
	sb	a4,-80(a5)
	.loc 1 1956 41
	lbu	a5,-41(s0)
	sext.w	a5,a5
	andi	a5,a5,15
	sext.w	a3,a5
	.loc 1 1956 17
	ld	a4,-40(s0)
	mv	a5,a4
	slli	a5,a5,1
	add	a5,a5,a4
	.loc 1 1956 21
	addi	a5,a5,1
	.loc 1 1956 31
	lla	a4,Hex
	add	a4,a4,a3
	lbu	a4,0(a4)
	.loc 1 1956 26
	addi	a5,a5,-16
	add	a5,a5,s0
	sb	a4,-80(a5)
	.loc 1 1957 28
	ld	a4,-40(s0)
	li	a5,7
	bne	a4,a5,.L300
	.loc 1 1957 28 is_stmt 0 discriminator 1
	li	a4,45
	j	.L301
.L300:
	.loc 1 1957 28 discriminator 2
	li	a4,32
.L301:
	.loc 1 1957 17 is_stmt 1 discriminator 4
	ld	a3,-40(s0)
	mv	a5,a3
	slli	a5,a5,1
	add	a5,a5,a3
	.loc 1 1957 21 discriminator 4
	addi	a5,a5,2
	.loc 1 1957 26 discriminator 4
	addi	a5,a5,-16
	add	a5,a5,s0
	sb	a4,-80(a5)
	.loc 1 1958 20
	lbu	a5,-41(s0)
	andi	a4,a5,0xff
	li	a5,31
	bleu	a4,a5,.L302
	.loc 1 1958 44 discriminator 1
	lbu	a5,-41(s0)
	andi	a4,a5,0xff
	li	a5,126
	bgtu	a4,a5,.L302
	.loc 1 1958 20 discriminator 3
	lbu	a5,-41(s0)
	.loc 1 1958 20 is_stmt 0
	j	.L303
.L302:
	.loc 1 1958 20 discriminator 4
	li	a5,46
.L303:
	.loc 1 1958 18 is_stmt 1 discriminator 6
	ld	a4,-40(s0)
	addi	a4,a4,-16
	add	a4,a4,s0
	sb	a5,-104(a4)
	.loc 1 1953 41 discriminator 2
	ld	a5,-40(s0)
	addi	a5,a5,1
	sd	a5,-40(s0)
.L299:
	.loc 1 1953 27 discriminator 1
	ld	a4,-40(s0)
	ld	a5,-32(s0)
	bltu	a4,a5,.L304
	.loc 1 1961 15
	ld	a4,-40(s0)
	mv	a5,a4
	slli	a5,a5,1
	add	a5,a5,a4
	.loc 1 1961 20
	addi	a5,a5,-16
	add	a5,a5,s0
	sb	zero,-80(a5)
	.loc 1 1962 16
	ld	a5,-40(s0)
	addi	a5,a5,-16
	add	a5,a5,s0
	sb	zero,-104(a5)
	.loc 1 1963 5
	addi	a4,s0,-120
	addi	a5,s0,-96
	mv	a7,a4
	mv	a6,a5
	ld	a5,-144(s0)
	lla	a4,.LC16
	ld	a3,-136(s0)
	lla	a2,.LC17
	li	a1,-1
	li	a0,-1
	call	ShellPrintEx@plt
	.loc 1 1965 10
	ld	a4,-24(s0)
	ld	a5,-32(s0)
	add	a5,a4,a5
	sd	a5,-24(s0)
	.loc 1 1966 12
	ld	a4,-144(s0)
	ld	a5,-32(s0)
	add	a5,a4,a5
	sd	a5,-144(s0)
	.loc 1 1967 14
	ld	a4,-152(s0)
	ld	a5,-32(s0)
	sub	a5,a4,a5
	sd	a5,-152(s0)
.L297:
	.loc 1 1947 19
	ld	a5,-152(s0)
	bne	a5,zero,.L305
	.loc 1 1969 1
	nop
	nop
	ld	ra,152(sp)
	.cfi_restore 1
	ld	s0,144(sp)
	.cfi_restore 8
	.cfi_def_cfa 2, 160
	addi	sp,sp,160
	.cfi_def_cfa_offset 0
	jr	ra
	.cfi_endproc
.LFE38:
	.size	DumpHex, .-DumpHex
	.section	.text.CatSDumpHex,"ax",@progbits
	.align	1
	.globl	CatSDumpHex
	.type	CatSDumpHex, @function
CatSDumpHex:
.LFB39:
	.loc 1 1989 1
	.cfi_startproc
	addi	sp,sp,-192
	.cfi_def_cfa_offset 192
	sd	ra,184(sp)
	sd	s0,176(sp)
	.cfi_offset 1, -8
	.cfi_offset 8, -16
	addi	s0,sp,192
	.cfi_def_cfa 8, 0
	sd	a0,-152(s0)
	sd	a1,-160(s0)
	sd	a2,-168(s0)
	sd	a3,-176(s0)
	sd	a4,-184(s0)
	.loc 1 1999 8
	ld	a5,-184(s0)
	sd	a5,-24(s0)
	.loc 1 2000 10
	ld	a5,-152(s0)
	sd	a5,-48(s0)
	.loc 1 2001 9
	j	.L307
.L316:
	.loc 1 2002 10
	li	a5,16
	sd	a5,-32(s0)
	.loc 1 2003 8
	ld	a4,-32(s0)
	ld	a5,-176(s0)
	bleu	a4,a5,.L308
	.loc 1 2004 12
	ld	a5,-176(s0)
	sd	a5,-32(s0)
.L308:
	.loc 1 2007 16
	sd	zero,-40(s0)
	.loc 1 2007 5
	j	.L309
.L314:
	.loc 1 2008 22
	ld	a4,-24(s0)
	ld	a5,-40(s0)
	add	a5,a4,a5
	.loc 1 2008 16
	lbu	a5,0(a5)
	sb	a5,-57(s0)
	.loc 1 2009 41
	lbu	a5,-57(s0)
	srliw	a5,a5,4
	andi	a5,a5,0xff
	sext.w	a3,a5
	.loc 1 2009 21
	ld	a4,-40(s0)
	mv	a5,a4
	slli	a5,a5,1
	add	a5,a5,a4
	.loc 1 2009 31
	lla	a4,Hex
	add	a4,a4,a3
	lbu	a4,0(a4)
	.loc 1 2009 26
	addi	a5,a5,-16
	add	a5,a5,s0
	sb	a4,-96(a5)
	.loc 1 2010 41
	lbu	a5,-57(s0)
	sext.w	a5,a5
	andi	a5,a5,15
	sext.w	a3,a5
	.loc 1 2010 17
	ld	a4,-40(s0)
	mv	a5,a4
	slli	a5,a5,1
	add	a5,a5,a4
	.loc 1 2010 21
	addi	a5,a5,1
	.loc 1 2010 31
	lla	a4,Hex
	add	a4,a4,a3
	lbu	a4,0(a4)
	.loc 1 2010 26
	addi	a5,a5,-16
	add	a5,a5,s0
	sb	a4,-96(a5)
	.loc 1 2011 28
	ld	a4,-40(s0)
	li	a5,7
	bne	a4,a5,.L310
	.loc 1 2011 28 is_stmt 0 discriminator 1
	li	a4,45
	j	.L311
.L310:
	.loc 1 2011 28 discriminator 2
	li	a4,32
.L311:
	.loc 1 2011 17 is_stmt 1 discriminator 4
	ld	a3,-40(s0)
	mv	a5,a3
	slli	a5,a5,1
	add	a5,a5,a3
	.loc 1 2011 21 discriminator 4
	addi	a5,a5,2
	.loc 1 2011 26 discriminator 4
	addi	a5,a5,-16
	add	a5,a5,s0
	sb	a4,-96(a5)
	.loc 1 2012 20
	lbu	a5,-57(s0)
	andi	a4,a5,0xff
	li	a5,31
	bleu	a4,a5,.L312
	.loc 1 2012 44 discriminator 1
	lbu	a5,-57(s0)
	andi	a4,a5,0xff
	li	a5,122
	bgtu	a4,a5,.L312
	.loc 1 2012 20 discriminator 3
	lbu	a5,-57(s0)
	.loc 1 2012 20 is_stmt 0
	j	.L313
.L312:
	.loc 1 2012 20 discriminator 4
	li	a5,46
.L313:
	.loc 1 2012 18 is_stmt 1 discriminator 6
	ld	a4,-40(s0)
	addi	a4,a4,-16
	add	a4,a4,s0
	sb	a5,-120(a4)
	.loc 1 2007 41 discriminator 2
	ld	a5,-40(s0)
	addi	a5,a5,1
	sd	a5,-40(s0)
.L309:
	.loc 1 2007 27 discriminator 1
	ld	a4,-40(s0)
	ld	a5,-32(s0)
	bltu	a4,a5,.L314
	.loc 1 2015 15
	ld	a4,-40(s0)
	mv	a5,a4
	slli	a5,a5,1
	add	a5,a5,a4
	.loc 1 2015 20
	addi	a5,a5,-16
	add	a5,a5,s0
	sb	zero,-96(a5)
	.loc 1 2016 16
	ld	a5,-40(s0)
	addi	a5,a5,-16
	add	a5,a5,s0
	sb	zero,-120(a5)
	.loc 1 2017 18
	addi	a4,s0,-136
	addi	a5,s0,-112
	mv	a6,a4
	ld	a4,-168(s0)
	lla	a3,.LC16
	ld	a2,-160(s0)
	lla	a1,.LC17
	ld	a0,-48(s0)
	call	CatSPrint@plt
	sd	a0,-56(s0)
	.loc 1 2018 13
	ld	a5,-48(s0)
	beq	a5,zero,.L315
	.loc 1 2018 42 discriminator 1
	ld	a0,-48(s0)
	call	FreePool@plt
	.loc 1 2018 71 discriminator 2
	sd	zero,-48(s0)
.L315:
	.loc 1 2019 12
	ld	a5,-56(s0)
	sd	a5,-48(s0)
	.loc 1 2021 10
	ld	a4,-24(s0)
	ld	a5,-32(s0)
	add	a5,a4,a5
	sd	a5,-24(s0)
	.loc 1 2022 12
	ld	a4,-168(s0)
	ld	a5,-32(s0)
	add	a5,a4,a5
	sd	a5,-168(s0)
	.loc 1 2023 14
	ld	a4,-176(s0)
	ld	a5,-32(s0)
	sub	a5,a4,a5
	sd	a5,-176(s0)
.L307:
	.loc 1 2001 19
	ld	a5,-176(s0)
	bne	a5,zero,.L316
	.loc 1 2026 10
	ld	a5,-48(s0)
	.loc 1 2027 1
	mv	a0,a5
	ld	ra,184(sp)
	.cfi_restore 1
	ld	s0,176(sp)
	.cfi_restore 8
	.cfi_def_cfa 2, 192
	addi	sp,sp,192
	.cfi_def_cfa_offset 0
	jr	ra
	.cfi_endproc
.LFE39:
	.size	CatSDumpHex, .-CatSDumpHex
	.section	.text.UniqueNameCompare,"ax",@progbits
	.align	1
	.type	UniqueNameCompare, @function
UniqueNameCompare:
.LFB40:
	.loc 1 2051 1
	.cfi_startproc
	addi	sp,sp,-48
	.cfi_def_cfa_offset 48
	sd	ra,40(sp)
	sd	s0,32(sp)
	.cfi_offset 1, -8
	.cfi_offset 8, -16
	addi	s0,sp,48
	.cfi_def_cfa 8, 0
	sd	a0,-40(s0)
	sd	a1,-48(s0)
	.loc 1 2055 11
	ld	a5,-40(s0)
	sd	a5,-24(s0)
	.loc 1 2056 11
	ld	a5,-48(s0)
	sd	a5,-32(s0)
	.loc 1 2061 27
	lla	a5,gUnicodeCollation
	ld	a5,0(a5)
	ld	a5,0(a5)
	.loc 1 2061 10
	lla	a4,gUnicodeCollation
	ld	a3,0(a4)
	.loc 1 2063 48
	ld	a4,-24(s0)
	ld	a1,0(a4)
	.loc 1 2064 48
	ld	a4,-32(s0)
	ld	a4,0(a4)
	.loc 1 2061 10
	mv	a2,a4
	mv	a0,a3
	jalr	a5
.LVL28:
	mv	a5,a0
	.loc 1 2066 1
	mv	a0,a5
	ld	ra,40(sp)
	.cfi_restore 1
	ld	s0,32(sp)
	.cfi_restore 8
	.cfi_def_cfa 2, 48
	addi	sp,sp,48
	.cfi_def_cfa_offset 0
	jr	ra
	.cfi_endproc
.LFE40:
	.size	UniqueNameCompare, .-UniqueNameCompare
	.section	.text.UniqueNameAliasCompare,"ax",@progbits
	.align	1
	.type	UniqueNameAliasCompare, @function
UniqueNameAliasCompare:
.LFB41:
	.loc 1 2090 1
	.cfi_startproc
	addi	sp,sp,-48
	.cfi_def_cfa_offset 48
	sd	ra,40(sp)
	sd	s0,32(sp)
	.cfi_offset 1, -8
	.cfi_offset 8, -16
	addi	s0,sp,48
	.cfi_def_cfa 8, 0
	sd	a0,-40(s0)
	sd	a1,-48(s0)
	.loc 1 2094 15
	ld	a5,-40(s0)
	sd	a5,-24(s0)
	.loc 1 2095 10
	ld	a5,-48(s0)
	sd	a5,-32(s0)
	.loc 1 2100 27
	lla	a5,gUnicodeCollation
	ld	a5,0(a5)
	ld	a5,0(a5)
	.loc 1 2100 10
	lla	a4,gUnicodeCollation
	ld	a3,0(a4)
	.loc 1 2103 47
	ld	a4,-32(s0)
	ld	a4,0(a4)
	.loc 1 2100 10
	mv	a2,a4
	ld	a1,-24(s0)
	mv	a0,a3
	jalr	a5
.LVL29:
	mv	a5,a0
	.loc 1 2105 1
	mv	a0,a5
	ld	ra,40(sp)
	.cfi_restore 1
	ld	s0,32(sp)
	.cfi_restore 8
	.cfi_def_cfa 2, 48
	addi	sp,sp,48
	.cfi_def_cfa_offset 0
	jr	ra
	.cfi_endproc
.LFE41:
	.size	UniqueNameAliasCompare, .-UniqueNameAliasCompare
	.section	.text.ShellSortFileList,"ax",@progbits
	.align	1
	.globl	ShellSortFileList
	.type	ShellSortFileList, @function
ShellSortFileList:
.LFB42:
	.loc 1 2170 1
	.cfi_startproc
	addi	sp,sp,-160
	.cfi_def_cfa_offset 160
	sd	ra,152(sp)
	sd	s0,144(sp)
	.cfi_offset 1, -8
	.cfi_offset 8, -16
	addi	s0,sp,160
	.cfi_def_cfa 8, 0
	sd	a0,-136(s0)
	sd	a1,-144(s0)
	mv	a5,a2
	sw	a5,-148(s0)
	.loc 1 2185 6
	lw	a5,-148(s0)
	sext.w	a4,a5
	li	a5,1
	bleu	a4,a5,.L323
	.loc 1 2186 12
	li	a5,-1
	slli	a5,a5,63
	addi	a5,a5,2
	j	.L351
.L323:
	.loc 1 2189 6
	ld	a5,-136(s0)
	bne	a5,zero,.L325
	.loc 1 2193 8
	ld	a5,-144(s0)
	beq	a5,zero,.L326
	.loc 1 2194 19
	ld	a5,-144(s0)
	sd	zero,0(a5)
.L326:
	.loc 1 2197 12
	li	a5,0
	j	.L351
.L325:
	.loc 1 2200 7
	ld	a5,-136(s0)
	ld	a5,0(a5)
	.loc 1 2200 6
	bne	a5,zero,.L327
	.loc 1 2201 12
	li	a5,-1
	slli	a5,a5,63
	addi	a5,a5,2
	j	.L351
.L327:
	.loc 1 2204 17
	ld	a5,-136(s0)
	ld	a5,0(a5)
	.loc 1 2204 13
	sd	a5,-80(s0)
	.loc 1 2209 10
	lla	a1,UniqueNameAliasCompare
	lla	a0,UniqueNameCompare
	call	OrderedCollectionInit@plt
	sd	a0,-88(s0)
	.loc 1 2210 6
	ld	a5,-88(s0)
	bne	a5,zero,.L328
	.loc 1 2211 12
	li	a5,-1
	slli	a5,a5,63
	addi	a5,a5,9
	j	.L351
.L328:
	.loc 1 2214 17
	ld	a5,-80(s0)
	ld	a5,0(a5)
	sd	a5,-24(s0)
	.loc 1 2214 3
	j	.L329
.L335:
	.loc 1 2215 14
	ld	a5,-24(s0)
	sd	a5,-104(s0)
	.loc 1 2220 14
	li	a0,24
	call	AllocatePool@plt
	sd	a0,-96(s0)
	.loc 1 2221 8
	ld	a5,-96(s0)
	bne	a5,zero,.L330
	.loc 1 2222 14
	li	a5,-1
	slli	a5,a5,63
	addi	a5,a5,9
	sd	a5,-32(s0)
	.loc 1 2223 7
	j	.L331
.L330:
	.loc 1 2227 41
	lw	a5,-148(s0)
	sext.w	a5,a5
	bne	a5,zero,.L332
	.loc 1 2227 41 is_stmt 0 discriminator 1
	ld	a5,-104(s0)
	ld	a5,32(a5)
	j	.L333
.L332:
	.loc 1 2227 41 discriminator 2
	ld	a5,-104(s0)
	ld	a5,24(a5)
.L333:
	.loc 1 2226 19 is_stmt 1
	ld	a4,-96(s0)
	sd	a5,0(a4)
	.loc 1 2229 5
	ld	a5,-96(s0)
	addi	a5,a5,8
	mv	a0,a5
	call	InitializeListHead@plt
	.loc 1 2231 14
	ld	a2,-96(s0)
	li	a1,0
	ld	a0,-88(s0)
	call	OrderedCollectionInsert@plt
	sd	a0,-32(s0)
	.loc 1 2232 36
	ld	a5,-32(s0)
	.loc 1 2232 8
	bge	a5,zero,.L334
	.loc 1 2238 7
	ld	a0,-96(s0)
	call	FreePool@plt
	.loc 1 2243 10
	ld	a4,-32(s0)
	li	a5,-1
	slli	a5,a5,63
	addi	a5,a5,9
	beq	a4,a5,.L352
.L334:
	.loc 1 2214 81 discriminator 2
	ld	a5,-24(s0)
	ld	a5,0(a5)
	sd	a5,-24(s0)
.L329:
	.loc 1 2214 55 discriminator 1
	ld	a4,-24(s0)
	ld	a5,-80(s0)
	bne	a4,a5,.L335
	.loc 1 2254 9
	sd	zero,-40(s0)
	.loc 1 2260 6
	ld	a5,-144(s0)
	beq	a5,zero,.L336
	.loc 1 2261 13
	li	a0,56
	call	AllocateZeroPool@plt
	sd	a0,-40(s0)
	.loc 1 2262 8
	ld	a5,-40(s0)
	bne	a5,zero,.L337
	.loc 1 2263 14
	li	a5,-1
	slli	a5,a5,63
	addi	a5,a5,9
	sd	a5,-32(s0)
	.loc 1 2264 7
	j	.L331
.L337:
	.loc 1 2267 5
	ld	a5,-40(s0)
	mv	a0,a5
	call	InitializeListHead@plt
.L336:
	.loc 1 2274 17
	ld	a5,-80(s0)
	ld	a5,0(a5)
	sd	a5,-24(s0)
	.loc 1 2274 59
	ld	a5,-24(s0)
	ld	a5,0(a5)
	sd	a5,-48(s0)
	.loc 1 2274 3
	j	.L338
.L341:
	.loc 1 2275 14
	ld	a5,-24(s0)
	sd	a5,-104(s0)
	.loc 1 2280 33
	lw	a5,-148(s0)
	sext.w	a5,a5
	bne	a5,zero,.L339
	.loc 1 2279 11
	ld	a5,-104(s0)
	ld	a5,32(a5)
	sd	a5,-56(s0)
	j	.L340
.L339:
	ld	a5,-104(s0)
	ld	a5,24(a5)
	sd	a5,-56(s0)
.L340:
	.loc 1 2282 17
	ld	a1,-56(s0)
	ld	a0,-88(s0)
	call	OrderedCollectionFind@plt
	sd	a0,-64(s0)
	.loc 1 2284 14
	ld	a0,-64(s0)
	call	OrderedCollectionUserStruct@plt
	sd	a0,-96(s0)
	.loc 1 2289 22
	ld	a5,-104(s0)
	.loc 1 2289 5
	mv	a0,a5
	call	RemoveEntryList@plt
	.loc 1 2290 5
	ld	a5,-96(s0)
	addi	a5,a5,8
	ld	a4,-104(s0)
	mv	a1,a4
	mv	a0,a5
	call	InsertTailList@plt
	.loc 1 2274 121 discriminator 2
	ld	a5,-48(s0)
	sd	a5,-24(s0)
	.loc 1 2274 152 discriminator 2
	ld	a5,-24(s0)
	ld	a5,0(a5)
	sd	a5,-48(s0)
.L338:
	.loc 1 2274 95 discriminator 1
	ld	a4,-24(s0)
	ld	a5,-80(s0)
	bne	a4,a5,.L341
	.loc 1 2298 20
	ld	a0,-88(s0)
	call	OrderedCollectionMin@plt
	sd	a0,-64(s0)
	.loc 1 2298 3
	j	.L342
.L346:
	.loc 1 2302 14
	ld	a0,-64(s0)
	call	OrderedCollectionUserStruct@plt
	sd	a0,-96(s0)
	.loc 1 2309 20
	ld	a5,-80(s0)
	sd	a5,-72(s0)
	.loc 1 2310 19
	ld	a5,-96(s0)
	ld	a5,8(a5)
	sd	a5,-24(s0)
	.loc 1 2310 73
	ld	a5,-24(s0)
	ld	a5,0(a5)
	sd	a5,-48(s0)
	.loc 1 2310 5
	j	.L343
.L345:
	.loc 1 2311 7
	ld	a0,-24(s0)
	call	RemoveEntryList@plt
	.loc 1 2312 7
	ld	a1,-24(s0)
	ld	a0,-72(s0)
	call	InsertTailList@plt
	.loc 1 2313 10
	ld	a5,-144(s0)
	beq	a5,zero,.L344
	.loc 1 2314 24
	ld	a5,-40(s0)
	sd	a5,-72(s0)
.L344:
	.loc 1 2310 147 discriminator 2
	ld	a5,-48(s0)
	sd	a5,-24(s0)
	.loc 1 2310 178 discriminator 2
	ld	a5,-24(s0)
	ld	a5,0(a5)
	sd	a5,-48(s0)
.L343:
	.loc 1 2310 113 discriminator 1
	ld	a5,-96(s0)
	addi	a5,a5,8
	.loc 1 2310 109 discriminator 1
	ld	a4,-24(s0)
	bne	a4,a5,.L345
	.loc 1 2300 20
	ld	a0,-64(s0)
	call	OrderedCollectionNext@plt
	sd	a0,-64(s0)
.L342:
	.loc 1 2299 18
	ld	a5,-64(s0)
	bne	a5,zero,.L346
	.loc 1 2324 6
	ld	a5,-144(s0)
	beq	a5,zero,.L347
	.loc 1 2325 22
	ld	a5,-40(s0)
	.loc 1 2325 9
	mv	a0,a5
	call	IsListEmpty@plt
	mv	a5,a0
	.loc 1 2325 8 discriminator 1
	beq	a5,zero,.L348
	.loc 1 2326 7
	ld	a0,-40(s0)
	call	FreePool@plt
	.loc 1 2327 19
	ld	a5,-144(s0)
	sd	zero,0(a5)
	j	.L347
.L348:
	.loc 1 2329 19
	ld	a5,-144(s0)
	ld	a4,-40(s0)
	sd	a4,0(a5)
.L347:
	.loc 1 2333 10
	sd	zero,-32(s0)
	j	.L331
.L352:
	.loc 1 2244 9
	nop
.L331:
	.loc 1 2339 20
	ld	a0,-88(s0)
	call	OrderedCollectionMin@plt
	sd	a0,-64(s0)
	.loc 1 2339 3
	j	.L349
.L350:
	.loc 1 2343 21
	ld	a0,-64(s0)
	call	OrderedCollectionNext@plt
	sd	a0,-112(s0)
	.loc 1 2344 5
	addi	a5,s0,-120
	mv	a2,a5
	ld	a1,-64(s0)
	ld	a0,-88(s0)
	call	OrderedCollectionDelete@plt
	.loc 1 2345 12
	ld	a5,-120(s0)
	sd	a5,-96(s0)
	.loc 1 2347 5
	ld	a0,-96(s0)
	call	FreePool@plt
	.loc 1 2341 18
	ld	a5,-112(s0)
	sd	a5,-64(s0)
.L349:
	.loc 1 2340 18
	ld	a5,-64(s0)
	bne	a5,zero,.L350
	.loc 1 2350 3
	ld	a0,-88(s0)
	call	OrderedCollectionUninit@plt
	.loc 1 2352 10
	ld	a5,-32(s0)
.L351:
	.loc 1 2353 1
	mv	a0,a5
	ld	ra,152(sp)
	.cfi_restore 1
	ld	s0,144(sp)
	.cfi_restore 8
	.cfi_def_cfa 2, 160
	addi	sp,sp,160
	.cfi_def_cfa_offset 0
	jr	ra
	.cfi_endproc
.LFE42:
	.size	ShellSortFileList, .-ShellSortFileList
	.text
.Letext0:
	.file 2 "/home/kapoagaeming/spacemit-image-builder/components/edk2/MdePkg/Include/RiscV64/ProcessorBind.h"
	.file 3 "/home/kapoagaeming/spacemit-image-builder/components/edk2/MdePkg/Include/Base.h"
	.file 4 "/home/kapoagaeming/spacemit-image-builder/components/edk2/MdePkg/Include/Uefi/UefiBaseType.h"
	.file 5 "/home/kapoagaeming/spacemit-image-builder/components/edk2/MdePkg/Include/Uefi/UefiMultiPhase.h"
	.file 6 "/home/kapoagaeming/spacemit-image-builder/components/edk2/MdePkg/Include/Protocol/DevicePath.h"
	.file 7 "/home/kapoagaeming/spacemit-image-builder/components/edk2/MdePkg/Include/Protocol/SimpleTextIn.h"
	.file 8 "/home/kapoagaeming/spacemit-image-builder/components/edk2/MdePkg/Include/Protocol/SimpleTextOut.h"
	.file 9 "/home/kapoagaeming/spacemit-image-builder/components/edk2/MdePkg/Include/Uefi/UefiSpec.h"
	.file 10 "/home/kapoagaeming/spacemit-image-builder/components/edk2/MdePkg/Include/Uefi/UefiInternalFormRepresentation.h"
	.file 11 "/home/kapoagaeming/spacemit-image-builder/components/Build/Milk-V-Jupiter/RELEASE_GCC5/RISCV64/ShellPkg/Library/UefiShellCommandLib/UefiShellCommandLib/DEBUG/AutoGen.h"
	.file 12 "/home/kapoagaeming/spacemit-image-builder/components/edk2/MdePkg/Include/Guid/FileInfo.h"
	.file 13 "/home/kapoagaeming/spacemit-image-builder/components/edk2/MdePkg/Include/Protocol/SimpleFileSystem.h"
	.file 14 "/home/kapoagaeming/spacemit-image-builder/components/edk2/MdePkg/Include/Protocol/Shell.h"
	.file 15 "/home/kapoagaeming/spacemit-image-builder/components/edk2/MdePkg/Include/Protocol/ShellParameters.h"
	.file 16 "/home/kapoagaeming/spacemit-image-builder/components/edk2/MdePkg/Include/Protocol/UnicodeCollation.h"
	.file 17 "/home/kapoagaeming/spacemit-image-builder/components/edk2/MdePkg/Include/Protocol/BlockIo.h"
	.file 18 "/home/kapoagaeming/spacemit-image-builder/components/edk2/MdePkg/Include/Protocol/ShellDynamicCommand.h"
	.file 19 "/home/kapoagaeming/spacemit-image-builder/components/edk2/MdeModulePkg/Include/Library/SortLib.h"
	.file 20 "/home/kapoagaeming/spacemit-image-builder/components/edk2/MdePkg/Include/Library/UefiBootServicesTableLib.h"
	.file 21 "/home/kapoagaeming/spacemit-image-builder/components/edk2/ShellPkg/Include/Library/ShellCommandLib.h"
	.file 22 "/home/kapoagaeming/spacemit-image-builder/components/edk2/ShellPkg/Include/Library/ShellLib.h"
	.file 23 "/home/kapoagaeming/spacemit-image-builder/components/edk2/MdePkg/Include/Library/OrderedCollectionLib.h"
	.file 24 "/home/kapoagaeming/spacemit-image-builder/components/edk2/ShellPkg/Library/UefiShellCommandLib/UefiShellCommandLib.h"
	.file 25 "/home/kapoagaeming/spacemit-image-builder/components/edk2/MdePkg/Include/Library/MemoryAllocationLib.h"
	.file 26 "/home/kapoagaeming/spacemit-image-builder/components/edk2/MdePkg/Include/Library/UefiLib.h"
	.file 27 "/home/kapoagaeming/spacemit-image-builder/components/edk2/MdePkg/Include/Library/DevicePathLib.h"
	.file 28 "/home/kapoagaeming/spacemit-image-builder/components/edk2/MdePkg/Include/Library/BaseLib.h"
	.file 29 "/home/kapoagaeming/spacemit-image-builder/components/edk2/MdePkg/Include/Library/PrintLib.h"
	.file 30 "/home/kapoagaeming/spacemit-image-builder/components/edk2/MdeModulePkg/Include/Library/HiiLib.h"
	.file 31 "/home/kapoagaeming/spacemit-image-builder/components/edk2/ShellPkg/Include/Library/HandleParsingLib.h"
	.file 32 "/home/kapoagaeming/spacemit-image-builder/components/edk2/MdePkg/Include/Library/DebugLib.h"
	.section	.note.GNU-stack,"",@progbits
