	.file	"For.c"
	.option pic
	.option norelax
	.attribute arch, "rv64i2p1_m2p0_a2p1_f2p2_d2p2_c2p0_zicsr2p0_zifencei2p0_zmmul1p0_zaamo1p0_zalrsc1p0_zca1p0_zcd1p0"
	.attribute unaligned_access, 0
	.attribute stack_align, 16
	.text
.Ltext0:
	.cfi_sections	.debug_frame
	.file 0 "/home/kapoagaeming/Downloads/spacemit-image-builder/components/Build/Milk-V-Jupiter/RELEASE_GCC5/RISCV64/ShellPkg/Library/UefiShellLevel1CommandsLib/UefiShellLevel1CommandsLib" "/home/kapoagaeming/Downloads/spacemit-image-builder/components/edk2/ShellPkg/Library/UefiShellLevel1CommandsLib/For.c"
	.section	.rodata
	.align	3
.LC0:
	.string	" "
	.zero	2
	.section	.text.ShellIsValidForNumber,"ax",@progbits
	.align	1
	.globl	ShellIsValidForNumber
	.type	ShellIsValidForNumber, @function
ShellIsValidForNumber:
.LFB0:
	.file 1 "/home/kapoagaeming/Downloads/spacemit-image-builder/components/edk2/ShellPkg/Library/UefiShellLevel1CommandsLib/For.c"
	.loc 1 25 1
	.cfi_startproc
	addi	sp,sp,-32
	.cfi_def_cfa_offset 32
	sd	ra,24(sp)
	sd	s0,16(sp)
	.cfi_offset 1, -8
	.cfi_offset 8, -16
	addi	s0,sp,32
	.cfi_def_cfa 8, 0
	sd	a0,-24(s0)
	.loc 1 26 6
	ld	a5,-24(s0)
	beq	a5,zero,.L2
	.loc 1 26 36 discriminator 1
	ld	a5,-24(s0)
	lhu	a5,0(a5)
	.loc 1 26 32 discriminator 1
	bne	a5,zero,.L3
.L2:
	.loc 1 27 12
	li	a5,0
	j	.L4
.L3:
	.loc 1 30 7
	ld	a5,-24(s0)
	lhu	a5,0(a5)
	.loc 1 30 6
	sext.w	a4,a5
	li	a5,45
	bne	a4,a5,.L5
	.loc 1 31 11
	ld	a5,-24(s0)
	addi	a5,a5,2
	sd	a5,-24(s0)
.L5:
	.loc 1 34 7
	ld	a0,-24(s0)
	call	StrLen@plt
	mv	a5,a0
	.loc 1 34 6 discriminator 1
	bne	a5,zero,.L6
	.loc 1 35 12
	li	a5,0
	j	.L4
.L6:
	.loc 1 38 7
	ld	a0,-24(s0)
	call	StrLen@plt
	mv	a4,a0
	.loc 1 38 6 discriminator 1
	li	a5,6
	bleu	a4,a5,.L7
	.loc 1 39 10
	lla	a1,.LC0
	ld	a0,-24(s0)
	call	StrStr@plt
	mv	a5,a0
	.loc 1 39 8 discriminator 1
	beq	a5,zero,.L8
	.loc 1 39 55 discriminator 2
	lla	a1,.LC0
	ld	a0,-24(s0)
	call	StrStr@plt
	mv	a5,a0
	.loc 1 39 49 discriminator 3
	beq	a5,zero,.L7
	.loc 1 39 99 discriminator 4
	lla	a1,.LC0
	ld	a0,-24(s0)
	call	StrStr@plt
	mv	a4,a0
	.loc 1 39 121 discriminator 5
	ld	a5,-24(s0)
	sub	a4,a4,a5
	.loc 1 39 94 discriminator 5
	li	a5,12
	ble	a4,a5,.L7
.L8:
	.loc 1 40 14
	li	a5,0
	j	.L4
.L7:
	.loc 1 44 8
	ld	a5,-24(s0)
	lhu	a5,0(a5)
	mv	a0,a5
	call	ShellIsDecimalDigitCharacter@plt
	mv	a5,a0
	.loc 1 44 6 discriminator 1
	bne	a5,zero,.L9
	.loc 1 45 12
	li	a5,0
	j	.L4
.L9:
	.loc 1 48 10
	li	a5,1
.L4:
	.loc 1 49 1
	mv	a0,a5
	ld	ra,24(sp)
	.cfi_restore 1
	ld	s0,16(sp)
	.cfi_restore 8
	.cfi_def_cfa 2, 32
	addi	sp,sp,32
	.cfi_def_cfa_offset 0
	jr	ra
	.cfi_endproc
.LFE0:
	.size	ShellIsValidForNumber, .-ShellIsValidForNumber
	.section	.rodata
	.align	3
.LC1:
	.string	"e"
	.string	"n"
	.string	"d"
	.string	"f"
	.string	"o"
	.string	"r"
	.zero	2
	.align	3
.LC2:
	.string	"f"
	.string	"o"
	.string	"r"
	.zero	2
	.align	3
.LC3:
	.string	"E"
	.string	"n"
	.string	"d"
	.string	"F"
	.string	"o"
	.string	"r"
	.zero	2
	.align	3
.LC4:
	.string	"F"
	.string	"o"
	.string	"r"
	.zero	2
	.section	.text.ShellCommandRunEndFor,"ax",@progbits
	.align	1
	.globl	ShellCommandRunEndFor
	.type	ShellCommandRunEndFor, @function
ShellCommandRunEndFor:
.LFB1:
	.loc 1 63 1
	.cfi_startproc
	addi	sp,sp,-64
	.cfi_def_cfa_offset 64
	sd	ra,56(sp)
	sd	s0,48(sp)
	.cfi_offset 1, -8
	.cfi_offset 8, -16
	addi	s0,sp,64
	.cfi_def_cfa 8, 0
	sd	a0,-56(s0)
	sd	a1,-64(s0)
	.loc 1 68 12
	call	CommandInit@plt
	sd	a0,-24(s0)
	.loc 1 71 25
	la	a5,gEfiShellProtocol
	ld	a5,0(a5)
	ld	a5,128(a5)
	.loc 1 71 8
	jalr	a5
.LVL0:
	mv	a5,a0
	.loc 1 71 6 discriminator 1
	bne	a5,zero,.L11
	.loc 1 72 5
	la	a5,gShellLevel1HiiHandle
	ld	a4,0(a5)
	lla	a5,.LC1
	li	a3,2
	li	a2,0
	li	a1,-1
	li	a0,-1
	call	ShellPrintHiiEx@plt
	.loc 1 73 12
	li	a5,3
	j	.L12
.L11:
	.loc 1 76 34
	la	a5,gEfiShellParametersProtocol
	ld	a5,0(a5)
	ld	a4,8(a5)
	.loc 1 76 6
	li	a5,1
	bleu	a4,a5,.L13
	.loc 1 77 5
	la	a5,gShellLevel1HiiHandle
	ld	a4,0(a5)
	lla	a5,.LC1
	li	a3,7
	li	a2,0
	li	a1,-1
	li	a0,-1
	call	ShellPrintHiiEx@plt
	.loc 1 78 12
	li	a5,2
	j	.L12
.L13:
	.loc 1 81 11
	call	ShellCommandGetCurrentScriptFile@plt
	mv	a4,a0
	.loc 1 81 11 is_stmt 0 discriminator 1
	li	a7,0
	li	a6,0
	li	a5,0
	li	a3,0
	lla	a2,.LC1
	lla	a1,.LC2
	la	a0,GetPreviousNode
	call	MoveToTag@plt
	mv	a5,a0
	sb	a5,-25(s0)
	.loc 1 83 6 is_stmt 1
	lbu	a5,-25(s0)
	andi	a5,a5,0xff
	bne	a5,zero,.L14
	.loc 1 84 25
	call	ShellCommandGetCurrentScriptFile@plt
	sd	a0,-40(s0)
	.loc 1 85 5
	la	a5,gShellLevel1HiiHandle
	ld	a4,0(a5)
	ld	a5,-40(s0)
	beq	a5,zero,.L15
	.loc 1 94 41
	ld	a5,-40(s0)
	ld	a5,40(a5)
	.loc 1 94 21
	beq	a5,zero,.L15
	.loc 1 95 30
	ld	a5,-40(s0)
	ld	a5,40(a5)
	.loc 1 85 5
	ld	a5,16(a5)
	j	.L16
.L15:
	.loc 1 85 5 is_stmt 0 discriminator 1
	li	a5,0
.L16:
	.loc 1 85 5 discriminator 3
	mv	a7,a5
	lla	a6,.LC3
	lla	a5,.LC4
	li	a3,12
	li	a2,0
	li	a1,-1
	li	a0,-1
	call	ShellPrintHiiEx@plt
	.loc 1 97 12 is_stmt 1
	li	a5,14
	j	.L12
.L14:
	.loc 1 100 10
	li	a5,0
.L12:
	.loc 1 101 1
	mv	a0,a5
	ld	ra,56(sp)
	.cfi_restore 1
	ld	s0,48(sp)
	.cfi_restore 8
	.cfi_def_cfa 2, 64
	addi	sp,sp,64
	.cfi_def_cfa_offset 0
	jr	ra
	.cfi_endproc
.LFE1:
	.size	ShellCommandRunEndFor, .-ShellCommandRunEndFor
	.section	.text.InternalUpdateAliasOnList,"ax",@progbits
	.align	1
	.globl	InternalUpdateAliasOnList
	.type	InternalUpdateAliasOnList, @function
InternalUpdateAliasOnList:
.LFB2:
	.loc 1 132 1
	.cfi_startproc
	addi	sp,sp,-64
	.cfi_def_cfa_offset 64
	sd	ra,56(sp)
	sd	s0,48(sp)
	.cfi_offset 1, -8
	.cfi_offset 8, -16
	addi	s0,sp,64
	.cfi_def_cfa 8, 0
	sd	a0,-40(s0)
	sd	a1,-48(s0)
	sd	a2,-56(s0)
	.loc 1 144 30
	ld	a0,-56(s0)
	call	GetFirstNode@plt
	sd	a0,-24(s0)
	.loc 1 144 57 discriminator 1
	sb	zero,-25(s0)
	.loc 1 144 3
	j	.L18
.L21:
	.loc 1 151 21
	ld	a5,-24(s0)
	ld	a5,24(a5)
	.loc 1 151 9
	ld	a1,-40(s0)
	mv	a0,a5
	call	StrCmp@plt
	mv	a5,a0
	.loc 1 151 8 discriminator 1
	bne	a5,zero,.L19
	.loc 1 152 21
	ld	a5,-24(s0)
	ld	a5,16(a5)
	.loc 1 152 7
	mv	a0,a5
	call	FreePool@plt
	.loc 1 153 27
	ld	a5,-24(s0)
	sd	zero,16(a5)
	.loc 1 154 29
	ld	a5,-24(s0)
	addi	a5,a5,16
	li	a3,0
	ld	a2,-48(s0)
	li	a1,0
	mv	a0,a5
	call	StrnCatGrow@plt
	mv	a4,a0
	.loc 1 154 27 discriminator 1
	ld	a5,-24(s0)
	sd	a4,16(a5)
	.loc 1 155 13
	li	a5,1
	sb	a5,-25(s0)
	.loc 1 156 7
	j	.L20
.L19:
	.loc 1 146 51
	ld	a5,-24(s0)
	.loc 1 146 32
	mv	a1,a5
	ld	a0,-56(s0)
	call	GetNextNode@plt
	sd	a0,-24(s0)
.L18:
	.loc 1 145 26
	ld	a5,-24(s0)
	.loc 1 145 12
	mv	a1,a5
	ld	a0,-56(s0)
	call	IsNull@plt
	mv	a5,a0
	.loc 1 145 11 discriminator 1
	beq	a5,zero,.L21
.L20:
	.loc 1 160 6
	lbu	a5,-25(s0)
	andi	a5,a5,0xff
	bne	a5,zero,.L22
	.loc 1 161 12
	li	a0,32
	call	AllocateZeroPool@plt
	sd	a0,-24(s0)
	.loc 1 162 8
	ld	a5,-24(s0)
	bne	a5,zero,.L23
	.loc 1 163 14
	li	a5,-1
	slli	a5,a5,63
	addi	a5,a5,9
	j	.L24
.L23:
	.loc 1 167 19
	ld	a5,-24(s0)
	addi	a5,a5,24
	li	a3,0
	ld	a2,-40(s0)
	li	a1,0
	mv	a0,a5
	call	StrnCatGrow@plt
	mv	a4,a0
	.loc 1 167 17 discriminator 1
	ld	a5,-24(s0)
	sd	a4,24(a5)
	.loc 1 169 27
	ld	a5,-24(s0)
	addi	a5,a5,16
	li	a3,0
	ld	a2,-48(s0)
	li	a1,0
	mv	a0,a5
	call	StrnCatGrow@plt
	mv	a4,a0
	.loc 1 169 25 discriminator 1
	ld	a5,-24(s0)
	sd	a4,16(a5)
	.loc 1 170 5
	ld	a5,-24(s0)
	mv	a1,a5
	ld	a0,-56(s0)
	call	InsertTailList@plt
.L22:
	.loc 1 173 10
	li	a5,0
.L24:
	.loc 1 174 1
	mv	a0,a5
	ld	ra,56(sp)
	.cfi_restore 1
	ld	s0,48(sp)
	.cfi_restore 8
	.cfi_def_cfa 2, 64
	addi	sp,sp,64
	.cfi_def_cfa_offset 0
	jr	ra
	.cfi_endproc
.LFE2:
	.size	InternalUpdateAliasOnList, .-InternalUpdateAliasOnList
	.section	.text.InternalIsAliasOnList,"ax",@progbits
	.align	1
	.globl	InternalIsAliasOnList
	.type	InternalIsAliasOnList, @function
InternalIsAliasOnList:
.LFB3:
	.loc 1 190 1
	.cfi_startproc
	addi	sp,sp,-48
	.cfi_def_cfa_offset 48
	sd	ra,40(sp)
	sd	s0,32(sp)
	.cfi_offset 1, -8
	.cfi_offset 8, -16
	addi	s0,sp,48
	.cfi_def_cfa 8, 0
	sd	a0,-40(s0)
	sd	a1,-48(s0)
	.loc 1 201 30
	ld	a0,-48(s0)
	call	GetFirstNode@plt
	sd	a0,-24(s0)
	.loc 1 201 3
	j	.L26
.L29:
	.loc 1 208 21
	ld	a5,-24(s0)
	ld	a5,24(a5)
	.loc 1 208 9
	ld	a1,-40(s0)
	mv	a0,a5
	call	StrCmp@plt
	mv	a5,a0
	.loc 1 208 8 discriminator 1
	bne	a5,zero,.L27
	.loc 1 209 14
	li	a5,1
	j	.L28
.L27:
	.loc 1 203 51
	ld	a5,-24(s0)
	.loc 1 203 32
	mv	a1,a5
	ld	a0,-48(s0)
	call	GetNextNode@plt
	sd	a0,-24(s0)
.L26:
	.loc 1 202 26
	ld	a5,-24(s0)
	.loc 1 202 12
	mv	a1,a5
	ld	a0,-48(s0)
	call	IsNull@plt
	mv	a5,a0
	.loc 1 202 11 discriminator 1
	beq	a5,zero,.L29
	.loc 1 213 10
	li	a5,0
.L28:
	.loc 1 214 1
	mv	a0,a5
	ld	ra,40(sp)
	.cfi_restore 1
	ld	s0,32(sp)
	.cfi_restore 8
	.cfi_def_cfa 2, 48
	addi	sp,sp,48
	.cfi_def_cfa_offset 0
	jr	ra
	.cfi_endproc
.LFE3:
	.size	InternalIsAliasOnList, .-InternalIsAliasOnList
	.section	.text.InternalRemoveAliasFromList,"ax",@progbits
	.align	1
	.globl	InternalRemoveAliasFromList
	.type	InternalRemoveAliasFromList, @function
InternalRemoveAliasFromList:
.LFB4:
	.loc 1 227 1
	.cfi_startproc
	addi	sp,sp,-48
	.cfi_def_cfa_offset 48
	sd	ra,40(sp)
	sd	s0,32(sp)
	.cfi_offset 1, -8
	.cfi_offset 8, -16
	addi	s0,sp,48
	.cfi_def_cfa 8, 0
	sd	a0,-40(s0)
	sd	a1,-48(s0)
	.loc 1 238 30
	ld	a0,-48(s0)
	call	GetFirstNode@plt
	sd	a0,-24(s0)
	.loc 1 238 3
	j	.L31
.L34:
	.loc 1 245 21
	ld	a5,-24(s0)
	ld	a5,24(a5)
	.loc 1 245 9
	ld	a1,-40(s0)
	mv	a0,a5
	call	StrCmp@plt
	mv	a5,a0
	.loc 1 245 8 discriminator 1
	bne	a5,zero,.L32
	.loc 1 246 24
	ld	a5,-24(s0)
	.loc 1 246 7
	mv	a0,a5
	call	RemoveEntryList@plt
	.loc 1 247 21
	ld	a5,-24(s0)
	ld	a5,24(a5)
	.loc 1 247 7
	mv	a0,a5
	call	FreePool@plt
	.loc 1 248 21
	ld	a5,-24(s0)
	ld	a5,16(a5)
	.loc 1 248 7
	mv	a0,a5
	call	FreePool@plt
	.loc 1 249 7
	ld	a0,-24(s0)
	call	FreePool@plt
	.loc 1 250 14
	li	a5,1
	j	.L33
.L32:
	.loc 1 240 51
	ld	a5,-24(s0)
	.loc 1 240 32
	mv	a1,a5
	ld	a0,-48(s0)
	call	GetNextNode@plt
	sd	a0,-24(s0)
.L31:
	.loc 1 239 26
	ld	a5,-24(s0)
	.loc 1 239 12
	mv	a1,a5
	ld	a0,-48(s0)
	call	IsNull@plt
	mv	a5,a0
	.loc 1 239 11 discriminator 1
	beq	a5,zero,.L34
	.loc 1 254 10
	li	a5,0
.L33:
	.loc 1 255 1
	mv	a0,a5
	ld	ra,40(sp)
	.cfi_restore 1
	ld	s0,32(sp)
	.cfi_restore 8
	.cfi_def_cfa 2, 48
	addi	sp,sp,48
	.cfi_def_cfa_offset 0
	jr	ra
	.cfi_endproc
.LFE4:
	.size	InternalRemoveAliasFromList, .-InternalRemoveAliasFromList
	.section	.text.ReturnUintn,"ax",@progbits
	.align	1
	.globl	ReturnUintn
	.type	ReturnUintn, @function
ReturnUintn:
.LFB5:
	.loc 1 270 1
	.cfi_startproc
	addi	sp,sp,-48
	.cfi_def_cfa_offset 48
	sd	ra,40(sp)
	sd	s0,32(sp)
	.cfi_offset 1, -8
	.cfi_offset 8, -16
	addi	s0,sp,48
	.cfi_def_cfa 8, 0
	sd	a0,-40(s0)
	.loc 1 273 26
	addi	a5,s0,-24
	li	a3,1
	li	a2,0
	mv	a1,a5
	ld	a0,-40(s0)
	call	ShellConvertStringToUint64@plt
	mv	a5,a0
	.loc 1 273 6 discriminator 1
	blt	a5,zero,.L36
	.loc 1 274 13
	ld	a5,-24(s0)
	j	.L38
.L36:
	.loc 1 277 10
	li	a5,-1
.L38:
	.loc 1 278 1
	mv	a0,a5
	ld	ra,40(sp)
	.cfi_restore 1
	ld	s0,32(sp)
	.cfi_restore 8
	.cfi_def_cfa 2, 48
	addi	sp,sp,48
	.cfi_def_cfa_offset 0
	jr	ra
	.cfi_endproc
.LFE5:
	.size	ReturnUintn, .-ReturnUintn
	.section	.rodata
	.align	3
.LC5:
	.string	"i"
	.string	"n"
	.zero	2
	.align	3
.LC6:
	.string	"*"
	.zero	2
	.align	3
.LC7:
	.string	"?"
	.zero	2
	.align	3
.LC8:
	.string	"["
	.zero	2
	.align	3
.LC9:
	.string	"]"
	.zero	2
	.align	3
.LC10:
	.string	" "
	.string	"\""
	.zero	2
	.align	3
.LC11:
	.string	"\""
	.zero	2
	.align	3
.LC12:
	.string	"r"
	.string	"u"
	.string	"n"
	.zero	2
	.align	3
.LC13:
	.string	")"
	.zero	2
	.align	3
.LC14:
	.string	"%"
	.string	"d"
	.zero	2
	.align	3
.LC15:
	.string	"\""
	.string	" "
	.string	"\""
	.zero	2
	.section	.text.ShellCommandRunFor,"ax",@progbits
	.align	1
	.globl	ShellCommandRunFor
	.type	ShellCommandRunFor, @function
ShellCommandRunFor:
.LFB6:
	.loc 1 292 1
	.cfi_startproc
	addi	sp,sp,-176
	.cfi_def_cfa_offset 176
	sd	ra,168(sp)
	sd	s0,160(sp)
	sd	s1,152(sp)
	sd	s2,144(sp)
	.cfi_offset 1, -8
	.cfi_offset 8, -16
	.cfi_offset 9, -24
	.cfi_offset 18, -32
	addi	s0,sp,176
	.cfi_def_cfa 8, 0
	sd	a0,-168(s0)
	sd	a1,-176(s0)
	.loc 1 309 10
	sd	zero,-128(s0)
	.loc 1 310 11
	sd	zero,-136(s0)
	.loc 1 311 15
	sw	zero,-36(s0)
	.loc 1 312 16
	sd	zero,-48(s0)
	.loc 1 313 14
	sd	zero,-144(s0)
	.loc 1 314 13
	sd	zero,-96(s0)
	.loc 1 315 13
	sb	zero,-73(s0)
	.loc 1 320 12
	call	ShellInitialize@plt
	sd	a0,-104(s0)
	.loc 1 323 12
	call	CommandInit@plt
	sd	a0,-104(s0)
	.loc 1 326 25
	la	a5,gEfiShellProtocol
	ld	a5,0(a5)
	ld	a5,128(a5)
	.loc 1 326 8
	jalr	a5
.LVL1:
	mv	a5,a0
	.loc 1 326 6 discriminator 1
	bne	a5,zero,.L40
	.loc 1 327 5
	la	a5,gShellLevel1HiiHandle
	ld	a4,0(a5)
	lla	a5,.LC2
	li	a3,2
	li	a2,0
	li	a1,-1
	li	a0,-1
	call	ShellPrintHiiEx@plt
	.loc 1 328 12
	li	a5,3
	j	.L136
.L40:
	.loc 1 331 34
	la	a5,gEfiShellParametersProtocol
	ld	a5,0(a5)
	ld	a4,8(a5)
	.loc 1 331 6
	li	a5,3
	bgtu	a4,a5,.L42
	.loc 1 332 5
	la	a5,gShellLevel1HiiHandle
	ld	a4,0(a5)
	lla	a5,.LC2
	li	a3,6
	li	a2,0
	li	a1,-1
	li	a0,-1
	call	ShellPrintHiiEx@plt
	.loc 1 333 12
	li	a5,2
	j	.L136
.L42:
	.loc 1 336 23
	call	ShellCommandGetCurrentScriptFile@plt
	sd	a0,-112(s0)
	.loc 1 337 6
	ld	a5,-112(s0)
	bne	a5,zero,.L43
	.loc 1 339 12
	li	a5,2
	j	.L136
.L43:
	.loc 1 342 25
	ld	a5,-112(s0)
	ld	a5,40(a5)
	.loc 1 342 6
	beq	a5,zero,.L44
	.loc 1 342 80 discriminator 1
	ld	a5,-112(s0)
	ld	a5,40(a5)
	.loc 1 342 96 discriminator 1
	ld	a5,32(a5)
	.loc 1 342 59 discriminator 1
	bne	a5,zero,.L44
	.loc 1 343 15
	li	a5,1
	sb	a5,-73(s0)
	.loc 1 348 10
	li	a7,0
	li	a6,1
	li	a5,1
	ld	a4,-112(s0)
	li	a3,0
	lla	a2,.LC2
	lla	a1,.LC1
	la	a0,GetNextNode
	call	MoveToTag@plt
	mv	a5,a0
	.loc 1 348 8 discriminator 1
	bne	a5,zero,.L45
	.loc 1 349 7
	la	a5,gShellLevel1HiiHandle
	ld	a4,0(a5)
	.loc 1 357 26
	ld	a5,-112(s0)
	ld	a5,40(a5)
	.loc 1 349 7
	ld	a5,16(a5)
	mv	a7,a5
	lla	a6,.LC4
	lla	a5,.LC3
	li	a3,12
	li	a2,0
	li	a1,-1
	li	a0,-1
	call	ShellPrintHiiEx@plt
	.loc 1 359 14
	li	a5,7
	j	.L136
.L45:
	.loc 1 365 38
	la	a5,gEfiShellParametersProtocol
	ld	a5,0(a5)
	ld	a5,0(a5)
	.loc 1 365 44
	addi	a5,a5,8
	ld	a5,0(a5)
	.loc 1 365 47
	lhu	a5,0(a5)
	.loc 1 365 8
	sext.w	a4,a5
	li	a5,37
	bne	a4,a5,.L46
	.loc 1 365 91 discriminator 1
	la	a5,gEfiShellParametersProtocol
	ld	a5,0(a5)
	ld	a5,0(a5)
	.loc 1 365 97 discriminator 1
	addi	a5,a5,8
	ld	a5,0(a5)
	.loc 1 365 100 discriminator 1
	addi	a5,a5,4
	lhu	a5,0(a5)
	.loc 1 365 60 discriminator 1
	bne	a5,zero,.L46
	.loc 1 366 43
	la	a5,gEfiShellParametersProtocol
	ld	a5,0(a5)
	ld	a5,0(a5)
	.loc 1 366 49
	addi	a5,a5,8
	ld	a5,0(a5)
	.loc 1 366 52
	addi	a5,a5,2
	lhu	a5,0(a5)
	.loc 1 366 8
	sext.w	a4,a5
	li	a5,96
	bleu	a4,a5,.L47
	.loc 1 366 96 discriminator 2
	la	a5,gEfiShellParametersProtocol
	ld	a5,0(a5)
	ld	a5,0(a5)
	.loc 1 366 102 discriminator 2
	addi	a5,a5,8
	ld	a5,0(a5)
	.loc 1 366 105 discriminator 2
	addi	a5,a5,2
	lhu	a5,0(a5)
	.loc 1 366 65 discriminator 2
	sext.w	a4,a5
	li	a5,122
	bleu	a4,a5,.L48
.L47:
	.loc 1 367 44
	la	a5,gEfiShellParametersProtocol
	ld	a5,0(a5)
	ld	a5,0(a5)
	.loc 1 367 50
	addi	a5,a5,8
	ld	a5,0(a5)
	.loc 1 367 53
	addi	a5,a5,2
	lhu	a5,0(a5)
	.loc 1 366 11 discriminator 3
	sext.w	a4,a5
	li	a5,64
	bleu	a4,a5,.L46
	.loc 1 367 97
	la	a5,gEfiShellParametersProtocol
	ld	a5,0(a5)
	ld	a5,0(a5)
	.loc 1 367 103
	addi	a5,a5,8
	ld	a5,0(a5)
	.loc 1 367 106
	addi	a5,a5,2
	lhu	a5,0(a5)
	.loc 1 367 66
	sext.w	a4,a5
	li	a5,90
	bleu	a4,a5,.L48
.L46:
	.loc 1 370 7
	la	a5,gShellLevel1HiiHandle
	ld	a4,0(a5)
	.loc 1 370 104
	la	a5,gEfiShellParametersProtocol
	ld	a5,0(a5)
	ld	a5,0(a5)
	.loc 1 370 110
	addi	a5,a5,8
	.loc 1 370 7
	ld	a5,0(a5)
	li	a3,5
	li	a2,0
	li	a1,-1
	li	a0,-1
	call	ShellPrintHiiEx@plt
	.loc 1 371 14
	li	a5,2
	j	.L136
.L48:
	.loc 1 374 26
	la	a5,gUnicodeCollation
	ld	a5,0(a5)
	ld	a5,0(a5)
	.loc 1 374 9
	la	a4,gUnicodeCollation
	ld	a3,0(a4)
	.loc 1 377 57
	la	a4,gEfiShellParametersProtocol
	ld	a4,0(a4)
	ld	a4,0(a4)
	.loc 1 377 63
	addi	a4,a4,16
	.loc 1 374 9
	ld	a4,0(a4)
	mv	a2,a4
	lla	a1,.LC5
	mv	a0,a3
	jalr	a5
.LVL2:
	mv	a5,a0
	.loc 1 374 8 discriminator 1
	bne	a5,zero,.L49
	.loc 1 380 20
	li	a5,3
	sd	a5,-56(s0)
	.loc 1 380 7
	j	.L50
.L60:
	.loc 1 382 50
	la	a5,gEfiShellParametersProtocol
	ld	a5,0(a5)
	ld	a4,0(a5)
	.loc 1 382 56
	ld	a5,-56(s0)
	slli	a5,a5,3
	add	a5,a4,a5
	.loc 1 382 15
	ld	a5,0(a5)
	lla	a1,.LC6
	mv	a0,a5
	call	StrStr@plt
	mv	a5,a0
	.loc 1 382 12 discriminator 1
	bne	a5,zero,.L51
	.loc 1 383 51
	la	a5,gEfiShellParametersProtocol
	ld	a5,0(a5)
	ld	a4,0(a5)
	.loc 1 383 57
	ld	a5,-56(s0)
	slli	a5,a5,3
	add	a5,a4,a5
	.loc 1 383 16
	ld	a5,0(a5)
	lla	a1,.LC7
	mv	a0,a5
	call	StrStr@plt
	mv	a5,a0
	.loc 1 383 12 discriminator 1
	bne	a5,zero,.L51
	.loc 1 384 51
	la	a5,gEfiShellParametersProtocol
	ld	a5,0(a5)
	ld	a4,0(a5)
	.loc 1 384 57
	ld	a5,-56(s0)
	slli	a5,a5,3
	add	a5,a4,a5
	.loc 1 384 16
	ld	a5,0(a5)
	lla	a1,.LC8
	mv	a0,a5
	call	StrStr@plt
	mv	a5,a0
	.loc 1 384 12 discriminator 1
	bne	a5,zero,.L51
	.loc 1 385 51
	la	a5,gEfiShellParametersProtocol
	ld	a5,0(a5)
	ld	a4,0(a5)
	.loc 1 385 57
	ld	a5,-56(s0)
	slli	a5,a5,3
	add	a5,a4,a5
	.loc 1 385 16
	ld	a5,0(a5)
	lla	a1,.LC9
	mv	a0,a5
	call	StrStr@plt
	mv	a5,a0
	.loc 1 385 12 discriminator 1
	beq	a5,zero,.L52
.L51:
	.loc 1 387 20
	sd	zero,-152(s0)
	.loc 1 388 79
	la	a5,gEfiShellParametersProtocol
	ld	a5,0(a5)
	ld	a4,0(a5)
	.loc 1 388 85
	ld	a5,-56(s0)
	slli	a5,a5,3
	add	a5,a4,a5
	.loc 1 388 20
	ld	a5,0(a5)
	addi	a4,s0,-152
	mv	a2,a4
	li	a1,1
	mv	a0,a5
	call	ShellOpenFileMetaArg@plt
	sd	a0,-104(s0)
	.loc 1 389 42
	ld	a5,-104(s0)
	.loc 1 389 14
	blt	a5,zero,.L53
	.loc 1 389 81 discriminator 1
	ld	a5,-152(s0)
	.loc 1 389 68 discriminator 1
	beq	a5,zero,.L53
	.loc 1 389 123 discriminator 2
	ld	a5,-152(s0)
	.loc 1 389 101 discriminator 2
	mv	a0,a5
	call	IsListEmpty@plt
	mv	a5,a0
	.loc 1 389 98 discriminator 3
	beq	a5,zero,.L54
.L53:
	.loc 1 390 22
	addi	a4,s0,-136
	addi	a5,s0,-128
	li	a3,0
	lla	a2,.LC10
	mv	a1,a4
	mv	a0,a5
	call	StrnCatGrow@plt
	mv	a5,a0
	.loc 1 390 20 discriminator 1
	sd	a5,-128(s0)
	.loc 1 391 81
	la	a5,gEfiShellParametersProtocol
	ld	a5,0(a5)
	ld	a4,0(a5)
	.loc 1 391 87
	ld	a5,-56(s0)
	slli	a5,a5,3
	add	a5,a4,a5
	.loc 1 391 22
	ld	a2,0(a5)
	addi	a4,s0,-136
	addi	a5,s0,-128
	li	a3,0
	mv	a1,a4
	mv	a0,a5
	call	StrnCatGrow@plt
	mv	a5,a0
	.loc 1 391 20 discriminator 1
	sd	a5,-128(s0)
	.loc 1 392 22
	addi	a4,s0,-136
	addi	a5,s0,-128
	li	a3,0
	lla	a2,.LC11
	mv	a1,a4
	mv	a0,a5
	call	StrnCatGrow@plt
	mv	a5,a0
	.loc 1 392 20 discriminator 1
	sd	a5,-128(s0)
	.loc 1 389 14
	j	.L58
.L54:
	.loc 1 394 71
	ld	a5,-152(s0)
	.loc 1 394 48
	mv	a0,a5
	call	GetFirstNode@plt
	sd	a0,-88(s0)
	.loc 1 394 13
	j	.L56
.L57:
	.loc 1 399 24
	addi	a4,s0,-136
	addi	a5,s0,-128
	li	a3,0
	lla	a2,.LC10
	mv	a1,a4
	mv	a0,a5
	call	StrnCatGrow@plt
	mv	a5,a0
	.loc 1 399 22 discriminator 1
	sd	a5,-128(s0)
	.loc 1 400 24
	ld	a5,-88(s0)
	ld	a2,24(a5)
	addi	a4,s0,-136
	addi	a5,s0,-128
	li	a3,0
	mv	a1,a4
	mv	a0,a5
	call	StrnCatGrow@plt
	mv	a5,a0
	.loc 1 400 22 discriminator 1
	sd	a5,-128(s0)
	.loc 1 401 24
	addi	a4,s0,-136
	addi	a5,s0,-128
	li	a3,0
	lla	a2,.LC11
	mv	a1,a4
	mv	a0,a5
	call	StrnCatGrow@plt
	mv	a5,a0
	.loc 1 401 22 discriminator 1
	sd	a5,-128(s0)
	.loc 1 396 72
	ld	a5,-152(s0)
	.loc 1 396 63
	mv	a4,a5
	.loc 1 396 80
	ld	a5,-88(s0)
	.loc 1 396 50
	mv	a1,a5
	mv	a0,a4
	call	GetNextNode@plt
	sd	a0,-88(s0)
.L56:
	.loc 1 395 38
	ld	a5,-152(s0)
	.loc 1 395 29
	mv	a4,a5
	.loc 1 395 46
	ld	a5,-88(s0)
	.loc 1 395 21
	mv	a1,a5
	mv	a0,a4
	call	IsNull@plt
	mv	a5,a0
	.loc 1 395 20 discriminator 1
	beq	a5,zero,.L57
	.loc 1 404 13
	addi	a5,s0,-152
	mv	a0,a5
	call	ShellCloseFileMetaArg@plt
	.loc 1 389 14
	j	.L58
.L52:
	.loc 1 407 50
	la	a5,gEfiShellParametersProtocol
	ld	a5,0(a5)
	ld	a4,0(a5)
	.loc 1 407 56
	ld	a5,-56(s0)
	slli	a5,a5,3
	add	a5,a4,a5
	.loc 1 407 21
	ld	a5,0(a5)
	sd	a5,-96(s0)
	.loc 1 408 25
	ld	a5,-96(s0)
	lhu	a5,0(a5)
	.loc 1 408 14
	sext.w	a4,a5
	li	a5,34
	bne	a4,a5,.L59
	.loc 1 408 53 discriminator 1
	ld	a0,-96(s0)
	call	StrLen@plt
	mv	a5,a0
	.loc 1 408 52 discriminator 2
	slli	a5,a5,1
	addi	a5,a5,-2
	ld	a4,-96(s0)
	add	a5,a4,a5
	lhu	a5,0(a5)
	.loc 1 408 39 discriminator 2
	sext.w	a4,a5
	li	a5,34
	bne	a4,a5,.L59
	.loc 1 409 22
	addi	a4,s0,-136
	addi	a5,s0,-128
	li	a3,0
	lla	a2,.LC0
	mv	a1,a4
	mv	a0,a5
	call	StrnCatGrow@plt
	mv	a5,a0
	.loc 1 409 20 discriminator 1
	sd	a5,-128(s0)
	.loc 1 410 22
	addi	a4,s0,-136
	addi	a5,s0,-128
	li	a3,0
	ld	a2,-96(s0)
	mv	a1,a4
	mv	a0,a5
	call	StrnCatGrow@plt
	mv	a5,a0
	.loc 1 410 20 discriminator 1
	sd	a5,-128(s0)
	.loc 1 410 20 is_stmt 0
	j	.L58
.L59:
	.loc 1 412 22 is_stmt 1
	addi	a4,s0,-136
	addi	a5,s0,-128
	li	a3,0
	lla	a2,.LC10
	mv	a1,a4
	mv	a0,a5
	call	StrnCatGrow@plt
	mv	a5,a0
	.loc 1 412 20 discriminator 1
	sd	a5,-128(s0)
	.loc 1 413 22
	addi	a4,s0,-136
	addi	a5,s0,-128
	li	a3,0
	ld	a2,-96(s0)
	mv	a1,a4
	mv	a0,a5
	call	StrnCatGrow@plt
	mv	a5,a0
	.loc 1 413 20 discriminator 1
	sd	a5,-128(s0)
	.loc 1 414 22
	addi	a4,s0,-136
	addi	a5,s0,-128
	li	a3,0
	lla	a2,.LC11
	mv	a1,a4
	mv	a0,a5
	call	StrnCatGrow@plt
	mv	a5,a0
	.loc 1 414 20 discriminator 1
	sd	a5,-128(s0)
.L58:
	.loc 1 380 79 discriminator 2
	ld	a5,-56(s0)
	addi	a5,a5,1
	sd	a5,-56(s0)
.L50:
	.loc 1 380 64 discriminator 1
	la	a5,gEfiShellParametersProtocol
	ld	a5,0(a5)
	ld	a5,8(a5)
	.loc 1 380 35 discriminator 1
	ld	a4,-56(s0)
	bltu	a4,a5,.L60
	.loc 1 419 18
	ld	a5,-128(s0)
	.loc 1 419 10
	bne	a5,zero,.L61
	.loc 1 420 21
	li	a5,9
	sw	a5,-36(s0)
	.loc 1 374 8
	j	.L137
.L61:
	.loc 1 425 19
	ld	a5,-128(s0)
	mv	a0,a5
	call	StrSize@plt
	sd	a0,-120(s0)
	.loc 1 426 80
	la	a5,gEfiShellParametersProtocol
	ld	a5,0(a5)
	ld	a5,0(a5)
	.loc 1 426 86
	addi	a5,a5,8
	.loc 1 426 44
	ld	a5,0(a5)
	mv	a0,a5
	call	StrSize@plt
	mv	a5,a0
	.loc 1 426 43 discriminator 1
	addi	a5,a5,56
	.loc 1 426 17 discriminator 1
	ld	a4,-120(s0)
	add	a5,a4,a5
	sd	a5,-120(s0)
	.loc 1 427 16
	ld	a0,-120(s0)
	call	AllocateZeroPool@plt
	sd	a0,-64(s0)
	.loc 1 428 12
	ld	a5,-64(s0)
	bne	a5,zero,.L63
	.loc 1 429 11
	ld	a5,-128(s0)
	mv	a0,a5
	call	FreePool@plt
	.loc 1 430 18
	li	a5,9
	j	.L136
.L63:
	.loc 1 433 25
	ld	a5,-64(s0)
	li	a4,1934180352
	addi	a4,a4,1619
	sw	a4,0(a5)
	.loc 1 434 22
	ld	a5,-64(s0)
	addi	s1,a5,50
	.loc 1 434 9
	ld	s2,-128(s0)
	ld	a5,-128(s0)
	mv	a0,a5
	call	StrSize@plt
	mv	a5,a0
	.loc 1 434 9 is_stmt 0 discriminator 1
	mv	a2,a5
	mv	a1,s2
	mv	a0,s1
	call	CopyMem@plt
	.loc 1 435 55 is_stmt 1
	la	a5,gEfiShellParametersProtocol
	ld	a5,0(a5)
	ld	a5,0(a5)
	.loc 1 435 61
	addi	a5,a5,8
	.loc 1 435 19
	ld	a5,0(a5)
	mv	a0,a5
	call	StrSize@plt
	sd	a0,-120(s0)
	.loc 1 436 18
	ld	a5,-64(s0)
	addi	s1,a5,50
	.loc 1 436 29
	ld	a5,-128(s0)
	mv	a0,a5
	call	StrSize@plt
	mv	a5,a0
	.loc 1 436 27 discriminator 1
	andi	a5,a5,-2
	.loc 1 436 9 discriminator 1
	add	a4,s1,a5
	.loc 1 436 97 discriminator 1
	la	a5,gEfiShellParametersProtocol
	ld	a5,0(a5)
	ld	a5,0(a5)
	.loc 1 436 103 discriminator 1
	addi	a5,a5,8
	.loc 1 436 9 discriminator 1
	ld	a5,0(a5)
	ld	a2,-120(s0)
	mv	a1,a5
	mv	a0,a4
	call	CopyMem@plt
	.loc 1 437 33
	ld	a5,-64(s0)
	addi	s1,a5,50
	.loc 1 437 43
	ld	a5,-128(s0)
	mv	a0,a5
	call	StrSize@plt
	mv	a5,a0
	.loc 1 437 42 discriminator 1
	andi	a5,a5,-2
	add	a4,s1,a5
	.loc 1 437 31 discriminator 1
	ld	a5,-64(s0)
	sd	a4,32(a5)
	.loc 1 438 40
	ld	a5,-64(s0)
	addi	a4,a5,50
	.loc 1 438 28
	ld	a5,-64(s0)
	sd	a4,40(a5)
	.loc 1 439 20
	ld	a5,-64(s0)
	sd	zero,24(a5)
	.loc 1 440 23
	ld	a5,-64(s0)
	sd	zero,8(a5)
	.loc 1 441 19
	ld	a5,-64(s0)
	sd	zero,16(a5)
	.loc 1 443 40
	ld	a5,-64(s0)
	ld	a4,32(a5)
	.loc 1 443 59
	ld	a5,-112(s0)
	addi	a5,a5,48
	.loc 1 443 13
	mv	a1,a5
	mv	a0,a4
	call	InternalIsAliasOnList
	mv	a5,a0
	.loc 1 443 12 discriminator 1
	beq	a5,zero,.L64
	.loc 1 444 34
	ld	a5,-64(s0)
	sb	zero,48(a5)
	j	.L65
.L64:
	.loc 1 446 34
	ld	a5,-64(s0)
	li	a4,1
	sb	a4,48(a5)
.L65:
	.loc 1 449 26
	ld	a5,-112(s0)
	ld	a5,40(a5)
	.loc 1 449 49
	ld	a4,-64(s0)
	sd	a4,32(a5)
	.loc 1 374 8
	j	.L137
.L49:
	.loc 1 451 33
	la	a5,gUnicodeCollation
	ld	a5,0(a5)
	ld	a5,0(a5)
	.loc 1 451 16
	la	a4,gUnicodeCollation
	ld	a3,0(a4)
	.loc 1 454 64
	la	a4,gEfiShellParametersProtocol
	ld	a4,0(a4)
	ld	a4,0(a4)
	.loc 1 454 70
	addi	a4,a4,16
	.loc 1 451 16
	ld	a4,0(a4)
	mv	a2,a4
	lla	a1,.LC12
	mv	a0,a3
	jalr	a5
.LVL3:
	mv	a5,a0
	.loc 1 451 15 discriminator 1
	bne	a5,zero,.L66
	.loc 1 457 20
	li	a5,3
	sd	a5,-56(s0)
	.loc 1 457 7
	j	.L67
.L70:
	.loc 1 459 49
	la	a5,gEfiShellParametersProtocol
	ld	a5,0(a5)
	ld	a4,0(a5)
	.loc 1 459 55
	ld	a5,-56(s0)
	slli	a5,a5,3
	add	a5,a4,a5
	.loc 1 459 14
	ld	a5,0(a5)
	lla	a1,.LC13
	mv	a0,a5
	call	StrStr@plt
	mv	a5,a0
	.loc 1 459 12 discriminator 1
	beq	a5,zero,.L68
	.loc 1 460 23
	ld	a5,-56(s0)
	addi	a4,a5,1
	.loc 1 460 57
	la	a5,gEfiShellParametersProtocol
	ld	a5,0(a5)
	ld	a5,8(a5)
	.loc 1 459 89 discriminator 2
	bgeu	a4,a5,.L68
	.loc 1 463 18
	li	a5,2
	j	.L136
.L68:
	.loc 1 466 20
	ld	a5,-128(s0)
	.loc 1 466 12
	beq	a5,zero,.L69
	.loc 1 469 20
	addi	a4,s0,-136
	addi	a5,s0,-128
	li	a3,0
	lla	a2,.LC0
	mv	a1,a4
	mv	a0,a5
	call	StrnCatGrow@plt
	mv	a5,a0
	.loc 1 469 18 discriminator 1
	sd	a5,-128(s0)
.L69:
	.loc 1 472 77
	la	a5,gEfiShellParametersProtocol
	ld	a5,0(a5)
	ld	a4,0(a5)
	.loc 1 472 83
	ld	a5,-56(s0)
	slli	a5,a5,3
	add	a5,a4,a5
	.loc 1 472 18
	ld	a2,0(a5)
	addi	a4,s0,-136
	addi	a5,s0,-128
	li	a3,0
	mv	a1,a4
	mv	a0,a5
	call	StrnCatGrow@plt
	mv	a5,a0
	.loc 1 472 16 discriminator 1
	sd	a5,-128(s0)
	.loc 1 457 79 discriminator 2
	ld	a5,-56(s0)
	addi	a5,a5,1
	sd	a5,-56(s0)
.L67:
	.loc 1 457 64 discriminator 1
	la	a5,gEfiShellParametersProtocol
	ld	a5,0(a5)
	ld	a5,8(a5)
	.loc 1 457 35 discriminator 1
	ld	a4,-56(s0)
	bltu	a4,a5,.L70
	.loc 1 476 18
	ld	a5,-128(s0)
	.loc 1 476 10
	bne	a5,zero,.L71
	.loc 1 477 21
	li	a5,9
	sw	a5,-36(s0)
	.loc 1 374 8
	j	.L137
.L71:
	.loc 1 482 94
	la	a5,gEfiShellParametersProtocol
	ld	a5,0(a5)
	ld	a5,0(a5)
	.loc 1 482 100
	addi	a5,a5,8
	.loc 1 482 58
	ld	a5,0(a5)
	mv	a0,a5
	call	StrSize@plt
	mv	a5,a0
	.loc 1 482 57 discriminator 1
	addi	a5,a5,56
	.loc 1 482 16 discriminator 1
	mv	a0,a5
	call	AllocateZeroPool@plt
	sd	a0,-64(s0)
	.loc 1 483 12
	ld	a5,-64(s0)
	bne	a5,zero,.L72
	.loc 1 484 11
	ld	a5,-128(s0)
	mv	a0,a5
	call	FreePool@plt
	.loc 1 485 18
	li	a5,9
	j	.L136
.L72:
	.loc 1 488 25
	ld	a5,-64(s0)
	li	a4,1934180352
	addi	a4,a4,1619
	sw	a4,0(a5)
	.loc 1 489 22
	ld	a5,-64(s0)
	addi	s1,a5,50
	.loc 1 489 56
	la	a5,gEfiShellParametersProtocol
	ld	a5,0(a5)
	ld	a5,0(a5)
	.loc 1 489 62
	addi	a5,a5,8
	.loc 1 489 9
	ld	s2,0(a5)
	.loc 1 489 103
	la	a5,gEfiShellParametersProtocol
	ld	a5,0(a5)
	ld	a5,0(a5)
	.loc 1 489 109
	addi	a5,a5,8
	.loc 1 489 9
	ld	a5,0(a5)
	mv	a0,a5
	call	StrSize@plt
	mv	a5,a0
	.loc 1 489 9 is_stmt 0 discriminator 1
	mv	a2,a5
	mv	a1,s2
	mv	a0,s1
	call	CopyMem@plt
	.loc 1 490 33 is_stmt 1
	ld	a5,-64(s0)
	addi	a4,a5,50
	.loc 1 490 31
	ld	a5,-64(s0)
	sd	a4,32(a5)
	.loc 1 491 28
	ld	a5,-64(s0)
	sd	zero,40(a5)
	.loc 1 492 22
	ld	a5,-128(s0)
	sd	a5,-48(s0)
	.loc 1 493 25
	ld	a5,-48(s0)
	lhu	a5,0(a5)
	.loc 1 493 12
	sext.w	a4,a5
	li	a5,40
	beq	a4,a5,.L73
	.loc 1 494 11
	la	a5,gShellLevel1HiiHandle
	ld	a4,0(a5)
	ld	a3,-128(s0)
	.loc 1 501 30
	ld	a5,-112(s0)
	ld	a5,40(a5)
	.loc 1 494 11
	ld	a5,16(a5)
	mv	a6,a5
	mv	a5,a3
	li	a3,4
	li	a2,0
	li	a1,-1
	li	a0,-1
	call	ShellPrintHiiEx@plt
	.loc 1 503 23
	li	a5,2
	sw	a5,-36(s0)
	j	.L74
.L73:
	.loc 1 505 22
	lla	a1,.LC13
	ld	a0,-48(s0)
	call	StrStr@plt
	sd	a0,-72(s0)
	.loc 1 506 14
	ld	a5,-72(s0)
	beq	a5,zero,.L75
	.loc 1 507 34
	ld	a5,-72(s0)
	addi	a5,a5,2
	.loc 1 507 24
	sd	a5,-144(s0)
	.loc 1 508 17
	ld	a5,-144(s0)
	lhu	a5,0(a5)
	.loc 1 508 16
	beq	a5,zero,.L75
	.loc 1 509 21
	j	.L76
.L78:
	.loc 1 510 27
	ld	a5,-144(s0)
	addi	a5,a5,2
	sd	a5,-144(s0)
.L76:
	.loc 1 509 33
	ld	a5,-144(s0)
	.loc 1 509 49
	beq	a5,zero,.L77
	.loc 1 509 52 discriminator 1
	ld	a5,-144(s0)
	lhu	a5,0(a5)
	.loc 1 509 49 discriminator 1
	sext.w	a4,a5
	li	a5,32
	beq	a4,a5,.L78
.L77:
	.loc 1 513 19
	ld	a5,-144(s0)
	mv	a0,a5
	call	StrLen@plt
	mv	a5,a0
	.loc 1 513 18 discriminator 1
	beq	a5,zero,.L75
	.loc 1 514 26
	sd	zero,-72(s0)
.L75:
	.loc 1 519 14
	ld	a5,-72(s0)
	bne	a5,zero,.L79
	.loc 1 520 13
	la	a5,gShellLevel1HiiHandle
	ld	a4,0(a5)
	.loc 1 526 32
	ld	a5,-112(s0)
	ld	a5,40(a5)
	.loc 1 520 13
	ld	a5,16(a5)
	li	a3,4
	li	a2,0
	li	a1,-1
	li	a0,-1
	call	ShellPrintHiiEx@plt
	.loc 1 528 25
	li	a5,2
	sw	a5,-36(s0)
	j	.L74
.L79:
	.loc 1 530 23
	ld	a5,-72(s0)
	sh	zero,0(a5)
	.loc 1 531 25
	ld	a5,-48(s0)
	addi	a5,a5,2
	sd	a5,-48(s0)
	.loc 1 532 19
	j	.L80
.L82:
	.loc 1 533 27
	ld	a5,-48(s0)
	addi	a5,a5,2
	sd	a5,-48(s0)
.L80:
	.loc 1 532 49
	ld	a5,-48(s0)
	beq	a5,zero,.L81
	.loc 1 532 64 discriminator 1
	ld	a5,-48(s0)
	lhu	a5,0(a5)
	.loc 1 532 49 discriminator 1
	sext.w	a4,a5
	li	a5,32
	beq	a4,a5,.L82
.L81:
	.loc 1 536 18
	ld	a0,-48(s0)
	call	ShellIsValidForNumber
	mv	a5,a0
	.loc 1 536 16 discriminator 1
	bne	a5,zero,.L83
	.loc 1 537 15
	la	a5,gShellLevel1HiiHandle
	ld	a4,0(a5)
	ld	a3,-128(s0)
	.loc 1 544 34
	ld	a5,-112(s0)
	ld	a5,40(a5)
	.loc 1 537 15
	ld	a5,16(a5)
	mv	a6,a5
	mv	a5,a3
	li	a3,4
	li	a2,0
	li	a1,-1
	li	a0,-1
	call	ShellPrintHiiEx@plt
	.loc 1 546 27
	li	a5,2
	sw	a5,-36(s0)
	j	.L74
.L83:
	.loc 1 548 31
	ld	a5,-48(s0)
	lhu	a5,0(a5)
	.loc 1 548 18
	sext.w	a4,a5
	li	a5,45
	bne	a4,a5,.L84
	.loc 1 549 68
	ld	a5,-48(s0)
	addi	a5,a5,2
	.loc 1 549 43
	mv	a0,a5
	call	ReturnUintn
	mv	a5,a0
	.loc 1 549 35 discriminator 1
	neg	a4,a5
	.loc 1 549 31 discriminator 1
	ld	a5,-64(s0)
	sd	a4,8(a5)
	j	.L85
.L84:
	.loc 1 551 39
	ld	a0,-48(s0)
	call	ReturnUintn
	mv	a5,a0
	.loc 1 551 33 discriminator 1
	mv	a4,a5
	.loc 1 551 31 discriminator 1
	ld	a5,-64(s0)
	sd	a4,8(a5)
.L85:
	.loc 1 554 30
	lla	a1,.LC0
	ld	a0,-48(s0)
	call	StrStr@plt
	sd	a0,-48(s0)
	.loc 1 555 21
	j	.L86
.L88:
	.loc 1 556 29
	ld	a5,-48(s0)
	addi	a5,a5,2
	sd	a5,-48(s0)
.L86:
	.loc 1 555 51
	ld	a5,-48(s0)
	beq	a5,zero,.L87
	.loc 1 555 66 discriminator 1
	ld	a5,-48(s0)
	lhu	a5,0(a5)
	.loc 1 555 51 discriminator 1
	sext.w	a4,a5
	li	a5,32
	beq	a4,a5,.L88
.L87:
	.loc 1 559 18
	ld	a5,-48(s0)
	beq	a5,zero,.L89
	.loc 1 559 54 discriminator 1
	ld	a5,-48(s0)
	lhu	a5,0(a5)
	.loc 1 559 50 discriminator 1
	beq	a5,zero,.L89
	.loc 1 559 83 discriminator 2
	ld	a0,-48(s0)
	call	ShellIsValidForNumber
	mv	a5,a0
	.loc 1 559 79 discriminator 3
	bne	a5,zero,.L90
.L89:
	.loc 1 560 17
	la	a5,gShellLevel1HiiHandle
	ld	a4,0(a5)
	ld	a3,-128(s0)
	.loc 1 567 36
	ld	a5,-112(s0)
	ld	a5,40(a5)
	.loc 1 560 17
	ld	a5,16(a5)
	mv	a6,a5
	mv	a5,a3
	li	a3,4
	li	a2,0
	li	a1,-1
	li	a0,-1
	call	ShellPrintHiiEx@plt
	.loc 1 569 29
	li	a5,2
	sw	a5,-36(s0)
	j	.L74
.L90:
	.loc 1 571 33
	ld	a5,-48(s0)
	lhu	a5,0(a5)
	.loc 1 571 20
	sext.w	a4,a5
	li	a5,45
	bne	a4,a5,.L91
	.loc 1 572 66
	ld	a5,-48(s0)
	addi	a5,a5,2
	.loc 1 572 41
	mv	a0,a5
	call	ReturnUintn
	mv	a5,a0
	.loc 1 572 33 discriminator 1
	neg	a4,a5
	.loc 1 572 29 discriminator 1
	ld	a5,-64(s0)
	sd	a4,16(a5)
	j	.L92
.L91:
	.loc 1 574 37
	ld	a0,-48(s0)
	call	ReturnUintn
	mv	a5,a0
	.loc 1 574 31 discriminator 1
	mv	a4,a5
	.loc 1 574 29 discriminator 1
	ld	a5,-64(s0)
	sd	a4,16(a5)
.L92:
	.loc 1 577 25
	ld	a5,-64(s0)
	ld	a4,8(a5)
	.loc 1 577 41
	ld	a5,-64(s0)
	ld	a5,16(a5)
	.loc 1 577 20
	bge	a4,a5,.L93
	.loc 1 578 30
	ld	a5,-64(s0)
	li	a4,1
	sd	a4,24(a5)
	j	.L94
.L93:
	.loc 1 580 30
	ld	a5,-64(s0)
	li	a4,-1
	sd	a4,24(a5)
.L94:
	.loc 1 583 32
	lla	a1,.LC0
	ld	a0,-48(s0)
	call	StrStr@plt
	sd	a0,-48(s0)
	.loc 1 584 23
	j	.L95
.L97:
	.loc 1 585 31
	ld	a5,-48(s0)
	addi	a5,a5,2
	sd	a5,-48(s0)
.L95:
	.loc 1 584 53
	ld	a5,-48(s0)
	beq	a5,zero,.L96
	.loc 1 584 68 discriminator 1
	ld	a5,-48(s0)
	lhu	a5,0(a5)
	.loc 1 584 53 discriminator 1
	sext.w	a4,a5
	li	a5,32
	beq	a4,a5,.L97
.L96:
	.loc 1 588 20
	ld	a5,-48(s0)
	beq	a5,zero,.L74
	.loc 1 588 56 discriminator 1
	ld	a5,-48(s0)
	lhu	a5,0(a5)
	.loc 1 588 52 discriminator 1
	beq	a5,zero,.L74
	.loc 1 589 22
	ld	a5,-48(s0)
	beq	a5,zero,.L98
	.loc 1 589 58 discriminator 1
	ld	a5,-48(s0)
	lhu	a5,0(a5)
	.loc 1 589 54 discriminator 1
	beq	a5,zero,.L98
	.loc 1 589 87 discriminator 2
	ld	a0,-48(s0)
	call	ShellIsValidForNumber
	mv	a5,a0
	.loc 1 589 83 discriminator 3
	bne	a5,zero,.L99
.L98:
	.loc 1 590 21
	la	a5,gShellLevel1HiiHandle
	ld	a4,0(a5)
	ld	a3,-128(s0)
	.loc 1 597 40
	ld	a5,-112(s0)
	ld	a5,40(a5)
	.loc 1 590 21
	ld	a5,16(a5)
	mv	a6,a5
	mv	a5,a3
	li	a3,4
	li	a2,0
	li	a1,-1
	li	a0,-1
	call	ShellPrintHiiEx@plt
	.loc 1 599 33
	li	a5,2
	sw	a5,-36(s0)
	j	.L74
.L99:
	.loc 1 601 25
	ld	a5,-48(s0)
	lhu	a5,0(a5)
	.loc 1 601 24
	sext.w	a4,a5
	li	a5,41
	beq	a4,a5,.L74
	.loc 1 604 39
	ld	a5,-48(s0)
	lhu	a5,0(a5)
	.loc 1 604 26
	sext.w	a4,a5
	li	a5,45
	bne	a4,a5,.L100
	.loc 1 605 73
	ld	a5,-48(s0)
	addi	a5,a5,2
	.loc 1 605 48
	mv	a0,a5
	call	ReturnUintn
	mv	a5,a0
	.loc 1 605 40 discriminator 1
	neg	a4,a5
	.loc 1 605 36 discriminator 1
	ld	a5,-64(s0)
	sd	a4,24(a5)
	j	.L101
.L100:
	.loc 1 607 44
	ld	a0,-48(s0)
	call	ReturnUintn
	mv	a5,a0
	.loc 1 607 38 discriminator 1
	mv	a4,a5
	.loc 1 607 36 discriminator 1
	ld	a5,-64(s0)
	sd	a4,24(a5)
.L101:
	.loc 1 610 27
	lla	a1,.LC0
	ld	a0,-48(s0)
	call	StrStr@plt
	mv	a5,a0
	.loc 1 610 26 discriminator 1
	beq	a5,zero,.L74
	.loc 1 611 25
	la	a5,gShellLevel1HiiHandle
	ld	a4,0(a5)
	ld	a3,-128(s0)
	.loc 1 618 44
	ld	a5,-112(s0)
	ld	a5,40(a5)
	.loc 1 611 25
	ld	a5,16(a5)
	mv	a6,a5
	mv	a5,a3
	li	a3,4
	li	a2,0
	li	a1,-1
	li	a0,-1
	call	ShellPrintHiiEx@plt
	.loc 1 620 37
	li	a5,2
	sw	a5,-36(s0)
.L74:
	.loc 1 630 12
	lw	a5,-36(s0)
	sext.w	a5,a5
	bne	a5,zero,.L102
	.loc 1 631 42
	ld	a5,-64(s0)
	ld	a4,32(a5)
	.loc 1 631 61
	ld	a5,-112(s0)
	addi	a5,a5,48
	.loc 1 631 15
	mv	a1,a5
	mv	a0,a4
	call	InternalIsAliasOnList
	mv	a5,a0
	.loc 1 631 14 discriminator 1
	beq	a5,zero,.L103
	.loc 1 632 36
	ld	a5,-64(s0)
	sb	zero,48(a5)
	j	.L102
.L103:
	.loc 1 634 36
	ld	a5,-64(s0)
	li	a4,1
	sb	a4,48(a5)
.L102:
	.loc 1 638 30
	ld	a5,-112(s0)
	ld	a5,40(a5)
	.loc 1 638 12
	beq	a5,zero,.L137
	.loc 1 639 28
	ld	a5,-112(s0)
	ld	a5,40(a5)
	.loc 1 639 51
	ld	a4,-64(s0)
	sd	a4,32(a5)
	.loc 1 374 8
	j	.L137
.L66:
	.loc 1 643 7
	la	a5,gShellLevel1HiiHandle
	ld	a4,0(a5)
	ld	a3,-128(s0)
	ld	a5,-112(s0)
	beq	a5,zero,.L104
	.loc 1 651 43
	ld	a5,-112(s0)
	ld	a5,40(a5)
	.loc 1 651 23
	beq	a5,zero,.L104
	.loc 1 652 30
	ld	a5,-112(s0)
	ld	a5,40(a5)
	.loc 1 643 7
	ld	a5,16(a5)
	j	.L105
.L104:
	.loc 1 643 7 is_stmt 0 discriminator 1
	li	a5,0
.L105:
	.loc 1 643 7 discriminator 3
	mv	a6,a5
	mv	a5,a3
	li	a3,4
	li	a2,0
	li	a1,-1
	li	a0,-1
	call	ShellPrintHiiEx@plt
	.loc 1 654 19 is_stmt 1
	li	a5,2
	sw	a5,-36(s0)
.L137:
	.loc 1 374 8
	nop
.L44:
	.loc 1 664 6
	ld	a5,-112(s0)
	beq	a5,zero,.L106
	.loc 1 664 64 discriminator 1
	ld	a5,-112(s0)
	ld	a5,40(a5)
	.loc 1 664 43 discriminator 1
	beq	a5,zero,.L106
	.loc 1 665 47
	ld	a5,-112(s0)
	ld	a5,40(a5)
	.loc 1 665 10
	ld	a5,32(a5)
	sd	a5,-64(s0)
	.loc 1 666 26
	ld	a5,-112(s0)
	ld	a5,40(a5)
	.loc 1 666 42
	lbu	a5,40(a5)
	.loc 1 666 8
	beq	a5,zero,.L109
	.loc 1 667 10
	ld	a5,-64(s0)
	beq	a5,zero,.L108
	.loc 1 668 40
	ld	a5,-64(s0)
	addi	a4,a5,50
	.loc 1 668 28
	ld	a5,-64(s0)
	sd	a4,40(a5)
.L108:
	.loc 1 671 17
	li	a5,1
	sb	a5,-73(s0)
	.loc 1 672 24
	ld	a5,-112(s0)
	ld	a5,40(a5)
	.loc 1 672 48
	sb	zero,40(a5)
	.loc 1 666 8
	j	.L109
.L106:
	.loc 1 675 17
	li	a5,3
	sw	a5,-36(s0)
	.loc 1 676 10
	sd	zero,-64(s0)
.L109:
	.loc 1 679 6
	lw	a5,-36(s0)
	sext.w	a5,a5
	bne	a5,zero,.L110
	.loc 1 681 13
	ld	a5,-64(s0)
	ld	a5,24(a5)
	.loc 1 681 8
	beq	a5,zero,.L111
	.loc 1 685 10
	lbu	a5,-73(s0)
	andi	a5,a5,0xff
	bne	a5,zero,.L112
	.loc 1 689 13
	ld	a5,-64(s0)
	ld	a4,8(a5)
	.loc 1 689 30
	ld	a5,-64(s0)
	ld	a5,24(a5)
	.loc 1 689 23
	add	a4,a4,a5
	ld	a5,-64(s0)
	sd	a4,8(a5)
.L112:
	.loc 1 692 20
	li	a0,100
	call	AllocateZeroPool@plt
	mv	a5,a0
	.loc 1 692 18 discriminator 1
	sd	a5,-144(s0)
	.loc 1 693 22
	ld	a5,-144(s0)
	.loc 1 693 10
	bne	a5,zero,.L113
	.loc 1 694 27
	ld	a5,-128(s0)
	.loc 1 694 17
	beq	a5,zero,.L114
	.loc 1 694 46 discriminator 1
	ld	a5,-128(s0)
	mv	a0,a5
	call	FreePool@plt
	.loc 1 694 75 discriminator 2
	sd	zero,-128(s0)
.L114:
	.loc 1 695 17
	ld	a5,-64(s0)
	beq	a5,zero,.L115
	.loc 1 695 44 discriminator 1
	ld	a0,-64(s0)
	call	FreePool@plt
	.loc 1 695 69 discriminator 2
	sd	zero,-64(s0)
.L115:
	.loc 1 696 16
	li	a5,9
	j	.L136
.L113:
	.loc 1 699 7
	ld	a4,-144(s0)
	ld	a5,-64(s0)
	ld	a5,8(a5)
	mv	a3,a5
	lla	a2,.LC14
	li	a1,100
	mv	a0,a4
	call	UnicodeSPrint@plt
	.loc 1 700 38
	ld	a5,-64(s0)
	ld	a4,32(a5)
	.loc 1 700 7
	ld	a3,-144(s0)
	ld	a5,-112(s0)
	addi	a5,a5,48
	mv	a2,a5
	mv	a1,a3
	mv	a0,a4
	call	InternalUpdateAliasOnList
	.loc 1 701 7
	ld	a5,-144(s0)
	mv	a0,a5
	call	FreePool@plt
	.loc 1 703 17
	ld	a5,-64(s0)
	ld	a5,24(a5)
	.loc 1 703 10
	ble	a5,zero,.L116
	.loc 1 703 37 discriminator 1
	ld	a5,-64(s0)
	ld	a4,8(a5)
	.loc 1 703 53 discriminator 1
	ld	a5,-64(s0)
	ld	a5,16(a5)
	.loc 1 703 29 discriminator 1
	bgt	a4,a5,.L117
.L116:
	.loc 1 703 70 discriminator 3
	ld	a5,-64(s0)
	ld	a5,24(a5)
	.loc 1 703 61 discriminator 3
	bge	a5,zero,.L110
	.loc 1 703 90 discriminator 4
	ld	a5,-64(s0)
	ld	a4,8(a5)
	.loc 1 703 106 discriminator 4
	ld	a5,-64(s0)
	ld	a5,16(a5)
	.loc 1 703 82 discriminator 4
	bge	a4,a5,.L110
.L117:
	.loc 1 704 26
	ld	a5,-112(s0)
	ld	a5,40(a5)
	.loc 1 704 49
	sd	zero,32(a5)
	.loc 1 708 14
	li	a7,0
	li	a6,0
	li	a5,1
	ld	a4,-112(s0)
	li	a3,0
	lla	a2,.LC2
	lla	a1,.LC1
	la	a0,GetNextNode
	call	MoveToTag@plt
	mv	a5,a0
	.loc 1 708 12 discriminator 1
	bne	a5,zero,.L118
	.loc 1 709 11
	la	a5,gShellLevel1HiiHandle
	ld	a4,0(a5)
	ld	a5,-112(s0)
	beq	a5,zero,.L119
	.loc 1 718 47
	ld	a5,-112(s0)
	ld	a5,40(a5)
	.loc 1 718 27
	beq	a5,zero,.L119
	.loc 1 719 34
	ld	a5,-112(s0)
	ld	a5,40(a5)
	.loc 1 709 11
	ld	a5,16(a5)
	j	.L120
.L119:
	.loc 1 709 11 is_stmt 0 discriminator 1
	li	a5,0
.L120:
	.loc 1 709 11 discriminator 3
	mv	a7,a5
	lla	a6,.LC4
	lla	a5,.LC3
	li	a3,12
	li	a2,0
	li	a1,-1
	li	a0,-1
	call	ShellPrintHiiEx@plt
	.loc 1 721 23 is_stmt 1
	li	a5,7
	sw	a5,-36(s0)
.L118:
	.loc 1 724 17
	ld	a5,-64(s0)
	lbu	a5,48(a5)
	.loc 1 724 12
	beq	a5,zero,.L121
	.loc 1 728 44
	ld	a5,-64(s0)
	ld	a4,32(a5)
	.loc 1 728 11
	ld	a5,-112(s0)
	addi	a5,a5,48
	mv	a1,a5
	mv	a0,a4
	call	InternalRemoveAliasFromList
.L121:
	.loc 1 731 9
	ld	a0,-64(s0)
	call	FreePool@plt
	j	.L110
.L111:
	.loc 1 738 16
	ld	a5,-64(s0)
	ld	a5,40(a5)
	.loc 1 738 10
	beq	a5,zero,.L122
	.loc 1 738 57 discriminator 1
	ld	a5,-64(s0)
	ld	a5,40(a5)
	.loc 1 738 52 discriminator 1
	lhu	a5,0(a5)
	.loc 1 738 48 discriminator 1
	beq	a5,zero,.L122
	.loc 1 739 17
	ld	a5,-64(s0)
	ld	a5,40(a5)
	.loc 1 739 31
	lhu	a5,0(a5)
	.loc 1 739 12
	sext.w	a4,a5
	li	a5,32
	bne	a4,a5,.L123
	.loc 1 740 15
	ld	a5,-64(s0)
	ld	a5,40(a5)
	.loc 1 740 29
	addi	a4,a5,2
	ld	a5,-64(s0)
	sd	a4,40(a5)
.L123:
	.loc 1 743 17
	ld	a5,-64(s0)
	ld	a5,40(a5)
	.loc 1 743 31
	lhu	a5,0(a5)
	.loc 1 743 12
	sext.w	a4,a5
	li	a5,34
	bne	a4,a5,.L124
	.loc 1 744 15
	ld	a5,-64(s0)
	ld	a5,40(a5)
	.loc 1 744 29
	addi	a4,a5,2
	ld	a5,-64(s0)
	sd	a4,40(a5)
.L124:
	.loc 1 751 66
	ld	a5,-64(s0)
	ld	a4,40(a5)
	.loc 1 751 22
	addi	a5,s0,-144
	li	a3,0
	mv	a2,a4
	li	a1,0
	mv	a0,a5
	call	StrnCatGrow@plt
	mv	a5,a0
	.loc 1 751 20 discriminator 1
	sd	a5,-144(s0)
	.loc 1 752 24
	ld	a5,-144(s0)
	.loc 1 752 12
	bne	a5,zero,.L125
	.loc 1 753 23
	li	a5,9
	sw	a5,-36(s0)
	.loc 1 752 12
	j	.L110
.L125:
	.loc 1 755 22
	ld	a5,-144(s0)
	lla	a1,.LC15
	mv	a0,a5
	call	StrStr@plt
	sd	a0,-72(s0)
	.loc 1 756 14
	ld	a5,-72(s0)
	beq	a5,zero,.L128
	.loc 1 757 23
	ld	a5,-72(s0)
	sh	zero,0(a5)
	.loc 1 760 17
	j	.L128
.L129:
	.loc 1 761 23
	ld	s1,-144(s0)
	.loc 1 761 24
	ld	a5,-144(s0)
	mv	a0,a5
	call	StrLen@plt
	mv	a5,a0
	.loc 1 761 23 discriminator 1
	slli	a5,a5,1
	addi	a5,a5,-2
	add	a5,s1,a5
	.loc 1 761 47 discriminator 1
	sh	zero,0(a5)
.L128:
	.loc 1 760 28
	ld	s1,-144(s0)
	.loc 1 760 29
	ld	a5,-144(s0)
	mv	a0,a5
	call	StrLen@plt
	mv	a5,a0
	.loc 1 760 28 discriminator 1
	slli	a5,a5,1
	addi	a5,a5,-2
	add	a5,s1,a5
	lhu	a5,0(a5)
	.loc 1 760 52 discriminator 1
	sext.w	a4,a5
	li	a5,34
	beq	a4,a5,.L129
	.loc 1 764 42
	ld	a5,-64(s0)
	ld	a4,32(a5)
	.loc 1 764 11
	ld	a3,-144(s0)
	ld	a5,-112(s0)
	addi	a5,a5,48
	mv	a2,a5
	mv	a1,a3
	mv	a0,a4
	call	InternalUpdateAliasOnList
	.loc 1 765 33
	ld	a5,-144(s0)
	mv	a0,a5
	call	StrLen@plt
	mv	a3,a0
	.loc 1 765 15 discriminator 1
	ld	a5,-64(s0)
	ld	a4,40(a5)
	.loc 1 765 30 discriminator 1
	slli	a5,a3,1
	add	a4,a4,a5
	ld	a5,-64(s0)
	sd	a4,40(a5)
	.loc 1 767 19
	ld	a5,-64(s0)
	ld	a5,40(a5)
	.loc 1 767 33
	lhu	a5,0(a5)
	.loc 1 767 14
	sext.w	a4,a5
	li	a5,34
	bne	a4,a5,.L130
	.loc 1 768 17
	ld	a5,-64(s0)
	ld	a5,40(a5)
	.loc 1 768 31
	addi	a4,a5,2
	ld	a5,-64(s0)
	sd	a4,40(a5)
.L130:
	.loc 1 771 11
	ld	a5,-144(s0)
	mv	a0,a5
	call	FreePool@plt
	.loc 1 752 12
	j	.L110
.L122:
	.loc 1 774 26
	ld	a5,-112(s0)
	ld	a5,40(a5)
	.loc 1 774 49
	sd	zero,32(a5)
	.loc 1 778 14
	li	a7,0
	li	a6,0
	li	a5,1
	ld	a4,-112(s0)
	li	a3,0
	lla	a2,.LC2
	lla	a1,.LC1
	la	a0,GetNextNode
	call	MoveToTag@plt
	mv	a5,a0
	.loc 1 778 12 discriminator 1
	bne	a5,zero,.L131
	.loc 1 779 11
	la	a5,gShellLevel1HiiHandle
	ld	a4,0(a5)
	ld	a5,-112(s0)
	beq	a5,zero,.L132
	.loc 1 788 47
	ld	a5,-112(s0)
	ld	a5,40(a5)
	.loc 1 788 27
	beq	a5,zero,.L132
	.loc 1 789 34
	ld	a5,-112(s0)
	ld	a5,40(a5)
	.loc 1 779 11
	ld	a5,16(a5)
	j	.L133
.L132:
	.loc 1 779 11 is_stmt 0 discriminator 1
	li	a5,0
.L133:
	.loc 1 779 11 discriminator 3
	mv	a7,a5
	lla	a6,.LC4
	lla	a5,.LC3
	li	a3,12
	li	a2,0
	li	a1,-1
	li	a0,-1
	call	ShellPrintHiiEx@plt
	.loc 1 791 23 is_stmt 1
	li	a5,7
	sw	a5,-36(s0)
.L131:
	.loc 1 794 17
	ld	a5,-64(s0)
	lbu	a5,48(a5)
	.loc 1 794 12
	beq	a5,zero,.L134
	.loc 1 798 44
	ld	a5,-64(s0)
	ld	a4,32(a5)
	.loc 1 798 11
	ld	a5,-112(s0)
	addi	a5,a5,48
	mv	a1,a5
	mv	a0,a4
	call	InternalRemoveAliasFromList
.L134:
	.loc 1 801 9
	ld	a0,-64(s0)
	call	FreePool@plt
.L110:
	.loc 1 806 14
	ld	a5,-128(s0)
	.loc 1 806 6
	beq	a5,zero,.L135
	.loc 1 807 5
	ld	a5,-128(s0)
	mv	a0,a5
	call	FreePool@plt
.L135:
	.loc 1 810 10
	lw	a5,-36(s0)
.L136:
	.loc 1 811 1
	mv	a0,a5
	ld	ra,168(sp)
	.cfi_restore 1
	ld	s0,160(sp)
	.cfi_restore 8
	.cfi_def_cfa 2, 176
	ld	s1,152(sp)
	.cfi_restore 9
	ld	s2,144(sp)
	.cfi_restore 18
	addi	sp,sp,176
	.cfi_def_cfa_offset 0
	jr	ra
	.cfi_endproc
.LFE6:
	.size	ShellCommandRunFor, .-ShellCommandRunFor
	.text
.Letext0:
	.file 2 "/home/kapoagaeming/Downloads/spacemit-image-builder/components/edk2/MdePkg/Include/RiscV64/ProcessorBind.h"
	.file 3 "/home/kapoagaeming/Downloads/spacemit-image-builder/components/edk2/MdePkg/Include/Base.h"
	.file 4 "/home/kapoagaeming/Downloads/spacemit-image-builder/components/edk2/MdePkg/Include/Uefi/UefiBaseType.h"
	.file 5 "/home/kapoagaeming/Downloads/spacemit-image-builder/components/edk2/MdePkg/Include/Uefi/UefiMultiPhase.h"
	.file 6 "/home/kapoagaeming/Downloads/spacemit-image-builder/components/edk2/MdePkg/Include/Protocol/DevicePath.h"
	.file 7 "/home/kapoagaeming/Downloads/spacemit-image-builder/components/edk2/MdePkg/Include/Protocol/SimpleTextIn.h"
	.file 8 "/home/kapoagaeming/Downloads/spacemit-image-builder/components/edk2/MdePkg/Include/Protocol/SimpleTextOut.h"
	.file 9 "/home/kapoagaeming/Downloads/spacemit-image-builder/components/edk2/MdePkg/Include/Uefi/UefiSpec.h"
	.file 10 "/home/kapoagaeming/Downloads/spacemit-image-builder/components/edk2/MdePkg/Include/Uefi/UefiInternalFormRepresentation.h"
	.file 11 "/home/kapoagaeming/Downloads/spacemit-image-builder/components/edk2/MdePkg/Include/Guid/FileInfo.h"
	.file 12 "/home/kapoagaeming/Downloads/spacemit-image-builder/components/edk2/MdePkg/Include/Protocol/Shell.h"
	.file 13 "/home/kapoagaeming/Downloads/spacemit-image-builder/components/edk2/MdePkg/Include/Protocol/ShellParameters.h"
	.file 14 "/home/kapoagaeming/Downloads/spacemit-image-builder/components/edk2/MdePkg/Include/Protocol/UnicodeCollation.h"
	.file 15 "/home/kapoagaeming/Downloads/spacemit-image-builder/components/edk2/ShellPkg/Include/Library/ShellCommandLib.h"
	.file 16 "/home/kapoagaeming/Downloads/spacemit-image-builder/components/edk2/ShellPkg/Include/Library/ShellLib.h"
	.file 17 "/home/kapoagaeming/Downloads/spacemit-image-builder/components/edk2/ShellPkg/Library/UefiShellLevel1CommandsLib/UefiShellLevel1CommandsLib.h"
	.file 18 "/home/kapoagaeming/Downloads/spacemit-image-builder/components/edk2/MdePkg/Include/Library/PrintLib.h"
	.file 19 "/home/kapoagaeming/Downloads/spacemit-image-builder/components/edk2/MdePkg/Include/Library/BaseMemoryLib.h"
	.file 20 "/home/kapoagaeming/Downloads/spacemit-image-builder/components/edk2/MdePkg/Include/Library/BaseLib.h"
	.file 21 "/home/kapoagaeming/Downloads/spacemit-image-builder/components/edk2/MdePkg/Include/Library/MemoryAllocationLib.h"
	.section	.note.GNU-stack,"",@progbits
