	.file	"PciBus.c"
	.option pic
	.option norelax
	.attribute arch, "rv64i2p1_m2p0_a2p1_f2p2_d2p2_c2p0_zicsr2p0_zifencei2p0_zmmul1p0_zaamo1p0_zalrsc1p0_zca1p0_zcd1p0"
	.attribute unaligned_access, 0
	.attribute stack_align, 16
	.text
.Ltext0:
	.cfi_sections	.debug_frame
	.file 0 "/home/kapoagaeming/spacemit-image-builder/components/Build/Milk-V-Jupiter/RELEASE_GCC5/RISCV64/Silicon/Spacemit/Override/MdeModulePkg/Bus/Pci/PciBusDxe/PciBusDxe" "/home/kapoagaeming/spacemit-image-builder/components/edk2-platforms/Silicon/Spacemit/Override/MdeModulePkg/Bus/Pci/PciBusDxe/PciBus.c"
	.globl	gPciBusDriverBinding
	.section	.data.rel.local.gPciBusDriverBinding,"aw"
	.align	3
	.type	gPciBusDriverBinding, @object
	.size	gPciBusDriverBinding, 48
gPciBusDriverBinding:
	.dword	PciBusDriverBindingSupported
	.dword	PciBusDriverBindingStart
	.dword	PciBusDriverBindingStop
	.word	10
	.zero	4
	.dword	0
	.dword	0
	.globl	gPciHostBrigeHandles
	.section	.bss.gPciHostBrigeHandles,"aw",@nobits
	.align	3
	.type	gPciHostBrigeHandles, @object
	.size	gPciHostBrigeHandles, 128
gPciHostBrigeHandles:
	.zero	128
	.globl	gIncompatiblePciDeviceSupport
	.section	.bss.gIncompatiblePciDeviceSupport,"aw",@nobits
	.align	3
	.type	gIncompatiblePciDeviceSupport, @object
	.size	gIncompatiblePciDeviceSupport, 8
gIncompatiblePciDeviceSupport:
	.zero	8
	.globl	gPciHostBridgeNumber
	.section	.bss.gPciHostBridgeNumber,"aw",@nobits
	.align	3
	.type	gPciHostBridgeNumber, @object
	.size	gPciHostBridgeNumber, 8
gPciHostBridgeNumber:
	.zero	8
	.globl	gFullEnumeration
	.section	.data.gFullEnumeration,"aw"
	.type	gFullEnumeration, @object
	.size	gFullEnumeration, 1
gFullEnumeration:
	.byte	1
	.globl	gAllOne
	.section	.data.gAllOne,"aw"
	.align	3
	.type	gAllOne, @object
	.size	gAllOne, 8
gAllOne:
	.dword	-1
	.globl	gAllZero
	.section	.bss.gAllZero,"aw",@nobits
	.align	3
	.type	gAllZero, @object
	.size	gAllZero, 8
gAllZero:
	.zero	8
	.globl	gPciPlatformProtocol
	.section	.bss.gPciPlatformProtocol,"aw",@nobits
	.align	3
	.type	gPciPlatformProtocol, @object
	.size	gPciPlatformProtocol, 8
gPciPlatformProtocol:
	.zero	8
	.globl	gPciOverrideProtocol
	.section	.bss.gPciOverrideProtocol,"aw",@nobits
	.align	3
	.type	gPciOverrideProtocol, @object
	.size	gPciOverrideProtocol, 8
gPciOverrideProtocol:
	.zero	8
	.globl	mIoMmuProtocol
	.section	.bss.mIoMmuProtocol,"aw",@nobits
	.align	3
	.type	mIoMmuProtocol, @object
	.size	mIoMmuProtocol, 8
mIoMmuProtocol:
	.zero	8
	.globl	mDeviceSecurityProtocol
	.section	.bss.mDeviceSecurityProtocol,"aw",@nobits
	.align	3
	.type	mDeviceSecurityProtocol, @object
	.size	mDeviceSecurityProtocol, 8
mDeviceSecurityProtocol:
	.zero	8
	.globl	mPciHotPlugRequest
	.section	.data.rel.mPciHotPlugRequest,"aw"
	.align	3
	.type	mPciHotPlugRequest, @object
	.size	mPciHotPlugRequest, 8
mPciHotPlugRequest:
	.dword	PciHotPlugRequestNotify
	.section	.text.PciBusEntryPoint,"ax",@progbits
	.align	1
	.globl	PciBusEntryPoint
	.type	PciBusEntryPoint, @function
PciBusEntryPoint:
.LFB0:
	.file 1 "/home/kapoagaeming/spacemit-image-builder/components/edk2-platforms/Silicon/Spacemit/Override/MdeModulePkg/Bus/Pci/PciBusDxe/PciBus.c"
	.loc 1 67 1
	.cfi_startproc
	addi	sp,sp,-48
	.cfi_def_cfa_offset 48
	sd	ra,40(sp)
	sd	s0,32(sp)
	.cfi_offset 1, -8
	.cfi_offset 8, -16
	addi	s0,sp,48
	.cfi_def_cfa 8, 0
	sd	a0,-40(s0)
	sd	a1,-48(s0)
	.loc 1 74 3
	call	InitializePciDevicePool@plt
	.loc 1 79 12
	la	a5,gPciBusComponentName2
	la	a4,gPciBusComponentName
	ld	a3,-40(s0)
	lla	a2,gPciBusDriverBinding
	ld	a1,-48(s0)
	ld	a0,-40(s0)
	call	EfiLibInstallDriverBindingComponentName2@plt
	sd	a0,-24(s0)
	.loc 1 89 7
	la	a5,_gPcd_FixedAtBuild_PcdPciBusHotplugDeviceSupport
	lbu	a5,0(a5)
	.loc 1 89 6
	beq	a5,zero,.L2
	.loc 1 93 12
	sd	zero,-32(s0)
	.loc 1 94 17
	la	a5,gBS
	ld	a5,0(a5)
	ld	a5,128(a5)
	.loc 1 94 14
	addi	a4,s0,-32
	lla	a3,mPciHotPlugRequest
	li	a2,0
	la	a1,gEfiPciHotPlugRequestProtocolGuid
	mv	a0,a4
	jalr	a5
.LVL0:
	sd	a0,-24(s0)
.L2:
	.loc 1 102 10
	ld	a5,-24(s0)
	.loc 1 103 1
	mv	a0,a5
	ld	ra,40(sp)
	.cfi_restore 1
	ld	s0,32(sp)
	.cfi_restore 8
	.cfi_def_cfa 2, 48
	addi	sp,sp,48
	.cfi_def_cfa_offset 0
	jr	ra
	.cfi_endproc
.LFE0:
	.size	PciBusEntryPoint, .-PciBusEntryPoint
	.section	.text.PciBusDriverBindingSupported,"ax",@progbits
	.align	1
	.globl	PciBusDriverBindingSupported
	.type	PciBusDriverBindingSupported, @function
PciBusDriverBindingSupported:
.LFB1:
	.loc 1 126 1
	.cfi_startproc
	addi	sp,sp,-80
	.cfi_def_cfa_offset 80
	sd	ra,72(sp)
	sd	s0,64(sp)
	.cfi_offset 1, -8
	.cfi_offset 8, -16
	addi	s0,sp,80
	.cfi_def_cfa 8, 0
	sd	a0,-56(s0)
	sd	a1,-64(s0)
	sd	a2,-72(s0)
	.loc 1 135 6
	ld	a5,-72(s0)
	beq	a5,zero,.L5
	.loc 1 140 10
	ld	a0,-72(s0)
	call	IsDevicePathEnd@plt
	mv	a5,a0
	.loc 1 140 8 discriminator 1
	bne	a5,zero,.L5
	.loc 1 145 20
	ld	a5,-72(s0)
	sd	a5,-48(s0)
	.loc 1 146 16
	ld	a5,-48(s0)
	.loc 1 146 24
	lbu	a5,0(a5)
	.loc 1 146 10
	mv	a4,a5
	li	a5,1
	bne	a4,a5,.L6
	.loc 1 147 16
	ld	a5,-48(s0)
	.loc 1 147 24
	lbu	a5,1(a5)
	.loc 1 146 40 discriminator 1
	mv	a4,a5
	li	a5,1
	bne	a4,a5,.L6
	.loc 1 148 38
	ld	a5,-48(s0)
	.loc 1 148 12
	mv	a0,a5
	call	DevicePathNodeLength@plt
	mv	a4,a0
	.loc 1 147 43
	li	a5,6
	beq	a4,a5,.L5
.L6:
	.loc 1 150 16
	li	a5,-1
	slli	a5,a5,63
	addi	a5,a5,3
	j	.L12
.L5:
	.loc 1 158 15
	la	a5,gBS
	ld	a5,0(a5)
	ld	a6,280(a5)
	.loc 1 158 12
	ld	a5,-56(s0)
	ld	a3,40(a5)
	addi	a2,s0,-40
	li	a5,16
	ld	a4,-64(s0)
	la	a1,gEfiPciRootBridgeIoProtocolGuid
	ld	a0,-64(s0)
	jalr	a6
.LVL1:
	sd	a0,-24(s0)
	.loc 1 166 6
	ld	a4,-24(s0)
	li	a5,-1
	slli	a5,a5,63
	addi	a5,a5,20
	bne	a4,a5,.L8
	.loc 1 167 12
	li	a5,0
	j	.L12
.L8:
	.loc 1 170 34
	ld	a5,-24(s0)
	.loc 1 170 6
	bge	a5,zero,.L9
	.loc 1 171 12
	ld	a5,-24(s0)
	j	.L12
.L9:
	.loc 1 177 6
	la	a5,gBS
	ld	a5,0(a5)
	ld	a5,288(a5)
	.loc 1 177 3
	ld	a4,-56(s0)
	ld	a4,40(a4)
	ld	a3,-64(s0)
	mv	a2,a4
	la	a1,gEfiPciRootBridgeIoProtocolGuid
	ld	a0,-64(s0)
	jalr	a5
.LVL2:
	.loc 1 187 15
	la	a5,gBS
	ld	a5,0(a5)
	ld	a6,280(a5)
	.loc 1 187 12
	ld	a5,-56(s0)
	ld	a3,40(a5)
	addi	a2,s0,-32
	li	a5,16
	ld	a4,-64(s0)
	la	a1,gEfiDevicePathProtocolGuid
	ld	a0,-64(s0)
	jalr	a6
.LVL3:
	sd	a0,-24(s0)
	.loc 1 195 6
	ld	a4,-24(s0)
	li	a5,-1
	slli	a5,a5,63
	addi	a5,a5,20
	bne	a4,a5,.L10
	.loc 1 196 12
	li	a5,0
	j	.L12
.L10:
	.loc 1 199 34
	ld	a5,-24(s0)
	.loc 1 199 6
	bge	a5,zero,.L11
	.loc 1 200 12
	ld	a5,-24(s0)
	j	.L12
.L11:
	.loc 1 206 6
	la	a5,gBS
	ld	a5,0(a5)
	ld	a5,288(a5)
	.loc 1 206 3
	ld	a4,-56(s0)
	ld	a4,40(a4)
	ld	a3,-64(s0)
	mv	a2,a4
	la	a1,gEfiDevicePathProtocolGuid
	ld	a0,-64(s0)
	jalr	a5
.LVL4:
	.loc 1 213 10
	li	a5,0
.L12:
	.loc 1 214 1
	mv	a0,a5
	ld	ra,72(sp)
	.cfi_restore 1
	ld	s0,64(sp)
	.cfi_restore 8
	.cfi_def_cfa 2, 80
	addi	sp,sp,80
	.cfi_def_cfa_offset 0
	jr	ra
	.cfi_endproc
.LFE1:
	.size	PciBusDriverBindingSupported, .-PciBusDriverBindingSupported
	.section	.text.PciBusDriverBindingStart,"ax",@progbits
	.align	1
	.globl	PciBusDriverBindingStart
	.type	PciBusDriverBindingStart, @function
PciBusDriverBindingStart:
.LFB2:
	.loc 1 237 1
	.cfi_startproc
	addi	sp,sp,-80
	.cfi_def_cfa_offset 80
	sd	ra,72(sp)
	sd	s0,64(sp)
	.cfi_offset 1, -8
	.cfi_offset 8, -16
	addi	s0,sp,80
	.cfi_def_cfa 8, 0
	sd	a0,-56(s0)
	sd	a1,-64(s0)
	sd	a2,-72(s0)
	.loc 1 245 19
	sd	zero,-40(s0)
	.loc 1 250 6
	ld	a5,-72(s0)
	beq	a5,zero,.L14
	.loc 1 255 9
	ld	a0,-72(s0)
	call	IsDevicePathEnd@plt
	mv	a5,a0
	.loc 1 255 8 discriminator 1
	beq	a5,zero,.L14
	.loc 1 256 14
	li	a5,0
	j	.L27
.L14:
	.loc 1 260 6
	la	a5,gBS
	ld	a5,0(a5)
	ld	a5,320(a5)
	.loc 1 260 3
	lla	a2,gIncompatiblePciDeviceSupport
	li	a1,0
	la	a0,gEfiIncompatiblePciDeviceSupportProtocolGuid
	jalr	a5
.LVL5:
	.loc 1 270 24
	lla	a5,gPciPlatformProtocol
	sd	zero,0(a5)
	.loc 1 271 6
	la	a5,gBS
	ld	a5,0(a5)
	ld	a5,320(a5)
	.loc 1 271 3
	lla	a2,gPciPlatformProtocol
	li	a1,0
	la	a0,gEfiPciPlatformProtocolGuid
	jalr	a5
.LVL6:
	.loc 1 280 28
	lla	a5,gPciPlatformProtocol
	ld	a5,0(a5)
	.loc 1 280 6
	bne	a5,zero,.L16
	.loc 1 281 26
	lla	a5,gPciOverrideProtocol
	sd	zero,0(a5)
	.loc 1 282 8
	la	a5,gBS
	ld	a5,0(a5)
	ld	a5,320(a5)
	.loc 1 282 5
	lla	a2,gPciOverrideProtocol
	li	a1,0
	la	a0,gEfiPciOverrideProtocolGuid
	jalr	a5
.LVL7:
.L16:
	.loc 1 289 22
	lla	a5,mIoMmuProtocol
	ld	a5,0(a5)
	.loc 1 289 6
	bne	a5,zero,.L17
	.loc 1 290 8
	la	a5,gBS
	ld	a5,0(a5)
	ld	a5,320(a5)
	.loc 1 290 5
	lla	a2,mIoMmuProtocol
	li	a1,0
	la	a0,gEdkiiIoMmuProtocolGuid
	jalr	a5
.LVL8:
.L17:
	.loc 1 297 31
	lla	a5,mDeviceSecurityProtocol
	ld	a5,0(a5)
	.loc 1 297 6
	bne	a5,zero,.L18
	.loc 1 298 8
	la	a5,gBS
	ld	a5,0(a5)
	ld	a5,320(a5)
	.loc 1 298 5
	lla	a2,mDeviceSecurityProtocol
	li	a1,0
	la	a0,gEdkiiDeviceSecurityProtocolGuid
	jalr	a5
.LVL9:
.L18:
	.loc 1 305 7
	la	a5,_gPcd_FixedAtBuild_PcdPciDisableBusEnumeration
	lbu	a5,0(a5)
	.loc 1 305 6
	beq	a5,zero,.L19
	.loc 1 306 22
	lla	a5,gFullEnumeration
	sb	zero,0(a5)
	j	.L20
.L19:
	.loc 1 308 35
	ld	a0,-64(s0)
	call	SearchHostBridgeHandle@plt
	mv	a5,a0
	.loc 1 308 24 discriminator 1
	sext.w	a5,a5
	seqz	a5,a5
	andi	a5,a5,0xff
	sext.w	a5,a5
	andi	a4,a5,0xff
	.loc 1 308 22 discriminator 1
	lla	a5,gFullEnumeration
	sb	a4,0(a5)
.L20:
	.loc 1 314 15
	la	a5,gBS
	ld	a5,0(a5)
	ld	a6,280(a5)
	.loc 1 314 12
	ld	a5,-56(s0)
	ld	a3,40(a5)
	addi	a2,s0,-32
	li	a5,2
	ld	a4,-64(s0)
	la	a1,gEfiDevicePathProtocolGuid
	ld	a0,-64(s0)
	jalr	a6
.LVL10:
	sd	a0,-24(s0)
	.loc 1 327 4
	call	ReportProgressCodeEnabled@plt
	mv	a5,a0
	.loc 1 327 181 discriminator 1
	beq	a5,zero,.L21
	.loc 1 327 80 discriminator 4
	ld	a5,-32(s0)
	mv	a2,a5
	li	a1,33619968
	li	a0,1
	call	ReportStatusCodeWithDevicePath@plt
	.loc 1 327 181
	j	.L22
.L21:
	.loc 1 327 184 discriminator 5
	call	ReportErrorCodeEnabled@plt
	.loc 1 327 361 discriminator 9
	call	ReportDebugCodeEnabled@plt
.L22:
	.loc 1 333 10
	sd	zero,-24(s0)
	.loc 1 339 7
	lla	a5,gFullEnumeration
	lbu	a5,0(a5)
	.loc 1 339 6
	beq	a5,zero,.L23
	.loc 1 343 17
	la	a5,gBS
	ld	a5,0(a5)
	ld	a6,280(a5)
	.loc 1 343 14
	lla	a5,gPciBusDriverBinding
	ld	a3,40(a5)
	addi	a2,s0,-40
	li	a5,2
	ld	a4,-64(s0)
	la	a1,gEfiPciRootBridgeIoProtocolGuid
	ld	a0,-64(s0)
	jalr	a6
.LVL11:
	sd	a0,-24(s0)
	.loc 1 352 9
	ld	a5,-24(s0)
	.loc 1 352 8
	blt	a5,zero,.L24
	.loc 1 353 58
	ld	a5,-40(s0)
	.loc 1 353 16
	ld	a5,0(a5)
	mv	a1,a5
	ld	a0,-64(s0)
	call	PciEnumerator@plt
	sd	a0,-24(s0)
	j	.L24
.L23:
	.loc 1 359 14
	ld	a0,-64(s0)
	call	PciEnumeratorLight@plt
	sd	a0,-24(s0)
.L24:
	.loc 1 362 34
	ld	a5,-24(s0)
	.loc 1 362 6
	bge	a5,zero,.L25
	.loc 1 363 12
	ld	a5,-24(s0)
	j	.L27
.L25:
	.loc 1 369 3
	ld	a0,-64(s0)
	call	StartPciDevices@plt
	.loc 1 371 7
	lla	a5,gFullEnumeration
	lbu	a5,0(a5)
	.loc 1 371 6
	beq	a5,zero,.L26
	.loc 1 372 22
	lla	a5,gFullEnumeration
	sb	zero,0(a5)
	.loc 1 374 17
	la	a5,gBS
	ld	a5,0(a5)
	ld	a5,128(a5)
	.loc 1 375 37
	ld	a4,-40(s0)
	.loc 1 374 14
	li	a3,0
	li	a2,0
	la	a1,gEfiPciEnumerationCompleteProtocolGuid
	mv	a0,a4
	jalr	a5
.LVL12:
	sd	a0,-24(s0)
.L26:
	.loc 1 383 10
	ld	a5,-24(s0)
.L27:
	.loc 1 384 1
	mv	a0,a5
	ld	ra,72(sp)
	.cfi_restore 1
	ld	s0,64(sp)
	.cfi_restore 8
	.cfi_def_cfa 2, 80
	addi	sp,sp,80
	.cfi_def_cfa_offset 0
	jr	ra
	.cfi_endproc
.LFE2:
	.size	PciBusDriverBindingStart, .-PciBusDriverBindingStart
	.section	.text.PciBusDriverBindingStop,"ax",@progbits
	.align	1
	.globl	PciBusDriverBindingStop
	.type	PciBusDriverBindingStop, @function
PciBusDriverBindingStop:
.LFB3:
	.loc 1 408 1
	.cfi_startproc
	addi	sp,sp,-80
	.cfi_def_cfa_offset 80
	sd	ra,72(sp)
	sd	s0,64(sp)
	.cfi_offset 1, -8
	.cfi_offset 8, -16
	addi	s0,sp,80
	.cfi_def_cfa 8, 0
	sd	a0,-56(s0)
	sd	a1,-64(s0)
	sd	a2,-72(s0)
	sd	a3,-80(s0)
	.loc 1 413 6
	ld	a5,-72(s0)
	bne	a5,zero,.L29
	.loc 1 417 8
	la	a5,gBS
	ld	a5,0(a5)
	ld	a5,288(a5)
	.loc 1 417 5
	ld	a4,-56(s0)
	ld	a4,40(a4)
	ld	a3,-64(s0)
	mv	a2,a4
	la	a1,gEfiDevicePathProtocolGuid
	ld	a0,-64(s0)
	jalr	a5
.LVL13:
	.loc 1 423 8
	la	a5,gBS
	ld	a5,0(a5)
	ld	a5,288(a5)
	.loc 1 423 5
	ld	a4,-56(s0)
	ld	a4,40(a4)
	ld	a3,-64(s0)
	mv	a2,a4
	la	a1,gEfiPciRootBridgeIoProtocolGuid
	ld	a0,-64(s0)
	jalr	a5
.LVL14:
	.loc 1 430 5
	ld	a0,-64(s0)
	call	DestroyRootBridgeByHandle@plt
	.loc 1 434 12
	li	a5,0
	j	.L30
.L29:
	.loc 1 441 22
	li	a5,1
	sb	a5,-25(s0)
	.loc 1 443 14
	sd	zero,-24(s0)
	.loc 1 443 3
	j	.L31
.L33:
	.loc 1 447 64
	ld	a5,-24(s0)
	slli	a5,a5,3
	ld	a4,-80(s0)
	add	a5,a4,a5
	.loc 1 447 14
	ld	a5,0(a5)
	mv	a1,a5
	ld	a0,-64(s0)
	call	DeRegisterPciDevice@plt
	sd	a0,-40(s0)
	.loc 1 449 36
	ld	a5,-40(s0)
	.loc 1 449 8
	bge	a5,zero,.L32
	.loc 1 450 26
	sb	zero,-25(s0)
.L32:
	.loc 1 443 50 discriminator 2
	ld	a5,-24(s0)
	addi	a5,a5,1
	sd	a5,-24(s0)
.L31:
	.loc 1 443 25 discriminator 1
	ld	a4,-24(s0)
	ld	a5,-72(s0)
	bltu	a4,a5,.L33
	.loc 1 454 6
	lbu	a5,-25(s0)
	andi	a5,a5,0xff
	bne	a5,zero,.L34
	.loc 1 455 12
	li	a5,-1
	slli	a5,a5,63
	addi	a5,a5,7
	j	.L30
.L34:
	.loc 1 458 10
	li	a5,0
.L30:
	.loc 1 459 1
	mv	a0,a5
	ld	ra,72(sp)
	.cfi_restore 1
	ld	s0,64(sp)
	.cfi_restore 8
	.cfi_def_cfa 2, 80
	addi	sp,sp,80
	.cfi_def_cfa_offset 0
	jr	ra
	.cfi_endproc
.LFE3:
	.size	PciBusDriverBindingStop, .-PciBusDriverBindingStop
	.text
.Letext0:
	.file 2 "/home/kapoagaeming/spacemit-image-builder/components/edk2/MdePkg/Include/RiscV64/ProcessorBind.h"
	.file 3 "/home/kapoagaeming/spacemit-image-builder/components/edk2/MdePkg/Include/Base.h"
	.file 4 "/home/kapoagaeming/spacemit-image-builder/components/edk2/MdePkg/Include/Uefi/UefiBaseType.h"
	.file 5 "/home/kapoagaeming/spacemit-image-builder/components/edk2/MdePkg/Include/Uefi/UefiMultiPhase.h"
	.file 6 "/home/kapoagaeming/spacemit-image-builder/components/edk2/MdePkg/Include/IndustryStandard/Bluetooth.h"
	.file 7 "/home/kapoagaeming/spacemit-image-builder/components/edk2/MdePkg/Include/Protocol/DevicePath.h"
	.file 8 "/home/kapoagaeming/spacemit-image-builder/components/edk2/MdePkg/Include/Protocol/SimpleTextIn.h"
	.file 9 "/home/kapoagaeming/spacemit-image-builder/components/edk2/MdePkg/Include/Protocol/SimpleTextOut.h"
	.file 10 "/home/kapoagaeming/spacemit-image-builder/components/edk2/MdePkg/Include/Uefi/UefiSpec.h"
	.file 11 "/home/kapoagaeming/spacemit-image-builder/components/Build/Milk-V-Jupiter/RELEASE_GCC5/RISCV64/Silicon/Spacemit/Override/MdeModulePkg/Bus/Pci/PciBusDxe/PciBusDxe/DEBUG/AutoGen.h"
	.file 12 "/home/kapoagaeming/spacemit-image-builder/components/edk2/MdePkg/Include/Pi/PiStatusCode.h"
	.file 13 "/home/kapoagaeming/spacemit-image-builder/components/edk2/MdePkg/Include/Protocol/PciRootBridgeIo.h"
	.file 14 "/home/kapoagaeming/spacemit-image-builder/components/edk2/MdePkg/Include/Protocol/PciHostBridgeResourceAllocation.h"
	.file 15 "/home/kapoagaeming/spacemit-image-builder/components/edk2/MdePkg/Include/Protocol/PciHotPlugRequest.h"
	.file 16 "/home/kapoagaeming/spacemit-image-builder/components/edk2/MdePkg/Include/Protocol/PciPlatform.h"
	.file 17 "/home/kapoagaeming/spacemit-image-builder/components/edk2/MdePkg/Include/Protocol/IncompatiblePciDeviceSupport.h"
	.file 18 "/home/kapoagaeming/spacemit-image-builder/components/edk2/MdePkg/Include/Protocol/PciOverride.h"
	.file 19 "/home/kapoagaeming/spacemit-image-builder/components/edk2/MdeModulePkg/Include/Protocol/IoMmu.h"
	.file 20 "/home/kapoagaeming/spacemit-image-builder/components/edk2/MdeModulePkg/Include/Protocol/DeviceSecurity.h"
	.file 21 "/home/kapoagaeming/spacemit-image-builder/components/edk2/MdePkg/Include/Protocol/DriverBinding.h"
	.file 22 "/home/kapoagaeming/spacemit-image-builder/components/edk2/MdePkg/Include/Protocol/ComponentName.h"
	.file 23 "/home/kapoagaeming/spacemit-image-builder/components/edk2/MdePkg/Include/Protocol/ComponentName2.h"
	.file 24 "/home/kapoagaeming/spacemit-image-builder/components/edk2-platforms/Silicon/Spacemit/Override/MdeModulePkg/Bus/Pci/PciBusDxe/ComponentName.h"
	.file 25 "/home/kapoagaeming/spacemit-image-builder/components/edk2-platforms/Silicon/Spacemit/Override/MdeModulePkg/Bus/Pci/PciBusDxe/PciBus.h"
	.file 26 "/home/kapoagaeming/spacemit-image-builder/components/edk2-platforms/Silicon/Spacemit/Override/MdeModulePkg/Bus/Pci/PciBusDxe/PciDeviceSupport.h"
	.file 27 "/home/kapoagaeming/spacemit-image-builder/components/edk2-platforms/Silicon/Spacemit/Override/MdeModulePkg/Bus/Pci/PciBusDxe/PciEnumeratorSupport.h"
	.file 28 "/home/kapoagaeming/spacemit-image-builder/components/edk2-platforms/Silicon/Spacemit/Override/MdeModulePkg/Bus/Pci/PciBusDxe/PciEnumerator.h"
	.file 29 "/home/kapoagaeming/spacemit-image-builder/components/edk2/MdePkg/Include/Library/ReportStatusCodeLib.h"
	.file 30 "/home/kapoagaeming/spacemit-image-builder/components/edk2/MdePkg/Include/Library/DevicePathLib.h"
	.file 31 "/home/kapoagaeming/spacemit-image-builder/components/edk2/MdePkg/Include/Library/UefiLib.h"
	.file 32 "/home/kapoagaeming/spacemit-image-builder/components/edk2/MdePkg/Include/Library/UefiBootServicesTableLib.h"
	.section	.note.GNU-stack,"",@progbits
