	.file	"PciDriverOverride.c"
	.option pic
	.option norelax
	.attribute arch, "rv64i2p1_m2p0_a2p1_f2p2_d2p2_c2p0_zicsr2p0_zifencei2p0_zmmul1p0_zaamo1p0_zalrsc1p0_zca1p0_zcd1p0"
	.attribute unaligned_access, 0
	.attribute stack_align, 16
	.text
.Ltext0:
	.cfi_sections	.debug_frame
	.file 0 "/home/kapoagaeming/Downloads/spacemit-image-builder/components/Build/Milk-V-Jupiter/RELEASE_GCC5/RISCV64/Silicon/Spacemit/Override/MdeModulePkg/Bus/Pci/PciBusDxe/PciBusDxe" "/home/kapoagaeming/Downloads/spacemit-image-builder/components/edk2-platforms/Silicon/Spacemit/Override/MdeModulePkg/Bus/Pci/PciBusDxe/PciDriverOverride.c"
	.section	.text.InitializePciDriverOverrideInstance,"ax",@progbits
	.align	1
	.globl	InitializePciDriverOverrideInstance
	.type	InitializePciDriverOverrideInstance, @function
InitializePciDriverOverrideInstance:
.LFB0:
	.file 1 "/home/kapoagaeming/Downloads/spacemit-image-builder/components/edk2-platforms/Silicon/Spacemit/Override/MdeModulePkg/Bus/Pci/PciBusDxe/PciDriverOverride.c"
	.loc 1 21 1
	.cfi_startproc
	addi	sp,sp,-32
	.cfi_def_cfa_offset 32
	sd	ra,24(sp)
	sd	s0,16(sp)
	.cfi_offset 1, -8
	.cfi_offset 8, -16
	addi	s0,sp,32
	.cfi_def_cfa 8, 0
	sd	a0,-24(s0)
	.loc 1 22 44
	ld	a5,-24(s0)
	lla	a4,GetDriver
	sd	a4,192(a5)
	.loc 1 23 1
	nop
	ld	ra,24(sp)
	.cfi_restore 1
	ld	s0,16(sp)
	.cfi_restore 8
	.cfi_def_cfa 2, 32
	addi	sp,sp,32
	.cfi_def_cfa_offset 0
	jr	ra
	.cfi_endproc
.LFE0:
	.size	InitializePciDriverOverrideInstance, .-InitializePciDriverOverrideInstance
	.section	.text.LocateImageHandle,"ax",@progbits
	.align	1
	.globl	LocateImageHandle
	.type	LocateImageHandle, @function
LocateImageHandle:
.LFB1:
	.loc 1 36 1
	.cfi_startproc
	addi	sp,sp,-96
	.cfi_def_cfa_offset 96
	sd	ra,88(sp)
	sd	s0,80(sp)
	.cfi_offset 1, -8
	.cfi_offset 8, -16
	addi	s0,sp,96
	.cfi_def_cfa 8, 0
	sd	a0,-88(s0)
	.loc 1 45 15
	la	a5,gBS
	ld	a5,0(a5)
	ld	a5,312(a5)
	.loc 1 45 12
	addi	a4,s0,-56
	addi	a3,s0,-64
	li	a2,0
	la	a1,gEfiLoadedImageDevicePathProtocolGuid
	li	a0,2
	jalr	a5
.LVL0:
	sd	a0,-40(s0)
	.loc 1 52 34
	ld	a5,-40(s0)
	.loc 1 52 6
	bge	a5,zero,.L3
	.loc 1 53 12
	li	a5,0
	j	.L10
.L3:
	.loc 1 56 15
	sd	zero,-32(s0)
	.loc 1 57 19
	ld	a0,-88(s0)
	call	GetDevicePathSize@plt
	sd	a0,-48(s0)
	.loc 1 59 14
	sd	zero,-24(s0)
	.loc 1 59 3
	j	.L5
.L9:
	.loc 1 60 17
	la	a5,gBS
	ld	a5,0(a5)
	ld	a5,152(a5)
	.loc 1 60 42
	ld	a3,-56(s0)
	ld	a4,-24(s0)
	slli	a4,a4,3
	add	a4,a3,a4
	.loc 1 60 14
	ld	a4,0(a4)
	addi	a3,s0,-72
	mv	a2,a3
	la	a1,gEfiLoadedImageDevicePathProtocolGuid
	mv	a0,a4
	jalr	a5
.LVL1:
	sd	a0,-40(s0)
	.loc 1 61 36
	ld	a5,-40(s0)
	.loc 1 61 8
	blt	a5,zero,.L11
	.loc 1 65 27
	ld	a5,-72(s0)
	mv	a0,a5
	call	GetDevicePathSize@plt
	mv	a4,a0
	.loc 1 65 8 discriminator 1
	ld	a5,-48(s0)
	bne	a5,a4,.L7
	.loc 1 66 10
	ld	a5,-72(s0)
	ld	a2,-48(s0)
	mv	a1,a5
	ld	a0,-88(s0)
	call	CompareMem@plt
	mv	a5,a0
	.loc 1 65 59 discriminator 2
	bne	a5,zero,.L7
	.loc 1 69 28
	ld	a4,-56(s0)
	ld	a5,-24(s0)
	slli	a5,a5,3
	add	a5,a4,a5
	.loc 1 69 19
	ld	a5,0(a5)
	sd	a5,-32(s0)
	.loc 1 70 7
	j	.L8
.L11:
	.loc 1 62 7
	nop
.L7:
	.loc 1 59 43 discriminator 2
	ld	a5,-24(s0)
	addi	a5,a5,1
	sd	a5,-24(s0)
.L5:
	.loc 1 59 25 discriminator 1
	ld	a5,-64(s0)
	ld	a4,-24(s0)
	bltu	a4,a5,.L9
.L8:
	.loc 1 74 3
	ld	a5,-56(s0)
	mv	a0,a5
	call	FreePool@plt
	.loc 1 75 10
	ld	a5,-32(s0)
.L10:
	.loc 1 76 1
	mv	a0,a5
	ld	ra,88(sp)
	.cfi_restore 1
	ld	s0,80(sp)
	.cfi_restore 8
	.cfi_def_cfa 2, 96
	addi	sp,sp,96
	.cfi_def_cfa_offset 0
	jr	ra
	.cfi_endproc
.LFE1:
	.size	LocateImageHandle, .-LocateImageHandle
	.section	.text.GetDriver,"ax",@progbits
	.align	1
	.globl	GetDriver
	.type	GetDriver, @function
GetDriver:
.LFB2:
	.loc 1 100 1
	.cfi_startproc
	addi	sp,sp,-64
	.cfi_def_cfa_offset 64
	sd	ra,56(sp)
	sd	s0,48(sp)
	.cfi_offset 1, -8
	.cfi_offset 8, -16
	addi	s0,sp,64
	.cfi_def_cfa 8, 0
	sd	a0,-56(s0)
	sd	a1,-64(s0)
	.loc 1 106 12
	sd	zero,-40(s0)
	.loc 1 107 19
	ld	a5,-56(s0)
	addi	a5,a5,-192
	.loc 1 107 130
	lw	a4,0(a5)
	.loc 1 107 215
	li	a5,1869176832
	addi	a5,a5,880
	bne	a4,a5,.L13
	.loc 1 107 15 discriminator 1
	ld	a5,-56(s0)
	addi	a5,a5,-192
	sd	a5,-24(s0)
	j	.L14
.L13:
	.loc 1 107 15 is_stmt 0 discriminator 2
	sd	zero,-24(s0)
.L14:
	.loc 1 108 26 is_stmt 1
	ld	a5,-64(s0)
	ld	a5,0(a5)
	.loc 1 108 16
	seqz	a5,a5
	andi	a5,a5,0xff
	.loc 1 108 14
	sb	a5,-41(s0)
	.loc 1 109 30
	ld	a5,-24(s0)
	addi	a5,a5,568
	.loc 1 109 16
	mv	a0,a5
	call	GetFirstNode@plt
	sd	a0,-32(s0)
	.loc 1 109 3
	j	.L15
.L23:
	.loc 1 114 18
	ld	a5,-32(s0)
	addi	a5,a5,-8
	.loc 1 114 138
	lw	a4,0(a5)
	.loc 1 114 223
	li	a5,1987014656
	addi	a5,a5,612
	bne	a4,a5,.L16
	.loc 1 114 14 discriminator 1
	ld	a5,-32(s0)
	addi	a5,a5,-8
	sd	a5,-40(s0)
	j	.L17
.L16:
	.loc 1 114 14 is_stmt 0 discriminator 2
	sd	zero,-40(s0)
.L17:
	.loc 1 116 8 is_stmt 1
	lbu	a5,-41(s0)
	andi	a5,a5,0xff
	beq	a5,zero,.L18
	.loc 1 117 19
	ld	a5,-40(s0)
	ld	a5,24(a5)
	.loc 1 117 10
	bne	a5,zero,.L19
	.loc 1 118 39
	ld	a5,-40(s0)
	ld	a5,32(a5)
	mv	a0,a5
	call	LocateImageHandle
	mv	a4,a0
	.loc 1 118 37 discriminator 1
	ld	a5,-40(s0)
	sd	a4,24(a5)
.L19:
	.loc 1 121 19
	ld	a5,-40(s0)
	ld	a5,24(a5)
	.loc 1 121 10
	beq	a5,zero,.L25
	.loc 1 127 38
	ld	a5,-40(s0)
	ld	a4,24(a5)
	.loc 1 127 28
	ld	a5,-64(s0)
	sd	a4,0(a5)
	.loc 1 128 16
	li	a5,0
	j	.L22
.L18:
	.loc 1 132 9
	ld	a5,-64(s0)
	ld	a4,0(a5)
	.loc 1 132 39
	ld	a5,-40(s0)
	ld	a5,24(a5)
	.loc 1 132 8
	bne	a4,a5,.L21
	.loc 1 133 18
	li	a5,1
	sb	a5,-41(s0)
	j	.L21
.L25:
	.loc 1 125 9
	nop
.L21:
	.loc 1 111 31
	ld	a5,-24(s0)
	addi	a5,a5,568
	.loc 1 111 18
	ld	a1,-32(s0)
	mv	a0,a5
	call	GetNextNode@plt
	sd	a0,-32(s0)
.L15:
	.loc 1 110 20
	ld	a5,-24(s0)
	addi	a5,a5,568
	.loc 1 110 12
	ld	a1,-32(s0)
	mv	a0,a5
	call	IsNull@plt
	mv	a5,a0
	.loc 1 110 11 discriminator 1
	beq	a5,zero,.L23
	.loc 1 143 6
	lbu	a5,-41(s0)
	andi	a5,a5,0xff
	beq	a5,zero,.L24
	.loc 1 144 12
	li	a5,-1
	slli	a5,a5,63
	addi	a5,a5,14
	j	.L22
.L24:
	.loc 1 146 12
	li	a5,-1
	slli	a5,a5,63
	addi	a5,a5,2
.L22:
	.loc 1 148 1
	mv	a0,a5
	ld	ra,56(sp)
	.cfi_restore 1
	ld	s0,48(sp)
	.cfi_restore 8
	.cfi_def_cfa 2, 64
	addi	sp,sp,64
	.cfi_def_cfa_offset 0
	jr	ra
	.cfi_endproc
.LFE2:
	.size	GetDriver, .-GetDriver
	.section	.text.AddDriver,"ax",@progbits
	.align	1
	.globl	AddDriver
	.type	AddDriver, @function
AddDriver:
.LFB3:
	.loc 1 168 1
	.cfi_startproc
	addi	sp,sp,-64
	.cfi_def_cfa_offset 64
	sd	ra,56(sp)
	sd	s0,48(sp)
	.cfi_offset 1, -8
	.cfi_offset 8, -16
	addi	s0,sp,64
	.cfi_def_cfa 8, 0
	sd	a0,-40(s0)
	sd	a1,-48(s0)
	sd	a2,-56(s0)
	.loc 1 176 10
	li	a0,40
	call	AllocateZeroPool@plt
	sd	a0,-24(s0)
	.loc 1 177 6
	ld	a5,-24(s0)
	bne	a5,zero,.L27
	.loc 1 178 12
	li	a5,-1
	slli	a5,a5,63
	addi	a5,a5,9
	j	.L28
.L27:
	.loc 1 181 19
	ld	a5,-24(s0)
	li	a4,1987014656
	addi	a4,a4,612
	sw	a4,0(a5)
	.loc 1 182 27
	ld	a5,-24(s0)
	ld	a4,-48(s0)
	sd	a4,24(a5)
	.loc 1 183 27
	ld	a0,-56(s0)
	call	DuplicateDevicePath@plt
	mv	a4,a0
	.loc 1 183 25 discriminator 1
	ld	a5,-24(s0)
	sd	a4,32(a5)
	.loc 1 185 3
	ld	a5,-40(s0)
	addi	a4,a5,568
	ld	a5,-24(s0)
	addi	a5,a5,8
	mv	a1,a5
	mv	a0,a4
	call	InsertTailList@plt
	.loc 1 187 28
	ld	a5,-40(s0)
	li	a4,1
	sb	a4,549(a5)
	.loc 1 188 10
	li	a5,0
.L28:
	.loc 1 189 1
	mv	a0,a5
	ld	ra,56(sp)
	.cfi_restore 1
	ld	s0,48(sp)
	.cfi_restore 8
	.cfi_def_cfa 2, 64
	addi	sp,sp,64
	.cfi_def_cfa_offset 0
	jr	ra
	.cfi_endproc
.LFE3:
	.size	AddDriver, .-AddDriver
	.text
.Letext0:
	.file 2 "/home/kapoagaeming/Downloads/spacemit-image-builder/components/edk2/MdePkg/Include/RiscV64/ProcessorBind.h"
	.file 3 "/home/kapoagaeming/Downloads/spacemit-image-builder/components/edk2/MdePkg/Include/Base.h"
	.file 4 "/home/kapoagaeming/Downloads/spacemit-image-builder/components/edk2/MdePkg/Include/Uefi/UefiBaseType.h"
	.file 5 "/home/kapoagaeming/Downloads/spacemit-image-builder/components/edk2/MdePkg/Include/Uefi/UefiMultiPhase.h"
	.file 6 "/home/kapoagaeming/Downloads/spacemit-image-builder/components/edk2/MdePkg/Include/IndustryStandard/Acpi10.h"
	.file 7 "/home/kapoagaeming/Downloads/spacemit-image-builder/components/edk2/MdePkg/Include/Protocol/DevicePath.h"
	.file 8 "/home/kapoagaeming/Downloads/spacemit-image-builder/components/edk2/MdePkg/Include/Uefi/UefiSpec.h"
	.file 9 "/home/kapoagaeming/Downloads/spacemit-image-builder/components/edk2/MdePkg/Include/Protocol/PciRootBridgeIo.h"
	.file 10 "/home/kapoagaeming/Downloads/spacemit-image-builder/components/edk2/MdePkg/Include/Protocol/PciIo.h"
	.file 11 "/home/kapoagaeming/Downloads/spacemit-image-builder/components/edk2/MdePkg/Include/Protocol/LoadFile2.h"
	.file 12 "/home/kapoagaeming/Downloads/spacemit-image-builder/components/edk2/MdePkg/Include/Protocol/PciHotPlugInit.h"
	.file 13 "/home/kapoagaeming/Downloads/spacemit-image-builder/components/edk2/MdePkg/Include/Protocol/BusSpecificDriverOverride.h"
	.file 14 "/home/kapoagaeming/Downloads/spacemit-image-builder/components/edk2/MdePkg/Include/IndustryStandard/Pci22.h"
	.file 15 "/home/kapoagaeming/Downloads/spacemit-image-builder/components/edk2-platforms/Silicon/Spacemit/Override/MdeModulePkg/Bus/Pci/PciBusDxe/PciBus.h"
	.file 16 "/home/kapoagaeming/Downloads/spacemit-image-builder/components/edk2-platforms/Silicon/Spacemit/Override/MdeModulePkg/Bus/Pci/PciBusDxe/PciDriverOverride.h"
	.file 17 "/home/kapoagaeming/Downloads/spacemit-image-builder/components/edk2/MdePkg/Include/Library/BaseLib.h"
	.file 18 "/home/kapoagaeming/Downloads/spacemit-image-builder/components/edk2/MdePkg/Include/Library/DevicePathLib.h"
	.file 19 "/home/kapoagaeming/Downloads/spacemit-image-builder/components/edk2/MdePkg/Include/Library/MemoryAllocationLib.h"
	.file 20 "/home/kapoagaeming/Downloads/spacemit-image-builder/components/edk2/MdePkg/Include/Library/BaseMemoryLib.h"
	.file 21 "/home/kapoagaeming/Downloads/spacemit-image-builder/components/Build/Milk-V-Jupiter/RELEASE_GCC5/RISCV64/Silicon/Spacemit/Override/MdeModulePkg/Bus/Pci/PciBusDxe/PciBusDxe/DEBUG/AutoGen.h"
	.file 22 "/home/kapoagaeming/Downloads/spacemit-image-builder/components/edk2/MdePkg/Include/Library/UefiBootServicesTableLib.h"
	.section	.note.GNU-stack,"",@progbits
