	.file	"PciEnumeratorSupport.c"
	.option pic
	.option norelax
	.attribute arch, "rv64i2p1_m2p0_a2p1_f2p2_d2p2_c2p0_zicsr2p0_zifencei2p0_zmmul1p0_zaamo1p0_zalrsc1p0_zca1p0_zcd1p0"
	.attribute unaligned_access, 0
	.attribute stack_align, 16
	.text
.Ltext0:
	.cfi_sections	.debug_frame
	.file 0 "/home/kapoagaeming/spacemit-image-builder/components/Build/Milk-V-Jupiter/RELEASE_GCC5/RISCV64/Silicon/Spacemit/Override/MdeModulePkg/Bus/Pci/PciBusDxe/PciBusDxe" "/home/kapoagaeming/spacemit-image-builder/components/edk2-platforms/Silicon/Spacemit/Override/MdeModulePkg/Bus/Pci/PciBusDxe/PciEnumeratorSupport.c"
	.section	.text.PciDevicePresent,"ax",@progbits
	.align	1
	.globl	PciDevicePresent
	.type	PciDevicePresent, @function
PciDevicePresent:
.LFB0:
	.file 1 "/home/kapoagaeming/spacemit-image-builder/components/edk2-platforms/Silicon/Spacemit/Override/MdeModulePkg/Bus/Pci/PciBusDxe/PciEnumeratorSupport.c"
	.loc 1 42 1
	.cfi_startproc
	addi	sp,sp,-64
	.cfi_def_cfa_offset 64
	sd	ra,56(sp)
	sd	s0,48(sp)
	.cfi_offset 1, -8
	.cfi_offset 8, -16
	addi	s0,sp,64
	.cfi_def_cfa 8, 0
	sd	a0,-40(s0)
	sd	a1,-48(s0)
	mv	a5,a2
	sb	a5,-49(s0)
	mv	a5,a3
	sb	a5,-50(s0)
	mv	a5,a4
	sb	a5,-51(s0)
	.loc 1 49 26
	lbu	a5,-49(s0)
	.loc 1 49 39
	slli	a4,a5,24
	.loc 1 49 50
	lbu	a5,-50(s0)
	.loc 1 49 66
	slli	a5,a5,16
	.loc 1 49 46
	or	a4,a4,a5
	.loc 1 49 77
	lbu	a5,-51(s0)
	.loc 1 49 91
	slli	a5,a5,8
	.loc 1 49 11
	or	a5,a4,a5
	sd	a5,-24(s0)
	.loc 1 54 32
	ld	a5,-40(s0)
	ld	a5,56(a5)
	.loc 1 54 12
	ld	a4,-48(s0)
	li	a3,1
	ld	a2,-24(s0)
	li	a1,2
	ld	a0,-40(s0)
	jalr	a5
.LVL0:
	sd	a0,-32(s0)
	.loc 1 62 7
	ld	a5,-32(s0)
	.loc 1 62 6
	blt	a5,zero,.L2
	.loc 1 62 75 discriminator 1
	ld	a5,-48(s0)
	lbu	a4,0(a5)
	lbu	a5,1(a5)
	slli	a5,a5,8
	or	a5,a5,a4
	slli	a5,a5,48
	srli	a5,a5,48
	.loc 1 62 61 discriminator 1
	sext.w	a4,a5
	li	a5,65536
	addi	a5,a5,-1
	beq	a4,a5,.L2
	.loc 1 66 34
	ld	a5,-40(s0)
	ld	a5,56(a5)
	.loc 1 66 14
	ld	a4,-48(s0)
	li	a3,16
	ld	a2,-24(s0)
	li	a1,2
	ld	a0,-40(s0)
	jalr	a5
.LVL1:
	sd	a0,-32(s0)
	.loc 1 74 12
	li	a5,0
	j	.L3
.L2:
	.loc 1 77 10
	li	a5,-1
	slli	a5,a5,63
	addi	a5,a5,14
.L3:
	.loc 1 78 1
	mv	a0,a5
	ld	ra,56(sp)
	.cfi_restore 1
	ld	s0,48(sp)
	.cfi_restore 8
	.cfi_def_cfa 2, 64
	addi	sp,sp,64
	.cfi_def_cfa_offset 0
	jr	ra
	.cfi_endproc
.LFE0:
	.size	PciDevicePresent, .-PciDevicePresent
	.section	.text.PciPciDeviceInfoCollector,"ax",@progbits
	.align	1
	.globl	PciPciDeviceInfoCollector
	.type	PciPciDeviceInfoCollector, @function
PciPciDeviceInfoCollector:
.LFB1:
	.loc 1 98 1
	.cfi_startproc
	addi	sp,sp,-144
	.cfi_def_cfa_offset 144
	sd	ra,136(sp)
	sd	s0,128(sp)
	.cfi_offset 1, -8
	.cfi_offset 8, -16
	addi	s0,sp,144
	.cfi_def_cfa 8, 0
	sd	a0,-136(s0)
	mv	a5,a1
	sb	a5,-137(s0)
	.loc 1 107 10
	sd	zero,-32(s0)
	.loc 1 108 10
	sb	zero,-105(s0)
	.loc 1 110 15
	sb	zero,-17(s0)
	.loc 1 110 3
	j	.L5
.L18:
	.loc 1 111 9
	ld	a0,-136(s0)
	call	PciScanOnlyDevice0@plt
	mv	a5,a0
	.loc 1 111 8 discriminator 1
	beq	a5,zero,.L6
	.loc 1 111 37 discriminator 2
	lbu	a5,-17(s0)
	andi	a5,a5,0xff
	bne	a5,zero,.L20
.L6:
	.loc 1 115 15
	sb	zero,-18(s0)
	.loc 1 115 5
	j	.L8
.L17:
	.loc 1 119 16
	ld	a5,-136(s0)
	ld	a5,208(a5)
	lbu	a4,-18(s0)
	lbu	a3,-17(s0)
	lbu	a2,-137(s0)
	addi	a1,s0,-104
	mv	a0,a5
	call	PciDevicePresent
	sd	a0,-32(s0)
	.loc 1 127 38
	ld	a5,-32(s0)
	.loc 1 127 10
	bge	a5,zero,.L9
	.loc 1 127 64 discriminator 1
	lbu	a5,-18(s0)
	andi	a5,a5,0xff
	beq	a5,zero,.L21
.L9:
	.loc 1 134 11
	ld	a5,-32(s0)
	.loc 1 134 10
	blt	a5,zero,.L11
	.loc 1 138 9
	lbu	a3,-18(s0)
	lbu	a2,-17(s0)
	lbu	a5,-137(s0)
	li	a4,1
	mv	a1,a5
	ld	a0,-136(s0)
	call	PreprocessController@plt
	.loc 1 143 18
	addi	a5,s0,-120
	lbu	a4,-18(s0)
	lbu	a3,-17(s0)
	lbu	a2,-137(s0)
	addi	a1,s0,-104
	ld	a0,-136(s0)
	call	PciSearchDevice
	sd	a0,-32(s0)
	.loc 1 156 13
	ld	a5,-32(s0)
	.loc 1 156 12
	blt	a5,zero,.L12
	.loc 1 156 84 discriminator 1
	lbu	a5,-90(s0)
	.loc 1 156 96 discriminator 1
	sext.w	a5,a5
	andi	a5,a5,127
	sext.w	a4,a5
	.loc 1 156 67 discriminator 1
	li	a5,1
	beq	a4,a5,.L13
	.loc 1 156 131 discriminator 2
	lbu	a5,-90(s0)
	.loc 1 156 143 discriminator 2
	sext.w	a5,a5
	andi	a5,a5,127
	sext.w	a4,a5
	.loc 1 156 115 discriminator 2
	li	a5,2
	bne	a4,a5,.L12
.L13:
	.loc 1 160 32
	ld	a5,-120(s0)
	.loc 1 160 17
	addi	a5,a5,16
	sd	a5,-40(s0)
	.loc 1 162 30
	ld	a5,-40(s0)
	ld	a5,48(a5)
	.loc 1 162 20
	addi	a4,s0,-105
	li	a3,1
	li	a2,25
	li	a1,0
	ld	a0,-40(s0)
	jalr	a5
.LVL2:
	sd	a0,-32(s0)
	.loc 1 164 42
	ld	a5,-32(s0)
	.loc 1 164 14
	bge	a5,zero,.L14
	.loc 1 165 20
	ld	a5,-32(s0)
	j	.L19
.L14:
	.loc 1 172 22
	lbu	a4,-105(s0)
	.loc 1 172 14
	lbu	a5,-137(s0)
	andi	a5,a5,0xff
	bgeu	a5,a4,.L22
	.loc 1 179 11
	ld	a5,-120(s0)
	mv	a0,a5
	call	GetResourcePaddingPpb@plt
	.loc 1 184 20
	ld	a5,-120(s0)
	lbu	a4,-105(s0)
	mv	a1,a4
	mv	a0,a5
	call	PciPciDeviceInfoCollector
	sd	a0,-32(s0)
.L12:
	.loc 1 190 12
	lbu	a5,-18(s0)
	andi	a5,a5,0xff
	bne	a5,zero,.L11
	.loc 1 190 41 discriminator 1
	lbu	a5,-90(s0)
	.loc 1 190 28 discriminator 1
	slliw	a5,a5,24
	sraiw	a5,a5,24
	.loc 1 190 25 discriminator 1
	blt	a5,zero,.L11
	.loc 1 194 16
	li	a5,7
	sb	a5,-18(s0)
.L11:
	.loc 1 115 35 discriminator 2
	lbu	a5,-18(s0)
	addiw	a5,a5,1
	sb	a5,-18(s0)
.L8:
	.loc 1 115 25 discriminator 1
	lbu	a5,-18(s0)
	andi	a4,a5,0xff
	li	a5,7
	bleu	a4,a5,.L17
	j	.L10
.L21:
	.loc 1 131 9
	nop
	j	.L10
.L22:
	.loc 1 173 13
	nop
.L10:
	.loc 1 110 40 discriminator 2
	lbu	a5,-17(s0)
	addiw	a5,a5,1
	sb	a5,-17(s0)
.L5:
	.loc 1 110 27 discriminator 1
	lbu	a5,-17(s0)
	andi	a4,a5,0xff
	li	a5,31
	bleu	a4,a5,.L18
	j	.L7
.L20:
	.loc 1 112 7
	nop
.L7:
	.loc 1 200 10
	li	a5,0
.L19:
	.loc 1 201 1
	mv	a0,a5
	ld	ra,136(sp)
	.cfi_restore 1
	ld	s0,128(sp)
	.cfi_restore 8
	.cfi_def_cfa 2, 144
	addi	sp,sp,144
	.cfi_def_cfa_offset 0
	jr	ra
	.cfi_endproc
.LFE1:
	.size	PciPciDeviceInfoCollector, .-PciPciDeviceInfoCollector
	.section	.text.PciSearchDevice,"ax",@progbits
	.align	1
	.globl	PciSearchDevice
	.type	PciSearchDevice, @function
PciSearchDevice:
.LFB2:
	.loc 1 226 1
	.cfi_startproc
	addi	sp,sp,-64
	.cfi_def_cfa_offset 64
	sd	ra,56(sp)
	sd	s0,48(sp)
	.cfi_offset 1, -8
	.cfi_offset 8, -16
	addi	s0,sp,64
	.cfi_def_cfa 8, 0
	sd	a0,-40(s0)
	sd	a1,-48(s0)
	sd	a5,-64(s0)
	mv	a5,a2
	sb	a5,-49(s0)
	mv	a5,a3
	sb	a5,-50(s0)
	mv	a5,a4
	sb	a5,-51(s0)
	.loc 1 230 15
	sd	zero,-24(s0)
	.loc 1 231 19
	sb	zero,-25(s0)
	.loc 1 246 20
	ld	a5,-48(s0)
	lbu	a5,14(a5)
	.loc 1 246 32
	sext.w	a5,a5
	andi	a5,a5,127
	sext.w	a4,a5
	.loc 1 246 6
	li	a5,1
	beq	a4,a5,.L24
	.loc 1 247 21
	ld	a5,-48(s0)
	lbu	a5,14(a5)
	.loc 1 247 33
	sext.w	a5,a5
	andi	a5,a5,127
	sext.w	a4,a5
	.loc 1 247 8
	li	a5,2
	bne	a4,a5,.L25
	.loc 1 248 21
	lbu	a4,-51(s0)
	lbu	a3,-50(s0)
	lbu	a5,-49(s0)
	mv	a2,a5
	ld	a1,-48(s0)
	ld	a0,-40(s0)
	call	GatherP2CInfo
	sd	a0,-24(s0)
	.loc 1 255 10
	ld	a5,-24(s0)
	beq	a5,zero,.L26
	.loc 1 255 41 discriminator 1
	la	a5,gFullEnumeration
	lbu	a5,0(a5)
	beq	a5,zero,.L26
	.loc 1 256 9
	ld	a0,-24(s0)
	call	InitializeP2C
	j	.L26
.L25:
	.loc 1 262 21
	lbu	a4,-51(s0)
	lbu	a3,-50(s0)
	lbu	a5,-49(s0)
	mv	a2,a5
	ld	a1,-48(s0)
	ld	a0,-40(s0)
	call	GatherDeviceInfo
	sd	a0,-24(s0)
	j	.L26
.L24:
	.loc 1 274 19
	lbu	a4,-51(s0)
	lbu	a3,-50(s0)
	lbu	a5,-49(s0)
	mv	a2,a5
	ld	a1,-48(s0)
	ld	a0,-40(s0)
	call	GatherPpbInfo
	sd	a0,-24(s0)
	.loc 1 285 8
	ld	a5,-24(s0)
	beq	a5,zero,.L26
	.loc 1 285 39 discriminator 1
	la	a5,gFullEnumeration
	lbu	a5,0(a5)
	beq	a5,zero,.L26
	.loc 1 286 7
	ld	a0,-24(s0)
	call	InitializePpb
.L26:
	.loc 1 290 6
	ld	a5,-24(s0)
	bne	a5,zero,.L27
	.loc 1 291 12
	li	a5,-1
	slli	a5,a5,63
	addi	a5,a5,9
	j	.L33
.L27:
	.loc 1 297 3
	addi	a5,s0,-25
	mv	a1,a5
	ld	a0,-24(s0)
	call	UpdatePciInfo
	.loc 1 299 18
	ld	a5,-24(s0)
	ld	a5,200(a5)
	.loc 1 299 6
	bne	a5,zero,.L29
	.loc 1 300 12
	li	a5,-1
	slli	a5,a5,63
	addi	a5,a5,9
	j	.L33
.L29:
	.loc 1 306 7
	la	a5,gFullEnumeration
	lbu	a5,0(a5)
	.loc 1 306 6
	beq	a5,zero,.L30
	.loc 1 307 22
	ld	a5,-48(s0)
	lbu	a5,14(a5)
	.loc 1 307 34
	sext.w	a5,a5
	andi	a5,a5,127
	sext.w	a4,a5
	.loc 1 307 8
	li	a5,2
	beq	a4,a5,.L31
	.loc 1 307 56 discriminator 1
	lbu	a5,-25(s0)
	.loc 1 307 53 discriminator 1
	bne	a5,zero,.L31
	.loc 1 308 7
	ld	a0,-24(s0)
	call	GetOpRomInfo@plt
.L31:
	.loc 1 311 5
	ld	a0,-24(s0)
	call	ResetPowerManagementFeature@plt
.L30:
	.loc 1 317 3
	ld	a1,-24(s0)
	ld	a0,-40(s0)
	call	InsertPciDevice@plt
	.loc 1 323 6
	ld	a5,-64(s0)
	beq	a5,zero,.L32
	.loc 1 324 16
	ld	a5,-64(s0)
	ld	a4,-24(s0)
	sd	a4,0(a5)
.L32:
	.loc 1 327 10
	li	a5,0
.L33:
	.loc 1 328 1
	mv	a0,a5
	ld	ra,56(sp)
	.cfi_restore 1
	ld	s0,48(sp)
	.cfi_restore 8
	.cfi_def_cfa 2, 64
	addi	sp,sp,64
	.cfi_def_cfa_offset 0
	jr	ra
	.cfi_endproc
.LFE2:
	.size	PciSearchDevice, .-PciSearchDevice
	.section	.text.DumpPpbPaddingResource,"ax",@progbits
	.align	1
	.globl	DumpPpbPaddingResource
	.type	DumpPpbPaddingResource, @function
DumpPpbPaddingResource:
.LFB3:
	.loc 1 342 1
	.cfi_startproc
	addi	sp,sp,-48
	.cfi_def_cfa_offset 48
	sd	ra,40(sp)
	sd	s0,32(sp)
	.cfi_offset 1, -8
	.cfi_offset 8, -16
	addi	s0,sp,48
	.cfi_def_cfa 8, 0
	sd	a0,-40(s0)
	mv	a5,a1
	sw	a5,-44(s0)
	.loc 1 346 18
	ld	a5,-40(s0)
	ld	a5,584(a5)
	.loc 1 346 6
	beq	a5,zero,.L47
	.loc 1 350 6
	lw	a5,-44(s0)
	sext.w	a4,a5
	li	a5,1
	beq	a4,a5,.L37
	.loc 1 350 40 discriminator 1
	lw	a5,-44(s0)
	sext.w	a4,a5
	li	a5,2
	bne	a4,a5,.L38
.L37:
	.loc 1 351 18
	li	a5,8
	sw	a5,-44(s0)
.L38:
	.loc 1 354 19
	ld	a5,-40(s0)
	ld	a5,584(a5)
	sd	a5,-24(s0)
	.loc 1 354 3
	j	.L39
.L45:
	.loc 1 355 10
	sw	zero,-28(s0)
	.loc 1 356 20
	ld	a5,-24(s0)
	lbu	a5,0(a5)
	.loc 1 356 8
	mv	a4,a5
	li	a5,138
	bne	a4,a5,.L40
	.loc 1 356 50 discriminator 1
	ld	a5,-24(s0)
	lbu	a5,3(a5)
	.loc 1 356 36 discriminator 1
	mv	a4,a5
	li	a5,1
	bne	a4,a5,.L40
	.loc 1 357 12
	li	a5,8
	sw	a5,-28(s0)
	j	.L46
.L40:
	.loc 1 358 27
	ld	a5,-24(s0)
	lbu	a5,0(a5)
	.loc 1 358 15
	mv	a4,a5
	li	a5,138
	bne	a4,a5,.L46
	.loc 1 358 57 discriminator 1
	ld	a5,-24(s0)
	lbu	a5,3(a5)
	.loc 1 358 43 discriminator 1
	bne	a5,zero,.L46
	.loc 1 359 21
	ld	a5,-24(s0)
	lbu	a4,6(a5)
	lbu	a3,7(a5)
	slli	a3,a3,8
	or	a4,a3,a4
	lbu	a3,8(a5)
	slli	a3,a3,16
	or	a4,a3,a4
	lbu	a3,9(a5)
	slli	a3,a3,24
	or	a4,a3,a4
	lbu	a3,10(a5)
	slli	a3,a3,32
	or	a4,a3,a4
	lbu	a3,11(a5)
	slli	a3,a3,40
	or	a4,a3,a4
	lbu	a3,12(a5)
	slli	a3,a3,48
	or	a4,a3,a4
	lbu	a5,13(a5)
	slli	a5,a5,56
	or	a5,a5,a4
	mv	a4,a5
	.loc 1 359 10
	li	a5,32
	bne	a4,a5,.L42
	.loc 1 363 23
	ld	a5,-24(s0)
	lbu	a5,5(a5)
	.loc 1 363 12
	mv	a4,a5
	li	a5,6
	bne	a4,a5,.L43
	.loc 1 364 16
	li	a5,4
	sw	a5,-28(s0)
.L43:
	.loc 1 370 23
	ld	a5,-24(s0)
	lbu	a5,5(a5)
	.loc 1 370 12
	bne	a5,zero,.L42
	.loc 1 371 16
	li	a5,3
	sw	a5,-28(s0)
.L42:
	.loc 1 375 21
	ld	a5,-24(s0)
	lbu	a4,6(a5)
	lbu	a3,7(a5)
	slli	a3,a3,8
	or	a4,a3,a4
	lbu	a3,8(a5)
	slli	a3,a3,16
	or	a4,a3,a4
	lbu	a3,9(a5)
	slli	a3,a3,24
	or	a4,a3,a4
	lbu	a3,10(a5)
	slli	a3,a3,32
	or	a4,a3,a4
	lbu	a3,11(a5)
	slli	a3,a3,40
	or	a4,a3,a4
	lbu	a3,12(a5)
	slli	a3,a3,48
	or	a4,a3,a4
	lbu	a5,13(a5)
	slli	a5,a5,56
	or	a5,a5,a4
	mv	a4,a5
	.loc 1 375 10
	li	a5,64
	bne	a4,a5,.L46
	.loc 1 379 23
	ld	a5,-24(s0)
	lbu	a5,5(a5)
	.loc 1 379 12
	mv	a4,a5
	li	a5,6
	bne	a4,a5,.L44
	.loc 1 380 16
	li	a5,6
	sw	a5,-28(s0)
.L44:
	.loc 1 386 23
	ld	a5,-24(s0)
	lbu	a5,5(a5)
	.loc 1 386 12
	bne	a5,zero,.L46
	.loc 1 387 16
	li	a5,5
	sw	a5,-28(s0)
.L46:
	.loc 1 354 98 discriminator 2
	ld	a5,-24(s0)
	addi	a5,a5,46
	sd	a5,-24(s0)
.L39:
	.loc 1 354 72 discriminator 1
	ld	a5,-24(s0)
	lbu	a5,0(a5)
	.loc 1 354 79 discriminator 1
	mv	a4,a5
	li	a5,121
	bne	a4,a5,.L45
	j	.L34
.L47:
	.loc 1 347 5
	nop
.L34:
	.loc 1 402 1
	ld	ra,40(sp)
	.cfi_restore 1
	ld	s0,32(sp)
	.cfi_restore 8
	.cfi_def_cfa 2, 48
	addi	sp,sp,48
	.cfi_def_cfa_offset 0
	jr	ra
	.cfi_endproc
.LFE3:
	.size	DumpPpbPaddingResource, .-DumpPpbPaddingResource
	.section	.text.DumpPciBars,"ax",@progbits
	.align	1
	.globl	DumpPciBars
	.type	DumpPciBars, @function
DumpPciBars:
.LFB4:
	.loc 1 413 1
	.cfi_startproc
	addi	sp,sp,-48
	.cfi_def_cfa_offset 48
	sd	ra,40(sp)
	sd	s0,32(sp)
	.cfi_offset 1, -8
	.cfi_offset 8, -16
	addi	s0,sp,48
	.cfi_def_cfa 8, 0
	sd	a0,-40(s0)
	.loc 1 416 14
	sd	zero,-24(s0)
	.loc 1 416 3
	j	.L49
.L55:
	.loc 1 416 40 discriminator 2
	ld	a5,-24(s0)
	addi	a5,a5,1
	sd	a5,-24(s0)
.L49:
	.loc 1 416 25 discriminator 1
	ld	a4,-24(s0)
	li	a5,5
	bleu	a4,a5,.L55
	.loc 1 432 14
	sd	zero,-24(s0)
	.loc 1 432 3
	j	.L52
.L54:
	.loc 1 432 40 discriminator 2
	ld	a5,-24(s0)
	addi	a5,a5,1
	sd	a5,-24(s0)
.L52:
	.loc 1 432 25 discriminator 1
	ld	a4,-24(s0)
	li	a5,5
	bleu	a4,a5,.L54
	.loc 1 449 1
	nop
	nop
	ld	ra,40(sp)
	.cfi_restore 1
	ld	s0,32(sp)
	.cfi_restore 8
	.cfi_def_cfa 2, 48
	addi	sp,sp,48
	.cfi_def_cfa_offset 0
	jr	ra
	.cfi_endproc
.LFE4:
	.size	DumpPciBars, .-DumpPciBars
	.section	.text.GatherDeviceInfo,"ax",@progbits
	.align	1
	.globl	GatherDeviceInfo
	.type	GatherDeviceInfo, @function
GatherDeviceInfo:
.LFB5:
	.loc 1 471 1
	.cfi_startproc
	addi	sp,sp,-80
	.cfi_def_cfa_offset 80
	sd	ra,72(sp)
	sd	s0,64(sp)
	.cfi_offset 1, -8
	.cfi_offset 8, -16
	addi	s0,sp,80
	.cfi_def_cfa 8, 0
	sd	a0,-56(s0)
	sd	a1,-64(s0)
	mv	a5,a2
	sb	a5,-65(s0)
	mv	a5,a3
	sb	a5,-66(s0)
	mv	a5,a4
	sb	a5,-67(s0)
	.loc 1 476 17
	lbu	a4,-67(s0)
	lbu	a3,-66(s0)
	lbu	a5,-65(s0)
	mv	a2,a5
	ld	a1,-64(s0)
	ld	a0,-56(s0)
	call	CreatePciIoDevice
	sd	a0,-40(s0)
	.loc 1 484 6
	ld	a5,-40(s0)
	bne	a5,zero,.L57
	.loc 1 485 12
	li	a5,0
	j	.L58
.L57:
	.loc 1 491 7
	la	a5,gFullEnumeration
	lbu	a5,0(a5)
	.loc 1 491 6
	beq	a5,zero,.L59
	.loc 1 492 5
	li	a4,0
	li	a3,4
	li	a2,4
	li	a1,567
	ld	a0,-40(s0)
	call	PciOperateRegister@plt
.L59:
	.loc 1 498 15
	li	a5,16
	sd	a5,-24(s0)
	.loc 1 498 32
	sd	zero,-32(s0)
	.loc 1 498 3
	j	.L60
.L62:
	.loc 1 499 14
	ld	a2,-32(s0)
	ld	a1,-24(s0)
	ld	a0,-40(s0)
	call	PciParseBar
	sd	a0,-24(s0)
	.loc 1 498 82 discriminator 4
	ld	a5,-32(s0)
	addi	a5,a5,1
	sd	a5,-32(s0)
.L60:
	.loc 1 498 52 discriminator 1
	ld	a4,-24(s0)
	li	a5,36
	bgtu	a4,a5,.L61
	.loc 1 498 52 is_stmt 0 discriminator 3
	ld	a4,-32(s0)
	li	a5,5
	bleu	a4,a5,.L62
.L61:
	.loc 1 505 7 is_stmt 1
	la	a5,_gPcd_FixedAtBuild_PcdSrIovSupport
	lbu	a5,0(a5)
	.loc 1 505 6
	beq	a5,zero,.L63
	.loc 1 505 57 discriminator 1
	ld	a5,-40(s0)
	lw	a5,620(a5)
	.loc 1 505 42 discriminator 1
	beq	a5,zero,.L63
	.loc 1 506 30
	ld	a5,-40(s0)
	lw	a5,620(a5)
	.loc 1 506 54
	addiw	a5,a5,36
	sext.w	a5,a5
	.loc 1 506 17
	slli	a5,a5,32
	srli	a5,a5,32
	sd	a5,-24(s0)
	.loc 1 506 71
	sd	zero,-32(s0)
	.loc 1 506 5
	j	.L64
.L65:
	.loc 1 511 16
	ld	a2,-32(s0)
	ld	a1,-24(s0)
	ld	a0,-40(s0)
	call	PciIovParseVfBar
	sd	a0,-24(s0)
	.loc 1 508 18
	ld	a5,-32(s0)
	addi	a5,a5,1
	sd	a5,-32(s0)
.L64:
	.loc 1 507 31
	ld	a5,-40(s0)
	lw	a5,620(a5)
	.loc 1 507 55
	addiw	a5,a5,56
	sext.w	a5,a5
	slli	a5,a5,32
	srli	a5,a5,32
	.loc 1 507 17
	ld	a4,-24(s0)
	bleu	a4,a5,.L65
.L63:
	.loc 1 515 12
	call	DebugCodeEnabled@plt
	mv	a5,a0
	.loc 1 515 11 discriminator 1
	beq	a5,zero,.L66
	.loc 1 515 69 discriminator 2
	ld	a0,-40(s0)
	call	DumpPciBars
.L66:
	.loc 1 518 10
	ld	a5,-40(s0)
.L58:
	.loc 1 519 1
	mv	a0,a5
	ld	ra,72(sp)
	.cfi_restore 1
	ld	s0,64(sp)
	.cfi_restore 8
	.cfi_def_cfa 2, 80
	addi	sp,sp,80
	.cfi_def_cfa_offset 0
	jr	ra
	.cfi_endproc
.LFE5:
	.size	GatherDeviceInfo, .-GatherDeviceInfo
	.section	.text.GatherPpbInfo,"ax",@progbits
	.align	1
	.globl	GatherPpbInfo
	.type	GatherPpbInfo, @function
GatherPpbInfo:
.LFB6:
	.loc 1 541 1
	.cfi_startproc
	addi	sp,sp,-96
	.cfi_def_cfa_offset 96
	sd	ra,88(sp)
	sd	s0,80(sp)
	.cfi_offset 1, -8
	.cfi_offset 8, -16
	addi	s0,sp,96
	.cfi_def_cfa 8, 0
	sd	a0,-72(s0)
	sd	a1,-80(s0)
	mv	a5,a2
	sb	a5,-81(s0)
	mv	a5,a3
	sb	a5,-82(s0)
	mv	a5,a4
	sb	a5,-83(s0)
	.loc 1 551 17
	lbu	a4,-83(s0)
	lbu	a3,-82(s0)
	lbu	a5,-81(s0)
	mv	a2,a5
	ld	a1,-80(s0)
	ld	a0,-72(s0)
	call	CreatePciIoDevice
	sd	a0,-24(s0)
	.loc 1 559 6
	ld	a5,-24(s0)
	bne	a5,zero,.L68
	.loc 1 560 12
	li	a5,0
	j	.L81
.L68:
	.loc 1 563 7
	la	a5,gFullEnumeration
	lbu	a5,0(a5)
	.loc 1 563 6
	beq	a5,zero,.L70
	.loc 1 564 5
	li	a4,0
	li	a3,4
	li	a2,4
	li	a1,567
	ld	a0,-24(s0)
	call	PciOperateRegister@plt
	.loc 1 569 5
	li	a4,0
	li	a3,4
	li	a2,62
	li	a1,156
	ld	a0,-24(s0)
	call	PciOperateRegister@plt
.L70:
	.loc 1 575 7
	li	a2,0
	li	a1,16
	ld	a0,-24(s0)
	call	PciParseBar
	mv	a4,a0
	.loc 1 575 6 discriminator 1
	li	a5,20
	bne	a4,a5,.L71
	.loc 1 579 5
	li	a2,1
	li	a1,20
	ld	a0,-24(s0)
	call	PciParseBar
.L71:
	.loc 1 582 9
	ld	a5,-24(s0)
	addi	a5,a5,16
	sd	a5,-32(s0)
	.loc 1 587 13
	ld	a5,-32(s0)
	ld	a5,48(a5)
	.loc 1 587 3
	addi	a4,s0,-46
	li	a3,1
	li	a2,28
	li	a1,0
	ld	a0,-32(s0)
	jalr	a5
.LVL3:
	.loc 1 588 13
	ld	a5,-32(s0)
	ld	a5,56(a5)
	.loc 1 588 3
	la	a4,gAllOne
	li	a3,1
	li	a2,28
	li	a1,0
	ld	a0,-32(s0)
	jalr	a5
.LVL4:
	.loc 1 589 13
	ld	a5,-32(s0)
	ld	a5,48(a5)
	.loc 1 589 3
	addi	a4,s0,-45
	li	a3,1
	li	a2,28
	li	a1,0
	ld	a0,-32(s0)
	jalr	a5
.LVL5:
	.loc 1 590 13
	ld	a5,-32(s0)
	ld	a5,56(a5)
	.loc 1 590 3
	addi	a4,s0,-46
	li	a3,1
	li	a2,28
	li	a1,0
	ld	a0,-32(s0)
	jalr	a5
.LVL6:
	.loc 1 592 13
	lbu	a5,-45(s0)
	.loc 1 592 6
	beq	a5,zero,.L72
	.loc 1 593 16
	lbu	a5,-45(s0)
	sext.w	a5,a5
	andi	a5,a5,1
	sext.w	a5,a5
	.loc 1 593 8
	beq	a5,zero,.L73
	.loc 1 594 18
	ld	a5,-24(s0)
	lw	a5,536(a5)
	.loc 1 594 28
	ori	a5,a5,1
	sext.w	a4,a5
	ld	a5,-24(s0)
	sw	a4,536(a5)
	j	.L72
.L73:
	.loc 1 596 18
	ld	a5,-24(s0)
	lw	a5,536(a5)
	.loc 1 596 28
	ori	a5,a5,8
	sext.w	a4,a5
	ld	a5,-24(s0)
	sw	a4,536(a5)
.L72:
	.loc 1 605 34
	ld	a5,-24(s0)
	li	a4,4096
	addi	a4,a4,-1
	sh	a4,832(a5)
	.loc 1 606 7
	la	a5,_gPcd_FixedAtBuild_PcdPciBridgeIoAlignmentProbe
	lbu	a5,0(a5)
	.loc 1 606 6
	beq	a5,zero,.L74
	.loc 1 612 13
	lbu	a5,-46(s0)
	xori	a5,a5,14
	andi	a5,a5,0xff
	.loc 1 612 11
	sb	a5,-45(s0)
	.loc 1 613 15
	ld	a5,-32(s0)
	ld	a5,56(a5)
	.loc 1 613 5
	addi	a4,s0,-45
	li	a3,1
	li	a2,28
	li	a1,0
	ld	a0,-32(s0)
	jalr	a5
.LVL7:
	.loc 1 614 15
	ld	a5,-32(s0)
	ld	a5,48(a5)
	.loc 1 614 5
	addi	a4,s0,-45
	li	a3,1
	li	a2,28
	li	a1,0
	ld	a0,-32(s0)
	jalr	a5
.LVL8:
	.loc 1 615 15
	ld	a5,-32(s0)
	ld	a5,56(a5)
	.loc 1 615 5
	addi	a4,s0,-46
	li	a3,1
	li	a2,28
	li	a1,0
	ld	a0,-32(s0)
	jalr	a5
.LVL9:
	.loc 1 616 13
	lbu	a4,-45(s0)
	lbu	a5,-46(s0)
	xor	a5,a4,a5
	andi	a5,a5,0xff
	andi	a5,a5,14
	andi	a5,a5,0xff
	.loc 1 616 11
	sb	a5,-45(s0)
	.loc 1 617 5
	lbu	a5,-45(s0)
	sext.w	a5,a5
	li	a4,14
	beq	a5,a4,.L75
	li	a4,14
	bgt	a5,a4,.L74
	li	a4,8
	beq	a5,a4,.L76
	li	a4,12
	beq	a5,a4,.L77
	j	.L74
.L76:
	.loc 1 619 40
	ld	a5,-24(s0)
	li	a4,2047
	sh	a4,832(a5)
	.loc 1 620 9
	j	.L74
.L77:
	.loc 1 622 40
	ld	a5,-24(s0)
	li	a4,1023
	sh	a4,832(a5)
	.loc 1 623 9
	j	.L74
.L75:
	.loc 1 625 40
	ld	a5,-24(s0)
	li	a4,511
	sh	a4,832(a5)
	.loc 1 626 9
	nop
.L74:
	.loc 1 630 12
	addi	a5,s0,-52
	mv	a3,a5
	li	a2,0
	li	a1,36
	ld	a0,-24(s0)
	call	BarExisted
	sd	a0,-40(s0)
	.loc 1 645 28
	lw	a5,-52(s0)
	.loc 1 645 26
	sh	a5,-42(s0)
	.loc 1 646 52
	lw	a5,-52(s0)
	srliw	a5,a5,16
	sext.w	a5,a5
	.loc 1 646 27
	sh	a5,-44(s0)
	.loc 1 647 7
	ld	a5,-40(s0)
	.loc 1 647 6
	blt	a5,zero,.L78
	.loc 1 648 32
	lhu	a5,-42(s0)
	sext.w	a5,a5
	andi	a5,a5,15
	sext.w	a4,a5
	.loc 1 647 61 discriminator 1
	li	a5,1
	bne	a4,a5,.L78
	.loc 1 649 33
	lhu	a5,-44(s0)
	sext.w	a5,a5
	andi	a5,a5,15
	sext.w	a4,a5
	.loc 1 648 53
	li	a5,1
	bne	a4,a5,.L78
	.loc 1 651 14
	li	a3,0
	li	a2,0
	li	a1,40
	ld	a0,-24(s0)
	call	BarExisted
	sd	a0,-40(s0)
	.loc 1 658 9
	ld	a5,-40(s0)
	.loc 1 658 8
	blt	a5,zero,.L79
	.loc 1 659 18
	ld	a5,-24(s0)
	lw	a5,536(a5)
	.loc 1 659 28
	ori	a5,a5,2
	sext.w	a4,a5
	ld	a5,-24(s0)
	sw	a4,536(a5)
	.loc 1 660 18
	ld	a5,-24(s0)
	lw	a5,536(a5)
	.loc 1 660 28
	ori	a5,a5,4
	sext.w	a4,a5
	ld	a5,-24(s0)
	sw	a4,536(a5)
	j	.L78
.L79:
	.loc 1 662 18
	ld	a5,-24(s0)
	lw	a5,536(a5)
	.loc 1 662 28
	ori	a5,a5,2
	sext.w	a4,a5
	ld	a5,-24(s0)
	sw	a4,536(a5)
.L78:
	.loc 1 669 14
	ld	a5,-24(s0)
	lw	a5,536(a5)
	.loc 1 669 24
	ori	a5,a5,64
	sext.w	a4,a5
	ld	a5,-24(s0)
	sw	a4,536(a5)
	.loc 1 671 3
	ld	a0,-24(s0)
	call	GetResourcePaddingPpb@plt
	.loc 1 673 12
	call	DebugCodeEnabled@plt
	mv	a5,a0
	.loc 1 673 11 discriminator 1
	beq	a5,zero,.L80
	.loc 1 673 69 discriminator 2
	li	a1,0
	ld	a0,-24(s0)
	call	DumpPpbPaddingResource
	.loc 1 673 126 discriminator 3
	ld	a0,-24(s0)
	call	DumpPciBars
.L80:
	.loc 1 678 10
	ld	a5,-24(s0)
.L81:
	.loc 1 679 1
	mv	a0,a5
	ld	ra,88(sp)
	.cfi_restore 1
	ld	s0,80(sp)
	.cfi_restore 8
	.cfi_def_cfa 2, 96
	addi	sp,sp,96
	.cfi_def_cfa_offset 0
	jr	ra
	.cfi_endproc
.LFE6:
	.size	GatherPpbInfo, .-GatherPpbInfo
	.section	.text.GatherP2CInfo,"ax",@progbits
	.align	1
	.globl	GatherP2CInfo
	.type	GatherP2CInfo, @function
GatherP2CInfo:
.LFB7:
	.loc 1 701 1
	.cfi_startproc
	addi	sp,sp,-64
	.cfi_def_cfa_offset 64
	sd	ra,56(sp)
	sd	s0,48(sp)
	.cfi_offset 1, -8
	.cfi_offset 8, -16
	addi	s0,sp,64
	.cfi_def_cfa 8, 0
	sd	a0,-40(s0)
	sd	a1,-48(s0)
	mv	a5,a2
	sb	a5,-49(s0)
	mv	a5,a3
	sb	a5,-50(s0)
	mv	a5,a4
	sb	a5,-51(s0)
	.loc 1 704 17
	lbu	a4,-51(s0)
	lbu	a3,-50(s0)
	lbu	a5,-49(s0)
	mv	a2,a5
	ld	a1,-48(s0)
	ld	a0,-40(s0)
	call	CreatePciIoDevice
	sd	a0,-24(s0)
	.loc 1 712 6
	ld	a5,-24(s0)
	bne	a5,zero,.L83
	.loc 1 713 12
	li	a5,0
	j	.L84
.L83:
	.loc 1 716 7
	la	a5,gFullEnumeration
	lbu	a5,0(a5)
	.loc 1 716 6
	beq	a5,zero,.L85
	.loc 1 717 5
	li	a4,0
	li	a3,4
	li	a2,4
	li	a1,567
	ld	a0,-24(s0)
	call	PciOperateRegister@plt
	.loc 1 722 5
	li	a4,0
	li	a3,4
	li	a2,62
	li	a1,140
	ld	a0,-24(s0)
	call	PciOperateRegister@plt
.L85:
	.loc 1 728 3
	li	a2,0
	li	a1,16
	ld	a0,-24(s0)
	call	PciParseBar
	.loc 1 733 3
	ld	a0,-24(s0)
	call	GetBackPcCardBar@plt
	.loc 1 734 24
	ld	a5,-24(s0)
	li	a4,67
	sw	a4,536(a5)
	.loc 1 738 12
	call	DebugCodeEnabled@plt
	mv	a5,a0
	.loc 1 738 11 discriminator 1
	beq	a5,zero,.L86
	.loc 1 738 69 discriminator 2
	ld	a0,-24(s0)
	call	DumpPciBars
.L86:
	.loc 1 742 10
	ld	a5,-24(s0)
.L84:
	.loc 1 743 1
	mv	a0,a5
	ld	ra,56(sp)
	.cfi_restore 1
	ld	s0,48(sp)
	.cfi_restore 8
	.cfi_def_cfa 2, 64
	addi	sp,sp,64
	.cfi_def_cfa_offset 0
	jr	ra
	.cfi_endproc
.LFE7:
	.size	GatherP2CInfo, .-GatherP2CInfo
	.section	.text.CreatePciDevicePath,"ax",@progbits
	.align	1
	.globl	CreatePciDevicePath
	.type	CreatePciDevicePath, @function
CreatePciDevicePath:
.LFB8:
	.loc 1 759 1
	.cfi_startproc
	addi	sp,sp,-48
	.cfi_def_cfa_offset 48
	sd	ra,40(sp)
	sd	s0,32(sp)
	.cfi_offset 1, -8
	.cfi_offset 8, -16
	addi	s0,sp,48
	.cfi_def_cfa 8, 0
	sd	a0,-40(s0)
	sd	a1,-48(s0)
	.loc 1 765 23
	li	a5,1
	sb	a5,-24(s0)
	.loc 1 766 26
	li	a5,1
	sb	a5,-23(s0)
	.loc 1 767 3
	addi	a5,s0,-24
	li	a1,6
	mv	a0,a5
	call	SetDevicePathNodeLength@plt
	.loc 1 769 31
	ld	a5,-48(s0)
	lbu	a5,289(a5)
	.loc 1 769 18
	sb	a5,-19(s0)
	.loc 1 770 33
	ld	a5,-48(s0)
	lbu	a5,290(a5)
	.loc 1 770 20
	sb	a5,-20(s0)
	.loc 1 771 29
	addi	a5,s0,-24
	mv	a1,a5
	ld	a0,-40(s0)
	call	AppendDevicePathNode@plt
	mv	a4,a0
	.loc 1 771 27 discriminator 1
	ld	a5,-48(s0)
	sd	a4,200(a5)
	.loc 1 773 21
	ld	a5,-48(s0)
	ld	a5,200(a5)
	.loc 1 774 1
	mv	a0,a5
	ld	ra,40(sp)
	.cfi_restore 1
	ld	s0,32(sp)
	.cfi_restore 8
	.cfi_def_cfa 2, 48
	addi	sp,sp,48
	.cfi_def_cfa_offset 0
	jr	ra
	.cfi_endproc
.LFE8:
	.size	CreatePciDevicePath, .-CreatePciDevicePath
	.section	.text.VfBarExisted,"ax",@progbits
	.align	1
	.globl	VfBarExisted
	.type	VfBarExisted, @function
VfBarExisted:
.LFB9:
	.loc 1 795 1
	.cfi_startproc
	addi	sp,sp,-80
	.cfi_def_cfa_offset 80
	sd	ra,72(sp)
	sd	s0,64(sp)
	.cfi_offset 1, -8
	.cfi_offset 8, -16
	addi	s0,sp,80
	.cfi_def_cfa 8, 0
	sd	a0,-56(s0)
	sd	a1,-64(s0)
	sd	a2,-72(s0)
	sd	a3,-80(s0)
	.loc 1 805 18
	ld	a5,-56(s0)
	lw	a5,620(a5)
	.loc 1 805 6
	bne	a5,zero,.L90
	.loc 1 806 12
	li	a5,-1
	slli	a5,a5,63
	addi	a5,a5,14
	j	.L95
.L90:
	.loc 1 809 9
	ld	a5,-56(s0)
	addi	a5,a5,16
	sd	a5,-24(s0)
	.loc 1 815 13
	ld	a5,-24(s0)
	ld	a5,48(a5)
	.loc 1 815 3
	ld	a4,-64(s0)
	sext.w	a2,a4
	addi	a4,s0,-36
	li	a3,1
	li	a1,2
	ld	a0,-24(s0)
	jalr	a5
.LVL10:
	.loc 1 820 15
	la	a5,gBS
	ld	a5,0(a5)
	ld	a5,24(a5)
	.loc 1 820 12
	li	a0,31
	jalr	a5
.LVL11:
	sd	a0,-32(s0)
	.loc 1 822 13
	ld	a5,-24(s0)
	ld	a5,56(a5)
	.loc 1 822 3
	ld	a4,-64(s0)
	sext.w	a2,a4
	la	a4,gAllOne
	li	a3,1
	li	a1,2
	ld	a0,-24(s0)
	jalr	a5
.LVL12:
	.loc 1 823 13
	ld	a5,-24(s0)
	ld	a5,48(a5)
	.loc 1 823 3
	ld	a4,-64(s0)
	sext.w	a2,a4
	addi	a4,s0,-40
	li	a3,1
	li	a1,2
	ld	a0,-24(s0)
	jalr	a5
.LVL13:
	.loc 1 828 13
	ld	a5,-24(s0)
	ld	a5,56(a5)
	.loc 1 828 3
	ld	a4,-64(s0)
	sext.w	a2,a4
	addi	a4,s0,-36
	li	a3,1
	li	a1,2
	ld	a0,-24(s0)
	jalr	a5
.LVL14:
	.loc 1 833 6
	la	a5,gBS
	ld	a5,0(a5)
	ld	a5,32(a5)
	.loc 1 833 3
	ld	a0,-32(s0)
	jalr	a5
.LVL15:
	.loc 1 835 6
	ld	a5,-72(s0)
	beq	a5,zero,.L92
	.loc 1 836 21
	lw	a4,-40(s0)
	ld	a5,-72(s0)
	sw	a4,0(a5)
.L92:
	.loc 1 839 6
	ld	a5,-80(s0)
	beq	a5,zero,.L93
	.loc 1 840 23
	lw	a4,-36(s0)
	ld	a5,-80(s0)
	sw	a4,0(a5)
.L93:
	.loc 1 843 13
	lw	a5,-40(s0)
	.loc 1 843 6
	bne	a5,zero,.L94
	.loc 1 844 12
	li	a5,-1
	slli	a5,a5,63
	addi	a5,a5,14
	j	.L95
.L94:
	.loc 1 846 12
	li	a5,0
.L95:
	.loc 1 848 1
	mv	a0,a5
	ld	ra,72(sp)
	.cfi_restore 1
	ld	s0,64(sp)
	.cfi_restore 8
	.cfi_def_cfa 2, 80
	addi	sp,sp,80
	.cfi_def_cfa_offset 0
	jr	ra
	.cfi_endproc
.LFE9:
	.size	VfBarExisted, .-VfBarExisted
	.section	.text.BarExisted,"ax",@progbits
	.align	1
	.globl	BarExisted
	.type	BarExisted, @function
BarExisted:
.LFB10:
	.loc 1 869 1
	.cfi_startproc
	addi	sp,sp,-80
	.cfi_def_cfa_offset 80
	sd	ra,72(sp)
	sd	s0,64(sp)
	.cfi_offset 1, -8
	.cfi_offset 8, -16
	addi	s0,sp,80
	.cfi_def_cfa 8, 0
	sd	a0,-56(s0)
	sd	a1,-64(s0)
	sd	a2,-72(s0)
	sd	a3,-80(s0)
	.loc 1 875 9
	ld	a5,-56(s0)
	addi	a5,a5,16
	sd	a5,-24(s0)
	.loc 1 880 13
	ld	a5,-24(s0)
	ld	a5,48(a5)
	.loc 1 880 48
	ld	a4,-64(s0)
	andi	a4,a4,0xff
	.loc 1 880 3
	sext.w	a2,a4
	addi	a4,s0,-36
	li	a3,1
	li	a1,2
	ld	a0,-24(s0)
	jalr	a5
.LVL16:
	.loc 1 885 15
	la	a5,gBS
	ld	a5,0(a5)
	ld	a5,24(a5)
	.loc 1 885 12
	li	a0,31
	jalr	a5
.LVL17:
	sd	a0,-32(s0)
	.loc 1 887 13
	ld	a5,-24(s0)
	ld	a5,56(a5)
	.loc 1 887 49
	ld	a4,-64(s0)
	andi	a4,a4,0xff
	.loc 1 887 3
	sext.w	a2,a4
	la	a4,gAllOne
	li	a3,1
	li	a1,2
	ld	a0,-24(s0)
	jalr	a5
.LVL18:
	.loc 1 888 13
	ld	a5,-24(s0)
	ld	a5,48(a5)
	.loc 1 888 48
	ld	a4,-64(s0)
	andi	a4,a4,0xff
	.loc 1 888 3
	sext.w	a2,a4
	addi	a4,s0,-40
	li	a3,1
	li	a1,2
	ld	a0,-24(s0)
	jalr	a5
.LVL19:
	.loc 1 893 13
	ld	a5,-24(s0)
	ld	a5,56(a5)
	.loc 1 893 49
	ld	a4,-64(s0)
	andi	a4,a4,0xff
	.loc 1 893 3
	sext.w	a2,a4
	addi	a4,s0,-36
	li	a3,1
	li	a1,2
	ld	a0,-24(s0)
	jalr	a5
.LVL20:
	.loc 1 898 6
	la	a5,gBS
	ld	a5,0(a5)
	ld	a5,32(a5)
	.loc 1 898 3
	ld	a0,-32(s0)
	jalr	a5
.LVL21:
	.loc 1 900 6
	ld	a5,-72(s0)
	beq	a5,zero,.L97
	.loc 1 901 21
	lw	a4,-40(s0)
	ld	a5,-72(s0)
	sw	a4,0(a5)
.L97:
	.loc 1 904 6
	ld	a5,-80(s0)
	beq	a5,zero,.L98
	.loc 1 905 23
	lw	a4,-36(s0)
	ld	a5,-80(s0)
	sw	a4,0(a5)
.L98:
	.loc 1 908 13
	lw	a5,-40(s0)
	.loc 1 908 6
	bne	a5,zero,.L99
	.loc 1 909 12
	li	a5,-1
	slli	a5,a5,63
	addi	a5,a5,14
	j	.L101
.L99:
	.loc 1 911 12
	li	a5,0
.L101:
	.loc 1 913 1
	mv	a0,a5
	ld	ra,72(sp)
	.cfi_restore 1
	ld	s0,64(sp)
	.cfi_restore 8
	.cfi_def_cfa 2, 80
	addi	sp,sp,80
	.cfi_def_cfa_offset 0
	jr	ra
	.cfi_endproc
.LFE10:
	.size	BarExisted, .-BarExisted
	.section	.text.PciTestSupportedAttribute,"ax",@progbits
	.align	1
	.globl	PciTestSupportedAttribute
	.type	PciTestSupportedAttribute, @function
PciTestSupportedAttribute:
.LFB11:
	.loc 1 935 1
	.cfi_startproc
	addi	sp,sp,-80
	.cfi_def_cfa_offset 80
	sd	ra,72(sp)
	sd	s0,64(sp)
	.cfi_offset 1, -8
	.cfi_offset 8, -16
	addi	s0,sp,80
	.cfi_def_cfa 8, 0
	sd	a0,-40(s0)
	sd	a1,-48(s0)
	sd	a2,-56(s0)
	sd	a3,-64(s0)
	sd	a4,-72(s0)
	.loc 1 942 3
	ld	a4,-64(s0)
	li	a3,1
	li	a2,4
	li	a1,0
	ld	a0,-40(s0)
	call	PciOperateRegister@plt
	.loc 1 947 15
	la	a5,gBS
	ld	a5,0(a5)
	ld	a5,24(a5)
	.loc 1 947 12
	li	a0,31
	jalr	a5
.LVL22:
	sd	a0,-24(s0)
	.loc 1 948 18
	ld	a5,-48(s0)
	lhu	a4,0(a5)
	.loc 1 948 29
	ld	a5,-64(s0)
	lhu	a5,0(a5)
	.loc 1 948 16
	or	a5,a4,a5
	slli	a5,a5,48
	srli	a5,a5,48
	sh	a5,-26(s0)
	.loc 1 950 3
	lhu	a5,-26(s0)
	li	a4,0
	li	a3,2
	li	a2,4
	mv	a1,a5
	ld	a0,-40(s0)
	call	PciOperateRegister@plt
	.loc 1 951 3
	addi	a5,s0,-26
	mv	a4,a5
	li	a3,1
	li	a2,4
	li	a1,0
	ld	a0,-40(s0)
	call	PciOperateRegister@plt
	.loc 1 953 14
	ld	a5,-48(s0)
	lhu	a4,0(a5)
	.loc 1 953 12
	lhu	a5,-26(s0)
	and	a5,a4,a5
	slli	a4,a5,48
	srli	a4,a4,48
	ld	a5,-48(s0)
	sh	a4,0(a5)
	.loc 1 957 3
	ld	a5,-64(s0)
	lhu	a5,0(a5)
	li	a4,0
	li	a3,2
	li	a2,4
	mv	a1,a5
	ld	a0,-40(s0)
	call	PciOperateRegister@plt
	.loc 1 962 6
	la	a5,gBS
	ld	a5,0(a5)
	ld	a5,32(a5)
	.loc 1 962 3
	ld	a0,-24(s0)
	jalr	a5
.LVL23:
	.loc 1 964 33
	ld	a5,-40(s0)
	lbu	a5,238(a5)
	.loc 1 964 45
	sext.w	a5,a5
	andi	a5,a5,127
	sext.w	a4,a5
	.loc 1 964 6
	li	a5,1
	beq	a4,a5,.L103
	.loc 1 964 93 discriminator 1
	ld	a5,-40(s0)
	lbu	a5,238(a5)
	.loc 1 964 105 discriminator 1
	sext.w	a5,a5
	andi	a5,a5,127
	sext.w	a4,a5
	.loc 1 964 64 discriminator 1
	li	a5,2
	bne	a4,a5,.L104
.L103:
	.loc 1 968 5
	ld	a4,-72(s0)
	li	a3,1
	li	a2,62
	li	a1,0
	ld	a0,-40(s0)
	call	PciOperateRegister@plt
	.loc 1 973 17
	la	a5,gBS
	ld	a5,0(a5)
	ld	a5,24(a5)
	.loc 1 973 14
	li	a0,31
	jalr	a5
.LVL24:
	sd	a0,-24(s0)
	.loc 1 975 5
	ld	a5,-56(s0)
	lhu	a5,0(a5)
	li	a4,0
	li	a3,2
	li	a2,62
	mv	a1,a5
	ld	a0,-40(s0)
	call	PciOperateRegister@plt
	.loc 1 976 5
	ld	a4,-56(s0)
	li	a3,1
	li	a2,62
	li	a1,0
	ld	a0,-40(s0)
	call	PciOperateRegister@plt
	.loc 1 981 5
	ld	a5,-72(s0)
	lhu	a5,0(a5)
	li	a4,0
	li	a3,2
	li	a2,62
	mv	a1,a5
	ld	a0,-40(s0)
	call	PciOperateRegister@plt
	.loc 1 986 8
	la	a5,gBS
	ld	a5,0(a5)
	ld	a5,32(a5)
	.loc 1 986 5
	ld	a0,-24(s0)
	jalr	a5
.LVL25:
	j	.L105
.L104:
	.loc 1 988 23
	ld	a5,-72(s0)
	sh	zero,0(a5)
	.loc 1 989 20
	ld	a5,-56(s0)
	sh	zero,0(a5)
	.loc 1 991 1
	nop
.L105:
	nop
	ld	ra,72(sp)
	.cfi_restore 1
	ld	s0,64(sp)
	.cfi_restore 8
	.cfi_def_cfa 2, 80
	addi	sp,sp,80
	.cfi_def_cfa_offset 0
	jr	ra
	.cfi_endproc
.LFE11:
	.size	PciTestSupportedAttribute, .-PciTestSupportedAttribute
	.section	.text.PciSetDeviceAttribute,"ax",@progbits
	.align	1
	.globl	PciSetDeviceAttribute
	.type	PciSetDeviceAttribute, @function
PciSetDeviceAttribute:
.LFB12:
	.loc 1 1009 1
	.cfi_startproc
	addi	sp,sp,-64
	.cfi_def_cfa_offset 64
	sd	ra,56(sp)
	sd	s0,48(sp)
	.cfi_offset 1, -8
	.cfi_offset 8, -16
	addi	s0,sp,64
	.cfi_def_cfa 8, 0
	sd	a0,-40(s0)
	mv	a5,a1
	mv	a4,a2
	sd	a3,-56(s0)
	sh	a5,-42(s0)
	mv	a5,a4
	sh	a5,-44(s0)
	.loc 1 1012 14
	sd	zero,-24(s0)
	.loc 1 1014 16
	lhu	a5,-42(s0)
	sext.w	a5,a5
	andi	a5,a5,1
	sext.w	a5,a5
	.loc 1 1014 6
	beq	a5,zero,.L107
	.loc 1 1015 16
	ld	a5,-24(s0)
	ori	a5,a5,256
	sd	a5,-24(s0)
.L107:
	.loc 1 1018 16
	lhu	a5,-42(s0)
	sext.w	a5,a5
	andi	a5,a5,2
	sext.w	a5,a5
	.loc 1 1018 6
	beq	a5,zero,.L108
	.loc 1 1019 16
	ld	a5,-24(s0)
	ori	a5,a5,512
	sd	a5,-24(s0)
.L108:
	.loc 1 1022 16
	lhu	a5,-42(s0)
	sext.w	a5,a5
	andi	a5,a5,4
	sext.w	a5,a5
	.loc 1 1022 6
	beq	a5,zero,.L109
	.loc 1 1023 16
	ld	a5,-24(s0)
	ori	a5,a5,1024
	sd	a5,-24(s0)
.L109:
	.loc 1 1026 16
	lhu	a5,-42(s0)
	sext.w	a5,a5
	andi	a5,a5,32
	sext.w	a5,a5
	.loc 1 1026 6
	beq	a5,zero,.L110
	.loc 1 1027 16
	ld	a5,-24(s0)
	ori	a5,a5,4
	sd	a5,-24(s0)
.L110:
	.loc 1 1030 22
	lhu	a5,-44(s0)
	sext.w	a5,a5
	andi	a5,a5,4
	sext.w	a5,a5
	.loc 1 1030 6
	beq	a5,zero,.L111
	.loc 1 1031 16
	ld	a5,-24(s0)
	ori	a5,a5,2
	sd	a5,-24(s0)
.L111:
	.loc 1 1034 22
	lhu	a5,-44(s0)
	sext.w	a5,a5
	andi	a5,a5,8
	sext.w	a5,a5
	.loc 1 1034 6
	beq	a5,zero,.L112
	.loc 1 1035 16
	ld	a5,-24(s0)
	ori	a5,a5,16
	sd	a5,-24(s0)
	.loc 1 1036 16
	ld	a5,-24(s0)
	ori	a5,a5,8
	sd	a5,-24(s0)
	.loc 1 1037 16
	ld	a5,-24(s0)
	ori	a5,a5,4
	sd	a5,-24(s0)
.L112:
	.loc 1 1040 22
	lhu	a5,-44(s0)
	sext.w	a5,a5
	andi	a5,a5,16
	sext.w	a5,a5
	.loc 1 1040 6
	beq	a5,zero,.L113
	.loc 1 1041 16
	ld	a4,-24(s0)
	li	a5,262144
	or	a5,a4,a5
	sd	a5,-24(s0)
	.loc 1 1042 16
	ld	a4,-24(s0)
	li	a5,131072
	or	a5,a4,a5
	sd	a5,-24(s0)
.L113:
	.loc 1 1045 6
	ld	a5,-56(s0)
	bne	a5,zero,.L114
	.loc 1 1046 16
	ld	a4,-24(s0)
	li	a5,65536
	addi	a5,a5,-1920
	or	a5,a4,a5
	sd	a5,-24(s0)
	.loc 1 1053 45
	ld	a5,-40(s0)
	lbu	a5,235(a5)
	.loc 1 1053 8
	mv	a4,a5
	li	a5,6
	bne	a4,a5,.L115
	.loc 1 1053 98 discriminator 1
	ld	a5,-40(s0)
	lbu	a5,234(a5)
	.loc 1 1053 60 discriminator 1
	mv	a4,a5
	li	a5,1
	bne	a4,a5,.L115
	.loc 1 1054 18
	ld	a5,-24(s0)
	ori	a5,a5,1
	sd	a5,-24(s0)
	.loc 1 1055 41
	la	a5,mReserveIsaAliases
	lbu	a5,0(a5)
	.loc 1 1055 58
	beq	a5,zero,.L116
	.loc 1 1055 58 is_stmt 0 discriminator 1
	li	a5,2
	j	.L117
.L116:
	.loc 1 1055 58 discriminator 2
	li	a5,65536
.L117:
	.loc 1 1055 18 is_stmt 1 discriminator 4
	ld	a4,-24(s0)
	or	a5,a4,a5
	sd	a5,-24(s0)
.L115:
	.loc 1 1059 35
	ld	a5,-40(s0)
	lbu	a5,238(a5)
	.loc 1 1059 47
	sext.w	a5,a5
	andi	a5,a5,127
	sext.w	a4,a5
	.loc 1 1059 8
	li	a5,1
	beq	a4,a5,.L118
	.loc 1 1059 95 discriminator 1
	ld	a5,-40(s0)
	lbu	a5,238(a5)
	.loc 1 1059 107 discriminator 1
	sext.w	a5,a5
	andi	a5,a5,127
	sext.w	a4,a5
	.loc 1 1059 66 discriminator 1
	li	a5,2
	bne	a4,a5,.L119
.L118:
	.loc 1 1063 18
	ld	a5,-24(s0)
	ori	a5,a5,64
	sd	a5,-24(s0)
	.loc 1 1064 18
	ld	a5,-24(s0)
	ori	a5,a5,32
	sd	a5,-24(s0)
	.loc 1 1066 11
	la	a5,mReserveVgaAliases
	lbu	a5,0(a5)
	.loc 1 1066 10
	beq	a5,zero,.L120
	.loc 1 1067 20
	ld	a4,-24(s0)
	li	a5,-393216
	addi	a5,a5,-1
	and	a5,a4,a5
	sd	a5,-24(s0)
	.loc 1 1066 10
	j	.L122
.L120:
	.loc 1 1070 20
	ld	a5,-24(s0)
	andi	a5,a5,-21
	sd	a5,-24(s0)
	.loc 1 1066 10
	j	.L122
.L119:
	.loc 1 1074 47
	ld	a5,-40(s0)
	lbu	a5,235(a5)
	.loc 1 1074 10
	mv	a4,a5
	li	a5,1
	bne	a4,a5,.L123
	.loc 1 1074 100 discriminator 1
	ld	a5,-40(s0)
	lbu	a5,234(a5)
	.loc 1 1074 62 discriminator 1
	mv	a4,a5
	li	a5,1
	bne	a4,a5,.L123
	.loc 1 1075 20
	ld	a5,-24(s0)
	ori	a5,a5,64
	sd	a5,-24(s0)
	.loc 1 1076 20
	ld	a5,-24(s0)
	ori	a5,a5,32
	sd	a5,-24(s0)
.L123:
	.loc 1 1079 48
	ld	a5,-40(s0)
	lbu	a5,235(a5)
	.loc 1 1079 10
	mv	a4,a5
	li	a5,3
	bne	a4,a5,.L122
	.loc 1 1079 101 discriminator 1
	ld	a5,-40(s0)
	lbu	a5,234(a5)
	.loc 1 1079 63 discriminator 1
	bne	a5,zero,.L122
	.loc 1 1079 155 discriminator 2
	ld	a5,-40(s0)
	lbu	a5,233(a5)
	.loc 1 1079 117 discriminator 2
	bne	a5,zero,.L122
	.loc 1 1080 20
	ld	a5,-24(s0)
	ori	a5,a5,8
	sd	a5,-24(s0)
	.loc 1 1081 43
	la	a5,mReserveVgaAliases
	lbu	a5,0(a5)
	.loc 1 1081 60
	beq	a5,zero,.L124
	.loc 1 1081 60 is_stmt 0 discriminator 1
	li	a5,16
	j	.L125
.L124:
	.loc 1 1081 60 discriminator 2
	li	a5,262144
.L125:
	.loc 1 1081 20 is_stmt 1 discriminator 4
	ld	a4,-24(s0)
	or	a5,a4,a5
	sd	a5,-24(s0)
.L122:
	.loc 1 1086 27
	ld	a5,-40(s0)
	ld	a4,-24(s0)
	sd	a4,528(a5)
	.loc 1 1087 16
	ld	a5,-40(s0)
	ld	a4,528(a5)
	.loc 1 1087 43
	ld	a5,-40(s0)
	ld	a5,488(a5)
	.loc 1 1087 51
	ld	a5,528(a5)
	.loc 1 1088 47
	ori	a5,a5,1792
	.loc 1 1087 27
	and	a4,a4,a5
	ld	a5,-40(s0)
	sd	a4,528(a5)
	.loc 1 1103 1
	j	.L128
.L114:
	.loc 1 1097 21
	ld	a5,-40(s0)
	lbu	a5,540(a5)
	.loc 1 1097 8
	bne	a5,zero,.L127
	.loc 1 1098 18
	ld	a4,-24(s0)
	li	a5,16384
	or	a5,a4,a5
	sd	a5,-24(s0)
.L127:
	.loc 1 1101 29
	ld	a5,-40(s0)
	ld	a4,-24(s0)
	sd	a4,520(a5)
.L128:
	.loc 1 1103 1
	nop
	ld	ra,56(sp)
	.cfi_restore 1
	ld	s0,48(sp)
	.cfi_restore 8
	.cfi_def_cfa 2, 64
	addi	sp,sp,64
	.cfi_def_cfa_offset 0
	jr	ra
	.cfi_endproc
.LFE12:
	.size	PciSetDeviceAttribute, .-PciSetDeviceAttribute
	.section	.text.GetFastBackToBackSupport,"ax",@progbits
	.align	1
	.globl	GetFastBackToBackSupport
	.type	GetFastBackToBackSupport, @function
GetFastBackToBackSupport:
.LFB13:
	.loc 1 1120 1
	.cfi_startproc
	addi	sp,sp,-64
	.cfi_def_cfa_offset 64
	sd	ra,56(sp)
	sd	s0,48(sp)
	.cfi_offset 1, -8
	.cfi_offset 8, -16
	addi	s0,sp,64
	.cfi_def_cfa 8, 0
	sd	a0,-56(s0)
	mv	a5,a1
	sb	a5,-57(s0)
	.loc 1 1128 9
	ld	a5,-56(s0)
	addi	a5,a5,16
	sd	a5,-24(s0)
	.loc 1 1129 22
	ld	a5,-24(s0)
	ld	a5,48(a5)
	.loc 1 1129 12
	lbu	a4,-57(s0)
	sext.w	a2,a4
	addi	a4,s0,-36
	li	a3,1
	li	a1,1
	ld	a0,-24(s0)
	jalr	a5
.LVL26:
	sd	a0,-32(s0)
	.loc 1 1130 34
	ld	a5,-32(s0)
	.loc 1 1130 6
	bge	a5,zero,.L130
	.loc 1 1131 12
	li	a5,-1
	slli	a5,a5,63
	addi	a5,a5,3
	j	.L133
.L130:
	.loc 1 1137 23
	lw	a5,-36(s0)
	andi	a5,a5,128
	sext.w	a5,a5
	.loc 1 1137 6
	beq	a5,zero,.L132
	.loc 1 1138 12
	li	a5,0
	j	.L133
.L132:
	.loc 1 1140 12
	li	a5,-1
	slli	a5,a5,63
	addi	a5,a5,3
.L133:
	.loc 1 1142 1
	mv	a0,a5
	ld	ra,56(sp)
	.cfi_restore 1
	ld	s0,48(sp)
	.cfi_restore 8
	.cfi_def_cfa 2, 64
	addi	sp,sp,64
	.cfi_def_cfa_offset 0
	jr	ra
	.cfi_endproc
.LFE13:
	.size	GetFastBackToBackSupport, .-GetFastBackToBackSupport
	.section	.text.ProcessOptionRomLight,"ax",@progbits
	.align	1
	.globl	ProcessOptionRomLight
	.type	ProcessOptionRomLight, @function
ProcessOptionRomLight:
.LFB14:
	.loc 1 1155 1
	.cfi_startproc
	addi	sp,sp,-48
	.cfi_def_cfa_offset 48
	sd	ra,40(sp)
	sd	s0,32(sp)
	.cfi_offset 1, -8
	.cfi_offset 8, -16
	addi	s0,sp,48
	.cfi_def_cfa 8, 0
	sd	a0,-40(s0)
	.loc 1 1162 15
	ld	a5,-40(s0)
	ld	a5,496(a5)
	sd	a5,-32(s0)
	.loc 1 1163 9
	j	.L135
.L140:
	.loc 1 1164 14
	ld	a5,-32(s0)
	addi	a5,a5,-176
	.loc 1 1164 119
	lw	a4,0(a5)
	.loc 1 1164 204
	li	a5,1869176832
	addi	a5,a5,880
	bne	a4,a5,.L136
	.loc 1 1164 10 discriminator 1
	ld	a5,-32(s0)
	addi	a5,a5,-176
	sd	a5,-24(s0)
	j	.L137
.L136:
	.loc 1 1164 10 is_stmt 0 discriminator 2
	sd	zero,-24(s0)
.L137:
	.loc 1 1166 23 is_stmt 1
	ld	a5,-24(s0)
	addi	a5,a5,496
	.loc 1 1166 10
	mv	a0,a5
	call	IsListEmpty@plt
	mv	a5,a0
	.loc 1 1166 8 discriminator 1
	bne	a5,zero,.L138
	.loc 1 1167 7
	ld	a0,-24(s0)
	call	ProcessOptionRomLight
.L138:
	.loc 1 1170 31
	ld	a0,-24(s0)
	call	PciRomGetImageMapping@plt
	mv	a5,a0
	mv	a4,a5
	.loc 1 1170 29 discriminator 1
	ld	a5,-24(s0)
	sb	a4,548(a5)
	.loc 1 1172 17
	ld	a5,-32(s0)
	ld	a5,0(a5)
	sd	a5,-32(s0)
.L135:
	.loc 1 1163 38
	ld	a5,-32(s0)
	beq	a5,zero,.L141
	.loc 1 1163 56 discriminator 1
	ld	a5,-40(s0)
	addi	a5,a5,496
	.loc 1 1163 38 discriminator 1
	ld	a4,-32(s0)
	bne	a4,a5,.L140
.L141:
	.loc 1 1174 1
	nop
	ld	ra,40(sp)
	.cfi_restore 1
	ld	s0,32(sp)
	.cfi_restore 8
	.cfi_def_cfa 2, 48
	addi	sp,sp,48
	.cfi_def_cfa_offset 0
	jr	ra
	.cfi_endproc
.LFE14:
	.size	ProcessOptionRomLight, .-ProcessOptionRomLight
	.section	.text.DetermineDeviceAttribute,"ax",@progbits
	.align	1
	.globl	DetermineDeviceAttribute
	.type	DetermineDeviceAttribute, @function
DetermineDeviceAttribute:
.LFB15:
	.loc 1 1186 1
	.cfi_startproc
	addi	sp,sp,-80
	.cfi_def_cfa_offset 80
	sd	ra,72(sp)
	sd	s0,64(sp)
	.cfi_offset 1, -8
	.cfi_offset 8, -16
	addi	s0,sp,80
	.cfi_def_cfa 8, 0
	sd	a0,-72(s0)
	.loc 1 1200 18
	ld	a5,-72(s0)
	ld	a5,488(a5)
	.loc 1 1200 6
	bne	a5,zero,.L143
	.loc 1 1201 25
	ld	a5,-72(s0)
	ld	a5,208(a5)
	.loc 1 1201 42
	ld	a5,120(a5)
	.loc 1 1201 14
	ld	a4,-72(s0)
	ld	a3,208(a4)
	ld	a4,-72(s0)
	addi	a1,a4,528
	ld	a4,-72(s0)
	addi	a4,a4,520
	mv	a2,a4
	mv	a0,a3
	jalr	a5
.LVL27:
	sd	a0,-48(s0)
	.loc 1 1206 36
	ld	a5,-48(s0)
	.loc 1 1206 8
	bge	a5,zero,.L144
	.loc 1 1207 14
	ld	a5,-48(s0)
	j	.L165
.L144:
	.loc 1 1213 16
	ld	a5,-72(s0)
	ld	a4,528(a5)
	.loc 1 1213 27
	li	a5,57344
	or	a4,a4,a5
	ld	a5,-72(s0)
	sd	a4,528(a5)
	j	.L146
.L143:
	.loc 1 1222 13
	li	a5,39
	sh	a5,-50(s0)
	.loc 1 1227 19
	li	a5,28
	sh	a5,-52(s0)
	.loc 1 1232 5
	addi	a4,s0,-56
	addi	a3,s0,-54
	addi	a2,s0,-52
	addi	a5,s0,-50
	mv	a1,a5
	ld	a0,-72(s0)
	call	PciTestSupportedAttribute
	.loc 1 1237 5
	lhu	a5,-50(s0)
	lhu	a4,-52(s0)
	li	a3,0
	mv	a2,a4
	mv	a1,a5
	ld	a0,-72(s0)
	call	PciSetDeviceAttribute
	.loc 1 1242 5
	lhu	a5,-54(s0)
	lhu	a4,-56(s0)
	li	a3,1
	mv	a2,a4
	mv	a1,a5
	ld	a0,-72(s0)
	call	PciSetDeviceAttribute
	.loc 1 1247 21
	ld	a5,-72(s0)
	lbu	a5,608(a5)
	.loc 1 1247 8
	bne	a5,zero,.L146
	.loc 1 1248 7
	li	a4,0
	li	a3,3
	li	a2,4
	li	a1,16
	ld	a0,-72(s0)
	call	PciOperateRegister@plt
.L146:
	.loc 1 1252 18
	li	a5,1
	sb	a5,-17(s0)
	.loc 1 1257 33
	ld	a5,-72(s0)
	lbu	a5,238(a5)
	.loc 1 1257 45
	sext.w	a5,a5
	andi	a5,a5,127
	sext.w	a4,a5
	.loc 1 1257 6
	li	a5,2
	bne	a4,a5,.L147
	.loc 1 1258 20
	sb	zero,-17(s0)
.L147:
	.loc 1 1264 15
	ld	a5,-72(s0)
	ld	a5,496(a5)
	sd	a5,-40(s0)
	.loc 1 1265 9
	j	.L148
.L154:
	.loc 1 1266 14
	ld	a5,-40(s0)
	addi	a5,a5,-176
	.loc 1 1266 119
	lw	a4,0(a5)
	.loc 1 1266 204
	li	a5,1869176832
	addi	a5,a5,880
	bne	a4,a5,.L149
	.loc 1 1266 10 discriminator 1
	ld	a5,-40(s0)
	addi	a5,a5,-176
	sd	a5,-32(s0)
	j	.L150
.L149:
	.loc 1 1266 10 is_stmt 0 discriminator 2
	sd	zero,-32(s0)
.L150:
	.loc 1 1267 14 is_stmt 1
	ld	a0,-32(s0)
	call	DetermineDeviceAttribute
	sd	a0,-48(s0)
	.loc 1 1268 36
	ld	a5,-48(s0)
	.loc 1 1268 8
	bge	a5,zero,.L151
	.loc 1 1269 14
	ld	a5,-48(s0)
	j	.L165
.L151:
	.loc 1 1275 14
	li	a1,6
	ld	a0,-32(s0)
	call	GetFastBackToBackSupport
	sd	a0,-48(s0)
	.loc 1 1276 8
	lbu	a5,-17(s0)
	andi	a5,a5,0xff
	beq	a5,zero,.L152
	.loc 1 1276 54 discriminator 1
	ld	a5,-48(s0)
	.loc 1 1276 24 discriminator 1
	bge	a5,zero,.L152
	.loc 1 1277 22
	sb	zero,-17(s0)
.L152:
	.loc 1 1280 17
	ld	a5,-40(s0)
	ld	a5,0(a5)
	sd	a5,-40(s0)
.L148:
	.loc 1 1265 38
	ld	a5,-40(s0)
	beq	a5,zero,.L153
	.loc 1 1265 56 discriminator 1
	ld	a5,-72(s0)
	addi	a5,a5,496
	.loc 1 1265 38 discriminator 1
	ld	a4,-40(s0)
	bne	a4,a5,.L154
.L153:
	.loc 1 1286 21
	ld	a5,-72(s0)
	addi	a5,a5,496
	.loc 1 1286 8
	mv	a0,a5
	call	IsListEmpty@plt
	mv	a5,a0
	.loc 1 1286 6 discriminator 1
	bne	a5,zero,.L155
	.loc 1 1287 35
	ld	a5,-72(s0)
	lbu	a5,238(a5)
	.loc 1 1287 47
	sext.w	a5,a5
	andi	a5,a5,127
	sext.w	a4,a5
	.loc 1 1287 8
	li	a5,1
	bne	a4,a5,.L156
	.loc 1 1288 16
	li	a1,30
	ld	a0,-72(s0)
	call	GetFastBackToBackSupport
	sd	a0,-48(s0)
	.loc 1 1290 38
	ld	a5,-48(s0)
	.loc 1 1290 10
	blt	a5,zero,.L157
	.loc 1 1290 64 discriminator 1
	lbu	a5,-17(s0)
	andi	a5,a5,0xff
	bne	a5,zero,.L158
.L157:
	.loc 1 1291 24
	sb	zero,-17(s0)
	.loc 1 1292 9
	li	a4,0
	li	a3,4
	li	a2,62
	li	a1,128
	ld	a0,-72(s0)
	call	PciOperateRegister@plt
	j	.L156
.L158:
	.loc 1 1294 9
	li	a4,0
	li	a3,3
	li	a2,62
	li	a1,128
	ld	a0,-72(s0)
	call	PciOperateRegister@plt
.L156:
	.loc 1 1298 17
	ld	a5,-72(s0)
	ld	a5,496(a5)
	sd	a5,-40(s0)
	.loc 1 1299 11
	j	.L159
.L164:
	.loc 1 1300 16
	ld	a5,-40(s0)
	addi	a5,a5,-176
	.loc 1 1300 121
	lw	a4,0(a5)
	.loc 1 1300 206
	li	a5,1869176832
	addi	a5,a5,880
	bne	a4,a5,.L160
	.loc 1 1300 12 discriminator 1
	ld	a5,-40(s0)
	addi	a5,a5,-176
	sd	a5,-32(s0)
	j	.L161
.L160:
	.loc 1 1300 12 is_stmt 0 discriminator 2
	sd	zero,-32(s0)
.L161:
	.loc 1 1301 10 is_stmt 1
	lbu	a5,-17(s0)
	andi	a5,a5,0xff
	beq	a5,zero,.L162
	.loc 1 1302 9
	li	a4,0
	li	a3,3
	li	a2,4
	li	a1,512
	ld	a0,-32(s0)
	call	PciOperateRegister@plt
	j	.L163
.L162:
	.loc 1 1304 9
	li	a4,0
	li	a3,4
	li	a2,4
	li	a1,512
	ld	a0,-32(s0)
	call	PciOperateRegister@plt
.L163:
	.loc 1 1307 19
	ld	a5,-40(s0)
	ld	a5,0(a5)
	sd	a5,-40(s0)
.L159:
	.loc 1 1299 40
	ld	a5,-40(s0)
	beq	a5,zero,.L155
	.loc 1 1299 58 discriminator 1
	ld	a5,-72(s0)
	addi	a5,a5,496
	.loc 1 1299 40 discriminator 1
	ld	a4,-40(s0)
	bne	a4,a5,.L164
.L155:
	.loc 1 1314 10
	li	a5,0
.L165:
	.loc 1 1315 1
	mv	a0,a5
	ld	ra,72(sp)
	.cfi_restore 1
	ld	s0,64(sp)
	.cfi_restore 8
	.cfi_def_cfa 2, 80
	addi	sp,sp,80
	.cfi_def_cfa_offset 0
	jr	ra
	.cfi_endproc
.LFE15:
	.size	DetermineDeviceAttribute, .-DetermineDeviceAttribute
	.section	.text.UpdatePciInfo,"ax",@progbits
	.align	1
	.globl	UpdatePciInfo
	.type	UpdatePciInfo, @function
UpdatePciInfo:
.LFB16:
	.loc 1 1333 1
	.cfi_startproc
	addi	sp,sp,-80
	.cfi_def_cfa_offset 80
	sd	ra,72(sp)
	sd	s0,64(sp)
	.cfi_offset 1, -8
	.cfi_offset 8, -16
	addi	s0,sp,80
	.cfi_def_cfa 8, 0
	sd	a0,-72(s0)
	sd	a1,-80(s0)
	.loc 1 1340 17
	sd	zero,-56(s0)
	.loc 1 1341 10
	sd	zero,-24(s0)
	.loc 1 1343 37
	la	a5,gIncompatiblePciDeviceSupport
	ld	a5,0(a5)
	.loc 1 1343 6
	bne	a5,zero,.L167
	.loc 1 1348 17
	la	a5,gBS
	ld	a5,0(a5)
	ld	a5,320(a5)
	.loc 1 1348 14
	la	a2,gIncompatiblePciDeviceSupport
	li	a1,0
	la	a0,gEfiIncompatiblePciDeviceSupportProtocolGuid
	jalr	a5
.LVL28:
	sd	a0,-24(s0)
.L167:
	.loc 1 1355 6
	ld	a5,-24(s0)
	bne	a5,zero,.L168
	.loc 1 1360 43
	la	a5,gIncompatiblePciDeviceSupport
	ld	a5,0(a5)
	ld	a7,0(a5)
	.loc 1 1360 14
	la	a5,gIncompatiblePciDeviceSupport
	ld	a0,0(a5)
	.loc 1 1362 67
	ld	a5,-72(s0)
	lhu	a5,224(a5)
	.loc 1 1360 14
	mv	a1,a5
	.loc 1 1363 67
	ld	a5,-72(s0)
	lhu	a5,226(a5)
	.loc 1 1360 14
	mv	a2,a5
	.loc 1 1364 67
	ld	a5,-72(s0)
	lbu	a5,232(a5)
	.loc 1 1360 14
	mv	a3,a5
	.loc 1 1365 70
	ld	a5,-72(s0)
	lhu	a5,268(a5)
	.loc 1 1360 14
	mv	a4,a5
	.loc 1 1366 70
	ld	a5,-72(s0)
	lhu	a5,270(a5)
	.loc 1 1360 14
	mv	t1,a5
	addi	a5,s0,-56
	mv	a6,a5
	mv	a5,t1
	jalr	a7
.LVL29:
	sd	a0,-24(s0)
.L168:
	.loc 1 1371 34
	ld	a5,-24(s0)
	.loc 1 1371 6
	blt	a5,zero,.L169
	.loc 1 1371 78 discriminator 1
	ld	a5,-56(s0)
	.loc 1 1371 60 discriminator 1
	bne	a5,zero,.L170
.L169:
	.loc 1 1372 12
	li	a5,-1
	slli	a5,a5,63
	addi	a5,a5,3
	j	.L194
.L170:
	.loc 1 1378 7
	ld	a5,-56(s0)
	sd	a5,-48(s0)
	.loc 1 1380 9
	j	.L172
.L193:
	.loc 1 1381 12
	ld	a5,-48(s0)
	lbu	a5,0(a5)
	.loc 1 1381 8
	mv	a4,a5
	li	a5,138
	bne	a4,a5,.L195
	.loc 1 1393 14
	ld	a5,-48(s0)
	lbu	a4,30(a5)
	lbu	a3,31(a5)
	slli	a3,a3,8
	or	a4,a3,a4
	lbu	a3,32(a5)
	slli	a3,a3,16
	or	a4,a3,a4
	lbu	a3,33(a5)
	slli	a3,a3,24
	or	a4,a3,a4
	lbu	a3,34(a5)
	slli	a3,a3,32
	or	a4,a3,a4
	lbu	a3,35(a5)
	slli	a3,a3,40
	or	a4,a3,a4
	lbu	a3,36(a5)
	slli	a3,a3,48
	or	a4,a3,a4
	lbu	a5,37(a5)
	slli	a5,a5,56
	or	a5,a5,a4
	mv	a4,a5
	.loc 1 1393 8
	li	a5,6
	bne	a4,a5,.L175
	.loc 1 1393 56 discriminator 1
	ld	a5,-48(s0)
	lbu	a5,5(a5)
	.loc 1 1393 49 discriminator 1
	bne	a5,zero,.L175
	.loc 1 1394 24
	ld	a5,-80(s0)
	li	a4,1
	sb	a4,0(a5)
	.loc 1 1395 10
	ld	a5,-48(s0)
	addi	a5,a5,46
	sd	a5,-48(s0)
	.loc 1 1396 7
	j	.L172
.L175:
	.loc 1 1399 19
	sd	zero,-32(s0)
	.loc 1 1399 5
	j	.L177
.L192:
	.loc 1 1400 15
	ld	a5,-48(s0)
	lbu	a4,30(a5)
	lbu	a3,31(a5)
	slli	a3,a3,8
	or	a4,a3,a4
	lbu	a3,32(a5)
	slli	a3,a3,16
	or	a4,a3,a4
	lbu	a3,33(a5)
	slli	a3,a3,24
	or	a4,a3,a4
	lbu	a3,34(a5)
	slli	a3,a3,32
	or	a4,a3,a4
	lbu	a3,35(a5)
	slli	a3,a3,40
	or	a4,a3,a4
	lbu	a3,36(a5)
	slli	a3,a3,48
	or	a4,a3,a4
	lbu	a5,37(a5)
	slli	a5,a5,56
	or	a5,a5,a4
	mv	a4,a5
	.loc 1 1400 10
	li	a5,-1
	beq	a4,a5,.L178
	.loc 1 1401 15
	ld	a5,-48(s0)
	lbu	a4,30(a5)
	lbu	a3,31(a5)
	slli	a3,a3,8
	or	a4,a3,a4
	lbu	a3,32(a5)
	slli	a3,a3,16
	or	a4,a3,a4
	lbu	a3,33(a5)
	slli	a3,a3,24
	or	a4,a3,a4
	lbu	a3,34(a5)
	slli	a3,a3,32
	or	a4,a3,a4
	lbu	a3,35(a5)
	slli	a3,a3,40
	or	a4,a3,a4
	lbu	a3,36(a5)
	slli	a3,a3,48
	or	a4,a3,a4
	lbu	a5,37(a5)
	slli	a5,a5,56
	or	a5,a5,a4
	mv	a4,a5
	.loc 1 1400 75 discriminator 1
	li	a5,255
	beq	a4,a5,.L178
	.loc 1 1402 15
	ld	a5,-48(s0)
	lbu	a4,30(a5)
	lbu	a3,31(a5)
	slli	a3,a3,8
	or	a4,a3,a4
	lbu	a3,32(a5)
	slli	a3,a3,16
	or	a4,a3,a4
	lbu	a3,33(a5)
	slli	a3,a3,24
	or	a4,a3,a4
	lbu	a3,34(a5)
	slli	a3,a3,32
	or	a4,a3,a4
	lbu	a3,35(a5)
	slli	a3,a3,40
	or	a4,a3,a4
	lbu	a3,36(a5)
	slli	a3,a3,48
	or	a4,a3,a4
	lbu	a5,37(a5)
	slli	a5,a5,56
	or	a5,a5,a4
	mv	a4,a5
	.loc 1 1401 57
	ld	a5,-32(s0)
	bne	a5,a4,.L196
.L178:
	.loc 1 1413 15
	sb	zero,-33(s0)
	.loc 1 1414 18
	ld	a5,-48(s0)
	lbu	a5,3(a5)
	sext.w	a5,a5
	.loc 1 1414 7
	beq	a5,zero,.L180
	li	a4,1
	beq	a5,a4,.L181
	j	.L182
.L180:
	.loc 1 1420 15
	ld	a5,-32(s0)
	andi	a5,a5,0xff
	li	a2,9
	mv	a1,a5
	ld	a0,-72(s0)
	call	CheckBarType@plt
	mv	a5,a0
	.loc 1 1420 14 discriminator 1
	beq	a5,zero,.L197
	.loc 1 1421 21
	li	a5,1
	sb	a5,-33(s0)
	.loc 1 1431 46
	ld	a4,-72(s0)
	ld	a5,-32(s0)
	slli	a5,a5,5
	add	a5,a4,a5
	lw	a4,320(a5)
	.loc 1 1431 16
	li	a5,5
	bne	a4,a5,.L184
	.loc 1 1432 26
	ld	a5,-48(s0)
	lbu	a4,6(a5)
	lbu	a3,7(a5)
	slli	a3,a3,8
	or	a4,a3,a4
	lbu	a3,8(a5)
	slli	a3,a3,16
	or	a4,a3,a4
	lbu	a3,9(a5)
	slli	a3,a3,24
	or	a4,a3,a4
	lbu	a3,10(a5)
	slli	a3,a3,32
	or	a4,a3,a4
	lbu	a3,11(a5)
	slli	a3,a3,40
	or	a4,a3,a4
	lbu	a3,12(a5)
	slli	a3,a3,48
	or	a4,a3,a4
	lbu	a5,13(a5)
	slli	a5,a5,56
	or	a5,a5,a4
	.loc 1 1432 15
	li	a4,32
	beq	a5,a4,.L185
	li	a4,64
	beq	a5,a4,.L186
	.loc 1 1439 19
	j	.L184
.L185:
	.loc 1 1434 57
	ld	a4,-72(s0)
	ld	a5,-32(s0)
	slli	a5,a5,5
	add	a5,a4,a5
	li	a4,3
	sw	a4,320(a5)
.L186:
	.loc 1 1436 62
	ld	a4,-72(s0)
	ld	a5,-32(s0)
	slli	a5,a5,5
	add	a5,a4,a5
	li	a4,1
	sb	a4,324(a5)
	.loc 1 1437 19
	nop
.L184:
	.loc 1 1443 46
	ld	a4,-72(s0)
	ld	a5,-32(s0)
	slli	a5,a5,5
	add	a5,a4,a5
	lw	a4,320(a5)
	.loc 1 1443 16
	li	a5,6
	bne	a4,a5,.L197
	.loc 1 1444 26
	ld	a5,-48(s0)
	lbu	a4,6(a5)
	lbu	a3,7(a5)
	slli	a3,a3,8
	or	a4,a3,a4
	lbu	a3,8(a5)
	slli	a3,a3,16
	or	a4,a3,a4
	lbu	a3,9(a5)
	slli	a3,a3,24
	or	a4,a3,a4
	lbu	a3,10(a5)
	slli	a3,a3,32
	or	a4,a3,a4
	lbu	a3,11(a5)
	slli	a3,a3,40
	or	a4,a3,a4
	lbu	a3,12(a5)
	slli	a3,a3,48
	or	a4,a3,a4
	lbu	a5,13(a5)
	slli	a5,a5,56
	or	a5,a5,a4
	.loc 1 1444 15
	li	a4,32
	beq	a5,a4,.L188
	li	a4,64
	beq	a5,a4,.L189
	.loc 1 1451 19
	j	.L183
.L188:
	.loc 1 1446 57
	ld	a4,-72(s0)
	ld	a5,-32(s0)
	slli	a5,a5,5
	add	a5,a4,a5
	li	a4,4
	sw	a4,320(a5)
.L189:
	.loc 1 1448 62
	ld	a4,-72(s0)
	ld	a5,-32(s0)
	slli	a5,a5,5
	add	a5,a4,a5
	li	a4,1
	sb	a4,324(a5)
	.loc 1 1449 19
	nop
.L183:
	.loc 1 1456 11
	j	.L197
.L181:
	.loc 1 1463 15
	ld	a5,-32(s0)
	andi	a5,a5,0xff
	li	a2,8
	mv	a1,a5
	ld	a0,-72(s0)
	call	CheckBarType@plt
	mv	a5,a0
	.loc 1 1463 14 discriminator 1
	beq	a5,zero,.L198
	.loc 1 1464 21
	li	a5,1
	sb	a5,-33(s0)
	.loc 1 1467 11
	j	.L198
.L197:
	.loc 1 1456 11
	nop
	j	.L182
.L198:
	.loc 1 1467 11
	nop
.L182:
	.loc 1 1470 10
	lbu	a5,-33(s0)
	andi	a5,a5,0xff
	beq	a5,zero,.L179
	.loc 1 1474 9
	ld	a5,-32(s0)
	slli	a5,a5,5
	addi	a5,a5,304
	ld	a4,-72(s0)
	add	a5,a4,a5
	addi	a2,a5,8
	ld	a5,-48(s0)
	lbu	a4,22(a5)
	lbu	a3,23(a5)
	slli	a3,a3,8
	or	a4,a3,a4
	lbu	a3,24(a5)
	slli	a3,a3,16
	or	a4,a3,a4
	lbu	a3,25(a5)
	slli	a3,a3,24
	or	a4,a3,a4
	lbu	a3,26(a5)
	slli	a3,a3,32
	or	a4,a3,a4
	lbu	a3,27(a5)
	slli	a3,a3,40
	or	a4,a3,a4
	lbu	a3,28(a5)
	slli	a3,a3,48
	or	a4,a3,a4
	lbu	a5,29(a5)
	slli	a5,a5,56
	or	a5,a5,a4
	mv	a1,a5
	mv	a0,a2
	call	SetNewAlign
	.loc 1 1479 16
	ld	a5,-48(s0)
	lbu	a4,38(a5)
	lbu	a3,39(a5)
	slli	a3,a3,8
	or	a4,a3,a4
	lbu	a3,40(a5)
	slli	a3,a3,16
	or	a4,a3,a4
	lbu	a3,41(a5)
	slli	a3,a3,24
	or	a4,a3,a4
	lbu	a3,42(a5)
	slli	a3,a3,32
	or	a4,a3,a4
	lbu	a3,43(a5)
	slli	a3,a3,40
	or	a4,a3,a4
	lbu	a3,44(a5)
	slli	a3,a3,48
	or	a4,a3,a4
	lbu	a5,45(a5)
	slli	a5,a5,56
	or	a5,a5,a4
	.loc 1 1479 12
	beq	a5,zero,.L179
	.loc 1 1480 53
	ld	a5,-48(s0)
	lbu	a4,38(a5)
	lbu	a3,39(a5)
	slli	a3,a3,8
	or	a4,a3,a4
	lbu	a3,40(a5)
	slli	a3,a3,16
	or	a4,a3,a4
	lbu	a3,41(a5)
	slli	a3,a3,24
	or	a4,a3,a4
	lbu	a3,42(a5)
	slli	a3,a3,32
	or	a4,a3,a4
	lbu	a3,43(a5)
	slli	a3,a3,40
	or	a4,a3,a4
	lbu	a3,44(a5)
	slli	a3,a3,48
	or	a4,a3,a4
	lbu	a5,45(a5)
	slli	a5,a5,56
	or	a5,a5,a4
	mv	a3,a5
	.loc 1 1480 48
	ld	a4,-72(s0)
	ld	a5,-32(s0)
	addi	a5,a5,9
	slli	a5,a5,5
	add	a5,a4,a5
	sd	a3,16(a5)
	j	.L179
.L196:
	.loc 1 1410 9
	nop
.L179:
	.loc 1 1399 51 discriminator 2
	ld	a5,-32(s0)
	addi	a5,a5,1
	sd	a5,-32(s0)
.L177:
	.loc 1 1399 33 discriminator 1
	ld	a4,-32(s0)
	li	a5,5
	bleu	a4,a5,.L192
	.loc 1 1485 8
	ld	a5,-48(s0)
	addi	a5,a5,46
	sd	a5,-48(s0)
.L172:
	.loc 1 1380 13
	ld	a5,-48(s0)
	lbu	a5,0(a5)
	.loc 1 1380 20
	mv	a4,a5
	li	a5,121
	bne	a4,a5,.L193
	j	.L174
.L195:
	.loc 1 1385 7
	nop
.L174:
	.loc 1 1488 3
	ld	a5,-56(s0)
	mv	a0,a5
	call	FreePool@plt
	.loc 1 1490 10
	li	a5,0
.L194:
	.loc 1 1491 1
	mv	a0,a5
	ld	ra,72(sp)
	.cfi_restore 1
	ld	s0,64(sp)
	.cfi_restore 8
	.cfi_def_cfa 2, 80
	addi	sp,sp,80
	.cfi_def_cfa_offset 0
	jr	ra
	.cfi_endproc
.LFE16:
	.size	UpdatePciInfo, .-UpdatePciInfo
	.section	.text.SetNewAlign,"ax",@progbits
	.align	1
	.globl	SetNewAlign
	.type	SetNewAlign, @function
SetNewAlign:
.LFB17:
	.loc 1 1507 1
	.cfi_startproc
	addi	sp,sp,-48
	.cfi_def_cfa_offset 48
	sd	ra,40(sp)
	sd	s0,32(sp)
	.cfi_offset 1, -8
	.cfi_offset 8, -16
	addi	s0,sp,48
	.cfi_def_cfa 8, 0
	sd	a0,-40(s0)
	sd	a1,-48(s0)
	.loc 1 1515 6
	ld	a5,-48(s0)
	beq	a5,zero,.L209
	.loc 1 1515 27 discriminator 1
	ld	a4,-48(s0)
	li	a5,-1
	beq	a4,a5,.L209
	.loc 1 1522 6
	ld	a4,-48(s0)
	li	a5,-2
	beq	a4,a5,.L203
	.loc 1 1522 47 discriminator 1
	ld	a4,-48(s0)
	li	a5,-3
	beq	a4,a5,.L203
	.loc 1 1523 47
	ld	a4,-48(s0)
	li	a5,-4
	beq	a4,a5,.L203
	.loc 1 1526 16
	ld	a5,-40(s0)
	ld	a4,-48(s0)
	sd	a4,0(a5)
	.loc 1 1527 5
	j	.L199
.L203:
	.loc 1 1530 19
	ld	a5,-40(s0)
	ld	a5,0(a5)
	.loc 1 1530 16
	addi	a5,a5,1
	sd	a5,-24(s0)
	.loc 1 1531 12
	sd	zero,-32(s0)
	.loc 1 1536 9
	j	.L204
.L205:
	.loc 1 1537 20
	li	a1,4
	ld	a0,-24(s0)
	call	RShiftU64@plt
	sd	a0,-24(s0)
	.loc 1 1538 14
	ld	a5,-32(s0)
	addi	a5,a5,4
	sd	a5,-32(s0)
.L204:
	.loc 1 1536 24
	ld	a5,-24(s0)
	andi	a5,a5,15
	.loc 1 1536 32
	beq	a5,zero,.L205
	.loc 1 1544 6
	ld	a4,-48(s0)
	li	a5,-2
	bne	a4,a5,.L206
	.loc 1 1545 23
	ld	a5,-24(s0)
	andi	a5,a5,1
	.loc 1 1545 8
	beq	a5,zero,.L207
	.loc 1 1546 39
	ld	a5,-24(s0)
	andi	a5,a5,-2
	.loc 1 1546 20
	addi	a5,a5,2
	sd	a5,-24(s0)
	j	.L207
.L206:
	.loc 1 1548 13
	ld	a4,-48(s0)
	li	a5,-3
	bne	a4,a5,.L208
	.loc 1 1549 23
	ld	a5,-24(s0)
	andi	a5,a5,3
	.loc 1 1549 8
	beq	a5,zero,.L207
	.loc 1 1550 39
	ld	a5,-24(s0)
	andi	a5,a5,-4
	.loc 1 1550 20
	addi	a5,a5,4
	sd	a5,-24(s0)
	j	.L207
.L208:
	.loc 1 1552 13
	ld	a4,-48(s0)
	li	a5,-4
	bne	a4,a5,.L207
	.loc 1 1553 23
	ld	a5,-24(s0)
	andi	a5,a5,7
	.loc 1 1553 8
	beq	a5,zero,.L207
	.loc 1 1554 39
	ld	a5,-24(s0)
	andi	a5,a5,-8
	.loc 1 1554 20
	addi	a5,a5,8
	sd	a5,-24(s0)
.L207:
	.loc 1 1561 18
	ld	a1,-32(s0)
	ld	a0,-24(s0)
	call	LShiftU64@plt
	mv	a5,a0
	.loc 1 1561 16 discriminator 1
	addi	a5,a5,-1
	sd	a5,-48(s0)
	.loc 1 1562 14
	ld	a5,-40(s0)
	ld	a4,-48(s0)
	sd	a4,0(a5)
	.loc 1 1564 3
	j	.L199
.L209:
	.loc 1 1516 5
	nop
.L199:
	.loc 1 1565 1
	ld	ra,40(sp)
	.cfi_restore 1
	ld	s0,32(sp)
	.cfi_restore 8
	.cfi_def_cfa 2, 48
	addi	sp,sp,48
	.cfi_def_cfa_offset 0
	jr	ra
	.cfi_endproc
.LFE17:
	.size	SetNewAlign, .-SetNewAlign
	.section	.text.PciIovParseVfBar,"ax",@progbits
	.align	1
	.globl	PciIovParseVfBar
	.type	PciIovParseVfBar, @function
PciIovParseVfBar:
.LFB18:
	.loc 1 1583 1
	.cfi_startproc
	addi	sp,sp,-96
	.cfi_def_cfa_offset 96
	sd	ra,88(sp)
	sd	s0,80(sp)
	sd	s1,72(sp)
	.cfi_offset 1, -8
	.cfi_offset 8, -16
	.cfi_offset 9, -24
	addi	s0,sp,96
	.cfi_def_cfa 8, 0
	sd	a0,-72(s0)
	sd	a1,-80(s0)
	sd	a2,-88(s0)
	.loc 1 1593 18
	ld	a5,-72(s0)
	lw	a5,620(a5)
	.loc 1 1593 6
	bne	a5,zero,.L211
	.loc 1 1594 12
	li	a5,0
	j	.L229
.L211:
	.loc 1 1597 17
	sw	zero,-52(s0)
	.loc 1 1598 9
	sw	zero,-48(s0)
	.loc 1 1600 12
	addi	a4,s0,-52
	addi	a5,s0,-48
	mv	a3,a4
	mv	a2,a5
	ld	a1,-80(s0)
	ld	a0,-72(s0)
	call	VfBarExisted
	sd	a0,-40(s0)
	.loc 1 1607 34
	ld	a5,-40(s0)
	.loc 1 1607 6
	bge	a5,zero,.L213
	.loc 1 1608 49
	ld	a4,-72(s0)
	ld	a5,-88(s0)
	slli	a5,a5,5
	add	a5,a4,a5
	sd	zero,632(a5)
	.loc 1 1609 44
	ld	a4,-72(s0)
	ld	a5,-88(s0)
	slli	a5,a5,5
	add	a5,a4,a5
	sd	zero,640(a5)
	.loc 1 1610 47
	ld	a4,-72(s0)
	ld	a5,-88(s0)
	addi	a5,a5,20
	slli	a5,a5,5
	add	a5,a4,a5
	sd	zero,8(a5)
	.loc 1 1615 46
	ld	a5,-80(s0)
	slli	a4,a5,48
	srli	a4,a4,48
	.loc 1 1615 44
	ld	a3,-72(s0)
	ld	a5,-88(s0)
	addi	a5,a5,20
	slli	a5,a5,5
	add	a5,a3,a5
	sh	a4,22(a5)
	.loc 1 1616 19
	ld	a5,-80(s0)
	addi	a5,a5,4
	j	.L229
.L213:
	.loc 1 1619 44
	ld	a5,-80(s0)
	slli	a4,a5,48
	srli	a4,a4,48
	.loc 1 1619 42
	ld	a3,-72(s0)
	ld	a5,-88(s0)
	addi	a5,a5,20
	slli	a5,a5,5
	add	a5,a3,a5
	sh	a4,22(a5)
	.loc 1 1620 14
	lw	a5,-48(s0)
	andi	a5,a5,1
	sext.w	a5,a5
	.loc 1 1620 6
	beq	a5,zero,.L214
	.loc 1 1625 19
	ld	a5,-80(s0)
	addi	a5,a5,4
	j	.L229
.L214:
	.loc 1 1627 10
	li	a5,-16
	sw	a5,-44(s0)
	.loc 1 1629 65
	lw	a5,-52(s0)
	lw	a4,-44(s0)
	and	a5,a4,a5
	sext.w	a5,a5
	slli	a4,a5,32
	srli	a4,a4,32
	.loc 1 1629 49
	ld	a3,-72(s0)
	ld	a5,-88(s0)
	slli	a5,a5,5
	add	a5,a3,a5
	sd	a4,632(a5)
	.loc 1 1631 19
	lw	a5,-48(s0)
	andi	a5,a5,7
	sext.w	a5,a5
	.loc 1 1631 5
	beq	a5,zero,.L215
	li	a4,4
	beq	a5,a4,.L216
	j	.L230
.L215:
	.loc 1 1636 20
	lw	a5,-48(s0)
	andi	a5,a5,8
	sext.w	a5,a5
	.loc 1 1636 12
	beq	a5,zero,.L218
	.loc 1 1637 51
	ld	a4,-72(s0)
	ld	a5,-88(s0)
	addi	a5,a5,20
	slli	a5,a5,5
	add	a5,a4,a5
	li	a4,4
	sw	a4,16(a5)
	j	.L219
.L218:
	.loc 1 1639 51
	ld	a4,-72(s0)
	ld	a5,-88(s0)
	addi	a5,a5,20
	slli	a5,a5,5
	add	a5,a4,a5
	li	a4,3
	sw	a4,16(a5)
.L219:
	.loc 1 1642 59
	lw	a5,-48(s0)
	lw	a4,-44(s0)
	and	a5,a4,a5
	sext.w	a5,a5
	.loc 1 1642 68
	negw	a5,a5
	sext.w	a5,a5
	slli	a4,a5,32
	srli	a4,a4,32
	.loc 1 1642 48
	ld	a3,-72(s0)
	ld	a5,-88(s0)
	slli	a5,a5,5
	add	a5,a3,a5
	sd	a4,640(a5)
	.loc 1 1643 84
	ld	a4,-72(s0)
	ld	a5,-88(s0)
	slli	a5,a5,5
	add	a5,a4,a5
	ld	a5,640(a5)
	.loc 1 1643 92
	addi	a4,a5,-1
	.loc 1 1643 51
	ld	a3,-72(s0)
	ld	a5,-88(s0)
	addi	a5,a5,20
	slli	a5,a5,5
	add	a5,a3,a5
	sd	a4,8(a5)
	.loc 1 1648 50
	ld	a4,-72(s0)
	ld	a5,-88(s0)
	slli	a5,a5,5
	add	a5,a4,a5
	ld	a4,640(a5)
	.loc 1 1648 113
	ld	a5,-72(s0)
	lhu	a5,828(a5)
	.loc 1 1648 50
	sext.w	a5,a5
	mv	a1,a5
	mv	a0,a4
	call	MultU64x32@plt
	mv	a3,a0
	.loc 1 1648 48 discriminator 1
	ld	a4,-72(s0)
	ld	a5,-88(s0)
	slli	a5,a5,5
	add	a5,a4,a5
	sd	a3,640(a5)
	.loc 1 1652 44
	ld	a4,-72(s0)
	ld	a5,-88(s0)
	addi	a5,a5,20
	slli	a5,a5,5
	add	a5,a4,a5
	ld	a4,8(a5)
	.loc 1 1652 68
	ld	a5,-72(s0)
	lw	a5,824(a5)
	.loc 1 1652 85
	addiw	a5,a5,-1
	sext.w	a5,a5
	slli	a5,a5,32
	srli	a5,a5,32
	.loc 1 1652 12
	bgeu	a4,a5,.L231
	.loc 1 1653 66
	ld	a5,-72(s0)
	lw	a5,824(a5)
	.loc 1 1653 83
	addiw	a5,a5,-1
	sext.w	a5,a5
	slli	a4,a5,32
	srli	a4,a4,32
	.loc 1 1653 53
	ld	a3,-72(s0)
	ld	a5,-88(s0)
	addi	a5,a5,20
	slli	a5,a5,5
	add	a5,a3,a5
	sd	a4,8(a5)
	.loc 1 1656 9
	j	.L231
.L216:
	.loc 1 1662 20
	lw	a5,-48(s0)
	andi	a5,a5,8
	sext.w	a5,a5
	.loc 1 1662 12
	beq	a5,zero,.L222
	.loc 1 1663 51
	ld	a4,-72(s0)
	ld	a5,-88(s0)
	addi	a5,a5,20
	slli	a5,a5,5
	add	a5,a4,a5
	li	a4,6
	sw	a4,16(a5)
	j	.L223
.L222:
	.loc 1 1665 51
	ld	a4,-72(s0)
	ld	a5,-88(s0)
	addi	a5,a5,20
	slli	a5,a5,5
	add	a5,a4,a5
	li	a4,5
	sw	a4,16(a5)
.L223:
	.loc 1 1675 56
	lw	a5,-48(s0)
	lw	a4,-44(s0)
	and	a5,a4,a5
	sext.w	a5,a5
	slli	a4,a5,32
	srli	a4,a4,32
	.loc 1 1675 48
	ld	a3,-72(s0)
	ld	a5,-88(s0)
	slli	a5,a5,5
	add	a5,a3,a5
	sd	a4,640(a5)
	.loc 1 1676 84
	ld	a4,-72(s0)
	ld	a5,-88(s0)
	slli	a5,a5,5
	add	a5,a4,a5
	ld	a5,640(a5)
	.loc 1 1676 92
	addi	a4,a5,-1
	.loc 1 1676 51
	ld	a3,-72(s0)
	ld	a5,-88(s0)
	addi	a5,a5,20
	slli	a5,a5,5
	add	a5,a3,a5
	sd	a4,8(a5)
	.loc 1 1678 44
	ld	a4,-72(s0)
	ld	a5,-88(s0)
	addi	a5,a5,20
	slli	a5,a5,5
	add	a5,a4,a5
	ld	a4,8(a5)
	.loc 1 1678 68
	ld	a5,-72(s0)
	lw	a5,824(a5)
	.loc 1 1678 85
	addiw	a5,a5,-1
	sext.w	a5,a5
	slli	a5,a5,32
	srli	a5,a5,32
	.loc 1 1678 12
	bgeu	a4,a5,.L224
	.loc 1 1679 66
	ld	a5,-72(s0)
	lw	a5,824(a5)
	.loc 1 1679 83
	addiw	a5,a5,-1
	sext.w	a5,a5
	slli	a4,a5,32
	srli	a4,a4,32
	.loc 1 1679 53
	ld	a3,-72(s0)
	ld	a5,-88(s0)
	addi	a5,a5,20
	slli	a5,a5,5
	add	a5,a3,a5
	sd	a4,8(a5)
.L224:
	.loc 1 1685 16
	ld	a5,-80(s0)
	addi	a5,a5,4
	sd	a5,-80(s0)
	.loc 1 1687 18
	addi	a4,s0,-52
	addi	a5,s0,-48
	mv	a3,a4
	mv	a2,a5
	ld	a1,-80(s0)
	ld	a0,-72(s0)
	call	VfBarExisted
	sd	a0,-40(s0)
	.loc 1 1694 40
	ld	a5,-40(s0)
	.loc 1 1694 12
	bge	a5,zero,.L225
	.loc 1 1695 51
	ld	a4,-72(s0)
	ld	a5,-88(s0)
	addi	a5,a5,20
	slli	a5,a5,5
	add	a5,a4,a5
	sw	zero,16(a5)
	.loc 1 1696 25
	ld	a5,-80(s0)
	addi	a5,a5,4
	j	.L229
.L225:
	.loc 1 1702 33
	lw	a5,-48(s0)
	mv	a0,a5
	call	HighBitSet32@plt
	mv	a5,a0
	.loc 1 1702 30 discriminator 1
	sext.w	a5,a5
	mv	a4,a5
	li	a5,-1
	sllw	a5,a5,a4
	sext.w	a4,a5
	.loc 1 1702 15 discriminator 1
	lw	a5,-48(s0)
	or	a5,a4,a5
	sext.w	a5,a5
	sw	a5,-48(s0)
	.loc 1 1707 56
	lw	a5,-52(s0)
	slli	a5,a5,32
	srli	a5,a5,32
	li	a1,32
	mv	a0,a5
	call	LShiftU64@plt
	mv	a3,a0
	.loc 1 1707 40 discriminator 1
	ld	a4,-72(s0)
	ld	a5,-88(s0)
	slli	a5,a5,5
	add	a5,a4,a5
	ld	a5,632(a5)
	.loc 1 1707 53 discriminator 1
	or	a4,a3,a5
	ld	a3,-72(s0)
	ld	a5,-88(s0)
	slli	a5,a5,5
	add	a5,a3,a5
	sd	a4,632(a5)
	.loc 1 1709 81
	ld	a4,-72(s0)
	ld	a5,-88(s0)
	slli	a5,a5,5
	add	a5,a4,a5
	ld	s1,640(a5)
	.loc 1 1709 91
	lw	a5,-48(s0)
	slli	a5,a5,32
	srli	a5,a5,32
	li	a1,32
	mv	a0,a5
	call	LShiftU64@plt
	mv	a5,a0
	.loc 1 1709 89 discriminator 1
	or	a4,s1,a5
	.loc 1 1709 48 discriminator 1
	ld	a3,-72(s0)
	ld	a5,-88(s0)
	slli	a5,a5,5
	add	a5,a3,a5
	sd	a4,640(a5)
	.loc 1 1710 84
	ld	a4,-72(s0)
	ld	a5,-88(s0)
	slli	a5,a5,5
	add	a5,a4,a5
	ld	a5,640(a5)
	.loc 1 1710 94
	neg	a4,a5
	.loc 1 1710 48
	ld	a3,-72(s0)
	ld	a5,-88(s0)
	slli	a5,a5,5
	add	a5,a3,a5
	sd	a4,640(a5)
	.loc 1 1711 84
	ld	a4,-72(s0)
	ld	a5,-88(s0)
	slli	a5,a5,5
	add	a5,a4,a5
	ld	a5,640(a5)
	.loc 1 1711 92
	addi	a4,a5,-1
	.loc 1 1711 51
	ld	a3,-72(s0)
	ld	a5,-88(s0)
	addi	a5,a5,20
	slli	a5,a5,5
	add	a5,a3,a5
	sd	a4,8(a5)
	.loc 1 1716 50
	ld	a4,-72(s0)
	ld	a5,-88(s0)
	slli	a5,a5,5
	add	a5,a4,a5
	ld	a4,640(a5)
	.loc 1 1716 113
	ld	a5,-72(s0)
	lhu	a5,828(a5)
	.loc 1 1716 50
	sext.w	a5,a5
	mv	a1,a5
	mv	a0,a4
	call	MultU64x32@plt
	mv	a3,a0
	.loc 1 1716 48 discriminator 1
	ld	a4,-72(s0)
	ld	a5,-88(s0)
	slli	a5,a5,5
	add	a5,a4,a5
	sd	a3,640(a5)
	.loc 1 1720 44
	ld	a4,-72(s0)
	ld	a5,-88(s0)
	addi	a5,a5,20
	slli	a5,a5,5
	add	a5,a4,a5
	ld	a4,8(a5)
	.loc 1 1720 68
	ld	a5,-72(s0)
	lw	a5,824(a5)
	.loc 1 1720 85
	addiw	a5,a5,-1
	sext.w	a5,a5
	slli	a5,a5,32
	srli	a5,a5,32
	.loc 1 1720 12
	bgeu	a4,a5,.L232
	.loc 1 1721 66
	ld	a5,-72(s0)
	lw	a5,824(a5)
	.loc 1 1721 83
	addiw	a5,a5,-1
	sext.w	a5,a5
	slli	a4,a5,32
	srli	a4,a4,32
	.loc 1 1721 53
	ld	a3,-72(s0)
	ld	a5,-88(s0)
	addi	a5,a5,20
	slli	a5,a5,5
	add	a5,a3,a5
	sd	a4,8(a5)
	.loc 1 1724 9
	j	.L232
.L230:
	.loc 1 1730 49
	ld	a4,-72(s0)
	ld	a5,-88(s0)
	addi	a5,a5,20
	slli	a5,a5,5
	add	a5,a4,a5
	sw	zero,16(a5)
	.loc 1 1731 59
	lw	a5,-48(s0)
	lw	a4,-44(s0)
	and	a5,a4,a5
	sext.w	a5,a5
	.loc 1 1731 68
	negw	a5,a5
	sext.w	a5,a5
	slli	a4,a5,32
	srli	a4,a4,32
	.loc 1 1731 48
	ld	a3,-72(s0)
	ld	a5,-88(s0)
	slli	a5,a5,5
	add	a5,a3,a5
	sd	a4,640(a5)
	.loc 1 1732 84
	ld	a4,-72(s0)
	ld	a5,-88(s0)
	slli	a5,a5,5
	add	a5,a4,a5
	ld	a5,640(a5)
	.loc 1 1732 92
	addi	a4,a5,-1
	.loc 1 1732 51
	ld	a3,-72(s0)
	ld	a5,-88(s0)
	addi	a5,a5,20
	slli	a5,a5,5
	add	a5,a3,a5
	sd	a4,8(a5)
	.loc 1 1734 44
	ld	a4,-72(s0)
	ld	a5,-88(s0)
	addi	a5,a5,20
	slli	a5,a5,5
	add	a5,a4,a5
	ld	a4,8(a5)
	.loc 1 1734 68
	ld	a5,-72(s0)
	lw	a5,824(a5)
	.loc 1 1734 85
	addiw	a5,a5,-1
	sext.w	a5,a5
	slli	a5,a5,32
	srli	a5,a5,32
	.loc 1 1734 12
	bgeu	a4,a5,.L233
	.loc 1 1735 66
	ld	a5,-72(s0)
	lw	a5,824(a5)
	.loc 1 1735 83
	addiw	a5,a5,-1
	sext.w	a5,a5
	slli	a4,a5,32
	srli	a4,a4,32
	.loc 1 1735 53
	ld	a3,-72(s0)
	ld	a5,-88(s0)
	addi	a5,a5,20
	slli	a5,a5,5
	add	a5,a3,a5
	sd	a4,8(a5)
	.loc 1 1738 9
	j	.L233
.L231:
	.loc 1 1656 9
	nop
	j	.L221
.L232:
	.loc 1 1724 9
	nop
	j	.L221
.L233:
	.loc 1 1738 9
	nop
.L221:
	.loc 1 1745 38
	ld	a4,-72(s0)
	ld	a5,-88(s0)
	slli	a5,a5,5
	add	a5,a4,a5
	ld	a5,640(a5)
	.loc 1 1745 6
	bne	a5,zero,.L228
	.loc 1 1746 45
	ld	a4,-72(s0)
	ld	a5,-88(s0)
	addi	a5,a5,20
	slli	a5,a5,5
	add	a5,a4,a5
	sw	zero,16(a5)
	.loc 1 1747 49
	ld	a4,-72(s0)
	ld	a5,-88(s0)
	slli	a5,a5,5
	add	a5,a4,a5
	sd	zero,632(a5)
	.loc 1 1748 47
	ld	a4,-72(s0)
	ld	a5,-88(s0)
	addi	a5,a5,20
	slli	a5,a5,5
	add	a5,a4,a5
	sd	zero,8(a5)
.L228:
	.loc 1 1754 17
	ld	a5,-80(s0)
	addi	a5,a5,4
.L229:
	.loc 1 1755 1
	mv	a0,a5
	ld	ra,88(sp)
	.cfi_restore 1
	ld	s0,80(sp)
	.cfi_restore 8
	.cfi_def_cfa 2, 96
	ld	s1,72(sp)
	.cfi_restore 9
	addi	sp,sp,96
	.cfi_def_cfa_offset 0
	jr	ra
	.cfi_endproc
.LFE18:
	.size	PciIovParseVfBar, .-PciIovParseVfBar
	.section	.text.PciParseBar,"ax",@progbits
	.align	1
	.globl	PciParseBar
	.type	PciParseBar, @function
PciParseBar:
.LFB19:
	.loc 1 1773 1
	.cfi_startproc
	addi	sp,sp,-96
	.cfi_def_cfa_offset 96
	sd	ra,88(sp)
	sd	s0,80(sp)
	sd	s1,72(sp)
	.cfi_offset 1, -8
	.cfi_offset 8, -16
	.cfi_offset 9, -24
	addi	s0,sp,96
	.cfi_def_cfa 8, 0
	sd	a0,-72(s0)
	sd	a1,-80(s0)
	sd	a2,-88(s0)
	.loc 1 1779 17
	sw	zero,-52(s0)
	.loc 1 1780 9
	sw	zero,-48(s0)
	.loc 1 1782 12
	addi	a4,s0,-52
	addi	a5,s0,-48
	mv	a3,a4
	mv	a2,a5
	ld	a1,-80(s0)
	ld	a0,-72(s0)
	call	BarExisted
	sd	a0,-40(s0)
	.loc 1 1789 34
	ld	a5,-40(s0)
	.loc 1 1789 6
	bge	a5,zero,.L235
	.loc 1 1790 47
	ld	a4,-72(s0)
	ld	a5,-88(s0)
	addi	a5,a5,9
	slli	a5,a5,5
	add	a5,a4,a5
	sd	zero,8(a5)
	.loc 1 1791 42
	ld	a4,-72(s0)
	ld	a5,-88(s0)
	addi	a5,a5,9
	slli	a5,a5,5
	add	a5,a4,a5
	sd	zero,16(a5)
	.loc 1 1792 45
	ld	a4,-72(s0)
	ld	a5,-88(s0)
	slli	a5,a5,5
	add	a5,a4,a5
	sd	zero,312(a5)
	.loc 1 1797 44
	ld	a5,-80(s0)
	andi	a5,a5,0xff
	mv	a3,a5
	.loc 1 1797 42
	ld	a4,-72(s0)
	ld	a5,-88(s0)
	slli	a5,a5,5
	add	a5,a4,a5
	sh	a3,326(a5)
	.loc 1 1798 19
	ld	a5,-80(s0)
	addi	a5,a5,4
	j	.L259
.L235:
	.loc 1 1801 46
	ld	a4,-72(s0)
	ld	a5,-88(s0)
	slli	a5,a5,5
	add	a5,a4,a5
	sb	zero,324(a5)
	.loc 1 1802 42
	ld	a5,-80(s0)
	andi	a5,a5,0xff
	mv	a3,a5
	.loc 1 1802 40
	ld	a4,-72(s0)
	ld	a5,-88(s0)
	slli	a5,a5,5
	add	a5,a4,a5
	sh	a3,326(a5)
	.loc 1 1803 14
	lw	a5,-48(s0)
	andi	a5,a5,1
	sext.w	a5,a5
	.loc 1 1803 6
	beq	a5,zero,.L237
	.loc 1 1807 10
	li	a5,-4
	sw	a5,-44(s0)
	.loc 1 1809 30
	lw	a4,-48(s0)
	.loc 1 1809 8
	li	a5,65536
	bltu	a4,a5,.L238
	.loc 1 1813 45
	ld	a4,-72(s0)
	ld	a5,-88(s0)
	slli	a5,a5,5
	add	a5,a4,a5
	li	a4,2
	sw	a4,320(a5)
	.loc 1 1814 56
	lw	a5,-48(s0)
	lw	a4,-44(s0)
	and	a5,a4,a5
	sext.w	a5,a5
	.loc 1 1814 65
	negw	a5,a5
	sext.w	a5,a5
	slli	a4,a5,32
	srli	a4,a4,32
	.loc 1 1814 44
	ld	a3,-72(s0)
	ld	a5,-88(s0)
	addi	a5,a5,9
	slli	a5,a5,5
	add	a5,a3,a5
	sd	a4,16(a5)
	.loc 1 1815 78
	ld	a4,-72(s0)
	ld	a5,-88(s0)
	addi	a5,a5,9
	slli	a5,a5,5
	add	a5,a4,a5
	ld	a5,16(a5)
	.loc 1 1815 86
	addi	a4,a5,-1
	.loc 1 1815 47
	ld	a3,-72(s0)
	ld	a5,-88(s0)
	slli	a5,a5,5
	add	a5,a3,a5
	sd	a4,312(a5)
	j	.L239
.L238:
	.loc 1 1820 45
	ld	a4,-72(s0)
	ld	a5,-88(s0)
	slli	a5,a5,5
	add	a5,a4,a5
	li	a4,1
	sw	a4,320(a5)
	.loc 1 1821 69
	lw	a5,-48(s0)
	lw	a4,-44(s0)
	and	a5,a4,a5
	sext.w	a5,a5
	.loc 1 1821 78
	negw	a5,a5
	sext.w	a5,a5
	.loc 1 1821 57
	slli	a5,a5,32
	srli	a5,a5,32
	slli	a4,a5,48
	srli	a4,a4,48
	.loc 1 1821 44
	ld	a3,-72(s0)
	ld	a5,-88(s0)
	addi	a5,a5,9
	slli	a5,a5,5
	add	a5,a3,a5
	sd	a4,16(a5)
	.loc 1 1822 78
	ld	a4,-72(s0)
	ld	a5,-88(s0)
	addi	a5,a5,9
	slli	a5,a5,5
	add	a5,a4,a5
	ld	a5,16(a5)
	.loc 1 1822 86
	addi	a4,a5,-1
	.loc 1 1822 47
	ld	a3,-72(s0)
	ld	a5,-88(s0)
	slli	a5,a5,5
	add	a5,a3,a5
	sd	a4,312(a5)
.L239:
	.loc 1 1829 38
	ld	a4,-72(s0)
	ld	a5,-88(s0)
	addi	a5,a5,9
	slli	a5,a5,5
	add	a5,a4,a5
	ld	a5,16(a5)
	.loc 1 1829 8
	bne	a5,zero,.L240
	.loc 1 1830 45
	ld	a4,-72(s0)
	ld	a5,-88(s0)
	slli	a5,a5,5
	add	a5,a4,a5
	sw	zero,320(a5)
.L240:
	.loc 1 1833 63
	lw	a5,-52(s0)
	lw	a4,-44(s0)
	and	a5,a4,a5
	sext.w	a5,a5
	slli	a4,a5,32
	srli	a4,a4,32
	.loc 1 1833 47
	ld	a3,-72(s0)
	ld	a5,-88(s0)
	addi	a5,a5,9
	slli	a5,a5,5
	add	a5,a3,a5
	sd	a4,8(a5)
	j	.L241
.L237:
	.loc 1 1835 10
	li	a5,-16
	sw	a5,-44(s0)
	.loc 1 1837 63
	lw	a5,-52(s0)
	lw	a4,-44(s0)
	and	a5,a4,a5
	sext.w	a5,a5
	slli	a4,a5,32
	srli	a4,a4,32
	.loc 1 1837 47
	ld	a3,-72(s0)
	ld	a5,-88(s0)
	addi	a5,a5,9
	slli	a5,a5,5
	add	a5,a3,a5
	sd	a4,8(a5)
	.loc 1 1839 19
	lw	a5,-48(s0)
	andi	a5,a5,7
	sext.w	a5,a5
	.loc 1 1839 5
	beq	a5,zero,.L242
	li	a4,4
	beq	a5,a4,.L243
	j	.L260
.L242:
	.loc 1 1844 20
	lw	a5,-48(s0)
	andi	a5,a5,8
	sext.w	a5,a5
	.loc 1 1844 12
	beq	a5,zero,.L245
	.loc 1 1845 49
	ld	a4,-72(s0)
	ld	a5,-88(s0)
	slli	a5,a5,5
	add	a5,a4,a5
	li	a4,4
	sw	a4,320(a5)
	j	.L246
.L245:
	.loc 1 1847 49
	ld	a4,-72(s0)
	ld	a5,-88(s0)
	slli	a5,a5,5
	add	a5,a4,a5
	li	a4,3
	sw	a4,320(a5)
.L246:
	.loc 1 1850 57
	lw	a5,-48(s0)
	lw	a4,-44(s0)
	and	a5,a4,a5
	sext.w	a5,a5
	.loc 1 1850 66
	negw	a5,a5
	sext.w	a5,a5
	slli	a4,a5,32
	srli	a4,a4,32
	.loc 1 1850 46
	ld	a3,-72(s0)
	ld	a5,-88(s0)
	addi	a5,a5,9
	slli	a5,a5,5
	add	a5,a3,a5
	sd	a4,16(a5)
	.loc 1 1851 42
	ld	a4,-72(s0)
	ld	a5,-88(s0)
	addi	a5,a5,9
	slli	a5,a5,5
	add	a5,a4,a5
	ld	a4,16(a5)
	.loc 1 1851 12
	li	a5,4096
	bgeu	a4,a5,.L247
	.loc 1 1855 51
	ld	a4,-72(s0)
	ld	a5,-88(s0)
	slli	a5,a5,5
	add	a5,a4,a5
	li	a4,4096
	addi	a4,a4,-1
	sd	a4,312(a5)
	.loc 1 1860 9
	j	.L241
.L247:
	.loc 1 1857 82
	ld	a4,-72(s0)
	ld	a5,-88(s0)
	addi	a5,a5,9
	slli	a5,a5,5
	add	a5,a4,a5
	ld	a5,16(a5)
	.loc 1 1857 90
	addi	a4,a5,-1
	.loc 1 1857 51
	ld	a3,-72(s0)
	ld	a5,-88(s0)
	slli	a5,a5,5
	add	a5,a3,a5
	sd	a4,312(a5)
	.loc 1 1860 9
	j	.L241
.L243:
	.loc 1 1866 20
	lw	a5,-48(s0)
	andi	a5,a5,8
	sext.w	a5,a5
	.loc 1 1866 12
	beq	a5,zero,.L249
	.loc 1 1867 49
	ld	a4,-72(s0)
	ld	a5,-88(s0)
	slli	a5,a5,5
	add	a5,a4,a5
	li	a4,6
	sw	a4,320(a5)
	j	.L250
.L249:
	.loc 1 1869 49
	ld	a4,-72(s0)
	ld	a5,-88(s0)
	slli	a5,a5,5
	add	a5,a4,a5
	li	a4,5
	sw	a4,320(a5)
.L250:
	.loc 1 1879 54
	lw	a5,-48(s0)
	lw	a4,-44(s0)
	and	a5,a4,a5
	sext.w	a5,a5
	slli	a4,a5,32
	srli	a4,a4,32
	.loc 1 1879 46
	ld	a3,-72(s0)
	ld	a5,-88(s0)
	addi	a5,a5,9
	slli	a5,a5,5
	add	a5,a3,a5
	sd	a4,16(a5)
	.loc 1 1880 80
	ld	a4,-72(s0)
	ld	a5,-88(s0)
	addi	a5,a5,9
	slli	a5,a5,5
	add	a5,a4,a5
	ld	a5,16(a5)
	.loc 1 1880 88
	addi	a4,a5,-1
	.loc 1 1880 49
	ld	a3,-72(s0)
	ld	a5,-88(s0)
	slli	a5,a5,5
	add	a5,a3,a5
	sd	a4,312(a5)
	.loc 1 1885 16
	ld	a5,-80(s0)
	addi	a5,a5,4
	sd	a5,-80(s0)
	.loc 1 1887 18
	addi	a4,s0,-52
	addi	a5,s0,-48
	mv	a3,a4
	mv	a2,a5
	ld	a1,-80(s0)
	ld	a0,-72(s0)
	call	BarExisted
	sd	a0,-40(s0)
	.loc 1 1894 40
	ld	a5,-40(s0)
	.loc 1 1894 12
	bge	a5,zero,.L251
	.loc 1 1898 44
	ld	a4,-72(s0)
	ld	a5,-88(s0)
	addi	a5,a5,9
	slli	a5,a5,5
	add	a5,a4,a5
	ld	a5,16(a5)
	.loc 1 1898 14
	bne	a5,zero,.L251
	.loc 1 1902 51
	ld	a4,-72(s0)
	ld	a5,-88(s0)
	slli	a5,a5,5
	add	a5,a4,a5
	sw	zero,320(a5)
	.loc 1 1903 27
	ld	a5,-80(s0)
	addi	a5,a5,4
	j	.L259
.L251:
	.loc 1 1910 19
	lw	a5,-48(s0)
	.loc 1 1910 12
	bne	a5,zero,.L252
	.loc 1 1912 17
	li	a5,-1
	sw	a5,-48(s0)
	j	.L253
.L252:
	.loc 1 1914 37
	lw	a5,-48(s0)
	mv	a0,a5
	call	HighBitSet32@plt
	mv	a5,a0
	.loc 1 1914 34 discriminator 1
	sext.w	a5,a5
	mv	a4,a5
	li	a5,-1
	sllw	a5,a5,a4
	sext.w	a4,a5
	.loc 1 1914 17 discriminator 1
	lw	a5,-48(s0)
	or	a5,a4,a5
	sext.w	a5,a5
	sw	a5,-48(s0)
.L253:
	.loc 1 1920 54
	lw	a5,-52(s0)
	slli	a5,a5,32
	srli	a5,a5,32
	li	a1,32
	mv	a0,a5
	call	LShiftU64@plt
	mv	a3,a0
	.loc 1 1920 38 discriminator 1
	ld	a4,-72(s0)
	ld	a5,-88(s0)
	addi	a5,a5,9
	slli	a5,a5,5
	add	a5,a4,a5
	ld	a5,8(a5)
	.loc 1 1920 51 discriminator 1
	or	a4,a3,a5
	ld	a3,-72(s0)
	ld	a5,-88(s0)
	addi	a5,a5,9
	slli	a5,a5,5
	add	a5,a3,a5
	sd	a4,8(a5)
	.loc 1 1922 77
	ld	a4,-72(s0)
	ld	a5,-88(s0)
	addi	a5,a5,9
	slli	a5,a5,5
	add	a5,a4,a5
	ld	s1,16(a5)
	.loc 1 1922 87
	lw	a5,-48(s0)
	slli	a5,a5,32
	srli	a5,a5,32
	li	a1,32
	mv	a0,a5
	call	LShiftU64@plt
	mv	a5,a0
	.loc 1 1922 85 discriminator 1
	or	a4,s1,a5
	.loc 1 1922 46 discriminator 1
	ld	a3,-72(s0)
	ld	a5,-88(s0)
	addi	a5,a5,9
	slli	a5,a5,5
	add	a5,a3,a5
	sd	a4,16(a5)
	.loc 1 1923 80
	ld	a4,-72(s0)
	ld	a5,-88(s0)
	addi	a5,a5,9
	slli	a5,a5,5
	add	a5,a4,a5
	ld	a5,16(a5)
	.loc 1 1923 90
	neg	a4,a5
	.loc 1 1923 46
	ld	a3,-72(s0)
	ld	a5,-88(s0)
	addi	a5,a5,9
	slli	a5,a5,5
	add	a5,a3,a5
	sd	a4,16(a5)
	.loc 1 1924 42
	ld	a4,-72(s0)
	ld	a5,-88(s0)
	addi	a5,a5,9
	slli	a5,a5,5
	add	a5,a4,a5
	ld	a4,16(a5)
	.loc 1 1924 12
	li	a5,4096
	bgeu	a4,a5,.L254
	.loc 1 1928 51
	ld	a4,-72(s0)
	ld	a5,-88(s0)
	slli	a5,a5,5
	add	a5,a4,a5
	li	a4,4096
	addi	a4,a4,-1
	sd	a4,312(a5)
	.loc 1 1933 9
	j	.L241
.L254:
	.loc 1 1930 82
	ld	a4,-72(s0)
	ld	a5,-88(s0)
	addi	a5,a5,9
	slli	a5,a5,5
	add	a5,a4,a5
	ld	a5,16(a5)
	.loc 1 1930 90
	addi	a4,a5,-1
	.loc 1 1930 51
	ld	a3,-72(s0)
	ld	a5,-88(s0)
	slli	a5,a5,5
	add	a5,a3,a5
	sd	a4,312(a5)
	.loc 1 1933 9
	j	.L241
.L260:
	.loc 1 1939 47
	ld	a4,-72(s0)
	ld	a5,-88(s0)
	slli	a5,a5,5
	add	a5,a4,a5
	sw	zero,320(a5)
	.loc 1 1940 57
	lw	a5,-48(s0)
	lw	a4,-44(s0)
	and	a5,a4,a5
	sext.w	a5,a5
	.loc 1 1940 66
	negw	a5,a5
	sext.w	a5,a5
	slli	a4,a5,32
	srli	a4,a4,32
	.loc 1 1940 46
	ld	a3,-72(s0)
	ld	a5,-88(s0)
	addi	a5,a5,9
	slli	a5,a5,5
	add	a5,a3,a5
	sd	a4,16(a5)
	.loc 1 1941 42
	ld	a4,-72(s0)
	ld	a5,-88(s0)
	addi	a5,a5,9
	slli	a5,a5,5
	add	a5,a4,a5
	ld	a4,16(a5)
	.loc 1 1941 12
	li	a5,4096
	bgeu	a4,a5,.L256
	.loc 1 1945 51
	ld	a4,-72(s0)
	ld	a5,-88(s0)
	slli	a5,a5,5
	add	a5,a4,a5
	li	a4,4096
	addi	a4,a4,-1
	sd	a4,312(a5)
	.loc 1 1950 9
	j	.L261
.L256:
	.loc 1 1947 82
	ld	a4,-72(s0)
	ld	a5,-88(s0)
	addi	a5,a5,9
	slli	a5,a5,5
	add	a5,a4,a5
	ld	a5,16(a5)
	.loc 1 1947 90
	addi	a4,a5,-1
	.loc 1 1947 51
	ld	a3,-72(s0)
	ld	a5,-88(s0)
	slli	a5,a5,5
	add	a5,a3,a5
	sd	a4,312(a5)
.L261:
	.loc 1 1950 9
	nop
.L241:
	.loc 1 1957 36
	ld	a4,-72(s0)
	ld	a5,-88(s0)
	addi	a5,a5,9
	slli	a5,a5,5
	add	a5,a4,a5
	ld	a5,16(a5)
	.loc 1 1957 6
	bne	a5,zero,.L258
	.loc 1 1958 43
	ld	a4,-72(s0)
	ld	a5,-88(s0)
	slli	a5,a5,5
	add	a5,a4,a5
	sw	zero,320(a5)
	.loc 1 1959 47
	ld	a4,-72(s0)
	ld	a5,-88(s0)
	addi	a5,a5,9
	slli	a5,a5,5
	add	a5,a4,a5
	sd	zero,8(a5)
	.loc 1 1960 45
	ld	a4,-72(s0)
	ld	a5,-88(s0)
	slli	a5,a5,5
	add	a5,a4,a5
	sd	zero,312(a5)
.L258:
	.loc 1 1966 17
	ld	a5,-80(s0)
	addi	a5,a5,4
.L259:
	.loc 1 1967 1
	mv	a0,a5
	ld	ra,88(sp)
	.cfi_restore 1
	ld	s0,80(sp)
	.cfi_restore 8
	.cfi_def_cfa 2, 96
	ld	s1,72(sp)
	.cfi_restore 9
	addi	sp,sp,96
	.cfi_def_cfa_offset 0
	jr	ra
	.cfi_endproc
.LFE19:
	.size	PciParseBar, .-PciParseBar
	.section	.text.InitializePciDevice,"ax",@progbits
	.align	1
	.globl	InitializePciDevice
	.type	InitializePciDevice, @function
InitializePciDevice:
.LFB20:
	.loc 1 1981 1
	.cfi_startproc
	addi	sp,sp,-48
	.cfi_def_cfa_offset 48
	sd	ra,40(sp)
	sd	s0,32(sp)
	.cfi_offset 1, -8
	.cfi_offset 8, -16
	addi	s0,sp,48
	.cfi_def_cfa 8, 0
	sd	a0,-40(s0)
	.loc 1 1985 9
	ld	a5,-40(s0)
	addi	a5,a5,16
	sd	a5,-32(s0)
	.loc 1 1992 15
	li	a5,16
	sb	a5,-17(s0)
	.loc 1 1992 3
	j	.L263
.L264:
	.loc 1 1993 15
	ld	a5,-32(s0)
	ld	a5,56(a5)
	.loc 1 1993 5
	lbu	a4,-17(s0)
	sext.w	a2,a4
	la	a4,gAllOne
	li	a3,1
	li	a1,2
	ld	a0,-32(s0)
	jalr	a5
.LVL30:
	.loc 1 1992 46 discriminator 3
	lbu	a5,-17(s0)
	addiw	a5,a5,4
	sb	a5,-17(s0)
.L263:
	.loc 1 1992 30 discriminator 1
	lbu	a5,-17(s0)
	andi	a4,a5,0xff
	li	a5,36
	bleu	a4,a5,.L264
	.loc 1 1995 1
	nop
	nop
	ld	ra,40(sp)
	.cfi_restore 1
	ld	s0,32(sp)
	.cfi_restore 8
	.cfi_def_cfa 2, 48
	addi	sp,sp,48
	.cfi_def_cfa_offset 0
	jr	ra
	.cfi_endproc
.LFE20:
	.size	InitializePciDevice, .-InitializePciDevice
	.section	.text.InitializePpb,"ax",@progbits
	.align	1
	.globl	InitializePpb
	.type	InitializePpb, @function
InitializePpb:
.LFB21:
	.loc 1 2007 1
	.cfi_startproc
	addi	sp,sp,-48
	.cfi_def_cfa_offset 48
	sd	ra,40(sp)
	sd	s0,32(sp)
	.cfi_offset 1, -8
	.cfi_offset 8, -16
	addi	s0,sp,48
	.cfi_def_cfa 8, 0
	sd	a0,-40(s0)
	.loc 1 2010 9
	ld	a5,-40(s0)
	addi	a5,a5,16
	sd	a5,-24(s0)
	.loc 1 2017 13
	ld	a5,-24(s0)
	ld	a5,56(a5)
	.loc 1 2017 3
	la	a4,gAllOne
	li	a3,1
	li	a2,28
	li	a1,0
	ld	a0,-24(s0)
	jalr	a5
.LVL31:
	.loc 1 2018 13
	ld	a5,-24(s0)
	ld	a5,56(a5)
	.loc 1 2018 3
	la	a4,gAllZero
	li	a3,1
	li	a2,29
	li	a1,0
	ld	a0,-24(s0)
	jalr	a5
.LVL32:
	.loc 1 2020 13
	ld	a5,-24(s0)
	ld	a5,56(a5)
	.loc 1 2020 3
	la	a4,gAllOne
	li	a3,1
	li	a2,32
	li	a1,1
	ld	a0,-24(s0)
	jalr	a5
.LVL33:
	.loc 1 2021 13
	ld	a5,-24(s0)
	ld	a5,56(a5)
	.loc 1 2021 3
	la	a4,gAllZero
	li	a3,1
	li	a2,34
	li	a1,1
	ld	a0,-24(s0)
	jalr	a5
.LVL34:
	.loc 1 2023 13
	ld	a5,-24(s0)
	ld	a5,56(a5)
	.loc 1 2023 3
	la	a4,gAllOne
	li	a3,1
	li	a2,36
	li	a1,1
	ld	a0,-24(s0)
	jalr	a5
.LVL35:
	.loc 1 2024 13
	ld	a5,-24(s0)
	ld	a5,56(a5)
	.loc 1 2024 3
	la	a4,gAllZero
	li	a3,1
	li	a2,38
	li	a1,1
	ld	a0,-24(s0)
	jalr	a5
.LVL36:
	.loc 1 2026 13
	ld	a5,-24(s0)
	ld	a5,56(a5)
	.loc 1 2026 3
	la	a4,gAllOne
	li	a3,1
	li	a2,40
	li	a1,2
	ld	a0,-24(s0)
	jalr	a5
.LVL37:
	.loc 1 2027 13
	ld	a5,-24(s0)
	ld	a5,56(a5)
	.loc 1 2027 3
	la	a4,gAllZero
	li	a3,1
	li	a2,44
	li	a1,2
	ld	a0,-24(s0)
	jalr	a5
.LVL38:
	.loc 1 2032 13
	ld	a5,-24(s0)
	ld	a5,56(a5)
	.loc 1 2032 3
	la	a4,gAllOne
	li	a3,1
	li	a2,48
	li	a1,1
	ld	a0,-24(s0)
	jalr	a5
.LVL39:
	.loc 1 2033 13
	ld	a5,-24(s0)
	ld	a5,56(a5)
	.loc 1 2033 3
	la	a4,gAllZero
	li	a3,1
	li	a2,50
	li	a1,1
	ld	a0,-24(s0)
	jalr	a5
.LVL40:
	.loc 1 2038 13
	ld	a5,-24(s0)
	ld	a5,56(a5)
	.loc 1 2038 3
	la	a4,gAllZero
	li	a3,1
	li	a2,60
	li	a1,0
	ld	a0,-24(s0)
	jalr	a5
.LVL41:
	.loc 1 2039 1
	nop
	ld	ra,40(sp)
	.cfi_restore 1
	ld	s0,32(sp)
	.cfi_restore 8
	.cfi_def_cfa 2, 48
	addi	sp,sp,48
	.cfi_def_cfa_offset 0
	jr	ra
	.cfi_endproc
.LFE21:
	.size	InitializePpb, .-InitializePpb
	.section	.text.InitializeP2C,"ax",@progbits
	.align	1
	.globl	InitializeP2C
	.type	InitializeP2C, @function
InitializeP2C:
.LFB22:
	.loc 1 2051 1
	.cfi_startproc
	addi	sp,sp,-48
	.cfi_def_cfa_offset 48
	sd	ra,40(sp)
	sd	s0,32(sp)
	.cfi_offset 1, -8
	.cfi_offset 8, -16
	addi	s0,sp,48
	.cfi_def_cfa 8, 0
	sd	a0,-40(s0)
	.loc 1 2054 9
	ld	a5,-40(s0)
	addi	a5,a5,16
	sd	a5,-24(s0)
	.loc 1 2061 13
	ld	a5,-24(s0)
	ld	a5,56(a5)
	.loc 1 2061 3
	la	a4,gAllOne
	li	a3,1
	li	a2,28
	li	a1,2
	ld	a0,-24(s0)
	jalr	a5
.LVL42:
	.loc 1 2062 13
	ld	a5,-24(s0)
	ld	a5,56(a5)
	.loc 1 2062 3
	la	a4,gAllZero
	li	a3,1
	li	a2,32
	li	a1,2
	ld	a0,-24(s0)
	jalr	a5
.LVL43:
	.loc 1 2064 13
	ld	a5,-24(s0)
	ld	a5,56(a5)
	.loc 1 2064 3
	la	a4,gAllOne
	li	a3,1
	li	a2,36
	li	a1,2
	ld	a0,-24(s0)
	jalr	a5
.LVL44:
	.loc 1 2065 13
	ld	a5,-24(s0)
	ld	a5,56(a5)
	.loc 1 2065 3
	la	a4,gAllZero
	li	a3,1
	li	a2,40
	li	a1,2
	ld	a0,-24(s0)
	jalr	a5
.LVL45:
	.loc 1 2067 13
	ld	a5,-24(s0)
	ld	a5,56(a5)
	.loc 1 2067 3
	la	a4,gAllOne
	li	a3,1
	li	a2,44
	li	a1,2
	ld	a0,-24(s0)
	jalr	a5
.LVL46:
	.loc 1 2068 13
	ld	a5,-24(s0)
	ld	a5,56(a5)
	.loc 1 2068 3
	la	a4,gAllZero
	li	a3,1
	li	a2,48
	li	a1,2
	ld	a0,-24(s0)
	jalr	a5
.LVL47:
	.loc 1 2070 13
	ld	a5,-24(s0)
	ld	a5,56(a5)
	.loc 1 2070 3
	la	a4,gAllOne
	li	a3,1
	li	a2,52
	li	a1,2
	ld	a0,-24(s0)
	jalr	a5
.LVL48:
	.loc 1 2071 13
	ld	a5,-24(s0)
	ld	a5,56(a5)
	.loc 1 2071 3
	la	a4,gAllZero
	li	a3,1
	li	a2,56
	li	a1,2
	ld	a0,-24(s0)
	jalr	a5
.LVL49:
	.loc 1 2076 13
	ld	a5,-24(s0)
	ld	a5,56(a5)
	.loc 1 2076 3
	la	a4,gAllZero
	li	a3,1
	li	a2,60
	li	a1,0
	ld	a0,-24(s0)
	jalr	a5
.LVL50:
	.loc 1 2077 1
	nop
	ld	ra,40(sp)
	.cfi_restore 1
	ld	s0,32(sp)
	.cfi_restore 8
	.cfi_def_cfa 2, 48
	addi	sp,sp,48
	.cfi_def_cfa_offset 0
	jr	ra
	.cfi_endproc
.LFE22:
	.size	InitializeP2C, .-InitializeP2C
	.section	.text.AuthenticatePciDevice,"ax",@progbits
	.align	1
	.globl	AuthenticatePciDevice
	.type	AuthenticatePciDevice, @function
AuthenticatePciDevice:
.LFB23:
	.loc 1 2092 1
	.cfi_startproc
	addi	sp,sp,-80
	.cfi_def_cfa_offset 80
	sd	ra,72(sp)
	sd	s0,64(sp)
	.cfi_offset 1, -8
	.cfi_offset 8, -16
	addi	s0,sp,80
	.cfi_def_cfa 8, 0
	sd	a0,-72(s0)
	.loc 1 2096 31
	la	a5,mDeviceSecurityProtocol
	ld	a5,0(a5)
	.loc 1 2096 6
	beq	a5,zero,.L268
	.loc 1 2100 30
	li	a5,65536
	sw	a5,-56(s0)
	.loc 1 2101 5
	addi	a5,s0,-56
	addi	a5,a5,4
	la	a1,gEdkiiDeviceIdentifierTypePciGuid
	mv	a0,a5
	call	CopyGuid@plt
	.loc 1 2102 35
	sd	zero,-32(s0)
	.loc 1 2103 17
	la	a5,gBS
	ld	a5,0(a5)
	ld	a6,328(a5)
	.loc 1 2103 14
	ld	a5,-72(s0)
	ld	a2,200(a5)
	ld	a5,-72(s0)
	addi	a4,a5,16
	addi	a5,s0,-56
	addi	a0,a5,24
	li	a5,0
	la	a3,gEdkiiDeviceIdentifierTypePciGuid
	la	a1,gEfiDevicePathProtocolGuid
	jalr	a6
.LVL51:
	sd	a0,-24(s0)
	.loc 1 2111 36
	ld	a5,-24(s0)
	.loc 1 2111 8
	bge	a5,zero,.L269
	.loc 1 2112 14
	ld	a5,-24(s0)
	j	.L271
.L269:
	.loc 1 2118 37
	la	a5,mDeviceSecurityProtocol
	ld	a5,0(a5)
	ld	a5,8(a5)
	.loc 1 2118 14
	la	a4,mDeviceSecurityProtocol
	ld	a4,0(a4)
	addi	a3,s0,-56
	mv	a1,a3
	mv	a0,a4
	jalr	a5
.LVL52:
	sd	a0,-24(s0)
	.loc 1 2123 8
	la	a5,gBS
	ld	a5,0(a5)
	ld	a6,336(a5)
	.loc 1 2123 5
	ld	a0,-32(s0)
	ld	a5,-72(s0)
	ld	a2,200(a5)
	ld	a5,-72(s0)
	addi	a4,a5,16
	li	a5,0
	la	a3,gEdkiiDeviceIdentifierTypePciGuid
	la	a1,gEfiDevicePathProtocolGuid
	jalr	a6
.LVL53:
	.loc 1 2131 12
	ld	a5,-24(s0)
	j	.L271
.L268:
	.loc 1 2137 10
	li	a5,0
.L271:
	.loc 1 2138 1
	mv	a0,a5
	ld	ra,72(sp)
	.cfi_restore 1
	ld	s0,64(sp)
	.cfi_restore 8
	.cfi_def_cfa 2, 80
	addi	sp,sp,80
	.cfi_def_cfa_offset 0
	jr	ra
	.cfi_endproc
.LFE23:
	.size	AuthenticatePciDevice, .-AuthenticatePciDevice
	.section	.text.IsRootBridge,"ax",@progbits
	.align	1
	.globl	IsRootBridge
	.type	IsRootBridge, @function
IsRootBridge:
.LFB24:
	.loc 1 2153 1
	.cfi_startproc
	addi	sp,sp,-32
	.cfi_def_cfa_offset 32
	sd	ra,24(sp)
	sd	s0,16(sp)
	.cfi_offset 1, -8
	.cfi_offset 8, -16
	addi	s0,sp,32
	.cfi_def_cfa 8, 0
	sd	a0,-24(s0)
	.loc 1 2154 18
	ld	a5,-24(s0)
	ld	a5,488(a5)
	.loc 1 2154 6
	bne	a5,zero,.L273
	.loc 1 2155 12
	li	a5,1
	j	.L274
.L273:
	.loc 1 2157 12
	li	a5,0
.L274:
	.loc 1 2159 1
	mv	a0,a5
	ld	ra,24(sp)
	.cfi_restore 1
	ld	s0,16(sp)
	.cfi_restore 8
	.cfi_def_cfa 2, 32
	addi	sp,sp,32
	.cfi_def_cfa_offset 0
	jr	ra
	.cfi_endproc
.LFE24:
	.size	IsRootBridge, .-IsRootBridge
	.section	.text.CreatePciIoDevice,"ax",@progbits
	.align	1
	.globl	CreatePciIoDevice
	.type	CreatePciIoDevice, @function
CreatePciIoDevice:
.LFB25:
	.loc 1 2182 1
	.cfi_startproc
	addi	sp,sp,-128
	.cfi_def_cfa_offset 128
	sd	ra,120(sp)
	sd	s0,112(sp)
	.cfi_offset 1, -8
	.cfi_offset 8, -16
	addi	s0,sp,128
	.cfi_def_cfa 8, 0
	sd	a0,-104(s0)
	sd	a1,-112(s0)
	mv	a5,a2
	sb	a5,-113(s0)
	mv	a5,a3
	sb	a5,-114(s0)
	mv	a5,a4
	sb	a5,-115(s0)
	.loc 1 2187 17
	li	a0,848
	call	AllocateZeroPool@plt
	sd	a0,-24(s0)
	.loc 1 2188 6
	ld	a5,-24(s0)
	bne	a5,zero,.L276
	.loc 1 2189 12
	li	a5,0
	j	.L277
.L276:
	.loc 1 2192 26
	ld	a5,-24(s0)
	li	a4,1869176832
	addi	a4,a4,880
	sw	a4,0(a5)
	.loc 1 2193 23
	ld	a5,-24(s0)
	sd	zero,8(a5)
	.loc 1 2194 40
	ld	a5,-104(s0)
	ld	a4,208(a5)
	.loc 1 2194 32
	ld	a5,-24(s0)
	sd	a4,208(a5)
	.loc 1 2195 27
	ld	a5,-24(s0)
	sd	zero,200(a5)
	.loc 1 2196 26
	ld	a5,-24(s0)
	lbu	a4,-113(s0)
	sb	a4,288(a5)
	.loc 1 2197 29
	ld	a5,-24(s0)
	lbu	a4,-114(s0)
	sb	a4,289(a5)
	.loc 1 2198 31
	ld	a5,-24(s0)
	lbu	a4,-115(s0)
	sb	a4,290(a5)
	.loc 1 2199 24
	ld	a5,-24(s0)
	sw	zero,536(a5)
	.loc 1 2201 7
	la	a5,gFullEnumeration
	lbu	a5,0(a5)
	.loc 1 2201 6
	beq	a5,zero,.L278
	.loc 1 2202 28
	ld	a5,-24(s0)
	sb	zero,513(a5)
	j	.L279
.L278:
	.loc 1 2204 28
	ld	a5,-24(s0)
	li	a4,1
	sb	a4,513(a5)
.L279:
	.loc 1 2207 27
	ld	a5,-24(s0)
	sb	zero,512(a5)
	.loc 1 2208 27
	ld	a5,-24(s0)
	sd	zero,520(a5)
	.loc 1 2209 25
	ld	a5,-24(s0)
	sd	zero,528(a5)
	.loc 1 2210 28
	ld	a5,-24(s0)
	sb	zero,549(a5)
	.loc 1 2211 34
	ld	a5,-24(s0)
	sb	zero,548(a5)
	.loc 1 2213 25
	ld	a5,-24(s0)
	sb	zero,608(a5)
	.loc 1 2215 12
	ld	a5,-24(s0)
	addi	a5,a5,224
	.loc 1 2215 3
	li	a2,64
	ld	a1,-112(s0)
	mv	a0,a5
	call	CopyMem@plt
	.loc 1 2220 3
	ld	a0,-24(s0)
	call	InitializePciIoInstance@plt
	.loc 1 2221 3
	ld	a0,-24(s0)
	call	InitializePciDriverOverrideInstance@plt
	.loc 1 2222 3
	ld	a0,-24(s0)
	call	InitializePciLoadFile2@plt
	.loc 1 2223 9
	ld	a5,-24(s0)
	addi	a5,a5,16
	sd	a5,-32(s0)
	.loc 1 2228 3
	ld	a5,-104(s0)
	ld	a5,200(a5)
	ld	a1,-24(s0)
	mv	a0,a5
	call	CreatePciDevicePath
	.loc 1 2236 43
	ld	a5,-24(s0)
	sb	zero,612(a5)
	.loc 1 2237 12
	ld	a5,-24(s0)
	addi	a5,a5,612
	li	a3,0
	mv	a2,a5
	li	a1,16
	ld	a0,-24(s0)
	call	LocateCapabilityRegBlock@plt
	sd	a0,-40(s0)
	.loc 1 2243 7
	ld	a5,-40(s0)
	.loc 1 2243 6
	blt	a5,zero,.L280
.LBB2:
	.loc 1 2246 27
	ld	a5,-24(s0)
	li	a4,1
	sb	a4,608(a5)
	.loc 1 2251 15
	ld	a5,-32(s0)
	ld	a5,48(a5)
	.loc 1 2254 29
	ld	a4,-24(s0)
	lbu	a4,612(a4)
	sext.w	a4,a4
	.loc 1 2251 5
	addiw	a4,a4,2
	sext.w	a2,a4
	addi	a4,s0,-64
	li	a3,1
	li	a1,1
	ld	a0,-32(s0)
	jalr	a5
.LVL54:
	.loc 1 2258 55
	ld	a5,-64(s0)
	srli	a5,a5,4
	andi	a5,a5,15
	andi	a5,a5,0xff
	mv	a4,a5
	.loc 1 2258 39
	ld	a5,-24(s0)
	sh	a4,610(a5)
.L280:
.LBE2:
	.loc 1 2264 12
	ld	a0,-24(s0)
	call	AuthenticatePciDevice
	sd	a0,-40(s0)
	.loc 1 2268 34
	ld	a5,-40(s0)
	.loc 1 2268 6
	bge	a5,zero,.L281
	.loc 1 2269 20
	ld	a5,-24(s0)
	ld	a5,200(a5)
	.loc 1 2269 8
	beq	a5,zero,.L282
	.loc 1 2270 28
	ld	a5,-24(s0)
	ld	a5,200(a5)
	.loc 1 2270 7
	mv	a0,a5
	call	FreePool@plt
.L282:
	.loc 1 2273 5
	ld	a0,-24(s0)
	call	FreePool@plt
	.loc 1 2274 12
	li	a5,0
	j	.L277
.L281:
	.loc 1 2280 7
	la	a5,_gPcd_FixedAtBuild_PcdAriSupport
	lbu	a5,0(a5)
	.loc 1 2280 6
	beq	a5,zero,.L283
	.loc 1 2280 44 discriminator 1
	ld	a0,-104(s0)
	call	IsRootBridge
	mv	a5,a0
	.loc 1 2280 40 discriminator 2
	bne	a5,zero,.L283
	.loc 1 2284 14
	ld	a5,-24(s0)
	addi	a5,a5,616
	li	a3,0
	mv	a2,a5
	li	a1,14
	ld	a0,-24(s0)
	call	LocatePciExpressCapabilityRegBlock@plt
	sd	a0,-40(s0)
	.loc 1 2290 9
	ld	a5,-40(s0)
	.loc 1 2290 8
	blt	a5,zero,.L283
.LBB3:
	.loc 1 2301 19
	ld	a5,-104(s0)
	addi	a5,a5,16
	sd	a5,-48(s0)
	.loc 1 2302 23
	ld	a5,-48(s0)
	ld	a5,48(a5)
	.loc 1 2305 32
	ld	a4,-104(s0)
	lbu	a4,612(a4)
	sext.w	a4,a4
	.loc 1 2305 61
	addiw	a4,a4,36
	sext.w	a4,a4
	.loc 1 2302 7
	mv	a2,a4
	addi	a4,s0,-68
	li	a3,1
	li	a1,2
	ld	a0,-48(s0)
	jalr	a5
.LVL55:
	.loc 1 2309 19
	lw	a5,-68(s0)
	andi	a5,a5,32
	sext.w	a5,a5
	.loc 1 2309 10
	beq	a5,zero,.L283
	.loc 1 2310 35
	ld	a5,-24(s0)
	li	a4,1
	sb	a4,609(a5)
	.loc 1 2314 25
	ld	a5,-48(s0)
	ld	a5,48(a5)
	.loc 1 2317 34
	ld	a4,-104(s0)
	lbu	a4,612(a4)
	sext.w	a4,a4
	.loc 1 2317 63
	addiw	a4,a4,40
	sext.w	a4,a4
	.loc 1 2314 9
	mv	a2,a4
	addi	a4,s0,-68
	li	a3,1
	li	a1,2
	ld	a0,-48(s0)
	jalr	a5
.LVL56:
	.loc 1 2321 21
	lw	a5,-68(s0)
	andi	a5,a5,32
	sext.w	a5,a5
	.loc 1 2321 12
	bne	a5,zero,.L283
	.loc 1 2322 18
	lw	a5,-68(s0)
	ori	a5,a5,32
	sext.w	a5,a5
	sw	a5,-68(s0)
	.loc 1 2323 27
	ld	a5,-48(s0)
	ld	a5,56(a5)
	.loc 1 2326 36
	ld	a4,-104(s0)
	lbu	a4,612(a4)
	sext.w	a4,a4
	.loc 1 2326 65
	addiw	a4,a4,40
	sext.w	a4,a4
	.loc 1 2323 11
	mv	a2,a4
	addi	a4,s0,-68
	li	a3,1
	li	a1,2
	ld	a0,-48(s0)
	jalr	a5
.LVL57:
.L283:
.LBE3:
	.loc 1 2348 7
	la	a5,_gPcd_FixedAtBuild_PcdSrIovSupport
	lbu	a5,0(a5)
	.loc 1 2348 6
	beq	a5,zero,.L285
	.loc 1 2349 14
	ld	a5,-24(s0)
	addi	a5,a5,620
	li	a3,0
	mv	a2,a5
	li	a1,16
	ld	a0,-24(s0)
	call	LocatePciExpressCapabilityRegBlock@plt
	sd	a0,-40(s0)
	.loc 1 2355 9
	ld	a5,-40(s0)
	.loc 1 2355 8
	blt	a5,zero,.L285
.LBB4:
	.loc 1 2366 11
	la	a5,_gPcd_FixedAtBuild_PcdAriSupport
	lbu	a5,0(a5)
	.loc 1 2366 10
	beq	a5,zero,.L286
	.loc 1 2366 59 discriminator 1
	ld	a5,-24(s0)
	lw	a5,616(a5)
	.loc 1 2366 44 discriminator 1
	beq	a5,zero,.L286
	.loc 1 2367 19
	ld	a5,-32(s0)
	ld	a5,48(a5)
	.loc 1 2370 33
	ld	a4,-24(s0)
	lw	a4,620(a4)
	.loc 1 2367 9
	addiw	a4,a4,8
	sext.w	a2,a4
	addi	a4,s0,-78
	li	a3,1
	li	a1,1
	ld	a0,-32(s0)
	jalr	a5
.LVL58:
	.loc 1 2374 16
	lhu	a5,-78(s0)
	ori	a5,a5,16
	slli	a5,a5,48
	srli	a5,a5,48
	sh	a5,-78(s0)
	.loc 1 2375 19
	ld	a5,-32(s0)
	ld	a5,56(a5)
	.loc 1 2378 33
	ld	a4,-24(s0)
	lw	a4,620(a4)
	.loc 1 2375 9
	addiw	a4,a4,8
	sext.w	a2,a4
	addi	a4,s0,-78
	li	a3,1
	li	a1,1
	ld	a0,-32(s0)
	jalr	a5
.LVL59:
.L286:
	.loc 1 2388 17
	ld	a5,-32(s0)
	ld	a5,48(a5)
	.loc 1 2391 31
	ld	a4,-24(s0)
	lw	a4,620(a4)
	.loc 1 2388 7
	addiw	a4,a4,28
	sext.w	a2,a4
	addi	a4,s0,-72
	li	a3,1
	li	a1,2
	ld	a0,-32(s0)
	jalr	a5
.LVL60:
	.loc 1 2395 80
	la	a5,_gPcd_FixedAtBuild_PcdSrIovSystemPageSize
	lw	a4,0(a5)
	lw	a5,-72(s0)
	and	a5,a4,a5
	sext.w	a4,a5
	.loc 1 2395 35
	ld	a5,-24(s0)
	sw	a4,824(a5)
	.loc 1 2398 17
	ld	a5,-32(s0)
	ld	a5,56(a5)
	.loc 1 2401 31
	ld	a4,-24(s0)
	lw	a4,620(a4)
	.loc 1 2398 7
	addiw	a4,a4,32
	sext.w	a2,a4
	.loc 1 2403 20
	ld	a4,-24(s0)
	addi	a4,a4,824
	.loc 1 2398 7
	li	a3,1
	li	a1,2
	ld	a0,-32(s0)
	jalr	a5
.LVL61:
	.loc 1 2408 18
	ld	a5,-24(s0)
	lw	a5,824(a5)
	.loc 1 2408 35
	slliw	a5,a5,12
	sext.w	a4,a5
	ld	a5,-24(s0)
	sw	a4,824(a5)
	.loc 1 2417 17
	ld	a5,-32(s0)
	ld	a5,48(a5)
	.loc 1 2420 31
	ld	a4,-24(s0)
	lw	a4,620(a4)
	.loc 1 2417 7
	addiw	a4,a4,20
	sext.w	a2,a4
	addi	a4,s0,-76
	li	a3,1
	li	a1,1
	ld	a0,-32(s0)
	jalr	a5
.LVL62:
	.loc 1 2424 17
	ld	a5,-32(s0)
	ld	a5,48(a5)
	.loc 1 2427 31
	ld	a4,-24(s0)
	lw	a4,620(a4)
	.loc 1 2424 7
	addiw	a4,a4,12
	sext.w	a2,a4
	.loc 1 2429 20
	ld	a4,-24(s0)
	addi	a4,a4,828
	.loc 1 2424 7
	li	a3,1
	li	a1,1
	ld	a0,-32(s0)
	jalr	a5
.LVL63:
	.loc 1 2431 17
	ld	a5,-32(s0)
	ld	a5,48(a5)
	.loc 1 2434 31
	ld	a4,-24(s0)
	lw	a4,620(a4)
	.loc 1 2431 7
	addiw	a4,a4,22
	sext.w	a2,a4
	addi	a4,s0,-74
	li	a3,1
	li	a1,1
	ld	a0,-32(s0)
	jalr	a5
.LVL64:
	.loc 1 2441 22
	ld	a5,-24(s0)
	lhu	a5,828(a5)
	.loc 1 2441 10
	bne	a5,zero,.L287
	.loc 1 2442 37
	ld	a5,-24(s0)
	sh	zero,830(a5)
	j	.L285
.L287:
	.loc 1 2444 19
	lbu	a5,-113(s0)
	sext.w	a5,a5
	.loc 1 2444 31
	slliw	a5,a5,8
	sext.w	a4,a5
	.loc 1 2444 40
	lbu	a5,-114(s0)
	sext.w	a5,a5
	.loc 1 2444 55
	slliw	a5,a5,3
	sext.w	a5,a5
	.loc 1 2444 37
	addw	a5,a4,a5
	sext.w	a4,a5
	.loc 1 2444 63
	lbu	a5,-115(s0)
	sext.w	a5,a5
	.loc 1 2444 15
	addw	a5,a4,a5
	sw	a5,-52(s0)
	.loc 1 2445 24
	lhu	a5,-76(s0)
	sext.w	a5,a5
	lw	a4,-52(s0)
	addw	a5,a4,a5
	sext.w	a5,a5
	.loc 1 2445 54
	ld	a4,-24(s0)
	lhu	a4,828(a4)
	sext.w	a4,a4
	.loc 1 2445 67
	addiw	a4,a4,-1
	sext.w	a3,a4
	.loc 1 2445 72
	lhu	a4,-74(s0)
	sext.w	a4,a4
	mulw	a4,a3,a4
	sext.w	a4,a4
	.loc 1 2445 16
	addw	a5,a5,a4
	sw	a5,-56(s0)
	.loc 1 2450 64
	lw	a5,-56(s0)
	srliw	a5,a5,8
	sext.w	a5,a5
	.loc 1 2450 39
	slli	a4,a5,48
	srli	a4,a4,48
	lbu	a5,-113(s0)
	slli	a5,a5,48
	srli	a5,a5,48
	subw	a5,a4,a5
	slli	a4,a5,48
	srli	a4,a4,48
	.loc 1 2450 37
	ld	a5,-24(s0)
	sh	a4,830(a5)
.L285:
.LBE4:
	.loc 1 2470 7
	la	a5,_gPcd_FixedAtBuild_PcdMrIovSupport
	lbu	a5,0(a5)
	.loc 1 2470 6
	beq	a5,zero,.L289
	.loc 1 2471 14
	ld	a5,-24(s0)
	addi	a5,a5,624
	li	a3,0
	mv	a2,a5
	li	a1,17
	ld	a0,-24(s0)
	call	LocatePciExpressCapabilityRegBlock@plt
	sd	a0,-40(s0)
.L289:
	.loc 1 2482 35
	ld	a5,-24(s0)
	sw	zero,836(a5)
	.loc 1 2483 7
	la	a5,_gPcd_FixedAtBuild_PcdPcieResizableBarSupport
	lbu	a5,0(a5)
	.loc 1 2483 6
	beq	a5,zero,.L290
	.loc 1 2484 14
	ld	a5,-24(s0)
	addi	a5,a5,836
	li	a3,0
	mv	a2,a5
	li	a1,21
	ld	a0,-24(s0)
	call	LocatePciExpressCapabilityRegBlock@plt
	sd	a0,-40(s0)
	.loc 1 2490 9
	ld	a5,-40(s0)
	.loc 1 2490 8
	blt	a5,zero,.L290
.LBB5:
	.loc 1 2493 27
	ld	a5,-24(s0)
	lw	a5,836(a5)
	.loc 1 2493 14
	addiw	a5,a5,8
	sw	a5,-60(s0)
	.loc 1 2495 17
	ld	a5,-32(s0)
	ld	a5,48(a5)
	.loc 1 2495 7
	addi	a4,s0,-88
	lw	a2,-60(s0)
	li	a3,4
	li	a1,0
	ld	a0,-32(s0)
	jalr	a5
.LVL65:
	.loc 1 2502 65
	ld	a5,-88(s0)
	srli	a5,a5,5
	andi	a5,a5,7
	andi	a5,a5,0xff
	sext.w	a4,a5
	.loc 1 2502 39
	ld	a5,-24(s0)
	sw	a4,840(a5)
	.loc 1 2503 7
	li	a1,255
	ld	a0,-24(s0)
	call	PciProgramResizableBar@plt
.L290:
.LBE5:
	.loc 1 2510 3
	ld	a5,-24(s0)
	addi	a5,a5,552
	mv	a0,a5
	call	InitializeListHead@plt
	.loc 1 2515 3
	ld	a5,-24(s0)
	addi	a5,a5,568
	mv	a0,a5
	call	InitializeListHead@plt
	.loc 1 2520 3
	ld	a5,-24(s0)
	addi	a5,a5,496
	mv	a0,a5
	call	InitializeListHead@plt
	.loc 1 2522 10
	ld	a5,-24(s0)
.L277:
	.loc 1 2523 1
	mv	a0,a5
	ld	ra,120(sp)
	.cfi_restore 1
	ld	s0,112(sp)
	.cfi_restore 8
	.cfi_def_cfa 2, 128
	addi	sp,sp,128
	.cfi_def_cfa_offset 0
	jr	ra
	.cfi_endproc
.LFE25:
	.size	CreatePciIoDevice, .-CreatePciIoDevice
	.section	.text.PciEnumeratorLight,"ax",@progbits
	.align	1
	.globl	PciEnumeratorLight
	.type	PciEnumeratorLight, @function
PciEnumeratorLight:
.LFB26:
	.loc 1 2541 1
	.cfi_startproc
	addi	sp,sp,-80
	.cfi_def_cfa_offset 80
	sd	ra,72(sp)
	sd	s0,64(sp)
	.cfi_offset 1, -8
	.cfi_offset 8, -16
	addi	s0,sp,80
	.cfi_def_cfa 8, 0
	sd	a0,-72(s0)
	.loc 1 2549 10
	sh	zero,-42(s0)
	.loc 1 2550 10
	li	a5,255
	sh	a5,-44(s0)
	.loc 1 2551 15
	sd	zero,-56(s0)
	.loc 1 2556 7
	ld	a0,-72(s0)
	call	GetRootBridgeByHandle@plt
	mv	a5,a0
	.loc 1 2556 6 discriminator 1
	beq	a5,zero,.L292
	.loc 1 2557 12
	li	a5,0
	j	.L302
.L292:
	.loc 1 2563 15
	la	a5,gBS
	ld	a5,0(a5)
	ld	a6,280(a5)
	.loc 1 2563 12
	la	a5,gPciBusDriverBinding
	ld	a3,40(a5)
	addi	a2,s0,-40
	li	a5,16
	ld	a4,-72(s0)
	la	a1,gEfiPciRootBridgeIoProtocolGuid
	ld	a0,-72(s0)
	jalr	a6
.LVL66:
	sd	a0,-24(s0)
	.loc 1 2571 34
	ld	a5,-24(s0)
	.loc 1 2571 6
	bge	a5,zero,.L294
	.loc 1 2571 60 discriminator 1
	ld	a4,-24(s0)
	li	a5,-1
	slli	a5,a5,63
	addi	a5,a5,20
	beq	a4,a5,.L294
	.loc 1 2572 12
	ld	a5,-24(s0)
	j	.L302
.L294:
	.loc 1 2575 27
	ld	a5,-40(s0)
	ld	a5,136(a5)
	.loc 1 2575 12
	ld	a4,-40(s0)
	addi	a3,s0,-56
	mv	a1,a3
	mv	a0,a4
	jalr	a5
.LVL67:
	sd	a0,-24(s0)
	.loc 1 2577 34
	ld	a5,-24(s0)
	.loc 1 2577 6
	bge	a5,zero,.L296
	.loc 1 2578 12
	ld	a5,-24(s0)
	j	.L302
.L301:
	.loc 1 2585 21
	ld	a0,-72(s0)
	call	CreateRootBridge@plt
	sd	a0,-32(s0)
	.loc 1 2587 8
	ld	a5,-32(s0)
	bne	a5,zero,.L297
	.loc 1 2588 18
	ld	a5,-56(s0)
	addi	a5,a5,46
	sd	a5,-56(s0)
	.loc 1 2589 7
	j	.L296
.L297:
	.loc 1 2595 36
	ld	a4,-40(s0)
	ld	a5,-32(s0)
	sd	a4,208(a5)
	.loc 1 2597 14
	lhu	a5,-42(s0)
	andi	a5,a5,0xff
	mv	a1,a5
	ld	a0,-32(s0)
	call	PciPciDeviceInfoCollector
	sd	a0,-24(s0)
	.loc 1 2602 9
	ld	a5,-24(s0)
	.loc 1 2602 8
	blt	a5,zero,.L299
	.loc 1 2606 7
	ld	a5,-32(s0)
	ld	a5,8(a5)
	ld	a1,-32(s0)
	mv	a0,a5
	call	RemoveRejectedPciDevices@plt
	.loc 1 2611 7
	ld	a0,-32(s0)
	call	ProcessOptionRomLight
	.loc 1 2616 7
	ld	a0,-32(s0)
	call	DetermineDeviceAttribute
	.loc 1 2621 7
	ld	a0,-32(s0)
	call	InsertRootBridge@plt
	j	.L300
.L299:
	.loc 1 2626 7
	ld	a0,-32(s0)
	call	DestroyRootBridge@plt
.L300:
	.loc 1 2629 16
	ld	a5,-56(s0)
	addi	a5,a5,46
	sd	a5,-56(s0)
.L296:
	.loc 1 2581 10
	addi	a2,s0,-44
	addi	a4,s0,-42
	addi	a5,s0,-56
	li	a3,0
	mv	a1,a4
	mv	a0,a5
	call	PciGetBusRange
	mv	a5,a0
	.loc 1 2581 72 discriminator 1
	beq	a5,zero,.L301
	.loc 1 2632 10
	li	a5,0
.L302:
	.loc 1 2633 1
	mv	a0,a5
	ld	ra,72(sp)
	.cfi_restore 1
	ld	s0,64(sp)
	.cfi_restore 8
	.cfi_def_cfa 2, 80
	addi	sp,sp,80
	.cfi_def_cfa_offset 0
	jr	ra
	.cfi_endproc
.LFE26:
	.size	PciEnumeratorLight, .-PciEnumeratorLight
	.section	.text.PciGetBusRange,"ax",@progbits
	.align	1
	.globl	PciGetBusRange
	.type	PciGetBusRange, @function
PciGetBusRange:
.LFB27:
	.loc 1 2654 1
	.cfi_startproc
	addi	sp,sp,-48
	.cfi_def_cfa_offset 48
	sd	ra,40(sp)
	sd	s0,32(sp)
	.cfi_offset 1, -8
	.cfi_offset 8, -16
	addi	s0,sp,48
	.cfi_def_cfa 8, 0
	sd	a0,-24(s0)
	sd	a1,-32(s0)
	sd	a2,-40(s0)
	sd	a3,-48(s0)
	.loc 1 2655 9
	j	.L304
.L310:
	.loc 1 2656 10
	ld	a5,-24(s0)
	ld	a5,0(a5)
	.loc 1 2656 23
	lbu	a5,3(a5)
	.loc 1 2656 8
	mv	a4,a5
	li	a5,2
	bne	a4,a5,.L305
	.loc 1 2657 10
	ld	a5,-32(s0)
	beq	a5,zero,.L306
	.loc 1 2658 28
	ld	a5,-24(s0)
	ld	a5,0(a5)
	.loc 1 2658 41
	lbu	a4,14(a5)
	lbu	a3,15(a5)
	slli	a3,a3,8
	or	a4,a3,a4
	lbu	a3,16(a5)
	slli	a3,a3,16
	or	a4,a3,a4
	lbu	a3,17(a5)
	slli	a3,a3,24
	or	a4,a3,a4
	lbu	a3,18(a5)
	slli	a3,a3,32
	or	a4,a3,a4
	lbu	a3,19(a5)
	slli	a3,a3,40
	or	a4,a3,a4
	lbu	a3,20(a5)
	slli	a3,a3,48
	or	a4,a3,a4
	lbu	a5,21(a5)
	slli	a5,a5,56
	or	a5,a5,a4
	.loc 1 2658 19
	slli	a4,a5,48
	srli	a4,a4,48
	.loc 1 2658 17
	ld	a5,-32(s0)
	sh	a4,0(a5)
.L306:
	.loc 1 2661 10
	ld	a5,-40(s0)
	beq	a5,zero,.L307
	.loc 1 2662 28
	ld	a5,-24(s0)
	ld	a5,0(a5)
	.loc 1 2662 41
	lbu	a4,22(a5)
	lbu	a3,23(a5)
	slli	a3,a3,8
	or	a4,a3,a4
	lbu	a3,24(a5)
	slli	a3,a3,16
	or	a4,a3,a4
	lbu	a3,25(a5)
	slli	a3,a3,24
	or	a4,a3,a4
	lbu	a3,26(a5)
	slli	a3,a3,32
	or	a4,a3,a4
	lbu	a3,27(a5)
	slli	a3,a3,40
	or	a4,a3,a4
	lbu	a3,28(a5)
	slli	a3,a3,48
	or	a4,a3,a4
	lbu	a5,29(a5)
	slli	a5,a5,56
	or	a5,a5,a4
	.loc 1 2662 19
	slli	a4,a5,48
	srli	a4,a4,48
	.loc 1 2662 17
	ld	a5,-40(s0)
	sh	a4,0(a5)
.L307:
	.loc 1 2665 10
	ld	a5,-48(s0)
	beq	a5,zero,.L308
	.loc 1 2666 30
	ld	a5,-24(s0)
	ld	a5,0(a5)
	.loc 1 2666 43
	lbu	a4,38(a5)
	lbu	a3,39(a5)
	slli	a3,a3,8
	or	a4,a3,a4
	lbu	a3,40(a5)
	slli	a3,a3,16
	or	a4,a3,a4
	lbu	a3,41(a5)
	slli	a3,a3,24
	or	a4,a3,a4
	lbu	a3,42(a5)
	slli	a3,a3,32
	or	a4,a3,a4
	lbu	a3,43(a5)
	slli	a3,a3,40
	or	a4,a3,a4
	lbu	a3,44(a5)
	slli	a3,a3,48
	or	a4,a3,a4
	lbu	a5,45(a5)
	slli	a5,a5,56
	or	a5,a5,a4
	.loc 1 2666 21
	slli	a4,a5,48
	srli	a4,a4,48
	.loc 1 2666 19
	ld	a5,-48(s0)
	sh	a4,0(a5)
.L308:
	.loc 1 2669 14
	li	a5,0
	j	.L309
.L305:
	.loc 1 2672 6
	ld	a5,-24(s0)
	ld	a5,0(a5)
	.loc 1 2672 19
	addi	a4,a5,46
	ld	a5,-24(s0)
	sd	a4,0(a5)
.L304:
	.loc 1 2655 11
	ld	a5,-24(s0)
	ld	a5,0(a5)
	.loc 1 2655 24
	lbu	a5,0(a5)
	.loc 1 2655 31
	mv	a4,a5
	li	a5,121
	bne	a4,a5,.L310
	.loc 1 2675 10
	li	a5,-1
	slli	a5,a5,63
	addi	a5,a5,14
.L309:
	.loc 1 2676 1
	mv	a0,a5
	ld	ra,40(sp)
	.cfi_restore 1
	ld	s0,32(sp)
	.cfi_restore 8
	.cfi_def_cfa 2, 48
	addi	sp,sp,48
	.cfi_def_cfa_offset 0
	jr	ra
	.cfi_endproc
.LFE27:
	.size	PciGetBusRange, .-PciGetBusRange
	.section	.text.StartManagingRootBridge,"ax",@progbits
	.align	1
	.globl	StartManagingRootBridge
	.type	StartManagingRootBridge, @function
StartManagingRootBridge:
.LFB28:
	.loc 1 2691 1
	.cfi_startproc
	addi	sp,sp,-64
	.cfi_def_cfa_offset 64
	sd	ra,56(sp)
	sd	s0,48(sp)
	.cfi_offset 1, -8
	.cfi_offset 8, -16
	addi	s0,sp,64
	.cfi_def_cfa 8, 0
	sd	a0,-56(s0)
	.loc 1 2699 20
	ld	a5,-56(s0)
	ld	a5,8(a5)
	sd	a5,-24(s0)
	.loc 1 2700 19
	sd	zero,-40(s0)
	.loc 1 2705 15
	la	a5,gBS
	ld	a5,0(a5)
	ld	a6,280(a5)
	.loc 1 2705 12
	la	a5,gPciBusDriverBinding
	ld	a3,40(a5)
	addi	a2,s0,-40
	li	a5,16
	ld	a4,-24(s0)
	la	a1,gEfiPciRootBridgeIoProtocolGuid
	ld	a0,-24(s0)
	jalr	a6
.LVL68:
	sd	a0,-32(s0)
	.loc 1 2714 34
	ld	a5,-32(s0)
	.loc 1 2714 6
	bge	a5,zero,.L312
	.loc 1 2714 60 discriminator 1
	ld	a4,-32(s0)
	li	a5,-1
	slli	a5,a5,63
	addi	a5,a5,20
	beq	a4,a5,.L312
	.loc 1 2715 12
	ld	a5,-32(s0)
	j	.L314
.L312:
	.loc 1 2721 34
	ld	a4,-40(s0)
	ld	a5,-56(s0)
	sd	a4,208(a5)
	.loc 1 2723 10
	li	a5,0
.L314:
	.loc 1 2724 1
	mv	a0,a5
	ld	ra,56(sp)
	.cfi_restore 1
	ld	s0,48(sp)
	.cfi_restore 8
	.cfi_def_cfa 2, 64
	addi	sp,sp,64
	.cfi_def_cfa_offset 0
	jr	ra
	.cfi_endproc
.LFE28:
	.size	StartManagingRootBridge, .-StartManagingRootBridge
	.section	.text.IsPciDeviceRejected,"ax",@progbits
	.align	1
	.globl	IsPciDeviceRejected
	.type	IsPciDeviceRejected, @function
IsPciDeviceRejected:
.LFB29:
	.loc 1 2739 1
	.cfi_startproc
	addi	sp,sp,-64
	.cfi_def_cfa_offset 64
	sd	ra,56(sp)
	sd	s0,48(sp)
	.cfi_offset 1, -8
	.cfi_offset 8, -16
	addi	s0,sp,64
	.cfi_def_cfa 8, 0
	sd	a0,-56(s0)
	.loc 1 2749 33
	ld	a5,-56(s0)
	lbu	a5,238(a5)
	.loc 1 2749 45
	sext.w	a5,a5
	andi	a5,a5,127
	sext.w	a4,a5
	.loc 1 2749 6
	li	a5,1
	bne	a4,a5,.L316
	.loc 1 2750 12
	li	a5,0
	j	.L331
.L316:
	.loc 1 2753 33
	ld	a5,-56(s0)
	lbu	a5,238(a5)
	.loc 1 2753 45
	sext.w	a5,a5
	andi	a5,a5,127
	sext.w	a4,a5
	.loc 1 2753 6
	li	a5,2
	bne	a4,a5,.L318
	.loc 1 2757 20
	li	a5,28
	sb	a5,-21(s0)
	.loc 1 2757 5
	j	.L319
.L324:
	.loc 1 2758 46
	lbu	a5,-21(s0)
	andi	a4,a5,0xff
	li	a5,43
	bgtu	a4,a5,.L320
	.loc 1 2758 12 discriminator 1
	li	a5,-4096
	sw	a5,-20(s0)
	j	.L321
.L320:
	.loc 1 2758 12 is_stmt 0 discriminator 2
	li	a5,-4
	sw	a5,-20(s0)
.L321:
	.loc 1 2759 16 is_stmt 1
	lbu	a5,-21(s0)
	addi	a3,s0,-40
	addi	a4,s0,-36
	mv	a2,a4
	mv	a1,a5
	ld	a0,-56(s0)
	call	BarExisted
	sd	a0,-32(s0)
	.loc 1 2760 38
	ld	a5,-32(s0)
	.loc 1 2760 10
	blt	a5,zero,.L332
	.loc 1 2764 29
	lw	a5,-36(s0)
	lw	a4,-20(s0)
	and	a5,a4,a5
	sext.w	a5,a5
	.loc 1 2764 17
	sw	a5,-36(s0)
	.loc 1 2765 22
	lw	a5,-36(s0)
	.loc 1 2765 10
	beq	a5,zero,.L323
	.loc 1 2765 55 discriminator 1
	lw	a5,-40(s0)
	lw	a4,-20(s0)
	and	a5,a4,a5
	sext.w	a4,a5
	.loc 1 2765 42 discriminator 1
	lw	a5,-36(s0)
	.loc 1 2765 28 discriminator 1
	bne	a4,a5,.L323
	.loc 1 2769 16
	li	a5,1
	j	.L331
.L332:
	.loc 1 2761 9
	nop
.L323:
	.loc 1 2757 57 discriminator 2
	lbu	a5,-21(s0)
	addiw	a5,a5,8
	sb	a5,-21(s0)
.L319:
	.loc 1 2757 38 discriminator 1
	lbu	a5,-21(s0)
	andi	a4,a5,0xff
	li	a5,56
	bleu	a4,a5,.L324
	.loc 1 2773 12
	li	a5,0
	j	.L331
.L318:
	.loc 1 2776 18
	li	a5,20
	sb	a5,-21(s0)
	.loc 1 2776 3
	j	.L325
.L330:
	.loc 1 2780 14
	lbu	a5,-21(s0)
	addi	a3,s0,-40
	addi	a4,s0,-36
	mv	a2,a4
	mv	a1,a5
	ld	a0,-56(s0)
	call	BarExisted
	sd	a0,-32(s0)
	.loc 1 2781 36
	ld	a5,-32(s0)
	.loc 1 2781 8
	blt	a5,zero,.L333
	.loc 1 2785 20
	lw	a5,-36(s0)
	andi	a5,a5,1
	sext.w	a5,a5
	.loc 1 2785 8
	beq	a5,zero,.L328
	.loc 1 2789 12
	li	a5,-4
	sw	a5,-20(s0)
	.loc 1 2790 29
	lw	a5,-36(s0)
	lw	a4,-20(s0)
	and	a5,a4,a5
	sext.w	a5,a5
	.loc 1 2790 17
	sw	a5,-36(s0)
	.loc 1 2791 22
	lw	a5,-36(s0)
	.loc 1 2791 10
	beq	a5,zero,.L327
	.loc 1 2791 55 discriminator 1
	lw	a5,-40(s0)
	lw	a4,-20(s0)
	and	a5,a4,a5
	sext.w	a4,a5
	.loc 1 2791 42 discriminator 1
	lw	a5,-36(s0)
	.loc 1 2791 28 discriminator 1
	bne	a4,a5,.L327
	.loc 1 2792 16
	li	a5,1
	j	.L331
.L328:
	.loc 1 2798 12
	li	a5,-16
	sw	a5,-20(s0)
	.loc 1 2799 29
	lw	a5,-36(s0)
	lw	a4,-20(s0)
	and	a5,a4,a5
	sext.w	a5,a5
	.loc 1 2799 17
	sw	a5,-36(s0)
	.loc 1 2801 22
	lw	a5,-36(s0)
	andi	a5,a5,7
	sext.w	a4,a5
	.loc 1 2801 10
	li	a5,4
	bne	a4,a5,.L329
	.loc 1 2805 19
	lbu	a5,-21(s0)
	addiw	a5,a5,4
	sb	a5,-21(s0)
	.loc 1 2806 24
	lw	a5,-36(s0)
	.loc 1 2806 12
	beq	a5,zero,.L327
	.loc 1 2806 57 discriminator 1
	lw	a5,-40(s0)
	lw	a4,-20(s0)
	and	a5,a4,a5
	sext.w	a4,a5
	.loc 1 2806 44 discriminator 1
	lw	a5,-36(s0)
	.loc 1 2806 30 discriminator 1
	bne	a4,a5,.L327
	.loc 1 2810 20
	lbu	a5,-21(s0)
	addi	a3,s0,-40
	addi	a4,s0,-36
	mv	a2,a4
	mv	a1,a5
	ld	a0,-56(s0)
	call	BarExisted
	sd	a0,-32(s0)
	.loc 1 2811 25
	lw	a4,-36(s0)
	lw	a5,-40(s0)
	.loc 1 2811 14
	bne	a4,a5,.L327
	.loc 1 2812 20
	li	a5,1
	j	.L331
.L329:
	.loc 1 2819 24
	lw	a5,-36(s0)
	.loc 1 2819 12
	beq	a5,zero,.L327
	.loc 1 2819 57 discriminator 1
	lw	a5,-40(s0)
	lw	a4,-20(s0)
	and	a5,a4,a5
	sext.w	a4,a5
	.loc 1 2819 44 discriminator 1
	lw	a5,-36(s0)
	.loc 1 2819 30 discriminator 1
	bne	a4,a5,.L327
	.loc 1 2820 18
	li	a5,1
	j	.L331
.L333:
	.loc 1 2782 7
	nop
.L327:
	.loc 1 2776 55 discriminator 2
	lbu	a5,-21(s0)
	addiw	a5,a5,4
	sb	a5,-21(s0)
.L325:
	.loc 1 2776 36 discriminator 1
	lbu	a5,-21(s0)
	andi	a4,a5,0xff
	li	a5,36
	bleu	a4,a5,.L330
	.loc 1 2826 10
	li	a5,0
.L331:
	.loc 1 2827 1
	mv	a0,a5
	ld	ra,56(sp)
	.cfi_restore 1
	ld	s0,48(sp)
	.cfi_restore 8
	.cfi_def_cfa 2, 64
	addi	sp,sp,64
	.cfi_def_cfa_offset 0
	jr	ra
	.cfi_endproc
.LFE29:
	.size	IsPciDeviceRejected, .-IsPciDeviceRejected
	.section	.text.ResetAllPpbBusNumber,"ax",@progbits
	.align	1
	.globl	ResetAllPpbBusNumber
	.type	ResetAllPpbBusNumber, @function
ResetAllPpbBusNumber:
.LFB30:
	.loc 1 2841 1
	.cfi_startproc
	addi	sp,sp,-144
	.cfi_def_cfa_offset 144
	sd	ra,136(sp)
	sd	s0,128(sp)
	.cfi_offset 1, -8
	.cfi_offset 8, -16
	addi	s0,sp,144
	.cfi_def_cfa 8, 0
	sd	a0,-136(s0)
	mv	a5,a1
	sb	a5,-137(s0)
	.loc 1 2851 19
	ld	a5,-136(s0)
	ld	a5,208(a5)
	sd	a5,-32(s0)
	.loc 1 2853 15
	sb	zero,-17(s0)
	.loc 1 2853 3
	j	.L335
.L345:
	.loc 1 2854 9
	ld	a0,-136(s0)
	call	PciScanOnlyDevice0@plt
	mv	a5,a0
	.loc 1 2854 8 discriminator 1
	beq	a5,zero,.L336
	.loc 1 2854 37 discriminator 2
	lbu	a5,-17(s0)
	andi	a5,a5,0xff
	bne	a5,zero,.L346
.L336:
	.loc 1 2858 15
	sb	zero,-18(s0)
	.loc 1 2858 5
	j	.L338
.L344:
	.loc 1 2862 16
	lbu	a4,-18(s0)
	lbu	a3,-17(s0)
	lbu	a2,-137(s0)
	addi	a5,s0,-120
	mv	a1,a5
	ld	a0,-32(s0)
	call	PciDevicePresent
	sd	a0,-40(s0)
	.loc 1 2870 38
	ld	a5,-40(s0)
	.loc 1 2870 10
	bge	a5,zero,.L339
	.loc 1 2870 64 discriminator 1
	lbu	a5,-18(s0)
	andi	a5,a5,0xff
	beq	a5,zero,.L347
.L339:
	.loc 1 2877 11
	ld	a5,-40(s0)
	.loc 1 2877 10
	blt	a5,zero,.L341
	.loc 1 2877 82 discriminator 1
	lbu	a5,-106(s0)
	.loc 1 2877 94 discriminator 1
	sext.w	a5,a5
	andi	a5,a5,127
	sext.w	a4,a5
	.loc 1 2877 65 discriminator 1
	li	a5,1
	bne	a4,a5,.L341
	.loc 1 2878 18
	sw	zero,-124(s0)
	.loc 1 2879 32
	lbu	a5,-137(s0)
	.loc 1 2879 56
	slli	a4,a5,24
	.loc 1 2879 67
	lbu	a5,-17(s0)
	.loc 1 2879 83
	slli	a5,a5,16
	.loc 1 2879 63
	or	a4,a4,a5
	.loc 1 2879 94
	lbu	a5,-18(s0)
	.loc 1 2879 108
	slli	a5,a5,8
	.loc 1 2879 90
	or	a5,a4,a5
	.loc 1 2879 17
	ori	a5,a5,24
	sd	a5,-48(s0)
	.loc 1 2880 38
	ld	a5,-32(s0)
	ld	a5,56(a5)
	.loc 1 2880 18
	addi	a4,s0,-124
	li	a3,1
	ld	a2,-48(s0)
	li	a1,2
	ld	a0,-32(s0)
	jalr	a5
.LVL69:
	sd	a0,-40(s0)
	.loc 1 2887 41
	lw	a5,-124(s0)
	srliw	a5,a5,8
	sext.w	a5,a5
	.loc 1 2887 22
	sb	a5,-49(s0)
	.loc 1 2889 12
	lbu	a5,-49(s0)
	andi	a5,a5,0xff
	beq	a5,zero,.L342
	.loc 1 2890 11
	lbu	a5,-49(s0)
	mv	a1,a5
	ld	a0,-136(s0)
	call	ResetAllPpbBusNumber
.L342:
	.loc 1 2896 18
	lw	a5,-124(s0)
	mv	a4,a5
	li	a5,-16777216
	and	a5,a4,a5
	sext.w	a5,a5
	sw	a5,-124(s0)
	.loc 1 2897 38
	ld	a5,-32(s0)
	ld	a5,64(a5)
	.loc 1 2897 18
	addi	a4,s0,-124
	li	a3,1
	ld	a2,-48(s0)
	li	a1,2
	ld	a0,-32(s0)
	jalr	a5
.LVL70:
	sd	a0,-40(s0)
.L341:
	.loc 1 2906 10
	lbu	a5,-18(s0)
	andi	a5,a5,0xff
	bne	a5,zero,.L343
	.loc 1 2906 39 discriminator 1
	lbu	a5,-106(s0)
	.loc 1 2906 26 discriminator 1
	slliw	a5,a5,24
	sraiw	a5,a5,24
	.loc 1 2906 23 discriminator 1
	blt	a5,zero,.L343
	.loc 1 2910 14
	li	a5,7
	sb	a5,-18(s0)
.L343:
	.loc 1 2858 35 discriminator 2
	lbu	a5,-18(s0)
	addiw	a5,a5,1
	sb	a5,-18(s0)
.L338:
	.loc 1 2858 25 discriminator 1
	lbu	a5,-18(s0)
	andi	a4,a5,0xff
	li	a5,7
	bleu	a4,a5,.L344
	j	.L340
.L347:
	.loc 1 2874 9
	nop
.L340:
	.loc 1 2853 40 discriminator 2
	lbu	a5,-17(s0)
	addiw	a5,a5,1
	sb	a5,-17(s0)
.L335:
	.loc 1 2853 27 discriminator 1
	lbu	a5,-17(s0)
	andi	a4,a5,0xff
	li	a5,31
	bleu	a4,a5,.L345
	.loc 1 2914 1
	j	.L348
.L346:
	.loc 1 2855 7
	nop
.L348:
	.loc 1 2914 1
	nop
	ld	ra,136(sp)
	.cfi_restore 1
	ld	s0,128(sp)
	.cfi_restore 8
	.cfi_def_cfa 2, 144
	addi	sp,sp,144
	.cfi_def_cfa_offset 0
	jr	ra
	.cfi_endproc
.LFE30:
	.size	ResetAllPpbBusNumber, .-ResetAllPpbBusNumber
	.text
.Letext0:
	.file 2 "/home/kapoagaeming/spacemit-image-builder/components/edk2/MdePkg/Include/RiscV64/ProcessorBind.h"
	.file 3 "/home/kapoagaeming/spacemit-image-builder/components/edk2/MdePkg/Include/Base.h"
	.file 4 "/home/kapoagaeming/spacemit-image-builder/components/edk2/MdePkg/Include/Uefi/UefiBaseType.h"
	.file 5 "/home/kapoagaeming/spacemit-image-builder/components/edk2/MdePkg/Include/Uefi/UefiMultiPhase.h"
	.file 6 "/home/kapoagaeming/spacemit-image-builder/components/edk2/MdePkg/Include/IndustryStandard/Acpi10.h"
	.file 7 "/home/kapoagaeming/spacemit-image-builder/components/edk2/MdePkg/Include/Protocol/DevicePath.h"
	.file 8 "/home/kapoagaeming/spacemit-image-builder/components/edk2/MdePkg/Include/Uefi/UefiSpec.h"
	.file 9 "/home/kapoagaeming/spacemit-image-builder/components/Build/Milk-V-Jupiter/RELEASE_GCC5/RISCV64/Silicon/Spacemit/Override/MdeModulePkg/Bus/Pci/PciBusDxe/PciBusDxe/DEBUG/AutoGen.h"
	.file 10 "/home/kapoagaeming/spacemit-image-builder/components/edk2/MdePkg/Include/Protocol/PciRootBridgeIo.h"
	.file 11 "/home/kapoagaeming/spacemit-image-builder/components/edk2/MdePkg/Include/Protocol/PciHostBridgeResourceAllocation.h"
	.file 12 "/home/kapoagaeming/spacemit-image-builder/components/edk2/MdePkg/Include/Protocol/PciIo.h"
	.file 13 "/home/kapoagaeming/spacemit-image-builder/components/edk2/MdePkg/Include/Protocol/LoadFile2.h"
	.file 14 "/home/kapoagaeming/spacemit-image-builder/components/edk2/MdePkg/Include/Protocol/PciHotPlugInit.h"
	.file 15 "/home/kapoagaeming/spacemit-image-builder/components/edk2/MdePkg/Include/Protocol/BusSpecificDriverOverride.h"
	.file 16 "/home/kapoagaeming/spacemit-image-builder/components/edk2/MdePkg/Include/Protocol/IncompatiblePciDeviceSupport.h"
	.file 17 "/home/kapoagaeming/spacemit-image-builder/components/edk2/MdeModulePkg/Include/Protocol/DeviceSecurity.h"
	.file 18 "/home/kapoagaeming/spacemit-image-builder/components/edk2/MdePkg/Include/Protocol/DriverBinding.h"
	.file 19 "/home/kapoagaeming/spacemit-image-builder/components/edk2/MdePkg/Include/IndustryStandard/Pci22.h"
	.file 20 "/home/kapoagaeming/spacemit-image-builder/components/edk2/MdePkg/Include/IndustryStandard/PciExpress21.h"
	.file 21 "/home/kapoagaeming/spacemit-image-builder/components/edk2-platforms/Silicon/Spacemit/Override/MdeModulePkg/Bus/Pci/PciBusDxe/PciBus.h"
	.file 22 "/home/kapoagaeming/spacemit-image-builder/components/edk2-platforms/Silicon/Spacemit/Override/MdeModulePkg/Bus/Pci/PciBusDxe/PciLib.h"
	.file 23 "/home/kapoagaeming/spacemit-image-builder/components/edk2-platforms/Silicon/Spacemit/Override/MdeModulePkg/Bus/Pci/PciBusDxe/PciDeviceSupport.h"
	.file 24 "/home/kapoagaeming/spacemit-image-builder/components/edk2/MdePkg/Include/Library/BaseLib.h"
	.file 25 "/home/kapoagaeming/spacemit-image-builder/components/edk2-platforms/Silicon/Spacemit/Override/MdeModulePkg/Bus/Pci/PciBusDxe/PciCommand.h"
	.file 26 "/home/kapoagaeming/spacemit-image-builder/components/edk2-platforms/Silicon/Spacemit/Override/MdeModulePkg/Bus/Pci/PciBusDxe/PciOptionRomSupport.h"
	.file 27 "/home/kapoagaeming/spacemit-image-builder/components/edk2-platforms/Silicon/Spacemit/Override/MdeModulePkg/Bus/Pci/PciBusDxe/PciDriverOverride.h"
	.file 28 "/home/kapoagaeming/spacemit-image-builder/components/edk2-platforms/Silicon/Spacemit/Override/MdeModulePkg/Bus/Pci/PciBusDxe/PciIo.h"
	.file 29 "/home/kapoagaeming/spacemit-image-builder/components/edk2/MdePkg/Include/Library/BaseMemoryLib.h"
	.file 30 "/home/kapoagaeming/spacemit-image-builder/components/edk2/MdePkg/Include/Library/MemoryAllocationLib.h"
	.file 31 "/home/kapoagaeming/spacemit-image-builder/components/edk2-platforms/Silicon/Spacemit/Override/MdeModulePkg/Bus/Pci/PciBusDxe/PciRomTable.h"
	.file 32 "/home/kapoagaeming/spacemit-image-builder/components/edk2/MdePkg/Include/Library/DevicePathLib.h"
	.file 33 "/home/kapoagaeming/spacemit-image-builder/components/edk2-platforms/Silicon/Spacemit/Override/MdeModulePkg/Bus/Pci/PciBusDxe/PciPowerManagement.h"
	.file 34 "/home/kapoagaeming/spacemit-image-builder/components/edk2-platforms/Silicon/Spacemit/Override/MdeModulePkg/Bus/Pci/PciBusDxe/PciResourceSupport.h"
	.file 35 "/home/kapoagaeming/spacemit-image-builder/components/edk2-platforms/Silicon/Spacemit/Override/MdeModulePkg/Bus/Pci/PciBusDxe/PciEnumerator.h"
	.file 36 "/home/kapoagaeming/spacemit-image-builder/components/edk2/MdePkg/Include/Library/UefiBootServicesTableLib.h"
	.file 37 "/home/kapoagaeming/spacemit-image-builder/components/edk2/MdePkg/Include/Library/DebugLib.h"
	.section	.note.GNU-stack,"",@progbits
