	.file	"PciEnumerator.c"
	.option pic
	.option norelax
	.attribute arch, "rv64i2p1_m2p0_a2p1_f2p2_d2p2_c2p0_zicsr2p0_zifencei2p0_zmmul1p0_zaamo1p0_zalrsc1p0_zca1p0_zcd1p0"
	.attribute unaligned_access, 0
	.attribute stack_align, 16
	.text
.Ltext0:
	.cfi_sections	.debug_frame
	.file 0 "/home/kapoagaeming/spacemit-image-builder/components/Build/Milk-V-Jupiter/RELEASE_GCC5/RISCV64/Silicon/Spacemit/Override/MdeModulePkg/Bus/Pci/PciBusDxe/PciBusDxe" "/home/kapoagaeming/spacemit-image-builder/components/edk2-platforms/Silicon/Spacemit/Override/MdeModulePkg/Bus/Pci/PciBusDxe/PciEnumerator.c"
	.section	.text.PciEnumerator,"ax",@progbits
	.align	1
	.globl	PciEnumerator
	.type	PciEnumerator, @function
PciEnumerator:
.LFB0:
	.file 1 "/home/kapoagaeming/spacemit-image-builder/components/edk2-platforms/Silicon/Spacemit/Override/MdeModulePkg/Bus/Pci/PciBusDxe/PciEnumerator.c"
	.loc 1 28 1
	.cfi_startproc
	addi	sp,sp,-48
	.cfi_def_cfa_offset 48
	sd	ra,40(sp)
	sd	s0,32(sp)
	.cfi_offset 1, -8
	.cfi_offset 8, -16
	addi	s0,sp,48
	.cfi_def_cfa 8, 0
	sd	a0,-40(s0)
	sd	a1,-48(s0)
	.loc 1 35 15
	la	a5,gBS
	ld	a5,0(a5)
	ld	a6,280(a5)
	.loc 1 35 12
	la	a5,gPciBusDriverBinding
	ld	a3,40(a5)
	addi	a2,s0,-32
	li	a5,2
	ld	a4,-40(s0)
	la	a1,gEfiPciHostBridgeResourceAllocationProtocolGuid
	ld	a0,-48(s0)
	jalr	a6
.LVL0:
	sd	a0,-24(s0)
	.loc 1 44 34
	ld	a5,-24(s0)
	.loc 1 44 6
	bge	a5,zero,.L2
	.loc 1 45 12
	ld	a5,-24(s0)
	j	.L10
.L2:
	.loc 1 51 12
	ld	a5,-32(s0)
	li	a1,0
	mv	a0,a5
	call	NotifyPhase
	sd	a0,-24(s0)
	.loc 1 53 34
	ld	a5,-24(s0)
	.loc 1 53 6
	bge	a5,zero,.L4
	.loc 1 54 12
	ld	a5,-24(s0)
	j	.L10
.L4:
	.loc 1 60 12
	ld	a5,-32(s0)
	mv	a0,a5
	call	PciHostBridgeEnumerator@plt
	sd	a0,-24(s0)
	.loc 1 62 34
	ld	a5,-24(s0)
	.loc 1 62 6
	bge	a5,zero,.L5
	.loc 1 63 12
	ld	a5,-24(s0)
	j	.L10
.L5:
	.loc 1 69 12
	ld	a5,-32(s0)
	mv	a0,a5
	call	PciHostBridgeResourceAllocator@plt
	sd	a0,-24(s0)
	.loc 1 71 34
	ld	a5,-24(s0)
	.loc 1 71 6
	bge	a5,zero,.L6
	.loc 1 72 12
	ld	a5,-24(s0)
	j	.L10
.L6:
	.loc 1 78 12
	ld	a5,-32(s0)
	li	a1,8
	mv	a0,a5
	call	NotifyPhase
	sd	a0,-24(s0)
	.loc 1 80 34
	ld	a5,-24(s0)
	.loc 1 80 6
	bge	a5,zero,.L7
	.loc 1 81 12
	ld	a5,-24(s0)
	j	.L10
.L7:
	.loc 1 87 12
	ld	a5,-32(s0)
	mv	a0,a5
	call	PciHostBridgeP2CProcess@plt
	sd	a0,-24(s0)
	.loc 1 89 34
	ld	a5,-24(s0)
	.loc 1 89 6
	bge	a5,zero,.L8
	.loc 1 90 12
	ld	a5,-24(s0)
	j	.L10
.L8:
	.loc 1 96 12
	ld	a5,-32(s0)
	mv	a0,a5
	call	PciHostBridgeDeviceAttribute
	sd	a0,-24(s0)
	.loc 1 97 34
	ld	a5,-24(s0)
	.loc 1 97 6
	bge	a5,zero,.L9
	.loc 1 98 12
	ld	a5,-24(s0)
	j	.L10
.L9:
	.loc 1 101 10
	li	a5,0
.L10:
	.loc 1 102 1
	mv	a0,a5
	ld	ra,40(sp)
	.cfi_restore 1
	ld	s0,32(sp)
	.cfi_restore 8
	.cfi_def_cfa 2, 48
	addi	sp,sp,48
	.cfi_def_cfa_offset 0
	jr	ra
	.cfi_endproc
.LFE0:
	.size	PciEnumerator, .-PciEnumerator
	.section	.text.PciRootBridgeEnumerator,"ax",@progbits
	.align	1
	.globl	PciRootBridgeEnumerator
	.type	PciRootBridgeEnumerator, @function
PciRootBridgeEnumerator:
.LFB1:
	.loc 1 119 1
	.cfi_startproc
	addi	sp,sp,-128
	.cfi_def_cfa_offset 128
	sd	ra,120(sp)
	sd	s0,112(sp)
	.cfi_offset 1, -8
	.cfi_offset 8, -16
	addi	s0,sp,128
	.cfi_def_cfa 8, 0
	sd	a0,-120(s0)
	sd	a1,-128(s0)
	.loc 1 133 16
	sb	zero,-97(s0)
	.loc 1 134 18
	sb	zero,-41(s0)
	.loc 1 135 18
	sb	zero,-98(s0)
	.loc 1 140 20
	ld	a5,-128(s0)
	ld	a5,8(a5)
	sd	a5,-56(s0)
	.loc 1 142 4
	call	ReportProgressCodeEnabled@plt
	mv	a5,a0
	.loc 1 142 199 discriminator 1
	beq	a5,zero,.L12
	.loc 1 142 185 discriminator 4
	ld	a5,-128(s0)
	ld	a5,200(a5)
	.loc 1 142 80 discriminator 4
	mv	a2,a5
	li	a1,33624064
	li	a0,1
	call	ReportStatusCodeWithDevicePath@plt
	.loc 1 142 199
	j	.L13
.L12:
	.loc 1 142 202 discriminator 5
	call	ReportErrorCodeEnabled@plt
	.loc 1 142 397 discriminator 9
	call	ReportDebugCodeEnabled@plt
.L13:
	.loc 1 151 23
	ld	a5,-120(s0)
	ld	a5,24(a5)
	.loc 1 151 12
	addi	a4,s0,-96
	mv	a2,a4
	ld	a1,-56(s0)
	ld	a0,-120(s0)
	jalr	a5
.LVL1:
	sd	a0,-64(s0)
	.loc 1 157 34
	ld	a5,-64(s0)
	.loc 1 157 6
	bge	a5,zero,.L14
	.loc 1 158 12
	ld	a5,-64(s0)
	j	.L28
.L14:
	.loc 1 161 22
	ld	a5,-96(s0)
	.loc 1 161 6
	beq	a5,zero,.L16
	.loc 1 161 56 discriminator 1
	ld	a5,-96(s0)
	lbu	a5,0(a5)
	.loc 1 161 39 discriminator 1
	mv	a4,a5
	li	a5,121
	bne	a4,a5,.L17
.L16:
	.loc 1 162 12
	li	a5,-1
	slli	a5,a5,63
	addi	a5,a5,2
	j	.L28
.L17:
	.loc 1 165 34
	ld	a4,-96(s0)
	ld	a5,-128(s0)
	sd	a4,600(a5)
	.loc 1 170 23
	ld	a5,-96(s0)
	sd	a5,-32(s0)
	.loc 1 170 3
	j	.L18
.L23:
	.loc 1 171 20
	ld	a5,-32(s0)
	sd	a5,-24(s0)
	.loc 1 172 25
	ld	a5,-32(s0)
	addi	a5,a5,46
	sd	a5,-40(s0)
	.loc 1 172 5
	j	.L19
.L21:
	.loc 1 173 25
	ld	a5,-24(s0)
	lbu	a4,14(a5)
	lbu	a3,15(a5)
	slli	a3,a3,8
	or	a4,a3,a4
	lbu	a3,16(a5)
	slli	a3,a3,16
	or	a4,a3,a4
	lbu	a3,17(a5)
	slli	a3,a3,24
	or	a4,a3,a4
	lbu	a3,18(a5)
	slli	a3,a3,32
	or	a4,a3,a4
	lbu	a3,19(a5)
	slli	a3,a3,40
	or	a4,a3,a4
	lbu	a3,20(a5)
	slli	a3,a3,48
	or	a4,a3,a4
	lbu	a5,21(a5)
	slli	a5,a5,56
	or	a5,a5,a4
	mv	a2,a5
	.loc 1 173 56
	ld	a5,-40(s0)
	lbu	a4,14(a5)
	lbu	a3,15(a5)
	slli	a3,a3,8
	or	a4,a3,a4
	lbu	a3,16(a5)
	slli	a3,a3,16
	or	a4,a3,a4
	lbu	a3,17(a5)
	slli	a3,a3,24
	or	a4,a3,a4
	lbu	a3,18(a5)
	slli	a3,a3,32
	or	a4,a3,a4
	lbu	a3,19(a5)
	slli	a3,a3,40
	or	a4,a3,a4
	lbu	a3,20(a5)
	slli	a3,a3,48
	or	a4,a3,a4
	lbu	a5,21(a5)
	slli	a5,a5,56
	or	a5,a5,a4
	.loc 1 173 10
	bleu	a2,a5,.L20
	.loc 1 174 24
	ld	a5,-40(s0)
	sd	a5,-24(s0)
.L20:
	.loc 1 172 91 discriminator 2
	ld	a5,-40(s0)
	addi	a5,a5,46
	sd	a5,-40(s0)
.L19:
	.loc 1 172 61 discriminator 1
	ld	a5,-40(s0)
	lbu	a5,0(a5)
	.loc 1 172 68 discriminator 1
	mv	a4,a5
	li	a5,121
	bne	a4,a5,.L21
	.loc 1 182 8
	ld	a4,-24(s0)
	ld	a5,-32(s0)
	beq	a4,a5,.L22
	.loc 1 183 20
	ld	a5,-32(s0)
	lbu	a4,14(a5)
	lbu	a3,15(a5)
	slli	a3,a3,8
	or	a4,a3,a4
	lbu	a3,16(a5)
	slli	a3,a3,16
	or	a4,a3,a4
	lbu	a3,17(a5)
	slli	a3,a3,24
	or	a4,a3,a4
	lbu	a3,18(a5)
	slli	a3,a3,32
	or	a4,a3,a4
	lbu	a3,19(a5)
	slli	a3,a3,40
	or	a4,a3,a4
	lbu	a3,20(a5)
	slli	a3,a3,48
	or	a4,a3,a4
	lbu	a5,21(a5)
	slli	a5,a5,56
	or	a5,a5,a4
	sd	a5,-88(s0)
	.loc 1 184 52
	ld	a5,-24(s0)
	lbu	a4,14(a5)
	lbu	a3,15(a5)
	slli	a3,a3,8
	or	a4,a3,a4
	lbu	a3,16(a5)
	slli	a3,a3,16
	or	a4,a3,a4
	lbu	a3,17(a5)
	slli	a3,a3,24
	or	a4,a3,a4
	lbu	a3,18(a5)
	slli	a3,a3,32
	or	a4,a3,a4
	lbu	a3,19(a5)
	slli	a3,a3,40
	or	a4,a3,a4
	lbu	a3,20(a5)
	slli	a3,a3,48
	or	a4,a3,a4
	lbu	a5,21(a5)
	slli	a5,a5,56
	or	a5,a5,a4
	mv	a4,a5
	.loc 1 184 36
	ld	a5,-32(s0)
	andi	a3,a4,255
	lbu	a2,14(a5)
	andi	a2,a2,0
	or	a3,a2,a3
	sb	a3,14(a5)
	srli	a3,a4,8
	andi	a3,a3,255
	lbu	a2,15(a5)
	andi	a2,a2,0
	or	a3,a2,a3
	sb	a3,15(a5)
	srli	a3,a4,16
	andi	a3,a3,255
	lbu	a2,16(a5)
	andi	a2,a2,0
	or	a3,a2,a3
	sb	a3,16(a5)
	srli	a3,a4,24
	andi	a3,a3,255
	lbu	a2,17(a5)
	andi	a2,a2,0
	or	a3,a2,a3
	sb	a3,17(a5)
	srli	a3,a4,32
	andi	a3,a3,255
	lbu	a2,18(a5)
	andi	a2,a2,0
	or	a3,a2,a3
	sb	a3,18(a5)
	srli	a3,a4,40
	andi	a3,a3,255
	lbu	a2,19(a5)
	andi	a2,a2,0
	or	a3,a2,a3
	sb	a3,19(a5)
	srli	a3,a4,48
	andi	a3,a3,255
	lbu	a2,20(a5)
	andi	a2,a2,0
	or	a3,a2,a3
	sb	a3,20(a5)
	srli	a4,a4,56
	lbu	a3,21(a5)
	andi	a3,a3,0
	or	a4,a3,a4
	sb	a4,21(a5)
	.loc 1 185 36
	ld	a5,-24(s0)
	ld	a4,-88(s0)
	andi	a4,a4,255
	lbu	a3,14(a5)
	andi	a3,a3,0
	or	a4,a3,a4
	sb	a4,14(a5)
	ld	a4,-88(s0)
	srli	a4,a4,8
	andi	a4,a4,255
	lbu	a3,15(a5)
	andi	a3,a3,0
	or	a4,a3,a4
	sb	a4,15(a5)
	ld	a4,-88(s0)
	srli	a4,a4,16
	andi	a4,a4,255
	lbu	a3,16(a5)
	andi	a3,a3,0
	or	a4,a3,a4
	sb	a4,16(a5)
	ld	a4,-88(s0)
	srli	a4,a4,24
	andi	a4,a4,255
	lbu	a3,17(a5)
	andi	a3,a3,0
	or	a4,a3,a4
	sb	a4,17(a5)
	ld	a4,-88(s0)
	srli	a4,a4,32
	andi	a4,a4,255
	lbu	a3,18(a5)
	andi	a3,a3,0
	or	a4,a3,a4
	sb	a4,18(a5)
	ld	a4,-88(s0)
	srli	a4,a4,40
	andi	a4,a4,255
	lbu	a3,19(a5)
	andi	a3,a3,0
	or	a4,a3,a4
	sb	a4,19(a5)
	ld	a4,-88(s0)
	srli	a4,a4,48
	andi	a4,a4,255
	lbu	a3,20(a5)
	andi	a3,a3,0
	or	a4,a3,a4
	sb	a4,20(a5)
	ld	a4,-88(s0)
	srli	a4,a4,56
	lbu	a3,21(a5)
	andi	a3,a3,0
	or	a4,a3,a4
	sb	a4,21(a5)
	.loc 1 187 15
	ld	a5,-32(s0)
	lbu	a4,38(a5)
	lbu	a3,39(a5)
	slli	a3,a3,8
	or	a4,a3,a4
	lbu	a3,40(a5)
	slli	a3,a3,16
	or	a4,a3,a4
	lbu	a3,41(a5)
	slli	a3,a3,24
	or	a4,a3,a4
	lbu	a3,42(a5)
	slli	a3,a3,32
	or	a4,a3,a4
	lbu	a3,43(a5)
	slli	a3,a3,40
	or	a4,a3,a4
	lbu	a3,44(a5)
	slli	a3,a3,48
	or	a4,a3,a4
	lbu	a5,45(a5)
	slli	a5,a5,56
	or	a5,a5,a4
	sd	a5,-72(s0)
	.loc 1 188 47
	ld	a5,-24(s0)
	lbu	a4,38(a5)
	lbu	a3,39(a5)
	slli	a3,a3,8
	or	a4,a3,a4
	lbu	a3,40(a5)
	slli	a3,a3,16
	or	a4,a3,a4
	lbu	a3,41(a5)
	slli	a3,a3,24
	or	a4,a3,a4
	lbu	a3,42(a5)
	slli	a3,a3,32
	or	a4,a3,a4
	lbu	a3,43(a5)
	slli	a3,a3,40
	or	a4,a3,a4
	lbu	a3,44(a5)
	slli	a3,a3,48
	or	a4,a3,a4
	lbu	a5,45(a5)
	slli	a5,a5,56
	or	a5,a5,a4
	mv	a4,a5
	.loc 1 188 31
	ld	a5,-32(s0)
	andi	a3,a4,255
	lbu	a2,38(a5)
	andi	a2,a2,0
	or	a3,a2,a3
	sb	a3,38(a5)
	srli	a3,a4,8
	andi	a3,a3,255
	lbu	a2,39(a5)
	andi	a2,a2,0
	or	a3,a2,a3
	sb	a3,39(a5)
	srli	a3,a4,16
	andi	a3,a3,255
	lbu	a2,40(a5)
	andi	a2,a2,0
	or	a3,a2,a3
	sb	a3,40(a5)
	srli	a3,a4,24
	andi	a3,a3,255
	lbu	a2,41(a5)
	andi	a2,a2,0
	or	a3,a2,a3
	sb	a3,41(a5)
	srli	a3,a4,32
	andi	a3,a3,255
	lbu	a2,42(a5)
	andi	a2,a2,0
	or	a3,a2,a3
	sb	a3,42(a5)
	srli	a3,a4,40
	andi	a3,a3,255
	lbu	a2,43(a5)
	andi	a2,a2,0
	or	a3,a2,a3
	sb	a3,43(a5)
	srli	a3,a4,48
	andi	a3,a3,255
	lbu	a2,44(a5)
	andi	a2,a2,0
	or	a3,a2,a3
	sb	a3,44(a5)
	srli	a4,a4,56
	lbu	a3,45(a5)
	andi	a3,a3,0
	or	a4,a3,a4
	sb	a4,45(a5)
	.loc 1 189 31
	ld	a5,-24(s0)
	ld	a4,-72(s0)
	andi	a4,a4,255
	lbu	a3,38(a5)
	andi	a3,a3,0
	or	a4,a3,a4
	sb	a4,38(a5)
	ld	a4,-72(s0)
	srli	a4,a4,8
	andi	a4,a4,255
	lbu	a3,39(a5)
	andi	a3,a3,0
	or	a4,a3,a4
	sb	a4,39(a5)
	ld	a4,-72(s0)
	srli	a4,a4,16
	andi	a4,a4,255
	lbu	a3,40(a5)
	andi	a3,a3,0
	or	a4,a3,a4
	sb	a4,40(a5)
	ld	a4,-72(s0)
	srli	a4,a4,24
	andi	a4,a4,255
	lbu	a3,41(a5)
	andi	a3,a3,0
	or	a4,a3,a4
	sb	a4,41(a5)
	ld	a4,-72(s0)
	srli	a4,a4,32
	andi	a4,a4,255
	lbu	a3,42(a5)
	andi	a3,a3,0
	or	a4,a3,a4
	sb	a4,42(a5)
	ld	a4,-72(s0)
	srli	a4,a4,40
	andi	a4,a4,255
	lbu	a3,43(a5)
	andi	a3,a3,0
	or	a4,a3,a4
	sb	a4,43(a5)
	ld	a4,-72(s0)
	srli	a4,a4,48
	andi	a4,a4,255
	lbu	a3,44(a5)
	andi	a3,a3,0
	or	a4,a3,a4
	sb	a4,44(a5)
	ld	a4,-72(s0)
	srli	a4,a4,56
	lbu	a3,45(a5)
	andi	a3,a3,0
	or	a4,a3,a4
	sb	a4,45(a5)
.L22:
	.loc 1 170 84 discriminator 2
	ld	a5,-32(s0)
	addi	a5,a5,46
	sd	a5,-32(s0)
.L18:
	.loc 1 170 54 discriminator 1
	ld	a5,-32(s0)
	lbu	a5,0(a5)
	.loc 1 170 61 discriminator 1
	mv	a4,a5
	li	a5,121
	bne	a4,a5,.L23
	.loc 1 196 41
	ld	a5,-96(s0)
	lbu	a4,14(a5)
	lbu	a3,15(a5)
	slli	a3,a3,8
	or	a4,a3,a4
	lbu	a3,16(a5)
	slli	a3,a3,16
	or	a4,a3,a4
	lbu	a3,17(a5)
	slli	a3,a3,24
	or	a4,a3,a4
	lbu	a3,18(a5)
	slli	a3,a3,32
	or	a4,a3,a4
	lbu	a3,19(a5)
	slli	a3,a3,40
	or	a4,a3,a4
	lbu	a3,20(a5)
	slli	a3,a3,48
	or	a4,a3,a4
	lbu	a5,21(a5)
	slli	a5,a5,56
	or	a5,a5,a4
	.loc 1 196 18
	sb	a5,-41(s0)
	.loc 1 201 16
	lbu	a5,-41(s0)
	sb	a5,-97(s0)
	.loc 1 206 3
	lbu	a5,-41(s0)
	mv	a1,a5
	ld	a0,-128(s0)
	call	ResetAllPpbBusNumber@plt
	.loc 1 214 12
	addi	a3,s0,-98
	addi	a4,s0,-97
	lbu	a5,-41(s0)
	mv	a2,a4
	mv	a1,a5
	ld	a0,-128(s0)
	call	PciScanBus@plt
	sd	a0,-64(s0)
	.loc 1 221 34
	ld	a5,-64(s0)
	.loc 1 221 6
	bge	a5,zero,.L24
	.loc 1 222 12
	ld	a5,-64(s0)
	j	.L28
.L24:
	.loc 1 229 12
	lbu	a5,-97(s0)
	lbu	a4,-98(s0)
	addi	a3,s0,-97
	mv	a2,a4
	mv	a1,a5
	ld	a0,-128(s0)
	call	PciAllocateBusNumber@plt
	sd	a0,-64(s0)
	.loc 1 230 34
	ld	a5,-64(s0)
	.loc 1 230 6
	bge	a5,zero,.L26
	.loc 1 231 12
	ld	a5,-64(s0)
	j	.L28
.L27:
	.loc 1 239 18
	ld	a5,-96(s0)
	addi	a5,a5,46
	sd	a5,-96(s0)
.L26:
	.loc 1 238 23
	ld	a5,-96(s0)
	lbu	a4,14(a5)
	lbu	a3,15(a5)
	slli	a3,a3,8
	or	a4,a3,a4
	lbu	a3,16(a5)
	slli	a3,a3,16
	or	a4,a3,a4
	lbu	a3,17(a5)
	slli	a3,a3,24
	or	a4,a3,a4
	lbu	a3,18(a5)
	slli	a3,a3,32
	or	a4,a3,a4
	lbu	a3,19(a5)
	slli	a3,a3,40
	or	a4,a3,a4
	lbu	a3,20(a5)
	slli	a3,a3,48
	or	a4,a3,a4
	lbu	a5,21(a5)
	slli	a5,a5,56
	or	a5,a5,a4
	mv	a2,a5
	.loc 1 238 53
	ld	a5,-96(s0)
	lbu	a4,38(a5)
	lbu	a3,39(a5)
	slli	a3,a3,8
	or	a4,a3,a4
	lbu	a3,40(a5)
	slli	a3,a3,16
	or	a4,a3,a4
	lbu	a3,41(a5)
	slli	a3,a3,24
	or	a4,a3,a4
	lbu	a3,42(a5)
	slli	a3,a3,32
	or	a4,a3,a4
	lbu	a3,43(a5)
	slli	a3,a3,40
	or	a4,a3,a4
	lbu	a3,44(a5)
	slli	a3,a3,48
	or	a4,a3,a4
	lbu	a5,45(a5)
	slli	a5,a5,56
	or	a5,a5,a4
	.loc 1 238 38
	add	a5,a2,a5
	.loc 1 238 63
	addi	a5,a5,-1
	.loc 1 238 67
	lbu	a4,-97(s0)
	bltu	a5,a4,.L27
	.loc 1 242 26
	ld	a5,-96(s0)
	.loc 1 242 11
	lbu	a4,38(a5)
	lbu	a3,39(a5)
	slli	a3,a3,8
	or	a4,a3,a4
	lbu	a3,40(a5)
	slli	a3,a3,16
	or	a4,a3,a4
	lbu	a3,41(a5)
	slli	a3,a3,24
	or	a4,a3,a4
	lbu	a3,42(a5)
	slli	a3,a3,32
	or	a4,a3,a4
	lbu	a3,43(a5)
	slli	a3,a3,40
	or	a4,a3,a4
	lbu	a3,44(a5)
	slli	a3,a3,48
	or	a4,a3,a4
	lbu	a5,45(a5)
	slli	a5,a5,56
	or	a5,a5,a4
	sd	a5,-72(s0)
	.loc 1 243 41
	lbu	a5,-97(s0)
	mv	a2,a5
	.loc 1 243 56
	ld	a5,-96(s0)
	lbu	a4,14(a5)
	lbu	a3,15(a5)
	slli	a3,a3,8
	or	a4,a3,a4
	lbu	a3,16(a5)
	slli	a3,a3,16
	or	a4,a3,a4
	lbu	a3,17(a5)
	slli	a3,a3,24
	or	a4,a3,a4
	lbu	a3,18(a5)
	slli	a3,a3,32
	or	a4,a3,a4
	lbu	a3,19(a5)
	slli	a3,a3,40
	or	a4,a3,a4
	lbu	a3,20(a5)
	slli	a3,a3,48
	or	a4,a3,a4
	lbu	a5,21(a5)
	slli	a5,a5,56
	or	a5,a5,a4
	.loc 1 243 41
	sub	a4,a2,a5
	.loc 1 243 16
	ld	a5,-96(s0)
	.loc 1 243 71
	addi	a4,a4,1
	.loc 1 243 26
	andi	a3,a4,255
	lbu	a2,38(a5)
	andi	a2,a2,0
	or	a3,a2,a3
	sb	a3,38(a5)
	srli	a3,a4,8
	andi	a3,a3,255
	lbu	a2,39(a5)
	andi	a2,a2,0
	or	a3,a2,a3
	sb	a3,39(a5)
	srli	a3,a4,16
	andi	a3,a3,255
	lbu	a2,40(a5)
	andi	a2,a2,0
	or	a3,a2,a3
	sb	a3,40(a5)
	srli	a3,a4,24
	andi	a3,a3,255
	lbu	a2,41(a5)
	andi	a2,a2,0
	or	a3,a2,a3
	sb	a3,41(a5)
	srli	a3,a4,32
	andi	a3,a3,255
	lbu	a2,42(a5)
	andi	a2,a2,0
	or	a3,a2,a3
	sb	a3,42(a5)
	srli	a3,a4,40
	andi	a3,a3,255
	lbu	a2,43(a5)
	andi	a2,a2,0
	or	a3,a2,a3
	sb	a3,43(a5)
	srli	a3,a4,48
	andi	a3,a3,255
	lbu	a2,44(a5)
	andi	a2,a2,0
	or	a3,a2,a3
	sb	a3,44(a5)
	srli	a4,a4,56
	lbu	a3,45(a5)
	andi	a3,a3,0
	or	a4,a3,a4
	sb	a4,45(a5)
	.loc 1 248 16
	ld	a5,-96(s0)
	addi	a5,a5,46
	sd	a5,-96(s0)
	.loc 1 249 23
	ld	a5,-96(s0)
	.loc 1 249 8
	lbu	a5,0(a5)
	sb	a5,-73(s0)
	.loc 1 250 16
	ld	a5,-96(s0)
	.loc 1 250 23
	li	a4,121
	sb	a4,0(a5)
	.loc 1 255 23
	ld	a5,-120(s0)
	ld	a5,32(a5)
	.loc 1 258 40
	ld	a4,-128(s0)
	ld	a4,600(a4)
	.loc 1 255 12
	mv	a2,a4
	ld	a1,-56(s0)
	ld	a0,-120(s0)
	jalr	a5
.LVL2:
	sd	a0,-64(s0)
	.loc 1 264 16
	ld	a5,-96(s0)
	.loc 1 264 23
	lbu	a4,-73(s0)
	sb	a4,0(a5)
	.loc 1 265 18
	ld	a5,-96(s0)
	addi	a5,a5,-46
	.loc 1 265 32
	ld	a4,-72(s0)
	andi	a4,a4,255
	lbu	a3,38(a5)
	andi	a3,a3,0
	or	a4,a3,a4
	sb	a4,38(a5)
	ld	a4,-72(s0)
	srli	a4,a4,8
	andi	a4,a4,255
	lbu	a3,39(a5)
	andi	a3,a3,0
	or	a4,a3,a4
	sb	a4,39(a5)
	ld	a4,-72(s0)
	srli	a4,a4,16
	andi	a4,a4,255
	lbu	a3,40(a5)
	andi	a3,a3,0
	or	a4,a3,a4
	sb	a4,40(a5)
	ld	a4,-72(s0)
	srli	a4,a4,24
	andi	a4,a4,255
	lbu	a3,41(a5)
	andi	a3,a3,0
	or	a4,a3,a4
	sb	a4,41(a5)
	ld	a4,-72(s0)
	srli	a4,a4,32
	andi	a4,a4,255
	lbu	a3,42(a5)
	andi	a3,a3,0
	or	a4,a3,a4
	sb	a4,42(a5)
	ld	a4,-72(s0)
	srli	a4,a4,40
	andi	a4,a4,255
	lbu	a3,43(a5)
	andi	a3,a3,0
	or	a4,a3,a4
	sb	a4,43(a5)
	ld	a4,-72(s0)
	srli	a4,a4,48
	andi	a4,a4,255
	lbu	a3,44(a5)
	andi	a3,a3,0
	or	a4,a3,a4
	sb	a4,44(a5)
	ld	a4,-72(s0)
	srli	a4,a4,56
	lbu	a3,45(a5)
	andi	a3,a3,0
	or	a4,a3,a4
	sb	a4,45(a5)
	.loc 1 267 10
	ld	a5,-64(s0)
.L28:
	.loc 1 268 1
	mv	a0,a5
	ld	ra,120(sp)
	.cfi_restore 1
	ld	s0,112(sp)
	.cfi_restore 8
	.cfi_def_cfa 2, 128
	addi	sp,sp,128
	.cfi_def_cfa_offset 0
	jr	ra
	.cfi_endproc
.LFE1:
	.size	PciRootBridgeEnumerator, .-PciRootBridgeEnumerator
	.section	.text.ProcessOptionRom,"ax",@progbits
	.align	1
	.globl	ProcessOptionRom
	.type	ProcessOptionRom, @function
ProcessOptionRom:
.LFB2:
	.loc 1 285 1
	.cfi_startproc
	addi	sp,sp,-64
	.cfi_def_cfa_offset 64
	sd	ra,56(sp)
	sd	s0,48(sp)
	.cfi_offset 1, -8
	.cfi_offset 8, -16
	addi	s0,sp,64
	.cfi_def_cfa 8, 0
	sd	a0,-40(s0)
	sd	a1,-48(s0)
	sd	a2,-56(s0)
	.loc 1 292 15
	ld	a5,-40(s0)
	ld	a5,496(a5)
	sd	a5,-24(s0)
	.loc 1 293 9
	j	.L30
.L36:
	.loc 1 294 14
	ld	a5,-24(s0)
	addi	a5,a5,-176
	.loc 1 294 119
	lw	a4,0(a5)
	.loc 1 294 204
	li	a5,1869176832
	addi	a5,a5,880
	bne	a4,a5,.L31
	.loc 1 294 10 discriminator 1
	ld	a5,-24(s0)
	addi	a5,a5,-176
	sd	a5,-32(s0)
	j	.L32
.L31:
	.loc 1 294 10 is_stmt 0 discriminator 2
	sd	zero,-32(s0)
.L32:
	.loc 1 295 23 is_stmt 1
	ld	a5,-32(s0)
	addi	a5,a5,496
	.loc 1 295 10
	mv	a0,a5
	call	IsListEmpty@plt
	mv	a5,a0
	.loc 1 295 8 discriminator 1
	bne	a5,zero,.L33
	.loc 1 299 7
	ld	a2,-56(s0)
	ld	a1,-48(s0)
	ld	a0,-32(s0)
	call	ProcessOptionRom
.L33:
	.loc 1 302 14
	ld	a5,-32(s0)
	lw	a5,544(a5)
	.loc 1 302 8
	beq	a5,zero,.L34
	.loc 1 302 38 discriminator 1
	ld	a5,-32(s0)
	lw	a5,544(a5)
	slli	a5,a5,32
	srli	a5,a5,32
	.loc 1 302 30 discriminator 1
	ld	a4,-56(s0)
	bltu	a4,a5,.L34
	.loc 1 306 7
	ld	a1,-48(s0)
	ld	a0,-32(s0)
	call	LoadOpRomImage@plt
.L34:
	.loc 1 309 17
	ld	a5,-24(s0)
	ld	a5,0(a5)
	sd	a5,-24(s0)
.L30:
	.loc 1 293 38
	ld	a5,-24(s0)
	beq	a5,zero,.L37
	.loc 1 293 56 discriminator 1
	ld	a5,-40(s0)
	addi	a5,a5,496
	.loc 1 293 38 discriminator 1
	ld	a4,-24(s0)
	bne	a4,a5,.L36
.L37:
	.loc 1 311 1
	nop
	ld	ra,56(sp)
	.cfi_restore 1
	ld	s0,48(sp)
	.cfi_restore 8
	.cfi_def_cfa 2, 64
	addi	sp,sp,64
	.cfi_def_cfa_offset 0
	jr	ra
	.cfi_endproc
.LFE2:
	.size	ProcessOptionRom, .-ProcessOptionRom
	.section	.text.PciAssignBusNumber,"ax",@progbits
	.align	1
	.globl	PciAssignBusNumber
	.type	PciAssignBusNumber, @function
PciAssignBusNumber:
.LFB3:
	.loc 1 330 1
	.cfi_startproc
	addi	sp,sp,-160
	.cfi_def_cfa_offset 160
	sd	ra,152(sp)
	sd	s0,144(sp)
	.cfi_offset 1, -8
	.cfi_offset 8, -16
	addi	s0,sp,160
	.cfi_def_cfa 8, 0
	sd	a0,-136(s0)
	mv	a5,a1
	sd	a2,-152(s0)
	sb	a5,-137(s0)
	.loc 1 341 19
	ld	a5,-136(s0)
	ld	a5,208(a5)
	sd	a5,-32(s0)
	.loc 1 343 13
	sd	zero,-40(s0)
	.loc 1 344 12
	sh	zero,-122(s0)
	.loc 1 346 17
	ld	a5,-152(s0)
	lbu	a4,-137(s0)
	sb	a4,0(a5)
	.loc 1 351 15
	sb	zero,-17(s0)
	.loc 1 351 3
	j	.L39
.L52:
	.loc 1 352 9
	ld	a0,-136(s0)
	call	PciScanOnlyDevice0@plt
	mv	a5,a0
	.loc 1 352 8 discriminator 1
	beq	a5,zero,.L40
	.loc 1 352 37 discriminator 2
	lbu	a5,-17(s0)
	andi	a5,a5,0xff
	bne	a5,zero,.L54
.L40:
	.loc 1 356 15
	sb	zero,-18(s0)
	.loc 1 356 5
	j	.L42
.L51:
	.loc 1 360 16
	lbu	a4,-18(s0)
	lbu	a3,-17(s0)
	lbu	a2,-137(s0)
	addi	a5,s0,-120
	mv	a1,a5
	ld	a0,-32(s0)
	call	PciDevicePresent@plt
	sd	a0,-48(s0)
	.loc 1 368 38
	ld	a5,-48(s0)
	.loc 1 368 10
	bge	a5,zero,.L43
	.loc 1 368 64 discriminator 1
	lbu	a5,-18(s0)
	andi	a5,a5,0xff
	beq	a5,zero,.L55
.L43:
	.loc 1 375 11
	ld	a5,-48(s0)
	.loc 1 375 10
	blt	a5,zero,.L45
	.loc 1 376 25
	lbu	a5,-106(s0)
	.loc 1 376 37
	sext.w	a5,a5
	andi	a5,a5,127
	sext.w	a4,a5
	.loc 1 375 65 discriminator 1
	li	a5,1
	beq	a4,a5,.L46
	.loc 1 376 72
	lbu	a5,-106(s0)
	.loc 1 376 84
	sext.w	a5,a5
	andi	a5,a5,127
	sext.w	a4,a5
	.loc 1 376 56
	li	a5,2
	bne	a4,a5,.L45
.L46:
	.loc 1 381 18
	ld	a5,-152(s0)
	lbu	a5,0(a5)
	ld	a3,-152(s0)
	li	a2,1
	mv	a1,a5
	ld	a0,-136(s0)
	call	PciAllocateBusNumber@plt
	sd	a0,-48(s0)
	.loc 1 382 40
	ld	a5,-48(s0)
	.loc 1 382 12
	bge	a5,zero,.L47
	.loc 1 383 18
	ld	a5,-48(s0)
	j	.L53
.L47:
	.loc 1 386 21
	ld	a5,-152(s0)
	lbu	a5,0(a5)
	.loc 1 386 19
	sd	a5,-40(s0)
	.loc 1 388 40
	ld	a5,-40(s0)
	slli	a5,a5,48
	srli	a5,a5,48
	slliw	a5,a5,8
	slli	a4,a5,48
	srli	a4,a4,48
	.loc 1 388 20
	lbu	a5,-137(s0)
	slli	a5,a5,48
	srli	a5,a5,48
	or	a5,a4,a5
	slli	a5,a5,48
	srli	a5,a5,48
	.loc 1 388 18
	sh	a5,-122(s0)
	.loc 1 390 32
	lbu	a5,-137(s0)
	.loc 1 390 56
	slli	a4,a5,24
	.loc 1 390 67
	lbu	a5,-17(s0)
	.loc 1 390 83
	slli	a5,a5,16
	.loc 1 390 63
	or	a4,a4,a5
	.loc 1 390 94
	lbu	a5,-18(s0)
	.loc 1 390 108
	slli	a5,a5,8
	.loc 1 390 90
	or	a5,a4,a5
	.loc 1 390 17
	ori	a5,a5,24
	sd	a5,-56(s0)
	.loc 1 392 38
	ld	a5,-32(s0)
	ld	a5,64(a5)
	.loc 1 392 18
	addi	a4,s0,-122
	li	a3,1
	ld	a2,-56(s0)
	li	a1,1
	ld	a0,-32(s0)
	jalr	a5
.LVL3:
	sd	a0,-48(s0)
	.loc 1 403 32
	lbu	a5,-137(s0)
	.loc 1 403 56
	slli	a4,a5,24
	.loc 1 403 67
	lbu	a5,-17(s0)
	.loc 1 403 83
	slli	a5,a5,16
	.loc 1 403 63
	or	a4,a4,a5
	.loc 1 403 94
	lbu	a5,-18(s0)
	.loc 1 403 108
	slli	a5,a5,8
	.loc 1 403 90
	or	a5,a4,a5
	.loc 1 403 17
	ori	a5,a5,26
	sd	a5,-56(s0)
	.loc 1 404 38
	ld	a5,-32(s0)
	ld	a5,64(a5)
	.loc 1 404 18
	ld	a4,-152(s0)
	li	a3,1
	ld	a2,-56(s0)
	li	a1,0
	ld	a0,-32(s0)
	jalr	a5
.LVL4:
	sd	a0,-48(s0)
	.loc 1 414 26
	lbu	a5,-106(s0)
	.loc 1 414 38
	sext.w	a5,a5
	andi	a5,a5,127
	sext.w	a4,a5
	.loc 1 414 12
	li	a5,1
	bne	a4,a5,.L49
	.loc 1 415 21
	li	a5,-1
	sb	a5,-123(s0)
	.loc 1 416 40
	ld	a5,-32(s0)
	ld	a5,64(a5)
	.loc 1 416 20
	addi	a4,s0,-123
	li	a3,1
	ld	a2,-56(s0)
	li	a1,0
	ld	a0,-32(s0)
	jalr	a5
.LVL5:
	sd	a0,-48(s0)
	.loc 1 424 20
	ld	a5,-40(s0)
	andi	a5,a5,0xff
	ld	a2,-152(s0)
	mv	a1,a5
	ld	a0,-136(s0)
	call	PciAssignBusNumber
	sd	a0,-48(s0)
	.loc 1 430 42
	ld	a5,-48(s0)
	.loc 1 430 14
	bge	a5,zero,.L49
	.loc 1 431 20
	li	a5,-1
	slli	a5,a5,63
	addi	a5,a5,7
	j	.L53
.L49:
	.loc 1 438 32
	lbu	a5,-137(s0)
	.loc 1 438 56
	slli	a4,a5,24
	.loc 1 438 67
	lbu	a5,-17(s0)
	.loc 1 438 83
	slli	a5,a5,16
	.loc 1 438 63
	or	a4,a4,a5
	.loc 1 438 94
	lbu	a5,-18(s0)
	.loc 1 438 108
	slli	a5,a5,8
	.loc 1 438 90
	or	a5,a4,a5
	.loc 1 438 17
	ori	a5,a5,26
	sd	a5,-56(s0)
	.loc 1 440 38
	ld	a5,-32(s0)
	ld	a5,64(a5)
	.loc 1 440 18
	ld	a4,-152(s0)
	li	a3,1
	ld	a2,-56(s0)
	li	a1,0
	ld	a0,-32(s0)
	jalr	a5
.LVL6:
	sd	a0,-48(s0)
.L45:
	.loc 1 449 10
	lbu	a5,-18(s0)
	andi	a5,a5,0xff
	bne	a5,zero,.L50
	.loc 1 449 39 discriminator 1
	lbu	a5,-106(s0)
	.loc 1 449 26 discriminator 1
	slliw	a5,a5,24
	sraiw	a5,a5,24
	.loc 1 449 23 discriminator 1
	blt	a5,zero,.L50
	.loc 1 453 14
	li	a5,7
	sb	a5,-18(s0)
.L50:
	.loc 1 356 35 discriminator 2
	lbu	a5,-18(s0)
	addiw	a5,a5,1
	sb	a5,-18(s0)
.L42:
	.loc 1 356 25 discriminator 1
	lbu	a5,-18(s0)
	andi	a4,a5,0xff
	li	a5,7
	bleu	a4,a5,.L51
	j	.L44
.L55:
	.loc 1 372 9
	nop
.L44:
	.loc 1 351 40 discriminator 2
	lbu	a5,-17(s0)
	addiw	a5,a5,1
	sb	a5,-17(s0)
.L39:
	.loc 1 351 27 discriminator 1
	lbu	a5,-17(s0)
	andi	a4,a5,0xff
	li	a5,31
	bleu	a4,a5,.L52
	j	.L41
.L54:
	.loc 1 353 7
	nop
.L41:
	.loc 1 458 10
	li	a5,0
.L53:
	.loc 1 459 1
	mv	a0,a5
	ld	ra,152(sp)
	.cfi_restore 1
	ld	s0,144(sp)
	.cfi_restore 8
	.cfi_def_cfa 2, 160
	addi	sp,sp,160
	.cfi_def_cfa_offset 0
	jr	ra
	.cfi_endproc
.LFE3:
	.size	PciAssignBusNumber, .-PciAssignBusNumber
	.section	.text.DetermineRootBridgeAttributes,"ax",@progbits
	.align	1
	.globl	DetermineRootBridgeAttributes
	.type	DetermineRootBridgeAttributes, @function
DetermineRootBridgeAttributes:
.LFB4:
	.loc 1 477 1
	.cfi_startproc
	addi	sp,sp,-64
	.cfi_def_cfa_offset 64
	sd	ra,56(sp)
	sd	s0,48(sp)
	.cfi_offset 1, -8
	.cfi_offset 8, -16
	addi	s0,sp,64
	.cfi_def_cfa 8, 0
	sd	a0,-56(s0)
	sd	a1,-64(s0)
	.loc 1 482 14
	sd	zero,-40(s0)
	.loc 1 483 20
	ld	a5,-64(s0)
	ld	a5,8(a5)
	sd	a5,-24(s0)
	.loc 1 488 23
	ld	a5,-56(s0)
	ld	a5,16(a5)
	.loc 1 488 12
	addi	a4,s0,-40
	mv	a2,a4
	ld	a1,-24(s0)
	ld	a0,-56(s0)
	jalr	a5
.LVL7:
	sd	a0,-32(s0)
	.loc 1 494 34
	ld	a5,-32(s0)
	.loc 1 494 6
	bge	a5,zero,.L57
	.loc 1 495 12
	ld	a5,-32(s0)
	j	.L61
.L57:
	.loc 1 502 19
	ld	a5,-40(s0)
	andi	a5,a5,1
	.loc 1 502 6
	beq	a5,zero,.L59
	.loc 1 503 18
	ld	a5,-64(s0)
	lw	a5,536(a5)
	.loc 1 503 28
	ori	a5,a5,16
	sext.w	a4,a5
	ld	a5,-64(s0)
	sw	a4,536(a5)
.L59:
	.loc 1 506 19
	ld	a5,-40(s0)
	andi	a5,a5,2
	.loc 1 506 6
	beq	a5,zero,.L60
	.loc 1 507 18
	ld	a5,-64(s0)
	lw	a5,536(a5)
	.loc 1 507 28
	ori	a5,a5,32
	sext.w	a4,a5
	ld	a5,-64(s0)
	sw	a4,536(a5)
	.loc 1 508 18
	ld	a5,-64(s0)
	lw	a5,536(a5)
	.loc 1 508 28
	ori	a5,a5,4
	sext.w	a4,a5
	ld	a5,-64(s0)
	sw	a4,536(a5)
.L60:
	.loc 1 511 16
	ld	a5,-64(s0)
	lw	a5,536(a5)
	.loc 1 511 26
	ori	a5,a5,64
	sext.w	a4,a5
	ld	a5,-64(s0)
	sw	a4,536(a5)
	.loc 1 512 16
	ld	a5,-64(s0)
	lw	a5,536(a5)
	.loc 1 512 26
	ori	a5,a5,2
	sext.w	a4,a5
	ld	a5,-64(s0)
	sw	a4,536(a5)
	.loc 1 513 16
	ld	a5,-64(s0)
	lw	a5,536(a5)
	.loc 1 513 26
	ori	a5,a5,8
	sext.w	a4,a5
	ld	a5,-64(s0)
	sw	a4,536(a5)
	.loc 1 515 10
	li	a5,0
.L61:
	.loc 1 516 1
	mv	a0,a5
	ld	ra,56(sp)
	.cfi_restore 1
	ld	s0,48(sp)
	.cfi_restore 8
	.cfi_def_cfa 2, 64
	addi	sp,sp,64
	.cfi_def_cfa_offset 0
	jr	ra
	.cfi_endproc
.LFE4:
	.size	DetermineRootBridgeAttributes, .-DetermineRootBridgeAttributes
	.section	.text.GetMaxOptionRomSize,"ax",@progbits
	.align	1
	.globl	GetMaxOptionRomSize
	.type	GetMaxOptionRomSize, @function
GetMaxOptionRomSize:
.LFB5:
	.loc 1 530 1
	.cfi_startproc
	addi	sp,sp,-64
	.cfi_def_cfa_offset 64
	sd	ra,56(sp)
	sd	s0,48(sp)
	.cfi_offset 1, -8
	.cfi_offset 8, -16
	addi	s0,sp,64
	.cfi_def_cfa 8, 0
	sd	a0,-56(s0)
	.loc 1 536 20
	sw	zero,-36(s0)
	.loc 1 541 15
	ld	a5,-56(s0)
	ld	a5,496(a5)
	sd	a5,-24(s0)
	.loc 1 542 9
	j	.L63
.L70:
	.loc 1 543 14
	ld	a5,-24(s0)
	addi	a5,a5,-176
	.loc 1 543 119
	lw	a4,0(a5)
	.loc 1 543 204
	li	a5,1869176832
	addi	a5,a5,880
	bne	a4,a5,.L64
	.loc 1 543 10 discriminator 1
	ld	a5,-24(s0)
	addi	a5,a5,-176
	sd	a5,-32(s0)
	j	.L65
.L64:
	.loc 1 543 10 is_stmt 0 discriminator 2
	sd	zero,-32(s0)
.L65:
	.loc 1 544 23 is_stmt 1
	ld	a5,-32(s0)
	addi	a5,a5,496
	.loc 1 544 10
	mv	a0,a5
	call	IsListEmpty@plt
	mv	a5,a0
	.loc 1 544 8 discriminator 1
	bne	a5,zero,.L66
	.loc 1 548 27
	ld	a0,-32(s0)
	call	GetMaxOptionRomSize
	mv	a5,a0
	sw	a5,-40(s0)
	.loc 1 554 15
	ld	a5,-32(s0)
	lw	a5,544(a5)
	.loc 1 554 10
	lw	a4,-40(s0)
	sext.w	a4,a4
	bgeu	a4,a5,.L67
	.loc 1 555 27
	ld	a5,-32(s0)
	lw	a5,544(a5)
	sw	a5,-40(s0)
	j	.L67
.L66:
	.loc 1 561 25
	ld	a5,-32(s0)
	lw	a5,544(a5)
	sw	a5,-40(s0)
.L67:
	.loc 1 567 8
	lw	a5,-40(s0)
	mv	a4,a5
	lw	a5,-36(s0)
	sext.w	a4,a4
	sext.w	a5,a5
	bleu	a4,a5,.L68
	.loc 1 568 24
	lw	a5,-40(s0)
	sw	a5,-36(s0)
.L68:
	.loc 1 571 17
	ld	a5,-24(s0)
	ld	a5,0(a5)
	sd	a5,-24(s0)
.L63:
	.loc 1 542 38
	ld	a5,-24(s0)
	beq	a5,zero,.L69
	.loc 1 542 56 discriminator 1
	ld	a5,-56(s0)
	addi	a5,a5,496
	.loc 1 542 38 discriminator 1
	ld	a4,-24(s0)
	bne	a4,a5,.L70
.L69:
	.loc 1 574 10
	lw	a5,-36(s0)
	.loc 1 575 1
	mv	a0,a5
	ld	ra,56(sp)
	.cfi_restore 1
	ld	s0,48(sp)
	.cfi_restore 8
	.cfi_def_cfa 2, 64
	addi	sp,sp,64
	.cfi_def_cfa_offset 0
	jr	ra
	.cfi_endproc
.LFE5:
	.size	GetMaxOptionRomSize, .-GetMaxOptionRomSize
	.section	.text.PciHostBridgeDeviceAttribute,"ax",@progbits
	.align	1
	.globl	PciHostBridgeDeviceAttribute
	.type	PciHostBridgeDeviceAttribute, @function
PciHostBridgeDeviceAttribute:
.LFB6:
	.loc 1 591 1
	.cfi_startproc
	addi	sp,sp,-64
	.cfi_def_cfa_offset 64
	sd	ra,56(sp)
	sd	s0,48(sp)
	.cfi_offset 1, -8
	.cfi_offset 8, -16
	addi	s0,sp,64
	.cfi_def_cfa 8, 0
	sd	a0,-56(s0)
	.loc 1 596 20
	sd	zero,-40(s0)
	.loc 1 598 9
	j	.L73
.L76:
	.loc 1 602 21
	ld	a5,-40(s0)
	mv	a0,a5
	call	GetRootBridgeByHandle@plt
	sd	a0,-24(s0)
	.loc 1 604 8
	ld	a5,-24(s0)
	bne	a5,zero,.L74
	.loc 1 605 14
	li	a5,-1
	slli	a5,a5,63
	addi	a5,a5,14
	j	.L77
.L74:
	.loc 1 611 14
	ld	a0,-24(s0)
	call	DetermineDeviceAttribute@plt
	sd	a0,-32(s0)
	.loc 1 612 36
	ld	a5,-32(s0)
	.loc 1 612 8
	bge	a5,zero,.L73
	.loc 1 613 14
	ld	a5,-32(s0)
	j	.L77
.L73:
	.loc 1 598 21
	ld	a5,-56(s0)
	ld	a5,8(a5)
	.loc 1 598 10
	addi	a4,s0,-40
	mv	a1,a4
	ld	a0,-56(s0)
	jalr	a5
.LVL8:
	mv	a5,a0
	.loc 1 598 74 discriminator 1
	beq	a5,zero,.L76
	.loc 1 617 10
	li	a5,0
.L77:
	.loc 1 618 1
	mv	a0,a5
	ld	ra,56(sp)
	.cfi_restore 1
	ld	s0,48(sp)
	.cfi_restore 8
	.cfi_def_cfa 2, 64
	addi	sp,sp,64
	.cfi_def_cfa_offset 0
	jr	ra
	.cfi_endproc
.LFE6:
	.size	PciHostBridgeDeviceAttribute, .-PciHostBridgeDeviceAttribute
	.section	.text.GetResourceAllocationStatus,"ax",@progbits
	.align	1
	.globl	GetResourceAllocationStatus
	.type	GetResourceAllocationStatus, @function
GetResourceAllocationStatus:
.LFB7:
	.loc 1 640 1
	.cfi_startproc
	addi	sp,sp,-96
	.cfi_def_cfa_offset 96
	sd	ra,88(sp)
	sd	s0,80(sp)
	.cfi_offset 1, -8
	.cfi_offset 8, -16
	addi	s0,sp,96
	.cfi_def_cfa 8, 0
	sd	a0,-56(s0)
	sd	a1,-64(s0)
	sd	a2,-72(s0)
	sd	a3,-80(s0)
	sd	a4,-88(s0)
	sd	a5,-96(s0)
	.loc 1 645 8
	ld	a5,-56(s0)
	sd	a5,-24(s0)
	.loc 1 647 9
	j	.L79
.L88:
	.loc 1 648 21
	ld	a5,-24(s0)
	sd	a5,-32(s0)
	.loc 1 649 15
	ld	a5,-32(s0)
	lbu	a4,30(a5)
	lbu	a3,31(a5)
	slli	a3,a3,8
	or	a4,a3,a4
	lbu	a3,32(a5)
	slli	a3,a3,16
	or	a4,a3,a4
	lbu	a3,33(a5)
	slli	a3,a3,24
	or	a4,a3,a4
	lbu	a3,34(a5)
	slli	a3,a3,32
	or	a4,a3,a4
	lbu	a3,35(a5)
	slli	a3,a3,40
	or	a4,a3,a4
	lbu	a3,36(a5)
	slli	a3,a3,48
	or	a4,a3,a4
	lbu	a5,37(a5)
	slli	a5,a5,56
	or	a5,a5,a4
	sd	a5,-40(s0)
	.loc 1 651 28
	ld	a5,-32(s0)
	lbu	a5,3(a5)
	sext.w	a5,a5
	.loc 1 651 5
	beq	a5,zero,.L80
	li	a4,1
	beq	a5,a4,.L81
	.loc 1 691 9
	j	.L87
.L80:
	.loc 1 653 28
	ld	a5,-32(s0)
	lbu	a4,6(a5)
	lbu	a3,7(a5)
	slli	a3,a3,8
	or	a4,a3,a4
	lbu	a3,8(a5)
	slli	a3,a3,16
	or	a4,a3,a4
	lbu	a3,9(a5)
	slli	a3,a3,24
	or	a4,a3,a4
	lbu	a3,10(a5)
	slli	a3,a3,32
	or	a4,a3,a4
	lbu	a3,11(a5)
	slli	a3,a3,40
	or	a4,a3,a4
	lbu	a3,12(a5)
	slli	a3,a3,48
	or	a4,a3,a4
	lbu	a5,13(a5)
	slli	a5,a5,56
	or	a5,a5,a4
	mv	a4,a5
	.loc 1 653 12
	li	a5,32
	bne	a4,a5,.L83
	.loc 1 654 30
	ld	a5,-32(s0)
	lbu	a5,5(a5)
	.loc 1 654 14
	mv	a4,a5
	li	a5,6
	bne	a4,a5,.L84
	.loc 1 658 30
	ld	a5,-80(s0)
	ld	a4,-40(s0)
	sd	a4,0(a5)
	j	.L83
.L84:
	.loc 1 663 29
	ld	a5,-72(s0)
	ld	a4,-40(s0)
	sd	a4,0(a5)
.L83:
	.loc 1 667 28
	ld	a5,-32(s0)
	lbu	a4,6(a5)
	lbu	a3,7(a5)
	slli	a3,a3,8
	or	a4,a3,a4
	lbu	a3,8(a5)
	slli	a3,a3,16
	or	a4,a3,a4
	lbu	a3,9(a5)
	slli	a3,a3,24
	or	a4,a3,a4
	lbu	a3,10(a5)
	slli	a3,a3,32
	or	a4,a3,a4
	lbu	a3,11(a5)
	slli	a3,a3,40
	or	a4,a3,a4
	lbu	a3,12(a5)
	slli	a3,a3,48
	or	a4,a3,a4
	lbu	a5,13(a5)
	slli	a5,a5,56
	or	a5,a5,a4
	mv	a4,a5
	.loc 1 667 12
	li	a5,64
	bne	a4,a5,.L89
	.loc 1 668 30
	ld	a5,-32(s0)
	lbu	a5,5(a5)
	.loc 1 668 14
	mv	a4,a5
	li	a5,6
	bne	a4,a5,.L86
	.loc 1 672 30
	ld	a5,-96(s0)
	ld	a4,-40(s0)
	sd	a4,0(a5)
	.loc 1 681 9
	j	.L89
.L86:
	.loc 1 677 29
	ld	a5,-88(s0)
	ld	a4,-40(s0)
	sd	a4,0(a5)
	.loc 1 681 9
	j	.L89
.L81:
	.loc 1 687 22
	ld	a5,-64(s0)
	ld	a4,-40(s0)
	sd	a4,0(a5)
	.loc 1 688 9
	j	.L87
.L89:
	.loc 1 681 9
	nop
.L87:
	.loc 1 694 10
	ld	a5,-24(s0)
	addi	a5,a5,46
	sd	a5,-24(s0)
.L79:
	.loc 1 647 10
	ld	a5,-24(s0)
	lbu	a5,0(a5)
	.loc 1 647 16
	mv	a4,a5
	li	a5,138
	beq	a4,a5,.L88
	.loc 1 696 1
	nop
	nop
	ld	ra,88(sp)
	.cfi_restore 1
	ld	s0,80(sp)
	.cfi_restore 8
	.cfi_def_cfa 2, 96
	addi	sp,sp,96
	.cfi_def_cfa_offset 0
	jr	ra
	.cfi_endproc
.LFE7:
	.size	GetResourceAllocationStatus, .-GetResourceAllocationStatus
	.section	.text.RejectPciDevice,"ax",@progbits
	.align	1
	.globl	RejectPciDevice
	.type	RejectPciDevice, @function
RejectPciDevice:
.LFB8:
	.loc 1 711 1
	.cfi_startproc
	addi	sp,sp,-64
	.cfi_def_cfa_offset 64
	sd	ra,56(sp)
	sd	s0,48(sp)
	.cfi_offset 1, -8
	.cfi_offset 8, -16
	addi	s0,sp,64
	.cfi_def_cfa 8, 0
	sd	a0,-56(s0)
	.loc 1 719 32
	ld	a5,-56(s0)
	lbu	a5,238(a5)
	.loc 1 719 44
	sext.w	a5,a5
	andi	a5,a5,127
	sext.w	a4,a5
	.loc 1 719 6
	li	a5,1
	bne	a4,a5,.L91
	.loc 1 720 18
	ld	a5,-56(s0)
	ld	a5,584(a5)
	.loc 1 719 63 discriminator 1
	beq	a5,zero,.L91
	.loc 1 722 24
	ld	a5,-56(s0)
	ld	a5,584(a5)
	.loc 1 722 5
	mv	a0,a5
	call	FreePool@plt
	.loc 1 723 43
	ld	a5,-56(s0)
	sd	zero,584(a5)
	.loc 1 724 12
	li	a5,0
	j	.L92
.L91:
	.loc 1 730 31
	ld	a5,-56(s0)
	lbu	a5,238(a5)
	.loc 1 730 43
	sext.w	a5,a5
	andi	a5,a5,127
	sext.w	a4,a5
	.loc 1 730 6
	li	a5,1
	beq	a4,a5,.L93
	.loc 1 730 75 discriminator 1
	ld	a5,-56(s0)
	ld	a5,488(a5)
	.loc 1 730 62 discriminator 1
	bne	a5,zero,.L94
.L93:
	.loc 1 731 12
	li	a5,-1
	slli	a5,a5,63
	addi	a5,a5,21
	j	.L92
.L94:
	.loc 1 734 31
	ld	a5,-56(s0)
	lbu	a5,238(a5)
	.loc 1 734 43
	sext.w	a5,a5
	andi	a5,a5,127
	sext.w	a4,a5
	.loc 1 734 6
	li	a5,2
	bne	a4,a5,.L95
	.loc 1 738 12
	ld	a5,-56(s0)
	sd	a5,-24(s0)
	.loc 1 739 11
	j	.L96
.L97:
	.loc 1 740 14
	ld	a5,-24(s0)
	ld	a5,488(a5)
	sd	a5,-24(s0)
.L96:
	.loc 1 739 18
	ld	a5,-24(s0)
	ld	a5,488(a5)
	.loc 1 739 27
	bne	a5,zero,.L97
	.loc 1 743 5
	ld	a5,-24(s0)
	ld	a5,8(a5)
	ld	a1,-56(s0)
	mv	a0,a5
	call	RemoveAllPciDeviceOnBridge@plt
	.loc 1 748 5
	ld	a0,-56(s0)
	call	InitializeP2C@plt
.L95:
	.loc 1 754 10
	ld	a5,-56(s0)
	ld	a5,488(a5)
	sd	a5,-24(s0)
	.loc 1 755 15
	ld	a5,-24(s0)
	ld	a5,496(a5)
	sd	a5,-40(s0)
	.loc 1 756 9
	j	.L98
.L103:
	.loc 1 757 14
	ld	a5,-40(s0)
	addi	a5,a5,-176
	.loc 1 757 119
	lw	a4,0(a5)
	.loc 1 757 204
	li	a5,1869176832
	addi	a5,a5,880
	bne	a4,a5,.L99
	.loc 1 757 10 discriminator 1
	ld	a5,-40(s0)
	addi	a5,a5,-176
	sd	a5,-32(s0)
	j	.L100
.L99:
	.loc 1 757 10 is_stmt 0 discriminator 2
	sd	zero,-32(s0)
.L100:
	.loc 1 758 8 is_stmt 1
	ld	a4,-32(s0)
	ld	a5,-56(s0)
	bne	a4,a5,.L101
	.loc 1 759 7
	ld	a0,-32(s0)
	call	InitializePciDevice@plt
	.loc 1 760 7
	ld	a0,-40(s0)
	call	RemoveEntryList@plt
	.loc 1 761 14
	li	a5,0
	j	.L92
.L101:
	.loc 1 764 17
	ld	a5,-40(s0)
	ld	a5,0(a5)
	sd	a5,-40(s0)
.L98:
	.loc 1 756 38
	ld	a5,-40(s0)
	beq	a5,zero,.L102
	.loc 1 756 56 discriminator 1
	ld	a5,-24(s0)
	addi	a5,a5,496
	.loc 1 756 38 discriminator 1
	ld	a4,-40(s0)
	bne	a4,a5,.L103
.L102:
	.loc 1 767 10
	li	a5,-1
	slli	a5,a5,63
	addi	a5,a5,21
.L92:
	.loc 1 768 1
	mv	a0,a5
	ld	ra,56(sp)
	.cfi_restore 1
	ld	s0,48(sp)
	.cfi_restore 8
	.cfi_def_cfa 2, 64
	addi	sp,sp,64
	.cfi_def_cfa_offset 0
	jr	ra
	.cfi_endproc
.LFE8:
	.size	RejectPciDevice, .-RejectPciDevice
	.section	.text.IsRejectiveDevice,"ax",@progbits
	.align	1
	.globl	IsRejectiveDevice
	.type	IsRejectiveDevice, @function
IsRejectiveDevice:
.LFB9:
	.loc 1 783 1
	.cfi_startproc
	addi	sp,sp,-48
	.cfi_def_cfa_offset 48
	sd	ra,40(sp)
	sd	s0,32(sp)
	.cfi_offset 1, -8
	.cfi_offset 8, -16
	addi	s0,sp,48
	.cfi_def_cfa 8, 0
	sd	a0,-40(s0)
	.loc 1 786 8
	ld	a5,-40(s0)
	ld	a5,40(a5)
	sd	a5,-24(s0)
	.loc 1 791 6
	ld	a5,-24(s0)
	bne	a5,zero,.L105
	.loc 1 792 12
	li	a5,0
	j	.L106
.L105:
	.loc 1 798 26
	ld	a5,-24(s0)
	lbu	a5,238(a5)
	.loc 1 798 38
	sext.w	a5,a5
	andi	a5,a5,127
	sext.w	a4,a5
	.loc 1 798 6
	li	a5,1
	beq	a4,a5,.L107
	.loc 1 798 65 discriminator 1
	ld	a5,-24(s0)
	ld	a5,488(a5)
	.loc 1 798 57 discriminator 1
	bne	a5,zero,.L108
.L107:
	.loc 1 799 12
	li	a5,1
	j	.L106
.L108:
	.loc 1 805 12
	ld	a5,-24(s0)
	ld	a5,488(a5)
	.loc 1 805 6
	beq	a5,zero,.L109
	.loc 1 805 46 discriminator 1
	ld	a5,-24(s0)
	lbu	a5,288(a5)
	.loc 1 805 38 discriminator 1
	bne	a5,zero,.L109
	.loc 1 806 12
	li	a5,0
	j	.L106
.L109:
	.loc 1 812 37
	ld	a5,-24(s0)
	lbu	a5,235(a5)
	.loc 1 812 6
	mv	a4,a5
	li	a5,3
	bne	a4,a5,.L110
	.loc 1 812 83 discriminator 1
	ld	a5,-24(s0)
	lbu	a5,234(a5)
	.loc 1 812 52 discriminator 1
	bne	a5,zero,.L110
	.loc 1 812 130 discriminator 2
	ld	a5,-24(s0)
	lbu	a5,233(a5)
	.loc 1 812 99 discriminator 2
	bne	a5,zero,.L110
	.loc 1 813 12
	li	a5,0
	j	.L106
.L110:
	.loc 1 816 10
	li	a5,1
.L106:
	.loc 1 817 1
	mv	a0,a5
	ld	ra,40(sp)
	.cfi_restore 1
	ld	s0,32(sp)
	.cfi_restore 8
	.cfi_def_cfa 2, 48
	addi	sp,sp,48
	.cfi_def_cfa_offset 0
	jr	ra
	.cfi_endproc
.LFE9:
	.size	IsRejectiveDevice, .-IsRejectiveDevice
	.section	.text.GetLargerConsumerDevice,"ax",@progbits
	.align	1
	.globl	GetLargerConsumerDevice
	.type	GetLargerConsumerDevice, @function
GetLargerConsumerDevice:
.LFB10:
	.loc 1 833 1
	.cfi_startproc
	addi	sp,sp,-32
	.cfi_def_cfa_offset 32
	sd	ra,24(sp)
	sd	s0,16(sp)
	.cfi_offset 1, -8
	.cfi_offset 8, -16
	addi	s0,sp,32
	.cfi_def_cfa 8, 0
	sd	a0,-24(s0)
	sd	a1,-32(s0)
	.loc 1 834 6
	ld	a5,-32(s0)
	bne	a5,zero,.L112
	.loc 1 835 12
	ld	a5,-24(s0)
	j	.L113
.L112:
	.loc 1 838 25
	ld	a5,-32(s0)
	ld	a5,40(a5)
	.loc 1 838 45
	lbu	a5,238(a5)
	.loc 1 838 57
	sext.w	a5,a5
	andi	a5,a5,127
	sext.w	a4,a5
	.loc 1 838 6
	li	a5,1
	beq	a4,a5,.L114
	.loc 1 838 91 discriminator 1
	ld	a5,-32(s0)
	ld	a5,40(a5)
	.loc 1 838 99 discriminator 1
	ld	a5,488(a5)
	.loc 1 838 76 discriminator 1
	bne	a5,zero,.L115
.L114:
	.loc 1 839 21
	ld	a5,-32(s0)
	lw	a4,84(a5)
	.loc 1 839 6
	li	a5,1
	beq	a4,a5,.L115
	.loc 1 841 12
	ld	a5,-24(s0)
	j	.L113
.L115:
	.loc 1 844 6
	ld	a5,-24(s0)
	bne	a5,zero,.L116
	.loc 1 845 12
	ld	a5,-32(s0)
	j	.L113
.L116:
	.loc 1 848 19
	ld	a5,-24(s0)
	ld	a4,72(a5)
	.loc 1 848 43
	ld	a5,-32(s0)
	ld	a5,72(a5)
	.loc 1 848 6
	bleu	a4,a5,.L117
	.loc 1 849 12
	ld	a5,-24(s0)
	j	.L113
.L117:
	.loc 1 852 10
	ld	a5,-32(s0)
.L113:
	.loc 1 853 1
	mv	a0,a5
	ld	ra,24(sp)
	.cfi_restore 1
	ld	s0,16(sp)
	.cfi_restore 8
	.cfi_def_cfa 2, 32
	addi	sp,sp,32
	.cfi_def_cfa_offset 0
	jr	ra
	.cfi_endproc
.LFE10:
	.size	GetLargerConsumerDevice, .-GetLargerConsumerDevice
	.section	.text.GetMaxResourceConsumerDevice,"ax",@progbits
	.align	1
	.globl	GetMaxResourceConsumerDevice
	.type	GetMaxResourceConsumerDevice, @function
GetMaxResourceConsumerDevice:
.LFB11:
	.loc 1 867 1
	.cfi_startproc
	addi	sp,sp,-64
	.cfi_def_cfa_offset 64
	sd	ra,56(sp)
	sd	s0,48(sp)
	.cfi_offset 1, -8
	.cfi_offset 8, -16
	addi	s0,sp,64
	.cfi_def_cfa 8, 0
	sd	a0,-56(s0)
	.loc 1 873 14
	sd	zero,-40(s0)
	.loc 1 875 15
	ld	a5,-56(s0)
	ld	a5,24(a5)
	sd	a5,-32(s0)
	.loc 1 876 9
	j	.L119
.L128:
	.loc 1 877 14
	ld	a5,-32(s0)
	addi	a5,a5,-8
	.loc 1 877 127
	lw	a4,0(a5)
	.loc 1 877 212
	li	a5,1668440064
	addi	a5,a5,880
	bne	a4,a5,.L120
	.loc 1 877 10 discriminator 1
	ld	a5,-32(s0)
	addi	a5,a5,-8
	sd	a5,-24(s0)
	j	.L121
.L120:
	.loc 1 877 10 is_stmt 0 discriminator 2
	sd	zero,-24(s0)
.L121:
	.loc 1 879 10 is_stmt 1
	ld	a0,-24(s0)
	call	IsRejectiveDevice
	mv	a5,a0
	.loc 1 879 8 discriminator 1
	bne	a5,zero,.L122
	.loc 1 880 19
	ld	a5,-32(s0)
	ld	a5,0(a5)
	sd	a5,-32(s0)
	.loc 1 881 7
	j	.L119
.L122:
	.loc 1 884 20
	ld	a5,-24(s0)
	ld	a5,40(a5)
	.loc 1 884 40
	lbu	a5,238(a5)
	.loc 1 884 52
	sext.w	a5,a5
	andi	a5,a5,127
	sext.w	a4,a5
	.loc 1 884 8
	li	a5,1
	beq	a4,a5,.L124
	.loc 1 884 79 discriminator 1
	ld	a5,-24(s0)
	ld	a5,40(a5)
	.loc 1 884 87 discriminator 1
	ld	a5,488(a5)
	.loc 1 884 71 discriminator 1
	bne	a5,zero,.L125
.L124:
	.loc 1 885 16
	ld	a5,-24(s0)
	lw	a4,84(a5)
	.loc 1 885 8
	li	a5,1
	beq	a4,a5,.L125
	.loc 1 887 20
	ld	a0,-24(s0)
	call	GetMaxResourceConsumerDevice
	sd	a0,-48(s0)
	.loc 1 888 20
	ld	a1,-48(s0)
	ld	a0,-40(s0)
	call	GetLargerConsumerDevice
	sd	a0,-40(s0)
	.loc 1 888 18
	j	.L126
.L125:
	.loc 1 890 20
	ld	a1,-24(s0)
	ld	a0,-40(s0)
	call	GetLargerConsumerDevice
	sd	a0,-40(s0)
.L126:
	.loc 1 893 17
	ld	a5,-32(s0)
	ld	a5,0(a5)
	sd	a5,-32(s0)
.L119:
	.loc 1 876 38
	ld	a5,-32(s0)
	beq	a5,zero,.L127
	.loc 1 876 56 discriminator 1
	ld	a5,-56(s0)
	addi	a5,a5,24
	.loc 1 876 38 discriminator 1
	ld	a4,-32(s0)
	bne	a4,a5,.L128
.L127:
	.loc 1 896 10
	ld	a5,-40(s0)
	.loc 1 897 1
	mv	a0,a5
	ld	ra,56(sp)
	.cfi_restore 1
	ld	s0,48(sp)
	.cfi_restore 8
	.cfi_def_cfa 2, 64
	addi	sp,sp,64
	.cfi_def_cfa_offset 0
	jr	ra
	.cfi_endproc
.LFE11:
	.size	GetMaxResourceConsumerDevice, .-GetMaxResourceConsumerDevice
	.section	.text.PciHostBridgeAdjustAllocation,"ax",@progbits
	.align	1
	.globl	PciHostBridgeAdjustAllocation
	.type	PciHostBridgeAdjustAllocation, @function
PciHostBridgeAdjustAllocation:
.LFB12:
	.loc 1 930 1
	.cfi_startproc
	addi	sp,sp,-288
	.cfi_def_cfa_offset 288
	sd	ra,280(sp)
	sd	s0,272(sp)
	.cfi_offset 1, -8
	.cfi_offset 8, -16
	addi	s0,sp,288
	.cfi_def_cfa 8, 0
	sd	a0,-232(s0)
	sd	a1,-240(s0)
	sd	a2,-248(s0)
	sd	a3,-256(s0)
	sd	a4,-264(s0)
	sd	a5,-272(s0)
	sd	a6,-280(s0)
	sd	a7,-288(s0)
	.loc 1 942 14
	sd	zero,-56(s0)
	.loc 1 943 3
	addi	a5,s0,-144
	li	a1,40
	mv	a0,a5
	call	ZeroMem@plt
	.loc 1 944 20
	sd	zero,-32(s0)
	.loc 1 946 14
	ld	a5,-232(s0)
	sd	a5,-104(s0)
	.loc 1 947 14
	ld	a5,-240(s0)
	sd	a5,-96(s0)
	.loc 1 948 14
	ld	a5,-248(s0)
	sd	a5,-88(s0)
	.loc 1 949 14
	ld	a5,-256(s0)
	sd	a5,-80(s0)
	.loc 1 950 14
	ld	a5,-264(s0)
	sd	a5,-72(s0)
	.loc 1 952 16
	ld	a5,-272(s0)
	sd	a5,-184(s0)
	.loc 1 953 16
	ld	a5,-280(s0)
	sd	a5,-176(s0)
	.loc 1 954 16
	ld	a5,-288(s0)
	sd	a5,-168(s0)
	.loc 1 955 16
	ld	a5,0(s0)
	sd	a5,-160(s0)
	.loc 1 956 16
	ld	a5,8(s0)
	sd	a5,-152(s0)
	.loc 1 958 21
	sb	zero,-17(s0)
	.loc 1 960 16
	sd	zero,-48(s0)
	.loc 1 960 3
	j	.L131
.L144:
	.loc 1 961 18
	ld	a4,-48(s0)
	addi	a5,s0,-184
	slli	a4,a4,3
	add	a5,a4,a5
	ld	a5,0(a5)
	.loc 1 961 8
	beq	a5,zero,.L147
	.loc 1 965 18
	ld	a4,-48(s0)
	addi	a5,s0,-184
	slli	a4,a4,3
	add	a5,a4,a5
	ld	a4,0(a5)
	.loc 1 965 8
	li	a5,-1
	bne	a4,a5,.L134
	.loc 1 969 14
	li	a5,-1
	slli	a5,a5,63
	addi	a5,a5,21
	j	.L146
.L134:
	.loc 1 975 18
	ld	a4,-48(s0)
	addi	a5,s0,-104
	slli	a4,a4,3
	add	a5,a4,a5
	ld	a5,0(a5)
	mv	a0,a5
	call	GetMaxResourceConsumerDevice
	sd	a0,-56(s0)
	.loc 1 976 8
	ld	a5,-56(s0)
	beq	a5,zero,.L148
	.loc 1 983 19
	sd	zero,-40(s0)
	.loc 1 983 5
	j	.L137
.L140:
	.loc 1 984 21
	ld	a5,-56(s0)
	ld	a4,40(a5)
	.loc 1 984 46
	ld	a3,-40(s0)
	addi	a5,s0,-144
	slli	a3,a3,3
	add	a5,a3,a5
	ld	a5,0(a5)
	.loc 1 984 10
	beq	a4,a5,.L149
	.loc 1 983 61 discriminator 2
	ld	a5,-40(s0)
	addi	a5,a5,1
	sd	a5,-40(s0)
.L137:
	.loc 1 983 33 discriminator 1
	ld	a4,-40(s0)
	ld	a5,-32(s0)
	bltu	a4,a5,.L140
	j	.L139
.L149:
	.loc 1 985 9
	nop
.L139:
	.loc 1 989 8
	ld	a4,-40(s0)
	ld	a5,-32(s0)
	bne	a4,a5,.L150
	.loc 1 996 14
	ld	a5,-56(s0)
	ld	a5,40(a5)
	mv	a0,a5
	call	RejectPciDevice
	sd	a0,-64(s0)
	.loc 1 997 8
	ld	a5,-64(s0)
	bne	a5,zero,.L133
	.loc 1 1012 7
	addi	a5,s0,-224
	li	a1,40
	mv	a0,a5
	call	ZeroMem@plt
	.loc 1 1013 44
	li	a5,4
	sh	a5,-220(s0)
	.loc 1 1014 61
	ld	a5,-56(s0)
	ld	a5,40(a5)
	.loc 1 1014 69
	ld	a5,200(a5)
	.loc 1 1014 40
	sd	a5,-208(s0)
	.loc 1 1015 45
	ld	a5,-56(s0)
	lbu	a5,64(a5)
	sext.w	a5,a5
	.loc 1 1015 33
	sw	a5,-224(s0)
	.loc 1 1017 8
	call	ReportProgressCodeEnabled@plt
	mv	a5,a0
	.loc 1 1017 230 discriminator 1
	beq	a5,zero,.L142
	.loc 1 1017 84 discriminator 4
	addi	a5,s0,-224
	li	a3,40
	mv	a2,a5
	li	a5,33619968
	addi	a1,a5,9
	li	a0,1
	call	ReportStatusCodeWithExtendedData@plt
	.loc 1 1017 230
	j	.L143
.L142:
	.loc 1 1017 233 discriminator 5
	call	ReportErrorCodeEnabled@plt
	.loc 1 1017 455 discriminator 9
	call	ReportDebugCodeEnabled@plt
.L143:
	.loc 1 1027 37
	ld	a5,-32(s0)
	addi	a4,a5,1
	sd	a4,-32(s0)
	.loc 1 1027 53
	ld	a4,-56(s0)
	ld	a4,40(a4)
	.loc 1 1027 41
	addi	a3,s0,-144
	slli	a5,a5,3
	add	a5,a5,a3
	sd	a4,0(a5)
	.loc 1 1028 25
	li	a5,1
	sb	a5,-17(s0)
	j	.L133
.L147:
	.loc 1 962 7
	nop
	j	.L133
.L148:
	.loc 1 977 7
	nop
	j	.L133
.L150:
	.loc 1 990 7
	nop
.L133:
	.loc 1 960 41 discriminator 2
	ld	a5,-48(s0)
	addi	a5,a5,1
	sd	a5,-48(s0)
.L131:
	.loc 1 960 29 discriminator 1
	ld	a4,-48(s0)
	li	a5,4
	bleu	a4,a5,.L144
	.loc 1 1036 6
	lbu	a5,-17(s0)
	andi	a5,a5,0xff
	beq	a5,zero,.L145
	.loc 1 1037 12
	li	a5,0
	j	.L146
.L145:
	.loc 1 1039 12
	li	a5,-1
	slli	a5,a5,63
	addi	a5,a5,21
.L146:
	.loc 1 1041 1
	mv	a0,a5
	ld	ra,280(sp)
	.cfi_restore 1
	ld	s0,272(sp)
	.cfi_restore 8
	.cfi_def_cfa 2, 288
	addi	sp,sp,288
	.cfi_def_cfa_offset 0
	jr	ra
	.cfi_endproc
.LFE12:
	.size	PciHostBridgeAdjustAllocation, .-PciHostBridgeAdjustAllocation
	.section	.text.ConstructAcpiResourceRequestor,"ax",@progbits
	.align	1
	.globl	ConstructAcpiResourceRequestor
	.type	ConstructAcpiResourceRequestor, @function
ConstructAcpiResourceRequestor:
.LFB13:
	.loc 1 1069 1
	.cfi_startproc
	addi	sp,sp,-112
	.cfi_def_cfa_offset 112
	sd	ra,104(sp)
	sd	s0,96(sp)
	.cfi_offset 1, -8
	.cfi_offset 8, -16
	addi	s0,sp,112
	.cfi_def_cfa 8, 0
	sd	a0,-56(s0)
	sd	a1,-64(s0)
	sd	a2,-72(s0)
	sd	a3,-80(s0)
	sd	a4,-88(s0)
	sd	a5,-96(s0)
	sd	a6,-104(s0)
	.loc 1 1076 13
	sb	zero,-17(s0)
	.loc 1 1077 12
	sb	zero,-18(s0)
	.loc 1 1079 11
	ld	a5,-104(s0)
	sd	zero,0(a5)
	.loc 1 1084 7
	ld	a0,-64(s0)
	call	ResourceRequestExisted@plt
	mv	a5,a0
	.loc 1 1084 6 discriminator 1
	beq	a5,zero,.L152
	.loc 1 1085 14
	lbu	a5,-17(s0)
	addiw	a5,a5,1
	sb	a5,-17(s0)
	.loc 1 1086 14
	lbu	a5,-18(s0)
	ori	a5,a5,1
	sb	a5,-18(s0)
.L152:
	.loc 1 1092 7
	ld	a0,-72(s0)
	call	ResourceRequestExisted@plt
	mv	a5,a0
	.loc 1 1092 6 discriminator 1
	beq	a5,zero,.L153
	.loc 1 1093 14
	lbu	a5,-17(s0)
	addiw	a5,a5,1
	sb	a5,-17(s0)
	.loc 1 1094 14
	lbu	a5,-18(s0)
	ori	a5,a5,2
	sb	a5,-18(s0)
.L153:
	.loc 1 1100 7
	ld	a0,-80(s0)
	call	ResourceRequestExisted@plt
	mv	a5,a0
	.loc 1 1100 6 discriminator 1
	beq	a5,zero,.L154
	.loc 1 1101 14
	lbu	a5,-17(s0)
	addiw	a5,a5,1
	sb	a5,-17(s0)
	.loc 1 1102 14
	lbu	a5,-18(s0)
	ori	a5,a5,4
	sb	a5,-18(s0)
.L154:
	.loc 1 1108 7
	ld	a0,-88(s0)
	call	ResourceRequestExisted@plt
	mv	a5,a0
	.loc 1 1108 6 discriminator 1
	beq	a5,zero,.L155
	.loc 1 1109 14
	lbu	a5,-17(s0)
	addiw	a5,a5,1
	sb	a5,-17(s0)
	.loc 1 1110 14
	lbu	a5,-18(s0)
	ori	a5,a5,8
	sb	a5,-18(s0)
.L155:
	.loc 1 1116 7
	ld	a0,-96(s0)
	call	ResourceRequestExisted@plt
	mv	a5,a0
	.loc 1 1116 6 discriminator 1
	beq	a5,zero,.L156
	.loc 1 1117 14
	lbu	a5,-17(s0)
	addiw	a5,a5,1
	sb	a5,-17(s0)
	.loc 1 1118 14
	lbu	a5,-18(s0)
	ori	a5,a5,16
	sb	a5,-18(s0)
.L156:
	.loc 1 1121 6
	lbu	a5,-17(s0)
	andi	a5,a5,0xff
	beq	a5,zero,.L157
	.loc 1 1126 82
	lbu	a4,-17(s0)
	li	a5,46
	mul	a5,a4,a5
	.loc 1 1126 94
	addi	a5,a5,2
	.loc 1 1126 21
	mv	a0,a5
	call	AllocateZeroPool@plt
	sd	a0,-32(s0)
	.loc 1 1127 8
	ld	a5,-32(s0)
	bne	a5,zero,.L158
	.loc 1 1128 14
	li	a5,-1
	slli	a5,a5,63
	addi	a5,a5,9
	j	.L159
.L158:
	.loc 1 1131 9
	ld	a5,-32(s0)
	sd	a5,-40(s0)
	.loc 1 1136 19
	lbu	a5,-18(s0)
	sext.w	a5,a5
	andi	a5,a5,1
	sext.w	a5,a5
	.loc 1 1136 8
	beq	a5,zero,.L160
	.loc 1 1137 17
	ld	a5,-40(s0)
	li	a4,-118
	sb	a4,0(a5)
	.loc 1 1138 16
	ld	a5,-40(s0)
	lbu	a4,1(a5)
	andi	a4,a4,0
	ori	a4,a4,43
	sb	a4,1(a5)
	lbu	a4,2(a5)
	andi	a4,a4,0
	sb	a4,2(a5)
	.loc 1 1142 20
	ld	a5,-40(s0)
	li	a4,1
	sb	a4,3(a5)
	.loc 1 1146 25
	ld	a5,-40(s0)
	li	a4,1
	sb	a4,5(a5)
	.loc 1 1147 28
	ld	a5,-64(s0)
	ld	a4,72(a5)
	.loc 1 1147 20
	ld	a5,-40(s0)
	andi	a3,a4,255
	lbu	a2,38(a5)
	andi	a2,a2,0
	or	a3,a2,a3
	sb	a3,38(a5)
	srli	a3,a4,8
	andi	a3,a3,255
	lbu	a2,39(a5)
	andi	a2,a2,0
	or	a3,a2,a3
	sb	a3,39(a5)
	srli	a3,a4,16
	andi	a3,a3,255
	lbu	a2,40(a5)
	andi	a2,a2,0
	or	a3,a2,a3
	sb	a3,40(a5)
	srli	a3,a4,24
	andi	a3,a3,255
	lbu	a2,41(a5)
	andi	a2,a2,0
	or	a3,a2,a3
	sb	a3,41(a5)
	srli	a3,a4,32
	andi	a3,a3,255
	lbu	a2,42(a5)
	andi	a2,a2,0
	or	a3,a2,a3
	sb	a3,42(a5)
	srli	a3,a4,40
	andi	a3,a3,255
	lbu	a2,43(a5)
	andi	a2,a2,0
	or	a3,a2,a3
	sb	a3,43(a5)
	srli	a3,a4,48
	andi	a3,a3,255
	lbu	a2,44(a5)
	andi	a2,a2,0
	or	a3,a2,a3
	sb	a3,44(a5)
	srli	a4,a4,56
	lbu	a3,45(a5)
	andi	a3,a3,0
	or	a4,a3,a4
	sb	a4,45(a5)
	.loc 1 1148 33
	ld	a5,-64(s0)
	ld	a4,48(a5)
	.loc 1 1148 25
	ld	a5,-40(s0)
	andi	a3,a4,255
	lbu	a2,22(a5)
	andi	a2,a2,0
	or	a3,a2,a3
	sb	a3,22(a5)
	srli	a3,a4,8
	andi	a3,a3,255
	lbu	a2,23(a5)
	andi	a2,a2,0
	or	a3,a2,a3
	sb	a3,23(a5)
	srli	a3,a4,16
	andi	a3,a3,255
	lbu	a2,24(a5)
	andi	a2,a2,0
	or	a3,a2,a3
	sb	a3,24(a5)
	srli	a3,a4,24
	andi	a3,a3,255
	lbu	a2,25(a5)
	andi	a2,a2,0
	or	a3,a2,a3
	sb	a3,25(a5)
	srli	a3,a4,32
	andi	a3,a3,255
	lbu	a2,26(a5)
	andi	a2,a2,0
	or	a3,a2,a3
	sb	a3,26(a5)
	srli	a3,a4,40
	andi	a3,a3,255
	lbu	a2,27(a5)
	andi	a2,a2,0
	or	a3,a2,a3
	sb	a3,27(a5)
	srli	a3,a4,48
	andi	a3,a3,255
	lbu	a2,28(a5)
	andi	a2,a2,0
	or	a3,a2,a3
	sb	a3,28(a5)
	srli	a4,a4,56
	lbu	a3,29(a5)
	andi	a3,a3,0
	or	a4,a3,a4
	sb	a4,29(a5)
	.loc 1 1150 10
	ld	a5,-40(s0)
	addi	a5,a5,46
	sd	a5,-40(s0)
.L160:
	.loc 1 1156 19
	lbu	a5,-18(s0)
	sext.w	a5,a5
	andi	a5,a5,2
	sext.w	a5,a5
	.loc 1 1156 8
	beq	a5,zero,.L161
	.loc 1 1157 17
	ld	a5,-40(s0)
	li	a4,-118
	sb	a4,0(a5)
	.loc 1 1158 16
	ld	a5,-40(s0)
	lbu	a4,1(a5)
	andi	a4,a4,0
	ori	a4,a4,43
	sb	a4,1(a5)
	lbu	a4,2(a5)
	andi	a4,a4,0
	sb	a4,2(a5)
	.loc 1 1162 20
	ld	a5,-40(s0)
	sb	zero,3(a5)
	.loc 1 1166 25
	ld	a5,-40(s0)
	sb	zero,5(a5)
	.loc 1 1170 33
	ld	a5,-40(s0)
	lbu	a4,6(a5)
	andi	a4,a4,0
	ori	a4,a4,32
	sb	a4,6(a5)
	lbu	a4,7(a5)
	andi	a4,a4,0
	sb	a4,7(a5)
	lbu	a4,8(a5)
	andi	a4,a4,0
	sb	a4,8(a5)
	lbu	a4,9(a5)
	andi	a4,a4,0
	sb	a4,9(a5)
	lbu	a4,10(a5)
	andi	a4,a4,0
	sb	a4,10(a5)
	lbu	a4,11(a5)
	andi	a4,a4,0
	sb	a4,11(a5)
	lbu	a4,12(a5)
	andi	a4,a4,0
	sb	a4,12(a5)
	lbu	a4,13(a5)
	andi	a4,a4,0
	sb	a4,13(a5)
	.loc 1 1171 31
	ld	a5,-72(s0)
	ld	a4,72(a5)
	.loc 1 1171 20
	ld	a5,-40(s0)
	andi	a3,a4,255
	lbu	a2,38(a5)
	andi	a2,a2,0
	or	a3,a2,a3
	sb	a3,38(a5)
	srli	a3,a4,8
	andi	a3,a3,255
	lbu	a2,39(a5)
	andi	a2,a2,0
	or	a3,a2,a3
	sb	a3,39(a5)
	srli	a3,a4,16
	andi	a3,a3,255
	lbu	a2,40(a5)
	andi	a2,a2,0
	or	a3,a2,a3
	sb	a3,40(a5)
	srli	a3,a4,24
	andi	a3,a3,255
	lbu	a2,41(a5)
	andi	a2,a2,0
	or	a3,a2,a3
	sb	a3,41(a5)
	srli	a3,a4,32
	andi	a3,a3,255
	lbu	a2,42(a5)
	andi	a2,a2,0
	or	a3,a2,a3
	sb	a3,42(a5)
	srli	a3,a4,40
	andi	a3,a3,255
	lbu	a2,43(a5)
	andi	a2,a2,0
	or	a3,a2,a3
	sb	a3,43(a5)
	srli	a3,a4,48
	andi	a3,a3,255
	lbu	a2,44(a5)
	andi	a2,a2,0
	or	a3,a2,a3
	sb	a3,44(a5)
	srli	a4,a4,56
	lbu	a3,45(a5)
	andi	a3,a3,0
	or	a4,a3,a4
	sb	a4,45(a5)
	.loc 1 1172 36
	ld	a5,-72(s0)
	ld	a4,48(a5)
	.loc 1 1172 25
	ld	a5,-40(s0)
	andi	a3,a4,255
	lbu	a2,22(a5)
	andi	a2,a2,0
	or	a3,a2,a3
	sb	a3,22(a5)
	srli	a3,a4,8
	andi	a3,a3,255
	lbu	a2,23(a5)
	andi	a2,a2,0
	or	a3,a2,a3
	sb	a3,23(a5)
	srli	a3,a4,16
	andi	a3,a3,255
	lbu	a2,24(a5)
	andi	a2,a2,0
	or	a3,a2,a3
	sb	a3,24(a5)
	srli	a3,a4,24
	andi	a3,a3,255
	lbu	a2,25(a5)
	andi	a2,a2,0
	or	a3,a2,a3
	sb	a3,25(a5)
	srli	a3,a4,32
	andi	a3,a3,255
	lbu	a2,26(a5)
	andi	a2,a2,0
	or	a3,a2,a3
	sb	a3,26(a5)
	srli	a3,a4,40
	andi	a3,a3,255
	lbu	a2,27(a5)
	andi	a2,a2,0
	or	a3,a2,a3
	sb	a3,27(a5)
	srli	a3,a4,48
	andi	a3,a3,255
	lbu	a2,28(a5)
	andi	a2,a2,0
	or	a3,a2,a3
	sb	a3,28(a5)
	srli	a4,a4,56
	lbu	a3,29(a5)
	andi	a3,a3,0
	or	a4,a3,a4
	sb	a4,29(a5)
	.loc 1 1174 10
	ld	a5,-40(s0)
	addi	a5,a5,46
	sd	a5,-40(s0)
.L161:
	.loc 1 1180 19
	lbu	a5,-18(s0)
	sext.w	a5,a5
	andi	a5,a5,4
	sext.w	a5,a5
	.loc 1 1180 8
	beq	a5,zero,.L162
	.loc 1 1181 17
	ld	a5,-40(s0)
	li	a4,-118
	sb	a4,0(a5)
	.loc 1 1182 16
	ld	a5,-40(s0)
	lbu	a4,1(a5)
	andi	a4,a4,0
	ori	a4,a4,43
	sb	a4,1(a5)
	lbu	a4,2(a5)
	andi	a4,a4,0
	sb	a4,2(a5)
	.loc 1 1186 20
	ld	a5,-40(s0)
	sb	zero,3(a5)
	.loc 1 1190 25
	ld	a5,-40(s0)
	li	a4,6
	sb	a4,5(a5)
	.loc 1 1194 33
	ld	a5,-40(s0)
	lbu	a4,6(a5)
	andi	a4,a4,0
	ori	a4,a4,32
	sb	a4,6(a5)
	lbu	a4,7(a5)
	andi	a4,a4,0
	sb	a4,7(a5)
	lbu	a4,8(a5)
	andi	a4,a4,0
	sb	a4,8(a5)
	lbu	a4,9(a5)
	andi	a4,a4,0
	sb	a4,9(a5)
	lbu	a4,10(a5)
	andi	a4,a4,0
	sb	a4,10(a5)
	lbu	a4,11(a5)
	andi	a4,a4,0
	sb	a4,11(a5)
	lbu	a4,12(a5)
	andi	a4,a4,0
	sb	a4,12(a5)
	lbu	a4,13(a5)
	andi	a4,a4,0
	sb	a4,13(a5)
	.loc 1 1195 32
	ld	a5,-80(s0)
	ld	a4,72(a5)
	.loc 1 1195 20
	ld	a5,-40(s0)
	andi	a3,a4,255
	lbu	a2,38(a5)
	andi	a2,a2,0
	or	a3,a2,a3
	sb	a3,38(a5)
	srli	a3,a4,8
	andi	a3,a3,255
	lbu	a2,39(a5)
	andi	a2,a2,0
	or	a3,a2,a3
	sb	a3,39(a5)
	srli	a3,a4,16
	andi	a3,a3,255
	lbu	a2,40(a5)
	andi	a2,a2,0
	or	a3,a2,a3
	sb	a3,40(a5)
	srli	a3,a4,24
	andi	a3,a3,255
	lbu	a2,41(a5)
	andi	a2,a2,0
	or	a3,a2,a3
	sb	a3,41(a5)
	srli	a3,a4,32
	andi	a3,a3,255
	lbu	a2,42(a5)
	andi	a2,a2,0
	or	a3,a2,a3
	sb	a3,42(a5)
	srli	a3,a4,40
	andi	a3,a3,255
	lbu	a2,43(a5)
	andi	a2,a2,0
	or	a3,a2,a3
	sb	a3,43(a5)
	srli	a3,a4,48
	andi	a3,a3,255
	lbu	a2,44(a5)
	andi	a2,a2,0
	or	a3,a2,a3
	sb	a3,44(a5)
	srli	a4,a4,56
	lbu	a3,45(a5)
	andi	a3,a3,0
	or	a4,a3,a4
	sb	a4,45(a5)
	.loc 1 1196 37
	ld	a5,-80(s0)
	ld	a4,48(a5)
	.loc 1 1196 25
	ld	a5,-40(s0)
	andi	a3,a4,255
	lbu	a2,22(a5)
	andi	a2,a2,0
	or	a3,a2,a3
	sb	a3,22(a5)
	srli	a3,a4,8
	andi	a3,a3,255
	lbu	a2,23(a5)
	andi	a2,a2,0
	or	a3,a2,a3
	sb	a3,23(a5)
	srli	a3,a4,16
	andi	a3,a3,255
	lbu	a2,24(a5)
	andi	a2,a2,0
	or	a3,a2,a3
	sb	a3,24(a5)
	srli	a3,a4,24
	andi	a3,a3,255
	lbu	a2,25(a5)
	andi	a2,a2,0
	or	a3,a2,a3
	sb	a3,25(a5)
	srli	a3,a4,32
	andi	a3,a3,255
	lbu	a2,26(a5)
	andi	a2,a2,0
	or	a3,a2,a3
	sb	a3,26(a5)
	srli	a3,a4,40
	andi	a3,a3,255
	lbu	a2,27(a5)
	andi	a2,a2,0
	or	a3,a2,a3
	sb	a3,27(a5)
	srli	a3,a4,48
	andi	a3,a3,255
	lbu	a2,28(a5)
	andi	a2,a2,0
	or	a3,a2,a3
	sb	a3,28(a5)
	srli	a4,a4,56
	lbu	a3,29(a5)
	andi	a3,a3,0
	or	a4,a3,a4
	sb	a4,29(a5)
	.loc 1 1198 10
	ld	a5,-40(s0)
	addi	a5,a5,46
	sd	a5,-40(s0)
.L162:
	.loc 1 1204 19
	lbu	a5,-18(s0)
	sext.w	a5,a5
	andi	a5,a5,8
	sext.w	a5,a5
	.loc 1 1204 8
	beq	a5,zero,.L163
	.loc 1 1205 17
	ld	a5,-40(s0)
	li	a4,-118
	sb	a4,0(a5)
	.loc 1 1206 16
	ld	a5,-40(s0)
	lbu	a4,1(a5)
	andi	a4,a4,0
	ori	a4,a4,43
	sb	a4,1(a5)
	lbu	a4,2(a5)
	andi	a4,a4,0
	sb	a4,2(a5)
	.loc 1 1210 20
	ld	a5,-40(s0)
	sb	zero,3(a5)
	.loc 1 1214 25
	ld	a5,-40(s0)
	sb	zero,5(a5)
	.loc 1 1218 33
	ld	a5,-40(s0)
	lbu	a4,6(a5)
	andi	a4,a4,0
	ori	a4,a4,64
	sb	a4,6(a5)
	lbu	a4,7(a5)
	andi	a4,a4,0
	sb	a4,7(a5)
	lbu	a4,8(a5)
	andi	a4,a4,0
	sb	a4,8(a5)
	lbu	a4,9(a5)
	andi	a4,a4,0
	sb	a4,9(a5)
	lbu	a4,10(a5)
	andi	a4,a4,0
	sb	a4,10(a5)
	lbu	a4,11(a5)
	andi	a4,a4,0
	sb	a4,11(a5)
	lbu	a4,12(a5)
	andi	a4,a4,0
	sb	a4,12(a5)
	lbu	a4,13(a5)
	andi	a4,a4,0
	sb	a4,13(a5)
	.loc 1 1219 31
	ld	a5,-88(s0)
	ld	a4,72(a5)
	.loc 1 1219 20
	ld	a5,-40(s0)
	andi	a3,a4,255
	lbu	a2,38(a5)
	andi	a2,a2,0
	or	a3,a2,a3
	sb	a3,38(a5)
	srli	a3,a4,8
	andi	a3,a3,255
	lbu	a2,39(a5)
	andi	a2,a2,0
	or	a3,a2,a3
	sb	a3,39(a5)
	srli	a3,a4,16
	andi	a3,a3,255
	lbu	a2,40(a5)
	andi	a2,a2,0
	or	a3,a2,a3
	sb	a3,40(a5)
	srli	a3,a4,24
	andi	a3,a3,255
	lbu	a2,41(a5)
	andi	a2,a2,0
	or	a3,a2,a3
	sb	a3,41(a5)
	srli	a3,a4,32
	andi	a3,a3,255
	lbu	a2,42(a5)
	andi	a2,a2,0
	or	a3,a2,a3
	sb	a3,42(a5)
	srli	a3,a4,40
	andi	a3,a3,255
	lbu	a2,43(a5)
	andi	a2,a2,0
	or	a3,a2,a3
	sb	a3,43(a5)
	srli	a3,a4,48
	andi	a3,a3,255
	lbu	a2,44(a5)
	andi	a2,a2,0
	or	a3,a2,a3
	sb	a3,44(a5)
	srli	a4,a4,56
	lbu	a3,45(a5)
	andi	a3,a3,0
	or	a4,a3,a4
	sb	a4,45(a5)
	.loc 1 1220 36
	ld	a5,-88(s0)
	ld	a4,48(a5)
	.loc 1 1220 25
	ld	a5,-40(s0)
	andi	a3,a4,255
	lbu	a2,22(a5)
	andi	a2,a2,0
	or	a3,a2,a3
	sb	a3,22(a5)
	srli	a3,a4,8
	andi	a3,a3,255
	lbu	a2,23(a5)
	andi	a2,a2,0
	or	a3,a2,a3
	sb	a3,23(a5)
	srli	a3,a4,16
	andi	a3,a3,255
	lbu	a2,24(a5)
	andi	a2,a2,0
	or	a3,a2,a3
	sb	a3,24(a5)
	srli	a3,a4,24
	andi	a3,a3,255
	lbu	a2,25(a5)
	andi	a2,a2,0
	or	a3,a2,a3
	sb	a3,25(a5)
	srli	a3,a4,32
	andi	a3,a3,255
	lbu	a2,26(a5)
	andi	a2,a2,0
	or	a3,a2,a3
	sb	a3,26(a5)
	srli	a3,a4,40
	andi	a3,a3,255
	lbu	a2,27(a5)
	andi	a2,a2,0
	or	a3,a2,a3
	sb	a3,27(a5)
	srli	a3,a4,48
	andi	a3,a3,255
	lbu	a2,28(a5)
	andi	a2,a2,0
	or	a3,a2,a3
	sb	a3,28(a5)
	srli	a4,a4,56
	lbu	a3,29(a5)
	andi	a3,a3,0
	or	a4,a3,a4
	sb	a4,29(a5)
	.loc 1 1222 10
	ld	a5,-40(s0)
	addi	a5,a5,46
	sd	a5,-40(s0)
.L163:
	.loc 1 1228 19
	lbu	a5,-18(s0)
	sext.w	a5,a5
	andi	a5,a5,16
	sext.w	a5,a5
	.loc 1 1228 8
	beq	a5,zero,.L164
	.loc 1 1229 17
	ld	a5,-40(s0)
	li	a4,-118
	sb	a4,0(a5)
	.loc 1 1230 16
	ld	a5,-40(s0)
	lbu	a4,1(a5)
	andi	a4,a4,0
	ori	a4,a4,43
	sb	a4,1(a5)
	lbu	a4,2(a5)
	andi	a4,a4,0
	sb	a4,2(a5)
	.loc 1 1234 20
	ld	a5,-40(s0)
	sb	zero,3(a5)
	.loc 1 1238 25
	ld	a5,-40(s0)
	li	a4,6
	sb	a4,5(a5)
	.loc 1 1242 33
	ld	a5,-40(s0)
	lbu	a4,6(a5)
	andi	a4,a4,0
	ori	a4,a4,64
	sb	a4,6(a5)
	lbu	a4,7(a5)
	andi	a4,a4,0
	sb	a4,7(a5)
	lbu	a4,8(a5)
	andi	a4,a4,0
	sb	a4,8(a5)
	lbu	a4,9(a5)
	andi	a4,a4,0
	sb	a4,9(a5)
	lbu	a4,10(a5)
	andi	a4,a4,0
	sb	a4,10(a5)
	lbu	a4,11(a5)
	andi	a4,a4,0
	sb	a4,11(a5)
	lbu	a4,12(a5)
	andi	a4,a4,0
	sb	a4,12(a5)
	lbu	a4,13(a5)
	andi	a4,a4,0
	sb	a4,13(a5)
	.loc 1 1243 32
	ld	a5,-96(s0)
	ld	a4,72(a5)
	.loc 1 1243 20
	ld	a5,-40(s0)
	andi	a3,a4,255
	lbu	a2,38(a5)
	andi	a2,a2,0
	or	a3,a2,a3
	sb	a3,38(a5)
	srli	a3,a4,8
	andi	a3,a3,255
	lbu	a2,39(a5)
	andi	a2,a2,0
	or	a3,a2,a3
	sb	a3,39(a5)
	srli	a3,a4,16
	andi	a3,a3,255
	lbu	a2,40(a5)
	andi	a2,a2,0
	or	a3,a2,a3
	sb	a3,40(a5)
	srli	a3,a4,24
	andi	a3,a3,255
	lbu	a2,41(a5)
	andi	a2,a2,0
	or	a3,a2,a3
	sb	a3,41(a5)
	srli	a3,a4,32
	andi	a3,a3,255
	lbu	a2,42(a5)
	andi	a2,a2,0
	or	a3,a2,a3
	sb	a3,42(a5)
	srli	a3,a4,40
	andi	a3,a3,255
	lbu	a2,43(a5)
	andi	a2,a2,0
	or	a3,a2,a3
	sb	a3,43(a5)
	srli	a3,a4,48
	andi	a3,a3,255
	lbu	a2,44(a5)
	andi	a2,a2,0
	or	a3,a2,a3
	sb	a3,44(a5)
	srli	a4,a4,56
	lbu	a3,45(a5)
	andi	a3,a3,0
	or	a4,a3,a4
	sb	a4,45(a5)
	.loc 1 1244 37
	ld	a5,-96(s0)
	ld	a4,48(a5)
	.loc 1 1244 25
	ld	a5,-40(s0)
	andi	a3,a4,255
	lbu	a2,22(a5)
	andi	a2,a2,0
	or	a3,a2,a3
	sb	a3,22(a5)
	srli	a3,a4,8
	andi	a3,a3,255
	lbu	a2,23(a5)
	andi	a2,a2,0
	or	a3,a2,a3
	sb	a3,23(a5)
	srli	a3,a4,16
	andi	a3,a3,255
	lbu	a2,24(a5)
	andi	a2,a2,0
	or	a3,a2,a3
	sb	a3,24(a5)
	srli	a3,a4,24
	andi	a3,a3,255
	lbu	a2,25(a5)
	andi	a2,a2,0
	or	a3,a2,a3
	sb	a3,25(a5)
	srli	a3,a4,32
	andi	a3,a3,255
	lbu	a2,26(a5)
	andi	a2,a2,0
	or	a3,a2,a3
	sb	a3,26(a5)
	srli	a3,a4,40
	andi	a3,a3,255
	lbu	a2,27(a5)
	andi	a2,a2,0
	or	a3,a2,a3
	sb	a3,27(a5)
	srli	a3,a4,48
	andi	a3,a3,255
	lbu	a2,28(a5)
	andi	a2,a2,0
	or	a3,a2,a3
	sb	a3,28(a5)
	srli	a4,a4,56
	lbu	a3,29(a5)
	andi	a3,a3,0
	or	a4,a3,a4
	sb	a4,29(a5)
	.loc 1 1246 10
	ld	a5,-40(s0)
	addi	a5,a5,46
	sd	a5,-40(s0)
.L164:
	.loc 1 1252 12
	ld	a5,-40(s0)
	sd	a5,-48(s0)
	.loc 1 1254 18
	ld	a5,-48(s0)
	li	a4,121
	sb	a4,0(a5)
	.loc 1 1255 22
	ld	a5,-48(s0)
	sb	zero,1(a5)
	j	.L165
.L157:
	.loc 1 1260 21
	li	a0,2
	call	AllocateZeroPool@plt
	sd	a0,-32(s0)
	.loc 1 1261 8
	ld	a5,-32(s0)
	bne	a5,zero,.L166
	.loc 1 1262 14
	li	a5,-1
	slli	a5,a5,63
	addi	a5,a5,9
	j	.L159
.L166:
	.loc 1 1265 12
	ld	a5,-32(s0)
	sd	a5,-48(s0)
	.loc 1 1266 18
	ld	a5,-48(s0)
	li	a4,121
	sb	a4,0(a5)
	.loc 1 1267 22
	ld	a5,-48(s0)
	sb	zero,1(a5)
.L165:
	.loc 1 1270 11
	ld	a5,-104(s0)
	ld	a4,-32(s0)
	sd	a4,0(a5)
	.loc 1 1272 10
	li	a5,0
.L159:
	.loc 1 1273 1
	mv	a0,a5
	ld	ra,104(sp)
	.cfi_restore 1
	ld	s0,96(sp)
	.cfi_restore 8
	.cfi_def_cfa 2, 112
	addi	sp,sp,112
	.cfi_def_cfa_offset 0
	jr	ra
	.cfi_endproc
.LFE13:
	.size	ConstructAcpiResourceRequestor, .-ConstructAcpiResourceRequestor
	.section	.text.GetResourceBase,"ax",@progbits
	.align	1
	.globl	GetResourceBase
	.type	GetResourceBase, @function
GetResourceBase:
.LFB14:
	.loc 1 1295 1
	.cfi_startproc
	addi	sp,sp,-96
	.cfi_def_cfa_offset 96
	sd	ra,88(sp)
	sd	s0,80(sp)
	.cfi_offset 1, -8
	.cfi_offset 8, -16
	addi	s0,sp,96
	.cfi_def_cfa 8, 0
	sd	a0,-56(s0)
	sd	a1,-64(s0)
	sd	a2,-72(s0)
	sd	a3,-80(s0)
	sd	a4,-88(s0)
	sd	a5,-96(s0)
	.loc 1 1302 11
	ld	a5,-64(s0)
	li	a4,-1
	sd	a4,0(a5)
	.loc 1 1303 14
	ld	a5,-72(s0)
	li	a4,-1
	sd	a4,0(a5)
	.loc 1 1304 15
	ld	a5,-80(s0)
	li	a4,-1
	sd	a4,0(a5)
	.loc 1 1305 14
	ld	a5,-88(s0)
	li	a4,-1
	sd	a4,0(a5)
	.loc 1 1306 15
	ld	a5,-96(s0)
	li	a4,-1
	sd	a4,0(a5)
	.loc 1 1308 8
	ld	a5,-56(s0)
	sd	a5,-24(s0)
	.loc 1 1310 9
	j	.L168
.L177:
	.loc 1 1311 9
	ld	a5,-24(s0)
	sd	a5,-32(s0)
	.loc 1 1312 15
	ld	a5,-32(s0)
	lbu	a4,30(a5)
	lbu	a3,31(a5)
	slli	a3,a3,8
	or	a4,a3,a4
	lbu	a3,32(a5)
	slli	a3,a3,16
	or	a4,a3,a4
	lbu	a3,33(a5)
	slli	a3,a3,24
	or	a4,a3,a4
	lbu	a3,34(a5)
	slli	a3,a3,32
	or	a4,a3,a4
	lbu	a3,35(a5)
	slli	a3,a3,40
	or	a4,a3,a4
	lbu	a3,36(a5)
	slli	a3,a3,48
	or	a4,a3,a4
	lbu	a5,37(a5)
	slli	a5,a5,56
	or	a5,a5,a4
	sd	a5,-40(s0)
	.loc 1 1314 8
	ld	a5,-40(s0)
	bne	a5,zero,.L169
	.loc 1 1315 18
	ld	a5,-32(s0)
	lbu	a5,3(a5)
	sext.w	a5,a5
	.loc 1 1315 7
	beq	a5,zero,.L170
	li	a4,1
	beq	a5,a4,.L171
	.loc 1 1351 11
	j	.L169
.L170:
	.loc 1 1324 18
	ld	a5,-32(s0)
	lbu	a4,6(a5)
	lbu	a3,7(a5)
	slli	a3,a3,8
	or	a4,a3,a4
	lbu	a3,8(a5)
	slli	a3,a3,16
	or	a4,a3,a4
	lbu	a3,9(a5)
	slli	a3,a3,24
	or	a4,a3,a4
	lbu	a3,10(a5)
	slli	a3,a3,32
	or	a4,a3,a4
	lbu	a3,11(a5)
	slli	a3,a3,40
	or	a4,a3,a4
	lbu	a3,12(a5)
	slli	a3,a3,48
	or	a4,a3,a4
	lbu	a5,13(a5)
	slli	a5,a5,56
	or	a5,a5,a4
	mv	a4,a5
	.loc 1 1324 14
	li	a5,32
	bne	a4,a5,.L173
	.loc 1 1325 21
	ld	a5,-32(s0)
	lbu	a5,5(a5)
	.loc 1 1325 36
	sext.w	a5,a5
	andi	a5,a5,6
	sext.w	a5,a5
	.loc 1 1325 16
	beq	a5,zero,.L174
	.loc 1 1326 32
	ld	a5,-32(s0)
	lbu	a4,14(a5)
	lbu	a3,15(a5)
	slli	a3,a3,8
	or	a4,a3,a4
	lbu	a3,16(a5)
	slli	a3,a3,16
	or	a4,a3,a4
	lbu	a3,17(a5)
	slli	a3,a3,24
	or	a4,a3,a4
	lbu	a3,18(a5)
	slli	a3,a3,32
	or	a4,a3,a4
	lbu	a3,19(a5)
	slli	a3,a3,40
	or	a4,a3,a4
	lbu	a3,20(a5)
	slli	a3,a3,48
	or	a4,a3,a4
	lbu	a5,21(a5)
	slli	a5,a5,56
	or	a5,a5,a4
	mv	a4,a5
	.loc 1 1326 27
	ld	a5,-80(s0)
	sd	a4,0(a5)
	j	.L173
.L174:
	.loc 1 1328 31
	ld	a5,-32(s0)
	lbu	a4,14(a5)
	lbu	a3,15(a5)
	slli	a3,a3,8
	or	a4,a3,a4
	lbu	a3,16(a5)
	slli	a3,a3,16
	or	a4,a3,a4
	lbu	a3,17(a5)
	slli	a3,a3,24
	or	a4,a3,a4
	lbu	a3,18(a5)
	slli	a3,a3,32
	or	a4,a3,a4
	lbu	a3,19(a5)
	slli	a3,a3,40
	or	a4,a3,a4
	lbu	a3,20(a5)
	slli	a3,a3,48
	or	a4,a3,a4
	lbu	a5,21(a5)
	slli	a5,a5,56
	or	a5,a5,a4
	mv	a4,a5
	.loc 1 1328 26
	ld	a5,-72(s0)
	sd	a4,0(a5)
.L173:
	.loc 1 1332 18
	ld	a5,-32(s0)
	lbu	a4,6(a5)
	lbu	a3,7(a5)
	slli	a3,a3,8
	or	a4,a3,a4
	lbu	a3,8(a5)
	slli	a3,a3,16
	or	a4,a3,a4
	lbu	a3,9(a5)
	slli	a3,a3,24
	or	a4,a3,a4
	lbu	a3,10(a5)
	slli	a3,a3,32
	or	a4,a3,a4
	lbu	a3,11(a5)
	slli	a3,a3,40
	or	a4,a3,a4
	lbu	a3,12(a5)
	slli	a3,a3,48
	or	a4,a3,a4
	lbu	a5,13(a5)
	slli	a5,a5,56
	or	a5,a5,a4
	mv	a4,a5
	.loc 1 1332 14
	li	a5,64
	bne	a4,a5,.L178
	.loc 1 1333 21
	ld	a5,-32(s0)
	lbu	a5,5(a5)
	.loc 1 1333 36
	sext.w	a5,a5
	andi	a5,a5,6
	sext.w	a5,a5
	.loc 1 1333 16
	beq	a5,zero,.L176
	.loc 1 1334 32
	ld	a5,-32(s0)
	lbu	a4,14(a5)
	lbu	a3,15(a5)
	slli	a3,a3,8
	or	a4,a3,a4
	lbu	a3,16(a5)
	slli	a3,a3,16
	or	a4,a3,a4
	lbu	a3,17(a5)
	slli	a3,a3,24
	or	a4,a3,a4
	lbu	a3,18(a5)
	slli	a3,a3,32
	or	a4,a3,a4
	lbu	a3,19(a5)
	slli	a3,a3,40
	or	a4,a3,a4
	lbu	a3,20(a5)
	slli	a3,a3,48
	or	a4,a3,a4
	lbu	a5,21(a5)
	slli	a5,a5,56
	or	a5,a5,a4
	mv	a4,a5
	.loc 1 1334 27
	ld	a5,-96(s0)
	sd	a4,0(a5)
	.loc 1 1340 11
	j	.L178
.L176:
	.loc 1 1336 31
	ld	a5,-32(s0)
	lbu	a4,14(a5)
	lbu	a3,15(a5)
	slli	a3,a3,8
	or	a4,a3,a4
	lbu	a3,16(a5)
	slli	a3,a3,16
	or	a4,a3,a4
	lbu	a3,17(a5)
	slli	a3,a3,24
	or	a4,a3,a4
	lbu	a3,18(a5)
	slli	a3,a3,32
	or	a4,a3,a4
	lbu	a3,19(a5)
	slli	a3,a3,40
	or	a4,a3,a4
	lbu	a3,20(a5)
	slli	a3,a3,48
	or	a4,a3,a4
	lbu	a5,21(a5)
	slli	a5,a5,56
	or	a5,a5,a4
	mv	a4,a5
	.loc 1 1336 26
	ld	a5,-88(s0)
	sd	a4,0(a5)
	.loc 1 1340 11
	j	.L178
.L171:
	.loc 1 1347 24
	ld	a5,-32(s0)
	lbu	a4,14(a5)
	lbu	a3,15(a5)
	slli	a3,a3,8
	or	a4,a3,a4
	lbu	a3,16(a5)
	slli	a3,a3,16
	or	a4,a3,a4
	lbu	a3,17(a5)
	slli	a3,a3,24
	or	a4,a3,a4
	lbu	a3,18(a5)
	slli	a3,a3,32
	or	a4,a3,a4
	lbu	a3,19(a5)
	slli	a3,a3,40
	or	a4,a3,a4
	lbu	a3,20(a5)
	slli	a3,a3,48
	or	a4,a3,a4
	lbu	a5,21(a5)
	slli	a5,a5,56
	or	a5,a5,a4
	mv	a4,a5
	.loc 1 1347 19
	ld	a5,-64(s0)
	sd	a4,0(a5)
	.loc 1 1348 11
	j	.L169
.L178:
	.loc 1 1340 11
	nop
.L169:
	.loc 1 1362 10
	ld	a5,-24(s0)
	addi	a5,a5,46
	sd	a5,-24(s0)
.L168:
	.loc 1 1310 10
	ld	a5,-24(s0)
	lbu	a5,0(a5)
	.loc 1 1310 16
	mv	a4,a5
	li	a5,138
	beq	a4,a5,.L177
	.loc 1 1364 1
	nop
	nop
	ld	ra,88(sp)
	.cfi_restore 1
	ld	s0,80(sp)
	.cfi_restore 8
	.cfi_def_cfa 2, 96
	addi	sp,sp,96
	.cfi_def_cfa_offset 0
	jr	ra
	.cfi_endproc
.LFE14:
	.size	GetResourceBase, .-GetResourceBase
	.section	.text.PciBridgeEnumerator,"ax",@progbits
	.align	1
	.globl	PciBridgeEnumerator
	.type	PciBridgeEnumerator, @function
PciBridgeEnumerator:
.LFB15:
	.loc 1 1380 1
	.cfi_startproc
	addi	sp,sp,-64
	.cfi_def_cfa_offset 64
	sd	ra,56(sp)
	sd	s0,48(sp)
	.cfi_offset 1, -8
	.cfi_offset 8, -16
	addi	s0,sp,64
	.cfi_def_cfa 8, 0
	sd	a0,-56(s0)
	.loc 1 1386 16
	sb	zero,-33(s0)
	.loc 1 1387 18
	sb	zero,-34(s0)
	.loc 1 1388 9
	ld	a5,-56(s0)
	addi	a5,a5,16
	sd	a5,-24(s0)
	.loc 1 1389 22
	ld	a5,-24(s0)
	ld	a5,48(a5)
	.loc 1 1389 12
	addi	a4,s0,-34
	li	a3,1
	li	a2,25
	li	a1,0
	ld	a0,-24(s0)
	jalr	a5
.LVL9:
	sd	a0,-32(s0)
	.loc 1 1391 34
	ld	a5,-32(s0)
	.loc 1 1391 6
	bge	a5,zero,.L180
	.loc 1 1392 12
	ld	a5,-32(s0)
	j	.L186
.L180:
	.loc 1 1395 12
	lbu	a5,-34(s0)
	addi	a4,s0,-33
	mv	a2,a4
	mv	a1,a5
	ld	a0,-56(s0)
	call	PciAssignBusNumber
	sd	a0,-32(s0)
	.loc 1 1401 34
	ld	a5,-32(s0)
	.loc 1 1401 6
	bge	a5,zero,.L182
	.loc 1 1402 12
	ld	a5,-32(s0)
	j	.L186
.L182:
	.loc 1 1405 12
	lbu	a5,-34(s0)
	mv	a1,a5
	ld	a0,-56(s0)
	call	PciPciDeviceInfoCollector@plt
	sd	a0,-32(s0)
	.loc 1 1407 34
	ld	a5,-32(s0)
	.loc 1 1407 6
	bge	a5,zero,.L183
	.loc 1 1408 12
	ld	a5,-32(s0)
	j	.L186
.L183:
	.loc 1 1411 12
	ld	a0,-56(s0)
	call	PciBridgeResourceAllocator
	sd	a0,-32(s0)
	.loc 1 1413 34
	ld	a5,-32(s0)
	.loc 1 1413 6
	bge	a5,zero,.L184
	.loc 1 1414 12
	ld	a5,-32(s0)
	j	.L186
.L184:
	.loc 1 1417 12
	ld	a0,-56(s0)
	call	DetermineDeviceAttribute@plt
	sd	a0,-32(s0)
	.loc 1 1419 34
	ld	a5,-32(s0)
	.loc 1 1419 6
	bge	a5,zero,.L185
	.loc 1 1420 12
	ld	a5,-32(s0)
	j	.L186
.L185:
	.loc 1 1423 10
	li	a5,0
.L186:
	.loc 1 1424 1
	mv	a0,a5
	ld	ra,56(sp)
	.cfi_restore 1
	ld	s0,48(sp)
	.cfi_restore 8
	.cfi_def_cfa 2, 64
	addi	sp,sp,64
	.cfi_def_cfa_offset 0
	jr	ra
	.cfi_endproc
.LFE15:
	.size	PciBridgeEnumerator, .-PciBridgeEnumerator
	.section	.text.PciBridgeResourceAllocator,"ax",@progbits
	.align	1
	.globl	PciBridgeResourceAllocator
	.type	PciBridgeResourceAllocator, @function
PciBridgeResourceAllocator:
.LFB16:
	.loc 1 1439 1
	.cfi_startproc
	addi	sp,sp,-128
	.cfi_def_cfa_offset 128
	sd	ra,120(sp)
	sd	s0,112(sp)
	.cfi_offset 1, -8
	.cfi_offset 8, -16
	addi	s0,sp,128
	.cfi_def_cfa 8, 0
	sd	a0,-120(s0)
	.loc 1 1455 22
	ld	a5,-120(s0)
	lhu	a5,832(a5)
	.loc 1 1452 14
	mv	a2,a5
	li	a5,0
	li	a4,1
	li	a3,0
	li	a1,0
	ld	a0,-120(s0)
	call	CreateResourceNode@plt
	sd	a0,-24(s0)
	.loc 1 1461 17
	li	a5,0
	li	a4,3
	li	a3,0
	li	a2,1048576
	addi	a2,a2,-1
	li	a1,0
	ld	a0,-120(s0)
	call	CreateResourceNode@plt
	sd	a0,-32(s0)
	.loc 1 1470 18
	li	a5,0
	li	a4,4
	li	a3,0
	li	a2,1048576
	addi	a2,a2,-1
	li	a1,0
	ld	a0,-120(s0)
	call	CreateResourceNode@plt
	sd	a0,-40(s0)
	.loc 1 1479 17
	li	a5,0
	li	a4,5
	li	a3,0
	li	a2,1048576
	addi	a2,a2,-1
	li	a1,0
	ld	a0,-120(s0)
	call	CreateResourceNode@plt
	sd	a0,-48(s0)
	.loc 1 1488 18
	li	a5,0
	li	a4,6
	li	a3,0
	li	a2,1048576
	addi	a2,a2,-1
	li	a1,0
	ld	a0,-120(s0)
	call	CreateResourceNode@plt
	sd	a0,-56(s0)
	.loc 1 1500 3
	ld	a5,-56(s0)
	ld	a4,-48(s0)
	ld	a3,-40(s0)
	ld	a2,-32(s0)
	ld	a1,-24(s0)
	ld	a0,-120(s0)
	call	CreateResourceMap@plt
	.loc 1 1509 12
	addi	a5,s0,-104
	addi	a4,s0,-96
	addi	a3,s0,-88
	addi	a2,s0,-80
	addi	a1,s0,-72
	ld	a0,-120(s0)
	call	GetResourceBaseFromBridge
	sd	a0,-64(s0)
	.loc 1 1518 34
	ld	a5,-64(s0)
	.loc 1 1518 6
	bge	a5,zero,.L188
	.loc 1 1519 12
	ld	a5,-64(s0)
	j	.L190
.L188:
	.loc 1 1525 3
	ld	a5,-72(s0)
	ld	a1,-24(s0)
	mv	a0,a5
	call	ProgramResource@plt
	.loc 1 1533 3
	ld	a5,-80(s0)
	ld	a1,-32(s0)
	mv	a0,a5
	call	ProgramResource@plt
	.loc 1 1541 3
	ld	a5,-88(s0)
	ld	a1,-40(s0)
	mv	a0,a5
	call	ProgramResource@plt
	.loc 1 1549 3
	ld	a5,-96(s0)
	ld	a1,-48(s0)
	mv	a0,a5
	call	ProgramResource@plt
	.loc 1 1557 3
	ld	a5,-104(s0)
	ld	a1,-56(s0)
	mv	a0,a5
	call	ProgramResource@plt
	.loc 1 1562 3
	ld	a0,-24(s0)
	call	DestroyResourceTree@plt
	.loc 1 1563 3
	ld	a0,-32(s0)
	call	DestroyResourceTree@plt
	.loc 1 1564 3
	ld	a0,-40(s0)
	call	DestroyResourceTree@plt
	.loc 1 1565 3
	ld	a0,-56(s0)
	call	DestroyResourceTree@plt
	.loc 1 1566 3
	ld	a0,-48(s0)
	call	DestroyResourceTree@plt
	.loc 1 1568 6
	la	a5,gBS
	ld	a5,0(a5)
	ld	a5,72(a5)
	.loc 1 1568 3
	ld	a0,-24(s0)
	jalr	a5
.LVL10:
	.loc 1 1569 6
	la	a5,gBS
	ld	a5,0(a5)
	ld	a5,72(a5)
	.loc 1 1569 3
	ld	a0,-32(s0)
	jalr	a5
.LVL11:
	.loc 1 1570 6
	la	a5,gBS
	ld	a5,0(a5)
	ld	a5,72(a5)
	.loc 1 1570 3
	ld	a0,-40(s0)
	jalr	a5
.LVL12:
	.loc 1 1571 6
	la	a5,gBS
	ld	a5,0(a5)
	ld	a5,72(a5)
	.loc 1 1571 3
	ld	a0,-56(s0)
	jalr	a5
.LVL13:
	.loc 1 1572 6
	la	a5,gBS
	ld	a5,0(a5)
	ld	a5,72(a5)
	.loc 1 1572 3
	ld	a0,-48(s0)
	jalr	a5
.LVL14:
	.loc 1 1574 10
	li	a5,0
.L190:
	.loc 1 1575 1
	mv	a0,a5
	ld	ra,120(sp)
	.cfi_restore 1
	ld	s0,112(sp)
	.cfi_restore 8
	.cfi_def_cfa 2, 128
	addi	sp,sp,128
	.cfi_def_cfa_offset 0
	jr	ra
	.cfi_endproc
.LFE16:
	.size	PciBridgeResourceAllocator, .-PciBridgeResourceAllocator
	.section	.text.GetResourceBaseFromBridge,"ax",@progbits
	.align	1
	.globl	GetResourceBaseFromBridge
	.type	GetResourceBaseFromBridge, @function
GetResourceBaseFromBridge:
.LFB17:
	.loc 1 1600 1
	.cfi_startproc
	addi	sp,sp,-64
	.cfi_def_cfa_offset 64
	sd	ra,56(sp)
	sd	s0,48(sp)
	.cfi_offset 1, -8
	.cfi_offset 8, -16
	addi	s0,sp,64
	.cfi_def_cfa 8, 0
	sd	a0,-24(s0)
	sd	a1,-32(s0)
	sd	a2,-40(s0)
	sd	a3,-48(s0)
	sd	a4,-56(s0)
	sd	a5,-64(s0)
	.loc 1 1601 14
	ld	a5,-24(s0)
	lbu	a5,513(a5)
	.loc 1 1601 6
	bne	a5,zero,.L192
	.loc 1 1602 12
	li	a5,-1
	slli	a5,a5,63
	addi	a5,a5,9
	j	.L193
.L192:
	.loc 1 1605 11
	la	a5,gAllOne
	ld	a4,0(a5)
	ld	a5,-32(s0)
	sd	a4,0(a5)
	.loc 1 1606 14
	la	a5,gAllOne
	ld	a4,0(a5)
	ld	a5,-40(s0)
	sd	a4,0(a5)
	.loc 1 1607 15
	la	a5,gAllOne
	ld	a4,0(a5)
	ld	a5,-48(s0)
	sd	a4,0(a5)
	.loc 1 1608 14
	la	a5,gAllOne
	ld	a4,0(a5)
	ld	a5,-56(s0)
	sd	a4,0(a5)
	.loc 1 1609 15
	la	a5,gAllOne
	ld	a4,0(a5)
	ld	a5,-64(s0)
	sd	a4,0(a5)
	.loc 1 1611 28
	ld	a5,-24(s0)
	lbu	a5,238(a5)
	.loc 1 1611 40
	sext.w	a5,a5
	andi	a5,a5,127
	sext.w	a4,a5
	.loc 1 1611 6
	li	a5,1
	bne	a4,a5,.L194
	.loc 1 1612 26
	ld	a5,-24(s0)
	ld	a5,368(a5)
	.loc 1 1612 8
	beq	a5,zero,.L195
	.loc 1 1613 34
	ld	a5,-24(s0)
	ld	a4,360(a5)
	.loc 1 1613 15
	ld	a5,-32(s0)
	sd	a4,0(a5)
.L195:
	.loc 1 1616 26
	ld	a5,-24(s0)
	ld	a5,400(a5)
	.loc 1 1616 8
	beq	a5,zero,.L196
	.loc 1 1617 37
	ld	a5,-24(s0)
	ld	a4,392(a5)
	.loc 1 1617 18
	ld	a5,-40(s0)
	sd	a4,0(a5)
.L196:
	.loc 1 1620 26
	ld	a5,-24(s0)
	ld	a5,432(a5)
	.loc 1 1620 8
	beq	a5,zero,.L197
	.loc 1 1621 38
	ld	a5,-24(s0)
	ld	a4,424(a5)
	.loc 1 1621 19
	ld	a5,-48(s0)
	sd	a4,0(a5)
.L197:
	.loc 1 1624 26
	ld	a5,-24(s0)
	ld	a5,464(a5)
	.loc 1 1624 8
	beq	a5,zero,.L198
	.loc 1 1625 38
	ld	a5,-24(s0)
	ld	a4,456(a5)
	.loc 1 1625 19
	ld	a5,-64(s0)
	sd	a4,0(a5)
	j	.L194
.L198:
	.loc 1 1627 19
	la	a5,gAllOne
	ld	a4,0(a5)
	ld	a5,-64(s0)
	sd	a4,0(a5)
.L194:
	.loc 1 1631 28
	ld	a5,-24(s0)
	lbu	a5,238(a5)
	.loc 1 1631 40
	sext.w	a5,a5
	andi	a5,a5,127
	sext.w	a4,a5
	.loc 1 1631 6
	li	a5,2
	bne	a4,a5,.L199
	.loc 1 1632 26
	ld	a5,-24(s0)
	ld	a5,400(a5)
	.loc 1 1632 8
	beq	a5,zero,.L200
	.loc 1 1633 34
	ld	a5,-24(s0)
	ld	a4,392(a5)
	.loc 1 1633 15
	ld	a5,-32(s0)
	sd	a4,0(a5)
	j	.L201
.L200:
	.loc 1 1635 28
	ld	a5,-24(s0)
	ld	a5,432(a5)
	.loc 1 1635 10
	beq	a5,zero,.L201
	.loc 1 1636 36
	ld	a5,-24(s0)
	ld	a4,424(a5)
	.loc 1 1636 17
	ld	a5,-32(s0)
	sd	a4,0(a5)
.L201:
	.loc 1 1640 26
	ld	a5,-24(s0)
	ld	a5,336(a5)
	.loc 1 1640 8
	beq	a5,zero,.L202
	.loc 1 1641 28
	ld	a5,-24(s0)
	lw	a4,352(a5)
	.loc 1 1641 10
	li	a5,4
	bne	a4,a5,.L203
	.loc 1 1642 40
	ld	a5,-24(s0)
	ld	a4,328(a5)
	.loc 1 1642 21
	ld	a5,-48(s0)
	sd	a4,0(a5)
.L203:
	.loc 1 1645 28
	ld	a5,-24(s0)
	lw	a4,352(a5)
	.loc 1 1645 10
	li	a5,3
	bne	a4,a5,.L202
	.loc 1 1646 39
	ld	a5,-24(s0)
	ld	a4,328(a5)
	.loc 1 1646 20
	ld	a5,-40(s0)
	sd	a4,0(a5)
.L202:
	.loc 1 1650 26
	ld	a5,-24(s0)
	ld	a5,368(a5)
	.loc 1 1650 8
	beq	a5,zero,.L199
	.loc 1 1651 28
	ld	a5,-24(s0)
	lw	a4,384(a5)
	.loc 1 1651 10
	li	a5,4
	bne	a4,a5,.L204
	.loc 1 1652 40
	ld	a5,-24(s0)
	ld	a4,360(a5)
	.loc 1 1652 21
	ld	a5,-48(s0)
	sd	a4,0(a5)
.L204:
	.loc 1 1655 28
	ld	a5,-24(s0)
	lw	a4,384(a5)
	.loc 1 1655 10
	li	a5,3
	bne	a4,a5,.L199
	.loc 1 1656 39
	ld	a5,-24(s0)
	ld	a4,360(a5)
	.loc 1 1656 20
	ld	a5,-40(s0)
	sd	a4,0(a5)
.L199:
	.loc 1 1661 10
	li	a5,0
.L193:
	.loc 1 1662 1
	mv	a0,a5
	ld	ra,56(sp)
	.cfi_restore 1
	ld	s0,48(sp)
	.cfi_restore 8
	.cfi_def_cfa 2, 64
	addi	sp,sp,64
	.cfi_def_cfa_offset 0
	jr	ra
	.cfi_endproc
.LFE17:
	.size	GetResourceBaseFromBridge, .-GetResourceBaseFromBridge
	.section	.text.NotifyPhase,"ax",@progbits
	.align	1
	.globl	NotifyPhase
	.type	NotifyPhase, @function
NotifyPhase:
.LFB18:
	.loc 1 1733 1
	.cfi_startproc
	addi	sp,sp,-64
	.cfi_def_cfa_offset 64
	sd	ra,56(sp)
	sd	s0,48(sp)
	.cfi_offset 1, -8
	.cfi_offset 8, -16
	addi	s0,sp,64
	.cfi_def_cfa 8, 0
	sd	a0,-56(s0)
	mv	a5,a1
	sw	a5,-60(s0)
	.loc 1 1739 20
	sd	zero,-24(s0)
	.loc 1 1740 20
	sd	zero,-40(s0)
	.loc 1 1741 28
	la	a5,gPciPlatformProtocol
	ld	a5,0(a5)
	.loc 1 1741 6
	beq	a5,zero,.L206
	.loc 1 1745 16
	ld	a5,-56(s0)
	ld	a5,8(a5)
	.loc 1 1745 5
	addi	a4,s0,-40
	mv	a1,a4
	ld	a0,-56(s0)
	jalr	a5
.LVL15:
	.loc 1 1750 17
	la	a5,gBS
	ld	a5,0(a5)
	ld	a5,152(a5)
	.loc 1 1750 14
	ld	a4,-40(s0)
	addi	a3,s0,-48
	mv	a2,a3
	la	a1,gEfiPciRootBridgeIoProtocolGuid
	mv	a0,a4
	jalr	a5
.LVL16:
	sd	a0,-32(s0)
	.loc 1 1756 36
	ld	a5,-32(s0)
	.loc 1 1756 8
	bge	a5,zero,.L207
	.loc 1 1757 14
	li	a5,-1
	slli	a5,a5,63
	addi	a5,a5,14
	j	.L213
.L207:
	.loc 1 1760 39
	ld	a5,-48(s0)
	.loc 1 1760 22
	ld	a5,0(a5)
	sd	a5,-24(s0)
	.loc 1 1765 25
	la	a5,gPciPlatformProtocol
	ld	a5,0(a5)
	ld	a5,0(a5)
	.loc 1 1765 5
	la	a4,gPciPlatformProtocol
	ld	a4,0(a4)
	lw	a2,-60(s0)
	li	a3,0
	ld	a1,-24(s0)
	mv	a0,a4
	jalr	a5
.LVL17:
	j	.L209
.L206:
	.loc 1 1771 35
	la	a5,gPciOverrideProtocol
	ld	a5,0(a5)
	.loc 1 1771 13
	beq	a5,zero,.L209
	.loc 1 1775 16
	ld	a5,-56(s0)
	ld	a5,8(a5)
	.loc 1 1775 5
	addi	a4,s0,-40
	mv	a1,a4
	ld	a0,-56(s0)
	jalr	a5
.LVL18:
	.loc 1 1780 17
	la	a5,gBS
	ld	a5,0(a5)
	ld	a5,152(a5)
	.loc 1 1780 14
	ld	a4,-40(s0)
	addi	a3,s0,-48
	mv	a2,a3
	la	a1,gEfiPciRootBridgeIoProtocolGuid
	mv	a0,a4
	jalr	a5
.LVL19:
	sd	a0,-32(s0)
	.loc 1 1786 36
	ld	a5,-32(s0)
	.loc 1 1786 8
	bge	a5,zero,.L210
	.loc 1 1787 14
	li	a5,-1
	slli	a5,a5,63
	addi	a5,a5,14
	j	.L213
.L210:
	.loc 1 1790 39
	ld	a5,-48(s0)
	.loc 1 1790 22
	ld	a5,0(a5)
	sd	a5,-24(s0)
	.loc 1 1795 25
	la	a5,gPciOverrideProtocol
	ld	a5,0(a5)
	ld	a5,0(a5)
	.loc 1 1795 5
	la	a4,gPciOverrideProtocol
	ld	a4,0(a4)
	lw	a2,-60(s0)
	li	a3,0
	ld	a1,-24(s0)
	mv	a0,a4
	jalr	a5
.LVL20:
.L209:
	.loc 1 1803 23
	ld	a5,-56(s0)
	ld	a5,0(a5)
	.loc 1 1803 12
	lw	a4,-60(s0)
	mv	a1,a4
	ld	a0,-56(s0)
	jalr	a5
.LVL21:
	sd	a0,-32(s0)
	.loc 1 1808 28
	la	a5,gPciPlatformProtocol
	ld	a5,0(a5)
	.loc 1 1808 6
	beq	a5,zero,.L211
	.loc 1 1812 25
	la	a5,gPciPlatformProtocol
	ld	a5,0(a5)
	ld	a5,0(a5)
	.loc 1 1812 5
	la	a4,gPciPlatformProtocol
	ld	a4,0(a4)
	lw	a2,-60(s0)
	li	a3,1
	ld	a1,-24(s0)
	mv	a0,a4
	jalr	a5
.LVL22:
	j	.L212
.L211:
	.loc 1 1818 35
	la	a5,gPciOverrideProtocol
	ld	a5,0(a5)
	.loc 1 1818 13
	beq	a5,zero,.L212
	.loc 1 1822 25
	la	a5,gPciOverrideProtocol
	ld	a5,0(a5)
	ld	a5,0(a5)
	.loc 1 1822 5
	la	a4,gPciOverrideProtocol
	ld	a4,0(a4)
	lw	a2,-60(s0)
	li	a3,1
	ld	a1,-24(s0)
	mv	a0,a4
	jalr	a5
.LVL23:
.L212:
	.loc 1 1830 10
	ld	a5,-32(s0)
.L213:
	.loc 1 1831 1
	mv	a0,a5
	ld	ra,56(sp)
	.cfi_restore 1
	ld	s0,48(sp)
	.cfi_restore 8
	.cfi_def_cfa 2, 64
	addi	sp,sp,64
	.cfi_def_cfa_offset 0
	jr	ra
	.cfi_endproc
.LFE18:
	.size	NotifyPhase, .-NotifyPhase
	.section	.text.PreprocessController,"ax",@progbits
	.align	1
	.globl	PreprocessController
	.type	PreprocessController, @function
PreprocessController:
.LFB19:
	.loc 1 1865 1
	.cfi_startproc
	addi	sp,sp,-80
	.cfi_def_cfa_offset 80
	sd	ra,72(sp)
	sd	s0,64(sp)
	.cfi_offset 1, -8
	.cfi_offset 8, -16
	addi	s0,sp,80
	.cfi_def_cfa 8, 0
	sd	a0,-72(s0)
	mv	a5,a1
	sb	a5,-73(s0)
	mv	a5,a2
	sb	a5,-74(s0)
	mv	a5,a3
	sb	a5,-75(s0)
	mv	a5,a4
	sw	a5,-80(s0)
	.loc 1 1875 28
	ld	a5,-72(s0)
	ld	a5,208(a5)
	.loc 1 1875 20
	ld	a5,0(a5)
	sd	a5,-24(s0)
	.loc 1 1880 15
	la	a5,gBS
	ld	a5,0(a5)
	ld	a6,280(a5)
	.loc 1 1880 12
	addi	a2,s0,-56
	li	a5,2
	li	a4,0
	li	a3,0
	la	a1,gEfiPciHostBridgeResourceAllocationProtocolGuid
	ld	a0,-24(s0)
	jalr	a6
.LVL24:
	sd	a0,-32(s0)
	.loc 1 1889 34
	ld	a5,-32(s0)
	.loc 1 1889 6
	bge	a5,zero,.L217
	.loc 1 1890 12
	li	a5,-1
	slli	a5,a5,63
	addi	a5,a5,3
	j	.L223
.L218:
	.loc 1 1897 12
	ld	a5,-72(s0)
	ld	a5,488(a5)
	sd	a5,-72(s0)
.L217:
	.loc 1 1896 16
	ld	a5,-72(s0)
	ld	a5,488(a5)
	.loc 1 1896 25
	bne	a5,zero,.L218
	.loc 1 1900 20
	ld	a5,-72(s0)
	ld	a5,8(a5)
	sd	a5,-40(s0)
	.loc 1 1902 33
	sb	zero,-48(s0)
	.loc 1 1903 33
	lbu	a5,-75(s0)
	sb	a5,-47(s0)
	.loc 1 1904 31
	lbu	a5,-74(s0)
	sb	a5,-46(s0)
	.loc 1 1905 28
	lbu	a5,-73(s0)
	sb	a5,-45(s0)
	.loc 1 1906 41
	sw	zero,-44(s0)
	.loc 1 1908 28
	la	a5,gPciPlatformProtocol
	ld	a5,0(a5)
	.loc 1 1908 6
	beq	a5,zero,.L219
	.loc 1 1912 25
	la	a5,gPciPlatformProtocol
	ld	a5,0(a5)
	ld	a6,8(a5)
	.loc 1 1912 5
	la	a5,gPciPlatformProtocol
	ld	a0,0(a5)
	lw	a4,-80(s0)
	li	a5,0
	ld	a3,-48(s0)
	ld	a2,-40(s0)
	ld	a1,-24(s0)
	jalr	a6
.LVL25:
	j	.L220
.L219:
	.loc 1 1920 35
	la	a5,gPciOverrideProtocol
	ld	a5,0(a5)
	.loc 1 1920 13
	beq	a5,zero,.L220
	.loc 1 1924 25
	la	a5,gPciOverrideProtocol
	ld	a5,0(a5)
	ld	a6,8(a5)
	.loc 1 1924 5
	la	a5,gPciOverrideProtocol
	ld	a0,0(a5)
	lw	a4,-80(s0)
	li	a5,0
	ld	a3,-48(s0)
	ld	a2,-40(s0)
	ld	a1,-24(s0)
	jalr	a6
.LVL26:
.L220:
	.loc 1 1934 23
	ld	a5,-56(s0)
	ld	a5,56(a5)
	.loc 1 1934 12
	ld	a4,-56(s0)
	lw	a3,-80(s0)
	ld	a2,-48(s0)
	ld	a1,-40(s0)
	mv	a0,a4
	jalr	a5
.LVL27:
	sd	a0,-32(s0)
	.loc 1 1941 28
	la	a5,gPciPlatformProtocol
	ld	a5,0(a5)
	.loc 1 1941 6
	beq	a5,zero,.L221
	.loc 1 1945 25
	la	a5,gPciPlatformProtocol
	ld	a5,0(a5)
	ld	a6,8(a5)
	.loc 1 1945 5
	la	a5,gPciPlatformProtocol
	ld	a0,0(a5)
	lw	a4,-80(s0)
	li	a5,1
	ld	a3,-48(s0)
	ld	a2,-40(s0)
	ld	a1,-24(s0)
	jalr	a6
.LVL28:
	j	.L222
.L221:
	.loc 1 1953 35
	la	a5,gPciOverrideProtocol
	ld	a5,0(a5)
	.loc 1 1953 13
	beq	a5,zero,.L222
	.loc 1 1957 25
	la	a5,gPciOverrideProtocol
	ld	a5,0(a5)
	ld	a6,8(a5)
	.loc 1 1957 5
	la	a5,gPciOverrideProtocol
	ld	a0,0(a5)
	lw	a4,-80(s0)
	li	a5,1
	ld	a3,-48(s0)
	ld	a2,-40(s0)
	ld	a1,-24(s0)
	jalr	a6
.LVL29:
.L222:
	.loc 1 1967 10
	li	a5,0
.L223:
	.loc 1 1968 1
	mv	a0,a5
	ld	ra,72(sp)
	.cfi_restore 1
	ld	s0,64(sp)
	.cfi_restore 8
	.cfi_def_cfa 2, 80
	addi	sp,sp,80
	.cfi_def_cfa_offset 0
	jr	ra
	.cfi_endproc
.LFE19:
	.size	PreprocessController, .-PreprocessController
	.section	.text.PciHotPlugRequestNotify,"ax",@progbits
	.align	1
	.globl	PciHotPlugRequestNotify
	.type	PciHotPlugRequestNotify, @function
PciHotPlugRequestNotify:
.LFB20:
	.loc 1 2003 1
	.cfi_startproc
	addi	sp,sp,-112
	.cfi_def_cfa_offset 112
	sd	ra,104(sp)
	sd	s0,96(sp)
	.cfi_offset 1, -8
	.cfi_offset 8, -16
	addi	s0,sp,112
	.cfi_def_cfa 8, 0
	sd	a0,-72(s0)
	sd	a2,-88(s0)
	sd	a3,-96(s0)
	sd	a4,-104(s0)
	sd	a5,-112(s0)
	mv	a5,a1
	sw	a5,-76(s0)
	.loc 1 2014 6
	ld	a5,-88(s0)
	beq	a5,zero,.L225
	.loc 1 2014 36 discriminator 1
	ld	a5,-104(s0)
	bne	a5,zero,.L226
.L225:
	.loc 1 2015 12
	li	a5,-1
	slli	a5,a5,63
	addi	a5,a5,2
	j	.L246
.L226:
	.loc 1 2018 6
	lw	a5,-76(s0)
	sext.w	a5,a5
	beq	a5,zero,.L228
	.loc 1 2018 46 discriminator 1
	lw	a5,-76(s0)
	sext.w	a4,a5
	li	a5,1
	beq	a4,a5,.L228
	.loc 1 2019 12
	li	a5,-1
	slli	a5,a5,63
	addi	a5,a5,2
	j	.L246
.L228:
	.loc 1 2022 6
	lw	a5,-76(s0)
	sext.w	a5,a5
	bne	a5,zero,.L229
	.loc 1 2023 8
	ld	a5,-112(s0)
	bne	a5,zero,.L230
	.loc 1 2024 14
	li	a5,-1
	slli	a5,a5,63
	addi	a5,a5,2
	j	.L246
.L229:
	.loc 1 2026 13
	lw	a5,-76(s0)
	sext.w	a4,a5
	li	a5,1
	bne	a4,a5,.L230
	.loc 1 2026 60 discriminator 1
	ld	a5,-104(s0)
	lbu	a5,0(a5)
	.loc 1 2026 56 discriminator 1
	beq	a5,zero,.L230
	.loc 1 2027 8
	ld	a5,-112(s0)
	bne	a5,zero,.L230
	.loc 1 2028 14
	li	a5,-1
	slli	a5,a5,63
	addi	a5,a5,2
	j	.L246
.L230:
	.loc 1 2032 15
	la	a5,gBS
	ld	a5,0(a5)
	ld	a6,280(a5)
	.loc 1 2032 12
	la	a5,gPciBusDriverBinding
	ld	a3,40(a5)
	addi	a2,s0,-64
	li	a5,2
	ld	a4,-88(s0)
	la	a1,gEfiPciIoProtocolGuid
	ld	a0,-88(s0)
	jalr	a6
.LVL30:
	sd	a0,-48(s0)
	.loc 1 2041 34
	ld	a5,-48(s0)
	.loc 1 2041 6
	bge	a5,zero,.L231
	.loc 1 2042 12
	li	a5,-1
	slli	a5,a5,63
	addi	a5,a5,14
	j	.L246
.L231:
	.loc 1 2045 32
	ld	a5,-64(s0)
	.loc 1 2045 14
	addi	a5,a5,-16
	.loc 1 2045 114
	lw	a4,0(a5)
	.loc 1 2045 199
	li	a5,1869176832
	addi	a5,a5,880
	bne	a4,a5,.L232
	.loc 1 2045 220 discriminator 1
	ld	a5,-64(s0)
	.loc 1 2045 10 discriminator 1
	addi	a5,a5,-16
	sd	a5,-32(s0)
	j	.L233
.L232:
	.loc 1 2045 10 is_stmt 0 discriminator 2
	sd	zero,-32(s0)
.L233:
	.loc 1 2050 8 is_stmt 1
	ld	a5,-32(s0)
	sd	a5,-24(s0)
	.loc 1 2051 9
	j	.L234
.L235:
	.loc 1 2052 10
	ld	a5,-24(s0)
	ld	a5,488(a5)
	sd	a5,-24(s0)
.L234:
	.loc 1 2051 14
	ld	a5,-24(s0)
	ld	a5,488(a5)
	.loc 1 2051 23
	bne	a5,zero,.L235
	.loc 1 2055 20
	ld	a5,-24(s0)
	ld	a5,8(a5)
	sd	a5,-56(s0)
	.loc 1 2057 6
	lw	a5,-76(s0)
	sext.w	a5,a5
	bne	a5,zero,.L236
	.loc 1 2061 6
	call	ReportProgressCodeEnabled@plt
	mv	a5,a0
	.loc 1 2061 183 discriminator 1
	beq	a5,zero,.L237
	.loc 1 2061 169 discriminator 4
	ld	a5,-24(s0)
	ld	a5,200(a5)
	.loc 1 2061 82 discriminator 4
	mv	a2,a5
	li	a5,33619968
	addi	a1,a5,6
	li	a0,1
	call	ReportStatusCodeWithDevicePath@plt
	.loc 1 2061 183
	j	.L238
.L237:
	.loc 1 2061 186 discriminator 5
	call	ReportErrorCodeEnabled@plt
	.loc 1 2061 363 discriminator 9
	call	ReportDebugCodeEnabled@plt
.L238:
	.loc 1 2067 8
	ld	a5,-104(s0)
	beq	a5,zero,.L239
	.loc 1 2068 25
	ld	a5,-104(s0)
	sb	zero,0(a5)
.L239:
	.loc 1 2071 22
	ld	a5,-32(s0)
	addi	a5,a5,496
	.loc 1 2071 9
	mv	a0,a5
	call	IsListEmpty@plt
	mv	a5,a0
	.loc 1 2071 8 discriminator 1
	beq	a5,zero,.L240
	.loc 1 2072 16
	ld	a0,-32(s0)
	call	PciBridgeEnumerator
	sd	a0,-48(s0)
	.loc 1 2074 38
	ld	a5,-48(s0)
	.loc 1 2074 10
	bge	a5,zero,.L240
	.loc 1 2075 16
	ld	a5,-48(s0)
	j	.L246
.L240:
	.loc 1 2079 14
	ld	a4,-112(s0)
	ld	a3,-104(s0)
	ld	a2,-96(s0)
	ld	a1,-32(s0)
	ld	a0,-56(s0)
	call	StartPciDevicesOnBridge@plt
	sd	a0,-48(s0)
	.loc 1 2087 12
	ld	a5,-48(s0)
	j	.L246
.L236:
	.loc 1 2090 6
	lw	a5,-76(s0)
	sext.w	a4,a5
	li	a5,1
	bne	a4,a5,.L241
	.loc 1 2091 9
	ld	a5,-104(s0)
	lbu	a5,0(a5)
	.loc 1 2091 8
	bne	a5,zero,.L242
	.loc 1 2095 7
	ld	a1,-32(s0)
	ld	a0,-56(s0)
	call	RemoveAllPciDeviceOnBridge@plt
	.loc 1 2096 14
	li	a5,0
	j	.L246
.L242:
	.loc 1 2099 16
	sd	zero,-40(s0)
	.loc 1 2099 5
	j	.L243
.L245:
	.loc 1 2103 72
	ld	a5,-40(s0)
	slli	a5,a5,3
	ld	a4,-112(s0)
	add	a5,a4,a5
	.loc 1 2103 16
	ld	a5,0(a5)
	mv	a1,a5
	ld	a0,-56(s0)
	call	DeRegisterPciDevice@plt
	sd	a0,-48(s0)
	.loc 1 2105 38
	ld	a5,-48(s0)
	.loc 1 2105 10
	bge	a5,zero,.L244
	.loc 1 2106 16
	ld	a5,-48(s0)
	j	.L246
.L244:
	.loc 1 2099 53 discriminator 2
	ld	a5,-40(s0)
	addi	a5,a5,1
	sd	a5,-40(s0)
.L243:
	.loc 1 2099 29 discriminator 1
	ld	a5,-104(s0)
	lbu	a5,0(a5)
	mv	a4,a5
	.loc 1 2099 27 discriminator 1
	ld	a5,-40(s0)
	bltu	a5,a4,.L245
	.loc 1 2113 12
	li	a5,0
	j	.L246
.L241:
	.loc 1 2116 10
	li	a5,0
.L246:
	.loc 1 2117 1
	mv	a0,a5
	ld	ra,104(sp)
	.cfi_restore 1
	ld	s0,96(sp)
	.cfi_restore 8
	.cfi_def_cfa 2, 112
	addi	sp,sp,112
	.cfi_def_cfa_offset 0
	jr	ra
	.cfi_endproc
.LFE20:
	.size	PciHotPlugRequestNotify, .-PciHotPlugRequestNotify
	.section	.text.SearchHostBridgeHandle,"ax",@progbits
	.align	1
	.globl	SearchHostBridgeHandle
	.type	SearchHostBridgeHandle, @function
SearchHostBridgeHandle:
.LFB21:
	.loc 1 2132 1
	.cfi_startproc
	addi	sp,sp,-64
	.cfi_def_cfa_offset 64
	sd	ra,56(sp)
	sd	s0,48(sp)
	.cfi_offset 1, -8
	.cfi_offset 8, -16
	addi	s0,sp,64
	.cfi_def_cfa 8, 0
	sd	a0,-56(s0)
	.loc 1 2141 15
	la	a5,gBS
	ld	a5,0(a5)
	ld	a6,280(a5)
	.loc 1 2141 12
	la	a5,gPciBusDriverBinding
	ld	a3,40(a5)
	addi	a2,s0,-48
	li	a5,2
	ld	a4,-56(s0)
	la	a1,gEfiPciRootBridgeIoProtocolGuid
	ld	a0,-56(s0)
	jalr	a6
.LVL31:
	sd	a0,-32(s0)
	.loc 1 2150 34
	ld	a5,-32(s0)
	.loc 1 2150 6
	bge	a5,zero,.L248
	.loc 1 2151 12
	li	a5,0
	j	.L253
.L248:
	.loc 1 2154 37
	ld	a5,-48(s0)
	.loc 1 2154 20
	ld	a5,0(a5)
	sd	a5,-40(s0)
	.loc 1 2155 14
	sd	zero,-24(s0)
	.loc 1 2155 3
	j	.L250
.L252:
	.loc 1 2156 49
	la	a4,gPciHostBrigeHandles
	ld	a5,-24(s0)
	slli	a5,a5,3
	add	a5,a4,a5
	ld	a5,0(a5)
	.loc 1 2156 8
	ld	a4,-40(s0)
	bne	a4,a5,.L251
	.loc 1 2157 14
	li	a5,1
	j	.L253
.L251:
	.loc 1 2155 54 discriminator 2
	ld	a5,-24(s0)
	addi	a5,a5,1
	sd	a5,-24(s0)
.L250:
	.loc 1 2155 25 discriminator 1
	la	a5,gPciHostBridgeNumber
	ld	a5,0(a5)
	ld	a4,-24(s0)
	bltu	a4,a5,.L252
	.loc 1 2161 10
	li	a5,0
.L253:
	.loc 1 2162 1
	mv	a0,a5
	ld	ra,56(sp)
	.cfi_restore 1
	ld	s0,48(sp)
	.cfi_restore 8
	.cfi_def_cfa 2, 64
	addi	sp,sp,64
	.cfi_def_cfa_offset 0
	jr	ra
	.cfi_endproc
.LFE21:
	.size	SearchHostBridgeHandle, .-SearchHostBridgeHandle
	.section	.text.AddHostBridgeEnumerator,"ax",@progbits
	.align	1
	.globl	AddHostBridgeEnumerator
	.type	AddHostBridgeEnumerator, @function
AddHostBridgeEnumerator:
.LFB22:
	.loc 1 2178 1
	.cfi_startproc
	addi	sp,sp,-48
	.cfi_def_cfa_offset 48
	sd	ra,40(sp)
	sd	s0,32(sp)
	.cfi_offset 1, -8
	.cfi_offset 8, -16
	addi	s0,sp,48
	.cfi_def_cfa 8, 0
	sd	a0,-40(s0)
	.loc 1 2181 6
	ld	a5,-40(s0)
	bne	a5,zero,.L255
	.loc 1 2182 12
	li	a5,-1
	slli	a5,a5,63
	addi	a5,a5,21
	j	.L256
.L255:
	.loc 1 2185 14
	sd	zero,-24(s0)
	.loc 1 2185 3
	j	.L257
.L259:
	.loc 1 2186 49
	la	a4,gPciHostBrigeHandles
	ld	a5,-24(s0)
	slli	a5,a5,3
	add	a5,a4,a5
	ld	a5,0(a5)
	.loc 1 2186 8
	ld	a4,-40(s0)
	bne	a4,a5,.L258
	.loc 1 2187 14
	li	a5,-1
	slli	a5,a5,63
	addi	a5,a5,21
	j	.L256
.L258:
	.loc 1 2185 54 discriminator 2
	ld	a5,-24(s0)
	addi	a5,a5,1
	sd	a5,-24(s0)
.L257:
	.loc 1 2185 25 discriminator 1
	la	a5,gPciHostBridgeNumber
	ld	a5,0(a5)
	ld	a4,-24(s0)
	bltu	a4,a5,.L259
	.loc 1 2191 6
	ld	a4,-24(s0)
	li	a5,15
	bgtu	a4,a5,.L260
	.loc 1 2192 33
	la	a4,gPciHostBrigeHandles
	ld	a5,-24(s0)
	slli	a5,a5,3
	add	a5,a4,a5
	ld	a4,-40(s0)
	sd	a4,0(a5)
	.loc 1 2193 25
	la	a5,gPciHostBridgeNumber
	ld	a5,0(a5)
	addi	a4,a5,1
	la	a5,gPciHostBridgeNumber
	sd	a4,0(a5)
.L260:
	.loc 1 2196 10
	li	a5,0
.L256:
	.loc 1 2197 1
	mv	a0,a5
	ld	ra,40(sp)
	.cfi_restore 1
	ld	s0,32(sp)
	.cfi_restore 8
	.cfi_def_cfa 2, 48
	addi	sp,sp,48
	.cfi_def_cfa_offset 0
	jr	ra
	.cfi_endproc
.LFE22:
	.size	AddHostBridgeEnumerator, .-AddHostBridgeEnumerator
	.text
.Letext0:
	.file 2 "/home/kapoagaeming/spacemit-image-builder/components/edk2/MdePkg/Include/RiscV64/ProcessorBind.h"
	.file 3 "/home/kapoagaeming/spacemit-image-builder/components/edk2/MdePkg/Include/Base.h"
	.file 4 "/home/kapoagaeming/spacemit-image-builder/components/edk2/MdePkg/Include/Uefi/UefiBaseType.h"
	.file 5 "/home/kapoagaeming/spacemit-image-builder/components/edk2/MdePkg/Include/Uefi/UefiMultiPhase.h"
	.file 6 "/home/kapoagaeming/spacemit-image-builder/components/edk2/MdePkg/Include/IndustryStandard/Acpi10.h"
	.file 7 "/home/kapoagaeming/spacemit-image-builder/components/edk2/MdePkg/Include/Protocol/DevicePath.h"
	.file 8 "/home/kapoagaeming/spacemit-image-builder/components/edk2/MdePkg/Include/Uefi/UefiSpec.h"
	.file 9 "/home/kapoagaeming/spacemit-image-builder/components/Build/Milk-V-Jupiter/RELEASE_GCC5/RISCV64/Silicon/Spacemit/Override/MdeModulePkg/Bus/Pci/PciBusDxe/PciBusDxe/DEBUG/AutoGen.h"
	.file 10 "/home/kapoagaeming/spacemit-image-builder/components/edk2/MdePkg/Include/Pi/PiStatusCode.h"
	.file 11 "/home/kapoagaeming/spacemit-image-builder/components/edk2/MdePkg/Include/Protocol/PciRootBridgeIo.h"
	.file 12 "/home/kapoagaeming/spacemit-image-builder/components/edk2/MdePkg/Include/Protocol/PciHostBridgeResourceAllocation.h"
	.file 13 "/home/kapoagaeming/spacemit-image-builder/components/edk2/MdePkg/Include/Protocol/PciIo.h"
	.file 14 "/home/kapoagaeming/spacemit-image-builder/components/edk2/MdePkg/Include/Protocol/LoadFile2.h"
	.file 15 "/home/kapoagaeming/spacemit-image-builder/components/edk2/MdePkg/Include/Protocol/PciHotPlugRequest.h"
	.file 16 "/home/kapoagaeming/spacemit-image-builder/components/edk2/MdePkg/Include/Protocol/PciPlatform.h"
	.file 17 "/home/kapoagaeming/spacemit-image-builder/components/edk2/MdePkg/Include/Protocol/PciHotPlugInit.h"
	.file 18 "/home/kapoagaeming/spacemit-image-builder/components/edk2/MdePkg/Include/Protocol/BusSpecificDriverOverride.h"
	.file 19 "/home/kapoagaeming/spacemit-image-builder/components/edk2/MdePkg/Include/Protocol/PciOverride.h"
	.file 20 "/home/kapoagaeming/spacemit-image-builder/components/edk2/MdePkg/Include/Protocol/DriverBinding.h"
	.file 21 "/home/kapoagaeming/spacemit-image-builder/components/edk2/MdePkg/Include/IndustryStandard/Pci22.h"
	.file 22 "/home/kapoagaeming/spacemit-image-builder/components/edk2-platforms/Silicon/Spacemit/Override/MdeModulePkg/Bus/Pci/PciBusDxe/PciBus.h"
	.file 23 "/home/kapoagaeming/spacemit-image-builder/components/edk2-platforms/Silicon/Spacemit/Override/MdeModulePkg/Bus/Pci/PciBusDxe/PciResourceSupport.h"
	.file 24 "/home/kapoagaeming/spacemit-image-builder/components/edk2-platforms/Silicon/Spacemit/Override/MdeModulePkg/Bus/Pci/PciBusDxe/PciLib.h"
	.file 25 "/home/kapoagaeming/spacemit-image-builder/components/edk2-platforms/Silicon/Spacemit/Override/MdeModulePkg/Bus/Pci/PciBusDxe/PciDeviceSupport.h"
	.file 26 "/home/kapoagaeming/spacemit-image-builder/components/edk2-platforms/Silicon/Spacemit/Override/MdeModulePkg/Bus/Pci/PciBusDxe/PciEnumeratorSupport.h"
	.file 27 "/home/kapoagaeming/spacemit-image-builder/components/edk2/MdePkg/Include/Library/MemoryAllocationLib.h"
	.file 28 "/home/kapoagaeming/spacemit-image-builder/components/edk2/MdePkg/Include/Library/ReportStatusCodeLib.h"
	.file 29 "/home/kapoagaeming/spacemit-image-builder/components/edk2/MdePkg/Include/Library/BaseMemoryLib.h"
	.file 30 "/home/kapoagaeming/spacemit-image-builder/components/edk2/MdePkg/Include/Library/BaseLib.h"
	.file 31 "/home/kapoagaeming/spacemit-image-builder/components/edk2-platforms/Silicon/Spacemit/Override/MdeModulePkg/Bus/Pci/PciBusDxe/PciOptionRomSupport.h"
	.file 32 "/home/kapoagaeming/spacemit-image-builder/components/edk2/MdePkg/Include/Library/UefiBootServicesTableLib.h"
	.section	.note.GNU-stack,"",@progbits
