	.file	"PciLib.c"
	.option pic
	.option norelax
	.attribute arch, "rv64i2p1_m2p0_a2p1_f2p2_d2p2_c2p0_zicsr2p0_zifencei2p0_zmmul1p0_zaamo1p0_zalrsc1p0_zca1p0_zcd1p0"
	.attribute unaligned_access, 0
	.attribute stack_align, 16
	.text
.Ltext0:
	.cfi_sections	.debug_frame
	.file 0 "/home/kapoagaeming/spacemit-image-builder/components/Build/Milk-V-Jupiter/RELEASE_GCC5/RISCV64/Silicon/Spacemit/Override/MdeModulePkg/Bus/Pci/PciBusDxe/PciBusDxe" "/home/kapoagaeming/spacemit-image-builder/components/edk2-platforms/Silicon/Spacemit/Override/MdeModulePkg/Bus/Pci/PciBusDxe/PciLib.c"
	.globl	mBarTypeStr
	.section	.rodata
	.align	3
.LC0:
	.string	"U"
	.string	"n"
	.string	"k"
	.string	"n"
	.string	"o"
	.string	"w"
	.zero	2
	.align	3
.LC1:
	.string	" "
	.string	" "
	.string	"I"
	.string	"o"
	.string	"1"
	.string	"6"
	.zero	2
	.align	3
.LC2:
	.string	" "
	.string	" "
	.string	"I"
	.string	"o"
	.string	"3"
	.string	"2"
	.zero	2
	.align	3
.LC3:
	.string	" "
	.string	"M"
	.string	"e"
	.string	"m"
	.string	"3"
	.string	"2"
	.zero	2
	.align	3
.LC4:
	.string	"P"
	.string	"M"
	.string	"e"
	.string	"m"
	.string	"3"
	.string	"2"
	.zero	2
	.align	3
.LC5:
	.string	" "
	.string	"M"
	.string	"e"
	.string	"m"
	.string	"6"
	.string	"4"
	.zero	2
	.align	3
.LC6:
	.string	"P"
	.string	"M"
	.string	"e"
	.string	"m"
	.string	"6"
	.string	"4"
	.zero	2
	.align	3
.LC7:
	.string	" "
	.string	"O"
	.string	"p"
	.string	"R"
	.string	"o"
	.string	"m"
	.zero	2
	.align	3
.LC8:
	.string	" "
	.string	" "
	.string	" "
	.string	" "
	.string	"I"
	.string	"o"
	.zero	2
	.align	3
.LC9:
	.string	" "
	.string	" "
	.string	" "
	.string	"M"
	.string	"e"
	.string	"m"
	.zero	2
	.section	.data.rel.local.mBarTypeStr,"aw"
	.align	3
	.type	mBarTypeStr, @object
	.size	mBarTypeStr, 88
mBarTypeStr:
	.dword	.LC0
	.dword	.LC1
	.dword	.LC2
	.dword	.LC3
	.dword	.LC4
	.dword	.LC5
	.dword	.LC6
	.dword	.LC7
	.dword	.LC8
	.dword	.LC9
	.dword	.LC0
	.section	.text.PciGetMaxBusNumber,"ax",@progbits
	.align	1
	.globl	PciGetMaxBusNumber
	.type	PciGetMaxBusNumber, @function
PciGetMaxBusNumber:
.LFB0:
	.file 1 "/home/kapoagaeming/spacemit-image-builder/components/edk2-platforms/Silicon/Spacemit/Override/MdeModulePkg/Bus/Pci/PciBusDxe/PciLib.c"
	.loc 1 40 1
	.cfi_startproc
	addi	sp,sp,-64
	.cfi_def_cfa_offset 64
	sd	ra,56(sp)
	sd	s0,48(sp)
	.cfi_offset 1, -8
	.cfi_offset 8, -16
	addi	s0,sp,64
	.cfi_def_cfa 8, 0
	sd	a0,-56(s0)
	.loc 1 48 14
	ld	a5,-56(s0)
	sd	a5,-24(s0)
	.loc 1 49 9
	j	.L2
.L3:
	.loc 1 50 16
	ld	a5,-24(s0)
	ld	a5,488(a5)
	sd	a5,-24(s0)
.L2:
	.loc 1 49 20
	ld	a5,-24(s0)
	ld	a5,488(a5)
	.loc 1 49 29
	bne	a5,zero,.L3
	.loc 1 53 20
	sd	zero,-40(s0)
	.loc 1 57 19
	ld	a5,-24(s0)
	ld	a5,600(a5)
	sd	a5,-32(s0)
	.loc 1 58 9
	j	.L4
.L5:
	.loc 1 59 39
	ld	a5,-32(s0)
	lbu	a4,14(a5)
	lbu	a3,15(a5)
	slli	a3,a3,8
	or	a4,a3,a4
	lbu	a3,16(a5)
	slli	a3,a3,16
	or	a4,a3,a4
	lbu	a3,17(a5)
	slli	a3,a3,24
	or	a4,a3,a4
	lbu	a3,18(a5)
	slli	a3,a3,32
	or	a4,a3,a4
	lbu	a3,19(a5)
	slli	a3,a3,40
	or	a4,a3,a4
	lbu	a3,20(a5)
	slli	a3,a3,48
	or	a4,a3,a4
	lbu	a5,21(a5)
	slli	a5,a5,56
	or	a5,a5,a4
	mv	a2,a5
	.loc 1 59 71
	ld	a5,-32(s0)
	lbu	a4,38(a5)
	lbu	a3,39(a5)
	slli	a3,a3,8
	or	a4,a3,a4
	lbu	a3,40(a5)
	slli	a3,a3,16
	or	a4,a3,a4
	lbu	a3,41(a5)
	slli	a3,a3,24
	or	a4,a3,a4
	lbu	a3,42(a5)
	slli	a3,a3,32
	or	a4,a3,a4
	lbu	a3,43(a5)
	slli	a3,a3,40
	or	a4,a3,a4
	lbu	a3,44(a5)
	slli	a3,a3,48
	or	a4,a3,a4
	lbu	a5,45(a5)
	slli	a5,a5,56
	or	a5,a5,a4
	.loc 1 59 54
	add	a5,a2,a5
	.loc 1 59 22
	addi	a5,a5,-1
	sd	a5,-40(s0)
	.loc 1 60 20
	ld	a5,-32(s0)
	addi	a5,a5,46
	sd	a5,-32(s0)
.L4:
	.loc 1 58 25
	ld	a5,-32(s0)
	lbu	a5,0(a5)
	.loc 1 58 32
	mv	a4,a5
	li	a5,121
	bne	a4,a5,.L5
	.loc 1 63 10
	ld	a5,-40(s0)
	slli	a5,a5,48
	srli	a5,a5,48
	.loc 1 64 1
	mv	a0,a5
	ld	ra,56(sp)
	.cfi_restore 1
	ld	s0,48(sp)
	.cfi_restore 8
	.cfi_def_cfa 2, 64
	addi	sp,sp,64
	.cfi_def_cfa_offset 0
	jr	ra
	.cfi_endproc
.LFE0:
	.size	PciGetMaxBusNumber, .-PciGetMaxBusNumber
	.section	.text.GetBackPcCardBar,"ax",@progbits
	.align	1
	.globl	GetBackPcCardBar
	.type	GetBackPcCardBar, @function
GetBackPcCardBar:
.LFB1:
	.loc 1 76 1
	.cfi_startproc
	addi	sp,sp,-48
	.cfi_def_cfa_offset 48
	sd	ra,40(sp)
	sd	s0,32(sp)
	.cfi_offset 1, -8
	.cfi_offset 8, -16
	addi	s0,sp,48
	.cfi_def_cfa 8, 0
	sd	a0,-40(s0)
	.loc 1 79 7
	la	a5,_gPcd_FixedAtBuild_PcdPciBusHotplugDeviceSupport
	lbu	a5,0(a5)
	.loc 1 79 6
	beq	a5,zero,.L12
	.loc 1 86 7
	la	a5,gFullEnumeration
	lbu	a5,0(a5)
	.loc 1 86 6
	bne	a5,zero,.L10
	.loc 1 87 13
	sw	zero,-20(s0)
	.loc 1 88 27
	ld	a5,-40(s0)
	ld	a5,64(a5)
	.loc 1 88 5
	ld	a4,-40(s0)
	addi	a0,a4,16
	addi	a4,s0,-20
	li	a3,1
	li	a2,28
	li	a1,2
	jalr	a5
.LVL0:
	.loc 1 96 44
	lw	a5,-20(s0)
	slli	a4,a5,32
	srli	a4,a4,32
	.loc 1 96 42
	ld	a5,-40(s0)
	sd	a4,328(a5)
	.loc 1 97 37
	ld	a5,-40(s0)
	li	a4,33554432
	sd	a4,336(a5)
	.loc 1 98 38
	ld	a5,-40(s0)
	li	a4,3
	sw	a4,352(a5)
	.loc 1 100 13
	sw	zero,-20(s0)
	.loc 1 101 27
	ld	a5,-40(s0)
	ld	a5,64(a5)
	.loc 1 101 5
	ld	a4,-40(s0)
	addi	a0,a4,16
	addi	a4,s0,-20
	li	a3,1
	li	a2,36
	li	a1,2
	jalr	a5
.LVL1:
	.loc 1 108 44
	lw	a5,-20(s0)
	slli	a4,a5,32
	srli	a4,a4,32
	.loc 1 108 42
	ld	a5,-40(s0)
	sd	a4,360(a5)
	.loc 1 109 37
	ld	a5,-40(s0)
	li	a4,33554432
	sd	a4,368(a5)
	.loc 1 110 38
	ld	a5,-40(s0)
	li	a4,4
	sw	a4,384(a5)
	.loc 1 112 13
	sw	zero,-20(s0)
	.loc 1 113 27
	ld	a5,-40(s0)
	ld	a5,64(a5)
	.loc 1 113 5
	ld	a4,-40(s0)
	addi	a0,a4,16
	addi	a4,s0,-20
	li	a3,1
	li	a2,44
	li	a1,2
	jalr	a5
.LVL2:
	.loc 1 120 44
	lw	a5,-20(s0)
	slli	a4,a5,32
	srli	a4,a4,32
	.loc 1 120 42
	ld	a5,-40(s0)
	sd	a4,392(a5)
	.loc 1 121 37
	ld	a5,-40(s0)
	li	a4,256
	sd	a4,400(a5)
	.loc 1 122 38
	ld	a5,-40(s0)
	li	a4,1
	sw	a4,416(a5)
	.loc 1 124 13
	sw	zero,-20(s0)
	.loc 1 125 27
	ld	a5,-40(s0)
	ld	a5,64(a5)
	.loc 1 125 5
	ld	a4,-40(s0)
	addi	a0,a4,16
	addi	a4,s0,-20
	li	a3,1
	li	a2,52
	li	a1,2
	jalr	a5
.LVL3:
	.loc 1 132 44
	lw	a5,-20(s0)
	slli	a4,a5,32
	srli	a4,a4,32
	.loc 1 132 42
	ld	a5,-40(s0)
	sd	a4,424(a5)
	.loc 1 133 37
	ld	a5,-40(s0)
	li	a4,256
	sd	a4,432(a5)
	.loc 1 134 38
	ld	a5,-40(s0)
	li	a4,1
	sw	a4,448(a5)
.L10:
	.loc 1 137 24
	la	a5,gPciHotPlugInit
	ld	a5,0(a5)
	.loc 1 137 6
	beq	a5,zero,.L7
	.loc 1 137 41 discriminator 1
	la	a5,_gPcd_FixedAtBuild_PcdPciBusHotplugDeviceSupport
	lbu	a5,0(a5)
	beq	a5,zero,.L7
	.loc 1 138 5
	ld	a0,-40(s0)
	call	GetResourcePaddingForHpb@plt
	j	.L7
.L12:
	.loc 1 80 5 discriminator 1
	nop
.L7:
	.loc 1 140 1
	ld	ra,40(sp)
	.cfi_restore 1
	ld	s0,32(sp)
	.cfi_restore 8
	.cfi_def_cfa 2, 48
	addi	sp,sp,48
	.cfi_def_cfa_offset 0
	jr	ra
	.cfi_endproc
.LFE1:
	.size	GetBackPcCardBar, .-GetBackPcCardBar
	.section	.text.RemoveRejectedPciDevices,"ax",@progbits
	.align	1
	.globl	RemoveRejectedPciDevices
	.type	RemoveRejectedPciDevices, @function
RemoveRejectedPciDevices:
.LFB2:
	.loc 1 155 1
	.cfi_startproc
	addi	sp,sp,-64
	.cfi_def_cfa_offset 64
	sd	ra,56(sp)
	sd	s0,48(sp)
	.cfi_offset 1, -8
	.cfi_offset 8, -16
	addi	s0,sp,64
	.cfi_def_cfa 8, 0
	sd	a0,-56(s0)
	sd	a1,-64(s0)
	.loc 1 160 7
	la	a5,_gPcd_FixedAtBuild_PcdPciBusHotplugDeviceSupport
	lbu	a5,0(a5)
	.loc 1 160 6
	beq	a5,zero,.L23
	.loc 1 164 15
	ld	a5,-64(s0)
	ld	a5,496(a5)
	sd	a5,-32(s0)
	.loc 1 166 9
	j	.L16
.L22:
	.loc 1 167 14
	ld	a5,-32(s0)
	addi	a5,a5,-176
	.loc 1 167 119
	lw	a4,0(a5)
	.loc 1 167 204
	li	a5,1869176832
	addi	a5,a5,880
	bne	a4,a5,.L17
	.loc 1 167 10 discriminator 1
	ld	a5,-32(s0)
	addi	a5,a5,-176
	sd	a5,-24(s0)
	j	.L18
.L17:
	.loc 1 167 10 is_stmt 0 discriminator 2
	sd	zero,-24(s0)
.L18:
	.loc 1 169 28 is_stmt 1
	ld	a5,-24(s0)
	lbu	a5,238(a5)
	.loc 1 169 40
	sext.w	a5,a5
	andi	a5,a5,127
	sext.w	a4,a5
	.loc 1 169 8
	li	a5,1
	bne	a4,a5,.L19
	.loc 1 173 7
	ld	a1,-24(s0)
	ld	a0,-56(s0)
	call	RemoveRejectedPciDevices
	j	.L20
.L19:
	.loc 1 178 11
	ld	a0,-24(s0)
	call	IsPciDeviceRejected@plt
	mv	a5,a0
	.loc 1 178 10 discriminator 1
	beq	a5,zero,.L20
	.loc 1 182 27
	ld	a5,-24(s0)
	addi	a5,a5,496
	.loc 1 182 14
	mv	a0,a5
	call	IsListEmpty@plt
	mv	a5,a0
	.loc 1 182 12 discriminator 1
	bne	a5,zero,.L21
	.loc 1 183 11
	ld	a1,-24(s0)
	ld	a0,-56(s0)
	call	RemoveAllPciDeviceOnBridge@plt
.L21:
	.loc 1 189 18
	ld	a5,-32(s0)
	ld	a5,8(a5)
	sd	a5,-40(s0)
	.loc 1 190 9
	ld	a0,-32(s0)
	call	RemoveEntryList@plt
	.loc 1 191 9
	ld	a0,-24(s0)
	call	FreePciDevice@plt
	.loc 1 193 21
	ld	a5,-40(s0)
	sd	a5,-32(s0)
.L20:
	.loc 1 197 17
	ld	a5,-32(s0)
	ld	a5,0(a5)
	sd	a5,-32(s0)
.L16:
	.loc 1 166 38
	ld	a5,-32(s0)
	beq	a5,zero,.L13
	.loc 1 166 56 discriminator 1
	ld	a5,-64(s0)
	addi	a5,a5,496
	.loc 1 166 38 discriminator 1
	ld	a4,-32(s0)
	bne	a4,a5,.L22
	j	.L13
.L23:
	.loc 1 161 5
	nop
.L13:
	.loc 1 199 1
	ld	ra,56(sp)
	.cfi_restore 1
	ld	s0,48(sp)
	.cfi_restore 8
	.cfi_def_cfa 2, 64
	addi	sp,sp,64
	.cfi_def_cfa_offset 0
	jr	ra
	.cfi_endproc
.LFE2:
	.size	RemoveRejectedPciDevices, .-RemoveRejectedPciDevices
	.section	.text.DumpBridgeResource,"ax",@progbits
	.align	1
	.globl	DumpBridgeResource
	.type	DumpBridgeResource, @function
DumpBridgeResource:
.LFB3:
	.loc 1 210 1
	.cfi_startproc
	addi	sp,sp,-64
	.cfi_def_cfa_offset 64
	sd	ra,56(sp)
	sd	s0,48(sp)
	.cfi_offset 1, -8
	.cfi_offset 8, -16
	addi	s0,sp,64
	.cfi_def_cfa 8, 0
	sd	a0,-56(s0)
	.loc 1 215 6
	ld	a5,-56(s0)
	beq	a5,zero,.L38
	.loc 1 215 58 discriminator 1
	ld	a5,-56(s0)
	ld	a5,72(a5)
	.loc 1 215 40 discriminator 1
	beq	a5,zero,.L38
	.loc 1 224 32
	ld	a5,-56(s0)
	addi	a5,a5,24
	.loc 1 224 18
	mv	a0,a5
	call	GetFirstNode@plt
	sd	a0,-24(s0)
	.loc 1 224 5
	j	.L26
.L36:
	.loc 1 229 20
	ld	a5,-24(s0)
	addi	a5,a5,-8
	.loc 1 229 126
	lw	a4,0(a5)
	.loc 1 229 211
	li	a5,1668440064
	addi	a5,a5,880
	bne	a4,a5,.L27
	.loc 1 229 16 discriminator 1
	ld	a5,-24(s0)
	addi	a5,a5,-8
	sd	a5,-32(s0)
	j	.L28
.L27:
	.loc 1 229 16 is_stmt 0 discriminator 2
	sd	zero,-32(s0)
.L28:
	.loc 1 230 19 is_stmt 1
	ld	a5,-32(s0)
	lw	a5,84(a5)
	.loc 1 230 10
	bne	a5,zero,.L37
	.loc 1 231 23
	ld	a5,-32(s0)
	lbu	a5,88(a5)
	.loc 1 231 62
	beq	a5,zero,.L30
	.loc 1 231 43 discriminator 1
	ld	a5,-32(s0)
	ld	a5,40(a5)
	.loc 1 231 13 discriminator 1
	addi	a5,a5,632
	sd	a5,-40(s0)
	j	.L31
.L30:
	.loc 1 231 72 discriminator 2
	ld	a5,-32(s0)
	ld	a5,40(a5)
	.loc 1 231 13 discriminator 2
	addi	a5,a5,296
	sd	a5,-40(s0)
.L31:
	.loc 1 246 27
	ld	a5,-32(s0)
	ld	a5,40(a5)
	.loc 1 246 46
	lbu	a5,238(a5)
	.loc 1 246 58
	sext.w	a5,a5
	andi	a5,a5,127
	sext.w	a4,a5
	.loc 1 246 12
	li	a5,1
	beq	a4,a5,.L32
	.loc 1 246 93 discriminator 1
	ld	a5,-32(s0)
	ld	a5,40(a5)
	.loc 1 246 112 discriminator 1
	lbu	a5,238(a5)
	.loc 1 246 124 discriminator 1
	sext.w	a5,a5
	andi	a5,a5,127
	sext.w	a4,a5
	.loc 1 246 77 discriminator 1
	li	a5,2
	bne	a4,a5,.L39
.L32:
	.loc 1 247 26
	ld	a5,-32(s0)
	ld	a5,40(a5)
	.loc 1 247 45
	lbu	a5,238(a5)
	.loc 1 247 57
	sext.w	a5,a5
	andi	a5,a5,127
	sext.w	a4,a5
	.loc 1 246 144 discriminator 3
	li	a5,1
	bne	a4,a5,.L37
	.loc 1 247 88
	ld	a5,-32(s0)
	lbu	a5,64(a5)
	.loc 1 247 76
	mv	a4,a5
	li	a5,1
	bleu	a4,a5,.L39
	j	.L37
.L39:
	.loc 1 254 19
	nop
.L37:
	.loc 1 226 33
	ld	a5,-56(s0)
	addi	a5,a5,24
	.loc 1 226 20
	ld	a1,-24(s0)
	mv	a0,a5
	call	GetNextNode@plt
	sd	a0,-24(s0)
.L26:
	.loc 1 225 22
	ld	a5,-56(s0)
	addi	a5,a5,24
	.loc 1 225 14
	ld	a1,-24(s0)
	mv	a0,a5
	call	IsNull@plt
	mv	a5,a0
	.loc 1 225 13 discriminator 1
	beq	a5,zero,.L36
.L38:
	.loc 1 272 1
	nop
	ld	ra,56(sp)
	.cfi_restore 1
	ld	s0,48(sp)
	.cfi_restore 8
	.cfi_def_cfa 2, 64
	addi	sp,sp,64
	.cfi_def_cfa_offset 0
	jr	ra
	.cfi_endproc
.LFE3:
	.size	DumpBridgeResource, .-DumpBridgeResource
	.section	.text.FindResourceNode,"ax",@progbits
	.align	1
	.globl	FindResourceNode
	.type	FindResourceNode, @function
FindResourceNode:
.LFB4:
	.loc 1 289 1
	.cfi_startproc
	addi	sp,sp,-80
	.cfi_def_cfa_offset 80
	sd	ra,72(sp)
	sd	s0,64(sp)
	.cfi_offset 1, -8
	.cfi_offset 8, -16
	addi	s0,sp,80
	.cfi_def_cfa 8, 0
	sd	a0,-56(s0)
	sd	a1,-64(s0)
	sd	a2,-72(s0)
	.loc 1 294 9
	sd	zero,-40(s0)
	.loc 1 295 14
	ld	a5,-64(s0)
	ld	a5,24(a5)
	sd	a5,-24(s0)
	.loc 1 295 3
	j	.L41
.L46:
	.loc 1 300 18
	ld	a5,-24(s0)
	addi	a5,a5,-8
	.loc 1 300 124
	lw	a4,0(a5)
	.loc 1 300 209
	li	a5,1668440064
	addi	a5,a5,880
	bne	a4,a5,.L42
	.loc 1 300 14 discriminator 1
	ld	a5,-24(s0)
	addi	a5,a5,-8
	sd	a5,-32(s0)
	j	.L43
.L42:
	.loc 1 300 14 is_stmt 0 discriminator 2
	sd	zero,-32(s0)
.L43:
	.loc 1 301 17 is_stmt 1
	ld	a5,-32(s0)
	ld	a5,40(a5)
	.loc 1 301 8
	ld	a4,-56(s0)
	bne	a4,a5,.L44
	.loc 1 302 10
	ld	a5,-72(s0)
	beq	a5,zero,.L45
	.loc 1 303 24
	ld	a5,-40(s0)
	slli	a5,a5,3
	ld	a4,-72(s0)
	add	a5,a4,a5
	.loc 1 303 32
	ld	a4,-32(s0)
	sd	a4,0(a5)
.L45:
	.loc 1 306 12
	ld	a5,-40(s0)
	addi	a5,a5,1
	sd	a5,-40(s0)
.L44:
	.loc 1 297 16
	ld	a5,-24(s0)
	ld	a5,0(a5)
	sd	a5,-24(s0)
.L41:
	.loc 1 296 19
	ld	a5,-64(s0)
	addi	a5,a5,24
	.loc 1 296 16
	ld	a4,-24(s0)
	bne	a4,a5,.L46
	.loc 1 310 10
	ld	a5,-40(s0)
	.loc 1 311 1
	mv	a0,a5
	ld	ra,72(sp)
	.cfi_restore 1
	ld	s0,64(sp)
	.cfi_restore 8
	.cfi_def_cfa 2, 80
	addi	sp,sp,80
	.cfi_def_cfa_offset 0
	jr	ra
	.cfi_endproc
.LFE4:
	.size	FindResourceNode, .-FindResourceNode
	.section	.text.DumpResourceMap,"ax",@progbits
	.align	1
	.globl	DumpResourceMap
	.type	DumpResourceMap, @function
DumpResourceMap:
.LFB5:
	.loc 1 326 1
	.cfi_startproc
	addi	sp,sp,-112
	.cfi_def_cfa_offset 112
	sd	ra,104(sp)
	sd	s0,96(sp)
	.cfi_offset 1, -8
	.cfi_offset 8, -16
	addi	s0,sp,112
	.cfi_def_cfa 8, 0
	sd	a0,-88(s0)
	sd	a1,-96(s0)
	sd	a2,-104(s0)
	.loc 1 337 15
	la	a5,gBS
	ld	a5,0(a5)
	ld	a6,280(a5)
	.loc 1 337 12
	ld	a5,-88(s0)
	ld	a0,8(a5)
	li	a5,4
	li	a4,0
	li	a3,0
	li	a2,0
	la	a1,gEfiPciRootBridgeIoProtocolGuid
	jalr	a6
.LVL4:
	sd	a0,-56(s0)
	.loc 1 345 34
	ld	a5,-56(s0)
	.loc 1 345 6
	blt	a5,zero,.L49
	.loc 1 355 13
	ld	a5,-88(s0)
	ld	a5,8(a5)
	mv	a0,a5
	call	DevicePathFromHandle@plt
	mv	a5,a0
	.loc 1 354 11
	li	a2,0
	li	a1,0
	mv	a0,a5
	call	ConvertDevicePathToText@plt
	sd	a0,-64(s0)
	.loc 1 360 8
	ld	a5,-64(s0)
	beq	a5,zero,.L49
	.loc 1 361 7
	ld	a0,-64(s0)
	call	FreePool@plt
.L49:
	.loc 1 365 14
	sd	zero,-24(s0)
	.loc 1 365 3
	j	.L50
.L51:
	.loc 1 366 34
	ld	a5,-24(s0)
	slli	a5,a5,3
	ld	a4,-96(s0)
	add	a5,a4,a5
	.loc 1 366 5
	ld	a5,0(a5)
	mv	a0,a5
	call	DumpBridgeResource
	.loc 1 365 47 discriminator 3
	ld	a5,-24(s0)
	addi	a5,a5,1
	sd	a5,-24(s0)
.L50:
	.loc 1 365 25 discriminator 1
	ld	a4,-24(s0)
	ld	a5,-104(s0)
	bltu	a4,a5,.L51
	.loc 1 371 14
	ld	a5,-88(s0)
	ld	a5,496(a5)
	sd	a5,-48(s0)
	.loc 1 371 3
	j	.L52
.L60:
	.loc 1 376 16
	ld	a5,-48(s0)
	addi	a5,a5,-176
	.loc 1 376 114
	lw	a4,0(a5)
	.loc 1 376 199
	li	a5,1869176832
	addi	a5,a5,880
	bne	a4,a5,.L53
	.loc 1 376 12 discriminator 1
	ld	a5,-48(s0)
	addi	a5,a5,-176
	sd	a5,-40(s0)
	j	.L54
.L53:
	.loc 1 376 12 is_stmt 0 discriminator 2
	sd	zero,-40(s0)
.L54:
	.loc 1 377 30 is_stmt 1
	ld	a5,-40(s0)
	lbu	a5,238(a5)
	.loc 1 377 42
	sext.w	a5,a5
	andi	a5,a5,127
	sext.w	a4,a5
	.loc 1 377 8
	li	a5,1
	bne	a4,a5,.L55
	.loc 1 378 26
	sd	zero,-32(s0)
	.loc 1 379 18
	sd	zero,-24(s0)
	.loc 1 379 7
	j	.L56
.L57:
	.loc 1 380 66
	ld	a5,-24(s0)
	slli	a5,a5,3
	ld	a4,-96(s0)
	add	a5,a4,a5
	.loc 1 380 31
	ld	a5,0(a5)
	li	a2,0
	mv	a1,a5
	ld	a0,-40(s0)
	call	FindResourceNode
	mv	a4,a0
	.loc 1 380 28 discriminator 1
	ld	a5,-32(s0)
	add	a5,a5,a4
	sd	a5,-32(s0)
	.loc 1 379 51 discriminator 3
	ld	a5,-24(s0)
	addi	a5,a5,1
	sd	a5,-24(s0)
.L56:
	.loc 1 379 29 discriminator 1
	ld	a4,-24(s0)
	ld	a5,-104(s0)
	bltu	a4,a5,.L57
	.loc 1 383 67
	ld	a5,-32(s0)
	slli	a5,a5,3
	.loc 1 383 24
	mv	a0,a5
	call	AllocatePool@plt
	sd	a0,-72(s0)
	.loc 1 385 26
	sd	zero,-32(s0)
	.loc 1 386 18
	sd	zero,-24(s0)
	.loc 1 386 7
	j	.L58
.L59:
	.loc 1 387 66
	ld	a5,-24(s0)
	slli	a5,a5,3
	ld	a4,-96(s0)
	add	a5,a4,a5
	.loc 1 387 31
	ld	a3,0(a5)
	.loc 1 387 90
	ld	a5,-32(s0)
	slli	a5,a5,3
	.loc 1 387 31
	ld	a4,-72(s0)
	add	a5,a4,a5
	mv	a2,a5
	mv	a1,a3
	ld	a0,-40(s0)
	call	FindResourceNode
	mv	a4,a0
	.loc 1 387 28 discriminator 1
	ld	a5,-32(s0)
	add	a5,a5,a4
	sd	a5,-32(s0)
	.loc 1 386 51 discriminator 3
	ld	a5,-24(s0)
	addi	a5,a5,1
	sd	a5,-24(s0)
.L58:
	.loc 1 386 29 discriminator 1
	ld	a4,-24(s0)
	ld	a5,-104(s0)
	bltu	a4,a5,.L59
	.loc 1 390 7
	ld	a2,-32(s0)
	ld	a1,-72(s0)
	ld	a0,-40(s0)
	call	DumpResourceMap
	.loc 1 391 7
	ld	a0,-72(s0)
	call	FreePool@plt
.L55:
	.loc 1 373 16
	ld	a5,-48(s0)
	ld	a5,0(a5)
	sd	a5,-48(s0)
.L52:
	.loc 1 372 19
	ld	a5,-88(s0)
	addi	a5,a5,496
	.loc 1 372 16
	ld	a4,-48(s0)
	bne	a4,a5,.L60
	.loc 1 394 1
	nop
	nop
	ld	ra,104(sp)
	.cfi_restore 1
	ld	s0,96(sp)
	.cfi_restore 8
	.cfi_def_cfa 2, 112
	addi	sp,sp,112
	.cfi_def_cfa_offset 0
	jr	ra
	.cfi_endproc
.LFE5:
	.size	DumpResourceMap, .-DumpResourceMap
	.section	.text.AdjustPciDeviceBarSize,"ax",@progbits
	.align	1
	.globl	AdjustPciDeviceBarSize
	.type	AdjustPciDeviceBarSize, @function
AdjustPciDeviceBarSize:
.LFB6:
	.loc 1 408 1
	.cfi_startproc
	addi	sp,sp,-80
	.cfi_def_cfa_offset 80
	sd	ra,72(sp)
	sd	s0,64(sp)
	.cfi_offset 1, -8
	.cfi_offset 8, -16
	addi	s0,sp,80
	.cfi_def_cfa 8, 0
	sd	a0,-72(s0)
	.loc 1 415 12
	sb	zero,-33(s0)
	.loc 1 416 15
	ld	a5,-72(s0)
	ld	a5,496(a5)
	sd	a5,-32(s0)
	.loc 1 418 9
	j	.L62
.L71:
	.loc 1 419 21
	ld	a5,-32(s0)
	addi	a5,a5,-176
	.loc 1 419 126
	lw	a4,0(a5)
	.loc 1 419 211
	li	a5,1869176832
	addi	a5,a5,880
	bne	a4,a5,.L63
	.loc 1 419 17 discriminator 1
	ld	a5,-32(s0)
	addi	a5,a5,-176
	sd	a5,-24(s0)
	j	.L64
.L63:
	.loc 1 419 17 is_stmt 0 discriminator 2
	sd	zero,-24(s0)
.L64:
	.loc 1 421 35 is_stmt 1
	ld	a5,-24(s0)
	lbu	a5,238(a5)
	.loc 1 421 47
	sext.w	a5,a5
	andi	a5,a5,127
	sext.w	a4,a5
	.loc 1 421 8
	li	a5,1
	bne	a4,a5,.L65
	.loc 1 422 11
	ld	a0,-24(s0)
	call	AdjustPciDeviceBarSize
	mv	a5,a0
	.loc 1 422 10 discriminator 1
	beq	a5,zero,.L66
	.loc 1 423 18
	li	a5,1
	sb	a5,-33(s0)
	j	.L66
.L65:
	.loc 1 426 22
	ld	a5,-24(s0)
	lw	a5,836(a5)
	.loc 1 426 10
	beq	a5,zero,.L66
	.loc 1 434 9
	li	a1,0
	ld	a0,-24(s0)
	call	PciProgramResizableBar
	.loc 1 438 21
	li	a5,16
	sd	a5,-48(s0)
	.loc 1 438 38
	sd	zero,-56(s0)
	.loc 1 438 9
	j	.L67
.L69:
	.loc 1 439 20
	ld	a2,-56(s0)
	ld	a1,-48(s0)
	ld	a0,-24(s0)
	call	PciParseBar@plt
	sd	a0,-48(s0)
	.loc 1 438 88 discriminator 4
	ld	a5,-56(s0)
	addi	a5,a5,1
	sd	a5,-56(s0)
.L67:
	.loc 1 438 58 discriminator 1
	ld	a4,-48(s0)
	li	a5,36
	bgtu	a4,a5,.L68
	.loc 1 438 58 is_stmt 0 discriminator 3
	ld	a4,-56(s0)
	li	a5,5
	bleu	a4,a5,.L69
.L68:
	.loc 1 442 18 is_stmt 1
	li	a5,1
	sb	a5,-33(s0)
	.loc 1 443 18
	call	DebugCodeEnabled@plt
	mv	a5,a0
	.loc 1 443 17 discriminator 1
	beq	a5,zero,.L66
	.loc 1 443 75 discriminator 2
	ld	a0,-24(s0)
	call	DumpPciBars@plt
.L66:
	.loc 1 449 17
	ld	a5,-32(s0)
	ld	a5,0(a5)
	sd	a5,-32(s0)
.L62:
	.loc 1 418 38
	ld	a5,-32(s0)
	beq	a5,zero,.L70
	.loc 1 418 56 discriminator 1
	ld	a5,-72(s0)
	addi	a5,a5,496
	.loc 1 418 38 discriminator 1
	ld	a4,-32(s0)
	bne	a4,a5,.L71
.L70:
	.loc 1 452 10
	lbu	a5,-33(s0)
	.loc 1 453 1
	mv	a0,a5
	ld	ra,72(sp)
	.cfi_restore 1
	ld	s0,64(sp)
	.cfi_restore 8
	.cfi_def_cfa 2, 80
	addi	sp,sp,80
	.cfi_def_cfa_offset 0
	jr	ra
	.cfi_endproc
.LFE6:
	.size	AdjustPciDeviceBarSize, .-AdjustPciDeviceBarSize
	.section	.text.PciHostBridgeResourceAllocator,"ax",@progbits
	.align	1
	.globl	PciHostBridgeResourceAllocator
	.type	PciHostBridgeResourceAllocator, @function
PciHostBridgeResourceAllocator:
.LFB7:
	.loc 1 472 1
	.cfi_startproc
	addi	sp,sp,-784
	.cfi_def_cfa_offset 784
	sd	ra,776(sp)
	sd	s0,768(sp)
	.cfi_offset 1, -8
	.cfi_offset 8, -16
	addi	s0,sp,784
	.cfi_def_cfa 8, 0
	sd	a0,-760(s0)
	.loc 1 503 26
	la	a5,_gPcd_FixedAtBuild_PcdPcieResizableBarSupport
	lbu	a5,0(a5)
	sb	a5,-33(s0)
.L97:
	.loc 1 512 5
	addi	a5,s0,-272
	li	a1,1
	mv	a0,a5
	call	InitializeResourcePool@plt
	.loc 1 513 5
	addi	a5,s0,-368
	li	a1,3
	mv	a0,a5
	call	InitializeResourcePool@plt
	.loc 1 514 5
	addi	a5,s0,-464
	li	a1,4
	mv	a0,a5
	call	InitializeResourcePool@plt
	.loc 1 515 5
	addi	a5,s0,-560
	li	a1,5
	mv	a0,a5
	call	InitializeResourcePool@plt
	.loc 1 516 5
	addi	a5,s0,-656
	li	a1,6
	mv	a0,a5
	call	InitializeResourcePool@plt
	.loc 1 518 19
	sd	zero,-32(s0)
	.loc 1 519 22
	sd	zero,-48(s0)
	.loc 1 521 11
	j	.L74
.L82:
	.loc 1 525 23
	ld	a5,-48(s0)
	mv	a0,a5
	call	GetRootBridgeByHandle@plt
	sd	a0,-32(s0)
	.loc 1 527 10
	ld	a5,-32(s0)
	bne	a5,zero,.L75
	.loc 1 528 16
	li	a5,-1
	slli	a5,a5,63
	addi	a5,a5,14
	j	.L106
.L75:
	.loc 1 543 68
	la	a5,_gPcd_FixedAtBuild_PcdPciBridgeIoAlignmentProbe
	lbu	a5,0(a5)
	.loc 1 540 18
	beq	a5,zero,.L77
	.loc 1 540 18 is_stmt 0 discriminator 1
	li	a2,511
	j	.L78
.L77:
	.loc 1 540 18 discriminator 2
	li	a5,4096
	addi	a2,a5,-1
.L78:
	.loc 1 540 18 discriminator 4
	li	a5,0
	li	a4,1
	li	a3,1
	li	a1,0
	ld	a0,-32(s0)
	call	CreateResourceNode@plt
	mv	a5,a0
	.loc 1 540 16 is_stmt 1 discriminator 5
	sd	a5,-144(s0)
	.loc 1 549 21
	li	a5,0
	li	a4,3
	li	a3,2
	li	a2,1048576
	addi	a2,a2,-1
	li	a1,0
	ld	a0,-32(s0)
	call	CreateResourceNode@plt
	mv	a5,a0
	.loc 1 549 19 discriminator 1
	sd	a5,-152(s0)
	.loc 1 558 22
	li	a5,0
	li	a4,4
	li	a3,3
	li	a2,1048576
	addi	a2,a2,-1
	li	a1,0
	ld	a0,-32(s0)
	call	CreateResourceNode@plt
	mv	a5,a0
	.loc 1 558 20 discriminator 1
	sd	a5,-160(s0)
	.loc 1 567 21
	li	a5,0
	li	a4,5
	li	a3,4
	li	a2,1048576
	addi	a2,a2,-1
	li	a1,0
	ld	a0,-32(s0)
	call	CreateResourceNode@plt
	mv	a5,a0
	.loc 1 567 19 discriminator 1
	sd	a5,-168(s0)
	.loc 1 576 22
	li	a5,0
	li	a4,6
	li	a3,5
	li	a2,1048576
	addi	a2,a2,-1
	li	a1,0
	ld	a0,-32(s0)
	call	CreateResourceNode@plt
	mv	a5,a0
	.loc 1 576 20 discriminator 1
	sd	a5,-176(s0)
	.loc 1 590 26
	ld	a0,-32(s0)
	call	GetMaxOptionRomSize@plt
	mv	a5,a0
	sw	a5,-40(s0)
	.loc 1 591 10
	lw	a5,-40(s0)
	sext.w	a5,a5
	beq	a5,zero,.L79
	.loc 1 592 42
	ld	a5,-32(s0)
	li	a4,7
	sw	a4,320(a5)
	.loc 1 593 41
	lwu	a4,-40(s0)
	ld	a5,-32(s0)
	sd	a4,304(a5)
	.loc 1 594 63
	lw	a5,-40(s0)
	addiw	a5,a5,-1
	sext.w	a5,a5
	slli	a4,a5,32
	srli	a4,a4,32
	.loc 1 594 44
	ld	a5,-32(s0)
	sd	a4,312(a5)
	.loc 1 595 9
	ld	a1,-144(s0)
	ld	a2,-152(s0)
	ld	a3,-160(s0)
	ld	a4,-168(s0)
	ld	a5,-176(s0)
	ld	a0,-32(s0)
	call	GetResourceFromDevice@plt
.L79:
	.loc 1 601 7
	ld	a1,-144(s0)
	ld	a2,-152(s0)
	ld	a3,-160(s0)
	ld	a4,-168(s0)
	ld	a5,-176(s0)
	ld	a0,-32(s0)
	call	CreateResourceMap@plt
	.loc 1 614 16
	ld	a1,-144(s0)
	ld	a2,-152(s0)
	ld	a3,-160(s0)
	ld	a4,-168(s0)
	ld	a5,-176(s0)
	addi	a0,s0,-56
	mv	a6,a0
	ld	a0,-32(s0)
	call	ConstructAcpiResourceRequestor@plt
	sd	a0,-24(s0)
	.loc 1 627 7
	ld	a4,-144(s0)
	addi	a5,s0,-272
	mv	a1,a4
	mv	a0,a5
	call	InsertResourceNode@plt
	.loc 1 628 7
	ld	a4,-152(s0)
	addi	a5,s0,-368
	mv	a1,a4
	mv	a0,a5
	call	InsertResourceNode@plt
	.loc 1 629 7
	ld	a4,-160(s0)
	addi	a5,s0,-464
	mv	a1,a4
	mv	a0,a5
	call	InsertResourceNode@plt
	.loc 1 630 7
	ld	a4,-168(s0)
	addi	a5,s0,-560
	mv	a1,a4
	mv	a0,a5
	call	InsertResourceNode@plt
	.loc 1 631 7
	ld	a4,-176(s0)
	addi	a5,s0,-656
	mv	a1,a4
	mv	a0,a5
	call	InsertResourceNode@plt
	.loc 1 633 10
	ld	a5,-24(s0)
	bne	a5,zero,.L80
	.loc 1 637 29
	ld	a5,-760(s0)
	ld	a5,40(a5)
	.loc 1 637 18
	ld	a4,-32(s0)
	ld	a4,8(a4)
	ld	a3,-56(s0)
	mv	a2,a3
	mv	a1,a4
	ld	a0,-760(s0)
	jalr	a5
.LVL5:
	sd	a0,-24(s0)
.L80:
	.loc 1 653 22
	ld	a5,-56(s0)
	.loc 1 653 10
	beq	a5,zero,.L81
	.loc 1 654 9
	ld	a5,-56(s0)
	mv	a0,a5
	call	FreePool@plt
.L81:
	.loc 1 657 38
	ld	a5,-24(s0)
	.loc 1 657 10
	bge	a5,zero,.L74
	.loc 1 661 9
	addi	a5,s0,-272
	mv	a0,a5
	call	DestroyResourceTree@plt
	.loc 1 662 9
	addi	a5,s0,-368
	mv	a0,a5
	call	DestroyResourceTree@plt
	.loc 1 663 9
	addi	a5,s0,-464
	mv	a0,a5
	call	DestroyResourceTree@plt
	.loc 1 664 9
	addi	a5,s0,-560
	mv	a0,a5
	call	DestroyResourceTree@plt
	.loc 1 665 9
	addi	a5,s0,-656
	mv	a0,a5
	call	DestroyResourceTree@plt
	.loc 1 666 16
	ld	a5,-24(s0)
	j	.L106
.L74:
	.loc 1 521 23
	ld	a5,-760(s0)
	ld	a5,8(a5)
	.loc 1 521 12
	addi	a4,s0,-48
	mv	a1,a4
	ld	a0,-760(s0)
	jalr	a5
.LVL6:
	mv	a5,a0
	.loc 1 521 76 discriminator 1
	beq	a5,zero,.L82
	.loc 1 678 14
	li	a1,4
	ld	a0,-760(s0)
	call	NotifyPhase@plt
	sd	a0,-24(s0)
	.loc 1 680 9
	la	a5,_gPcd_FixedAtBuild_PcdPciBusHotplugDeviceSupport
	lbu	a5,0(a5)
	.loc 1 680 8
	bne	a5,zero,.L83
	.loc 1 684 38
	ld	a5,-24(s0)
	.loc 1 684 10
	bge	a5,zero,.L84
	.loc 1 688 16
	li	a5,-1
	slli	a5,a5,63
	addi	a5,a5,9
	j	.L106
.L84:
	.loc 1 695 48
	ld	a5,-32(s0)
	ld	a5,208(a5)
	.loc 1 695 65
	ld	a5,0(a5)
	.loc 1 695 33
	sd	a5,-664(s0)
	.loc 1 697 7
	j	.L85
.L83:
	.loc 1 702 11
	ld	a5,-24(s0)
	.loc 1 702 10
	bge	a5,zero,.L107
	.loc 1 713 21
	sd	zero,-32(s0)
	.loc 1 714 24
	sd	zero,-48(s0)
	.loc 1 716 19
	sd	zero,-104(s0)
	.loc 1 717 22
	sd	zero,-112(s0)
	.loc 1 718 23
	sd	zero,-120(s0)
	.loc 1 719 22
	sd	zero,-128(s0)
	.loc 1 720 23
	sd	zero,-136(s0)
	.loc 1 722 13
	j	.L87
.L91:
	.loc 1 726 25
	ld	a5,-48(s0)
	mv	a0,a5
	call	GetRootBridgeByHandle@plt
	sd	a0,-32(s0)
	.loc 1 727 12
	ld	a5,-32(s0)
	bne	a5,zero,.L88
	.loc 1 728 18
	li	a5,-1
	slli	a5,a5,63
	addi	a5,a5,14
	j	.L106
.L88:
	.loc 1 734 50
	ld	a5,-32(s0)
	ld	a5,208(a5)
	.loc 1 734 67
	ld	a5,0(a5)
	.loc 1 734 35
	sd	a5,-664(s0)
	.loc 1 739 20
	sd	zero,-56(s0)
	.loc 1 741 29
	ld	a5,-760(s0)
	ld	a5,48(a5)
	.loc 1 741 18
	ld	a4,-32(s0)
	ld	a4,8(a4)
	addi	a3,s0,-56
	mv	a2,a3
	mv	a1,a4
	ld	a0,-760(s0)
	jalr	a5
.LVL7:
	sd	a0,-24(s0)
	.loc 1 747 40
	ld	a5,-24(s0)
	.loc 1 747 12
	bge	a5,zero,.L89
	.loc 1 748 18
	ld	a5,-24(s0)
	j	.L106
.L89:
	.loc 1 751 24
	ld	a5,-56(s0)
	.loc 1 751 12
	beq	a5,zero,.L87
	.loc 1 755 11
	ld	a0,-56(s0)
	addi	a5,s0,-136
	addi	a4,s0,-128
	addi	a3,s0,-120
	addi	a2,s0,-112
	addi	a1,s0,-104
	call	GetResourceAllocationStatus@plt
	.loc 1 763 11
	ld	a5,-56(s0)
	mv	a0,a5
	call	FreePool@plt
.L87:
	.loc 1 722 25
	ld	a5,-760(s0)
	ld	a5,8(a5)
	.loc 1 722 14
	addi	a4,s0,-48
	mv	a1,a4
	ld	a0,-760(s0)
	jalr	a5
.LVL8:
	mv	a5,a0
	.loc 1 722 78 discriminator 1
	beq	a5,zero,.L91
	.loc 1 778 7
	addi	a5,s0,-704
	li	a1,40
	mv	a0,a5
	call	ZeroMem@plt
	.loc 1 780 8
	call	ReportProgressCodeEnabled@plt
	mv	a5,a0
	.loc 1 780 230 discriminator 1
	beq	a5,zero,.L92
	.loc 1 780 84 discriminator 4
	addi	a5,s0,-704
	li	a3,40
	mv	a2,a5
	li	a5,33619968
	addi	a1,a5,9
	li	a0,1
	call	ReportStatusCodeWithExtendedData@plt
	.loc 1 780 230
	j	.L93
.L92:
	.loc 1 780 233 discriminator 5
	call	ReportErrorCodeEnabled@plt
	.loc 1 780 455 discriminator 9
	call	ReportDebugCodeEnabled@plt
.L93:
	.loc 1 792 28
	sb	zero,-34(s0)
	.loc 1 793 10
	lbu	a5,-33(s0)
	andi	a5,a5,0xff
	beq	a5,zero,.L94
	.loc 1 794 32
	ld	a0,-32(s0)
	call	AdjustPciDeviceBarSize
	mv	a5,a0
	sb	a5,-34(s0)
	.loc 1 795 32
	sb	zero,-33(s0)
.L94:
	.loc 1 798 10
	lbu	a5,-34(s0)
	andi	a5,a5,0xff
	bne	a5,zero,.L95
	.loc 1 799 18
	ld	t3,-104(s0)
	ld	a6,-112(s0)
	ld	a7,-120(s0)
	ld	a5,-128(s0)
	ld	a4,-136(s0)
	addi	t1,s0,-656
	addi	a3,s0,-560
	addi	a2,s0,-464
	addi	a1,s0,-368
	addi	a0,s0,-272
	sd	a4,8(sp)
	sd	a5,0(sp)
	mv	a5,t3
	mv	a4,t1
	call	PciHostBridgeAdjustAllocation@plt
	sd	a0,-24(s0)
.L95:
	.loc 1 816 7
	addi	a5,s0,-272
	mv	a0,a5
	call	DestroyResourceTree@plt
	.loc 1 817 7
	addi	a5,s0,-368
	mv	a0,a5
	call	DestroyResourceTree@plt
	.loc 1 818 7
	addi	a5,s0,-464
	mv	a0,a5
	call	DestroyResourceTree@plt
	.loc 1 819 7
	addi	a5,s0,-560
	mv	a0,a5
	call	DestroyResourceTree@plt
	.loc 1 820 7
	addi	a5,s0,-656
	mv	a0,a5
	call	DestroyResourceTree@plt
	.loc 1 822 7
	li	a1,6
	ld	a0,-760(s0)
	call	NotifyPhase@plt
	.loc 1 824 38
	ld	a5,-24(s0)
	.loc 1 824 10
	bge	a5,zero,.L97
	.loc 1 825 16
	ld	a5,-24(s0)
	j	.L106
.L107:
	.loc 1 706 9
	nop
.L85:
	.loc 1 837 4
	call	ReportProgressCodeEnabled@plt
	mv	a5,a0
	.loc 1 837 231 discriminator 1
	beq	a5,zero,.L98
	.loc 1 837 80 discriminator 4
	addi	a5,s0,-664
	li	a3,8
	mv	a2,a5
	li	a5,33624064
	addi	a1,a5,1
	li	a0,1
	call	ReportStatusCodeWithExtendedData@plt
	.loc 1 837 231
	j	.L99
.L98:
	.loc 1 837 234 discriminator 5
	call	ReportErrorCodeEnabled@plt
	.loc 1 837 461 discriminator 9
	call	ReportDebugCodeEnabled@plt
.L99:
	.loc 1 847 12
	li	a1,5
	ld	a0,-760(s0)
	call	NotifyPhase@plt
	sd	a0,-24(s0)
	.loc 1 849 34
	ld	a5,-24(s0)
	.loc 1 849 6
	bge	a5,zero,.L100
	.loc 1 850 12
	ld	a5,-24(s0)
	j	.L106
.L100:
	.loc 1 853 17
	sd	zero,-32(s0)
	.loc 1 855 20
	sd	zero,-48(s0)
	.loc 1 857 9
	j	.L101
.L105:
	.loc 1 861 21
	ld	a5,-48(s0)
	mv	a0,a5
	call	GetRootBridgeByHandle@plt
	sd	a0,-32(s0)
	.loc 1 863 8
	ld	a5,-32(s0)
	bne	a5,zero,.L102
	.loc 1 864 14
	li	a5,-1
	slli	a5,a5,63
	addi	a5,a5,14
	j	.L106
.L102:
	.loc 1 870 16
	sd	zero,-56(s0)
	.loc 1 871 25
	ld	a5,-760(s0)
	ld	a5,48(a5)
	.loc 1 871 14
	ld	a4,-32(s0)
	ld	a4,8(a4)
	addi	a3,s0,-56
	mv	a2,a3
	mv	a1,a4
	ld	a0,-760(s0)
	jalr	a5
.LVL9:
	sd	a0,-24(s0)
	.loc 1 877 36
	ld	a5,-24(s0)
	.loc 1 877 8
	bge	a5,zero,.L103
	.loc 1 878 14
	ld	a5,-24(s0)
	j	.L106
.L103:
	.loc 1 885 5
	ld	a0,-56(s0)
	addi	a5,s0,-96
	addi	a4,s0,-88
	addi	a3,s0,-80
	addi	a2,s0,-72
	addi	a1,s0,-64
	call	GetResourceBase@plt
	.loc 1 898 5
	addi	a4,s0,-144
	addi	a5,s0,-272
	mv	a2,a4
	mv	a1,a5
	ld	a0,-32(s0)
	call	FindResourceNode
	.loc 1 899 5
	addi	a4,s0,-152
	addi	a5,s0,-368
	mv	a2,a4
	mv	a1,a5
	ld	a0,-32(s0)
	call	FindResourceNode
	.loc 1 900 5
	addi	a4,s0,-160
	addi	a5,s0,-464
	mv	a2,a4
	mv	a1,a5
	ld	a0,-32(s0)
	call	FindResourceNode
	.loc 1 901 5
	addi	a4,s0,-168
	addi	a5,s0,-560
	mv	a2,a4
	mv	a1,a5
	ld	a0,-32(s0)
	call	FindResourceNode
	.loc 1 902 5
	addi	a4,s0,-176
	addi	a5,s0,-656
	mv	a2,a4
	mv	a1,a5
	ld	a0,-32(s0)
	call	FindResourceNode
	.loc 1 913 5
	ld	a5,-64(s0)
	ld	a4,-144(s0)
	mv	a1,a4
	mv	a0,a5
	call	ProgramResource@plt
	.loc 1 921 5
	ld	a5,-72(s0)
	ld	a4,-152(s0)
	mv	a1,a4
	mv	a0,a5
	call	ProgramResource@plt
	.loc 1 929 5
	ld	a5,-80(s0)
	ld	a4,-160(s0)
	mv	a1,a4
	mv	a0,a5
	call	ProgramResource@plt
	.loc 1 937 5
	ld	a5,-88(s0)
	ld	a4,-168(s0)
	mv	a1,a4
	mv	a0,a5
	call	ProgramResource@plt
	.loc 1 945 5
	ld	a5,-96(s0)
	ld	a4,-176(s0)
	mv	a1,a4
	mv	a0,a5
	call	ProgramResource@plt
	.loc 1 964 5
	ld	a5,-32(s0)
	ld	a4,296(a5)
	ld	a5,-32(s0)
	ld	a5,304(a5)
	mv	a2,a5
	mv	a1,a4
	ld	a0,-32(s0)
	call	ProcessOptionRom@plt
	.loc 1 966 13
	ld	a5,-144(s0)
	ld	a3,40(a5)
	.loc 1 966 38
	ld	a5,-144(s0)
	lbu	a5,64(a5)
	sext.w	a5,a5
	.loc 1 966 57
	ld	a4,-64(s0)
	addi	a5,a5,9
	slli	a5,a5,5
	add	a5,a3,a5
	sd	a4,8(a5)
	.loc 1 967 16
	ld	a5,-152(s0)
	ld	a3,40(a5)
	.loc 1 967 44
	ld	a5,-152(s0)
	lbu	a5,64(a5)
	sext.w	a5,a5
	.loc 1 967 63
	ld	a4,-72(s0)
	addi	a5,a5,9
	slli	a5,a5,5
	add	a5,a3,a5
	sd	a4,8(a5)
	.loc 1 968 17
	ld	a5,-160(s0)
	ld	a3,40(a5)
	.loc 1 968 46
	ld	a5,-160(s0)
	lbu	a5,64(a5)
	sext.w	a5,a5
	.loc 1 968 65
	ld	a4,-80(s0)
	addi	a5,a5,9
	slli	a5,a5,5
	add	a5,a3,a5
	sd	a4,8(a5)
	.loc 1 969 16
	ld	a5,-168(s0)
	ld	a3,40(a5)
	.loc 1 969 44
	ld	a5,-168(s0)
	lbu	a5,64(a5)
	sext.w	a5,a5
	.loc 1 969 63
	ld	a4,-88(s0)
	addi	a5,a5,9
	slli	a5,a5,5
	add	a5,a3,a5
	sd	a4,8(a5)
	.loc 1 970 17
	ld	a5,-176(s0)
	ld	a3,40(a5)
	.loc 1 970 46
	ld	a5,-176(s0)
	lbu	a5,64(a5)
	sext.w	a5,a5
	.loc 1 970 65
	ld	a4,-96(s0)
	addi	a5,a5,9
	slli	a5,a5,5
	add	a5,a3,a5
	sd	a4,8(a5)
	.loc 1 975 14
	call	DebugCodeEnabled@plt
	mv	a5,a0
	.loc 1 975 13 discriminator 1
	beq	a5,zero,.L104
.LBB2:
	.loc 1 975 117 discriminator 2
	ld	a5,-144(s0)
	sd	a5,-744(s0)
	.loc 1 975 142 discriminator 2
	ld	a5,-152(s0)
	sd	a5,-736(s0)
	.loc 1 975 170 discriminator 2
	ld	a5,-160(s0)
	sd	a5,-728(s0)
	.loc 1 975 199 discriminator 2
	ld	a5,-168(s0)
	sd	a5,-720(s0)
	.loc 1 975 227 discriminator 2
	ld	a5,-176(s0)
	sd	a5,-712(s0)
	.loc 1 975 243 discriminator 2
	addi	a5,s0,-744
	li	a2,5
	mv	a1,a5
	ld	a0,-32(s0)
	call	DumpResourceMap
.L104:
.LBE2:
	.loc 1 985 5
	ld	a5,-56(s0)
	mv	a0,a5
	call	FreePool@plt
.L101:
	.loc 1 857 21
	ld	a5,-760(s0)
	ld	a5,8(a5)
	.loc 1 857 10
	addi	a4,s0,-48
	mv	a1,a4
	ld	a0,-760(s0)
	jalr	a5
.LVL10:
	mv	a5,a0
	.loc 1 857 74 discriminator 1
	beq	a5,zero,.L105
	.loc 1 991 3
	addi	a5,s0,-272
	mv	a0,a5
	call	DestroyResourceTree@plt
	.loc 1 992 3
	addi	a5,s0,-368
	mv	a0,a5
	call	DestroyResourceTree@plt
	.loc 1 993 3
	addi	a5,s0,-464
	mv	a0,a5
	call	DestroyResourceTree@plt
	.loc 1 994 3
	addi	a5,s0,-560
	mv	a0,a5
	call	DestroyResourceTree@plt
	.loc 1 995 3
	addi	a5,s0,-656
	mv	a0,a5
	call	DestroyResourceTree@plt
	.loc 1 1000 12
	li	a1,7
	ld	a0,-760(s0)
	call	NotifyPhase@plt
	sd	a0,-24(s0)
	.loc 1 1002 10
	ld	a5,-24(s0)
.L106:
	.loc 1 1003 1
	mv	a0,a5
	ld	ra,776(sp)
	.cfi_restore 1
	ld	s0,768(sp)
	.cfi_restore 8
	.cfi_def_cfa 2, 784
	addi	sp,sp,784
	.cfi_def_cfa_offset 0
	jr	ra
	.cfi_endproc
.LFE7:
	.size	PciHostBridgeResourceAllocator, .-PciHostBridgeResourceAllocator
	.section	.text.PciAllocateBusNumber,"ax",@progbits
	.align	1
	.globl	PciAllocateBusNumber
	.type	PciAllocateBusNumber, @function
PciAllocateBusNumber:
.LFB8:
	.loc 1 1025 1
	.cfi_startproc
	addi	sp,sp,-80
	.cfi_def_cfa_offset 80
	sd	ra,72(sp)
	sd	s0,64(sp)
	.cfi_offset 1, -8
	.cfi_offset 8, -16
	addi	s0,sp,80
	.cfi_def_cfa 8, 0
	sd	a0,-56(s0)
	mv	a5,a1
	mv	a4,a2
	sd	a3,-72(s0)
	sb	a5,-57(s0)
	mv	a5,a4
	sb	a5,-58(s0)
	.loc 1 1034 14
	ld	a5,-56(s0)
	sd	a5,-24(s0)
	.loc 1 1035 9
	j	.L109
.L110:
	.loc 1 1036 16
	ld	a5,-24(s0)
	ld	a5,488(a5)
	sd	a5,-24(s0)
.L109:
	.loc 1 1035 20
	ld	a5,-24(s0)
	ld	a5,488(a5)
	.loc 1 1035 29
	bne	a5,zero,.L110
	.loc 1 1042 19
	ld	a5,-24(s0)
	ld	a5,600(a5)
	sd	a5,-32(s0)
	.loc 1 1043 9
	j	.L111
.L117:
	.loc 1 1044 39
	ld	a5,-32(s0)
	lbu	a4,14(a5)
	lbu	a3,15(a5)
	slli	a3,a3,8
	or	a4,a3,a4
	lbu	a3,16(a5)
	slli	a3,a3,16
	or	a4,a3,a4
	lbu	a3,17(a5)
	slli	a3,a3,24
	or	a4,a3,a4
	lbu	a3,18(a5)
	slli	a3,a3,32
	or	a4,a3,a4
	lbu	a3,19(a5)
	slli	a3,a3,40
	or	a4,a3,a4
	lbu	a3,20(a5)
	slli	a3,a3,48
	or	a4,a3,a4
	lbu	a5,21(a5)
	slli	a5,a5,56
	or	a5,a5,a4
	mv	a2,a5
	.loc 1 1044 71
	ld	a5,-32(s0)
	lbu	a4,38(a5)
	lbu	a3,39(a5)
	slli	a3,a3,8
	or	a4,a3,a4
	lbu	a3,40(a5)
	slli	a3,a3,16
	or	a4,a3,a4
	lbu	a3,41(a5)
	slli	a3,a3,24
	or	a4,a3,a4
	lbu	a3,42(a5)
	slli	a3,a3,32
	or	a4,a3,a4
	lbu	a3,43(a5)
	slli	a3,a3,40
	or	a4,a3,a4
	lbu	a3,44(a5)
	slli	a3,a3,48
	or	a4,a3,a4
	lbu	a5,45(a5)
	slli	a5,a5,56
	or	a5,a5,a4
	.loc 1 1044 54
	add	a5,a2,a5
	.loc 1 1044 22
	addi	a5,a5,-1
	sd	a5,-48(s0)
	.loc 1 1045 25
	lbu	a4,-57(s0)
	.loc 1 1045 43
	ld	a5,-32(s0)
	lbu	a3,14(a5)
	lbu	a2,15(a5)
	slli	a2,a2,8
	or	a3,a2,a3
	lbu	a2,16(a5)
	slli	a2,a2,16
	or	a3,a2,a3
	lbu	a2,17(a5)
	slli	a2,a2,24
	or	a3,a2,a3
	lbu	a2,18(a5)
	slli	a2,a2,32
	or	a3,a2,a3
	lbu	a2,19(a5)
	slli	a2,a2,40
	or	a3,a2,a3
	lbu	a2,20(a5)
	slli	a2,a2,48
	or	a3,a2,a3
	lbu	a5,21(a5)
	slli	a5,a5,56
	or	a5,a5,a3
	.loc 1 1045 8
	bltu	a4,a5,.L112
	.loc 1 1045 78 discriminator 1
	lbu	a5,-57(s0)
	.loc 1 1045 59 discriminator 1
	ld	a4,-48(s0)
	bltu	a4,a5,.L112
	.loc 1 1046 18
	lbu	a5,-57(s0)
	mv	a4,a5
	lbu	a5,-58(s0)
	addw	a5,a4,a5
	sb	a5,-33(s0)
	.loc 1 1047 13
	j	.L113
.L116:
	.loc 1 1048 9
	ld	a5,-32(s0)
	addi	a5,a5,46
	sd	a5,-32(s0)
	.loc 1 1049 28
	ld	a5,-32(s0)
	lbu	a5,0(a5)
	.loc 1 1049 12
	mv	a4,a5
	li	a5,121
	bne	a4,a5,.L114
	.loc 1 1050 18
	li	a5,-1
	slli	a5,a5,63
	addi	a5,a5,9
	j	.L115
.L114:
	.loc 1 1053 59
	ld	a5,-32(s0)
	lbu	a4,14(a5)
	lbu	a3,15(a5)
	slli	a3,a3,8
	or	a4,a3,a4
	lbu	a3,16(a5)
	slli	a3,a3,16
	or	a4,a3,a4
	lbu	a3,17(a5)
	slli	a3,a3,24
	or	a4,a3,a4
	lbu	a3,18(a5)
	slli	a3,a3,32
	or	a4,a3,a4
	lbu	a3,19(a5)
	slli	a3,a3,40
	or	a4,a3,a4
	lbu	a3,20(a5)
	slli	a3,a3,48
	or	a4,a3,a4
	lbu	a5,21(a5)
	slli	a5,a5,56
	or	a5,a5,a4
	.loc 1 1053 74
	andi	a4,a5,0xff
	ld	a5,-48(s0)
	andi	a5,a5,0xff
	subw	a5,a4,a5
	andi	a5,a5,0xff
	.loc 1 1053 41
	lbu	a4,-33(s0)
	addw	a5,a4,a5
	andi	a5,a5,0xff
	.loc 1 1053 20
	addiw	a5,a5,-1
	sb	a5,-33(s0)
	.loc 1 1054 43
	ld	a5,-32(s0)
	lbu	a4,14(a5)
	lbu	a3,15(a5)
	slli	a3,a3,8
	or	a4,a3,a4
	lbu	a3,16(a5)
	slli	a3,a3,16
	or	a4,a3,a4
	lbu	a3,17(a5)
	slli	a3,a3,24
	or	a4,a3,a4
	lbu	a3,18(a5)
	slli	a3,a3,32
	or	a4,a3,a4
	lbu	a3,19(a5)
	slli	a3,a3,40
	or	a4,a3,a4
	lbu	a3,20(a5)
	slli	a3,a3,48
	or	a4,a3,a4
	lbu	a5,21(a5)
	slli	a5,a5,56
	or	a5,a5,a4
	mv	a2,a5
	.loc 1 1054 75
	ld	a5,-32(s0)
	lbu	a4,38(a5)
	lbu	a3,39(a5)
	slli	a3,a3,8
	or	a4,a3,a4
	lbu	a3,40(a5)
	slli	a3,a3,16
	or	a4,a3,a4
	lbu	a3,41(a5)
	slli	a3,a3,24
	or	a4,a3,a4
	lbu	a3,42(a5)
	slli	a3,a3,32
	or	a4,a3,a4
	lbu	a3,43(a5)
	slli	a3,a3,40
	or	a4,a3,a4
	lbu	a3,44(a5)
	slli	a3,a3,48
	or	a4,a3,a4
	lbu	a5,45(a5)
	slli	a5,a5,56
	or	a5,a5,a4
	.loc 1 1054 58
	add	a5,a2,a5
	.loc 1 1054 26
	addi	a5,a5,-1
	sd	a5,-48(s0)
.L113:
	.loc 1 1047 25
	lbu	a5,-33(s0)
	ld	a4,-48(s0)
	bltu	a4,a5,.L116
	.loc 1 1057 22
	ld	a5,-72(s0)
	lbu	a4,-33(s0)
	sb	a4,0(a5)
	.loc 1 1058 14
	li	a5,0
	j	.L115
.L112:
	.loc 1 1061 20
	ld	a5,-32(s0)
	addi	a5,a5,46
	sd	a5,-32(s0)
.L111:
	.loc 1 1043 25
	ld	a5,-32(s0)
	lbu	a5,0(a5)
	.loc 1 1043 32
	mv	a4,a5
	li	a5,121
	bne	a4,a5,.L117
	.loc 1 1064 10
	li	a5,-1
	slli	a5,a5,63
	addi	a5,a5,9
.L115:
	.loc 1 1065 1
	mv	a0,a5
	ld	ra,72(sp)
	.cfi_restore 1
	ld	s0,64(sp)
	.cfi_restore 8
	.cfi_def_cfa 2, 80
	addi	sp,sp,80
	.cfi_def_cfa_offset 0
	jr	ra
	.cfi_endproc
.LFE8:
	.size	PciAllocateBusNumber, .-PciAllocateBusNumber
	.section	.text.PciScanOnlyDevice0,"ax",@progbits
	.align	1
	.globl	PciScanOnlyDevice0
	.type	PciScanOnlyDevice0, @function
PciScanOnlyDevice0:
.LFB9:
	.loc 1 1078 1
	.cfi_startproc
	addi	sp,sp,-32
	.cfi_def_cfa_offset 32
	sd	ra,24(sp)
	sd	s0,16(sp)
	.cfi_offset 1, -8
	.cfi_offset 8, -16
	addi	s0,sp,32
	.cfi_def_cfa 8, 0
	sd	a0,-24(s0)
	.loc 1 1082 13
	ld	a5,-24(s0)
	ld	a5,488(a5)
	.loc 1 1082 6
	bne	a5,zero,.L119
	.loc 1 1083 12
	li	a5,0
	j	.L120
.L119:
	.loc 1 1090 13
	ld	a5,-24(s0)
	lbu	a5,608(a5)
	.loc 1 1090 6
	beq	a5,zero,.L121
	.loc 1 1090 34 discriminator 1
	ld	a5,-24(s0)
	lhu	a5,610(a5)
	.loc 1 1090 24 discriminator 1
	sext.w	a4,a5
	li	a5,4
	beq	a4,a5,.L122
	.loc 1 1091 34
	ld	a5,-24(s0)
	lhu	a5,610(a5)
	.loc 1 1090 62 discriminator 2
	sext.w	a4,a5
	li	a5,6
	beq	a4,a5,.L122
	.loc 1 1092 34
	ld	a5,-24(s0)
	lhu	a5,610(a5)
	.loc 1 1091 62
	sext.w	a4,a5
	li	a5,8
	bne	a4,a5,.L121
.L122:
	.loc 1 1093 12
	li	a5,1
	j	.L120
.L121:
	.loc 1 1096 10
	li	a5,0
.L120:
	.loc 1 1097 1
	mv	a0,a5
	ld	ra,24(sp)
	.cfi_restore 1
	ld	s0,16(sp)
	.cfi_restore 8
	.cfi_def_cfa 2, 32
	addi	sp,sp,32
	.cfi_def_cfa_offset 0
	jr	ra
	.cfi_endproc
.LFE9:
	.size	PciScanOnlyDevice0, .-PciScanOnlyDevice0
	.section	.text.PciScanBus,"ax",@progbits
	.align	1
	.globl	PciScanBus
	.type	PciScanBus, @function
PciScanBus:
.LFB10:
	.loc 1 1120 1
	.cfi_startproc
	addi	sp,sp,-224
	.cfi_def_cfa_offset 224
	sd	ra,216(sp)
	sd	s0,208(sp)
	.cfi_offset 1, -8
	.cfi_offset 8, -16
	addi	s0,sp,224
	.cfi_def_cfa 8, 0
	sd	a0,-200(s0)
	mv	a5,a1
	sd	a2,-216(s0)
	sd	a3,-224(s0)
	sb	a5,-201(s0)
	.loc 1 1143 19
	ld	a5,-200(s0)
	ld	a5,208(a5)
	sd	a5,-32(s0)
	.loc 1 1144 13
	sb	zero,-33(s0)
	.loc 1 1145 12
	sh	zero,-132(s0)
	.loc 1 1146 9
	sh	zero,-162(s0)
	.loc 1 1147 14
	sw	zero,-168(s0)
	.loc 1 1148 12
	sh	zero,-186(s0)
	.loc 1 1149 14
	sb	zero,-21(s0)
	.loc 1 1150 13
	sd	zero,-152(s0)
	.loc 1 1151 14
	sd	zero,-48(s0)
	.loc 1 1152 16
	sb	zero,-24(s0)
	.loc 1 1154 15
	sb	zero,-23(s0)
	.loc 1 1154 3
	j	.L124
.L153:
	.loc 1 1155 9
	ld	a0,-200(s0)
	call	PciScanOnlyDevice0
	mv	a5,a0
	.loc 1 1155 8 discriminator 1
	beq	a5,zero,.L125
	.loc 1 1155 37 discriminator 2
	lbu	a5,-23(s0)
	andi	a5,a5,0xff
	bne	a5,zero,.L155
.L125:
	.loc 1 1159 8
	lbu	a5,-24(s0)
	andi	a5,a5,0xff
	bne	a5,zero,.L127
	.loc 1 1160 26
	sw	zero,-20(s0)
.L127:
	.loc 1 1163 15
	sb	zero,-22(s0)
	.loc 1 1163 5
	j	.L128
.L152:
	.loc 1 1167 16
	lbu	a4,-22(s0)
	lbu	a3,-23(s0)
	lbu	a2,-201(s0)
	addi	a5,s0,-128
	mv	a1,a5
	ld	a0,-32(s0)
	call	PciDevicePresent@plt
	sd	a0,-56(s0)
	.loc 1 1175 38
	ld	a5,-56(s0)
	.loc 1 1175 10
	bge	a5,zero,.L129
	.loc 1 1175 64 discriminator 1
	lbu	a5,-22(s0)
	andi	a5,a5,0xff
	beq	a5,zero,.L156
.L129:
	.loc 1 1182 38
	ld	a5,-56(s0)
	.loc 1 1182 10
	blt	a5,zero,.L157
	.loc 1 1189 16
	addi	a5,s0,-152
	lbu	a4,-22(s0)
	lbu	a3,-23(s0)
	lbu	a2,-201(s0)
	addi	a1,s0,-128
	ld	a0,-200(s0)
	call	PciSearchDevice@plt
	sd	a0,-56(s0)
	.loc 1 1198 38
	ld	a5,-56(s0)
	.loc 1 1198 10
	blt	a5,zero,.L158
	.loc 1 1207 10
	lbu	a5,-23(s0)
	andi	a5,a5,0xff
	bne	a5,zero,.L134
	.loc 1 1207 26 discriminator 1
	lbu	a5,-22(s0)
	andi	a5,a5,0xff
	bne	a5,zero,.L134
	.loc 1 1207 55 discriminator 2
	ld	a5,-152(s0)
	lbu	a5,609(a5)
	.loc 1 1207 42 discriminator 2
	beq	a5,zero,.L134
	.loc 1 1208 22
	li	a5,1
	sb	a5,-24(s0)
.L134:
	.loc 1 1211 20
	ld	a5,-152(s0)
	lbu	a4,609(a5)
	.loc 1 1211 10
	lbu	a5,-24(s0)
	andi	a5,a5,0xff
	beq	a5,a4,.L135
	.loc 1 1220 16
	li	a5,-1
	slli	a5,a5,63
	addi	a5,a5,7
	j	.L154
.L135:
	.loc 1 1223 33
	lbu	a5,-201(s0)
	.loc 1 1223 57
	slli	a4,a5,24
	.loc 1 1223 68
	lbu	a5,-23(s0)
	.loc 1 1223 84
	slli	a5,a5,16
	.loc 1 1223 64
	or	a4,a4,a5
	.loc 1 1223 95
	lbu	a5,-22(s0)
	.loc 1 1223 109
	slli	a5,a5,8
	.loc 1 1223 18
	or	a5,a4,a5
	sd	a5,-48(s0)
	.loc 1 1225 25
	lbu	a5,-114(s0)
	.loc 1 1225 37
	sext.w	a5,a5
	andi	a5,a5,127
	sext.w	a4,a5
	.loc 1 1225 10
	li	a5,1
	beq	a4,a5,.L137
	.loc 1 1231 9
	ld	a0,-152(s0)
	.loc 1 1233 20
	ld	a5,-152(s0)
	.loc 1 1231 9
	lbu	a1,288(a5)
	.loc 1 1234 20
	ld	a5,-152(s0)
	.loc 1 1231 9
	lbu	a2,289(a5)
	.loc 1 1235 20
	ld	a5,-152(s0)
	.loc 1 1231 9
	lbu	a5,290(a5)
	li	a4,0
	mv	a3,a5
	call	PreprocessController@plt
.L137:
	.loc 1 1240 11
	la	a5,_gPcd_FixedAtBuild_PcdPciBusHotplugDeviceSupport
	lbu	a5,0(a5)
	.loc 1 1240 10
	beq	a5,zero,.L138
	.loc 1 1244 29
	la	a5,gPciHotPlugInit
	ld	a5,0(a5)
	.loc 1 1244 12
	beq	a5,zero,.L138
	.loc 1 1248 52
	ld	a5,-152(s0)
	.loc 1 1248 15
	ld	a5,200(a5)
	addi	a4,s0,-144
	mv	a1,a4
	mv	a0,a5
	call	IsRootPciHotPlugController@plt
	mv	a5,a0
	.loc 1 1248 14 discriminator 1
	beq	a5,zero,.L138
	.loc 1 1249 28
	la	a5,gPciRootHpcData
	ld	a3,0(a5)
	ld	a4,-144(s0)
	mv	a5,a4
	slli	a5,a5,1
	add	a5,a5,a4
	slli	a5,a5,3
	add	a5,a3,a5
	.loc 1 1249 44
	li	a4,1
	sb	a4,8(a5)
	.loc 1 1251 33
	la	a5,gPciRootHpcData
	ld	a3,0(a5)
	ld	a4,-144(s0)
	mv	a5,a4
	slli	a5,a5,1
	add	a5,a5,a4
	slli	a5,a5,3
	add	a5,a3,a5
	.loc 1 1251 42
	lbu	a5,9(a5)
	.loc 1 1251 16
	bne	a5,zero,.L138
	.loc 1 1252 24
	ld	a5,-144(s0)
	addi	a4,s0,-160
	mv	a1,a4
	mv	a0,a5
	call	CreateEventForHpc@plt
	sd	a0,-56(s0)
	.loc 1 1256 39
	la	a5,gPciHotPlugInit
	ld	a5,0(a5)
	ld	a5,8(a5)
	.loc 1 1256 24
	la	a4,gPciHotPlugInit
	ld	a0,0(a4)
	.loc 1 1258 58
	la	a4,gPciRootHpcPool
	ld	a3,0(a4)
	ld	a4,-144(s0)
	slli	a4,a4,4
	add	a4,a3,a4
	.loc 1 1256 24
	ld	a1,0(a4)
	ld	a3,-160(s0)
	addi	a4,s0,-162
	ld	a2,-48(s0)
	jalr	a5
.LVL11:
	sd	a0,-56(s0)
	.loc 1 1264 15
	ld	a0,-152(s0)
	.loc 1 1266 26
	ld	a5,-152(s0)
	.loc 1 1264 15
	lbu	a1,288(a5)
	.loc 1 1267 26
	ld	a5,-152(s0)
	.loc 1 1264 15
	lbu	a2,289(a5)
	.loc 1 1268 26
	ld	a5,-152(s0)
	.loc 1 1264 15
	lbu	a5,290(a5)
	li	a4,0
	mv	a3,a5
	call	PreprocessController@plt
.L138:
	.loc 1 1276 24
	lbu	a5,-114(s0)
	.loc 1 1276 36
	sext.w	a5,a5
	andi	a5,a5,127
	sext.w	a4,a5
	.loc 1 1276 10
	li	a5,1
	beq	a4,a5,.L139
	.loc 1 1276 71 discriminator 1
	lbu	a5,-114(s0)
	.loc 1 1276 83 discriminator 1
	sext.w	a5,a5
	andi	a5,a5,127
	sext.w	a4,a5
	.loc 1 1276 55 discriminator 1
	li	a5,2
	bne	a4,a5,.L140
.L139:
	.loc 1 1280 13
	la	a5,_gPcd_FixedAtBuild_PcdPciBusHotplugDeviceSupport
	lbu	a5,0(a5)
	.loc 1 1280 12
	beq	a5,zero,.L141
	.loc 1 1285 22
	sb	zero,-21(s0)
	.loc 1 1286 31
	la	a5,gPciHotPlugInit
	ld	a5,0(a5)
	.loc 1 1286 14
	beq	a5,zero,.L141
	.loc 1 1287 17
	ld	a5,-152(s0)
	mv	a0,a5
	call	IsPciHotPlugBus@plt
	mv	a5,a0
	.loc 1 1287 16 discriminator 1
	beq	a5,zero,.L141
	.loc 1 1291 39
	la	a5,gPciHotPlugInit
	ld	a5,0(a5)
	ld	a6,16(a5)
	.loc 1 1291 24
	la	a5,gPciHotPlugInit
	ld	a0,0(a5)
	.loc 1 1293 52
	ld	a5,-152(s0)
	.loc 1 1291 24
	ld	a1,200(a5)
	addi	a5,s0,-168
	addi	a4,s0,-176
	addi	a3,s0,-162
	ld	a2,-48(s0)
	jalr	a6
.LVL12:
	sd	a0,-56(s0)
	.loc 1 1300 46
	ld	a5,-56(s0)
	.loc 1 1300 18
	bge	a5,zero,.L142
	.loc 1 1301 24
	ld	a5,-56(s0)
	j	.L154
.L142:
	.loc 1 1304 24
	sh	zero,-186(s0)
	.loc 1 1305 31
	ld	a5,-176(s0)
	sd	a5,-184(s0)
	.loc 1 1306 24
	addi	a4,s0,-186
	addi	a5,s0,-184
	mv	a3,a4
	li	a2,0
	li	a1,0
	mv	a0,a5
	call	PciGetBusRange@plt
	sd	a0,-56(s0)
	.loc 1 1313 15
	ld	a5,-176(s0)
	mv	a0,a5
	call	FreePool@plt
	.loc 1 1315 19
	ld	a5,-56(s0)
	.loc 1 1315 18
	blt	a5,zero,.L143
	.loc 1 1316 28
	li	a5,1
	sb	a5,-21(s0)
	j	.L141
.L143:
	.loc 1 1317 25
	ld	a4,-56(s0)
	li	a5,-1
	slli	a5,a5,63
	addi	a5,a5,14
	beq	a4,a5,.L141
	.loc 1 1321 24
	ld	a5,-56(s0)
	j	.L154
.L141:
	.loc 1 1327 18
	ld	a5,-216(s0)
	lbu	a5,0(a5)
	ld	a3,-216(s0)
	li	a2,1
	mv	a1,a5
	ld	a0,-200(s0)
	call	PciAllocateBusNumber
	sd	a0,-56(s0)
	.loc 1 1328 40
	ld	a5,-56(s0)
	.loc 1 1328 12
	bge	a5,zero,.L144
	.loc 1 1329 18
	ld	a5,-56(s0)
	j	.L154
.L144:
	.loc 1 1332 19
	ld	a5,-216(s0)
	lbu	a5,0(a5)
	sb	a5,-33(s0)
	.loc 1 1334 46
	lbu	a5,-33(s0)
	slliw	a5,a5,16
	sraiw	a5,a5,16
	slliw	a5,a5,8
	slliw	a4,a5,16
	sraiw	a4,a4,16
	lbu	a5,-201(s0)
	slliw	a5,a5,16
	sraiw	a5,a5,16
	or	a5,a4,a5
	slliw	a5,a5,16
	sraiw	a5,a5,16
	.loc 1 1334 20
	slli	a5,a5,48
	srli	a5,a5,48
	.loc 1 1334 18
	sh	a5,-132(s0)
	.loc 1 1335 32
	lbu	a5,-201(s0)
	.loc 1 1335 56
	slli	a4,a5,24
	.loc 1 1335 67
	lbu	a5,-23(s0)
	.loc 1 1335 83
	slli	a5,a5,16
	.loc 1 1335 63
	or	a4,a4,a5
	.loc 1 1335 94
	lbu	a5,-22(s0)
	.loc 1 1335 108
	slli	a5,a5,8
	.loc 1 1335 90
	or	a5,a4,a5
	.loc 1 1335 17
	ori	a5,a5,24
	sd	a5,-64(s0)
	.loc 1 1337 38
	ld	a5,-32(s0)
	ld	a5,64(a5)
	.loc 1 1337 18
	addi	a4,s0,-132
	li	a3,1
	ld	a2,-64(s0)
	li	a1,1
	ld	a0,-32(s0)
	jalr	a5
.LVL13:
	sd	a0,-56(s0)
	.loc 1 1348 26
	lbu	a5,-114(s0)
	.loc 1 1348 38
	sext.w	a5,a5
	andi	a5,a5,127
	sext.w	a4,a5
	.loc 1 1348 12
	li	a5,1
	bne	a4,a5,.L145
	.loc 1 1353 22
	ld	a0,-200(s0)
	call	PciGetMaxBusNumber
	mv	a5,a0
	.loc 1 1353 20 discriminator 1
	sh	a5,-132(s0)
	.loc 1 1354 34
	lbu	a5,-201(s0)
	.loc 1 1354 58
	slli	a4,a5,24
	.loc 1 1354 69
	lbu	a5,-23(s0)
	.loc 1 1354 85
	slli	a5,a5,16
	.loc 1 1354 65
	or	a4,a4,a5
	.loc 1 1354 96
	lbu	a5,-22(s0)
	.loc 1 1354 110
	slli	a5,a5,8
	.loc 1 1354 92
	or	a5,a4,a5
	.loc 1 1354 19
	ori	a5,a5,26
	sd	a5,-64(s0)
	.loc 1 1355 40
	ld	a5,-32(s0)
	ld	a5,64(a5)
	.loc 1 1355 20
	addi	a4,s0,-132
	li	a3,1
	ld	a2,-64(s0)
	li	a1,0
	ld	a0,-32(s0)
	jalr	a5
.LVL14:
	sd	a0,-56(s0)
	.loc 1 1366 11
	ld	a0,-152(s0)
	.loc 1 1368 22
	ld	a5,-152(s0)
	.loc 1 1366 11
	lbu	a1,288(a5)
	.loc 1 1369 22
	ld	a5,-152(s0)
	.loc 1 1366 11
	lbu	a2,289(a5)
	.loc 1 1370 22
	ld	a5,-152(s0)
	.loc 1 1366 11
	lbu	a5,290(a5)
	li	a4,0
	mv	a3,a5
	call	PreprocessController@plt
	.loc 1 1374 20
	ld	a5,-152(s0)
	lbu	a4,-33(s0)
	ld	a3,-224(s0)
	ld	a2,-216(s0)
	mv	a1,a4
	mv	a0,a5
	call	PciScanBus
	sd	a0,-56(s0)
	.loc 1 1380 42
	ld	a5,-56(s0)
	.loc 1 1380 14
	bge	a5,zero,.L145
	.loc 1 1381 20
	ld	a5,-56(s0)
	j	.L154
.L145:
	.loc 1 1385 13
	la	a5,_gPcd_FixedAtBuild_PcdPciBusHotplugDeviceSupport
	lbu	a5,0(a5)
	.loc 1 1385 12
	beq	a5,zero,.L146
	.loc 1 1385 62 discriminator 1
	lbu	a5,-21(s0)
	andi	a5,a5,0xff
	beq	a5,zero,.L146
	.loc 1 1389 27
	lw	a4,-168(s0)
	.loc 1 1389 14
	li	a5,1
	bne	a4,a5,.L147
	.loc 1 1390 23
	lhu	a5,-162(s0)
	sext.w	a5,a5
	andi	a5,a5,2
	sext.w	a5,a5
	.loc 1 1389 55 discriminator 1
	beq	a5,zero,.L147
	.loc 1 1391 23
	lhu	a5,-162(s0)
	sext.w	a5,a5
	andi	a5,a5,1
	sext.w	a5,a5
	.loc 1 1390 37
	beq	a5,zero,.L147
	.loc 1 1393 39
	lhu	a5,-186(s0)
	andi	a4,a5,0xff
	.loc 1 1393 59
	ld	a5,-224(s0)
	lbu	a5,0(a5)
	.loc 1 1393 31
	addw	a5,a4,a5
	andi	a4,a5,0xff
	.loc 1 1393 29
	ld	a5,-224(s0)
	sb	a4,0(a5)
	j	.L146
.L147:
	.loc 1 1398 22
	ld	a5,-152(s0)
	lhu	a4,-186(s0)
	andi	a2,a4,0xff
	addi	a3,s0,-129
	lbu	a4,-33(s0)
	mv	a1,a4
	mv	a0,a5
	call	PciAllocateBusNumber
	sd	a0,-56(s0)
	.loc 1 1399 44
	ld	a5,-56(s0)
	.loc 1 1399 16
	bge	a5,zero,.L148
	.loc 1 1400 22
	ld	a5,-56(s0)
	j	.L154
.L148:
	.loc 1 1403 49
	ld	a5,-216(s0)
	lbu	a5,0(a5)
	.loc 1 1403 82
	lbu	a4,-129(s0)
	mv	a2,a4
	mv	a3,a5
	andi	a4,a3,0xff
	andi	a5,a2,0xff
	bgeu	a4,a5,.L149
	mv	a3,a2
.L149:
	andi	a4,a3,0xff
	.loc 1 1403 27
	ld	a5,-216(s0)
	sb	a4,0(a5)
.L146:
	.loc 1 1410 32
	lbu	a5,-201(s0)
	.loc 1 1410 56
	slli	a4,a5,24
	.loc 1 1410 67
	lbu	a5,-23(s0)
	.loc 1 1410 83
	slli	a5,a5,16
	.loc 1 1410 63
	or	a4,a4,a5
	.loc 1 1410 94
	lbu	a5,-22(s0)
	.loc 1 1410 108
	slli	a5,a5,8
	.loc 1 1410 90
	or	a5,a4,a5
	.loc 1 1410 17
	ori	a5,a5,26
	sd	a5,-64(s0)
	.loc 1 1412 38
	ld	a5,-32(s0)
	ld	a5,64(a5)
	.loc 1 1412 18
	ld	a4,-216(s0)
	li	a3,1
	ld	a2,-64(s0)
	li	a1,0
	ld	a0,-32(s0)
	jalr	a5
.LVL15:
	sd	a0,-56(s0)
	.loc 1 1412 16
	j	.L150
.L140:
	.loc 1 1424 13
	la	a5,_gPcd_FixedAtBuild_PcdSrIovSupport
	lbu	a5,0(a5)
	.loc 1 1424 12
	beq	a5,zero,.L150
	.loc 1 1424 61 discriminator 1
	ld	a5,-152(s0)
	lw	a5,620(a5)
	.loc 1 1424 48 discriminator 1
	beq	a5,zero,.L150
	.loc 1 1425 45
	ld	a5,-152(s0)
	lhu	a5,830(a5)
	sext.w	a5,a5
	.loc 1 1425 14
	lw	a4,-20(s0)
	sext.w	a4,a4
	bgeu	a4,a5,.L150
	.loc 1 1426 22
	ld	a0,-152(s0)
	ld	a5,-216(s0)
	lbu	a1,0(a5)
	.loc 1 1426 87
	ld	a5,-152(s0)
	lhu	a5,830(a5)
	.loc 1 1426 22
	andi	a4,a5,0xff
	lw	a5,-20(s0)
	andi	a5,a5,0xff
	subw	a5,a4,a5
	andi	a5,a5,0xff
	ld	a3,-216(s0)
	mv	a2,a5
	call	PciAllocateBusNumber
	sd	a0,-56(s0)
	.loc 1 1427 44
	ld	a5,-56(s0)
	.loc 1 1427 16
	bge	a5,zero,.L151
	.loc 1 1428 22
	ld	a5,-56(s0)
	j	.L154
.L151:
	.loc 1 1431 43
	ld	a5,-152(s0)
	lhu	a5,830(a5)
	.loc 1 1431 32
	sw	a5,-20(s0)
.L150:
	.loc 1 1442 10
	lbu	a5,-22(s0)
	andi	a5,a5,0xff
	bne	a5,zero,.L132
	.loc 1 1442 39 discriminator 1
	lbu	a5,-114(s0)
	.loc 1 1442 26 discriminator 1
	slliw	a5,a5,24
	sraiw	a5,a5,24
	.loc 1 1442 23 discriminator 1
	blt	a5,zero,.L132
	.loc 1 1447 14
	li	a5,7
	sb	a5,-22(s0)
	j	.L132
.L157:
	.loc 1 1183 9
	nop
	j	.L132
.L158:
	.loc 1 1199 9
	nop
.L132:
	.loc 1 1163 35 discriminator 2
	lbu	a5,-22(s0)
	addiw	a5,a5,1
	sb	a5,-22(s0)
.L128:
	.loc 1 1163 25 discriminator 1
	lbu	a5,-22(s0)
	andi	a4,a5,0xff
	li	a5,7
	bleu	a4,a5,.L152
	j	.L130
.L156:
	.loc 1 1179 9
	nop
.L130:
	.loc 1 1154 40 discriminator 2
	lbu	a5,-23(s0)
	addiw	a5,a5,1
	sb	a5,-23(s0)
.L124:
	.loc 1 1154 27 discriminator 1
	lbu	a5,-23(s0)
	andi	a4,a5,0xff
	li	a5,31
	bleu	a4,a5,.L153
	j	.L126
.L155:
	.loc 1 1156 7
	nop
.L126:
	.loc 1 1452 10
	li	a5,0
.L154:
	.loc 1 1453 1
	mv	a0,a5
	ld	ra,216(sp)
	.cfi_restore 1
	ld	s0,208(sp)
	.cfi_restore 8
	.cfi_def_cfa 2, 224
	addi	sp,sp,224
	.cfi_def_cfa_offset 0
	jr	ra
	.cfi_endproc
.LFE10:
	.size	PciScanBus, .-PciScanBus
	.section	.text.PciRootBridgeP2CProcess,"ax",@progbits
	.align	1
	.globl	PciRootBridgeP2CProcess
	.type	PciRootBridgeP2CProcess, @function
PciRootBridgeP2CProcess:
.LFB11:
	.loc 1 1468 1
	.cfi_startproc
	addi	sp,sp,-80
	.cfi_def_cfa_offset 80
	sd	ra,72(sp)
	sd	s0,64(sp)
	.cfi_offset 1, -8
	.cfi_offset 8, -16
	addi	s0,sp,80
	.cfi_def_cfa 8, 0
	sd	a0,-72(s0)
	.loc 1 1475 15
	ld	a5,-72(s0)
	ld	a5,496(a5)
	sd	a5,-32(s0)
	.loc 1 1477 9
	j	.L160
.L171:
	.loc 1 1478 14
	ld	a5,-32(s0)
	addi	a5,a5,-176
	.loc 1 1478 119
	lw	a4,0(a5)
	.loc 1 1478 204
	li	a5,1869176832
	addi	a5,a5,880
	bne	a4,a5,.L161
	.loc 1 1478 10 discriminator 1
	ld	a5,-32(s0)
	addi	a5,a5,-176
	sd	a5,-24(s0)
	j	.L162
.L161:
	.loc 1 1478 10 is_stmt 0 discriminator 2
	sd	zero,-24(s0)
.L162:
	.loc 1 1480 28 is_stmt 1
	ld	a5,-24(s0)
	lbu	a5,238(a5)
	.loc 1 1480 40
	sext.w	a5,a5
	andi	a5,a5,127
	sext.w	a4,a5
	.loc 1 1480 8
	li	a5,2
	bne	a4,a5,.L163
	.loc 1 1481 28
	la	a5,gPciHotPlugInit
	ld	a5,0(a5)
	.loc 1 1481 10
	beq	a5,zero,.L163
	.loc 1 1481 52 discriminator 1
	ld	a5,-24(s0)
	lbu	a5,513(a5)
	.loc 1 1481 45 discriminator 1
	beq	a5,zero,.L163
	.loc 1 1481 64 discriminator 2
	la	a5,_gPcd_FixedAtBuild_PcdPciBusHotplugDeviceSupport
	lbu	a5,0(a5)
	beq	a5,zero,.L163
	.loc 1 1485 10
	call	ReportProgressCodeEnabled@plt
	mv	a5,a0
	.loc 1 1485 196 discriminator 1
	beq	a5,zero,.L164
	.loc 1 1485 182 discriminator 4
	ld	a5,-24(s0)
	ld	a5,200(a5)
	.loc 1 1485 86 discriminator 4
	mv	a2,a5
	li	a5,33624064
	addi	a1,a5,2
	li	a0,1
	call	ReportStatusCodeWithDevicePath@plt
	.loc 1 1485 196
	j	.L165
.L164:
	.loc 1 1485 199 discriminator 5
	call	ReportErrorCodeEnabled@plt
	.loc 1 1485 385 discriminator 9
	call	ReportDebugCodeEnabled@plt
.L165:
	.loc 1 1491 47
	ld	a5,-24(s0)
	lbu	a5,288(a5)
	.loc 1 1491 60
	slli	a4,a5,24
	.loc 1 1491 83
	ld	a5,-24(s0)
	lbu	a5,289(a5)
	.loc 1 1491 99
	slli	a5,a5,16
	.loc 1 1491 67
	or	a4,a4,a5
	.loc 1 1491 122
	ld	a5,-24(s0)
	lbu	a5,290(a5)
	.loc 1 1491 140
	slli	a5,a5,8
	.loc 1 1491 20
	or	a5,a4,a5
	sd	a5,-40(s0)
	.loc 1 1492 33
	la	a5,gPciHotPlugInit
	ld	a5,0(a5)
	ld	a5,8(a5)
	.loc 1 1492 18
	la	a4,gPciHotPlugInit
	ld	a0,0(a4)
	ld	a4,-24(s0)
	ld	a1,200(a4)
	addi	a4,s0,-50
	li	a3,0
	ld	a2,-40(s0)
	jalr	a5
.LVL16:
	sd	a0,-48(s0)
	.loc 1 1500 13
	ld	a5,-48(s0)
	.loc 1 1500 12
	blt	a5,zero,.L166
	.loc 1 1501 20
	ld	a0,-24(s0)
	call	PciBridgeEnumerator@plt
	sd	a0,-48(s0)
	.loc 1 1503 42
	ld	a5,-48(s0)
	.loc 1 1503 14
	bge	a5,zero,.L166
	.loc 1 1504 20
	ld	a5,-48(s0)
	j	.L172
.L166:
	.loc 1 1508 21
	ld	a5,-32(s0)
	ld	a5,0(a5)
	sd	a5,-32(s0)
	.loc 1 1509 9
	j	.L160
.L163:
	.loc 1 1513 23
	ld	a5,-24(s0)
	addi	a5,a5,496
	.loc 1 1513 10
	mv	a0,a5
	call	IsListEmpty@plt
	mv	a5,a0
	.loc 1 1513 8 discriminator 1
	bne	a5,zero,.L169
	.loc 1 1514 16
	ld	a0,-24(s0)
	call	PciRootBridgeP2CProcess
	sd	a0,-48(s0)
.L169:
	.loc 1 1517 17
	ld	a5,-32(s0)
	ld	a5,0(a5)
	sd	a5,-32(s0)
.L160:
	.loc 1 1477 38
	ld	a5,-32(s0)
	beq	a5,zero,.L170
	.loc 1 1477 56 discriminator 1
	ld	a5,-72(s0)
	addi	a5,a5,496
	.loc 1 1477 38 discriminator 1
	ld	a4,-32(s0)
	bne	a4,a5,.L171
.L170:
	.loc 1 1520 10
	li	a5,0
.L172:
	.loc 1 1521 1
	mv	a0,a5
	ld	ra,72(sp)
	.cfi_restore 1
	ld	s0,64(sp)
	.cfi_restore 8
	.cfi_def_cfa 2, 80
	addi	sp,sp,80
	.cfi_def_cfa_offset 0
	jr	ra
	.cfi_endproc
.LFE11:
	.size	PciRootBridgeP2CProcess, .-PciRootBridgeP2CProcess
	.section	.text.PciHostBridgeP2CProcess,"ax",@progbits
	.align	1
	.globl	PciHostBridgeP2CProcess
	.type	PciHostBridgeP2CProcess, @function
PciHostBridgeP2CProcess:
.LFB12:
	.loc 1 1537 1
	.cfi_startproc
	addi	sp,sp,-64
	.cfi_def_cfa_offset 64
	sd	ra,56(sp)
	sd	s0,48(sp)
	.cfi_offset 1, -8
	.cfi_offset 8, -16
	addi	s0,sp,64
	.cfi_def_cfa 8, 0
	sd	a0,-56(s0)
	.loc 1 1542 7
	la	a5,_gPcd_FixedAtBuild_PcdPciBusHotplugDeviceSupport
	lbu	a5,0(a5)
	.loc 1 1542 6
	bne	a5,zero,.L174
	.loc 1 1543 12
	li	a5,0
	j	.L179
.L174:
	.loc 1 1546 20
	sd	zero,-40(s0)
	.loc 1 1548 9
	j	.L176
.L178:
	.loc 1 1552 21
	ld	a5,-40(s0)
	mv	a0,a5
	call	GetRootBridgeByHandle@plt
	sd	a0,-24(s0)
	.loc 1 1554 8
	ld	a5,-24(s0)
	bne	a5,zero,.L177
	.loc 1 1555 14
	li	a5,-1
	slli	a5,a5,63
	addi	a5,a5,14
	j	.L179
.L177:
	.loc 1 1558 14
	ld	a0,-24(s0)
	call	PciRootBridgeP2CProcess
	sd	a0,-32(s0)
	.loc 1 1559 36
	ld	a5,-32(s0)
	.loc 1 1559 8
	bge	a5,zero,.L176
	.loc 1 1560 14
	ld	a5,-32(s0)
	j	.L179
.L176:
	.loc 1 1548 21
	ld	a5,-56(s0)
	ld	a5,8(a5)
	.loc 1 1548 10
	addi	a4,s0,-40
	mv	a1,a4
	ld	a0,-56(s0)
	jalr	a5
.LVL17:
	mv	a5,a0
	.loc 1 1548 74 discriminator 1
	beq	a5,zero,.L178
	.loc 1 1564 10
	li	a5,0
.L179:
	.loc 1 1565 1
	mv	a0,a5
	ld	ra,56(sp)
	.cfi_restore 1
	ld	s0,48(sp)
	.cfi_restore 8
	.cfi_def_cfa 2, 64
	addi	sp,sp,64
	.cfi_def_cfa_offset 0
	jr	ra
	.cfi_endproc
.LFE12:
	.size	PciHostBridgeP2CProcess, .-PciHostBridgeP2CProcess
	.section	.text.PciHostBridgeEnumerator,"ax",@progbits
	.align	1
	.globl	PciHostBridgeEnumerator
	.type	PciHostBridgeEnumerator, @function
PciHostBridgeEnumerator:
.LFB13:
	.loc 1 1582 1
	.cfi_startproc
	addi	sp,sp,-128
	.cfi_def_cfa_offset 128
	sd	ra,120(sp)
	sd	s0,112(sp)
	.cfi_offset 1, -8
	.cfi_offset 8, -16
	addi	s0,sp,128
	.cfi_def_cfa 8, 0
	sd	a0,-120(s0)
	.loc 1 1595 7
	la	a5,_gPcd_FixedAtBuild_PcdPciBusHotplugDeviceSupport
	lbu	a5,0(a5)
	.loc 1 1595 6
	beq	a5,zero,.L181
	.loc 1 1596 5
	call	InitializeHotPlugSupport@plt
.L181:
	.loc 1 1599 3
	addi	a5,s0,-112
	mv	a0,a5
	call	InitializeListHead@plt
	.loc 1 1604 12
	li	a1,1
	ld	a0,-120(s0)
	call	NotifyPhase@plt
	sd	a0,-48(s0)
	.loc 1 1606 34
	ld	a5,-48(s0)
	.loc 1 1606 6
	bge	a5,zero,.L182
	.loc 1 1607 12
	ld	a5,-48(s0)
	j	.L212
.L182:
	.loc 1 1611 20
	sd	zero,-72(s0)
	.loc 1 1612 31
	sd	zero,-24(s0)
	.loc 1 1613 9
	j	.L184
.L189:
	.loc 1 1618 21
	ld	a5,-72(s0)
	mv	a0,a5
	call	CreateRootBridge@plt
	sd	a0,-40(s0)
	.loc 1 1620 8
	ld	a5,-40(s0)
	bne	a5,zero,.L185
	.loc 1 1621 14
	li	a5,-1
	slli	a5,a5,63
	addi	a5,a5,9
	j	.L212
.L185:
	.loc 1 1627 14
	ld	a1,-40(s0)
	ld	a0,-120(s0)
	call	PciRootBridgeEnumerator@plt
	sd	a0,-48(s0)
	.loc 1 1632 26
	la	a5,gPciHotPlugInit
	ld	a5,0(a5)
	.loc 1 1632 8
	beq	a5,zero,.L186
	.loc 1 1632 43 discriminator 1
	la	a5,_gPcd_FixedAtBuild_PcdPciBusHotplugDeviceSupport
	lbu	a5,0(a5)
	beq	a5,zero,.L186
	.loc 1 1633 7
	ld	a5,-40(s0)
	addi	a4,a5,176
	addi	a5,s0,-112
	mv	a1,a4
	mv	a0,a5
	call	InsertTailList@plt
	j	.L187
.L186:
	.loc 1 1635 7
	ld	a0,-40(s0)
	call	DestroyRootBridge@plt
.L187:
	.loc 1 1638 36
	ld	a5,-48(s0)
	.loc 1 1638 8
	bge	a5,zero,.L184
	.loc 1 1639 35
	ld	a5,-48(s0)
	sd	a5,-24(s0)
.L184:
	.loc 1 1613 21
	ld	a5,-120(s0)
	ld	a5,8(a5)
	.loc 1 1613 10
	addi	a4,s0,-72
	mv	a1,a4
	ld	a0,-120(s0)
	jalr	a5
.LVL18:
	mv	a5,a0
	.loc 1 1613 74 discriminator 1
	beq	a5,zero,.L189
	.loc 1 1646 3
	li	a1,2
	ld	a0,-120(s0)
	call	NotifyPhase@plt
	.loc 1 1648 55
	ld	a5,-24(s0)
	.loc 1 1648 6
	bge	a5,zero,.L190
	.loc 1 1649 12
	ld	a5,-24(s0)
	j	.L212
.L190:
	.loc 1 1652 24
	la	a5,gPciHotPlugInit
	ld	a5,0(a5)
	.loc 1 1652 6
	beq	a5,zero,.L191
	.loc 1 1652 41 discriminator 1
	la	a5,_gPcd_FixedAtBuild_PcdPciBusHotplugDeviceSupport
	lbu	a5,0(a5)
	beq	a5,zero,.L191
	.loc 1 1656 22
	sd	zero,-72(s0)
	.loc 1 1657 12
	addi	a5,s0,-112
	mv	a0,a5
	call	GetFirstNode@plt
	sd	a0,-32(s0)
	.loc 1 1658 11
	j	.L192
.L197:
	.loc 1 1661 25
	ld	a5,-32(s0)
	addi	a5,a5,-176
	.loc 1 1661 123
	lw	a4,0(a5)
	.loc 1 1661 208
	li	a5,1869176832
	addi	a5,a5,880
	bne	a4,a5,.L193
	.loc 1 1661 21 discriminator 1
	ld	a5,-32(s0)
	addi	a5,a5,-176
	sd	a5,-40(s0)
	j	.L194
.L193:
	.loc 1 1661 21 is_stmt 0 discriminator 2
	sd	zero,-40(s0)
.L194:
	.loc 1 1665 27 is_stmt 1
	ld	a5,-120(s0)
	ld	a5,24(a5)
	.loc 1 1665 16
	ld	a4,-72(s0)
	addi	a3,s0,-96
	mv	a2,a3
	mv	a1,a4
	ld	a0,-120(s0)
	jalr	a5
.LVL19:
	sd	a0,-48(s0)
	.loc 1 1670 38
	ld	a5,-48(s0)
	.loc 1 1670 10
	bge	a5,zero,.L195
	.loc 1 1671 16
	ld	a5,-48(s0)
	j	.L212
.L195:
	.loc 1 1677 45
	ld	a5,-96(s0)
	lbu	a4,14(a5)
	lbu	a3,15(a5)
	slli	a3,a3,8
	or	a4,a3,a4
	lbu	a3,16(a5)
	slli	a3,a3,16
	or	a4,a3,a4
	lbu	a3,17(a5)
	slli	a3,a3,24
	or	a4,a3,a4
	lbu	a3,18(a5)
	slli	a3,a3,32
	or	a4,a3,a4
	lbu	a3,19(a5)
	slli	a3,a3,40
	or	a4,a3,a4
	lbu	a3,20(a5)
	slli	a3,a3,48
	or	a4,a3,a4
	lbu	a5,21(a5)
	slli	a5,a5,56
	or	a5,a5,a4
	.loc 1 1677 22
	sb	a5,-49(s0)
	.loc 1 1679 7
	lbu	a5,-49(s0)
	mv	a1,a5
	ld	a0,-40(s0)
	call	ResetAllPpbBusNumber@plt
	.loc 1 1684 7
	ld	a5,-96(s0)
	mv	a0,a5
	call	FreePool@plt
	.loc 1 1685 14
	ld	a0,-32(s0)
	call	RemoveEntryList@plt
	sd	a0,-32(s0)
	.loc 1 1686 7
	ld	a0,-40(s0)
	call	DestroyRootBridge@plt
.L192:
	.loc 1 1658 24
	ld	a5,-120(s0)
	ld	a5,8(a5)
	.loc 1 1658 13
	addi	a4,s0,-72
	mv	a1,a4
	ld	a0,-120(s0)
	jalr	a5
.LVL20:
	mv	a5,a0
	.loc 1 1658 100 discriminator 1
	bne	a5,zero,.L196
	.loc 1 1659 14
	addi	a5,s0,-112
	ld	a1,-32(s0)
	mv	a0,a5
	call	IsNull@plt
	mv	a5,a0
	.loc 1 1658 100 discriminator 2
	beq	a5,zero,.L197
.L196:
	.loc 1 1692 14
	li	a5,14999552
	addi	a0,a5,448
	call	AllRootHPCInitialized@plt
	sd	a0,-48(s0)
	.loc 1 1694 36
	ld	a5,-48(s0)
	.loc 1 1694 8
	bge	a5,zero,.L198
	.loc 1 1696 14
	ld	a5,-48(s0)
	j	.L212
.L198:
	.loc 1 1702 14
	li	a1,1
	ld	a0,-120(s0)
	call	NotifyPhase@plt
	sd	a0,-48(s0)
	.loc 1 1704 36
	ld	a5,-48(s0)
	.loc 1 1704 8
	bge	a5,zero,.L199
	.loc 1 1705 14
	ld	a5,-48(s0)
	j	.L212
.L199:
	.loc 1 1709 22
	sd	zero,-72(s0)
	.loc 1 1710 11
	j	.L200
.L203:
	.loc 1 1714 23
	ld	a5,-72(s0)
	mv	a0,a5
	call	CreateRootBridge@plt
	sd	a0,-40(s0)
	.loc 1 1716 10
	ld	a5,-40(s0)
	bne	a5,zero,.L201
	.loc 1 1717 16
	li	a5,-1
	slli	a5,a5,63
	addi	a5,a5,9
	j	.L212
.L201:
	.loc 1 1723 16
	ld	a1,-40(s0)
	ld	a0,-120(s0)
	call	PciRootBridgeEnumerator@plt
	sd	a0,-48(s0)
	.loc 1 1728 7
	ld	a0,-40(s0)
	call	DestroyRootBridge@plt
	.loc 1 1729 38
	ld	a5,-48(s0)
	.loc 1 1729 10
	bge	a5,zero,.L200
	.loc 1 1730 37
	ld	a5,-48(s0)
	sd	a5,-24(s0)
.L200:
	.loc 1 1710 23
	ld	a5,-120(s0)
	ld	a5,8(a5)
	.loc 1 1710 12
	addi	a4,s0,-72
	mv	a1,a4
	ld	a0,-120(s0)
	jalr	a5
.LVL21:
	mv	a5,a0
	.loc 1 1710 76 discriminator 1
	beq	a5,zero,.L203
	.loc 1 1737 5
	li	a1,2
	ld	a0,-120(s0)
	call	NotifyPhase@plt
	.loc 1 1739 57
	ld	a5,-24(s0)
	.loc 1 1739 8
	bge	a5,zero,.L191
	.loc 1 1740 14
	ld	a5,-24(s0)
	j	.L212
.L191:
	.loc 1 1747 12
	li	a1,3
	ld	a0,-120(s0)
	call	NotifyPhase@plt
	sd	a0,-48(s0)
	.loc 1 1749 34
	ld	a5,-48(s0)
	.loc 1 1749 6
	bge	a5,zero,.L204
	.loc 1 1750 12
	ld	a5,-48(s0)
	j	.L212
.L204:
	.loc 1 1753 20
	sd	zero,-72(s0)
	.loc 1 1754 9
	j	.L205
.L211:
	.loc 1 1758 21
	ld	a5,-72(s0)
	mv	a0,a5
	call	CreateRootBridge@plt
	sd	a0,-40(s0)
	.loc 1 1760 8
	ld	a5,-40(s0)
	bne	a5,zero,.L206
	.loc 1 1761 14
	li	a5,-1
	slli	a5,a5,63
	addi	a5,a5,9
	j	.L212
.L206:
	.loc 1 1764 14
	ld	a0,-40(s0)
	call	StartManagingRootBridge@plt
	sd	a0,-48(s0)
	.loc 1 1766 36
	ld	a5,-48(s0)
	.loc 1 1766 8
	bge	a5,zero,.L207
	.loc 1 1767 14
	ld	a5,-48(s0)
	j	.L212
.L207:
	.loc 1 1770 21
	ld	a5,-40(s0)
	ld	a5,208(a5)
	sd	a5,-64(s0)
	.loc 1 1771 29
	ld	a5,-64(s0)
	ld	a5,136(a5)
	.loc 1 1771 14
	addi	a4,s0,-88
	mv	a1,a4
	ld	a0,-64(s0)
	jalr	a5
.LVL22:
	sd	a0,-48(s0)
	.loc 1 1773 36
	ld	a5,-48(s0)
	.loc 1 1773 8
	bge	a5,zero,.L208
	.loc 1 1774 14
	ld	a5,-48(s0)
	j	.L212
.L208:
	.loc 1 1777 14
	addi	a4,s0,-74
	addi	a5,s0,-88
	li	a3,0
	li	a2,0
	mv	a1,a4
	mv	a0,a5
	call	PciGetBusRange@plt
	sd	a0,-48(s0)
	.loc 1 1779 36
	ld	a5,-48(s0)
	.loc 1 1779 8
	bge	a5,zero,.L209
	.loc 1 1780 14
	ld	a5,-48(s0)
	j	.L212
.L209:
	.loc 1 1787 5
	ld	a1,-40(s0)
	ld	a0,-120(s0)
	call	DetermineRootBridgeAttributes@plt
	.loc 1 1797 14
	lhu	a5,-74(s0)
	andi	a5,a5,0xff
	mv	a1,a5
	ld	a0,-40(s0)
	call	PciPciDeviceInfoCollector@plt
	sd	a0,-48(s0)
	.loc 1 1802 36
	ld	a5,-48(s0)
	.loc 1 1802 8
	bge	a5,zero,.L210
	.loc 1 1803 14
	ld	a5,-48(s0)
	j	.L212
.L210:
	.loc 1 1806 5
	ld	a0,-40(s0)
	call	InsertRootBridge@plt
	.loc 1 1811 43
	ld	a5,-40(s0)
	ld	a5,208(a5)
	.loc 1 1811 5
	ld	a5,0(a5)
	mv	a0,a5
	call	AddHostBridgeEnumerator@plt
.L205:
	.loc 1 1754 21
	ld	a5,-120(s0)
	ld	a5,8(a5)
	.loc 1 1754 10
	addi	a4,s0,-72
	mv	a1,a4
	ld	a0,-120(s0)
	jalr	a5
.LVL23:
	mv	a5,a0
	.loc 1 1754 74 discriminator 1
	beq	a5,zero,.L211
	.loc 1 1814 10
	li	a5,0
.L212:
	.loc 1 1815 1
	mv	a0,a5
	ld	ra,120(sp)
	.cfi_restore 1
	ld	s0,112(sp)
	.cfi_restore 8
	.cfi_def_cfa 2, 128
	addi	sp,sp,128
	.cfi_def_cfa_offset 0
	jr	ra
	.cfi_endproc
.LFE13:
	.size	PciHostBridgeEnumerator, .-PciHostBridgeEnumerator
	.section	.text.PciProgramResizableBar,"ax",@progbits
	.align	1
	.globl	PciProgramResizableBar
	.type	PciProgramResizableBar, @function
PciProgramResizableBar:
.LFB14:
	.loc 1 1833 1
	.cfi_startproc
	addi	sp,sp,-144
	.cfi_def_cfa_offset 144
	sd	ra,136(sp)
	sd	s0,128(sp)
	.cfi_offset 1, -8
	.cfi_offset 8, -16
	addi	s0,sp,144
	.cfi_def_cfa 8, 0
	sd	a0,-136(s0)
	mv	a5,a1
	sw	a5,-140(s0)
	.loc 1 1852 38
	ld	a5,-136(s0)
	lw	a5,840(a5)
	.loc 1 1852 108
	sext.w	a3,a5
	li	a4,6
	bleu	a3,a4,.L214
	li	a5,6
.L214:
	sext.w	a5,a5
	.loc 1 1852 22
	slli	a5,a5,32
	srli	a5,a5,32
	sd	a5,-40(s0)
	.loc 1 1853 9
	ld	a5,-136(s0)
	addi	a5,a5,16
	sd	a5,-32(s0)
	.loc 1 1854 22
	ld	a5,-32(s0)
	ld	a5,48(a5)
	.loc 1 1857 48
	ld	a4,-136(s0)
	lw	a4,836(a4)
	.loc 1 1854 12
	addiw	a4,a4,4
	sext.w	a2,a4
	.loc 1 1858 100
	ld	a4,-40(s0)
	slli	a3,a4,3
	.loc 1 1854 12
	addi	a4,s0,-120
	li	a1,0
	ld	a0,-32(s0)
	jalr	a5
.LVL24:
	sd	a0,-24(s0)
	.loc 1 1863 14
	sw	zero,-44(s0)
	.loc 1 1863 3
	j	.L215
.L218:
	.loc 1 1872 70
	lwu	a4,-44(s0)
	addi	a5,s0,-114
	slli	a4,a4,3
	add	a5,a4,a5
	lhu	a5,0(a5)
	.loc 1 1872 20
	li	a1,28
	mv	a0,a5
	call	LShiftU64@plt
	mv	a3,a0
	.loc 1 1873 64
	lwu	a4,-44(s0)
	addi	a5,s0,-120
	slli	a4,a4,3
	add	a5,a4,a5
	ld	a5,0(a5)
	srli	a5,a5,4
	mv	a4,a5
	li	a5,268435456
	addi	a5,a5,-1
	and	a5,a4,a5
	sext.w	a5,a5
	slli	a5,a5,32
	srli	a5,a5,32
	.loc 1 1872 18
	or	a5,a3,a5
	sd	a5,-64(s0)
	.loc 1 1875 8
	lw	a5,-140(s0)
	sext.w	a4,a5
	li	a5,255
	bne	a4,a5,.L216
	.loc 1 1876 13
	ld	a0,-64(s0)
	call	HighBitSet64@plt
	sd	a0,-56(s0)
	j	.L217
.L216:
	.loc 1 1879 13
	ld	a0,-64(s0)
	call	LowBitSet64@plt
	sd	a0,-56(s0)
.L217:
	.loc 1 1884 25
	ld	a5,-136(s0)
	lw	a4,836(a5)
	.loc 1 1885 22
	lw	a5,-44(s0)
	slliw	a5,a5,3
	sext.w	a5,a5
	.loc 1 1885 14
	addw	a5,a4,a5
	sext.w	a5,a5
	.loc 1 1884 12
	addiw	a5,a5,8
	sw	a5,-68(s0)
	.loc 1 1888 55
	ld	a5,-56(s0)
	andi	a5,a5,63
	andi	a4,a5,0xff
	.loc 1 1888 53
	lwu	a3,-44(s0)
	addi	a5,s0,-120
	slli	a3,a3,3
	add	a5,a3,a5
	andi	a4,a4,63
	slliw	a4,a4,8
	mv	a3,a4
	lw	a4,4(a5)
	mv	a2,a4
	li	a4,-16384
	addi	a4,a4,255
	and	a4,a2,a4
	or	a4,a4,a3
	sw	a4,4(a5)
	.loc 1 1896 15
	ld	a5,-32(s0)
	ld	a5,56(a5)
	.loc 1 1901 18
	addi	a3,s0,-120
	lwu	a4,-44(s0)
	slli	a4,a4,3
	add	a4,a3,a4
	addi	a4,a4,4
	.loc 1 1896 5
	lw	a2,-68(s0)
	li	a3,1
	li	a1,2
	ld	a0,-32(s0)
	jalr	a5
.LVL25:
	.loc 1 1863 52 discriminator 2
	lw	a5,-44(s0)
	addiw	a5,a5,1
	sw	a5,-44(s0)
.L215:
	.loc 1 1863 25 discriminator 1
	lwu	a5,-44(s0)
	ld	a4,-40(s0)
	bgtu	a4,a5,.L218
	.loc 1 1905 10
	li	a5,0
	.loc 1 1906 1
	mv	a0,a5
	ld	ra,136(sp)
	.cfi_restore 1
	ld	s0,128(sp)
	.cfi_restore 8
	.cfi_def_cfa 2, 144
	addi	sp,sp,144
	.cfi_def_cfa_offset 0
	jr	ra
	.cfi_endproc
.LFE14:
	.size	PciProgramResizableBar, .-PciProgramResizableBar
	.text
.Letext0:
	.file 2 "/home/kapoagaeming/spacemit-image-builder/components/edk2/MdePkg/Include/RiscV64/ProcessorBind.h"
	.file 3 "/home/kapoagaeming/spacemit-image-builder/components/edk2/MdePkg/Include/Base.h"
	.file 4 "/home/kapoagaeming/spacemit-image-builder/components/edk2/MdePkg/Include/Uefi/UefiBaseType.h"
	.file 5 "/home/kapoagaeming/spacemit-image-builder/components/edk2/MdePkg/Include/Uefi/UefiMultiPhase.h"
	.file 6 "/home/kapoagaeming/spacemit-image-builder/components/edk2/MdePkg/Include/IndustryStandard/Acpi10.h"
	.file 7 "/home/kapoagaeming/spacemit-image-builder/components/edk2/MdePkg/Include/Protocol/DevicePath.h"
	.file 8 "/home/kapoagaeming/spacemit-image-builder/components/edk2/MdePkg/Include/Uefi/UefiSpec.h"
	.file 9 "/home/kapoagaeming/spacemit-image-builder/components/Build/Milk-V-Jupiter/RELEASE_GCC5/RISCV64/Silicon/Spacemit/Override/MdeModulePkg/Bus/Pci/PciBusDxe/PciBusDxe/DEBUG/AutoGen.h"
	.file 10 "/home/kapoagaeming/spacemit-image-builder/components/edk2/MdePkg/Include/Pi/PiStatusCode.h"
	.file 11 "/home/kapoagaeming/spacemit-image-builder/components/edk2/MdePkg/Include/Protocol/PciRootBridgeIo.h"
	.file 12 "/home/kapoagaeming/spacemit-image-builder/components/edk2/MdePkg/Include/Protocol/PciHostBridgeResourceAllocation.h"
	.file 13 "/home/kapoagaeming/spacemit-image-builder/components/edk2/MdePkg/Include/Protocol/PciIo.h"
	.file 14 "/home/kapoagaeming/spacemit-image-builder/components/edk2/MdePkg/Include/Protocol/LoadFile2.h"
	.file 15 "/home/kapoagaeming/spacemit-image-builder/components/edk2/MdePkg/Include/Protocol/PciHotPlugInit.h"
	.file 16 "/home/kapoagaeming/spacemit-image-builder/components/edk2/MdePkg/Include/Protocol/BusSpecificDriverOverride.h"
	.file 17 "/home/kapoagaeming/spacemit-image-builder/components/edk2/MdePkg/Include/IndustryStandard/Pci22.h"
	.file 18 "/home/kapoagaeming/spacemit-image-builder/components/edk2/MdePkg/Include/IndustryStandard/PciExpress21.h"
	.file 19 "/home/kapoagaeming/spacemit-image-builder/components/edk2-platforms/Silicon/Spacemit/Override/MdeModulePkg/Bus/Pci/PciBusDxe/PciBus.h"
	.file 20 "/home/kapoagaeming/spacemit-image-builder/components/edk2-platforms/Silicon/Spacemit/Override/MdeModulePkg/Bus/Pci/PciBusDxe/PciResourceSupport.h"
	.file 21 "/home/kapoagaeming/spacemit-image-builder/components/edk2-platforms/Silicon/Spacemit/Override/MdeModulePkg/Bus/Pci/PciBusDxe/PciHotPlugSupport.h"
	.file 22 "/home/kapoagaeming/spacemit-image-builder/components/edk2-platforms/Silicon/Spacemit/Override/MdeModulePkg/Bus/Pci/PciBusDxe/PciLib.h"
	.file 23 "/home/kapoagaeming/spacemit-image-builder/components/edk2/MdePkg/Include/Library/BaseLib.h"
	.file 24 "/home/kapoagaeming/spacemit-image-builder/components/edk2-platforms/Silicon/Spacemit/Override/MdeModulePkg/Bus/Pci/PciBusDxe/PciEnumerator.h"
	.file 25 "/home/kapoagaeming/spacemit-image-builder/components/edk2-platforms/Silicon/Spacemit/Override/MdeModulePkg/Bus/Pci/PciBusDxe/PciEnumeratorSupport.h"
	.file 26 "/home/kapoagaeming/spacemit-image-builder/components/edk2-platforms/Silicon/Spacemit/Override/MdeModulePkg/Bus/Pci/PciBusDxe/PciDeviceSupport.h"
	.file 27 "/home/kapoagaeming/spacemit-image-builder/components/edk2/MdePkg/Include/Library/ReportStatusCodeLib.h"
	.file 28 "/home/kapoagaeming/spacemit-image-builder/components/edk2/MdePkg/Include/Library/BaseMemoryLib.h"
	.file 29 "/home/kapoagaeming/spacemit-image-builder/components/edk2/MdePkg/Include/Library/DebugLib.h"
	.file 30 "/home/kapoagaeming/spacemit-image-builder/components/edk2/MdePkg/Include/Library/MemoryAllocationLib.h"
	.file 31 "/home/kapoagaeming/spacemit-image-builder/components/edk2/MdePkg/Include/Library/DevicePathLib.h"
	.file 32 "/home/kapoagaeming/spacemit-image-builder/components/edk2/MdePkg/Include/Library/UefiBootServicesTableLib.h"
	.section	.note.GNU-stack,"",@progbits
