	.file	"PciOptionRomSupport.c"
	.option pic
	.option norelax
	.attribute arch, "rv64i2p1_m2p0_a2p1_f2p2_d2p2_c2p0_zicsr2p0_zifencei2p0_zmmul1p0_zaamo1p0_zalrsc1p0_zca1p0_zcd1p0"
	.attribute unaligned_access, 0
	.attribute stack_align, 16
	.text
.Ltext0:
	.cfi_sections	.debug_frame
	.file 0 "/home/kapoagaeming/spacemit-image-builder/components/Build/Milk-V-Jupiter/RELEASE_GCC5/RISCV64/Silicon/Spacemit/Override/MdeModulePkg/Bus/Pci/PciBusDxe/PciBusDxe" "/home/kapoagaeming/spacemit-image-builder/components/edk2-platforms/Silicon/Spacemit/Override/MdeModulePkg/Bus/Pci/PciBusDxe/PciOptionRomSupport.c"
	.section	.text.LocalLoadFile2,"ax",@progbits
	.align	1
	.globl	LocalLoadFile2
	.type	LocalLoadFile2, @function
LocalLoadFile2:
.LFB0:
	.file 1 "/home/kapoagaeming/spacemit-image-builder/components/edk2-platforms/Silicon/Spacemit/Override/MdeModulePkg/Bus/Pci/PciBusDxe/PciOptionRomSupport.c"
	.loc 1 38 1
	.cfi_startproc
	addi	sp,sp,-128
	.cfi_def_cfa_offset 128
	sd	ra,120(sp)
	sd	s0,112(sp)
	.cfi_offset 1, -8
	.cfi_offset 8, -16
	addi	s0,sp,128
	.cfi_def_cfa 8, 0
	sd	a0,-104(s0)
	sd	a1,-112(s0)
	sd	a2,-120(s0)
	sd	a3,-128(s0)
	.loc 1 52 21
	ld	a5,-112(s0)
	sd	a5,-24(s0)
	.loc 1 53 6
	ld	a5,-24(s0)
	beq	a5,zero,.L2
	.loc 1 54 8
	ld	a0,-112(s0)
	call	DevicePathType@plt
	mv	a5,a0
	.loc 1 53 43 discriminator 1
	mv	a4,a5
	li	a5,4
	bne	a4,a5,.L2
	.loc 1 55 8
	ld	a0,-112(s0)
	call	DevicePathSubType@plt
	mv	a5,a0
	.loc 1 54 43
	mv	a4,a5
	li	a5,8
	bne	a4,a5,.L2
	.loc 1 56 8
	ld	a0,-112(s0)
	call	DevicePathNodeLength@plt
	mv	a4,a0
	.loc 1 55 46
	li	a5,24
	bne	a4,a5,.L2
	.loc 1 57 26
	ld	a0,-112(s0)
	call	NextDevicePathNode@plt
	mv	a5,a0
	.loc 1 57 9 discriminator 1
	mv	a0,a5
	call	IsDevicePathEnd@plt
	mv	a5,a0
	.loc 1 56 93
	beq	a5,zero,.L2
	.loc 1 58 25
	ld	a5,-24(s0)
	lbu	a4,8(a5)
	lbu	a3,9(a5)
	slli	a3,a3,8
	or	a4,a3,a4
	lbu	a3,10(a5)
	slli	a3,a3,16
	or	a4,a3,a4
	lbu	a3,11(a5)
	slli	a3,a3,24
	or	a4,a3,a4
	lbu	a3,12(a5)
	slli	a3,a3,32
	or	a4,a3,a4
	lbu	a3,13(a5)
	slli	a3,a3,40
	or	a4,a3,a4
	lbu	a3,14(a5)
	slli	a3,a3,48
	or	a4,a3,a4
	lbu	a5,15(a5)
	slli	a5,a5,56
	or	a5,a5,a4
	mv	a2,a5
	.loc 1 58 61
	ld	a5,-24(s0)
	lbu	a4,16(a5)
	lbu	a3,17(a5)
	slli	a3,a3,8
	or	a4,a3,a4
	lbu	a3,18(a5)
	slli	a3,a3,16
	or	a4,a3,a4
	lbu	a3,19(a5)
	slli	a3,a3,24
	or	a4,a3,a4
	lbu	a3,20(a5)
	slli	a3,a3,32
	or	a4,a3,a4
	lbu	a3,21(a5)
	slli	a3,a3,40
	or	a4,a3,a4
	lbu	a3,22(a5)
	slli	a3,a3,48
	or	a4,a3,a4
	lbu	a5,23(a5)
	slli	a5,a5,56
	or	a5,a5,a4
	.loc 1 57 58
	bgtu	a2,a5,.L2
	.loc 1 59 25
	ld	a5,-24(s0)
	lbu	a4,16(a5)
	lbu	a3,17(a5)
	slli	a3,a3,8
	or	a4,a3,a4
	lbu	a3,18(a5)
	slli	a3,a3,16
	or	a4,a3,a4
	lbu	a3,19(a5)
	slli	a3,a3,24
	or	a4,a3,a4
	lbu	a3,20(a5)
	slli	a3,a3,32
	or	a4,a3,a4
	lbu	a3,21(a5)
	slli	a3,a3,40
	or	a4,a3,a4
	lbu	a3,22(a5)
	slli	a3,a3,48
	or	a4,a3,a4
	lbu	a5,23(a5)
	slli	a5,a5,56
	or	a5,a5,a4
	mv	a4,a5
	.loc 1 59 54
	ld	a5,-104(s0)
	lw	a5,544(a5)
	slli	a5,a5,32
	srli	a5,a5,32
	.loc 1 58 77
	bgeu	a4,a5,.L2
	.loc 1 59 65
	ld	a5,-120(s0)
	bne	a5,zero,.L3
.L2:
	.loc 1 63 12
	li	a5,-1
	slli	a5,a5,63
	addi	a5,a5,2
	j	.L19
.L3:
	.loc 1 67 78
	ld	a5,-104(s0)
	ld	a4,168(a5)
	.loc 1 67 107
	ld	a5,-24(s0)
	lbu	a3,8(a5)
	lbu	a2,9(a5)
	slli	a2,a2,8
	or	a3,a2,a3
	lbu	a2,10(a5)
	slli	a2,a2,16
	or	a3,a2,a3
	lbu	a2,11(a5)
	slli	a2,a2,24
	or	a3,a2,a3
	lbu	a2,12(a5)
	slli	a2,a2,32
	or	a3,a2,a3
	lbu	a2,13(a5)
	slli	a2,a2,40
	or	a3,a2,a3
	lbu	a2,14(a5)
	slli	a2,a2,48
	or	a3,a2,a3
	lbu	a5,15(a5)
	slli	a5,a5,56
	or	a5,a5,a3
	.loc 1 66 16
	add	a5,a4,a5
	sd	a5,-32(s0)
	.loc 1 69 19
	ld	a5,-32(s0)
	lbu	a4,0(a5)
	lbu	a5,1(a5)
	slli	a5,a5,8
	or	a5,a5,a4
	slli	a5,a5,48
	srli	a5,a5,48
	.loc 1 69 6
	sext.w	a4,a5
	li	a5,45056
	addi	a5,a5,-1451
	beq	a4,a5,.L5
	.loc 1 70 12
	li	a5,-1
	slli	a5,a5,63
	addi	a5,a5,14
	j	.L19
.L5:
	.loc 1 73 69
	ld	a5,-32(s0)
	lbu	a4,24(a5)
	lbu	a5,25(a5)
	slli	a5,a5,8
	or	a5,a5,a4
	slli	a5,a5,48
	srli	a5,a5,48
	mv	a4,a5
	.loc 1 73 8
	ld	a5,-32(s0)
	add	a5,a5,a4
	sd	a5,-40(s0)
	.loc 1 76 12
	ld	a5,-40(s0)
	lbu	a5,20(a5)
	.loc 1 76 6
	mv	a4,a5
	li	a5,3
	bne	a4,a5,.L6
	.loc 1 77 20
	ld	a5,-32(s0)
	lbu	a4,4(a5)
	lbu	a3,5(a5)
	slli	a3,a3,8
	or	a4,a3,a4
	lbu	a3,6(a5)
	slli	a3,a3,16
	or	a4,a3,a4
	lbu	a5,7(a5)
	slli	a5,a5,24
	or	a5,a5,a4
	sext.w	a4,a5
	.loc 1 76 32 discriminator 1
	li	a5,4096
	addi	a5,a5,-271
	bne	a4,a5,.L6
	.loc 1 78 21
	ld	a5,-32(s0)
	lbu	a4,8(a5)
	lbu	a5,9(a5)
	slli	a5,a5,8
	or	a5,a5,a4
	slli	a5,a5,48
	srli	a5,a5,48
	.loc 1 77 46
	sext.w	a4,a5
	li	a5,11
	beq	a4,a5,.L7
	.loc 1 79 21
	ld	a5,-32(s0)
	lbu	a4,8(a5)
	lbu	a5,9(a5)
	slli	a5,a5,8
	or	a5,a5,a4
	slli	a5,a5,48
	srli	a5,a5,48
	.loc 1 78 43
	sext.w	a4,a5
	li	a5,12
	bne	a4,a5,.L6
.L7:
	.loc 1 80 20
	ld	a5,-32(s0)
	lbu	a4,12(a5)
	lbu	a5,13(a5)
	slli	a5,a5,8
	or	a5,a5,a4
	slli	a5,a5,48
	srli	a5,a5,48
	.loc 1 79 44
	sext.w	a4,a5
	li	a5,1
	bgtu	a4,a5,.L6
	.loc 1 83 21
	ld	a5,-40(s0)
	lbu	a4,16(a5)
	lbu	a5,17(a5)
	slli	a5,a5,8
	or	a5,a5,a4
	slli	a5,a5,48
	srli	a5,a5,48
	sext.w	a5,a5
	.loc 1 83 35
	slliw	a5,a5,9
	sext.w	a5,a5
	.loc 1 83 15
	sw	a5,-44(s0)
	.loc 1 84 46
	ld	a5,-32(s0)
	lbu	a4,2(a5)
	lbu	a5,3(a5)
	slli	a5,a5,8
	or	a5,a5,a4
	slli	a5,a5,48
	srli	a5,a5,48
	.loc 1 84 26
	sext.w	a5,a5
	.loc 1 84 24
	slliw	a5,a5,9
	sw	a5,-48(s0)
	.loc 1 85 8
	lw	a5,-48(s0)
	mv	a4,a5
	lw	a5,-44(s0)
	sext.w	a4,a4
	sext.w	a5,a5
	bgtu	a4,a5,.L8
	.loc 1 85 58 discriminator 1
	ld	a5,-32(s0)
	lbu	a4,22(a5)
	lbu	a5,23(a5)
	slli	a5,a5,8
	or	a5,a5,a4
	slli	a5,a5,48
	srli	a5,a5,48
	sext.w	a5,a5
	.loc 1 85 42 discriminator 1
	lw	a4,-48(s0)
	sext.w	a4,a4
	bgtu	a4,a5,.L9
.L8:
	.loc 1 86 14
	li	a5,-1
	slli	a5,a5,63
	addi	a5,a5,14
	j	.L19
.L9:
	.loc 1 89 55
	ld	a5,-32(s0)
	lbu	a4,22(a5)
	lbu	a5,23(a5)
	slli	a5,a5,8
	or	a5,a5,a4
	slli	a5,a5,48
	srli	a5,a5,48
	mv	a4,a5
	.loc 1 89 17
	ld	a5,-32(s0)
	add	a5,a5,a4
	sd	a5,-56(s0)
	.loc 1 90 52
	ld	a5,-32(s0)
	lbu	a4,22(a5)
	lbu	a5,23(a5)
	slli	a5,a5,8
	or	a5,a5,a4
	slli	a5,a5,48
	srli	a5,a5,48
	sext.w	a5,a5
	.loc 1 90 17
	lw	a4,-48(s0)
	subw	a5,a4,a5
	sw	a5,-60(s0)
	.loc 1 92 21
	ld	a5,-32(s0)
	lbu	a4,12(a5)
	lbu	a5,13(a5)
	slli	a5,a5,8
	or	a5,a5,a4
	slli	a5,a5,48
	srli	a5,a5,48
	.loc 1 92 8
	sext.w	a4,a5
	li	a5,1
	beq	a4,a5,.L10
	.loc 1 96 10
	ld	a5,-128(s0)
	beq	a5,zero,.L11
	.loc 1 96 40 discriminator 1
	ld	a5,-120(s0)
	ld	a4,0(a5)
	.loc 1 96 52 discriminator 1
	lwu	a5,-60(s0)
	.loc 1 96 36 discriminator 1
	bgeu	a4,a5,.L12
.L11:
	.loc 1 97 21
	lwu	a4,-60(s0)
	ld	a5,-120(s0)
	sd	a4,0(a5)
	.loc 1 98 16
	li	a5,-1
	slli	a5,a5,63
	addi	a5,a5,5
	j	.L19
.L12:
	.loc 1 101 19
	lwu	a4,-60(s0)
	ld	a5,-120(s0)
	sd	a4,0(a5)
	.loc 1 102 7
	lwu	a5,-60(s0)
	mv	a2,a5
	ld	a1,-56(s0)
	ld	a0,-128(s0)
	call	CopyMem@plt
	.loc 1 103 14
	li	a5,0
	j	.L19
.L10:
	.loc 1 108 19
	la	a5,gBS
	ld	a5,0(a5)
	ld	a5,320(a5)
	.loc 1 108 16
	addi	a4,s0,-96
	mv	a2,a4
	li	a1,0
	la	a0,gEfiDecompressProtocolGuid
	jalr	a5
.LVL0:
	sd	a0,-72(s0)
	.loc 1 109 38
	ld	a5,-72(s0)
	.loc 1 109 10
	bge	a5,zero,.L13
	.loc 1 110 16
	li	a5,-1
	slli	a5,a5,63
	addi	a5,a5,7
	j	.L19
.L13:
	.loc 1 113 26
	ld	a5,-96(s0)
	ld	a5,0(a5)
	.loc 1 113 16
	ld	a0,-96(s0)
	addi	a4,s0,-88
	addi	a3,s0,-84
	lw	a2,-60(s0)
	ld	a1,-56(s0)
	jalr	a5
.LVL1:
	sd	a0,-72(s0)
	.loc 1 120 38
	ld	a5,-72(s0)
	.loc 1 120 10
	bge	a5,zero,.L14
	.loc 1 121 16
	li	a5,-1
	slli	a5,a5,63
	addi	a5,a5,7
	j	.L19
.L14:
	.loc 1 124 10
	ld	a5,-128(s0)
	beq	a5,zero,.L15
	.loc 1 124 40 discriminator 1
	ld	a5,-120(s0)
	ld	a4,0(a5)
	.loc 1 124 52 discriminator 1
	lw	a5,-84(s0)
	slli	a5,a5,32
	srli	a5,a5,32
	.loc 1 124 36 discriminator 1
	bgeu	a4,a5,.L16
.L15:
	.loc 1 125 21
	lw	a5,-84(s0)
	slli	a4,a5,32
	srli	a4,a4,32
	ld	a5,-120(s0)
	sd	a4,0(a5)
	.loc 1 126 16
	li	a5,-1
	slli	a5,a5,63
	addi	a5,a5,5
	j	.L19
.L16:
	.loc 1 129 19
	lw	a5,-84(s0)
	slli	a4,a5,32
	srli	a4,a4,32
	ld	a5,-120(s0)
	sd	a4,0(a5)
	.loc 1 130 17
	lw	a5,-88(s0)
	slli	a5,a5,32
	srli	a5,a5,32
	mv	a0,a5
	call	AllocatePool@plt
	sd	a0,-80(s0)
	.loc 1 131 10
	ld	a5,-80(s0)
	bne	a5,zero,.L17
	.loc 1 132 16
	li	a5,-1
	slli	a5,a5,63
	addi	a5,a5,7
	j	.L19
.L17:
	.loc 1 135 26
	ld	a5,-96(s0)
	ld	a7,8(a5)
	.loc 1 135 16
	ld	a0,-96(s0)
	lw	a4,-84(s0)
	lw	a5,-88(s0)
	lw	a2,-60(s0)
	mv	a6,a5
	ld	a5,-80(s0)
	ld	a3,-128(s0)
	ld	a1,-56(s0)
	jalr	a7
.LVL2:
	sd	a0,-72(s0)
	.loc 1 144 7
	ld	a0,-80(s0)
	call	FreePool@plt
	.loc 1 146 38
	ld	a5,-72(s0)
	.loc 1 146 10
	bge	a5,zero,.L18
	.loc 1 147 16
	li	a5,-1
	slli	a5,a5,63
	addi	a5,a5,7
	j	.L19
.L18:
	.loc 1 150 14
	li	a5,0
	j	.L19
.L6:
	.loc 1 154 10
	li	a5,-1
	slli	a5,a5,63
	addi	a5,a5,14
.L19:
	.loc 1 155 1
	mv	a0,a5
	ld	ra,120(sp)
	.cfi_restore 1
	ld	s0,112(sp)
	.cfi_restore 8
	.cfi_def_cfa 2, 128
	addi	sp,sp,128
	.cfi_def_cfa_offset 0
	jr	ra
	.cfi_endproc
.LFE0:
	.size	LocalLoadFile2, .-LocalLoadFile2
	.section	.text.InitializePciLoadFile2,"ax",@progbits
	.align	1
	.globl	InitializePciLoadFile2
	.type	InitializePciLoadFile2, @function
InitializePciLoadFile2:
.LFB1:
	.loc 1 167 1
	.cfi_startproc
	addi	sp,sp,-32
	.cfi_def_cfa_offset 32
	sd	ra,24(sp)
	sd	s0,16(sp)
	.cfi_offset 1, -8
	.cfi_offset 8, -16
	addi	s0,sp,32
	.cfi_def_cfa 8, 0
	sd	a0,-24(s0)
	.loc 1 168 35
	ld	a5,-24(s0)
	lla	a4,LoadFile2
	sd	a4,216(a5)
	.loc 1 169 1
	nop
	ld	ra,24(sp)
	.cfi_restore 1
	ld	s0,16(sp)
	.cfi_restore 8
	.cfi_def_cfa 2, 32
	addi	sp,sp,32
	.cfi_def_cfa_offset 0
	jr	ra
	.cfi_endproc
.LFE1:
	.size	InitializePciLoadFile2, .-InitializePciLoadFile2
	.section	.text.LoadFile2,"ax",@progbits
	.align	1
	.globl	LoadFile2
	.type	LoadFile2, @function
LoadFile2:
.LFB2:
	.loc 1 203 1
	.cfi_startproc
	addi	sp,sp,-80
	.cfi_def_cfa_offset 80
	sd	ra,72(sp)
	sd	s0,64(sp)
	.cfi_offset 1, -8
	.cfi_offset 8, -16
	addi	s0,sp,80
	.cfi_def_cfa 8, 0
	sd	a0,-40(s0)
	sd	a1,-48(s0)
	mv	a5,a2
	sd	a3,-64(s0)
	sd	a4,-72(s0)
	sb	a5,-49(s0)
	.loc 1 206 6
	lbu	a5,-49(s0)
	andi	a5,a5,0xff
	beq	a5,zero,.L22
	.loc 1 207 12
	li	a5,-1
	slli	a5,a5,63
	addi	a5,a5,3
	j	.L23
.L22:
	.loc 1 210 19
	ld	a5,-40(s0)
	addi	a5,a5,-216
	.loc 1 210 122
	lw	a4,0(a5)
	.loc 1 210 207
	li	a5,1869176832
	addi	a5,a5,880
	bne	a4,a5,.L24
	.loc 1 210 15 discriminator 1
	ld	a5,-40(s0)
	addi	a5,a5,-216
	sd	a5,-24(s0)
	j	.L25
.L24:
	.loc 1 210 15 is_stmt 0 discriminator 2
	sd	zero,-24(s0)
.L25:
	.loc 1 212 10 is_stmt 1
	ld	a3,-72(s0)
	ld	a2,-64(s0)
	ld	a1,-48(s0)
	ld	a0,-24(s0)
	call	LocalLoadFile2
	mv	a5,a0
.L23:
	.loc 1 218 1
	mv	a0,a5
	ld	ra,72(sp)
	.cfi_restore 1
	ld	s0,64(sp)
	.cfi_restore 8
	.cfi_def_cfa 2, 80
	addi	sp,sp,80
	.cfi_def_cfa_offset 0
	jr	ra
	.cfi_endproc
.LFE2:
	.size	LoadFile2, .-LoadFile2
	.section	.text.GetOpRomInfo,"ax",@progbits
	.align	1
	.globl	GetOpRomInfo
	.type	GetOpRomInfo, @function
GetOpRomInfo:
.LFB3:
	.loc 1 234 1
	.cfi_startproc
	addi	sp,sp,-80
	.cfi_def_cfa_offset 80
	sd	ra,72(sp)
	sd	s0,64(sp)
	.cfi_offset 1, -8
	.cfi_offset 8, -16
	addi	s0,sp,80
	.cfi_def_cfa 8, 0
	sd	a0,-72(s0)
	.loc 1 244 7
	ld	a5,-72(s0)
	lbu	a5,288(a5)
	sb	a5,-18(s0)
	.loc 1 245 10
	ld	a5,-72(s0)
	lbu	a5,289(a5)
	sb	a5,-19(s0)
	.loc 1 246 12
	ld	a5,-72(s0)
	lbu	a5,290(a5)
	sb	a5,-20(s0)
	.loc 1 248 19
	ld	a5,-72(s0)
	ld	a5,208(a5)
	sd	a5,-32(s0)
	.loc 1 257 15
	li	a5,48
	sb	a5,-17(s0)
	.loc 1 259 33
	ld	a5,-72(s0)
	lbu	a5,238(a5)
	.loc 1 259 45
	sext.w	a5,a5
	andi	a5,a5,127
	sext.w	a4,a5
	.loc 1 259 6
	li	a5,1
	bne	a4,a5,.L27
	.loc 1 263 17
	li	a5,56
	sb	a5,-17(s0)
.L27:
	.loc 1 269 11
	li	a5,-2
	sw	a5,-52(s0)
	.loc 1 270 26
	lbu	a5,-18(s0)
	.loc 1 270 39
	slli	a4,a5,24
	.loc 1 270 50
	lbu	a5,-19(s0)
	.loc 1 270 66
	slli	a5,a5,16
	.loc 1 270 46
	or	a4,a4,a5
	.loc 1 270 77
	lbu	a5,-20(s0)
	.loc 1 270 95
	slli	a5,a5,8
	.loc 1 270 73
	or	a4,a4,a5
	.loc 1 270 160
	lbu	a5,-17(s0)
	.loc 1 270 11
	or	a5,a4,a5
	sd	a5,-40(s0)
	.loc 1 272 32
	ld	a5,-32(s0)
	ld	a5,64(a5)
	.loc 1 272 12
	addi	a4,s0,-52
	li	a3,1
	ld	a2,-40(s0)
	li	a1,2
	ld	a0,-32(s0)
	jalr	a5
.LVL3:
	sd	a0,-48(s0)
	.loc 1 279 34
	ld	a5,-48(s0)
	.loc 1 279 6
	bge	a5,zero,.L28
	.loc 1 280 12
	li	a5,-1
	slli	a5,a5,63
	addi	a5,a5,14
	j	.L33
.L28:
	.loc 1 286 32
	ld	a5,-32(s0)
	ld	a5,56(a5)
	.loc 1 286 12
	addi	a4,s0,-52
	li	a3,1
	ld	a2,-40(s0)
	li	a1,2
	ld	a0,-32(s0)
	jalr	a5
.LVL4:
	sd	a0,-48(s0)
	.loc 1 293 34
	ld	a5,-48(s0)
	.loc 1 293 6
	bge	a5,zero,.L30
	.loc 1 294 12
	li	a5,-1
	slli	a5,a5,63
	addi	a5,a5,14
	j	.L33
.L30:
	.loc 1 300 11
	lw	a5,-52(s0)
	andi	a5,a5,-2048
	sext.w	a5,a5
	sw	a5,-52(s0)
	.loc 1 301 16
	lw	a5,-52(s0)
	.loc 1 301 6
	beq	a5,zero,.L31
	.loc 1 301 34 discriminator 1
	lw	a4,-52(s0)
	.loc 1 301 22 discriminator 1
	li	a5,-2048
	bne	a4,a5,.L32
.L31:
	.loc 1 302 12
	li	a5,-1
	slli	a5,a5,63
	addi	a5,a5,14
	j	.L33
.L32:
	.loc 1 305 37
	lw	a5,-52(s0)
	negw	a5,a5
	sext.w	a4,a5
	.loc 1 305 24
	ld	a5,-72(s0)
	sw	a4,544(a5)
	.loc 1 306 10
	li	a5,0
.L33:
	.loc 1 307 1
	mv	a0,a5
	ld	ra,72(sp)
	.cfi_restore 1
	ld	s0,64(sp)
	.cfi_restore 8
	.cfi_def_cfa 2, 80
	addi	sp,sp,80
	.cfi_def_cfa_offset 0
	jr	ra
	.cfi_endproc
.LFE3:
	.size	GetOpRomInfo, .-GetOpRomInfo
	.section	.text.ContainEfiImage,"ax",@progbits
	.align	1
	.globl	ContainEfiImage
	.type	ContainEfiImage, @function
ContainEfiImage:
.LFB4:
	.loc 1 324 1
	.cfi_startproc
	addi	sp,sp,-64
	.cfi_def_cfa_offset 64
	sd	ra,56(sp)
	sd	s0,48(sp)
	.cfi_offset 1, -8
	.cfi_offset 8, -16
	addi	s0,sp,64
	.cfi_def_cfa 8, 0
	sd	a0,-56(s0)
	sd	a1,-64(s0)
	.loc 1 329 13
	sb	zero,-25(s0)
	.loc 1 330 13
	ld	a5,-56(s0)
	sd	a5,-24(s0)
	.loc 1 331 6
	ld	a5,-24(s0)
	bne	a5,zero,.L35
	.loc 1 332 12
	li	a5,0
	j	.L36
.L35:
	.loc 1 336 18
	ld	a5,-24(s0)
	lbu	a4,0(a5)
	lbu	a5,1(a5)
	slli	a5,a5,8
	or	a5,a5,a4
	slli	a5,a5,48
	srli	a5,a5,48
	.loc 1 336 8
	sext.w	a4,a5
	li	a5,45056
	addi	a5,a5,-1451
	beq	a4,a5,.L37
	.loc 1 337 17
	ld	a5,-24(s0)
	addi	a5,a5,512
	sd	a5,-24(s0)
	.loc 1 338 7
	j	.L38
.L37:
	.loc 1 344 19
	ld	a5,-24(s0)
	lbu	a4,24(a5)
	lbu	a5,25(a5)
	slli	a5,a5,8
	or	a5,a5,a4
	slli	a5,a5,48
	srli	a5,a5,48
	.loc 1 344 8
	beq	a5,zero,.L39
	.loc 1 345 20
	ld	a5,-24(s0)
	lbu	a4,24(a5)
	lbu	a5,25(a5)
	slli	a5,a5,8
	or	a5,a5,a4
	slli	a5,a5,48
	srli	a5,a5,48
	.loc 1 345 33
	sext.w	a5,a5
	andi	a5,a5,3
	sext.w	a5,a5
	.loc 1 344 38 discriminator 1
	bne	a5,zero,.L39
	.loc 1 346 40
	ld	a5,-24(s0)
	lbu	a4,24(a5)
	lbu	a5,25(a5)
	slli	a5,a5,8
	or	a5,a5,a4
	slli	a5,a5,48
	srli	a5,a5,48
	.loc 1 346 53
	addi	a5,a5,24
	ld	a4,-24(s0)
	add	a4,a4,a5
	.loc 1 346 103
	ld	a3,-56(s0)
	ld	a5,-64(s0)
	add	a5,a3,a5
	.loc 1 345 44
	bgtu	a4,a5,.L39
	.loc 1 351 68
	ld	a5,-24(s0)
	lbu	a4,24(a5)
	lbu	a5,25(a5)
	slli	a5,a5,8
	or	a5,a5,a4
	slli	a5,a5,48
	srli	a5,a5,48
	mv	a4,a5
	.loc 1 351 13
	ld	a5,-24(s0)
	add	a5,a5,a4
	sd	a5,-40(s0)
	.loc 1 352 16
	ld	a5,-40(s0)
	lbu	a4,0(a5)
	lbu	a3,1(a5)
	slli	a3,a3,8
	or	a4,a3,a4
	lbu	a3,2(a5)
	slli	a3,a3,16
	or	a4,a3,a4
	lbu	a5,3(a5)
	slli	a5,a5,24
	or	a5,a5,a4
	sext.w	a4,a5
	.loc 1 352 8
	li	a5,1380532224
	addi	a5,a5,848
	bne	a4,a5,.L42
	.loc 1 356 16
	ld	a5,-40(s0)
	lbu	a5,20(a5)
	.loc 1 356 8
	mv	a4,a5
	li	a5,3
	bne	a4,a5,.L41
	.loc 1 357 14
	li	a5,1
	j	.L36
.L41:
	.loc 1 360 15
	ld	a5,-40(s0)
	lbu	a5,21(a5)
	sb	a5,-25(s0)
	.loc 1 361 74
	ld	a5,-40(s0)
	lbu	a4,16(a5)
	lbu	a5,17(a5)
	slli	a5,a5,8
	or	a5,a5,a4
	slli	a5,a5,48
	srli	a5,a5,48
	sext.w	a5,a5
	.loc 1 361 88
	slliw	a5,a5,9
	sext.w	a5,a5
	mv	a4,a5
	.loc 1 361 15
	ld	a5,-24(s0)
	add	a5,a5,a4
	sd	a5,-24(s0)
.L38:
	.loc 1 362 52
	ld	a4,-56(s0)
	ld	a5,-64(s0)
	add	a5,a4,a5
	.loc 1 362 63
	ld	a4,-24(s0)
	bgeu	a4,a5,.L39
	.loc 1 362 86 discriminator 1
	lb	a5,-25(s0)
	.loc 1 362 63 discriminator 1
	bge	a5,zero,.L35
	j	.L39
.L42:
	.loc 1 353 7
	nop
.L39:
	.loc 1 364 10
	li	a5,0
.L36:
	.loc 1 365 1
	mv	a0,a5
	ld	ra,56(sp)
	.cfi_restore 1
	ld	s0,48(sp)
	.cfi_restore 8
	.cfi_def_cfa 2, 64
	addi	sp,sp,64
	.cfi_def_cfa_offset 0
	jr	ra
	.cfi_endproc
.LFE4:
	.size	ContainEfiImage, .-ContainEfiImage
	.section	.text.LoadOpRomImage,"ax",@progbits
	.align	1
	.globl	LoadOpRomImage
	.type	LoadOpRomImage, @function
LoadOpRomImage:
.LFB5:
	.loc 1 382 1
	.cfi_startproc
	addi	sp,sp,-128
	.cfi_def_cfa_offset 128
	sd	ra,120(sp)
	sd	s0,112(sp)
	.cfi_offset 1, -8
	.cfi_offset 8, -16
	addi	s0,sp,128
	.cfi_def_cfa 8, 0
	sd	a0,-120(s0)
	sd	a1,-128(s0)
	.loc 1 399 22
	ld	a5,-120(s0)
	lw	a5,544(a5)
	.loc 1 399 11
	slli	a5,a5,32
	srli	a5,a5,32
	sd	a5,-80(s0)
	.loc 1 401 13
	sb	zero,-18(s0)
	.loc 1 402 16
	sd	zero,-48(s0)
	.loc 1 403 15
	sd	zero,-64(s0)
	.loc 1 404 12
	li	a5,-1
	sb	a5,-65(s0)
	.loc 1 413 15
	li	a5,48
	sb	a5,-17(s0)
	.loc 1 414 33
	ld	a5,-120(s0)
	lbu	a5,238(a5)
	.loc 1 414 45
	sext.w	a5,a5
	andi	a5,a5,127
	sext.w	a4,a5
	.loc 1 414 6
	li	a5,1
	bne	a4,a5,.L44
	.loc 1 422 17
	li	a5,56
	sb	a5,-17(s0)
.L44:
	.loc 1 428 15
	li	a0,26
	call	AllocatePool@plt
	sd	a0,-88(s0)
	.loc 1 429 6
	ld	a5,-88(s0)
	bne	a5,zero,.L45
	.loc 1 430 12
	li	a5,-1
	slli	a5,a5,63
	addi	a5,a5,9
	j	.L46
.L45:
	.loc 1 433 13
	li	a0,24
	call	AllocatePool@plt
	sd	a0,-96(s0)
	.loc 1 434 6
	ld	a5,-96(s0)
	bne	a5,zero,.L47
	.loc 1 435 5
	ld	a0,-88(s0)
	call	FreePool@plt
	.loc 1 436 12
	li	a5,-1
	slli	a5,a5,63
	addi	a5,a5,9
	j	.L46
.L47:
	.loc 1 439 10
	ld	a5,-128(s0)
	sw	a5,-100(s0)
	.loc 1 444 3
	lw	a4,-100(s0)
	lbu	a5,-17(s0)
	li	a3,1
	mv	a2,a4
	mv	a1,a5
	ld	a0,-120(s0)
	call	RomDecode
	.loc 1 446 16
	lw	a5,-100(s0)
	sw	a5,-24(s0)
	.loc 1 447 13
	li	a5,-1
	slli	a5,a5,63
	addi	a5,a5,14
	sd	a5,-32(s0)
	.loc 1 448 14
	li	a5,1
	sb	a5,-33(s0)
	.loc 1 449 21
	sw	zero,-52(s0)
.L55:
	.loc 1 452 14
	ld	a5,-120(s0)
	ld	a5,208(a5)
	.loc 1 452 36
	ld	a5,24(a5)
	.loc 1 452 5
	ld	a4,-120(s0)
	ld	a0,208(a4)
	lwu	a2,-24(s0)
	ld	a4,-88(s0)
	li	a3,26
	li	a1,0
	jalr	a5
.LVL5:
	.loc 1 460 18
	ld	a5,-88(s0)
	lbu	a4,0(a5)
	lbu	a5,1(a5)
	slli	a5,a5,8
	or	a5,a5,a4
	slli	a5,a5,48
	srli	a5,a5,48
	.loc 1 460 8
	sext.w	a4,a5
	li	a5,45056
	addi	a5,a5,-1451
	beq	a4,a5,.L48
	.loc 1 461 20
	lw	a5,-24(s0)
	addiw	a5,a5,512
	sw	a5,-24(s0)
	.loc 1 462 10
	lbu	a5,-33(s0)
	andi	a5,a5,0xff
	bne	a5,zero,.L60
	.loc 1 465 22
	ld	a5,-48(s0)
	addi	a5,a5,512
	sd	a5,-48(s0)
	.loc 1 466 9
	j	.L51
.L48:
	.loc 1 470 16
	sb	zero,-33(s0)
	.loc 1 471 16
	ld	a5,-88(s0)
	lbu	a4,24(a5)
	lbu	a5,25(a5)
	slli	a5,a5,8
	or	a5,a5,a4
	sh	a5,-102(s0)
	.loc 1 476 8
	lhu	a5,-102(s0)
	sext.w	a5,a5
	beq	a5,zero,.L50
	.loc 1 477 22
	lhu	a5,-102(s0)
	sext.w	a5,a5
	andi	a5,a5,3
	sext.w	a5,a5
	.loc 1 476 27 discriminator 1
	bne	a5,zero,.L50
	.loc 1 478 23
	lhu	a4,-102(s0)
	ld	a5,-48(s0)
	add	a5,a4,a5
	.loc 1 478 36
	addi	a5,a5,24
	.loc 1 477 33
	ld	a4,-80(s0)
	bltu	a4,a5,.L50
	.loc 1 483 14
	ld	a5,-120(s0)
	ld	a5,208(a5)
	.loc 1 483 36
	ld	a5,24(a5)
	.loc 1 483 5
	ld	a4,-120(s0)
	ld	a0,208(a4)
	.loc 1 486 52
	lhu	a4,-102(s0)
	sext.w	a4,a4
	lw	a3,-24(s0)
	addw	a4,a3,a4
	sext.w	a4,a4
	.loc 1 483 5
	slli	a2,a4,32
	srli	a2,a2,32
	ld	a4,-96(s0)
	li	a3,24
	li	a1,0
	jalr	a5
.LVL6:
	.loc 1 493 16
	ld	a5,-96(s0)
	lbu	a4,0(a5)
	lbu	a3,1(a5)
	slli	a3,a3,8
	or	a4,a3,a4
	lbu	a3,2(a5)
	slli	a3,a3,16
	or	a4,a3,a4
	lbu	a5,3(a5)
	slli	a5,a5,24
	or	a5,a5,a4
	sext.w	a4,a5
	.loc 1 493 8
	li	a5,1380532224
	addi	a5,a5,848
	bne	a4,a5,.L61
	.loc 1 497 31
	ld	a5,-96(s0)
	lbu	a4,16(a5)
	lbu	a5,17(a5)
	slli	a5,a5,8
	or	a5,a5,a4
	slli	a5,a5,48
	srli	a5,a5,48
	sext.w	a5,a5
	.loc 1 497 45
	slliw	a5,a5,9
	sext.w	a5,a5
	mv	a4,a5
	.loc 1 497 22
	ld	a5,-48(s0)
	add	a5,a4,a5
	.loc 1 497 8
	ld	a4,-80(s0)
	bltu	a4,a5,.L62
	.loc 1 501 16
	ld	a5,-96(s0)
	lbu	a5,20(a5)
	.loc 1 501 8
	bne	a5,zero,.L54
	.loc 1 502 16
	sb	zero,-65(s0)
	.loc 1 503 82
	ld	a5,-88(s0)
	lbu	a5,2(a5)
	.loc 1 503 28
	sext.w	a5,a5
	.loc 1 503 25
	slliw	a5,a5,9
	sw	a5,-52(s0)
.L54:
	.loc 1 506 15
	ld	a5,-96(s0)
	lbu	a5,21(a5)
	sb	a5,-18(s0)
	.loc 1 507 42
	ld	a5,-96(s0)
	lbu	a4,16(a5)
	lbu	a5,17(a5)
	slli	a5,a5,8
	or	a5,a5,a4
	slli	a5,a5,48
	srli	a5,a5,48
	sext.w	a5,a5
	.loc 1 507 56
	slliw	a5,a5,9
	sext.w	a5,a5
	mv	a4,a5
	.loc 1 507 18
	ld	a5,-48(s0)
	add	a5,a5,a4
	sd	a5,-48(s0)
	.loc 1 508 42
	ld	a5,-96(s0)
	lbu	a4,16(a5)
	lbu	a5,17(a5)
	slli	a5,a5,8
	or	a5,a5,a4
	slli	a5,a5,48
	srli	a5,a5,48
	sext.w	a5,a5
	.loc 1 508 56
	slliw	a5,a5,9
	sext.w	a5,a5
	.loc 1 508 18
	lw	a4,-24(s0)
	addw	a5,a4,a5
	sw	a5,-24(s0)
.L51:
	.loc 1 509 32
	lb	a5,-18(s0)
	.loc 1 509 80
	blt	a5,zero,.L50
	.loc 1 509 59 discriminator 1
	lw	a5,-24(s0)
	mv	a4,a5
	lw	a5,-100(s0)
	subw	a5,a4,a5
	sext.w	a5,a5
	slli	a5,a5,32
	srli	a5,a5,32
	.loc 1 509 41 discriminator 1
	ld	a4,-80(s0)
	bleu	a4,a5,.L50
	.loc 1 509 80 discriminator 2
	ld	a5,-48(s0)
	bne	a5,zero,.L55
	j	.L50
.L60:
	.loc 1 463 9
	nop
	j	.L50
.L61:
	.loc 1 494 7
	nop
	j	.L50
.L62:
	.loc 1 498 7
	nop
.L50:
	.loc 1 515 6
	ld	a5,-48(s0)
	beq	a5,zero,.L56
	.loc 1 515 26 discriminator 1
	lbu	a5,-65(s0)
	andi	a5,a5,0xff
	bne	a5,zero,.L56
	.loc 1 516 77
	lwu	a4,-52(s0)
	.loc 1 516 18
	ld	a5,-48(s0)
	bgeu	a5,a4,.L57
	mv	a5,a4
.L57:
	sd	a5,-48(s0)
.L56:
	.loc 1 519 6
	ld	a5,-48(s0)
	beq	a5,zero,.L58
	.loc 1 520 15
	sd	zero,-32(s0)
	.loc 1 521 27
	ld	a5,-48(s0)
	sext.w	a5,a5
	.loc 1 521 13
	slli	a5,a5,32
	srli	a5,a5,32
	mv	a0,a5
	call	AllocatePool@plt
	sd	a0,-112(s0)
	.loc 1 522 8
	ld	a5,-112(s0)
	bne	a5,zero,.L59
	.loc 1 523 7
	lw	a4,-100(s0)
	lbu	a5,-17(s0)
	li	a3,0
	mv	a2,a4
	mv	a1,a5
	ld	a0,-120(s0)
	call	RomDecode
	.loc 1 524 7
	ld	a0,-88(s0)
	call	FreePool@plt
	.loc 1 525 7
	ld	a0,-96(s0)
	call	FreePool@plt
	.loc 1 526 14
	li	a5,-1
	slli	a5,a5,63
	addi	a5,a5,9
	j	.L46
.L59:
	.loc 1 532 14
	ld	a5,-120(s0)
	ld	a5,208(a5)
	.loc 1 532 36
	ld	a5,24(a5)
	.loc 1 532 5
	ld	a4,-120(s0)
	ld	a0,208(a4)
	lwu	a2,-100(s0)
	.loc 1 536 39
	ld	a4,-48(s0)
	sext.w	a4,a4
	.loc 1 532 5
	srliw	a4,a4,2
	sext.w	a4,a4
	slli	a3,a4,32
	srli	a3,a3,32
	ld	a4,-112(s0)
	li	a1,2
	jalr	a5
.LVL7:
	.loc 1 539 17
	ld	a5,-112(s0)
	sd	a5,-64(s0)
.L58:
	.loc 1 542 3
	lw	a4,-100(s0)
	lbu	a5,-17(s0)
	li	a3,0
	mv	a2,a4
	mv	a1,a5
	ld	a0,-120(s0)
	call	RomDecode
	.loc 1 544 26
	ld	a5,-120(s0)
	li	a4,1
	sb	a4,540(a5)
	.loc 1 545 28
	ld	a5,-120(s0)
	ld	a4,-48(s0)
	sd	a4,160(a5)
	.loc 1 546 29
	ld	a5,-120(s0)
	ld	a4,-64(s0)
	sd	a4,168(a5)
	.loc 1 554 14
	ld	a5,-120(s0)
	ld	a5,208(a5)
	.loc 1 554 31
	lw	a5,144(a5)
	.loc 1 552 3
	slli	a1,a5,32
	srli	a1,a1,32
	ld	a5,-120(s0)
	lbu	a2,288(a5)
	ld	a5,-120(s0)
	lbu	a3,289(a5)
	ld	a5,-120(s0)
	lbu	a4,290(a5)
	ld	a5,-120(s0)
	ld	a0,168(a5)
	ld	a5,-120(s0)
	ld	a5,160(a5)
	mv	a6,a5
	mv	a5,a0
	li	a0,0
	call	PciRomAddImageMapping@plt
	.loc 1 565 3
	ld	a0,-88(s0)
	call	FreePool@plt
	.loc 1 566 3
	ld	a0,-96(s0)
	call	FreePool@plt
	.loc 1 568 10
	ld	a5,-32(s0)
.L46:
	.loc 1 569 1
	mv	a0,a5
	ld	ra,120(sp)
	.cfi_restore 1
	ld	s0,112(sp)
	.cfi_restore 8
	.cfi_def_cfa 2, 128
	addi	sp,sp,128
	.cfi_def_cfa_offset 0
	jr	ra
	.cfi_endproc
.LFE5:
	.size	LoadOpRomImage, .-LoadOpRomImage
	.section	.text.RomDecode,"ax",@progbits
	.align	1
	.globl	RomDecode
	.type	RomDecode, @function
RomDecode:
.LFB6:
	.loc 1 588 1
	.cfi_startproc
	addi	sp,sp,-48
	.cfi_def_cfa_offset 48
	sd	ra,40(sp)
	sd	s0,32(sp)
	.cfi_offset 1, -8
	.cfi_offset 8, -16
	addi	s0,sp,48
	.cfi_def_cfa 8, 0
	sd	a0,-40(s0)
	mv	a5,a1
	mv	a4,a3
	sb	a5,-41(s0)
	mv	a5,a2
	sw	a5,-48(s0)
	mv	a5,a4
	sb	a5,-42(s0)
	.loc 1 592 9
	ld	a5,-40(s0)
	addi	a5,a5,16
	sd	a5,-24(s0)
	.loc 1 593 6
	lbu	a5,-42(s0)
	andi	a5,a5,0xff
	beq	a5,zero,.L64
	.loc 1 598 22
	lw	a5,-48(s0)
	ori	a5,a5,1
	sext.w	a5,a5
	.loc 1 598 13
	sw	a5,-28(s0)
	.loc 1 599 15
	ld	a5,-24(s0)
	ld	a5,56(a5)
	.loc 1 599 5
	lbu	a4,-41(s0)
	sext.w	a2,a4
	addi	a4,s0,-28
	li	a3,1
	li	a1,2
	ld	a0,-24(s0)
	jalr	a5
.LVL8:
	.loc 1 610 5
	lw	a5,-48(s0)
	li	a2,1
	mv	a1,a5
	ld	a0,-40(s0)
	call	ProgramUpstreamBridgeForRom@plt
	.loc 1 615 5
	li	a4,0
	li	a3,3
	li	a2,4
	li	a1,2
	ld	a0,-40(s0)
	call	PciOperateRegister@plt
	.loc 1 639 1
	j	.L66
.L64:
	.loc 1 620 5
	li	a4,0
	li	a3,4
	li	a2,4
	li	a1,2
	ld	a0,-40(s0)
	call	PciOperateRegister@plt
	.loc 1 625 5
	lw	a5,-48(s0)
	li	a2,0
	mv	a1,a5
	ld	a0,-40(s0)
	call	ProgramUpstreamBridgeForRom@plt
	.loc 1 630 13
	li	a5,-2
	sw	a5,-28(s0)
	.loc 1 631 15
	ld	a5,-24(s0)
	ld	a5,56(a5)
	.loc 1 631 5
	lbu	a4,-41(s0)
	sext.w	a2,a4
	addi	a4,s0,-28
	li	a3,1
	li	a1,2
	ld	a0,-24(s0)
	jalr	a5
.LVL9:
.L66:
	.loc 1 639 1
	nop
	ld	ra,40(sp)
	.cfi_restore 1
	ld	s0,32(sp)
	.cfi_restore 8
	.cfi_def_cfa 2, 48
	addi	sp,sp,48
	.cfi_def_cfa_offset 0
	jr	ra
	.cfi_endproc
.LFE6:
	.size	RomDecode, .-RomDecode
	.section	.text.ProcessOpRomImage,"ax",@progbits
	.align	1
	.globl	ProcessOpRomImage
	.type	ProcessOpRomImage, @function
ProcessOpRomImage:
.LFB7:
	.loc 1 654 1
	.cfi_startproc
	addi	sp,sp,-160
	.cfi_def_cfa_offset 160
	sd	ra,152(sp)
	sd	s0,144(sp)
	.cfi_offset 1, -8
	.cfi_offset 8, -16
	addi	s0,sp,160
	.cfi_def_cfa 8, 0
	sd	a0,-152(s0)
	.loc 1 669 13
	sb	zero,-17(s0)
	.loc 1 674 10
	ld	a5,-152(s0)
	ld	a5,168(a5)
	sd	a5,-48(s0)
	.loc 1 675 16
	ld	a5,-48(s0)
	sd	a5,-32(s0)
	.loc 1 676 13
	li	a5,-1
	slli	a5,a5,63
	addi	a5,a5,14
	sd	a5,-40(s0)
	.loc 1 678 6
	ld	a5,-48(s0)
	bne	a5,zero,.L68
	.loc 1 679 12
	ld	a5,-40(s0)
	j	.L78
.L68:
	.loc 1 685 18
	ld	a5,-32(s0)
	sd	a5,-56(s0)
	.loc 1 686 21
	ld	a5,-56(s0)
	lbu	a4,0(a5)
	lbu	a5,1(a5)
	slli	a5,a5,8
	or	a5,a5,a4
	slli	a5,a5,48
	srli	a5,a5,48
	.loc 1 686 8
	sext.w	a4,a5
	li	a5,45056
	addi	a5,a5,-1451
	beq	a4,a5,.L70
	.loc 1 687 20
	ld	a5,-32(s0)
	addi	a5,a5,512
	sd	a5,-32(s0)
	.loc 1 688 7
	j	.L71
.L70:
	.loc 1 691 62
	ld	a5,-56(s0)
	lbu	a4,24(a5)
	lbu	a5,25(a5)
	slli	a5,a5,8
	or	a5,a5,a4
	slli	a5,a5,48
	srli	a5,a5,48
	mv	a4,a5
	.loc 1 691 10
	ld	a5,-32(s0)
	add	a5,a5,a4
	sd	a5,-64(s0)
	.loc 1 693 30
	ld	a5,-64(s0)
	lbu	a4,16(a5)
	lbu	a5,17(a5)
	slli	a5,a5,8
	or	a5,a5,a4
	slli	a5,a5,48
	srli	a5,a5,48
	sext.w	a5,a5
	.loc 1 693 44
	slliw	a5,a5,9
	sext.w	a5,a5
	.loc 1 693 15
	sw	a5,-68(s0)
	.loc 1 694 15
	ld	a5,-64(s0)
	lbu	a5,21(a5)
	sb	a5,-17(s0)
	.loc 1 699 13
	ld	a5,-64(s0)
	lbu	a5,20(a5)
	.loc 1 699 8
	mv	a4,a5
	li	a5,3
	bne	a4,a5,.L79
	.loc 1 706 21
	ld	a5,-56(s0)
	lbu	a4,8(a5)
	lbu	a5,9(a5)
	slli	a5,a5,8
	or	a5,a5,a4
	slli	a5,a5,48
	srli	a5,a5,48
	.loc 1 706 8
	sext.w	a4,a5
	li	a5,10
	beq	a4,a5,.L80
	.loc 1 713 35
	li	a5,4
	sb	a5,-136(s0)
	.loc 1 714 38
	li	a5,8
	sb	a5,-135(s0)
	.loc 1 715 5
	addi	a5,s0,-136
	li	a1,24
	mv	a0,a5
	call	SetDevicePathNodeLength@plt
	.loc 1 716 40
	ld	a4,-32(s0)
	.loc 1 716 62
	ld	a5,-48(s0)
	.loc 1 716 60
	sub	a5,a4,a5
	.loc 1 716 38
	sd	a5,-128(s0)
	.loc 1 717 58
	lwu	a4,-68(s0)
	.loc 1 717 38
	ld	a5,-32(s0)
	.loc 1 717 58
	add	a4,a4,a5
	.loc 1 717 74
	ld	a5,-48(s0)
	sub	a5,a4,a5
	addi	a5,a5,-1
	.loc 1 717 36
	sd	a5,-120(s0)
	.loc 1 719 66
	ld	a5,-152(s0)
	ld	a5,200(a5)
	.loc 1 719 35
	addi	a4,s0,-136
	mv	a1,a4
	mv	a0,a5
	call	AppendDevicePathNode@plt
	sd	a0,-80(s0)
	.loc 1 725 16
	sd	zero,-88(s0)
	.loc 1 726 12
	sd	zero,-96(s0)
	.loc 1 727 17
	sd	zero,-112(s0)
	.loc 1 729 17
	la	a5,gBS
	ld	a5,0(a5)
	ld	a6,200(a5)
	.loc 1 729 14
	la	a5,gPciBusDriverBinding
	ld	a1,40(a5)
	addi	a5,s0,-112
	ld	a4,-88(s0)
	ld	a3,-96(s0)
	ld	a2,-80(s0)
	li	a0,0
	jalr	a6
.LVL10:
	sd	a0,-104(s0)
	.loc 1 737 36
	ld	a5,-104(s0)
	.loc 1 737 8
	bge	a5,zero,.L75
	.loc 1 742 7
	ld	a2,-80(s0)
	li	a1,0
	ld	a0,-152(s0)
	call	AddDriver@plt
	j	.L76
.L75:
	.loc 1 744 19
	la	a5,gBS
	ld	a5,0(a5)
	ld	a5,208(a5)
	.loc 1 744 16
	ld	a4,-112(s0)
	li	a2,0
	li	a1,0
	mv	a0,a4
	jalr	a5
.LVL11:
	sd	a0,-104(s0)
	.loc 1 745 11
	ld	a5,-104(s0)
	.loc 1 745 10
	blt	a5,zero,.L76
	.loc 1 749 9
	ld	a5,-112(s0)
	li	a2,0
	mv	a1,a5
	ld	a0,-152(s0)
	call	AddDriver@plt
	.loc 1 750 9
	ld	a0,-112(s0)
	.loc 1 752 20
	ld	a5,-152(s0)
	ld	a5,208(a5)
	.loc 1 752 37
	lw	a5,144(a5)
	.loc 1 750 9
	slli	a1,a5,32
	srli	a1,a1,32
	ld	a5,-152(s0)
	lbu	a2,288(a5)
	ld	a5,-152(s0)
	lbu	a3,289(a5)
	ld	a5,-152(s0)
	lbu	a4,290(a5)
	ld	a5,-152(s0)
	ld	a7,168(a5)
	ld	a5,-152(s0)
	ld	a5,160(a5)
	mv	a6,a5
	mv	a5,a7
	call	PciRomAddImageMapping@plt
	.loc 1 759 19
	sd	zero,-40(s0)
.L76:
	.loc 1 763 5
	ld	a0,-80(s0)
	call	FreePool@plt
	j	.L73
.L79:
	.loc 1 700 7
	nop
	j	.L73
.L80:
	.loc 1 707 7
	nop
.L73:
	.loc 1 766 18
	lwu	a5,-68(s0)
	ld	a4,-32(s0)
	add	a5,a4,a5
	sd	a5,-32(s0)
.L71:
	.loc 1 767 32
	lb	a5,-17(s0)
	.loc 1 767 41
	blt	a5,zero,.L77
	.loc 1 767 46 discriminator 1
	ld	a4,-32(s0)
	.loc 1 767 68 discriminator 1
	ld	a5,-48(s0)
	.loc 1 767 66 discriminator 1
	sub	a4,a4,a5
	.loc 1 767 94 discriminator 1
	ld	a5,-152(s0)
	lw	a5,544(a5)
	slli	a5,a5,32
	srli	a5,a5,32
	.loc 1 767 41 discriminator 1
	bltu	a4,a5,.L68
.L77:
	.loc 1 769 10
	ld	a5,-40(s0)
.L78:
	.loc 1 770 1
	mv	a0,a5
	ld	ra,152(sp)
	.cfi_restore 1
	ld	s0,144(sp)
	.cfi_restore 8
	.cfi_def_cfa 2, 160
	addi	sp,sp,160
	.cfi_def_cfa_offset 0
	jr	ra
	.cfi_endproc
.LFE7:
	.size	ProcessOpRomImage, .-ProcessOpRomImage
	.text
.Letext0:
	.file 2 "/home/kapoagaeming/spacemit-image-builder/components/edk2/MdePkg/Include/RiscV64/ProcessorBind.h"
	.file 3 "/home/kapoagaeming/spacemit-image-builder/components/edk2/MdePkg/Include/Base.h"
	.file 4 "/home/kapoagaeming/spacemit-image-builder/components/edk2/MdePkg/Include/Uefi/UefiBaseType.h"
	.file 5 "/home/kapoagaeming/spacemit-image-builder/components/edk2/MdePkg/Include/Uefi/UefiMultiPhase.h"
	.file 6 "/home/kapoagaeming/spacemit-image-builder/components/edk2/MdePkg/Include/IndustryStandard/Acpi10.h"
	.file 7 "/home/kapoagaeming/spacemit-image-builder/components/edk2/MdePkg/Include/Protocol/DevicePath.h"
	.file 8 "/home/kapoagaeming/spacemit-image-builder/components/edk2/MdePkg/Include/Uefi/UefiSpec.h"
	.file 9 "/home/kapoagaeming/spacemit-image-builder/components/edk2/MdePkg/Include/Protocol/PciRootBridgeIo.h"
	.file 10 "/home/kapoagaeming/spacemit-image-builder/components/edk2/MdePkg/Include/Protocol/PciIo.h"
	.file 11 "/home/kapoagaeming/spacemit-image-builder/components/edk2/MdePkg/Include/Protocol/LoadFile2.h"
	.file 12 "/home/kapoagaeming/spacemit-image-builder/components/edk2/MdePkg/Include/Protocol/PciHotPlugInit.h"
	.file 13 "/home/kapoagaeming/spacemit-image-builder/components/edk2/MdePkg/Include/Protocol/Decompress.h"
	.file 14 "/home/kapoagaeming/spacemit-image-builder/components/edk2/MdePkg/Include/Protocol/BusSpecificDriverOverride.h"
	.file 15 "/home/kapoagaeming/spacemit-image-builder/components/edk2/MdePkg/Include/Protocol/DriverBinding.h"
	.file 16 "/home/kapoagaeming/spacemit-image-builder/components/edk2/MdePkg/Include/IndustryStandard/Pci22.h"
	.file 17 "/home/kapoagaeming/spacemit-image-builder/components/edk2-platforms/Silicon/Spacemit/Override/MdeModulePkg/Bus/Pci/PciBusDxe/PciBus.h"
	.file 18 "/home/kapoagaeming/spacemit-image-builder/components/Build/Milk-V-Jupiter/RELEASE_GCC5/RISCV64/Silicon/Spacemit/Override/MdeModulePkg/Bus/Pci/PciBusDxe/PciBusDxe/DEBUG/AutoGen.h"
	.file 19 "/home/kapoagaeming/spacemit-image-builder/components/edk2-platforms/Silicon/Spacemit/Override/MdeModulePkg/Bus/Pci/PciBusDxe/PciDriverOverride.h"
	.file 20 "/home/kapoagaeming/spacemit-image-builder/components/edk2/MdePkg/Include/Library/DevicePathLib.h"
	.file 21 "/home/kapoagaeming/spacemit-image-builder/components/edk2-platforms/Silicon/Spacemit/Override/MdeModulePkg/Bus/Pci/PciBusDxe/PciCommand.h"
	.file 22 "/home/kapoagaeming/spacemit-image-builder/components/edk2-platforms/Silicon/Spacemit/Override/MdeModulePkg/Bus/Pci/PciBusDxe/PciResourceSupport.h"
	.file 23 "/home/kapoagaeming/spacemit-image-builder/components/edk2-platforms/Silicon/Spacemit/Override/MdeModulePkg/Bus/Pci/PciBusDxe/PciRomTable.h"
	.file 24 "/home/kapoagaeming/spacemit-image-builder/components/edk2/MdePkg/Include/Library/MemoryAllocationLib.h"
	.file 25 "/home/kapoagaeming/spacemit-image-builder/components/edk2/MdePkg/Include/Library/BaseMemoryLib.h"
	.file 26 "/home/kapoagaeming/spacemit-image-builder/components/edk2/MdePkg/Include/Library/UefiBootServicesTableLib.h"
	.section	.note.GNU-stack,"",@progbits
