	.file	"PciResourceSupport.c"
	.option pic
	.option norelax
	.attribute arch, "rv64i2p1_m2p0_a2p1_f2p2_d2p2_c2p0_zicsr2p0_zifencei2p0_zmmul1p0_zaamo1p0_zalrsc1p0_zca1p0_zcd1p0"
	.attribute unaligned_access, 0
	.attribute stack_align, 16
	.text
.Ltext0:
	.cfi_sections	.debug_frame
	.file 0 "/home/kapoagaeming/spacemit-image-builder/components/Build/Milk-V-Jupiter/RELEASE_GCC5/RISCV64/Silicon/Spacemit/Override/MdeModulePkg/Bus/Pci/PciBusDxe/PciBusDxe" "/home/kapoagaeming/spacemit-image-builder/components/edk2-platforms/Silicon/Spacemit/Override/MdeModulePkg/Bus/Pci/PciBusDxe/PciResourceSupport.c"
	.globl	mReserveIsaAliases
	.section	.bss.mReserveIsaAliases,"aw",@nobits
	.type	mReserveIsaAliases, @object
	.size	mReserveIsaAliases, 1
mReserveIsaAliases:
	.zero	1
	.globl	mReserveVgaAliases
	.section	.bss.mReserveVgaAliases,"aw",@nobits
	.type	mReserveVgaAliases, @object
	.size	mReserveVgaAliases, 1
mReserveVgaAliases:
	.zero	1
	.globl	mPolicyDetermined
	.section	.bss.mPolicyDetermined,"aw",@nobits
	.type	mPolicyDetermined, @object
	.size	mPolicyDetermined, 1
mPolicyDetermined:
	.zero	1
	.section	.text.SkipVGAAperture,"ax",@progbits
	.align	1
	.globl	SkipVGAAperture
	.type	SkipVGAAperture, @function
SkipVGAAperture:
.LFB0:
	.file 1 "/home/kapoagaeming/spacemit-image-builder/components/edk2-platforms/Silicon/Spacemit/Override/MdeModulePkg/Bus/Pci/PciBusDxe/PciResourceSupport.c"
	.loc 1 30 1
	.cfi_startproc
	addi	sp,sp,-64
	.cfi_def_cfa_offset 64
	sd	ra,56(sp)
	sd	s0,48(sp)
	.cfi_offset 1, -8
	.cfi_offset 8, -16
	addi	s0,sp,64
	.cfi_def_cfa 8, 0
	sd	a0,-56(s0)
	sd	a1,-64(s0)
	.loc 1 40 8
	li	a5,1023
	sd	a5,-24(s0)
	.loc 1 42 12
	ld	a5,-56(s0)
	ld	a5,0(a5)
	sd	a5,-32(s0)
	.loc 1 43 15
	ld	a4,-32(s0)
	ld	a5,-24(s0)
	and	a5,a4,a5
	sd	a5,-40(s0)
	.loc 1 44 19
	ld	a5,-56(s0)
	ld	a4,0(a5)
	.loc 1 44 27
	ld	a5,-64(s0)
	add	a5,a4,a5
	.loc 1 44 36
	addi	a5,a5,-1
	.loc 1 44 15
	ld	a4,-24(s0)
	and	a5,a4,a5
	sd	a5,-48(s0)
	.loc 1 45 6
	ld	a4,-48(s0)
	li	a5,943
	bleu	a4,a5,.L3
	.loc 1 46 14
	ld	a5,-56(s0)
	ld	a4,0(a5)
	.loc 1 46 21
	ld	a5,-40(s0)
	sub	a5,a4,a5
	.loc 1 46 43
	addi	a4,a5,992
	.loc 1 46 12
	ld	a5,-56(s0)
	sd	a4,0(a5)
.L3:
	.loc 1 48 1
	nop
	ld	ra,56(sp)
	.cfi_restore 1
	ld	s0,48(sp)
	.cfi_restore 8
	.cfi_def_cfa 2, 64
	addi	sp,sp,64
	.cfi_def_cfa_offset 0
	jr	ra
	.cfi_endproc
.LFE0:
	.size	SkipVGAAperture, .-SkipVGAAperture
	.section	.text.SkipIsaAliasAperture,"ax",@progbits
	.align	1
	.globl	SkipIsaAliasAperture
	.type	SkipIsaAliasAperture, @function
SkipIsaAliasAperture:
.LFB1:
	.loc 1 62 1
	.cfi_startproc
	addi	sp,sp,-64
	.cfi_def_cfa_offset 64
	sd	ra,56(sp)
	sd	s0,48(sp)
	.cfi_offset 1, -8
	.cfi_offset 8, -16
	addi	s0,sp,64
	.cfi_def_cfa 8, 0
	sd	a0,-56(s0)
	sd	a1,-64(s0)
	.loc 1 73 8
	li	a5,1023
	sd	a5,-24(s0)
	.loc 1 75 12
	ld	a5,-56(s0)
	ld	a5,0(a5)
	sd	a5,-32(s0)
	.loc 1 76 15
	ld	a4,-32(s0)
	ld	a5,-24(s0)
	and	a5,a4,a5
	sd	a5,-40(s0)
	.loc 1 77 19
	ld	a5,-56(s0)
	ld	a4,0(a5)
	.loc 1 77 27
	ld	a5,-64(s0)
	add	a5,a4,a5
	.loc 1 77 36
	addi	a5,a5,-1
	.loc 1 77 15
	ld	a4,-24(s0)
	and	a5,a4,a5
	sd	a5,-48(s0)
	.loc 1 79 6
	ld	a4,-48(s0)
	li	a5,255
	bleu	a4,a5,.L6
	.loc 1 80 14
	ld	a5,-56(s0)
	ld	a4,0(a5)
	.loc 1 80 21
	ld	a5,-40(s0)
	sub	a5,a4,a5
	.loc 1 80 43
	addi	a4,a5,1024
	.loc 1 80 12
	ld	a5,-56(s0)
	sd	a4,0(a5)
.L6:
	.loc 1 82 1
	nop
	ld	ra,56(sp)
	.cfi_restore 1
	ld	s0,48(sp)
	.cfi_restore 8
	.cfi_def_cfa 2, 64
	addi	sp,sp,64
	.cfi_def_cfa_offset 0
	jr	ra
	.cfi_endproc
.LFE1:
	.size	SkipIsaAliasAperture, .-SkipIsaAliasAperture
	.section	.text.InsertResourceNode,"ax",@progbits
	.align	1
	.globl	InsertResourceNode
	.type	InsertResourceNode, @function
InsertResourceNode:
.LFB2:
	.loc 1 97 1
	.cfi_startproc
	addi	sp,sp,-64
	.cfi_def_cfa_offset 64
	sd	ra,56(sp)
	sd	s0,48(sp)
	.cfi_offset 1, -8
	.cfi_offset 8, -16
	addi	s0,sp,64
	.cfi_def_cfa 8, 0
	sd	a0,-56(s0)
	sd	a1,-64(s0)
	.loc 1 106 3
	ld	a5,-56(s0)
	addi	a4,a5,24
	ld	a5,-64(s0)
	addi	a5,a5,8
	mv	a1,a5
	mv	a0,a4
	call	InsertHeadList@plt
	.loc 1 108 34
	ld	a5,-56(s0)
	ld	a5,24(a5)
	.loc 1 108 15
	ld	a5,0(a5)
	sd	a5,-24(s0)
	.loc 1 109 9
	j	.L8
.L14:
	.loc 1 110 14
	ld	a5,-24(s0)
	addi	a5,a5,-8
	.loc 1 110 127
	lw	a4,0(a5)
	.loc 1 110 212
	li	a5,1668440064
	addi	a5,a5,880
	bne	a4,a5,.L9
	.loc 1 110 10 discriminator 1
	ld	a5,-24(s0)
	addi	a5,a5,-8
	sd	a5,-32(s0)
	j	.L10
.L9:
	.loc 1 110 10 is_stmt 0 discriminator 2
	sd	zero,-32(s0)
.L10:
	.loc 1 112 16 is_stmt 1
	ld	a5,-64(s0)
	ld	a4,48(a5)
	.loc 1 112 34
	ld	a5,-32(s0)
	ld	a5,48(a5)
	.loc 1 112 8
	bgtu	a4,a5,.L16
	.loc 1 114 23
	ld	a5,-64(s0)
	ld	a4,48(a5)
	.loc 1 114 42
	ld	a5,-32(s0)
	ld	a5,48(a5)
	.loc 1 114 15
	bne	a4,a5,.L13
	.loc 1 115 33
	ld	a5,-64(s0)
	ld	a4,72(a5)
	.loc 1 115 51
	ld	a5,-64(s0)
	ld	a5,48(a5)
	.loc 1 115 24
	and	a5,a4,a5
	sd	a5,-40(s0)
	.loc 1 116 27
	ld	a5,-32(s0)
	ld	a4,72(a5)
	.loc 1 116 42
	ld	a5,-32(s0)
	ld	a5,48(a5)
	.loc 1 116 21
	and	a5,a4,a5
	sd	a5,-48(s0)
	.loc 1 117 10
	ld	a5,-40(s0)
	beq	a5,zero,.L17
	.loc 1 117 35 discriminator 1
	ld	a4,-40(s0)
	ld	a5,-48(s0)
	bgeu	a4,a5,.L17
.L13:
	.loc 1 122 5
	ld	a5,-64(s0)
	addi	a5,a5,8
	ld	a1,-24(s0)
	mv	a0,a5
	call	SwapListEntries@plt
	.loc 1 124 17
	ld	a5,-64(s0)
	ld	a5,8(a5)
	sd	a5,-24(s0)
.L8:
	.loc 1 109 25
	ld	a5,-56(s0)
	addi	a5,a5,24
	.loc 1 109 22
	ld	a4,-24(s0)
	bne	a4,a5,.L14
	.loc 1 126 1
	j	.L17
.L16:
	.loc 1 113 7
	nop
.L17:
	.loc 1 126 1
	nop
	ld	ra,56(sp)
	.cfi_restore 1
	ld	s0,48(sp)
	.cfi_restore 8
	.cfi_def_cfa 2, 64
	addi	sp,sp,64
	.cfi_def_cfa_offset 0
	jr	ra
	.cfi_endproc
.LFE2:
	.size	InsertResourceNode, .-InsertResourceNode
	.section	.text.MergeResourceTree,"ax",@progbits
	.align	1
	.globl	MergeResourceTree
	.type	MergeResourceTree, @function
MergeResourceTree:
.LFB3:
	.loc 1 152 1
	.cfi_startproc
	addi	sp,sp,-64
	.cfi_def_cfa_offset 64
	sd	ra,56(sp)
	sd	s0,48(sp)
	.cfi_offset 1, -8
	.cfi_offset 8, -16
	addi	s0,sp,64
	.cfi_def_cfa 8, 0
	sd	a0,-40(s0)
	sd	a1,-48(s0)
	mv	a5,a2
	sb	a5,-49(s0)
	.loc 1 159 9
	j	.L19
.L23:
	.loc 1 160 17
	ld	a5,-48(s0)
	ld	a5,24(a5)
	sd	a5,-32(s0)
	.loc 1 162 14
	ld	a5,-32(s0)
	addi	a5,a5,-8
	.loc 1 162 127
	lw	a4,0(a5)
	.loc 1 162 212
	li	a5,1668440064
	addi	a5,a5,880
	bne	a4,a5,.L20
	.loc 1 162 10 discriminator 1
	ld	a5,-32(s0)
	addi	a5,a5,-8
	sd	a5,-24(s0)
	j	.L21
.L20:
	.loc 1 162 10 is_stmt 0 discriminator 2
	sd	zero,-24(s0)
.L21:
	.loc 1 164 8 is_stmt 1
	lbu	a5,-49(s0)
	andi	a5,a5,0xff
	beq	a5,zero,.L22
	.loc 1 165 26
	ld	a5,-40(s0)
	lw	a4,68(a5)
	.loc 1 165 21
	ld	a5,-24(s0)
	sw	a4,68(a5)
.L22:
	.loc 1 168 5
	ld	a0,-32(s0)
	call	RemoveEntryList@plt
	.loc 1 169 5
	ld	a1,-24(s0)
	ld	a0,-40(s0)
	call	InsertResourceNode
.L19:
	.loc 1 159 24
	ld	a5,-48(s0)
	addi	a5,a5,24
	.loc 1 159 11
	mv	a0,a5
	call	IsListEmpty@plt
	mv	a5,a0
	.loc 1 159 10 discriminator 1
	beq	a5,zero,.L23
	.loc 1 171 1
	nop
	nop
	ld	ra,56(sp)
	.cfi_restore 1
	ld	s0,48(sp)
	.cfi_restore 8
	.cfi_def_cfa 2, 64
	addi	sp,sp,64
	.cfi_def_cfa_offset 0
	jr	ra
	.cfi_endproc
.LFE3:
	.size	MergeResourceTree, .-MergeResourceTree
	.section	.text.CalculateApertureIo16,"ax",@progbits
	.align	1
	.globl	CalculateApertureIo16
	.type	CalculateApertureIo16, @function
CalculateApertureIo16:
.LFB4:
	.loc 1 184 1
	.cfi_startproc
	addi	sp,sp,-96
	.cfi_def_cfa_offset 96
	sd	ra,88(sp)
	sd	s0,80(sp)
	.cfi_offset 1, -8
	.cfi_offset 8, -16
	addi	s0,sp,96
	.cfi_def_cfa 8, 0
	sd	a0,-88(s0)
	.loc 1 193 7
	lla	a5,mPolicyDetermined
	lbu	a5,0(a5)
	.loc 1 193 6
	bne	a5,zero,.L25
	.loc 1 197 12
	li	a5,-1
	slli	a5,a5,63
	addi	a5,a5,14
	sd	a5,-24(s0)
	.loc 1 198 15
	sw	zero,-68(s0)
	.loc 1 199 30
	la	a5,gPciPlatformProtocol
	ld	a5,0(a5)
	.loc 1 199 8
	beq	a5,zero,.L26
	.loc 1 200 36
	la	a5,gPciPlatformProtocol
	ld	a5,0(a5)
	ld	a5,16(a5)
	.loc 1 200 16
	la	a4,gPciPlatformProtocol
	ld	a4,0(a4)
	addi	a3,s0,-68
	mv	a1,a3
	mv	a0,a4
	jalr	a5
.LVL0:
	sd	a0,-24(s0)
.L26:
	.loc 1 206 36
	ld	a5,-24(s0)
	.loc 1 206 8
	bge	a5,zero,.L27
	.loc 1 206 87 discriminator 1
	la	a5,gPciOverrideProtocol
	ld	a5,0(a5)
	.loc 1 206 62 discriminator 1
	beq	a5,zero,.L27
	.loc 1 207 36
	la	a5,gPciOverrideProtocol
	ld	a5,0(a5)
	ld	a5,16(a5)
	.loc 1 207 16
	la	a4,gPciOverrideProtocol
	ld	a4,0(a4)
	addi	a3,s0,-68
	mv	a1,a3
	mv	a0,a4
	jalr	a5
.LVL1:
	sd	a0,-24(s0)
.L27:
	.loc 1 213 9
	ld	a5,-24(s0)
	.loc 1 213 8
	blt	a5,zero,.L28
	.loc 1 214 22
	lw	a5,-68(s0)
	andi	a5,a5,1
	sext.w	a5,a5
	.loc 1 214 10
	beq	a5,zero,.L29
	.loc 1 215 28
	lla	a5,mReserveIsaAliases
	li	a4,1
	sb	a4,0(a5)
.L29:
	.loc 1 218 22
	lw	a5,-68(s0)
	andi	a5,a5,4
	sext.w	a5,a5
	.loc 1 218 10
	beq	a5,zero,.L28
	.loc 1 219 28
	lla	a5,mReserveVgaAliases
	li	a4,1
	sb	a4,0(a5)
.L28:
	.loc 1 223 23
	lla	a5,mPolicyDetermined
	li	a4,1
	sb	a4,0(a5)
.L25:
	.loc 1 226 12
	sd	zero,-64(s0)
	.loc 1 227 19
	sd	zero,-48(s0)
	.loc 1 229 6
	ld	a5,-88(s0)
	beq	a5,zero,.L47
	.loc 1 236 37
	ld	a5,-88(s0)
	addi	a5,a5,24
	.loc 1 236 23
	mv	a0,a5
	call	GetFirstNode@plt
	sd	a0,-32(s0)
	.loc 1 236 3
	j	.L32
.L41:
	.loc 1 241 14
	ld	a5,-32(s0)
	addi	a5,a5,-8
	.loc 1 241 127
	lw	a4,0(a5)
	.loc 1 241 212
	li	a5,1668440064
	addi	a5,a5,880
	bne	a4,a5,.L33
	.loc 1 241 10 discriminator 1
	ld	a5,-32(s0)
	addi	a5,a5,-8
	sd	a5,-40(s0)
	j	.L34
.L33:
	.loc 1 241 10 is_stmt 0 discriminator 2
	sd	zero,-40(s0)
.L34:
	.loc 1 242 13 is_stmt 1
	ld	a5,-40(s0)
	lw	a4,84(a5)
	.loc 1 242 8
	li	a5,1
	bne	a4,a5,.L35
	.loc 1 244 23
	ld	a5,-40(s0)
	ld	a5,72(a5)
	sd	a5,-48(s0)
	.loc 1 245 7
	j	.L36
.L35:
	.loc 1 251 30
	ld	a5,-40(s0)
	ld	a4,48(a5)
	.loc 1 251 23
	ld	a5,-64(s0)
	.loc 1 251 12
	and	a5,a4,a5
	sd	a5,-56(s0)
	.loc 1 253 8
	ld	a5,-56(s0)
	beq	a5,zero,.L37
	.loc 1 254 34
	ld	a5,-40(s0)
	ld	a4,48(a5)
	.loc 1 254 27
	ld	a5,-64(s0)
	add	a4,a4,a5
	.loc 1 254 51
	ld	a5,-56(s0)
	sub	a5,a4,a5
	addi	a5,a5,1
	.loc 1 254 16
	sd	a5,-64(s0)
.L37:
	.loc 1 262 9
	lla	a5,mReserveIsaAliases
	lbu	a5,0(a5)
	.loc 1 262 8
	bne	a5,zero,.L38
	.loc 1 262 28 discriminator 1
	lla	a5,mReserveVgaAliases
	lbu	a5,0(a5)
	beq	a5,zero,.L39
.L38:
	.loc 1 263 21
	ld	a5,-40(s0)
	ld	a5,40(a5)
	.loc 1 263 41
	lbu	a5,238(a5)
	.loc 1 263 53
	sext.w	a5,a5
	andi	a5,a5,127
	sext.w	a4,a5
	.loc 1 263 10
	li	a5,1
	beq	a4,a5,.L39
	.loc 1 263 85 discriminator 1
	ld	a5,-40(s0)
	ld	a5,40(a5)
	.loc 1 263 105 discriminator 1
	lbu	a5,238(a5)
	.loc 1 263 117 discriminator 1
	sext.w	a5,a5
	andi	a5,a5,127
	sext.w	a4,a5
	.loc 1 263 72 discriminator 1
	li	a5,2
	beq	a4,a5,.L39
	.loc 1 268 13
	lla	a5,mReserveIsaAliases
	lbu	a5,0(a5)
	.loc 1 268 12
	beq	a5,zero,.L40
	.loc 1 269 11
	ld	a5,-40(s0)
	ld	a4,72(a5)
	addi	a5,s0,-64
	mv	a1,a4
	mv	a0,a5
	call	SkipIsaAliasAperture
	.loc 1 273 36
	ld	a5,-40(s0)
	ld	a4,48(a5)
	.loc 1 273 29
	ld	a5,-64(s0)
	.loc 1 273 18
	and	a5,a4,a5
	sd	a5,-56(s0)
	.loc 1 274 14
	ld	a5,-56(s0)
	beq	a5,zero,.L39
	.loc 1 275 40
	ld	a5,-40(s0)
	ld	a4,48(a5)
	.loc 1 275 33
	ld	a5,-64(s0)
	add	a4,a4,a5
	.loc 1 275 57
	ld	a5,-56(s0)
	sub	a5,a4,a5
	addi	a5,a5,1
	.loc 1 275 22
	sd	a5,-64(s0)
	j	.L39
.L40:
	.loc 1 277 20
	lla	a5,mReserveVgaAliases
	lbu	a5,0(a5)
	.loc 1 277 19
	beq	a5,zero,.L39
	.loc 1 278 11
	ld	a5,-40(s0)
	ld	a4,72(a5)
	addi	a5,s0,-64
	mv	a1,a4
	mv	a0,a5
	call	SkipVGAAperture
	.loc 1 282 36
	ld	a5,-40(s0)
	ld	a4,48(a5)
	.loc 1 282 29
	ld	a5,-64(s0)
	.loc 1 282 18
	and	a5,a4,a5
	sd	a5,-56(s0)
	.loc 1 283 14
	ld	a5,-56(s0)
	beq	a5,zero,.L39
	.loc 1 284 40
	ld	a5,-40(s0)
	ld	a4,48(a5)
	.loc 1 284 33
	ld	a5,-64(s0)
	add	a4,a4,a5
	.loc 1 284 57
	ld	a5,-56(s0)
	sub	a5,a4,a5
	addi	a5,a5,1
	.loc 1 284 22
	sd	a5,-64(s0)
.L39:
	.loc 1 290 18
	ld	a4,-64(s0)
	ld	a5,-40(s0)
	sd	a4,56(a5)
	.loc 1 295 21
	ld	a5,-40(s0)
	ld	a4,72(a5)
	.loc 1 295 14
	ld	a5,-64(s0)
	add	a5,a4,a5
	sd	a5,-64(s0)
.L36:
	.loc 1 238 38
	ld	a5,-88(s0)
	addi	a5,a5,24
	.loc 1 238 25
	ld	a1,-32(s0)
	mv	a0,a5
	call	GetNextNode@plt
	sd	a0,-32(s0)
.L32:
	.loc 1 237 20
	ld	a5,-88(s0)
	addi	a5,a5,24
	.loc 1 237 12
	ld	a1,-32(s0)
	mv	a0,a5
	call	IsNull@plt
	mv	a5,a0
	.loc 1 237 11 discriminator 1
	beq	a5,zero,.L41
	.loc 1 301 30
	ld	a5,-88(s0)
	ld	a4,48(a5)
	.loc 1 301 21
	ld	a5,-64(s0)
	.loc 1 301 10
	and	a5,a4,a5
	sd	a5,-56(s0)
	.loc 1 303 6
	ld	a5,-56(s0)
	beq	a5,zero,.L42
	.loc 1 304 34
	ld	a5,-88(s0)
	ld	a4,48(a5)
	.loc 1 304 25
	ld	a5,-64(s0)
	add	a4,a4,a5
	.loc 1 304 51
	ld	a5,-56(s0)
	sub	a5,a4,a5
	addi	a5,a5,1
	.loc 1 304 14
	sd	a5,-64(s0)
.L42:
	.loc 1 307 18
	ld	a4,-64(s0)
	ld	a5,-88(s0)
	sd	a4,72(a5)
	.loc 1 312 15
	ld	a5,-88(s0)
	ld	a5,24(a5)
	sd	a5,-32(s0)
	.loc 1 313 22
	ld	a5,-88(s0)
	addi	a5,a5,24
	.loc 1 313 6
	ld	a4,-32(s0)
	beq	a4,a5,.L43
	.loc 1 314 14
	ld	a5,-32(s0)
	addi	a5,a5,-8
	.loc 1 314 127
	lw	a4,0(a5)
	.loc 1 314 212
	li	a5,1668440064
	addi	a5,a5,880
	bne	a4,a5,.L44
	.loc 1 314 10 discriminator 1
	ld	a5,-32(s0)
	addi	a5,a5,-8
	sd	a5,-40(s0)
	j	.L45
.L44:
	.loc 1 314 10 is_stmt 0 discriminator 2
	sd	zero,-40(s0)
.L45:
	.loc 1 315 13 is_stmt 1
	ld	a5,-40(s0)
	ld	a4,48(a5)
	.loc 1 315 33
	ld	a5,-88(s0)
	ld	a5,48(a5)
	.loc 1 315 8
	bleu	a4,a5,.L43
	.loc 1 316 31
	ld	a5,-40(s0)
	ld	a4,48(a5)
	.loc 1 316 25
	ld	a5,-88(s0)
	sd	a4,48(a5)
.L43:
	.loc 1 324 29
	ld	a5,-88(s0)
	ld	a4,72(a5)
	.loc 1 324 79
	ld	a5,-48(s0)
	bgeu	a5,a4,.L46
	mv	a5,a4
.L46:
	.loc 1 324 18
	ld	a4,-88(s0)
	sd	a5,72(a4)
	j	.L24
.L47:
	.loc 1 230 5 discriminator 1
	nop
.L24:
	.loc 1 325 1
	ld	ra,88(sp)
	.cfi_restore 1
	ld	s0,80(sp)
	.cfi_restore 8
	.cfi_def_cfa 2, 96
	addi	sp,sp,96
	.cfi_def_cfa_offset 0
	jr	ra
	.cfi_endproc
.LFE4:
	.size	CalculateApertureIo16, .-CalculateApertureIo16
	.section	.text.CalculateResourceAperture,"ax",@progbits
	.align	1
	.globl	CalculateResourceAperture
	.type	CalculateResourceAperture, @function
CalculateResourceAperture:
.LFB5:
	.loc 1 338 1
	.cfi_startproc
	addi	sp,sp,-64
	.cfi_def_cfa_offset 64
	sd	ra,56(sp)
	sd	s0,48(sp)
	.cfi_offset 1, -8
	.cfi_offset 8, -16
	addi	s0,sp,64
	.cfi_def_cfa 8, 0
	sd	a0,-56(s0)
	.loc 1 343 6
	ld	a5,-56(s0)
	beq	a5,zero,.L61
	.loc 1 347 13
	ld	a5,-56(s0)
	lw	a4,68(a5)
	.loc 1 347 6
	li	a5,1
	bne	a4,a5,.L51
	.loc 1 348 5
	ld	a0,-56(s0)
	call	CalculateApertureIo16
	.loc 1 349 5
	j	.L48
.L51:
	.loc 1 352 32
	sd	zero,-48(s0)
	.loc 1 353 32
	sd	zero,-40(s0)
	.loc 1 357 37
	ld	a5,-56(s0)
	addi	a5,a5,24
	.loc 1 357 23
	mv	a0,a5
	call	GetFirstNode@plt
	sd	a0,-24(s0)
	.loc 1 357 3
	j	.L52
.L55:
	.loc 1 362 14
	ld	a5,-24(s0)
	addi	a5,a5,-8
	.loc 1 362 127
	lw	a4,0(a5)
	.loc 1 362 212
	li	a5,1668440064
	addi	a5,a5,880
	bne	a4,a5,.L53
	.loc 1 362 10 discriminator 1
	ld	a5,-24(s0)
	addi	a5,a5,-8
	sd	a5,-32(s0)
	j	.L54
.L53:
	.loc 1 362 10 is_stmt 0 discriminator 2
	sd	zero,-32(s0)
.L54:
	.loc 1 378 35 is_stmt 1
	ld	a5,-32(s0)
	lw	a5,84(a5)
	.loc 1 378 30
	slli	a4,a5,32
	srli	a4,a4,32
	addi	a5,s0,-48
	slli	a4,a4,3
	add	a5,a4,a5
	ld	a4,0(a5)
	.loc 1 378 62
	ld	a5,-32(s0)
	ld	a3,48(a5)
	.loc 1 378 95
	ld	a5,-32(s0)
	lw	a5,84(a5)
	.loc 1 378 90
	slli	a2,a5,32
	srli	a2,a2,32
	addi	a5,s0,-48
	slli	a2,a2,3
	add	a5,a2,a5
	ld	a5,0(a5)
	.loc 1 378 79
	sub	a5,a3,a5
	addi	a3,a5,1
	.loc 1 378 139
	ld	a5,-32(s0)
	ld	a5,48(a5)
	.loc 1 378 114
	and	a5,a3,a5
	.loc 1 378 53
	add	a4,a4,a5
	.loc 1 378 18
	ld	a5,-32(s0)
	sd	a4,56(a5)
	.loc 1 383 41
	ld	a5,-32(s0)
	ld	a4,56(a5)
	.loc 1 383 56
	ld	a5,-32(s0)
	ld	a5,72(a5)
	.loc 1 383 18
	ld	a3,-32(s0)
	lw	a3,84(a3)
	.loc 1 383 50
	add	a4,a4,a5
	.loc 1 383 35
	slli	a3,a3,32
	srli	a3,a3,32
	addi	a5,s0,-48
	slli	a3,a3,3
	add	a5,a3,a5
	sd	a4,0(a5)
	.loc 1 359 38
	ld	a5,-56(s0)
	addi	a5,a5,24
	.loc 1 359 25
	ld	a1,-24(s0)
	mv	a0,a5
	call	GetNextNode@plt
	sd	a0,-24(s0)
.L52:
	.loc 1 358 20
	ld	a5,-56(s0)
	addi	a5,a5,24
	.loc 1 358 12
	ld	a1,-24(s0)
	mv	a0,a5
	call	IsNull@plt
	mv	a5,a0
	.loc 1 358 11 discriminator 1
	beq	a5,zero,.L55
	.loc 1 389 44
	ld	a4,-48(s0)
	.loc 1 389 77
	ld	a5,-56(s0)
	ld	a3,48(a5)
	.loc 1 389 105
	ld	a5,-48(s0)
	.loc 1 389 94
	sub	a5,a3,a5
	addi	a3,a5,1
	.loc 1 389 155
	ld	a5,-56(s0)
	ld	a5,48(a5)
	.loc 1 389 128
	and	a5,a3,a5
	.loc 1 389 66
	add	a5,a4,a5
	.loc 1 389 32
	sd	a5,-48(s0)
	.loc 1 390 44
	ld	a4,-40(s0)
	.loc 1 390 77
	ld	a5,-56(s0)
	ld	a3,48(a5)
	.loc 1 390 105
	ld	a5,-40(s0)
	.loc 1 390 94
	sub	a5,a3,a5
	addi	a3,a5,1
	.loc 1 390 155
	ld	a5,-56(s0)
	ld	a5,48(a5)
	.loc 1 390 128
	and	a5,a3,a5
	.loc 1 390 66
	add	a5,a4,a5
	.loc 1 390 32
	sd	a5,-40(s0)
	.loc 1 396 64
	ld	a5,-40(s0)
	.loc 1 396 31
	ld	a4,-48(s0)
	.loc 1 396 120
	bgeu	a5,a4,.L56
	mv	a5,a4
.L56:
	.loc 1 396 18
	ld	a4,-56(s0)
	sd	a5,72(a4)
	.loc 1 401 15
	ld	a5,-56(s0)
	ld	a5,24(a5)
	sd	a5,-24(s0)
	.loc 1 402 22
	ld	a5,-56(s0)
	addi	a5,a5,24
	.loc 1 402 6
	ld	a4,-24(s0)
	beq	a4,a5,.L48
	.loc 1 403 14
	ld	a5,-24(s0)
	addi	a5,a5,-8
	.loc 1 403 127
	lw	a4,0(a5)
	.loc 1 403 212
	li	a5,1668440064
	addi	a5,a5,880
	bne	a4,a5,.L58
	.loc 1 403 10 discriminator 1
	ld	a5,-24(s0)
	addi	a5,a5,-8
	sd	a5,-32(s0)
	j	.L59
.L58:
	.loc 1 403 10 is_stmt 0 discriminator 2
	sd	zero,-32(s0)
.L59:
	.loc 1 404 13 is_stmt 1
	ld	a5,-32(s0)
	ld	a4,48(a5)
	.loc 1 404 33
	ld	a5,-56(s0)
	ld	a5,48(a5)
	.loc 1 404 8
	bleu	a4,a5,.L48
	.loc 1 405 31
	ld	a5,-32(s0)
	ld	a4,48(a5)
	.loc 1 405 25
	ld	a5,-56(s0)
	sd	a4,48(a5)
	j	.L48
.L61:
	.loc 1 344 5
	nop
.L48:
	.loc 1 408 1
	ld	ra,56(sp)
	.cfi_restore 1
	ld	s0,48(sp)
	.cfi_restore 8
	.cfi_def_cfa 2, 64
	addi	sp,sp,64
	.cfi_def_cfa_offset 0
	jr	ra
	.cfi_endproc
.LFE5:
	.size	CalculateResourceAperture, .-CalculateResourceAperture
	.section	.text.GetResourceFromDevice,"ax",@progbits
	.align	1
	.globl	GetResourceFromDevice
	.type	GetResourceFromDevice, @function
GetResourceFromDevice:
.LFB6:
	.loc 1 430 1
	.cfi_startproc
	addi	sp,sp,-80
	.cfi_def_cfa_offset 80
	sd	ra,72(sp)
	sd	s0,64(sp)
	.cfi_offset 1, -8
	.cfi_offset 8, -16
	addi	s0,sp,80
	.cfi_def_cfa 8, 0
	sd	a0,-40(s0)
	sd	a1,-48(s0)
	sd	a2,-56(s0)
	sd	a3,-64(s0)
	sd	a4,-72(s0)
	sd	a5,-80(s0)
	.loc 1 435 8
	sd	zero,-32(s0)
	.loc 1 436 21
	sb	zero,-18(s0)
	.loc 1 438 14
	sb	zero,-17(s0)
	.loc 1 438 3
	j	.L63
.L72:
	.loc 1 439 36
	lbu	a5,-17(s0)
	sext.w	a5,a5
	ld	a4,-40(s0)
	slli	a5,a5,5
	add	a5,a4,a5
	lw	a5,320(a5)
	.loc 1 439 5
	li	a4,7
	beq	a5,a4,.L64
	li	a4,7
	bgtu	a5,a4,.L85
	li	a4,6
	beq	a5,a4,.L66
	li	a4,6
	bgtu	a5,a4,.L85
	li	a4,5
	beq	a5,a4,.L67
	li	a4,5
	bgtu	a5,a4,.L85
	li	a4,4
	beq	a5,a4,.L68
	li	a4,4
	bgtu	a5,a4,.L85
	li	a4,3
	beq	a5,a4,.L64
	li	a4,3
	bgtu	a5,a4,.L85
	beq	a5,zero,.L86
	addiw	a5,a5,-1
	sext.w	a4,a5
	li	a5,1
	bgtu	a4,a5,.L85
	j	.L84
.L64:
	.loc 1 443 16
	lbu	a5,-17(s0)
	sext.w	a5,a5
	ld	a4,-40(s0)
	addi	a5,a5,9
	slli	a5,a5,5
	add	a5,a4,a5
	ld	a1,16(a5)
	lbu	a5,-17(s0)
	sext.w	a5,a5
	ld	a4,-40(s0)
	slli	a5,a5,5
	add	a5,a4,a5
	ld	a2,312(a5)
	lbu	a5,-17(s0)
	sext.w	a5,a5
	ld	a4,-40(s0)
	slli	a5,a5,5
	add	a5,a4,a5
	lw	a4,320(a5)
	lbu	a3,-17(s0)
	li	a5,0
	ld	a0,-40(s0)
	call	CreateResourceNode
	sd	a0,-32(s0)
	.loc 1 452 9
	ld	a1,-32(s0)
	ld	a0,-56(s0)
	call	InsertResourceNode
	.loc 1 457 27
	li	a5,1
	sb	a5,-18(s0)
	.loc 1 458 9
	j	.L71
.L67:
	.loc 1 462 16
	lbu	a5,-17(s0)
	sext.w	a5,a5
	ld	a4,-40(s0)
	addi	a5,a5,9
	slli	a5,a5,5
	add	a5,a4,a5
	ld	a1,16(a5)
	lbu	a5,-17(s0)
	sext.w	a5,a5
	ld	a4,-40(s0)
	slli	a5,a5,5
	add	a5,a4,a5
	ld	a2,312(a5)
	lbu	a3,-17(s0)
	li	a5,0
	li	a4,5
	ld	a0,-40(s0)
	call	CreateResourceNode
	sd	a0,-32(s0)
	.loc 1 471 9
	ld	a1,-32(s0)
	ld	a0,-72(s0)
	call	InsertResourceNode
	.loc 1 476 27
	li	a5,1
	sb	a5,-18(s0)
	.loc 1 477 9
	j	.L71
.L66:
	.loc 1 481 16
	lbu	a5,-17(s0)
	sext.w	a5,a5
	ld	a4,-40(s0)
	addi	a5,a5,9
	slli	a5,a5,5
	add	a5,a4,a5
	ld	a1,16(a5)
	lbu	a5,-17(s0)
	sext.w	a5,a5
	ld	a4,-40(s0)
	slli	a5,a5,5
	add	a5,a4,a5
	ld	a2,312(a5)
	lbu	a3,-17(s0)
	li	a5,0
	li	a4,6
	ld	a0,-40(s0)
	call	CreateResourceNode
	sd	a0,-32(s0)
	.loc 1 490 9
	ld	a1,-32(s0)
	ld	a0,-80(s0)
	call	InsertResourceNode
	.loc 1 495 27
	li	a5,1
	sb	a5,-18(s0)
	.loc 1 496 9
	j	.L71
.L68:
	.loc 1 500 16
	lbu	a5,-17(s0)
	sext.w	a5,a5
	ld	a4,-40(s0)
	addi	a5,a5,9
	slli	a5,a5,5
	add	a5,a4,a5
	ld	a1,16(a5)
	lbu	a5,-17(s0)
	sext.w	a5,a5
	ld	a4,-40(s0)
	slli	a5,a5,5
	add	a5,a4,a5
	ld	a2,312(a5)
	lbu	a3,-17(s0)
	li	a5,0
	li	a4,4
	ld	a0,-40(s0)
	call	CreateResourceNode
	sd	a0,-32(s0)
	.loc 1 509 9
	ld	a1,-32(s0)
	ld	a0,-64(s0)
	call	InsertResourceNode
	.loc 1 513 27
	li	a5,1
	sb	a5,-18(s0)
	.loc 1 514 9
	j	.L71
.L84:
	.loc 1 519 16
	lbu	a5,-17(s0)
	sext.w	a5,a5
	ld	a4,-40(s0)
	addi	a5,a5,9
	slli	a5,a5,5
	add	a5,a4,a5
	ld	a1,16(a5)
	lbu	a5,-17(s0)
	sext.w	a5,a5
	ld	a4,-40(s0)
	slli	a5,a5,5
	add	a5,a4,a5
	ld	a2,312(a5)
	lbu	a3,-17(s0)
	li	a5,0
	li	a4,1
	ld	a0,-40(s0)
	call	CreateResourceNode
	sd	a0,-32(s0)
	.loc 1 528 9
	ld	a1,-32(s0)
	ld	a0,-48(s0)
	call	InsertResourceNode
	.loc 1 532 27
	li	a5,1
	sb	a5,-18(s0)
	.loc 1 533 9
	j	.L71
.L85:
	.loc 1 539 9
	nop
	j	.L71
.L86:
	.loc 1 536 9
	nop
.L71:
	.loc 1 438 40 discriminator 2
	lbu	a5,-17(s0)
	addiw	a5,a5,1
	sb	a5,-17(s0)
.L63:
	.loc 1 438 25 discriminator 1
	lbu	a5,-17(s0)
	andi	a4,a5,0xff
	li	a5,5
	bleu	a4,a5,.L72
	.loc 1 546 14
	sb	zero,-17(s0)
	.loc 1 546 3
	j	.L73
.L82:
	.loc 1 547 38
	lbu	a5,-17(s0)
	sext.w	a5,a5
	ld	a4,-40(s0)
	addi	a5,a5,20
	slli	a5,a5,5
	add	a5,a4,a5
	lw	a5,16(a5)
	.loc 1 547 5
	li	a4,6
	beq	a5,a4,.L74
	li	a4,6
	bgtu	a5,a4,.L87
	li	a4,5
	beq	a5,a4,.L76
	li	a4,5
	bgtu	a5,a4,.L87
	li	a4,4
	beq	a5,a4,.L77
	li	a4,4
	bgtu	a5,a4,.L87
	li	a4,3
	beq	a5,a4,.L78
	li	a4,3
	bgtu	a5,a4,.L87
	beq	a5,zero,.L88
	addiw	a5,a5,-1
	sext.w	a4,a5
	li	a5,1
	bgtu	a4,a5,.L87
	.loc 1 621 9
	j	.L81
.L78:
	.loc 1 550 16
	lbu	a5,-17(s0)
	sext.w	a5,a5
	ld	a4,-40(s0)
	slli	a5,a5,5
	add	a5,a4,a5
	ld	a1,640(a5)
	lbu	a5,-17(s0)
	sext.w	a5,a5
	ld	a4,-40(s0)
	addi	a5,a5,20
	slli	a5,a5,5
	add	a5,a4,a5
	ld	a2,8(a5)
	lbu	a3,-17(s0)
	li	a5,0
	li	a4,3
	ld	a0,-40(s0)
	call	CreateVfResourceNode
	sd	a0,-32(s0)
	.loc 1 559 9
	ld	a1,-32(s0)
	ld	a0,-56(s0)
	call	InsertResourceNode
	.loc 1 564 9
	j	.L81
.L76:
	.loc 1 568 16
	lbu	a5,-17(s0)
	sext.w	a5,a5
	ld	a4,-40(s0)
	slli	a5,a5,5
	add	a5,a4,a5
	ld	a1,640(a5)
	lbu	a5,-17(s0)
	sext.w	a5,a5
	ld	a4,-40(s0)
	addi	a5,a5,20
	slli	a5,a5,5
	add	a5,a4,a5
	ld	a2,8(a5)
	lbu	a3,-17(s0)
	li	a5,0
	li	a4,5
	ld	a0,-40(s0)
	call	CreateVfResourceNode
	sd	a0,-32(s0)
	.loc 1 577 9
	ld	a1,-32(s0)
	ld	a0,-72(s0)
	call	InsertResourceNode
	.loc 1 582 9
	j	.L81
.L74:
	.loc 1 586 16
	lbu	a5,-17(s0)
	sext.w	a5,a5
	ld	a4,-40(s0)
	slli	a5,a5,5
	add	a5,a4,a5
	ld	a1,640(a5)
	lbu	a5,-17(s0)
	sext.w	a5,a5
	ld	a4,-40(s0)
	addi	a5,a5,20
	slli	a5,a5,5
	add	a5,a4,a5
	ld	a2,8(a5)
	lbu	a3,-17(s0)
	li	a5,0
	li	a4,6
	ld	a0,-40(s0)
	call	CreateVfResourceNode
	sd	a0,-32(s0)
	.loc 1 595 9
	ld	a1,-32(s0)
	ld	a0,-80(s0)
	call	InsertResourceNode
	.loc 1 600 9
	j	.L81
.L77:
	.loc 1 604 16
	lbu	a5,-17(s0)
	sext.w	a5,a5
	ld	a4,-40(s0)
	slli	a5,a5,5
	add	a5,a4,a5
	ld	a1,640(a5)
	lbu	a5,-17(s0)
	sext.w	a5,a5
	ld	a4,-40(s0)
	addi	a5,a5,20
	slli	a5,a5,5
	add	a5,a4,a5
	ld	a2,8(a5)
	lbu	a3,-17(s0)
	li	a5,0
	li	a4,4
	ld	a0,-40(s0)
	call	CreateVfResourceNode
	sd	a0,-32(s0)
	.loc 1 613 9
	ld	a1,-32(s0)
	ld	a0,-64(s0)
	call	InsertResourceNode
	.loc 1 617 9
	j	.L81
.L87:
	.loc 1 627 9
	nop
	j	.L81
.L88:
	.loc 1 624 9
	nop
.L81:
	.loc 1 546 40 discriminator 2
	lbu	a5,-17(s0)
	addiw	a5,a5,1
	sb	a5,-17(s0)
.L73:
	.loc 1 546 25 discriminator 1
	lbu	a5,-17(s0)
	andi	a4,a5,0xff
	li	a5,5
	bleu	a4,a5,.L82
	.loc 1 634 6
	lbu	a5,-18(s0)
	andi	a5,a5,0xff
	bne	a5,zero,.L89
	.loc 1 635 23
	ld	a5,-40(s0)
	li	a4,1
	sb	a4,513(a5)
.L89:
	.loc 1 637 1
	nop
	ld	ra,72(sp)
	.cfi_restore 1
	ld	s0,64(sp)
	.cfi_restore 8
	.cfi_def_cfa 2, 80
	addi	sp,sp,80
	.cfi_def_cfa_offset 0
	jr	ra
	.cfi_endproc
.LFE6:
	.size	GetResourceFromDevice, .-GetResourceFromDevice
	.section	.text.CreateResourceNode,"ax",@progbits
	.align	1
	.globl	CreateResourceNode
	.type	CreateResourceNode, @function
CreateResourceNode:
.LFB7:
	.loc 1 662 1
	.cfi_startproc
	addi	sp,sp,-80
	.cfi_def_cfa_offset 80
	sd	ra,72(sp)
	sd	s0,64(sp)
	.cfi_offset 1, -8
	.cfi_offset 8, -16
	addi	s0,sp,80
	.cfi_def_cfa 8, 0
	sd	a0,-40(s0)
	sd	a1,-48(s0)
	sd	a2,-56(s0)
	mv	a2,a3
	mv	a3,a4
	mv	a4,a5
	mv	a5,a2
	sb	a5,-57(s0)
	mv	a5,a3
	sw	a5,-64(s0)
	mv	a5,a4
	sw	a5,-68(s0)
	.loc 1 665 8
	sd	zero,-24(s0)
	.loc 1 667 10
	li	a0,96
	call	AllocateZeroPool@plt
	sd	a0,-24(s0)
	.loc 1 669 6
	ld	a5,-24(s0)
	bne	a5,zero,.L91
	.loc 1 670 12
	li	a5,0
	j	.L92
.L91:
	.loc 1 673 19
	ld	a5,-24(s0)
	li	a4,1668440064
	addi	a4,a4,880
	sw	a4,0(a5)
	.loc 1 674 16
	ld	a5,-24(s0)
	ld	a4,-40(s0)
	sd	a4,40(a5)
	.loc 1 675 16
	ld	a5,-24(s0)
	ld	a4,-48(s0)
	sd	a4,72(a5)
	.loc 1 676 19
	ld	a5,-24(s0)
	ld	a4,-56(s0)
	sd	a4,48(a5)
	.loc 1 677 13
	ld	a5,-24(s0)
	lbu	a4,-57(s0)
	sb	a4,64(a5)
	.loc 1 678 17
	ld	a5,-24(s0)
	lw	a4,-64(s0)
	sw	a4,68(a5)
	.loc 1 679 18
	ld	a5,-24(s0)
	sb	zero,80(a5)
	.loc 1 680 23
	ld	a5,-24(s0)
	lw	a4,-68(s0)
	sw	a4,84(a5)
	.loc 1 681 3
	ld	a5,-24(s0)
	addi	a5,a5,24
	mv	a0,a5
	call	InitializeListHead@plt
	.loc 1 683 10
	ld	a5,-24(s0)
.L92:
	.loc 1 684 1
	mv	a0,a5
	ld	ra,72(sp)
	.cfi_restore 1
	ld	s0,64(sp)
	.cfi_restore 8
	.cfi_def_cfa 2, 80
	addi	sp,sp,80
	.cfi_def_cfa_offset 0
	jr	ra
	.cfi_endproc
.LFE7:
	.size	CreateResourceNode, .-CreateResourceNode
	.section	.text.CreateVfResourceNode,"ax",@progbits
	.align	1
	.globl	CreateVfResourceNode
	.type	CreateVfResourceNode, @function
CreateVfResourceNode:
.LFB8:
	.loc 1 709 1
	.cfi_startproc
	addi	sp,sp,-80
	.cfi_def_cfa_offset 80
	sd	ra,72(sp)
	sd	s0,64(sp)
	.cfi_offset 1, -8
	.cfi_offset 8, -16
	addi	s0,sp,80
	.cfi_def_cfa 8, 0
	sd	a0,-40(s0)
	sd	a1,-48(s0)
	sd	a2,-56(s0)
	mv	a2,a3
	mv	a3,a4
	mv	a4,a5
	mv	a5,a2
	sb	a5,-57(s0)
	mv	a5,a3
	sw	a5,-64(s0)
	mv	a5,a4
	sw	a5,-68(s0)
	.loc 1 712 10
	lw	a5,-68(s0)
	lw	a4,-64(s0)
	lbu	a3,-57(s0)
	ld	a2,-56(s0)
	ld	a1,-48(s0)
	ld	a0,-40(s0)
	call	CreateResourceNode
	sd	a0,-24(s0)
	.loc 1 713 6
	ld	a5,-24(s0)
	bne	a5,zero,.L94
	.loc 1 714 12
	ld	a5,-24(s0)
	j	.L95
.L94:
	.loc 1 717 17
	ld	a5,-24(s0)
	li	a4,1
	sb	a4,88(a5)
	.loc 1 719 10
	ld	a5,-24(s0)
.L95:
	.loc 1 720 1
	mv	a0,a5
	ld	ra,72(sp)
	.cfi_restore 1
	ld	s0,64(sp)
	.cfi_restore 8
	.cfi_def_cfa 2, 80
	addi	sp,sp,80
	.cfi_def_cfa_offset 0
	jr	ra
	.cfi_endproc
.LFE8:
	.size	CreateVfResourceNode, .-CreateVfResourceNode
	.section	.text.CreateResourceMap,"ax",@progbits
	.align	1
	.globl	CreateResourceMap
	.type	CreateResourceMap, @function
CreateResourceMap:
.LFB9:
	.loc 1 743 1
	.cfi_startproc
	addi	sp,sp,-128
	.cfi_def_cfa_offset 128
	sd	ra,120(sp)
	sd	s0,112(sp)
	.cfi_offset 1, -8
	.cfi_offset 8, -16
	addi	s0,sp,128
	.cfi_def_cfa 8, 0
	sd	a0,-88(s0)
	sd	a1,-96(s0)
	sd	a2,-104(s0)
	sd	a3,-112(s0)
	sd	a4,-120(s0)
	sd	a5,-128(s0)
	.loc 1 752 15
	ld	a5,-88(s0)
	ld	a5,496(a5)
	sd	a5,-32(s0)
	.loc 1 754 9
	j	.L97
.L112:
	.loc 1 755 14
	ld	a5,-32(s0)
	addi	a5,a5,-176
	.loc 1 755 119
	lw	a4,0(a5)
	.loc 1 755 204
	li	a5,1869176832
	addi	a5,a5,880
	bne	a4,a5,.L98
	.loc 1 755 10 discriminator 1
	ld	a5,-32(s0)
	addi	a5,a5,-176
	sd	a5,-24(s0)
	j	.L99
.L98:
	.loc 1 755 10 is_stmt 0 discriminator 2
	sd	zero,-24(s0)
.L99:
	.loc 1 763 5 is_stmt 1
	ld	a5,-128(s0)
	ld	a4,-120(s0)
	ld	a3,-112(s0)
	ld	a2,-104(s0)
	ld	a1,-96(s0)
	ld	a0,-24(s0)
	call	GetResourceFromDevice
	.loc 1 772 28
	ld	a5,-24(s0)
	lbu	a5,238(a5)
	.loc 1 772 40
	sext.w	a5,a5
	andi	a5,a5,127
	sext.w	a4,a5
	.loc 1 772 8
	li	a5,1
	bne	a4,a5,.L100
	.loc 1 781 24
	ld	a5,-24(s0)
	lhu	a5,832(a5)
	.loc 1 778 18
	mv	a2,a5
	li	a5,0
	li	a4,1
	li	a3,2
	li	a1,0
	ld	a0,-24(s0)
	call	CreateResourceNode
	sd	a0,-40(s0)
	.loc 1 787 21
	li	a5,0
	li	a4,3
	li	a3,3
	li	a2,1048576
	addi	a2,a2,-1
	li	a1,0
	ld	a0,-24(s0)
	call	CreateResourceNode
	sd	a0,-48(s0)
	.loc 1 796 22
	li	a5,0
	li	a4,4
	li	a3,4
	li	a2,1048576
	addi	a2,a2,-1
	li	a1,0
	ld	a0,-24(s0)
	call	CreateResourceNode
	sd	a0,-56(s0)
	.loc 1 805 21
	li	a5,0
	li	a4,5
	li	a3,255
	li	a2,1048576
	addi	a2,a2,-1
	li	a1,0
	ld	a0,-24(s0)
	call	CreateResourceNode
	sd	a0,-64(s0)
	.loc 1 814 22
	li	a5,0
	li	a4,6
	li	a3,5
	li	a2,1048576
	addi	a2,a2,-1
	li	a1,0
	ld	a0,-24(s0)
	call	CreateResourceNode
	sd	a0,-72(s0)
	.loc 1 826 7
	ld	a5,-72(s0)
	ld	a4,-64(s0)
	ld	a3,-56(s0)
	ld	a2,-48(s0)
	ld	a1,-40(s0)
	ld	a0,-24(s0)
	call	CreateResourceMap
	.loc 1 835 11
	ld	a0,-40(s0)
	call	ResourceRequestExisted
	mv	a5,a0
	.loc 1 835 10 discriminator 1
	beq	a5,zero,.L101
	.loc 1 836 9
	ld	a1,-40(s0)
	ld	a0,-96(s0)
	call	InsertResourceNode
	j	.L102
.L101:
	.loc 1 841 9
	ld	a0,-40(s0)
	call	FreePool@plt
	.loc 1 842 18
	sd	zero,-40(s0)
.L102:
	.loc 1 851 11
	ld	a0,-48(s0)
	call	ResourceRequestExisted
	mv	a5,a0
	.loc 1 851 10 discriminator 1
	beq	a5,zero,.L103
	.loc 1 852 9
	ld	a1,-48(s0)
	ld	a0,-104(s0)
	call	InsertResourceNode
	j	.L104
.L103:
	.loc 1 857 9
	ld	a0,-48(s0)
	call	FreePool@plt
	.loc 1 858 21
	sd	zero,-48(s0)
.L104:
	.loc 1 867 11
	ld	a0,-56(s0)
	call	ResourceRequestExisted
	mv	a5,a0
	.loc 1 867 10 discriminator 1
	beq	a5,zero,.L105
	.loc 1 868 9
	ld	a1,-56(s0)
	ld	a0,-112(s0)
	call	InsertResourceNode
	j	.L106
.L105:
	.loc 1 873 9
	ld	a0,-56(s0)
	call	FreePool@plt
	.loc 1 874 22
	sd	zero,-56(s0)
.L106:
	.loc 1 883 11
	ld	a0,-64(s0)
	call	ResourceRequestExisted
	mv	a5,a0
	.loc 1 883 10 discriminator 1
	beq	a5,zero,.L107
	.loc 1 884 9
	ld	a1,-64(s0)
	ld	a0,-120(s0)
	call	InsertResourceNode
	j	.L108
.L107:
	.loc 1 889 9
	ld	a0,-64(s0)
	call	FreePool@plt
	.loc 1 890 21
	sd	zero,-64(s0)
.L108:
	.loc 1 899 11
	ld	a0,-72(s0)
	call	ResourceRequestExisted
	mv	a5,a0
	.loc 1 899 10 discriminator 1
	beq	a5,zero,.L109
	.loc 1 900 9
	ld	a1,-72(s0)
	ld	a0,-128(s0)
	call	InsertResourceNode
	j	.L100
.L109:
	.loc 1 905 9
	ld	a0,-72(s0)
	call	FreePool@plt
	.loc 1 906 22
	sd	zero,-72(s0)
.L100:
	.loc 1 913 28
	ld	a5,-24(s0)
	lbu	a5,238(a5)
	.loc 1 913 40
	sext.w	a5,a5
	andi	a5,a5,127
	sext.w	a4,a5
	.loc 1 913 8
	li	a5,2
	bne	a4,a5,.L110
	.loc 1 914 7
	ld	a5,-128(s0)
	ld	a4,-120(s0)
	ld	a3,-112(s0)
	ld	a2,-104(s0)
	ld	a1,-96(s0)
	ld	a0,-24(s0)
	call	ResourcePaddingForCardBusBridge
.L110:
	.loc 1 924 17
	ld	a5,-32(s0)
	ld	a5,0(a5)
	sd	a5,-32(s0)
.L97:
	.loc 1 754 38
	ld	a5,-32(s0)
	beq	a5,zero,.L111
	.loc 1 754 56 discriminator 1
	ld	a5,-88(s0)
	addi	a5,a5,496
	.loc 1 754 38 discriminator 1
	ld	a4,-32(s0)
	bne	a4,a5,.L112
.L111:
	.loc 1 930 3
	ld	a5,-128(s0)
	ld	a4,-120(s0)
	ld	a3,-112(s0)
	ld	a2,-104(s0)
	ld	a1,-96(s0)
	ld	a0,-88(s0)
	call	ResourcePaddingPolicy
	.loc 1 942 3
	ld	a4,-128(s0)
	ld	a3,-120(s0)
	ld	a2,-112(s0)
	ld	a1,-104(s0)
	ld	a0,-88(s0)
	call	DegradeResource
	.loc 1 953 3
	ld	a0,-104(s0)
	call	CalculateResourceAperture
	.loc 1 954 3
	ld	a0,-112(s0)
	call	CalculateResourceAperture
	.loc 1 955 3
	ld	a0,-120(s0)
	call	CalculateResourceAperture
	.loc 1 956 3
	ld	a0,-128(s0)
	call	CalculateResourceAperture
	.loc 1 957 3
	ld	a0,-96(s0)
	call	CalculateResourceAperture
	.loc 1 958 1
	nop
	ld	ra,120(sp)
	.cfi_restore 1
	ld	s0,112(sp)
	.cfi_restore 8
	.cfi_def_cfa 2, 128
	addi	sp,sp,128
	.cfi_def_cfa_offset 0
	jr	ra
	.cfi_endproc
.LFE9:
	.size	CreateResourceMap, .-CreateResourceMap
	.section	.text.ResourcePaddingPolicy,"ax",@progbits
	.align	1
	.globl	ResourcePaddingPolicy
	.type	ResourcePaddingPolicy, @function
ResourcePaddingPolicy:
.LFB10:
	.loc 1 980 1
	.cfi_startproc
	addi	sp,sp,-64
	.cfi_def_cfa_offset 64
	sd	ra,56(sp)
	sd	s0,48(sp)
	.cfi_offset 1, -8
	.cfi_offset 8, -16
	addi	s0,sp,64
	.cfi_def_cfa 8, 0
	sd	a0,-24(s0)
	sd	a1,-32(s0)
	sd	a2,-40(s0)
	sd	a3,-48(s0)
	sd	a4,-56(s0)
	sd	a5,-64(s0)
	.loc 1 984 13
	ld	a5,-24(s0)
	ld	a5,584(a5)
	.loc 1 984 6
	beq	a5,zero,.L115
	.loc 1 985 5
	ld	a5,-64(s0)
	ld	a4,-56(s0)
	ld	a3,-48(s0)
	ld	a2,-40(s0)
	ld	a1,-32(s0)
	ld	a0,-24(s0)
	call	ApplyResourcePadding
.L115:
	.loc 1 994 1
	nop
	ld	ra,56(sp)
	.cfi_restore 1
	ld	s0,48(sp)
	.cfi_restore 8
	.cfi_def_cfa 2, 64
	addi	sp,sp,64
	.cfi_def_cfa_offset 0
	jr	ra
	.cfi_endproc
.LFE10:
	.size	ResourcePaddingPolicy, .-ResourcePaddingPolicy
	.section	.text.DegradeResource,"ax",@progbits
	.align	1
	.globl	DegradeResource
	.type	DegradeResource, @function
DegradeResource:
.LFB11:
	.loc 1 1018 1
	.cfi_startproc
	addi	sp,sp,-112
	.cfi_def_cfa_offset 112
	sd	ra,104(sp)
	sd	s0,96(sp)
	.cfi_offset 1, -8
	.cfi_offset 8, -16
	addi	s0,sp,112
	.cfi_def_cfa 8, 0
	sd	a0,-72(s0)
	sd	a1,-80(s0)
	sd	a2,-88(s0)
	sd	a3,-96(s0)
	sd	a4,-104(s0)
	.loc 1 1025 7
	la	a5,_gPcd_FixedAtBuild_PcdPciDegradeResourceForOptionRom
	lbu	a5,0(a5)
	.loc 1 1025 6
	beq	a5,zero,.L117
	.loc 1 1030 21
	ld	a5,-72(s0)
	ld	a5,496(a5)
	sd	a5,-32(s0)
	.loc 1 1031 11
	j	.L118
.L135:
	.loc 1 1032 23
	ld	a5,-32(s0)
	addi	a5,a5,-176
	.loc 1 1032 132
	lw	a4,0(a5)
	.loc 1 1032 217
	li	a5,1869176832
	addi	a5,a5,880
	bne	a4,a5,.L119
	.loc 1 1032 19 discriminator 1
	ld	a5,-32(s0)
	addi	a5,a5,-176
	sd	a5,-24(s0)
	j	.L120
.L119:
	.loc 1 1032 19 is_stmt 0 discriminator 2
	sd	zero,-24(s0)
.L120:
	.loc 1 1033 22 is_stmt 1
	ld	a5,-24(s0)
	lw	a5,544(a5)
	.loc 1 1033 10
	beq	a5,zero,.L121
	.loc 1 1034 27
	ld	a5,-96(s0)
	addi	a5,a5,24
	.loc 1 1034 14
	mv	a0,a5
	call	IsListEmpty@plt
	mv	a5,a0
	.loc 1 1034 12 discriminator 1
	bne	a5,zero,.L122
	.loc 1 1035 25
	ld	a5,-96(s0)
	ld	a5,24(a5)
	sd	a5,-40(s0)
	.loc 1 1036 17
	j	.L123
.L128:
	.loc 1 1037 30
	ld	a5,-40(s0)
	addi	a5,a5,-8
	.loc 1 1037 145
	lw	a4,0(a5)
	.loc 1 1037 230
	li	a5,1668440064
	addi	a5,a5,880
	bne	a4,a5,.L124
	.loc 1 1037 26 discriminator 1
	ld	a5,-40(s0)
	addi	a5,a5,-8
	sd	a5,-48(s0)
	j	.L125
.L124:
	.loc 1 1037 26 is_stmt 0 discriminator 2
	sd	zero,-48(s0)
.L125:
	.loc 1 1038 31 is_stmt 1
	ld	a5,-40(s0)
	ld	a5,0(a5)
	sd	a5,-56(s0)
	.loc 1 1040 30
	ld	a5,-48(s0)
	ld	a5,40(a5)
	.loc 1 1040 16
	ld	a4,-24(s0)
	bne	a4,a5,.L126
	.loc 1 1041 30
	ld	a5,-48(s0)
	lbu	a5,88(a5)
	.loc 1 1040 55 discriminator 1
	bne	a5,zero,.L127
	.loc 1 1041 76
	ld	a5,-48(s0)
	lbu	a5,64(a5)
	sext.w	a5,a5
	.loc 1 1041 82
	ld	a4,-24(s0)
	slli	a5,a5,5
	add	a5,a4,a5
	lbu	a5,324(a5)
	.loc 1 1041 40
	bne	a5,zero,.L126
.L127:
	.loc 1 1044 15
	ld	a0,-40(s0)
	call	RemoveEntryList@plt
	.loc 1 1045 15
	ld	a1,-48(s0)
	ld	a0,-80(s0)
	call	InsertResourceNode
.L126:
	.loc 1 1048 27
	ld	a5,-56(s0)
	sd	a5,-40(s0)
.L123:
	.loc 1 1036 35
	ld	a5,-96(s0)
	addi	a5,a5,24
	.loc 1 1036 32
	ld	a4,-40(s0)
	bne	a4,a5,.L128
.L122:
	.loc 1 1052 27
	ld	a5,-104(s0)
	addi	a5,a5,24
	.loc 1 1052 14
	mv	a0,a5
	call	IsListEmpty@plt
	mv	a5,a0
	.loc 1 1052 12 discriminator 1
	bne	a5,zero,.L121
	.loc 1 1053 25
	ld	a5,-104(s0)
	ld	a5,24(a5)
	sd	a5,-40(s0)
	.loc 1 1054 17
	j	.L129
.L134:
	.loc 1 1055 30
	ld	a5,-40(s0)
	addi	a5,a5,-8
	.loc 1 1055 145
	lw	a4,0(a5)
	.loc 1 1055 230
	li	a5,1668440064
	addi	a5,a5,880
	bne	a4,a5,.L130
	.loc 1 1055 26 discriminator 1
	ld	a5,-40(s0)
	addi	a5,a5,-8
	sd	a5,-48(s0)
	j	.L131
.L130:
	.loc 1 1055 26 is_stmt 0 discriminator 2
	sd	zero,-48(s0)
.L131:
	.loc 1 1056 31 is_stmt 1
	ld	a5,-40(s0)
	ld	a5,0(a5)
	sd	a5,-56(s0)
	.loc 1 1058 30
	ld	a5,-48(s0)
	ld	a5,40(a5)
	.loc 1 1058 16
	ld	a4,-24(s0)
	bne	a4,a5,.L132
	.loc 1 1059 30
	ld	a5,-48(s0)
	lbu	a5,88(a5)
	.loc 1 1058 55 discriminator 1
	bne	a5,zero,.L133
	.loc 1 1059 76
	ld	a5,-48(s0)
	lbu	a5,64(a5)
	sext.w	a5,a5
	.loc 1 1059 82
	ld	a4,-24(s0)
	slli	a5,a5,5
	add	a5,a4,a5
	lbu	a5,324(a5)
	.loc 1 1059 40
	bne	a5,zero,.L132
.L133:
	.loc 1 1062 15
	ld	a0,-40(s0)
	call	RemoveEntryList@plt
	.loc 1 1063 15
	ld	a1,-48(s0)
	ld	a0,-88(s0)
	call	InsertResourceNode
.L132:
	.loc 1 1066 27
	ld	a5,-56(s0)
	sd	a5,-40(s0)
.L129:
	.loc 1 1054 35
	ld	a5,-104(s0)
	addi	a5,a5,24
	.loc 1 1054 32
	ld	a4,-40(s0)
	bne	a4,a5,.L134
.L121:
	.loc 1 1071 23
	ld	a5,-32(s0)
	ld	a5,0(a5)
	sd	a5,-32(s0)
.L118:
	.loc 1 1031 44
	ld	a5,-32(s0)
	beq	a5,zero,.L117
	.loc 1 1031 66 discriminator 1
	ld	a5,-72(s0)
	addi	a5,a5,496
	.loc 1 1031 44 discriminator 1
	ld	a4,-32(s0)
	bne	a4,a5,.L135
.L117:
	.loc 1 1095 10
	li	a1,32
	ld	a0,-72(s0)
	call	BridgeSupportResourceDecode
	mv	a5,a0
	.loc 1 1095 8 discriminator 1
	bne	a5,zero,.L136
	.loc 1 1096 7
	li	a2,1
	ld	a1,-96(s0)
	ld	a0,-80(s0)
	call	MergeResourceTree
.L136:
	.loc 1 1106 10
	li	a1,4
	ld	a0,-72(s0)
	call	BridgeSupportResourceDecode
	mv	a5,a0
	.loc 1 1106 8 discriminator 1
	bne	a5,zero,.L137
	.loc 1 1107 7
	li	a2,1
	ld	a1,-104(s0)
	ld	a0,-88(s0)
	call	MergeResourceTree
.L137:
	.loc 1 1118 23
	ld	a5,-104(s0)
	addi	a5,a5,24
	.loc 1 1118 10
	mv	a0,a5
	call	IsListEmpty@plt
	mv	a5,a0
	.loc 1 1118 8 discriminator 1
	bne	a5,zero,.L138
	.loc 1 1118 57 discriminator 2
	ld	a5,-72(s0)
	ld	a5,488(a5)
	.loc 1 1118 47 discriminator 2
	beq	a5,zero,.L138
	.loc 1 1119 7
	li	a2,1
	ld	a1,-88(s0)
	ld	a0,-80(s0)
	call	MergeResourceTree
.L138:
	.loc 1 1131 8
	li	a1,2
	ld	a0,-72(s0)
	call	BridgeSupportResourceDecode
	mv	a5,a0
	.loc 1 1131 6 discriminator 1
	bne	a5,zero,.L139
	.loc 1 1132 5
	li	a2,1
	ld	a1,-88(s0)
	ld	a0,-80(s0)
	call	MergeResourceTree
.L139:
	.loc 1 1143 7
	li	a1,16
	ld	a0,-72(s0)
	call	BridgeSupportResourceDecode
	mv	a5,a0
	.loc 1 1143 6 discriminator 1
	beq	a5,zero,.L141
	.loc 1 1144 5
	li	a2,0
	ld	a1,-88(s0)
	ld	a0,-80(s0)
	call	MergeResourceTree
	.loc 1 1155 5
	li	a2,0
	ld	a1,-104(s0)
	ld	a0,-96(s0)
	call	MergeResourceTree
.L141:
	.loc 1 1161 1
	nop
	ld	ra,104(sp)
	.cfi_restore 1
	ld	s0,96(sp)
	.cfi_restore 8
	.cfi_def_cfa 2, 112
	addi	sp,sp,112
	.cfi_def_cfa_offset 0
	jr	ra
	.cfi_endproc
.LFE11:
	.size	DegradeResource, .-DegradeResource
	.section	.text.BridgeSupportResourceDecode,"ax",@progbits
	.align	1
	.globl	BridgeSupportResourceDecode
	.type	BridgeSupportResourceDecode, @function
BridgeSupportResourceDecode:
.LFB12:
	.loc 1 1178 1
	.cfi_startproc
	addi	sp,sp,-32
	.cfi_def_cfa_offset 32
	sd	ra,24(sp)
	sd	s0,16(sp)
	.cfi_offset 1, -8
	.cfi_offset 8, -16
	addi	s0,sp,32
	.cfi_def_cfa 8, 0
	sd	a0,-24(s0)
	mv	a5,a1
	sw	a5,-28(s0)
	.loc 1 1179 15
	ld	a5,-24(s0)
	lw	a5,536(a5)
	.loc 1 1179 26
	lw	a4,-28(s0)
	and	a5,a4,a5
	sext.w	a5,a5
	.loc 1 1179 6
	beq	a5,zero,.L143
	.loc 1 1180 12
	li	a5,1
	j	.L144
.L143:
	.loc 1 1183 10
	li	a5,0
.L144:
	.loc 1 1184 1
	mv	a0,a5
	ld	ra,24(sp)
	.cfi_restore 1
	ld	s0,16(sp)
	.cfi_restore 8
	.cfi_def_cfa 2, 32
	addi	sp,sp,32
	.cfi_def_cfa_offset 0
	jr	ra
	.cfi_endproc
.LFE12:
	.size	BridgeSupportResourceDecode, .-BridgeSupportResourceDecode
	.section	.text.ProgramResource,"ax",@progbits
	.align	1
	.globl	ProgramResource
	.type	ProgramResource, @function
ProgramResource:
.LFB13:
	.loc 1 1203 1
	.cfi_startproc
	addi	sp,sp,-64
	.cfi_def_cfa_offset 64
	sd	ra,56(sp)
	sd	s0,48(sp)
	.cfi_offset 1, -8
	.cfi_offset 8, -16
	addi	s0,sp,64
	.cfi_def_cfa 8, 0
	sd	a0,-56(s0)
	sd	a1,-64(s0)
	.loc 1 1208 12
	la	a5,gAllOne
	ld	a5,0(a5)
	.loc 1 1208 6
	ld	a4,-56(s0)
	bne	a4,a5,.L146
	.loc 1 1209 12
	li	a5,-1
	slli	a5,a5,63
	addi	a5,a5,9
	j	.L147
.L146:
	.loc 1 1212 15
	ld	a5,-64(s0)
	ld	a5,24(a5)
	sd	a5,-24(s0)
	.loc 1 1214 9
	j	.L148
.L155:
	.loc 1 1215 14
	ld	a5,-24(s0)
	addi	a5,a5,-8
	.loc 1 1215 127
	lw	a4,0(a5)
	.loc 1 1215 212
	li	a5,1668440064
	addi	a5,a5,880
	bne	a4,a5,.L149
	.loc 1 1215 10 discriminator 1
	ld	a5,-24(s0)
	addi	a5,a5,-8
	sd	a5,-32(s0)
	j	.L150
.L149:
	.loc 1 1215 10 is_stmt 0 discriminator 2
	sd	zero,-32(s0)
.L150:
	.loc 1 1217 19 is_stmt 1
	ld	a5,-32(s0)
	ld	a5,40(a5)
	.loc 1 1217 39
	lbu	a5,238(a5)
	.loc 1 1217 51
	sext.w	a5,a5
	andi	a5,a5,127
	sext.w	a4,a5
	.loc 1 1217 8
	li	a5,1
	beq	a4,a5,.L151
	.loc 1 1218 20
	ld	a5,-32(s0)
	ld	a5,40(a5)
	.loc 1 1218 40
	lbu	a5,238(a5)
	.loc 1 1218 52
	sext.w	a5,a5
	andi	a5,a5,127
	sext.w	a4,a5
	.loc 1 1218 10
	li	a5,2
	bne	a4,a5,.L152
	.loc 1 1222 9
	ld	a1,-32(s0)
	ld	a0,-56(s0)
	call	ProgramP2C
	j	.L153
.L152:
	.loc 1 1227 9
	ld	a1,-32(s0)
	ld	a0,-56(s0)
	call	ProgramBar
	j	.L153
.L151:
	.loc 1 1233 44
	ld	a5,-32(s0)
	ld	a4,56(a5)
	.loc 1 1233 16
	ld	a5,-56(s0)
	add	a5,a4,a5
	ld	a1,-32(s0)
	mv	a0,a5
	call	ProgramResource
	sd	a0,-40(s0)
	.loc 1 1234 38
	ld	a5,-40(s0)
	.loc 1 1234 10
	bge	a5,zero,.L154
	.loc 1 1235 16
	ld	a5,-40(s0)
	j	.L147
.L154:
	.loc 1 1238 7
	ld	a1,-32(s0)
	ld	a0,-56(s0)
	call	ProgramPpbApperture
.L153:
	.loc 1 1241 17
	ld	a5,-24(s0)
	ld	a5,0(a5)
	sd	a5,-24(s0)
.L148:
	.loc 1 1214 25
	ld	a5,-64(s0)
	addi	a5,a5,24
	.loc 1 1214 22
	ld	a4,-24(s0)
	bne	a4,a5,.L155
	.loc 1 1244 10
	li	a5,0
.L147:
	.loc 1 1245 1
	mv	a0,a5
	ld	ra,56(sp)
	.cfi_restore 1
	ld	s0,48(sp)
	.cfi_restore 8
	.cfi_def_cfa 2, 64
	addi	sp,sp,64
	.cfi_def_cfa_offset 0
	jr	ra
	.cfi_endproc
.LFE13:
	.size	ProgramResource, .-ProgramResource
	.section	.text.ProgramBar,"ax",@progbits
	.align	1
	.globl	ProgramBar
	.type	ProgramBar, @function
ProgramBar:
.LFB14:
	.loc 1 1259 1
	.cfi_startproc
	addi	sp,sp,-64
	.cfi_def_cfa_offset 64
	sd	ra,56(sp)
	sd	s0,48(sp)
	.cfi_offset 1, -8
	.cfi_offset 8, -16
	addi	s0,sp,64
	.cfi_def_cfa 8, 0
	sd	a0,-56(s0)
	sd	a1,-64(s0)
	.loc 1 1269 11
	ld	a5,-64(s0)
	lbu	a5,88(a5)
	.loc 1 1269 6
	beq	a5,zero,.L157
	.loc 1 1270 5
	ld	a1,-64(s0)
	ld	a0,-56(s0)
	call	ProgramVfBar
	j	.L156
.L157:
	.loc 1 1274 11
	sd	zero,-32(s0)
	.loc 1 1275 17
	ld	a5,-64(s0)
	ld	a5,40(a5)
	.loc 1 1275 9
	addi	a5,a5,16
	sd	a5,-24(s0)
	.loc 1 1277 24
	ld	a5,-64(s0)
	ld	a4,56(a5)
	.loc 1 1277 18
	ld	a5,-56(s0)
	add	a5,a4,a5
	.loc 1 1277 11
	sd	a5,-32(s0)
	.loc 1 1285 7
	ld	a5,-64(s0)
	ld	a5,40(a5)
	.loc 1 1285 27
	li	a4,1
	sb	a4,513(a5)
	.loc 1 1287 16
	ld	a5,-64(s0)
	ld	a4,40(a5)
	.loc 1 1287 37
	ld	a5,-64(s0)
	lbu	a5,64(a5)
	sext.w	a5,a5
	.loc 1 1287 44
	slli	a5,a5,5
	add	a5,a4,a5
	lw	a5,320(a5)
	.loc 1 1287 3
	li	a4,7
	beq	a5,a4,.L159
	li	a4,7
	bgtu	a5,a4,.L166
	li	a4,4
	bgtu	a5,a4,.L161
	bne	a5,zero,.L162
	.loc 1 1339 7
	j	.L166
.L161:
	addiw	a5,a5,-5
	sext.w	a4,a5
	.loc 1 1287 3
	li	a5,1
	bgtu	a4,a5,.L166
	j	.L165
.L162:
	.loc 1 1293 17
	ld	a5,-24(s0)
	ld	a6,56(a5)
	.loc 1 1296 25
	ld	a5,-64(s0)
	ld	a4,40(a5)
	.loc 1 1296 46
	ld	a5,-64(s0)
	lbu	a5,64(a5)
	sext.w	a5,a5
	.loc 1 1296 53
	slli	a5,a5,5
	add	a5,a4,a5
	lhu	a5,326(a5)
	.loc 1 1293 7
	sext.w	a5,a5
	addi	a4,s0,-32
	li	a3,1
	mv	a2,a5
	li	a1,2
	ld	a0,-24(s0)
	jalr	a6
.LVL2:
.L159:
	.loc 1 1307 11
	ld	a5,-64(s0)
	ld	a3,40(a5)
	.loc 1 1307 32
	ld	a5,-64(s0)
	lbu	a5,64(a5)
	sext.w	a5,a5
	.loc 1 1307 51
	ld	a4,-32(s0)
	addi	a5,a5,9
	slli	a5,a5,5
	add	a5,a3,a5
	sd	a4,8(a5)
	.loc 1 1309 7
	j	.L156
.L165:
	.loc 1 1314 19
	ld	a5,-32(s0)
	sext.w	a5,a5
	.loc 1 1314 17
	sw	a5,-36(s0)
	.loc 1 1316 17
	ld	a5,-24(s0)
	ld	a6,56(a5)
	.loc 1 1319 25
	ld	a5,-64(s0)
	ld	a4,40(a5)
	.loc 1 1319 46
	ld	a5,-64(s0)
	lbu	a5,64(a5)
	sext.w	a5,a5
	.loc 1 1319 53
	slli	a5,a5,5
	add	a5,a4,a5
	lhu	a5,326(a5)
	.loc 1 1316 7
	sext.w	a5,a5
	addi	a4,s0,-36
	li	a3,1
	mv	a2,a5
	li	a1,2
	ld	a0,-24(s0)
	jalr	a6
.LVL3:
	.loc 1 1324 27
	ld	a5,-32(s0)
	li	a1,32
	mv	a0,a5
	call	RShiftU64@plt
	mv	a5,a0
	.loc 1 1324 19 discriminator 1
	sext.w	a5,a5
	.loc 1 1324 17 discriminator 1
	sw	a5,-36(s0)
	.loc 1 1326 17
	ld	a5,-24(s0)
	ld	a6,56(a5)
	.loc 1 1329 33
	ld	a5,-64(s0)
	ld	a4,40(a5)
	.loc 1 1329 54
	ld	a5,-64(s0)
	lbu	a5,64(a5)
	sext.w	a5,a5
	.loc 1 1329 61
	slli	a5,a5,5
	add	a5,a4,a5
	lhu	a5,326(a5)
	.loc 1 1329 20
	andi	a5,a5,0xff
	addiw	a5,a5,4
	andi	a5,a5,0xff
	.loc 1 1326 7
	sext.w	a5,a5
	addi	a4,s0,-36
	li	a3,1
	mv	a2,a5
	li	a1,2
	ld	a0,-24(s0)
	jalr	a6
.LVL4:
	.loc 1 1334 11
	ld	a5,-64(s0)
	ld	a3,40(a5)
	.loc 1 1334 32
	ld	a5,-64(s0)
	lbu	a5,64(a5)
	sext.w	a5,a5
	.loc 1 1334 51
	ld	a4,-32(s0)
	addi	a5,a5,9
	slli	a5,a5,5
	add	a5,a3,a5
	sd	a4,8(a5)
	.loc 1 1336 7
	j	.L156
.L166:
	.loc 1 1339 7
	nop
.L156:
	.loc 1 1341 1
	ld	ra,56(sp)
	.cfi_restore 1
	ld	s0,48(sp)
	.cfi_restore 8
	.cfi_def_cfa 2, 64
	addi	sp,sp,64
	.cfi_def_cfa_offset 0
	jr	ra
	.cfi_endproc
.LFE14:
	.size	ProgramBar, .-ProgramBar
	.section	.text.ProgramVfBar,"ax",@progbits
	.align	1
	.globl	ProgramVfBar
	.type	ProgramVfBar, @function
ProgramVfBar:
.LFB15:
	.loc 1 1355 1
	.cfi_startproc
	addi	sp,sp,-64
	.cfi_def_cfa_offset 64
	sd	ra,56(sp)
	sd	s0,48(sp)
	.cfi_offset 1, -8
	.cfi_offset 8, -16
	addi	s0,sp,64
	.cfi_def_cfa 8, 0
	sd	a0,-56(s0)
	sd	a1,-64(s0)
	.loc 1 1363 11
	sd	zero,-32(s0)
	.loc 1 1364 17
	ld	a5,-64(s0)
	ld	a5,40(a5)
	.loc 1 1364 9
	addi	a5,a5,16
	sd	a5,-24(s0)
	.loc 1 1366 24
	ld	a5,-64(s0)
	ld	a4,56(a5)
	.loc 1 1366 18
	ld	a5,-56(s0)
	add	a5,a4,a5
	.loc 1 1366 11
	sd	a5,-32(s0)
	.loc 1 1374 7
	ld	a5,-64(s0)
	ld	a5,40(a5)
	.loc 1 1374 27
	li	a4,1
	sb	a4,513(a5)
	.loc 1 1376 16
	ld	a5,-64(s0)
	ld	a4,40(a5)
	.loc 1 1376 39
	ld	a5,-64(s0)
	lbu	a5,64(a5)
	sext.w	a5,a5
	.loc 1 1376 46
	addi	a5,a5,20
	slli	a5,a5,5
	add	a5,a4,a5
	lw	a5,16(a5)
	.loc 1 1376 3
	li	a4,6
	bgtu	a5,a4,.L174
	li	a4,5
	bgeu	a5,a4,.L169
	li	a4,2
	bgtu	a5,a4,.L170
	bne	a5,zero,.L175
	.loc 1 1422 7
	j	.L174
.L170:
	addiw	a5,a5,-3
	sext.w	a4,a5
	.loc 1 1376 3
	li	a5,1
	bgtu	a4,a5,.L174
	.loc 1 1380 17
	ld	a5,-24(s0)
	ld	a6,56(a5)
	.loc 1 1383 25
	ld	a5,-64(s0)
	ld	a4,40(a5)
	.loc 1 1383 48
	ld	a5,-64(s0)
	lbu	a5,64(a5)
	sext.w	a5,a5
	.loc 1 1383 55
	addi	a5,a5,20
	slli	a5,a5,5
	add	a5,a4,a5
	lhu	a5,22(a5)
	.loc 1 1380 7
	sext.w	a5,a5
	addi	a4,s0,-32
	li	a3,1
	mv	a2,a5
	li	a1,2
	ld	a0,-24(s0)
	jalr	a6
.LVL5:
	.loc 1 1388 11
	ld	a5,-64(s0)
	ld	a3,40(a5)
	.loc 1 1388 34
	ld	a5,-64(s0)
	lbu	a5,64(a5)
	sext.w	a5,a5
	.loc 1 1388 53
	ld	a4,-32(s0)
	slli	a5,a5,5
	add	a5,a3,a5
	sd	a4,632(a5)
	.loc 1 1389 7
	j	.L172
.L169:
	.loc 1 1394 19
	ld	a5,-32(s0)
	sext.w	a5,a5
	.loc 1 1394 17
	sw	a5,-36(s0)
	.loc 1 1396 17
	ld	a5,-24(s0)
	ld	a6,56(a5)
	.loc 1 1399 25
	ld	a5,-64(s0)
	ld	a4,40(a5)
	.loc 1 1399 48
	ld	a5,-64(s0)
	lbu	a5,64(a5)
	sext.w	a5,a5
	.loc 1 1399 55
	addi	a5,a5,20
	slli	a5,a5,5
	add	a5,a4,a5
	lhu	a5,22(a5)
	.loc 1 1396 7
	sext.w	a5,a5
	addi	a4,s0,-36
	li	a3,1
	mv	a2,a5
	li	a1,2
	ld	a0,-24(s0)
	jalr	a6
.LVL6:
	.loc 1 1404 27
	ld	a5,-32(s0)
	li	a1,32
	mv	a0,a5
	call	RShiftU64@plt
	mv	a5,a0
	.loc 1 1404 19 discriminator 1
	sext.w	a5,a5
	.loc 1 1404 17 discriminator 1
	sw	a5,-36(s0)
	.loc 1 1406 17
	ld	a5,-24(s0)
	ld	a6,56(a5)
	.loc 1 1409 26
	ld	a5,-64(s0)
	ld	a4,40(a5)
	.loc 1 1409 49
	ld	a5,-64(s0)
	lbu	a5,64(a5)
	sext.w	a5,a5
	.loc 1 1409 56
	addi	a5,a5,20
	slli	a5,a5,5
	add	a5,a4,a5
	lhu	a5,22(a5)
	sext.w	a5,a5
	.loc 1 1409 64
	addiw	a5,a5,4
	sext.w	a5,a5
	.loc 1 1406 7
	mv	a2,a5
	addi	a5,s0,-36
	mv	a4,a5
	li	a3,1
	li	a1,2
	ld	a0,-24(s0)
	jalr	a6
.LVL7:
	.loc 1 1414 11
	ld	a5,-64(s0)
	ld	a3,40(a5)
	.loc 1 1414 34
	ld	a5,-64(s0)
	lbu	a5,64(a5)
	sext.w	a5,a5
	.loc 1 1414 53
	ld	a4,-32(s0)
	slli	a5,a5,5
	add	a5,a3,a5
	sd	a4,632(a5)
	.loc 1 1415 7
	j	.L172
.L174:
	.loc 1 1422 7
	nop
	j	.L172
.L175:
	.loc 1 1419 7
	nop
.L172:
	.loc 1 1425 10
	li	a5,0
	.loc 1 1426 1
	mv	a0,a5
	ld	ra,56(sp)
	.cfi_restore 1
	ld	s0,48(sp)
	.cfi_restore 8
	.cfi_def_cfa 2, 64
	addi	sp,sp,64
	.cfi_def_cfa_offset 0
	jr	ra
	.cfi_endproc
.LFE15:
	.size	ProgramVfBar, .-ProgramVfBar
	.section	.text.ProgramPpbApperture,"ax",@progbits
	.align	1
	.globl	ProgramPpbApperture
	.type	ProgramPpbApperture, @function
ProgramPpbApperture:
.LFB16:
	.loc 1 1440 1
	.cfi_startproc
	addi	sp,sp,-64
	.cfi_def_cfa_offset 64
	sd	ra,56(sp)
	sd	s0,48(sp)
	.cfi_offset 1, -8
	.cfi_offset 8, -16
	addi	s0,sp,64
	.cfi_def_cfa 8, 0
	sd	a0,-56(s0)
	sd	a1,-64(s0)
	.loc 1 1445 11
	sd	zero,-32(s0)
	.loc 1 1450 12
	ld	a5,-64(s0)
	ld	a5,72(a5)
	.loc 1 1450 6
	beq	a5,zero,.L193
	.loc 1 1450 35 discriminator 1
	ld	a5,-64(s0)
	lw	a4,84(a5)
	.loc 1 1450 27 discriminator 1
	li	a5,1
	beq	a4,a5,.L193
	.loc 1 1457 17
	ld	a5,-64(s0)
	ld	a5,40(a5)
	.loc 1 1457 9
	addi	a5,a5,16
	sd	a5,-24(s0)
	.loc 1 1458 24
	ld	a5,-64(s0)
	ld	a4,56(a5)
	.loc 1 1458 18
	ld	a5,-56(s0)
	add	a5,a4,a5
	.loc 1 1458 11
	sd	a5,-32(s0)
	.loc 1 1463 7
	ld	a5,-64(s0)
	ld	a5,40(a5)
	.loc 1 1463 27
	li	a4,1
	sb	a4,513(a5)
	.loc 1 1465 15
	ld	a5,-64(s0)
	lbu	a5,64(a5)
	sext.w	a5,a5
	.loc 1 1465 3
	li	a4,5
	bgt	a5,a4,.L194
	li	a4,4
	bge	a5,a4,.L181
	li	a4,3
	beq	a5,a4,.L182
	li	a4,3
	bgt	a5,a4,.L194
	li	a4,1
	bgt	a5,a4,.L183
	bge	a5,zero,.L184
	.loc 1 1632 7
	j	.L194
.L183:
	.loc 1 1465 3
	li	a4,2
	beq	a5,a4,.L185
	.loc 1 1632 7
	j	.L194
.L184:
	.loc 1 1468 20
	ld	a5,-64(s0)
	ld	a4,40(a5)
	.loc 1 1468 41
	ld	a5,-64(s0)
	lbu	a5,64(a5)
	sext.w	a5,a5
	.loc 1 1468 48
	slli	a5,a5,5
	add	a5,a4,a5
	lw	a5,320(a5)
	.loc 1 1468 7
	li	a4,4
	bgtu	a5,a4,.L186
	bne	a5,zero,.L187
	.loc 1 1514 11
	j	.L195
.L186:
	addiw	a5,a5,-5
	sext.w	a4,a5
	.loc 1 1468 7
	li	a5,1
	bgtu	a4,a5,.L195
	j	.L192
.L187:
	.loc 1 1474 21
	ld	a5,-24(s0)
	ld	a6,56(a5)
	.loc 1 1477 29
	ld	a5,-64(s0)
	ld	a4,40(a5)
	.loc 1 1477 50
	ld	a5,-64(s0)
	lbu	a5,64(a5)
	sext.w	a5,a5
	.loc 1 1477 57
	slli	a5,a5,5
	add	a5,a4,a5
	lhu	a5,326(a5)
	.loc 1 1474 11
	sext.w	a5,a5
	addi	a4,s0,-32
	li	a3,1
	mv	a2,a5
	li	a1,2
	ld	a0,-24(s0)
	jalr	a6
.LVL8:
	.loc 1 1482 15
	ld	a5,-64(s0)
	ld	a3,40(a5)
	.loc 1 1482 36
	ld	a5,-64(s0)
	lbu	a5,64(a5)
	sext.w	a5,a5
	.loc 1 1482 55
	ld	a4,-32(s0)
	addi	a5,a5,9
	slli	a5,a5,5
	add	a5,a3,a5
	sd	a4,8(a5)
	.loc 1 1483 15
	ld	a5,-64(s0)
	ld	a3,40(a5)
	.loc 1 1483 36
	ld	a5,-64(s0)
	lbu	a5,64(a5)
	sext.w	a5,a5
	.loc 1 1483 56
	ld	a4,-64(s0)
	ld	a4,72(a4)
	.loc 1 1483 50
	addi	a5,a5,9
	slli	a5,a5,5
	add	a5,a3,a5
	sd	a4,16(a5)
	.loc 1 1484 11
	j	.L190
.L192:
	.loc 1 1489 23
	ld	a5,-32(s0)
	sext.w	a5,a5
	.loc 1 1489 21
	sw	a5,-36(s0)
	.loc 1 1491 21
	ld	a5,-24(s0)
	ld	a6,56(a5)
	.loc 1 1494 29
	ld	a5,-64(s0)
	ld	a4,40(a5)
	.loc 1 1494 50
	ld	a5,-64(s0)
	lbu	a5,64(a5)
	sext.w	a5,a5
	.loc 1 1494 57
	slli	a5,a5,5
	add	a5,a4,a5
	lhu	a5,326(a5)
	.loc 1 1491 11
	sext.w	a5,a5
	addi	a4,s0,-36
	li	a3,1
	mv	a2,a5
	li	a1,2
	ld	a0,-24(s0)
	jalr	a6
.LVL9:
	.loc 1 1499 31
	ld	a5,-32(s0)
	li	a1,32
	mv	a0,a5
	call	RShiftU64@plt
	mv	a5,a0
	.loc 1 1499 23 discriminator 1
	sext.w	a5,a5
	.loc 1 1499 21 discriminator 1
	sw	a5,-36(s0)
	.loc 1 1501 21
	ld	a5,-24(s0)
	ld	a6,56(a5)
	.loc 1 1504 37
	ld	a5,-64(s0)
	ld	a4,40(a5)
	.loc 1 1504 58
	ld	a5,-64(s0)
	lbu	a5,64(a5)
	sext.w	a5,a5
	.loc 1 1504 65
	slli	a5,a5,5
	add	a5,a4,a5
	lhu	a5,326(a5)
	.loc 1 1504 24
	andi	a5,a5,0xff
	addiw	a5,a5,4
	andi	a5,a5,0xff
	.loc 1 1501 11
	sext.w	a5,a5
	addi	a4,s0,-36
	li	a3,1
	mv	a2,a5
	li	a1,2
	ld	a0,-24(s0)
	jalr	a6
.LVL10:
	.loc 1 1509 15
	ld	a5,-64(s0)
	ld	a3,40(a5)
	.loc 1 1509 36
	ld	a5,-64(s0)
	lbu	a5,64(a5)
	sext.w	a5,a5
	.loc 1 1509 55
	ld	a4,-32(s0)
	addi	a5,a5,9
	slli	a5,a5,5
	add	a5,a3,a5
	sd	a4,8(a5)
	.loc 1 1510 15
	ld	a5,-64(s0)
	ld	a3,40(a5)
	.loc 1 1510 36
	ld	a5,-64(s0)
	lbu	a5,64(a5)
	sext.w	a5,a5
	.loc 1 1510 56
	ld	a4,-64(s0)
	ld	a4,72(a4)
	.loc 1 1510 50
	addi	a5,a5,9
	slli	a5,a5,5
	add	a5,a3,a5
	sd	a4,16(a5)
	.loc 1 1511 11
	j	.L190
.L195:
	.loc 1 1514 11
	nop
.L190:
	.loc 1 1517 7
	j	.L176
.L185:
	.loc 1 1521 20
	ld	a5,-32(s0)
	sext.w	a5,a5
	.loc 1 1521 39
	srliw	a5,a5,8
	sext.w	a5,a5
	.loc 1 1521 17
	sw	a5,-36(s0)
	.loc 1 1522 17
	ld	a5,-24(s0)
	ld	a5,56(a5)
	.loc 1 1522 7
	addi	a4,s0,-36
	li	a3,1
	li	a2,28
	li	a1,0
	ld	a0,-24(s0)
	jalr	a5
.LVL11:
	.loc 1 1530 17
	lw	a5,-36(s0)
	srliw	a5,a5,8
	sext.w	a5,a5
	sw	a5,-36(s0)
	.loc 1 1531 17
	ld	a5,-24(s0)
	ld	a5,56(a5)
	.loc 1 1531 7
	addi	a4,s0,-36
	li	a3,1
	li	a2,48
	li	a1,1
	ld	a0,-24(s0)
	jalr	a5
.LVL12:
	.loc 1 1539 36
	ld	a5,-32(s0)
	sext.w	a4,a5
	.loc 1 1539 42
	ld	a5,-64(s0)
	ld	a5,72(a5)
	.loc 1 1539 36
	sext.w	a5,a5
	addw	a5,a4,a5
	sext.w	a5,a5
	.loc 1 1539 19
	addiw	a5,a5,-1
	sext.w	a5,a5
	.loc 1 1539 17
	sw	a5,-36(s0)
	.loc 1 1540 20
	lw	a5,-36(s0)
	.loc 1 1540 41
	srliw	a5,a5,8
	sext.w	a5,a5
	.loc 1 1540 17
	sw	a5,-36(s0)
	.loc 1 1541 17
	ld	a5,-24(s0)
	ld	a5,56(a5)
	.loc 1 1541 7
	addi	a4,s0,-36
	li	a3,1
	li	a2,29
	li	a1,0
	ld	a0,-24(s0)
	jalr	a5
.LVL13:
	.loc 1 1549 17
	lw	a5,-36(s0)
	srliw	a5,a5,8
	sext.w	a5,a5
	sw	a5,-36(s0)
	.loc 1 1550 17
	ld	a5,-24(s0)
	ld	a5,56(a5)
	.loc 1 1550 7
	addi	a4,s0,-36
	li	a3,1
	li	a2,50
	li	a1,1
	ld	a0,-24(s0)
	jalr	a5
.LVL14:
	.loc 1 1558 11
	ld	a5,-64(s0)
	ld	a3,40(a5)
	.loc 1 1558 32
	ld	a5,-64(s0)
	lbu	a5,64(a5)
	sext.w	a5,a5
	.loc 1 1558 51
	ld	a4,-32(s0)
	addi	a5,a5,9
	slli	a5,a5,5
	add	a5,a3,a5
	sd	a4,8(a5)
	.loc 1 1559 11
	ld	a5,-64(s0)
	ld	a3,40(a5)
	.loc 1 1559 32
	ld	a5,-64(s0)
	lbu	a5,64(a5)
	sext.w	a5,a5
	.loc 1 1559 52
	ld	a4,-64(s0)
	ld	a4,72(a4)
	.loc 1 1559 46
	addi	a5,a5,9
	slli	a5,a5,5
	add	a5,a3,a5
	sd	a4,16(a5)
	.loc 1 1560 7
	j	.L176
.L182:
	.loc 1 1564 20
	ld	a5,-32(s0)
	sext.w	a5,a5
	.loc 1 1564 39
	srliw	a5,a5,16
	sext.w	a5,a5
	.loc 1 1564 17
	sw	a5,-36(s0)
	.loc 1 1565 17
	ld	a5,-24(s0)
	ld	a5,56(a5)
	.loc 1 1565 7
	addi	a4,s0,-36
	li	a3,1
	li	a2,32
	li	a1,1
	ld	a0,-24(s0)
	jalr	a5
.LVL15:
	.loc 1 1573 36
	ld	a5,-32(s0)
	sext.w	a4,a5
	.loc 1 1573 42
	ld	a5,-64(s0)
	ld	a5,72(a5)
	.loc 1 1573 36
	sext.w	a5,a5
	addw	a5,a4,a5
	sext.w	a5,a5
	.loc 1 1573 19
	addiw	a5,a5,-1
	sext.w	a5,a5
	.loc 1 1573 17
	sw	a5,-36(s0)
	.loc 1 1574 20
	lw	a5,-36(s0)
	.loc 1 1574 41
	srliw	a5,a5,16
	sext.w	a5,a5
	.loc 1 1574 17
	sw	a5,-36(s0)
	.loc 1 1575 17
	ld	a5,-24(s0)
	ld	a5,56(a5)
	.loc 1 1575 7
	addi	a4,s0,-36
	li	a3,1
	li	a2,34
	li	a1,1
	ld	a0,-24(s0)
	jalr	a5
.LVL16:
	.loc 1 1583 11
	ld	a5,-64(s0)
	ld	a3,40(a5)
	.loc 1 1583 32
	ld	a5,-64(s0)
	lbu	a5,64(a5)
	sext.w	a5,a5
	.loc 1 1583 51
	ld	a4,-32(s0)
	addi	a5,a5,9
	slli	a5,a5,5
	add	a5,a3,a5
	sd	a4,8(a5)
	.loc 1 1584 11
	ld	a5,-64(s0)
	ld	a3,40(a5)
	.loc 1 1584 32
	ld	a5,-64(s0)
	lbu	a5,64(a5)
	sext.w	a5,a5
	.loc 1 1584 52
	ld	a4,-64(s0)
	ld	a4,72(a4)
	.loc 1 1584 46
	addi	a5,a5,9
	slli	a5,a5,5
	add	a5,a3,a5
	sd	a4,16(a5)
	.loc 1 1585 7
	j	.L176
.L181:
	.loc 1 1590 20
	ld	a5,-32(s0)
	sext.w	a5,a5
	.loc 1 1590 39
	srliw	a5,a5,16
	sext.w	a5,a5
	.loc 1 1590 17
	sw	a5,-36(s0)
	.loc 1 1591 17
	ld	a5,-24(s0)
	ld	a5,56(a5)
	.loc 1 1591 7
	addi	a4,s0,-36
	li	a3,1
	li	a2,36
	li	a1,1
	ld	a0,-24(s0)
	jalr	a5
.LVL17:
	.loc 1 1599 36
	ld	a5,-32(s0)
	sext.w	a4,a5
	.loc 1 1599 42
	ld	a5,-64(s0)
	ld	a5,72(a5)
	.loc 1 1599 36
	sext.w	a5,a5
	addw	a5,a4,a5
	sext.w	a5,a5
	.loc 1 1599 19
	addiw	a5,a5,-1
	sext.w	a5,a5
	.loc 1 1599 17
	sw	a5,-36(s0)
	.loc 1 1600 20
	lw	a5,-36(s0)
	.loc 1 1600 41
	srliw	a5,a5,16
	sext.w	a5,a5
	.loc 1 1600 17
	sw	a5,-36(s0)
	.loc 1 1601 17
	ld	a5,-24(s0)
	ld	a5,56(a5)
	.loc 1 1601 7
	addi	a4,s0,-36
	li	a3,1
	li	a2,38
	li	a1,1
	ld	a0,-24(s0)
	jalr	a5
.LVL18:
	.loc 1 1609 27
	ld	a5,-32(s0)
	li	a1,32
	mv	a0,a5
	call	RShiftU64@plt
	mv	a5,a0
	.loc 1 1609 19 discriminator 1
	sext.w	a5,a5
	.loc 1 1609 17 discriminator 1
	sw	a5,-36(s0)
	.loc 1 1610 17
	ld	a5,-24(s0)
	ld	a5,56(a5)
	.loc 1 1610 7
	addi	a4,s0,-36
	li	a3,1
	li	a2,40
	li	a1,2
	ld	a0,-24(s0)
	jalr	a5
.LVL19:
	.loc 1 1618 53
	ld	a5,-64(s0)
	ld	a4,72(a5)
	.loc 1 1618 47
	ld	a5,-32(s0)
	add	a5,a4,a5
	.loc 1 1618 27
	addi	a5,a5,-1
	li	a1,32
	mv	a0,a5
	call	RShiftU64@plt
	mv	a5,a0
	.loc 1 1618 19 discriminator 1
	sext.w	a5,a5
	.loc 1 1618 17 discriminator 1
	sw	a5,-36(s0)
	.loc 1 1619 17
	ld	a5,-24(s0)
	ld	a5,56(a5)
	.loc 1 1619 7
	addi	a4,s0,-36
	li	a3,1
	li	a2,44
	li	a1,2
	ld	a0,-24(s0)
	jalr	a5
.LVL20:
	.loc 1 1627 11
	ld	a5,-64(s0)
	ld	a3,40(a5)
	.loc 1 1627 32
	ld	a5,-64(s0)
	lbu	a5,64(a5)
	sext.w	a5,a5
	.loc 1 1627 51
	ld	a4,-32(s0)
	addi	a5,a5,9
	slli	a5,a5,5
	add	a5,a3,a5
	sd	a4,8(a5)
	.loc 1 1628 11
	ld	a5,-64(s0)
	ld	a3,40(a5)
	.loc 1 1628 32
	ld	a5,-64(s0)
	lbu	a5,64(a5)
	sext.w	a5,a5
	.loc 1 1628 52
	ld	a4,-64(s0)
	ld	a4,72(a4)
	.loc 1 1628 46
	addi	a5,a5,9
	slli	a5,a5,5
	add	a5,a3,a5
	sd	a4,16(a5)
	.loc 1 1629 7
	j	.L176
.L193:
	.loc 1 1454 5 discriminator 1
	nop
	j	.L176
.L194:
	.loc 1 1632 7
	nop
.L176:
	.loc 1 1634 1
	ld	ra,56(sp)
	.cfi_restore 1
	ld	s0,48(sp)
	.cfi_restore 8
	.cfi_def_cfa 2, 64
	addi	sp,sp,64
	.cfi_def_cfa_offset 0
	jr	ra
	.cfi_endproc
.LFE16:
	.size	ProgramPpbApperture, .-ProgramPpbApperture
	.section	.text.ProgramUpstreamBridgeForRom,"ax",@progbits
	.align	1
	.globl	ProgramUpstreamBridgeForRom
	.type	ProgramUpstreamBridgeForRom, @function
ProgramUpstreamBridgeForRom:
.LFB17:
	.loc 1 1650 1
	.cfi_startproc
	addi	sp,sp,-64
	.cfi_def_cfa_offset 64
	sd	ra,56(sp)
	sd	s0,48(sp)
	.cfi_offset 1, -8
	.cfi_offset 8, -16
	addi	s0,sp,64
	.cfi_def_cfa 8, 0
	sd	a0,-56(s0)
	mv	a5,a1
	mv	a4,a2
	sw	a5,-60(s0)
	mv	a5,a4
	sb	a5,-61(s0)
	.loc 1 1659 10
	ld	a5,-56(s0)
	ld	a5,488(a5)
	sd	a5,-24(s0)
	.loc 1 1660 9
	j	.L197
.L204:
	.loc 1 1661 31
	ld	a5,-24(s0)
	lbu	a5,238(a5)
	.loc 1 1661 43
	sext.w	a5,a5
	andi	a5,a5,127
	sext.w	a4,a5
	.loc 1 1661 8
	li	a5,1
	bne	a4,a5,.L205
	.loc 1 1665 11
	ld	a5,-24(s0)
	addi	a5,a5,16
	sd	a5,-32(s0)
	.loc 1 1670 8
	lbu	a5,-61(s0)
	andi	a5,a5,0xff
	beq	a5,zero,.L200
	.loc 1 1674 37
	lw	a5,-60(s0)
	srliw	a5,a5,16
	sext.w	a5,a5
	.loc 1 1674 14
	slli	a5,a5,48
	srli	a5,a5,48
	.loc 1 1674 12
	sh	a5,-34(s0)
	.loc 1 1675 50
	ld	a5,-56(s0)
	lw	a5,544(a5)
	.loc 1 1675 39
	lw	a4,-60(s0)
	addw	a5,a4,a5
	sext.w	a5,a5
	.loc 1 1675 60
	addiw	a5,a5,-1
	sext.w	a5,a5
	.loc 1 1675 65
	srliw	a5,a5,16
	sext.w	a5,a5
	.loc 1 1675 15
	slli	a5,a5,48
	srli	a5,a5,48
	.loc 1 1675 13
	sh	a5,-36(s0)
	.loc 1 1676 17
	ld	a5,-32(s0)
	ld	a5,56(a5)
	.loc 1 1676 7
	addi	a4,s0,-34
	li	a3,1
	li	a2,32
	li	a1,1
	ld	a0,-32(s0)
	jalr	a5
.LVL21:
	.loc 1 1677 17
	ld	a5,-32(s0)
	ld	a5,56(a5)
	.loc 1 1677 7
	addi	a4,s0,-36
	li	a3,1
	li	a2,34
	li	a1,1
	ld	a0,-32(s0)
	jalr	a5
.LVL22:
	.loc 1 1679 7
	li	a4,0
	li	a3,3
	li	a2,4
	li	a1,2
	ld	a0,-24(s0)
	call	PciOperateRegister@plt
	j	.L201
.L200:
	.loc 1 1684 28
	ld	a5,-24(s0)
	ld	a5,400(a5)
	.loc 1 1684 10
	bne	a5,zero,.L202
	.loc 1 1688 16
	la	a5,gAllOne
	ld	a5,0(a5)
	slli	a5,a5,48
	srli	a5,a5,48
	.loc 1 1688 14
	sh	a5,-34(s0)
	.loc 1 1689 17
	la	a5,gAllZero
	ld	a5,0(a5)
	slli	a5,a5,48
	srli	a5,a5,48
	.loc 1 1689 15
	sh	a5,-36(s0)
	j	.L203
.L202:
	.loc 1 1691 50
	ld	a5,-24(s0)
	ld	a5,392(a5)
	.loc 1 1691 25
	sext.w	a5,a5
	.loc 1 1691 63
	srliw	a5,a5,16
	sext.w	a5,a5
	.loc 1 1691 16
	slli	a5,a5,48
	srli	a5,a5,48
	.loc 1 1691 14
	sh	a5,-34(s0)
	.loc 1 1692 52
	ld	a5,-24(s0)
	ld	a5,392(a5)
	.loc 1 1693 35
	sext.w	a4,a5
	.loc 1 1693 54
	ld	a5,-24(s0)
	ld	a5,400(a5)
	.loc 1 1693 35
	sext.w	a5,a5
	addw	a5,a4,a5
	sext.w	a5,a5
	.loc 1 1692 26
	addiw	a5,a5,-1
	sext.w	a5,a5
	.loc 1 1693 67
	srliw	a5,a5,16
	sext.w	a5,a5
	.loc 1 1692 17
	slli	a5,a5,48
	srli	a5,a5,48
	.loc 1 1692 15
	sh	a5,-36(s0)
.L203:
	.loc 1 1696 17
	ld	a5,-32(s0)
	ld	a5,56(a5)
	.loc 1 1696 7
	addi	a4,s0,-34
	li	a3,1
	li	a2,32
	li	a1,1
	ld	a0,-32(s0)
	jalr	a5
.LVL23:
	.loc 1 1697 17
	ld	a5,-32(s0)
	ld	a5,56(a5)
	.loc 1 1697 7
	addi	a4,s0,-36
	li	a3,1
	li	a2,34
	li	a1,1
	ld	a0,-32(s0)
	jalr	a5
.LVL24:
	.loc 1 1699 7
	li	a4,0
	li	a3,4
	li	a2,4
	li	a1,2
	ld	a0,-24(s0)
	call	PciOperateRegister@plt
.L201:
	.loc 1 1702 12
	ld	a5,-24(s0)
	ld	a5,488(a5)
	sd	a5,-24(s0)
.L197:
	.loc 1 1660 17
	ld	a5,-24(s0)
	bne	a5,zero,.L204
	.loc 1 1704 1
	j	.L206
.L205:
	.loc 1 1662 7
	nop
.L206:
	.loc 1 1704 1
	nop
	ld	ra,56(sp)
	.cfi_restore 1
	ld	s0,48(sp)
	.cfi_restore 8
	.cfi_def_cfa 2, 64
	addi	sp,sp,64
	.cfi_def_cfa_offset 0
	jr	ra
	.cfi_endproc
.LFE17:
	.size	ProgramUpstreamBridgeForRom, .-ProgramUpstreamBridgeForRom
	.section	.text.ResourceRequestExisted,"ax",@progbits
	.align	1
	.globl	ResourceRequestExisted
	.type	ResourceRequestExisted, @function
ResourceRequestExisted:
.LFB18:
	.loc 1 1719 1
	.cfi_startproc
	addi	sp,sp,-32
	.cfi_def_cfa_offset 32
	sd	ra,24(sp)
	sd	s0,16(sp)
	.cfi_offset 1, -8
	.cfi_offset 8, -16
	addi	s0,sp,32
	.cfi_def_cfa 8, 0
	sd	a0,-24(s0)
	.loc 1 1720 6
	ld	a5,-24(s0)
	beq	a5,zero,.L208
	.loc 1 1721 23
	ld	a5,-24(s0)
	addi	a5,a5,24
	.loc 1 1721 10
	mv	a0,a5
	call	IsListEmpty@plt
	mv	a5,a0
	.loc 1 1721 8 discriminator 1
	beq	a5,zero,.L209
	.loc 1 1721 53 discriminator 2
	ld	a5,-24(s0)
	ld	a5,72(a5)
	.loc 1 1721 43 discriminator 2
	beq	a5,zero,.L208
.L209:
	.loc 1 1722 14
	li	a5,1
	j	.L210
.L208:
	.loc 1 1726 10
	li	a5,0
.L210:
	.loc 1 1727 1
	mv	a0,a5
	ld	ra,24(sp)
	.cfi_restore 1
	ld	s0,16(sp)
	.cfi_restore 8
	.cfi_def_cfa 2, 32
	addi	sp,sp,32
	.cfi_def_cfa_offset 0
	jr	ra
	.cfi_endproc
.LFE18:
	.size	ResourceRequestExisted, .-ResourceRequestExisted
	.section	.text.InitializeResourcePool,"ax",@progbits
	.align	1
	.globl	InitializeResourcePool
	.type	InitializeResourcePool, @function
InitializeResourcePool:
.LFB19:
	.loc 1 1742 1
	.cfi_startproc
	addi	sp,sp,-32
	.cfi_def_cfa_offset 32
	sd	ra,24(sp)
	sd	s0,16(sp)
	.cfi_offset 1, -8
	.cfi_offset 8, -16
	addi	s0,sp,32
	.cfi_def_cfa 8, 0
	sd	a0,-24(s0)
	mv	a5,a1
	sw	a5,-28(s0)
	.loc 1 1743 3
	li	a1,96
	ld	a0,-24(s0)
	call	ZeroMem@plt
	.loc 1 1744 25
	ld	a5,-24(s0)
	lw	a4,-28(s0)
	sw	a4,68(a5)
	.loc 1 1745 27
	ld	a5,-24(s0)
	li	a4,1668440064
	addi	a4,a4,880
	sw	a4,0(a5)
	.loc 1 1746 3
	ld	a5,-24(s0)
	addi	a5,a5,24
	mv	a0,a5
	call	InitializeListHead@plt
	.loc 1 1747 1
	nop
	ld	ra,24(sp)
	.cfi_restore 1
	ld	s0,16(sp)
	.cfi_restore 8
	.cfi_def_cfa 2, 32
	addi	sp,sp,32
	.cfi_def_cfa_offset 0
	jr	ra
	.cfi_endproc
.LFE19:
	.size	InitializeResourcePool, .-InitializeResourcePool
	.section	.text.DestroyResourceTree,"ax",@progbits
	.align	1
	.globl	DestroyResourceTree
	.type	DestroyResourceTree, @function
DestroyResourceTree:
.LFB20:
	.loc 1 1759 1
	.cfi_startproc
	addi	sp,sp,-48
	.cfi_def_cfa_offset 48
	sd	ra,40(sp)
	sd	s0,32(sp)
	.cfi_offset 1, -8
	.cfi_offset 8, -16
	addi	s0,sp,48
	.cfi_def_cfa 8, 0
	sd	a0,-40(s0)
	.loc 1 1763 9
	j	.L213
.L217:
	.loc 1 1764 17
	ld	a5,-40(s0)
	ld	a5,24(a5)
	sd	a5,-32(s0)
	.loc 1 1766 14
	ld	a5,-32(s0)
	addi	a5,a5,-8
	.loc 1 1766 127
	lw	a4,0(a5)
	.loc 1 1766 212
	li	a5,1668440064
	addi	a5,a5,880
	bne	a4,a5,.L214
	.loc 1 1766 10 discriminator 1
	ld	a5,-32(s0)
	addi	a5,a5,-8
	sd	a5,-24(s0)
	j	.L215
.L214:
	.loc 1 1766 10 is_stmt 0 discriminator 2
	sd	zero,-24(s0)
.L215:
	.loc 1 1769 5 is_stmt 1
	ld	a0,-32(s0)
	call	RemoveEntryList@plt
	.loc 1 1771 18
	ld	a5,-24(s0)
	ld	a5,40(a5)
	.loc 1 1771 38
	lbu	a5,238(a5)
	.loc 1 1771 50
	sext.w	a5,a5
	andi	a5,a5,127
	sext.w	a4,a5
	.loc 1 1771 8
	li	a5,1
	bne	a4,a5,.L216
	.loc 1 1772 7
	ld	a0,-24(s0)
	call	DestroyResourceTree
.L216:
	.loc 1 1775 5
	ld	a0,-24(s0)
	call	FreePool@plt
.L213:
	.loc 1 1763 24
	ld	a5,-40(s0)
	addi	a5,a5,24
	.loc 1 1763 11
	mv	a0,a5
	call	IsListEmpty@plt
	mv	a5,a0
	.loc 1 1763 10 discriminator 1
	beq	a5,zero,.L217
	.loc 1 1777 1
	nop
	nop
	ld	ra,40(sp)
	.cfi_restore 1
	ld	s0,32(sp)
	.cfi_restore 8
	.cfi_def_cfa 2, 48
	addi	sp,sp,48
	.cfi_def_cfa_offset 0
	jr	ra
	.cfi_endproc
.LFE20:
	.size	DestroyResourceTree, .-DestroyResourceTree
	.section	.text.ResourcePaddingForCardBusBridge,"ax",@progbits
	.align	1
	.globl	ResourcePaddingForCardBusBridge
	.type	ResourcePaddingForCardBusBridge, @function
ResourcePaddingForCardBusBridge:
.LFB21:
	.loc 1 1799 1
	.cfi_startproc
	addi	sp,sp,-80
	.cfi_def_cfa_offset 80
	sd	ra,72(sp)
	sd	s0,64(sp)
	.cfi_offset 1, -8
	.cfi_offset 8, -16
	addi	s0,sp,80
	.cfi_def_cfa 8, 0
	sd	a0,-40(s0)
	sd	a1,-48(s0)
	sd	a2,-56(s0)
	sd	a3,-64(s0)
	sd	a4,-72(s0)
	sd	a5,-80(s0)
	.loc 1 1802 8
	sd	zero,-24(s0)
	.loc 1 1808 10
	li	a5,1
	li	a4,3
	li	a3,1
	li	a2,33554432
	addi	a2,a2,-1
	li	a1,33554432
	ld	a0,-40(s0)
	call	CreateResourceNode
	sd	a0,-24(s0)
	.loc 1 1817 3
	ld	a1,-24(s0)
	ld	a0,-56(s0)
	call	InsertResourceNode
	.loc 1 1826 10
	li	a5,1
	li	a4,4
	li	a3,2
	li	a2,33554432
	addi	a2,a2,-1
	li	a1,33554432
	ld	a0,-40(s0)
	call	CreateResourceNode
	sd	a0,-24(s0)
	.loc 1 1835 3
	ld	a1,-24(s0)
	ld	a0,-64(s0)
	call	InsertResourceNode
	.loc 1 1844 10
	li	a5,1
	li	a4,1
	li	a3,3
	li	a2,255
	li	a1,256
	ld	a0,-40(s0)
	call	CreateResourceNode
	sd	a0,-24(s0)
	.loc 1 1853 3
	ld	a1,-24(s0)
	ld	a0,-48(s0)
	call	InsertResourceNode
	.loc 1 1862 10
	li	a5,1
	li	a4,1
	li	a3,4
	li	a2,255
	li	a1,256
	ld	a0,-40(s0)
	call	CreateResourceNode
	sd	a0,-24(s0)
	.loc 1 1871 3
	ld	a1,-24(s0)
	ld	a0,-48(s0)
	call	InsertResourceNode
	.loc 1 1875 1
	nop
	ld	ra,72(sp)
	.cfi_restore 1
	ld	s0,64(sp)
	.cfi_restore 8
	.cfi_def_cfa 2, 80
	addi	sp,sp,80
	.cfi_def_cfa_offset 0
	jr	ra
	.cfi_endproc
.LFE21:
	.size	ResourcePaddingForCardBusBridge, .-ResourcePaddingForCardBusBridge
	.section	.text.ProgramP2C,"ax",@progbits
	.align	1
	.globl	ProgramP2C
	.type	ProgramP2C, @function
ProgramP2C:
.LFB22:
	.loc 1 1889 1
	.cfi_startproc
	addi	sp,sp,-64
	.cfi_def_cfa_offset 64
	sd	ra,56(sp)
	sd	s0,48(sp)
	.cfi_offset 1, -8
	.cfi_offset 8, -16
	addi	s0,sp,64
	.cfi_def_cfa 8, 0
	sd	a0,-56(s0)
	sd	a1,-64(s0)
	.loc 1 1895 11
	sd	zero,-32(s0)
	.loc 1 1896 17
	ld	a5,-64(s0)
	ld	a5,40(a5)
	.loc 1 1896 9
	addi	a5,a5,16
	sd	a5,-24(s0)
	.loc 1 1898 24
	ld	a5,-64(s0)
	ld	a4,56(a5)
	.loc 1 1898 18
	ld	a5,-56(s0)
	add	a5,a4,a5
	.loc 1 1898 11
	sd	a5,-32(s0)
	.loc 1 1906 7
	ld	a5,-64(s0)
	ld	a5,40(a5)
	.loc 1 1906 27
	li	a4,1
	sb	a4,513(a5)
	.loc 1 1908 15
	ld	a5,-64(s0)
	lbu	a5,64(a5)
	sext.w	a5,a5
	.loc 1 1908 3
	li	a4,4
	beq	a5,a4,.L220
	li	a4,4
	bgt	a5,a4,.L231
	li	a4,3
	beq	a5,a4,.L222
	li	a4,3
	bgt	a5,a4,.L231
	li	a4,2
	beq	a5,a4,.L223
	li	a4,2
	bgt	a5,a4,.L231
	beq	a5,zero,.L224
	li	a4,1
	beq	a5,a4,.L225
	.loc 1 2102 7
	j	.L231
.L224:
	.loc 1 1910 17
	ld	a5,-24(s0)
	ld	a6,56(a5)
	.loc 1 1913 25
	ld	a5,-64(s0)
	ld	a4,40(a5)
	.loc 1 1913 46
	ld	a5,-64(s0)
	lbu	a5,64(a5)
	sext.w	a5,a5
	.loc 1 1913 53
	slli	a5,a5,5
	add	a5,a4,a5
	lhu	a5,326(a5)
	.loc 1 1910 7
	sext.w	a5,a5
	addi	a4,s0,-32
	li	a3,1
	mv	a2,a5
	li	a1,2
	ld	a0,-24(s0)
	jalr	a6
.LVL25:
	.loc 1 1918 11
	ld	a5,-64(s0)
	ld	a3,40(a5)
	.loc 1 1918 32
	ld	a5,-64(s0)
	lbu	a5,64(a5)
	sext.w	a5,a5
	.loc 1 1918 51
	ld	a4,-32(s0)
	addi	a5,a5,9
	slli	a5,a5,5
	add	a5,a3,a5
	sd	a4,8(a5)
	.loc 1 1919 11
	ld	a5,-64(s0)
	ld	a3,40(a5)
	.loc 1 1919 32
	ld	a5,-64(s0)
	lbu	a5,64(a5)
	sext.w	a5,a5
	.loc 1 1919 52
	ld	a4,-64(s0)
	ld	a4,72(a4)
	.loc 1 1919 46
	addi	a5,a5,9
	slli	a5,a5,5
	add	a5,a3,a5
	sd	a4,16(a5)
	.loc 1 1920 7
	j	.L226
.L225:
	.loc 1 1923 17
	ld	a5,-24(s0)
	ld	a5,56(a5)
	.loc 1 1923 7
	addi	a4,s0,-32
	li	a3,1
	li	a2,28
	li	a1,2
	ld	a0,-24(s0)
	jalr	a5
.LVL26:
	.loc 1 1931 35
	ld	a5,-64(s0)
	ld	a4,72(a5)
	.loc 1 1931 29
	ld	a5,-32(s0)
	add	a5,a4,a5
	.loc 1 1931 44
	addi	a5,a5,-1
	.loc 1 1931 19
	sd	a5,-40(s0)
	.loc 1 1932 17
	ld	a5,-24(s0)
	ld	a5,56(a5)
	.loc 1 1932 7
	addi	a4,s0,-40
	li	a3,1
	li	a2,32
	li	a1,2
	ld	a0,-24(s0)
	jalr	a5
.LVL27:
	.loc 1 1940 15
	ld	a5,-64(s0)
	lw	a4,68(a5)
	.loc 1 1940 10
	li	a5,3
	bne	a4,a5,.L227
	.loc 1 1944 19
	ld	a5,-24(s0)
	ld	a5,48(a5)
	.loc 1 1944 9
	addi	a4,s0,-42
	li	a3,1
	li	a2,62
	li	a1,1
	ld	a0,-24(s0)
	jalr	a5
.LVL28:
	.loc 1 1952 23
	lhu	a5,-42(s0)
	andi	a5,a5,-257
	slli	a5,a5,48
	srli	a5,a5,48
	sh	a5,-42(s0)
	.loc 1 1953 19
	ld	a5,-24(s0)
	ld	a5,56(a5)
	.loc 1 1953 9
	addi	a4,s0,-42
	li	a3,1
	li	a2,62
	li	a1,1
	ld	a0,-24(s0)
	jalr	a5
.LVL29:
	j	.L228
.L227:
	.loc 1 1964 19
	ld	a5,-24(s0)
	ld	a5,48(a5)
	.loc 1 1964 9
	addi	a4,s0,-42
	li	a3,1
	li	a2,62
	li	a1,1
	ld	a0,-24(s0)
	jalr	a5
.LVL30:
	.loc 1 1972 23
	lhu	a5,-42(s0)
	ori	a5,a5,256
	slli	a5,a5,48
	srli	a5,a5,48
	sh	a5,-42(s0)
	.loc 1 1973 19
	ld	a5,-24(s0)
	ld	a5,56(a5)
	.loc 1 1973 9
	addi	a4,s0,-42
	li	a3,1
	li	a2,62
	li	a1,1
	ld	a0,-24(s0)
	jalr	a5
.LVL31:
.L228:
	.loc 1 1982 11
	ld	a5,-64(s0)
	ld	a3,40(a5)
	.loc 1 1982 32
	ld	a5,-64(s0)
	lbu	a5,64(a5)
	sext.w	a5,a5
	.loc 1 1982 51
	ld	a4,-32(s0)
	addi	a5,a5,9
	slli	a5,a5,5
	add	a5,a3,a5
	sd	a4,8(a5)
	.loc 1 1983 11
	ld	a5,-64(s0)
	ld	a3,40(a5)
	.loc 1 1983 32
	ld	a5,-64(s0)
	lbu	a5,64(a5)
	sext.w	a5,a5
	.loc 1 1983 52
	ld	a4,-64(s0)
	ld	a4,72(a4)
	.loc 1 1983 46
	addi	a5,a5,9
	slli	a5,a5,5
	add	a5,a3,a5
	sd	a4,16(a5)
	.loc 1 1984 11
	ld	a5,-64(s0)
	ld	a3,40(a5)
	.loc 1 1984 32
	ld	a5,-64(s0)
	lbu	a5,64(a5)
	sext.w	a5,a5
	.loc 1 1984 53
	ld	a4,-64(s0)
	lw	a4,68(a4)
	.loc 1 1984 47
	slli	a5,a5,5
	add	a5,a3,a5
	sw	a4,320(a5)
	.loc 1 1986 7
	j	.L226
.L223:
	.loc 1 1989 17
	ld	a5,-24(s0)
	ld	a5,56(a5)
	.loc 1 1989 7
	addi	a4,s0,-32
	li	a3,1
	li	a2,36
	li	a1,2
	ld	a0,-24(s0)
	jalr	a5
.LVL32:
	.loc 1 1997 35
	ld	a5,-64(s0)
	ld	a4,72(a5)
	.loc 1 1997 29
	ld	a5,-32(s0)
	add	a5,a4,a5
	.loc 1 1997 44
	addi	a5,a5,-1
	.loc 1 1997 19
	sd	a5,-40(s0)
	.loc 1 1999 17
	ld	a5,-24(s0)
	ld	a5,56(a5)
	.loc 1 1999 7
	addi	a4,s0,-40
	li	a3,1
	li	a2,40
	li	a1,2
	ld	a0,-24(s0)
	jalr	a5
.LVL33:
	.loc 1 2007 15
	ld	a5,-64(s0)
	lw	a4,68(a5)
	.loc 1 2007 10
	li	a5,3
	bne	a4,a5,.L229
	.loc 1 2011 19
	ld	a5,-24(s0)
	ld	a5,48(a5)
	.loc 1 2011 9
	addi	a4,s0,-42
	li	a3,1
	li	a2,62
	li	a1,1
	ld	a0,-24(s0)
	jalr	a5
.LVL34:
	.loc 1 2019 23
	lhu	a5,-42(s0)
	andi	a5,a5,-513
	slli	a5,a5,48
	srli	a5,a5,48
	sh	a5,-42(s0)
	.loc 1 2020 19
	ld	a5,-24(s0)
	ld	a5,56(a5)
	.loc 1 2020 9
	addi	a4,s0,-42
	li	a3,1
	li	a2,62
	li	a1,1
	ld	a0,-24(s0)
	jalr	a5
.LVL35:
	j	.L230
.L229:
	.loc 1 2031 19
	ld	a5,-24(s0)
	ld	a5,48(a5)
	.loc 1 2031 9
	addi	a4,s0,-42
	li	a3,1
	li	a2,62
	li	a1,1
	ld	a0,-24(s0)
	jalr	a5
.LVL36:
	.loc 1 2039 23
	lhu	a5,-42(s0)
	ori	a5,a5,512
	slli	a5,a5,48
	srli	a5,a5,48
	sh	a5,-42(s0)
	.loc 1 2040 19
	ld	a5,-24(s0)
	ld	a5,56(a5)
	.loc 1 2040 9
	addi	a4,s0,-42
	li	a3,1
	li	a2,62
	li	a1,1
	ld	a0,-24(s0)
	jalr	a5
.LVL37:
.L230:
	.loc 1 2049 11
	ld	a5,-64(s0)
	ld	a3,40(a5)
	.loc 1 2049 32
	ld	a5,-64(s0)
	lbu	a5,64(a5)
	sext.w	a5,a5
	.loc 1 2049 51
	ld	a4,-32(s0)
	addi	a5,a5,9
	slli	a5,a5,5
	add	a5,a3,a5
	sd	a4,8(a5)
	.loc 1 2050 11
	ld	a5,-64(s0)
	ld	a3,40(a5)
	.loc 1 2050 32
	ld	a5,-64(s0)
	lbu	a5,64(a5)
	sext.w	a5,a5
	.loc 1 2050 52
	ld	a4,-64(s0)
	ld	a4,72(a4)
	.loc 1 2050 46
	addi	a5,a5,9
	slli	a5,a5,5
	add	a5,a3,a5
	sd	a4,16(a5)
	.loc 1 2051 11
	ld	a5,-64(s0)
	ld	a3,40(a5)
	.loc 1 2051 32
	ld	a5,-64(s0)
	lbu	a5,64(a5)
	sext.w	a5,a5
	.loc 1 2051 53
	ld	a4,-64(s0)
	lw	a4,68(a4)
	.loc 1 2051 47
	slli	a5,a5,5
	add	a5,a3,a5
	sw	a4,320(a5)
	.loc 1 2052 7
	j	.L226
.L222:
	.loc 1 2055 17
	ld	a5,-24(s0)
	ld	a5,56(a5)
	.loc 1 2055 7
	addi	a4,s0,-32
	li	a3,1
	li	a2,44
	li	a1,2
	ld	a0,-24(s0)
	jalr	a5
.LVL38:
	.loc 1 2063 35
	ld	a5,-64(s0)
	ld	a4,72(a5)
	.loc 1 2063 29
	ld	a5,-32(s0)
	add	a5,a4,a5
	.loc 1 2063 44
	addi	a5,a5,-1
	.loc 1 2063 19
	sd	a5,-40(s0)
	.loc 1 2064 17
	ld	a5,-24(s0)
	ld	a5,56(a5)
	.loc 1 2064 7
	addi	a4,s0,-40
	li	a3,1
	li	a2,48
	li	a1,2
	ld	a0,-24(s0)
	jalr	a5
.LVL39:
	.loc 1 2072 11
	ld	a5,-64(s0)
	ld	a3,40(a5)
	.loc 1 2072 32
	ld	a5,-64(s0)
	lbu	a5,64(a5)
	sext.w	a5,a5
	.loc 1 2072 51
	ld	a4,-32(s0)
	addi	a5,a5,9
	slli	a5,a5,5
	add	a5,a3,a5
	sd	a4,8(a5)
	.loc 1 2073 11
	ld	a5,-64(s0)
	ld	a3,40(a5)
	.loc 1 2073 32
	ld	a5,-64(s0)
	lbu	a5,64(a5)
	sext.w	a5,a5
	.loc 1 2073 52
	ld	a4,-64(s0)
	ld	a4,72(a4)
	.loc 1 2073 46
	addi	a5,a5,9
	slli	a5,a5,5
	add	a5,a3,a5
	sd	a4,16(a5)
	.loc 1 2074 11
	ld	a5,-64(s0)
	ld	a3,40(a5)
	.loc 1 2074 32
	ld	a5,-64(s0)
	lbu	a5,64(a5)
	sext.w	a5,a5
	.loc 1 2074 53
	ld	a4,-64(s0)
	lw	a4,68(a4)
	.loc 1 2074 47
	slli	a5,a5,5
	add	a5,a3,a5
	sw	a4,320(a5)
	.loc 1 2076 7
	j	.L226
.L220:
	.loc 1 2079 17
	ld	a5,-24(s0)
	ld	a5,56(a5)
	.loc 1 2079 7
	addi	a4,s0,-32
	li	a3,1
	li	a2,52
	li	a1,2
	ld	a0,-24(s0)
	jalr	a5
.LVL40:
	.loc 1 2087 35
	ld	a5,-64(s0)
	ld	a4,72(a5)
	.loc 1 2087 29
	ld	a5,-32(s0)
	add	a5,a4,a5
	.loc 1 2087 44
	addi	a5,a5,-1
	.loc 1 2087 19
	sd	a5,-40(s0)
	.loc 1 2088 17
	ld	a5,-24(s0)
	ld	a5,56(a5)
	.loc 1 2088 7
	addi	a4,s0,-40
	li	a3,1
	li	a2,56
	li	a1,2
	ld	a0,-24(s0)
	jalr	a5
.LVL41:
	.loc 1 2096 11
	ld	a5,-64(s0)
	ld	a3,40(a5)
	.loc 1 2096 32
	ld	a5,-64(s0)
	lbu	a5,64(a5)
	sext.w	a5,a5
	.loc 1 2096 51
	ld	a4,-32(s0)
	addi	a5,a5,9
	slli	a5,a5,5
	add	a5,a3,a5
	sd	a4,8(a5)
	.loc 1 2097 11
	ld	a5,-64(s0)
	ld	a3,40(a5)
	.loc 1 2097 32
	ld	a5,-64(s0)
	lbu	a5,64(a5)
	sext.w	a5,a5
	.loc 1 2097 52
	ld	a4,-64(s0)
	ld	a4,72(a4)
	.loc 1 2097 46
	addi	a5,a5,9
	slli	a5,a5,5
	add	a5,a3,a5
	sd	a4,16(a5)
	.loc 1 2098 11
	ld	a5,-64(s0)
	ld	a3,40(a5)
	.loc 1 2098 32
	ld	a5,-64(s0)
	lbu	a5,64(a5)
	sext.w	a5,a5
	.loc 1 2098 53
	ld	a4,-64(s0)
	lw	a4,68(a4)
	.loc 1 2098 47
	slli	a5,a5,5
	add	a5,a3,a5
	sw	a4,320(a5)
	.loc 1 2099 7
	j	.L226
.L231:
	.loc 1 2102 7
	nop
.L226:
	.loc 1 2104 1
	nop
	ld	ra,56(sp)
	.cfi_restore 1
	ld	s0,48(sp)
	.cfi_restore 8
	.cfi_def_cfa 2, 64
	addi	sp,sp,64
	.cfi_def_cfa_offset 0
	jr	ra
	.cfi_endproc
.LFE22:
	.size	ProgramP2C, .-ProgramP2C
	.section	.text.ApplyResourcePadding,"ax",@progbits
	.align	1
	.globl	ApplyResourcePadding
	.type	ApplyResourcePadding, @function
ApplyResourcePadding:
.LFB23:
	.loc 1 2126 1
	.cfi_startproc
	addi	sp,sp,-96
	.cfi_def_cfa_offset 96
	sd	ra,88(sp)
	sd	s0,80(sp)
	.cfi_offset 1, -8
	.cfi_offset 8, -16
	addi	s0,sp,96
	.cfi_def_cfa 8, 0
	sd	a0,-56(s0)
	sd	a1,-64(s0)
	sd	a2,-72(s0)
	sd	a3,-80(s0)
	sd	a4,-88(s0)
	sd	a5,-96(s0)
	.loc 1 2131 17
	sb	zero,-25(s0)
	.loc 1 2132 7
	ld	a5,-56(s0)
	ld	a5,584(a5)
	sd	a5,-24(s0)
	.loc 1 2134 9
	j	.L233
.L245:
	.loc 1 2135 13
	ld	a5,-24(s0)
	lbu	a5,0(a5)
	.loc 1 2135 8
	mv	a4,a5
	li	a5,138
	bne	a4,a5,.L234
	.loc 1 2135 36 discriminator 1
	ld	a5,-24(s0)
	lbu	a5,3(a5)
	.loc 1 2135 29 discriminator 1
	mv	a4,a5
	li	a5,1
	bne	a4,a5,.L234
	.loc 1 2136 14
	ld	a5,-24(s0)
	lbu	a4,38(a5)
	lbu	a3,39(a5)
	slli	a3,a3,8
	or	a4,a3,a4
	lbu	a3,40(a5)
	slli	a3,a3,16
	or	a4,a3,a4
	lbu	a3,41(a5)
	slli	a3,a3,24
	or	a4,a3,a4
	lbu	a3,42(a5)
	slli	a3,a3,32
	or	a4,a3,a4
	lbu	a3,43(a5)
	slli	a3,a3,40
	or	a4,a3,a4
	lbu	a3,44(a5)
	slli	a3,a3,48
	or	a4,a3,a4
	lbu	a5,45(a5)
	slli	a5,a5,56
	or	a5,a5,a4
	.loc 1 2136 10
	beq	a5,zero,.L235
	.loc 1 2139 21
	ld	a5,-24(s0)
	lbu	a4,38(a5)
	lbu	a3,39(a5)
	slli	a3,a3,8
	or	a4,a3,a4
	lbu	a3,40(a5)
	slli	a3,a3,16
	or	a4,a3,a4
	lbu	a3,41(a5)
	slli	a3,a3,24
	or	a4,a3,a4
	lbu	a3,42(a5)
	slli	a3,a3,32
	or	a4,a3,a4
	lbu	a3,43(a5)
	slli	a3,a3,40
	or	a4,a3,a4
	lbu	a3,44(a5)
	slli	a3,a3,48
	or	a4,a3,a4
	lbu	a5,45(a5)
	slli	a5,a5,56
	or	a5,a5,a4
	mv	a1,a5
	.loc 1 2140 21
	ld	a5,-24(s0)
	lbu	a4,22(a5)
	lbu	a3,23(a5)
	slli	a3,a3,8
	or	a4,a3,a4
	lbu	a3,24(a5)
	slli	a3,a3,16
	or	a4,a3,a4
	lbu	a3,25(a5)
	slli	a3,a3,24
	or	a4,a3,a4
	lbu	a3,26(a5)
	slli	a3,a3,32
	or	a4,a3,a4
	lbu	a3,27(a5)
	slli	a3,a3,40
	or	a4,a3,a4
	lbu	a3,28(a5)
	slli	a3,a3,48
	or	a4,a3,a4
	lbu	a5,29(a5)
	slli	a5,a5,56
	or	a5,a5,a4
	mv	a2,a5
	.loc 1 2137 16
	lbu	a3,-25(s0)
	li	a5,1
	li	a4,1
	ld	a0,-56(s0)
	call	CreateResourceNode
	sd	a0,-40(s0)
	.loc 1 2145 9
	ld	a1,-40(s0)
	ld	a0,-64(s0)
	call	InsertResourceNode
.L235:
	.loc 1 2151 10
	ld	a5,-24(s0)
	addi	a5,a5,46
	sd	a5,-24(s0)
	.loc 1 2152 7
	j	.L233
.L234:
	.loc 1 2155 13
	ld	a5,-24(s0)
	lbu	a5,0(a5)
	.loc 1 2155 8
	mv	a4,a5
	li	a5,138
	bne	a4,a5,.L237
	.loc 1 2155 36 discriminator 1
	ld	a5,-24(s0)
	lbu	a5,3(a5)
	.loc 1 2155 29 discriminator 1
	bne	a5,zero,.L237
	.loc 1 2156 14
	ld	a5,-24(s0)
	lbu	a4,6(a5)
	lbu	a3,7(a5)
	slli	a3,a3,8
	or	a4,a3,a4
	lbu	a3,8(a5)
	slli	a3,a3,16
	or	a4,a3,a4
	lbu	a3,9(a5)
	slli	a3,a3,24
	or	a4,a3,a4
	lbu	a3,10(a5)
	slli	a3,a3,32
	or	a4,a3,a4
	lbu	a3,11(a5)
	slli	a3,a3,40
	or	a4,a3,a4
	lbu	a3,12(a5)
	slli	a3,a3,48
	or	a4,a3,a4
	lbu	a5,13(a5)
	slli	a5,a5,56
	or	a5,a5,a4
	mv	a4,a5
	.loc 1 2156 10
	li	a5,32
	bne	a4,a5,.L238
	.loc 1 2160 16
	ld	a5,-24(s0)
	lbu	a5,5(a5)
	.loc 1 2160 12
	mv	a4,a5
	li	a5,6
	bne	a4,a5,.L239
	.loc 1 2161 18
	ld	a5,-24(s0)
	lbu	a4,38(a5)
	lbu	a3,39(a5)
	slli	a3,a3,8
	or	a4,a3,a4
	lbu	a3,40(a5)
	slli	a3,a3,16
	or	a4,a3,a4
	lbu	a3,41(a5)
	slli	a3,a3,24
	or	a4,a3,a4
	lbu	a3,42(a5)
	slli	a3,a3,32
	or	a4,a3,a4
	lbu	a3,43(a5)
	slli	a3,a3,40
	or	a4,a3,a4
	lbu	a3,44(a5)
	slli	a3,a3,48
	or	a4,a3,a4
	lbu	a5,45(a5)
	slli	a5,a5,56
	or	a5,a5,a4
	.loc 1 2161 14
	beq	a5,zero,.L240
	.loc 1 2164 25
	ld	a5,-24(s0)
	lbu	a4,38(a5)
	lbu	a3,39(a5)
	slli	a3,a3,8
	or	a4,a3,a4
	lbu	a3,40(a5)
	slli	a3,a3,16
	or	a4,a3,a4
	lbu	a3,41(a5)
	slli	a3,a3,24
	or	a4,a3,a4
	lbu	a3,42(a5)
	slli	a3,a3,32
	or	a4,a3,a4
	lbu	a3,43(a5)
	slli	a3,a3,40
	or	a4,a3,a4
	lbu	a3,44(a5)
	slli	a3,a3,48
	or	a4,a3,a4
	lbu	a5,45(a5)
	slli	a5,a5,56
	or	a5,a5,a4
	mv	a1,a5
	.loc 1 2165 25
	ld	a5,-24(s0)
	lbu	a4,22(a5)
	lbu	a3,23(a5)
	slli	a3,a3,8
	or	a4,a3,a4
	lbu	a3,24(a5)
	slli	a3,a3,16
	or	a4,a3,a4
	lbu	a3,25(a5)
	slli	a3,a3,24
	or	a4,a3,a4
	lbu	a3,26(a5)
	slli	a3,a3,32
	or	a4,a3,a4
	lbu	a3,27(a5)
	slli	a3,a3,40
	or	a4,a3,a4
	lbu	a3,28(a5)
	slli	a3,a3,48
	or	a4,a3,a4
	lbu	a5,29(a5)
	slli	a5,a5,56
	or	a5,a5,a4
	mv	a2,a5
	.loc 1 2162 20
	lbu	a3,-25(s0)
	li	a5,1
	li	a4,4
	ld	a0,-56(s0)
	call	CreateResourceNode
	sd	a0,-40(s0)
	.loc 1 2170 13
	ld	a1,-40(s0)
	ld	a0,-80(s0)
	call	InsertResourceNode
.L240:
	.loc 1 2176 14
	ld	a5,-24(s0)
	addi	a5,a5,46
	sd	a5,-24(s0)
	.loc 1 2177 11
	j	.L233
.L239:
	.loc 1 2183 16
	ld	a5,-24(s0)
	lbu	a5,5(a5)
	.loc 1 2183 12
	bne	a5,zero,.L238
	.loc 1 2184 18
	ld	a5,-24(s0)
	lbu	a4,38(a5)
	lbu	a3,39(a5)
	slli	a3,a3,8
	or	a4,a3,a4
	lbu	a3,40(a5)
	slli	a3,a3,16
	or	a4,a3,a4
	lbu	a3,41(a5)
	slli	a3,a3,24
	or	a4,a3,a4
	lbu	a3,42(a5)
	slli	a3,a3,32
	or	a4,a3,a4
	lbu	a3,43(a5)
	slli	a3,a3,40
	or	a4,a3,a4
	lbu	a3,44(a5)
	slli	a3,a3,48
	or	a4,a3,a4
	lbu	a5,45(a5)
	slli	a5,a5,56
	or	a5,a5,a4
	.loc 1 2184 14
	beq	a5,zero,.L241
	.loc 1 2187 25
	ld	a5,-24(s0)
	lbu	a4,38(a5)
	lbu	a3,39(a5)
	slli	a3,a3,8
	or	a4,a3,a4
	lbu	a3,40(a5)
	slli	a3,a3,16
	or	a4,a3,a4
	lbu	a3,41(a5)
	slli	a3,a3,24
	or	a4,a3,a4
	lbu	a3,42(a5)
	slli	a3,a3,32
	or	a4,a3,a4
	lbu	a3,43(a5)
	slli	a3,a3,40
	or	a4,a3,a4
	lbu	a3,44(a5)
	slli	a3,a3,48
	or	a4,a3,a4
	lbu	a5,45(a5)
	slli	a5,a5,56
	or	a5,a5,a4
	mv	a1,a5
	.loc 1 2188 25
	ld	a5,-24(s0)
	lbu	a4,22(a5)
	lbu	a3,23(a5)
	slli	a3,a3,8
	or	a4,a3,a4
	lbu	a3,24(a5)
	slli	a3,a3,16
	or	a4,a3,a4
	lbu	a3,25(a5)
	slli	a3,a3,24
	or	a4,a3,a4
	lbu	a3,26(a5)
	slli	a3,a3,32
	or	a4,a3,a4
	lbu	a3,27(a5)
	slli	a3,a3,40
	or	a4,a3,a4
	lbu	a3,28(a5)
	slli	a3,a3,48
	or	a4,a3,a4
	lbu	a5,29(a5)
	slli	a5,a5,56
	or	a5,a5,a4
	mv	a2,a5
	.loc 1 2185 20
	lbu	a3,-25(s0)
	li	a5,1
	li	a4,3
	ld	a0,-56(s0)
	call	CreateResourceNode
	sd	a0,-40(s0)
	.loc 1 2193 13
	ld	a1,-40(s0)
	ld	a0,-72(s0)
	call	InsertResourceNode
.L241:
	.loc 1 2199 14
	ld	a5,-24(s0)
	addi	a5,a5,46
	sd	a5,-24(s0)
	.loc 1 2200 11
	j	.L233
.L238:
	.loc 1 2204 14
	ld	a5,-24(s0)
	lbu	a4,6(a5)
	lbu	a3,7(a5)
	slli	a3,a3,8
	or	a4,a3,a4
	lbu	a3,8(a5)
	slli	a3,a3,16
	or	a4,a3,a4
	lbu	a3,9(a5)
	slli	a3,a3,24
	or	a4,a3,a4
	lbu	a3,10(a5)
	slli	a3,a3,32
	or	a4,a3,a4
	lbu	a3,11(a5)
	slli	a3,a3,40
	or	a4,a3,a4
	lbu	a3,12(a5)
	slli	a3,a3,48
	or	a4,a3,a4
	lbu	a5,13(a5)
	slli	a5,a5,56
	or	a5,a5,a4
	mv	a4,a5
	.loc 1 2204 10
	li	a5,64
	bne	a4,a5,.L237
	.loc 1 2208 16
	ld	a5,-24(s0)
	lbu	a5,5(a5)
	.loc 1 2208 12
	mv	a4,a5
	li	a5,6
	bne	a4,a5,.L242
	.loc 1 2209 18
	ld	a5,-24(s0)
	lbu	a4,38(a5)
	lbu	a3,39(a5)
	slli	a3,a3,8
	or	a4,a3,a4
	lbu	a3,40(a5)
	slli	a3,a3,16
	or	a4,a3,a4
	lbu	a3,41(a5)
	slli	a3,a3,24
	or	a4,a3,a4
	lbu	a3,42(a5)
	slli	a3,a3,32
	or	a4,a3,a4
	lbu	a3,43(a5)
	slli	a3,a3,40
	or	a4,a3,a4
	lbu	a3,44(a5)
	slli	a3,a3,48
	or	a4,a3,a4
	lbu	a5,45(a5)
	slli	a5,a5,56
	or	a5,a5,a4
	.loc 1 2209 14
	beq	a5,zero,.L243
	.loc 1 2212 25
	ld	a5,-24(s0)
	lbu	a4,38(a5)
	lbu	a3,39(a5)
	slli	a3,a3,8
	or	a4,a3,a4
	lbu	a3,40(a5)
	slli	a3,a3,16
	or	a4,a3,a4
	lbu	a3,41(a5)
	slli	a3,a3,24
	or	a4,a3,a4
	lbu	a3,42(a5)
	slli	a3,a3,32
	or	a4,a3,a4
	lbu	a3,43(a5)
	slli	a3,a3,40
	or	a4,a3,a4
	lbu	a3,44(a5)
	slli	a3,a3,48
	or	a4,a3,a4
	lbu	a5,45(a5)
	slli	a5,a5,56
	or	a5,a5,a4
	mv	a1,a5
	.loc 1 2213 25
	ld	a5,-24(s0)
	lbu	a4,22(a5)
	lbu	a3,23(a5)
	slli	a3,a3,8
	or	a4,a3,a4
	lbu	a3,24(a5)
	slli	a3,a3,16
	or	a4,a3,a4
	lbu	a3,25(a5)
	slli	a3,a3,24
	or	a4,a3,a4
	lbu	a3,26(a5)
	slli	a3,a3,32
	or	a4,a3,a4
	lbu	a3,27(a5)
	slli	a3,a3,40
	or	a4,a3,a4
	lbu	a3,28(a5)
	slli	a3,a3,48
	or	a4,a3,a4
	lbu	a5,29(a5)
	slli	a5,a5,56
	or	a5,a5,a4
	mv	a2,a5
	.loc 1 2210 20
	lbu	a3,-25(s0)
	li	a5,1
	li	a4,6
	ld	a0,-56(s0)
	call	CreateResourceNode
	sd	a0,-40(s0)
	.loc 1 2218 13
	ld	a1,-40(s0)
	ld	a0,-96(s0)
	call	InsertResourceNode
.L243:
	.loc 1 2224 14
	ld	a5,-24(s0)
	addi	a5,a5,46
	sd	a5,-24(s0)
	.loc 1 2225 11
	j	.L233
.L242:
	.loc 1 2231 16
	ld	a5,-24(s0)
	lbu	a5,5(a5)
	.loc 1 2231 12
	bne	a5,zero,.L237
	.loc 1 2232 18
	ld	a5,-24(s0)
	lbu	a4,38(a5)
	lbu	a3,39(a5)
	slli	a3,a3,8
	or	a4,a3,a4
	lbu	a3,40(a5)
	slli	a3,a3,16
	or	a4,a3,a4
	lbu	a3,41(a5)
	slli	a3,a3,24
	or	a4,a3,a4
	lbu	a3,42(a5)
	slli	a3,a3,32
	or	a4,a3,a4
	lbu	a3,43(a5)
	slli	a3,a3,40
	or	a4,a3,a4
	lbu	a3,44(a5)
	slli	a3,a3,48
	or	a4,a3,a4
	lbu	a5,45(a5)
	slli	a5,a5,56
	or	a5,a5,a4
	.loc 1 2232 14
	beq	a5,zero,.L244
	.loc 1 2235 25
	ld	a5,-24(s0)
	lbu	a4,38(a5)
	lbu	a3,39(a5)
	slli	a3,a3,8
	or	a4,a3,a4
	lbu	a3,40(a5)
	slli	a3,a3,16
	or	a4,a3,a4
	lbu	a3,41(a5)
	slli	a3,a3,24
	or	a4,a3,a4
	lbu	a3,42(a5)
	slli	a3,a3,32
	or	a4,a3,a4
	lbu	a3,43(a5)
	slli	a3,a3,40
	or	a4,a3,a4
	lbu	a3,44(a5)
	slli	a3,a3,48
	or	a4,a3,a4
	lbu	a5,45(a5)
	slli	a5,a5,56
	or	a5,a5,a4
	mv	a1,a5
	.loc 1 2236 25
	ld	a5,-24(s0)
	lbu	a4,22(a5)
	lbu	a3,23(a5)
	slli	a3,a3,8
	or	a4,a3,a4
	lbu	a3,24(a5)
	slli	a3,a3,16
	or	a4,a3,a4
	lbu	a3,25(a5)
	slli	a3,a3,24
	or	a4,a3,a4
	lbu	a3,26(a5)
	slli	a3,a3,32
	or	a4,a3,a4
	lbu	a3,27(a5)
	slli	a3,a3,40
	or	a4,a3,a4
	lbu	a3,28(a5)
	slli	a3,a3,48
	or	a4,a3,a4
	lbu	a5,29(a5)
	slli	a5,a5,56
	or	a5,a5,a4
	mv	a2,a5
	.loc 1 2233 20
	lbu	a3,-25(s0)
	li	a5,1
	li	a4,5
	ld	a0,-56(s0)
	call	CreateResourceNode
	sd	a0,-40(s0)
	.loc 1 2241 13
	ld	a1,-40(s0)
	ld	a0,-88(s0)
	call	InsertResourceNode
.L244:
	.loc 1 2247 14
	ld	a5,-24(s0)
	addi	a5,a5,46
	sd	a5,-24(s0)
	.loc 1 2248 11
	j	.L233
.L237:
	.loc 1 2253 8
	ld	a5,-24(s0)
	addi	a5,a5,46
	sd	a5,-24(s0)
.L233:
	.loc 1 2134 46
	ld	a5,-24(s0)
	lbu	a5,0(a5)
	.loc 1 2134 53
	mv	a4,a5
	li	a5,121
	bne	a4,a5,.L245
	.loc 1 2255 1
	nop
	nop
	ld	ra,88(sp)
	.cfi_restore 1
	ld	s0,80(sp)
	.cfi_restore 8
	.cfi_def_cfa 2, 96
	addi	sp,sp,96
	.cfi_def_cfa_offset 0
	jr	ra
	.cfi_endproc
.LFE23:
	.size	ApplyResourcePadding, .-ApplyResourcePadding
	.section	.text.GetResourcePaddingPpb,"ax",@progbits
	.align	1
	.globl	GetResourcePaddingPpb
	.type	GetResourcePaddingPpb, @function
GetResourcePaddingPpb:
.LFB24:
	.loc 1 2269 1
	.cfi_startproc
	addi	sp,sp,-32
	.cfi_def_cfa_offset 32
	sd	ra,24(sp)
	sd	s0,16(sp)
	.cfi_offset 1, -8
	.cfi_offset 8, -16
	addi	s0,sp,32
	.cfi_def_cfa 8, 0
	sd	a0,-24(s0)
	.loc 1 2270 24
	la	a5,gPciHotPlugInit
	ld	a5,0(a5)
	.loc 1 2270 6
	beq	a5,zero,.L248
	.loc 1 2270 41 discriminator 1
	la	a5,_gPcd_FixedAtBuild_PcdPciBusHotplugDeviceSupport
	lbu	a5,0(a5)
	beq	a5,zero,.L248
	.loc 1 2271 20
	ld	a5,-24(s0)
	ld	a5,584(a5)
	.loc 1 2271 8
	bne	a5,zero,.L248
	.loc 1 2272 7
	ld	a0,-24(s0)
	call	GetResourcePaddingForHpb@plt
.L248:
	.loc 1 2275 1
	nop
	ld	ra,24(sp)
	.cfi_restore 1
	ld	s0,16(sp)
	.cfi_restore 8
	.cfi_def_cfa 2, 32
	addi	sp,sp,32
	.cfi_def_cfa_offset 0
	jr	ra
	.cfi_endproc
.LFE24:
	.size	GetResourcePaddingPpb, .-GetResourcePaddingPpb
	.text
.Letext0:
	.file 2 "/home/kapoagaeming/spacemit-image-builder/components/edk2/MdePkg/Include/RiscV64/ProcessorBind.h"
	.file 3 "/home/kapoagaeming/spacemit-image-builder/components/edk2/MdePkg/Include/Base.h"
	.file 4 "/home/kapoagaeming/spacemit-image-builder/components/edk2/MdePkg/Include/Uefi/UefiBaseType.h"
	.file 5 "/home/kapoagaeming/spacemit-image-builder/components/edk2/MdePkg/Include/Uefi/UefiMultiPhase.h"
	.file 6 "/home/kapoagaeming/spacemit-image-builder/components/edk2/MdePkg/Include/IndustryStandard/Acpi10.h"
	.file 7 "/home/kapoagaeming/spacemit-image-builder/components/edk2/MdePkg/Include/Protocol/DevicePath.h"
	.file 8 "/home/kapoagaeming/spacemit-image-builder/components/edk2/MdePkg/Include/Uefi/UefiSpec.h"
	.file 9 "/home/kapoagaeming/spacemit-image-builder/components/Build/Milk-V-Jupiter/RELEASE_GCC5/RISCV64/Silicon/Spacemit/Override/MdeModulePkg/Bus/Pci/PciBusDxe/PciBusDxe/DEBUG/AutoGen.h"
	.file 10 "/home/kapoagaeming/spacemit-image-builder/components/edk2/MdePkg/Include/Protocol/PciRootBridgeIo.h"
	.file 11 "/home/kapoagaeming/spacemit-image-builder/components/edk2/MdePkg/Include/Protocol/PciHostBridgeResourceAllocation.h"
	.file 12 "/home/kapoagaeming/spacemit-image-builder/components/edk2/MdePkg/Include/Protocol/PciIo.h"
	.file 13 "/home/kapoagaeming/spacemit-image-builder/components/edk2/MdePkg/Include/Protocol/LoadFile2.h"
	.file 14 "/home/kapoagaeming/spacemit-image-builder/components/edk2/MdePkg/Include/Protocol/PciPlatform.h"
	.file 15 "/home/kapoagaeming/spacemit-image-builder/components/edk2/MdePkg/Include/Protocol/PciHotPlugInit.h"
	.file 16 "/home/kapoagaeming/spacemit-image-builder/components/edk2/MdePkg/Include/Protocol/BusSpecificDriverOverride.h"
	.file 17 "/home/kapoagaeming/spacemit-image-builder/components/edk2/MdePkg/Include/Protocol/PciOverride.h"
	.file 18 "/home/kapoagaeming/spacemit-image-builder/components/edk2/MdePkg/Include/IndustryStandard/Pci22.h"
	.file 19 "/home/kapoagaeming/spacemit-image-builder/components/edk2-platforms/Silicon/Spacemit/Override/MdeModulePkg/Bus/Pci/PciBusDxe/PciBus.h"
	.file 20 "/home/kapoagaeming/spacemit-image-builder/components/edk2-platforms/Silicon/Spacemit/Override/MdeModulePkg/Bus/Pci/PciBusDxe/PciResourceSupport.h"
	.file 21 "/home/kapoagaeming/spacemit-image-builder/components/edk2-platforms/Silicon/Spacemit/Override/MdeModulePkg/Bus/Pci/PciBusDxe/PciHotPlugSupport.h"
	.file 22 "/home/kapoagaeming/spacemit-image-builder/components/edk2/MdePkg/Include/Library/BaseMemoryLib.h"
	.file 23 "/home/kapoagaeming/spacemit-image-builder/components/edk2-platforms/Silicon/Spacemit/Override/MdeModulePkg/Bus/Pci/PciBusDxe/PciCommand.h"
	.file 24 "/home/kapoagaeming/spacemit-image-builder/components/edk2/MdePkg/Include/Library/BaseLib.h"
	.file 25 "/home/kapoagaeming/spacemit-image-builder/components/edk2/MdePkg/Include/Library/MemoryAllocationLib.h"
	.section	.note.GNU-stack,"",@progbits
