	.file	"SdHostDxe.c"
	.option pic
	.option norelax
	.attribute arch, "rv64i2p1_m2p0_a2p1_f2p2_d2p2_c2p0_zicsr2p0_zifencei2p0_zmmul1p0_zaamo1p0_zalrsc1p0_zca1p0_zcd1p0"
	.attribute unaligned_access, 0
	.attribute stack_align, 16
	.text
.Ltext0:
	.cfi_sections	.debug_frame
	.file 0 "/home/kapoagaeming/spacemit-image-builder/components/Build/Milk-V-Jupiter/RELEASE_GCC5/RISCV64/Silicon/Spacemit/K1/Drivers/SdHostDxe/SdHostDxe" "/home/kapoagaeming/spacemit-image-builder/components/edk2-platforms/Silicon/Spacemit/K1/Drivers/SdHostDxe/SdHostDxe.c"
	.section	.text.SdIsReadOnly,"ax",@progbits
	.align	1
	.type	SdIsReadOnly, @function
SdIsReadOnly:
.LFB0:
	.file 1 "/home/kapoagaeming/spacemit-image-builder/components/edk2-platforms/Silicon/Spacemit/K1/Drivers/SdHostDxe/SdHostDxe.c"
	.loc 1 44 1
	.cfi_startproc
	addi	sp,sp,-32
	.cfi_def_cfa_offset 32
	sd	ra,24(sp)
	sd	s0,16(sp)
	.cfi_offset 1, -8
	.cfi_offset 8, -16
	addi	s0,sp,32
	.cfi_def_cfa 8, 0
	sd	a0,-24(s0)
	.loc 1 45 10
	li	a5,0
	.loc 1 46 1
	mv	a0,a5
	ld	ra,24(sp)
	.cfi_restore 1
	ld	s0,16(sp)
	.cfi_restore 8
	.cfi_def_cfa 2, 32
	addi	sp,sp,32
	.cfi_def_cfa_offset 0
	jr	ra
	.cfi_endproc
.LFE0:
	.size	SdIsReadOnly, .-SdIsReadOnly
	.section	.rodata
	.align	3
.LC0:
	.word	38105858
	.half	19159
	.half	19399
	.base64	"hHoM6G5eBzQ="
	.section	.text.SdBuildDevicePath,"ax",@progbits
	.align	1
	.type	SdBuildDevicePath, @function
SdBuildDevicePath:
.LFB1:
	.loc 1 63 1
	.cfi_startproc
	addi	sp,sp,-64
	.cfi_def_cfa_offset 64
	sd	ra,56(sp)
	sd	s0,48(sp)
	.cfi_offset 1, -8
	.cfi_offset 8, -16
	addi	s0,sp,64
	.cfi_def_cfa 8, 0
	sd	a0,-56(s0)
	sd	a1,-64(s0)
	.loc 1 65 12
	lla	a5,.LC0
	ld	a4,0(a5)
	sd	a4,-48(s0)
	ld	a5,8(a5)
	sd	a5,-40(s0)
	.loc 1 66 51
	ld	a5,-56(s0)
	addi	a5,a5,-16
	.loc 1 66 182
	ld	a4,0(a5)
	.loc 1 66 267
	li	a5,1212370944
	addi	a5,a5,-691
	bne	a4,a5,.L4
	.loc 1 66 33 discriminator 1
	ld	a5,-56(s0)
	addi	a5,a5,-16
	sd	a5,-32(s0)
	j	.L5
.L4:
	.loc 1 66 33 is_stmt 0 discriminator 2
	sd	zero,-32(s0)
.L5:
	.loc 1 70 30 is_stmt 1
	ld	a5,-32(s0)
	lbu	a5,161(a5)
	.loc 1 70 6
	beq	a5,zero,.L6
	.loc 1 71 25
	li	a2,5
	li	a1,29
	li	a0,3
	call	CreateDeviceNode@plt
	sd	a0,-24(s0)
	.loc 1 72 15
	ld	a5,-24(s0)
	addi	a5,a5,4
	.loc 1 72 5
	addi	a4,s0,-48
	mv	a1,a4
	mv	a0,a5
	call	CopyGuid@plt
	j	.L7
.L6:
	.loc 1 74 25
	li	a2,5
	li	a1,26
	li	a0,3
	call	CreateDeviceNode@plt
	sd	a0,-24(s0)
	.loc 1 75 15
	ld	a5,-24(s0)
	addi	a5,a5,4
	.loc 1 75 5
	addi	a4,s0,-48
	mv	a1,a4
	mv	a0,a5
	call	CopyGuid@plt
.L7:
	.loc 1 78 15
	ld	a5,-64(s0)
	ld	a4,-24(s0)
	sd	a4,0(a5)
	.loc 1 80 10
	li	a5,0
	.loc 1 81 1
	mv	a0,a5
	ld	ra,56(sp)
	.cfi_restore 1
	ld	s0,48(sp)
	.cfi_restore 8
	.cfi_def_cfa 2, 64
	addi	sp,sp,64
	.cfi_def_cfa_offset 0
	jr	ra
	.cfi_endproc
.LFE1:
	.size	SdBuildDevicePath, .-SdBuildDevicePath
	.section	.text.SdSendCommand,"ax",@progbits
	.align	1
	.type	SdSendCommand, @function
SdSendCommand:
.LFB2:
	.loc 1 102 1
	.cfi_startproc
	addi	sp,sp,-48
	.cfi_def_cfa_offset 48
	sd	ra,40(sp)
	sd	s0,32(sp)
	.cfi_offset 1, -8
	.cfi_offset 8, -16
	addi	s0,sp,48
	.cfi_def_cfa 8, 0
	sd	a0,-40(s0)
	mv	a5,a1
	mv	a4,a2
	sw	a5,-44(s0)
	mv	a5,a4
	sw	a5,-48(s0)
	.loc 1 104 51
	ld	a5,-40(s0)
	addi	a5,a5,-16
	.loc 1 104 182
	ld	a4,0(a5)
	.loc 1 104 267
	li	a5,1212370944
	addi	a5,a5,-691
	bne	a4,a5,.L10
	.loc 1 104 33 discriminator 1
	ld	a5,-40(s0)
	addi	a5,a5,-16
	sd	a5,-24(s0)
	j	.L11
.L10:
	.loc 1 104 33 is_stmt 0 discriminator 2
	sd	zero,-24(s0)
.L11:
	.loc 1 106 12 is_stmt 1
	lw	a4,-48(s0)
	lw	a5,-44(s0)
	mv	a2,a4
	mv	a1,a5
	ld	a0,-24(s0)
	call	BmSdSendCmd@plt
	sd	a0,-32(s0)
	.loc 1 108 34
	ld	a5,-32(s0)
	.loc 1 108 6
	bge	a5,zero,.L12
	.loc 1 110 12
	ld	a5,-32(s0)
	j	.L13
.L12:
	.loc 1 113 10
	li	a5,0
.L13:
	.loc 1 114 1
	mv	a0,a5
	ld	ra,40(sp)
	.cfi_restore 1
	ld	s0,32(sp)
	.cfi_restore 8
	.cfi_def_cfa 2, 48
	addi	sp,sp,48
	.cfi_def_cfa_offset 0
	jr	ra
	.cfi_endproc
.LFE2:
	.size	SdSendCommand, .-SdSendCommand
	.section	.text.SdReceiveResponse,"ax",@progbits
	.align	1
	.type	SdReceiveResponse, @function
SdReceiveResponse:
.LFB3:
	.loc 1 122 1
	.cfi_startproc
	addi	sp,sp,-64
	.cfi_def_cfa_offset 64
	sd	ra,56(sp)
	sd	s0,48(sp)
	.cfi_offset 1, -8
	.cfi_offset 8, -16
	addi	s0,sp,64
	.cfi_def_cfa 8, 0
	sd	a0,-40(s0)
	mv	a5,a1
	sd	a2,-56(s0)
	sw	a5,-44(s0)
	.loc 1 123 51
	ld	a5,-40(s0)
	addi	a5,a5,-16
	.loc 1 123 182
	ld	a4,0(a5)
	.loc 1 123 267
	li	a5,1212370944
	addi	a5,a5,-691
	bne	a4,a5,.L15
	.loc 1 123 33 discriminator 1
	ld	a5,-40(s0)
	addi	a5,a5,-16
	sd	a5,-24(s0)
	j	.L16
.L15:
	.loc 1 123 33 is_stmt 0 discriminator 2
	sd	zero,-24(s0)
.L16:
	.loc 1 125 10 is_stmt 1
	lw	a5,-44(s0)
	ld	a2,-56(s0)
	mv	a1,a5
	ld	a0,-24(s0)
	call	BmSdReceiveResponse@plt
	mv	a5,a0
	.loc 1 126 1
	mv	a0,a5
	ld	ra,56(sp)
	.cfi_restore 1
	ld	s0,48(sp)
	.cfi_restore 8
	.cfi_def_cfa 2, 64
	addi	sp,sp,64
	.cfi_def_cfa_offset 0
	jr	ra
	.cfi_endproc
.LFE3:
	.size	SdReceiveResponse, .-SdReceiveResponse
	.section	.text.SdReadBlockData,"ax",@progbits
	.align	1
	.type	SdReadBlockData, @function
SdReadBlockData:
.LFB4:
	.loc 1 148 1
	.cfi_startproc
	addi	sp,sp,-64
	.cfi_def_cfa_offset 64
	sd	ra,56(sp)
	sd	s0,48(sp)
	.cfi_offset 1, -8
	.cfi_offset 8, -16
	addi	s0,sp,64
	.cfi_def_cfa 8, 0
	sd	a0,-40(s0)
	sd	a1,-48(s0)
	sd	a2,-56(s0)
	sd	a3,-64(s0)
	.loc 1 150 51
	ld	a5,-40(s0)
	addi	a5,a5,-16
	.loc 1 150 182
	ld	a4,0(a5)
	.loc 1 150 267
	li	a5,1212370944
	addi	a5,a5,-691
	bne	a4,a5,.L19
	.loc 1 150 33 discriminator 1
	ld	a5,-40(s0)
	addi	a5,a5,-16
	sd	a5,-24(s0)
	j	.L20
.L19:
	.loc 1 150 33 is_stmt 0 discriminator 2
	sd	zero,-24(s0)
.L20:
	.loc 1 155 12 is_stmt 1
	ld	a5,-48(s0)
	sext.w	a5,a5
	ld	a3,-56(s0)
	ld	a2,-64(s0)
	mv	a1,a5
	ld	a0,-24(s0)
	call	BmSdRead@plt
	sd	a0,-32(s0)
	.loc 1 157 34
	ld	a5,-32(s0)
	.loc 1 157 6
	bge	a5,zero,.L21
	.loc 1 159 12
	ld	a5,-32(s0)
	j	.L22
.L21:
	.loc 1 162 10
	li	a5,0
.L22:
	.loc 1 163 1
	mv	a0,a5
	ld	ra,56(sp)
	.cfi_restore 1
	ld	s0,48(sp)
	.cfi_restore 8
	.cfi_def_cfa 2, 64
	addi	sp,sp,64
	.cfi_def_cfa_offset 0
	jr	ra
	.cfi_endproc
.LFE4:
	.size	SdReadBlockData, .-SdReadBlockData
	.section	.text.SdWriteBlockData,"ax",@progbits
	.align	1
	.type	SdWriteBlockData, @function
SdWriteBlockData:
.LFB5:
	.loc 1 185 1
	.cfi_startproc
	addi	sp,sp,-64
	.cfi_def_cfa_offset 64
	sd	ra,56(sp)
	sd	s0,48(sp)
	.cfi_offset 1, -8
	.cfi_offset 8, -16
	addi	s0,sp,64
	.cfi_def_cfa 8, 0
	sd	a0,-40(s0)
	sd	a1,-48(s0)
	sd	a2,-56(s0)
	sd	a3,-64(s0)
	.loc 1 187 51
	ld	a5,-40(s0)
	addi	a5,a5,-16
	.loc 1 187 182
	ld	a4,0(a5)
	.loc 1 187 267
	li	a5,1212370944
	addi	a5,a5,-691
	bne	a4,a5,.L24
	.loc 1 187 33 discriminator 1
	ld	a5,-40(s0)
	addi	a5,a5,-16
	sd	a5,-24(s0)
	j	.L25
.L24:
	.loc 1 187 33 is_stmt 0 discriminator 2
	sd	zero,-24(s0)
.L25:
	.loc 1 192 12 is_stmt 1
	ld	a5,-48(s0)
	sext.w	a5,a5
	ld	a3,-56(s0)
	ld	a2,-64(s0)
	mv	a1,a5
	ld	a0,-24(s0)
	call	BmSdWrite@plt
	sd	a0,-32(s0)
	.loc 1 194 34
	ld	a5,-32(s0)
	.loc 1 194 6
	bge	a5,zero,.L26
	.loc 1 196 12
	ld	a5,-32(s0)
	j	.L27
.L26:
	.loc 1 199 10
	li	a5,0
.L27:
	.loc 1 200 1
	mv	a0,a5
	ld	ra,56(sp)
	.cfi_restore 1
	ld	s0,48(sp)
	.cfi_restore 8
	.cfi_def_cfa 2, 64
	addi	sp,sp,64
	.cfi_def_cfa_offset 0
	jr	ra
	.cfi_endproc
.LFE5:
	.size	SdWriteBlockData, .-SdWriteBlockData
	.section	.text.SdSetIos,"ax",@progbits
	.align	1
	.type	SdSetIos, @function
SdSetIos:
.LFB6:
	.loc 1 222 1
	.cfi_startproc
	addi	sp,sp,-64
	.cfi_def_cfa_offset 64
	sd	ra,56(sp)
	sd	s0,48(sp)
	.cfi_offset 1, -8
	.cfi_offset 8, -16
	addi	s0,sp,64
	.cfi_def_cfa 8, 0
	sd	a0,-40(s0)
	mv	a5,a1
	mv	a4,a3
	sw	a5,-44(s0)
	mv	a5,a2
	sw	a5,-48(s0)
	mv	a5,a4
	sw	a5,-52(s0)
	.loc 1 224 51
	ld	a5,-40(s0)
	addi	a5,a5,-16
	.loc 1 224 182
	ld	a4,0(a5)
	.loc 1 224 267
	li	a5,1212370944
	addi	a5,a5,-691
	bne	a4,a5,.L29
	.loc 1 224 33 discriminator 1
	ld	a5,-40(s0)
	addi	a5,a5,-16
	sd	a5,-24(s0)
	j	.L30
.L29:
	.loc 1 224 33 is_stmt 0 discriminator 2
	sd	zero,-24(s0)
.L30:
	.loc 1 229 12 is_stmt 1
	lw	a3,-52(s0)
	lw	a4,-48(s0)
	lw	a5,-44(s0)
	mv	a2,a4
	mv	a1,a5
	ld	a0,-24(s0)
	call	BmSdSetIos@plt
	sd	a0,-32(s0)
	.loc 1 231 34
	ld	a5,-32(s0)
	.loc 1 231 6
	bge	a5,zero,.L31
	.loc 1 233 12
	ld	a5,-32(s0)
	j	.L32
.L31:
	.loc 1 236 10
	li	a5,0
.L32:
	.loc 1 237 1
	mv	a0,a5
	ld	ra,56(sp)
	.cfi_restore 1
	ld	s0,48(sp)
	.cfi_restore 8
	.cfi_def_cfa 2, 64
	addi	sp,sp,64
	.cfi_def_cfa_offset 0
	jr	ra
	.cfi_endproc
.LFE6:
	.size	SdSetIos, .-SdSetIos
	.section	.text.SdNotifyState,"ax",@progbits
	.align	1
	.type	SdNotifyState, @function
SdNotifyState:
.LFB7:
	.loc 1 256 1
	.cfi_startproc
	addi	sp,sp,-48
	.cfi_def_cfa_offset 48
	sd	ra,40(sp)
	sd	s0,32(sp)
	.cfi_offset 1, -8
	.cfi_offset 8, -16
	addi	s0,sp,48
	.cfi_def_cfa 8, 0
	sd	a0,-40(s0)
	mv	a5,a1
	sw	a5,-44(s0)
	.loc 1 257 51
	ld	a5,-40(s0)
	addi	a5,a5,-16
	.loc 1 257 182
	ld	a4,0(a5)
	.loc 1 257 267
	li	a5,1212370944
	addi	a5,a5,-691
	bne	a4,a5,.L34
	.loc 1 257 33 discriminator 1
	ld	a5,-40(s0)
	addi	a5,a5,-16
	sd	a5,-24(s0)
	j	.L35
.L34:
	.loc 1 257 33 is_stmt 0 discriminator 2
	sd	zero,-24(s0)
.L35:
	.loc 1 260 6 is_stmt 1
	lw	a5,-44(s0)
	sext.w	a4,a5
	li	a5,1
	beq	a4,a5,.L36
	.loc 1 260 70 discriminator 1
	ld	a5,-24(s0)
	lw	a4,156(a5)
	.loc 1 260 43 discriminator 1
	li	a5,2
	beq	a4,a5,.L36
	.loc 1 261 12
	li	a5,-1
	slli	a5,a5,63
	addi	a5,a5,6
	j	.L37
.L36:
	.loc 1 264 3
	lw	a5,-44(s0)
	sext.w	a4,a5
	li	a5,9
	beq	a4,a5,.L51
	lw	a5,-44(s0)
	sext.w	a4,a5
	li	a5,9
	bgtu	a4,a5,.L49
	lw	a5,-44(s0)
	sext.w	a4,a5
	li	a5,8
	beq	a4,a5,.L52
	lw	a5,-44(s0)
	sext.w	a4,a5
	li	a5,8
	bgtu	a4,a5,.L49
	lw	a5,-44(s0)
	sext.w	a4,a5
	li	a5,7
	beq	a4,a5,.L53
	lw	a5,-44(s0)
	sext.w	a4,a5
	li	a5,7
	bgtu	a4,a5,.L49
	lw	a5,-44(s0)
	sext.w	a4,a5
	li	a5,6
	beq	a4,a5,.L54
	lw	a5,-44(s0)
	sext.w	a4,a5
	li	a5,6
	bgtu	a4,a5,.L49
	lw	a5,-44(s0)
	sext.w	a4,a5
	li	a5,5
	beq	a4,a5,.L55
	lw	a5,-44(s0)
	sext.w	a4,a5
	li	a5,5
	bgtu	a4,a5,.L49
	lw	a5,-44(s0)
	sext.w	a4,a5
	li	a5,4
	beq	a4,a5,.L56
	lw	a5,-44(s0)
	sext.w	a4,a5
	li	a5,4
	bgtu	a4,a5,.L49
	lw	a5,-44(s0)
	sext.w	a4,a5
	li	a5,3
	beq	a4,a5,.L57
	lw	a5,-44(s0)
	sext.w	a4,a5
	li	a5,3
	bgtu	a4,a5,.L49
	lw	a5,-44(s0)
	sext.w	a4,a5
	li	a5,1
	bne	a4,a5,.L58
.LBB2:
	.loc 1 268 27
	ld	a0,-24(s0)
	call	SdInit@plt
	sd	a0,-32(s0)
	.loc 1 269 38
	ld	a5,-32(s0)
	.loc 1 269 10
	bge	a5,zero,.L59
	.loc 1 271 16
	ld	a5,-32(s0)
	j	.L37
.L51:
	.loc 1 298 7
	nop
	j	.L49
.L52:
	.loc 1 295 7
	nop
	j	.L49
.L53:
	.loc 1 292 7
	nop
	j	.L49
.L54:
	.loc 1 289 7
	nop
	j	.L49
.L55:
	.loc 1 286 7
	nop
	j	.L49
.L56:
	.loc 1 283 7
	nop
	j	.L49
.L57:
	.loc 1 280 7
	nop
	j	.L49
.L58:
	.loc 1 277 7
	nop
	j	.L49
.L59:
	.loc 1 274 7
	nop
.L49:
.LBE2:
	.loc 1 306 10
	li	a5,0
.L37:
	.loc 1 307 1
	mv	a0,a5
	ld	ra,40(sp)
	.cfi_restore 1
	ld	s0,32(sp)
	.cfi_restore 8
	.cfi_def_cfa 2, 48
	addi	sp,sp,48
	.cfi_def_cfa_offset 0
	jr	ra
	.cfi_endproc
.LFE7:
	.size	SdNotifyState, .-SdNotifyState
	.section	.text.SdIsCardPresent,"ax",@progbits
	.align	1
	.type	SdIsCardPresent, @function
SdIsCardPresent:
.LFB8:
	.loc 1 323 1
	.cfi_startproc
	addi	sp,sp,-48
	.cfi_def_cfa_offset 48
	sd	ra,40(sp)
	sd	s0,32(sp)
	.cfi_offset 1, -8
	.cfi_offset 8, -16
	addi	s0,sp,48
	.cfi_def_cfa 8, 0
	sd	a0,-40(s0)
	.loc 1 324 51
	ld	a5,-40(s0)
	addi	a5,a5,-16
	.loc 1 324 182
	ld	a4,0(a5)
	.loc 1 324 267
	li	a5,1212370944
	addi	a5,a5,-691
	bne	a4,a5,.L61
	.loc 1 324 33 discriminator 1
	ld	a5,-40(s0)
	addi	a5,a5,-16
	sd	a5,-24(s0)
	j	.L62
.L61:
	.loc 1 324 33 is_stmt 0 discriminator 2
	sd	zero,-24(s0)
.L62:
	.loc 1 334 43 is_stmt 1
	ld	a5,-24(s0)
	li	a4,1
	sw	a4,156(a5)
	.loc 1 335 41
	ld	a5,-24(s0)
	sb	zero,160(a5)
	.loc 1 337 14
	ld	a0,-24(s0)
	call	BmSdCardDetect@plt
	mv	a5,a0
	mv	a4,a5
	.loc 1 337 6 discriminator 1
	li	a5,1
	bne	a4,a5,.L63
	.loc 1 338 43
	ld	a5,-24(s0)
	li	a4,1
	sb	a4,160(a5)
	.loc 1 339 45
	ld	a5,-24(s0)
	li	a4,2
	sw	a4,156(a5)
	.loc 1 340 35
	ld	a5,-24(s0)
	lbu	a5,160(a5)
	j	.L64
.L63:
	.loc 1 343 45
	ld	a5,-24(s0)
	sw	zero,156(a5)
	.loc 1 344 12
	li	a5,0
.L64:
	.loc 1 346 1
	mv	a0,a5
	ld	ra,40(sp)
	.cfi_restore 1
	ld	s0,32(sp)
	.cfi_restore 8
	.cfi_def_cfa 2, 48
	addi	sp,sp,48
	.cfi_def_cfa_offset 0
	jr	ra
	.cfi_endproc
.LFE8:
	.size	SdIsCardPresent, .-SdIsCardPresent
	.section	.text.SdIsMultiBlock,"ax",@progbits
	.align	1
	.globl	SdIsMultiBlock
	.type	SdIsMultiBlock, @function
SdIsMultiBlock:
.LFB9:
	.loc 1 360 1
	.cfi_startproc
	addi	sp,sp,-48
	.cfi_def_cfa_offset 48
	sd	ra,40(sp)
	sd	s0,32(sp)
	.cfi_offset 1, -8
	.cfi_offset 8, -16
	addi	s0,sp,48
	.cfi_def_cfa 8, 0
	sd	a0,-40(s0)
	.loc 1 361 51
	ld	a5,-40(s0)
	addi	a5,a5,-16
	.loc 1 361 182
	ld	a4,0(a5)
	.loc 1 361 267
	li	a5,1212370944
	addi	a5,a5,-691
	bne	a4,a5,.L66
	.loc 1 361 33 discriminator 1
	ld	a5,-40(s0)
	addi	a5,a5,-16
	sd	a5,-24(s0)
	j	.L67
.L66:
	.loc 1 361 33 is_stmt 0 discriminator 2
	sd	zero,-24(s0)
.L67:
	.loc 1 363 33 is_stmt 1
	ld	a5,-24(s0)
	lbu	a5,162(a5)
	.loc 1 364 1
	mv	a0,a5
	ld	ra,40(sp)
	.cfi_restore 1
	ld	s0,32(sp)
	.cfi_restore 8
	.cfi_def_cfa 2, 48
	addi	sp,sp,48
	.cfi_def_cfa_offset 0
	jr	ra
	.cfi_endproc
.LFE9:
	.size	SdIsMultiBlock, .-SdIsMultiBlock
	.globl	gMmcHost
	.section	.data.rel.local.gMmcHost,"aw"
	.align	3
	.type	gMmcHost, @object
	.size	gMmcHost, 88
gMmcHost:
	.word	65538
	.zero	4
	.dword	SdIsCardPresent
	.dword	SdIsReadOnly
	.dword	SdBuildDevicePath
	.dword	SdNotifyState
	.dword	SdSendCommand
	.dword	SdReceiveResponse
	.dword	SdReadBlockData
	.dword	SdWriteBlockData
	.dword	SdSetIos
	.dword	SdIsMultiBlock
	.section	.text.SdHostInitialize,"ax",@progbits
	.align	1
	.globl	SdHostInitialize
	.type	SdHostInitialize, @function
SdHostInitialize:
.LFB10:
	.loc 1 394 1
	.cfi_startproc
	addi	sp,sp,-64
	.cfi_def_cfa_offset 64
	sd	ra,56(sp)
	sd	s0,48(sp)
	.cfi_offset 1, -8
	.cfi_offset 8, -16
	addi	s0,sp,64
	.cfi_def_cfa 8, 0
	sd	a0,-56(s0)
	sd	a1,-64(s0)
	.loc 1 401 18
	la	a5,_gPcd_FixedAtBuild_PcdMmcHostConfigs
	sd	a5,-40(s0)
	.loc 1 403 10
	sd	zero,-32(s0)
	.loc 1 403 3
	j	.L70
.L78:
	.loc 1 406 21
	li	a0,200
	call	AllocateZeroPool@plt
	sd	a0,-48(s0)
	.loc 1 407 8
	ld	a5,-48(s0)
	bne	a5,zero,.L71
	.loc 1 408 14
	li	a5,-1
	slli	a5,a5,63
	addi	a5,a5,9
	j	.L72
.L71:
	.loc 1 411 30
	ld	a5,-48(s0)
	li	a4,1212370944
	addi	a4,a4,-691
	sd	a4,0(a5)
	.loc 1 412 14
	ld	a5,-48(s0)
	addi	a5,a5,16
	.loc 1 412 5
	li	a2,88
	lla	a1,gMmcHost
	mv	a0,a5
	call	CopyMem@plt
	.loc 1 414 68
	ld	a3,-40(s0)
	ld	a4,-32(s0)
	mv	a5,a4
	slli	a5,a5,2
	add	a5,a5,a4
	slli	a5,a5,3
	add	a5,a3,a5
	ld	a4,8(a5)
	.loc 1 414 37
	ld	a5,-48(s0)
	sd	a4,112(a5)
	.loc 1 415 70
	ld	a3,-40(s0)
	ld	a4,-32(s0)
	mv	a5,a4
	slli	a5,a5,2
	add	a5,a5,a4
	slli	a5,a5,3
	add	a5,a3,a5
	lw	a4,16(a5)
	.loc 1 415 84
	li	a5,999424
	addiw	a5,a5,576
	mulw	a5,a4,a5
	sext.w	a4,a5
	.loc 1 415 39
	ld	a5,-48(s0)
	sw	a4,120(a5)
	.loc 1 416 69
	ld	a3,-40(s0)
	ld	a4,-32(s0)
	mv	a5,a4
	slli	a5,a5,2
	add	a5,a5,a4
	slli	a5,a5,3
	add	a5,a3,a5
	lw	a4,20(a5)
	.loc 1 416 38
	ld	a5,-48(s0)
	sw	a4,128(a5)
	.loc 1 417 67
	ld	a3,-40(s0)
	ld	a4,-32(s0)
	mv	a5,a4
	slli	a5,a5,2
	add	a5,a5,a4
	slli	a5,a5,3
	add	a5,a3,a5
	lbu	a4,40(a5)
	.loc 1 417 36
	ld	a5,-48(s0)
	sb	a4,161(a5)
	.loc 1 418 74
	ld	a3,-40(s0)
	ld	a4,-32(s0)
	mv	a5,a4
	slli	a5,a5,2
	add	a5,a5,a4
	slli	a5,a5,3
	add	a5,a3,a5
	lbu	a5,42(a5)
	.loc 1 418 44
	sext.w	a5,a5
	seqz	a5,a5
	andi	a5,a5,0xff
	mv	a4,a5
	.loc 1 418 42
	ld	a5,-48(s0)
	sb	a4,162(a5)
	.loc 1 419 72
	ld	a3,-40(s0)
	ld	a4,-32(s0)
	mv	a5,a4
	slli	a5,a5,2
	add	a5,a5,a4
	slli	a5,a5,3
	add	a5,a3,a5
	lw	a4,32(a5)
	.loc 1 419 41
	ld	a5,-48(s0)
	sw	a4,140(a5)
	.loc 1 420 75
	ld	a3,-40(s0)
	ld	a4,-32(s0)
	mv	a5,a4
	slli	a5,a5,2
	add	a5,a5,a4
	slli	a5,a5,3
	add	a5,a3,a5
	lw	a4,36(a5)
	.loc 1 420 44
	ld	a5,-48(s0)
	sw	a4,144(a5)
	.loc 1 421 71
	ld	a3,-40(s0)
	ld	a4,-32(s0)
	mv	a5,a4
	slli	a5,a5,2
	add	a5,a5,a4
	slli	a5,a5,3
	add	a5,a3,a5
	lbu	a4,43(a5)
	.loc 1 421 40
	ld	a5,-48(s0)
	sb	a4,163(a5)
	.loc 1 422 36
	ld	a5,-48(s0)
	li	a4,-1
	sw	a4,152(a5)
	.loc 1 423 43
	ld	a5,-48(s0)
	sb	zero,160(a5)
	.loc 1 424 45
	ld	a5,-48(s0)
	sw	zero,156(a5)
	.loc 1 426 38
	ld	a3,-40(s0)
	ld	a4,-32(s0)
	mv	a5,a4
	slli	a5,a5,2
	add	a5,a5,a4
	slli	a5,a5,3
	add	a5,a3,a5
	lbu	a5,41(a5)
	.loc 1 426 8
	beq	a5,zero,.L73
	.loc 1 427 37
	ld	a5,-48(s0)
	li	a4,1
	sw	a4,148(a5)
	j	.L74
.L73:
	.loc 1 429 37
	ld	a5,-48(s0)
	sw	zero,148(a5)
.L74:
	.loc 1 432 17
	la	a5,gBS
	ld	a5,0(a5)
	ld	a5,328(a5)
	.loc 1 432 14
	ld	a4,-48(s0)
	addi	a0,a4,8
	ld	a4,-48(s0)
	addi	a4,a4,16
	li	a3,0
	mv	a2,a4
	la	a1,gEmbeddedMmcHostProtocolGuid
	jalr	a5
.LVL0:
	sd	a0,-24(s0)
	.loc 1 438 36
	ld	a5,-24(s0)
	.loc 1 438 8
	bge	a5,zero,.L75
	.loc 1 440 7
	ld	a0,-48(s0)
	call	FreePool@plt
	.loc 1 441 7
	j	.L76
.L75:
	.loc 1 444 33
	ld	a5,-48(s0)
	lbu	a5,161(a5)
	.loc 1 444 8
	bne	a5,zero,.L76
	.loc 1 445 73
	ld	a3,-40(s0)
	ld	a4,-32(s0)
	mv	a5,a4
	slli	a5,a5,2
	add	a5,a5,a4
	slli	a5,a5,3
	add	a5,a3,a5
	lw	a4,24(a5)
	.loc 1 445 42
	ld	a5,-48(s0)
	sw	a4,132(a5)
	.loc 1 446 74
	ld	a3,-40(s0)
	ld	a4,-32(s0)
	mv	a5,a4
	slli	a5,a5,2
	add	a5,a5,a4
	slli	a5,a5,3
	add	a5,a3,a5
	lw	a4,28(a5)
	.loc 1 446 43
	ld	a5,-48(s0)
	sw	a4,136(a5)
	.loc 1 448 19
	la	a5,gBS
	ld	a5,0(a5)
	ld	a5,320(a5)
	.loc 1 451 46
	ld	a4,-48(s0)
	addi	a4,a4,104
	.loc 1 448 16
	mv	a2,a4
	li	a1,0
	la	a0,gEmbeddedGpioProtocolGuid
	jalr	a5
.LVL1:
	sd	a0,-24(s0)
	.loc 1 454 38
	ld	a5,-24(s0)
	.loc 1 454 10
	bge	a5,zero,.L77
	.loc 1 455 21
	la	a5,gBS
	ld	a5,0(a5)
	ld	a5,336(a5)
	.loc 1 455 18
	ld	a4,-48(s0)
	ld	a0,8(a4)
	ld	a4,-48(s0)
	addi	a4,a4,16
	li	a3,0
	mv	a2,a4
	la	a1,gEmbeddedMmcHostProtocolGuid
	jalr	a5
.LVL2:
	sd	a0,-24(s0)
	.loc 1 461 9
	ld	a0,-48(s0)
	call	FreePool@plt
	.loc 1 462 9
	j	.L76
.L77:
	.loc 1 465 20
	ld	a5,-48(s0)
	ld	a5,104(a5)
	.loc 1 465 26
	ld	a5,8(a5)
	.loc 1 465 7
	ld	a4,-48(s0)
	ld	a3,104(a4)
	.loc 1 465 77
	ld	a4,-48(s0)
	lw	a4,132(a4)
	.loc 1 465 7
	slli	a4,a4,32
	srli	a4,a4,32
	li	a2,0
	mv	a1,a4
	mv	a0,a3
	jalr	a5
.LVL3:
	.loc 1 466 20
	ld	a5,-48(s0)
	ld	a5,104(a5)
	.loc 1 466 26
	ld	a5,24(a5)
	.loc 1 466 7
	ld	a4,-48(s0)
	ld	a3,104(a4)
	.loc 1 466 81
	ld	a4,-48(s0)
	lw	a4,132(a4)
	.loc 1 466 7
	slli	a4,a4,32
	srli	a4,a4,32
	li	a2,1
	mv	a1,a4
	mv	a0,a3
	jalr	a5
.LVL4:
.L76:
	.loc 1 403 41 discriminator 2
	ld	a5,-32(s0)
	addi	a5,a5,1
	sd	a5,-32(s0)
.L70:
	.loc 1 403 33 discriminator 1
	ld	a5,-40(s0)
	lhu	a5,0(a5)
	mv	a4,a5
	.loc 1 403 17 discriminator 1
	ld	a5,-32(s0)
	blt	a5,a4,.L78
	.loc 1 470 10
	ld	a5,-24(s0)
.L72:
	.loc 1 471 1
	mv	a0,a5
	ld	ra,56(sp)
	.cfi_restore 1
	ld	s0,48(sp)
	.cfi_restore 8
	.cfi_def_cfa 2, 64
	addi	sp,sp,64
	.cfi_def_cfa_offset 0
	jr	ra
	.cfi_endproc
.LFE10:
	.size	SdHostInitialize, .-SdHostInitialize
	.text
.Letext0:
	.file 2 "/home/kapoagaeming/spacemit-image-builder/components/edk2/MdePkg/Include/RiscV64/ProcessorBind.h"
	.file 3 "/home/kapoagaeming/spacemit-image-builder/components/edk2/MdePkg/Include/Base.h"
	.file 4 "/home/kapoagaeming/spacemit-image-builder/components/edk2/MdePkg/Include/Uefi/UefiBaseType.h"
	.file 5 "/home/kapoagaeming/spacemit-image-builder/components/edk2/MdePkg/Include/Uefi/UefiMultiPhase.h"
	.file 6 "/home/kapoagaeming/spacemit-image-builder/components/edk2/MdePkg/Include/Protocol/DevicePath.h"
	.file 7 "/home/kapoagaeming/spacemit-image-builder/components/edk2/MdePkg/Include/Protocol/SimpleTextIn.h"
	.file 8 "/home/kapoagaeming/spacemit-image-builder/components/edk2/MdePkg/Include/Protocol/SimpleTextOut.h"
	.file 9 "/home/kapoagaeming/spacemit-image-builder/components/edk2/MdePkg/Include/Uefi/UefiSpec.h"
	.file 10 "/home/kapoagaeming/spacemit-image-builder/components/Build/Milk-V-Jupiter/RELEASE_GCC5/RISCV64/Silicon/Spacemit/K1/Drivers/SdHostDxe/SdHostDxe/DEBUG/AutoGen.h"
	.file 11 "/home/kapoagaeming/spacemit-image-builder/components/edk2/EmbeddedPkg/Include/Protocol/MmcHost.h"
	.file 12 "/home/kapoagaeming/spacemit-image-builder/components/edk2/EmbeddedPkg/Include/Protocol/EmbeddedGpio.h"
	.file 13 "/home/kapoagaeming/spacemit-image-builder/components/edk2-platforms/Silicon/Spacemit/K1/Drivers/SdHostDxe/SdHci.h"
	.file 14 "/home/kapoagaeming/spacemit-image-builder/components/edk2-platforms/Silicon/Spacemit/K1/Drivers/SdHostDxe/MmcHostPcdConfig.h"
	.file 15 "/home/kapoagaeming/spacemit-image-builder/components/edk2/MdePkg/Include/Library/BaseMemoryLib.h"
	.file 16 "/home/kapoagaeming/spacemit-image-builder/components/edk2/MdePkg/Include/Library/MemoryAllocationLib.h"
	.file 17 "/home/kapoagaeming/spacemit-image-builder/components/edk2/MdePkg/Include/Library/DevicePathLib.h"
	.file 18 "/home/kapoagaeming/spacemit-image-builder/components/edk2/MdePkg/Include/Library/UefiBootServicesTableLib.h"
	.section	.note.GNU-stack,"",@progbits
