	.file	"Hid.c"
	.option pic
	.option norelax
	.attribute arch, "rv64i2p1_m2p0_a2p1_f2p2_d2p2_c2p0_zicsr2p0_zifencei2p0_zmmul1p0_zaamo1p0_zalrsc1p0_zca1p0_zcd1p0"
	.attribute unaligned_access, 0
	.attribute stack_align, 16
	.text
.Ltext0:
	.cfi_sections	.debug_frame
	.file 0 "/home/kapoagaeming/spacemit-image-builder/components/Build/Milk-V-Jupiter/RELEASE_GCC5/RISCV64/MdePkg/Library/UefiUsbLib/UefiUsbLib" "/home/kapoagaeming/spacemit-image-builder/components/edk2/MdePkg/Library/UefiUsbLib/Hid.c"
	.section	.text.UsbGetHidDescriptor,"ax",@progbits
	.align	1
	.globl	UsbGetHidDescriptor
	.type	UsbGetHidDescriptor, @function
UsbGetHidDescriptor:
.LFB0:
	.file 1 "/home/kapoagaeming/spacemit-image-builder/components/edk2/MdePkg/Library/UefiUsbLib/Hid.c"
	.loc 1 52 1
	.cfi_startproc
	addi	sp,sp,-80
	.cfi_def_cfa_offset 80
	sd	ra,72(sp)
	sd	s0,64(sp)
	.cfi_offset 1, -8
	.cfi_offset 8, -16
	addi	s0,sp,80
	.cfi_def_cfa 8, 0
	sd	a0,-56(s0)
	mv	a5,a1
	sd	a2,-72(s0)
	sb	a5,-57(s0)
	.loc 1 60 23
	li	a5,-127
	sb	a5,-40(s0)
	.loc 1 61 19
	li	a5,6
	sb	a5,-39(s0)
	.loc 1 62 17
	li	a5,8192
	addi	a5,a5,256
	sh	a5,-38(s0)
	.loc 1 63 17
	lbu	a5,-57(s0)
	slli	a5,a5,48
	srli	a5,a5,48
	sh	a5,-36(s0)
	.loc 1 64 18
	li	a5,9
	sh	a5,-34(s0)
	.loc 1 66 17
	ld	a5,-56(s0)
	ld	a7,0(a5)
	.loc 1 66 12
	la	a5,_gPcd_FixedAtBuild_PcdUsbTransferTimeoutValue
	lw	a3,0(a5)
	addi	a5,s0,-28
	addi	a1,s0,-40
	mv	a6,a5
	li	a5,9
	ld	a4,-72(s0)
	li	a2,0
	ld	a0,-56(s0)
	jalr	a7
.LVL0:
	sd	a0,-24(s0)
	.loc 1 76 10
	ld	a5,-24(s0)
	.loc 1 77 1
	mv	a0,a5
	ld	ra,72(sp)
	.cfi_restore 1
	ld	s0,64(sp)
	.cfi_restore 8
	.cfi_def_cfa 2, 80
	addi	sp,sp,80
	.cfi_def_cfa_offset 0
	jr	ra
	.cfi_endproc
.LFE0:
	.size	UsbGetHidDescriptor, .-UsbGetHidDescriptor
	.section	.text.UsbGetReportDescriptor,"ax",@progbits
	.align	1
	.globl	UsbGetReportDescriptor
	.type	UsbGetReportDescriptor, @function
UsbGetReportDescriptor:
.LFB1:
	.loc 1 108 1
	.cfi_startproc
	addi	sp,sp,-80
	.cfi_def_cfa_offset 80
	sd	ra,72(sp)
	sd	s0,64(sp)
	.cfi_offset 1, -8
	.cfi_offset 8, -16
	addi	s0,sp,80
	.cfi_def_cfa 8, 0
	sd	a0,-56(s0)
	mv	a5,a1
	mv	a4,a2
	sd	a3,-72(s0)
	sb	a5,-57(s0)
	mv	a5,a4
	sh	a5,-60(s0)
	.loc 1 119 23
	li	a5,-127
	sb	a5,-40(s0)
	.loc 1 120 19
	li	a5,6
	sb	a5,-39(s0)
	.loc 1 121 17
	li	a5,8192
	addi	a5,a5,512
	sh	a5,-38(s0)
	.loc 1 122 17
	lbu	a5,-57(s0)
	slli	a5,a5,48
	srli	a5,a5,48
	sh	a5,-36(s0)
	.loc 1 123 18
	lhu	a5,-60(s0)
	sh	a5,-34(s0)
	.loc 1 125 17
	ld	a5,-56(s0)
	ld	a7,0(a5)
	.loc 1 125 12
	la	a5,_gPcd_FixedAtBuild_PcdUsbTransferTimeoutValue
	lw	a3,0(a5)
	lhu	a5,-60(s0)
	addi	a4,s0,-28
	addi	a1,s0,-40
	mv	a6,a4
	ld	a4,-72(s0)
	li	a2,0
	ld	a0,-56(s0)
	jalr	a7
.LVL1:
	sd	a0,-24(s0)
	.loc 1 135 10
	ld	a5,-24(s0)
	.loc 1 136 1
	mv	a0,a5
	ld	ra,72(sp)
	.cfi_restore 1
	ld	s0,64(sp)
	.cfi_restore 8
	.cfi_def_cfa 2, 80
	addi	sp,sp,80
	.cfi_def_cfa_offset 0
	jr	ra
	.cfi_endproc
.LFE1:
	.size	UsbGetReportDescriptor, .-UsbGetReportDescriptor
	.section	.text.UsbGetProtocolRequest,"ax",@progbits
	.align	1
	.globl	UsbGetProtocolRequest
	.type	UsbGetProtocolRequest, @function
UsbGetProtocolRequest:
.LFB2:
	.loc 1 162 1
	.cfi_startproc
	addi	sp,sp,-80
	.cfi_def_cfa_offset 80
	sd	ra,72(sp)
	sd	s0,64(sp)
	.cfi_offset 1, -8
	.cfi_offset 8, -16
	addi	s0,sp,80
	.cfi_def_cfa 8, 0
	sd	a0,-56(s0)
	mv	a5,a1
	sd	a2,-72(s0)
	sb	a5,-57(s0)
	.loc 1 173 23
	li	a5,-95
	sb	a5,-40(s0)
	.loc 1 174 19
	li	a5,3
	sb	a5,-39(s0)
	.loc 1 175 17
	sh	zero,-38(s0)
	.loc 1 176 17
	lbu	a5,-57(s0)
	slli	a5,a5,48
	srli	a5,a5,48
	sh	a5,-36(s0)
	.loc 1 177 18
	li	a5,1
	sh	a5,-34(s0)
	.loc 1 179 17
	ld	a5,-56(s0)
	ld	a7,0(a5)
	.loc 1 179 12
	la	a5,_gPcd_FixedAtBuild_PcdUsbTransferTimeoutValue
	lw	a3,0(a5)
	addi	a5,s0,-28
	addi	a1,s0,-40
	mv	a6,a5
	li	a5,1
	ld	a4,-72(s0)
	li	a2,0
	ld	a0,-56(s0)
	jalr	a7
.LVL2:
	sd	a0,-24(s0)
	.loc 1 189 10
	ld	a5,-24(s0)
	.loc 1 190 1
	mv	a0,a5
	ld	ra,72(sp)
	.cfi_restore 1
	ld	s0,64(sp)
	.cfi_restore 8
	.cfi_def_cfa 2, 80
	addi	sp,sp,80
	.cfi_def_cfa_offset 0
	jr	ra
	.cfi_endproc
.LFE2:
	.size	UsbGetProtocolRequest, .-UsbGetProtocolRequest
	.section	.text.UsbSetProtocolRequest,"ax",@progbits
	.align	1
	.globl	UsbSetProtocolRequest
	.type	UsbSetProtocolRequest, @function
UsbSetProtocolRequest:
.LFB3:
	.loc 1 215 1
	.cfi_startproc
	addi	sp,sp,-64
	.cfi_def_cfa_offset 64
	sd	ra,56(sp)
	sd	s0,48(sp)
	.cfi_offset 1, -8
	.cfi_offset 8, -16
	addi	s0,sp,64
	.cfi_def_cfa 8, 0
	sd	a0,-56(s0)
	mv	a5,a1
	mv	a4,a2
	sb	a5,-57(s0)
	mv	a5,a4
	sb	a5,-58(s0)
	.loc 1 225 23
	li	a5,33
	sb	a5,-40(s0)
	.loc 1 226 19
	li	a5,11
	sb	a5,-39(s0)
	.loc 1 227 17
	lbu	a5,-58(s0)
	slli	a5,a5,48
	srli	a5,a5,48
	sh	a5,-38(s0)
	.loc 1 228 17
	lbu	a5,-57(s0)
	slli	a5,a5,48
	srli	a5,a5,48
	sh	a5,-36(s0)
	.loc 1 229 18
	sh	zero,-34(s0)
	.loc 1 231 17
	ld	a5,-56(s0)
	ld	a7,0(a5)
	.loc 1 231 12
	la	a5,_gPcd_FixedAtBuild_PcdUsbTransferTimeoutValue
	lw	a3,0(a5)
	addi	a5,s0,-28
	addi	a1,s0,-40
	mv	a6,a5
	li	a5,0
	li	a4,0
	li	a2,2
	ld	a0,-56(s0)
	jalr	a7
.LVL3:
	sd	a0,-24(s0)
	.loc 1 240 10
	ld	a5,-24(s0)
	.loc 1 241 1
	mv	a0,a5
	ld	ra,56(sp)
	.cfi_restore 1
	ld	s0,48(sp)
	.cfi_restore 8
	.cfi_def_cfa 2, 64
	addi	sp,sp,64
	.cfi_def_cfa_offset 0
	jr	ra
	.cfi_endproc
.LFE3:
	.size	UsbSetProtocolRequest, .-UsbSetProtocolRequest
	.section	.text.UsbSetIdleRequest,"ax",@progbits
	.align	1
	.globl	UsbSetIdleRequest
	.type	UsbSetIdleRequest, @function
UsbSetIdleRequest:
.LFB4:
	.loc 1 268 1
	.cfi_startproc
	addi	sp,sp,-64
	.cfi_def_cfa_offset 64
	sd	ra,56(sp)
	sd	s0,48(sp)
	.cfi_offset 1, -8
	.cfi_offset 8, -16
	addi	s0,sp,64
	.cfi_def_cfa 8, 0
	sd	a0,-56(s0)
	mv	a5,a1
	mv	a4,a3
	sb	a5,-57(s0)
	mv	a5,a2
	sb	a5,-58(s0)
	mv	a5,a4
	sb	a5,-59(s0)
	.loc 1 277 23
	li	a5,33
	sb	a5,-40(s0)
	.loc 1 278 19
	li	a5,10
	sb	a5,-39(s0)
	.loc 1 279 44
	lbu	a5,-59(s0)
	slliw	a5,a5,16
	sraiw	a5,a5,16
	slliw	a5,a5,8
	slliw	a4,a5,16
	sraiw	a4,a4,16
	lbu	a5,-58(s0)
	slliw	a5,a5,16
	sraiw	a5,a5,16
	or	a5,a4,a5
	slliw	a5,a5,16
	sraiw	a5,a5,16
	.loc 1 279 19
	slli	a5,a5,48
	srli	a5,a5,48
	.loc 1 279 17
	sh	a5,-38(s0)
	.loc 1 280 17
	lbu	a5,-57(s0)
	slli	a5,a5,48
	srli	a5,a5,48
	sh	a5,-36(s0)
	.loc 1 281 18
	sh	zero,-34(s0)
	.loc 1 283 17
	ld	a5,-56(s0)
	ld	a7,0(a5)
	.loc 1 283 12
	la	a5,_gPcd_FixedAtBuild_PcdUsbTransferTimeoutValue
	lw	a3,0(a5)
	addi	a5,s0,-28
	addi	a1,s0,-40
	mv	a6,a5
	li	a5,0
	li	a4,0
	li	a2,2
	ld	a0,-56(s0)
	jalr	a7
.LVL4:
	sd	a0,-24(s0)
	.loc 1 292 10
	ld	a5,-24(s0)
	.loc 1 293 1
	mv	a0,a5
	ld	ra,56(sp)
	.cfi_restore 1
	ld	s0,48(sp)
	.cfi_restore 8
	.cfi_def_cfa 2, 64
	addi	sp,sp,64
	.cfi_def_cfa_offset 0
	jr	ra
	.cfi_endproc
.LFE4:
	.size	UsbSetIdleRequest, .-UsbSetIdleRequest
	.section	.text.UsbGetIdleRequest,"ax",@progbits
	.align	1
	.globl	UsbGetIdleRequest
	.type	UsbGetIdleRequest, @function
UsbGetIdleRequest:
.LFB5:
	.loc 1 321 1
	.cfi_startproc
	addi	sp,sp,-80
	.cfi_def_cfa_offset 80
	sd	ra,72(sp)
	sd	s0,64(sp)
	.cfi_offset 1, -8
	.cfi_offset 8, -16
	addi	s0,sp,80
	.cfi_def_cfa 8, 0
	sd	a0,-56(s0)
	mv	a5,a1
	mv	a4,a2
	sd	a3,-72(s0)
	sb	a5,-57(s0)
	mv	a5,a4
	sb	a5,-58(s0)
	.loc 1 331 23
	li	a5,-95
	sb	a5,-40(s0)
	.loc 1 332 19
	li	a5,2
	sb	a5,-39(s0)
	.loc 1 333 17
	lbu	a5,-58(s0)
	slli	a5,a5,48
	srli	a5,a5,48
	sh	a5,-38(s0)
	.loc 1 334 17
	lbu	a5,-57(s0)
	slli	a5,a5,48
	srli	a5,a5,48
	sh	a5,-36(s0)
	.loc 1 335 18
	li	a5,1
	sh	a5,-34(s0)
	.loc 1 337 17
	ld	a5,-56(s0)
	ld	a7,0(a5)
	.loc 1 337 12
	la	a5,_gPcd_FixedAtBuild_PcdUsbTransferTimeoutValue
	lw	a3,0(a5)
	addi	a5,s0,-28
	addi	a1,s0,-40
	mv	a6,a5
	li	a5,1
	ld	a4,-72(s0)
	li	a2,0
	ld	a0,-56(s0)
	jalr	a7
.LVL5:
	sd	a0,-24(s0)
	.loc 1 347 10
	ld	a5,-24(s0)
	.loc 1 348 1
	mv	a0,a5
	ld	ra,72(sp)
	.cfi_restore 1
	ld	s0,64(sp)
	.cfi_restore 8
	.cfi_def_cfa 2, 80
	addi	sp,sp,80
	.cfi_def_cfa_offset 0
	jr	ra
	.cfi_endproc
.LFE5:
	.size	UsbGetIdleRequest, .-UsbGetIdleRequest
	.section	.text.UsbSetReportRequest,"ax",@progbits
	.align	1
	.globl	UsbSetReportRequest
	.type	UsbSetReportRequest, @function
UsbSetReportRequest:
.LFB6:
	.loc 1 381 1
	.cfi_startproc
	addi	sp,sp,-80
	.cfi_def_cfa_offset 80
	sd	ra,72(sp)
	sd	s0,64(sp)
	.cfi_offset 1, -8
	.cfi_offset 8, -16
	addi	s0,sp,80
	.cfi_def_cfa 8, 0
	sd	a0,-56(s0)
	sd	a5,-72(s0)
	mv	a5,a1
	sb	a5,-57(s0)
	mv	a5,a2
	sb	a5,-58(s0)
	mv	a5,a3
	sb	a5,-59(s0)
	mv	a5,a4
	sh	a5,-62(s0)
	.loc 1 392 23
	li	a5,33
	sb	a5,-40(s0)
	.loc 1 393 19
	li	a5,9
	sb	a5,-39(s0)
	.loc 1 394 46
	lbu	a5,-59(s0)
	slliw	a5,a5,16
	sraiw	a5,a5,16
	slliw	a5,a5,8
	slliw	a4,a5,16
	sraiw	a4,a4,16
	lbu	a5,-58(s0)
	slliw	a5,a5,16
	sraiw	a5,a5,16
	or	a5,a4,a5
	slliw	a5,a5,16
	sraiw	a5,a5,16
	.loc 1 394 19
	slli	a5,a5,48
	srli	a5,a5,48
	.loc 1 394 17
	sh	a5,-38(s0)
	.loc 1 395 17
	lbu	a5,-57(s0)
	slli	a5,a5,48
	srli	a5,a5,48
	sh	a5,-36(s0)
	.loc 1 396 18
	lhu	a5,-62(s0)
	sh	a5,-34(s0)
	.loc 1 398 17
	ld	a5,-56(s0)
	ld	a7,0(a5)
	.loc 1 398 12
	la	a5,_gPcd_FixedAtBuild_PcdUsbTransferTimeoutValue
	lw	a3,0(a5)
	lhu	a5,-62(s0)
	addi	a4,s0,-28
	addi	a1,s0,-40
	mv	a6,a4
	ld	a4,-72(s0)
	li	a2,1
	ld	a0,-56(s0)
	jalr	a7
.LVL6:
	sd	a0,-24(s0)
	.loc 1 408 10
	ld	a5,-24(s0)
	.loc 1 409 1
	mv	a0,a5
	ld	ra,72(sp)
	.cfi_restore 1
	ld	s0,64(sp)
	.cfi_restore 8
	.cfi_def_cfa 2, 80
	addi	sp,sp,80
	.cfi_def_cfa_offset 0
	jr	ra
	.cfi_endproc
.LFE6:
	.size	UsbSetReportRequest, .-UsbSetReportRequest
	.section	.text.UsbGetReportRequest,"ax",@progbits
	.align	1
	.globl	UsbGetReportRequest
	.type	UsbGetReportRequest, @function
UsbGetReportRequest:
.LFB7:
	.loc 1 445 1
	.cfi_startproc
	addi	sp,sp,-80
	.cfi_def_cfa_offset 80
	sd	ra,72(sp)
	sd	s0,64(sp)
	.cfi_offset 1, -8
	.cfi_offset 8, -16
	addi	s0,sp,80
	.cfi_def_cfa 8, 0
	sd	a0,-56(s0)
	sd	a5,-72(s0)
	mv	a5,a1
	sb	a5,-57(s0)
	mv	a5,a2
	sb	a5,-58(s0)
	mv	a5,a3
	sb	a5,-59(s0)
	mv	a5,a4
	sh	a5,-62(s0)
	.loc 1 456 23
	li	a5,-95
	sb	a5,-40(s0)
	.loc 1 457 19
	li	a5,1
	sb	a5,-39(s0)
	.loc 1 458 46
	lbu	a5,-59(s0)
	slliw	a5,a5,16
	sraiw	a5,a5,16
	slliw	a5,a5,8
	slliw	a4,a5,16
	sraiw	a4,a4,16
	lbu	a5,-58(s0)
	slliw	a5,a5,16
	sraiw	a5,a5,16
	or	a5,a4,a5
	slliw	a5,a5,16
	sraiw	a5,a5,16
	.loc 1 458 19
	slli	a5,a5,48
	srli	a5,a5,48
	.loc 1 458 17
	sh	a5,-38(s0)
	.loc 1 459 17
	lbu	a5,-57(s0)
	slli	a5,a5,48
	srli	a5,a5,48
	sh	a5,-36(s0)
	.loc 1 460 18
	lhu	a5,-62(s0)
	sh	a5,-34(s0)
	.loc 1 462 17
	ld	a5,-56(s0)
	ld	a7,0(a5)
	.loc 1 462 12
	la	a5,_gPcd_FixedAtBuild_PcdUsbTransferTimeoutValue
	lw	a3,0(a5)
	lhu	a5,-62(s0)
	addi	a4,s0,-28
	addi	a1,s0,-40
	mv	a6,a4
	ld	a4,-72(s0)
	li	a2,0
	ld	a0,-56(s0)
	jalr	a7
.LVL7:
	sd	a0,-24(s0)
	.loc 1 472 10
	ld	a5,-24(s0)
	.loc 1 473 1
	mv	a0,a5
	ld	ra,72(sp)
	.cfi_restore 1
	ld	s0,64(sp)
	.cfi_restore 8
	.cfi_def_cfa 2, 80
	addi	sp,sp,80
	.cfi_def_cfa_offset 0
	jr	ra
	.cfi_endproc
.LFE7:
	.size	UsbGetReportRequest, .-UsbGetReportRequest
	.text
.Letext0:
	.file 2 "/home/kapoagaeming/spacemit-image-builder/components/edk2/MdePkg/Include/RiscV64/ProcessorBind.h"
	.file 3 "/home/kapoagaeming/spacemit-image-builder/components/edk2/MdePkg/Include/Base.h"
	.file 4 "/home/kapoagaeming/spacemit-image-builder/components/edk2/MdePkg/Include/Uefi/UefiBaseType.h"
	.file 5 "/home/kapoagaeming/spacemit-image-builder/components/edk2/MdePkg/Include/IndustryStandard/Usb.h"
	.file 6 "/home/kapoagaeming/spacemit-image-builder/components/edk2/MdePkg/Include/Protocol/UsbIo.h"
	.file 7 "/home/kapoagaeming/spacemit-image-builder/components/Build/Milk-V-Jupiter/RELEASE_GCC5/RISCV64/MdePkg/Library/UefiUsbLib/UefiUsbLib/DEBUG/AutoGen.h"
	.section	.note.GNU-stack,"",@progbits
