	.file	"AutoGen.c"
	.option pic
	.option norelax
	.attribute arch, "rv64i2p1_m2p0_a2p1_f2p2_d2p2_c2p0_zicsr2p0_zifencei2p0_zmmul1p0_zaamo1p0_zalrsc1p0_zca1p0_zcd1p0"
	.attribute unaligned_access, 0
	.attribute stack_align, 16
	.text
.Ltext0:
	.cfi_sections	.debug_frame
	.file 0 "/home/kapoagaeming/Downloads/spacemit-image-builder/components/Build/Milk-V-Jupiter/RELEASE_GCC5/RISCV64/MdeModulePkg/Universal/Disk/PartitionDxe/PartitionDxe" "/home/kapoagaeming/Downloads/spacemit-image-builder/components/Build/Milk-V-Jupiter/RELEASE_GCC5/RISCV64/MdeModulePkg/Universal/Disk/PartitionDxe/PartitionDxe/DEBUG/AutoGen.c"
	.globl	gEfiCallerIdGuid
	.section	.data.gEfiCallerIdGuid,"aw"
	.align	3
	.type	gEfiCallerIdGuid, @object
	.size	gEfiCallerIdGuid, 16
gEfiCallerIdGuid:
	.word	530707358
	.half	-257
	.half	19118
	.base64	"vXs4oHCjtgk="
	.globl	gEdkiiDscPlatformGuid
	.section	.data.gEdkiiDscPlatformGuid,"aw"
	.align	3
	.type	gEdkiiDscPlatformGuid, @object
	.size	gEdkiiDscPlatformGuid, 16
gEdkiiDscPlatformGuid:
	.word	-1093915514
	.half	809
	.half	18550
	.base64	"mLFXzDezPfM="
	.globl	gEfiCallerBaseName
	.section	.rodata
	.align	3
.LC0:
	.string	"PartitionDxe"
	.section	.data.rel.local.gEfiCallerBaseName,"aw"
	.align	3
	.type	gEfiCallerBaseName, @object
	.size	gEfiCallerBaseName, 8
gEfiCallerBaseName:
	.dword	.LC0
	.globl	gEfiPartTypeUnusedGuid
	.section	.bss.gEfiPartTypeUnusedGuid,"aw",@nobits
	.align	3
	.type	gEfiPartTypeUnusedGuid, @object
	.size	gEfiPartTypeUnusedGuid, 16
gEfiPartTypeUnusedGuid:
	.zero	16
	.globl	gEfiPartTypeSystemPartGuid
	.section	.data.gEfiPartTypeSystemPartGuid,"aw"
	.align	3
	.type	gEfiPartTypeSystemPartGuid, @object
	.size	gEfiPartTypeSystemPartGuid, 16
gEfiPartTypeSystemPartGuid:
	.word	-1054182616
	.half	-2017
	.half	4562
	.base64	"uksAoMk+yTs="
	.globl	gEfiMdePkgTokenSpaceGuid
	.section	.data.gEfiMdePkgTokenSpaceGuid,"aw"
	.align	3
	.type	gEfiMdePkgTokenSpaceGuid, @object
	.size	gEfiMdePkgTokenSpaceGuid, 16
gEfiMdePkgTokenSpaceGuid:
	.word	-1857360921
	.half	17973
	.half	17819
	.base64	"qhwR4hmwOhA="
	.globl	gEfiEventReadyToBootGuid
	.section	.data.gEfiEventReadyToBootGuid,"aw"
	.align	3
	.type	gEfiEventReadyToBootGuid, @object
	.size	gEfiEventReadyToBootGuid, 16
gEfiEventReadyToBootGuid:
	.word	2095615923
	.half	19415
	.half	18041
	.base64	"h6io2N7lDSs="
	.globl	gEfiEventAfterReadyToBootGuid
	.section	.data.gEfiEventAfterReadyToBootGuid,"aw"
	.align	3
	.type	gEfiEventAfterReadyToBootGuid, @object
	.size	gEfiEventAfterReadyToBootGuid, 16
gEfiEventAfterReadyToBootGuid:
	.word	975831213
	.half	-26439
	.half	19679
	.base64	"pHhwJ3fxwQs="
	.globl	gEfiEventLegacyBootGuid
	.section	.data.gEfiEventLegacyBootGuid,"aw"
	.align	3
	.type	gEfiEventLegacyBootGuid, @object
	.size	gEfiEventLegacyBootGuid, 16
gEfiEventLegacyBootGuid:
	.word	710349313
	.half	18790
	.half	18422
	.base64	"i4bzHkHzLxA="
	.globl	gEfiGlobalVariableGuid
	.section	.data.gEfiGlobalVariableGuid,"aw"
	.align	3
	.type	gEfiGlobalVariableGuid, @object
	.size	gEfiGlobalVariableGuid, 16
gEfiGlobalVariableGuid:
	.word	-1947934879
	.half	-27702
	.half	4562
	.base64	"qg0A4JgDK4w="
	.globl	gEfiAcpi20TableGuid
	.section	.data.gEfiAcpi20TableGuid,"aw"
	.align	3
	.type	gEfiAcpi20TableGuid, @object
	.size	gEfiAcpi20TableGuid, 16
gEfiAcpi20TableGuid:
	.word	-2006390671
	.half	-6927
	.half	4563
	.base64	"vCIAgMc8iIE="
	.globl	gEfiAcpi10TableGuid
	.section	.data.gEfiAcpi10TableGuid,"aw"
	.align	3
	.type	gEfiAcpi10TableGuid, @object
	.size	gEfiAcpi10TableGuid, 16
gEfiAcpi10TableGuid:
	.word	-342020816
	.half	11656
	.half	4563
	.base64	"mhYAkCc/wU0="
	.globl	gEfiBlockIoProtocolGuid
	.section	.data.gEfiBlockIoProtocolGuid,"aw"
	.align	3
	.type	gEfiBlockIoProtocolGuid, @object
	.size	gEfiBlockIoProtocolGuid, 16
gEfiBlockIoProtocolGuid:
	.word	-1773249759
	.half	25689
	.half	4562
	.base64	"jjkAoMlpcjs="
	.globl	gEfiBlockIo2ProtocolGuid
	.section	.data.gEfiBlockIo2ProtocolGuid,"aw"
	.align	3
	.type	gEfiBlockIo2ProtocolGuid, @object
	.size	gEfiBlockIo2ProtocolGuid, 16
gEfiBlockIo2ProtocolGuid:
	.word	-1485101966
	.half	-7550
	.half	20127
	.base64	"okXCwOJ7vME="
	.globl	gEfiDevicePathProtocolGuid
	.section	.data.gEfiDevicePathProtocolGuid,"aw"
	.align	3
	.type	gEfiDevicePathProtocolGuid, @object
	.size	gEfiDevicePathProtocolGuid, 16
gEfiDevicePathProtocolGuid:
	.word	156724881
	.half	27967
	.half	4562
	.base64	"jjkAoMlpcjs="
	.globl	gEfiPartitionInfoProtocolGuid
	.section	.data.gEfiPartitionInfoProtocolGuid,"aw"
	.align	3
	.type	gEfiPartitionInfoProtocolGuid, @object
	.size	gEfiPartitionInfoProtocolGuid, 16
gEfiPartitionInfoProtocolGuid:
	.word	-1930234324
	.half	-17253
	.half	18465
	.base64	"gI3snsQhoaA="
	.globl	gEfiDiskIoProtocolGuid
	.section	.data.gEfiDiskIoProtocolGuid,"aw"
	.align	3
	.type	gEfiDiskIoProtocolGuid, @object
	.size	gEfiDiskIoProtocolGuid, 16
gEfiDiskIoProtocolGuid:
	.word	-835432079
	.half	-17909
	.half	4562
	.base64	"jk8AoMlpcjs="
	.globl	gEfiDiskIo2ProtocolGuid
	.section	.data.gEfiDiskIo2ProtocolGuid,"aw"
	.align	3
	.type	gEfiDiskIo2ProtocolGuid, @object
	.size	gEfiDiskIo2ProtocolGuid, 16
gEfiDiskIo2ProtocolGuid:
	.word	354193070
	.half	32556
	.half	18220
	.base64	"nlSYKBlPaog="
	.globl	gPcdProtocolGuid
	.section	.data.gPcdProtocolGuid,"aw"
	.align	3
	.type	gPcdProtocolGuid, @object
	.size	gPcdProtocolGuid, 16
gPcdProtocolGuid:
	.word	296960006
	.half	-10149
	.half	19722
	.base64	"opDVpXExDvc="
	.globl	gEfiPcdProtocolGuid
	.section	.data.gEfiPcdProtocolGuid,"aw"
	.align	3
	.type	gEfiPcdProtocolGuid, @object
	.size	gEfiPcdProtocolGuid, 16
gEfiPcdProtocolGuid:
	.word	329511158
	.half	9802
	.half	16112
	.base64	"8uDexRI0LzQ="
	.globl	gGetPcdInfoProtocolGuid
	.section	.data.gGetPcdInfoProtocolGuid,"aw"
	.align	3
	.type	gGetPcdInfoProtocolGuid, @object
	.size	gGetPcdInfoProtocolGuid, 16
gGetPcdInfoProtocolGuid:
	.word	1541672791
	.half	-1432
	.half	17936
	.base64	"u7/pxfza02U="
	.globl	gEfiGetPcdInfoProtocolGuid
	.section	.data.gEfiGetPcdInfoProtocolGuid,"aw"
	.align	3
	.type	gEfiGetPcdInfoProtocolGuid, @object
	.size	gEfiGetPcdInfoProtocolGuid, 16
gEfiGetPcdInfoProtocolGuid:
	.word	-49331080
	.half	3837
	.half	17949
	.base64	"ui3ljEX9X14="
	.globl	gEfiDevicePathUtilitiesProtocolGuid
	.section	.data.gEfiDevicePathUtilitiesProtocolGuid,"aw"
	.align	3
	.type	gEfiDevicePathUtilitiesProtocolGuid, @object
	.size	gEfiDevicePathUtilitiesProtocolGuid, 16
gEfiDevicePathUtilitiesProtocolGuid:
	.word	58310222
	.half	-10490
	.half	17277
	.base64	"sDftuC+3cqQ="
	.globl	gEfiDevicePathToTextProtocolGuid
	.section	.data.gEfiDevicePathToTextProtocolGuid,"aw"
	.align	3
	.type	gEfiDevicePathToTextProtocolGuid, @object
	.size	gEfiDevicePathToTextProtocolGuid, 16
gEfiDevicePathToTextProtocolGuid:
	.word	-1954267616
	.half	-32462
	.half	18514
	.base64	"kMxVGk5Kfxw="
	.globl	gEfiDevicePathFromTextProtocolGuid
	.section	.data.gEfiDevicePathFromTextProtocolGuid,"aw"
	.align	3
	.type	gEfiDevicePathFromTextProtocolGuid, @object
	.size	gEfiDevicePathFromTextProtocolGuid, 16
gEfiDevicePathFromTextProtocolGuid:
	.word	97098273
	.half	-14577
	.half	19154
	.base64	"il813zND9R4="
	.globl	gEfiDriverBindingProtocolGuid
	.section	.data.gEfiDriverBindingProtocolGuid,"aw"
	.align	3
	.type	gEfiDriverBindingProtocolGuid, @object
	.size	gEfiDriverBindingProtocolGuid, 16
gEfiDriverBindingProtocolGuid:
	.word	413151659
	.half	-19389
	.half	19738
	.base64	"pcAMCSYen3E="
	.globl	gEfiSimpleTextOutProtocolGuid
	.section	.data.gEfiSimpleTextOutProtocolGuid,"aw"
	.align	3
	.type	gEfiSimpleTextOutProtocolGuid, @object
	.size	gEfiSimpleTextOutProtocolGuid, 16
gEfiSimpleTextOutProtocolGuid:
	.word	947156930
	.half	27079
	.half	4562
	.base64	"jjkAoMlpcjs="
	.globl	gEfiGraphicsOutputProtocolGuid
	.section	.data.gEfiGraphicsOutputProtocolGuid,"aw"
	.align	3
	.type	gEfiGraphicsOutputProtocolGuid, @object
	.size	gEfiGraphicsOutputProtocolGuid, 16
gEfiGraphicsOutputProtocolGuid:
	.word	-1874679330
	.half	9180
	.half	19000
	.base64	"lvt63tCAUWo="
	.globl	gEfiHiiFontProtocolGuid
	.section	.data.gEfiHiiFontProtocolGuid,"aw"
	.align	3
	.type	gEfiHiiFontProtocolGuid, @object
	.size	gEfiHiiFontProtocolGuid, 16
gEfiHiiFontProtocolGuid:
	.word	-372619403
	.half	-31145
	.half	18428
	.base64	"l+d+1loIQyQ="
	.globl	gEfiSimpleFileSystemProtocolGuid
	.section	.data.gEfiSimpleFileSystemProtocolGuid,"aw"
	.align	3
	.type	gEfiSimpleFileSystemProtocolGuid, @object
	.size	gEfiSimpleFileSystemProtocolGuid, 16
gEfiSimpleFileSystemProtocolGuid:
	.word	-1773249758
	.half	25689
	.half	4562
	.base64	"jjkAoMlpcjs="
	.globl	gEfiUgaDrawProtocolGuid
	.section	.data.gEfiUgaDrawProtocolGuid,"aw"
	.align	3
	.type	gEfiUgaDrawProtocolGuid, @object
	.size	gEfiUgaDrawProtocolGuid, 16
gEfiUgaDrawProtocolGuid:
	.word	-1741936245
	.half	-2822
	.half	16843
	.base64	"uDh3qmiPuDk="
	.globl	gEfiComponentNameProtocolGuid
	.section	.data.gEfiComponentNameProtocolGuid,"aw"
	.align	3
	.type	gEfiComponentNameProtocolGuid, @object
	.size	gEfiComponentNameProtocolGuid, 16
gEfiComponentNameProtocolGuid:
	.word	276461356
	.half	-10783
	.half	4564
	.base64	"mkYAkCc/wU0="
	.globl	gEfiComponentName2ProtocolGuid
	.section	.data.gEfiComponentName2ProtocolGuid,"aw"
	.align	3
	.type	gEfiComponentName2ProtocolGuid, @object
	.size	gEfiComponentName2ProtocolGuid, 16
gEfiComponentName2ProtocolGuid:
	.word	1786404095
	.half	-5927
	.half	20336
	.base64	"utp1qzAlzhQ="
	.globl	gEfiDriverConfigurationProtocolGuid
	.section	.data.gEfiDriverConfigurationProtocolGuid,"aw"
	.align	3
	.type	gEfiDriverConfigurationProtocolGuid, @object
	.size	gEfiDriverConfigurationProtocolGuid, 16
gEfiDriverConfigurationProtocolGuid:
	.word	276461355
	.half	-10783
	.half	4564
	.base64	"mkYAkCc/wU0="
	.globl	gEfiDriverConfiguration2ProtocolGuid
	.section	.data.gEfiDriverConfiguration2ProtocolGuid,"aw"
	.align	3
	.type	gEfiDriverConfiguration2ProtocolGuid, @object
	.size	gEfiDriverConfiguration2ProtocolGuid, 16
gEfiDriverConfiguration2ProtocolGuid:
	.word	-1076372451
	.half	9457
	.half	16601
	.base64	"gucuCbtrTr4="
	.globl	gEfiDriverDiagnosticsProtocolGuid
	.section	.data.gEfiDriverDiagnosticsProtocolGuid,"aw"
	.align	3
	.type	gEfiDriverDiagnosticsProtocolGuid, @object
	.size	gEfiDriverDiagnosticsProtocolGuid, 16
gEfiDriverDiagnosticsProtocolGuid:
	.word	126128719
	.half	-7530
	.half	4564
	.base64	"mkkAkCc/wU0="
	.globl	gEfiDriverDiagnostics2ProtocolGuid
	.section	.data.gEfiDriverDiagnostics2ProtocolGuid,"aw"
	.align	3
	.type	gEfiDriverDiagnostics2ProtocolGuid, @object
	.size	gEfiDriverDiagnostics2ProtocolGuid, 16
gEfiDriverDiagnostics2ProtocolGuid:
	.word	1295188769
	.half	607
	.half	19116
	.base64	"kNhe2QAXO2M="
	.globl	gEfiLoadedImageProtocolGuid
	.section	.data.gEfiLoadedImageProtocolGuid,"aw"
	.align	3
	.type	gEfiLoadedImageProtocolGuid, @object
	.size	gEfiLoadedImageProtocolGuid, 16
gEfiLoadedImageProtocolGuid:
	.word	1528508833
	.half	-27294
	.half	4562
	.base64	"jj8AoMlpcjs="
	.globl	_gPcd_SkuId_Array
	.section	.bss._gPcd_SkuId_Array,"aw",@nobits
	.align	3
	.type	_gPcd_SkuId_Array, @object
	.size	_gPcd_SkuId_Array, 8
_gPcd_SkuId_Array:
	.zero	8
	.globl	_gPcd_FixedAtBuild_PcdVerifyNodeInList
	.section	.rodata._gPcd_FixedAtBuild_PcdVerifyNodeInList,"a"
	.type	_gPcd_FixedAtBuild_PcdVerifyNodeInList, @object
	.size	_gPcd_FixedAtBuild_PcdVerifyNodeInList, 1
_gPcd_FixedAtBuild_PcdVerifyNodeInList:
	.zero	1
	.globl	_gPcd_FixedAtBuild_PcdMaximumLinkedListLength
	.section	.rodata._gPcd_FixedAtBuild_PcdMaximumLinkedListLength,"a"
	.align	2
	.type	_gPcd_FixedAtBuild_PcdMaximumLinkedListLength, @object
	.size	_gPcd_FixedAtBuild_PcdMaximumLinkedListLength, 4
_gPcd_FixedAtBuild_PcdMaximumLinkedListLength:
	.word	1000000
	.globl	_gPcd_FixedAtBuild_PcdMaximumAsciiStringLength
	.section	.rodata._gPcd_FixedAtBuild_PcdMaximumAsciiStringLength,"a"
	.align	2
	.type	_gPcd_FixedAtBuild_PcdMaximumAsciiStringLength, @object
	.size	_gPcd_FixedAtBuild_PcdMaximumAsciiStringLength, 4
_gPcd_FixedAtBuild_PcdMaximumAsciiStringLength:
	.word	1000000
	.globl	_gPcd_FixedAtBuild_PcdMaximumUnicodeStringLength
	.section	.rodata._gPcd_FixedAtBuild_PcdMaximumUnicodeStringLength,"a"
	.align	2
	.type	_gPcd_FixedAtBuild_PcdMaximumUnicodeStringLength, @object
	.size	_gPcd_FixedAtBuild_PcdMaximumUnicodeStringLength, 4
_gPcd_FixedAtBuild_PcdMaximumUnicodeStringLength:
	.word	1000000
	.globl	_gPcd_FixedAtBuild_PcdControlFlowEnforcementPropertyMask
	.section	.rodata._gPcd_FixedAtBuild_PcdControlFlowEnforcementPropertyMask,"a"
	.align	2
	.type	_gPcd_FixedAtBuild_PcdControlFlowEnforcementPropertyMask, @object
	.size	_gPcd_FixedAtBuild_PcdControlFlowEnforcementPropertyMask, 4
_gPcd_FixedAtBuild_PcdControlFlowEnforcementPropertyMask:
	.zero	4
	.globl	_gPcd_FixedAtBuild_PcdSpeculationBarrierType
	.section	.rodata._gPcd_FixedAtBuild_PcdSpeculationBarrierType,"a"
	.type	_gPcd_FixedAtBuild_PcdSpeculationBarrierType, @object
	.size	_gPcd_FixedAtBuild_PcdSpeculationBarrierType, 1
_gPcd_FixedAtBuild_PcdSpeculationBarrierType:
	.byte	1
	.globl	_gPcd_FixedAtBuild_PcdDebugPrintErrorLevel
	.section	.rodata._gPcd_FixedAtBuild_PcdDebugPrintErrorLevel,"a"
	.align	2
	.type	_gPcd_FixedAtBuild_PcdDebugPrintErrorLevel, @object
	.size	_gPcd_FixedAtBuild_PcdDebugPrintErrorLevel, 4
_gPcd_FixedAtBuild_PcdDebugPrintErrorLevel:
	.word	-2147483577
	.globl	_gPcd_FixedAtBuild_PcdDebugClearMemoryValue
	.section	.rodata._gPcd_FixedAtBuild_PcdDebugClearMemoryValue,"a"
	.type	_gPcd_FixedAtBuild_PcdDebugClearMemoryValue, @object
	.size	_gPcd_FixedAtBuild_PcdDebugClearMemoryValue, 1
_gPcd_FixedAtBuild_PcdDebugClearMemoryValue:
	.byte	-81
	.globl	_gPcd_FixedAtBuild_PcdDebugPropertyMask
	.section	.rodata._gPcd_FixedAtBuild_PcdDebugPropertyMask,"a"
	.type	_gPcd_FixedAtBuild_PcdDebugPropertyMask, @object
	.size	_gPcd_FixedAtBuild_PcdDebugPropertyMask, 1
_gPcd_FixedAtBuild_PcdDebugPropertyMask:
	.byte	47
	.globl	_gPcd_FixedAtBuild_PcdFixedDebugPrintErrorLevel
	.section	.rodata._gPcd_FixedAtBuild_PcdFixedDebugPrintErrorLevel,"a"
	.align	2
	.type	_gPcd_FixedAtBuild_PcdFixedDebugPrintErrorLevel, @object
	.size	_gPcd_FixedAtBuild_PcdFixedDebugPrintErrorLevel, 4
_gPcd_FixedAtBuild_PcdFixedDebugPrintErrorLevel:
	.word	-1
	.globl	_gPcd_FixedAtBuild_PcdMaximumDevicePathNodeCount
	.section	.rodata._gPcd_FixedAtBuild_PcdMaximumDevicePathNodeCount,"a"
	.align	2
	.type	_gPcd_FixedAtBuild_PcdMaximumDevicePathNodeCount, @object
	.size	_gPcd_FixedAtBuild_PcdMaximumDevicePathNodeCount, 4
_gPcd_FixedAtBuild_PcdMaximumDevicePathNodeCount:
	.zero	4
	.globl	_gPcd_FixedAtBuild_PcdDriverDiagnosticsDisable
	.section	.rodata._gPcd_FixedAtBuild_PcdDriverDiagnosticsDisable,"a"
	.type	_gPcd_FixedAtBuild_PcdDriverDiagnosticsDisable, @object
	.size	_gPcd_FixedAtBuild_PcdDriverDiagnosticsDisable, 1
_gPcd_FixedAtBuild_PcdDriverDiagnosticsDisable:
	.zero	1
	.globl	_gPcd_FixedAtBuild_PcdComponentNameDisable
	.section	.rodata._gPcd_FixedAtBuild_PcdComponentNameDisable,"a"
	.type	_gPcd_FixedAtBuild_PcdComponentNameDisable, @object
	.size	_gPcd_FixedAtBuild_PcdComponentNameDisable, 1
_gPcd_FixedAtBuild_PcdComponentNameDisable:
	.zero	1
	.globl	_gPcd_FixedAtBuild_PcdDriverDiagnostics2Disable
	.section	.rodata._gPcd_FixedAtBuild_PcdDriverDiagnostics2Disable,"a"
	.type	_gPcd_FixedAtBuild_PcdDriverDiagnostics2Disable, @object
	.size	_gPcd_FixedAtBuild_PcdDriverDiagnostics2Disable, 1
_gPcd_FixedAtBuild_PcdDriverDiagnostics2Disable:
	.zero	1
	.globl	_gPcd_FixedAtBuild_PcdComponentName2Disable
	.section	.rodata._gPcd_FixedAtBuild_PcdComponentName2Disable,"a"
	.type	_gPcd_FixedAtBuild_PcdComponentName2Disable, @object
	.size	_gPcd_FixedAtBuild_PcdComponentName2Disable, 1
_gPcd_FixedAtBuild_PcdComponentName2Disable:
	.zero	1
	.globl	_gPcd_FixedAtBuild_PcdUgaConsumeSupport
	.section	.rodata._gPcd_FixedAtBuild_PcdUgaConsumeSupport,"a"
	.type	_gPcd_FixedAtBuild_PcdUgaConsumeSupport, @object
	.size	_gPcd_FixedAtBuild_PcdUgaConsumeSupport, 1
_gPcd_FixedAtBuild_PcdUgaConsumeSupport:
	.byte	1
	.globl	_gPcd_FixedAtBuild_PcdUefiLibMaxPrintBufferSize
	.section	.rodata._gPcd_FixedAtBuild_PcdUefiLibMaxPrintBufferSize,"a"
	.align	2
	.type	_gPcd_FixedAtBuild_PcdUefiLibMaxPrintBufferSize, @object
	.size	_gPcd_FixedAtBuild_PcdUefiLibMaxPrintBufferSize, 4
_gPcd_FixedAtBuild_PcdUefiLibMaxPrintBufferSize:
	.word	320
	.section	.text.ProcessLibraryConstructorList,"ax",@progbits
	.align	1
	.globl	ProcessLibraryConstructorList
	.type	ProcessLibraryConstructorList, @function
ProcessLibraryConstructorList:
.LFB0:
	.file 1 "/home/kapoagaeming/Downloads/spacemit-image-builder/components/Build/Milk-V-Jupiter/RELEASE_GCC5/RISCV64/MdeModulePkg/Universal/Disk/PartitionDxe/PartitionDxe/DEBUG/AutoGen.c"
	.loc 1 259 1
	.cfi_startproc
	addi	sp,sp,-48
	.cfi_def_cfa_offset 48
	sd	ra,40(sp)
	sd	s0,32(sp)
	.cfi_offset 1, -8
	.cfi_offset 8, -16
	addi	s0,sp,48
	.cfi_def_cfa 8, 0
	sd	a0,-40(s0)
	sd	a1,-48(s0)
	.loc 1 262 12
	call	BaseDebugLibSerialPortConstructor@plt
	sd	a0,-24(s0)
	.loc 1 265 12
	ld	a1,-48(s0)
	ld	a0,-40(s0)
	call	UefiBootServicesTableLibConstructor@plt
	sd	a0,-24(s0)
	.loc 1 268 12
	ld	a1,-48(s0)
	ld	a0,-40(s0)
	call	UefiRuntimeServicesTableLibConstructor@plt
	sd	a0,-24(s0)
	.loc 1 271 12
	ld	a1,-48(s0)
	ld	a0,-40(s0)
	call	DevicePathLibConstructor@plt
	sd	a0,-24(s0)
	.loc 1 274 12
	ld	a1,-48(s0)
	ld	a0,-40(s0)
	call	UefiLibConstructor@plt
	sd	a0,-24(s0)
	.loc 1 277 1
	nop
	ld	ra,40(sp)
	.cfi_restore 1
	ld	s0,32(sp)
	.cfi_restore 8
	.cfi_def_cfa 2, 48
	addi	sp,sp,48
	.cfi_def_cfa_offset 0
	jr	ra
	.cfi_endproc
.LFE0:
	.size	ProcessLibraryConstructorList, .-ProcessLibraryConstructorList
	.section	.text.ProcessLibraryDestructorList,"ax",@progbits
	.align	1
	.globl	ProcessLibraryDestructorList
	.type	ProcessLibraryDestructorList, @function
ProcessLibraryDestructorList:
.LFB1:
	.loc 1 287 1
	.cfi_startproc
	addi	sp,sp,-32
	.cfi_def_cfa_offset 32
	sd	ra,24(sp)
	sd	s0,16(sp)
	.cfi_offset 1, -8
	.cfi_offset 8, -16
	addi	s0,sp,32
	.cfi_def_cfa 8, 0
	sd	a0,-24(s0)
	sd	a1,-32(s0)
	.loc 1 289 1
	nop
	ld	ra,24(sp)
	.cfi_restore 1
	ld	s0,16(sp)
	.cfi_restore 8
	.cfi_def_cfa 2, 32
	addi	sp,sp,32
	.cfi_def_cfa_offset 0
	jr	ra
	.cfi_endproc
.LFE1:
	.size	ProcessLibraryDestructorList, .-ProcessLibraryDestructorList
	.globl	_gUefiDriverRevision
	.section	.rodata._gUefiDriverRevision,"a"
	.align	2
	.type	_gUefiDriverRevision, @object
	.size	_gUefiDriverRevision, 4
_gUefiDriverRevision:
	.zero	4
	.globl	_gDxeRevision
	.section	.rodata._gDxeRevision,"a"
	.align	2
	.type	_gDxeRevision, @object
	.size	_gDxeRevision, 4
_gDxeRevision:
	.zero	4
	.section	.text.ProcessModuleEntryPointList,"ax",@progbits
	.align	1
	.globl	ProcessModuleEntryPointList
	.type	ProcessModuleEntryPointList, @function
ProcessModuleEntryPointList:
.LFB2:
	.loc 1 302 1
	.cfi_startproc
	addi	sp,sp,-32
	.cfi_def_cfa_offset 32
	sd	ra,24(sp)
	sd	s0,16(sp)
	.cfi_offset 1, -8
	.cfi_offset 8, -16
	addi	s0,sp,32
	.cfi_def_cfa 8, 0
	sd	a0,-24(s0)
	sd	a1,-32(s0)
	.loc 1 303 10
	ld	a1,-32(s0)
	ld	a0,-24(s0)
	call	InitializePartition@plt
	mv	a5,a0
	.loc 1 304 1
	mv	a0,a5
	ld	ra,24(sp)
	.cfi_restore 1
	ld	s0,16(sp)
	.cfi_restore 8
	.cfi_def_cfa 2, 32
	addi	sp,sp,32
	.cfi_def_cfa_offset 0
	jr	ra
	.cfi_endproc
.LFE2:
	.size	ProcessModuleEntryPointList, .-ProcessModuleEntryPointList
	.section	.text.ExitDriver,"ax",@progbits
	.align	1
	.globl	ExitDriver
	.type	ExitDriver, @function
ExitDriver:
.LFB3:
	.loc 1 311 1
	.cfi_startproc
	addi	sp,sp,-32
	.cfi_def_cfa_offset 32
	sd	ra,24(sp)
	sd	s0,16(sp)
	.cfi_offset 1, -8
	.cfi_offset 8, -16
	addi	s0,sp,32
	.cfi_def_cfa 8, 0
	sd	a0,-24(s0)
	.loc 1 312 34
	ld	a5,-24(s0)
	.loc 1 312 6
	bge	a5,zero,.L6
	.loc 1 313 5
	la	a5,gImageHandle
	ld	a4,0(a5)
	la	a5,gST
	ld	a5,0(a5)
	mv	a1,a5
	mv	a0,a4
	call	ProcessLibraryDestructorList
.L6:
	.loc 1 315 6
	la	a5,gBS
	ld	a5,0(a5)
	ld	a5,216(a5)
	.loc 1 315 3
	la	a4,gImageHandle
	ld	a4,0(a4)
	li	a3,0
	li	a2,0
	ld	a1,-24(s0)
	mv	a0,a4
	jalr	a5
.LVL0:
	.loc 1 316 1
	nop
	ld	ra,24(sp)
	.cfi_restore 1
	ld	s0,16(sp)
	.cfi_restore 8
	.cfi_def_cfa 2, 32
	addi	sp,sp,32
	.cfi_def_cfa_offset 0
	jr	ra
	.cfi_endproc
.LFE3:
	.size	ExitDriver, .-ExitDriver
	.globl	_gDriverUnloadImageCount
	.section	.rodata._gDriverUnloadImageCount,"a"
	.type	_gDriverUnloadImageCount, @object
	.size	_gDriverUnloadImageCount, 1
_gDriverUnloadImageCount:
	.zero	1
	.section	.text.ProcessModuleUnloadList,"ax",@progbits
	.align	1
	.globl	ProcessModuleUnloadList
	.type	ProcessModuleUnloadList, @function
ProcessModuleUnloadList:
.LFB4:
	.loc 1 325 1
	.cfi_startproc
	addi	sp,sp,-32
	.cfi_def_cfa_offset 32
	sd	ra,24(sp)
	sd	s0,16(sp)
	.cfi_offset 1, -8
	.cfi_offset 8, -16
	addi	s0,sp,32
	.cfi_def_cfa 8, 0
	sd	a0,-24(s0)
	.loc 1 326 10
	li	a5,0
	.loc 1 327 1
	mv	a0,a5
	ld	ra,24(sp)
	.cfi_restore 1
	ld	s0,16(sp)
	.cfi_restore 8
	.cfi_def_cfa 2, 32
	addi	sp,sp,32
	.cfi_def_cfa_offset 0
	jr	ra
	.cfi_endproc
.LFE4:
	.size	ProcessModuleUnloadList, .-ProcessModuleUnloadList
	.text
.Letext0:
	.file 2 "/home/kapoagaeming/Downloads/spacemit-image-builder/components/edk2/MdePkg/Include/RiscV64/ProcessorBind.h"
	.file 3 "/home/kapoagaeming/Downloads/spacemit-image-builder/components/edk2/MdePkg/Include/Base.h"
	.file 4 "/home/kapoagaeming/Downloads/spacemit-image-builder/components/edk2/MdePkg/Include/Uefi/UefiBaseType.h"
	.file 5 "/home/kapoagaeming/Downloads/spacemit-image-builder/components/edk2/MdePkg/Include/Uefi/UefiMultiPhase.h"
	.file 6 "/home/kapoagaeming/Downloads/spacemit-image-builder/components/edk2/MdePkg/Include/Protocol/DevicePath.h"
	.file 7 "/home/kapoagaeming/Downloads/spacemit-image-builder/components/edk2/MdePkg/Include/Protocol/SimpleTextIn.h"
	.file 8 "/home/kapoagaeming/Downloads/spacemit-image-builder/components/edk2/MdePkg/Include/Protocol/SimpleTextOut.h"
	.file 9 "/home/kapoagaeming/Downloads/spacemit-image-builder/components/edk2/MdePkg/Include/Uefi/UefiSpec.h"
	.file 10 "/home/kapoagaeming/Downloads/spacemit-image-builder/components/Build/Milk-V-Jupiter/RELEASE_GCC5/RISCV64/MdeModulePkg/Universal/Disk/PartitionDxe/PartitionDxe/DEBUG/AutoGen.h"
	.file 11 "/home/kapoagaeming/Downloads/spacemit-image-builder/components/edk2/MdePkg/Include/Library/UefiBootServicesTableLib.h"
	.file 12 "/home/kapoagaeming/Downloads/spacemit-image-builder/components/edk2/MdePkg/Include/Library/UefiDriverEntryPoint.h"
	.section	.note.GNU-stack,"",@progbits
