	.file	"ElTorito.c"
	.option pic
	.option norelax
	.attribute arch, "rv64i2p1_m2p0_a2p1_f2p2_d2p2_c2p0_zicsr2p0_zifencei2p0_zmmul1p0_zaamo1p0_zalrsc1p0_zca1p0_zcd1p0"
	.attribute unaligned_access, 0
	.attribute stack_align, 16
	.text
.Ltext0:
	.cfi_sections	.debug_frame
	.file 0 "/home/kapoagaeming/spacemit-image-builder/components/Build/Milk-V-Jupiter/RELEASE_GCC5/RISCV64/MdeModulePkg/Universal/Disk/PartitionDxe/PartitionDxe" "/home/kapoagaeming/spacemit-image-builder/components/edk2/MdeModulePkg/Universal/Disk/PartitionDxe/ElTorito.c"
	.section	.rodata
	.align	3
.LC0:
	.string	"CD001"
	.align	3
.LC1:
	.string	"EL TORITO SPECIFICATION"
	.section	.text.PartitionInstallElToritoChildHandles,"ax",@progbits
	.align	1
	.globl	PartitionInstallElToritoChildHandles
	.type	PartitionInstallElToritoChildHandles, @function
PartitionInstallElToritoChildHandles:
.LFB0:
	.file 1 "/home/kapoagaeming/spacemit-image-builder/components/edk2/MdeModulePkg/Universal/Disk/PartitionDxe/ElTorito.c"
	.loc 1 39 1
	.cfi_startproc
	addi	sp,sp,-432
	.cfi_def_cfa_offset 432
	sd	ra,424(sp)
	sd	s0,416(sp)
	sd	s1,408(sp)
	sd	s2,400(sp)
	.cfi_offset 1, -8
	.cfi_offset 8, -16
	.cfi_offset 9, -24
	.cfi_offset 18, -32
	addi	s0,sp,432
	.cfi_def_cfa 8, 0
	sd	a0,-328(s0)
	sd	a1,-336(s0)
	sd	a2,-344(s0)
	sd	a3,-352(s0)
	sd	a4,-360(s0)
	sd	a5,-368(s0)
	sd	a6,-376(s0)
	.loc 1 58 9
	li	a5,-1
	slli	a5,a5,63
	addi	a5,a5,14
	sd	a5,-88(s0)
	.loc 1 59 9
	ld	a5,-360(s0)
	ld	a5,8(a5)
	sd	a5,-104(s0)
	.loc 1 61 16
	sw	zero,-92(s0)
	.loc 1 70 27
	ld	a5,-104(s0)
	lw	a5,12(a5)
	.loc 1 70 20
	li	a4,4096
	addiw	a4,a4,-2048
	remuw	a5,a4,a5
	sext.w	a5,a5
	.loc 1 70 6
	bne	a5,zero,.L2
	.loc 1 70 55 discriminator 1
	ld	a5,-104(s0)
	lw	a4,12(a5)
	.loc 1 70 46 discriminator 1
	li	a5,4096
	addi	a5,a5,-2048
	bleu	a4,a5,.L3
.L2:
	.loc 1 71 12
	li	a5,-1
	slli	a5,a5,63
	addi	a5,a5,14
	j	.L36
.L3:
	.loc 1 74 19
	li	a5,4096
	addi	a0,a5,-2048
	call	AllocatePool@plt
	sd	a0,-112(s0)
	.loc 1 76 6
	ld	a5,-112(s0)
	bne	a5,zero,.L5
	.loc 1 77 12
	li	a5,-1
	slli	a5,a5,63
	addi	a5,a5,14
	j	.L36
.L5:
	.loc 1 80 11
	ld	a5,-112(s0)
	sd	a5,-56(s0)
	.loc 1 86 28
	li	a5,32768
	sd	a5,-64(s0)
	.loc 1 86 3
	j	.L6
.L35:
	.loc 1 90 20
	ld	a5,-344(s0)
	ld	a5,8(a5)
	.loc 1 90 14
	ld	a4,-104(s0)
	lw	a1,0(a4)
	ld	a4,-112(s0)
	li	a3,4096
	addi	a3,a3,-2048
	ld	a2,-64(s0)
	ld	a0,-344(s0)
	jalr	a5
.LVL0:
	sd	a0,-120(s0)
	.loc 1 97 36
	ld	a5,-120(s0)
	.loc 1 97 8
	bge	a5,zero,.L7
	.loc 1 98 13
	ld	a5,-120(s0)
	sd	a5,-88(s0)
	.loc 1 99 7
	j	.L8
.L7:
	.loc 1 105 32
	ld	a5,-112(s0)
	lbu	a5,0(a5)
	.loc 1 105 8
	mv	a4,a5
	li	a5,255
	beq	a4,a5,.L8
	.loc 1 106 44
	ld	a5,-112(s0)
	addi	a5,a5,1
	.loc 1 106 10
	li	a2,5
	lla	a1,.LC0
	mv	a0,a5
	call	CompareMem@plt
	mv	a5,a0
	.loc 1 105 47 discriminator 1
	bne	a5,zero,.L8
	.loc 1 119 37
	ld	a5,-112(s0)
	lbu	a5,0(a5)
	.loc 1 119 8
	mv	a4,a5
	li	a5,1
	bne	a4,a5,.L9
	.loc 1 120 20
	ld	a5,-112(s0)
	lbu	a4,80(a5)
	lbu	a3,81(a5)
	slli	a3,a3,8
	or	a4,a3,a4
	lbu	a3,82(a5)
	slli	a3,a3,16
	or	a4,a3,a4
	lbu	a5,83(a5)
	slli	a5,a5,24
	or	a5,a5,a4
	sw	a5,-92(s0)
.L9:
	.loc 1 126 52
	ld	a5,-112(s0)
	addi	a5,a5,7
	.loc 1 126 9
	li	a2,23
	lla	a1,.LC1
	mv	a0,a5
	call	CompareMem@plt
	mv	a5,a0
	.loc 1 126 8 discriminator 1
	bne	a5,zero,.L38
	.loc 1 134 78
	ld	a5,-112(s0)
	lbu	a5,71(a5)
	.loc 1 134 82
	sext.w	a4,a5
	.loc 1 134 145
	ld	a5,-112(s0)
	lbu	a5,72(a5)
	sext.w	a5,a5
	.loc 1 134 149
	slliw	a5,a5,8
	sext.w	a5,a5
	.loc 1 134 88
	or	a5,a4,a5
	sext.w	a4,a5
	.loc 1 134 212
	ld	a5,-112(s0)
	lbu	a5,73(a5)
	sext.w	a5,a5
	.loc 1 134 216
	slliw	a5,a5,16
	sext.w	a5,a5
	.loc 1 134 155
	or	a5,a4,a5
	sext.w	a4,a5
	.loc 1 134 280
	ld	a5,-112(s0)
	lbu	a5,74(a5)
	sext.w	a5,a5
	.loc 1 134 284
	slliw	a5,a5,24
	sext.w	a5,a5
	.loc 1 134 14
	or	a5,a4,a5
	sext.w	a5,a5
	.loc 1 134 12
	sw	a5,-124(s0)
	.loc 1 136 37
	ld	a5,-104(s0)
	lw	a5,12(a5)
	.loc 1 136 30
	li	a4,4096
	addiw	a4,a4,-2048
	divuw	a5,a4,a5
	sext.w	a5,a5
	.loc 1 136 16
	lw	a4,-124(s0)
	mulw	a5,a4,a5
	sext.w	a5,a5
	slli	a4,a5,32
	srli	a4,a4,32
	.loc 1 136 57
	ld	a5,-104(s0)
	ld	a5,24(a5)
	.loc 1 136 8
	bgtu	a4,a5,.L39
	.loc 1 140 20
	ld	a5,-344(s0)
	ld	s1,8(a5)
	.loc 1 140 14
	ld	a5,-104(s0)
	lw	s2,0(a5)
	lwu	a4,-124(s0)
	li	a5,4096
	addi	a1,a5,-2048
	mv	a0,a4
	call	MultU64x32@plt
	mv	a2,a0
	.loc 1 140 14 is_stmt 0 discriminator 1
	ld	a4,-56(s0)
	li	a5,4096
	addi	a3,a5,-2048
	mv	a1,s2
	ld	a0,-344(s0)
	jalr	s1
.LVL1:
	sd	a0,-120(s0)
	.loc 1 147 36 is_stmt 1
	ld	a5,-120(s0)
	.loc 1 147 8
	blt	a5,zero,.L40
	.loc 1 156 26
	ld	a5,-56(s0)
	lbu	a5,0(a5)
	.loc 1 156 8
	mv	a4,a5
	li	a5,1
	bne	a4,a5,.L41
	.loc 1 156 66 discriminator 1
	ld	a5,-56(s0)
	lbu	a4,30(a5)
	lbu	a5,31(a5)
	slli	a5,a5,8
	or	a5,a5,a4
	slli	a5,a5,48
	srli	a5,a5,48
	.loc 1 156 46 discriminator 1
	sext.w	a4,a5
	li	a5,45056
	addi	a5,a5,-1451
	bne	a4,a5,.L41
	.loc 1 161 11
	sd	zero,-48(s0)
	.loc 1 162 17
	ld	a5,-56(s0)
	sd	a5,-136(s0)
	.loc 1 163 16
	sd	zero,-40(s0)
	.loc 1 163 5
	j	.L16
.L17:
	.loc 1 164 27
	ld	a5,-40(s0)
	slli	a5,a5,1
	ld	a4,-136(s0)
	add	a5,a4,a5
	lhu	a5,0(a5)
	mv	a4,a5
	.loc 1 164 13
	ld	a5,-48(s0)
	add	a5,a5,a4
	sd	a5,-48(s0)
	.loc 1 163 80 discriminator 3
	ld	a5,-40(s0)
	addi	a5,a5,1
	sd	a5,-40(s0)
.L16:
	.loc 1 163 27 discriminator 1
	ld	a4,-40(s0)
	li	a5,15
	bleu	a4,a5,.L17
	.loc 1 167 16
	ld	a5,-48(s0)
	slli	a5,a5,48
	srli	a5,a5,48
	.loc 1 167 8
	bne	a5,zero,.L42
	.loc 1 172 21
	ld	a5,-104(s0)
	lw	a5,12(a5)
	.loc 1 172 33
	srliw	a5,a5,5
	sext.w	a5,a5
	.loc 1 172 14
	slli	a5,a5,32
	srli	a5,a5,32
	sd	a5,-144(s0)
	.loc 1 173 16
	li	a5,1
	sd	a5,-40(s0)
	.loc 1 173 31
	li	a5,1
	sd	a5,-72(s0)
	.loc 1 173 5
	j	.L19
.L34:
	.loc 1 177 15
	ld	a5,-56(s0)
	addi	a5,a5,32
	sd	a5,-56(s0)
	.loc 1 182 25
	ld	a5,-56(s0)
	lbu	a5,0(a5)
	.loc 1 182 10
	mv	a4,a5
	li	a5,136
	bne	a4,a5,.L43
	.loc 1 182 62 discriminator 2
	ld	a5,-56(s0)
	lbu	a4,8(a5)
	lbu	a3,9(a5)
	slli	a3,a3,8
	or	a4,a3,a4
	lbu	a3,10(a5)
	slli	a3,a3,16
	or	a4,a3,a4
	lbu	a5,11(a5)
	slli	a5,a5,24
	or	a5,a5,a4
	sext.w	a5,a5
	.loc 1 182 45 discriminator 2
	beq	a5,zero,.L43
	.loc 1 186 20
	li	a5,512
	sw	a5,-76(s0)
	.loc 1 187 34
	ld	a5,-56(s0)
	lbu	a4,6(a5)
	lbu	a5,7(a5)
	slli	a5,a5,8
	or	a5,a5,a4
	slli	a5,a5,48
	srli	a5,a5,48
	.loc 1 187 19
	sw	a5,-80(s0)
	.loc 1 189 28
	ld	a5,-56(s0)
	lbu	a5,1(a5)
	andi	a5,a5,15
	andi	a5,a5,0xff
	sext.w	a5,a5
	.loc 1 189 7
	li	a4,4
	beq	a5,a4,.L44
	li	a4,4
	bgt	a5,a4,.L37
	li	a4,3
	beq	a5,a4,.L25
	li	a4,3
	bgt	a5,a4,.L37
	li	a4,2
	beq	a5,a4,.L26
	li	a4,2
	bgt	a5,a4,.L37
	beq	a5,zero,.L27
	li	a4,1
	beq	a5,a4,.L28
	j	.L37
.L27:
	.loc 1 191 24
	ld	a5,-104(s0)
	lw	a5,12(a5)
	sw	a5,-76(s0)
	.loc 1 192 11
	j	.L29
.L28:
	.loc 1 198 23
	li	a5,4096
	addi	a5,a5,-1696
	sw	a5,-80(s0)
	.loc 1 199 11
	j	.L29
.L26:
	.loc 1 202 23
	li	a5,4096
	addi	a5,a5,-1216
	sw	a5,-80(s0)
	.loc 1 203 11
	j	.L29
.L25:
	.loc 1 206 23
	li	a5,4096
	addi	a5,a5,1664
	sw	a5,-80(s0)
	.loc 1 207 11
	j	.L29
.L37:
	.loc 1 211 23
	sw	zero,-80(s0)
	.loc 1 212 24
	ld	a5,-104(s0)
	lw	a5,12(a5)
	sw	a5,-76(s0)
	.loc 1 213 11
	j	.L29
.L44:
	.loc 1 195 11
	nop
.L29:
	.loc 1 219 25
	li	a5,4
	sb	a5,-168(s0)
	.loc 1 220 28
	li	a5,2
	sb	a5,-167(s0)
	.loc 1 221 7
	addi	a5,s0,-168
	li	a1,24
	mv	a0,a5
	call	SetDevicePathNodeLength@plt
	.loc 1 223 10
	ld	a4,-40(s0)
	li	a5,1
	bne	a4,a5,.L30
	.loc 1 227 19
	sd	zero,-72(s0)
.L30:
	.loc 1 230 25
	ld	a5,-72(s0)
	sext.w	a5,a5
	.loc 1 230 23
	sw	a5,-164(s0)
	.loc 1 231 16
	ld	a5,-72(s0)
	addi	a5,a5,1
	sd	a5,-72(s0)
	.loc 1 232 43
	ld	a5,-56(s0)
	lbu	a4,8(a5)
	lbu	a3,9(a5)
	slli	a3,a3,8
	or	a4,a3,a4
	lbu	a3,10(a5)
	slli	a3,a3,16
	or	a4,a3,a4
	lbu	a5,11(a5)
	slli	a5,a5,24
	or	a5,a5,a4
	sext.w	a4,a5
	.loc 1 232 69
	ld	a5,-104(s0)
	lw	a5,12(a5)
	.loc 1 232 62
	li	a3,4096
	addiw	a3,a3,-2048
	divuw	a5,a3,a5
	sext.w	a5,a5
	.loc 1 232 48
	mulw	a5,a4,a5
	sext.w	a5,a5
	slli	a5,a5,32
	srli	a5,a5,32
	.loc 1 232 28
	sd	a5,-160(s0)
	.loc 1 233 10
	lw	a5,-80(s0)
	sext.w	a4,a5
	li	a5,1
	bgtu	a4,a5,.L31
	.loc 1 237 47
	ld	a5,-104(s0)
	lw	a5,12(a5)
	.loc 1 237 40
	li	a4,4096
	addiw	a4,a4,-2048
	divuw	a5,a4,a5
	sext.w	a5,a5
	.loc 1 237 26
	lw	a4,-92(s0)
	mulw	a5,a4,a5
	sext.w	a5,a5
	slli	a4,a5,32
	srli	a4,a4,32
	.loc 1 237 68
	ld	a5,-104(s0)
	ld	a5,24(a5)
	.loc 1 237 80
	addi	a5,a5,1
	.loc 1 237 12
	bleu	a4,a5,.L32
	.loc 1 238 47
	ld	a5,-104(s0)
	ld	a5,24(a5)
	.loc 1 238 59
	sext.w	a4,a5
	.loc 1 238 74
	ld	a5,-56(s0)
	lbu	a3,8(a5)
	lbu	a2,9(a5)
	slli	a2,a2,8
	or	a3,a2,a3
	lbu	a2,10(a5)
	slli	a2,a2,16
	or	a3,a2,a3
	lbu	a5,11(a5)
	slli	a5,a5,24
	or	a5,a5,a3
	sext.w	a3,a5
	.loc 1 238 100
	ld	a5,-104(s0)
	lw	a5,12(a5)
	.loc 1 238 93
	li	a2,4096
	addiw	a2,a2,-2048
	divuw	a5,a2,a5
	sext.w	a5,a5
	.loc 1 238 79
	mulw	a5,a3,a5
	sext.w	a5,a5
	.loc 1 238 59
	subw	a5,a4,a5
	sext.w	a5,a5
	.loc 1 238 33
	addiw	a5,a5,1
	sext.w	a5,a5
	slli	a5,a5,32
	srli	a5,a5,32
	.loc 1 238 31
	sd	a5,-152(s0)
	j	.L33
.L32:
	.loc 1 240 70
	ld	a5,-56(s0)
	lbu	a4,8(a5)
	lbu	a3,9(a5)
	slli	a3,a3,8
	or	a4,a3,a4
	lbu	a3,10(a5)
	slli	a3,a3,16
	or	a4,a3,a4
	lbu	a5,11(a5)
	slli	a5,a5,24
	or	a5,a5,a4
	sext.w	a5,a5
	.loc 1 240 55
	lw	a4,-92(s0)
	subw	a5,a4,a5
	sext.w	a4,a5
	.loc 1 240 97
	ld	a5,-104(s0)
	lw	a5,12(a5)
	.loc 1 240 90
	li	a3,4096
	addiw	a3,a3,-2048
	divuw	a5,a3,a5
	sext.w	a5,a5
	.loc 1 240 76
	mulw	a5,a4,a5
	sext.w	a5,a5
	slli	a5,a5,32
	srli	a5,a5,32
	.loc 1 240 31
	sd	a5,-152(s0)
	j	.L33
.L31:
	.loc 1 245 68
	ld	a5,-104(s0)
	lw	a5,12(a5)
	.loc 1 245 61
	li	a4,4096
	addiw	a4,a4,-2048
	divuw	a5,a4,a5
	sext.w	a5,a5
	.loc 1 245 47
	lw	a4,-80(s0)
	mulw	a5,a4,a5
	sext.w	a5,a5
	.loc 1 244 33
	slli	a5,a5,32
	srli	a5,a5,32
	lw	a4,-76(s0)
	mv	a1,a4
	mv	a0,a5
	call	MultU64x32@plt
	mv	a4,a0
	.loc 1 247 44
	ld	a5,-104(s0)
	lw	a5,12(a5)
	slli	a5,a5,32
	srli	a5,a5,32
	.loc 1 247 37
	add	a5,a4,a5
	.loc 1 243 31
	addi	a4,a5,-1
	ld	a5,-104(s0)
	lw	a5,12(a5)
	mv	a1,a5
	mv	a0,a4
	call	DivU64x32@plt
	mv	a5,a0
	.loc 1 243 29 discriminator 1
	sd	a5,-152(s0)
.L33:
	.loc 1 252 7
	addi	a5,s0,-312
	li	a1,144
	mv	a0,a5
	call	ZeroMem@plt
	.loc 1 253 30
	li	a5,4096
	sw	a5,-312(s0)
	.loc 1 254 26
	sw	zero,-308(s0)
	.loc 1 266 31
	ld	a5,-56(s0)
	lbu	a4,8(a5)
	lbu	a3,9(a5)
	slli	a3,a3,8
	or	a4,a3,a4
	lbu	a3,10(a5)
	slli	a3,a3,16
	or	a4,a3,a4
	lbu	a5,11(a5)
	slli	a5,a5,24
	or	a5,a5,a4
	sext.w	a4,a5
	.loc 1 266 57
	ld	a5,-104(s0)
	lw	a5,12(a5)
	.loc 1 266 50
	li	a3,4096
	addiw	a3,a3,-2048
	divuw	a5,a3,a5
	sext.w	a5,a5
	.loc 1 266 36
	mulw	a5,a4,a5
	sext.w	a5,a5
	.loc 1 256 16
	slli	a4,a5,32
	srli	a4,a4,32
	.loc 1 267 31
	ld	a5,-56(s0)
	lbu	a3,8(a5)
	lbu	a2,9(a5)
	slli	a2,a2,8
	or	a3,a2,a3
	lbu	a2,10(a5)
	slli	a2,a2,16
	or	a3,a2,a3
	lbu	a5,11(a5)
	slli	a5,a5,24
	or	a5,a5,a3
	sext.w	a3,a5
	.loc 1 267 57
	ld	a5,-104(s0)
	lw	a5,12(a5)
	.loc 1 267 50
	li	a2,4096
	addiw	a2,a2,-2048
	divuw	a5,a2,a5
	sext.w	a5,a5
	.loc 1 267 36
	mulw	a5,a3,a5
	sext.w	a5,a5
	slli	a3,a5,32
	srli	a3,a3,32
	.loc 1 267 77
	ld	a5,-152(s0)
	.loc 1 267 70
	add	a5,a3,a5
	.loc 1 267 92
	addi	a5,a5,-1
	.loc 1 256 16
	addi	a2,s0,-168
	sd	zero,32(sp)
	lw	a3,-76(s0)
	sd	a3,24(sp)
	sd	a5,16(sp)
	sd	a4,8(sp)
	addi	a5,s0,-312
	sd	a5,0(sp)
	mv	a7,a2
	ld	a6,-376(s0)
	ld	a5,-368(s0)
	ld	a4,-360(s0)
	ld	a3,-352(s0)
	ld	a2,-344(s0)
	ld	a1,-336(s0)
	ld	a0,-328(s0)
	call	PartitionInstallChildHandle@plt
	sd	a0,-120(s0)
	.loc 1 271 11
	ld	a5,-120(s0)
	.loc 1 271 10
	blt	a5,zero,.L22
	.loc 1 272 15
	sd	zero,-88(s0)
	j	.L22
.L43:
	.loc 1 183 9
	nop
.L22:
	.loc 1 173 60 discriminator 2
	ld	a5,-40(s0)
	addi	a5,a5,1
	sd	a5,-40(s0)
.L19:
	.loc 1 173 42 discriminator 1
	ld	a4,-40(s0)
	ld	a5,-144(s0)
	bltu	a4,a5,.L34
	j	.L11
.L38:
	.loc 1 127 7
	nop
	j	.L11
.L39:
	.loc 1 137 7
	nop
	j	.L11
.L40:
	.loc 1 149 7
	nop
	j	.L11
.L41:
	.loc 1 158 7
	nop
	j	.L11
.L42:
	.loc 1 169 7
	nop
.L11:
	.loc 1 88 28
	ld	a4,-64(s0)
	li	a5,4096
	addi	a5,a5,-2048
	add	a5,a4,a5
	sd	a5,-64(s0)
.L6:
	.loc 1 87 48
	ld	a5,-104(s0)
	ld	a4,24(a5)
	.loc 1 87 31
	ld	a5,-104(s0)
	lw	a5,12(a5)
	mv	a1,a5
	mv	a0,a4
	call	MultU64x32@plt
	mv	a4,a0
	.loc 1 87 28 discriminator 1
	ld	a5,-64(s0)
	bleu	a5,a4,.L35
.L8:
	.loc 1 277 3
	ld	a0,-112(s0)
	call	FreePool@plt
	.loc 1 279 10
	ld	a5,-88(s0)
.L36:
	.loc 1 280 1
	mv	a0,a5
	ld	ra,424(sp)
	.cfi_restore 1
	ld	s0,416(sp)
	.cfi_restore 8
	.cfi_def_cfa 2, 432
	ld	s1,408(sp)
	.cfi_restore 9
	ld	s2,400(sp)
	.cfi_restore 18
	addi	sp,sp,432
	.cfi_def_cfa_offset 0
	jr	ra
	.cfi_endproc
.LFE0:
	.size	PartitionInstallElToritoChildHandles, .-PartitionInstallElToritoChildHandles
	.text
.Letext0:
	.file 2 "/home/kapoagaeming/spacemit-image-builder/components/edk2/MdePkg/Include/RiscV64/ProcessorBind.h"
	.file 3 "/home/kapoagaeming/spacemit-image-builder/components/edk2/MdePkg/Include/Base.h"
	.file 4 "/home/kapoagaeming/spacemit-image-builder/components/edk2/MdePkg/Include/Uefi/UefiBaseType.h"
	.file 5 "/home/kapoagaeming/spacemit-image-builder/components/edk2/MdePkg/Include/Protocol/DevicePath.h"
	.file 6 "/home/kapoagaeming/spacemit-image-builder/components/edk2/MdePkg/Include/Uefi/UefiGpt.h"
	.file 7 "/home/kapoagaeming/spacemit-image-builder/components/edk2/MdePkg/Include/Protocol/BlockIo.h"
	.file 8 "/home/kapoagaeming/spacemit-image-builder/components/edk2/MdePkg/Include/Protocol/BlockIo2.h"
	.file 9 "/home/kapoagaeming/spacemit-image-builder/components/edk2/MdePkg/Include/Protocol/DriverBinding.h"
	.file 10 "/home/kapoagaeming/spacemit-image-builder/components/edk2/MdePkg/Include/Protocol/DiskIo.h"
	.file 11 "/home/kapoagaeming/spacemit-image-builder/components/edk2/MdePkg/Include/Protocol/DiskIo2.h"
	.file 12 "/home/kapoagaeming/spacemit-image-builder/components/edk2/MdePkg/Include/IndustryStandard/Mbr.h"
	.file 13 "/home/kapoagaeming/spacemit-image-builder/components/edk2/MdePkg/Include/Protocol/PartitionInfo.h"
	.file 14 "/home/kapoagaeming/spacemit-image-builder/components/edk2/MdePkg/Include/IndustryStandard/ElTorito.h"
	.file 15 "/home/kapoagaeming/spacemit-image-builder/components/edk2/MdeModulePkg/Universal/Disk/PartitionDxe/Partition.h"
	.file 16 "/home/kapoagaeming/spacemit-image-builder/components/edk2/MdePkg/Include/Library/BaseMemoryLib.h"
	.file 17 "/home/kapoagaeming/spacemit-image-builder/components/edk2/MdePkg/Include/Library/BaseLib.h"
	.file 18 "/home/kapoagaeming/spacemit-image-builder/components/edk2/MdePkg/Include/Library/DevicePathLib.h"
	.file 19 "/home/kapoagaeming/spacemit-image-builder/components/edk2/MdePkg/Include/Library/MemoryAllocationLib.h"
	.section	.note.GNU-stack,"",@progbits
