	.file	"Mbr.c"
	.option pic
	.option norelax
	.attribute arch, "rv64i2p1_m2p0_a2p1_f2p2_d2p2_c2p0_zicsr2p0_zifencei2p0_zmmul1p0_zaamo1p0_zalrsc1p0_zca1p0_zcd1p0"
	.attribute unaligned_access, 0
	.attribute stack_align, 16
	.text
.Ltext0:
	.cfi_sections	.debug_frame
	.file 0 "/home/kapoagaeming/spacemit-image-builder/components/Build/Milk-V-Jupiter/RELEASE_GCC5/RISCV64/MdeModulePkg/Universal/Disk/PartitionDxe/PartitionDxe" "/home/kapoagaeming/spacemit-image-builder/components/edk2/MdeModulePkg/Universal/Disk/PartitionDxe/Mbr.c"
	.section	.text.PartitionValidMbr,"ax",@progbits
	.align	1
	.globl	PartitionValidMbr
	.type	PartitionValidMbr, @function
PartitionValidMbr:
.LFB0:
	.file 1 "/home/kapoagaeming/spacemit-image-builder/components/edk2/MdeModulePkg/Universal/Disk/PartitionDxe/Mbr.c"
	.loc 1 38 1
	.cfi_startproc
	addi	sp,sp,-64
	.cfi_def_cfa_offset 64
	sd	ra,56(sp)
	sd	s0,48(sp)
	.cfi_offset 1, -8
	.cfi_offset 8, -16
	addi	s0,sp,64
	.cfi_def_cfa 8, 0
	sd	a0,-56(s0)
	sd	a1,-64(s0)
	.loc 1 46 10
	ld	a5,-56(s0)
	lbu	a4,510(a5)
	lbu	a5,511(a5)
	slli	a5,a5,8
	or	a5,a5,a4
	slli	a5,a5,48
	srli	a5,a5,48
	.loc 1 46 6
	sext.w	a4,a5
	li	a5,45056
	addi	a5,a5,-1451
	beq	a4,a5,.L2
	.loc 1 47 12
	li	a5,0
	j	.L3
.L2:
	.loc 1 53 12
	sb	zero,-33(s0)
	.loc 1 54 15
	sd	zero,-24(s0)
	.loc 1 54 3
	j	.L4
.L14:
	.loc 1 55 32
	ld	a4,-56(s0)
	ld	a5,-24(s0)
	addi	a5,a5,27
	slli	a5,a5,4
	add	a5,a4,a5
	lbu	a5,18(a5)
	.loc 1 55 8
	beq	a5,zero,.L15
	.loc 1 55 113 discriminator 2
	ld	a4,-56(s0)
	ld	a5,-24(s0)
	addi	a5,a5,27
	slli	a5,a5,4
	add	a5,a4,a5
	lbu	a5,26(a5)
	.loc 1 55 117 discriminator 2
	sext.w	a4,a5
	.loc 1 55 170 discriminator 2
	ld	a3,-56(s0)
	ld	a5,-24(s0)
	slli	a5,a5,4
	add	a5,a3,a5
	lbu	a5,459(a5)
	sext.w	a5,a5
	.loc 1 55 174 discriminator 2
	slliw	a5,a5,8
	sext.w	a5,a5
	.loc 1 55 123 discriminator 2
	or	a5,a4,a5
	sext.w	a4,a5
	.loc 1 55 227 discriminator 2
	ld	a3,-56(s0)
	ld	a5,-24(s0)
	slli	a5,a5,4
	add	a5,a3,a5
	lbu	a5,460(a5)
	sext.w	a5,a5
	.loc 1 55 231 discriminator 2
	slliw	a5,a5,16
	sext.w	a5,a5
	.loc 1 55 180 discriminator 2
	or	a5,a4,a5
	sext.w	a4,a5
	.loc 1 55 285 discriminator 2
	ld	a3,-56(s0)
	ld	a5,-24(s0)
	slli	a5,a5,4
	add	a5,a3,a5
	lbu	a5,461(a5)
	sext.w	a5,a5
	.loc 1 55 289 discriminator 2
	slliw	a5,a5,24
	sext.w	a5,a5
	.loc 1 55 238 discriminator 2
	or	a5,a4,a5
	sext.w	a5,a5
	.loc 1 55 54 discriminator 2
	beq	a5,zero,.L15
	.loc 1 59 14
	li	a5,1
	sb	a5,-33(s0)
	.loc 1 60 76
	ld	a4,-56(s0)
	ld	a5,-24(s0)
	addi	a5,a5,27
	slli	a5,a5,4
	add	a5,a4,a5
	lbu	a5,22(a5)
	.loc 1 60 80
	sext.w	a4,a5
	.loc 1 60 135
	ld	a3,-56(s0)
	ld	a5,-24(s0)
	slli	a5,a5,4
	add	a5,a3,a5
	lbu	a5,455(a5)
	sext.w	a5,a5
	.loc 1 60 139
	slliw	a5,a5,8
	sext.w	a5,a5
	.loc 1 60 86
	or	a5,a4,a5
	sext.w	a4,a5
	.loc 1 60 194
	ld	a3,-56(s0)
	ld	a5,-24(s0)
	slli	a5,a5,4
	add	a5,a3,a5
	lbu	a5,456(a5)
	sext.w	a5,a5
	.loc 1 60 198
	slliw	a5,a5,16
	sext.w	a5,a5
	.loc 1 60 145
	or	a5,a4,a5
	sext.w	a4,a5
	.loc 1 60 254
	ld	a3,-56(s0)
	ld	a5,-24(s0)
	slli	a5,a5,4
	add	a5,a3,a5
	lbu	a5,457(a5)
	sext.w	a5,a5
	.loc 1 60 258
	slliw	a5,a5,24
	sext.w	a5,a5
	.loc 1 60 205
	or	a5,a4,a5
	sext.w	a5,a5
	.loc 1 60 17
	sw	a5,-40(s0)
	.loc 1 61 86
	ld	a4,-56(s0)
	ld	a5,-24(s0)
	addi	a5,a5,27
	slli	a5,a5,4
	add	a5,a4,a5
	lbu	a5,26(a5)
	.loc 1 61 90
	sext.w	a4,a5
	.loc 1 61 143
	ld	a3,-56(s0)
	ld	a5,-24(s0)
	slli	a5,a5,4
	add	a5,a3,a5
	lbu	a5,459(a5)
	sext.w	a5,a5
	.loc 1 61 147
	slliw	a5,a5,8
	sext.w	a5,a5
	.loc 1 61 96
	or	a5,a4,a5
	sext.w	a4,a5
	.loc 1 61 200
	ld	a3,-56(s0)
	ld	a5,-24(s0)
	slli	a5,a5,4
	add	a5,a3,a5
	lbu	a5,460(a5)
	sext.w	a5,a5
	.loc 1 61 204
	slliw	a5,a5,16
	sext.w	a5,a5
	.loc 1 61 153
	or	a5,a4,a5
	sext.w	a4,a5
	.loc 1 61 258
	ld	a3,-56(s0)
	ld	a5,-24(s0)
	slli	a5,a5,4
	add	a5,a3,a5
	lbu	a5,461(a5)
	sext.w	a5,a5
	.loc 1 61 262
	slliw	a5,a5,24
	sext.w	a5,a5
	.loc 1 61 211
	or	a5,a4,a5
	sext.w	a5,a5
	.loc 1 61 29
	lw	a4,-40(s0)
	addw	a5,a4,a5
	sext.w	a5,a5
	.loc 1 61 15
	addiw	a5,a5,-1
	sw	a5,-44(s0)
	.loc 1 62 19
	lwu	a5,-44(s0)
	.loc 1 62 8
	ld	a4,-64(s0)
	bgeu	a4,a5,.L8
	.loc 1 77 14
	li	a5,0
	j	.L3
.L8:
	.loc 1 80 17
	ld	a5,-24(s0)
	addi	a5,a5,1
	sd	a5,-32(s0)
	.loc 1 80 5
	j	.L9
.L13:
	.loc 1 81 34
	ld	a4,-56(s0)
	ld	a5,-32(s0)
	addi	a5,a5,27
	slli	a5,a5,4
	add	a5,a4,a5
	lbu	a5,18(a5)
	.loc 1 81 10
	beq	a5,zero,.L16
	.loc 1 81 115 discriminator 2
	ld	a4,-56(s0)
	ld	a5,-32(s0)
	addi	a5,a5,27
	slli	a5,a5,4
	add	a5,a4,a5
	lbu	a5,26(a5)
	.loc 1 81 119 discriminator 2
	sext.w	a4,a5
	.loc 1 81 172 discriminator 2
	ld	a3,-56(s0)
	ld	a5,-32(s0)
	slli	a5,a5,4
	add	a5,a3,a5
	lbu	a5,459(a5)
	sext.w	a5,a5
	.loc 1 81 176 discriminator 2
	slliw	a5,a5,8
	sext.w	a5,a5
	.loc 1 81 125 discriminator 2
	or	a5,a4,a5
	sext.w	a4,a5
	.loc 1 81 229 discriminator 2
	ld	a3,-56(s0)
	ld	a5,-32(s0)
	slli	a5,a5,4
	add	a5,a3,a5
	lbu	a5,460(a5)
	sext.w	a5,a5
	.loc 1 81 233 discriminator 2
	slliw	a5,a5,16
	sext.w	a5,a5
	.loc 1 81 182 discriminator 2
	or	a5,a4,a5
	sext.w	a4,a5
	.loc 1 81 287 discriminator 2
	ld	a3,-56(s0)
	ld	a5,-32(s0)
	slli	a5,a5,4
	add	a5,a3,a5
	lbu	a5,461(a5)
	sext.w	a5,a5
	.loc 1 81 291 discriminator 2
	slliw	a5,a5,24
	sext.w	a5,a5
	.loc 1 81 240 discriminator 2
	or	a5,a4,a5
	sext.w	a5,a5
	.loc 1 81 56 discriminator 2
	beq	a5,zero,.L16
	.loc 1 85 79
	ld	a4,-56(s0)
	ld	a5,-32(s0)
	addi	a5,a5,27
	slli	a5,a5,4
	add	a5,a4,a5
	lbu	a5,22(a5)
	.loc 1 85 83
	sext.w	a4,a5
	.loc 1 85 138
	ld	a3,-56(s0)
	ld	a5,-32(s0)
	slli	a5,a5,4
	add	a5,a3,a5
	lbu	a5,455(a5)
	sext.w	a5,a5
	.loc 1 85 142
	slliw	a5,a5,8
	sext.w	a5,a5
	.loc 1 85 89
	or	a5,a4,a5
	sext.w	a4,a5
	.loc 1 85 197
	ld	a3,-56(s0)
	ld	a5,-32(s0)
	slli	a5,a5,4
	add	a5,a3,a5
	lbu	a5,456(a5)
	sext.w	a5,a5
	.loc 1 85 201
	slliw	a5,a5,16
	sext.w	a5,a5
	.loc 1 85 148
	or	a5,a4,a5
	sext.w	a4,a5
	.loc 1 85 257
	ld	a3,-56(s0)
	ld	a5,-32(s0)
	slli	a5,a5,4
	add	a5,a3,a5
	lbu	a5,457(a5)
	sext.w	a5,a5
	.loc 1 85 261
	slliw	a5,a5,24
	sext.w	a5,a5
	.loc 1 85 208
	or	a5,a4,a5
	sext.w	a5,a5
	.loc 1 85 22
	mv	a2,a5
	.loc 1 85 327
	ld	a4,-56(s0)
	ld	a5,-32(s0)
	addi	a5,a5,27
	slli	a5,a5,4
	add	a5,a4,a5
	lbu	a5,26(a5)
	.loc 1 85 331
	sext.w	a4,a5
	.loc 1 85 384
	ld	a3,-56(s0)
	ld	a5,-32(s0)
	slli	a5,a5,4
	add	a5,a3,a5
	lbu	a5,459(a5)
	sext.w	a5,a5
	.loc 1 85 388
	slliw	a5,a5,8
	sext.w	a5,a5
	.loc 1 85 337
	or	a5,a4,a5
	sext.w	a4,a5
	.loc 1 85 441
	ld	a3,-56(s0)
	ld	a5,-32(s0)
	slli	a5,a5,4
	add	a5,a3,a5
	lbu	a5,460(a5)
	sext.w	a5,a5
	.loc 1 85 445
	slliw	a5,a5,16
	sext.w	a5,a5
	.loc 1 85 394
	or	a5,a4,a5
	sext.w	a4,a5
	.loc 1 85 499
	ld	a3,-56(s0)
	ld	a5,-32(s0)
	slli	a5,a5,4
	add	a5,a3,a5
	lbu	a5,461(a5)
	sext.w	a5,a5
	.loc 1 85 503
	slliw	a5,a5,24
	sext.w	a5,a5
	.loc 1 85 452
	or	a5,a4,a5
	sext.w	a5,a5
	.loc 1 85 270
	addw	a5,a2,a5
	sext.w	a5,a5
	.loc 1 85 20
	addiw	a5,a5,-1
	sw	a5,-48(s0)
	.loc 1 86 10
	lw	a5,-48(s0)
	mv	a4,a5
	lw	a5,-40(s0)
	sext.w	a4,a4
	sext.w	a5,a5
	bltu	a4,a5,.L12
	.loc 1 86 102 discriminator 1
	ld	a4,-56(s0)
	ld	a5,-32(s0)
	addi	a5,a5,27
	slli	a5,a5,4
	add	a5,a4,a5
	lbu	a5,22(a5)
	.loc 1 86 106 discriminator 1
	sext.w	a4,a5
	.loc 1 86 161 discriminator 1
	ld	a3,-56(s0)
	ld	a5,-32(s0)
	slli	a5,a5,4
	add	a5,a3,a5
	lbu	a5,455(a5)
	sext.w	a5,a5
	.loc 1 86 165 discriminator 1
	slliw	a5,a5,8
	sext.w	a5,a5
	.loc 1 86 112 discriminator 1
	or	a5,a4,a5
	sext.w	a4,a5
	.loc 1 86 220 discriminator 1
	ld	a3,-56(s0)
	ld	a5,-32(s0)
	slli	a5,a5,4
	add	a5,a3,a5
	lbu	a5,456(a5)
	sext.w	a5,a5
	.loc 1 86 224 discriminator 1
	slliw	a5,a5,16
	sext.w	a5,a5
	.loc 1 86 171 discriminator 1
	or	a5,a4,a5
	sext.w	a4,a5
	.loc 1 86 280 discriminator 1
	ld	a3,-56(s0)
	ld	a5,-32(s0)
	slli	a5,a5,4
	add	a5,a3,a5
	lbu	a5,457(a5)
	sext.w	a5,a5
	.loc 1 86 284 discriminator 1
	slliw	a5,a5,24
	sext.w	a5,a5
	.loc 1 86 231 discriminator 1
	or	a5,a4,a5
	sext.w	a5,a5
	.loc 1 86 45 discriminator 1
	mv	a4,a5
	.loc 1 86 41 discriminator 1
	lw	a5,-44(s0)
	sext.w	a5,a5
	bltu	a5,a4,.L12
	.loc 1 90 16
	li	a5,0
	j	.L3
.L16:
	.loc 1 82 9
	nop
.L12:
	.loc 1 80 49 discriminator 2
	ld	a5,-32(s0)
	addi	a5,a5,1
	sd	a5,-32(s0)
.L9:
	.loc 1 80 38 discriminator 1
	ld	a4,-32(s0)
	li	a5,3
	ble	a4,a5,.L13
	j	.L7
.L15:
	.loc 1 56 7
	nop
.L7:
	.loc 1 54 38 discriminator 2
	ld	a5,-24(s0)
	addi	a5,a5,1
	sd	a5,-24(s0)
.L4:
	.loc 1 54 27 discriminator 1
	ld	a4,-24(s0)
	li	a5,3
	ble	a4,a5,.L14
	.loc 1 98 10
	lbu	a5,-33(s0)
.L3:
	.loc 1 99 1
	mv	a0,a5
	ld	ra,56(sp)
	.cfi_restore 1
	ld	s0,48(sp)
	.cfi_restore 8
	.cfi_def_cfa 2, 64
	addi	sp,sp,64
	.cfi_def_cfa_offset 0
	jr	ra
	.cfi_endproc
.LFE0:
	.size	PartitionValidMbr, .-PartitionValidMbr
	.section	.text.PartitionInstallMbrChildHandles,"ax",@progbits
	.align	1
	.globl	PartitionInstallMbrChildHandles
	.type	PartitionInstallMbrChildHandles, @function
PartitionInstallMbrChildHandles:
.LFB1:
	.loc 1 127 1
	.cfi_startproc
	addi	sp,sp,-448
	.cfi_def_cfa_offset 448
	sd	ra,440(sp)
	sd	s0,432(sp)
	sd	s1,424(sp)
	.cfi_offset 1, -8
	.cfi_offset 8, -16
	.cfi_offset 9, -24
	addi	s0,sp,448
	.cfi_def_cfa 8, 0
	sd	a0,-344(s0)
	sd	a1,-352(s0)
	sd	a2,-360(s0)
	sd	a3,-368(s0)
	sd	a4,-376(s0)
	sd	a5,-384(s0)
	sd	a6,-392(s0)
	.loc 1 142 9
	li	a5,-1
	slli	a5,a5,63
	addi	a5,a5,14
	sd	a5,-48(s0)
	.loc 1 144 22
	ld	a5,-376(s0)
	ld	a5,8(a5)
	.loc 1 144 13
	lw	a5,12(a5)
	sw	a5,-68(s0)
	.loc 1 145 20
	ld	a5,-376(s0)
	ld	a5,8(a5)
	.loc 1 145 11
	lw	a5,0(a5)
	sw	a5,-72(s0)
	.loc 1 147 37
	ld	a5,-376(s0)
	ld	a5,8(a5)
	.loc 1 147 44
	ld	a5,24(a5)
	.loc 1 147 56
	addi	a5,a5,1
	.loc 1 146 16
	lw	a4,-68(s0)
	mv	a1,a4
	mv	a0,a5
	call	MultU64x32@plt
	mv	a5,a0
	.loc 1 146 16 is_stmt 0 discriminator 1
	li	a1,512
	mv	a0,a5
	call	DivU64x32@plt
	mv	a5,a0
	.loc 1 146 14 is_stmt 1 discriminator 2
	addi	a5,a5,-1
	sd	a5,-80(s0)
	.loc 1 154 6
	lw	a5,-68(s0)
	sext.w	a4,a5
	li	a5,511
	bgtu	a4,a5,.L18
	.loc 1 155 12
	li	a5,-1
	slli	a5,a5,63
	addi	a5,a5,14
	j	.L50
.L18:
	.loc 1 158 9
	lwu	a5,-68(s0)
	mv	a0,a5
	call	AllocatePool@plt
	sd	a0,-88(s0)
	.loc 1 159 6
	ld	a5,-88(s0)
	bne	a5,zero,.L20
	.loc 1 160 12
	ld	a5,-48(s0)
	j	.L50
.L20:
	.loc 1 163 18
	ld	a5,-360(s0)
	ld	a5,8(a5)
	.loc 1 163 12
	lwu	a3,-68(s0)
	lw	a1,-72(s0)
	ld	a4,-88(s0)
	li	a2,0
	ld	a0,-360(s0)
	jalr	a5
.LVL0:
	sd	a0,-96(s0)
	.loc 1 170 34
	ld	a5,-96(s0)
	.loc 1 170 6
	bge	a5,zero,.L21
	.loc 1 171 11
	ld	a5,-96(s0)
	sd	a5,-48(s0)
	.loc 1 172 5
	j	.L22
.L21:
	.loc 1 175 8
	ld	a1,-80(s0)
	ld	a0,-88(s0)
	call	PartitionValidMbr
	mv	a5,a0
	.loc 1 175 6 discriminator 1
	beq	a5,zero,.L51
	.loc 1 185 22
	sd	zero,-64(s0)
	.loc 1 186 3
	addi	a5,s0,-192
	li	a1,42
	mv	a0,a5
	call	ZeroMem@plt
	.loc 1 187 18
	ld	a5,-392(s0)
	sd	a5,-56(s0)
	.loc 1 188 9
	j	.L24
.L25:
	.loc 1 189 24
	ld	a5,-56(s0)
	sd	a5,-64(s0)
	.loc 1 190 22
	ld	a0,-56(s0)
	call	NextDevicePathNode@plt
	sd	a0,-56(s0)
.L24:
	.loc 1 188 11
	ld	a0,-56(s0)
	call	IsDevicePathEnd@plt
	mv	a5,a0
	.loc 1 188 10 discriminator 1
	beq	a5,zero,.L25
	.loc 1 193 6
	ld	a5,-64(s0)
	beq	a5,zero,.L26
	.loc 1 194 10
	ld	a0,-64(s0)
	call	DevicePathType@plt
	mv	a5,a0
	.loc 1 194 8 discriminator 1
	mv	a4,a5
	li	a5,4
	bne	a4,a5,.L27
	.loc 1 195 10
	ld	a0,-64(s0)
	call	DevicePathSubType@plt
	mv	a5,a0
	.loc 1 194 55 discriminator 2
	mv	a4,a5
	li	a5,1
	bne	a4,a5,.L27
	.loc 1 198 7
	addi	a5,s0,-192
	li	a2,42
	ld	a1,-64(s0)
	mv	a0,a5
	call	CopyMem@plt
	j	.L26
.L27:
	.loc 1 200 26
	sd	zero,-64(s0)
.L26:
	.loc 1 204 3
	addi	a5,s0,-144
	li	a1,42
	mv	a0,a5
	call	ZeroMem@plt
	.loc 1 205 21
	li	a5,4
	sb	a5,-144(s0)
	.loc 1 206 24
	li	a5,1
	sb	a5,-143(s0)
	.loc 1 207 3
	addi	a5,s0,-144
	li	a1,42
	mv	a0,a5
	call	SetDevicePathNodeLength@plt
	.loc 1 208 17
	li	a5,1
	sb	a5,-104(s0)
	.loc 1 209 23
	li	a5,1
	sb	a5,-103(s0)
	.loc 1 211 6
	ld	a5,-64(s0)
	bne	a5,zero,.L28
	.loc 1 215 16
	sw	zero,-40(s0)
	.loc 1 215 5
	j	.L29
.L37:
	.loc 1 216 33
	ld	a4,-88(s0)
	lwu	a5,-40(s0)
	addi	a5,a5,27
	slli	a5,a5,4
	add	a5,a4,a5
	lbu	a5,18(a5)
	.loc 1 216 10
	beq	a5,zero,.L52
	.loc 1 216 113 discriminator 2
	ld	a4,-88(s0)
	lwu	a5,-40(s0)
	addi	a5,a5,27
	slli	a5,a5,4
	add	a5,a4,a5
	lbu	a5,26(a5)
	.loc 1 216 117 discriminator 2
	sext.w	a4,a5
	.loc 1 216 169 discriminator 2
	ld	a3,-88(s0)
	lwu	a5,-40(s0)
	slli	a5,a5,4
	add	a5,a3,a5
	lbu	a5,459(a5)
	sext.w	a5,a5
	.loc 1 216 173 discriminator 2
	slliw	a5,a5,8
	sext.w	a5,a5
	.loc 1 216 123 discriminator 2
	or	a5,a4,a5
	sext.w	a4,a5
	.loc 1 216 225 discriminator 2
	ld	a3,-88(s0)
	lwu	a5,-40(s0)
	slli	a5,a5,4
	add	a5,a3,a5
	lbu	a5,460(a5)
	sext.w	a5,a5
	.loc 1 216 229 discriminator 2
	slliw	a5,a5,16
	sext.w	a5,a5
	.loc 1 216 179 discriminator 2
	or	a5,a4,a5
	sext.w	a4,a5
	.loc 1 216 282 discriminator 2
	ld	a3,-88(s0)
	lwu	a5,-40(s0)
	slli	a5,a5,4
	add	a5,a3,a5
	lbu	a5,461(a5)
	sext.w	a5,a5
	.loc 1 216 286 discriminator 2
	slliw	a5,a5,24
	sext.w	a5,a5
	.loc 1 216 236 discriminator 2
	or	a5,a4,a5
	sext.w	a5,a5
	.loc 1 216 55 discriminator 2
	beq	a5,zero,.L52
	.loc 1 223 32
	ld	a4,-88(s0)
	lwu	a5,-40(s0)
	addi	a5,a5,27
	slli	a5,a5,4
	add	a5,a4,a5
	lbu	a5,18(a5)
	.loc 1 223 10
	mv	a4,a5
	li	a5,238
	beq	a4,a5,.L53
	.loc 1 233 37
	lw	a5,-40(s0)
	addiw	a5,a5,1
	sext.w	a5,a5
	.loc 1 233 29
	sw	a5,-140(s0)
	.loc 1 234 86
	ld	a4,-88(s0)
	lwu	a5,-40(s0)
	addi	a5,a5,27
	slli	a5,a5,4
	add	a5,a4,a5
	lbu	a5,22(a5)
	.loc 1 234 90
	sext.w	a4,a5
	.loc 1 234 144
	ld	a3,-88(s0)
	lwu	a5,-40(s0)
	slli	a5,a5,4
	add	a5,a3,a5
	lbu	a5,455(a5)
	sext.w	a5,a5
	.loc 1 234 148
	slliw	a5,a5,8
	sext.w	a5,a5
	.loc 1 234 96
	or	a5,a4,a5
	sext.w	a4,a5
	.loc 1 234 202
	ld	a3,-88(s0)
	lwu	a5,-40(s0)
	slli	a5,a5,4
	add	a5,a3,a5
	lbu	a5,456(a5)
	sext.w	a5,a5
	.loc 1 234 206
	slliw	a5,a5,16
	sext.w	a5,a5
	.loc 1 234 154
	or	a5,a4,a5
	sext.w	a4,a5
	.loc 1 234 261
	ld	a3,-88(s0)
	lwu	a5,-40(s0)
	slli	a5,a5,4
	add	a5,a3,a5
	lbu	a5,457(a5)
	sext.w	a5,a5
	.loc 1 234 265
	slliw	a5,a5,24
	sext.w	a5,a5
	.loc 1 234 213
	or	a5,a4,a5
	sext.w	a5,a5
	.loc 1 234 30
	slli	a5,a5,32
	srli	a5,a5,32
	.loc 1 234 28
	sd	a5,-136(s0)
	.loc 1 235 83
	ld	a4,-88(s0)
	lwu	a5,-40(s0)
	addi	a5,a5,27
	slli	a5,a5,4
	add	a5,a4,a5
	lbu	a5,26(a5)
	.loc 1 235 87
	sext.w	a4,a5
	.loc 1 235 139
	ld	a3,-88(s0)
	lwu	a5,-40(s0)
	slli	a5,a5,4
	add	a5,a3,a5
	lbu	a5,459(a5)
	sext.w	a5,a5
	.loc 1 235 143
	slliw	a5,a5,8
	sext.w	a5,a5
	.loc 1 235 93
	or	a5,a4,a5
	sext.w	a4,a5
	.loc 1 235 195
	ld	a3,-88(s0)
	lwu	a5,-40(s0)
	slli	a5,a5,4
	add	a5,a3,a5
	lbu	a5,460(a5)
	sext.w	a5,a5
	.loc 1 235 199
	slliw	a5,a5,16
	sext.w	a5,a5
	.loc 1 235 149
	or	a5,a4,a5
	sext.w	a4,a5
	.loc 1 235 252
	ld	a3,-88(s0)
	lwu	a5,-40(s0)
	slli	a5,a5,4
	add	a5,a3,a5
	lbu	a5,461(a5)
	sext.w	a5,a5
	.loc 1 235 256
	slliw	a5,a5,24
	sext.w	a5,a5
	.loc 1 235 206
	or	a5,a4,a5
	sext.w	a5,a5
	.loc 1 235 29
	slli	a5,a5,32
	srli	a5,a5,32
	.loc 1 235 27
	sd	a5,-128(s0)
	.loc 1 236 33
	ld	a5,-88(s0)
	addi	a4,a5,440
	.loc 1 236 7
	addi	a5,s0,-144
	addi	a5,a5,24
	li	a2,4
	mv	a1,a4
	mv	a0,a5
	call	CopyMem@plt
	.loc 1 238 7
	addi	a5,s0,-336
	li	a1,144
	mv	a0,a5
	call	ZeroMem@plt
	.loc 1 239 30
	li	a5,4096
	sw	a5,-336(s0)
	.loc 1 240 26
	li	a5,1
	sw	a5,-332(s0)
	.loc 1 241 32
	ld	a4,-88(s0)
	lwu	a5,-40(s0)
	addi	a5,a5,27
	slli	a5,a5,4
	add	a5,a4,a5
	lbu	a5,18(a5)
	.loc 1 241 10
	mv	a4,a5
	li	a5,239
	bne	a4,a5,.L34
	.loc 1 242 30
	li	a5,1
	sb	a5,-328(s0)
.L34:
	.loc 1 245 41
	lwu	a5,-40(s0)
	addi	a5,a5,27
	slli	a5,a5,4
	ld	a4,-88(s0)
	add	a5,a4,a5
	addi	a4,a5,14
	.loc 1 245 7
	addi	a5,s0,-336
	addi	a5,a5,16
	li	a2,16
	mv	a1,a4
	mv	a0,a5
	call	CopyMem@plt
	.loc 1 257 23
	ld	a4,-136(s0)
	.loc 1 258 23
	ld	a3,-136(s0)
	.loc 1 258 46
	ld	a5,-128(s0)
	.loc 1 258 39
	add	a5,a3,a5
	.loc 1 258 61
	addi	a3,a5,-1
	.loc 1 260 41
	ld	a2,-88(s0)
	lwu	a5,-40(s0)
	addi	a5,a5,27
	slli	a5,a5,4
	add	a5,a2,a5
	lbu	a5,18(a5)
	.loc 1 247 16
	mv	a2,a5
	li	a5,239
	bne	a2,a5,.L35
	.loc 1 247 16 is_stmt 0 discriminator 1
	la	a5,gEfiPartTypeSystemPartGuid
	j	.L36
.L35:
	.loc 1 247 16 discriminator 2
	li	a5,0
.L36:
	.loc 1 247 16 discriminator 4
	addi	a2,s0,-144
	sd	a5,32(sp)
	li	a5,512
	sd	a5,24(sp)
	sd	a3,16(sp)
	sd	a4,8(sp)
	addi	a5,s0,-336
	sd	a5,0(sp)
	mv	a7,a2
	ld	a6,-392(s0)
	ld	a5,-384(s0)
	ld	a4,-376(s0)
	ld	a3,-368(s0)
	ld	a2,-360(s0)
	ld	a1,-352(s0)
	ld	a0,-344(s0)
	call	PartitionInstallChildHandle@plt
	sd	a0,-96(s0)
	.loc 1 263 11 is_stmt 1
	ld	a5,-96(s0)
	.loc 1 263 10
	blt	a5,zero,.L32
	.loc 1 264 15
	sd	zero,-48(s0)
	j	.L32
.L52:
	.loc 1 220 9
	nop
	j	.L32
.L53:
	.loc 1 230 9
	nop
.L32:
	.loc 1 215 37 discriminator 2
	lw	a5,-40(s0)
	addiw	a5,a5,1
	sw	a5,-40(s0)
.L29:
	.loc 1 215 27 discriminator 1
	lw	a5,-40(s0)
	sext.w	a4,a5
	li	a5,3
	bleu	a4,a5,.L37
	j	.L22
.L28:
	.loc 1 272 11
	sw	zero,-40(s0)
	.loc 1 273 23
	sw	zero,-36(s0)
.L49:
	.loc 1 276 22
	ld	a5,-360(s0)
	ld	s1,8(a5)
	.loc 1 276 16
	lwu	a5,-36(s0)
	lw	a4,-68(s0)
	mv	a1,a4
	mv	a0,a5
	call	MultU64x32@plt
	mv	a2,a0
	.loc 1 276 16 is_stmt 0 discriminator 1
	lwu	a3,-68(s0)
	lw	a5,-72(s0)
	ld	a4,-88(s0)
	mv	a1,a5
	ld	a0,-360(s0)
	jalr	s1
.LVL1:
	sd	a0,-96(s0)
	.loc 1 283 38 is_stmt 1
	ld	a5,-96(s0)
	.loc 1 283 10
	bge	a5,zero,.L38
	.loc 1 284 15
	ld	a5,-96(s0)
	sd	a5,-48(s0)
	.loc 1 285 9
	j	.L22
.L38:
	.loc 1 288 61
	ld	a5,-88(s0)
	lbu	a5,458(a5)
	.loc 1 288 65
	sext.w	a4,a5
	.loc 1 288 113
	ld	a5,-88(s0)
	lbu	a5,459(a5)
	sext.w	a5,a5
	.loc 1 288 117
	slliw	a5,a5,8
	sext.w	a5,a5
	.loc 1 288 71
	or	a5,a4,a5
	sext.w	a4,a5
	.loc 1 288 165
	ld	a5,-88(s0)
	lbu	a5,460(a5)
	sext.w	a5,a5
	.loc 1 288 169
	slliw	a5,a5,16
	sext.w	a5,a5
	.loc 1 288 123
	or	a5,a4,a5
	sext.w	a4,a5
	.loc 1 288 218
	ld	a5,-88(s0)
	lbu	a5,461(a5)
	sext.w	a5,a5
	.loc 1 288 222
	slliw	a5,a5,24
	sext.w	a5,a5
	.loc 1 288 176
	or	a5,a4,a5
	sext.w	a5,a5
	.loc 1 288 10
	beq	a5,zero,.L54
	.loc 1 292 29
	ld	a5,-88(s0)
	lbu	a5,450(a5)
	.loc 1 292 10
	mv	a4,a5
	li	a5,5
	beq	a4,a5,.L40
	.loc 1 293 29
	ld	a5,-88(s0)
	lbu	a5,450(a5)
	.loc 1 292 51 discriminator 1
	mv	a4,a5
	li	a5,15
	bne	a4,a5,.L41
.L40:
	.loc 1 295 81
	ld	a5,-88(s0)
	lbu	a5,454(a5)
	.loc 1 295 85
	sext.w	a4,a5
	.loc 1 295 135
	ld	a5,-88(s0)
	lbu	a5,455(a5)
	sext.w	a5,a5
	.loc 1 295 139
	slliw	a5,a5,8
	sext.w	a5,a5
	.loc 1 295 91
	or	a5,a4,a5
	sext.w	a4,a5
	.loc 1 295 189
	ld	a5,-88(s0)
	lbu	a5,456(a5)
	sext.w	a5,a5
	.loc 1 295 193
	slliw	a5,a5,16
	sext.w	a5,a5
	.loc 1 295 145
	or	a5,a4,a5
	sext.w	a4,a5
	.loc 1 295 244
	ld	a5,-88(s0)
	lbu	a5,457(a5)
	sext.w	a5,a5
	.loc 1 295 248
	slliw	a5,a5,24
	sext.w	a5,a5
	.loc 1 295 200
	or	a5,a4,a5
	sext.w	a5,a5
	.loc 1 295 27
	sw	a5,-36(s0)
	.loc 1 299 12
	lw	a5,-36(s0)
	sext.w	a5,a5
	bne	a5,zero,.L55
	.loc 1 300 11
	j	.L22
.L41:
	.loc 1 306 29
	lw	a5,-40(s0)
	addiw	a5,a5,1
	sw	a5,-40(s0)
	lw	a5,-40(s0)
	sw	a5,-140(s0)
	.loc 1 307 82
	ld	a5,-88(s0)
	lbu	a5,454(a5)
	.loc 1 307 86
	sext.w	a4,a5
	.loc 1 307 136
	ld	a5,-88(s0)
	lbu	a5,455(a5)
	sext.w	a5,a5
	.loc 1 307 140
	slliw	a5,a5,8
	sext.w	a5,a5
	.loc 1 307 92
	or	a5,a4,a5
	sext.w	a4,a5
	.loc 1 307 190
	ld	a5,-88(s0)
	lbu	a5,456(a5)
	sext.w	a5,a5
	.loc 1 307 194
	slliw	a5,a5,16
	sext.w	a5,a5
	.loc 1 307 146
	or	a5,a4,a5
	sext.w	a4,a5
	.loc 1 307 245
	ld	a5,-88(s0)
	lbu	a5,457(a5)
	sext.w	a5,a5
	.loc 1 307 249
	slliw	a5,a5,24
	sext.w	a5,a5
	.loc 1 307 201
	or	a5,a4,a5
	sext.w	a5,a5
	.loc 1 307 258
	lw	a4,-36(s0)
	addw	a5,a4,a5
	sext.w	a5,a5
	slli	a4,a5,32
	srli	a4,a4,32
	.loc 1 307 291
	ld	a5,-184(s0)
	.loc 1 307 278
	add	a5,a4,a5
	.loc 1 307 28
	sd	a5,-136(s0)
	.loc 1 308 79
	ld	a5,-88(s0)
	lbu	a5,458(a5)
	.loc 1 308 83
	sext.w	a4,a5
	.loc 1 308 131
	ld	a5,-88(s0)
	lbu	a5,459(a5)
	sext.w	a5,a5
	.loc 1 308 135
	slliw	a5,a5,8
	sext.w	a5,a5
	.loc 1 308 89
	or	a5,a4,a5
	sext.w	a4,a5
	.loc 1 308 183
	ld	a5,-88(s0)
	lbu	a5,460(a5)
	sext.w	a5,a5
	.loc 1 308 187
	slliw	a5,a5,16
	sext.w	a5,a5
	.loc 1 308 141
	or	a5,a4,a5
	sext.w	a4,a5
	.loc 1 308 236
	ld	a5,-88(s0)
	lbu	a5,461(a5)
	sext.w	a5,a5
	.loc 1 308 240
	slliw	a5,a5,24
	sext.w	a5,a5
	.loc 1 308 194
	or	a5,a4,a5
	sext.w	a5,a5
	.loc 1 308 29
	slli	a5,a5,32
	srli	a5,a5,32
	.loc 1 308 27
	sd	a5,-128(s0)
	.loc 1 309 17
	ld	a4,-136(s0)
	.loc 1 309 40
	ld	a5,-128(s0)
	.loc 1 309 33
	add	a5,a4,a5
	.loc 1 309 55
	addi	a4,a5,-1
	.loc 1 309 73
	ld	a3,-184(s0)
	.loc 1 309 102
	ld	a5,-176(s0)
	.loc 1 309 89
	add	a5,a3,a5
	.loc 1 309 10
	bgeu	a4,a5,.L56
	.loc 1 310 17
	ld	a4,-136(s0)
	.loc 1 310 47
	ld	a5,-184(s0)
	.loc 1 309 118 discriminator 1
	bleu	a4,a5,.L56
	.loc 1 318 19
	addi	a5,s0,-144
	addi	a5,a5,24
	.loc 1 318 40
	sw	zero,0(a5)
	.loc 1 320 7
	addi	a5,s0,-336
	li	a1,144
	mv	a0,a5
	call	ZeroMem@plt
	.loc 1 321 30
	li	a5,4096
	sw	a5,-336(s0)
	.loc 1 322 26
	li	a5,1
	sw	a5,-332(s0)
	.loc 1 323 28
	ld	a5,-88(s0)
	lbu	a5,450(a5)
	.loc 1 323 10
	mv	a4,a5
	li	a5,239
	bne	a4,a5,.L44
	.loc 1 324 30
	li	a5,1
	sb	a5,-328(s0)
.L44:
	.loc 1 327 41
	ld	a5,-88(s0)
	addi	a4,a5,446
	.loc 1 327 7
	addi	a5,s0,-336
	addi	a5,a5,16
	li	a2,16
	mv	a1,a4
	mv	a0,a5
	call	CopyMem@plt
	.loc 1 339 23
	ld	a4,-136(s0)
	.loc 1 339 52
	ld	a5,-184(s0)
	.loc 1 339 39
	sub	a4,a4,a5
	.loc 1 340 23
	ld	a3,-136(s0)
	.loc 1 340 52
	ld	a5,-184(s0)
	.loc 1 340 39
	sub	a3,a3,a5
	.loc 1 340 75
	ld	a5,-128(s0)
	.loc 1 340 68
	add	a5,a3,a5
	.loc 1 340 90
	addi	a3,a5,-1
	.loc 1 342 37
	ld	a5,-88(s0)
	lbu	a5,450(a5)
	.loc 1 329 16
	mv	a2,a5
	li	a5,239
	bne	a2,a5,.L45
	.loc 1 329 16 is_stmt 0 discriminator 1
	la	a5,gEfiPartTypeSystemPartGuid
	j	.L46
.L45:
	.loc 1 329 16 discriminator 2
	li	a5,0
.L46:
	.loc 1 329 16 discriminator 4
	addi	a2,s0,-144
	sd	a5,32(sp)
	li	a5,512
	sd	a5,24(sp)
	sd	a3,16(sp)
	sd	a4,8(sp)
	addi	a5,s0,-336
	sd	a5,0(sp)
	mv	a7,a2
	ld	a6,-392(s0)
	ld	a5,-384(s0)
	ld	a4,-376(s0)
	ld	a3,-368(s0)
	ld	a2,-360(s0)
	ld	a1,-352(s0)
	ld	a0,-344(s0)
	call	PartitionInstallChildHandle@plt
	sd	a0,-96(s0)
	.loc 1 344 11 is_stmt 1
	ld	a5,-96(s0)
	.loc 1 344 10
	blt	a5,zero,.L47
	.loc 1 345 15
	sd	zero,-48(s0)
.L47:
	.loc 1 348 29
	ld	a5,-88(s0)
	lbu	a5,466(a5)
	.loc 1 348 10
	mv	a4,a5
	li	a5,5
	beq	a4,a5,.L48
	.loc 1 349 29
	ld	a5,-88(s0)
	lbu	a5,466(a5)
	.loc 1 348 51 discriminator 1
	mv	a4,a5
	li	a5,15
	bne	a4,a5,.L57
.L48:
	.loc 1 355 79
	ld	a5,-88(s0)
	lbu	a5,470(a5)
	.loc 1 355 83
	sext.w	a4,a5
	.loc 1 355 133
	ld	a5,-88(s0)
	lbu	a5,471(a5)
	sext.w	a5,a5
	.loc 1 355 137
	slliw	a5,a5,8
	sext.w	a5,a5
	.loc 1 355 89
	or	a5,a4,a5
	sext.w	a4,a5
	.loc 1 355 187
	ld	a5,-88(s0)
	lbu	a5,472(a5)
	sext.w	a5,a5
	.loc 1 355 191
	slliw	a5,a5,16
	sext.w	a5,a5
	.loc 1 355 143
	or	a5,a4,a5
	sext.w	a4,a5
	.loc 1 355 242
	ld	a5,-88(s0)
	lbu	a5,473(a5)
	sext.w	a5,a5
	.loc 1 355 246
	slliw	a5,a5,24
	sext.w	a5,a5
	.loc 1 355 198
	or	a5,a4,a5
	sext.w	a5,a5
	.loc 1 355 25
	sw	a5,-36(s0)
	.loc 1 359 10
	lw	a5,-36(s0)
	sext.w	a5,a5
	beq	a5,zero,.L58
	j	.L43
.L55:
	.loc 1 303 9
	nop
.L43:
	.loc 1 362 32
	lwu	a4,-36(s0)
	.loc 1 362 45
	ld	a5,-176(s0)
	.loc 1 362 32
	bltu	a4,a5,.L49
	.loc 1 365 1
	j	.L56
.L51:
	.loc 1 176 5
	nop
	j	.L22
.L54:
	.loc 1 289 9
	nop
	j	.L22
.L56:
	.loc 1 365 1
	nop
	j	.L22
.L57:
	.loc 1 352 9
	nop
	j	.L22
.L58:
	.loc 1 360 9
	nop
.L22:
	.loc 1 366 3
	ld	a0,-88(s0)
	call	FreePool@plt
	.loc 1 368 10
	ld	a5,-48(s0)
.L50:
	.loc 1 369 1
	mv	a0,a5
	ld	ra,440(sp)
	.cfi_restore 1
	ld	s0,432(sp)
	.cfi_restore 8
	.cfi_def_cfa 2, 448
	ld	s1,424(sp)
	.cfi_restore 9
	addi	sp,sp,448
	.cfi_def_cfa_offset 0
	jr	ra
	.cfi_endproc
.LFE1:
	.size	PartitionInstallMbrChildHandles, .-PartitionInstallMbrChildHandles
	.text
.Letext0:
	.file 2 "/home/kapoagaeming/spacemit-image-builder/components/edk2/MdePkg/Include/RiscV64/ProcessorBind.h"
	.file 3 "/home/kapoagaeming/spacemit-image-builder/components/edk2/MdePkg/Include/Base.h"
	.file 4 "/home/kapoagaeming/spacemit-image-builder/components/edk2/MdePkg/Include/Uefi/UefiBaseType.h"
	.file 5 "/home/kapoagaeming/spacemit-image-builder/components/edk2/MdePkg/Include/Protocol/DevicePath.h"
	.file 6 "/home/kapoagaeming/spacemit-image-builder/components/edk2/MdePkg/Include/Uefi/UefiGpt.h"
	.file 7 "/home/kapoagaeming/spacemit-image-builder/components/edk2/MdePkg/Include/Protocol/BlockIo.h"
	.file 8 "/home/kapoagaeming/spacemit-image-builder/components/edk2/MdePkg/Include/Protocol/BlockIo2.h"
	.file 9 "/home/kapoagaeming/spacemit-image-builder/components/edk2/MdePkg/Include/Protocol/DriverBinding.h"
	.file 10 "/home/kapoagaeming/spacemit-image-builder/components/edk2/MdePkg/Include/Protocol/DiskIo.h"
	.file 11 "/home/kapoagaeming/spacemit-image-builder/components/edk2/MdePkg/Include/Protocol/DiskIo2.h"
	.file 12 "/home/kapoagaeming/spacemit-image-builder/components/edk2/MdePkg/Include/IndustryStandard/Mbr.h"
	.file 13 "/home/kapoagaeming/spacemit-image-builder/components/edk2/MdePkg/Include/Protocol/PartitionInfo.h"
	.file 14 "/home/kapoagaeming/spacemit-image-builder/components/edk2/MdeModulePkg/Universal/Disk/PartitionDxe/Partition.h"
	.file 15 "/home/kapoagaeming/spacemit-image-builder/components/edk2/MdePkg/Include/Library/DevicePathLib.h"
	.file 16 "/home/kapoagaeming/spacemit-image-builder/components/edk2/MdePkg/Include/Library/BaseMemoryLib.h"
	.file 17 "/home/kapoagaeming/spacemit-image-builder/components/edk2/MdePkg/Include/Library/MemoryAllocationLib.h"
	.file 18 "/home/kapoagaeming/spacemit-image-builder/components/edk2/MdePkg/Include/Library/BaseLib.h"
	.file 19 "/home/kapoagaeming/spacemit-image-builder/components/Build/Milk-V-Jupiter/RELEASE_GCC5/RISCV64/MdeModulePkg/Universal/Disk/PartitionDxe/PartitionDxe/DEBUG/AutoGen.h"
	.section	.note.GNU-stack,"",@progbits
