	.file	"Partition.c"
	.option pic
	.option norelax
	.attribute arch, "rv64i2p1_m2p0_a2p1_f2p2_d2p2_c2p0_zicsr2p0_zifencei2p0_zmmul1p0_zaamo1p0_zalrsc1p0_zca1p0_zcd1p0"
	.attribute unaligned_access, 0
	.attribute stack_align, 16
	.text
.Ltext0:
	.cfi_sections	.debug_frame
	.file 0 "/home/kapoagaeming/Downloads/spacemit-image-builder/components/Build/Milk-V-Jupiter/RELEASE_GCC5/RISCV64/MdeModulePkg/Universal/Disk/PartitionDxe/PartitionDxe" "/home/kapoagaeming/Downloads/spacemit-image-builder/components/edk2/MdeModulePkg/Universal/Disk/PartitionDxe/Partition.c"
	.globl	gPartitionDriverBinding
	.section	.data.rel.local.gPartitionDriverBinding,"aw"
	.align	3
	.type	gPartitionDriverBinding, @object
	.size	gPartitionDriverBinding, 48
gPartitionDriverBinding:
	.dword	PartitionDriverBindingSupported
	.dword	PartitionDriverBindingStart
	.dword	PartitionDriverBindingStop
	.word	11
	.zero	4
	.dword	0
	.dword	0
	.globl	mPartitionDetectRoutineTable
	.section	.data.rel.mPartitionDetectRoutineTable,"aw"
	.align	3
	.type	mPartitionDetectRoutineTable, @object
	.size	mPartitionDetectRoutineTable, 32
mPartitionDetectRoutineTable:
	.dword	PartitionInstallGptChildHandles
	.dword	PartitionInstallUdfChildHandles
	.dword	PartitionInstallMbrChildHandles
	.dword	0
	.section	.text.PartitionDriverBindingSupported,"ax",@progbits
	.align	1
	.globl	PartitionDriverBindingSupported
	.type	PartitionDriverBindingSupported, @function
PartitionDriverBindingSupported:
.LFB0:
	.file 1 "/home/kapoagaeming/Downloads/spacemit-image-builder/components/edk2/MdeModulePkg/Universal/Disk/PartitionDxe/Partition.c"
	.loc 1 75 1
	.cfi_startproc
	addi	sp,sp,-80
	.cfi_def_cfa_offset 80
	sd	ra,72(sp)
	sd	s0,64(sp)
	.cfi_offset 1, -8
	.cfi_offset 8, -16
	addi	s0,sp,80
	.cfi_def_cfa 8, 0
	sd	a0,-56(s0)
	sd	a1,-64(s0)
	sd	a2,-72(s0)
	.loc 1 84 6
	ld	a5,-72(s0)
	beq	a5,zero,.L2
	.loc 1 89 10
	ld	a0,-72(s0)
	call	IsDevicePathEnd@plt
	mv	a5,a0
	.loc 1 89 8 discriminator 1
	bne	a5,zero,.L2
	.loc 1 94 12
	ld	a5,-72(s0)
	sd	a5,-24(s0)
	.loc 1 95 25
	ld	a5,-24(s0)
	lbu	a5,0(a5)
	.loc 1 95 10
	mv	a4,a5
	li	a5,4
	bne	a4,a5,.L3
	.loc 1 96 25
	ld	a5,-24(s0)
	lbu	a5,1(a5)
	.loc 1 95 40 discriminator 1
	mv	a4,a5
	li	a5,1
	bne	a4,a5,.L3
	.loc 1 97 34
	ld	a5,-24(s0)
	.loc 1 97 12
	mv	a0,a5
	call	DevicePathNodeLength@plt
	mv	a4,a0
	.loc 1 96 43
	li	a5,42
	beq	a4,a5,.L2
.L3:
	.loc 1 99 16
	li	a5,-1
	slli	a5,a5,63
	addi	a5,a5,3
	j	.L9
.L2:
	.loc 1 107 15
	la	a5,gBS
	ld	a5,0(a5)
	ld	a6,280(a5)
	.loc 1 107 12
	ld	a5,-56(s0)
	ld	a3,40(a5)
	addi	a2,s0,-48
	li	a5,16
	ld	a4,-64(s0)
	la	a1,gEfiDiskIoProtocolGuid
	ld	a0,-64(s0)
	jalr	a6
.LVL0:
	sd	a0,-32(s0)
	.loc 1 115 6
	ld	a4,-32(s0)
	li	a5,-1
	slli	a5,a5,63
	addi	a5,a5,20
	bne	a4,a5,.L5
	.loc 1 116 12
	li	a5,0
	j	.L9
.L5:
	.loc 1 119 34
	ld	a5,-32(s0)
	.loc 1 119 6
	bge	a5,zero,.L6
	.loc 1 120 12
	ld	a5,-32(s0)
	j	.L9
.L6:
	.loc 1 126 6
	la	a5,gBS
	ld	a5,0(a5)
	ld	a5,288(a5)
	.loc 1 126 3
	ld	a4,-56(s0)
	ld	a4,40(a4)
	ld	a3,-64(s0)
	mv	a2,a4
	la	a1,gEfiDiskIoProtocolGuid
	ld	a0,-64(s0)
	jalr	a5
.LVL1:
	.loc 1 136 15
	la	a5,gBS
	ld	a5,0(a5)
	ld	a6,280(a5)
	.loc 1 136 12
	ld	a5,-56(s0)
	ld	a3,40(a5)
	addi	a2,s0,-40
	li	a5,16
	ld	a4,-64(s0)
	la	a1,gEfiDevicePathProtocolGuid
	ld	a0,-64(s0)
	jalr	a6
.LVL2:
	sd	a0,-32(s0)
	.loc 1 144 6
	ld	a4,-32(s0)
	li	a5,-1
	slli	a5,a5,63
	addi	a5,a5,20
	bne	a4,a5,.L7
	.loc 1 145 12
	li	a5,0
	j	.L9
.L7:
	.loc 1 148 34
	ld	a5,-32(s0)
	.loc 1 148 6
	bge	a5,zero,.L8
	.loc 1 149 12
	ld	a5,-32(s0)
	j	.L9
.L8:
	.loc 1 155 6
	la	a5,gBS
	ld	a5,0(a5)
	ld	a5,288(a5)
	.loc 1 155 3
	ld	a4,-56(s0)
	ld	a4,40(a4)
	ld	a3,-64(s0)
	mv	a2,a4
	la	a1,gEfiDevicePathProtocolGuid
	ld	a0,-64(s0)
	jalr	a5
.LVL3:
	.loc 1 165 15
	la	a5,gBS
	ld	a5,0(a5)
	ld	a6,280(a5)
	.loc 1 165 12
	ld	a5,-56(s0)
	ld	a3,40(a5)
	li	a5,4
	ld	a4,-64(s0)
	li	a2,0
	la	a1,gEfiBlockIoProtocolGuid
	ld	a0,-64(s0)
	jalr	a6
.LVL4:
	sd	a0,-32(s0)
	.loc 1 174 10
	ld	a5,-32(s0)
.L9:
	.loc 1 175 1
	mv	a0,a5
	ld	ra,72(sp)
	.cfi_restore 1
	ld	s0,64(sp)
	.cfi_restore 8
	.cfi_def_cfa 2, 80
	addi	sp,sp,80
	.cfi_def_cfa_offset 0
	jr	ra
	.cfi_endproc
.LFE0:
	.size	PartitionDriverBindingSupported, .-PartitionDriverBindingSupported
	.section	.text.PartitionDriverBindingStart,"ax",@progbits
	.align	1
	.globl	PartitionDriverBindingStart
	.type	PartitionDriverBindingStart, @function
PartitionDriverBindingStart:
.LFB1:
	.loc 1 199 1
	.cfi_startproc
	addi	sp,sp,-128
	.cfi_def_cfa_offset 128
	sd	ra,120(sp)
	sd	s0,112(sp)
	.cfi_offset 1, -8
	.cfi_offset 8, -16
	addi	s0,sp,128
	.cfi_def_cfa 8, 0
	sd	a0,-104(s0)
	sd	a1,-112(s0)
	sd	a2,-120(s0)
	.loc 1 211 12
	sd	zero,-72(s0)
	.loc 1 212 15
	la	a5,gBS
	ld	a5,0(a5)
	ld	a5,24(a5)
	.loc 1 212 12
	li	a0,8
	jalr	a5
.LVL5:
	sd	a0,-40(s0)
	.loc 1 216 6
	ld	a5,-120(s0)
	beq	a5,zero,.L11
	.loc 1 221 9
	ld	a0,-120(s0)
	call	IsDevicePathEnd@plt
	mv	a5,a0
	.loc 1 221 8 discriminator 1
	beq	a5,zero,.L11
	.loc 1 222 14
	sd	zero,-24(s0)
	.loc 1 223 7
	j	.L12
.L11:
	.loc 1 231 15
	la	a5,gBS
	ld	a5,0(a5)
	ld	a6,280(a5)
	.loc 1 231 12
	ld	a5,-104(s0)
	ld	a3,40(a5)
	addi	a2,s0,-64
	li	a5,2
	ld	a4,-112(s0)
	la	a1,gEfiBlockIoProtocolGuid
	ld	a0,-112(s0)
	jalr	a6
.LVL6:
	sd	a0,-24(s0)
	.loc 1 239 34
	ld	a5,-24(s0)
	.loc 1 239 6
	blt	a5,zero,.L24
	.loc 1 243 15
	la	a5,gBS
	ld	a5,0(a5)
	ld	a6,280(a5)
	.loc 1 243 12
	ld	a5,-104(s0)
	ld	a3,40(a5)
	addi	a2,s0,-72
	li	a5,2
	ld	a4,-112(s0)
	la	a1,gEfiBlockIo2ProtocolGuid
	ld	a0,-112(s0)
	jalr	a6
.LVL7:
	sd	a0,-24(s0)
	.loc 1 251 34
	ld	a5,-24(s0)
	.loc 1 251 6
	bge	a5,zero,.L14
	.loc 1 252 14
	sd	zero,-72(s0)
.L14:
	.loc 1 258 15
	la	a5,gBS
	ld	a5,0(a5)
	ld	a6,280(a5)
	.loc 1 258 12
	ld	a5,-104(s0)
	ld	a3,40(a5)
	addi	a2,s0,-96
	li	a5,16
	ld	a4,-112(s0)
	la	a1,gEfiDevicePathProtocolGuid
	ld	a0,-112(s0)
	jalr	a6
.LVL8:
	sd	a0,-24(s0)
	.loc 1 266 34
	ld	a5,-24(s0)
	.loc 1 266 6
	bge	a5,zero,.L15
	.loc 1 266 60 discriminator 1
	ld	a4,-24(s0)
	li	a5,-1
	slli	a5,a5,63
	addi	a5,a5,20
	bne	a4,a5,.L25
.L15:
	.loc 1 273 15
	la	a5,gBS
	ld	a5,0(a5)
	ld	a6,280(a5)
	.loc 1 273 12
	ld	a5,-104(s0)
	ld	a3,40(a5)
	addi	a2,s0,-80
	li	a5,16
	ld	a4,-112(s0)
	la	a1,gEfiDiskIoProtocolGuid
	ld	a0,-112(s0)
	jalr	a6
.LVL9:
	sd	a0,-24(s0)
	.loc 1 281 34
	ld	a5,-24(s0)
	.loc 1 281 6
	bge	a5,zero,.L16
	.loc 1 281 60 discriminator 1
	ld	a4,-24(s0)
	li	a5,-1
	slli	a5,a5,63
	addi	a5,a5,20
	beq	a4,a5,.L16
	.loc 1 282 8
	la	a5,gBS
	ld	a5,0(a5)
	ld	a5,288(a5)
	.loc 1 282 5
	ld	a4,-104(s0)
	ld	a4,40(a4)
	ld	a3,-112(s0)
	mv	a2,a4
	la	a1,gEfiDevicePathProtocolGuid
	ld	a0,-112(s0)
	jalr	a5
.LVL10:
	.loc 1 288 5
	j	.L12
.L16:
	.loc 1 291 14
	ld	a5,-24(s0)
	sd	a5,-48(s0)
	.loc 1 293 15
	la	a5,gBS
	ld	a5,0(a5)
	ld	a6,280(a5)
	.loc 1 293 12
	ld	a5,-104(s0)
	ld	a3,40(a5)
	addi	a2,s0,-88
	li	a5,16
	ld	a4,-112(s0)
	la	a1,gEfiDiskIo2ProtocolGuid
	ld	a0,-112(s0)
	jalr	a6
.LVL11:
	sd	a0,-24(s0)
	.loc 1 301 34
	ld	a5,-24(s0)
	.loc 1 301 6
	bge	a5,zero,.L17
	.loc 1 301 60 discriminator 1
	ld	a4,-24(s0)
	li	a5,-1
	slli	a5,a5,63
	addi	a5,a5,20
	beq	a4,a5,.L17
	.loc 1 302 13
	sd	zero,-88(s0)
.L17:
	.loc 1 308 10
	li	a5,-1
	slli	a5,a5,63
	addi	a5,a5,3
	sd	a5,-24(s0)
	.loc 1 309 25
	ld	a5,-64(s0)
	ld	a5,8(a5)
	.loc 1 309 16
	lbu	a5,5(a5)
	sb	a5,-49(s0)
	.loc 1 310 14
	ld	a5,-64(s0)
	ld	a5,8(a5)
	.loc 1 310 21
	lbu	a5,5(a5)
	.loc 1 310 6
	bne	a5,zero,.L18
	.loc 1 311 15
	ld	a5,-64(s0)
	ld	a5,8(a5)
	.loc 1 311 22
	lbu	a5,4(a5)
	.loc 1 310 36 discriminator 1
	beq	a5,zero,.L19
	.loc 1 311 50
	ld	a5,-64(s0)
	ld	a5,8(a5)
	.loc 1 311 57
	lbu	a5,6(a5)
	.loc 1 311 39
	bne	a5,zero,.L19
.L18:
	.loc 1 318 13
	lla	a5,mPartitionDetectRoutineTable
	sd	a5,-32(s0)
	.loc 1 319 11
	j	.L20
.L21:
	.loc 1 320 17
	ld	a5,-32(s0)
	ld	a7,0(a5)
	ld	a2,-80(s0)
	ld	a3,-88(s0)
	ld	a4,-64(s0)
	ld	a5,-72(s0)
	ld	a1,-96(s0)
	mv	a6,a1
	ld	a1,-112(s0)
	ld	a0,-104(s0)
	jalr	a7
.LVL12:
	sd	a0,-24(s0)
	.loc 1 329 11
	ld	a5,-24(s0)
	.loc 1 329 10
	bge	a5,zero,.L19
	.loc 1 329 65 discriminator 1
	ld	a4,-24(s0)
	li	a5,-1
	slli	a5,a5,63
	addi	a5,a5,13
	beq	a4,a5,.L19
	.loc 1 329 128 discriminator 2
	ld	a4,-24(s0)
	li	a5,-1
	slli	a5,a5,63
	addi	a5,a5,12
	beq	a4,a5,.L19
	.loc 1 333 14
	ld	a5,-32(s0)
	addi	a5,a5,8
	sd	a5,-32(s0)
.L20:
	.loc 1 319 12
	ld	a5,-32(s0)
	ld	a5,0(a5)
	.loc 1 319 21
	bne	a5,zero,.L21
.L19:
	.loc 1 349 34
	ld	a5,-24(s0)
	.loc 1 349 6
	bge	a5,zero,.L26
	.loc 1 350 7
	ld	a5,-48(s0)
	.loc 1 349 60 discriminator 1
	blt	a5,zero,.L26
	.loc 1 350 65
	ld	a4,-24(s0)
	li	a5,-1
	slli	a5,a5,63
	addi	a5,a5,13
	beq	a4,a5,.L26
	.loc 1 351 67
	lbu	a5,-49(s0)
	andi	a5,a5,0xff
	beq	a5,zero,.L22
	.loc 1 352 7
	ld	a4,-24(s0)
	li	a5,-1
	slli	a5,a5,63
	addi	a5,a5,12
	beq	a4,a5,.L26
.L22:
	.loc 1 354 8
	la	a5,gBS
	ld	a5,0(a5)
	ld	a5,288(a5)
	.loc 1 354 5
	ld	a4,-104(s0)
	ld	a4,40(a4)
	ld	a3,-112(s0)
	mv	a2,a4
	la	a1,gEfiDiskIoProtocolGuid
	ld	a0,-112(s0)
	jalr	a5
.LVL13:
	.loc 1 363 8
	la	a5,gBS
	ld	a5,0(a5)
	ld	a5,288(a5)
	.loc 1 363 5
	ld	a4,-104(s0)
	ld	a4,40(a4)
	ld	a3,-112(s0)
	mv	a2,a4
	la	a1,gEfiDiskIo2ProtocolGuid
	ld	a0,-112(s0)
	jalr	a5
.LVL14:
	.loc 1 370 8
	la	a5,gBS
	ld	a5,0(a5)
	ld	a5,288(a5)
	.loc 1 370 5
	ld	a4,-104(s0)
	ld	a4,40(a4)
	ld	a3,-112(s0)
	mv	a2,a4
	la	a1,gEfiDevicePathProtocolGuid
	ld	a0,-112(s0)
	jalr	a5
.LVL15:
	j	.L12
.L24:
	.loc 1 240 5
	nop
	j	.L12
.L25:
	.loc 1 267 5
	nop
	j	.L12
.L26:
	.loc 1 378 1
	nop
.L12:
	.loc 1 379 6
	la	a5,gBS
	ld	a5,0(a5)
	ld	a5,32(a5)
	.loc 1 379 3
	ld	a0,-40(s0)
	jalr	a5
.LVL16:
	.loc 1 380 10
	ld	a5,-24(s0)
	.loc 1 381 1
	mv	a0,a5
	ld	ra,120(sp)
	.cfi_restore 1
	ld	s0,112(sp)
	.cfi_restore 8
	.cfi_def_cfa 2, 128
	addi	sp,sp,128
	.cfi_def_cfa_offset 0
	jr	ra
	.cfi_endproc
.LFE1:
	.size	PartitionDriverBindingStart, .-PartitionDriverBindingStart
	.section	.text.PartitionDriverBindingStop,"ax",@progbits
	.align	1
	.globl	PartitionDriverBindingStop
	.type	PartitionDriverBindingStop, @function
PartitionDriverBindingStop:
.LFB2:
	.loc 1 405 1
	.cfi_startproc
	addi	sp,sp,-144
	.cfi_def_cfa_offset 144
	sd	ra,136(sp)
	sd	s0,128(sp)
	.cfi_offset 1, -8
	.cfi_offset 8, -16
	addi	s0,sp,144
	.cfi_def_cfa 8, 0
	sd	a0,-88(s0)
	sd	a1,-96(s0)
	sd	a2,-104(s0)
	sd	a3,-112(s0)
	.loc 1 415 11
	sd	zero,-64(s0)
	.loc 1 416 12
	sd	zero,-72(s0)
	.loc 1 417 11
	sd	zero,-48(s0)
	.loc 1 419 6
	ld	a5,-104(s0)
	bne	a5,zero,.L28
	.loc 1 425 9
	ld	a0,-96(s0)
	call	HasChildren
	mv	a5,a0
	.loc 1 425 8 discriminator 1
	beq	a5,zero,.L29
	.loc 1 427 14
	li	a5,-1
	slli	a5,a5,63
	addi	a5,a5,7
	j	.L47
.L29:
	.loc 1 433 8
	la	a5,gBS
	ld	a5,0(a5)
	ld	a5,288(a5)
	.loc 1 433 5
	ld	a4,-88(s0)
	ld	a4,40(a4)
	ld	a3,-96(s0)
	mv	a2,a4
	la	a1,gEfiDiskIoProtocolGuid
	ld	a0,-96(s0)
	jalr	a5
.LVL17:
	.loc 1 442 8
	la	a5,gBS
	ld	a5,0(a5)
	ld	a5,288(a5)
	.loc 1 442 5
	ld	a4,-88(s0)
	ld	a4,40(a4)
	ld	a3,-96(s0)
	mv	a2,a4
	la	a1,gEfiDiskIo2ProtocolGuid
	ld	a0,-96(s0)
	jalr	a5
.LVL18:
	.loc 1 449 8
	la	a5,gBS
	ld	a5,0(a5)
	ld	a5,288(a5)
	.loc 1 449 5
	ld	a4,-88(s0)
	ld	a4,40(a4)
	ld	a3,-96(s0)
	mv	a2,a4
	la	a1,gEfiDevicePathProtocolGuid
	ld	a0,-96(s0)
	jalr	a5
.LVL19:
	.loc 1 455 12
	li	a5,0
	j	.L47
.L28:
	.loc 1 458 22
	li	a5,1
	sb	a5,-33(s0)
	.loc 1 459 14
	sd	zero,-32(s0)
	.loc 1 459 3
	j	.L31
.L45:
	.loc 1 460 8
	la	a5,gBS
	ld	a5,0(a5)
	ld	a6,280(a5)
	.loc 1 461 29
	ld	a5,-32(s0)
	slli	a5,a5,3
	ld	a4,-112(s0)
	add	a5,a4,a5
	.loc 1 460 5
	ld	a0,0(a5)
	ld	a5,-88(s0)
	ld	a3,40(a5)
	addi	a2,s0,-64
	li	a5,2
	ld	a4,-96(s0)
	la	a1,gEfiBlockIoProtocolGuid
	jalr	a6
.LVL20:
	.loc 1 471 8
	la	a5,gBS
	ld	a5,0(a5)
	ld	a6,280(a5)
	.loc 1 472 29
	ld	a5,-32(s0)
	slli	a5,a5,3
	ld	a4,-112(s0)
	add	a5,a4,a5
	.loc 1 471 5
	ld	a0,0(a5)
	ld	a5,-88(s0)
	ld	a3,40(a5)
	addi	a2,s0,-72
	li	a5,2
	ld	a4,-96(s0)
	la	a1,gEfiBlockIo2ProtocolGuid
	jalr	a6
.LVL21:
	.loc 1 480 44
	ld	a5,-64(s0)
	.loc 1 480 17
	addi	a5,a5,-24
	.loc 1 480 139
	ld	a4,0(a5)
	.loc 1 480 224
	li	a5,1953652736
	addi	a5,a5,336
	bne	a4,a5,.L32
	.loc 1 480 254 discriminator 1
	ld	a5,-64(s0)
	.loc 1 480 13 discriminator 1
	addi	a5,a5,-24
	sd	a5,-48(s0)
	j	.L33
.L32:
	.loc 1 480 13 is_stmt 0 discriminator 2
	sd	zero,-48(s0)
.L33:
	.loc 1 481 16 is_stmt 1
	ld	a5,-48(s0)
	lbu	a5,404(a5)
	.loc 1 481 8
	bne	a5,zero,.L48
	.loc 1 489 21
	ld	a5,-48(s0)
	li	a4,1
	sb	a4,404(a5)
	.loc 1 491 12
	ld	a5,-64(s0)
	ld	a5,40(a5)
	.loc 1 491 5
	ld	a4,-64(s0)
	mv	a0,a4
	jalr	a5
.LVL22:
	.loc 1 493 18
	ld	a5,-72(s0)
	.loc 1 493 8
	beq	a5,zero,.L36
	.loc 1 494 24
	ld	a5,-72(s0)
	ld	a5,32(a5)
	.loc 1 494 16
	ld	a4,-72(s0)
	li	a1,0
	mv	a0,a4
	jalr	a5
.LVL23:
	sd	a0,-24(s0)
	j	.L37
.L36:
	.loc 1 497 14
	sd	zero,-24(s0)
.L37:
	.loc 1 500 8
	la	a5,gBS
	ld	a5,0(a5)
	ld	a5,288(a5)
	.loc 1 500 5
	ld	a4,-88(s0)
	ld	a2,40(a4)
	.loc 1 504 29
	ld	a4,-32(s0)
	slli	a4,a4,3
	ld	a3,-112(s0)
	add	a4,a3,a4
	.loc 1 500 5
	ld	a4,0(a4)
	mv	a3,a4
	la	a1,gEfiDiskIoProtocolGuid
	ld	a0,-96(s0)
	jalr	a5
.LVL24:
	.loc 1 507 21
	ld	a5,-48(s0)
	addi	a5,a5,408
	.loc 1 507 9
	mv	a0,a5
	call	IsZeroGuid@plt
	mv	a5,a0
	.loc 1 507 8 discriminator 1
	beq	a5,zero,.L38
	.loc 1 508 16
	sd	zero,-56(s0)
	j	.L39
.L38:
	.loc 1 510 16
	ld	a5,-48(s0)
	addi	a5,a5,408
	sd	a5,-56(s0)
.L39:
	.loc 1 518 18
	ld	a5,-72(s0)
	.loc 1 518 8
	beq	a5,zero,.L40
	.loc 1 525 10
	ld	a4,-24(s0)
	li	a5,-1
	slli	a5,a5,63
	addi	a5,a5,13
	beq	a4,a5,.L41
	.loc 1 526 21
	la	a5,gBS
	ld	a5,0(a5)
	ld	t1,336(a5)
	.loc 1 527 42
	ld	a5,-32(s0)
	slli	a5,a5,3
	ld	a4,-112(s0)
	add	a5,a4,a5
	.loc 1 526 18
	ld	a0,0(a5)
	ld	a5,-48(s0)
	ld	a2,16(a5)
	ld	a5,-48(s0)
	addi	a3,a5,24
	ld	a5,-48(s0)
	addi	a1,a5,72
	ld	a5,-48(s0)
	addi	a5,a5,208
	sd	zero,24(sp)
	sd	zero,16(sp)
	ld	a4,-56(s0)
	sd	a4,8(sp)
	sd	a5,0(sp)
	la	a7,gEfiPartitionInfoProtocolGuid
	mv	a6,a1
	la	a5,gEfiBlockIo2ProtocolGuid
	mv	a4,a3
	la	a3,gEfiBlockIoProtocolGuid
	la	a1,gEfiDevicePathProtocolGuid
	jalr	t1
.LVL25:
	sd	a0,-24(s0)
	j	.L41
.L40:
	.loc 1 542 19
	la	a5,gBS
	ld	a5,0(a5)
	ld	t1,336(a5)
	.loc 1 543 40
	ld	a5,-32(s0)
	slli	a5,a5,3
	ld	a4,-112(s0)
	add	a5,a4,a5
	.loc 1 542 16
	ld	a0,0(a5)
	ld	a5,-48(s0)
	ld	a2,16(a5)
	ld	a5,-48(s0)
	addi	a4,a5,24
	ld	a5,-48(s0)
	addi	a5,a5,208
	sd	zero,8(sp)
	sd	zero,0(sp)
	ld	a7,-56(s0)
	mv	a6,a5
	la	a5,gEfiPartitionInfoProtocolGuid
	la	a3,gEfiBlockIoProtocolGuid
	la	a1,gEfiDevicePathProtocolGuid
	jalr	t1
.LVL26:
	sd	a0,-24(s0)
.L41:
	.loc 1 556 36
	ld	a5,-24(s0)
	.loc 1 556 8
	bge	a5,zero,.L42
	.loc 1 557 23
	ld	a5,-48(s0)
	sb	zero,404(a5)
	.loc 1 558 10
	la	a5,gBS
	ld	a5,0(a5)
	ld	a6,280(a5)
	.loc 1 558 7
	ld	a5,-88(s0)
	ld	a3,40(a5)
	.loc 1 563 31
	ld	a5,-32(s0)
	slli	a5,a5,3
	ld	a4,-112(s0)
	add	a5,a4,a5
	.loc 1 558 7
	ld	a4,0(a5)
	addi	a2,s0,-80
	li	a5,8
	la	a1,gEfiDiskIoProtocolGuid
	ld	a0,-96(s0)
	jalr	a6
.LVL27:
	j	.L43
.L42:
	.loc 1 567 24
	ld	a5,-48(s0)
	ld	a5,16(a5)
	.loc 1 567 7
	mv	a0,a5
	call	FreePool@plt
	.loc 1 568 7
	ld	a0,-48(s0)
	call	FreePool@plt
.L43:
	.loc 1 571 36
	ld	a5,-24(s0)
	.loc 1 571 8
	bge	a5,zero,.L44
	.loc 1 572 26
	sb	zero,-33(s0)
	.loc 1 573 10
	ld	a4,-24(s0)
	li	a5,-1
	slli	a5,a5,63
	addi	a5,a5,13
	beq	a4,a5,.L49
.L44:
	.loc 1 459 50 discriminator 2
	ld	a5,-32(s0)
	addi	a5,a5,1
	sd	a5,-32(s0)
.L31:
	.loc 1 459 25 discriminator 1
	ld	a4,-32(s0)
	ld	a5,-104(s0)
	bltu	a4,a5,.L45
	j	.L35
.L48:
	.loc 1 486 7
	nop
	j	.L35
.L49:
	.loc 1 574 9
	nop
.L35:
	.loc 1 579 6
	lbu	a5,-33(s0)
	andi	a5,a5,0xff
	bne	a5,zero,.L46
	.loc 1 580 12
	li	a5,-1
	slli	a5,a5,63
	addi	a5,a5,7
	j	.L47
.L46:
	.loc 1 583 10
	li	a5,0
.L47:
	.loc 1 584 1
	mv	a0,a5
	ld	ra,136(sp)
	.cfi_restore 1
	ld	s0,128(sp)
	.cfi_restore 8
	.cfi_def_cfa 2, 144
	addi	sp,sp,144
	.cfi_def_cfa_offset 0
	jr	ra
	.cfi_endproc
.LFE2:
	.size	PartitionDriverBindingStop, .-PartitionDriverBindingStop
	.section	.text.PartitionReset,"ax",@progbits
	.align	1
	.globl	PartitionReset
	.type	PartitionReset, @function
PartitionReset:
.LFB3:
	.loc 1 603 1
	.cfi_startproc
	addi	sp,sp,-48
	.cfi_def_cfa_offset 48
	sd	ra,40(sp)
	sd	s0,32(sp)
	.cfi_offset 1, -8
	.cfi_offset 8, -16
	addi	s0,sp,48
	.cfi_def_cfa 8, 0
	sd	a0,-40(s0)
	mv	a5,a1
	sb	a5,-41(s0)
	.loc 1 606 15
	ld	a5,-40(s0)
	addi	a5,a5,-24
	.loc 1 606 134
	ld	a4,0(a5)
	.loc 1 606 219
	li	a5,1953652736
	addi	a5,a5,336
	bne	a4,a5,.L51
	.loc 1 606 11 discriminator 1
	ld	a5,-40(s0)
	addi	a5,a5,-24
	sd	a5,-24(s0)
	j	.L52
.L51:
	.loc 1 606 11 is_stmt 0 discriminator 2
	sd	zero,-24(s0)
.L52:
	.loc 1 608 17 is_stmt 1
	ld	a5,-24(s0)
	ld	a5,368(a5)
	.loc 1 608 32
	ld	a5,16(a5)
	.loc 1 608 10
	ld	a4,-24(s0)
	ld	a4,368(a4)
	lbu	a3,-41(s0)
	mv	a1,a3
	mv	a0,a4
	jalr	a5
.LVL28:
	mv	a5,a0
	.loc 1 612 1
	mv	a0,a5
	ld	ra,40(sp)
	.cfi_restore 1
	ld	s0,32(sp)
	.cfi_restore 8
	.cfi_def_cfa 2, 48
	addi	sp,sp,48
	.cfi_def_cfa_offset 0
	jr	ra
	.cfi_endproc
.LFE3:
	.size	PartitionReset, .-PartitionReset
	.section	.text.ProbeMediaStatus,"ax",@progbits
	.align	1
	.globl	ProbeMediaStatus
	.type	ProbeMediaStatus, @function
ProbeMediaStatus:
.LFB4:
	.loc 1 633 1
	.cfi_startproc
	addi	sp,sp,-64
	.cfi_def_cfa_offset 64
	sd	ra,56(sp)
	sd	s0,48(sp)
	.cfi_offset 1, -8
	.cfi_offset 8, -16
	addi	s0,sp,64
	.cfi_def_cfa 8, 0
	sd	a0,-40(s0)
	mv	a5,a1
	sd	a2,-56(s0)
	sw	a5,-44(s0)
	.loc 1 643 18
	ld	a5,-40(s0)
	ld	a5,8(a5)
	.loc 1 643 12
	addi	a4,s0,-32
	lw	a1,-44(s0)
	li	a3,1
	li	a2,0
	ld	a0,-40(s0)
	jalr	a5
.LVL29:
	sd	a0,-24(s0)
	.loc 1 644 6
	ld	a4,-24(s0)
	li	a5,-1
	slli	a5,a5,63
	addi	a5,a5,12
	beq	a4,a5,.L55
	.loc 1 644 67 discriminator 1
	ld	a4,-24(s0)
	li	a5,-1
	slli	a5,a5,63
	addi	a5,a5,13
	bne	a4,a5,.L56
.L55:
	.loc 1 645 12
	ld	a5,-24(s0)
	j	.L58
.L56:
	.loc 1 648 10
	ld	a5,-56(s0)
.L58:
	.loc 1 649 1
	mv	a0,a5
	ld	ra,56(sp)
	.cfi_restore 1
	ld	s0,48(sp)
	.cfi_restore 8
	.cfi_def_cfa 2, 64
	addi	sp,sp,64
	.cfi_def_cfa_offset 0
	jr	ra
	.cfi_endproc
.LFE4:
	.size	ProbeMediaStatus, .-ProbeMediaStatus
	.section	.text.PartitionReadBlocks,"ax",@progbits
	.align	1
	.globl	PartitionReadBlocks
	.type	PartitionReadBlocks, @function
PartitionReadBlocks:
.LFB5:
	.loc 1 679 1
	.cfi_startproc
	addi	sp,sp,-80
	.cfi_def_cfa_offset 80
	sd	ra,72(sp)
	sd	s0,64(sp)
	.cfi_offset 1, -8
	.cfi_offset 8, -16
	addi	s0,sp,80
	.cfi_def_cfa 8, 0
	sd	a0,-40(s0)
	mv	a5,a1
	sd	a2,-56(s0)
	sd	a3,-64(s0)
	sd	a4,-72(s0)
	sw	a5,-44(s0)
	.loc 1 683 15
	ld	a5,-40(s0)
	addi	a5,a5,-24
	.loc 1 683 134
	ld	a4,0(a5)
	.loc 1 683 219
	li	a5,1953652736
	addi	a5,a5,336
	bne	a4,a5,.L60
	.loc 1 683 11 discriminator 1
	ld	a5,-40(s0)
	addi	a5,a5,-24
	sd	a5,-24(s0)
	j	.L61
.L60:
	.loc 1 683 11 is_stmt 0 discriminator 2
	sd	zero,-24(s0)
.L61:
	.loc 1 685 27 is_stmt 1
	ld	a5,-24(s0)
	lw	a5,400(a5)
	slli	a5,a5,32
	srli	a5,a5,32
	.loc 1 685 18
	ld	a4,-64(s0)
	remu	a5,a4,a5
	.loc 1 685 6
	beq	a5,zero,.L62
	.loc 1 686 12
	ld	a5,-24(s0)
	ld	a4,352(a5)
	lw	a3,-44(s0)
	li	a5,-1
	slli	a5,a5,63
	addi	a2,a5,4
	mv	a1,a3
	mv	a0,a4
	call	ProbeMediaStatus
	mv	a5,a0
	j	.L63
.L62:
	.loc 1 689 12
	ld	a5,-24(s0)
	lw	a5,400(a5)
	mv	a1,a5
	ld	a0,-56(s0)
	call	MultU64x32@plt
	mv	a4,a0
	.loc 1 689 58 discriminator 1
	ld	a5,-24(s0)
	ld	a5,384(a5)
	.loc 1 689 10 discriminator 1
	add	a5,a4,a5
	sd	a5,-32(s0)
	.loc 1 690 14
	ld	a4,-32(s0)
	ld	a5,-64(s0)
	add	a4,a4,a5
	.loc 1 690 36
	ld	a5,-24(s0)
	ld	a5,392(a5)
	.loc 1 690 6
	bleu	a4,a5,.L64
	.loc 1 691 12
	ld	a5,-24(s0)
	ld	a4,352(a5)
	lw	a3,-44(s0)
	li	a5,-1
	slli	a5,a5,63
	addi	a2,a5,2
	mv	a1,a3
	mv	a0,a4
	call	ProbeMediaStatus
	mv	a5,a0
	j	.L63
.L64:
	.loc 1 699 17
	ld	a5,-24(s0)
	ld	a5,352(a5)
	.loc 1 699 25
	ld	a5,8(a5)
	.loc 1 699 10
	ld	a4,-24(s0)
	ld	a0,352(a4)
	lw	a1,-44(s0)
	ld	a4,-72(s0)
	ld	a3,-64(s0)
	ld	a2,-32(s0)
	jalr	a5
.LVL30:
	mv	a5,a0
.L63:
	.loc 1 700 1
	mv	a0,a5
	ld	ra,72(sp)
	.cfi_restore 1
	ld	s0,64(sp)
	.cfi_restore 8
	.cfi_def_cfa 2, 80
	addi	sp,sp,80
	.cfi_def_cfa_offset 0
	jr	ra
	.cfi_endproc
.LFE5:
	.size	PartitionReadBlocks, .-PartitionReadBlocks
	.section	.text.PartitionWriteBlocks,"ax",@progbits
	.align	1
	.globl	PartitionWriteBlocks
	.type	PartitionWriteBlocks, @function
PartitionWriteBlocks:
.LFB6:
	.loc 1 731 1
	.cfi_startproc
	addi	sp,sp,-80
	.cfi_def_cfa_offset 80
	sd	ra,72(sp)
	sd	s0,64(sp)
	.cfi_offset 1, -8
	.cfi_offset 8, -16
	addi	s0,sp,80
	.cfi_def_cfa 8, 0
	sd	a0,-40(s0)
	mv	a5,a1
	sd	a2,-56(s0)
	sd	a3,-64(s0)
	sd	a4,-72(s0)
	sw	a5,-44(s0)
	.loc 1 735 15
	ld	a5,-40(s0)
	addi	a5,a5,-24
	.loc 1 735 134
	ld	a4,0(a5)
	.loc 1 735 219
	li	a5,1953652736
	addi	a5,a5,336
	bne	a4,a5,.L66
	.loc 1 735 11 discriminator 1
	ld	a5,-40(s0)
	addi	a5,a5,-24
	sd	a5,-24(s0)
	j	.L67
.L66:
	.loc 1 735 11 is_stmt 0 discriminator 2
	sd	zero,-24(s0)
.L67:
	.loc 1 737 27 is_stmt 1
	ld	a5,-24(s0)
	lw	a5,400(a5)
	slli	a5,a5,32
	srli	a5,a5,32
	.loc 1 737 18
	ld	a4,-64(s0)
	remu	a5,a4,a5
	.loc 1 737 6
	beq	a5,zero,.L68
	.loc 1 738 12
	ld	a5,-24(s0)
	ld	a4,352(a5)
	lw	a3,-44(s0)
	li	a5,-1
	slli	a5,a5,63
	addi	a2,a5,4
	mv	a1,a3
	mv	a0,a4
	call	ProbeMediaStatus
	mv	a5,a0
	j	.L69
.L68:
	.loc 1 741 12
	ld	a5,-24(s0)
	lw	a5,400(a5)
	mv	a1,a5
	ld	a0,-56(s0)
	call	MultU64x32@plt
	mv	a4,a0
	.loc 1 741 58 discriminator 1
	ld	a5,-24(s0)
	ld	a5,384(a5)
	.loc 1 741 10 discriminator 1
	add	a5,a4,a5
	sd	a5,-32(s0)
	.loc 1 742 14
	ld	a4,-32(s0)
	ld	a5,-64(s0)
	add	a4,a4,a5
	.loc 1 742 36
	ld	a5,-24(s0)
	ld	a5,392(a5)
	.loc 1 742 6
	bleu	a4,a5,.L70
	.loc 1 743 12
	ld	a5,-24(s0)
	ld	a4,352(a5)
	lw	a3,-44(s0)
	li	a5,-1
	slli	a5,a5,63
	addi	a2,a5,2
	mv	a1,a3
	mv	a0,a4
	call	ProbeMediaStatus
	mv	a5,a0
	j	.L69
.L70:
	.loc 1 751 17
	ld	a5,-24(s0)
	ld	a5,352(a5)
	.loc 1 751 25
	ld	a5,16(a5)
	.loc 1 751 10
	ld	a4,-24(s0)
	ld	a0,352(a4)
	lw	a1,-44(s0)
	ld	a4,-72(s0)
	ld	a3,-64(s0)
	ld	a2,-32(s0)
	jalr	a5
.LVL31:
	mv	a5,a0
.L69:
	.loc 1 752 1
	mv	a0,a5
	ld	ra,72(sp)
	.cfi_restore 1
	ld	s0,64(sp)
	.cfi_restore 8
	.cfi_def_cfa 2, 80
	addi	sp,sp,80
	.cfi_def_cfa_offset 0
	jr	ra
	.cfi_endproc
.LFE6:
	.size	PartitionWriteBlocks, .-PartitionWriteBlocks
	.section	.text.PartitionFlushBlocks,"ax",@progbits
	.align	1
	.globl	PartitionFlushBlocks
	.type	PartitionFlushBlocks, @function
PartitionFlushBlocks:
.LFB7:
	.loc 1 769 1
	.cfi_startproc
	addi	sp,sp,-48
	.cfi_def_cfa_offset 48
	sd	ra,40(sp)
	sd	s0,32(sp)
	.cfi_offset 1, -8
	.cfi_offset 8, -16
	addi	s0,sp,48
	.cfi_def_cfa 8, 0
	sd	a0,-40(s0)
	.loc 1 772 15
	ld	a5,-40(s0)
	addi	a5,a5,-24
	.loc 1 772 134
	ld	a4,0(a5)
	.loc 1 772 219
	li	a5,1953652736
	addi	a5,a5,336
	bne	a4,a5,.L72
	.loc 1 772 11 discriminator 1
	ld	a5,-40(s0)
	addi	a5,a5,-24
	sd	a5,-24(s0)
	j	.L73
.L72:
	.loc 1 772 11 is_stmt 0 discriminator 2
	sd	zero,-24(s0)
.L73:
	.loc 1 774 17 is_stmt 1
	ld	a5,-24(s0)
	ld	a5,368(a5)
	.loc 1 774 32
	ld	a5,40(a5)
	.loc 1 774 10
	ld	a4,-24(s0)
	ld	a4,368(a4)
	mv	a0,a4
	jalr	a5
.LVL32:
	mv	a5,a0
	.loc 1 775 1
	mv	a0,a5
	ld	ra,40(sp)
	.cfi_restore 1
	ld	s0,32(sp)
	.cfi_restore 8
	.cfi_def_cfa 2, 48
	addi	sp,sp,48
	.cfi_def_cfa_offset 0
	jr	ra
	.cfi_endproc
.LFE7:
	.size	PartitionFlushBlocks, .-PartitionFlushBlocks
	.section	.text.ProbeMediaStatusEx,"ax",@progbits
	.align	1
	.globl	ProbeMediaStatusEx
	.type	ProbeMediaStatusEx, @function
ProbeMediaStatusEx:
.LFB8:
	.loc 1 796 1
	.cfi_startproc
	addi	sp,sp,-64
	.cfi_def_cfa_offset 64
	sd	ra,56(sp)
	sd	s0,48(sp)
	.cfi_offset 1, -8
	.cfi_offset 8, -16
	addi	s0,sp,64
	.cfi_def_cfa 8, 0
	sd	a0,-40(s0)
	mv	a5,a1
	sd	a2,-56(s0)
	sw	a5,-44(s0)
	.loc 1 806 19
	ld	a5,-40(s0)
	ld	a6,16(a5)
	.loc 1 806 12
	addi	a5,s0,-32
	lw	a1,-44(s0)
	li	a4,1
	li	a3,0
	li	a2,0
	ld	a0,-40(s0)
	jalr	a6
.LVL33:
	sd	a0,-24(s0)
	.loc 1 807 6
	ld	a4,-24(s0)
	li	a5,-1
	slli	a5,a5,63
	addi	a5,a5,12
	beq	a4,a5,.L76
	.loc 1 807 67 discriminator 1
	ld	a4,-24(s0)
	li	a5,-1
	slli	a5,a5,63
	addi	a5,a5,13
	bne	a4,a5,.L77
.L76:
	.loc 1 808 12
	ld	a5,-24(s0)
	j	.L79
.L77:
	.loc 1 811 10
	ld	a5,-56(s0)
.L79:
	.loc 1 812 1
	mv	a0,a5
	ld	ra,56(sp)
	.cfi_restore 1
	ld	s0,48(sp)
	.cfi_restore 8
	.cfi_def_cfa 2, 64
	addi	sp,sp,64
	.cfi_def_cfa_offset 0
	jr	ra
	.cfi_endproc
.LFE8:
	.size	ProbeMediaStatusEx, .-ProbeMediaStatusEx
	.section	.text.PartitionResetEx,"ax",@progbits
	.align	1
	.globl	PartitionResetEx
	.type	PartitionResetEx, @function
PartitionResetEx:
.LFB9:
	.loc 1 831 1
	.cfi_startproc
	addi	sp,sp,-48
	.cfi_def_cfa_offset 48
	sd	ra,40(sp)
	sd	s0,32(sp)
	.cfi_offset 1, -8
	.cfi_offset 8, -16
	addi	s0,sp,48
	.cfi_def_cfa 8, 0
	sd	a0,-40(s0)
	mv	a5,a1
	sb	a5,-41(s0)
	.loc 1 834 15
	ld	a5,-40(s0)
	addi	a5,a5,-72
	.loc 1 834 135
	ld	a4,0(a5)
	.loc 1 834 220
	li	a5,1953652736
	addi	a5,a5,336
	bne	a4,a5,.L81
	.loc 1 834 11 discriminator 1
	ld	a5,-40(s0)
	addi	a5,a5,-72
	sd	a5,-24(s0)
	j	.L82
.L81:
	.loc 1 834 11 is_stmt 0 discriminator 2
	sd	zero,-24(s0)
.L82:
	.loc 1 836 17 is_stmt 1
	ld	a5,-24(s0)
	ld	a5,376(a5)
	.loc 1 836 33
	ld	a5,8(a5)
	.loc 1 836 10
	ld	a4,-24(s0)
	ld	a4,376(a4)
	lbu	a3,-41(s0)
	mv	a1,a3
	mv	a0,a4
	jalr	a5
.LVL34:
	mv	a5,a0
	.loc 1 840 1
	mv	a0,a5
	ld	ra,40(sp)
	.cfi_restore 1
	ld	s0,32(sp)
	.cfi_restore 8
	.cfi_def_cfa 2, 48
	addi	sp,sp,48
	.cfi_def_cfa_offset 0
	jr	ra
	.cfi_endproc
.LFE9:
	.size	PartitionResetEx, .-PartitionResetEx
	.section	.text.PartitionOnAccessComplete,"ax",@progbits
	.align	1
	.globl	PartitionOnAccessComplete
	.type	PartitionOnAccessComplete, @function
PartitionOnAccessComplete:
.LFB10:
	.loc 1 854 1
	.cfi_startproc
	addi	sp,sp,-48
	.cfi_def_cfa_offset 48
	sd	ra,40(sp)
	sd	s0,32(sp)
	.cfi_offset 1, -8
	.cfi_offset 8, -16
	addi	s0,sp,48
	.cfi_def_cfa 8, 0
	sd	a0,-40(s0)
	sd	a1,-48(s0)
	.loc 1 857 8
	ld	a5,-48(s0)
	sd	a5,-24(s0)
	.loc 1 859 6
	la	a5,gBS
	ld	a5,0(a5)
	ld	a5,112(a5)
	.loc 1 859 3
	ld	a0,-40(s0)
	jalr	a5
.LVL35:
	.loc 1 861 7
	ld	a5,-24(s0)
	ld	a5,16(a5)
	.loc 1 861 62
	ld	a4,-24(s0)
	ld	a4,8(a4)
	.loc 1 861 42
	sd	a4,8(a5)
	.loc 1 862 6
	la	a5,gBS
	ld	a5,0(a5)
	ld	a5,104(a5)
	.loc 1 862 25
	ld	a4,-24(s0)
	ld	a4,16(a4)
	.loc 1 862 3
	ld	a4,0(a4)
	mv	a0,a4
	jalr	a5
.LVL36:
	.loc 1 864 3
	ld	a0,-24(s0)
	call	FreePool@plt
	.loc 1 865 1
	nop
	ld	ra,40(sp)
	.cfi_restore 1
	ld	s0,32(sp)
	.cfi_restore 8
	.cfi_def_cfa 2, 48
	addi	sp,sp,48
	.cfi_def_cfa_offset 0
	jr	ra
	.cfi_endproc
.LFE10:
	.size	PartitionOnAccessComplete, .-PartitionOnAccessComplete
	.section	.text.PartitionCreateAccessTask,"ax",@progbits
	.align	1
	.globl	PartitionCreateAccessTask
	.type	PartitionCreateAccessTask, @function
PartitionCreateAccessTask:
.LFB11:
	.loc 1 878 1
	.cfi_startproc
	addi	sp,sp,-48
	.cfi_def_cfa_offset 48
	sd	ra,40(sp)
	sd	s0,32(sp)
	.cfi_offset 1, -8
	.cfi_offset 8, -16
	addi	s0,sp,48
	.cfi_def_cfa 8, 0
	sd	a0,-40(s0)
	.loc 1 882 10
	li	a0,24
	call	AllocatePool@plt
	sd	a0,-24(s0)
	.loc 1 883 6
	ld	a5,-24(s0)
	bne	a5,zero,.L86
	.loc 1 884 12
	li	a5,0
	j	.L87
.L86:
	.loc 1 887 15
	la	a5,gBS
	ld	a5,0(a5)
	ld	a5,80(a5)
	.loc 1 887 12
	ld	a4,-24(s0)
	ld	a3,-24(s0)
	lla	a2,PartitionOnAccessComplete
	li	a1,16
	li	a0,512
	jalr	a5
.LVL37:
	sd	a0,-32(s0)
	.loc 1 894 34
	ld	a5,-32(s0)
	.loc 1 894 6
	bge	a5,zero,.L88
	.loc 1 895 5
	ld	a0,-24(s0)
	call	FreePool@plt
	.loc 1 896 12
	li	a5,0
	j	.L87
.L88:
	.loc 1 899 23
	ld	a5,-24(s0)
	ld	a4,-40(s0)
	sd	a4,16(a5)
	.loc 1 901 10
	ld	a5,-24(s0)
.L87:
	.loc 1 902 1
	mv	a0,a5
	ld	ra,40(sp)
	.cfi_restore 1
	ld	s0,32(sp)
	.cfi_restore 8
	.cfi_def_cfa 2, 48
	addi	sp,sp,48
	.cfi_def_cfa_offset 0
	jr	ra
	.cfi_endproc
.LFE11:
	.size	PartitionCreateAccessTask, .-PartitionCreateAccessTask
	.section	.text.PartitionReadBlocksEx,"ax",@progbits
	.align	1
	.globl	PartitionReadBlocksEx
	.type	PartitionReadBlocksEx, @function
PartitionReadBlocksEx:
.LFB12:
	.loc 1 947 1
	.cfi_startproc
	addi	sp,sp,-96
	.cfi_def_cfa_offset 96
	sd	ra,88(sp)
	sd	s0,80(sp)
	.cfi_offset 1, -8
	.cfi_offset 8, -16
	addi	s0,sp,96
	.cfi_def_cfa 8, 0
	sd	a0,-56(s0)
	sd	a2,-72(s0)
	sd	a3,-80(s0)
	sd	a4,-88(s0)
	sd	a5,-96(s0)
	mv	a5,a1
	sw	a5,-60(s0)
	.loc 1 953 15
	ld	a5,-56(s0)
	addi	a5,a5,-72
	.loc 1 953 135
	ld	a4,0(a5)
	.loc 1 953 220
	li	a5,1953652736
	addi	a5,a5,336
	bne	a4,a5,.L90
	.loc 1 953 11 discriminator 1
	ld	a5,-56(s0)
	addi	a5,a5,-72
	sd	a5,-32(s0)
	j	.L91
.L90:
	.loc 1 953 11 is_stmt 0 discriminator 2
	sd	zero,-32(s0)
.L91:
	.loc 1 955 27 is_stmt 1
	ld	a5,-32(s0)
	lw	a5,400(a5)
	slli	a5,a5,32
	srli	a5,a5,32
	.loc 1 955 18
	ld	a4,-88(s0)
	remu	a5,a4,a5
	.loc 1 955 6
	beq	a5,zero,.L92
	.loc 1 956 12
	ld	a5,-32(s0)
	ld	a4,360(a5)
	lw	a3,-60(s0)
	li	a5,-1
	slli	a5,a5,63
	addi	a2,a5,4
	mv	a1,a3
	mv	a0,a4
	call	ProbeMediaStatusEx
	mv	a5,a0
	j	.L93
.L92:
	.loc 1 959 12
	ld	a5,-32(s0)
	lw	a5,400(a5)
	mv	a1,a5
	ld	a0,-72(s0)
	call	MultU64x32@plt
	mv	a4,a0
	.loc 1 959 58 discriminator 1
	ld	a5,-32(s0)
	ld	a5,384(a5)
	.loc 1 959 10 discriminator 1
	add	a5,a4,a5
	sd	a5,-40(s0)
	.loc 1 960 14
	ld	a4,-40(s0)
	ld	a5,-88(s0)
	add	a4,a4,a5
	.loc 1 960 36
	ld	a5,-32(s0)
	ld	a5,392(a5)
	.loc 1 960 6
	bleu	a4,a5,.L94
	.loc 1 961 12
	ld	a5,-32(s0)
	ld	a4,360(a5)
	lw	a3,-60(s0)
	li	a5,-1
	slli	a5,a5,63
	addi	a2,a5,2
	mv	a1,a3
	mv	a0,a4
	call	ProbeMediaStatusEx
	mv	a5,a0
	j	.L93
.L94:
	.loc 1 964 6
	ld	a5,-80(s0)
	beq	a5,zero,.L95
	.loc 1 964 40 discriminator 1
	ld	a5,-80(s0)
	ld	a5,0(a5)
	.loc 1 964 31 discriminator 1
	beq	a5,zero,.L95
	.loc 1 965 12
	ld	a0,-80(s0)
	call	PartitionCreateAccessTask
	sd	a0,-48(s0)
	.loc 1 966 8
	ld	a5,-48(s0)
	bne	a5,zero,.L96
	.loc 1 967 14
	li	a5,-1
	slli	a5,a5,63
	addi	a5,a5,9
	j	.L93
.L96:
	.loc 1 970 21
	ld	a5,-32(s0)
	ld	a5,360(a5)
	.loc 1 970 30
	ld	a6,16(a5)
	.loc 1 970 14
	ld	a5,-32(s0)
	ld	a0,360(a5)
	ld	a3,-48(s0)
	lw	a1,-60(s0)
	ld	a5,-96(s0)
	ld	a4,-88(s0)
	ld	a2,-40(s0)
	jalr	a6
.LVL38:
	sd	a0,-24(s0)
	.loc 1 971 36
	ld	a5,-24(s0)
	.loc 1 971 8
	bge	a5,zero,.L98
	.loc 1 972 10
	la	a5,gBS
	ld	a5,0(a5)
	ld	a5,112(a5)
	.loc 1 972 7
	ld	a4,-48(s0)
	ld	a4,0(a4)
	mv	a0,a4
	jalr	a5
.LVL39:
	.loc 1 973 7
	ld	a0,-48(s0)
	call	FreePool@plt
	.loc 1 971 8
	j	.L98
.L95:
	.loc 1 976 21
	ld	a5,-32(s0)
	ld	a5,360(a5)
	.loc 1 976 30
	ld	a6,16(a5)
	.loc 1 976 14
	ld	a5,-32(s0)
	ld	a0,360(a5)
	lw	a1,-60(s0)
	ld	a5,-96(s0)
	ld	a4,-88(s0)
	li	a3,0
	ld	a2,-40(s0)
	jalr	a6
.LVL40:
	sd	a0,-24(s0)
.L98:
	.loc 1 979 10
	ld	a5,-24(s0)
.L93:
	.loc 1 980 1
	mv	a0,a5
	ld	ra,88(sp)
	.cfi_restore 1
	ld	s0,80(sp)
	.cfi_restore 8
	.cfi_def_cfa 2, 96
	addi	sp,sp,96
	.cfi_def_cfa_offset 0
	jr	ra
	.cfi_endproc
.LFE12:
	.size	PartitionReadBlocksEx, .-PartitionReadBlocksEx
	.section	.text.PartitionWriteBlocksEx,"ax",@progbits
	.align	1
	.globl	PartitionWriteBlocksEx
	.type	PartitionWriteBlocksEx, @function
PartitionWriteBlocksEx:
.LFB13:
	.loc 1 1023 1
	.cfi_startproc
	addi	sp,sp,-96
	.cfi_def_cfa_offset 96
	sd	ra,88(sp)
	sd	s0,80(sp)
	.cfi_offset 1, -8
	.cfi_offset 8, -16
	addi	s0,sp,96
	.cfi_def_cfa 8, 0
	sd	a0,-56(s0)
	sd	a2,-72(s0)
	sd	a3,-80(s0)
	sd	a4,-88(s0)
	sd	a5,-96(s0)
	mv	a5,a1
	sw	a5,-60(s0)
	.loc 1 1029 15
	ld	a5,-56(s0)
	addi	a5,a5,-72
	.loc 1 1029 135
	ld	a4,0(a5)
	.loc 1 1029 220
	li	a5,1953652736
	addi	a5,a5,336
	bne	a4,a5,.L100
	.loc 1 1029 11 discriminator 1
	ld	a5,-56(s0)
	addi	a5,a5,-72
	sd	a5,-32(s0)
	j	.L101
.L100:
	.loc 1 1029 11 is_stmt 0 discriminator 2
	sd	zero,-32(s0)
.L101:
	.loc 1 1031 27 is_stmt 1
	ld	a5,-32(s0)
	lw	a5,400(a5)
	slli	a5,a5,32
	srli	a5,a5,32
	.loc 1 1031 18
	ld	a4,-88(s0)
	remu	a5,a4,a5
	.loc 1 1031 6
	beq	a5,zero,.L102
	.loc 1 1032 12
	ld	a5,-32(s0)
	ld	a4,360(a5)
	lw	a3,-60(s0)
	li	a5,-1
	slli	a5,a5,63
	addi	a2,a5,4
	mv	a1,a3
	mv	a0,a4
	call	ProbeMediaStatusEx
	mv	a5,a0
	j	.L103
.L102:
	.loc 1 1035 12
	ld	a5,-32(s0)
	lw	a5,400(a5)
	mv	a1,a5
	ld	a0,-72(s0)
	call	MultU64x32@plt
	mv	a4,a0
	.loc 1 1035 58 discriminator 1
	ld	a5,-32(s0)
	ld	a5,384(a5)
	.loc 1 1035 10 discriminator 1
	add	a5,a4,a5
	sd	a5,-40(s0)
	.loc 1 1036 14
	ld	a4,-40(s0)
	ld	a5,-88(s0)
	add	a4,a4,a5
	.loc 1 1036 36
	ld	a5,-32(s0)
	ld	a5,392(a5)
	.loc 1 1036 6
	bleu	a4,a5,.L104
	.loc 1 1037 12
	ld	a5,-32(s0)
	ld	a4,360(a5)
	lw	a3,-60(s0)
	li	a5,-1
	slli	a5,a5,63
	addi	a2,a5,2
	mv	a1,a3
	mv	a0,a4
	call	ProbeMediaStatusEx
	mv	a5,a0
	j	.L103
.L104:
	.loc 1 1040 6
	ld	a5,-80(s0)
	beq	a5,zero,.L105
	.loc 1 1040 40 discriminator 1
	ld	a5,-80(s0)
	ld	a5,0(a5)
	.loc 1 1040 31 discriminator 1
	beq	a5,zero,.L105
	.loc 1 1041 12
	ld	a0,-80(s0)
	call	PartitionCreateAccessTask
	sd	a0,-48(s0)
	.loc 1 1042 8
	ld	a5,-48(s0)
	bne	a5,zero,.L106
	.loc 1 1043 14
	li	a5,-1
	slli	a5,a5,63
	addi	a5,a5,9
	j	.L103
.L106:
	.loc 1 1046 21
	ld	a5,-32(s0)
	ld	a5,360(a5)
	.loc 1 1046 30
	ld	a6,24(a5)
	.loc 1 1046 14
	ld	a5,-32(s0)
	ld	a0,360(a5)
	ld	a3,-48(s0)
	lw	a1,-60(s0)
	ld	a5,-96(s0)
	ld	a4,-88(s0)
	ld	a2,-40(s0)
	jalr	a6
.LVL41:
	sd	a0,-24(s0)
	.loc 1 1047 36
	ld	a5,-24(s0)
	.loc 1 1047 8
	bge	a5,zero,.L108
	.loc 1 1048 10
	la	a5,gBS
	ld	a5,0(a5)
	ld	a5,112(a5)
	.loc 1 1048 7
	ld	a4,-48(s0)
	ld	a4,0(a4)
	mv	a0,a4
	jalr	a5
.LVL42:
	.loc 1 1049 7
	ld	a0,-48(s0)
	call	FreePool@plt
	.loc 1 1047 8
	j	.L108
.L105:
	.loc 1 1052 21
	ld	a5,-32(s0)
	ld	a5,360(a5)
	.loc 1 1052 30
	ld	a6,24(a5)
	.loc 1 1052 14
	ld	a5,-32(s0)
	ld	a0,360(a5)
	lw	a1,-60(s0)
	ld	a5,-96(s0)
	ld	a4,-88(s0)
	li	a3,0
	ld	a2,-40(s0)
	jalr	a6
.LVL43:
	sd	a0,-24(s0)
.L108:
	.loc 1 1055 10
	ld	a5,-24(s0)
.L103:
	.loc 1 1056 1
	mv	a0,a5
	ld	ra,88(sp)
	.cfi_restore 1
	ld	s0,80(sp)
	.cfi_restore 8
	.cfi_def_cfa 2, 96
	addi	sp,sp,96
	.cfi_def_cfa_offset 0
	jr	ra
	.cfi_endproc
.LFE13:
	.size	PartitionWriteBlocksEx, .-PartitionWriteBlocksEx
	.section	.text.PartitionFlushBlocksEx,"ax",@progbits
	.align	1
	.globl	PartitionFlushBlocksEx
	.type	PartitionFlushBlocksEx, @function
PartitionFlushBlocksEx:
.LFB14:
	.loc 1 1086 1
	.cfi_startproc
	addi	sp,sp,-64
	.cfi_def_cfa_offset 64
	sd	ra,56(sp)
	sd	s0,48(sp)
	.cfi_offset 1, -8
	.cfi_offset 8, -16
	addi	s0,sp,64
	.cfi_def_cfa 8, 0
	sd	a0,-56(s0)
	sd	a1,-64(s0)
	.loc 1 1091 15
	ld	a5,-56(s0)
	addi	a5,a5,-72
	.loc 1 1091 135
	ld	a4,0(a5)
	.loc 1 1091 220
	li	a5,1953652736
	addi	a5,a5,336
	bne	a4,a5,.L110
	.loc 1 1091 11 discriminator 1
	ld	a5,-56(s0)
	addi	a5,a5,-72
	sd	a5,-32(s0)
	j	.L111
.L110:
	.loc 1 1091 11 is_stmt 0 discriminator 2
	sd	zero,-32(s0)
.L111:
	.loc 1 1093 6 is_stmt 1
	ld	a5,-64(s0)
	beq	a5,zero,.L112
	.loc 1 1093 40 discriminator 1
	ld	a5,-64(s0)
	ld	a5,0(a5)
	.loc 1 1093 31 discriminator 1
	beq	a5,zero,.L112
	.loc 1 1094 12
	ld	a0,-64(s0)
	call	PartitionCreateAccessTask
	sd	a0,-40(s0)
	.loc 1 1095 8
	ld	a5,-40(s0)
	bne	a5,zero,.L113
	.loc 1 1096 14
	li	a5,-1
	slli	a5,a5,63
	addi	a5,a5,9
	j	.L114
.L113:
	.loc 1 1099 21
	ld	a5,-32(s0)
	ld	a5,360(a5)
	.loc 1 1099 30
	ld	a5,32(a5)
	.loc 1 1099 14
	ld	a4,-32(s0)
	ld	a4,360(a4)
	ld	a3,-40(s0)
	mv	a1,a3
	mv	a0,a4
	jalr	a5
.LVL44:
	sd	a0,-24(s0)
	.loc 1 1100 36
	ld	a5,-24(s0)
	.loc 1 1100 8
	bge	a5,zero,.L116
	.loc 1 1101 10
	la	a5,gBS
	ld	a5,0(a5)
	ld	a5,112(a5)
	.loc 1 1101 7
	ld	a4,-40(s0)
	ld	a4,0(a4)
	mv	a0,a4
	jalr	a5
.LVL45:
	.loc 1 1102 7
	ld	a0,-40(s0)
	call	FreePool@plt
	.loc 1 1100 8
	j	.L116
.L112:
	.loc 1 1105 21
	ld	a5,-32(s0)
	ld	a5,360(a5)
	.loc 1 1105 30
	ld	a5,32(a5)
	.loc 1 1105 14
	ld	a4,-32(s0)
	ld	a4,360(a4)
	li	a1,0
	mv	a0,a4
	jalr	a5
.LVL46:
	sd	a0,-24(s0)
.L116:
	.loc 1 1108 10
	ld	a5,-24(s0)
.L114:
	.loc 1 1109 1
	mv	a0,a5
	ld	ra,56(sp)
	.cfi_restore 1
	ld	s0,48(sp)
	.cfi_restore 8
	.cfi_def_cfa 2, 64
	addi	sp,sp,64
	.cfi_def_cfa_offset 0
	jr	ra
	.cfi_endproc
.LFE14:
	.size	PartitionFlushBlocksEx, .-PartitionFlushBlocksEx
	.section	.text.PartitionInstallChildHandle,"ax",@progbits
	.align	1
	.globl	PartitionInstallChildHandle
	.type	PartitionInstallChildHandle, @function
PartitionInstallChildHandle:
.LFB15:
	.loc 1 1149 1
	.cfi_startproc
	addi	sp,sp,-128
	.cfi_def_cfa_offset 128
	sd	ra,120(sp)
	sd	s0,112(sp)
	.cfi_offset 1, -8
	.cfi_offset 8, -16
	addi	s0,sp,128
	.cfi_def_cfa 8, 0
	sd	a0,-40(s0)
	sd	a1,-48(s0)
	sd	a2,-56(s0)
	sd	a3,-64(s0)
	sd	a4,-72(s0)
	sd	a5,-80(s0)
	sd	a6,-88(s0)
	sd	a7,-96(s0)
	.loc 1 1153 10
	sd	zero,-24(s0)
	.loc 1 1154 13
	li	a0,424
	call	AllocateZeroPool@plt
	sd	a0,-32(s0)
	.loc 1 1155 6
	ld	a5,-32(s0)
	bne	a5,zero,.L118
	.loc 1 1156 12
	li	a5,-1
	slli	a5,a5,63
	addi	a5,a5,9
	j	.L119
.L118:
	.loc 1 1159 22
	ld	a5,-32(s0)
	li	a4,1953652736
	addi	a4,a4,336
	sd	a4,0(a5)
	.loc 1 1161 52
	ld	a5,-72(s0)
	ld	a5,8(a5)
	.loc 1 1161 20
	lw	a5,12(a5)
	mv	a1,a5
	ld	a0,8(s0)
	call	MultU64x32@plt
	mv	a4,a0
	.loc 1 1161 18 discriminator 1
	ld	a5,-32(s0)
	sd	a4,384(a5)
	.loc 1 1162 34
	ld	a5,16(s0)
	addi	a4,a5,1
	.loc 1 1162 52
	ld	a5,-72(s0)
	ld	a5,8(a5)
	.loc 1 1162 18
	lw	a5,12(a5)
	mv	a1,a5
	mv	a0,a4
	call	MultU64x32@plt
	mv	a4,a0
	.loc 1 1162 16 discriminator 1
	ld	a5,-32(s0)
	sd	a4,392(a5)
	.loc 1 1164 22
	ld	a5,-32(s0)
	lw	a4,24(s0)
	sw	a4,400(a5)
	.loc 1 1165 26
	ld	a5,-32(s0)
	ld	a4,-72(s0)
	sd	a4,368(a5)
	.loc 1 1166 27
	ld	a5,-32(s0)
	ld	a4,-80(s0)
	sd	a4,376(a5)
	.loc 1 1167 19
	ld	a4,-56(s0)
	ld	a5,-32(s0)
	sd	a4,352(a5)
	.loc 1 1168 20
	ld	a5,-32(s0)
	ld	a4,-64(s0)
	sd	a4,360(a5)
	.loc 1 1173 44
	ld	a5,-72(s0)
	ld	a4,0(a5)
	.loc 1 1173 29
	ld	a5,-32(s0)
	sd	a4,24(a5)
	.loc 1 1175 28
	ld	a5,-32(s0)
	addi	a4,a5,112
	.loc 1 1175 26
	ld	a5,-32(s0)
	sd	a4,32(a5)
	.loc 1 1176 28
	ld	a5,-32(s0)
	ld	a4,32(a5)
	.loc 1 1176 49
	ld	a5,-72(s0)
	ld	a5,8(a5)
	.loc 1 1176 3
	li	a2,48
	mv	a1,a5
	mv	a0,a4
	call	CopyMem@plt
	.loc 1 1178 26
	ld	a5,-32(s0)
	lla	a4,PartitionReset
	sd	a4,40(a5)
	.loc 1 1179 31
	ld	a5,-32(s0)
	lla	a4,PartitionReadBlocks
	sd	a4,48(a5)
	.loc 1 1180 32
	ld	a5,-32(s0)
	lla	a4,PartitionWriteBlocks
	sd	a4,56(a5)
	.loc 1 1181 32
	ld	a5,-32(s0)
	lla	a4,PartitionFlushBlocks
	sd	a4,64(a5)
	.loc 1 1186 14
	ld	a5,-32(s0)
	ld	a5,360(a5)
	.loc 1 1186 6
	beq	a5,zero,.L120
	.loc 1 1188 31
	ld	a5,-32(s0)
	addi	a4,a5,160
	.loc 1 1188 29
	ld	a5,-32(s0)
	sd	a4,72(a5)
	.loc 1 1189 31
	ld	a5,-32(s0)
	ld	a4,72(a5)
	.loc 1 1189 53
	ld	a5,-80(s0)
	ld	a5,0(a5)
	.loc 1 1189 5
	li	a2,48
	mv	a1,a5
	mv	a0,a4
	call	CopyMem@plt
	.loc 1 1191 29
	ld	a5,-32(s0)
	lla	a4,PartitionResetEx
	sd	a4,80(a5)
	.loc 1 1192 36
	ld	a5,-32(s0)
	lla	a4,PartitionReadBlocksEx
	sd	a4,88(a5)
	.loc 1 1193 37
	ld	a5,-32(s0)
	lla	a4,PartitionWriteBlocksEx
	sd	a4,96(a5)
	.loc 1 1194 37
	ld	a5,-32(s0)
	lla	a4,PartitionFlushBlocksEx
	sd	a4,104(a5)
.L120:
	.loc 1 1197 26
	ld	a5,-32(s0)
	sw	zero,128(a5)
	.loc 1 1198 35
	ld	a5,-32(s0)
	li	a4,1
	sb	a4,118(a5)
	.loc 1 1201 45
	ld	a4,16(s0)
	ld	a5,8(s0)
	sub	a5,a4,a5
	.loc 1 1201 53
	addi	a4,a5,1
	.loc 1 1202 54
	ld	a5,-72(s0)
	ld	a5,8(a5)
	.loc 1 1199 30
	lw	a5,12(a5)
	mv	a1,a5
	mv	a0,a4
	call	MultU64x32@plt
	mv	a4,a0
	.loc 1 1199 30 is_stmt 0 discriminator 1
	lw	a5,24(s0)
	mv	a1,a5
	mv	a0,a4
	call	DivU64x32@plt
	mv	a5,a0
	.loc 1 1205 41 is_stmt 1
	addi	a4,a5,-1
	.loc 1 1199 28
	ld	a5,-32(s0)
	sd	a4,136(a5)
	.loc 1 1207 28
	ld	a5,-32(s0)
	lw	a4,24(s0)
	sw	a4,124(a5)
	.loc 1 1209 27
	ld	a5,-32(s0)
	sw	zero,176(a5)
	.loc 1 1210 36
	ld	a5,-32(s0)
	li	a4,1
	sb	a4,166(a5)
	.loc 1 1211 45
	ld	a5,-32(s0)
	ld	a4,136(a5)
	.loc 1 1211 29
	ld	a5,-32(s0)
	sd	a4,184(a5)
	.loc 1 1212 29
	ld	a5,-32(s0)
	lw	a4,24(s0)
	sw	a4,172(a5)
	.loc 1 1218 23
	ld	a5,-32(s0)
	ld	a4,24(a5)
	.loc 1 1218 6
	li	a5,131072
	bleu	a4,a5,.L121
	.loc 1 1219 37
	ld	a5,-32(s0)
	sd	zero,144(a5)
	.loc 1 1220 50
	ld	a5,-32(s0)
	sw	zero,152(a5)
	.loc 1 1221 38
	ld	a5,-32(s0)
	sd	zero,192(a5)
	.loc 1 1222 51
	ld	a5,-32(s0)
	sw	zero,200(a5)
	.loc 1 1223 25
	ld	a5,-32(s0)
	ld	a4,24(a5)
	.loc 1 1223 8
	li	a5,131072
	addi	a5,a5,30
	bleu	a4,a5,.L121
	.loc 1 1224 55
	ld	a5,-32(s0)
	sw	zero,156(a5)
	.loc 1 1225 56
	ld	a5,-32(s0)
	sw	zero,204(a5)
.L121:
	.loc 1 1229 25
	ld	a1,-96(s0)
	ld	a0,-88(s0)
	call	AppendDevicePathNode@plt
	mv	a4,a0
	.loc 1 1229 23 discriminator 1
	ld	a5,-32(s0)
	sd	a4,16(a5)
	.loc 1 1231 14
	ld	a5,-32(s0)
	ld	a5,16(a5)
	.loc 1 1231 6
	bne	a5,zero,.L122
	.loc 1 1232 5
	ld	a0,-32(s0)
	call	FreePool@plt
	.loc 1 1233 12
	li	a5,-1
	slli	a5,a5,63
	addi	a5,a5,9
	j	.L119
.L122:
	.loc 1 1239 12
	ld	a5,-32(s0)
	addi	a5,a5,208
	.loc 1 1239 3
	li	a2,144
	ld	a1,0(s0)
	mv	a0,a5
	call	CopyMem@plt
	.loc 1 1241 6
	ld	a5,32(s0)
	beq	a5,zero,.L123
	.loc 1 1242 15
	ld	a5,-32(s0)
	addi	a5,a5,408
	.loc 1 1242 5
	ld	a1,32(s0)
	mv	a0,a5
	call	CopyGuid@plt
	j	.L124
.L123:
	.loc 1 1244 22
	ld	a5,-32(s0)
	addi	a5,a5,408
	.loc 1 1244 5
	li	a1,16
	mv	a0,a5
	call	ZeroMem@plt
.L124:
	.loc 1 1250 19
	ld	a5,-32(s0)
	sd	zero,8(a5)
	.loc 1 1251 14
	ld	a5,-32(s0)
	ld	a5,360(a5)
	.loc 1 1251 6
	beq	a5,zero,.L125
	.loc 1 1252 17
	la	a5,gBS
	ld	a5,0(a5)
	ld	t1,328(a5)
	.loc 1 1252 14
	ld	a5,-32(s0)
	addi	a0,a5,8
	ld	a5,-32(s0)
	ld	a2,16(a5)
	ld	a5,-32(s0)
	addi	a3,a5,24
	ld	a5,-32(s0)
	addi	a1,a5,72
	ld	a5,-32(s0)
	addi	a5,a5,208
	sd	zero,24(sp)
	sd	zero,16(sp)
	ld	a4,32(s0)
	sd	a4,8(sp)
	sd	a5,0(sp)
	la	a7,gEfiPartitionInfoProtocolGuid
	mv	a6,a1
	la	a5,gEfiBlockIo2ProtocolGuid
	mv	a4,a3
	la	a3,gEfiBlockIoProtocolGuid
	la	a1,gEfiDevicePathProtocolGuid
	jalr	t1
.LVL47:
	sd	a0,-24(s0)
	j	.L126
.L125:
	.loc 1 1267 17
	la	a5,gBS
	ld	a5,0(a5)
	ld	t1,328(a5)
	.loc 1 1267 14
	ld	a5,-32(s0)
	addi	a0,a5,8
	ld	a5,-32(s0)
	ld	a2,16(a5)
	ld	a5,-32(s0)
	addi	a4,a5,24
	ld	a5,-32(s0)
	addi	a5,a5,208
	sd	zero,8(sp)
	sd	zero,0(sp)
	ld	a7,32(s0)
	mv	a6,a5
	la	a5,gEfiPartitionInfoProtocolGuid
	la	a3,gEfiBlockIoProtocolGuid
	la	a1,gEfiDevicePathProtocolGuid
	jalr	t1
.LVL48:
	sd	a0,-24(s0)
.L126:
	.loc 1 1281 7
	ld	a5,-24(s0)
	.loc 1 1281 6
	blt	a5,zero,.L127
	.loc 1 1285 17
	la	a5,gBS
	ld	a5,0(a5)
	ld	a6,280(a5)
	.loc 1 1285 14
	ld	a5,-40(s0)
	ld	a3,40(a5)
	ld	a5,-32(s0)
	ld	a4,8(a5)
	addi	a2,s0,-56
	li	a5,8
	la	a1,gEfiDiskIoProtocolGuid
	ld	a0,-48(s0)
	jalr	a6
.LVL49:
	sd	a0,-24(s0)
	j	.L128
.L127:
	.loc 1 1294 22
	ld	a5,-32(s0)
	ld	a5,16(a5)
	.loc 1 1294 5
	mv	a0,a5
	call	FreePool@plt
	.loc 1 1295 5
	ld	a0,-32(s0)
	call	FreePool@plt
	.loc 1 1302 8
	ld	a4,-24(s0)
	li	a5,-1
	slli	a5,a5,63
	addi	a5,a5,20
	bne	a4,a5,.L128
	.loc 1 1303 14
	sd	zero,-24(s0)
.L128:
	.loc 1 1307 10
	ld	a5,-24(s0)
.L119:
	.loc 1 1308 1
	mv	a0,a5
	ld	ra,120(sp)
	.cfi_restore 1
	ld	s0,112(sp)
	.cfi_restore 8
	.cfi_def_cfa 2, 128
	addi	sp,sp,128
	.cfi_def_cfa_offset 0
	jr	ra
	.cfi_endproc
.LFE15:
	.size	PartitionInstallChildHandle, .-PartitionInstallChildHandle
	.section	.text.InitializePartition,"ax",@progbits
	.align	1
	.globl	InitializePartition
	.type	InitializePartition, @function
InitializePartition:
.LFB16:
	.loc 1 1326 1
	.cfi_startproc
	addi	sp,sp,-48
	.cfi_def_cfa_offset 48
	sd	ra,40(sp)
	sd	s0,32(sp)
	.cfi_offset 1, -8
	.cfi_offset 8, -16
	addi	s0,sp,48
	.cfi_def_cfa 8, 0
	sd	a0,-40(s0)
	sd	a1,-48(s0)
	.loc 1 1332 12
	la	a5,gPartitionComponentName2
	la	a4,gPartitionComponentName
	ld	a3,-40(s0)
	lla	a2,gPartitionDriverBinding
	ld	a1,-48(s0)
	ld	a0,-40(s0)
	call	EfiLibInstallDriverBindingComponentName2@plt
	sd	a0,-24(s0)
	.loc 1 1342 10
	ld	a5,-24(s0)
	.loc 1 1343 1
	mv	a0,a5
	ld	ra,40(sp)
	.cfi_restore 1
	ld	s0,32(sp)
	.cfi_restore 8
	.cfi_def_cfa 2, 48
	addi	sp,sp,48
	.cfi_def_cfa_offset 0
	jr	ra
	.cfi_endproc
.LFE16:
	.size	InitializePartition, .-InitializePartition
	.section	.text.HasChildren,"ax",@progbits
	.align	1
	.globl	HasChildren
	.type	HasChildren, @function
HasChildren:
.LFB17:
	.loc 1 1358 1
	.cfi_startproc
	addi	sp,sp,-64
	.cfi_def_cfa_offset 64
	sd	ra,56(sp)
	sd	s0,48(sp)
	.cfi_offset 1, -8
	.cfi_offset 8, -16
	addi	s0,sp,64
	.cfi_def_cfa 8, 0
	sd	a0,-56(s0)
	.loc 1 1364 15
	la	a5,gBS
	ld	a5,0(a5)
	ld	a5,296(a5)
	.loc 1 1364 12
	addi	a3,s0,-48
	addi	a4,s0,-40
	mv	a2,a4
	la	a1,gEfiDiskIoProtocolGuid
	ld	a0,-56(s0)
	jalr	a5
.LVL50:
	sd	a0,-32(s0)
	.loc 1 1372 14
	sd	zero,-24(s0)
	.loc 1 1372 3
	j	.L132
.L135:
	.loc 1 1373 24
	ld	a3,-40(s0)
	ld	a4,-24(s0)
	mv	a5,a4
	slli	a5,a5,1
	add	a5,a5,a4
	slli	a5,a5,3
	add	a5,a3,a5
	.loc 1 1373 31
	lw	a5,16(a5)
	.loc 1 1373 43
	andi	a5,a5,8
	sext.w	a5,a5
	.loc 1 1373 8
	bne	a5,zero,.L137
	.loc 1 1372 44 discriminator 2
	ld	a5,-24(s0)
	addi	a5,a5,1
	sd	a5,-24(s0)
.L132:
	.loc 1 1372 25 discriminator 1
	ld	a5,-48(s0)
	ld	a4,-24(s0)
	bltu	a4,a5,.L135
	j	.L134
.L137:
	.loc 1 1374 7
	nop
.L134:
	.loc 1 1378 3
	ld	a5,-40(s0)
	mv	a0,a5
	call	FreePool@plt
	.loc 1 1380 10
	ld	a5,-48(s0)
	ld	a4,-24(s0)
	sltu	a5,a4,a5
	andi	a5,a5,0xff
	.loc 1 1381 1
	mv	a0,a5
	ld	ra,56(sp)
	.cfi_restore 1
	ld	s0,48(sp)
	.cfi_restore 8
	.cfi_def_cfa 2, 64
	addi	sp,sp,64
	.cfi_def_cfa_offset 0
	jr	ra
	.cfi_endproc
.LFE17:
	.size	HasChildren, .-HasChildren
	.text
.Letext0:
	.file 2 "/home/kapoagaeming/Downloads/spacemit-image-builder/components/edk2/MdePkg/Include/RiscV64/ProcessorBind.h"
	.file 3 "/home/kapoagaeming/Downloads/spacemit-image-builder/components/edk2/MdePkg/Include/Base.h"
	.file 4 "/home/kapoagaeming/Downloads/spacemit-image-builder/components/edk2/MdePkg/Include/Uefi/UefiBaseType.h"
	.file 5 "/home/kapoagaeming/Downloads/spacemit-image-builder/components/edk2/MdePkg/Include/Uefi/UefiMultiPhase.h"
	.file 6 "/home/kapoagaeming/Downloads/spacemit-image-builder/components/edk2/MdePkg/Include/IndustryStandard/Bluetooth.h"
	.file 7 "/home/kapoagaeming/Downloads/spacemit-image-builder/components/edk2/MdePkg/Include/Protocol/DevicePath.h"
	.file 8 "/home/kapoagaeming/Downloads/spacemit-image-builder/components/edk2/MdePkg/Include/Protocol/SimpleTextIn.h"
	.file 9 "/home/kapoagaeming/Downloads/spacemit-image-builder/components/edk2/MdePkg/Include/Protocol/SimpleTextOut.h"
	.file 10 "/home/kapoagaeming/Downloads/spacemit-image-builder/components/edk2/MdePkg/Include/Uefi/UefiSpec.h"
	.file 11 "/home/kapoagaeming/Downloads/spacemit-image-builder/components/edk2/MdePkg/Include/Uefi/UefiGpt.h"
	.file 12 "/home/kapoagaeming/Downloads/spacemit-image-builder/components/Build/Milk-V-Jupiter/RELEASE_GCC5/RISCV64/MdeModulePkg/Universal/Disk/PartitionDxe/PartitionDxe/DEBUG/AutoGen.h"
	.file 13 "/home/kapoagaeming/Downloads/spacemit-image-builder/components/edk2/MdePkg/Include/Protocol/BlockIo.h"
	.file 14 "/home/kapoagaeming/Downloads/spacemit-image-builder/components/edk2/MdePkg/Include/Protocol/BlockIo2.h"
	.file 15 "/home/kapoagaeming/Downloads/spacemit-image-builder/components/edk2/MdePkg/Include/Protocol/ComponentName.h"
	.file 16 "/home/kapoagaeming/Downloads/spacemit-image-builder/components/edk2/MdePkg/Include/Protocol/DriverBinding.h"
	.file 17 "/home/kapoagaeming/Downloads/spacemit-image-builder/components/edk2/MdePkg/Include/Protocol/DiskIo.h"
	.file 18 "/home/kapoagaeming/Downloads/spacemit-image-builder/components/edk2/MdePkg/Include/Protocol/DiskIo2.h"
	.file 19 "/home/kapoagaeming/Downloads/spacemit-image-builder/components/edk2/MdePkg/Include/IndustryStandard/Mbr.h"
	.file 20 "/home/kapoagaeming/Downloads/spacemit-image-builder/components/edk2/MdePkg/Include/Protocol/PartitionInfo.h"
	.file 21 "/home/kapoagaeming/Downloads/spacemit-image-builder/components/edk2/MdePkg/Include/Protocol/ComponentName2.h"
	.file 22 "/home/kapoagaeming/Downloads/spacemit-image-builder/components/edk2/MdeModulePkg/Universal/Disk/PartitionDxe/Partition.h"
	.file 23 "/home/kapoagaeming/Downloads/spacemit-image-builder/components/edk2/MdePkg/Include/Library/UefiLib.h"
	.file 24 "/home/kapoagaeming/Downloads/spacemit-image-builder/components/edk2/MdePkg/Include/Library/BaseMemoryLib.h"
	.file 25 "/home/kapoagaeming/Downloads/spacemit-image-builder/components/edk2/MdePkg/Include/Library/DevicePathLib.h"
	.file 26 "/home/kapoagaeming/Downloads/spacemit-image-builder/components/edk2/MdePkg/Include/Library/BaseLib.h"
	.file 27 "/home/kapoagaeming/Downloads/spacemit-image-builder/components/edk2/MdePkg/Include/Library/MemoryAllocationLib.h"
	.file 28 "/home/kapoagaeming/Downloads/spacemit-image-builder/components/edk2/MdePkg/Include/Library/UefiBootServicesTableLib.h"
	.section	.note.GNU-stack,"",@progbits
