	.file	"Udf.c"
	.option pic
	.option norelax
	.attribute arch, "rv64i2p1_m2p0_a2p1_f2p2_d2p2_c2p0_zicsr2p0_zifencei2p0_zmmul1p0_zaamo1p0_zalrsc1p0_zca1p0_zcd1p0"
	.attribute unaligned_access, 0
	.attribute stack_align, 16
	.text
.Ltext0:
	.cfi_sections	.debug_frame
	.file 0 "/home/kapoagaeming/spacemit-image-builder/components/Build/Milk-V-Jupiter/RELEASE_GCC5/RISCV64/MdeModulePkg/Universal/Disk/PartitionDxe/PartitionDxe" "/home/kapoagaeming/spacemit-image-builder/components/edk2/MdeModulePkg/Universal/Disk/PartitionDxe/Udf.c"
	.globl	gUdfDevPathGuid
	.section	.data.gUdfDevPathGuid,"aw"
	.align	3
	.type	gUdfDevPathGuid, @object
	.size	gUdfDevPathGuid, 16
gUdfDevPathGuid:
	.word	-977449662
	.half	6774
	.half	18838
	.base64	"iVZzzaMmzQo="
	.globl	gUdfDevicePath
	.section	.data.gUdfDevicePath,"aw"
	.align	3
	.type	gUdfDevicePath, @object
	.size	gUdfDevicePath, 24
gUdfDevicePath:
	.byte	4
	.byte	3
	.string	"\024"
	.word	-977449662
	.half	6774
	.half	18838
	.base64	"iVZzzaMmzQo="
	.byte	127
	.byte	-1
	.string	"\004"
	.section	.text.FindAnchorVolumeDescriptorPointer,"ax",@progbits
	.align	1
	.globl	FindAnchorVolumeDescriptorPointer
	.type	FindAnchorVolumeDescriptorPointer, @function
FindAnchorVolumeDescriptorPointer:
.LFB0:
	.file 1 "/home/kapoagaeming/spacemit-image-builder/components/edk2/MdeModulePkg/Universal/Disk/PartitionDxe/Udf.c"
	.loc 1 76 1
	.cfi_startproc
	addi	sp,sp,-144
	.cfi_def_cfa_offset 144
	sd	ra,136(sp)
	sd	s0,128(sp)
	sd	s1,120(sp)
	sd	s2,112(sp)
	.cfi_offset 1, -8
	.cfi_offset 8, -16
	.cfi_offset 9, -24
	.cfi_offset 18, -32
	addi	s0,sp,144
	.cfi_def_cfa 8, 0
	sd	a0,-120(s0)
	sd	a1,-128(s0)
	sd	a2,-136(s0)
	sd	a3,-144(s0)
	.loc 1 104 22
	ld	a5,-120(s0)
	ld	a5,8(a5)
	.loc 1 104 13
	lw	a5,12(a5)
	sw	a5,-60(s0)
	.loc 1 105 19
	ld	a5,-120(s0)
	ld	a5,8(a5)
	.loc 1 105 10
	ld	a5,24(a5)
	sd	a5,-72(s0)
	.loc 1 106 22
	ld	a5,-144(s0)
	ld	a4,-72(s0)
	sd	a4,0(a5)
	.loc 1 107 14
	sd	zero,-48(s0)
	.loc 1 113 6
	lw	a5,-60(s0)
	sext.w	a4,a5
	li	a5,511
	bgtu	a4,a5,.L2
	.loc 1 120 12
	li	a5,-1
	slli	a5,a5,63
	addi	a5,a5,3
	j	.L3
.L2:
	.loc 1 126 18
	ld	a5,-128(s0)
	ld	s1,8(a5)
	.loc 1 128 29
	ld	a5,-120(s0)
	ld	a5,8(a5)
	.loc 1 126 12
	lw	s2,0(a5)
	lw	a5,-60(s0)
	mv	a1,a5
	li	a0,256
	call	MultU64x32@plt
	mv	a5,a0
	.loc 1 126 12 is_stmt 0 discriminator 1
	ld	a4,-136(s0)
	li	a3,512
	mv	a2,a5
	mv	a1,s2
	ld	a0,-128(s0)
	jalr	s1
.LVL0:
	sd	a0,-56(s0)
	.loc 1 133 34 is_stmt 1
	ld	a5,-56(s0)
	.loc 1 133 6
	bge	a5,zero,.L4
	.loc 1 134 12
	ld	a5,-56(s0)
	j	.L3
.L4:
	.loc 1 137 17
	ld	a5,-136(s0)
	sd	a5,-80(s0)
	.loc 1 142 20
	ld	a5,-80(s0)
	lbu	a4,0(a5)
	lbu	a5,1(a5)
	slli	a5,a5,8
	or	a5,a5,a4
	slli	a5,a5,48
	srli	a5,a5,48
	.loc 1 142 6
	sext.w	a4,a5
	li	a5,2
	bne	a4,a5,.L5
	.loc 1 144 15
	ld	a5,-48(s0)
	addi	a5,a5,1
	sd	a5,-48(s0)
.L5:
	.loc 1 150 18
	ld	a5,-128(s0)
	ld	s1,8(a5)
	.loc 1 152 29
	ld	a5,-120(s0)
	ld	a5,8(a5)
	.loc 1 150 12
	lw	s2,0(a5)
	.loc 1 153 49
	ld	a5,-72(s0)
	addi	a5,a5,-256
	.loc 1 150 12
	lw	a4,-60(s0)
	mv	a1,a4
	mv	a0,a5
	call	MultU64x32@plt
	mv	a5,a0
	.loc 1 150 12 is_stmt 0 discriminator 1
	ld	a4,-136(s0)
	li	a3,512
	mv	a2,a5
	mv	a1,s2
	ld	a0,-128(s0)
	jalr	s1
.LVL1:
	sd	a0,-56(s0)
	.loc 1 157 34 is_stmt 1
	ld	a5,-56(s0)
	.loc 1 157 6
	bge	a5,zero,.L6
	.loc 1 158 12
	ld	a5,-56(s0)
	j	.L3
.L6:
	.loc 1 164 21
	ld	a5,-80(s0)
	lbu	a4,0(a5)
	lbu	a5,1(a5)
	slli	a5,a5,8
	or	a5,a5,a4
	slli	a5,a5,48
	srli	a5,a5,48
	.loc 1 164 6
	sext.w	a4,a5
	li	a5,2
	bne	a4,a5,.L7
	.loc 1 164 74 discriminator 1
	ld	a5,-48(s0)
	addi	a5,a5,1
	sd	a5,-48(s0)
	ld	a4,-48(s0)
	li	a5,2
	bne	a4,a5,.L7
	.loc 1 173 12
	li	a5,0
	j	.L3
.L7:
	.loc 1 179 6
	ld	a5,-48(s0)
	bne	a5,zero,.L8
	.loc 1 180 12
	li	a5,-1
	slli	a5,a5,63
	addi	a5,a5,10
	j	.L3
.L8:
	.loc 1 186 18
	ld	a5,-128(s0)
	ld	s1,8(a5)
	.loc 1 188 29
	ld	a5,-120(s0)
	ld	a5,8(a5)
	.loc 1 186 12
	lw	s2,0(a5)
	lw	a5,-60(s0)
	mv	a1,a5
	ld	a0,-72(s0)
	call	MultU64x32@plt
	mv	a5,a0
	.loc 1 186 12 is_stmt 0 discriminator 1
	ld	a4,-136(s0)
	li	a3,512
	mv	a2,a5
	mv	a1,s2
	ld	a0,-128(s0)
	jalr	s1
.LVL2:
	sd	a0,-56(s0)
	.loc 1 193 34 is_stmt 1
	ld	a5,-56(s0)
	.loc 1 193 6
	bge	a5,zero,.L9
	.loc 1 194 12
	ld	a5,-56(s0)
	j	.L3
.L9:
	.loc 1 200 20
	ld	a5,-80(s0)
	lbu	a4,0(a5)
	lbu	a5,1(a5)
	slli	a5,a5,8
	or	a5,a5,a4
	slli	a5,a5,48
	srli	a5,a5,48
	.loc 1 200 6
	sext.w	a4,a5
	li	a5,2
	bne	a4,a5,.L10
	.loc 1 201 12
	li	a5,0
	j	.L3
.L10:
	.loc 1 212 15
	lw	a5,-60(s0)
	slliw	a5,a5,9
	sext.w	a5,a5
	.loc 1 212 8
	slli	a5,a5,32
	srli	a5,a5,32
	sd	a5,-88(s0)
	.loc 1 214 18
	ld	a0,-88(s0)
	call	AllocateZeroPool@plt
	sd	a0,-96(s0)
	.loc 1 215 6
	ld	a5,-96(s0)
	bne	a5,zero,.L11
	.loc 1 216 12
	li	a5,-1
	slli	a5,a5,63
	addi	a5,a5,9
	j	.L3
.L11:
	.loc 1 222 18
	ld	a5,-128(s0)
	ld	s1,8(a5)
	.loc 1 224 29
	ld	a5,-120(s0)
	ld	a5,8(a5)
	.loc 1 222 12
	lw	s2,0(a5)
	.loc 1 225 49
	ld	a5,-72(s0)
	addi	a5,a5,-512
	.loc 1 222 12
	lw	a4,-60(s0)
	mv	a1,a4
	mv	a0,a5
	call	MultU64x32@plt
	mv	a5,a0
	.loc 1 222 12 is_stmt 0 discriminator 1
	ld	a4,-96(s0)
	ld	a3,-88(s0)
	mv	a2,a5
	mv	a1,s2
	ld	a0,-128(s0)
	jalr	s1
.LVL3:
	sd	a0,-56(s0)
	.loc 1 229 34 is_stmt 1
	ld	a5,-56(s0)
	.loc 1 229 6
	blt	a5,zero,.L17
	.loc 1 233 10
	li	a5,-1
	slli	a5,a5,63
	addi	a5,a5,10
	sd	a5,-56(s0)
	.loc 1 238 14
	li	a5,510
	sd	a5,-40(s0)
	.loc 1 238 3
	j	.L14
.L16:
	.loc 1 239 59
	lwu	a4,-60(s0)
	ld	a5,-40(s0)
	mul	a5,a4,a5
	mv	a4,a5
	.loc 1 239 31
	ld	a5,-96(s0)
	.loc 1 239 51
	add	a5,a4,a5
	.loc 1 239 20
	sd	a5,-104(s0)
	.loc 1 241 19
	ld	a5,-104(s0)
	sd	a5,-80(s0)
	.loc 1 246 22
	ld	a5,-80(s0)
	lbu	a4,0(a5)
	lbu	a5,1(a5)
	slli	a5,a5,8
	or	a5,a5,a4
	slli	a5,a5,48
	srli	a5,a5,48
	.loc 1 246 8
	sext.w	a4,a5
	li	a5,2
	bne	a4,a5,.L15
	.loc 1 250 33
	ld	a4,-40(s0)
	ld	a5,-72(s0)
	add	a5,a4,a5
	.loc 1 250 24
	addi	a5,a5,-512
	sd	a5,-112(s0)
	.loc 1 267 7
	li	a2,512
	ld	a1,-104(s0)
	ld	a0,-136(s0)
	call	CopyMem@plt
	.loc 1 271 26
	ld	a5,-144(s0)
	ld	a4,-112(s0)
	sd	a4,0(a5)
	.loc 1 272 14
	sd	zero,-56(s0)
	.loc 1 273 7
	j	.L13
.L15:
	.loc 1 238 43 discriminator 2
	ld	a5,-40(s0)
	addi	a5,a5,-1
	sd	a5,-40(s0)
.L14:
	.loc 1 238 32 discriminator 1
	ld	a5,-40(s0)
	bge	a5,zero,.L16
	.loc 1 277 1
	j	.L13
.L17:
	.loc 1 230 5
	nop
.L13:
	.loc 1 278 3
	ld	a0,-96(s0)
	call	FreePool@plt
	.loc 1 279 10
	ld	a5,-56(s0)
.L3:
	.loc 1 280 1
	mv	a0,a5
	ld	ra,136(sp)
	.cfi_restore 1
	ld	s0,128(sp)
	.cfi_restore 8
	.cfi_def_cfa 2, 144
	ld	s1,120(sp)
	.cfi_restore 9
	ld	s2,112(sp)
	.cfi_restore 18
	addi	sp,sp,144
	.cfi_def_cfa_offset 0
	jr	ra
	.cfi_endproc
.LFE0:
	.size	FindAnchorVolumeDescriptorPointer, .-FindAnchorVolumeDescriptorPointer
	.section	.rodata
	.align	3
.LC0:
	.string	"BEA01"
	.align	3
.LC1:
	.string	"CD001"
	.align	3
.LC2:
	.string	"NSR02"
	.align	3
.LC3:
	.string	"NSR03"
	.align	3
.LC4:
	.string	"TEA01"
	.section	.text.FindUdfVolumeIdentifiers,"ax",@progbits
	.align	1
	.globl	FindUdfVolumeIdentifiers
	.type	FindUdfVolumeIdentifiers, @function
FindUdfVolumeIdentifiers:
.LFB1:
	.loc 1 298 1
	.cfi_startproc
	addi	sp,sp,-240
	.cfi_def_cfa_offset 240
	sd	ra,232(sp)
	sd	s0,224(sp)
	.cfi_offset 1, -8
	.cfi_offset 8, -16
	addi	s0,sp,240
	.cfi_def_cfa 8, 0
	sd	a0,-232(s0)
	sd	a1,-240(s0)
	.loc 1 305 3
	addi	a5,s0,-216
	li	a1,88
	mv	a0,a5
	call	ZeroMem@plt
	.loc 1 311 28
	ld	a5,-232(s0)
	ld	a5,8(a5)
	.loc 1 311 35
	ld	a4,24(a5)
	.loc 1 312 28
	ld	a5,-232(s0)
	ld	a5,8(a5)
	.loc 1 310 19
	lw	a5,12(a5)
	mv	a1,a5
	mv	a0,a4
	call	MultU64x32@plt
	sd	a0,-32(s0)
	.loc 1 315 15
	li	a5,32768
	sd	a5,-24(s0)
	.loc 1 315 3
	j	.L19
.L26:
	.loc 1 322 20
	ld	a5,-240(s0)
	ld	a5,8(a5)
	.loc 1 324 31
	ld	a4,-232(s0)
	ld	a4,8(a4)
	.loc 1 322 14
	lw	a1,0(a4)
	addi	a4,s0,-128
	li	a3,88
	ld	a2,-24(s0)
	ld	a0,-240(s0)
	jalr	a5
.LVL4:
	sd	a0,-40(s0)
	.loc 1 329 36
	ld	a5,-40(s0)
	.loc 1 329 8
	bge	a5,zero,.L20
	.loc 1 330 14
	ld	a5,-40(s0)
	j	.L33
.L20:
	.loc 1 333 9
	addi	a5,s0,-128
	addi	a5,a5,1
	li	a2,5
	lla	a1,.LC0
	mv	a0,a5
	call	CompareMem@plt
	mv	a5,a0
	.loc 1 333 8 discriminator 1
	beq	a5,zero,.L34
	.loc 1 342 10
	addi	a5,s0,-128
	addi	a5,a5,1
	li	a2,5
	lla	a1,.LC1
	mv	a0,a5
	call	CompareMem@plt
	mv	a5,a0
	.loc 1 342 8 discriminator 1
	bne	a5,zero,.L24
	.loc 1 347 10
	addi	a4,s0,-216
	addi	a5,s0,-128
	li	a2,88
	mv	a1,a4
	mv	a0,a5
	call	CompareMem@plt
	mv	a5,a0
	.loc 1 346 20
	bne	a5,zero,.L25
.L24:
	.loc 1 353 14
	li	a5,-1
	slli	a5,a5,63
	addi	a5,a5,14
	j	.L33
.L25:
	.loc 1 316 15
	ld	a4,-24(s0)
	li	a5,4096
	addi	a5,a5,-2048
	add	a5,a4,a5
	sd	a5,-24(s0)
.L19:
	.loc 1 315 49 discriminator 1
	ld	a4,-24(s0)
	ld	a5,-32(s0)
	bltu	a4,a5,.L26
	j	.L23
.L34:
	.loc 1 339 7
	nop
.L23:
	.loc 1 360 10
	ld	a4,-24(s0)
	li	a5,4096
	addi	a5,a5,-2048
	add	a5,a4,a5
	sd	a5,-24(s0)
	.loc 1 361 6
	ld	a4,-24(s0)
	ld	a5,-32(s0)
	bltu	a4,a5,.L27
	.loc 1 362 12
	li	a5,-1
	slli	a5,a5,63
	addi	a5,a5,14
	j	.L33
.L27:
	.loc 1 365 18
	ld	a5,-240(s0)
	ld	a5,8(a5)
	.loc 1 367 29
	ld	a4,-232(s0)
	ld	a4,8(a4)
	.loc 1 365 12
	lw	a1,0(a4)
	addi	a4,s0,-128
	li	a3,88
	ld	a2,-24(s0)
	ld	a0,-240(s0)
	jalr	a5
.LVL5:
	sd	a0,-40(s0)
	.loc 1 372 34
	ld	a5,-40(s0)
	.loc 1 372 6
	bge	a5,zero,.L28
	.loc 1 373 12
	ld	a5,-40(s0)
	j	.L33
.L28:
	.loc 1 376 8
	addi	a5,s0,-128
	addi	a5,a5,1
	li	a2,5
	lla	a1,.LC2
	mv	a0,a5
	call	CompareMem@plt
	mv	a5,a0
	.loc 1 376 6 discriminator 1
	beq	a5,zero,.L29
	.loc 1 381 8
	addi	a5,s0,-128
	addi	a5,a5,1
	li	a2,5
	lla	a1,.LC3
	mv	a0,a5
	call	CompareMem@plt
	mv	a5,a0
	.loc 1 380 18
	beq	a5,zero,.L29
	.loc 1 387 12
	li	a5,-1
	slli	a5,a5,63
	addi	a5,a5,14
	j	.L33
.L29:
	.loc 1 393 10
	ld	a4,-24(s0)
	li	a5,4096
	addi	a5,a5,-2048
	add	a5,a4,a5
	sd	a5,-24(s0)
	.loc 1 394 6
	ld	a4,-24(s0)
	ld	a5,-32(s0)
	bltu	a4,a5,.L30
	.loc 1 395 12
	li	a5,-1
	slli	a5,a5,63
	addi	a5,a5,14
	j	.L33
.L30:
	.loc 1 398 18
	ld	a5,-240(s0)
	ld	a5,8(a5)
	.loc 1 400 29
	ld	a4,-232(s0)
	ld	a4,8(a4)
	.loc 1 398 12
	lw	a1,0(a4)
	addi	a4,s0,-128
	li	a3,88
	ld	a2,-24(s0)
	ld	a0,-240(s0)
	jalr	a5
.LVL6:
	sd	a0,-40(s0)
	.loc 1 405 34
	ld	a5,-40(s0)
	.loc 1 405 6
	bge	a5,zero,.L31
	.loc 1 406 12
	ld	a5,-40(s0)
	j	.L33
.L31:
	.loc 1 409 7
	addi	a5,s0,-128
	addi	a5,a5,1
	li	a2,5
	lla	a1,.LC4
	mv	a0,a5
	call	CompareMem@plt
	mv	a5,a0
	.loc 1 409 6 discriminator 1
	beq	a5,zero,.L32
	.loc 1 415 12
	li	a5,-1
	slli	a5,a5,63
	addi	a5,a5,14
	j	.L33
.L32:
	.loc 1 418 10
	li	a5,0
.L33:
	.loc 1 419 1
	mv	a0,a5
	ld	ra,232(sp)
	.cfi_restore 1
	ld	s0,224(sp)
	.cfi_restore 8
	.cfi_def_cfa 2, 240
	addi	sp,sp,240
	.cfi_def_cfa_offset 0
	jr	ra
	.cfi_endproc
.LFE1:
	.size	FindUdfVolumeIdentifiers, .-FindUdfVolumeIdentifiers
	.section	.text.IsLogicalVolumeDescriptorSupported,"ax",@progbits
	.align	1
	.globl	IsLogicalVolumeDescriptorSupported
	.type	IsLogicalVolumeDescriptorSupported, @function
IsLogicalVolumeDescriptorSupported:
.LFB2:
	.loc 1 435 1
	.cfi_startproc
	addi	sp,sp,-32
	.cfi_def_cfa_offset 32
	sd	ra,24(sp)
	sd	s0,16(sp)
	.cfi_offset 1, -8
	.cfi_offset 8, -16
	addi	s0,sp,32
	.cfi_def_cfa 8, 0
	sd	a0,-24(s0)
	.loc 1 439 57
	ld	a5,-24(s0)
	lbu	a4,240(a5)
	lbu	a5,241(a5)
	slli	a5,a5,8
	or	a5,a5,a4
	slli	a5,a5,48
	srli	a5,a5,48
	sext.w	a5,a5
	.loc 1 439 3
	li	a4,608
	beq	a5,a4,.L43
	li	a4,608
	bgt	a5,a4,.L37
	li	a4,592
	beq	a5,a4,.L43
	li	a4,592
	bgt	a5,a4,.L37
	li	a4,513
	bgt	a5,a4,.L37
	li	a4,512
	bge	a5,a4,.L43
	li	a4,258
	beq	a5,a4,.L43
	li	a4,336
	beq	a5,a4,.L43
.L37:
	.loc 1 448 14
	li	a5,0
	j	.L39
.L43:
	.loc 1 446 7
	nop
	.loc 1 454 21
	ld	a5,-24(s0)
	lbu	a4,268(a5)
	lbu	a3,269(a5)
	slli	a3,a3,8
	or	a4,a3,a4
	lbu	a3,270(a5)
	slli	a3,a3,16
	or	a4,a3,a4
	lbu	a5,271(a5)
	slli	a5,a5,24
	or	a5,a5,a4
	sext.w	a4,a5
	.loc 1 454 6
	li	a5,1
	bleu	a4,a5,.L40
	.loc 1 455 12
	li	a5,0
	j	.L39
.L40:
	.loc 1 465 37
	ld	a5,-24(s0)
	lbu	a5,440(a5)
	.loc 1 465 6
	mv	a4,a5
	li	a5,1
	bne	a4,a5,.L41
	.loc 1 466 37
	ld	a5,-24(s0)
	lbu	a5,441(a5)
	.loc 1 465 47 discriminator 1
	mv	a4,a5
	li	a5,6
	beq	a4,a5,.L42
.L41:
	.loc 1 468 12
	li	a5,0
	j	.L39
.L42:
	.loc 1 471 10
	li	a5,1
.L39:
	.loc 1 472 1
	mv	a0,a5
	ld	ra,24(sp)
	.cfi_restore 1
	ld	s0,16(sp)
	.cfi_restore 8
	.cfi_def_cfa 2, 32
	addi	sp,sp,32
	.cfi_def_cfa_offset 0
	jr	ra
	.cfi_endproc
.LFE2:
	.size	IsLogicalVolumeDescriptorSupported, .-IsLogicalVolumeDescriptorSupported
	.section	.text.FindLogicalVolumeLocation,"ax",@progbits
	.align	1
	.globl	FindLogicalVolumeLocation
	.type	FindLogicalVolumeLocation, @function
FindLogicalVolumeLocation:
.LFB3:
	.loc 1 500 1
	.cfi_startproc
	addi	sp,sp,-160
	.cfi_def_cfa_offset 160
	sd	ra,152(sp)
	sd	s0,144(sp)
	.cfi_offset 1, -8
	.cfi_offset 8, -16
	addi	s0,sp,160
	.cfi_def_cfa 8, 0
	sd	a0,-120(s0)
	sd	a1,-128(s0)
	sd	a2,-136(s0)
	sd	a3,-144(s0)
	sd	a4,-152(s0)
	sd	a5,-160(s0)
	.loc 1 514 22
	ld	a5,-120(s0)
	ld	a5,8(a5)
	.loc 1 514 13
	lw	a5,12(a5)
	sw	a5,-52(s0)
	.loc 1 515 12
	ld	a5,-136(s0)
	addi	a5,a5,16
	sd	a5,-64(s0)
	.loc 1 525 45
	ld	a5,-64(s0)
	lbu	a4,0(a5)
	lbu	a3,1(a5)
	slli	a3,a3,8
	or	a4,a3,a4
	lbu	a3,2(a5)
	slli	a3,a3,16
	or	a4,a3,a4
	lbu	a5,3(a5)
	slli	a5,a5,24
	or	a5,a5,a4
	sext.w	a5,a5
	.loc 1 525 18
	slli	a5,a5,32
	srli	a5,a5,32
	lw	a4,-52(s0)
	mv	a1,a4
	mv	a0,a5
	call	DivU64x32@plt
	sd	a0,-72(s0)
	.loc 1 526 6
	ld	a4,-72(s0)
	li	a5,15
	bleu	a4,a5,.L45
	.loc 1 526 73 discriminator 1
	ld	a5,-144(s0)
	addi	a5,a5,1
	.loc 1 526 27 discriminator 1
	ld	a4,-72(s0)
	bleu	a4,a5,.L46
.L45:
	.loc 1 527 12
	li	a5,-1
	slli	a5,a5,63
	addi	a5,a5,10
	j	.L47
.L46:
	.loc 1 533 35
	ld	a5,-64(s0)
	lbu	a4,4(a5)
	lbu	a3,5(a5)
	slli	a3,a3,8
	or	a4,a3,a4
	lbu	a3,6(a5)
	slli	a3,a3,16
	or	a4,a3,a4
	lbu	a5,7(a5)
	slli	a5,a5,24
	or	a5,a5,a4
	sext.w	a5,a5
	.loc 1 533 17
	slli	a5,a5,32
	srli	a5,a5,32
	sd	a5,-32(s0)
	.loc 1 534 6
	ld	a4,-32(s0)
	ld	a5,-144(s0)
	bgtu	a4,a5,.L48
	.loc 1 535 22
	ld	a4,-32(s0)
	ld	a5,-72(s0)
	add	a5,a4,a5
	.loc 1 535 37
	addi	a5,a5,-1
	.loc 1 534 43 discriminator 1
	ld	a4,-144(s0)
	bgeu	a4,a5,.L49
.L48:
	.loc 1 537 12
	li	a5,-1
	slli	a5,a5,63
	addi	a5,a5,10
	j	.L47
.L49:
	.loc 1 540 26
	ld	a5,-32(s0)
	sd	a5,-80(s0)
	.loc 1 545 12
	lwu	a5,-52(s0)
	mv	a0,a5
	call	AllocateZeroPool@plt
	sd	a0,-88(s0)
	.loc 1 546 6
	ld	a5,-88(s0)
	bne	a5,zero,.L50
	.loc 1 547 12
	li	a5,-1
	slli	a5,a5,63
	addi	a5,a5,9
	j	.L47
.L50:
	.loc 1 550 15
	ld	a4,-32(s0)
	ld	a5,-72(s0)
	add	a5,a4,a5
	sd	a5,-96(s0)
	.loc 1 551 16
	sb	zero,-33(s0)
	.loc 1 552 13
	sd	zero,-48(s0)
	.loc 1 553 10
	li	a5,-1
	slli	a5,a5,63
	addi	a5,a5,10
	sd	a5,-24(s0)
	.loc 1 557 3
	j	.L51
.L62:
	.loc 1 561 21
	ld	a5,-120(s0)
	ld	a5,24(a5)
	.loc 1 563 32
	ld	a4,-120(s0)
	ld	a4,8(a4)
	.loc 1 561 14
	lw	a1,0(a4)
	lwu	a3,-52(s0)
	ld	a4,-88(s0)
	ld	a2,-32(s0)
	ld	a0,-120(s0)
	jalr	a5
.LVL7:
	sd	a0,-24(s0)
	.loc 1 568 36
	ld	a5,-24(s0)
	.loc 1 568 8
	blt	a5,zero,.L63
	.loc 1 572 19
	ld	a5,-88(s0)
	sd	a5,-104(s0)
	.loc 1 588 26
	ld	a5,-104(s0)
	lbu	a4,0(a5)
	lbu	a5,1(a5)
	slli	a5,a5,8
	or	a5,a5,a4
	slli	a5,a5,48
	srli	a5,a5,48
	sext.w	a5,a5
	.loc 1 588 5
	li	a4,8
	beq	a5,a4,.L54
	li	a4,8
	bgt	a5,a4,.L55
	li	a4,7
	beq	a5,a4,.L64
	li	a4,7
	bgt	a5,a4,.L55
	li	a4,6
	beq	a5,a4,.L57
	li	a4,6
	bgt	a5,a4,.L55
	li	a4,1
	beq	a5,a4,.L64
	ble	a5,zero,.L55
	addiw	a5,a5,-4
	sext.w	a4,a5
	li	a5,1
	bgtu	a4,a5,.L55
	.loc 1 593 9
	j	.L64
.L57:
	.loc 1 596 24
	ld	a5,-88(s0)
	sd	a5,-112(s0)
	.loc 1 602 12
	ld	a5,-48(s0)
	addi	a5,a5,1
	sd	a5,-48(s0)
	ld	a4,-48(s0)
	li	a5,1
	bgtu	a4,a5,.L59
	.loc 1 603 14
	ld	a0,-112(s0)
	call	IsLogicalVolumeDescriptorSupported
	mv	a5,a0
	.loc 1 602 31 discriminator 1
	bne	a5,zero,.L65
.L59:
	.loc 1 605 18
	li	a5,-1
	slli	a5,a5,63
	addi	a5,a5,3
	sd	a5,-24(s0)
	.loc 1 606 24
	li	a5,1
	sb	a5,-33(s0)
	.loc 1 609 9
	j	.L65
.L54:
	.loc 1 617 22
	li	a5,1
	sb	a5,-33(s0)
	.loc 1 618 9
	j	.L58
.L55:
	.loc 1 625 16
	li	a5,-1
	slli	a5,a5,63
	addi	a5,a5,10
	sd	a5,-24(s0)
	.loc 1 626 9
	j	.L53
.L64:
	.loc 1 593 9
	nop
	j	.L58
.L65:
	.loc 1 609 9
	nop
.L58:
	.loc 1 557 70
	ld	a5,-32(s0)
	addi	a5,a5,1
	sd	a5,-32(s0)
.L51:
	.loc 1 557 39 discriminator 1
	ld	a4,-32(s0)
	ld	a5,-96(s0)
	bgeu	a4,a5,.L61
	.loc 1 557 39 is_stmt 0 discriminator 2
	lbu	a5,-33(s0)
	andi	a5,a5,0xff
	beq	a5,zero,.L62
.L61:
	.loc 1 633 7 is_stmt 1
	ld	a5,-24(s0)
	.loc 1 633 6
	blt	a5,zero,.L66
	.loc 1 633 61 discriminator 1
	ld	a4,-48(s0)
	li	a5,1
	bne	a4,a5,.L66
	.loc 1 634 24
	ld	a5,-152(s0)
	ld	a4,-80(s0)
	sd	a4,0(a5)
	.loc 1 640 22
	ld	a5,-160(s0)
	ld	a4,-144(s0)
	sd	a4,0(a5)
	.loc 1 642 12
	sd	zero,-24(s0)
	j	.L53
.L63:
	.loc 1 569 7
	nop
	j	.L53
.L66:
	.loc 1 645 1
	nop
.L53:
	.loc 1 649 3
	ld	a0,-88(s0)
	call	FreePool@plt
	.loc 1 651 10
	ld	a5,-24(s0)
.L47:
	.loc 1 652 1
	mv	a0,a5
	ld	ra,152(sp)
	.cfi_restore 1
	ld	s0,144(sp)
	.cfi_restore 8
	.cfi_def_cfa 2, 160
	addi	sp,sp,160
	.cfi_def_cfa_offset 0
	jr	ra
	.cfi_endproc
.LFE3:
	.size	FindLogicalVolumeLocation, .-FindLogicalVolumeLocation
	.section	.text.FindUdfFileSystem,"ax",@progbits
	.align	1
	.globl	FindUdfFileSystem
	.type	FindUdfFileSystem, @function
FindUdfFileSystem:
.LFB4:
	.loc 1 679 1
	.cfi_startproc
	addi	sp,sp,-576
	.cfi_def_cfa_offset 576
	sd	ra,568(sp)
	sd	s0,560(sp)
	.cfi_offset 1, -8
	.cfi_offset 8, -16
	addi	s0,sp,576
	.cfi_def_cfa 8, 0
	sd	a0,-552(s0)
	sd	a1,-560(s0)
	sd	a2,-568(s0)
	sd	a3,-576(s0)
	.loc 1 687 12
	ld	a1,-560(s0)
	ld	a0,-552(s0)
	call	FindUdfVolumeIdentifiers
	sd	a0,-24(s0)
	.loc 1 688 34
	ld	a5,-24(s0)
	.loc 1 688 6
	bge	a5,zero,.L68
	.loc 1 689 12
	ld	a5,-24(s0)
	j	.L71
.L68:
	.loc 1 695 12
	addi	a4,s0,-544
	addi	a5,s0,-536
	mv	a3,a4
	mv	a2,a5
	ld	a1,-560(s0)
	ld	a0,-552(s0)
	call	FindAnchorVolumeDescriptorPointer
	sd	a0,-24(s0)
	.loc 1 701 34
	ld	a5,-24(s0)
	.loc 1 701 6
	bge	a5,zero,.L70
	.loc 1 702 12
	ld	a5,-24(s0)
	j	.L71
.L70:
	.loc 1 708 12
	ld	a3,-544(s0)
	addi	a2,s0,-536
	ld	a5,-576(s0)
	ld	a4,-568(s0)
	ld	a1,-560(s0)
	ld	a0,-552(s0)
	call	FindLogicalVolumeLocation
	sd	a0,-24(s0)
	.loc 1 717 10
	ld	a5,-24(s0)
.L71:
	.loc 1 718 1
	mv	a0,a5
	ld	ra,568(sp)
	.cfi_restore 1
	ld	s0,560(sp)
	.cfi_restore 8
	.cfi_def_cfa 2, 576
	addi	sp,sp,576
	.cfi_def_cfa_offset 0
	jr	ra
	.cfi_endproc
.LFE4:
	.size	FindUdfFileSystem, .-FindUdfFileSystem
	.section	.text.PartitionInstallUdfChildHandles,"ax",@progbits
	.align	1
	.globl	PartitionInstallUdfChildHandles
	.type	PartitionInstallUdfChildHandles, @function
PartitionInstallUdfChildHandles:
.LFB5:
	.loc 1 747 1
	.cfi_startproc
	addi	sp,sp,-320
	.cfi_def_cfa_offset 320
	sd	ra,312(sp)
	sd	s0,304(sp)
	.cfi_offset 1, -8
	.cfi_offset 8, -16
	addi	s0,sp,320
	.cfi_def_cfa 8, 0
	sd	a0,-216(s0)
	sd	a1,-224(s0)
	sd	a2,-232(s0)
	sd	a3,-240(s0)
	sd	a4,-248(s0)
	sd	a5,-256(s0)
	sd	a6,-264(s0)
	.loc 1 756 9
	ld	a5,-248(s0)
	ld	a5,8(a5)
	sd	a5,-32(s0)
	.loc 1 757 16
	sb	zero,-17(s0)
	.loc 1 762 3
	ld	a5,-32(s0)
	lw	a5,12(a5)
	addi	a4,s0,-44
	mv	a2,a4
	mv	a1,a5
	li	a5,4096
	addi	a0,a5,-2048
	call	DivU64x32Remainder@plt
	.loc 1 767 33
	lw	a5,-44(s0)
	.loc 1 767 6
	beq	a5,zero,.L73
	.loc 1 768 12
	li	a5,-1
	slli	a5,a5,63
	addi	a5,a5,14
	j	.L82
.L73:
	.loc 1 775 12
	ld	a6,-264(s0)
	ld	a5,-256(s0)
	ld	a4,-248(s0)
	ld	a3,-240(s0)
	ld	a2,-232(s0)
	ld	a1,-224(s0)
	ld	a0,-216(s0)
	call	PartitionInstallElToritoChildHandles@plt
	sd	a0,-40(s0)
	.loc 1 784 7
	ld	a5,-40(s0)
	.loc 1 784 6
	blt	a5,zero,.L75
	.loc 1 786 18
	li	a5,1
	sb	a5,-17(s0)
.L75:
	.loc 1 792 12
	addi	a4,s0,-208
	addi	a5,s0,-200
	mv	a3,a4
	mv	a2,a5
	ld	a1,-232(s0)
	ld	a0,-248(s0)
	call	FindUdfFileSystem
	sd	a0,-40(s0)
	.loc 1 793 34
	ld	a5,-40(s0)
	.loc 1 793 6
	bge	a5,zero,.L76
	.loc 1 794 47
	lbu	a5,-17(s0)
	andi	a5,a5,0xff
	beq	a5,zero,.L77
	.loc 1 794 47 is_stmt 0 discriminator 1
	li	a5,0
	.loc 1 794 47
	j	.L82
.L77:
	.loc 1 794 47 discriminator 2
	li	a5,-1
	slli	a5,a5,63
	addi	a5,a5,14
	.loc 1 794 47
	j	.L82
.L76:
	.loc 1 800 3 is_stmt 1
	addi	a5,s0,-192
	li	a1,144
	mv	a0,a5
	call	ZeroMem@plt
	.loc 1 801 26
	li	a5,4096
	sw	a5,-192(s0)
	.loc 1 802 22
	sw	zero,-188(s0)
	.loc 1 807 12
	ld	a5,-200(s0)
	ld	a4,-208(s0)
	ld	a3,-32(s0)
	lw	a3,12(a3)
	sd	zero,32(sp)
	sd	a3,24(sp)
	sd	a4,16(sp)
	sd	a5,8(sp)
	addi	a5,s0,-192
	sd	a5,0(sp)
	lla	a7,gUdfDevicePath
	ld	a6,-264(s0)
	ld	a5,-256(s0)
	ld	a4,-248(s0)
	ld	a3,-240(s0)
	ld	a2,-232(s0)
	ld	a1,-224(s0)
	ld	a0,-216(s0)
	call	PartitionInstallChildHandle@plt
	sd	a0,-40(s0)
	.loc 1 822 34
	ld	a5,-40(s0)
	.loc 1 822 6
	bge	a5,zero,.L79
	.loc 1 823 47
	lbu	a5,-17(s0)
	andi	a5,a5,0xff
	bne	a5,zero,.L80
	.loc 1 823 47 is_stmt 0 discriminator 1
	ld	a5,-40(s0)
	.loc 1 823 47
	j	.L82
.L80:
	.loc 1 823 47 discriminator 2
	li	a5,0
	.loc 1 823 47
	j	.L82
.L79:
	.loc 1 826 10 is_stmt 1
	li	a5,0
.L82:
	.loc 1 827 1
	mv	a0,a5
	ld	ra,312(sp)
	.cfi_restore 1
	ld	s0,304(sp)
	.cfi_restore 8
	.cfi_def_cfa 2, 320
	addi	sp,sp,320
	.cfi_def_cfa_offset 0
	jr	ra
	.cfi_endproc
.LFE5:
	.size	PartitionInstallUdfChildHandles, .-PartitionInstallUdfChildHandles
	.text
.Letext0:
	.file 2 "/home/kapoagaeming/spacemit-image-builder/components/edk2/MdePkg/Include/RiscV64/ProcessorBind.h"
	.file 3 "/home/kapoagaeming/spacemit-image-builder/components/edk2/MdePkg/Include/Base.h"
	.file 4 "/home/kapoagaeming/spacemit-image-builder/components/edk2/MdePkg/Include/Uefi/UefiBaseType.h"
	.file 5 "/home/kapoagaeming/spacemit-image-builder/components/edk2/MdePkg/Include/Protocol/DevicePath.h"
	.file 6 "/home/kapoagaeming/spacemit-image-builder/components/edk2/MdePkg/Include/Uefi/UefiGpt.h"
	.file 7 "/home/kapoagaeming/spacemit-image-builder/components/edk2/MdePkg/Include/Protocol/BlockIo.h"
	.file 8 "/home/kapoagaeming/spacemit-image-builder/components/edk2/MdePkg/Include/Protocol/BlockIo2.h"
	.file 9 "/home/kapoagaeming/spacemit-image-builder/components/edk2/MdePkg/Include/Protocol/DriverBinding.h"
	.file 10 "/home/kapoagaeming/spacemit-image-builder/components/edk2/MdePkg/Include/Protocol/DiskIo.h"
	.file 11 "/home/kapoagaeming/spacemit-image-builder/components/edk2/MdePkg/Include/Protocol/DiskIo2.h"
	.file 12 "/home/kapoagaeming/spacemit-image-builder/components/edk2/MdePkg/Include/IndustryStandard/Mbr.h"
	.file 13 "/home/kapoagaeming/spacemit-image-builder/components/edk2/MdePkg/Include/Protocol/PartitionInfo.h"
	.file 14 "/home/kapoagaeming/spacemit-image-builder/components/edk2/MdePkg/Include/IndustryStandard/ElTorito.h"
	.file 15 "/home/kapoagaeming/spacemit-image-builder/components/edk2/MdePkg/Include/IndustryStandard/Udf.h"
	.file 16 "/home/kapoagaeming/spacemit-image-builder/components/edk2/MdeModulePkg/Universal/Disk/PartitionDxe/Partition.h"
	.file 17 "/home/kapoagaeming/spacemit-image-builder/components/edk2/MdePkg/Include/Library/BaseLib.h"
	.file 18 "/home/kapoagaeming/spacemit-image-builder/components/edk2/MdePkg/Include/Library/BaseMemoryLib.h"
	.file 19 "/home/kapoagaeming/spacemit-image-builder/components/edk2/MdePkg/Include/Library/MemoryAllocationLib.h"
	.section	.note.GNU-stack,"",@progbits
