	.file	"Platform.c"
	.option pic
	.option norelax
	.attribute arch, "rv64i2p1_m2p0_a2p1_f2p2_d2p2_c2p0_zicsr2p0_zifencei2p0_zmmul1p0_zaamo1p0_zalrsc1p0_zca1p0_zcd1p0"
	.attribute unaligned_access, 0
	.attribute stack_align, 16
	.text
.Ltext0:
	.cfi_sections	.debug_frame
	.file 0 "/home/kapoagaeming/spacemit-image-builder/components/Build/Milk-V-Jupiter/RELEASE_GCC5/RISCV64/Silicon/Spacemit/Library/SpacemitSecHelperLib/SpacemitSecHelperLib" "/home/kapoagaeming/spacemit-image-builder/components/edk2-platforms/Silicon/Spacemit/Library/SpacemitSecHelperLib/Platform.c"
	.section	.text.fdt32_to_cpu,"ax",@progbits
	.align	1
	.type	fdt32_to_cpu, @function
fdt32_to_cpu:
.LFB1:
	.file 1 "/home/kapoagaeming/spacemit-image-builder/components/edk2/EmbeddedPkg/Include/libfdt_env.h"
	.loc 1 40 1
	.cfi_startproc
	addi	sp,sp,-32
	.cfi_def_cfa_offset 32
	sd	ra,24(sp)
	sd	s0,16(sp)
	.cfi_offset 1, -8
	.cfi_offset 8, -16
	addi	s0,sp,32
	.cfi_def_cfa 8, 0
	mv	a5,a0
	sw	a5,-20(s0)
	.loc 1 41 10
	lw	a5,-20(s0)
	mv	a0,a5
	call	SwapBytes32@plt
	mv	a5,a0
	.loc 1 42 1
	mv	a0,a5
	ld	ra,24(sp)
	.cfi_restore 1
	ld	s0,16(sp)
	.cfi_restore 8
	.cfi_def_cfa 2, 32
	addi	sp,sp,32
	.cfi_def_cfa_offset 0
	jr	ra
	.cfi_endproc
.LFE1:
	.size	fdt32_to_cpu, .-fdt32_to_cpu
	.section	.text.AddIoMemoryBaseSizeHob,"ax",@progbits
	.align	1
	.type	AddIoMemoryBaseSizeHob, @function
AddIoMemoryBaseSizeHob:
.LFB40:
	.file 2 "/home/kapoagaeming/spacemit-image-builder/components/edk2-platforms/Silicon/Spacemit/Library/SpacemitSecHelperLib/Platform.c"
	.loc 2 31 1
	.cfi_startproc
	addi	sp,sp,-32
	.cfi_def_cfa_offset 32
	sd	ra,24(sp)
	sd	s0,16(sp)
	.cfi_offset 1, -8
	.cfi_offset 8, -16
	addi	s0,sp,32
	.cfi_def_cfa 8, 0
	sd	a0,-24(s0)
	sd	a1,-32(s0)
	.loc 2 33 63
	ld	a5,-32(s0)
	neg	a4,a5
	li	a5,4096
	addi	a5,a5,-1
	and	a5,a4,a5
	.loc 2 33 14
	ld	a4,-32(s0)
	add	a5,a4,a5
	sd	a5,-32(s0)
	.loc 2 34 3
	ld	a3,-32(s0)
	ld	a2,-24(s0)
	li	a1,1031
	li	a0,1
	call	BuildResourceDescriptorHob@plt
	.loc 2 43 1
	nop
	ld	ra,24(sp)
	.cfi_restore 1
	ld	s0,16(sp)
	.cfi_restore 8
	.cfi_def_cfa 2, 32
	addi	sp,sp,32
	.cfi_def_cfa_offset 0
	jr	ra
	.cfi_endproc
.LFE40:
	.size	AddIoMemoryBaseSizeHob, .-AddIoMemoryBaseSizeHob
	.section	.rodata
	.align	3
.LC0:
	.string	"reg"
	.section	.text.PopulateIoResources,"ax",@progbits
	.align	1
	.globl	PopulateIoResources
	.type	PopulateIoResources, @function
PopulateIoResources:
.LFB41:
	.loc 2 58 1
	.cfi_startproc
	addi	sp,sp,-80
	.cfi_def_cfa_offset 80
	sd	ra,72(sp)
	sd	s0,64(sp)
	sd	s1,56(sp)
	.cfi_offset 1, -8
	.cfi_offset 8, -16
	.cfi_offset 9, -24
	addi	s0,sp,80
	.cfi_def_cfa 8, 0
	sd	a0,-72(s0)
	sd	a1,-80(s0)
	.loc 2 62 10
	ld	a2,-80(s0)
	li	a1,-1
	ld	a0,-72(s0)
	call	fdt_node_offset_by_compatible@plt
	mv	a5,a0
	sw	a5,-36(s0)
	.loc 2 63 9
	j	.L5
.L7:
	.loc 2 64 21
	addi	a4,s0,-52
	lw	a5,-36(s0)
	mv	a3,a4
	lla	a2,.LC0
	mv	a1,a5
	ld	a0,-72(s0)
	call	fdt_getprop@plt
	sd	a0,-48(s0)
	.loc 2 65 8
	ld	a5,-48(s0)
	beq	a5,zero,.L6
	.loc 2 67 31
	ld	a5,-48(s0)
	ld	a5,0(a5)
	mv	a0,a5
	call	SwapBytes64@plt
	mv	s1,a0
	.loc 2 67 69 discriminator 1
	ld	a5,-48(s0)
	addi	a5,a5,8
	.loc 2 67 7 discriminator 1
	ld	a5,0(a5)
	mv	a0,a5
	call	SwapBytes64@plt
	mv	a5,a0
	.loc 2 67 7 is_stmt 0 discriminator 2
	mv	a1,a5
	mv	a0,s1
	call	AddIoMemoryBaseSizeHob
.L6:
	.loc 2 70 12 is_stmt 1
	lw	a5,-36(s0)
	ld	a2,-80(s0)
	mv	a1,a5
	ld	a0,-72(s0)
	call	fdt_node_offset_by_compatible@plt
	mv	a5,a0
	sw	a5,-36(s0)
.L5:
	.loc 2 63 15
	lw	a5,-36(s0)
	sext.w	a4,a5
	li	a5,-1
	bne	a4,a5,.L7
	.loc 2 72 1
	nop
	nop
	ld	ra,72(sp)
	.cfi_restore 1
	ld	s0,64(sp)
	.cfi_restore 8
	.cfi_def_cfa 2, 80
	ld	s1,56(sp)
	.cfi_restore 9
	addi	sp,sp,80
	.cfi_def_cfa_offset 0
	jr	ra
	.cfi_endproc
.LFE41:
	.size	PopulateIoResources, .-PopulateIoResources
	.section	.text.PlatformPeimInitializationCommon,"ax",@progbits
	.align	1
	.globl	PlatformPeimInitializationCommon
	.type	PlatformPeimInitializationCommon, @function
PlatformPeimInitializationCommon:
.LFB42:
	.loc 2 84 1
	.cfi_startproc
	addi	sp,sp,-80
	.cfi_def_cfa_offset 80
	sd	ra,72(sp)
	sd	s0,64(sp)
	.cfi_offset 1, -8
	.cfi_offset 8, -16
	addi	s0,sp,80
	.cfi_def_cfa 8, 0
	sd	a0,-72(s0)
	.loc 2 91 6
	ld	a5,-72(s0)
	bne	a5,zero,.L9
	.loc 2 93 12
	li	a5,-1
	slli	a5,a5,63
	addi	a5,a5,3
	j	.L10
.L9:
	.loc 2 97 8
	ld	a5,-72(s0)
	sd	a5,-24(s0)
	.loc 2 98 7
	ld	a0,-24(s0)
	call	fdt_check_header@plt
	mv	a5,a0
	.loc 2 98 6 discriminator 1
	beq	a5,zero,.L11
	.loc 2 100 12
	li	a5,-1
	slli	a5,a5,63
	addi	a5,a5,3
	j	.L10
.L11:
	.loc 2 103 63
	ld	a5,-24(s0)
	lw	a5,4(a5)
	.loc 2 103 15
	mv	a0,a5
	call	fdt32_to_cpu
	mv	a5,a0
	.loc 2 103 11 discriminator 1
	slli	a5,a5,32
	srli	a5,a5,32
	sd	a5,-32(s0)
	.loc 2 104 26
	ld	a5,-32(s0)
	srli	a4,a5,12
	.loc 2 104 47
	ld	a3,-32(s0)
	li	a5,4096
	addi	a5,a5,-1
	and	a5,a3,a5
	.loc 2 104 60
	beq	a5,zero,.L12
	.loc 2 104 60 is_stmt 0 discriminator 1
	li	a5,1
	j	.L13
.L12:
	.loc 2 104 60 discriminator 2
	li	a5,0
.L13:
	.loc 2 104 12 is_stmt 1 discriminator 4
	add	a5,a5,a4
	sd	a5,-40(s0)
	.loc 2 105 13
	ld	a0,-40(s0)
	call	AllocatePages@plt
	sd	a0,-48(s0)
	.loc 2 106 6
	ld	a5,-48(s0)
	bne	a5,zero,.L14
	.loc 2 108 12
	li	a5,-1
	slli	a5,a5,63
	addi	a5,a5,3
	j	.L10
.L14:
	.loc 2 111 3
	ld	a5,-40(s0)
	sext.w	a5,a5
	slliw	a5,a5,12
	sext.w	a5,a5
	mv	a2,a5
	ld	a1,-48(s0)
	ld	a0,-24(s0)
	call	fdt_open_into@plt
	.loc 2 113 16
	li	a1,8
	la	a0,gFdtHobGuid
	call	BuildGuidHob@plt
	sd	a0,-56(s0)
	.loc 2 114 6
	ld	a5,-56(s0)
	bne	a5,zero,.L15
	.loc 2 116 12
	li	a5,-1
	slli	a5,a5,63
	addi	a5,a5,3
	j	.L10
.L15:
	.loc 2 119 17
	ld	a4,-48(s0)
	.loc 2 119 15
	ld	a5,-56(s0)
	sd	a4,0(a5)
	.loc 2 121 3
	la	a5,_gPcd_FixedAtBuild_PcdRiscVDxeFvBase
	lw	a5,0(a5)
	slli	a4,a5,32
	srli	a4,a4,32
	la	a5,_gPcd_FixedAtBuild_PcdRiscVDxeFvSize
	lw	a5,0(a5)
	slli	a5,a5,32
	srli	a5,a5,32
	mv	a1,a5
	mv	a0,a4
	call	BuildFvHob@plt
	.loc 2 123 10
	li	a5,0
.L10:
	.loc 2 124 1
	mv	a0,a5
	ld	ra,72(sp)
	.cfi_restore 1
	ld	s0,64(sp)
	.cfi_restore 8
	.cfi_def_cfa 2, 80
	addi	sp,sp,80
	.cfi_def_cfa_offset 0
	jr	ra
	.cfi_endproc
.LFE42:
	.size	PlatformPeimInitializationCommon, .-PlatformPeimInitializationCommon
	.text
.Letext0:
	.file 3 "/home/kapoagaeming/spacemit-image-builder/components/edk2/MdePkg/Include/RiscV64/ProcessorBind.h"
	.file 4 "/home/kapoagaeming/spacemit-image-builder/components/edk2/MdePkg/Include/Base.h"
	.file 5 "/home/kapoagaeming/spacemit-image-builder/components/Build/Milk-V-Jupiter/RELEASE_GCC5/RISCV64/Silicon/Spacemit/Library/SpacemitSecHelperLib/SpacemitSecHelperLib/DEBUG/AutoGen.h"
	.file 6 "/home/kapoagaeming/spacemit-image-builder/components/edk2/MdePkg/Include/Uefi/UefiBaseType.h"
	.file 7 "/home/kapoagaeming/spacemit-image-builder/components/edk2/MdePkg/Include/Pi/PiHob.h"
	.file 8 "/home/kapoagaeming/spacemit-image-builder/components/edk2/EmbeddedPkg/Include/fdt.h"
	.file 9 "/home/kapoagaeming/spacemit-image-builder/components/edk2/MdePkg/Include/Library/BaseLib.h"
	.file 10 "/home/kapoagaeming/spacemit-image-builder/components/edk2/EmbeddedPkg/Include/Library/PrePiLib.h"
	.file 11 "/home/kapoagaeming/spacemit-image-builder/components/edk2/EmbeddedPkg/Include/libfdt.h"
	.section	.note.GNU-stack,"",@progbits
