	.file	"AutoGen.c"
	.option pic
	.option norelax
	.attribute arch, "rv64i2p1_m2p0_a2p1_f2p2_d2p2_c2p0_zicsr2p0_zifencei2p0_zmmul1p0_zaamo1p0_zalrsc1p0_zca1p0_zcd1p0"
	.attribute unaligned_access, 0
	.attribute stack_align, 16
	.text
.Ltext0:
	.cfi_sections	.debug_frame
	.file 0 "/home/kapoagaeming/Downloads/spacemit-image-builder/components/Build/Milk-V-Jupiter/RELEASE_GCC5/RISCV64/MdeModulePkg/Core/Dxe/DxeMain" "/home/kapoagaeming/Downloads/spacemit-image-builder/components/Build/Milk-V-Jupiter/RELEASE_GCC5/RISCV64/MdeModulePkg/Core/Dxe/DxeMain/DEBUG/AutoGen.c"
	.globl	gEfiCallerIdGuid
	.section	.data.gEfiCallerIdGuid,"aw"
	.align	3
	.type	gEfiCallerIdGuid, @object
	.size	gEfiCallerIdGuid, 16
gEfiCallerIdGuid:
	.word	-693974145
	.half	27160
	.half	20015
	.base64	"tDuZIKczcAo="
	.globl	gEdkiiDscPlatformGuid
	.section	.data.gEdkiiDscPlatformGuid,"aw"
	.align	3
	.type	gEdkiiDscPlatformGuid, @object
	.size	gEdkiiDscPlatformGuid, 16
gEdkiiDscPlatformGuid:
	.word	-1093915514
	.half	809
	.half	18550
	.base64	"mLFXzDezPfM="
	.globl	gEfiCallerBaseName
	.section	.rodata
	.align	3
.LC0:
	.string	"DxeCore"
	.section	.data.rel.local.gEfiCallerBaseName,"aw"
	.align	3
	.type	gEfiCallerBaseName, @object
	.size	gEfiCallerBaseName, 8
gEfiCallerBaseName:
	.dword	.LC0
	.globl	gEfiEventMemoryMapChangeGuid
	.section	.data.gEfiEventMemoryMapChangeGuid,"aw"
	.align	3
	.type	gEfiEventMemoryMapChangeGuid, @object
	.size	gEfiEventMemoryMapChangeGuid, 16
gEfiEventMemoryMapChangeGuid:
	.word	2025777446
	.half	26927
	.half	18685
	.base64	"ntsBQi7w16s="
	.globl	gEfiEventVirtualAddressChangeGuid
	.section	.data.gEfiEventVirtualAddressChangeGuid,"aw"
	.align	3
	.type	gEfiEventVirtualAddressChangeGuid, @object
	.size	gEfiEventVirtualAddressChangeGuid, 16
gEfiEventVirtualAddressChangeGuid:
	.word	335181464
	.half	-14287
	.half	18887
	.base64	"h+qPQ/zCUZY="
	.globl	gEfiEventBeforeExitBootServicesGuid
	.section	.data.gEfiEventBeforeExitBootServicesGuid,"aw"
	.align	3
	.type	gEfiEventBeforeExitBootServicesGuid, @object
	.size	gEfiEventBeforeExitBootServicesGuid, 16
gEfiEventBeforeExitBootServicesGuid:
	.word	-1948196236
	.half	14704
	.half	19268
	.base64	"gMUauVAvO/w="
	.globl	gEfiEventExitBootServicesGuid
	.section	.data.gEfiEventExitBootServicesGuid,"aw"
	.align	3
	.type	gEfiEventExitBootServicesGuid, @object
	.size	gEfiEventExitBootServicesGuid, 16
gEfiEventExitBootServicesGuid:
	.word	665579605
	.half	-20040
	.half	19494
	.base64	"gEh0jze6ot8="
	.globl	gEfiHobMemoryAllocModuleGuid
	.section	.data.gEfiHobMemoryAllocModuleGuid,"aw"
	.align	3
	.type	gEfiHobMemoryAllocModuleGuid, @object
	.size	gEfiHobMemoryAllocModuleGuid, 16
gEfiHobMemoryAllocModuleGuid:
	.word	-119400075
	.half	2201
	.half	20312
	.base64	"pL5VJanG13o="
	.globl	gEfiFirmwareFileSystem2Guid
	.section	.data.gEfiFirmwareFileSystem2Guid,"aw"
	.align	3
	.type	gEfiFirmwareFileSystem2Guid, @object
	.size	gEfiFirmwareFileSystem2Guid, 16
gEfiFirmwareFileSystem2Guid:
	.word	-1936923272
	.half	-30147
	.half	20252
	.base64	"mTWJYYXDLdM="
	.globl	gEfiFirmwareFileSystem3Guid
	.section	.data.gEfiFirmwareFileSystem3Guid,"aw"
	.align	3
	.type	gEfiFirmwareFileSystem3Guid, @object
	.size	gEfiFirmwareFileSystem3Guid, 16
gEfiFirmwareFileSystem3Guid:
	.word	1416872058
	.half	15819
	.half	19914
	.base64	"vW8elonnNJo="
	.globl	gAprioriGuid
	.section	.data.gAprioriGuid,"aw"
	.align	3
	.type	gAprioriGuid, @object
	.size	gAprioriGuid, 16
gAprioriGuid:
	.word	-61796633
	.half	-36
	.half	4564
	.base64	"vUEAgMc8iIE="
	.globl	gEfiDebugImageInfoTableGuid
	.section	.data.gEfiDebugImageInfoTableGuid,"aw"
	.align	3
	.type	gEfiDebugImageInfoTableGuid, @object
	.size	gEfiDebugImageInfoTableGuid, 16
gEfiDebugImageInfoTableGuid:
	.word	1226124919
	.half	6874
	.half	18276
	.base64	"t6J6/v7ZXos="
	.globl	gEfiHobListGuid
	.section	.data.gEfiHobListGuid,"aw"
	.align	3
	.type	gEfiHobListGuid, @object
	.size	gEfiHobListGuid, 16
gEfiHobListGuid:
	.word	2000286284
	.half	-27689
	.half	4564
	.base64	"mjoAkCc/wU0="
	.globl	gEfiDxeServicesTableGuid
	.section	.data.gEfiDxeServicesTableGuid,"aw"
	.align	3
	.type	gEfiDxeServicesTableGuid, @object
	.size	gEfiDxeServicesTableGuid, 16
gEfiDxeServicesTableGuid:
	.word	95237306
	.half	28418
	.half	16916
	.base64	"lS5NoDmOK7k="
	.globl	gEfiMemoryTypeInformationGuid
	.section	.data.gEfiMemoryTypeInformationGuid,"aw"
	.align	3
	.type	gEfiMemoryTypeInformationGuid, @object
	.size	gEfiMemoryTypeInformationGuid, 16
gEfiMemoryTypeInformationGuid:
	.word	1276707999
	.half	16695
	.half	19923
	.base64	"nBCLl6g//fo="
	.globl	gEfiEventDxeDispatchGuid
	.section	.data.gEfiEventDxeDispatchGuid,"aw"
	.align	3
	.type	gEfiEventDxeDispatchGuid, @object
	.size	gEfiEventDxeDispatchGuid, 16
gEfiEventDxeDispatchGuid:
	.word	1887560239
	.half	-13626
	.half	16467
	.base64	"lGhnV4LPiOU="
	.globl	gLoadFixedAddressConfigurationTableGuid
	.section	.data.gLoadFixedAddressConfigurationTableGuid,"aw"
	.align	3
	.type	gLoadFixedAddressConfigurationTableGuid, @object
	.size	gLoadFixedAddressConfigurationTableGuid, 16
gLoadFixedAddressConfigurationTableGuid:
	.word	749243219
	.half	-11626
	.half	16512
	.base64	"pKXK2briSwk="
	.globl	gIdleLoopEventGuid
	.section	.data.gIdleLoopEventGuid,"aw"
	.align	3
	.type	gIdleLoopEventGuid, @object
	.size	gIdleLoopEventGuid, 16
gIdleLoopEventGuid:
	.word	1015884108
	.half	24515
	.half	17489
	.base64	"uzHEwDIpXmw="
	.globl	gEventExitBootServicesFailedGuid
	.section	.data.gEventExitBootServicesFailedGuid,"aw"
	.align	3
	.type	gEventExitBootServicesFailedGuid, @object
	.size	gEventExitBootServicesFailedGuid, 16
gEventExitBootServicesFailedGuid:
	.word	1332499719
	.half	9007
	.half	18311
	.base64	"uV5y+GJJDLE="
	.globl	gEfiVectorHandoffTableGuid
	.section	.data.gEfiVectorHandoffTableGuid,"aw"
	.align	3
	.type	gEfiVectorHandoffTableGuid, @object
	.size	gEfiVectorHandoffTableGuid, 16
gEfiVectorHandoffTableGuid:
	.word	-1720794852
	.half	21399
	.half	20083
	.base64	"tY+CflKQbe8="
	.globl	gEdkiiMemoryProfileGuid
	.section	.data.gEdkiiMemoryProfileGuid,"aw"
	.align	3
	.type	gEdkiiMemoryProfileGuid, @object
	.size	gEdkiiMemoryProfileGuid, 16
gEdkiiMemoryProfileGuid:
	.word	-2112054775
	.half	21530
	.half	16630
	.base64	"n0MK0ZOhLP4="
	.globl	gEfiMemoryAttributesTableGuid
	.section	.data.gEfiMemoryAttributesTableGuid,"aw"
	.align	3
	.type	gEfiMemoryAttributesTableGuid, @object
	.size	gEfiMemoryAttributesTableGuid, 16
gEfiMemoryAttributesTableGuid:
	.word	-587558627
	.half	9963
	.half	18079
	.base64	"oiA4t9xGEiA="
	.globl	gEfiEndOfDxeEventGroupGuid
	.section	.data.gEfiEndOfDxeEventGroupGuid,"aw"
	.align	3
	.type	gEfiEndOfDxeEventGroupGuid, @object
	.size	gEfiEndOfDxeEventGroupGuid, 16
gEfiEndOfDxeEventGroupGuid:
	.word	47093370
	.half	-8834
	.half	20476
	.base64	"nueBDPBHCIA="
	.globl	gEfiHobMemoryAllocStackGuid
	.section	.data.gEfiHobMemoryAllocStackGuid,"aw"
	.align	3
	.type	gEfiHobMemoryAllocStackGuid, @object
	.size	gEfiHobMemoryAllocStackGuid, 16
gEfiHobMemoryAllocStackGuid:
	.word	1322565415
	.half	16530
	.half	17129
	.base64	"gH1Sex0Ayb0="
	.globl	gEfiMdeModulePkgTokenSpaceGuid
	.section	.data.gEfiMdeModulePkgTokenSpaceGuid,"aw"
	.align	3
	.type	gEfiMdeModulePkgTokenSpaceGuid, @object
	.size	gEfiMdeModulePkgTokenSpaceGuid, 16
gEfiMdeModulePkgTokenSpaceGuid:
	.word	-1582305207
	.half	-533
	.half	17450
	.base64	"syATq0y3K7w="
	.globl	gEfiMdePkgTokenSpaceGuid
	.section	.data.gEfiMdePkgTokenSpaceGuid,"aw"
	.align	3
	.type	gEfiMdePkgTokenSpaceGuid, @object
	.size	gEfiMdePkgTokenSpaceGuid, 16
gEfiMdePkgTokenSpaceGuid:
	.word	-1857360921
	.half	17973
	.half	17819
	.base64	"qhwR4hmwOhA="
	.globl	gEfiVTUTF8Guid
	.section	.data.gEfiVTUTF8Guid,"aw"
	.align	3
	.type	gEfiVTUTF8Guid, @object
	.size	gEfiVTUTF8Guid, 16
gEfiVTUTF8Guid:
	.word	-1391091498
	.half	-29716
	.half	19151
	.base64	"oHPQHed+LYg="
	.globl	gEfiVT100Guid
	.section	.data.gEfiVT100Guid,"aw"
	.align	3
	.type	gEfiVT100Guid, @object
	.size	gEfiVT100Guid, 16
gEfiVT100Guid:
	.word	-542744475
	.half	-19431
	.half	4563
	.base64	"mi0AkCc/wU0="
	.globl	gEfiVT100PlusGuid
	.section	.data.gEfiVT100PlusGuid,"aw"
	.align	3
	.type	gEfiVT100PlusGuid, @object
	.size	gEfiVT100PlusGuid, 16
gEfiVT100PlusGuid:
	.word	2075051787
	.half	22496
	.half	19574
	.base64	"jocvnigIg0M="
	.globl	gEfiPcAnsiGuid
	.section	.data.gEfiPcAnsiGuid,"aw"
	.align	3
	.type	gEfiPcAnsiGuid, @object
	.size	gEfiPcAnsiGuid, 16
gEfiPcAnsiGuid:
	.word	-524204205
	.half	-1602
	.half	4562
	.base64	"mgwAkCc/wU0="
	.globl	gEfiUartDevicePathGuid
	.section	.data.gEfiUartDevicePathGuid,"aw"
	.align	3
	.type	gEfiUartDevicePathGuid, @object
	.size	gEfiUartDevicePathGuid, 16
gEfiUartDevicePathGuid:
	.word	927570589
	.half	21551
	.half	19593
	.base64	"oCY12hQglOQ="
	.globl	gEfiSasDevicePathGuid
	.section	.data.gEfiSasDevicePathGuid,"aw"
	.align	3
	.type	gEfiSasDevicePathGuid, @object
	.size	gEfiSasDevicePathGuid, 16
gEfiSasDevicePathGuid:
	.word	-729293388
	.half	139
	.half	4569
	.base64	"r9wAEIP/yk0="
	.globl	gEfiVirtualDiskGuid
	.section	.data.gEfiVirtualDiskGuid,"aw"
	.align	3
	.type	gEfiVirtualDiskGuid, @object
	.size	gEfiVirtualDiskGuid, 16
gEfiVirtualDiskGuid:
	.word	2007716698
	.half	17916
	.half	25163
	.base64	"VWD3soHR+W4="
	.globl	gEfiVirtualCdGuid
	.section	.data.gEfiVirtualCdGuid,"aw"
	.align	3
	.type	gEfiVirtualCdGuid, @object
	.size	gEfiVirtualCdGuid, 16
gEfiVirtualCdGuid:
	.word	1029356848
	.half	16757
	.half	-30770
	.base64	"bWTSreUjxLs="
	.globl	gEfiPersistentVirtualDiskGuid
	.section	.data.gEfiPersistentVirtualDiskGuid,"aw"
	.align	3
	.type	gEfiPersistentVirtualDiskGuid, @object
	.size	gEfiPersistentVirtualDiskGuid, 16
gEfiPersistentVirtualDiskGuid:
	.word	1558840009
	.half	19719
	.half	27091
	.base64	"Jp9Elvvglvk="
	.globl	gEfiPersistentVirtualCdGuid
	.section	.data.gEfiPersistentVirtualCdGuid,"aw"
	.align	3
	.type	gEfiPersistentVirtualCdGuid, @object
	.size	gEfiPersistentVirtualCdGuid, 16
gEfiPersistentVirtualCdGuid:
	.word	134316424
	.half	17101
	.half	-17592
	.base64	"EA9Th9U97T0="
	.globl	gEfiEventReadyToBootGuid
	.section	.data.gEfiEventReadyToBootGuid,"aw"
	.align	3
	.type	gEfiEventReadyToBootGuid, @object
	.size	gEfiEventReadyToBootGuid, 16
gEfiEventReadyToBootGuid:
	.word	2095615923
	.half	19415
	.half	18041
	.base64	"h6io2N7lDSs="
	.globl	gEfiEventAfterReadyToBootGuid
	.section	.data.gEfiEventAfterReadyToBootGuid,"aw"
	.align	3
	.type	gEfiEventAfterReadyToBootGuid, @object
	.size	gEfiEventAfterReadyToBootGuid, 16
gEfiEventAfterReadyToBootGuid:
	.word	975831213
	.half	-26439
	.half	19679
	.base64	"pHhwJ3fxwQs="
	.globl	gEfiEventLegacyBootGuid
	.section	.data.gEfiEventLegacyBootGuid,"aw"
	.align	3
	.type	gEfiEventLegacyBootGuid, @object
	.size	gEfiEventLegacyBootGuid, 16
gEfiEventLegacyBootGuid:
	.word	710349313
	.half	18790
	.half	18422
	.base64	"i4bzHkHzLxA="
	.globl	gEfiGlobalVariableGuid
	.section	.data.gEfiGlobalVariableGuid,"aw"
	.align	3
	.type	gEfiGlobalVariableGuid, @object
	.size	gEfiGlobalVariableGuid, 16
gEfiGlobalVariableGuid:
	.word	-1947934879
	.half	-27702
	.half	4562
	.base64	"qg0A4JgDK4w="
	.globl	gEfiAcpi20TableGuid
	.section	.data.gEfiAcpi20TableGuid,"aw"
	.align	3
	.type	gEfiAcpi20TableGuid, @object
	.size	gEfiAcpi20TableGuid, 16
gEfiAcpi20TableGuid:
	.word	-2006390671
	.half	-6927
	.half	4563
	.base64	"vCIAgMc8iIE="
	.globl	gEfiAcpi10TableGuid
	.section	.data.gEfiAcpi10TableGuid,"aw"
	.align	3
	.type	gEfiAcpi10TableGuid, @object
	.size	gEfiAcpi10TableGuid, 16
gEfiAcpi10TableGuid:
	.word	-342020816
	.half	11656
	.half	4563
	.base64	"mhYAkCc/wU0="
	.globl	gUefiCpuPkgTokenSpaceGuid
	.section	.data.gUefiCpuPkgTokenSpaceGuid,"aw"
	.align	3
	.type	gUefiCpuPkgTokenSpaceGuid, @object
	.size	gUefiCpuPkgTokenSpaceGuid, 16
gUefiCpuPkgTokenSpaceGuid:
	.word	-1408909517
	.half	-26278
	.half	20180
	.base64	"qrjveugPXLA="
	.globl	gEfiFileInfoGuid
	.section	.data.gEfiFileInfoGuid,"aw"
	.align	3
	.type	gEfiFileInfoGuid, @object
	.size	gEfiFileInfoGuid, 16
gEfiFileInfoGuid:
	.word	156724882
	.half	27967
	.half	4562
	.base64	"jjkAoMlpcjs="
	.globl	gEfiStatusCodeSpecificDataGuid
	.section	.data.gEfiStatusCodeSpecificDataGuid,"aw"
	.align	3
	.type	gEfiStatusCodeSpecificDataGuid, @object
	.size	gEfiStatusCodeSpecificDataGuid, 16
gEfiStatusCodeSpecificDataGuid:
	.word	861504701
	.half	-6139
	.half	16538
	.base64	"uPjSfs5f96Y="
	.globl	gEfiStatusCodeDataTypeDebugGuid
	.section	.data.gEfiStatusCodeDataTypeDebugGuid,"aw"
	.align	3
	.type	gEfiStatusCodeDataTypeDebugGuid, @object
	.size	gEfiStatusCodeDataTypeDebugGuid, 16
gEfiStatusCodeDataTypeDebugGuid:
	.word	-1706126778
	.half	-10925
	.half	4565
	.base64	"h+IABilFw7k="
	.globl	gPerformanceProtocolGuid
	.section	.data.gPerformanceProtocolGuid,"aw"
	.align	3
	.type	gPerformanceProtocolGuid, @object
	.size	gPerformanceProtocolGuid, 16
gPerformanceProtocolGuid:
	.word	1991687674
	.half	10957
	.half	17506
	.base64	"nj/LWMlp2Tc="
	.globl	gZeroGuid
	.section	.bss.gZeroGuid,"aw",@nobits
	.align	3
	.type	gZeroGuid, @object
	.size	gZeroGuid, 16
gZeroGuid:
	.zero	16
	.globl	gEfiFirmwarePerformanceGuid
	.section	.data.gEfiFirmwarePerformanceGuid,"aw"
	.align	3
	.type	gEfiFirmwarePerformanceGuid, @object
	.size	gEfiFirmwarePerformanceGuid, 16
gEfiFirmwarePerformanceGuid:
	.word	-1063945958
	.half	12289
	.half	18354
	.base64	"gMnqxzGfL6Q="
	.globl	gEdkiiFpdtExtendedFirmwarePerformanceGuid
	.section	.data.gEdkiiFpdtExtendedFirmwarePerformanceGuid,"aw"
	.align	3
	.type	gEdkiiFpdtExtendedFirmwarePerformanceGuid, @object
	.size	gEdkiiFpdtExtendedFirmwarePerformanceGuid, 16
gEdkiiFpdtExtendedFirmwarePerformanceGuid:
	.word	993557501
	.half	31420
	.half	19698
	.base64	"oMq2oWwbGyU="
	.globl	gEdkiiPiSmmCommunicationRegionTableGuid
	.section	.data.gEdkiiPiSmmCommunicationRegionTableGuid,"aw"
	.align	3
	.type	gEdkiiPiSmmCommunicationRegionTableGuid, @object
	.size	gEdkiiPiSmmCommunicationRegionTableGuid, 16
gEdkiiPiSmmCommunicationRegionTableGuid:
	.word	1311296080
	.half	-10878
	.half	17580
	.base64	"oR/j1WUm2zQ="
	.globl	gEdkiiPerformanceMeasurementProtocolGuid
	.section	.data.gEdkiiPerformanceMeasurementProtocolGuid,"aw"
	.align	3
	.type	gEdkiiPerformanceMeasurementProtocolGuid, @object
	.size	gEdkiiPerformanceMeasurementProtocolGuid, 16
gEdkiiPerformanceMeasurementProtocolGuid:
	.word	-933427522
	.half	24437
	.half	18638
	.base64	"qA8SNro7h7E="
	.globl	gEfiCrc32GuidedSectionExtractionGuid
	.section	.data.gEfiCrc32GuidedSectionExtractionGuid,"aw"
	.align	3
	.type	gEfiCrc32GuidedSectionExtractionGuid, @object
	.size	gEfiCrc32GuidedSectionExtractionGuid, 16
gEfiCrc32GuidedSectionExtractionGuid:
	.word	-65286736
	.half	32049
	.half	18858
	.base64	"k2qkYA2d0IM="
	.globl	gEfiDecompressProtocolGuid
	.section	.data.gEfiDecompressProtocolGuid,"aw"
	.align	3
	.type	gEfiDecompressProtocolGuid, @object
	.size	gEfiDecompressProtocolGuid, 16
gEfiDecompressProtocolGuid:
	.word	-669942530
	.half	-27482
	.half	4564
	.base64	"mjoAkCc/wU0="
	.globl	gEfiSimpleFileSystemProtocolGuid
	.section	.data.gEfiSimpleFileSystemProtocolGuid,"aw"
	.align	3
	.type	gEfiSimpleFileSystemProtocolGuid, @object
	.size	gEfiSimpleFileSystemProtocolGuid, 16
gEfiSimpleFileSystemProtocolGuid:
	.word	-1773249758
	.half	25689
	.half	4562
	.base64	"jjkAoMlpcjs="
	.globl	gEfiLoadFileProtocolGuid
	.section	.data.gEfiLoadFileProtocolGuid,"aw"
	.align	3
	.type	gEfiLoadFileProtocolGuid, @object
	.size	gEfiLoadFileProtocolGuid, 16
gEfiLoadFileProtocolGuid:
	.word	1458319505
	.half	-27316
	.half	4562
	.base64	"jj8AoMlpcjs="
	.globl	gEfiLoadFile2ProtocolGuid
	.section	.data.gEfiLoadFile2ProtocolGuid,"aw"
	.align	3
	.type	gEfiLoadFile2ProtocolGuid, @object
	.size	gEfiLoadFile2ProtocolGuid, 16
gEfiLoadFile2ProtocolGuid:
	.word	1074184385
	.half	-845
	.half	16446
	.base64	"mW1KbIck4G0="
	.globl	gEfiBusSpecificDriverOverrideProtocolGuid
	.section	.data.gEfiBusSpecificDriverOverrideProtocolGuid,"aw"
	.align	3
	.type	gEfiBusSpecificDriverOverrideProtocolGuid, @object
	.size	gEfiBusSpecificDriverOverrideProtocolGuid, 16
gEfiBusSpecificDriverOverrideProtocolGuid:
	.word	1002549893
	.half	-30187
	.half	19074
	.base64	"qr9NfRP7MmU="
	.globl	gEfiDriverFamilyOverrideProtocolGuid
	.section	.data.gEfiDriverFamilyOverrideProtocolGuid,"aw"
	.align	3
	.type	gEfiDriverFamilyOverrideProtocolGuid, @object
	.size	gEfiDriverFamilyOverrideProtocolGuid, 16
gEfiDriverFamilyOverrideProtocolGuid:
	.word	-1309797730
	.half	-9674
	.half	16769
	.base64	"kfgEpJI3Zqc="
	.globl	gEfiPlatformDriverOverrideProtocolGuid
	.section	.data.gEfiPlatformDriverOverrideProtocolGuid,"aw"
	.align	3
	.type	gEfiPlatformDriverOverrideProtocolGuid, @object
	.size	gEfiPlatformDriverOverrideProtocolGuid, 16
gEfiPlatformDriverOverrideProtocolGuid:
	.word	1798358840
	.half	-23663
	.half	4564
	.base64	"mjsAkCc/wU0="
	.globl	gEfiDriverBindingProtocolGuid
	.section	.data.gEfiDriverBindingProtocolGuid,"aw"
	.align	3
	.type	gEfiDriverBindingProtocolGuid, @object
	.size	gEfiDriverBindingProtocolGuid, 16
gEfiDriverBindingProtocolGuid:
	.word	413151659
	.half	-19389
	.half	19738
	.base64	"pcAMCSYen3E="
	.globl	gEfiFirmwareVolumeBlockProtocolGuid
	.section	.data.gEfiFirmwareVolumeBlockProtocolGuid,"aw"
	.align	3
	.type	gEfiFirmwareVolumeBlockProtocolGuid, @object
	.size	gEfiFirmwareVolumeBlockProtocolGuid, 16
gEfiFirmwareVolumeBlockProtocolGuid:
	.word	-1889251415
	.half	-6064
	.half	19889
	.base64	"nOILRGmOjaQ="
	.globl	gEfiFirmwareVolume2ProtocolGuid
	.section	.data.gEfiFirmwareVolume2ProtocolGuid,"aw"
	.align	3
	.type	gEfiFirmwareVolume2ProtocolGuid, @object
	.size	gEfiFirmwareVolume2ProtocolGuid, 16
gEfiFirmwareVolume2ProtocolGuid:
	.word	571372470
	.half	27611
	.half	17427
	.base64	"hAW5dLEIYZo="
	.globl	gEfiDevicePathProtocolGuid
	.section	.data.gEfiDevicePathProtocolGuid,"aw"
	.align	3
	.type	gEfiDevicePathProtocolGuid, @object
	.size	gEfiDevicePathProtocolGuid, 16
gEfiDevicePathProtocolGuid:
	.word	156724881
	.half	27967
	.half	4562
	.base64	"jjkAoMlpcjs="
	.globl	gEfiLoadedImageProtocolGuid
	.section	.data.gEfiLoadedImageProtocolGuid,"aw"
	.align	3
	.type	gEfiLoadedImageProtocolGuid, @object
	.size	gEfiLoadedImageProtocolGuid, 16
gEfiLoadedImageProtocolGuid:
	.word	1528508833
	.half	-27294
	.half	4562
	.base64	"jj8AoMlpcjs="
	.globl	gEfiLoadedImageDevicePathProtocolGuid
	.section	.data.gEfiLoadedImageDevicePathProtocolGuid,"aw"
	.align	3
	.type	gEfiLoadedImageDevicePathProtocolGuid, @object
	.size	gEfiLoadedImageDevicePathProtocolGuid, 16
gEfiLoadedImageDevicePathProtocolGuid:
	.word	-1134422658
	.half	15923
	.half	20460
	.base64	"mSAtOzbXUN8="
	.globl	gEfiHiiPackageListProtocolGuid
	.section	.data.gEfiHiiPackageListProtocolGuid,"aw"
	.align	3
	.type	gEfiHiiPackageListProtocolGuid, @object
	.size	gEfiHiiPackageListProtocolGuid, 16
gEfiHiiPackageListProtocolGuid:
	.word	1780410211
	.half	-11142
	.half	17332
	.base64	"qr7vHeKrVvw="
	.globl	gEfiSmmBase2ProtocolGuid
	.section	.data.gEfiSmmBase2ProtocolGuid,"aw"
	.align	3
	.type	gEfiSmmBase2ProtocolGuid, @object
	.size	gEfiSmmBase2ProtocolGuid, 16
gEfiSmmBase2ProtocolGuid:
	.word	-187908169
	.half	-2336
	.half	18429
	.base64	"ndQQqPFQwZE="
	.globl	gEdkiiPeCoffImageEmulatorProtocolGuid
	.section	.data.gEdkiiPeCoffImageEmulatorProtocolGuid,"aw"
	.align	3
	.type	gEdkiiPeCoffImageEmulatorProtocolGuid, @object
	.size	gEdkiiPeCoffImageEmulatorProtocolGuid, 16
gEdkiiPeCoffImageEmulatorProtocolGuid:
	.word	-1762369197
	.half	-26713
	.half	18323
	.base64	"rMH6Gb946pc="
	.globl	gEfiBdsArchProtocolGuid
	.section	.data.gEfiBdsArchProtocolGuid,"aw"
	.align	3
	.type	gEfiBdsArchProtocolGuid, @object
	.size	gEfiBdsArchProtocolGuid, 16
gEfiBdsArchProtocolGuid:
	.word	1717452790
	.half	18124
	.half	4564
	.base64	"mjgAkCc/wU0="
	.globl	gEfiCpuArchProtocolGuid
	.section	.data.gEfiCpuArchProtocolGuid,"aw"
	.align	3
	.type	gEfiCpuArchProtocolGuid, @object
	.size	gEfiCpuArchProtocolGuid, 16
gEfiCpuArchProtocolGuid:
	.word	649776305
	.half	28482
	.half	4564
	.base64	"vOcAgMc8iIE="
	.globl	gEfiMetronomeArchProtocolGuid
	.section	.data.gEfiMetronomeArchProtocolGuid,"aw"
	.align	3
	.type	gEfiMetronomeArchProtocolGuid, @object
	.size	gEfiMetronomeArchProtocolGuid, 16
gEfiMetronomeArchProtocolGuid:
	.word	649776306
	.half	28482
	.half	4564
	.base64	"vOcAgMc8iIE="
	.globl	gEfiMonotonicCounterArchProtocolGuid
	.section	.data.gEfiMonotonicCounterArchProtocolGuid,"aw"
	.align	3
	.type	gEfiMonotonicCounterArchProtocolGuid, @object
	.size	gEfiMonotonicCounterArchProtocolGuid, 16
gEfiMonotonicCounterArchProtocolGuid:
	.word	497643634
	.half	-16932
	.half	19248
	.base64	"mfFyoLVv/yo="
	.globl	gEfiRealTimeClockArchProtocolGuid
	.section	.data.gEfiRealTimeClockArchProtocolGuid,"aw"
	.align	3
	.type	gEfiRealTimeClockArchProtocolGuid, @object
	.size	gEfiRealTimeClockArchProtocolGuid, 16
gEfiRealTimeClockArchProtocolGuid:
	.word	667921543
	.half	18124
	.half	4564
	.base64	"mjgAkCc/wU0="
	.globl	gEfiResetArchProtocolGuid
	.section	.data.gEfiResetArchProtocolGuid,"aw"
	.align	3
	.type	gEfiResetArchProtocolGuid, @object
	.size	gEfiResetArchProtocolGuid, 16
gEfiResetArchProtocolGuid:
	.word	667921544
	.half	18124
	.half	4564
	.base64	"mjgAkCc/wU0="
	.globl	gEfiRuntimeArchProtocolGuid
	.section	.data.gEfiRuntimeArchProtocolGuid,"aw"
	.align	3
	.type	gEfiRuntimeArchProtocolGuid, @object
	.size	gEfiRuntimeArchProtocolGuid, 16
gEfiRuntimeArchProtocolGuid:
	.word	-1210075935
	.half	1327
	.half	17567
	.base64	"h76YGPyRtzM="
	.globl	gEfiSecurityArchProtocolGuid
	.section	.data.gEfiSecurityArchProtocolGuid,"aw"
	.align	3
	.type	gEfiSecurityArchProtocolGuid, @object
	.size	gEfiSecurityArchProtocolGuid, 16
gEfiSecurityArchProtocolGuid:
	.word	-1536941085
	.half	17943
	.half	18929
	.base64	"uf/Rv6kRWDk="
	.globl	gEfiSecurity2ArchProtocolGuid
	.section	.data.gEfiSecurity2ArchProtocolGuid,"aw"
	.align	3
	.type	gEfiSecurity2ArchProtocolGuid, @object
	.size	gEfiSecurity2ArchProtocolGuid, 16
gEfiSecurity2ArchProtocolGuid:
	.word	-1800720552
	.half	5176
	.half	20209
	.base64	"kVIYlBo6Dmg="
	.globl	gEfiTimerArchProtocolGuid
	.section	.data.gEfiTimerArchProtocolGuid,"aw"
	.align	3
	.type	gEfiTimerArchProtocolGuid, @object
	.size	gEfiTimerArchProtocolGuid, 16
gEfiTimerArchProtocolGuid:
	.word	649776307
	.half	28482
	.half	4564
	.base64	"vOcAgMc8iIE="
	.globl	gEfiVariableWriteArchProtocolGuid
	.section	.data.gEfiVariableWriteArchProtocolGuid,"aw"
	.align	3
	.type	gEfiVariableWriteArchProtocolGuid, @object
	.size	gEfiVariableWriteArchProtocolGuid, 16
gEfiVariableWriteArchProtocolGuid:
	.word	1682044952
	.half	25442
	.half	20036
	.base64	"tXB9ujHdJFM="
	.globl	gEfiVariableArchProtocolGuid
	.section	.data.gEfiVariableArchProtocolGuid,"aw"
	.align	3
	.type	gEfiVariableArchProtocolGuid, @object
	.size	gEfiVariableArchProtocolGuid, 16
gEfiVariableArchProtocolGuid:
	.word	508979426
	.half	-31615
	.half	4564
	.base64	"vPEAgMc8iIE="
	.globl	gEfiCapsuleArchProtocolGuid
	.section	.data.gEfiCapsuleArchProtocolGuid,"aw"
	.align	3
	.type	gEfiCapsuleArchProtocolGuid, @object
	.size	gEfiCapsuleArchProtocolGuid, 16
gEfiCapsuleArchProtocolGuid:
	.word	1347643774
	.half	11452
	.half	18457
	.base64	"kNkFgN7uV1Q="
	.globl	gEfiWatchdogTimerArchProtocolGuid
	.section	.data.gEfiWatchdogTimerArchProtocolGuid,"aw"
	.align	3
	.type	gEfiWatchdogTimerArchProtocolGuid, @object
	.size	gEfiWatchdogTimerArchProtocolGuid, 16
gEfiWatchdogTimerArchProtocolGuid:
	.word	1717452789
	.half	18124
	.half	4564
	.base64	"mjgAkCc/wU0="
	.globl	gPcdProtocolGuid
	.section	.data.gPcdProtocolGuid,"aw"
	.align	3
	.type	gPcdProtocolGuid, @object
	.size	gPcdProtocolGuid, 16
gPcdProtocolGuid:
	.word	296960006
	.half	-10149
	.half	19722
	.base64	"opDVpXExDvc="
	.globl	gEfiPcdProtocolGuid
	.section	.data.gEfiPcdProtocolGuid,"aw"
	.align	3
	.type	gEfiPcdProtocolGuid, @object
	.size	gEfiPcdProtocolGuid, 16
gEfiPcdProtocolGuid:
	.word	329511158
	.half	9802
	.half	16112
	.base64	"8uDexRI0LzQ="
	.globl	gGetPcdInfoProtocolGuid
	.section	.data.gGetPcdInfoProtocolGuid,"aw"
	.align	3
	.type	gGetPcdInfoProtocolGuid, @object
	.size	gGetPcdInfoProtocolGuid, 16
gGetPcdInfoProtocolGuid:
	.word	1541672791
	.half	-1432
	.half	17936
	.base64	"u7/pxfza02U="
	.globl	gEfiGetPcdInfoProtocolGuid
	.section	.data.gEfiGetPcdInfoProtocolGuid,"aw"
	.align	3
	.type	gEfiGetPcdInfoProtocolGuid, @object
	.size	gEfiGetPcdInfoProtocolGuid, 16
gEfiGetPcdInfoProtocolGuid:
	.word	-49331080
	.half	3837
	.half	17949
	.base64	"ui3ljEX9X14="
	.globl	gEfiDebugPortProtocolGuid
	.section	.data.gEfiDebugPortProtocolGuid,"aw"
	.align	3
	.type	gEfiDebugPortProtocolGuid, @object
	.size	gEfiDebugPortProtocolGuid, 16
gEfiDebugPortProtocolGuid:
	.word	-341514030
	.half	14424
	.half	16876
	.base64	"ooEmR7qWYNA="
	.globl	gEfiSimpleTextOutProtocolGuid
	.section	.data.gEfiSimpleTextOutProtocolGuid,"aw"
	.align	3
	.type	gEfiSimpleTextOutProtocolGuid, @object
	.size	gEfiSimpleTextOutProtocolGuid, 16
gEfiSimpleTextOutProtocolGuid:
	.word	947156930
	.half	27079
	.half	4562
	.base64	"jjkAoMlpcjs="
	.globl	gEfiGraphicsOutputProtocolGuid
	.section	.data.gEfiGraphicsOutputProtocolGuid,"aw"
	.align	3
	.type	gEfiGraphicsOutputProtocolGuid, @object
	.size	gEfiGraphicsOutputProtocolGuid, 16
gEfiGraphicsOutputProtocolGuid:
	.word	-1874679330
	.half	9180
	.half	19000
	.base64	"lvt63tCAUWo="
	.globl	gEfiHiiFontProtocolGuid
	.section	.data.gEfiHiiFontProtocolGuid,"aw"
	.align	3
	.type	gEfiHiiFontProtocolGuid, @object
	.size	gEfiHiiFontProtocolGuid, 16
gEfiHiiFontProtocolGuid:
	.word	-372619403
	.half	-31145
	.half	18428
	.base64	"l+d+1loIQyQ="
	.globl	gEfiUgaDrawProtocolGuid
	.section	.data.gEfiUgaDrawProtocolGuid,"aw"
	.align	3
	.type	gEfiUgaDrawProtocolGuid, @object
	.size	gEfiUgaDrawProtocolGuid, 16
gEfiUgaDrawProtocolGuid:
	.word	-1741936245
	.half	-2822
	.half	16843
	.base64	"uDh3qmiPuDk="
	.globl	gEfiComponentNameProtocolGuid
	.section	.data.gEfiComponentNameProtocolGuid,"aw"
	.align	3
	.type	gEfiComponentNameProtocolGuid, @object
	.size	gEfiComponentNameProtocolGuid, 16
gEfiComponentNameProtocolGuid:
	.word	276461356
	.half	-10783
	.half	4564
	.base64	"mkYAkCc/wU0="
	.globl	gEfiComponentName2ProtocolGuid
	.section	.data.gEfiComponentName2ProtocolGuid,"aw"
	.align	3
	.type	gEfiComponentName2ProtocolGuid, @object
	.size	gEfiComponentName2ProtocolGuid, 16
gEfiComponentName2ProtocolGuid:
	.word	1786404095
	.half	-5927
	.half	20336
	.base64	"utp1qzAlzhQ="
	.globl	gEfiDriverConfigurationProtocolGuid
	.section	.data.gEfiDriverConfigurationProtocolGuid,"aw"
	.align	3
	.type	gEfiDriverConfigurationProtocolGuid, @object
	.size	gEfiDriverConfigurationProtocolGuid, 16
gEfiDriverConfigurationProtocolGuid:
	.word	276461355
	.half	-10783
	.half	4564
	.base64	"mkYAkCc/wU0="
	.globl	gEfiDriverConfiguration2ProtocolGuid
	.section	.data.gEfiDriverConfiguration2ProtocolGuid,"aw"
	.align	3
	.type	gEfiDriverConfiguration2ProtocolGuid, @object
	.size	gEfiDriverConfiguration2ProtocolGuid, 16
gEfiDriverConfiguration2ProtocolGuid:
	.word	-1076372451
	.half	9457
	.half	16601
	.base64	"gucuCbtrTr4="
	.globl	gEfiDriverDiagnosticsProtocolGuid
	.section	.data.gEfiDriverDiagnosticsProtocolGuid,"aw"
	.align	3
	.type	gEfiDriverDiagnosticsProtocolGuid, @object
	.size	gEfiDriverDiagnosticsProtocolGuid, 16
gEfiDriverDiagnosticsProtocolGuid:
	.word	126128719
	.half	-7530
	.half	4564
	.base64	"mkkAkCc/wU0="
	.globl	gEfiDriverDiagnostics2ProtocolGuid
	.section	.data.gEfiDriverDiagnostics2ProtocolGuid,"aw"
	.align	3
	.type	gEfiDriverDiagnostics2ProtocolGuid, @object
	.size	gEfiDriverDiagnostics2ProtocolGuid, 16
gEfiDriverDiagnostics2ProtocolGuid:
	.word	1295188769
	.half	607
	.half	19116
	.base64	"kNhe2QAXO2M="
	.globl	gEfiStatusCodeRuntimeProtocolGuid
	.section	.data.gEfiStatusCodeRuntimeProtocolGuid,"aw"
	.align	3
	.type	gEfiStatusCodeRuntimeProtocolGuid, @object
	.size	gEfiStatusCodeRuntimeProtocolGuid, 16
gEfiStatusCodeRuntimeProtocolGuid:
	.word	-760039384
	.half	2086
	.half	18599
	.base64	"s9+YPABgJPA="
	.globl	gEfiSmmCommunicationProtocolGuid
	.section	.data.gEfiSmmCommunicationProtocolGuid,"aw"
	.align	3
	.type	gEfiSmmCommunicationProtocolGuid, @object
	.size	gEfiSmmCommunicationProtocolGuid, 16
gEfiSmmCommunicationProtocolGuid:
	.word	-963716894
	.half	-25146
	.half	19645
	.base64	"nZTbZazFwzI="
	.globl	gEfiSecurityPolicyProtocolGuid
	.section	.data.gEfiSecurityPolicyProtocolGuid,"aw"
	.align	3
	.type	gEfiSecurityPolicyProtocolGuid, @object
	.size	gEfiSecurityPolicyProtocolGuid, 16
gEfiSecurityPolicyProtocolGuid:
	.word	2028261957
	.half	-12979
	.half	18949
	.base64	"orpHQ+hs/Ks="
	.globl	gEfiVectorHandoffInfoPpiGuid
	.section	.data.gEfiVectorHandoffInfoPpiGuid,"aw"
	.align	3
	.type	gEfiVectorHandoffInfoPpiGuid, @object
	.size	gEfiVectorHandoffInfoPpiGuid, 16
gEfiVectorHandoffInfoPpiGuid:
	.word	1020678836
	.half	27955
	.half	19918
	.base64	"iduD35dm/Mo="
	.globl	_gPcd_SkuId_Array
	.section	.bss._gPcd_SkuId_Array,"aw",@nobits
	.align	3
	.type	_gPcd_SkuId_Array, @object
	.size	_gPcd_SkuId_Array, 8
_gPcd_SkuId_Array:
	.zero	8
	.globl	_gPcd_BinaryPatch_PcdLoadFixAddressBootTimeCodePageNumber
	.section	.bss._gPcd_BinaryPatch_PcdLoadFixAddressBootTimeCodePageNumber,"aw",@nobits
	.align	2
	.type	_gPcd_BinaryPatch_PcdLoadFixAddressBootTimeCodePageNumber, @object
	.size	_gPcd_BinaryPatch_PcdLoadFixAddressBootTimeCodePageNumber, 4
_gPcd_BinaryPatch_PcdLoadFixAddressBootTimeCodePageNumber:
	.zero	4
	.globl	_gPcd_BinaryPatch_Size_PcdLoadFixAddressBootTimeCodePageNumber
	.section	.data._gPcd_BinaryPatch_Size_PcdLoadFixAddressBootTimeCodePageNumber,"aw"
	.align	3
	.type	_gPcd_BinaryPatch_Size_PcdLoadFixAddressBootTimeCodePageNumber, @object
	.size	_gPcd_BinaryPatch_Size_PcdLoadFixAddressBootTimeCodePageNumber, 8
_gPcd_BinaryPatch_Size_PcdLoadFixAddressBootTimeCodePageNumber:
	.dword	4
	.globl	_gPcd_BinaryPatch_PcdLoadFixAddressRuntimeCodePageNumber
	.section	.bss._gPcd_BinaryPatch_PcdLoadFixAddressRuntimeCodePageNumber,"aw",@nobits
	.align	2
	.type	_gPcd_BinaryPatch_PcdLoadFixAddressRuntimeCodePageNumber, @object
	.size	_gPcd_BinaryPatch_PcdLoadFixAddressRuntimeCodePageNumber, 4
_gPcd_BinaryPatch_PcdLoadFixAddressRuntimeCodePageNumber:
	.zero	4
	.globl	_gPcd_BinaryPatch_Size_PcdLoadFixAddressRuntimeCodePageNumber
	.section	.data._gPcd_BinaryPatch_Size_PcdLoadFixAddressRuntimeCodePageNumber,"aw"
	.align	3
	.type	_gPcd_BinaryPatch_Size_PcdLoadFixAddressRuntimeCodePageNumber, @object
	.size	_gPcd_BinaryPatch_Size_PcdLoadFixAddressRuntimeCodePageNumber, 8
_gPcd_BinaryPatch_Size_PcdLoadFixAddressRuntimeCodePageNumber:
	.dword	4
	.globl	_gPcd_FixedAtBuild_PcdLoadModuleAtFixAddressEnable
	.section	.rodata._gPcd_FixedAtBuild_PcdLoadModuleAtFixAddressEnable,"a"
	.align	3
	.type	_gPcd_FixedAtBuild_PcdLoadModuleAtFixAddressEnable, @object
	.size	_gPcd_FixedAtBuild_PcdLoadModuleAtFixAddressEnable, 8
_gPcd_FixedAtBuild_PcdLoadModuleAtFixAddressEnable:
	.zero	8
	.globl	_gPcd_FixedAtBuild_PcdMaxEfiSystemTablePointerAddress
	.section	.rodata._gPcd_FixedAtBuild_PcdMaxEfiSystemTablePointerAddress,"a"
	.align	3
	.type	_gPcd_FixedAtBuild_PcdMaxEfiSystemTablePointerAddress, @object
	.size	_gPcd_FixedAtBuild_PcdMaxEfiSystemTablePointerAddress, 8
_gPcd_FixedAtBuild_PcdMaxEfiSystemTablePointerAddress:
	.zero	8
	.globl	_gPcd_FixedAtBuild_PcdMemoryProfileMemoryType
	.section	.rodata._gPcd_FixedAtBuild_PcdMemoryProfileMemoryType,"a"
	.align	3
	.type	_gPcd_FixedAtBuild_PcdMemoryProfileMemoryType, @object
	.size	_gPcd_FixedAtBuild_PcdMemoryProfileMemoryType, 8
_gPcd_FixedAtBuild_PcdMemoryProfileMemoryType:
	.zero	8
	.globl	_gPcd_FixedAtBuild_PcdMemoryProfilePropertyMask
	.section	.rodata._gPcd_FixedAtBuild_PcdMemoryProfilePropertyMask,"a"
	.type	_gPcd_FixedAtBuild_PcdMemoryProfilePropertyMask, @object
	.size	_gPcd_FixedAtBuild_PcdMemoryProfilePropertyMask, 1
_gPcd_FixedAtBuild_PcdMemoryProfilePropertyMask:
	.zero	1
	.globl	_gPcd_FixedAtBuild_PcdMemoryProfileDriverPath
	.section	.rodata._gPcd_FixedAtBuild_PcdMemoryProfileDriverPath,"a"
	.align	3
	.type	_gPcd_FixedAtBuild_PcdMemoryProfileDriverPath, @object
	.size	_gPcd_FixedAtBuild_PcdMemoryProfileDriverPath, 1
_gPcd_FixedAtBuild_PcdMemoryProfileDriverPath:
	.zero	1
	.globl	_gPcd_FixedAtBuild_Size_PcdMemoryProfileDriverPath
	.section	.rodata._gPcd_FixedAtBuild_Size_PcdMemoryProfileDriverPath,"a"
	.align	3
	.type	_gPcd_FixedAtBuild_Size_PcdMemoryProfileDriverPath, @object
	.size	_gPcd_FixedAtBuild_Size_PcdMemoryProfileDriverPath, 8
_gPcd_FixedAtBuild_Size_PcdMemoryProfileDriverPath:
	.dword	1
	.globl	_gPcd_FixedAtBuild_PcdImageProtectionPolicy
	.section	.rodata._gPcd_FixedAtBuild_PcdImageProtectionPolicy,"a"
	.align	2
	.type	_gPcd_FixedAtBuild_PcdImageProtectionPolicy, @object
	.size	_gPcd_FixedAtBuild_PcdImageProtectionPolicy, 4
_gPcd_FixedAtBuild_PcdImageProtectionPolicy:
	.word	2
	.globl	_gPcd_FixedAtBuild_PcdDxeNxMemoryProtectionPolicy
	.section	.rodata._gPcd_FixedAtBuild_PcdDxeNxMemoryProtectionPolicy,"a"
	.align	3
	.type	_gPcd_FixedAtBuild_PcdDxeNxMemoryProtectionPolicy, @object
	.size	_gPcd_FixedAtBuild_PcdDxeNxMemoryProtectionPolicy, 8
_gPcd_FixedAtBuild_PcdDxeNxMemoryProtectionPolicy:
	.zero	8
	.globl	_gPcd_FixedAtBuild_PcdNullPointerDetectionPropertyMask
	.section	.rodata._gPcd_FixedAtBuild_PcdNullPointerDetectionPropertyMask,"a"
	.type	_gPcd_FixedAtBuild_PcdNullPointerDetectionPropertyMask, @object
	.size	_gPcd_FixedAtBuild_PcdNullPointerDetectionPropertyMask, 1
_gPcd_FixedAtBuild_PcdNullPointerDetectionPropertyMask:
	.zero	1
	.globl	_gPcd_FixedAtBuild_PcdHeapGuardPageType
	.section	.rodata._gPcd_FixedAtBuild_PcdHeapGuardPageType,"a"
	.align	3
	.type	_gPcd_FixedAtBuild_PcdHeapGuardPageType, @object
	.size	_gPcd_FixedAtBuild_PcdHeapGuardPageType, 8
_gPcd_FixedAtBuild_PcdHeapGuardPageType:
	.zero	8
	.globl	_gPcd_FixedAtBuild_PcdHeapGuardPoolType
	.section	.rodata._gPcd_FixedAtBuild_PcdHeapGuardPoolType,"a"
	.align	3
	.type	_gPcd_FixedAtBuild_PcdHeapGuardPoolType, @object
	.size	_gPcd_FixedAtBuild_PcdHeapGuardPoolType, 8
_gPcd_FixedAtBuild_PcdHeapGuardPoolType:
	.zero	8
	.globl	_gPcd_FixedAtBuild_PcdHeapGuardPropertyMask
	.section	.rodata._gPcd_FixedAtBuild_PcdHeapGuardPropertyMask,"a"
	.type	_gPcd_FixedAtBuild_PcdHeapGuardPropertyMask, @object
	.size	_gPcd_FixedAtBuild_PcdHeapGuardPropertyMask, 1
_gPcd_FixedAtBuild_PcdHeapGuardPropertyMask:
	.zero	1
	.globl	_gPcd_FixedAtBuild_PcdCpuStackGuard
	.section	.rodata._gPcd_FixedAtBuild_PcdCpuStackGuard,"a"
	.type	_gPcd_FixedAtBuild_PcdCpuStackGuard, @object
	.size	_gPcd_FixedAtBuild_PcdCpuStackGuard, 1
_gPcd_FixedAtBuild_PcdCpuStackGuard:
	.zero	1
	.globl	_gPcd_FixedAtBuild_PcdFwVolDxeMaxEncapsulationDepth
	.section	.rodata._gPcd_FixedAtBuild_PcdFwVolDxeMaxEncapsulationDepth,"a"
	.align	2
	.type	_gPcd_FixedAtBuild_PcdFwVolDxeMaxEncapsulationDepth, @object
	.size	_gPcd_FixedAtBuild_PcdFwVolDxeMaxEncapsulationDepth, 4
_gPcd_FixedAtBuild_PcdFwVolDxeMaxEncapsulationDepth:
	.word	16
	.globl	_gPcd_FixedAtBuild_PcdImageLargeAddressLoad
	.section	.rodata._gPcd_FixedAtBuild_PcdImageLargeAddressLoad,"a"
	.type	_gPcd_FixedAtBuild_PcdImageLargeAddressLoad, @object
	.size	_gPcd_FixedAtBuild_PcdImageLargeAddressLoad, 1
_gPcd_FixedAtBuild_PcdImageLargeAddressLoad:
	.byte	1
	.globl	_gPcd_FixedAtBuild_PcdVerifyNodeInList
	.section	.rodata._gPcd_FixedAtBuild_PcdVerifyNodeInList,"a"
	.type	_gPcd_FixedAtBuild_PcdVerifyNodeInList, @object
	.size	_gPcd_FixedAtBuild_PcdVerifyNodeInList, 1
_gPcd_FixedAtBuild_PcdVerifyNodeInList:
	.zero	1
	.globl	_gPcd_FixedAtBuild_PcdMaximumLinkedListLength
	.section	.rodata._gPcd_FixedAtBuild_PcdMaximumLinkedListLength,"a"
	.align	2
	.type	_gPcd_FixedAtBuild_PcdMaximumLinkedListLength, @object
	.size	_gPcd_FixedAtBuild_PcdMaximumLinkedListLength, 4
_gPcd_FixedAtBuild_PcdMaximumLinkedListLength:
	.word	1000000
	.globl	_gPcd_FixedAtBuild_PcdMaximumAsciiStringLength
	.section	.rodata._gPcd_FixedAtBuild_PcdMaximumAsciiStringLength,"a"
	.align	2
	.type	_gPcd_FixedAtBuild_PcdMaximumAsciiStringLength, @object
	.size	_gPcd_FixedAtBuild_PcdMaximumAsciiStringLength, 4
_gPcd_FixedAtBuild_PcdMaximumAsciiStringLength:
	.word	1000000
	.globl	_gPcd_FixedAtBuild_PcdMaximumUnicodeStringLength
	.section	.rodata._gPcd_FixedAtBuild_PcdMaximumUnicodeStringLength,"a"
	.align	2
	.type	_gPcd_FixedAtBuild_PcdMaximumUnicodeStringLength, @object
	.size	_gPcd_FixedAtBuild_PcdMaximumUnicodeStringLength, 4
_gPcd_FixedAtBuild_PcdMaximumUnicodeStringLength:
	.word	1000000
	.globl	_gPcd_FixedAtBuild_PcdControlFlowEnforcementPropertyMask
	.section	.rodata._gPcd_FixedAtBuild_PcdControlFlowEnforcementPropertyMask,"a"
	.align	2
	.type	_gPcd_FixedAtBuild_PcdControlFlowEnforcementPropertyMask, @object
	.size	_gPcd_FixedAtBuild_PcdControlFlowEnforcementPropertyMask, 4
_gPcd_FixedAtBuild_PcdControlFlowEnforcementPropertyMask:
	.zero	4
	.globl	_gPcd_FixedAtBuild_PcdSpeculationBarrierType
	.section	.rodata._gPcd_FixedAtBuild_PcdSpeculationBarrierType,"a"
	.type	_gPcd_FixedAtBuild_PcdSpeculationBarrierType, @object
	.size	_gPcd_FixedAtBuild_PcdSpeculationBarrierType, 1
_gPcd_FixedAtBuild_PcdSpeculationBarrierType:
	.byte	1
	.globl	_gPcd_FixedAtBuild_PcdDebugPrintErrorLevel
	.section	.rodata._gPcd_FixedAtBuild_PcdDebugPrintErrorLevel,"a"
	.align	2
	.type	_gPcd_FixedAtBuild_PcdDebugPrintErrorLevel, @object
	.size	_gPcd_FixedAtBuild_PcdDebugPrintErrorLevel, 4
_gPcd_FixedAtBuild_PcdDebugPrintErrorLevel:
	.word	-2147483577
	.globl	_gPcd_FixedAtBuild_PcdDebugClearMemoryValue
	.section	.rodata._gPcd_FixedAtBuild_PcdDebugClearMemoryValue,"a"
	.type	_gPcd_FixedAtBuild_PcdDebugClearMemoryValue, @object
	.size	_gPcd_FixedAtBuild_PcdDebugClearMemoryValue, 1
_gPcd_FixedAtBuild_PcdDebugClearMemoryValue:
	.byte	-81
	.globl	_gPcd_FixedAtBuild_PcdDebugPropertyMask
	.section	.rodata._gPcd_FixedAtBuild_PcdDebugPropertyMask,"a"
	.type	_gPcd_FixedAtBuild_PcdDebugPropertyMask, @object
	.size	_gPcd_FixedAtBuild_PcdDebugPropertyMask, 1
_gPcd_FixedAtBuild_PcdDebugPropertyMask:
	.byte	47
	.globl	_gPcd_FixedAtBuild_PcdFixedDebugPrintErrorLevel
	.section	.rodata._gPcd_FixedAtBuild_PcdFixedDebugPrintErrorLevel,"a"
	.align	2
	.type	_gPcd_FixedAtBuild_PcdFixedDebugPrintErrorLevel, @object
	.size	_gPcd_FixedAtBuild_PcdFixedDebugPrintErrorLevel, 4
_gPcd_FixedAtBuild_PcdFixedDebugPrintErrorLevel:
	.word	-1
	.globl	_gPcd_FixedAtBuild_PcdMaximumDevicePathNodeCount
	.section	.rodata._gPcd_FixedAtBuild_PcdMaximumDevicePathNodeCount,"a"
	.align	2
	.type	_gPcd_FixedAtBuild_PcdMaximumDevicePathNodeCount, @object
	.size	_gPcd_FixedAtBuild_PcdMaximumDevicePathNodeCount, 4
_gPcd_FixedAtBuild_PcdMaximumDevicePathNodeCount:
	.zero	4
	.globl	_gPcd_FixedAtBuild_PcdDriverDiagnosticsDisable
	.section	.rodata._gPcd_FixedAtBuild_PcdDriverDiagnosticsDisable,"a"
	.type	_gPcd_FixedAtBuild_PcdDriverDiagnosticsDisable, @object
	.size	_gPcd_FixedAtBuild_PcdDriverDiagnosticsDisable, 1
_gPcd_FixedAtBuild_PcdDriverDiagnosticsDisable:
	.zero	1
	.globl	_gPcd_FixedAtBuild_PcdComponentNameDisable
	.section	.rodata._gPcd_FixedAtBuild_PcdComponentNameDisable,"a"
	.type	_gPcd_FixedAtBuild_PcdComponentNameDisable, @object
	.size	_gPcd_FixedAtBuild_PcdComponentNameDisable, 1
_gPcd_FixedAtBuild_PcdComponentNameDisable:
	.zero	1
	.globl	_gPcd_FixedAtBuild_PcdDriverDiagnostics2Disable
	.section	.rodata._gPcd_FixedAtBuild_PcdDriverDiagnostics2Disable,"a"
	.type	_gPcd_FixedAtBuild_PcdDriverDiagnostics2Disable, @object
	.size	_gPcd_FixedAtBuild_PcdDriverDiagnostics2Disable, 1
_gPcd_FixedAtBuild_PcdDriverDiagnostics2Disable:
	.zero	1
	.globl	_gPcd_FixedAtBuild_PcdComponentName2Disable
	.section	.rodata._gPcd_FixedAtBuild_PcdComponentName2Disable,"a"
	.type	_gPcd_FixedAtBuild_PcdComponentName2Disable, @object
	.size	_gPcd_FixedAtBuild_PcdComponentName2Disable, 1
_gPcd_FixedAtBuild_PcdComponentName2Disable:
	.zero	1
	.globl	_gPcd_FixedAtBuild_PcdUgaConsumeSupport
	.section	.rodata._gPcd_FixedAtBuild_PcdUgaConsumeSupport,"a"
	.type	_gPcd_FixedAtBuild_PcdUgaConsumeSupport, @object
	.size	_gPcd_FixedAtBuild_PcdUgaConsumeSupport, 1
_gPcd_FixedAtBuild_PcdUgaConsumeSupport:
	.byte	1
	.globl	_gPcd_FixedAtBuild_PcdUefiLibMaxPrintBufferSize
	.section	.rodata._gPcd_FixedAtBuild_PcdUefiLibMaxPrintBufferSize,"a"
	.align	2
	.type	_gPcd_FixedAtBuild_PcdUefiLibMaxPrintBufferSize, @object
	.size	_gPcd_FixedAtBuild_PcdUefiLibMaxPrintBufferSize, 4
_gPcd_FixedAtBuild_PcdUefiLibMaxPrintBufferSize:
	.word	320
	.globl	_gPcd_FixedAtBuild_PcdCpuCoreCrystalClockFrequency
	.section	.rodata._gPcd_FixedAtBuild_PcdCpuCoreCrystalClockFrequency,"a"
	.align	3
	.type	_gPcd_FixedAtBuild_PcdCpuCoreCrystalClockFrequency, @object
	.size	_gPcd_FixedAtBuild_PcdCpuCoreCrystalClockFrequency, 8
_gPcd_FixedAtBuild_PcdCpuCoreCrystalClockFrequency:
	.dword	24000000
	.globl	_gPcd_FixedAtBuild_PcdReportStatusCodePropertyMask
	.section	.rodata._gPcd_FixedAtBuild_PcdReportStatusCodePropertyMask,"a"
	.type	_gPcd_FixedAtBuild_PcdReportStatusCodePropertyMask, @object
	.size	_gPcd_FixedAtBuild_PcdReportStatusCodePropertyMask, 1
_gPcd_FixedAtBuild_PcdReportStatusCodePropertyMask:
	.byte	7
	.globl	_gPcd_FixedAtBuild_PcdSpinLockTimeout
	.section	.rodata._gPcd_FixedAtBuild_PcdSpinLockTimeout,"a"
	.align	2
	.type	_gPcd_FixedAtBuild_PcdSpinLockTimeout, @object
	.size	_gPcd_FixedAtBuild_PcdSpinLockTimeout, 4
_gPcd_FixedAtBuild_PcdSpinLockTimeout:
	.word	10000000
	.globl	_gPcd_FixedAtBuild_PcdRiscVFeatureOverride
	.section	.rodata._gPcd_FixedAtBuild_PcdRiscVFeatureOverride,"a"
	.align	3
	.type	_gPcd_FixedAtBuild_PcdRiscVFeatureOverride, @object
	.size	_gPcd_FixedAtBuild_PcdRiscVFeatureOverride, 8
_gPcd_FixedAtBuild_PcdRiscVFeatureOverride:
	.dword	7
	.globl	_gPcd_FixedAtBuild_PcdPerformanceLibraryPropertyMask
	.section	.rodata._gPcd_FixedAtBuild_PcdPerformanceLibraryPropertyMask,"a"
	.type	_gPcd_FixedAtBuild_PcdPerformanceLibraryPropertyMask, @object
	.size	_gPcd_FixedAtBuild_PcdPerformanceLibraryPropertyMask, 1
_gPcd_FixedAtBuild_PcdPerformanceLibraryPropertyMask:
	.zero	1
	.globl	_gPcd_FixedAtBuild_PcdEdkiiFpdtStringRecordEnableOnly
	.section	.rodata._gPcd_FixedAtBuild_PcdEdkiiFpdtStringRecordEnableOnly,"a"
	.type	_gPcd_FixedAtBuild_PcdEdkiiFpdtStringRecordEnableOnly, @object
	.size	_gPcd_FixedAtBuild_PcdEdkiiFpdtStringRecordEnableOnly, 1
_gPcd_FixedAtBuild_PcdEdkiiFpdtStringRecordEnableOnly:
	.zero	1
	.globl	_gPcd_FixedAtBuild_PcdExtFpdtBootRecordPadSize
	.section	.rodata._gPcd_FixedAtBuild_PcdExtFpdtBootRecordPadSize,"a"
	.align	2
	.type	_gPcd_FixedAtBuild_PcdExtFpdtBootRecordPadSize, @object
	.size	_gPcd_FixedAtBuild_PcdExtFpdtBootRecordPadSize, 4
_gPcd_FixedAtBuild_PcdExtFpdtBootRecordPadSize:
	.word	196608
	.globl	_gPcd_FixedAtBuild_PcdValidateOrderedCollection
	.section	.rodata._gPcd_FixedAtBuild_PcdValidateOrderedCollection,"a"
	.type	_gPcd_FixedAtBuild_PcdValidateOrderedCollection, @object
	.size	_gPcd_FixedAtBuild_PcdValidateOrderedCollection, 1
_gPcd_FixedAtBuild_PcdValidateOrderedCollection:
	.zero	1
	.section	.text.ProcessLibraryConstructorList,"ax",@progbits
	.align	1
	.globl	ProcessLibraryConstructorList
	.type	ProcessLibraryConstructorList, @function
ProcessLibraryConstructorList:
.LFB0:
	.file 1 "/home/kapoagaeming/Downloads/spacemit-image-builder/components/Build/Milk-V-Jupiter/RELEASE_GCC5/RISCV64/MdeModulePkg/Core/Dxe/DxeMain/DEBUG/AutoGen.c"
	.loc 1 430 1
	.cfi_startproc
	addi	sp,sp,-48
	.cfi_def_cfa_offset 48
	sd	ra,40(sp)
	sd	s0,32(sp)
	.cfi_offset 1, -8
	.cfi_offset 8, -16
	addi	s0,sp,48
	.cfi_def_cfa 8, 0
	sd	a0,-40(s0)
	sd	a1,-48(s0)
	.loc 1 433 12
	call	BaseDebugLibSerialPortConstructor@plt
	sd	a0,-24(s0)
	.loc 1 436 12
	ld	a1,-48(s0)
	ld	a0,-40(s0)
	call	UefiBootServicesTableLibConstructor@plt
	sd	a0,-24(s0)
	.loc 1 439 12
	ld	a1,-48(s0)
	ld	a0,-40(s0)
	call	UefiRuntimeServicesTableLibConstructor@plt
	sd	a0,-24(s0)
	.loc 1 442 12
	ld	a1,-48(s0)
	ld	a0,-40(s0)
	call	UefiLibConstructor@plt
	sd	a0,-24(s0)
	.loc 1 445 12
	ld	a1,-48(s0)
	ld	a0,-40(s0)
	call	DxeExtractGuidedSectionLibConstructor@plt
	sd	a0,-24(s0)
	.loc 1 448 12
	ld	a1,-48(s0)
	ld	a0,-40(s0)
	call	DxeCorePerformanceLibConstructor@plt
	sd	a0,-24(s0)
	.loc 1 451 12
	ld	a1,-48(s0)
	ld	a0,-40(s0)
	call	DxeCrc32GuidedSectionExtractLibConstructor@plt
	sd	a0,-24(s0)
	.loc 1 454 1
	nop
	ld	ra,40(sp)
	.cfi_restore 1
	ld	s0,32(sp)
	.cfi_restore 8
	.cfi_def_cfa 2, 48
	addi	sp,sp,48
	.cfi_def_cfa_offset 0
	jr	ra
	.cfi_endproc
.LFE0:
	.size	ProcessLibraryConstructorList, .-ProcessLibraryConstructorList
	.section	.text.ProcessLibraryDestructorList,"ax",@progbits
	.align	1
	.globl	ProcessLibraryDestructorList
	.type	ProcessLibraryDestructorList, @function
ProcessLibraryDestructorList:
.LFB1:
	.loc 1 464 1
	.cfi_startproc
	addi	sp,sp,-32
	.cfi_def_cfa_offset 32
	sd	ra,24(sp)
	sd	s0,16(sp)
	.cfi_offset 1, -8
	.cfi_offset 8, -16
	addi	s0,sp,32
	.cfi_def_cfa 8, 0
	sd	a0,-24(s0)
	sd	a1,-32(s0)
	.loc 1 466 1
	nop
	ld	ra,24(sp)
	.cfi_restore 1
	ld	s0,16(sp)
	.cfi_restore 8
	.cfi_def_cfa 2, 32
	addi	sp,sp,32
	.cfi_def_cfa_offset 0
	jr	ra
	.cfi_endproc
.LFE1:
	.size	ProcessLibraryDestructorList, .-ProcessLibraryDestructorList
	.section	.text.ProcessModuleEntryPointList,"ax",@progbits
	.align	1
	.globl	ProcessModuleEntryPointList
	.type	ProcessModuleEntryPointList, @function
ProcessModuleEntryPointList:
.LFB2:
	.loc 1 475 1
	.cfi_startproc
	addi	sp,sp,-32
	.cfi_def_cfa_offset 32
	sd	ra,24(sp)
	sd	s0,16(sp)
	.cfi_offset 1, -8
	.cfi_offset 8, -16
	addi	s0,sp,32
	.cfi_def_cfa 8, 0
	sd	a0,-24(s0)
	.loc 1 476 3
	ld	a0,-24(s0)
	call	DxeMain@plt
	.loc 1 477 1
	nop
	ld	ra,24(sp)
	.cfi_restore 1
	ld	s0,16(sp)
	.cfi_restore 8
	.cfi_def_cfa 2, 32
	addi	sp,sp,32
	.cfi_def_cfa_offset 0
	jr	ra
	.cfi_endproc
.LFE2:
	.size	ProcessModuleEntryPointList, .-ProcessModuleEntryPointList
	.globl	_gDriverUnloadImageCount
	.section	.rodata._gDriverUnloadImageCount,"a"
	.type	_gDriverUnloadImageCount, @object
	.size	_gDriverUnloadImageCount, 1
_gDriverUnloadImageCount:
	.zero	1
	.section	.text.ProcessModuleUnloadList,"ax",@progbits
	.align	1
	.globl	ProcessModuleUnloadList
	.type	ProcessModuleUnloadList, @function
ProcessModuleUnloadList:
.LFB3:
	.loc 1 487 1
	.cfi_startproc
	addi	sp,sp,-32
	.cfi_def_cfa_offset 32
	sd	ra,24(sp)
	sd	s0,16(sp)
	.cfi_offset 1, -8
	.cfi_offset 8, -16
	addi	s0,sp,32
	.cfi_def_cfa 8, 0
	sd	a0,-24(s0)
	.loc 1 488 10
	li	a5,0
	.loc 1 489 1
	mv	a0,a5
	ld	ra,24(sp)
	.cfi_restore 1
	ld	s0,16(sp)
	.cfi_restore 8
	.cfi_def_cfa 2, 32
	addi	sp,sp,32
	.cfi_def_cfa_offset 0
	jr	ra
	.cfi_endproc
.LFE3:
	.size	ProcessModuleUnloadList, .-ProcessModuleUnloadList
	.text
.Letext0:
	.file 2 "/home/kapoagaeming/Downloads/spacemit-image-builder/components/edk2/MdePkg/Include/RiscV64/ProcessorBind.h"
	.file 3 "/home/kapoagaeming/Downloads/spacemit-image-builder/components/edk2/MdePkg/Include/Base.h"
	.file 4 "/home/kapoagaeming/Downloads/spacemit-image-builder/components/edk2/MdePkg/Include/Uefi/UefiBaseType.h"
	.file 5 "/home/kapoagaeming/Downloads/spacemit-image-builder/components/edk2/MdePkg/Include/Uefi/UefiMultiPhase.h"
	.file 6 "/home/kapoagaeming/Downloads/spacemit-image-builder/components/edk2/MdePkg/Include/Guid/PcAnsi.h"
	.file 7 "/home/kapoagaeming/Downloads/spacemit-image-builder/components/edk2/MdePkg/Include/Protocol/DevicePath.h"
	.file 8 "/home/kapoagaeming/Downloads/spacemit-image-builder/components/edk2/MdePkg/Include/Protocol/SimpleTextIn.h"
	.file 9 "/home/kapoagaeming/Downloads/spacemit-image-builder/components/edk2/MdePkg/Include/Protocol/SimpleTextOut.h"
	.file 10 "/home/kapoagaeming/Downloads/spacemit-image-builder/components/edk2/MdePkg/Include/Uefi/UefiSpec.h"
	.file 11 "/home/kapoagaeming/Downloads/spacemit-image-builder/components/Build/Milk-V-Jupiter/RELEASE_GCC5/RISCV64/MdeModulePkg/Core/Dxe/DxeMain/DEBUG/AutoGen.h"
	.section	.note.GNU-stack,"",@progbits
