	.file	"TimeBaseLib.c"
	.option pic
	.option norelax
	.attribute arch, "rv64i2p1_m2p0_a2p1_f2p2_d2p2_c2p0_zicsr2p0_zifencei2p0_zmmul1p0_zaamo1p0_zalrsc1p0_zca1p0_zcd1p0"
	.attribute unaligned_access, 0
	.attribute stack_align, 16
	.text
.Ltext0:
	.cfi_sections	.debug_frame
	.file 0 "/home/kapoagaeming/Downloads/spacemit-image-builder/components/Build/Milk-V-Jupiter/RELEASE_GCC5/RISCV64/EmbeddedPkg/Library/TimeBaseLib/TimeBaseLib" "/home/kapoagaeming/Downloads/spacemit-image-builder/components/edk2/EmbeddedPkg/Library/TimeBaseLib/TimeBaseLib.c"
	.section	.text.EpochToEfiTime,"ax",@progbits
	.align	1
	.globl	EpochToEfiTime
	.type	EpochToEfiTime, @function
EpochToEfiTime:
.LFB0:
	.file 1 "/home/kapoagaeming/Downloads/spacemit-image-builder/components/edk2/EmbeddedPkg/Library/TimeBaseLib/TimeBaseLib.c"
	.loc 1 29 1
	.cfi_startproc
	addi	sp,sp,-160
	.cfi_def_cfa_offset 160
	sd	ra,152(sp)
	sd	s0,144(sp)
	.cfi_offset 1, -8
	.cfi_offset 8, -16
	addi	s0,sp,160
	.cfi_def_cfa 8, 0
	sd	a0,-152(s0)
	sd	a1,-160(s0)
	.loc 1 47 21
	ld	a4,-152(s0)
	lla	a5,.LC0
	ld	a5,0(a5)
	mulhu	a5,a4,a5
	srli	a4,a5,16
	.loc 1 47 5
	li	a5,2441216
	addi	a5,a5,-628
	add	a5,a4,a5
	sd	a5,-24(s0)
	.loc 1 48 5
	ld	a4,-24(s0)
	li	a5,32768
	addi	a5,a5,-724
	add	a5,a4,a5
	sd	a5,-32(s0)
	.loc 1 49 5
	ld	a4,-32(s0)
	lla	a5,.LC1
	ld	a5,0(a5)
	mulhu	a5,a4,a5
	srli	a5,a5,15
	sd	a5,-40(s0)
	.loc 1 50 6
	ld	a5,-32(s0)
	lla	a4,.LC1
	ld	a4,0(a4)
	mulhu	a4,a5,a4
	srli	a3,a4,15
	li	a4,147456
	addi	a4,a4,-1359
	mul	a4,a3,a4
	sub	a5,a5,a4
	sd	a5,-48(s0)
	.loc 1 51 13
	ld	a4,-48(s0)
	lla	a5,.LC2
	ld	a5,0(a5)
	mulhu	a5,a4,a5
	srli	a5,a5,15
	.loc 1 51 27
	addi	a4,a5,1
	mv	a5,a4
	slli	a5,a5,1
	add	a5,a5,a4
	.loc 1 51 5
	srli	a5,a5,2
	sd	a5,-56(s0)
	.loc 1 52 16
	ld	a4,-56(s0)
	li	a5,36864
	addi	a5,a5,-340
	mul	a5,a4,a5
	.loc 1 52 6
	ld	a4,-48(s0)
	sub	a5,a4,a5
	sd	a5,-64(s0)
	.loc 1 53 5
	ld	a4,-64(s0)
	lla	a5,.LC3
	ld	a5,0(a5)
	mulhu	a5,a4,a5
	srli	a5,a5,10
	sd	a5,-72(s0)
	.loc 1 54 6
	ld	a5,-64(s0)
	lla	a4,.LC3
	ld	a4,0(a4)
	mulhu	a4,a5,a4
	srli	a3,a4,10
	li	a4,1461
	mul	a4,a3,a4
	sub	a5,a5,a4
	sd	a5,-80(s0)
	.loc 1 55 13
	ld	a4,-80(s0)
	lla	a5,.LC4
	ld	a5,0(a5)
	mulhu	a5,a4,a5
	sub	a4,a4,a5
	srli	a4,a4,1
	add	a5,a5,a4
	srli	a5,a5,8
	.loc 1 55 25
	addi	a4,a5,1
	mv	a5,a4
	slli	a5,a5,1
	add	a5,a5,a4
	.loc 1 55 5
	srli	a5,a5,2
	sd	a5,-88(s0)
	.loc 1 56 16
	ld	a4,-88(s0)
	li	a5,365
	mul	a5,a4,a5
	.loc 1 56 6
	ld	a4,-80(s0)
	sub	a5,a4,a5
	sd	a5,-96(s0)
	.loc 1 57 10
	ld	a4,-40(s0)
	li	a5,400
	mul	a4,a4,a5
	.loc 1 57 22
	ld	a3,-56(s0)
	li	a5,100
	mul	a5,a3,a5
	.loc 1 57 17
	add	a4,a4,a5
	.loc 1 57 34
	ld	a5,-72(s0)
	slli	a5,a5,2
	.loc 1 57 29
	add	a5,a4,a5
	.loc 1 57 5
	ld	a4,-88(s0)
	add	a5,a4,a5
	sd	a5,-104(s0)
	.loc 1 58 13
	ld	a4,-96(s0)
	mv	a5,a4
	slli	a5,a5,2
	add	a5,a5,a4
	.loc 1 58 18
	addi	a4,a5,308
	.loc 1 58 25
	lla	a5,.LC5
	ld	a5,0(a5)
	mulhu	a5,a4,a5
	srli	a5,a5,5
	.loc 1 58 5
	addi	a5,a5,-2
	sd	a5,-112(s0)
	.loc 1 59 22
	ld	a4,-112(s0)
	mv	a5,a4
	slli	a5,a5,3
	add	a5,a5,a4
	slli	a4,a5,4
	add	a5,a5,a4
	addi	a4,a5,612
	.loc 1 59 29
	lla	a5,.LC6
	ld	a5,0(a5)
	mulhu	a5,a4,a5
	srli	a5,a5,2
	.loc 1 59 10
	ld	a4,-96(s0)
	sub	a5,a4,a5
	.loc 1 59 5
	addi	a5,a5,122
	sd	a5,-120(s0)
	.loc 1 61 34
	ld	a5,-104(s0)
	slli	a4,a5,48
	srli	a4,a4,48
	.loc 1 61 40
	ld	a5,-112(s0)
	addi	a3,a5,2
	.loc 1 61 45
	lla	a5,.LC7
	ld	a5,0(a5)
	mulhu	a5,a3,a5
	srli	a5,a5,3
	.loc 1 61 34
	slli	a5,a5,48
	srli	a5,a5,48
	addw	a5,a4,a5
	slli	a4,a5,48
	srli	a4,a4,48
	.loc 1 61 16
	li	a5,-4096
	addiw	a5,a5,-704
	addw	a5,a4,a5
	slli	a4,a5,48
	srli	a4,a4,48
	.loc 1 61 14
	ld	a5,-160(s0)
	sh	a4,0(a5)
	.loc 1 62 21
	ld	a5,-112(s0)
	addi	a3,a5,2
	.loc 1 62 26
	lla	a5,.LC7
	ld	a5,0(a5)
	mulhu	a5,a3,a5
	srli	a4,a5,3
	mv	a5,a4
	slli	a5,a5,1
	add	a5,a5,a4
	slli	a5,a5,2
	sub	a4,a3,a5
	.loc 1 62 32
	andi	a5,a4,0xff
	addiw	a5,a5,1
	andi	a4,a5,0xff
	.loc 1 62 15
	ld	a5,-160(s0)
	sb	a4,2(a5)
	.loc 1 63 15
	ld	a5,-120(s0)
	andi	a5,a5,0xff
	addiw	a5,a5,1
	andi	a4,a5,0xff
	.loc 1 63 13
	ld	a5,-160(s0)
	sb	a4,3(a5)
	.loc 1 65 6
	ld	a4,-152(s0)
	lla	a5,.LC8
	ld	a5,0(a5)
	mulhu	a5,a4,a5
	srli	a3,a5,5
	mv	a5,a3
	slli	a5,a5,4
	sub	a5,a5,a3
	slli	a5,a5,2
	sub	a5,a4,a5
	sd	a5,-128(s0)
	.loc 1 66 21
	ld	a4,-152(s0)
	ld	a5,-128(s0)
	sub	a4,a4,a5
	.loc 1 66 5
	lla	a5,.LC8
	ld	a5,0(a5)
	mulhu	a5,a4,a5
	srli	a5,a5,5
	sd	a5,-88(s0)
	.loc 1 67 6
	ld	a4,-88(s0)
	lla	a5,.LC8
	ld	a5,0(a5)
	mulhu	a5,a4,a5
	srli	a3,a5,5
	mv	a5,a3
	slli	a5,a5,4
	sub	a5,a5,a3
	slli	a5,a5,2
	sub	a5,a4,a5
	sd	a5,-136(s0)
	.loc 1 68 10
	ld	a4,-88(s0)
	ld	a5,-136(s0)
	sub	a4,a4,a5
	.loc 1 68 5
	lla	a5,.LC8
	ld	a5,0(a5)
	mulhu	a5,a4,a5
	srli	a5,a5,5
	sd	a5,-72(s0)
	.loc 1 69 6
	ld	a4,-72(s0)
	lla	a5,.LC7
	ld	a5,0(a5)
	mulhu	a5,a4,a5
	srli	a3,a5,4
	mv	a5,a3
	slli	a5,a5,1
	add	a5,a5,a3
	slli	a5,a5,3
	sub	a5,a4,a5
	sd	a5,-144(s0)
	.loc 1 71 16
	ld	a5,-144(s0)
	andi	a4,a5,0xff
	.loc 1 71 14
	ld	a5,-160(s0)
	sb	a4,4(a5)
	.loc 1 72 18
	ld	a5,-136(s0)
	andi	a4,a5,0xff
	.loc 1 72 16
	ld	a5,-160(s0)
	sb	a4,5(a5)
	.loc 1 73 18
	ld	a5,-128(s0)
	andi	a4,a5,0xff
	.loc 1 73 16
	ld	a5,-160(s0)
	sb	a4,6(a5)
	.loc 1 74 20
	ld	a5,-160(s0)
	sw	zero,8(a5)
	.loc 1 75 1
	nop
	ld	ra,152(sp)
	.cfi_restore 1
	ld	s0,144(sp)
	.cfi_restore 8
	.cfi_def_cfa 2, 160
	addi	sp,sp,160
	.cfi_def_cfa_offset 0
	jr	ra
	.cfi_endproc
.LFE0:
	.size	EpochToEfiTime, .-EpochToEfiTime
	.section	.text.EfiGetEpochDays,"ax",@progbits
	.align	1
	.globl	EfiGetEpochDays
	.type	EfiGetEpochDays, @function
EfiGetEpochDays:
.LFB1:
	.loc 1 90 1
	.cfi_startproc
	addi	sp,sp,-80
	.cfi_def_cfa_offset 80
	sd	ra,72(sp)
	sd	s0,64(sp)
	.cfi_offset 1, -8
	.cfi_offset 8, -16
	addi	s0,sp,80
	.cfi_def_cfa 8, 0
	sd	a0,-72(s0)
	.loc 1 97 17
	ld	a5,-72(s0)
	lbu	a5,2(a5)
	sext.w	a5,a5
	.loc 1 97 11
	li	a4,14
	subw	a5,a4,a5
	sext.w	a5,a5
	.loc 1 97 26
	mv	a3,a5
	sext.w	a4,a3
	li	a5,715829248
	addi	a5,a5,-1365
	mul	a5,a4,a5
	srli	a5,a5,32
	sraiw	a5,a5,1
	mv	a4,a5
	sraiw	a5,a3,31
	subw	a5,a4,a5
	sext.w	a5,a5
	.loc 1 97 5
	sd	a5,-24(s0)
	.loc 1 98 11
	ld	a5,-72(s0)
	lhu	a5,0(a5)
	sext.w	a4,a5
	.loc 1 98 18
	li	a5,4096
	addiw	a5,a5,704
	addw	a5,a4,a5
	sext.w	a5,a5
	mv	a4,a5
	.loc 1 98 5
	ld	a5,-24(s0)
	sub	a5,a4,a5
	sd	a5,-32(s0)
	.loc 1 99 11
	ld	a5,-72(s0)
	lbu	a5,2(a5)
	mv	a3,a5
	.loc 1 99 24
	ld	a4,-24(s0)
	mv	a5,a4
	slli	a5,a5,1
	add	a5,a5,a4
	slli	a5,a5,2
	.loc 1 99 19
	add	a5,a3,a5
	.loc 1 99 5
	addi	a5,a5,-3
	sd	a5,-40(s0)
	.loc 1 101 20
	ld	a5,-72(s0)
	lbu	a5,3(a5)
	mv	a3,a5
	.loc 1 101 33
	ld	a4,-40(s0)
	mv	a5,a4
	slli	a5,a5,3
	add	a5,a5,a4
	slli	a4,a5,4
	add	a5,a5,a4
	.loc 1 101 36
	addi	a4,a5,2
	.loc 1 101 40
	lla	a5,.LC6
	ld	a5,0(a5)
	mulhu	a5,a4,a5
	srli	a5,a5,2
	.loc 1 101 26
	add	a4,a3,a5
	.loc 1 101 50
	ld	a3,-32(s0)
	li	a5,365
	mul	a5,a3,a5
	.loc 1 101 44
	add	a4,a4,a5
	.loc 1 101 58
	ld	a5,-32(s0)
	srli	a5,a5,2
	.loc 1 101 54
	add	a4,a4,a5
	.loc 1 101 66
	ld	a5,-32(s0)
	srli	a3,a5,2
	lla	a5,.LC9
	ld	a5,0(a5)
	mulhu	a5,a3,a5
	srli	a5,a5,2
	.loc 1 101 62
	sub	a5,a4,a5
	.loc 1 101 76
	ld	a4,-32(s0)
	srli	a3,a4,4
	lla	a4,.LC10
	ld	a4,0(a4)
	mulhu	a4,a3,a4
	.loc 1 101 72
	add	a4,a5,a4
	.loc 1 101 14
	li	a5,-32768
	addi	a5,a5,723
	add	a5,a4,a5
	sd	a5,-48(s0)
	.loc 1 104 13
	ld	a4,-48(s0)
	li	a5,-2441216
	addi	a5,a5,628
	add	a5,a4,a5
	sd	a5,-56(s0)
	.loc 1 106 10
	ld	a5,-56(s0)
	.loc 1 107 1
	mv	a0,a5
	ld	ra,72(sp)
	.cfi_restore 1
	ld	s0,64(sp)
	.cfi_restore 8
	.cfi_def_cfa 2, 80
	addi	sp,sp,80
	.cfi_def_cfa_offset 0
	jr	ra
	.cfi_endproc
.LFE1:
	.size	EfiGetEpochDays, .-EfiGetEpochDays
	.section	.text.EfiTimeToEpoch,"ax",@progbits
	.align	1
	.globl	EfiTimeToEpoch
	.type	EfiTimeToEpoch, @function
EfiTimeToEpoch:
.LFB2:
	.loc 1 122 1
	.cfi_startproc
	addi	sp,sp,-48
	.cfi_def_cfa_offset 48
	sd	ra,40(sp)
	sd	s0,32(sp)
	.cfi_offset 1, -8
	.cfi_offset 8, -16
	addi	s0,sp,48
	.cfi_def_cfa 8, 0
	sd	a0,-40(s0)
	.loc 1 126 15
	ld	a0,-40(s0)
	call	EfiGetEpochDays
	sd	a0,-24(s0)
	.loc 1 128 29
	ld	a4,-24(s0)
	li	a5,86016
	addi	a5,a5,384
	mul	a4,a4,a5
	.loc 1 128 62
	ld	a5,-40(s0)
	lbu	a5,4(a5)
	.loc 1 128 51
	mv	a3,a5
	.loc 1 128 69
	li	a5,4096
	addi	a5,a5,-496
	mul	a5,a3,a5
	.loc 1 128 48
	add	a4,a4,a5
	.loc 1 128 94
	ld	a5,-40(s0)
	lbu	a5,5(a5)
	mv	a3,a5
	.loc 1 128 103
	mv	a5,a3
	slli	a5,a5,4
	sub	a5,a5,a3
	slli	a5,a5,2
	.loc 1 128 87
	add	a5,a4,a5
	.loc 1 128 125
	ld	a4,-40(s0)
	lbu	a4,6(a4)
	.loc 1 128 16
	add	a5,a5,a4
	sd	a5,-32(s0)
	.loc 1 130 10
	ld	a5,-32(s0)
	.loc 1 131 1
	mv	a0,a5
	ld	ra,40(sp)
	.cfi_restore 1
	ld	s0,32(sp)
	.cfi_restore 8
	.cfi_def_cfa 2, 48
	addi	sp,sp,48
	.cfi_def_cfa_offset 0
	jr	ra
	.cfi_endproc
.LFE2:
	.size	EfiTimeToEpoch, .-EfiTimeToEpoch
	.section	.text.EfiTimeToWday,"ax",@progbits
	.align	1
	.globl	EfiTimeToWday
	.type	EfiTimeToWday, @function
EfiTimeToWday:
.LFB3:
	.loc 1 145 1
	.cfi_startproc
	addi	sp,sp,-48
	.cfi_def_cfa_offset 48
	sd	ra,40(sp)
	sd	s0,32(sp)
	.cfi_offset 1, -8
	.cfi_offset 8, -16
	addi	s0,sp,48
	.cfi_def_cfa 8, 0
	sd	a0,-40(s0)
	.loc 1 148 15
	ld	a0,-40(s0)
	call	EfiGetEpochDays
	sd	a0,-24(s0)
	.loc 1 152 21
	ld	a5,-24(s0)
	addi	a4,a5,4
	.loc 1 152 26
	lla	a5,.LC11
	ld	a5,0(a5)
	mulhu	a5,a4,a5
	sub	a3,a4,a5
	srli	a3,a3,1
	add	a5,a5,a3
	srli	a3,a5,2
	mv	a5,a3
	slli	a5,a5,3
	sub	a5,a5,a3
	sub	a3,a4,a5
	.loc 1 152 26 is_stmt 0 discriminator 1
	mv	a5,a3
	.loc 1 153 1 is_stmt 1
	mv	a0,a5
	ld	ra,40(sp)
	.cfi_restore 1
	ld	s0,32(sp)
	.cfi_restore 8
	.cfi_def_cfa 2, 48
	addi	sp,sp,48
	.cfi_def_cfa_offset 0
	jr	ra
	.cfi_endproc
.LFE3:
	.size	EfiTimeToWday, .-EfiTimeToWday
	.section	.text.IsLeapYear,"ax",@progbits
	.align	1
	.globl	IsLeapYear
	.type	IsLeapYear, @function
IsLeapYear:
.LFB4:
	.loc 1 169 1
	.cfi_startproc
	addi	sp,sp,-32
	.cfi_def_cfa_offset 32
	sd	ra,24(sp)
	sd	s0,16(sp)
	.cfi_offset 1, -8
	.cfi_offset 8, -16
	addi	s0,sp,32
	.cfi_def_cfa 8, 0
	sd	a0,-24(s0)
	.loc 1 170 11
	ld	a5,-24(s0)
	lhu	a5,0(a5)
	.loc 1 170 22
	andi	a5,a5,3
	slli	a5,a5,48
	srli	a5,a5,48
	.loc 1 170 6
	bne	a5,zero,.L9
	.loc 1 171 13
	ld	a5,-24(s0)
	lhu	a5,0(a5)
	.loc 1 171 26
	mv	a3,a5
	slli	a4,a3,32
	srli	a4,a4,32
	li	a5,1374388224
	addi	a5,a5,1311
	mul	a5,a4,a5
	srli	a5,a5,32
	srliw	a5,a5,5
	mv	a4,a5
	li	a5,100
	mulw	a5,a4,a5
	subw	a5,a3,a5
	slli	a5,a5,48
	srli	a5,a5,48
	.loc 1 171 8
	bne	a5,zero,.L10
	.loc 1 172 15
	ld	a5,-24(s0)
	lhu	a5,0(a5)
	.loc 1 172 28
	mv	a3,a5
	slli	a4,a3,32
	srli	a4,a4,32
	li	a5,1374388224
	addi	a5,a5,1311
	mul	a5,a4,a5
	srli	a5,a5,32
	srliw	a5,a5,7
	mv	a4,a5
	li	a5,400
	mulw	a5,a4,a5
	subw	a5,a3,a5
	slli	a5,a5,48
	srli	a5,a5,48
	.loc 1 172 10
	bne	a5,zero,.L11
	.loc 1 173 16
	li	a5,1
	j	.L12
.L11:
	.loc 1 175 16
	li	a5,0
	j	.L12
.L10:
	.loc 1 178 14
	li	a5,1
	j	.L12
.L9:
	.loc 1 181 12
	li	a5,0
.L12:
	.loc 1 183 1
	mv	a0,a5
	ld	ra,24(sp)
	.cfi_restore 1
	ld	s0,16(sp)
	.cfi_restore 8
	.cfi_def_cfa 2, 32
	addi	sp,sp,32
	.cfi_def_cfa_offset 0
	jr	ra
	.cfi_endproc
.LFE4:
	.size	IsLeapYear, .-IsLeapYear
	.section	.text.IsDayValid,"ax",@progbits
	.align	1
	.globl	IsDayValid
	.type	IsDayValid, @function
IsDayValid:
.LFB5:
	.loc 1 199 1
	.cfi_startproc
	addi	sp,sp,-32
	.cfi_def_cfa_offset 32
	sd	ra,24(sp)
	sd	s0,16(sp)
	.cfi_offset 1, -8
	.cfi_offset 8, -16
	addi	s0,sp,32
	.cfi_def_cfa 8, 0
	sd	a0,-24(s0)
	.loc 1 202 12
	ld	a5,-24(s0)
	lbu	a5,3(a5)
	.loc 1 202 6
	beq	a5,zero,.L14
	.loc 1 203 12
	ld	a5,-24(s0)
	lbu	a5,3(a5)
	mv	a3,a5
	.loc 1 203 35
	ld	a5,-24(s0)
	lbu	a5,2(a5)
	sext.w	a5,a5
	.loc 1 203 43
	addiw	a5,a5,-1
	sext.w	a5,a5
	.loc 1 203 30
	lla	a4,DayOfMonth.0
	slli	a5,a5,3
	add	a5,a4,a5
	ld	a5,0(a5)
	.loc 1 202 23 discriminator 1
	bgt	a3,a5,.L14
	.loc 1 204 13
	ld	a5,-24(s0)
	lbu	a5,2(a5)
	.loc 1 203 49
	mv	a4,a5
	li	a5,2
	bne	a4,a5,.L15
	.loc 1 204 32
	ld	a0,-24(s0)
	call	IsLeapYear
	mv	a5,a0
	.loc 1 204 27 discriminator 1
	bne	a5,zero,.L15
	.loc 1 204 58 discriminator 2
	ld	a5,-24(s0)
	lbu	a5,3(a5)
	.loc 1 204 50 discriminator 2
	mv	a4,a5
	li	a5,28
	bleu	a4,a5,.L15
.L14:
	.loc 1 207 12
	li	a5,0
	j	.L16
.L15:
	.loc 1 210 10
	li	a5,1
.L16:
	.loc 1 211 1
	mv	a0,a5
	ld	ra,24(sp)
	.cfi_restore 1
	ld	s0,16(sp)
	.cfi_restore 8
	.cfi_def_cfa 2, 32
	addi	sp,sp,32
	.cfi_def_cfa_offset 0
	jr	ra
	.cfi_endproc
.LFE5:
	.size	IsDayValid, .-IsDayValid
	.section	.text.IsValidTimeZone,"ax",@progbits
	.align	1
	.globl	IsValidTimeZone
	.type	IsValidTimeZone, @function
IsValidTimeZone:
.LFB6:
	.loc 1 228 1
	.cfi_startproc
	addi	sp,sp,-32
	.cfi_def_cfa_offset 32
	sd	ra,24(sp)
	sd	s0,16(sp)
	.cfi_offset 1, -8
	.cfi_offset 8, -16
	addi	s0,sp,32
	.cfi_def_cfa 8, 0
	mv	a5,a0
	sh	a5,-18(s0)
	.loc 1 229 29
	lh	a5,-18(s0)
	sext.w	a4,a5
	li	a5,2047
	beq	a4,a5,.L18
	.loc 1 229 29 is_stmt 0 discriminator 2
	lh	a5,-18(s0)
	sext.w	a4,a5
	li	a5,-1440
	blt	a4,a5,.L19
	.loc 1 230 29 is_stmt 1
	lh	a5,-18(s0)
	sext.w	a4,a5
	li	a5,1440
	bgt	a4,a5,.L19
.L18:
	.loc 1 229 29 discriminator 1
	li	a5,1
	.loc 1 229 29 is_stmt 0
	j	.L20
.L19:
	.loc 1 229 29 discriminator 3
	li	a5,0
.L20:
	.loc 1 229 29 discriminator 5
	andi	a5,a5,0xff
	.loc 1 231 1 is_stmt 1
	mv	a0,a5
	ld	ra,24(sp)
	.cfi_restore 1
	ld	s0,16(sp)
	.cfi_restore 8
	.cfi_def_cfa 2, 32
	addi	sp,sp,32
	.cfi_def_cfa_offset 0
	jr	ra
	.cfi_endproc
.LFE6:
	.size	IsValidTimeZone, .-IsValidTimeZone
	.section	.text.IsValidDaylight,"ax",@progbits
	.align	1
	.globl	IsValidDaylight
	.type	IsValidDaylight, @function
IsValidDaylight:
.LFB7:
	.loc 1 252 1
	.cfi_startproc
	addi	sp,sp,-32
	.cfi_def_cfa_offset 32
	sd	ra,24(sp)
	sd	s0,16(sp)
	.cfi_offset 1, -8
	.cfi_offset 8, -16
	addi	s0,sp,32
	.cfi_def_cfa 8, 0
	mv	a5,a0
	sb	a5,-17(s0)
	.loc 1 254 27
	lbu	a5,-17(s0)
	andi	a5,a5,0xff
	beq	a5,zero,.L23
	.loc 1 253 24
	lbu	a5,-17(s0)
	andi	a4,a5,0xff
	li	a5,1
	beq	a4,a5,.L23
	.loc 1 254 27 discriminator 2
	lbu	a5,-17(s0)
	andi	a4,a5,0xff
	li	a5,3
	bne	a4,a5,.L24
.L23:
	.loc 1 254 27 is_stmt 0 discriminator 1
	li	a5,1
	.loc 1 254 27
	j	.L25
.L24:
	.loc 1 254 27 discriminator 3
	li	a5,0
.L25:
	.loc 1 254 27 discriminator 5
	andi	a5,a5,0xff
	.loc 1 256 1 is_stmt 1
	mv	a0,a5
	ld	ra,24(sp)
	.cfi_restore 1
	ld	s0,16(sp)
	.cfi_restore 8
	.cfi_def_cfa 2, 32
	addi	sp,sp,32
	.cfi_def_cfa_offset 0
	jr	ra
	.cfi_endproc
.LFE7:
	.size	IsValidDaylight, .-IsValidDaylight
	.section	.text.IsTimeValid,"ax",@progbits
	.align	1
	.globl	IsTimeValid
	.type	IsTimeValid, @function
IsTimeValid:
.LFB8:
	.loc 1 272 1
	.cfi_startproc
	addi	sp,sp,-32
	.cfi_def_cfa_offset 32
	sd	ra,24(sp)
	sd	s0,16(sp)
	.cfi_offset 1, -8
	.cfi_offset 8, -16
	addi	s0,sp,32
	.cfi_def_cfa 8, 0
	sd	a0,-24(s0)
	.loc 1 274 12
	ld	a5,-24(s0)
	lhu	a5,0(a5)
	.loc 1 274 6
	sext.w	a4,a5
	li	a5,1999
	bleu	a4,a5,.L28
	.loc 1 275 12
	ld	a5,-24(s0)
	lhu	a5,0(a5)
	.loc 1 274 27 discriminator 1
	sext.w	a4,a5
	li	a5,4096
	addi	a5,a5,-1997
	bgtu	a4,a5,.L28
	.loc 1 276 12
	ld	a5,-24(s0)
	lbu	a5,2(a5)
	.loc 1 275 27
	beq	a5,zero,.L28
	.loc 1 277 12
	ld	a5,-24(s0)
	lbu	a5,2(a5)
	.loc 1 276 25
	mv	a4,a5
	li	a5,12
	bgtu	a4,a5,.L28
	.loc 1 278 9
	ld	a0,-24(s0)
	call	IsDayValid
	mv	a5,a0
	.loc 1 277 26
	beq	a5,zero,.L28
	.loc 1 279 12
	ld	a5,-24(s0)
	lbu	a5,4(a5)
	.loc 1 278 28
	mv	a4,a5
	li	a5,23
	bgtu	a4,a5,.L28
	.loc 1 280 12
	ld	a5,-24(s0)
	lbu	a5,5(a5)
	.loc 1 279 25
	mv	a4,a5
	li	a5,59
	bgtu	a4,a5,.L28
	.loc 1 281 12
	ld	a5,-24(s0)
	lbu	a5,6(a5)
	.loc 1 280 27
	mv	a4,a5
	li	a5,59
	bgtu	a4,a5,.L28
	.loc 1 282 12
	ld	a5,-24(s0)
	lw	a4,8(a5)
	.loc 1 281 27
	li	a5,1000001536
	addi	a5,a5,-1537
	bgtu	a4,a5,.L28
	.loc 1 283 9
	ld	a5,-24(s0)
	lh	a5,12(a5)
	mv	a0,a5
	call	IsValidTimeZone
	mv	a5,a0
	.loc 1 282 38
	beq	a5,zero,.L28
	.loc 1 284 30
	ld	a5,-24(s0)
	lbu	a5,14(a5)
	.loc 1 284 9
	slliw	a5,a5,24
	sraiw	a5,a5,24
	mv	a0,a5
	call	IsValidDaylight
	mv	a5,a0
	.loc 1 283 43
	bne	a5,zero,.L29
.L28:
	.loc 1 286 12
	li	a5,0
	j	.L30
.L29:
	.loc 1 289 10
	li	a5,1
.L30:
	.loc 1 290 1
	mv	a0,a5
	ld	ra,24(sp)
	.cfi_restore 1
	ld	s0,16(sp)
	.cfi_restore 8
	.cfi_def_cfa 2, 32
	addi	sp,sp,32
	.cfi_def_cfa_offset 0
	jr	ra
	.cfi_endproc
.LFE8:
	.size	IsTimeValid, .-IsTimeValid
	.section	.rodata.DayOfMonth.0,"a"
	.align	3
	.type	DayOfMonth.0, @object
	.size	DayOfMonth.0, 96
DayOfMonth.0:
	.dword	31
	.dword	29
	.dword	31
	.dword	30
	.dword	31
	.dword	30
	.dword	31
	.dword	31
	.dword	30
	.dword	31
	.dword	30
	.dword	31
	.section	.rodata
	.align	3
.LC0:
	.dword	-4454547087429121353
	.align	3
.LC1:
	.dword	4137408090565272301
	.align	3
.LC2:
	.dword	-1896998432287073591
	.align	3
.LC3:
	.dword	-5517609281458640695
	.align	3
.LC4:
	.dword	7429236654343298871
	.align	3
.LC5:
	.dword	3858142551364089227
	.align	3
.LC6:
	.dword	-3689348814741910323
	.align	3
.LC7:
	.dword	-6148914691236517205
	.align	3
.LC8:
	.dword	-8608480567731124087
	.align	3
.LC9:
	.dword	2951479051793528259
	.align	3
.LC10:
	.dword	737869762948382065
	.align	3
.LC11:
	.dword	2635249153387078803
	.text
.Letext0:
	.file 2 "/home/kapoagaeming/Downloads/spacemit-image-builder/components/edk2/MdePkg/Include/RiscV64/ProcessorBind.h"
	.file 3 "/home/kapoagaeming/Downloads/spacemit-image-builder/components/edk2/MdePkg/Include/Uefi/UefiBaseType.h"
	.section	.note.GNU-stack,"",@progbits
