	.file	"Hdmi.c"
	.option pic
	.option norelax
	.attribute arch, "rv64i2p1_m2p0_a2p1_f2p2_d2p2_c2p0_zicsr2p0_zifencei2p0_zmmul1p0_zaamo1p0_zalrsc1p0_zca1p0_zcd1p0"
	.attribute unaligned_access, 0
	.attribute stack_align, 16
	.text
.Ltext0:
	.cfi_sections	.debug_frame
	.file 0 "/home/kapoagaeming/spacemit-image-builder/components/Build/Milk-V-Jupiter/RELEASE_GCC5/RISCV64/Silicon/Spacemit/K1/Drivers/HdmiGraphicsOutputDxe/HdmiGraphicsOutputDxe" "/home/kapoagaeming/spacemit-image-builder/components/edk2-platforms/Silicon/Spacemit/K1/Drivers/HdmiGraphicsOutputDxe/Hdmi.c"
	.globl	PLL9_BIT0_1
	.section	.rodata.PLL9_BIT0_1,"a"
	.align	3
	.type	PLL9_BIT0_1, @object
	.size	PLL9_BIT0_1, 3
PLL9_BIT0_1:
	.base64	"AAEC"
	.section	.text.HdmiWaitStatus,"ax",@progbits
	.align	1
	.type	HdmiWaitStatus, @function
HdmiWaitStatus:
.LFB0:
	.file 1 "/home/kapoagaeming/spacemit-image-builder/components/edk2-platforms/Silicon/Spacemit/K1/Drivers/HdmiGraphicsOutputDxe/Hdmi.c"
	.loc 1 34 1
	.cfi_startproc
	addi	sp,sp,-64
	.cfi_def_cfa_offset 64
	sd	ra,56(sp)
	sd	s0,48(sp)
	.cfi_offset 1, -8
	.cfi_offset 8, -16
	addi	s0,sp,64
	.cfi_def_cfa 8, 0
	sd	a0,-40(s0)
	mv	a5,a1
	mv	a4,a3
	sw	a5,-44(s0)
	mv	a5,a2
	sw	a5,-48(s0)
	mv	a5,a4
	sw	a5,-52(s0)
	.loc 1 35 10
	lw	a5,-52(s0)
	mv	a4,a5
	li	a5,100
	mulw	a5,a4,a5
	sw	a5,-20(s0)
.L6:
	.loc 1 38 19
	ld	a0,-40(s0)
	call	MmioRead32@plt
	mv	a5,a0
	mv	a3,a5
	.loc 1 38 36 discriminator 1
	lw	a5,-44(s0)
	mv	a4,a5
	mv	a5,a3
	and	a5,a4,a5
	sext.w	a5,a5
	.loc 1 38 8 discriminator 1
	lw	a4,-48(s0)
	sext.w	a4,a4
	beq	a4,a5,.L8
	.loc 1 42 8
	la	a5,gBS
	ld	a5,0(a5)
	ld	a5,248(a5)
	.loc 1 42 5
	li	a0,10
	jalr	a5
.LVL0:
	.loc 1 43 22
	lw	a5,-20(s0)
	addiw	a4,a5,-1
	sw	a4,-20(s0)
	.loc 1 43 8
	bne	a5,zero,.L6
	.loc 1 44 14
	li	a5,-1
	slli	a5,a5,63
	addi	a5,a5,18
	j	.L5
.L8:
	.loc 1 39 7
	nop
	.loc 1 48 10
	li	a5,0
.L5:
	.loc 1 49 1
	mv	a0,a5
	ld	ra,56(sp)
	.cfi_restore 1
	ld	s0,48(sp)
	.cfi_restore 8
	.cfi_def_cfa 2, 64
	addi	sp,sp,64
	.cfi_def_cfa_offset 0
	jr	ra
	.cfi_endproc
.LFE0:
	.size	HdmiWaitStatus, .-HdmiWaitStatus
	.section	.text.HdmiRegRead,"ax",@progbits
	.align	1
	.type	HdmiRegRead, @function
HdmiRegRead:
.LFB1:
	.loc 1 55 1
	.cfi_startproc
	addi	sp,sp,-32
	.cfi_def_cfa_offset 32
	sd	ra,24(sp)
	sd	s0,16(sp)
	.cfi_offset 1, -8
	.cfi_offset 8, -16
	addi	s0,sp,32
	.cfi_def_cfa 8, 0
	mv	a5,a0
	sw	a5,-20(s0)
	.loc 1 56 10
	lwu	a4,-20(s0)
	.loc 1 56 38
	li	a5,769
	slli	a5,a5,22
	addi	a5,a5,1280
	add	a5,a4,a5
	.loc 1 56 10
	mv	a0,a5
	call	MmioRead32@plt
	mv	a5,a0
	.loc 1 57 1
	mv	a0,a5
	ld	ra,24(sp)
	.cfi_restore 1
	ld	s0,16(sp)
	.cfi_restore 8
	.cfi_def_cfa 2, 32
	addi	sp,sp,32
	.cfi_def_cfa_offset 0
	jr	ra
	.cfi_endproc
.LFE1:
	.size	HdmiRegRead, .-HdmiRegRead
	.section	.text.HdmiRegWrite,"ax",@progbits
	.align	1
	.type	HdmiRegWrite, @function
HdmiRegWrite:
.LFB2:
	.loc 1 64 1
	.cfi_startproc
	addi	sp,sp,-32
	.cfi_def_cfa_offset 32
	sd	ra,24(sp)
	sd	s0,16(sp)
	.cfi_offset 1, -8
	.cfi_offset 8, -16
	addi	s0,sp,32
	.cfi_def_cfa 8, 0
	mv	a5,a0
	mv	a4,a1
	sw	a5,-20(s0)
	mv	a5,a4
	sw	a5,-24(s0)
	.loc 1 65 3
	lwu	a4,-20(s0)
	.loc 1 65 32
	li	a5,769
	slli	a5,a5,22
	addi	a5,a5,1280
	add	a5,a4,a5
	.loc 1 65 3
	lw	a4,-24(s0)
	mv	a1,a4
	mv	a0,a5
	call	MmioWrite32@plt
	.loc 1 66 1
	nop
	ld	ra,24(sp)
	.cfi_restore 1
	ld	s0,16(sp)
	.cfi_restore 8
	.cfi_def_cfa 2, 32
	addi	sp,sp,32
	.cfi_def_cfa_offset 0
	jr	ra
	.cfi_endproc
.LFE2:
	.size	HdmiRegWrite, .-HdmiRegWrite
	.section	.text.HdmiGetPlugInStatus,"ax",@progbits
	.align	1
	.type	HdmiGetPlugInStatus, @function
HdmiGetPlugInStatus:
.LFB3:
	.loc 1 72 1
	.cfi_startproc
	addi	sp,sp,-32
	.cfi_def_cfa_offset 32
	sd	ra,24(sp)
	sd	s0,16(sp)
	.cfi_offset 1, -8
	.cfi_offset 8, -16
	addi	s0,sp,32
	.cfi_def_cfa 8, 0
	.loc 1 75 11
	li	a0,12
	call	HdmiRegRead
	mv	a5,a0
	.loc 1 75 9 discriminator 1
	mv	a4,a5
	li	a5,4096
	and	a5,a4,a5
	sw	a5,-20(s0)
	.loc 1 77 10
	lw	a5,-20(s0)
	srliw	a5,a5,12
	andi	a5,a5,1
	andi	a5,a5,0xff
	sext.w	a5,a5
	.loc 1 78 1
	mv	a0,a5
	ld	ra,24(sp)
	.cfi_restore 1
	ld	s0,16(sp)
	.cfi_restore 8
	.cfi_def_cfa 2, 32
	addi	sp,sp,32
	.cfi_def_cfa_offset 0
	jr	ra
	.cfi_endproc
.LFE3:
	.size	HdmiGetPlugInStatus, .-HdmiGetPlugInStatus
	.section	.text.HdmiPhyWaitForHpd,"ax",@progbits
	.align	1
	.type	HdmiPhyWaitForHpd, @function
HdmiPhyWaitForHpd:
.LFB4:
	.loc 1 84 1
	.cfi_startproc
	addi	sp,sp,-48
	.cfi_def_cfa_offset 48
	sd	ra,40(sp)
	sd	s0,32(sp)
	.cfi_offset 1, -8
	.cfi_offset 8, -16
	addi	s0,sp,48
	.cfi_def_cfa 8, 0
	mv	a5,a0
	sw	a5,-36(s0)
	.loc 1 85 10
	lw	a5,-36(s0)
	mv	a4,a5
	mv	a5,a4
	slliw	a5,a5,2
	addw	a5,a5,a4
	slliw	a5,a5,1
	sw	a5,-20(s0)
.L17:
	.loc 1 90 9
	call	HdmiGetPlugInStatus
	mv	a5,a0
	.loc 1 90 8 discriminator 1
	beq	a5,zero,.L15
	.loc 1 92 14
	li	a5,0
	j	.L16
.L15:
	.loc 1 95 8
	la	a5,gBS
	ld	a5,0(a5)
	ld	a5,248(a5)
	.loc 1 95 5
	li	a0,100
	jalr	a5
.LVL1:
	.loc 1 96 24
	lw	a5,-20(s0)
	addiw	a4,a5,-1
	sw	a4,-20(s0)
	.loc 1 96 12
	bne	a5,zero,.L17
	.loc 1 98 10
	li	a5,-1
	slli	a5,a5,63
	addi	a5,a5,18
.L16:
	.loc 1 99 1
	mv	a0,a5
	ld	ra,40(sp)
	.cfi_restore 1
	ld	s0,32(sp)
	.cfi_restore 8
	.cfi_def_cfa 2, 48
	addi	sp,sp,48
	.cfi_def_cfa_offset 0
	jr	ra
	.cfi_endproc
.LFE4:
	.size	HdmiPhyWaitForHpd, .-HdmiPhyWaitForHpd
	.section	.text.PowerOfTwo,"ax",@progbits
	.align	1
	.globl	PowerOfTwo
	.type	PowerOfTwo, @function
PowerOfTwo:
.LFB5:
	.loc 1 105 1
	.cfi_startproc
	addi	sp,sp,-48
	.cfi_def_cfa_offset 48
	sd	ra,40(sp)
	sd	s0,32(sp)
	.cfi_offset 1, -8
	.cfi_offset 8, -16
	addi	s0,sp,48
	.cfi_def_cfa 8, 0
	mv	a5,a0
	sw	a5,-36(s0)
	.loc 1 106 9
	li	a5,1
	sw	a5,-20(s0)
.LBB2:
	.loc 1 108 14
	sw	zero,-24(s0)
	.loc 1 108 3
	j	.L19
.L20:
	.loc 1 109 12
	lw	a5,-20(s0)
	slliw	a5,a5,1
	sw	a5,-20(s0)
	.loc 1 108 29 discriminator 3
	lw	a5,-24(s0)
	addiw	a5,a5,1
	sw	a5,-24(s0)
.L19:
	.loc 1 108 23 discriminator 1
	lw	a5,-24(s0)
	mv	a4,a5
	lw	a5,-36(s0)
	sext.w	a4,a4
	sext.w	a5,a5
	blt	a4,a5,.L20
.LBE2:
	.loc 1 112 10
	lw	a5,-20(s0)
	.loc 1 113 1
	mv	a0,a5
	ld	ra,40(sp)
	.cfi_restore 1
	ld	s0,32(sp)
	.cfi_restore 8
	.cfi_def_cfa 2, 48
	addi	sp,sp,48
	.cfi_def_cfa_offset 0
	jr	ra
	.cfi_endproc
.LFE5:
	.size	PowerOfTwo, .-PowerOfTwo
	.section	.text.Pll8Bit5_6,"ax",@progbits
	.align	1
	.globl	Pll8Bit5_6
	.type	Pll8Bit5_6, @function
Pll8Bit5_6:
.LFB6:
	.loc 1 120 1
	.cfi_startproc
	addi	sp,sp,-48
	.cfi_def_cfa_offset 48
	sd	ra,40(sp)
	sd	s0,32(sp)
	.cfi_offset 1, -8
	.cfi_offset 8, -16
	addi	s0,sp,48
	.cfi_def_cfa 8, 0
	mv	a5,a0
	mv	a4,a1
	sw	a5,-36(s0)
	mv	a5,a4
	sw	a5,-40(s0)
	.loc 1 121 9
	sw	zero,-20(s0)
	.loc 1 123 12
	lw	a5,-36(s0)
	mv	a4,a5
	lw	a5,-40(s0)
	divw	a5,a4,a5
	sw	a5,-36(s0)
	.loc 1 125 6
	lw	a5,-36(s0)
	sext.w	a4,a5
	li	a5,424
	bgt	a4,a5,.L23
	.loc 1 126 9
	li	a5,3
	sw	a5,-20(s0)
	j	.L24
.L23:
	.loc 1 127 13
	lw	a5,-36(s0)
	sext.w	a4,a5
	li	a5,849
	bgt	a4,a5,.L25
	.loc 1 128 9
	li	a5,2
	sw	a5,-20(s0)
	j	.L24
.L25:
	.loc 1 129 13
	lw	a5,-36(s0)
	sext.w	a4,a5
	li	a5,1699
	bgt	a4,a5,.L26
	.loc 1 130 9
	li	a5,1
	sw	a5,-20(s0)
	j	.L24
.L26:
	.loc 1 132 9
	sw	zero,-20(s0)
.L24:
	.loc 1 135 10
	lw	a5,-20(s0)
	.loc 1 136 1
	mv	a0,a5
	ld	ra,40(sp)
	.cfi_restore 1
	ld	s0,32(sp)
	.cfi_restore 8
	.cfi_def_cfa 2, 48
	addi	sp,sp,48
	.cfi_def_cfa_offset 0
	jr	ra
	.cfi_endproc
.LFE6:
	.size	Pll8Bit5_6, .-Pll8Bit5_6
	.section	.text.Pll6Bit4_5,"ax",@progbits
	.align	1
	.globl	Pll6Bit4_5
	.type	Pll6Bit4_5, @function
Pll6Bit4_5:
.LFB7:
	.loc 1 143 1
	.cfi_startproc
	addi	sp,sp,-48
	.cfi_def_cfa_offset 48
	sd	ra,40(sp)
	sd	s0,32(sp)
	.cfi_offset 1, -8
	.cfi_offset 8, -16
	addi	s0,sp,48
	.cfi_def_cfa 8, 0
	mv	a5,a0
	mv	a4,a1
	sw	a5,-36(s0)
	mv	a5,a4
	sw	a5,-40(s0)
	.loc 1 144 9
	sw	zero,-20(s0)
	.loc 1 146 12
	lw	a5,-36(s0)
	mv	a4,a5
	lw	a5,-40(s0)
	divw	a5,a4,a5
	sw	a5,-36(s0)
	.loc 1 148 6
	lw	a5,-36(s0)
	sext.w	a4,a5
	li	a5,337
	bgt	a4,a5,.L29
	.loc 1 149 9
	sw	zero,-20(s0)
	j	.L30
.L29:
	.loc 1 150 13
	lw	a5,-36(s0)
	sext.w	a4,a5
	li	a5,424
	bgt	a4,a5,.L31
	.loc 1 151 9
	li	a5,1
	sw	a5,-20(s0)
	j	.L30
.L31:
	.loc 1 152 13
	lw	a5,-36(s0)
	sext.w	a4,a5
	li	a5,674
	bgt	a4,a5,.L32
	.loc 1 153 9
	sw	zero,-20(s0)
	j	.L30
.L32:
	.loc 1 154 13
	lw	a5,-36(s0)
	sext.w	a4,a5
	li	a5,849
	bgt	a4,a5,.L33
	.loc 1 155 9
	li	a5,1
	sw	a5,-20(s0)
	j	.L30
.L33:
	.loc 1 156 13
	lw	a5,-36(s0)
	sext.w	a4,a5
	li	a5,1349
	bgt	a4,a5,.L34
	.loc 1 157 9
	sw	zero,-20(s0)
	j	.L30
.L34:
	.loc 1 158 13
	lw	a5,-36(s0)
	sext.w	a4,a5
	li	a5,1699
	bgt	a4,a5,.L35
	.loc 1 159 9
	li	a5,1
	sw	a5,-20(s0)
	j	.L30
.L35:
	.loc 1 161 9
	sw	zero,-20(s0)
.L30:
	.loc 1 164 10
	lw	a5,-20(s0)
	.loc 1 165 1
	mv	a0,a5
	ld	ra,40(sp)
	.cfi_restore 1
	ld	s0,32(sp)
	.cfi_restore 8
	.cfi_def_cfa 2, 48
	addi	sp,sp,48
	.cfi_def_cfa_offset 0
	jr	ra
	.cfi_endproc
.LFE7:
	.size	Pll6Bit4_5, .-Pll6Bit4_5
	.section	.text.Pll5Bit0_2,"ax",@progbits
	.align	1
	.globl	Pll5Bit0_2
	.type	Pll5Bit0_2, @function
Pll5Bit0_2:
.LFB8:
	.loc 1 172 1
	.cfi_startproc
	addi	sp,sp,-48
	.cfi_def_cfa_offset 48
	sd	ra,40(sp)
	sd	s0,32(sp)
	.cfi_offset 1, -8
	.cfi_offset 8, -16
	addi	s0,sp,48
	.cfi_def_cfa 8, 0
	mv	a5,a0
	mv	a4,a1
	sw	a5,-36(s0)
	mv	a5,a4
	sw	a5,-40(s0)
	.loc 1 173 28
	lw	a4,-40(s0)
	lw	a5,-36(s0)
	mv	a1,a4
	mv	a0,a5
	call	Pll8Bit5_6
	mv	a5,a0
	.loc 1 173 28 is_stmt 0 discriminator 1
	mv	a0,a5
	call	PowerOfTwo
	mv	a5,a0
	.loc 1 173 26 is_stmt 1 discriminator 2
	lw	a4,-36(s0)
	mulw	a5,a4,a5
	sext.w	a5,a5
	.loc 1 173 9 discriminator 2
	lw	a4,-40(s0)
	divw	a5,a5,a4
	sw	a5,-24(s0)
	.loc 1 176 6
	lw	a5,-24(s0)
	sext.w	a4,a5
	li	a5,1829
	bgt	a4,a5,.L38
	.loc 1 177 9
	sw	zero,-20(s0)
	j	.L39
.L38:
	.loc 1 178 13
	lw	a5,-24(s0)
	sext.w	a4,a5
	li	a5,2029
	bgt	a4,a5,.L40
	.loc 1 179 9
	li	a5,1
	sw	a5,-20(s0)
	j	.L39
.L40:
	.loc 1 180 13
	lw	a5,-24(s0)
	sext.w	a4,a5
	li	a5,4096
	addi	a5,a5,-1822
	bgt	a4,a5,.L41
	.loc 1 181 9
	li	a5,2
	sw	a5,-20(s0)
	j	.L39
.L41:
	.loc 1 182 13
	lw	a5,-24(s0)
	sext.w	a4,a5
	li	a5,4096
	addi	a5,a5,-1577
	bgt	a4,a5,.L42
	.loc 1 183 9
	li	a5,3
	sw	a5,-20(s0)
	j	.L39
.L42:
	.loc 1 184 13
	lw	a5,-24(s0)
	sext.w	a4,a5
	li	a5,4096
	addi	a5,a5,-1332
	bgt	a4,a5,.L43
	.loc 1 185 9
	li	a5,4
	sw	a5,-20(s0)
	j	.L39
.L43:
	.loc 1 186 13
	lw	a5,-24(s0)
	sext.w	a4,a5
	li	a5,4096
	addi	a5,a5,-1082
	bgt	a4,a5,.L44
	.loc 1 187 9
	li	a5,5
	sw	a5,-20(s0)
	j	.L39
.L44:
	.loc 1 188 13
	lw	a5,-24(s0)
	sext.w	a4,a5
	li	a5,4096
	addi	a5,a5,-837
	bgt	a4,a5,.L45
	.loc 1 189 9
	li	a5,6
	sw	a5,-20(s0)
	j	.L39
.L45:
	.loc 1 191 9
	li	a5,7
	sw	a5,-20(s0)
.L39:
	.loc 1 194 10
	lw	a5,-20(s0)
	.loc 1 195 1
	mv	a0,a5
	ld	ra,40(sp)
	.cfi_restore 1
	ld	s0,32(sp)
	.cfi_restore 8
	.cfi_def_cfa 2, 48
	addi	sp,sp,48
	.cfi_def_cfa_offset 0
	jr	ra
	.cfi_endproc
.LFE8:
	.size	Pll5Bit0_2, .-Pll5Bit0_2
	.section	.text.HdmiPllRegCal,"ax",@progbits
	.align	1
	.globl	HdmiPllRegCal
	.type	HdmiPllRegCal, @function
HdmiPllRegCal:
.LFB9:
	.loc 1 205 1
	.cfi_startproc
	addi	sp,sp,-128
	.cfi_def_cfa_offset 128
	sd	ra,120(sp)
	sd	s0,112(sp)
	sd	s1,104(sp)
	.cfi_offset 1, -8
	.cfi_offset 8, -16
	.cfi_offset 9, -24
	addi	s0,sp,128
	.cfi_def_cfa 8, 0
	mv	a5,a0
	sd	a3,-120(s0)
	sd	a4,-128(s0)
	sw	a5,-100(s0)
	mv	a5,a1
	sw	a5,-104(s0)
	mv	a5,a2
	sw	a5,-108(s0)
	.loc 1 206 10
	li	a5,1000001536
	addi	a5,a5,-1536
	sd	a5,-64(s0)
	.loc 1 207 19
	lw	a4,-108(s0)
	lw	a5,-100(s0)
	mv	a1,a4
	mv	a0,a5
	call	Pll8Bit5_6
	mv	a5,a0
	.loc 1 207 19 is_stmt 0 discriminator 1
	mv	a0,a5
	call	PowerOfTwo
	mv	a5,a0
	.loc 1 207 58 is_stmt 1 discriminator 2
	lw	a4,-100(s0)
	mulw	a5,a4,a5
	sext.w	a5,a5
	mv	a4,a5
	.loc 1 207 69 discriminator 2
	ld	a5,-64(s0)
	mul	s1,a4,a5
	.loc 1 207 87 discriminator 2
	lw	a4,-108(s0)
	lw	a5,-100(s0)
	mv	a1,a4
	mv	a0,a5
	call	Pll6Bit4_5
	mv	a5,a0
	.loc 1 207 112 discriminator 3
	addiw	a5,a5,1
	sext.w	a5,a5
	.loc 1 207 84 discriminator 3
	lw	a4,-108(s0)
	mulw	a5,a4,a5
	sext.w	a5,a5
	.loc 1 207 117 discriminator 3
	lw	a4,-104(s0)
	mulw	a5,a4,a5
	sext.w	a5,a5
	.loc 1 207 10 discriminator 3
	divu	a5,s1,a5
	sd	a5,-72(s0)
	.loc 1 208 21
	lw	a4,-108(s0)
	lw	a5,-100(s0)
	mv	a1,a4
	mv	a0,a5
	call	Pll8Bit5_6
	mv	a5,a0
	.loc 1 208 21 is_stmt 0 discriminator 1
	mv	a0,a5
	call	PowerOfTwo
	mv	a5,a0
	.loc 1 208 60 is_stmt 1 discriminator 2
	lw	a4,-100(s0)
	mulw	a5,a4,a5
	sext.w	s1,a5
	.loc 1 208 79 discriminator 2
	lw	a4,-108(s0)
	lw	a5,-100(s0)
	mv	a1,a4
	mv	a0,a5
	call	Pll6Bit4_5
	mv	a5,a0
	.loc 1 208 104 discriminator 3
	addiw	a5,a5,1
	sext.w	a5,a5
	.loc 1 208 76 discriminator 3
	lw	a4,-108(s0)
	mulw	a5,a4,a5
	sext.w	a5,a5
	.loc 1 208 109 discriminator 3
	lw	a4,-104(s0)
	mulw	a5,a4,a5
	sext.w	a5,a5
	.loc 1 208 71 discriminator 3
	divw	a5,s1,a5
	sext.w	a5,a5
	mv	a4,a5
	.loc 1 208 10 discriminator 3
	ld	a5,-64(s0)
	mul	a5,a5,a4
	sd	a5,-80(s0)
	.loc 1 209 10
	ld	a4,-72(s0)
	ld	a5,-80(s0)
	sub	a5,a4,a5
	sd	a5,-40(s0)
	.loc 1 210 11
	sb	zero,-81(s0)
	.loc 1 211 9
	sw	zero,-44(s0)
	.loc 1 212 9
	sw	zero,-48(s0)
	.loc 1 213 9
	sw	zero,-52(s0)
	.loc 1 214 9
	sw	zero,-88(s0)
	.loc 1 215 9
	sw	zero,-92(s0)
	.loc 1 218 55
	ld	a4,-40(s0)
	li	a5,499998720
	addi	a5,a5,1281
	sltu	a5,a4,a5
	seqz	a5,a5
	andi	a5,a5,0xff
	.loc 1 218 12
	sb	a5,-81(s0)
	.loc 1 219 47
	lbu	a5,-81(s0)
	andi	a5,a5,0xff
	beq	a5,zero,.L49
	.loc 1 219 12 discriminator 1
	li	a5,1000001536
	addi	a4,a5,-1536
	ld	a5,-40(s0)
	sub	a5,a4,a5
	sd	a5,-40(s0)
.L49:
	.loc 1 220 16
	lbu	a5,-81(s0)
	andi	a5,a5,0xff
	beq	a5,zero,.L50
	.loc 1 220 37 discriminator 1
	ld	a4,-80(s0)
	ld	a5,-64(s0)
	divu	a5,a4,a5
	.loc 1 220 47 discriminator 1
	sext.w	a5,a5
	addiw	a5,a5,1
	sext.w	a5,a5
	j	.L51
.L50:
	.loc 1 220 61 discriminator 2
	ld	a4,-80(s0)
	ld	a5,-64(s0)
	divu	a5,a4,a5
	.loc 1 220 16 discriminator 2
	sext.w	a5,a5
.L51:
	.loc 1 220 16 is_stmt 0 discriminator 4
	ld	a4,-120(s0)
	sw	a5,0(a4)
	.loc 1 222 10 is_stmt 1
	sw	zero,-56(s0)
	.loc 1 222 3
	j	.L52
.L54:
	.loc 1 223 13
	lw	a5,-44(s0)
	.loc 1 223 8
	ld	a4,-64(s0)
	bgtu	a4,a5,.L53
	.loc 1 224 29
	li	a5,19
	lw	a4,-56(s0)
	subw	a5,a5,a4
	sext.w	a5,a5
	.loc 1 224 22
	li	a4,1
	sllw	a5,a4,a5
	sext.w	a5,a5
	.loc 1 224 17
	lw	a4,-48(s0)
	or	a5,a5,a4
	sw	a5,-48(s0)
	.loc 1 225 16
	ld	a4,-40(s0)
	ld	a5,-64(s0)
	sub	a5,a4,a5
	sd	a5,-40(s0)
.L53:
	.loc 1 228 14
	ld	a5,-40(s0)
	slli	a5,a5,1
	sd	a5,-40(s0)
	.loc 1 229 9
	ld	a5,-40(s0)
	sw	a5,-44(s0)
	.loc 1 222 24 discriminator 2
	lw	a5,-56(s0)
	addiw	a5,a5,1
	sw	a5,-56(s0)
.L52:
	.loc 1 222 17 discriminator 1
	lw	a5,-56(s0)
	sext.w	a4,a5
	li	a5,19
	ble	a4,a5,.L54
	.loc 1 232 6
	lbu	a5,-81(s0)
	andi	a5,a5,0xff
	bne	a5,zero,.L55
	.loc 1 233 38
	lw	a5,-48(s0)
	sraiw	a5,a5,16
	sext.w	a5,a5
	andi	a5,a5,15
	sext.w	a5,a5
	.loc 1 233 13
	ori	a5,a5,32
	sw	a5,-52(s0)
	j	.L56
.L55:
	.loc 1 235 29
	lw	a5,-48(s0)
	negw	a5,a5
	sext.w	a4,a5
	.loc 1 235 15
	li	a5,1048576
	addi	a5,a5,-1
	and	a5,a4,a5
	sw	a5,-48(s0)
	.loc 1 236 45
	lw	a5,-48(s0)
	sraiw	a5,a5,16
	sext.w	a5,a5
	andi	a5,a5,15
	sext.w	a5,a5
	.loc 1 236 13
	ori	a5,a5,48
	sw	a5,-52(s0)
.L56:
	.loc 1 239 34
	lw	a5,-48(s0)
	sraiw	a5,a5,8
	sext.w	a5,a5
	.loc 1 239 11
	andi	a5,a5,255
	sw	a5,-88(s0)
	.loc 1 240 11
	lw	a5,-48(s0)
	andi	a5,a5,255
	sw	a5,-92(s0)
	.loc 1 241 40
	lw	a5,-52(s0)
	slliw	a5,a5,16
	sext.w	a4,a5
	.loc 1 241 29
	li	a5,536870912
	or	a5,a4,a5
	sext.w	a4,a5
	.loc 1 241 58
	lw	a5,-88(s0)
	slliw	a5,a5,8
	sext.w	a5,a5
	.loc 1 241 47
	or	a5,a4,a5
	sext.w	a5,a5
	.loc 1 241 64
	lw	a4,-92(s0)
	or	a5,a5,a4
	sext.w	a5,a5
	mv	a4,a5
	.loc 1 241 14
	ld	a5,-128(s0)
	sw	a4,0(a5)
	.loc 1 242 1
	nop
	ld	ra,120(sp)
	.cfi_restore 1
	ld	s0,112(sp)
	.cfi_restore 8
	.cfi_def_cfa 2, 128
	ld	s1,104(sp)
	.cfi_restore 9
	addi	sp,sp,128
	.cfi_def_cfa_offset 0
	jr	ra
	.cfi_endproc
.LFE9:
	.size	HdmiPllRegCal, .-HdmiPllRegCal
	.section	.text.HdmiPllSet,"ax",@progbits
	.align	1
	.type	HdmiPllSet, @function
HdmiPllSet:
.LFB10:
	.loc 1 249 1
	.cfi_startproc
	addi	sp,sp,-96
	.cfi_def_cfa_offset 96
	sd	ra,88(sp)
	sd	s0,80(sp)
	.cfi_offset 1, -8
	.cfi_offset 8, -16
	addi	s0,sp,96
	.cfi_def_cfa 8, 0
	mv	a5,a0
	mv	a4,a1
	sw	a5,-84(s0)
	mv	a5,a4
	sw	a5,-88(s0)
	.loc 1 250 9
	sw	zero,-24(s0)
	.loc 1 250 23
	sw	zero,-28(s0)
	.loc 1 250 37
	sw	zero,-32(s0)
	.loc 1 250 51
	sw	zero,-36(s0)
	.loc 1 250 65
	sw	zero,-40(s0)
	.loc 1 250 79
	sw	zero,-44(s0)
	.loc 1 251 9
	li	a5,100
	sw	a5,-48(s0)
	.loc 1 252 9
	li	a5,24
	sw	a5,-52(s0)
	.loc 1 253 9
	sw	zero,-56(s0)
	.loc 1 254 9
	sw	zero,-60(s0)
	.loc 1 255 10
	sw	zero,-64(s0)
	.loc 1 257 55
	lw	a5,-88(s0)
	sext.w	a5,a5
	beq	a5,zero,.L58
	.loc 1 257 68 discriminator 1
	lw	a5,-84(s0)
	mv	a4,a5
	slliw	a4,a4,5
	subw	a4,a4,a5
	slliw	a4,a4,2
	addw	a5,a4,a5
	sext.w	a5,a5
	.loc 1 257 9 discriminator 1
	mv	a3,a5
	sext.w	a4,a3
	li	a5,1374388224
	addi	a5,a5,1311
	mul	a5,a4,a5
	srli	a5,a5,32
	sraiw	a5,a5,5
	mv	a4,a5
	sraiw	a5,a3,31
	subw	a5,a4,a5
	sw	a5,-20(s0)
	j	.L59
.L58:
	.loc 1 257 9 is_stmt 0 discriminator 2
	lw	a5,-84(s0)
	sw	a5,-20(s0)
.L59:
	.loc 1 259 9 is_stmt 1
	sw	zero,-68(s0)
	.loc 1 261 3
	addi	a4,s0,-64
	addi	a3,s0,-68
	lw	a2,-48(s0)
	lw	a1,-52(s0)
	lw	a5,-20(s0)
	mv	a0,a5
	call	HdmiPllRegCal
	.loc 1 263 34
	lla	a4,PLL9_BIT0_1
	lw	a5,-88(s0)
	add	a5,a4,a5
	lbu	a5,0(a5)
	.loc 1 263 21
	ori	a5,a5,8
	andi	a5,a5,0xff
	.loc 1 263 12
	sw	a5,-24(s0)
	.loc 1 264 26
	lw	a4,-48(s0)
	lw	a5,-20(s0)
	mv	a1,a4
	mv	a0,a5
	call	Pll8Bit5_6
	mv	a5,a0
	.loc 1 264 23 discriminator 1
	slliw	a5,a5,5
	sext.w	a5,a5
	.loc 1 264 12 discriminator 1
	ori	a5,a5,1
	sw	a5,-28(s0)
	.loc 1 265 12
	li	a5,80
	sw	a5,-32(s0)
	.loc 1 266 21
	lw	a4,-48(s0)
	lw	a5,-20(s0)
	mv	a1,a4
	mv	a0,a5
	call	Pll6Bit4_5
	mv	a5,a0
	.loc 1 266 52 discriminator 1
	slliw	a5,a5,4
	sext.w	a5,a5
	.loc 1 266 12 discriminator 1
	ori	a5,a5,141
	sw	a5,-36(s0)
	.loc 1 267 21
	lw	a4,-48(s0)
	lw	a5,-20(s0)
	mv	a1,a4
	mv	a0,a5
	call	Pll5Bit0_2
	mv	a5,a0
	.loc 1 267 12 discriminator 1
	ori	a5,a5,64
	sw	a5,-40(s0)
	.loc 1 271 12
	lw	a5,-68(s0)
	sw	a5,-44(s0)
	.loc 1 273 27
	lw	a5,-32(s0)
	slliw	a5,a5,24
	sext.w	a4,a5
	.loc 1 273 46
	lw	a5,-36(s0)
	slliw	a5,a5,16
	sext.w	a5,a5
	.loc 1 273 34
	or	a5,a4,a5
	sext.w	a4,a5
	.loc 1 273 65
	lw	a5,-40(s0)
	slliw	a5,a5,8
	sext.w	a5,a5
	.loc 1 273 53
	or	a5,a4,a5
	sext.w	a5,a5
	.loc 1 273 15
	lw	a4,-44(s0)
	or	a5,a5,a4
	sw	a5,-56(s0)
	.loc 1 274 27
	lw	a5,-24(s0)
	slliw	a5,a5,8
	sext.w	a5,a5
	.loc 1 274 15
	lw	a4,-28(s0)
	or	a5,a5,a4
	sw	a5,-60(s0)
	.loc 1 276 3
	lw	a5,-64(s0)
	mv	a1,a5
	li	a0,232
	call	HdmiRegWrite
	.loc 1 277 3
	lw	a5,-56(s0)
	mv	a1,a5
	li	a0,236
	call	HdmiRegWrite
	.loc 1 278 3
	lw	a5,-60(s0)
	mv	a1,a5
	li	a0,240
	call	HdmiRegWrite
	.loc 1 279 1
	nop
	ld	ra,88(sp)
	.cfi_restore 1
	ld	s0,80(sp)
	.cfi_restore 8
	.cfi_def_cfa 2, 96
	addi	sp,sp,96
	.cfi_def_cfa_offset 0
	jr	ra
	.cfi_endproc
.LFE10:
	.size	HdmiPllSet, .-HdmiPllSet
	.section	.text.HdmiWriteBits,"ax",@progbits
	.align	1
	.type	HdmiWriteBits, @function
HdmiWriteBits:
.LFB11:
	.loc 1 288 1
	.cfi_startproc
	addi	sp,sp,-48
	.cfi_def_cfa_offset 48
	sd	ra,40(sp)
	sd	s0,32(sp)
	.cfi_offset 1, -8
	.cfi_offset 8, -16
	addi	s0,sp,48
	.cfi_def_cfa 8, 0
	mv	a5,a0
	mv	a4,a3
	sw	a5,-36(s0)
	mv	a5,a1
	sw	a5,-40(s0)
	mv	a5,a2
	sw	a5,-44(s0)
	mv	a5,a4
	sw	a5,-48(s0)
	.loc 1 291 12
	lw	a5,-36(s0)
	mv	a0,a5
	call	HdmiRegRead
	mv	a5,a0
	sw	a5,-20(s0)
	.loc 1 292 20
	lw	a5,-48(s0)
	lw	a4,-44(s0)
	sllw	a5,a4,a5
	sext.w	a5,a5
	.loc 1 292 13
	not	a5,a5
	sext.w	a5,a5
	.loc 1 292 10
	lw	a4,-20(s0)
	and	a5,a4,a5
	sw	a5,-20(s0)
	.loc 1 293 20
	lw	a5,-48(s0)
	lw	a4,-40(s0)
	sllw	a5,a4,a5
	sext.w	a5,a5
	.loc 1 293 10
	lw	a4,-20(s0)
	or	a5,a4,a5
	sw	a5,-20(s0)
	.loc 1 294 3
	lw	a4,-20(s0)
	lw	a5,-36(s0)
	mv	a1,a4
	mv	a0,a5
	call	HdmiRegWrite
	.loc 1 295 1
	nop
	ld	ra,40(sp)
	.cfi_restore 1
	ld	s0,32(sp)
	.cfi_restore 8
	.cfi_def_cfa 2, 48
	addi	sp,sp,48
	.cfi_def_cfa_offset 0
	jr	ra
	.cfi_endproc
.LFE11:
	.size	HdmiWriteBits, .-HdmiWriteBits
	.section	.text.HdmiPhyInit,"ax",@progbits
	.align	1
	.type	HdmiPhyInit, @function
HdmiPhyInit:
.LFB12:
	.loc 1 301 1
	.cfi_startproc
	addi	sp,sp,-48
	.cfi_def_cfa_offset 48
	sd	ra,40(sp)
	sd	s0,32(sp)
	.cfi_offset 1, -8
	.cfi_offset 8, -16
	addi	s0,sp,48
	.cfi_def_cfa 8, 0
	.loc 1 302 10
	sw	zero,-24(s0)
	.loc 1 303 10
	li	a5,147456
	addi	a5,a5,1044
	sw	a5,-28(s0)
	.loc 1 304 10
	sw	zero,-32(s0)
	.loc 1 305 10
	li	a5,1
	sw	a5,-36(s0)
	.loc 1 306 10
	li	a5,7
	sw	a5,-40(s0)
	.loc 1 308 9
	sw	zero,-44(s0)
	.loc 1 309 48
	lw	a5,-44(s0)
	sext.w	a5,a5
	bne	a5,zero,.L62
	.loc 1 309 9 discriminator 1
	li	a5,4
	sw	a5,-20(s0)
	j	.L63
.L62:
	.loc 1 309 9 is_stmt 0 discriminator 2
	li	a5,5
	sw	a5,-20(s0)
.L63:
	.loc 1 312 3 is_stmt 1
	li	a1,538968064
	li	a0,232
	call	HdmiRegWrite
	.loc 1 313 3
	li	a5,1351434240
	addi	a1,a5,602
	li	a0,236
	call	HdmiRegWrite
	.loc 1 314 3
	li	a5,4096
	addi	a1,a5,-1951
	li	a0,240
	call	HdmiRegWrite
	.loc 1 316 3
	li	a5,-1369686016
	addi	a1,a5,271
	li	a0,224
	call	HdmiRegWrite
	.loc 1 317 3
	lw	a5,-36(s0)
	li	a3,29
	li	a2,3
	mv	a1,a5
	li	a0,224
	call	HdmiWriteBits
	.loc 1 318 3
	lw	a5,-40(s0)
	li	a3,18
	li	a2,15
	mv	a1,a5
	li	a0,224
	call	HdmiWriteBits
	.loc 1 319 3
	lw	a5,-32(s0)
	li	a3,14
	li	a2,3
	mv	a1,a5
	li	a0,224
	call	HdmiWriteBits
	.loc 1 321 36
	lw	a5,-20(s0)
	slliw	a5,a5,4
	sext.w	a5,a5
	.loc 1 321 22
	ori	a5,a5,13
	sext.w	a5,a5
	.loc 1 321 9
	sw	a5,-24(s0)
	.loc 1 322 3
	lw	a5,-24(s0)
	mv	a1,a5
	li	a0,52
	call	HdmiRegWrite
	.loc 1 324 3
	lw	a5,-28(s0)
	lw	a4,-44(s0)
	mv	a1,a4
	mv	a0,a5
	call	HdmiPllSet
	.loc 1 325 3
	li	a1,0
	li	a0,228
	call	HdmiRegWrite
	.loc 1 326 3
	li	a1,3
	li	a0,228
	call	HdmiRegWrite
	.loc 1 327 11
	li	a0,228
	call	HdmiRegRead
	mv	a5,a0
	sw	a5,-24(s0)
	.loc 1 333 6
	la	a5,gBS
	ld	a5,0(a5)
	ld	a5,248(a5)
	.loc 1 333 3
	li	a0,100
	jalr	a5
.LVL2:
	.loc 1 335 22
	lw	a5,-44(s0)
	mv	a4,a5
	li	a5,471891968
	or	a5,a4,a5
	sext.w	a5,a5
	.loc 1 335 9
	sw	a5,-24(s0)
	.loc 1 336 3
	lw	a5,-24(s0)
	mv	a1,a5
	li	a0,40
	call	HdmiRegWrite
	.loc 1 337 1
	nop
	ld	ra,40(sp)
	.cfi_restore 1
	ld	s0,32(sp)
	.cfi_restore 8
	.cfi_def_cfa 2, 48
	addi	sp,sp,48
	.cfi_def_cfa_offset 0
	jr	ra
	.cfi_endproc
.LFE12:
	.size	HdmiPhyInit, .-HdmiPhyInit
	.section	.text.HdmiClockInit,"ax",@progbits
	.align	1
	.type	HdmiClockInit, @function
HdmiClockInit:
.LFB13:
	.loc 1 343 1
	.cfi_startproc
	addi	sp,sp,-32
	.cfi_def_cfa_offset 32
	sd	ra,24(sp)
	sd	s0,16(sp)
	.cfi_offset 1, -8
	.cfi_offset 8, -16
	addi	s0,sp,32
	.cfi_def_cfa 8, 0
	.loc 1 348 9
	li	a5,444923904
	addi	a5,a5,1335
	slli	a0,a5,3
	call	MmioRead32@plt
	mv	a5,a0
	sw	a5,-20(s0)
	.loc 1 349 7
	lw	a5,-20(s0)
	ori	a5,a5,512
	sw	a5,-20(s0)
	.loc 1 350 3
	lw	a5,-20(s0)
	mv	a1,a5
	li	a5,444923904
	addi	a5,a5,1335
	slli	a0,a5,3
	call	MmioWrite32@plt
	.loc 1 351 6
	la	a5,gBS
	ld	a5,0(a5)
	ld	a5,248(a5)
	.loc 1 351 3
	li	a0,100
	jalr	a5
.LVL3:
	.loc 1 354 9
	li	a5,444923904
	addi	a5,a5,1335
	slli	a0,a5,3
	call	MmioRead32@plt
	mv	a5,a0
	sw	a5,-20(s0)
	.loc 1 355 7
	lw	a5,-20(s0)
	ori	a5,a5,1
	sw	a5,-20(s0)
	.loc 1 356 3
	lw	a5,-20(s0)
	mv	a1,a5
	li	a5,444923904
	addi	a5,a5,1335
	slli	a0,a5,3
	call	MmioWrite32@plt
	.loc 1 357 6
	la	a5,gBS
	ld	a5,0(a5)
	ld	a5,248(a5)
	.loc 1 357 3
	li	a0,100
	jalr	a5
.LVL4:
	.loc 1 361 9
	li	a5,222334976
	slli	a5,a5,4
	addi	a0,a5,260
	call	MmioRead32@plt
	mv	a5,a0
	sw	a5,-20(s0)
	.loc 1 362 7
	lw	a5,-20(s0)
	ori	a5,a5,16
	sw	a5,-20(s0)
	.loc 1 363 3
	lw	a5,-20(s0)
	mv	a1,a5
	li	a5,222334976
	slli	a5,a5,4
	addi	a0,a5,260
	call	MmioWrite32@plt
	.loc 1 364 6
	la	a5,gBS
	ld	a5,0(a5)
	ld	a5,248(a5)
	.loc 1 364 3
	li	a0,100
	jalr	a5
.LVL5:
	.loc 1 366 9
	li	a5,444923904
	addi	a5,a5,1335
	slli	a0,a5,3
	call	MmioRead32@plt
	mv	a5,a0
	sw	a5,-20(s0)
	.loc 1 367 7
	lw	a5,-20(s0)
	andi	a5,a5,-255
	sw	a5,-20(s0)
	.loc 1 368 7
	lw	a5,-20(s0)
	ori	a5,a5,32
	sw	a5,-20(s0)
	.loc 1 369 3
	lw	a5,-20(s0)
	mv	a1,a5
	li	a5,444923904
	addi	a5,a5,1335
	slli	a0,a5,3
	call	MmioWrite32@plt
	.loc 1 370 7
	lw	a5,-20(s0)
	mv	a4,a5
	li	a5,536870912
	or	a5,a4,a5
	sw	a5,-20(s0)
	.loc 1 371 3
	lw	a5,-20(s0)
	mv	a1,a5
	li	a5,444923904
	addi	a5,a5,1335
	slli	a0,a5,3
	call	MmioWrite32@plt
	.loc 1 373 9
	li	a3,10
	li	a2,0
	li	a1,536870912
	li	a5,444923904
	addi	a5,a5,1335
	slli	a0,a5,3
	call	HdmiWaitStatus
	sd	a0,-32(s0)
	.loc 1 374 31
	ld	a5,-32(s0)
	.loc 1 374 6
	bge	a5,zero,.L65
	.loc 1 376 12
	li	a5,-1
	slli	a5,a5,63
	addi	a5,a5,16
	j	.L66
.L65:
	.loc 1 379 10
	li	a5,0
.L66:
	.loc 1 380 1
	mv	a0,a5
	ld	ra,24(sp)
	.cfi_restore 1
	ld	s0,16(sp)
	.cfi_restore 8
	.cfi_def_cfa 2, 32
	addi	sp,sp,32
	.cfi_def_cfa_offset 0
	jr	ra
	.cfi_endproc
.LFE13:
	.size	HdmiClockInit, .-HdmiClockInit
	.section	.text.HdmiPowerOn,"ax",@progbits
	.align	1
	.type	HdmiPowerOn, @function
HdmiPowerOn:
.LFB14:
	.loc 1 386 1
	.cfi_startproc
	addi	sp,sp,-32
	.cfi_def_cfa_offset 32
	sd	ra,24(sp)
	sd	s0,16(sp)
	.cfi_offset 1, -8
	.cfi_offset 8, -16
	addi	s0,sp,32
	.cfi_def_cfa 8, 0
	.loc 1 391 9
	li	a5,889851904
	addi	a5,a5,-1283
	slli	a0,a5,2
	call	MmioRead32@plt
	mv	a5,a0
	sw	a5,-24(s0)
	.loc 1 392 7
	lw	a5,-24(s0)
	ori	a5,a5,1
	sw	a5,-24(s0)
	.loc 1 393 7
	lw	a5,-24(s0)
	ori	a5,a5,16
	sw	a5,-24(s0)
	.loc 1 394 3
	lw	a5,-24(s0)
	mv	a1,a5
	li	a5,889851904
	addi	a5,a5,-1283
	slli	a0,a5,2
	call	MmioWrite32@plt
	.loc 1 396 6
	la	a5,gBS
	ld	a5,0(a5)
	ld	a5,248(a5)
	.loc 1 396 3
	li	a0,310
	jalr	a5
.LVL6:
	.loc 1 398 13
	li	a5,8192
	addi	a5,a5,1808
	sw	a5,-20(s0)
	.loc 1 398 3
	j	.L68
.L71:
	.loc 1 399 11
	li	a5,222461952
	addi	a5,a5,655
	slli	a0,a5,4
	call	MmioRead32@plt
	mv	a5,a0
	sw	a5,-24(s0)
	.loc 1 400 13
	lw	a5,-24(s0)
	mv	a4,a5
	li	a5,32768
	and	a5,a4,a5
	sext.w	a5,a5
	.loc 1 400 8
	bne	a5,zero,.L74
	.loc 1 404 8
	la	a5,gBS
	ld	a5,0(a5)
	ld	a5,248(a5)
	.loc 1 404 5
	li	a0,6
	jalr	a5
.LVL7:
	.loc 1 398 33 discriminator 2
	lw	a5,-20(s0)
	addiw	a5,a5,-1
	sw	a5,-20(s0)
.L68:
	.loc 1 398 27 discriminator 1
	lw	a5,-20(s0)
	sext.w	a5,a5
	bge	a5,zero,.L71
	j	.L70
.L74:
	.loc 1 401 7
	nop
.L70:
	.loc 1 407 6
	lw	a5,-20(s0)
	sext.w	a5,a5
	bge	a5,zero,.L72
	.loc 1 409 12
	li	a5,-1
	slli	a5,a5,63
	addi	a5,a5,16
	j	.L73
.L72:
	.loc 1 412 10
	li	a5,0
.L73:
	.loc 1 413 1
	mv	a0,a5
	ld	ra,24(sp)
	.cfi_restore 1
	ld	s0,16(sp)
	.cfi_restore 8
	.cfi_def_cfa 2, 32
	addi	sp,sp,32
	.cfi_def_cfa_offset 0
	jr	ra
	.cfi_endproc
.LFE14:
	.size	HdmiPowerOn, .-HdmiPowerOn
	.section	.text.SpacemitHdmiProbe,"ax",@progbits
	.align	1
	.globl	SpacemitHdmiProbe
	.type	SpacemitHdmiProbe, @function
SpacemitHdmiProbe:
.LFB15:
	.loc 1 419 1
	.cfi_startproc
	addi	sp,sp,-32
	.cfi_def_cfa_offset 32
	sd	ra,24(sp)
	sd	s0,16(sp)
	.cfi_offset 1, -8
	.cfi_offset 8, -16
	addi	s0,sp,32
	.cfi_def_cfa 8, 0
	.loc 1 423 9
	call	HdmiPowerOn
	sd	a0,-24(s0)
	.loc 1 424 31
	ld	a5,-24(s0)
	.loc 1 424 6
	bge	a5,zero,.L76
	.loc 1 426 12
	li	a5,-1
	slli	a5,a5,63
	addi	a5,a5,7
	j	.L77
.L76:
	.loc 1 429 9
	call	HdmiClockInit
	sd	a0,-24(s0)
	.loc 1 430 31
	ld	a5,-24(s0)
	.loc 1 430 6
	bge	a5,zero,.L78
	.loc 1 432 12
	li	a5,-1
	slli	a5,a5,63
	addi	a5,a5,7
	j	.L77
.L78:
	.loc 1 435 9
	li	a0,100
	call	HdmiPhyWaitForHpd
	sd	a0,-24(s0)
	.loc 1 436 37
	ld	a5,-24(s0)
	seqz	a5,a5
	andi	a5,a5,0xff
	.loc 1 436 15
	sb	a5,-25(s0)
	.loc 1 442 3
	call	HdmiPhyInit
	.loc 1 443 10
	li	a5,0
.L77:
	.loc 1 444 1
	mv	a0,a5
	ld	ra,24(sp)
	.cfi_restore 1
	ld	s0,16(sp)
	.cfi_restore 8
	.cfi_def_cfa 2, 32
	addi	sp,sp,32
	.cfi_def_cfa_offset 0
	jr	ra
	.cfi_endproc
.LFE15:
	.size	SpacemitHdmiProbe, .-SpacemitHdmiProbe
	.text
.Letext0:
	.file 2 "/home/kapoagaeming/spacemit-image-builder/components/edk2/MdePkg/Include/RiscV64/ProcessorBind.h"
	.file 3 "/home/kapoagaeming/spacemit-image-builder/components/edk2/MdePkg/Include/Base.h"
	.file 4 "/home/kapoagaeming/spacemit-image-builder/components/edk2/MdePkg/Include/Uefi/UefiBaseType.h"
	.file 5 "/home/kapoagaeming/spacemit-image-builder/components/edk2/MdePkg/Include/Uefi/UefiMultiPhase.h"
	.file 6 "/home/kapoagaeming/spacemit-image-builder/components/edk2/MdePkg/Include/Protocol/DevicePath.h"
	.file 7 "/home/kapoagaeming/spacemit-image-builder/components/edk2/MdePkg/Include/Uefi/UefiSpec.h"
	.file 8 "/home/kapoagaeming/spacemit-image-builder/components/edk2/MdePkg/Include/Library/IoLib.h"
	.file 9 "/home/kapoagaeming/spacemit-image-builder/components/edk2-platforms/Silicon/Spacemit/K1/Drivers/HdmiGraphicsOutputDxe/Display.h"
	.file 10 "/home/kapoagaeming/spacemit-image-builder/components/edk2/MdePkg/Include/Library/UefiBootServicesTableLib.h"
	.section	.note.GNU-stack,"",@progbits
