	.file	"ConfigKeywordHandler.c"
	.option pic
	.option norelax
	.attribute arch, "rv64i2p1_m2p0_a2p1_f2p2_d2p2_c2p0_zicsr2p0_zifencei2p0_zmmul1p0_zaamo1p0_zalrsc1p0_zca1p0_zcd1p0"
	.attribute unaligned_access, 0
	.attribute stack_align, 16
	.text
.Ltext0:
	.cfi_sections	.debug_frame
	.file 0 "/home/kapoagaeming/Downloads/spacemit-image-builder/components/Build/Milk-V-Jupiter/RELEASE_GCC5/RISCV64/MdeModulePkg/Universal/HiiDatabaseDxe/HiiDatabaseDxe" "/home/kapoagaeming/Downloads/spacemit-image-builder/components/edk2/MdeModulePkg/Universal/HiiDatabaseDxe/ConfigKeywordHandler.c"
	.section	.rodata
	.align	3
.LC0:
	.string	"P"
	.string	"A"
	.string	"T"
	.string	"H"
	.string	"="
	.zero	2
	.align	3
.LC1:
	.string	"K"
	.string	"E"
	.string	"Y"
	.string	"W"
	.string	"O"
	.string	"R"
	.string	"D"
	.string	"="
	.zero	2
	.section	.text.ExtractDevicePath,"ax",@progbits
	.align	1
	.globl	ExtractDevicePath
	.type	ExtractDevicePath, @function
ExtractDevicePath:
.LFB0:
	.file 1 "/home/kapoagaeming/Downloads/spacemit-image-builder/components/edk2/MdeModulePkg/Universal/HiiDatabaseDxe/ConfigKeywordHandler.c"
	.loc 1 35 1
	.cfi_startproc
	addi	sp,sp,-96
	.cfi_def_cfa_offset 96
	sd	ra,88(sp)
	sd	s0,80(sp)
	.cfi_offset 1, -8
	.cfi_offset 8, -16
	addi	s0,sp,96
	.cfi_def_cfa 8, 0
	sd	a0,-72(s0)
	sd	a1,-80(s0)
	sd	a2,-88(s0)
	.loc 1 49 6
	ld	a5,-72(s0)
	bne	a5,zero,.L2
	.loc 1 50 21
	ld	a5,-80(s0)
	sd	zero,0(a5)
	.loc 1 51 17
	ld	a5,-88(s0)
	sd	zero,0(a5)
	.loc 1 52 12
	li	a5,0
	j	.L21
.L2:
	.loc 1 58 7
	ld	a5,-72(s0)
	lhu	a5,0(a5)
	.loc 1 58 6
	sext.w	a4,a5
	li	a5,38
	bne	a4,a5,.L4
	.loc 1 59 11
	ld	a5,-72(s0)
	addi	a5,a5,2
	sd	a5,-72(s0)
.L4:
	.loc 1 65 7
	lla	a0,.LC0
	call	StrLen@plt
	mv	a5,a0
	.loc 1 65 7 is_stmt 0 discriminator 1
	mv	a2,a5
	lla	a1,.LC0
	ld	a0,-72(s0)
	call	StrnCmp@plt
	mv	a5,a0
	.loc 1 65 6 is_stmt 1 discriminator 2
	beq	a5,zero,.L5
	.loc 1 66 9
	lla	a0,.LC1
	call	StrLen@plt
	mv	a5,a0
	.loc 1 66 9 is_stmt 0 discriminator 1
	mv	a2,a5
	lla	a1,.LC1
	ld	a0,-72(s0)
	call	StrnCmp@plt
	mv	a5,a0
	.loc 1 66 8 is_stmt 1 discriminator 2
	beq	a5,zero,.L6
	.loc 1 67 14
	li	a5,-1
	slli	a5,a5,63
	addi	a5,a5,2
	j	.L21
.L6:
	.loc 1 72 23
	ld	a5,-80(s0)
	sd	zero,0(a5)
	.loc 1 73 19
	ld	a5,-88(s0)
	ld	a4,-72(s0)
	sd	a4,0(a5)
	.loc 1 74 14
	li	a5,0
	j	.L21
.L5:
	.loc 1 81 13
	lla	a0,.LC0
	call	StrLen@plt
	mv	a5,a0
	.loc 1 81 10 discriminator 1
	slli	a5,a5,1
	ld	a4,-72(s0)
	add	a5,a4,a5
	sd	a5,-72(s0)
	.loc 1 82 7
	ld	a5,-72(s0)
	lhu	a5,0(a5)
	.loc 1 82 6
	bne	a5,zero,.L7
	.loc 1 83 12
	li	a5,-1
	slli	a5,a5,63
	addi	a5,a5,2
	j	.L21
.L7:
	.loc 1 86 11
	ld	a5,-72(s0)
	sd	a5,-48(s0)
	.loc 1 93 15
	sd	zero,-24(s0)
	.loc 1 93 3
	j	.L8
.L10:
	.loc 1 93 59 discriminator 4
	ld	a5,-72(s0)
	addi	a5,a5,2
	sd	a5,-72(s0)
	.loc 1 93 69 discriminator 4
	ld	a5,-24(s0)
	addi	a5,a5,1
	sd	a5,-24(s0)
.L8:
	.loc 1 93 20 discriminator 1
	ld	a5,-72(s0)
	lhu	a5,0(a5)
	.loc 1 93 33 discriminator 1
	beq	a5,zero,.L9
	.loc 1 93 36 discriminator 3
	ld	a5,-72(s0)
	lhu	a5,0(a5)
	.loc 1 93 33 discriminator 3
	sext.w	a4,a5
	li	a5,38
	bne	a4,a5,.L10
.L9:
	.loc 1 99 15
	ld	a5,-88(s0)
	ld	a4,-72(s0)
	sd	a4,0(a5)
	.loc 1 104 16
	ld	a5,-24(s0)
	addi	a4,a5,1
	.loc 1 104 6
	li	a5,7
	bgtu	a4,a5,.L11
	.loc 1 105 12
	li	a5,-1
	slli	a5,a5,63
	addi	a5,a5,2
	j	.L21
.L11:
	.loc 1 113 57
	ld	a5,-24(s0)
	addi	a5,a5,1
	.loc 1 113 31
	srli	a5,a5,1
	mv	a0,a5
	call	AllocateZeroPool@plt
	sd	a0,-56(s0)
	.loc 1 114 6
	ld	a5,-56(s0)
	bne	a5,zero,.L12
	.loc 1 115 12
	li	a5,-1
	slli	a5,a5,63
	addi	a5,a5,9
	j	.L21
.L12:
	.loc 1 121 3
	addi	a5,s0,-64
	li	a1,4
	mv	a0,a5
	call	ZeroMem@plt
	.loc 1 122 14
	sd	zero,-32(s0)
	.loc 1 122 3
	j	.L13
.L16:
	.loc 1 123 24
	ld	a5,-32(s0)
	slli	a5,a5,1
	ld	a4,-48(s0)
	add	a5,a4,a5
	lhu	a5,0(a5)
	.loc 1 123 15
	sh	a5,-64(s0)
	.loc 1 124 25
	addi	a5,s0,-64
	mv	a0,a5
	call	StrHexToUint64@plt
	mv	a5,a0
	.loc 1 124 16 discriminator 1
	sb	a5,-57(s0)
	.loc 1 125 16
	ld	a5,-32(s0)
	andi	a5,a5,1
	.loc 1 125 8
	bne	a5,zero,.L14
	.loc 1 126 29
	ld	a5,-32(s0)
	srli	a5,a5,1
	.loc 1 126 23
	ld	a4,-56(s0)
	add	a5,a4,a5
	.loc 1 126 33
	lbu	a4,-57(s0)
	sb	a4,0(a5)
	j	.L15
.L14:
	.loc 1 128 66
	ld	a5,-32(s0)
	srli	a5,a5,1
	.loc 1 128 60
	ld	a4,-56(s0)
	add	a5,a4,a5
	lbu	a5,0(a5)
	.loc 1 128 70
	slliw	a5,a5,4
	andi	a4,a5,0xff
	.loc 1 128 29
	ld	a5,-32(s0)
	srli	a5,a5,1
	.loc 1 128 23
	ld	a3,-56(s0)
	add	a5,a3,a5
	.loc 1 128 35
	lbu	a3,-57(s0)
	addw	a4,a3,a4
	andi	a4,a4,0xff
	.loc 1 128 33
	sb	a4,0(a5)
.L15:
	.loc 1 122 40 discriminator 2
	ld	a5,-32(s0)
	addi	a5,a5,1
	sd	a5,-32(s0)
.L13:
	.loc 1 122 25 discriminator 1
	ld	a4,-32(s0)
	ld	a5,-24(s0)
	bltu	a4,a5,.L16
	.loc 1 135 14
	ld	a5,-56(s0)
	sd	a5,-40(s0)
	.loc 1 136 9
	j	.L17
.L20:
	.loc 1 137 20
	ld	a5,-40(s0)
	lbu	a5,0(a5)
	.loc 1 137 8
	beq	a5,zero,.L18
	.loc 1 137 47 discriminator 1
	ld	a5,-40(s0)
	lbu	a5,1(a5)
	.loc 1 137 33 discriminator 1
	beq	a5,zero,.L18
	.loc 1 137 67 discriminator 2
	ld	a0,-40(s0)
	call	DevicePathNodeLength@plt
	mv	a4,a0
	.loc 1 137 63 discriminator 3
	li	a5,3
	bgtu	a4,a5,.L19
.L18:
	.loc 1 141 7
	ld	a0,-56(s0)
	call	FreePool@plt
	.loc 1 142 14
	li	a5,-1
	slli	a5,a5,63
	addi	a5,a5,2
	j	.L21
.L19:
	.loc 1 145 18
	ld	a0,-40(s0)
	call	NextDevicePathNode@plt
	sd	a0,-40(s0)
.L17:
	.loc 1 136 11
	ld	a0,-40(s0)
	call	IsDevicePathEnd@plt
	mv	a5,a0
	.loc 1 136 10 discriminator 1
	beq	a5,zero,.L20
	.loc 1 151 19
	ld	a5,-80(s0)
	ld	a4,-56(s0)
	sd	a4,0(a5)
	.loc 1 153 10
	li	a5,0
.L21:
	.loc 1 154 1
	mv	a0,a5
	ld	ra,88(sp)
	.cfi_restore 1
	ld	s0,80(sp)
	.cfi_restore 8
	.cfi_def_cfa 2, 96
	addi	sp,sp,96
	.cfi_def_cfa_offset 0
	jr	ra
	.cfi_endproc
.LFE0:
	.size	ExtractDevicePath, .-ExtractDevicePath
	.section	.rodata
	.align	3
.LC2:
	.string	"N"
	.string	"A"
	.string	"M"
	.string	"E"
	.string	"S"
	.string	"P"
	.string	"A"
	.string	"C"
	.string	"E"
	.string	"="
	.zero	2
	.align	3
.LC3:
	.string	"&"
	.zero	2
	.section	.text.ExtractNameSpace,"ax",@progbits
	.align	1
	.globl	ExtractNameSpace
	.type	ExtractNameSpace, @function
ExtractNameSpace:
.LFB1:
	.loc 1 175 1
	.cfi_startproc
	addi	sp,sp,-64
	.cfi_def_cfa_offset 64
	sd	ra,56(sp)
	sd	s0,48(sp)
	.cfi_offset 1, -8
	.cfi_offset 8, -16
	addi	s0,sp,64
	.cfi_def_cfa 8, 0
	sd	a0,-40(s0)
	sd	a1,-48(s0)
	sd	a2,-56(s0)
	.loc 1 181 10
	sd	zero,-24(s0)
	.loc 1 186 6
	ld	a5,-40(s0)
	bne	a5,zero,.L23
	.loc 1 187 16
	ld	a5,-48(s0)
	sd	zero,0(a5)
	.loc 1 188 8
	ld	a5,-56(s0)
	beq	a5,zero,.L24
	.loc 1 189 19
	ld	a5,-56(s0)
	sd	zero,0(a5)
.L24:
	.loc 1 192 12
	li	a5,0
	j	.L25
.L23:
	.loc 1 198 7
	ld	a5,-40(s0)
	lhu	a5,0(a5)
	.loc 1 198 6
	sext.w	a4,a5
	li	a5,38
	bne	a4,a5,.L26
	.loc 1 199 11
	ld	a5,-40(s0)
	addi	a5,a5,2
	sd	a5,-40(s0)
.L26:
	.loc 1 202 7
	lla	a0,.LC2
	call	StrLen@plt
	mv	a5,a0
	.loc 1 202 7 is_stmt 0 discriminator 1
	mv	a2,a5
	lla	a1,.LC2
	ld	a0,-40(s0)
	call	StrnCmp@plt
	mv	a5,a0
	.loc 1 202 6 is_stmt 1 discriminator 2
	beq	a5,zero,.L27
	.loc 1 203 12
	li	a5,-1
	slli	a5,a5,63
	addi	a5,a5,2
	j	.L25
.L27:
	.loc 1 206 13
	lla	a0,.LC2
	call	StrLen@plt
	mv	a5,a0
	.loc 1 206 10 discriminator 1
	slli	a5,a5,1
	ld	a4,-40(s0)
	add	a5,a4,a5
	sd	a5,-40(s0)
	.loc 1 208 12
	lla	a1,.LC3
	ld	a0,-40(s0)
	call	StrStr@plt
	sd	a0,-24(s0)
	.loc 1 209 6
	ld	a5,-24(s0)
	beq	a5,zero,.L28
	.loc 1 210 13
	ld	a5,-24(s0)
	sh	zero,0(a5)
.L28:
	.loc 1 213 6
	ld	a5,-56(s0)
	beq	a5,zero,.L29
	.loc 1 214 28
	ld	a0,-40(s0)
	call	StrLen@plt
	mv	a5,a0
	.loc 1 214 26 discriminator 1
	slli	a5,a5,1
	ld	a4,-40(s0)
	add	a4,a4,a5
	.loc 1 214 17 discriminator 1
	ld	a5,-56(s0)
	sd	a4,0(a5)
.L29:
	.loc 1 221 19
	ld	a0,-40(s0)
	call	StrLen@plt
	mv	a5,a0
	.loc 1 221 17 discriminator 1
	addi	a5,a5,1
	sd	a5,-32(s0)
	.loc 1 222 16
	ld	a0,-32(s0)
	call	AllocatePool@plt
	mv	a4,a0
	.loc 1 222 14 discriminator 1
	ld	a5,-48(s0)
	sd	a4,0(a5)
	.loc 1 223 7
	ld	a5,-48(s0)
	ld	a5,0(a5)
	.loc 1 223 6
	bne	a5,zero,.L30
	.loc 1 224 12
	li	a5,-1
	slli	a5,a5,63
	addi	a5,a5,9
	j	.L25
.L30:
	.loc 1 227 3
	ld	a5,-48(s0)
	ld	a5,0(a5)
	ld	a2,-32(s0)
	mv	a1,a5
	ld	a0,-40(s0)
	call	UnicodeStrToAsciiStrS@plt
	.loc 1 229 6
	ld	a5,-24(s0)
	beq	a5,zero,.L31
	.loc 1 230 13
	ld	a5,-24(s0)
	li	a4,38
	sh	a4,0(a5)
.L31:
	.loc 1 233 10
	li	a5,0
.L25:
	.loc 1 234 1
	mv	a0,a5
	ld	ra,56(sp)
	.cfi_restore 1
	ld	s0,48(sp)
	.cfi_restore 8
	.cfi_def_cfa 2, 64
	addi	sp,sp,64
	.cfi_def_cfa_offset 0
	jr	ra
	.cfi_endproc
.LFE1:
	.size	ExtractNameSpace, .-ExtractNameSpace
	.section	.text.ExtractKeyword,"ax",@progbits
	.align	1
	.globl	ExtractKeyword
	.type	ExtractKeyword, @function
ExtractKeyword:
.LFB2:
	.loc 1 255 1
	.cfi_startproc
	addi	sp,sp,-64
	.cfi_def_cfa_offset 64
	sd	ra,56(sp)
	sd	s0,48(sp)
	.cfi_offset 1, -8
	.cfi_offset 8, -16
	addi	s0,sp,64
	.cfi_def_cfa 8, 0
	sd	a0,-40(s0)
	sd	a1,-48(s0)
	sd	a2,-56(s0)
	.loc 1 260 10
	sd	zero,-24(s0)
	.loc 1 265 6
	ld	a5,-40(s0)
	bne	a5,zero,.L33
	.loc 1 266 14
	ld	a5,-48(s0)
	sd	zero,0(a5)
	.loc 1 267 17
	ld	a5,-56(s0)
	sd	zero,0(a5)
	.loc 1 268 12
	li	a5,0
	j	.L34
.L33:
	.loc 1 274 7
	ld	a5,-40(s0)
	lhu	a5,0(a5)
	.loc 1 274 6
	sext.w	a4,a5
	li	a5,38
	bne	a4,a5,.L35
	.loc 1 275 11
	ld	a5,-40(s0)
	addi	a5,a5,2
	sd	a5,-40(s0)
.L35:
	.loc 1 278 7
	lla	a0,.LC1
	call	StrLen@plt
	mv	a5,a0
	.loc 1 278 7 is_stmt 0 discriminator 1
	mv	a2,a5
	lla	a1,.LC1
	ld	a0,-40(s0)
	call	StrnCmp@plt
	mv	a5,a0
	.loc 1 278 6 is_stmt 1 discriminator 2
	beq	a5,zero,.L36
	.loc 1 279 12
	li	a5,-1
	slli	a5,a5,63
	addi	a5,a5,2
	j	.L34
.L36:
	.loc 1 282 13
	lla	a0,.LC1
	call	StrLen@plt
	mv	a5,a0
	.loc 1 282 10 discriminator 1
	slli	a5,a5,1
	ld	a4,-40(s0)
	add	a5,a4,a5
	sd	a5,-40(s0)
	.loc 1 284 12
	lla	a1,.LC3
	ld	a0,-40(s0)
	call	StrStr@plt
	sd	a0,-24(s0)
	.loc 1 285 6
	ld	a5,-24(s0)
	beq	a5,zero,.L37
	.loc 1 286 13
	ld	a5,-24(s0)
	sh	zero,0(a5)
.L37:
	.loc 1 289 26
	ld	a0,-40(s0)
	call	StrLen@plt
	mv	a5,a0
	.loc 1 289 24 discriminator 1
	slli	a5,a5,1
	ld	a4,-40(s0)
	add	a4,a4,a5
	.loc 1 289 15 discriminator 1
	ld	a5,-56(s0)
	sd	a4,0(a5)
	.loc 1 291 14
	ld	a0,-40(s0)
	call	StrSize@plt
	mv	a5,a0
	.loc 1 291 14 is_stmt 0 discriminator 1
	ld	a1,-40(s0)
	mv	a0,a5
	call	AllocateCopyPool@plt
	mv	a4,a0
	.loc 1 291 12 is_stmt 1 discriminator 2
	ld	a5,-48(s0)
	sd	a4,0(a5)
	.loc 1 292 7
	ld	a5,-48(s0)
	ld	a5,0(a5)
	.loc 1 292 6
	bne	a5,zero,.L38
	.loc 1 293 12
	li	a5,-1
	slli	a5,a5,63
	addi	a5,a5,9
	j	.L34
.L38:
	.loc 1 296 6
	ld	a5,-24(s0)
	beq	a5,zero,.L39
	.loc 1 297 13
	ld	a5,-24(s0)
	li	a4,38
	sh	a4,0(a5)
.L39:
	.loc 1 300 10
	li	a5,0
.L34:
	.loc 1 301 1
	mv	a0,a5
	ld	ra,56(sp)
	.cfi_restore 1
	ld	s0,48(sp)
	.cfi_restore 8
	.cfi_def_cfa 2, 64
	addi	sp,sp,64
	.cfi_def_cfa_offset 0
	jr	ra
	.cfi_endproc
.LFE2:
	.size	ExtractKeyword, .-ExtractKeyword
	.section	.rodata
	.align	3
.LC4:
	.string	"V"
	.string	"A"
	.string	"L"
	.string	"U"
	.string	"E"
	.string	"="
	.zero	2
	.section	.text.ExtractValue,"ax",@progbits
	.align	1
	.globl	ExtractValue
	.type	ExtractValue, @function
ExtractValue:
.LFB3:
	.loc 1 322 1
	.cfi_startproc
	addi	sp,sp,-64
	.cfi_def_cfa_offset 64
	sd	ra,56(sp)
	sd	s0,48(sp)
	.cfi_offset 1, -8
	.cfi_offset 8, -16
	addi	s0,sp,64
	.cfi_def_cfa 8, 0
	sd	a0,-40(s0)
	sd	a1,-48(s0)
	sd	a2,-56(s0)
	.loc 1 330 7
	ld	a5,-40(s0)
	lhu	a5,0(a5)
	.loc 1 330 6
	sext.w	a4,a5
	li	a5,38
	bne	a4,a5,.L41
	.loc 1 331 11
	ld	a5,-40(s0)
	addi	a5,a5,2
	sd	a5,-40(s0)
.L41:
	.loc 1 334 7
	lla	a0,.LC4
	call	StrLen@plt
	mv	a5,a0
	.loc 1 334 7 is_stmt 0 discriminator 1
	mv	a2,a5
	lla	a1,.LC4
	ld	a0,-40(s0)
	call	StrnCmp@plt
	mv	a5,a0
	.loc 1 334 6 is_stmt 1 discriminator 2
	beq	a5,zero,.L42
	.loc 1 335 12
	li	a5,-1
	slli	a5,a5,63
	addi	a5,a5,2
	j	.L43
.L42:
	.loc 1 338 13
	lla	a0,.LC4
	call	StrLen@plt
	mv	a5,a0
	.loc 1 338 10 discriminator 1
	slli	a5,a5,1
	ld	a4,-40(s0)
	add	a5,a4,a5
	sd	a5,-40(s0)
	.loc 1 340 12
	lla	a1,.LC3
	ld	a0,-40(s0)
	call	StrStr@plt
	sd	a0,-24(s0)
	.loc 1 341 6
	ld	a5,-24(s0)
	beq	a5,zero,.L44
	.loc 1 342 13
	ld	a5,-24(s0)
	sh	zero,0(a5)
.L44:
	.loc 1 345 26
	ld	a0,-40(s0)
	call	StrLen@plt
	mv	a5,a0
	.loc 1 345 24 discriminator 1
	slli	a5,a5,1
	ld	a4,-40(s0)
	add	a4,a4,a5
	.loc 1 345 15 discriminator 1
	ld	a5,-56(s0)
	sd	a4,0(a5)
	.loc 1 347 12
	ld	a0,-40(s0)
	call	StrSize@plt
	mv	a5,a0
	.loc 1 347 12 is_stmt 0 discriminator 1
	ld	a1,-40(s0)
	mv	a0,a5
	call	AllocateCopyPool@plt
	mv	a4,a0
	.loc 1 347 10 is_stmt 1 discriminator 2
	ld	a5,-48(s0)
	sd	a4,0(a5)
	.loc 1 348 7
	ld	a5,-48(s0)
	ld	a5,0(a5)
	.loc 1 348 6
	bne	a5,zero,.L45
	.loc 1 349 12
	li	a5,-1
	slli	a5,a5,63
	addi	a5,a5,9
	j	.L43
.L45:
	.loc 1 352 6
	ld	a5,-24(s0)
	beq	a5,zero,.L46
	.loc 1 353 13
	ld	a5,-24(s0)
	li	a4,38
	sh	a4,0(a5)
.L46:
	.loc 1 356 10
	li	a5,0
.L43:
	.loc 1 357 1
	mv	a0,a5
	ld	ra,56(sp)
	.cfi_restore 1
	ld	s0,48(sp)
	.cfi_restore 8
	.cfi_def_cfa 2, 64
	addi	sp,sp,64
	.cfi_def_cfa_offset 0
	jr	ra
	.cfi_endproc
.LFE3:
	.size	ExtractValue, .-ExtractValue
	.section	.rodata
	.align	3
.LC5:
	.string	"R"
	.string	"e"
	.string	"a"
	.string	"d"
	.string	"O"
	.string	"n"
	.string	"l"
	.string	"y"
	.zero	2
	.align	3
.LC6:
	.string	"R"
	.string	"e"
	.string	"a"
	.string	"d"
	.string	"W"
	.string	"r"
	.string	"i"
	.string	"t"
	.string	"e"
	.zero	2
	.align	3
.LC7:
	.string	"B"
	.string	"u"
	.string	"f"
	.string	"f"
	.string	"e"
	.string	"r"
	.zero	2
	.align	3
.LC8:
	.string	"N"
	.string	"u"
	.string	"m"
	.string	"e"
	.string	"r"
	.string	"i"
	.string	"c"
	.zero	2
	.align	3
.LC9:
	.string	"&"
	.string	"P"
	.string	"A"
	.string	"T"
	.string	"H"
	.zero	2
	.align	3
.LC10:
	.string	"&"
	.string	"K"
	.string	"E"
	.string	"Y"
	.string	"W"
	.string	"O"
	.string	"R"
	.string	"D"
	.zero	2
	.section	.text.ExtractFilter,"ax",@progbits
	.align	1
	.globl	ExtractFilter
	.type	ExtractFilter, @function
ExtractFilter:
.LFB4:
	.loc 1 378 1
	.cfi_startproc
	addi	sp,sp,-80
	.cfi_def_cfa_offset 80
	sd	ra,72(sp)
	sd	s0,64(sp)
	.cfi_offset 1, -8
	.cfi_offset 8, -16
	addi	s0,sp,80
	.cfi_def_cfa 8, 0
	sd	a0,-56(s0)
	sd	a1,-64(s0)
	sd	a2,-72(s0)
	.loc 1 388 6
	ld	a5,-56(s0)
	bne	a5,zero,.L48
	.loc 1 389 17
	ld	a5,-72(s0)
	sd	zero,0(a5)
	.loc 1 390 12
	li	a5,0
	j	.L49
.L48:
	.loc 1 393 16
	ld	a5,-64(s0)
	sb	zero,0(a5)
	.loc 1 394 10
	li	a5,1
	sb	a5,-17(s0)
	.loc 1 399 7
	ld	a5,-56(s0)
	lhu	a5,0(a5)
	.loc 1 399 6
	sext.w	a4,a5
	li	a5,38
	bne	a4,a5,.L50
	.loc 1 400 11
	ld	a5,-56(s0)
	addi	a5,a5,2
	sd	a5,-56(s0)
.L50:
	.loc 1 403 7
	lla	a0,.LC5
	call	StrLen@plt
	mv	a5,a0
	.loc 1 403 7 is_stmt 0 discriminator 1
	mv	a2,a5
	lla	a1,.LC5
	ld	a0,-56(s0)
	call	StrnCmp@plt
	mv	a5,a0
	.loc 1 403 6 is_stmt 1 discriminator 2
	bne	a5,zero,.L51
	.loc 1 407 5
	ld	a5,-64(s0)
	lbu	a5,0(a5)
	.loc 1 407 18
	ori	a5,a5,1
	andi	a4,a5,0xff
	ld	a5,-64(s0)
	sb	a4,0(a5)
	.loc 1 408 15
	lla	a0,.LC5
	call	StrLen@plt
	mv	a5,a0
	.loc 1 408 12 discriminator 1
	slli	a5,a5,1
	ld	a4,-56(s0)
	add	a5,a4,a5
	sd	a5,-56(s0)
	j	.L52
.L51:
	.loc 1 409 14
	lla	a0,.LC6
	call	StrLen@plt
	mv	a5,a0
	.loc 1 409 14 is_stmt 0 discriminator 1
	mv	a2,a5
	lla	a1,.LC6
	ld	a0,-56(s0)
	call	StrnCmp@plt
	mv	a5,a0
	.loc 1 409 13 is_stmt 1 discriminator 2
	bne	a5,zero,.L53
	.loc 1 413 5
	ld	a5,-64(s0)
	lbu	a5,0(a5)
	.loc 1 413 18
	ori	a5,a5,2
	andi	a4,a5,0xff
	ld	a5,-64(s0)
	sb	a4,0(a5)
	.loc 1 414 15
	lla	a0,.LC6
	call	StrLen@plt
	mv	a5,a0
	.loc 1 414 12 discriminator 1
	slli	a5,a5,1
	ld	a4,-56(s0)
	add	a5,a4,a5
	sd	a5,-56(s0)
	j	.L52
.L53:
	.loc 1 415 14
	lla	a0,.LC7
	call	StrLen@plt
	mv	a5,a0
	.loc 1 415 14 is_stmt 0 discriminator 1
	mv	a2,a5
	lla	a1,.LC7
	ld	a0,-56(s0)
	call	StrnCmp@plt
	mv	a5,a0
	.loc 1 415 13 is_stmt 1 discriminator 2
	bne	a5,zero,.L54
	.loc 1 419 5
	ld	a5,-64(s0)
	lbu	a5,0(a5)
	.loc 1 419 18
	ori	a5,a5,16
	andi	a4,a5,0xff
	ld	a5,-64(s0)
	sb	a4,0(a5)
	.loc 1 420 15
	lla	a0,.LC7
	call	StrLen@plt
	mv	a5,a0
	.loc 1 420 12 discriminator 1
	slli	a5,a5,1
	ld	a4,-56(s0)
	add	a5,a4,a5
	sd	a5,-56(s0)
	j	.L52
.L54:
	.loc 1 421 14
	lla	a0,.LC8
	call	StrLen@plt
	mv	a5,a0
	.loc 1 421 14 is_stmt 0 discriminator 1
	mv	a2,a5
	lla	a1,.LC8
	ld	a0,-56(s0)
	call	StrnCmp@plt
	mv	a5,a0
	.loc 1 421 13 is_stmt 1 discriminator 2
	bne	a5,zero,.L55
	.loc 1 425 15
	lla	a0,.LC8
	call	StrLen@plt
	mv	a5,a0
	.loc 1 425 12 discriminator 1
	slli	a5,a5,1
	ld	a4,-56(s0)
	add	a5,a4,a5
	sd	a5,-56(s0)
	.loc 1 426 9
	ld	a5,-56(s0)
	lhu	a5,0(a5)
	.loc 1 426 8
	sext.w	a4,a5
	li	a5,58
	beq	a4,a5,.L56
	.loc 1 427 7
	ld	a5,-64(s0)
	lbu	a5,0(a5)
	.loc 1 427 20
	ori	a5,a5,32
	andi	a4,a5,0xff
	ld	a5,-64(s0)
	sb	a4,0(a5)
	j	.L52
.L56:
	.loc 1 429 13
	ld	a5,-56(s0)
	addi	a5,a5,2
	sd	a5,-56(s0)
	.loc 1 430 15
	ld	a5,-56(s0)
	lhu	a5,0(a5)
	sext.w	a5,a5
	.loc 1 430 7
	li	a4,56
	beq	a5,a4,.L57
	li	a4,56
	bgt	a5,a4,.L67
	li	a4,52
	beq	a5,a4,.L59
	li	a4,52
	bgt	a5,a4,.L67
	li	a4,49
	beq	a5,a4,.L60
	li	a4,50
	beq	a5,a4,.L61
	.loc 1 445 11
	j	.L67
.L60:
	.loc 1 432 11
	ld	a5,-64(s0)
	lbu	a5,0(a5)
	.loc 1 432 24
	ori	a5,a5,48
	andi	a4,a5,0xff
	ld	a5,-64(s0)
	sb	a4,0(a5)
	.loc 1 433 11
	j	.L62
.L61:
	.loc 1 435 11
	ld	a5,-64(s0)
	lbu	a5,0(a5)
	.loc 1 435 24
	ori	a5,a5,64
	andi	a4,a5,0xff
	ld	a5,-64(s0)
	sb	a4,0(a5)
	.loc 1 436 11
	j	.L62
.L59:
	.loc 1 438 11
	ld	a5,-64(s0)
	lbu	a5,0(a5)
	.loc 1 438 24
	ori	a5,a5,80
	andi	a4,a5,0xff
	ld	a5,-64(s0)
	sb	a4,0(a5)
	.loc 1 439 11
	j	.L62
.L57:
	.loc 1 441 11
	ld	a5,-64(s0)
	lbu	a5,0(a5)
	.loc 1 441 24
	ori	a5,a5,96
	andi	a4,a5,0xff
	ld	a5,-64(s0)
	sb	a4,0(a5)
	.loc 1 442 11
	j	.L62
.L67:
	.loc 1 445 11
	nop
.L62:
	.loc 1 448 13
	ld	a5,-56(s0)
	addi	a5,a5,2
	sd	a5,-56(s0)
	j	.L52
.L55:
	.loc 1 454 10
	lla	a0,.LC9
	call	StrLen@plt
	mv	a5,a0
	.loc 1 454 10 is_stmt 0 discriminator 1
	mv	a2,a5
	lla	a1,.LC9
	ld	a0,-56(s0)
	call	StrnCmp@plt
	mv	a5,a0
	.loc 1 454 8 is_stmt 1 discriminator 2
	beq	a5,zero,.L63
	.loc 1 455 10
	lla	a0,.LC10
	call	StrLen@plt
	mv	a5,a0
	.loc 1 455 10 is_stmt 0 discriminator 1
	mv	a2,a5
	lla	a1,.LC10
	ld	a0,-56(s0)
	call	StrnCmp@plt
	mv	a5,a0
	.loc 1 454 62 is_stmt 1 discriminator 3
	beq	a5,zero,.L63
	.loc 1 465 17
	lla	a1,.LC9
	ld	a0,-56(s0)
	call	StrStr@plt
	sd	a0,-32(s0)
	.loc 1 466 20
	lla	a1,.LC10
	ld	a0,-56(s0)
	call	StrStr@plt
	sd	a0,-40(s0)
	.loc 1 467 10
	ld	a5,-32(s0)
	beq	a5,zero,.L64
	.loc 1 467 37 discriminator 1
	ld	a5,-40(s0)
	beq	a5,zero,.L64
	.loc 1 471 16
	ld	a4,-32(s0)
	ld	a5,-40(s0)
	bgeu	a4,a5,.L65
	mv	a5,a4
.L65:
	sd	a5,-56(s0)
	j	.L63
.L64:
	.loc 1 472 17
	ld	a5,-32(s0)
	bne	a5,zero,.L63
	.loc 1 477 17
	ld	a5,-40(s0)
	beq	a5,zero,.L66
	.loc 1 481 16
	ld	a5,-40(s0)
	sd	a5,-56(s0)
	j	.L63
.L66:
	.loc 1 486 19
	ld	a0,-56(s0)
	call	StrLen@plt
	mv	a5,a0
	.loc 1 486 16 discriminator 1
	slli	a5,a5,1
	ld	a4,-56(s0)
	add	a5,a4,a5
	sd	a5,-56(s0)
.L63:
	.loc 1 490 12
	sb	zero,-17(s0)
.L52:
	.loc 1 493 15
	ld	a5,-72(s0)
	ld	a4,-56(s0)
	sd	a4,0(a5)
	.loc 1 495 10
	lbu	a5,-17(s0)
.L49:
	.loc 1 496 1
	mv	a0,a5
	ld	ra,72(sp)
	.cfi_restore 1
	ld	s0,64(sp)
	.cfi_restore 8
	.cfi_def_cfa 2, 80
	addi	sp,sp,80
	.cfi_def_cfa_offset 0
	jr	ra
	.cfi_endproc
.LFE4:
	.size	ExtractFilter, .-ExtractFilter
	.section	.text.ExtractReadOnlyFromOpCode,"ax",@progbits
	.align	1
	.globl	ExtractReadOnlyFromOpCode
	.type	ExtractReadOnlyFromOpCode, @function
ExtractReadOnlyFromOpCode:
.LFB5:
	.loc 1 513 1
	.cfi_startproc
	addi	sp,sp,-48
	.cfi_def_cfa_offset 48
	sd	ra,40(sp)
	sd	s0,32(sp)
	.cfi_offset 1, -8
	.cfi_offset 8, -16
	addi	s0,sp,48
	.cfi_def_cfa 8, 0
	sd	a0,-40(s0)
	.loc 1 518 15
	ld	a5,-40(s0)
	addi	a5,a5,2
	sd	a5,-24(s0)
	.loc 1 520 22
	ld	a5,-24(s0)
	lbu	a5,10(a5)
	.loc 1 520 38
	andi	a5,a5,1
	andi	a5,a5,0xff
	.loc 1 521 1
	mv	a0,a5
	ld	ra,40(sp)
	.cfi_restore 1
	ld	s0,32(sp)
	.cfi_restore 8
	.cfi_def_cfa 2, 48
	addi	sp,sp,48
	.cfi_def_cfa_offset 0
	jr	ra
	.cfi_endproc
.LFE5:
	.size	ExtractReadOnlyFromOpCode, .-ExtractReadOnlyFromOpCode
	.section	.text.ValidateFilter,"ax",@progbits
	.align	1
	.globl	ValidateFilter
	.type	ValidateFilter, @function
ValidateFilter:
.LFB6:
	.loc 1 544 1
	.cfi_startproc
	addi	sp,sp,-96
	.cfi_def_cfa_offset 96
	sd	ra,88(sp)
	sd	s0,80(sp)
	.cfi_offset 1, -8
	.cfi_offset 8, -16
	addi	s0,sp,96
	.cfi_def_cfa 8, 0
	sd	a0,-72(s0)
	sd	a1,-80(s0)
	sd	a2,-88(s0)
	sd	a3,-96(s0)
	.loc 1 553 10
	sw	zero,-32(s0)
	.loc 1 554 13
	ld	a5,-80(s0)
	sd	a5,-24(s0)
	.loc 1 556 13
	ld	a5,-72(s0)
	sd	a5,-40(s0)
	.loc 1 557 15
	ld	a5,-72(s0)
	addi	a5,a5,2
	sd	a5,-48(s0)
	.loc 1 558 17
	ld	a5,-40(s0)
	lbu	a5,0(a5)
	.loc 1 558 6
	mv	a4,a5
	li	a5,5
	beq	a4,a5,.L71
	.loc 1 558 48 discriminator 1
	ld	a5,-40(s0)
	lbu	a5,0(a5)
	.loc 1 558 35 discriminator 1
	mv	a4,a5
	li	a5,7
	bne	a4,a5,.L72
.L71:
	.loc 1 559 11
	ld	a5,-72(s0)
	lbu	a5,13(a5)
	sb	a5,-25(s0)
	j	.L73
.L72:
	.loc 1 561 11
	sb	zero,-25(s0)
.L73:
	.loc 1 567 15
	ld	a0,-72(s0)
	call	ExtractReadOnlyFromOpCode
	mv	a5,a0
	mv	a4,a5
	.loc 1 567 13 discriminator 1
	ld	a5,-96(s0)
	sb	a4,0(a5)
	.loc 1 569 9
	j	.L74
.L100:
	.loc 1 570 5
	lbu	a5,-57(s0)
	sext.w	a5,a5
	li	a4,96
	beq	a5,a4,.L75
	li	a4,96
	bgt	a5,a4,.L102
	li	a4,80
	beq	a5,a4,.L75
	li	a4,80
	bgt	a5,a4,.L102
	li	a4,64
	beq	a5,a4,.L75
	li	a4,64
	bgt	a5,a4,.L102
	li	a4,48
	beq	a5,a4,.L75
	li	a4,48
	bgt	a5,a4,.L102
	li	a4,32
	beq	a5,a4,.L77
	li	a4,32
	bgt	a5,a4,.L102
	li	a4,16
	beq	a5,a4,.L78
	li	a4,16
	bgt	a5,a4,.L102
	li	a4,1
	beq	a5,a4,.L79
	li	a4,2
	beq	a5,a4,.L80
	.loc 1 662 9
	j	.L102
.L79:
	.loc 1 572 25
	ld	a5,-48(s0)
	lbu	a5,10(a5)
	.loc 1 572 33
	sext.w	a5,a5
	andi	a5,a5,1
	sext.w	a5,a5
	.loc 1 572 12
	bne	a5,zero,.L103
	.loc 1 573 18
	li	a5,8
	sw	a5,-32(s0)
	.loc 1 574 11
	j	.L82
.L80:
	.loc 1 580 25
	ld	a5,-48(s0)
	lbu	a5,10(a5)
	.loc 1 580 33
	sext.w	a5,a5
	andi	a5,a5,1
	sext.w	a5,a5
	.loc 1 580 12
	beq	a5,zero,.L104
	.loc 1 581 18
	li	a5,8
	sw	a5,-32(s0)
	.loc 1 582 11
	j	.L82
.L78:
	.loc 1 591 23
	ld	a5,-40(s0)
	lbu	a5,0(a5)
	.loc 1 591 12
	mv	a4,a5
	li	a5,5
	beq	a4,a5,.L85
	.loc 1 591 54 discriminator 1
	ld	a5,-40(s0)
	lbu	a5,0(a5)
	.loc 1 591 41 discriminator 1
	mv	a4,a5
	li	a5,7
	beq	a4,a5,.L85
	.loc 1 591 85 discriminator 2
	ld	a5,-40(s0)
	lbu	a5,0(a5)
	.loc 1 591 72 discriminator 2
	mv	a4,a5
	li	a5,6
	bne	a4,a5,.L105
.L85:
	.loc 1 592 18
	li	a5,8
	sw	a5,-32(s0)
	.loc 1 593 11
	j	.L82
.L77:
	.loc 1 599 23
	ld	a5,-40(s0)
	lbu	a5,0(a5)
	.loc 1 599 12
	mv	a4,a5
	li	a5,5
	beq	a4,a5,.L106
	.loc 1 599 54 discriminator 1
	ld	a5,-40(s0)
	lbu	a5,0(a5)
	.loc 1 599 41 discriminator 1
	mv	a4,a5
	li	a5,7
	beq	a4,a5,.L106
	.loc 1 599 85 discriminator 2
	ld	a5,-40(s0)
	lbu	a5,0(a5)
	.loc 1 599 72 discriminator 2
	mv	a4,a5
	li	a5,6
	beq	a4,a5,.L106
	.loc 1 600 18
	li	a5,8
	sw	a5,-32(s0)
	.loc 1 601 11
	j	.L82
.L75:
	.loc 1 610 23
	ld	a5,-40(s0)
	lbu	a5,0(a5)
	.loc 1 610 12
	mv	a4,a5
	li	a5,5
	beq	a4,a5,.L88
	.loc 1 610 54 discriminator 1
	ld	a5,-40(s0)
	lbu	a5,0(a5)
	.loc 1 610 41 discriminator 1
	mv	a4,a5
	li	a5,7
	beq	a4,a5,.L88
	.loc 1 610 85 discriminator 2
	ld	a5,-40(s0)
	lbu	a5,0(a5)
	.loc 1 610 72 discriminator 2
	mv	a4,a5
	li	a5,6
	beq	a4,a5,.L88
	.loc 1 611 18
	li	a5,8
	sw	a5,-32(s0)
	.loc 1 612 11
	j	.L82
.L88:
	.loc 1 618 23
	ld	a5,-40(s0)
	lbu	a5,0(a5)
	.loc 1 618 12
	mv	a4,a5
	li	a5,5
	beq	a4,a5,.L89
	.loc 1 618 54 discriminator 1
	ld	a5,-40(s0)
	lbu	a5,0(a5)
	.loc 1 618 41 discriminator 1
	mv	a4,a5
	li	a5,7
	bne	a4,a5,.L107
.L89:
	.loc 1 619 25
	lbu	a5,-25(s0)
	sext.w	a5,a5
	andi	a5,a5,3
	sext.w	a5,a5
	.loc 1 619 11
	li	a4,3
	beq	a5,a4,.L91
	li	a4,3
	bgt	a5,a4,.L108
	li	a4,2
	beq	a5,a4,.L93
	li	a4,2
	bgt	a5,a4,.L108
	beq	a5,zero,.L94
	li	a4,1
	beq	a5,a4,.L95
	.loc 1 654 15
	j	.L108
.L94:
	.loc 1 621 31
	lbu	a5,-57(s0)
	.loc 1 621 18
	mv	a4,a5
	li	a5,48
	beq	a4,a5,.L109
	.loc 1 622 24
	li	a5,8
	sw	a5,-32(s0)
	.loc 1 623 17
	j	.L82
.L95:
	.loc 1 629 31
	lbu	a5,-57(s0)
	.loc 1 629 18
	mv	a4,a5
	li	a5,64
	beq	a4,a5,.L110
	.loc 1 630 24
	li	a5,8
	sw	a5,-32(s0)
	.loc 1 631 17
	j	.L82
.L93:
	.loc 1 637 31
	lbu	a5,-57(s0)
	.loc 1 637 18
	mv	a4,a5
	li	a5,80
	beq	a4,a5,.L111
	.loc 1 638 24
	li	a5,8
	sw	a5,-32(s0)
	.loc 1 639 17
	j	.L82
.L91:
	.loc 1 645 31
	lbu	a5,-57(s0)
	.loc 1 645 18
	mv	a4,a5
	li	a5,96
	beq	a4,a5,.L112
	.loc 1 646 24
	li	a5,8
	sw	a5,-32(s0)
	.loc 1 647 17
	j	.L82
.L108:
	.loc 1 654 15
	nop
	j	.L107
.L109:
	.loc 1 626 15
	nop
	j	.L107
.L110:
	.loc 1 634 15
	nop
	j	.L107
.L111:
	.loc 1 642 15
	nop
	j	.L107
.L112:
	.loc 1 650 15
	nop
	.loc 1 658 9
	j	.L107
.L102:
	.loc 1 662 9
	nop
	j	.L83
.L103:
	.loc 1 577 9
	nop
	j	.L83
.L104:
	.loc 1 585 9
	nop
	j	.L83
.L105:
	.loc 1 596 9
	nop
	j	.L83
.L106:
	.loc 1 604 9
	nop
	j	.L83
.L107:
	.loc 1 658 9
	nop
.L83:
	.loc 1 668 15
	ld	a5,-56(s0)
	sd	a5,-24(s0)
.L74:
	.loc 1 569 10
	addi	a4,s0,-56
	addi	a5,s0,-57
	mv	a2,a4
	mv	a1,a5
	ld	a0,-24(s0)
	call	ExtractFilter
	mv	a5,a0
	.loc 1 569 10 is_stmt 0 discriminator 1
	bne	a5,zero,.L100
	.loc 1 671 1 is_stmt 1
	nop
.L82:
	.loc 1 675 15
	ld	a5,-88(s0)
	ld	a4,-24(s0)
	sd	a4,0(a5)
	.loc 1 677 10
	lw	a5,-32(s0)
	.loc 1 678 1
	mv	a0,a5
	ld	ra,88(sp)
	.cfi_restore 1
	ld	s0,80(sp)
	.cfi_restore 8
	.cfi_def_cfa 2, 96
	addi	sp,sp,96
	.cfi_def_cfa_offset 0
	jr	ra
	.cfi_endproc
.LFE6:
	.size	ValidateFilter, .-ValidateFilter
	.section	.text.GetRecordFromDevicePath,"ax",@progbits
	.align	1
	.globl	GetRecordFromDevicePath
	.type	GetRecordFromDevicePath, @function
GetRecordFromDevicePath:
.LFB7:
	.loc 1 694 1
	.cfi_startproc
	addi	sp,sp,-80
	.cfi_def_cfa_offset 80
	sd	ra,72(sp)
	sd	s0,64(sp)
	.cfi_offset 1, -8
	.cfi_offset 8, -16
	addi	s0,sp,80
	.cfi_def_cfa 8, 0
	sd	a0,-72(s0)
	.loc 1 703 13
	la	a5,mPrivate
	ld	a5,8(a5)
	sd	a5,-24(s0)
	.loc 1 703 3
	j	.L114
.L119:
	.loc 1 704 22
	ld	a5,-24(s0)
	addi	a5,a5,-32
	.loc 1 704 141
	ld	a4,0(a5)
	.loc 1 704 226
	li	a5,1919184896
	addi	a5,a5,-1688
	bne	a4,a5,.L115
	.loc 1 704 18 discriminator 1
	ld	a5,-24(s0)
	addi	a5,a5,-32
	sd	a5,-32(s0)
	j	.L116
.L115:
	.loc 1 704 18 is_stmt 0 discriminator 2
	sd	zero,-32(s0)
.L116:
	.loc 1 705 33 is_stmt 1
	ld	a5,-32(s0)
	ld	a5,8(a5)
	.loc 1 705 19
	ld	a5,128(a5)
	sd	a5,-40(s0)
	.loc 1 706 8
	ld	a5,-40(s0)
	beq	a5,zero,.L117
	.loc 1 707 25
	ld	a5,-40(s0)
	addi	a5,a5,4
	sd	a5,-48(s0)
	.loc 1 708 24
	ld	a0,-48(s0)
	call	GetDevicePathSize@plt
	sd	a0,-56(s0)
	.loc 1 709 12
	ld	a2,-56(s0)
	ld	a1,-48(s0)
	ld	a0,-72(s0)
	call	CompareMem@plt
	mv	a5,a0
	.loc 1 709 10 discriminator 1
	bne	a5,zero,.L117
	.loc 1 710 16
	ld	a5,-32(s0)
	j	.L118
.L117:
	.loc 1 703 87 discriminator 2
	ld	a5,-24(s0)
	ld	a5,0(a5)
	sd	a5,-24(s0)
.L114:
	.loc 1 703 55 discriminator 1
	ld	a4,-24(s0)
	la	a5,mPrivate
	addi	a5,a5,8
	bne	a4,a5,.L119
	.loc 1 715 10
	li	a5,0
.L118:
	.loc 1 716 1
	mv	a0,a5
	ld	ra,72(sp)
	.cfi_restore 1
	ld	s0,64(sp)
	.cfi_restore 8
	.cfi_def_cfa 2, 80
	addi	sp,sp,80
	.cfi_def_cfa_offset 0
	jr	ra
	.cfi_endproc
.LFE7:
	.size	GetRecordFromDevicePath, .-GetRecordFromDevicePath
	.section	.text.GetUnicodeStringTextAndSize,"ax",@progbits
	.align	1
	.globl	GetUnicodeStringTextAndSize
	.type	GetUnicodeStringTextAndSize, @function
GetUnicodeStringTextAndSize:
.LFB8:
	.loc 1 738 1
	.cfi_startproc
	addi	sp,sp,-64
	.cfi_def_cfa_offset 64
	sd	ra,56(sp)
	sd	s0,48(sp)
	.cfi_offset 1, -8
	.cfi_offset 8, -16
	addi	s0,sp,64
	.cfi_def_cfa 8, 0
	sd	a0,-40(s0)
	sd	a1,-48(s0)
	sd	a2,-56(s0)
	.loc 1 744 14
	li	a5,2
	sd	a5,-24(s0)
	.loc 1 745 13
	ld	a5,-40(s0)
	sd	a5,-32(s0)
	.loc 1 746 9
	j	.L121
.L122:
	.loc 1 747 16
	ld	a5,-24(s0)
	addi	a5,a5,2
	sd	a5,-24(s0)
	.loc 1 748 15
	ld	a5,-32(s0)
	addi	a5,a5,2
	sd	a5,-32(s0)
.L121:
	.loc 1 746 10
	ld	a0,-32(s0)
	call	ReadUnaligned16@plt
	mv	a5,a0
	.loc 1 746 48 discriminator 1
	bne	a5,zero,.L122
	.loc 1 751 17
	ld	a0,-24(s0)
	call	AllocatePool@plt
	mv	a4,a0
	.loc 1 751 15 discriminator 1
	ld	a5,-56(s0)
	sd	a4,0(a5)
	.loc 1 752 7
	ld	a5,-56(s0)
	ld	a5,0(a5)
	.loc 1 752 6
	bne	a5,zero,.L123
	.loc 1 753 12
	li	a5,-1
	slli	a5,a5,63
	addi	a5,a5,9
	j	.L124
.L123:
	.loc 1 756 3
	ld	a5,-56(s0)
	ld	a5,0(a5)
	ld	a2,-24(s0)
	ld	a1,-40(s0)
	mv	a0,a5
	call	CopyMem@plt
	.loc 1 758 15
	ld	a5,-48(s0)
	ld	a4,-24(s0)
	sd	a4,0(a5)
	.loc 1 759 10
	li	a5,0
.L124:
	.loc 1 760 1
	mv	a0,a5
	ld	ra,56(sp)
	.cfi_restore 1
	ld	s0,48(sp)
	.cfi_restore 8
	.cfi_def_cfa 2, 64
	addi	sp,sp,64
	.cfi_def_cfa_offset 0
	jr	ra
	.cfi_endproc
.LFE8:
	.size	GetUnicodeStringTextAndSize, .-GetUnicodeStringTextAndSize
	.section	.text.GetStringIdFromString,"ax",@progbits
	.align	1
	.globl	GetStringIdFromString
	.type	GetStringIdFromString, @function
GetStringIdFromString:
.LFB9:
	.loc 1 783 1
	.cfi_startproc
	addi	sp,sp,-160
	.cfi_def_cfa_offset 160
	sd	ra,152(sp)
	sd	s0,144(sp)
	.cfi_offset 1, -8
	.cfi_offset 8, -16
	addi	s0,sp,160
	.cfi_def_cfa 8, 0
	sd	a0,-136(s0)
	sd	a1,-144(s0)
	sd	a2,-152(s0)
	.loc 1 804 19
	li	a5,1
	sh	a5,-26(s0)
	.loc 1 805 10
	sd	zero,-64(s0)
	.loc 1 806 10
	sd	zero,-128(s0)
	.loc 1 807 12
	ld	a5,-136(s0)
	ld	a5,16(a5)
	sd	a5,-24(s0)
	.loc 1 808 13
	sd	zero,-40(s0)
	.loc 1 809 10
	sd	zero,-72(s0)
	.loc 1 814 22
	ld	a0,-144(s0)
	call	StrLen@plt
	mv	a5,a0
	.loc 1 814 20 discriminator 1
	addi	a5,a5,1
	sd	a5,-80(s0)
	.loc 1 815 23
	ld	a0,-80(s0)
	call	AllocatePool@plt
	sd	a0,-88(s0)
	.loc 1 816 6
	ld	a5,-88(s0)
	bne	a5,zero,.L126
	.loc 1 817 12
	li	a5,-1
	slli	a5,a5,63
	addi	a5,a5,9
	j	.L170
.L126:
	.loc 1 820 3
	ld	a2,-80(s0)
	ld	a1,-88(s0)
	ld	a0,-144(s0)
	call	UnicodeStrToAsciiStrS@plt
	.loc 1 822 9
	j	.L128
.L167:
	.loc 1 823 13
	ld	a5,-24(s0)
	lbu	a5,0(a5)
	sext.w	a5,a5
	.loc 1 823 5
	li	a4,50
	beq	a5,a4,.L129
	li	a4,50
	bgt	a5,a4,.L171
	li	a4,49
	beq	a5,a4,.L131
	li	a4,49
	bgt	a5,a4,.L171
	li	a4,48
	beq	a5,a4,.L132
	li	a4,48
	bgt	a5,a4,.L171
	li	a4,34
	beq	a5,a4,.L133
	li	a4,34
	bgt	a5,a4,.L171
	li	a4,33
	beq	a5,a4,.L134
	li	a4,33
	bgt	a5,a4,.L171
	li	a4,32
	beq	a5,a4,.L135
	li	a4,32
	bgt	a5,a4,.L171
	li	a4,23
	beq	a5,a4,.L136
	li	a4,23
	bgt	a5,a4,.L171
	li	a4,22
	beq	a5,a4,.L137
	li	a4,22
	bgt	a5,a4,.L171
	li	a4,21
	beq	a5,a4,.L138
	li	a4,21
	bgt	a5,a4,.L171
	li	a4,20
	beq	a5,a4,.L139
	li	a4,20
	bgt	a5,a4,.L171
	li	a4,19
	beq	a5,a4,.L140
	li	a4,19
	bgt	a5,a4,.L171
	li	a4,18
	beq	a5,a4,.L141
	li	a4,18
	bgt	a5,a4,.L171
	li	a4,16
	beq	a5,a4,.L142
	li	a4,17
	beq	a5,a4,.L143
	.loc 1 1026 9
	j	.L171
.L142:
	.loc 1 825 16
	li	a5,1
	sd	a5,-72(s0)
	.loc 1 826 23
	ld	a4,-24(s0)
	ld	a5,-72(s0)
	add	a5,a4,a5
	sd	a5,-56(s0)
	.loc 1 827 31
	ld	a0,-56(s0)
	call	AsciiStrSize@plt
	mv	a4,a0
	.loc 1 827 29 discriminator 1
	ld	a5,-72(s0)
	add	a5,a4,a5
	.loc 1 827 19 discriminator 1
	ld	a4,-40(s0)
	add	a5,a4,a5
	sd	a5,-40(s0)
	.loc 1 828 13
	ld	a1,-56(s0)
	ld	a0,-88(s0)
	call	AsciiStrCmp@plt
	mv	a5,a0
	.loc 1 828 12 discriminator 1
	bne	a5,zero,.L144
	.loc 1 829 21
	ld	a5,-152(s0)
	lhu	a4,-26(s0)
	sh	a4,0(a5)
	.loc 1 830 11
	j	.L145
.L144:
	.loc 1 833 24
	lhu	a5,-26(s0)
	addiw	a5,a5,1
	sh	a5,-26(s0)
	.loc 1 834 9
	j	.L146
.L143:
	.loc 1 837 16
	li	a5,2
	sd	a5,-72(s0)
	.loc 1 838 23
	ld	a4,-24(s0)
	ld	a5,-72(s0)
	add	a5,a4,a5
	sd	a5,-56(s0)
	.loc 1 839 13
	ld	a1,-56(s0)
	ld	a0,-88(s0)
	call	AsciiStrCmp@plt
	mv	a5,a0
	.loc 1 839 12 discriminator 1
	bne	a5,zero,.L147
	.loc 1 840 21
	ld	a5,-152(s0)
	lhu	a4,-26(s0)
	sh	a4,0(a5)
	.loc 1 841 11
	j	.L145
.L147:
	.loc 1 844 31
	ld	a0,-56(s0)
	call	AsciiStrSize@plt
	mv	a4,a0
	.loc 1 844 29 discriminator 1
	ld	a5,-72(s0)
	add	a5,a4,a5
	.loc 1 844 19 discriminator 1
	ld	a4,-40(s0)
	add	a5,a4,a5
	sd	a5,-40(s0)
	.loc 1 845 24
	lhu	a5,-26(s0)
	addiw	a5,a5,1
	sh	a5,-26(s0)
	.loc 1 846 9
	j	.L146
.L141:
	.loc 1 849 41
	ld	a5,-24(s0)
	addi	a4,a5,1
	.loc 1 849 9
	addi	a5,s0,-90
	li	a2,2
	mv	a1,a4
	mv	a0,a5
	call	CopyMem@plt
	.loc 1 850 35
	ld	a5,-24(s0)
	.loc 1 850 94
	addi	a5,a5,3
	.loc 1 850 23
	sd	a5,-56(s0)
	.loc 1 851 36
	ld	a4,-56(s0)
	ld	a5,-24(s0)
	sub	a5,a4,a5
	mv	a4,a5
	.loc 1 851 19
	ld	a5,-40(s0)
	add	a5,a5,a4
	sd	a5,-40(s0)
	.loc 1 853 20
	sd	zero,-48(s0)
	.loc 1 853 9
	j	.L148
.L150:
	.loc 1 854 24
	ld	a0,-56(s0)
	call	AsciiStrSize@plt
	mv	a4,a0
	.loc 1 854 21 discriminator 1
	ld	a5,-40(s0)
	add	a5,a5,a4
	sd	a5,-40(s0)
	.loc 1 855 15
	ld	a1,-56(s0)
	ld	a0,-88(s0)
	call	AsciiStrCmp@plt
	mv	a5,a0
	.loc 1 855 14 discriminator 1
	bne	a5,zero,.L149
	.loc 1 856 23
	ld	a5,-152(s0)
	lhu	a4,-26(s0)
	sh	a4,0(a5)
	.loc 1 857 13
	j	.L145
.L149:
	.loc 1 860 43
	ld	a0,-56(s0)
	call	AsciiStrSize@plt
	mv	a4,a0
	.loc 1 860 25 discriminator 1
	ld	a5,-56(s0)
	add	a5,a5,a4
	sd	a5,-56(s0)
	.loc 1 861 26
	lhu	a5,-26(s0)
	addiw	a5,a5,1
	sh	a5,-26(s0)
	.loc 1 853 51 discriminator 2
	ld	a5,-48(s0)
	addi	a5,a5,1
	sd	a5,-48(s0)
.L148:
	.loc 1 853 31 discriminator 1
	lhu	a5,-90(s0)
	mv	a4,a5
	ld	a5,-48(s0)
	bltu	a5,a4,.L150
	.loc 1 864 9
	j	.L146
.L140:
	.loc 1 869 21
	ld	a5,-24(s0)
	.loc 1 869 69
	addi	a5,a5,2
	.loc 1 867 9
	mv	a4,a5
	addi	a5,s0,-90
	li	a2,2
	mv	a1,a4
	mv	a0,a5
	call	CopyMem@plt
	.loc 1 872 35
	ld	a5,-24(s0)
	.loc 1 872 99
	addi	a5,a5,4
	.loc 1 872 23
	sd	a5,-56(s0)
	.loc 1 873 36
	ld	a4,-56(s0)
	ld	a5,-24(s0)
	sub	a5,a4,a5
	mv	a4,a5
	.loc 1 873 19
	ld	a5,-40(s0)
	add	a5,a5,a4
	sd	a5,-40(s0)
	.loc 1 875 20
	sd	zero,-48(s0)
	.loc 1 875 9
	j	.L151
.L153:
	.loc 1 876 24
	ld	a0,-56(s0)
	call	AsciiStrSize@plt
	mv	a4,a0
	.loc 1 876 21 discriminator 1
	ld	a5,-40(s0)
	add	a5,a5,a4
	sd	a5,-40(s0)
	.loc 1 877 15
	ld	a1,-56(s0)
	ld	a0,-88(s0)
	call	AsciiStrCmp@plt
	mv	a5,a0
	.loc 1 877 14 discriminator 1
	bne	a5,zero,.L152
	.loc 1 878 23
	ld	a5,-152(s0)
	lhu	a4,-26(s0)
	sh	a4,0(a5)
	.loc 1 879 13
	j	.L145
.L152:
	.loc 1 882 43
	ld	a0,-56(s0)
	call	AsciiStrSize@plt
	mv	a4,a0
	.loc 1 882 25 discriminator 1
	ld	a5,-56(s0)
	add	a5,a5,a4
	sd	a5,-56(s0)
	.loc 1 883 26
	lhu	a5,-26(s0)
	addiw	a5,a5,1
	sh	a5,-26(s0)
	.loc 1 875 51 discriminator 2
	ld	a5,-48(s0)
	addi	a5,a5,1
	sd	a5,-48(s0)
.L151:
	.loc 1 875 31 discriminator 1
	lhu	a5,-90(s0)
	mv	a4,a5
	ld	a5,-48(s0)
	bltu	a5,a4,.L153
	.loc 1 886 9
	j	.L146
.L139:
	.loc 1 889 16
	li	a5,1
	sd	a5,-72(s0)
	.loc 1 890 23
	ld	a4,-24(s0)
	ld	a5,-72(s0)
	add	a5,a4,a5
	sd	a5,-56(s0)
	.loc 1 895 18
	addi	a4,s0,-128
	addi	a5,s0,-120
	mv	a2,a4
	mv	a1,a5
	ld	a0,-56(s0)
	call	GetUnicodeStringTextAndSize
	sd	a0,-64(s0)
	.loc 1 896 40
	ld	a5,-64(s0)
	.loc 1 896 12
	blt	a5,zero,.L172
	.loc 1 901 13
	ld	a5,-128(s0)
	mv	a1,a5
	ld	a0,-144(s0)
	call	StrCmp@plt
	mv	a5,a0
	.loc 1 901 12 discriminator 1
	bne	a5,zero,.L155
	.loc 1 902 21
	ld	a5,-152(s0)
	lhu	a4,-26(s0)
	sh	a4,0(a5)
	.loc 1 903 11
	j	.L145
.L155:
	.loc 1 906 29
	ld	a4,-120(s0)
	ld	a5,-72(s0)
	add	a5,a4,a5
	.loc 1 906 19
	ld	a4,-40(s0)
	add	a5,a4,a5
	sd	a5,-40(s0)
	.loc 1 907 24
	lhu	a5,-26(s0)
	addiw	a5,a5,1
	sh	a5,-26(s0)
	.loc 1 908 9
	j	.L146
.L138:
	.loc 1 911 16
	li	a5,2
	sd	a5,-72(s0)
	.loc 1 912 23
	ld	a4,-24(s0)
	ld	a5,-72(s0)
	add	a5,a4,a5
	sd	a5,-56(s0)
	.loc 1 917 18
	addi	a4,s0,-128
	addi	a5,s0,-120
	mv	a2,a4
	mv	a1,a5
	ld	a0,-56(s0)
	call	GetUnicodeStringTextAndSize
	sd	a0,-64(s0)
	.loc 1 918 40
	ld	a5,-64(s0)
	.loc 1 918 12
	blt	a5,zero,.L173
	.loc 1 923 13
	ld	a5,-128(s0)
	mv	a1,a5
	ld	a0,-144(s0)
	call	StrCmp@plt
	mv	a5,a0
	.loc 1 923 12 discriminator 1
	bne	a5,zero,.L157
	.loc 1 924 21
	ld	a5,-152(s0)
	lhu	a4,-26(s0)
	sh	a4,0(a5)
	.loc 1 925 11
	j	.L145
.L157:
	.loc 1 928 29
	ld	a4,-120(s0)
	ld	a5,-72(s0)
	add	a5,a4,a5
	.loc 1 928 19
	ld	a4,-40(s0)
	add	a5,a4,a5
	sd	a5,-40(s0)
	.loc 1 929 24
	lhu	a5,-26(s0)
	addiw	a5,a5,1
	sh	a5,-26(s0)
	.loc 1 930 9
	j	.L146
.L137:
	.loc 1 933 16
	li	a5,3
	sd	a5,-72(s0)
	.loc 1 934 23
	ld	a4,-24(s0)
	ld	a5,-72(s0)
	add	a5,a4,a5
	sd	a5,-56(s0)
	.loc 1 935 19
	ld	a4,-40(s0)
	ld	a5,-72(s0)
	add	a5,a4,a5
	sd	a5,-40(s0)
	.loc 1 936 41
	ld	a5,-24(s0)
	addi	a4,a5,1
	.loc 1 936 9
	addi	a5,s0,-90
	li	a2,2
	mv	a1,a4
	mv	a0,a5
	call	CopyMem@plt
	.loc 1 937 20
	sd	zero,-48(s0)
	.loc 1 937 9
	j	.L158
.L161:
	.loc 1 938 20
	addi	a4,s0,-128
	addi	a5,s0,-120
	mv	a2,a4
	mv	a1,a5
	ld	a0,-56(s0)
	call	GetUnicodeStringTextAndSize
	sd	a0,-64(s0)
	.loc 1 939 42
	ld	a5,-64(s0)
	.loc 1 939 14
	blt	a5,zero,.L174
	.loc 1 944 21
	ld	a5,-120(s0)
	ld	a4,-40(s0)
	add	a5,a4,a5
	sd	a5,-40(s0)
	.loc 1 945 15
	ld	a5,-128(s0)
	mv	a1,a5
	ld	a0,-144(s0)
	call	StrCmp@plt
	mv	a5,a0
	.loc 1 945 14 discriminator 1
	bne	a5,zero,.L160
	.loc 1 946 23
	ld	a5,-152(s0)
	lhu	a4,-26(s0)
	sh	a4,0(a5)
	.loc 1 947 13
	j	.L145
.L160:
	.loc 1 950 41
	ld	a5,-120(s0)
	.loc 1 950 25
	ld	a4,-56(s0)
	add	a5,a4,a5
	sd	a5,-56(s0)
	.loc 1 951 26
	lhu	a5,-26(s0)
	addiw	a5,a5,1
	sh	a5,-26(s0)
	.loc 1 937 51 discriminator 2
	ld	a5,-48(s0)
	addi	a5,a5,1
	sd	a5,-48(s0)
.L158:
	.loc 1 937 31 discriminator 1
	lhu	a5,-90(s0)
	mv	a4,a5
	ld	a5,-48(s0)
	bltu	a5,a4,.L161
	.loc 1 954 9
	j	.L146
.L136:
	.loc 1 957 16
	li	a5,4
	sd	a5,-72(s0)
	.loc 1 958 23
	ld	a4,-24(s0)
	ld	a5,-72(s0)
	add	a5,a4,a5
	sd	a5,-56(s0)
	.loc 1 959 19
	ld	a4,-40(s0)
	ld	a5,-72(s0)
	add	a5,a4,a5
	sd	a5,-40(s0)
	.loc 1 962 21
	ld	a5,-24(s0)
	.loc 1 962 69
	addi	a5,a5,2
	.loc 1 960 9
	mv	a4,a5
	addi	a5,s0,-90
	li	a2,2
	mv	a1,a4
	mv	a0,a5
	call	CopyMem@plt
	.loc 1 965 20
	sd	zero,-48(s0)
	.loc 1 965 9
	j	.L162
.L165:
	.loc 1 966 20
	addi	a4,s0,-128
	addi	a5,s0,-120
	mv	a2,a4
	mv	a1,a5
	ld	a0,-56(s0)
	call	GetUnicodeStringTextAndSize
	sd	a0,-64(s0)
	.loc 1 967 42
	ld	a5,-64(s0)
	.loc 1 967 14
	blt	a5,zero,.L175
	.loc 1 972 21
	ld	a5,-120(s0)
	ld	a4,-40(s0)
	add	a5,a4,a5
	sd	a5,-40(s0)
	.loc 1 973 15
	ld	a5,-128(s0)
	mv	a1,a5
	ld	a0,-144(s0)
	call	StrCmp@plt
	mv	a5,a0
	.loc 1 973 14 discriminator 1
	bne	a5,zero,.L164
	.loc 1 974 23
	ld	a5,-152(s0)
	lhu	a4,-26(s0)
	sh	a4,0(a5)
	.loc 1 975 13
	j	.L145
.L164:
	.loc 1 978 41
	ld	a5,-120(s0)
	.loc 1 978 25
	ld	a4,-56(s0)
	add	a5,a4,a5
	sd	a5,-56(s0)
	.loc 1 979 26
	lhu	a5,-26(s0)
	addiw	a5,a5,1
	sh	a5,-26(s0)
	.loc 1 965 51 discriminator 2
	ld	a5,-48(s0)
	addi	a5,a5,1
	sd	a5,-48(s0)
.L162:
	.loc 1 965 31 discriminator 1
	lhu	a5,-90(s0)
	mv	a4,a5
	ld	a5,-48(s0)
	bltu	a5,a4,.L165
	.loc 1 982 9
	j	.L146
.L135:
	.loc 1 985 19
	ld	a5,-40(s0)
	addi	a5,a5,3
	sd	a5,-40(s0)
	.loc 1 986 24
	lhu	a5,-26(s0)
	addiw	a5,a5,1
	sh	a5,-26(s0)
	.loc 1 987 9
	j	.L146
.L133:
	.loc 1 990 41
	ld	a5,-24(s0)
	.loc 1 990 57
	addi	a5,a5,1
	.loc 1 990 30
	lbu	a5,0(a5)
	.loc 1 990 19
	sh	a5,-92(s0)
	.loc 1 991 27
	lhu	a5,-92(s0)
	.loc 1 991 25
	lhu	a4,-26(s0)
	addw	a5,a4,a5
	sh	a5,-26(s0)
	.loc 1 992 19
	ld	a5,-40(s0)
	addi	a5,a5,2
	sd	a5,-40(s0)
	.loc 1 993 9
	j	.L146
.L134:
	.loc 1 996 39
	ld	a5,-24(s0)
	addi	a4,a5,1
	.loc 1 996 9
	addi	a5,s0,-92
	li	a2,2
	mv	a1,a4
	mv	a0,a5
	call	CopyMem@plt
	.loc 1 997 27
	lhu	a5,-92(s0)
	.loc 1 997 25
	lhu	a4,-26(s0)
	addw	a5,a4,a5
	sh	a5,-26(s0)
	.loc 1 998 19
	ld	a5,-40(s0)
	addi	a5,a5,3
	sd	a5,-40(s0)
	.loc 1 999 9
	j	.L146
.L132:
	.loc 1 1004 21
	ld	a5,-24(s0)
	.loc 1 1004 69
	addi	a5,a5,2
	.loc 1 1002 9
	mv	a4,a5
	addi	a5,s0,-93
	li	a2,1
	mv	a1,a4
	mv	a0,a5
	call	CopyMem@plt
	.loc 1 1007 19
	lbu	a5,-93(s0)
	mv	a4,a5
	ld	a5,-40(s0)
	add	a5,a5,a4
	sd	a5,-40(s0)
	.loc 1 1008 9
	j	.L146
.L131:
	.loc 1 1011 9
	addi	a5,s0,-104
	li	a2,4
	ld	a1,-24(s0)
	mv	a0,a5
	call	CopyMem@plt
	.loc 1 1012 26
	lhu	a5,-102(s0)
	mv	a4,a5
	.loc 1 1012 19
	ld	a5,-40(s0)
	add	a5,a5,a4
	sd	a5,-40(s0)
	.loc 1 1013 9
	j	.L146
.L129:
	.loc 1 1018 21
	ld	a5,-24(s0)
	.loc 1 1018 69
	addi	a5,a5,2
	.loc 1 1016 9
	mv	a4,a5
	addi	a5,s0,-108
	li	a2,4
	mv	a1,a4
	mv	a0,a5
	call	CopyMem@plt
	.loc 1 1022 19
	lw	a5,-108(s0)
	slli	a5,a5,32
	srli	a5,a5,32
	ld	a4,-40(s0)
	add	a5,a4,a5
	sd	a5,-40(s0)
	.loc 1 1023 9
	j	.L146
.L171:
	.loc 1 1026 9
	nop
.L146:
	.loc 1 1029 16
	ld	a5,-128(s0)
	.loc 1 1029 8
	beq	a5,zero,.L166
	.loc 1 1030 7
	ld	a5,-128(s0)
	mv	a0,a5
	call	FreePool@plt
	.loc 1 1031 14
	sd	zero,-128(s0)
.L166:
	.loc 1 1034 29
	ld	a5,-136(s0)
	ld	a4,16(a5)
	.loc 1 1034 14
	ld	a5,-40(s0)
	add	a5,a4,a5
	sd	a5,-24(s0)
.L128:
	.loc 1 822 10
	ld	a5,-24(s0)
	lbu	a5,0(a5)
	.loc 1 822 20
	bne	a5,zero,.L167
	.loc 1 1037 10
	li	a5,-1
	slli	a5,a5,63
	addi	a5,a5,14
	sd	a5,-64(s0)
	j	.L145
.L172:
	.loc 1 897 11
	nop
	j	.L145
.L173:
	.loc 1 919 11
	nop
	j	.L145
.L174:
	.loc 1 940 13
	nop
	j	.L145
.L175:
	.loc 1 968 13
	nop
.L145:
	.loc 1 1040 6
	ld	a5,-88(s0)
	beq	a5,zero,.L168
	.loc 1 1041 5
	ld	a0,-88(s0)
	call	FreePool@plt
.L168:
	.loc 1 1044 14
	ld	a5,-128(s0)
	.loc 1 1044 6
	beq	a5,zero,.L169
	.loc 1 1045 5
	ld	a5,-128(s0)
	mv	a0,a5
	call	FreePool@plt
.L169:
	.loc 1 1048 10
	ld	a5,-64(s0)
.L170:
	.loc 1 1049 1
	mv	a0,a5
	ld	ra,152(sp)
	.cfi_restore 1
	ld	s0,144(sp)
	.cfi_restore 8
	.cfi_def_cfa 2, 160
	addi	sp,sp,160
	.cfi_def_cfa_offset 0
	jr	ra
	.cfi_endproc
.LFE9:
	.size	GetStringIdFromString, .-GetStringIdFromString
	.section	.text.GetNextStringId,"ax",@progbits
	.align	1
	.globl	GetNextStringId
	.type	GetNextStringId, @function
GetNextStringId:
.LFB10:
	.loc 1 1069 1
	.cfi_startproc
	addi	sp,sp,-144
	.cfi_def_cfa_offset 144
	sd	ra,136(sp)
	sd	s0,128(sp)
	.cfi_offset 1, -8
	.cfi_offset 8, -16
	addi	s0,sp,144
	.cfi_def_cfa 8, 0
	sd	a0,-120(s0)
	mv	a5,a1
	sd	a2,-136(s0)
	sh	a5,-122(s0)
	.loc 1 1088 19
	li	a5,1
	sh	a5,-26(s0)
	.loc 1 1089 14
	sb	zero,-57(s0)
	.loc 1 1090 10
	sd	zero,-112(s0)
	.loc 1 1095 12
	ld	a5,-120(s0)
	ld	a5,16(a5)
	sd	a5,-24(s0)
	.loc 1 1096 13
	sd	zero,-40(s0)
	.loc 1 1097 10
	sd	zero,-72(s0)
	.loc 1 1098 9
	j	.L177
.L224:
	.loc 1 1099 13
	ld	a5,-24(s0)
	lbu	a5,0(a5)
	sext.w	a5,a5
	.loc 1 1099 5
	li	a4,50
	beq	a5,a4,.L178
	li	a4,50
	bgt	a5,a4,.L226
	li	a4,49
	beq	a5,a4,.L180
	li	a4,49
	bgt	a5,a4,.L226
	li	a4,48
	beq	a5,a4,.L181
	li	a4,48
	bgt	a5,a4,.L226
	li	a4,34
	beq	a5,a4,.L182
	li	a4,34
	bgt	a5,a4,.L226
	li	a4,33
	beq	a5,a4,.L183
	li	a4,33
	bgt	a5,a4,.L226
	li	a4,32
	beq	a5,a4,.L184
	li	a4,32
	bgt	a5,a4,.L226
	li	a4,23
	beq	a5,a4,.L185
	li	a4,23
	bgt	a5,a4,.L226
	li	a4,22
	beq	a5,a4,.L186
	li	a4,22
	bgt	a5,a4,.L226
	li	a4,21
	beq	a5,a4,.L187
	li	a4,21
	bgt	a5,a4,.L226
	li	a4,20
	beq	a5,a4,.L188
	li	a4,20
	bgt	a5,a4,.L226
	li	a4,19
	beq	a5,a4,.L189
	li	a4,19
	bgt	a5,a4,.L226
	li	a4,18
	beq	a5,a4,.L190
	li	a4,18
	bgt	a5,a4,.L226
	li	a4,16
	beq	a5,a4,.L191
	li	a4,17
	beq	a5,a4,.L192
	.loc 1 1330 9
	j	.L226
.L191:
	.loc 1 1101 16
	li	a5,1
	sd	a5,-72(s0)
	.loc 1 1102 23
	ld	a4,-24(s0)
	ld	a5,-72(s0)
	add	a5,a4,a5
	sd	a5,-56(s0)
	.loc 1 1104 12
	lbu	a5,-57(s0)
	andi	a5,a5,0xff
	beq	a5,zero,.L193
	.loc 1 1105 24
	ld	a0,-56(s0)
	call	AsciiStrSize@plt
	mv	a5,a0
	.loc 1 1105 22 discriminator 1
	sd	a5,-104(s0)
	.loc 1 1106 27
	ld	a5,-104(s0)
	.loc 1 1106 52
	slli	a5,a5,1
	.loc 1 1106 27
	mv	a0,a5
	call	AllocatePool@plt
	mv	a4,a0
	.loc 1 1106 25 discriminator 1
	ld	a5,-136(s0)
	sd	a4,0(a5)
	.loc 1 1107 15
	ld	a5,-136(s0)
	ld	a5,0(a5)
	.loc 1 1107 14
	bne	a5,zero,.L194
	.loc 1 1108 20
	li	a5,0
	j	.L225
.L194:
	.loc 1 1111 11
	ld	a5,-136(s0)
	ld	a5,0(a5)
	ld	a4,-104(s0)
	mv	a2,a4
	mv	a1,a5
	ld	a0,-56(s0)
	call	AsciiStrToUnicodeStrS@plt
	.loc 1 1112 18
	lhu	a5,-26(s0)
	j	.L225
.L193:
	.loc 1 1113 19
	lhu	a4,-26(s0)
	lhu	a5,-122(s0)
	sext.w	a4,a4
	sext.w	a5,a5
	bne	a4,a5,.L196
	.loc 1 1114 22
	li	a5,1
	sb	a5,-57(s0)
.L196:
	.loc 1 1117 31
	ld	a0,-56(s0)
	call	AsciiStrSize@plt
	mv	a4,a0
	.loc 1 1117 29 discriminator 1
	ld	a5,-72(s0)
	add	a5,a4,a5
	.loc 1 1117 19 discriminator 1
	ld	a4,-40(s0)
	add	a5,a4,a5
	sd	a5,-40(s0)
	.loc 1 1118 24
	lhu	a5,-26(s0)
	addiw	a5,a5,1
	sh	a5,-26(s0)
	.loc 1 1119 9
	j	.L197
.L192:
	.loc 1 1122 16
	li	a5,2
	sd	a5,-72(s0)
	.loc 1 1123 23
	ld	a4,-24(s0)
	ld	a5,-72(s0)
	add	a5,a4,a5
	sd	a5,-56(s0)
	.loc 1 1125 12
	lbu	a5,-57(s0)
	andi	a5,a5,0xff
	beq	a5,zero,.L198
	.loc 1 1126 24
	ld	a0,-56(s0)
	call	AsciiStrSize@plt
	mv	a5,a0
	.loc 1 1126 22 discriminator 1
	sd	a5,-104(s0)
	.loc 1 1127 27
	ld	a5,-104(s0)
	.loc 1 1127 52
	slli	a5,a5,1
	.loc 1 1127 27
	mv	a0,a5
	call	AllocatePool@plt
	mv	a4,a0
	.loc 1 1127 25 discriminator 1
	ld	a5,-136(s0)
	sd	a4,0(a5)
	.loc 1 1128 15
	ld	a5,-136(s0)
	ld	a5,0(a5)
	.loc 1 1128 14
	bne	a5,zero,.L199
	.loc 1 1129 20
	li	a5,0
	j	.L225
.L199:
	.loc 1 1132 11
	ld	a5,-136(s0)
	ld	a5,0(a5)
	ld	a4,-104(s0)
	mv	a2,a4
	mv	a1,a5
	ld	a0,-56(s0)
	call	AsciiStrToUnicodeStrS@plt
	.loc 1 1133 18
	lhu	a5,-26(s0)
	j	.L225
.L198:
	.loc 1 1134 19
	lhu	a4,-26(s0)
	lhu	a5,-122(s0)
	sext.w	a4,a4
	sext.w	a5,a5
	bne	a4,a5,.L200
	.loc 1 1135 22
	li	a5,1
	sb	a5,-57(s0)
.L200:
	.loc 1 1138 31
	ld	a0,-56(s0)
	call	AsciiStrSize@plt
	mv	a4,a0
	.loc 1 1138 29 discriminator 1
	ld	a5,-72(s0)
	add	a5,a4,a5
	.loc 1 1138 19 discriminator 1
	ld	a4,-40(s0)
	add	a5,a4,a5
	sd	a5,-40(s0)
	.loc 1 1139 24
	lhu	a5,-26(s0)
	addiw	a5,a5,1
	sh	a5,-26(s0)
	.loc 1 1140 9
	j	.L197
.L190:
	.loc 1 1143 41
	ld	a5,-24(s0)
	addi	a4,a5,1
	.loc 1 1143 9
	addi	a5,s0,-74
	li	a2,2
	mv	a1,a4
	mv	a0,a5
	call	CopyMem@plt
	.loc 1 1144 35
	ld	a5,-24(s0)
	.loc 1 1144 94
	addi	a5,a5,3
	.loc 1 1144 23
	sd	a5,-56(s0)
	.loc 1 1145 36
	ld	a4,-56(s0)
	ld	a5,-24(s0)
	sub	a5,a4,a5
	mv	a4,a5
	.loc 1 1145 19
	ld	a5,-40(s0)
	add	a5,a5,a4
	sd	a5,-40(s0)
	.loc 1 1147 20
	sd	zero,-48(s0)
	.loc 1 1147 9
	j	.L201
.L205:
	.loc 1 1148 14
	lbu	a5,-57(s0)
	andi	a5,a5,0xff
	beq	a5,zero,.L202
	.loc 1 1149 26
	ld	a0,-56(s0)
	call	AsciiStrSize@plt
	mv	a5,a0
	.loc 1 1149 24 discriminator 1
	sd	a5,-104(s0)
	.loc 1 1150 29
	ld	a5,-104(s0)
	.loc 1 1150 54
	slli	a5,a5,1
	.loc 1 1150 29
	mv	a0,a5
	call	AllocatePool@plt
	mv	a4,a0
	.loc 1 1150 27 discriminator 1
	ld	a5,-136(s0)
	sd	a4,0(a5)
	.loc 1 1151 17
	ld	a5,-136(s0)
	ld	a5,0(a5)
	.loc 1 1151 16
	bne	a5,zero,.L203
	.loc 1 1152 22
	li	a5,0
	j	.L225
.L203:
	.loc 1 1155 13
	ld	a5,-136(s0)
	ld	a5,0(a5)
	ld	a4,-104(s0)
	mv	a2,a4
	mv	a1,a5
	ld	a0,-56(s0)
	call	AsciiStrToUnicodeStrS@plt
	.loc 1 1156 20
	lhu	a5,-26(s0)
	j	.L225
.L202:
	.loc 1 1157 21
	lhu	a4,-26(s0)
	lhu	a5,-122(s0)
	sext.w	a4,a4
	sext.w	a5,a5
	bne	a4,a5,.L204
	.loc 1 1158 24
	li	a5,1
	sb	a5,-57(s0)
.L204:
	.loc 1 1161 24
	ld	a0,-56(s0)
	call	AsciiStrSize@plt
	mv	a4,a0
	.loc 1 1161 21 discriminator 1
	ld	a5,-40(s0)
	add	a5,a5,a4
	sd	a5,-40(s0)
	.loc 1 1162 43
	ld	a0,-56(s0)
	call	AsciiStrSize@plt
	mv	a4,a0
	.loc 1 1162 25 discriminator 1
	ld	a5,-56(s0)
	add	a5,a5,a4
	sd	a5,-56(s0)
	.loc 1 1163 26
	lhu	a5,-26(s0)
	addiw	a5,a5,1
	sh	a5,-26(s0)
	.loc 1 1147 51 discriminator 2
	ld	a5,-48(s0)
	addi	a5,a5,1
	sd	a5,-48(s0)
.L201:
	.loc 1 1147 31 discriminator 1
	lhu	a5,-74(s0)
	mv	a4,a5
	ld	a5,-48(s0)
	bltu	a5,a4,.L205
	.loc 1 1166 9
	j	.L197
.L189:
	.loc 1 1171 21
	ld	a5,-24(s0)
	.loc 1 1171 69
	addi	a5,a5,2
	.loc 1 1169 9
	mv	a4,a5
	addi	a5,s0,-74
	li	a2,2
	mv	a1,a4
	mv	a0,a5
	call	CopyMem@plt
	.loc 1 1174 35
	ld	a5,-24(s0)
	.loc 1 1174 99
	addi	a5,a5,4
	.loc 1 1174 23
	sd	a5,-56(s0)
	.loc 1 1175 36
	ld	a4,-56(s0)
	ld	a5,-24(s0)
	sub	a5,a4,a5
	mv	a4,a5
	.loc 1 1175 19
	ld	a5,-40(s0)
	add	a5,a5,a4
	sd	a5,-40(s0)
	.loc 1 1177 20
	sd	zero,-48(s0)
	.loc 1 1177 9
	j	.L206
.L210:
	.loc 1 1178 14
	lbu	a5,-57(s0)
	andi	a5,a5,0xff
	beq	a5,zero,.L207
	.loc 1 1179 26
	ld	a0,-56(s0)
	call	AsciiStrSize@plt
	mv	a5,a0
	.loc 1 1179 24 discriminator 1
	sd	a5,-104(s0)
	.loc 1 1180 29
	ld	a5,-104(s0)
	.loc 1 1180 54
	slli	a5,a5,1
	.loc 1 1180 29
	mv	a0,a5
	call	AllocatePool@plt
	mv	a4,a0
	.loc 1 1180 27 discriminator 1
	ld	a5,-136(s0)
	sd	a4,0(a5)
	.loc 1 1181 17
	ld	a5,-136(s0)
	ld	a5,0(a5)
	.loc 1 1181 16
	bne	a5,zero,.L208
	.loc 1 1182 22
	li	a5,0
	j	.L225
.L208:
	.loc 1 1185 13
	ld	a5,-136(s0)
	ld	a5,0(a5)
	ld	a4,-104(s0)
	mv	a2,a4
	mv	a1,a5
	ld	a0,-56(s0)
	call	AsciiStrToUnicodeStrS@plt
	.loc 1 1186 20
	lhu	a5,-26(s0)
	j	.L225
.L207:
	.loc 1 1187 21
	lhu	a4,-26(s0)
	lhu	a5,-122(s0)
	sext.w	a4,a4
	sext.w	a5,a5
	bne	a4,a5,.L209
	.loc 1 1188 24
	li	a5,1
	sb	a5,-57(s0)
.L209:
	.loc 1 1191 24
	ld	a0,-56(s0)
	call	AsciiStrSize@plt
	mv	a4,a0
	.loc 1 1191 21 discriminator 1
	ld	a5,-40(s0)
	add	a5,a5,a4
	sd	a5,-40(s0)
	.loc 1 1192 43
	ld	a0,-56(s0)
	call	AsciiStrSize@plt
	mv	a4,a0
	.loc 1 1192 25 discriminator 1
	ld	a5,-56(s0)
	add	a5,a5,a4
	sd	a5,-56(s0)
	.loc 1 1193 26
	lhu	a5,-26(s0)
	addiw	a5,a5,1
	sh	a5,-26(s0)
	.loc 1 1177 51 discriminator 2
	ld	a5,-48(s0)
	addi	a5,a5,1
	sd	a5,-48(s0)
.L206:
	.loc 1 1177 31 discriminator 1
	lhu	a5,-74(s0)
	mv	a4,a5
	ld	a5,-48(s0)
	bltu	a5,a4,.L210
	.loc 1 1196 9
	j	.L197
.L188:
	.loc 1 1199 16
	li	a5,1
	sd	a5,-72(s0)
	.loc 1 1200 23
	ld	a4,-24(s0)
	ld	a5,-72(s0)
	add	a5,a4,a5
	sd	a5,-56(s0)
	.loc 1 1205 9
	addi	a4,s0,-112
	addi	a5,s0,-104
	mv	a2,a4
	mv	a1,a5
	ld	a0,-56(s0)
	call	GetUnicodeStringTextAndSize
	.loc 1 1206 12
	lbu	a5,-57(s0)
	andi	a5,a5,0xff
	beq	a5,zero,.L211
	.loc 1 1206 35 discriminator 1
	ld	a5,-112(s0)
	.loc 1 1206 24 discriminator 1
	beq	a5,zero,.L211
	.loc 1 1206 56 discriminator 2
	ld	a5,-112(s0)
	lhu	a5,0(a5)
	.loc 1 1206 52 discriminator 2
	beq	a5,zero,.L211
	.loc 1 1212 25
	ld	a4,-112(s0)
	ld	a5,-136(s0)
	sd	a4,0(a5)
	.loc 1 1213 18
	lhu	a5,-26(s0)
	j	.L225
.L211:
	.loc 1 1214 19
	lhu	a4,-26(s0)
	lhu	a5,-122(s0)
	sext.w	a4,a4
	sext.w	a5,a5
	bne	a4,a5,.L212
	.loc 1 1215 22
	li	a5,1
	sb	a5,-57(s0)
.L212:
	.loc 1 1218 29
	ld	a4,-104(s0)
	ld	a5,-72(s0)
	add	a5,a4,a5
	.loc 1 1218 19
	ld	a4,-40(s0)
	add	a5,a4,a5
	sd	a5,-40(s0)
	.loc 1 1219 24
	lhu	a5,-26(s0)
	addiw	a5,a5,1
	sh	a5,-26(s0)
	.loc 1 1220 9
	j	.L197
.L187:
	.loc 1 1223 16
	li	a5,2
	sd	a5,-72(s0)
	.loc 1 1224 23
	ld	a4,-24(s0)
	ld	a5,-72(s0)
	add	a5,a4,a5
	sd	a5,-56(s0)
	.loc 1 1229 9
	addi	a4,s0,-112
	addi	a5,s0,-104
	mv	a2,a4
	mv	a1,a5
	ld	a0,-56(s0)
	call	GetUnicodeStringTextAndSize
	.loc 1 1230 12
	lbu	a5,-57(s0)
	andi	a5,a5,0xff
	beq	a5,zero,.L213
	.loc 1 1231 25
	ld	a4,-112(s0)
	ld	a5,-136(s0)
	sd	a4,0(a5)
	.loc 1 1232 18
	lhu	a5,-26(s0)
	j	.L225
.L213:
	.loc 1 1233 19
	lhu	a4,-26(s0)
	lhu	a5,-122(s0)
	sext.w	a4,a4
	sext.w	a5,a5
	bne	a4,a5,.L214
	.loc 1 1234 22
	li	a5,1
	sb	a5,-57(s0)
.L214:
	.loc 1 1237 29
	ld	a4,-104(s0)
	ld	a5,-72(s0)
	add	a5,a4,a5
	.loc 1 1237 19
	ld	a4,-40(s0)
	add	a5,a4,a5
	sd	a5,-40(s0)
	.loc 1 1238 24
	lhu	a5,-26(s0)
	addiw	a5,a5,1
	sh	a5,-26(s0)
	.loc 1 1239 9
	j	.L197
.L186:
	.loc 1 1242 16
	li	a5,3
	sd	a5,-72(s0)
	.loc 1 1243 23
	ld	a4,-24(s0)
	ld	a5,-72(s0)
	add	a5,a4,a5
	sd	a5,-56(s0)
	.loc 1 1244 19
	ld	a4,-40(s0)
	ld	a5,-72(s0)
	add	a5,a4,a5
	sd	a5,-40(s0)
	.loc 1 1245 41
	ld	a5,-24(s0)
	addi	a4,a5,1
	.loc 1 1245 9
	addi	a5,s0,-74
	li	a2,2
	mv	a1,a4
	mv	a0,a5
	call	CopyMem@plt
	.loc 1 1246 20
	sd	zero,-48(s0)
	.loc 1 1246 9
	j	.L215
.L218:
	.loc 1 1247 11
	addi	a4,s0,-112
	addi	a5,s0,-104
	mv	a2,a4
	mv	a1,a5
	ld	a0,-56(s0)
	call	GetUnicodeStringTextAndSize
	.loc 1 1249 14
	lbu	a5,-57(s0)
	andi	a5,a5,0xff
	beq	a5,zero,.L216
	.loc 1 1250 27
	ld	a4,-112(s0)
	ld	a5,-136(s0)
	sd	a4,0(a5)
	.loc 1 1251 20
	lhu	a5,-26(s0)
	j	.L225
.L216:
	.loc 1 1252 21
	lhu	a4,-26(s0)
	lhu	a5,-122(s0)
	sext.w	a4,a4
	sext.w	a5,a5
	bne	a4,a5,.L217
	.loc 1 1253 24
	li	a5,1
	sb	a5,-57(s0)
.L217:
	.loc 1 1256 21
	ld	a5,-104(s0)
	ld	a4,-40(s0)
	add	a5,a4,a5
	sd	a5,-40(s0)
	.loc 1 1257 41
	ld	a5,-104(s0)
	.loc 1 1257 25
	ld	a4,-56(s0)
	add	a5,a4,a5
	sd	a5,-56(s0)
	.loc 1 1258 26
	lhu	a5,-26(s0)
	addiw	a5,a5,1
	sh	a5,-26(s0)
	.loc 1 1246 51 discriminator 2
	ld	a5,-48(s0)
	addi	a5,a5,1
	sd	a5,-48(s0)
.L215:
	.loc 1 1246 31 discriminator 1
	lhu	a5,-74(s0)
	mv	a4,a5
	ld	a5,-48(s0)
	bltu	a5,a4,.L218
	.loc 1 1261 9
	j	.L197
.L185:
	.loc 1 1264 16
	li	a5,4
	sd	a5,-72(s0)
	.loc 1 1265 23
	ld	a4,-24(s0)
	ld	a5,-72(s0)
	add	a5,a4,a5
	sd	a5,-56(s0)
	.loc 1 1266 19
	ld	a4,-40(s0)
	ld	a5,-72(s0)
	add	a5,a4,a5
	sd	a5,-40(s0)
	.loc 1 1269 21
	ld	a5,-24(s0)
	.loc 1 1269 69
	addi	a5,a5,2
	.loc 1 1267 9
	mv	a4,a5
	addi	a5,s0,-74
	li	a2,2
	mv	a1,a4
	mv	a0,a5
	call	CopyMem@plt
	.loc 1 1272 20
	sd	zero,-48(s0)
	.loc 1 1272 9
	j	.L219
.L222:
	.loc 1 1273 11
	addi	a4,s0,-112
	addi	a5,s0,-104
	mv	a2,a4
	mv	a1,a5
	ld	a0,-56(s0)
	call	GetUnicodeStringTextAndSize
	.loc 1 1274 14
	lbu	a5,-57(s0)
	andi	a5,a5,0xff
	beq	a5,zero,.L220
	.loc 1 1275 27
	ld	a4,-112(s0)
	ld	a5,-136(s0)
	sd	a4,0(a5)
	.loc 1 1276 20
	lhu	a5,-26(s0)
	j	.L225
.L220:
	.loc 1 1277 21
	lhu	a4,-26(s0)
	lhu	a5,-122(s0)
	sext.w	a4,a4
	sext.w	a5,a5
	bne	a4,a5,.L221
	.loc 1 1278 24
	li	a5,1
	sb	a5,-57(s0)
.L221:
	.loc 1 1281 21
	ld	a5,-104(s0)
	ld	a4,-40(s0)
	add	a5,a4,a5
	sd	a5,-40(s0)
	.loc 1 1282 41
	ld	a5,-104(s0)
	.loc 1 1282 25
	ld	a4,-56(s0)
	add	a5,a4,a5
	sd	a5,-56(s0)
	.loc 1 1283 26
	lhu	a5,-26(s0)
	addiw	a5,a5,1
	sh	a5,-26(s0)
	.loc 1 1272 51 discriminator 2
	ld	a5,-48(s0)
	addi	a5,a5,1
	sd	a5,-48(s0)
.L219:
	.loc 1 1272 31 discriminator 1
	lhu	a5,-74(s0)
	mv	a4,a5
	ld	a5,-48(s0)
	bltu	a5,a4,.L222
	.loc 1 1286 9
	j	.L197
.L184:
	.loc 1 1289 19
	ld	a5,-40(s0)
	addi	a5,a5,3
	sd	a5,-40(s0)
	.loc 1 1290 24
	lhu	a5,-26(s0)
	addiw	a5,a5,1
	sh	a5,-26(s0)
	.loc 1 1291 9
	j	.L197
.L182:
	.loc 1 1294 41
	ld	a5,-24(s0)
	.loc 1 1294 57
	addi	a5,a5,1
	.loc 1 1294 30
	lbu	a5,0(a5)
	.loc 1 1294 19
	sh	a5,-76(s0)
	.loc 1 1295 27
	lhu	a5,-76(s0)
	.loc 1 1295 25
	lhu	a4,-26(s0)
	addw	a5,a4,a5
	sh	a5,-26(s0)
	.loc 1 1296 19
	ld	a5,-40(s0)
	addi	a5,a5,2
	sd	a5,-40(s0)
	.loc 1 1297 9
	j	.L197
.L183:
	.loc 1 1300 39
	ld	a5,-24(s0)
	addi	a4,a5,1
	.loc 1 1300 9
	addi	a5,s0,-76
	li	a2,2
	mv	a1,a4
	mv	a0,a5
	call	CopyMem@plt
	.loc 1 1301 27
	lhu	a5,-76(s0)
	.loc 1 1301 25
	lhu	a4,-26(s0)
	addw	a5,a4,a5
	sh	a5,-26(s0)
	.loc 1 1302 19
	ld	a5,-40(s0)
	addi	a5,a5,3
	sd	a5,-40(s0)
	.loc 1 1303 9
	j	.L197
.L181:
	.loc 1 1308 21
	ld	a5,-24(s0)
	.loc 1 1308 69
	addi	a5,a5,2
	.loc 1 1306 9
	mv	a4,a5
	addi	a5,s0,-77
	li	a2,1
	mv	a1,a4
	mv	a0,a5
	call	CopyMem@plt
	.loc 1 1311 19
	lbu	a5,-77(s0)
	mv	a4,a5
	ld	a5,-40(s0)
	add	a5,a5,a4
	sd	a5,-40(s0)
	.loc 1 1312 9
	j	.L197
.L180:
	.loc 1 1315 9
	addi	a5,s0,-88
	li	a2,4
	ld	a1,-24(s0)
	mv	a0,a5
	call	CopyMem@plt
	.loc 1 1316 26
	lhu	a5,-86(s0)
	mv	a4,a5
	.loc 1 1316 19
	ld	a5,-40(s0)
	add	a5,a5,a4
	sd	a5,-40(s0)
	.loc 1 1317 9
	j	.L197
.L178:
	.loc 1 1322 21
	ld	a5,-24(s0)
	.loc 1 1322 69
	addi	a5,a5,2
	.loc 1 1320 9
	mv	a4,a5
	addi	a5,s0,-92
	li	a2,4
	mv	a1,a4
	mv	a0,a5
	call	CopyMem@plt
	.loc 1 1326 19
	lw	a5,-92(s0)
	slli	a5,a5,32
	srli	a5,a5,32
	ld	a4,-40(s0)
	add	a5,a4,a5
	sd	a5,-40(s0)
	.loc 1 1327 9
	j	.L197
.L226:
	.loc 1 1330 9
	nop
.L197:
	.loc 1 1333 16
	ld	a5,-112(s0)
	.loc 1 1333 8
	beq	a5,zero,.L223
	.loc 1 1334 7
	ld	a5,-112(s0)
	mv	a0,a5
	call	FreePool@plt
	.loc 1 1335 14
	sd	zero,-112(s0)
.L223:
	.loc 1 1338 29
	ld	a5,-120(s0)
	ld	a4,16(a5)
	.loc 1 1338 14
	ld	a5,-40(s0)
	add	a5,a4,a5
	sd	a5,-24(s0)
.L177:
	.loc 1 1098 10
	ld	a5,-24(s0)
	lbu	a5,0(a5)
	.loc 1 1098 20
	bne	a5,zero,.L224
	.loc 1 1341 10
	li	a5,0
.L225:
	.loc 1 1342 1
	mv	a0,a5
	ld	ra,136(sp)
	.cfi_restore 1
	ld	s0,128(sp)
	.cfi_restore 8
	.cfi_def_cfa 2, 144
	addi	sp,sp,144
	.cfi_def_cfa_offset 0
	jr	ra
	.cfi_endproc
.LFE10:
	.size	GetNextStringId, .-GetNextStringId
	.section	.rodata
	.align	3
.LC11:
	.string	"x-UEFI"
	.section	.text.GetStringIdFromRecord,"ax",@progbits
	.align	1
	.globl	GetStringIdFromRecord
	.type	GetStringIdFromRecord, @function
GetStringIdFromRecord:
.LFB11:
	.loc 1 1367 1
	.cfi_startproc
	addi	sp,sp,-112
	.cfi_def_cfa_offset 112
	sd	ra,104(sp)
	sd	s0,96(sp)
	sd	s1,88(sp)
	.cfi_offset 1, -8
	.cfi_offset 8, -16
	.cfi_offset 9, -24
	addi	s0,sp,112
	.cfi_def_cfa 8, 0
	sd	a0,-88(s0)
	sd	a1,-96(s0)
	sd	a2,-104(s0)
	sd	a3,-112(s0)
	.loc 1 1377 19
	ld	a5,-88(s0)
	ld	a5,8(a5)
	sd	a5,-64(s0)
	.loc 1 1378 10
	li	a5,1
	sw	a5,-68(s0)
	.loc 1 1380 7
	ld	a5,-96(s0)
	ld	a5,0(a5)
	.loc 1 1380 6
	beq	a5,zero,.L228
	.loc 1 1381 10
	ld	a5,-96(s0)
	ld	a5,0(a5)
	sd	a5,-56(s0)
	j	.L229
.L228:
	.loc 1 1383 10
	lla	a5,.LC11
	sd	a5,-56(s0)
.L229:
	.loc 1 1386 13
	ld	a5,-64(s0)
	ld	a5,72(a5)
	sd	a5,-40(s0)
	.loc 1 1386 3
	j	.L230
.L237:
	.loc 1 1387 23
	ld	a5,-40(s0)
	addi	a5,a5,-24
	.loc 1 1387 156
	ld	a4,0(a5)
	.loc 1 1387 241
	li	a5,1886613504
	addi	a5,a5,-1688
	bne	a4,a5,.L231
	.loc 1 1387 19 discriminator 1
	ld	a5,-40(s0)
	addi	a5,a5,-24
	sd	a5,-48(s0)
	j	.L232
.L231:
	.loc 1 1387 19 is_stmt 0 discriminator 2
	sd	zero,-48(s0)
.L232:
	.loc 1 1389 42 is_stmt 1
	ld	a5,-48(s0)
	ld	a5,8(a5)
	.loc 1 1389 56
	addi	s1,a5,46
	.loc 1 1389 9
	ld	a0,-56(s0)
	call	AsciiStrLen@plt
	mv	a5,a0
	.loc 1 1389 9 is_stmt 0 discriminator 1
	mv	a2,a5
	mv	a1,s1
	ld	a0,-56(s0)
	call	AsciiStrnCmp@plt
	mv	a5,a0
	.loc 1 1389 8 is_stmt 1 discriminator 2
	bne	a5,zero,.L233
	.loc 1 1390 16
	ld	a2,-112(s0)
	ld	a1,-104(s0)
	ld	a0,-48(s0)
	call	GetStringIdFromString
	sd	a0,-80(s0)
	.loc 1 1391 38
	ld	a5,-80(s0)
	.loc 1 1391 10
	bge	a5,zero,.L234
	.loc 1 1392 16
	li	a5,4
	j	.L235
.L234:
	.loc 1 1394 13
	ld	a5,-96(s0)
	ld	a5,0(a5)
	.loc 1 1394 12
	bne	a5,zero,.L236
	.loc 1 1395 69
	ld	a5,-48(s0)
	ld	a5,8(a5)
	.loc 1 1395 83
	addi	a5,a5,46
	.loc 1 1395 24
	mv	a0,a5
	call	AsciiStrSize@plt
	mv	a4,a0
	.loc 1 1395 109 discriminator 1
	ld	a5,-48(s0)
	ld	a5,8(a5)
	.loc 1 1395 123 discriminator 1
	addi	a5,a5,46
	.loc 1 1395 24 discriminator 1
	mv	a1,a5
	mv	a0,a4
	call	AllocateCopyPool@plt
	mv	a4,a0
	.loc 1 1395 22 discriminator 2
	ld	a5,-96(s0)
	sd	a4,0(a5)
	.loc 1 1396 15
	ld	a5,-96(s0)
	ld	a5,0(a5)
	.loc 1 1396 14
	bne	a5,zero,.L236
	.loc 1 1397 20
	li	a5,-2147483648
	j	.L235
.L236:
	.loc 1 1401 16
	li	a5,0
	j	.L235
.L233:
	.loc 1 1386 103 discriminator 2
	ld	a5,-40(s0)
	ld	a5,0(a5)
	sd	a5,-40(s0)
.L230:
	.loc 1 1386 66 discriminator 1
	ld	a5,-64(s0)
	addi	a5,a5,72
	.loc 1 1386 63 discriminator 1
	ld	a4,-40(s0)
	bne	a4,a5,.L237
	.loc 1 1406 10
	lw	a5,-68(s0)
.L235:
	.loc 1 1407 1
	mv	a0,a5
	ld	ra,104(sp)
	.cfi_restore 1
	ld	s0,96(sp)
	.cfi_restore 8
	.cfi_def_cfa 2, 112
	ld	s1,88(sp)
	.cfi_restore 9
	addi	sp,sp,112
	.cfi_def_cfa_offset 0
	jr	ra
	.cfi_endproc
.LFE11:
	.size	GetStringIdFromRecord, .-GetStringIdFromRecord
	.section	.text.IsStatementOpCode,"ax",@progbits
	.align	1
	.globl	IsStatementOpCode
	.type	IsStatementOpCode, @function
IsStatementOpCode:
.LFB12:
	.loc 1 1422 1
	.cfi_startproc
	addi	sp,sp,-32
	.cfi_def_cfa_offset 32
	sd	ra,24(sp)
	sd	s0,16(sp)
	.cfi_offset 1, -8
	.cfi_offset 8, -16
	addi	s0,sp,32
	.cfi_def_cfa 8, 0
	mv	a5,a0
	sb	a5,-17(s0)
	.loc 1 1423 6
	lbu	a5,-17(s0)
	andi	a4,a5,0xff
	li	a5,2
	beq	a4,a5,.L239
	.loc 1 1423 25 discriminator 1
	lbu	a5,-17(s0)
	andi	a4,a5,0xff
	li	a5,3
	beq	a4,a5,.L239
	.loc 1 1424 25
	lbu	a5,-17(s0)
	andi	a4,a5,0xff
	li	a5,13
	beq	a4,a5,.L239
	.loc 1 1425 25
	lbu	a5,-17(s0)
	andi	a4,a5,0xff
	li	a5,15
	beq	a4,a5,.L239
	.loc 1 1426 25
	lbu	a5,-17(s0)
	andi	a4,a5,0xff
	li	a5,12
	beq	a4,a5,.L239
	.loc 1 1427 25
	lbu	a5,-17(s0)
	andi	a4,a5,0xff
	li	a5,7
	beq	a4,a5,.L239
	.loc 1 1428 25
	lbu	a5,-17(s0)
	andi	a4,a5,0xff
	li	a5,35
	beq	a4,a5,.L239
	.loc 1 1429 25
	lbu	a5,-17(s0)
	andi	a4,a5,0xff
	li	a5,6
	beq	a4,a5,.L239
	.loc 1 1430 25
	lbu	a5,-17(s0)
	andi	a4,a5,0xff
	li	a5,28
	beq	a4,a5,.L239
	.loc 1 1431 25
	lbu	a5,-17(s0)
	andi	a4,a5,0xff
	li	a5,8
	beq	a4,a5,.L239
	.loc 1 1432 25
	lbu	a5,-17(s0)
	andi	a4,a5,0xff
	li	a5,26
	beq	a4,a5,.L239
	.loc 1 1433 25
	lbu	a5,-17(s0)
	andi	a4,a5,0xff
	li	a5,27
	beq	a4,a5,.L239
	.loc 1 1434 25
	lbu	a5,-17(s0)
	andi	a4,a5,0xff
	li	a5,95
	beq	a4,a5,.L239
	.loc 1 1435 25
	lbu	a5,-17(s0)
	andi	a4,a5,0xff
	li	a5,5
	bne	a4,a5,.L240
.L239:
	.loc 1 1438 12
	li	a5,1
	j	.L241
.L240:
	.loc 1 1441 10
	li	a5,0
.L241:
	.loc 1 1442 1
	mv	a0,a5
	ld	ra,24(sp)
	.cfi_restore 1
	ld	s0,16(sp)
	.cfi_restore 8
	.cfi_def_cfa 2, 32
	addi	sp,sp,32
	.cfi_def_cfa_offset 0
	jr	ra
	.cfi_endproc
.LFE12:
	.size	IsStatementOpCode, .-IsStatementOpCode
	.section	.text.IsStorageOpCode,"ax",@progbits
	.align	1
	.globl	IsStorageOpCode
	.type	IsStorageOpCode, @function
IsStorageOpCode:
.LFB13:
	.loc 1 1457 1
	.cfi_startproc
	addi	sp,sp,-32
	.cfi_def_cfa_offset 32
	sd	ra,24(sp)
	sd	s0,16(sp)
	.cfi_offset 1, -8
	.cfi_offset 8, -16
	addi	s0,sp,32
	.cfi_def_cfa 8, 0
	mv	a5,a0
	sb	a5,-17(s0)
	.loc 1 1458 6
	lbu	a5,-17(s0)
	andi	a4,a5,0xff
	li	a5,36
	beq	a4,a5,.L243
	.loc 1 1458 25 discriminator 1
	lbu	a5,-17(s0)
	andi	a4,a5,0xff
	li	a5,37
	beq	a4,a5,.L243
	.loc 1 1459 25
	lbu	a5,-17(s0)
	andi	a4,a5,0xff
	li	a5,38
	bne	a4,a5,.L244
.L243:
	.loc 1 1462 12
	li	a5,1
	j	.L245
.L244:
	.loc 1 1465 10
	li	a5,0
.L245:
	.loc 1 1466 1
	mv	a0,a5
	ld	ra,24(sp)
	.cfi_restore 1
	ld	s0,16(sp)
	.cfi_restore 8
	.cfi_def_cfa 2, 32
	addi	sp,sp,32
	.cfi_def_cfa_offset 0
	jr	ra
	.cfi_endproc
.LFE13:
	.size	IsStorageOpCode, .-IsStorageOpCode
	.section	.text.FindQuestionFromStringId,"ax",@progbits
	.align	1
	.globl	FindQuestionFromStringId
	.type	FindQuestionFromStringId, @function
FindQuestionFromStringId:
.LFB14:
	.loc 1 1482 1
	.cfi_startproc
	addi	sp,sp,-64
	.cfi_def_cfa_offset 64
	sd	ra,56(sp)
	sd	s0,48(sp)
	.cfi_offset 1, -8
	.cfi_offset 8, -16
	addi	s0,sp,64
	.cfi_def_cfa 8, 0
	sd	a0,-56(s0)
	mv	a5,a1
	sh	a5,-58(s0)
	.loc 1 1491 40
	ld	a5,-56(s0)
	ld	a5,8(a5)
	mv	a4,a5
	li	a5,16777216
	addi	a5,a5,-1
	and	a5,a4,a5
	sext.w	a5,a5
	.loc 1 1491 15
	addiw	a5,a5,-4
	sw	a5,-24(s0)
	.loc 1 1492 10
	sw	zero,-20(s0)
	.loc 1 1493 9
	j	.L247
.L250:
	.loc 1 1494 29
	ld	a5,-56(s0)
	ld	a4,16(a5)
	.loc 1 1494 39
	lwu	a5,-20(s0)
	.loc 1 1494 16
	add	a5,a4,a5
	sd	a5,-32(s0)
	.loc 1 1495 18
	ld	a5,-32(s0)
	sd	a5,-40(s0)
	.loc 1 1497 9
	ld	a5,-40(s0)
	lbu	a5,0(a5)
	mv	a0,a5
	call	IsStatementOpCode
	mv	a5,a0
	.loc 1 1497 8 discriminator 1
	beq	a5,zero,.L248
	.loc 1 1498 23
	ld	a5,-32(s0)
	addi	a5,a5,2
	sd	a5,-48(s0)
	.loc 1 1499 26
	ld	a5,-48(s0)
	lbu	a4,0(a5)
	lbu	a5,1(a5)
	slli	a5,a5,8
	or	a5,a5,a4
	slli	a5,a5,48
	srli	a5,a5,48
	.loc 1 1499 10
	lhu	a4,-58(s0)
	sext.w	a4,a4
	sext.w	a5,a5
	bne	a4,a5,.L248
	.loc 1 1500 16
	ld	a5,-32(s0)
	j	.L249
.L248:
	.loc 1 1504 27
	ld	a5,-40(s0)
	lbu	a5,1(a5)
	andi	a5,a5,127
	andi	a5,a5,0xff
	sext.w	a5,a5
	.loc 1 1504 12
	lw	a4,-20(s0)
	addw	a5,a4,a5
	sw	a5,-20(s0)
.L247:
	.loc 1 1493 17
	lw	a5,-20(s0)
	mv	a4,a5
	lw	a5,-24(s0)
	sext.w	a4,a4
	sext.w	a5,a5
	bltu	a4,a5,.L250
	.loc 1 1507 10
	li	a5,0
.L249:
	.loc 1 1508 1
	mv	a0,a5
	ld	ra,56(sp)
	.cfi_restore 1
	ld	s0,48(sp)
	.cfi_restore 8
	.cfi_def_cfa 2, 64
	addi	sp,sp,64
	.cfi_def_cfa_offset 0
	jr	ra
	.cfi_endproc
.LFE14:
	.size	FindQuestionFromStringId, .-FindQuestionFromStringId
	.section	.text.FindStorageFromVarId,"ax",@progbits
	.align	1
	.globl	FindStorageFromVarId
	.type	FindStorageFromVarId, @function
FindStorageFromVarId:
.LFB15:
	.loc 1 1524 1
	.cfi_startproc
	addi	sp,sp,-64
	.cfi_def_cfa_offset 64
	sd	ra,56(sp)
	sd	s0,48(sp)
	.cfi_offset 1, -8
	.cfi_offset 8, -16
	addi	s0,sp,64
	.cfi_def_cfa 8, 0
	sd	a0,-56(s0)
	mv	a5,a1
	sh	a5,-58(s0)
	.loc 1 1532 40
	ld	a5,-56(s0)
	ld	a5,8(a5)
	mv	a4,a5
	li	a5,16777216
	addi	a5,a5,-1
	and	a5,a4,a5
	sext.w	a5,a5
	.loc 1 1532 15
	addiw	a5,a5,-4
	sw	a5,-24(s0)
	.loc 1 1533 10
	sw	zero,-20(s0)
	.loc 1 1534 9
	j	.L252
.L262:
	.loc 1 1535 29
	ld	a5,-56(s0)
	ld	a4,16(a5)
	.loc 1 1535 39
	lwu	a5,-20(s0)
	.loc 1 1535 16
	add	a5,a4,a5
	sd	a5,-32(s0)
	.loc 1 1536 18
	ld	a5,-32(s0)
	sd	a5,-40(s0)
	.loc 1 1538 9
	ld	a5,-40(s0)
	lbu	a5,0(a5)
	mv	a0,a5
	call	IsStorageOpCode
	mv	a5,a0
	.loc 1 1538 8 discriminator 1
	beq	a5,zero,.L253
	.loc 1 1539 27
	ld	a5,-40(s0)
	lbu	a5,0(a5)
	sext.w	a5,a5
	.loc 1 1539 7
	li	a4,38
	beq	a5,a4,.L254
	li	a4,38
	bgt	a5,a4,.L263
	li	a4,36
	beq	a5,a4,.L256
	li	a4,37
	beq	a5,a4,.L257
	.loc 1 1562 11
	j	.L263
.L256:
	.loc 1 1541 61
	ld	a5,-32(s0)
	lbu	a4,18(a5)
	lbu	a5,19(a5)
	slli	a5,a5,8
	or	a5,a5,a4
	slli	a5,a5,48
	srli	a5,a5,48
	.loc 1 1541 14
	lhu	a4,-58(s0)
	sext.w	a4,a4
	sext.w	a5,a5
	bne	a4,a5,.L264
	.loc 1 1542 20
	ld	a5,-32(s0)
	j	.L259
.L257:
	.loc 1 1548 72
	ld	a5,-32(s0)
	lbu	a4,2(a5)
	lbu	a5,3(a5)
	slli	a5,a5,8
	or	a5,a5,a4
	slli	a5,a5,48
	srli	a5,a5,48
	.loc 1 1548 14
	lhu	a4,-58(s0)
	sext.w	a4,a4
	sext.w	a5,a5
	bne	a4,a5,.L265
	.loc 1 1549 20
	ld	a5,-32(s0)
	j	.L259
.L254:
	.loc 1 1555 65
	ld	a5,-32(s0)
	lbu	a4,2(a5)
	lbu	a5,3(a5)
	slli	a5,a5,8
	or	a5,a5,a4
	slli	a5,a5,48
	srli	a5,a5,48
	.loc 1 1555 14
	lhu	a4,-58(s0)
	sext.w	a4,a4
	sext.w	a5,a5
	bne	a4,a5,.L266
	.loc 1 1556 20
	ld	a5,-32(s0)
	j	.L259
.L263:
	.loc 1 1562 11
	nop
	j	.L253
.L264:
	.loc 1 1545 11
	nop
	j	.L253
.L265:
	.loc 1 1552 11
	nop
	j	.L253
.L266:
	.loc 1 1559 11
	nop
.L253:
	.loc 1 1566 27
	ld	a5,-40(s0)
	lbu	a5,1(a5)
	andi	a5,a5,127
	andi	a5,a5,0xff
	sext.w	a5,a5
	.loc 1 1566 12
	lw	a4,-20(s0)
	addw	a5,a4,a5
	sw	a5,-20(s0)
.L252:
	.loc 1 1534 17
	lw	a5,-20(s0)
	mv	a4,a5
	lw	a5,-24(s0)
	sext.w	a4,a4
	sext.w	a5,a5
	bltu	a4,a5,.L262
	.loc 1 1569 10
	li	a5,0
.L259:
	.loc 1 1570 1
	mv	a0,a5
	ld	ra,56(sp)
	.cfi_restore 1
	ld	s0,48(sp)
	.cfi_restore 8
	.cfi_def_cfa 2, 64
	addi	sp,sp,64
	.cfi_def_cfa_offset 0
	jr	ra
	.cfi_endproc
.LFE15:
	.size	FindStorageFromVarId, .-FindStorageFromVarId
	.section	.text.GetWidth,"ax",@progbits
	.align	1
	.globl	GetWidth
	.type	GetWidth, @function
GetWidth:
.LFB16:
	.loc 1 1584 1
	.cfi_startproc
	addi	sp,sp,-48
	.cfi_def_cfa_offset 48
	sd	ra,40(sp)
	sd	s0,32(sp)
	.cfi_offset 1, -8
	.cfi_offset 8, -16
	addi	s0,sp,48
	.cfi_def_cfa 8, 0
	sd	a0,-40(s0)
	.loc 1 1589 44
	ld	a5,-40(s0)
	lbu	a5,0(a5)
	sext.w	a5,a5
	.loc 1 1589 3
	li	a4,35
	beq	a5,a4,.L268
	li	a4,35
	bgt	a5,a4,.L269
	li	a4,28
	beq	a5,a4,.L270
	li	a4,28
	bgt	a5,a4,.L269
	li	a4,27
	beq	a5,a4,.L271
	li	a4,27
	bgt	a5,a4,.L269
	li	a4,26
	beq	a5,a4,.L272
	li	a4,26
	bgt	a5,a4,.L269
	li	a4,15
	beq	a5,a4,.L273
	li	a4,15
	bgt	a5,a4,.L269
	li	a4,8
	beq	a5,a4,.L274
	li	a4,8
	bgt	a5,a4,.L269
	li	a4,7
	beq	a5,a4,.L275
	li	a4,7
	bgt	a5,a4,.L269
	li	a4,5
	beq	a5,a4,.L275
	li	a4,6
	beq	a5,a4,.L276
	j	.L269
.L273:
	.loc 1 1591 14
	li	a5,22
	j	.L277
.L275:
	.loc 1 1595 45
	ld	a5,-40(s0)
	lbu	a5,13(a5)
	.loc 1 1595 53
	sext.w	a5,a5
	andi	a5,a5,3
	sext.w	a5,a5
	.loc 1 1595 7
	li	a4,3
	beq	a5,a4,.L278
	li	a4,3
	bgt	a5,a4,.L279
	li	a4,2
	beq	a5,a4,.L280
	li	a4,2
	bgt	a5,a4,.L279
	beq	a5,zero,.L281
	li	a4,1
	beq	a5,a4,.L282
	j	.L279
.L281:
	.loc 1 1597 18
	li	a5,1
	j	.L277
.L282:
	.loc 1 1600 18
	li	a5,2
	j	.L277
.L280:
	.loc 1 1603 18
	li	a5,4
	j	.L277
.L278:
	.loc 1 1606 18
	li	a5,8
	j	.L277
.L279:
	.loc 1 1610 18
	li	a5,0
	j	.L277
.L268:
	.loc 1 1614 81
	ld	a5,-40(s0)
	lbu	a5,1(a5)
	andi	a5,a5,127
	andi	a5,a5,0xff
	mv	a4,a5
	.loc 1 1614 22
	ld	a5,-40(s0)
	add	a5,a5,a4
	sd	a5,-24(s0)
	.loc 1 1619 56
	ld	a5,-24(s0)
	lbu	a5,5(a5)
	sext.w	a5,a5
	.loc 1 1619 7
	li	a4,3
	beq	a5,a4,.L283
	li	a4,3
	bgt	a5,a4,.L284
	li	a4,2
	beq	a5,a4,.L285
	li	a4,2
	bgt	a5,a4,.L284
	beq	a5,zero,.L286
	li	a4,1
	beq	a5,a4,.L287
	j	.L284
.L286:
	.loc 1 1621 79
	ld	a5,-40(s0)
	lbu	a5,13(a5)
	.loc 1 1621 41
	j	.L277
.L287:
	.loc 1 1624 80
	ld	a5,-40(s0)
	lbu	a5,13(a5)
	.loc 1 1624 42
	slliw	a5,a5,1
	slli	a5,a5,48
	srli	a5,a5,48
	j	.L277
.L285:
	.loc 1 1627 80
	ld	a5,-40(s0)
	lbu	a5,13(a5)
	.loc 1 1627 42
	slliw	a5,a5,2
	slli	a5,a5,48
	srli	a5,a5,48
	j	.L277
.L283:
	.loc 1 1630 80
	ld	a5,-40(s0)
	lbu	a5,13(a5)
	.loc 1 1630 42
	slliw	a5,a5,3
	slli	a5,a5,48
	srli	a5,a5,48
	j	.L277
.L284:
	.loc 1 1634 18
	li	a5,0
	j	.L277
.L276:
	.loc 1 1638 14
	li	a5,1
	j	.L277
.L274:
	.loc 1 1641 62
	ld	a5,-40(s0)
	lbu	a4,15(a5)
	lbu	a5,16(a5)
	slli	a5,a5,8
	or	a5,a5,a4
	slli	a5,a5,48
	srli	a5,a5,48
	.loc 1 1641 14
	slliw	a5,a5,1
	slli	a5,a5,48
	srli	a5,a5,48
	j	.L277
.L270:
	.loc 1 1644 60
	ld	a5,-40(s0)
	lbu	a5,14(a5)
	.loc 1 1644 14
	slliw	a5,a5,1
	slli	a5,a5,48
	srli	a5,a5,48
	j	.L277
.L272:
	.loc 1 1647 14
	li	a5,4
	j	.L277
.L271:
	.loc 1 1650 14
	li	a5,3
	j	.L277
.L269:
	.loc 1 1654 14
	li	a5,0
.L277:
	.loc 1 1656 1
	mv	a0,a5
	ld	ra,40(sp)
	.cfi_restore 1
	ld	s0,32(sp)
	.cfi_restore 8
	.cfi_def_cfa 2, 48
	addi	sp,sp,48
	.cfi_def_cfa_offset 0
	jr	ra
	.cfi_endproc
.LFE16:
	.size	GetWidth, .-GetWidth
	.section	.text.InternalLowerConfigString,"ax",@progbits
	.align	1
	.globl	InternalLowerConfigString
	.type	InternalLowerConfigString, @function
InternalLowerConfigString:
.LFB17:
	.loc 1 1674 1
	.cfi_startproc
	addi	sp,sp,-48
	.cfi_def_cfa_offset 48
	sd	ra,40(sp)
	sd	s0,32(sp)
	.cfi_offset 1, -8
	.cfi_offset 8, -16
	addi	s0,sp,48
	.cfi_def_cfa 8, 0
	sd	a0,-40(s0)
	.loc 1 1683 15
	ld	a5,-40(s0)
	sd	a5,-24(s0)
	.loc 1 1683 37
	sb	zero,-25(s0)
	.loc 1 1683 3
	j	.L289
.L293:
	.loc 1 1684 9
	ld	a5,-24(s0)
	lhu	a5,0(a5)
	.loc 1 1684 8
	sext.w	a4,a5
	li	a5,61
	bne	a4,a5,.L290
	.loc 1 1685 13
	li	a5,1
	sb	a5,-25(s0)
	j	.L291
.L290:
	.loc 1 1686 16
	ld	a5,-24(s0)
	lhu	a5,0(a5)
	.loc 1 1686 15
	sext.w	a4,a5
	li	a5,38
	bne	a4,a5,.L292
	.loc 1 1687 13
	sb	zero,-25(s0)
	j	.L291
.L292:
	.loc 1 1688 15
	lbu	a5,-25(s0)
	andi	a5,a5,0xff
	beq	a5,zero,.L291
	.loc 1 1688 26 discriminator 1
	ld	a5,-24(s0)
	lhu	a5,0(a5)
	.loc 1 1688 22 discriminator 1
	sext.w	a4,a5
	li	a5,64
	bleu	a4,a5,.L291
	.loc 1 1688 47 discriminator 2
	ld	a5,-24(s0)
	lhu	a5,0(a5)
	.loc 1 1688 43 discriminator 2
	sext.w	a4,a5
	li	a5,70
	bgtu	a4,a5,.L291
	.loc 1 1689 26
	ld	a5,-24(s0)
	lhu	a5,0(a5)
	.loc 1 1689 17
	addiw	a5,a5,32
	slli	a4,a5,48
	srli	a4,a4,48
	.loc 1 1689 15
	ld	a5,-24(s0)
	sh	a4,0(a5)
.L291:
	.loc 1 1683 82 discriminator 2
	ld	a5,-24(s0)
	addi	a5,a5,2
	sd	a5,-24(s0)
.L289:
	.loc 1 1683 58 discriminator 1
	ld	a5,-24(s0)
	lhu	a5,0(a5)
	.loc 1 1683 66 discriminator 1
	bne	a5,zero,.L293
	.loc 1 1693 10
	ld	a5,-40(s0)
	.loc 1 1694 1
	mv	a0,a5
	ld	ra,40(sp)
	.cfi_restore 1
	ld	s0,32(sp)
	.cfi_restore 8
	.cfi_def_cfa 2, 48
	addi	sp,sp,48
	.cfi_def_cfa_offset 0
	jr	ra
	.cfi_endproc
.LFE17:
	.size	InternalLowerConfigString, .-InternalLowerConfigString
	.section	.rodata
	.align	3
.LC12:
	.string	"G"
	.string	"U"
	.string	"I"
	.string	"D"
	.string	"="
	.zero	2
	.align	3
.LC13:
	.string	"&"
	.string	"N"
	.string	"A"
	.string	"M"
	.string	"E"
	.string	"="
	.zero	2
	.align	3
.LC14:
	.string	"&"
	.string	"P"
	.string	"A"
	.string	"T"
	.string	"H"
	.string	"="
	.zero	2
	.section	.text.ConstructConfigHdr,"ax",@progbits
	.align	1
	.globl	ConstructConfigHdr
	.type	ConstructConfigHdr, @function
ConstructConfigHdr:
.LFB18:
	.loc 1 1718 1
	.cfi_startproc
	addi	sp,sp,-128
	.cfi_def_cfa_offset 128
	sd	ra,120(sp)
	sd	s0,112(sp)
	.cfi_offset 1, -8
	.cfi_offset 8, -16
	addi	s0,sp,128
	.cfi_def_cfa 8, 0
	sd	a0,-120(s0)
	sd	a1,-128(s0)
	.loc 1 1734 44
	ld	a5,-120(s0)
	lbu	a5,0(a5)
	sext.w	a5,a5
	.loc 1 1734 3
	li	a4,38
	beq	a5,a4,.L296
	li	a4,38
	bgt	a5,a4,.L297
	li	a4,36
	beq	a5,a4,.L298
	li	a4,37
	beq	a5,a4,.L299
	j	.L297
.L298:
	.loc 1 1736 12
	ld	a5,-120(s0)
	addi	a5,a5,2
	sd	a5,-88(s0)
	.loc 1 1737 17
	ld	a5,-120(s0)
	addi	a5,a5,22
	sd	a5,-80(s0)
	.loc 1 1738 7
	j	.L300
.L299:
	.loc 1 1741 12
	ld	a5,-120(s0)
	addi	a5,a5,4
	sd	a5,-88(s0)
	.loc 1 1742 17
	sd	zero,-80(s0)
	.loc 1 1743 7
	j	.L300
.L296:
	.loc 1 1746 12
	ld	a5,-120(s0)
	addi	a5,a5,4
	sd	a5,-88(s0)
	.loc 1 1747 17
	ld	a5,-120(s0)
	addi	a5,a5,26
	sd	a5,-80(s0)
	.loc 1 1748 7
	j	.L300
.L297:
	.loc 1 1752 12
	sd	zero,-88(s0)
	.loc 1 1753 17
	sd	zero,-80(s0)
	.loc 1 1754 7
	nop
.L300:
	.loc 1 1757 6
	ld	a5,-80(s0)
	beq	a5,zero,.L301
	.loc 1 1758 16
	ld	a0,-80(s0)
	call	AsciiStrSize@plt
	sd	a0,-96(s0)
	.loc 1 1759 39
	ld	a5,-96(s0)
	slli	a5,a5,1
	.loc 1 1759 12
	mv	a0,a5
	call	AllocateZeroPool@plt
	sd	a0,-72(s0)
	.loc 1 1761 5
	ld	a2,-96(s0)
	ld	a1,-72(s0)
	ld	a0,-80(s0)
	call	AsciiStrToUnicodeStrS@plt
	j	.L302
.L301:
	.loc 1 1763 10
	sd	zero,-72(s0)
.L302:
	.loc 1 1770 14
	sd	zero,-24(s0)
	.loc 1 1771 6
	ld	a5,-72(s0)
	beq	a5,zero,.L303
	.loc 1 1772 18
	ld	a0,-72(s0)
	call	StrLen@plt
	sd	a0,-24(s0)
.L303:
	.loc 1 1775 14
	sd	zero,-32(s0)
	.loc 1 1776 18
	sd	zero,-40(s0)
	.loc 1 1780 6
	ld	a5,-128(s0)
	beq	a5,zero,.L304
	.loc 1 1781 18
	ld	a0,-128(s0)
	call	DevicePathFromHandle@plt
	sd	a0,-32(s0)
	.loc 1 1782 8
	ld	a5,-32(s0)
	bne	a5,zero,.L305
	.loc 1 1783 14
	li	a5,0
	j	.L306
.L305:
	.loc 1 1789 22
	ld	a0,-32(s0)
	call	GetDevicePathSize@plt
	sd	a0,-40(s0)
.L304:
	.loc 1 1796 63
	ld	a5,-24(s0)
	slli	a4,a5,1
	ld	a5,-40(s0)
	add	a5,a4,a5
	.loc 1 1796 84
	addi	a5,a5,25
	.loc 1 1796 10
	slli	a5,a5,1
	sd	a5,-104(s0)
	.loc 1 1797 37
	ld	a5,-104(s0)
	slli	a5,a5,1
	.loc 1 1797 12
	mv	a0,a5
	call	AllocateZeroPool@plt
	sd	a0,-48(s0)
	.loc 1 1798 6
	ld	a5,-48(s0)
	bne	a5,zero,.L307
	.loc 1 1799 12
	li	a5,0
	j	.L306
.L307:
	.loc 1 1805 3
	lla	a2,.LC12
	ld	a1,-104(s0)
	ld	a0,-48(s0)
	call	StrCpyS@plt
	.loc 1 1806 16
	ld	a5,-48(s0)
	sd	a5,-112(s0)
	.loc 1 1807 13
	ld	a0,-48(s0)
	call	StrLen@plt
	mv	a5,a0
	.loc 1 1807 10 discriminator 1
	slli	a5,a5,1
	ld	a4,-48(s0)
	add	a5,a4,a5
	sd	a5,-48(s0)
	.loc 1 1809 6
	ld	a5,-88(s0)
	beq	a5,zero,.L308
	.loc 1 1813 16
	sd	zero,-56(s0)
	.loc 1 1813 28
	ld	a5,-88(s0)
	sd	a5,-64(s0)
	.loc 1 1813 5
	j	.L309
.L310:
	.loc 1 1816 16
	ld	a5,-104(s0)
	slli	a4,a5,1
	.loc 1 1816 53
	ld	a3,-112(s0)
	.loc 1 1816 37
	ld	a5,-48(s0)
	.loc 1 1816 34
	sub	a5,a3,a5
	add	a1,a4,a5
	.loc 1 1818 17
	ld	a5,-64(s0)
	addi	a4,a5,1
	sd	a4,-64(s0)
	.loc 1 1818 9
	lbu	a5,0(a5)
	.loc 1 1814 7
	li	a4,2
	mv	a3,a5
	li	a2,160
	ld	a0,-48(s0)
	call	UnicodeValueToStringS@plt
	.loc 1 1821 45
	ld	a4,-48(s0)
	.loc 1 1821 61
	ld	a5,-112(s0)
	.loc 1 1821 59
	sub	a5,a4,a5
	.loc 1 1821 82
	srli	a5,a5,1
	.loc 1 1821 42
	ld	a4,-104(s0)
	sub	a5,a4,a5
	.loc 1 1821 17
	mv	a1,a5
	ld	a0,-48(s0)
	call	StrnLenS@plt
	mv	a5,a0
	.loc 1 1821 14 discriminator 1
	slli	a5,a5,1
	ld	a4,-48(s0)
	add	a5,a4,a5
	sd	a5,-48(s0)
	.loc 1 1813 77 discriminator 3
	ld	a5,-56(s0)
	addi	a5,a5,1
	sd	a5,-56(s0)
.L309:
	.loc 1 1813 51 discriminator 1
	ld	a4,-56(s0)
	li	a5,15
	bleu	a4,a5,.L310
.L308:
	.loc 1 1828 3
	lla	a2,.LC13
	ld	a1,-104(s0)
	ld	a0,-112(s0)
	call	StrCatS@plt
	.loc 1 1829 13
	ld	a0,-48(s0)
	call	StrLen@plt
	mv	a5,a0
	.loc 1 1829 10 discriminator 1
	slli	a5,a5,1
	ld	a4,-48(s0)
	add	a5,a4,a5
	sd	a5,-48(s0)
	.loc 1 1831 6
	ld	a5,-72(s0)
	beq	a5,zero,.L311
	.loc 1 1835 5
	j	.L312
.L313:
	.loc 1 1838 16
	ld	a5,-104(s0)
	slli	a4,a5,1
	.loc 1 1838 53
	ld	a3,-112(s0)
	.loc 1 1838 37
	ld	a5,-48(s0)
	.loc 1 1838 34
	sub	a5,a3,a5
	add	a1,a4,a5
	.loc 1 1840 9
	ld	a5,-72(s0)
	lhu	a5,0(a5)
	.loc 1 1836 7
	li	a4,4
	mv	a3,a5
	li	a2,160
	ld	a0,-48(s0)
	call	UnicodeValueToStringS@plt
	.loc 1 1843 45
	ld	a4,-48(s0)
	.loc 1 1843 61
	ld	a5,-112(s0)
	.loc 1 1843 59
	sub	a5,a4,a5
	.loc 1 1843 82
	srli	a5,a5,1
	.loc 1 1843 42
	ld	a4,-104(s0)
	sub	a5,a4,a5
	.loc 1 1843 17
	mv	a1,a5
	ld	a0,-48(s0)
	call	StrnLenS@plt
	mv	a5,a0
	.loc 1 1843 14 discriminator 1
	slli	a5,a5,1
	ld	a4,-48(s0)
	add	a5,a4,a5
	sd	a5,-48(s0)
	.loc 1 1835 33 discriminator 2
	ld	a5,-72(s0)
	addi	a5,a5,2
	sd	a5,-72(s0)
.L312:
	.loc 1 1835 13 discriminator 1
	ld	a5,-72(s0)
	lhu	a5,0(a5)
	.loc 1 1835 19 discriminator 1
	bne	a5,zero,.L313
.L311:
	.loc 1 1850 3
	lla	a2,.LC14
	ld	a1,-104(s0)
	ld	a0,-112(s0)
	call	StrCatS@plt
	.loc 1 1851 13
	ld	a0,-48(s0)
	call	StrLen@plt
	mv	a5,a0
	.loc 1 1851 10 discriminator 1
	slli	a5,a5,1
	ld	a4,-48(s0)
	add	a5,a4,a5
	sd	a5,-48(s0)
	.loc 1 1856 14
	sd	zero,-56(s0)
	.loc 1 1856 26
	ld	a5,-32(s0)
	sd	a5,-64(s0)
	.loc 1 1856 3
	j	.L314
.L315:
	.loc 1 1859 14
	ld	a5,-104(s0)
	slli	a4,a5,1
	.loc 1 1859 51
	ld	a3,-112(s0)
	.loc 1 1859 35
	ld	a5,-48(s0)
	.loc 1 1859 32
	sub	a5,a3,a5
	add	a1,a4,a5
	.loc 1 1861 15
	ld	a5,-64(s0)
	addi	a4,a5,1
	sd	a4,-64(s0)
	.loc 1 1861 7
	lbu	a5,0(a5)
	.loc 1 1857 5
	li	a4,2
	mv	a3,a5
	li	a2,160
	ld	a0,-48(s0)
	call	UnicodeValueToStringS@plt
	.loc 1 1864 43
	ld	a4,-48(s0)
	.loc 1 1864 59
	ld	a5,-112(s0)
	.loc 1 1864 57
	sub	a5,a4,a5
	.loc 1 1864 80
	srli	a5,a5,1
	.loc 1 1864 40
	ld	a4,-104(s0)
	sub	a5,a4,a5
	.loc 1 1864 15
	mv	a1,a5
	ld	a0,-48(s0)
	call	StrnLenS@plt
	mv	a5,a0
	.loc 1 1864 12 discriminator 1
	slli	a5,a5,1
	ld	a4,-48(s0)
	add	a5,a4,a5
	sd	a5,-48(s0)
	.loc 1 1856 78 discriminator 3
	ld	a5,-56(s0)
	addi	a5,a5,1
	sd	a5,-56(s0)
.L314:
	.loc 1 1856 55 discriminator 1
	ld	a4,-56(s0)
	ld	a5,-40(s0)
	bltu	a4,a5,.L315
	.loc 1 1870 11
	ld	a5,-48(s0)
	sh	zero,0(a5)
	.loc 1 1875 10
	ld	a0,-112(s0)
	call	InternalLowerConfigString
	mv	a5,a0
.L306:
	.loc 1 1876 1
	mv	a0,a5
	ld	ra,120(sp)
	.cfi_restore 1
	ld	s0,112(sp)
	.cfi_restore 8
	.cfi_def_cfa 2, 128
	addi	sp,sp,128
	.cfi_def_cfa_offset 0
	jr	ra
	.cfi_endproc
.LFE18:
	.size	ConstructConfigHdr, .-ConstructConfigHdr
	.section	.rodata
	.align	3
.LC15:
	.string	"%"
	.string	"s"
	.zero	2
	.align	3
.LC16:
	.string	"O"
	.string	"F"
	.string	"F"
	.string	"S"
	.string	"E"
	.string	"T"
	.string	"="
	.string	"%"
	.string	"0"
	.string	"4"
	.string	"X"
	.string	"&"
	.string	"W"
	.string	"I"
	.string	"D"
	.string	"T"
	.string	"H"
	.string	"="
	.string	"%"
	.string	"0"
	.string	"4"
	.string	"X"
	.zero	2
	.section	.text.ConstructRequestElement,"ax",@progbits
	.align	1
	.globl	ConstructRequestElement
	.type	ConstructRequestElement, @function
ConstructRequestElement:
.LFB19:
	.loc 1 1894 1
	.cfi_startproc
	addi	sp,sp,-48
	.cfi_def_cfa_offset 48
	sd	ra,40(sp)
	sd	s0,32(sp)
	.cfi_offset 1, -8
	.cfi_offset 8, -16
	addi	s0,sp,48
	.cfi_def_cfa 8, 0
	sd	a0,-40(s0)
	mv	a5,a1
	mv	a4,a2
	sh	a5,-42(s0)
	mv	a5,a4
	sh	a5,-44(s0)
	.loc 1 1898 6
	ld	a5,-40(s0)
	beq	a5,zero,.L317
	.loc 1 1905 14
	ld	a0,-40(s0)
	call	StrLen@plt
	mv	a5,a0
	.loc 1 1905 12 discriminator 1
	addi	a5,a5,1
	sd	a5,-24(s0)
	j	.L318
.L317:
	.loc 1 1913 12
	li	a5,23
	sd	a5,-24(s0)
.L318:
	.loc 1 1919 40
	ld	a5,-24(s0)
	slli	a5,a5,1
	.loc 1 1919 15
	mv	a0,a5
	call	AllocateZeroPool@plt
	sd	a0,-32(s0)
	.loc 1 1922 6
	ld	a5,-40(s0)
	beq	a5,zero,.L319
	.loc 1 1928 8
	ld	a0,-40(s0)
	call	StrLen@plt
	mv	a5,a0
	.loc 1 1928 22 discriminator 1
	addi	a5,a5,1
	.loc 1 1928 27 discriminator 1
	slli	a5,a5,1
	.loc 1 1926 5
	ld	a3,-40(s0)
	lla	a2,.LC15
	mv	a1,a5
	ld	a0,-32(s0)
	call	UnicodeSPrint@plt
	j	.L320
.L319:
	.loc 1 1936 5
	lhu	a5,-42(s0)
	sext.w	a5,a5
	lhu	a4,-44(s0)
	sext.w	a4,a4
	mv	a3,a5
	lla	a2,.LC16
	li	a1,46
	ld	a0,-32(s0)
	call	UnicodeSPrint@plt
.L320:
	.loc 1 1945 10
	ld	a5,-32(s0)
	.loc 1 1946 1
	mv	a0,a5
	ld	ra,40(sp)
	.cfi_restore 1
	ld	s0,32(sp)
	.cfi_restore 8
	.cfi_def_cfa 2, 48
	addi	sp,sp,48
	.cfi_def_cfa_offset 0
	jr	ra
	.cfi_endproc
.LFE19:
	.size	ConstructRequestElement, .-ConstructRequestElement
	.section	.rodata
	.align	3
.LC17:
	.string	"P"
	.string	"l"
	.string	"a"
	.string	"t"
	.string	"f"
	.string	"o"
	.string	"r"
	.string	"m"
	.string	"L"
	.string	"a"
	.string	"n"
	.string	"g"
	.zero	2
	.align	3
.LC18:
	.string	""
	.align	3
.LC19:
	.string	"en-US"
	.section	.text.GetNameFromId,"ax",@progbits
	.align	1
	.globl	GetNameFromId
	.type	GetNameFromId, @function
GetNameFromId:
.LFB20:
	.loc 1 1962 1
	.cfi_startproc
	addi	sp,sp,-96
	.cfi_def_cfa_offset 96
	sd	ra,88(sp)
	sd	s0,80(sp)
	.cfi_offset 1, -8
	.cfi_offset 8, -16
	addi	s0,sp,96
	.cfi_def_cfa 8, 0
	sd	a0,-88(s0)
	mv	a5,a1
	sh	a5,-90(s0)
	.loc 1 1971 8
	sd	zero,-24(s0)
	.loc 1 1972 16
	sd	zero,-32(s0)
	.loc 1 1973 20
	sd	zero,-56(s0)
	.loc 1 1974 22
	sd	zero,-40(s0)
	.loc 1 1976 3
	addi	a5,s0,-56
	li	a2,0
	mv	a1,a5
	lla	a0,.LC17
	call	GetEfiGlobalVariable2@plt
	.loc 1 1977 24
	ld	a5,-88(s0)
	ld	a5,24(a5)
	mv	a0,a5
	call	GetSupportedLanguages@plt
	sd	a0,-40(s0)
	.loc 1 1985 37
	ld	a5,-56(s0)
	.loc 1 1982 18
	beq	a5,zero,.L323
	.loc 1 1982 18 is_stmt 0 discriminator 1
	ld	a5,-56(s0)
	j	.L324
.L323:
	.loc 1 1982 18 discriminator 2
	lla	a5,.LC18
.L324:
	.loc 1 1982 18 discriminator 4
	li	a4,0
	ld	a3,-40(s0)
	mv	a2,a5
	li	a1,0
	ld	a0,-40(s0)
	call	GetBestLanguage@plt
	sd	a0,-32(s0)
	.loc 1 1989 6 is_stmt 1
	ld	a5,-32(s0)
	bne	a5,zero,.L325
	.loc 1 1990 20
	lla	a1,.LC19
	li	a0,6
	call	AllocateCopyPool@plt
	sd	a0,-32(s0)
.L325:
	.loc 1 1994 14
	sd	zero,-64(s0)
	.loc 1 1995 30
	la	a5,mPrivate
	ld	a7,168(a5)
	.loc 1 1995 12
	ld	a5,-88(s0)
	ld	a2,24(a5)
	addi	a5,s0,-64
	addi	a4,s0,-66
	lhu	a3,-90(s0)
	li	a6,0
	ld	a1,-32(s0)
	la	a0,mPrivate
	addi	a0,a0,160
	jalr	a7
.LVL0:
	sd	a0,-48(s0)
	.loc 1 2004 6
	ld	a4,-48(s0)
	li	a5,-1
	slli	a5,a5,63
	addi	a5,a5,5
	bne	a4,a5,.L333
	.loc 1 2008 10
	ld	a5,-64(s0)
	mv	a0,a5
	call	AllocateZeroPool@plt
	sd	a0,-24(s0)
	.loc 1 2009 6
	ld	a5,-24(s0)
	beq	a5,zero,.L334
	.loc 1 2013 30
	la	a5,mPrivate
	ld	a7,168(a5)
	.loc 1 2013 12
	ld	a5,-88(s0)
	ld	a2,24(a5)
	addi	a5,s0,-64
	lhu	a3,-90(s0)
	li	a6,0
	ld	a4,-24(s0)
	ld	a1,-32(s0)
	la	a0,mPrivate
	addi	a0,a0,160
	jalr	a7
.LVL1:
	sd	a0,-48(s0)
	.loc 1 2023 34
	ld	a5,-48(s0)
	.loc 1 2023 6
	bge	a5,zero,.L335
	.loc 1 2024 5
	ld	a0,-24(s0)
	call	FreePool@plt
	.loc 1 2025 10
	sd	zero,-24(s0)
	.loc 1 2026 5
	j	.L327
.L333:
	.loc 1 2005 5
	nop
	j	.L327
.L334:
	.loc 1 2010 5
	nop
	j	.L327
.L335:
	.loc 1 2029 1
	nop
.L327:
	.loc 1 2030 6
	ld	a5,-40(s0)
	beq	a5,zero,.L329
	.loc 1 2031 5
	ld	a0,-40(s0)
	call	FreePool@plt
.L329:
	.loc 1 2034 6
	ld	a5,-32(s0)
	beq	a5,zero,.L330
	.loc 1 2035 5
	ld	a0,-32(s0)
	call	FreePool@plt
.L330:
	.loc 1 2038 24
	ld	a5,-56(s0)
	.loc 1 2038 6
	beq	a5,zero,.L331
	.loc 1 2039 5
	ld	a5,-56(s0)
	mv	a0,a5
	call	FreePool@plt
.L331:
	.loc 1 2042 10
	ld	a5,-24(s0)
	.loc 1 2043 1
	mv	a0,a5
	ld	ra,88(sp)
	.cfi_restore 1
	ld	s0,80(sp)
	.cfi_restore 8
	.cfi_def_cfa 2, 96
	addi	sp,sp,96
	.cfi_def_cfa_offset 0
	jr	ra
	.cfi_endproc
.LFE20:
	.size	GetNameFromId, .-GetNameFromId
	.section	.text.ExtractConfigRequest,"ax",@progbits
	.align	1
	.globl	ExtractConfigRequest
	.type	ExtractConfigRequest, @function
ExtractConfigRequest:
.LFB21:
	.loc 1 2067 1
	.cfi_startproc
	addi	sp,sp,-160
	.cfi_def_cfa_offset 160
	sd	ra,152(sp)
	sd	s0,144(sp)
	sd	s1,136(sp)
	.cfi_offset 1, -8
	.cfi_offset 8, -16
	.cfi_offset 9, -24
	addi	s0,sp,160
	.cfi_def_cfa 8, 0
	sd	a0,-136(s0)
	mv	a5,a1
	sd	a2,-152(s0)
	sd	a3,-160(s0)
	sh	a5,-138(s0)
	.loc 1 2084 10
	sd	zero,-72(s0)
	.loc 1 2085 8
	sd	zero,-56(s0)
	.loc 1 2086 9
	sh	zero,-60(s0)
	.loc 1 2087 10
	sh	zero,-58(s0)
	.loc 1 2089 19
	ld	a5,-136(s0)
	ld	a5,8(a5)
	sd	a5,-80(s0)
	.loc 1 2094 13
	ld	a5,-80(s0)
	ld	a5,40(a5)
	sd	a5,-40(s0)
	.loc 1 2094 3
	j	.L337
.L346:
	.loc 1 2095 21
	ld	a5,-40(s0)
	addi	a5,a5,-24
	.loc 1 2095 145
	ld	a4,0(a5)
	.loc 1 2095 230
	li	a5,1886543872
	addi	a5,a5,1640
	bne	a4,a5,.L338
	.loc 1 2095 17 discriminator 1
	ld	a5,-40(s0)
	addi	a5,a5,-24
	sd	a5,-48(s0)
	j	.L339
.L338:
	.loc 1 2095 17 is_stmt 0 discriminator 2
	sd	zero,-48(s0)
.L339:
	.loc 1 2097 14 is_stmt 1
	lhu	a5,-138(s0)
	mv	a1,a5
	ld	a0,-48(s0)
	call	FindQuestionFromStringId
	sd	a0,-72(s0)
	.loc 1 2098 8
	ld	a5,-72(s0)
	beq	a5,zero,.L340
	.loc 1 2099 19
	ld	a5,-152(s0)
	ld	a4,-72(s0)
	sd	a4,0(a5)
	.loc 1 2100 14
	ld	a5,-72(s0)
	addi	a5,a5,2
	sd	a5,-88(s0)
	.loc 1 2104 17
	ld	a5,-88(s0)
	lbu	a4,6(a5)
	lbu	a5,7(a5)
	slli	a5,a5,8
	or	a5,a5,a4
	slli	a5,a5,48
	srli	a5,a5,48
	.loc 1 2104 10
	beq	a5,zero,.L347
	.loc 1 2108 17
	ld	a5,-88(s0)
	lbu	a4,6(a5)
	lbu	a5,7(a5)
	slli	a5,a5,8
	or	a5,a5,a4
	slli	a5,a5,48
	srli	a5,a5,48
	mv	a1,a5
	ld	a0,-48(s0)
	call	FindStorageFromVarId
	sd	a0,-96(s0)
	.loc 1 2111 41
	ld	a5,-96(s0)
	lbu	a5,0(a5)
	.loc 1 2111 10
	mv	a4,a5
	li	a5,37
	bne	a4,a5,.L342
	.loc 1 2112 16
	ld	a5,-88(s0)
	lbu	a4,8(a5)
	lbu	a5,9(a5)
	slli	a5,a5,8
	or	a5,a5,a4
	slli	a5,a5,48
	srli	a5,a5,48
	mv	a1,a5
	ld	a0,-136(s0)
	call	GetNameFromId
	sd	a0,-56(s0)
	j	.L343
.L342:
	.loc 1 2114 16
	ld	a5,-88(s0)
	lbu	a4,8(a5)
	lbu	a5,9(a5)
	slli	a5,a5,8
	or	a5,a5,a4
	sh	a5,-58(s0)
	.loc 1 2115 17
	ld	a0,-72(s0)
	call	GetWidth
	mv	a5,a0
	sh	a5,-60(s0)
.L343:
	.loc 1 2118 24
	lhu	a4,-60(s0)
	lhu	a5,-58(s0)
	mv	a2,a4
	mv	a1,a5
	ld	a0,-56(s0)
	call	ConstructRequestElement
	sd	a0,-104(s0)
	.loc 1 2119 19
	ld	a5,-136(s0)
	ld	a5,16(a5)
	mv	a1,a5
	ld	a0,-96(s0)
	call	ConstructConfigHdr
	sd	a0,-112(s0)
	.loc 1 2122 16
	ld	a0,-112(s0)
	call	StrLen@plt
	mv	s1,a0
	.loc 1 2122 41 discriminator 1
	ld	a0,-104(s0)
	call	StrLen@plt
	mv	a5,a0
	.loc 1 2122 39 discriminator 2
	add	a5,s1,a5
	.loc 1 2122 14 discriminator 2
	addi	a5,a5,2
	sd	a5,-120(s0)
	.loc 1 2123 45
	ld	a5,-120(s0)
	slli	a5,a5,1
	.loc 1 2123 24
	mv	a0,a5
	call	AllocatePool@plt
	mv	a4,a0
	.loc 1 2123 22 discriminator 1
	ld	a5,-160(s0)
	sd	a4,0(a5)
	.loc 1 2124 11
	ld	a5,-160(s0)
	ld	a5,0(a5)
	.loc 1 2124 10
	bne	a5,zero,.L344
	.loc 1 2125 9
	ld	a0,-112(s0)
	call	FreePool@plt
	.loc 1 2126 9
	ld	a0,-104(s0)
	call	FreePool@plt
	.loc 1 2127 16
	li	a5,-1
	slli	a5,a5,63
	addi	a5,a5,9
	j	.L345
.L344:
	.loc 1 2130 17
	ld	a5,-160(s0)
	ld	a5,0(a5)
	sd	a5,-128(s0)
	.loc 1 2132 7
	ld	a2,-112(s0)
	ld	a1,-120(s0)
	ld	a0,-128(s0)
	call	StrCpyS@plt
	.loc 1 2134 7
	lla	a2,.LC3
	ld	a1,-120(s0)
	ld	a0,-128(s0)
	call	StrCatS@plt
	.loc 1 2136 7
	ld	a2,-104(s0)
	ld	a1,-120(s0)
	ld	a0,-128(s0)
	call	StrCatS@plt
	.loc 1 2138 7
	ld	a0,-112(s0)
	call	FreePool@plt
	.loc 1 2139 7
	ld	a0,-104(s0)
	call	FreePool@plt
	.loc 1 2141 14
	li	a5,0
	j	.L345
.L347:
	.loc 1 2105 9
	nop
.L340:
	.loc 1 2094 99 discriminator 2
	ld	a5,-40(s0)
	ld	a5,0(a5)
	sd	a5,-40(s0)
.L337:
	.loc 1 2094 64 discriminator 1
	ld	a5,-80(s0)
	addi	a5,a5,40
	.loc 1 2094 61 discriminator 1
	ld	a4,-40(s0)
	bne	a4,a5,.L346
	.loc 1 2145 10
	li	a5,-1
	slli	a5,a5,63
	addi	a5,a5,14
.L345:
	.loc 1 2146 1
	mv	a0,a5
	ld	ra,152(sp)
	.cfi_restore 1
	ld	s0,144(sp)
	.cfi_restore 8
	.cfi_def_cfa 2, 160
	ld	s1,136(sp)
	.cfi_restore 9
	addi	sp,sp,160
	.cfi_def_cfa_offset 0
	jr	ra
	.cfi_endproc
.LFE21:
	.size	ExtractConfigRequest, .-ExtractConfigRequest
	.section	.text.ExtractConfigResp,"ax",@progbits
	.align	1
	.globl	ExtractConfigResp
	.type	ExtractConfigResp, @function
ExtractConfigResp:
.LFB22:
	.loc 1 2173 1
	.cfi_startproc
	addi	sp,sp,-176
	.cfi_def_cfa_offset 176
	sd	ra,168(sp)
	sd	s0,160(sp)
	sd	s1,152(sp)
	.cfi_offset 1, -8
	.cfi_offset 8, -16
	.cfi_offset 9, -24
	addi	s0,sp,176
	.cfi_def_cfa 8, 0
	sd	a0,-136(s0)
	mv	a5,a1
	sd	a2,-152(s0)
	sd	a3,-160(s0)
	sd	a4,-168(s0)
	sh	a5,-138(s0)
	.loc 1 2190 10
	sd	zero,-72(s0)
	.loc 1 2191 8
	sd	zero,-40(s0)
	.loc 1 2192 9
	sh	zero,-60(s0)
	.loc 1 2193 10
	sh	zero,-58(s0)
	.loc 1 2195 19
	ld	a5,-136(s0)
	ld	a5,8(a5)
	sd	a5,-80(s0)
	.loc 1 2200 13
	ld	a5,-80(s0)
	ld	a5,40(a5)
	sd	a5,-48(s0)
	.loc 1 2200 3
	j	.L349
.L357:
	.loc 1 2201 21
	ld	a5,-48(s0)
	addi	a5,a5,-24
	.loc 1 2201 145
	ld	a4,0(a5)
	.loc 1 2201 230
	li	a5,1886543872
	addi	a5,a5,1640
	bne	a4,a5,.L350
	.loc 1 2201 17 discriminator 1
	ld	a5,-48(s0)
	addi	a5,a5,-24
	sd	a5,-56(s0)
	j	.L351
.L350:
	.loc 1 2201 17 is_stmt 0 discriminator 2
	sd	zero,-56(s0)
.L351:
	.loc 1 2203 14 is_stmt 1
	lhu	a5,-138(s0)
	mv	a1,a5
	ld	a0,-56(s0)
	call	FindQuestionFromStringId
	sd	a0,-72(s0)
	.loc 1 2204 8
	ld	a5,-72(s0)
	beq	a5,zero,.L352
	.loc 1 2205 19
	ld	a5,-160(s0)
	ld	a4,-72(s0)
	sd	a4,0(a5)
	.loc 1 2206 14
	ld	a5,-72(s0)
	addi	a5,a5,2
	sd	a5,-88(s0)
	.loc 1 2213 17
	ld	a5,-88(s0)
	lbu	a4,6(a5)
	lbu	a5,7(a5)
	slli	a5,a5,8
	or	a5,a5,a4
	slli	a5,a5,48
	srli	a5,a5,48
	mv	a1,a5
	ld	a0,-56(s0)
	call	FindStorageFromVarId
	sd	a0,-96(s0)
	.loc 1 2216 41
	ld	a5,-96(s0)
	lbu	a5,0(a5)
	.loc 1 2216 10
	mv	a4,a5
	li	a5,37
	bne	a4,a5,.L353
	.loc 1 2217 16
	ld	a5,-88(s0)
	lbu	a4,8(a5)
	lbu	a5,9(a5)
	slli	a5,a5,8
	or	a5,a5,a4
	slli	a5,a5,48
	srli	a5,a5,48
	mv	a1,a5
	ld	a0,-136(s0)
	call	GetNameFromId
	sd	a0,-40(s0)
	j	.L354
.L353:
	.loc 1 2219 16
	ld	a5,-88(s0)
	lbu	a4,8(a5)
	lbu	a5,9(a5)
	slli	a5,a5,8
	or	a5,a5,a4
	sh	a5,-58(s0)
	.loc 1 2220 17
	ld	a0,-72(s0)
	call	GetWidth
	mv	a5,a0
	sh	a5,-60(s0)
.L354:
	.loc 1 2223 24
	lhu	a4,-60(s0)
	lhu	a5,-58(s0)
	mv	a2,a4
	mv	a1,a5
	ld	a0,-40(s0)
	call	ConstructRequestElement
	sd	a0,-104(s0)
	.loc 1 2225 19
	ld	a5,-136(s0)
	ld	a5,16(a5)
	mv	a1,a5
	ld	a0,-96(s0)
	call	ConstructConfigHdr
	sd	a0,-112(s0)
	.loc 1 2228 16
	ld	a0,-112(s0)
	call	StrLen@plt
	mv	s1,a0
	.loc 1 2228 41 discriminator 1
	ld	a0,-104(s0)
	call	StrLen@plt
	mv	a5,a0
	.loc 1 2228 39 discriminator 2
	add	s1,s1,a5
	.loc 1 2228 71 discriminator 2
	lla	a0,.LC4
	call	StrLen@plt
	mv	a5,a0
	.loc 1 2228 69 discriminator 3
	add	s1,s1,a5
	.loc 1 2228 92 discriminator 3
	ld	a0,-152(s0)
	call	StrLen@plt
	mv	a5,a0
	.loc 1 2228 90 discriminator 4
	add	a5,s1,a5
	.loc 1 2228 14 discriminator 4
	addi	a5,a5,3
	sd	a5,-120(s0)
	.loc 1 2229 42
	ld	a5,-120(s0)
	slli	a5,a5,1
	.loc 1 2229 21
	mv	a0,a5
	call	AllocatePool@plt
	mv	a4,a0
	.loc 1 2229 19 discriminator 1
	ld	a5,-168(s0)
	sd	a4,0(a5)
	.loc 1 2230 11
	ld	a5,-168(s0)
	ld	a5,0(a5)
	.loc 1 2230 10
	bne	a5,zero,.L355
	.loc 1 2231 9
	ld	a0,-112(s0)
	call	FreePool@plt
	.loc 1 2232 9
	ld	a0,-104(s0)
	call	FreePool@plt
	.loc 1 2233 16
	li	a5,-1
	slli	a5,a5,63
	addi	a5,a5,9
	j	.L356
.L355:
	.loc 1 2236 17
	ld	a5,-168(s0)
	ld	a5,0(a5)
	sd	a5,-128(s0)
	.loc 1 2238 7
	ld	a2,-112(s0)
	ld	a1,-120(s0)
	ld	a0,-128(s0)
	call	StrCpyS@plt
	.loc 1 2240 7
	lla	a2,.LC3
	ld	a1,-120(s0)
	ld	a0,-128(s0)
	call	StrCatS@plt
	.loc 1 2242 7
	ld	a2,-104(s0)
	ld	a1,-120(s0)
	ld	a0,-128(s0)
	call	StrCatS@plt
	.loc 1 2244 7
	lla	a2,.LC3
	ld	a1,-120(s0)
	ld	a0,-128(s0)
	call	StrCatS@plt
	.loc 1 2246 7
	lla	a2,.LC4
	ld	a1,-120(s0)
	ld	a0,-128(s0)
	call	StrCatS@plt
	.loc 1 2248 7
	ld	a2,-152(s0)
	ld	a1,-120(s0)
	ld	a0,-128(s0)
	call	StrCatS@plt
	.loc 1 2250 7
	ld	a0,-112(s0)
	call	FreePool@plt
	.loc 1 2251 7
	ld	a0,-104(s0)
	call	FreePool@plt
	.loc 1 2253 14
	li	a5,0
	j	.L356
.L352:
	.loc 1 2200 99 discriminator 2
	ld	a5,-48(s0)
	ld	a5,0(a5)
	sd	a5,-48(s0)
.L349:
	.loc 1 2200 64 discriminator 1
	ld	a5,-80(s0)
	addi	a5,a5,40
	.loc 1 2200 61 discriminator 1
	ld	a4,-48(s0)
	bne	a4,a5,.L357
	.loc 1 2257 10
	li	a5,-1
	slli	a5,a5,63
	addi	a5,a5,14
.L356:
	.loc 1 2258 1
	mv	a0,a5
	ld	ra,168(sp)
	.cfi_restore 1
	ld	s0,160(sp)
	.cfi_restore 8
	.cfi_def_cfa 2, 176
	ld	s1,152(sp)
	.cfi_restore 9
	addi	sp,sp,176
	.cfi_def_cfa_offset 0
	jr	ra
	.cfi_endproc
.LFE22:
	.size	ExtractConfigResp, .-ExtractConfigResp
	.section	.rodata
	.align	3
.LC20:
	.string	"&"
	.string	"V"
	.string	"A"
	.string	"L"
	.string	"U"
	.string	"E"
	.string	"="
	.zero	2
	.section	.text.ExtractValueFromDriver,"ax",@progbits
	.align	1
	.globl	ExtractValueFromDriver
	.type	ExtractValueFromDriver, @function
ExtractValueFromDriver:
.LFB23:
	.loc 1 2278 1
	.cfi_startproc
	addi	sp,sp,-80
	.cfi_def_cfa_offset 80
	sd	ra,72(sp)
	sd	s0,64(sp)
	.cfi_offset 1, -8
	.cfi_offset 8, -16
	addi	s0,sp,80
	.cfi_def_cfa 8, 0
	sd	a0,-72(s0)
	sd	a1,-80(s0)
	.loc 1 2287 34
	la	a5,mPrivate
	ld	a5,288(a5)
	.loc 1 2287 12
	addi	a3,s0,-48
	addi	a4,s0,-56
	mv	a2,a4
	ld	a1,-72(s0)
	la	a4,mPrivate
	addi	a0,a4,288
	jalr	a5
.LVL2:
	sd	a0,-24(s0)
	.loc 1 2293 34
	ld	a5,-24(s0)
	.loc 1 2293 6
	bge	a5,zero,.L359
	.loc 1 2294 12
	ld	a5,-24(s0)
	j	.L364
.L359:
	.loc 1 2300 15
	ld	a5,-48(s0)
	lla	a1,.LC20
	mv	a0,a5
	call	StrStr@plt
	sd	a0,-32(s0)
	.loc 1 2302 33
	ld	a5,-32(s0)
	addi	a5,a5,2
	.loc 1 2302 15
	lla	a1,.LC3
	mv	a0,a5
	call	StrStr@plt
	sd	a0,-40(s0)
	.loc 1 2303 6
	ld	a5,-40(s0)
	beq	a5,zero,.L361
	.loc 1 2304 16
	ld	a5,-40(s0)
	sh	zero,0(a5)
.L361:
	.loc 1 2307 19
	ld	a0,-32(s0)
	call	StrSize@plt
	mv	a5,a0
	.loc 1 2307 19 is_stmt 0 discriminator 1
	ld	a1,-32(s0)
	mv	a0,a5
	call	AllocateCopyPool@plt
	mv	a4,a0
	.loc 1 2307 17 is_stmt 1 discriminator 2
	ld	a5,-80(s0)
	sd	a4,0(a5)
	.loc 1 2308 7
	ld	a5,-80(s0)
	ld	a5,0(a5)
	.loc 1 2308 6
	bne	a5,zero,.L362
	.loc 1 2309 12
	li	a5,-1
	slli	a5,a5,63
	addi	a5,a5,9
	j	.L364
.L362:
	.loc 1 2312 6
	ld	a5,-40(s0)
	beq	a5,zero,.L363
	.loc 1 2313 16
	ld	a5,-40(s0)
	li	a4,38
	sh	a4,0(a5)
.L363:
	.loc 1 2316 3
	ld	a5,-48(s0)
	mv	a0,a5
	call	FreePool@plt
	.loc 1 2318 10
	li	a5,0
.L364:
	.loc 1 2319 1
	mv	a0,a5
	ld	ra,72(sp)
	.cfi_restore 1
	ld	s0,64(sp)
	.cfi_restore 8
	.cfi_def_cfa 2, 80
	addi	sp,sp,80
	.cfi_def_cfa_offset 0
	jr	ra
	.cfi_endproc
.LFE23:
	.size	ExtractValueFromDriver, .-ExtractValueFromDriver
	.section	.text.GetStringIdFromDatabase,"ax",@progbits
	.align	1
	.globl	GetStringIdFromDatabase
	.type	GetStringIdFromDatabase, @function
GetStringIdFromDatabase:
.LFB24:
	.loc 1 2347 1
	.cfi_startproc
	addi	sp,sp,-112
	.cfi_def_cfa_offset 112
	sd	ra,104(sp)
	sd	s0,96(sp)
	.cfi_offset 1, -8
	.cfi_offset 8, -16
	addi	s0,sp,112
	.cfi_def_cfa 8, 0
	sd	a0,-72(s0)
	sd	a1,-80(s0)
	sd	a2,-88(s0)
	sd	a3,-96(s0)
	sd	a4,-104(s0)
	sd	a5,-112(s0)
	.loc 1 2357 17
	sb	zero,-33(s0)
	.loc 1 2359 7
	ld	a5,-72(s0)
	ld	a5,0(a5)
	.loc 1 2359 6
	beq	a5,zero,.L366
	.loc 1 2363 14
	ld	a5,-72(s0)
	ld	a5,0(a5)
	mv	a0,a5
	call	GetRecordFromDevicePath
	sd	a0,-24(s0)
	.loc 1 2364 8
	ld	a5,-24(s0)
	bne	a5,zero,.L367
	.loc 1 2369 20
	ld	a5,-96(s0)
	li	a4,2
	sw	a4,0(a5)
	.loc 1 2370 14
	li	a5,-1
	slli	a5,a5,63
	addi	a5,a5,2
	j	.L368
.L367:
	.loc 1 2376 20
	ld	a3,-104(s0)
	ld	a2,-88(s0)
	ld	a1,-80(s0)
	ld	a0,-24(s0)
	call	GetStringIdFromRecord
	mv	a5,a0
	mv	a4,a5
	.loc 1 2376 18 discriminator 1
	ld	a5,-96(s0)
	sw	a4,0(a5)
	.loc 1 2377 13
	ld	a5,-96(s0)
	lw	a5,0(a5)
	.loc 1 2377 5
	beq	a5,zero,.L369
	li	a4,1
	beq	a5,a4,.L370
	j	.L381
.L369:
	.loc 1 2379 25
	ld	a5,-112(s0)
	ld	a4,-24(s0)
	sd	a4,0(a5)
	.loc 1 2380 16
	li	a5,0
	j	.L368
.L370:
	.loc 1 2383 16
	li	a5,-1
	slli	a5,a5,63
	addi	a5,a5,2
	j	.L368
.L381:
	.loc 1 2387 16
	li	a5,-1
	slli	a5,a5,63
	addi	a5,a5,14
	j	.L368
.L366:
	.loc 1 2393 15
	la	a5,mPrivate
	ld	a5,8(a5)
	sd	a5,-32(s0)
	.loc 1 2393 5
	j	.L372
.L379:
	.loc 1 2394 18
	ld	a5,-32(s0)
	addi	a5,a5,-32
	.loc 1 2394 137
	ld	a4,0(a5)
	.loc 1 2394 222
	li	a5,1919184896
	addi	a5,a5,-1688
	bne	a4,a5,.L373
	.loc 1 2394 14 discriminator 1
	ld	a5,-32(s0)
	addi	a5,a5,-32
	sd	a5,-24(s0)
	j	.L374
.L373:
	.loc 1 2394 14 is_stmt 0 discriminator 2
	sd	zero,-24(s0)
.L374:
	.loc 1 2396 22 is_stmt 1
	ld	a3,-104(s0)
	ld	a2,-88(s0)
	ld	a1,-80(s0)
	ld	a0,-24(s0)
	call	GetStringIdFromRecord
	mv	a5,a0
	mv	a4,a5
	.loc 1 2396 20 discriminator 1
	ld	a5,-96(s0)
	sw	a4,0(a5)
	.loc 1 2397 11
	ld	a5,-96(s0)
	lw	a5,0(a5)
	.loc 1 2397 10
	bne	a5,zero,.L375
	.loc 1 2398 25
	ld	a5,-112(s0)
	ld	a4,-24(s0)
	sd	a4,0(a5)
	.loc 1 2400 36
	ld	a5,-24(s0)
	ld	a5,8(a5)
	.loc 1 2400 28
	ld	a5,128(a5)
	sd	a5,-48(s0)
	.loc 1 2400 12
	ld	a5,-48(s0)
	beq	a5,zero,.L376
	.loc 1 2401 26
	ld	a5,-48(s0)
	addi	a5,a5,4
	sd	a5,-56(s0)
	.loc 1 2402 28
	ld	a0,-56(s0)
	call	GetDevicePathSize@plt
	sd	a0,-64(s0)
	.loc 1 2403 25
	ld	a1,-56(s0)
	ld	a0,-64(s0)
	call	AllocateCopyPool@plt
	mv	a4,a0
	.loc 1 2403 23 discriminator 1
	ld	a5,-72(s0)
	sd	a4,0(a5)
	.loc 1 2404 15
	ld	a5,-72(s0)
	ld	a5,0(a5)
	.loc 1 2404 14
	bne	a5,zero,.L376
	.loc 1 2405 20
	li	a5,-1
	slli	a5,a5,63
	addi	a5,a5,9
	j	.L368
.L376:
	.loc 1 2414 16
	li	a5,0
	j	.L368
.L375:
	.loc 1 2415 18
	ld	a5,-96(s0)
	lw	a4,0(a5)
	.loc 1 2415 17
	li	a5,-2147483648
	bne	a4,a5,.L377
	.loc 1 2416 16
	li	a5,-1
	slli	a5,a5,63
	addi	a5,a5,9
	j	.L368
.L377:
	.loc 1 2417 18
	ld	a5,-96(s0)
	lw	a4,0(a5)
	.loc 1 2417 17
	li	a5,4
	bne	a4,a5,.L378
	.loc 1 2418 23
	li	a5,1
	sb	a5,-33(s0)
.L378:
	.loc 1 2393 89 discriminator 2
	ld	a5,-32(s0)
	ld	a5,0(a5)
	sd	a5,-32(s0)
.L372:
	.loc 1 2393 57 discriminator 1
	ld	a4,-32(s0)
	la	a5,mPrivate
	addi	a5,a5,8
	bne	a4,a5,.L379
	.loc 1 2426 8
	lbu	a5,-33(s0)
	andi	a5,a5,0xff
	beq	a5,zero,.L380
	.loc 1 2427 14
	li	a5,-1
	slli	a5,a5,63
	addi	a5,a5,14
	j	.L368
.L380:
	.loc 1 2429 14
	li	a5,-1
	slli	a5,a5,63
	addi	a5,a5,2
.L368:
	.loc 1 2432 1
	mv	a0,a5
	ld	ra,104(sp)
	.cfi_restore 1
	ld	s0,96(sp)
	.cfi_restore 8
	.cfi_def_cfa 2, 112
	addi	sp,sp,112
	.cfi_def_cfa_offset 0
	jr	ra
	.cfi_endproc
.LFE24:
	.size	GetStringIdFromDatabase, .-GetStringIdFromDatabase
	.section	.rodata
	.align	3
.LC21:
	.string	"&"
	.string	"R"
	.string	"E"
	.string	"A"
	.string	"D"
	.string	"O"
	.string	"N"
	.string	"L"
	.string	"Y"
	.zero	2
	.section	.text.GenerateKeywordResp,"ax",@progbits
	.align	1
	.globl	GenerateKeywordResp
	.type	GenerateKeywordResp, @function
GenerateKeywordResp:
.LFB25:
	.loc 1 2459 1
	.cfi_startproc
	addi	sp,sp,-112
	.cfi_def_cfa_offset 112
	sd	ra,104(sp)
	sd	s0,96(sp)
	.cfi_offset 1, -8
	.cfi_offset 8, -16
	addi	s0,sp,112
	.cfi_def_cfa 8, 0
	sd	a0,-72(s0)
	sd	a1,-80(s0)
	sd	a2,-88(s0)
	sd	a3,-96(s0)
	sd	a5,-112(s0)
	mv	a5,a4
	sb	a5,-97(s0)
	.loc 1 2475 21
	ld	a0,-72(s0)
	call	AsciiStrLen@plt
	sd	a0,-32(s0)
	.loc 1 2476 14
	ld	a5,-32(s0)
	addi	a5,a5,10
	sd	a5,-24(s0)
	.loc 1 2477 53
	ld	a5,-32(s0)
	addi	a5,a5,1
	.loc 1 2477 58
	slli	a5,a5,1
	.loc 1 2477 22
	mv	a0,a5
	call	AllocatePool@plt
	sd	a0,-40(s0)
	.loc 1 2478 6
	ld	a5,-40(s0)
	bne	a5,zero,.L383
	.loc 1 2479 12
	li	a5,-1
	slli	a5,a5,63
	addi	a5,a5,9
	j	.L391
.L383:
	.loc 1 2482 3
	ld	a5,-32(s0)
	addi	a5,a5,1
	mv	a2,a5
	ld	a1,-40(s0)
	ld	a0,-72(s0)
	call	AsciiStrToUnicodeStrS@plt
	.loc 1 2489 3
	ld	a0,-80(s0)
	call	GetDevicePathSize@plt
	mv	a1,a0
	.loc 1 2489 3 is_stmt 0 discriminator 1
	addi	a5,s0,-56
	mv	a4,a5
	li	a3,1
	ld	a2,-80(s0)
	lla	a0,.LC14
	call	GenerateSubStr@plt
	.loc 1 2496 17 is_stmt 1
	ld	a5,-56(s0)
	mv	a0,a5
	call	StrLen@plt
	mv	a4,a0
	.loc 1 2496 14 discriminator 1
	ld	a5,-24(s0)
	add	a5,a5,a4
	sd	a5,-24(s0)
	.loc 1 2502 21
	ld	a0,-88(s0)
	call	StrLen@plt
	mv	a5,a0
	.loc 1 2502 19 discriminator 1
	addi	a5,a5,8
	.loc 1 2502 14 discriminator 1
	ld	a4,-24(s0)
	add	a5,a4,a5
	sd	a5,-24(s0)
	.loc 1 2508 17
	ld	a0,-96(s0)
	call	StrLen@plt
	mv	a4,a0
	.loc 1 2508 14 discriminator 1
	ld	a5,-24(s0)
	add	a5,a5,a4
	sd	a5,-24(s0)
	.loc 1 2514 6
	lbu	a5,-97(s0)
	andi	a5,a5,0xff
	beq	a5,zero,.L385
	.loc 1 2515 16
	ld	a5,-24(s0)
	addi	a5,a5,9
	sd	a5,-24(s0)
.L385:
	.loc 1 2521 14
	ld	a5,-24(s0)
	addi	a5,a5,1
	sd	a5,-24(s0)
	.loc 1 2522 43
	ld	a5,-24(s0)
	slli	a5,a5,1
	.loc 1 2522 18
	mv	a0,a5
	call	AllocatePool@plt
	mv	a4,a0
	.loc 1 2522 16 discriminator 1
	ld	a5,-112(s0)
	sd	a4,0(a5)
	.loc 1 2523 7
	ld	a5,-112(s0)
	ld	a5,0(a5)
	.loc 1 2523 6
	bne	a5,zero,.L386
	.loc 1 2524 8
	ld	a5,-40(s0)
	beq	a5,zero,.L387
	.loc 1 2525 7
	ld	a0,-40(s0)
	call	FreePool@plt
.L387:
	.loc 1 2528 12
	li	a5,-1
	slli	a5,a5,63
	addi	a5,a5,9
	j	.L391
.L386:
	.loc 1 2531 11
	ld	a5,-112(s0)
	ld	a5,0(a5)
	sd	a5,-48(s0)
	.loc 1 2536 3
	lla	a2,.LC2
	ld	a1,-24(s0)
	ld	a0,-48(s0)
	call	StrCpyS@plt
	.loc 1 2538 3
	ld	a2,-40(s0)
	ld	a1,-24(s0)
	ld	a0,-48(s0)
	call	StrCatS@plt
	.loc 1 2543 3
	ld	a5,-56(s0)
	mv	a2,a5
	ld	a1,-24(s0)
	ld	a0,-48(s0)
	call	StrCatS@plt
	.loc 1 2548 3
	lla	a2,.LC1
	ld	a1,-24(s0)
	ld	a0,-48(s0)
	call	StrCatS@plt
	.loc 1 2550 3
	ld	a2,-88(s0)
	ld	a1,-24(s0)
	ld	a0,-48(s0)
	call	StrCatS@plt
	.loc 1 2555 3
	ld	a2,-96(s0)
	ld	a1,-24(s0)
	ld	a0,-48(s0)
	call	StrCatS@plt
	.loc 1 2560 6
	lbu	a5,-97(s0)
	andi	a5,a5,0xff
	beq	a5,zero,.L388
	.loc 1 2561 5
	lla	a2,.LC21
	ld	a1,-24(s0)
	ld	a0,-48(s0)
	call	StrCatS@plt
.L388:
	.loc 1 2564 6
	ld	a5,-40(s0)
	beq	a5,zero,.L389
	.loc 1 2565 5
	ld	a0,-40(s0)
	call	FreePool@plt
.L389:
	.loc 1 2568 15
	ld	a5,-56(s0)
	.loc 1 2568 6
	beq	a5,zero,.L390
	.loc 1 2569 5
	ld	a5,-56(s0)
	mv	a0,a5
	call	FreePool@plt
.L390:
	.loc 1 2572 10
	li	a5,0
.L391:
	.loc 1 2573 1
	mv	a0,a5
	ld	ra,104(sp)
	.cfi_restore 1
	ld	s0,96(sp)
	.cfi_restore 8
	.cfi_def_cfa 2, 112
	addi	sp,sp,112
	.cfi_def_cfa_offset 0
	jr	ra
	.cfi_endproc
.LFE25:
	.size	GenerateKeywordResp, .-GenerateKeywordResp
	.section	.text.MergeToMultiKeywordResp,"ax",@progbits
	.align	1
	.globl	MergeToMultiKeywordResp
	.type	MergeToMultiKeywordResp, @function
MergeToMultiKeywordResp:
.LFB26:
	.loc 1 2592 1
	.cfi_startproc
	addi	sp,sp,-64
	.cfi_def_cfa_offset 64
	sd	ra,56(sp)
	sd	s0,48(sp)
	sd	s1,40(sp)
	.cfi_offset 1, -8
	.cfi_offset 8, -16
	.cfi_offset 9, -24
	addi	s0,sp,64
	.cfi_def_cfa 8, 0
	sd	a0,-56(s0)
	sd	a1,-64(s0)
	.loc 1 2596 7
	ld	a5,-56(s0)
	ld	a5,0(a5)
	.loc 1 2596 6
	bne	a5,zero,.L393
	.loc 1 2597 25
	ld	a5,-64(s0)
	ld	a4,0(a5)
	.loc 1 2597 23
	ld	a5,-56(s0)
	sd	a4,0(a5)
	.loc 1 2598 18
	ld	a5,-64(s0)
	sd	zero,0(a5)
	.loc 1 2599 12
	li	a5,0
	j	.L394
.L393:
	.loc 1 2602 26
	ld	a5,-56(s0)
	ld	a5,0(a5)
	mv	a0,a5
	call	StrLen@plt
	mv	s1,a0
	.loc 1 2602 59 discriminator 1
	ld	a5,-64(s0)
	ld	a5,0(a5)
	mv	a0,a5
	call	StrLen@plt
	mv	a5,a0
	.loc 1 2602 57 discriminator 2
	add	a5,s1,a5
	.loc 1 2602 81 discriminator 2
	addi	a5,a5,2
	.loc 1 2602 23 discriminator 2
	slli	a5,a5,1
	sd	a5,-40(s0)
	.loc 1 2604 15
	ld	a5,-56(s0)
	ld	a5,0(a5)
	mv	a0,a5
	call	StrSize@plt
	mv	a4,a0
	.loc 1 2604 15 is_stmt 0 discriminator 1
	ld	a5,-56(s0)
	ld	a5,0(a5)
	mv	a2,a5
	ld	a1,-40(s0)
	mv	a0,a4
	call	ReallocatePool@plt
	sd	a0,-48(s0)
	.loc 1 2609 6 is_stmt 1
	ld	a5,-48(s0)
	bne	a5,zero,.L395
	.loc 1 2610 12
	li	a5,-1
	slli	a5,a5,63
	addi	a5,a5,9
	j	.L394
.L395:
	.loc 1 2613 21
	ld	a5,-56(s0)
	ld	a4,-48(s0)
	sd	a4,0(a5)
	.loc 1 2615 43
	ld	a5,-40(s0)
	srli	a5,a5,1
	.loc 1 2615 3
	lla	a2,.LC3
	mv	a1,a5
	ld	a0,-48(s0)
	call	StrCatS@plt
	.loc 1 2617 43
	ld	a5,-40(s0)
	srli	a4,a5,1
	.loc 1 2617 3
	ld	a5,-64(s0)
	ld	a5,0(a5)
	mv	a2,a5
	mv	a1,a4
	ld	a0,-48(s0)
	call	StrCatS@plt
	.loc 1 2619 10
	li	a5,0
.L394:
	.loc 1 2620 1
	mv	a0,a5
	ld	ra,56(sp)
	.cfi_restore 1
	ld	s0,48(sp)
	.cfi_restore 8
	.cfi_def_cfa 2, 64
	ld	s1,40(sp)
	.cfi_restore 9
	addi	sp,sp,64
	.cfi_def_cfa_offset 0
	jr	ra
	.cfi_endproc
.LFE26:
	.size	MergeToMultiKeywordResp, .-MergeToMultiKeywordResp
	.section	.text.EnumerateAllKeywords,"ax",@progbits
	.align	1
	.globl	EnumerateAllKeywords
	.type	EnumerateAllKeywords, @function
EnumerateAllKeywords:
.LFB27:
	.loc 1 2644 1
	.cfi_startproc
	addi	sp,sp,-208
	.cfi_def_cfa_offset 208
	sd	ra,200(sp)
	sd	s0,192(sp)
	sd	s1,184(sp)
	.cfi_offset 1, -8
	.cfi_offset 8, -16
	.cfi_offset 9, -24
	addi	s0,sp,208
	.cfi_def_cfa 8, 0
	sd	a0,-184(s0)
	sd	a1,-192(s0)
	sd	a2,-200(s0)
	.loc 1 2664 18
	sd	zero,-64(s0)
	.loc 1 2665 10
	sd	zero,-96(s0)
	.loc 1 2666 20
	sd	zero,-168(s0)
	.loc 1 2667 14
	sd	zero,-56(s0)
	.loc 1 2668 18
	sd	zero,-80(s0)
	.loc 1 2669 17
	sd	zero,-144(s0)
	.loc 1 2670 16
	sd	zero,-152(s0)
	.loc 1 2671 15
	sd	zero,-160(s0)
	.loc 1 2672 23
	sb	zero,-97(s0)
	.loc 1 2674 6
	ld	a5,-184(s0)
	bne	a5,zero,.L397
	.loc 1 2675 15
	lla	a5,.LC11
	sd	a5,-184(s0)
.L397:
	.loc 1 2681 13
	la	a5,mPrivate
	ld	a5,8(a5)
	sd	a5,-40(s0)
	.loc 1 2681 3
	j	.L398
.L420:
	.loc 1 2682 24
	ld	a5,-40(s0)
	addi	a5,a5,-32
	.loc 1 2682 143
	ld	a4,0(a5)
	.loc 1 2682 228
	li	a5,1919184896
	addi	a5,a5,-1688
	bne	a4,a5,.L399
	.loc 1 2682 20 discriminator 1
	ld	a5,-40(s0)
	addi	a5,a5,-32
	sd	a5,-64(s0)
	j	.L400
.L399:
	.loc 1 2682 20 is_stmt 0 discriminator 2
	sd	zero,-64(s0)
.L400:
	.loc 1 2683 40 is_stmt 1
	ld	a5,-64(s0)
	ld	a5,8(a5)
	.loc 1 2683 24
	ld	a5,128(a5)
	sd	a5,-112(s0)
	.loc 1 2683 8
	ld	a5,-112(s0)
	beq	a5,zero,.L401
	.loc 1 2684 18
	ld	a5,-112(s0)
	addi	a5,a5,4
	sd	a5,-56(s0)
.L401:
	.loc 1 2687 21
	ld	a5,-64(s0)
	ld	a5,8(a5)
	sd	a5,-120(s0)
	.loc 1 2689 21
	ld	a5,-120(s0)
	ld	a5,72(a5)
	sd	a5,-48(s0)
	.loc 1 2689 5
	j	.L402
.L419:
	.loc 1 2690 25
	ld	a5,-48(s0)
	addi	a5,a5,-24
	.loc 1 2690 164
	ld	a4,0(a5)
	.loc 1 2690 249
	li	a5,1886613504
	addi	a5,a5,-1688
	bne	a4,a5,.L403
	.loc 1 2690 21 discriminator 1
	ld	a5,-48(s0)
	addi	a5,a5,-24
	sd	a5,-72(s0)
	j	.L404
.L403:
	.loc 1 2690 21 is_stmt 0 discriminator 2
	sd	zero,-72(s0)
.L404:
	.loc 1 2695 49 is_stmt 1
	ld	a5,-72(s0)
	ld	a5,8(a5)
	.loc 1 2695 63
	addi	s1,a5,46
	.loc 1 2695 11
	ld	a0,-184(s0)
	call	AsciiStrLen@plt
	mv	a5,a0
	.loc 1 2695 11 is_stmt 0 discriminator 1
	mv	a2,a5
	mv	a1,s1
	ld	a0,-184(s0)
	call	AsciiStrnCmp@plt
	mv	a5,a0
	.loc 1 2695 10 is_stmt 1 discriminator 2
	bne	a5,zero,.L405
	.loc 1 2696 29
	li	a5,1
	sb	a5,-97(s0)
	.loc 1 2700 71
	ld	a5,-72(s0)
	ld	a5,8(a5)
	.loc 1 2700 85
	addi	a5,a5,46
	.loc 1 2700 26
	mv	a0,a5
	call	AsciiStrSize@plt
	mv	a4,a0
	.loc 1 2700 111 discriminator 1
	ld	a5,-72(s0)
	ld	a5,8(a5)
	.loc 1 2700 125 discriminator 1
	addi	a5,a5,46
	.loc 1 2700 26 discriminator 1
	mv	a1,a5
	mv	a0,a4
	call	AllocateCopyPool@plt
	sd	a0,-80(s0)
	.loc 1 2701 12
	ld	a5,-80(s0)
	bne	a5,zero,.L406
	.loc 1 2702 18
	li	a5,-1
	slli	a5,a5,63
	addi	a5,a5,9
	j	.L427
.L406:
	.loc 1 2710 22
	li	a5,1
	sh	a5,-82(s0)
	.loc 1 2715 15
	j	.L408
.L418:
	.loc 1 2719 20
	addi	a3,s0,-144
	addi	a4,s0,-136
	lhu	a5,-82(s0)
	mv	a2,a4
	mv	a1,a5
	ld	a0,-64(s0)
	call	ExtractConfigRequest
	sd	a0,-96(s0)
	.loc 1 2720 42
	ld	a5,-96(s0)
	.loc 1 2720 14
	blt	a5,zero,.L428
	.loc 1 2730 20
	ld	a5,-144(s0)
	addi	a4,s0,-152
	mv	a1,a4
	mv	a0,a5
	call	ExtractValueFromDriver
	sd	a0,-96(s0)
	.loc 1 2731 42
	ld	a5,-96(s0)
	.loc 1 2731 14
	bge	a5,zero,.L411
	.loc 1 2732 16
	ld	a4,-96(s0)
	li	a5,-1
	slli	a5,a5,63
	addi	a5,a5,9
	beq	a4,a5,.L429
	.loc 1 2736 15
	j	.L410
.L411:
	.loc 1 2748 22
	ld	a5,-136(s0)
	mv	a0,a5
	call	ExtractReadOnlyFromOpCode
	mv	a5,a0
	sb	a5,-121(s0)
	.loc 1 2754 20
	ld	a2,-176(s0)
	ld	a3,-152(s0)
	addi	a5,s0,-160
	lbu	a4,-121(s0)
	ld	a1,-56(s0)
	ld	a0,-80(s0)
	call	GenerateKeywordResp
	sd	a0,-96(s0)
	.loc 1 2755 14
	ld	a5,-96(s0)
	bne	a5,zero,.L430
	.loc 1 2765 20
	addi	a4,s0,-160
	addi	a5,s0,-168
	mv	a1,a4
	mv	a0,a5
	call	MergeToMultiKeywordResp
	sd	a0,-96(s0)
	.loc 1 2766 42
	ld	a5,-96(s0)
	.loc 1 2766 14
	blt	a5,zero,.L431
	.loc 1 2770 1
	j	.L410
.L428:
	.loc 1 2724 13
	nop
.L410:
	.loc 1 2774 29
	ld	a5,-144(s0)
	.loc 1 2774 14
	beq	a5,zero,.L415
	.loc 1 2775 13
	ld	a5,-144(s0)
	mv	a0,a5
	call	FreePool@plt
	.loc 1 2776 27
	sd	zero,-144(s0)
.L415:
	.loc 1 2779 28
	ld	a5,-152(s0)
	.loc 1 2779 14
	beq	a5,zero,.L416
	.loc 1 2780 13
	ld	a5,-152(s0)
	mv	a0,a5
	call	FreePool@plt
	.loc 1 2781 26
	sd	zero,-152(s0)
.L416:
	.loc 1 2784 27
	ld	a5,-160(s0)
	.loc 1 2784 14
	beq	a5,zero,.L408
	.loc 1 2785 13
	ld	a5,-160(s0)
	mv	a0,a5
	call	FreePool@plt
	.loc 1 2786 25
	sd	zero,-160(s0)
.L408:
	.loc 1 2715 32
	addi	a4,s0,-176
	lhu	a5,-82(s0)
	mv	a2,a4
	mv	a1,a5
	ld	a0,-72(s0)
	call	GetNextStringId
	mv	a5,a0
	sh	a5,-82(s0)
	.loc 1 2715 93 discriminator 1
	lhu	a5,-82(s0)
	sext.w	a5,a5
	bne	a5,zero,.L418
	.loc 1 2790 12
	ld	a5,-80(s0)
	beq	a5,zero,.L405
	.loc 1 2791 11
	ld	a0,-80(s0)
	call	FreePool@plt
	.loc 1 2792 26
	sd	zero,-80(s0)
.L405:
	.loc 1 2689 123 discriminator 2
	ld	a5,-48(s0)
	ld	a5,0(a5)
	sd	a5,-48(s0)
.L402:
	.loc 1 2689 80 discriminator 1
	ld	a5,-120(s0)
	addi	a5,a5,72
	.loc 1 2689 77 discriminator 1
	ld	a4,-48(s0)
	bne	a4,a5,.L419
	.loc 1 2681 87 discriminator 2
	ld	a5,-40(s0)
	ld	a5,0(a5)
	sd	a5,-40(s0)
.L398:
	.loc 1 2681 55 discriminator 1
	ld	a4,-40(s0)
	la	a5,mPrivate
	addi	a5,a5,8
	bne	a4,a5,.L420
	.loc 1 2801 24
	ld	a5,-168(s0)
	.loc 1 2801 6
	bne	a5,zero,.L421
	.loc 1 2802 12
	li	a5,-1
	slli	a5,a5,63
	addi	a5,a5,14
	sd	a5,-96(s0)
	.loc 1 2803 8
	lbu	a5,-97(s0)
	andi	a5,a5,0xff
	bne	a5,zero,.L422
	.loc 1 2804 20
	ld	a5,-200(s0)
	li	a4,1
	sw	a4,0(a5)
	j	.L423
.L422:
	.loc 1 2806 20
	ld	a5,-200(s0)
	li	a4,4
	sw	a4,0(a5)
	j	.L423
.L421:
	.loc 1 2809 12
	sd	zero,-96(s0)
.L423:
	.loc 1 2812 14
	ld	a4,-168(s0)
	ld	a5,-192(s0)
	sd	a4,0(a5)
	j	.L413
.L429:
	.loc 1 2742 13
	nop
	j	.L413
.L430:
	.loc 1 2759 13
	nop
	j	.L413
.L431:
	.loc 1 2767 13
	nop
.L413:
	.loc 1 2815 6
	ld	a5,-80(s0)
	beq	a5,zero,.L424
	.loc 1 2816 5
	ld	a0,-80(s0)
	call	FreePool@plt
.L424:
	.loc 1 2819 21
	ld	a5,-144(s0)
	.loc 1 2819 6
	beq	a5,zero,.L425
	.loc 1 2820 5
	ld	a5,-144(s0)
	mv	a0,a5
	call	FreePool@plt
.L425:
	.loc 1 2823 20
	ld	a5,-152(s0)
	.loc 1 2823 6
	beq	a5,zero,.L426
	.loc 1 2824 5
	ld	a5,-152(s0)
	mv	a0,a5
	call	FreePool@plt
.L426:
	.loc 1 2827 10
	ld	a5,-96(s0)
.L427:
	.loc 1 2828 1
	mv	a0,a5
	ld	ra,200(sp)
	.cfi_restore 1
	ld	s0,192(sp)
	.cfi_restore 8
	.cfi_def_cfa 2, 208
	ld	s1,184(sp)
	.cfi_restore 9
	addi	sp,sp,208
	.cfi_def_cfa_offset 0
	jr	ra
	.cfi_endproc
.LFE27:
	.size	EnumerateAllKeywords, .-EnumerateAllKeywords
	.section	.text.EfiConfigKeywordHandlerSetData,"ax",@progbits
	.align	1
	.globl	EfiConfigKeywordHandlerSetData
	.type	EfiConfigKeywordHandlerSetData, @function
EfiConfigKeywordHandlerSetData:
.LFB28:
	.loc 1 2897 1
	.cfi_startproc
	addi	sp,sp,-192
	.cfi_def_cfa_offset 192
	sd	ra,184(sp)
	sd	s0,176(sp)
	sd	s1,168(sp)
	.cfi_offset 1, -8
	.cfi_offset 8, -16
	.cfi_offset 9, -24
	addi	s0,sp,192
	.cfi_def_cfa 8, 0
	sd	a0,-168(s0)
	sd	a1,-176(s0)
	sd	a2,-184(s0)
	sd	a3,-192(s0)
	.loc 1 2916 6
	ld	a5,-168(s0)
	beq	a5,zero,.L433
	.loc 1 2916 30 discriminator 1
	ld	a5,-184(s0)
	beq	a5,zero,.L433
	.loc 1 2916 60 discriminator 2
	ld	a5,-192(s0)
	beq	a5,zero,.L433
	.loc 1 2916 93 discriminator 3
	ld	a5,-176(s0)
	bne	a5,zero,.L434
.L433:
	.loc 1 2917 12
	li	a5,-1
	slli	a5,a5,63
	addi	a5,a5,2
	j	.L462
.L434:
	.loc 1 2920 13
	ld	a5,-184(s0)
	ld	a4,-176(s0)
	sd	a4,0(a5)
	.loc 1 2921 16
	ld	a5,-192(s0)
	li	a4,-2147483648
	sw	a4,0(a5)
	.loc 1 2922 10
	sd	zero,-40(s0)
	.loc 1 2923 19
	sd	zero,-144(s0)
	.loc 1 2924 13
	sd	zero,-80(s0)
	.loc 1 2925 14
	sd	zero,-88(s0)
	.loc 1 2926 15
	sd	zero,-104(s0)
	.loc 1 2927 16
	sd	zero,-152(s0)
	.loc 1 2928 14
	sd	zero,-136(s0)
	.loc 1 2929 19
	sd	zero,-64(s0)
	.loc 1 2930 19
	sh	zero,-106(s0)
	.loc 1 2935 16
	ld	a0,-176(s0)
	call	StrSize@plt
	mv	a5,a0
	.loc 1 2935 16 is_stmt 0 discriminator 1
	ld	a1,-176(s0)
	mv	a0,a5
	call	AllocateCopyPool@plt
	sd	a0,-72(s0)
	.loc 1 2937 13 is_stmt 1
	ld	a5,-72(s0)
	sd	a5,-48(s0)
	.loc 1 2939 9
	j	.L436
.L452:
	.loc 1 2943 14
	addi	a4,s0,-96
	addi	a5,s0,-80
	mv	a2,a4
	mv	a1,a5
	ld	a0,-48(s0)
	call	ExtractNameSpace
	sd	a0,-40(s0)
	.loc 1 2944 36
	ld	a5,-40(s0)
	.loc 1 2944 8
	bge	a5,zero,.L437
	.loc 1 2945 20
	ld	a5,-192(s0)
	li	a4,2
	sw	a4,0(a5)
	.loc 1 2946 7
	j	.L438
.L437:
	.loc 1 2953 9
	ld	s1,-80(s0)
	lla	a0,.LC11
	call	AsciiStrLen@plt
	mv	a5,a0
	.loc 1 2953 9 is_stmt 0 discriminator 1
	mv	a2,a5
	lla	a1,.LC11
	mv	a0,s1
	call	AsciiStrnCmp@plt
	mv	a5,a0
	.loc 1 2953 8 is_stmt 1 discriminator 2
	beq	a5,zero,.L439
	.loc 1 2954 20
	ld	a5,-192(s0)
	li	a4,2
	sw	a4,0(a5)
	.loc 1 2955 14
	li	a5,-1
	slli	a5,a5,63
	addi	a5,a5,2
	sd	a5,-40(s0)
	.loc 1 2956 7
	j	.L438
.L439:
	.loc 1 2959 15
	ld	a5,-96(s0)
	sd	a5,-48(s0)
	.loc 1 2964 14
	addi	a4,s0,-96
	addi	a5,s0,-88
	mv	a2,a4
	mv	a1,a5
	ld	a0,-48(s0)
	call	ExtractDevicePath
	sd	a0,-40(s0)
	.loc 1 2965 36
	ld	a5,-40(s0)
	.loc 1 2965 8
	bge	a5,zero,.L440
	.loc 1 2966 20
	ld	a5,-192(s0)
	li	a4,2
	sw	a4,0(a5)
	.loc 1 2967 7
	j	.L438
.L440:
	.loc 1 2970 15
	ld	a5,-96(s0)
	sd	a5,-48(s0)
	.loc 1 2975 21
	ld	a5,-48(s0)
	sd	a5,-64(s0)
	.loc 1 2976 14
	addi	a4,s0,-96
	addi	a5,s0,-104
	mv	a2,a4
	mv	a1,a5
	ld	a0,-48(s0)
	call	ExtractKeyword
	sd	a0,-40(s0)
	.loc 1 2977 36
	ld	a5,-40(s0)
	.loc 1 2977 8
	bge	a5,zero,.L441
	.loc 1 2981 20
	ld	a5,-192(s0)
	li	a4,2
	sw	a4,0(a5)
	.loc 1 2982 14
	li	a5,-1
	slli	a5,a5,63
	addi	a5,a5,2
	sd	a5,-40(s0)
	.loc 1 2983 7
	j	.L438
.L441:
	.loc 1 2986 15
	ld	a5,-96(s0)
	sd	a5,-48(s0)
	.loc 1 2991 14
	addi	a4,s0,-96
	addi	a5,s0,-152
	mv	a2,a4
	mv	a1,a5
	ld	a0,-48(s0)
	call	ExtractValue
	sd	a0,-40(s0)
	.loc 1 2992 36
	ld	a5,-40(s0)
	.loc 1 2992 8
	bge	a5,zero,.L442
	.loc 1 2996 20
	ld	a5,-192(s0)
	li	a4,2
	sw	a4,0(a5)
	.loc 1 2997 14
	li	a5,-1
	slli	a5,a5,63
	addi	a5,a5,2
	sd	a5,-40(s0)
	.loc 1 2998 7
	j	.L438
.L442:
	.loc 1 3001 15
	ld	a5,-96(s0)
	sd	a5,-48(s0)
	.loc 1 3006 8
	ld	a5,-48(s0)
	beq	a5,zero,.L443
	.loc 1 3006 41 discriminator 1
	lla	a0,.LC21
	call	StrLen@plt
	mv	a5,a0
	.loc 1 3006 41 is_stmt 0 discriminator 2
	mv	a2,a5
	lla	a1,.LC21
	ld	a0,-48(s0)
	call	StrnCmp@plt
	mv	a5,a0
	.loc 1 3006 37 is_stmt 1 discriminator 3
	bne	a5,zero,.L443
	.loc 1 3007 16
	li	a5,1
	sb	a5,-49(s0)
	.loc 1 3008 20
	lla	a0,.LC21
	call	StrLen@plt
	mv	a5,a0
	.loc 1 3008 17 discriminator 1
	slli	a5,a5,1
	ld	a4,-48(s0)
	add	a5,a4,a5
	sd	a5,-48(s0)
	.loc 1 3008 7
	j	.L444
.L443:
	.loc 1 3010 16
	sb	zero,-49(s0)
.L444:
	.loc 1 3016 14
	ld	a2,-104(s0)
	addi	a5,s0,-120
	addi	a4,s0,-106
	addi	a3,s0,-112
	addi	a1,s0,-80
	addi	a0,s0,-88
	call	GetStringIdFromDatabase
	sd	a0,-40(s0)
	.loc 1 3017 36
	ld	a5,-40(s0)
	.loc 1 3017 8
	bge	a5,zero,.L445
	.loc 1 3018 20
	lw	a4,-112(s0)
	ld	a5,-192(s0)
	sw	a4,0(a5)
	.loc 1 3019 7
	j	.L438
.L445:
	.loc 1 3025 14
	ld	a5,-120(s0)
	lhu	a1,-106(s0)
	ld	a2,-152(s0)
	addi	a4,s0,-136
	addi	a3,s0,-128
	mv	a0,a5
	call	ExtractConfigResp
	sd	a0,-40(s0)
	.loc 1 3026 36
	ld	a5,-40(s0)
	.loc 1 3026 8
	blt	a5,zero,.L463
	.loc 1 3033 9
	ld	a5,-128(s0)
	mv	a0,a5
	call	ExtractReadOnlyFromOpCode
	mv	a5,a0
	mv	a4,a5
	.loc 1 3033 8 discriminator 1
	lbu	a5,-49(s0)
	andi	a5,a5,0xff
	beq	a5,a4,.L447
	.loc 1 3038 20
	ld	a5,-192(s0)
	li	a4,8
	sw	a4,0(a5)
	.loc 1 3039 14
	li	a5,-1
	slli	a5,a5,63
	addi	a5,a5,2
	sd	a5,-40(s0)
	.loc 1 3040 7
	j	.L438
.L447:
	.loc 1 3043 8
	lbu	a5,-49(s0)
	andi	a5,a5,0xff
	beq	a5,zero,.L448
	.loc 1 3044 20
	ld	a5,-192(s0)
	li	a4,16
	sw	a4,0(a5)
	.loc 1 3045 14
	li	a5,-1
	slli	a5,a5,63
	addi	a5,a5,15
	sd	a5,-40(s0)
	.loc 1 3046 7
	j	.L438
.L448:
	.loc 1 3052 14
	addi	a4,s0,-136
	addi	a5,s0,-144
	mv	a1,a4
	mv	a0,a5
	call	MergeToMultiKeywordResp
	sd	a0,-40(s0)
	.loc 1 3053 36
	ld	a5,-40(s0)
	.loc 1 3053 8
	blt	a5,zero,.L464
	.loc 1 3060 5
	ld	a5,-80(s0)
	mv	a0,a5
	call	FreePool@plt
	.loc 1 3061 5
	ld	a5,-88(s0)
	mv	a0,a5
	call	FreePool@plt
	.loc 1 3062 5
	ld	a5,-104(s0)
	mv	a0,a5
	call	FreePool@plt
	.loc 1 3063 5
	ld	a5,-152(s0)
	mv	a0,a5
	call	FreePool@plt
	.loc 1 3064 15
	sd	zero,-80(s0)
	.loc 1 3065 16
	sd	zero,-88(s0)
	.loc 1 3066 17
	sd	zero,-104(s0)
	.loc 1 3067 18
	sd	zero,-152(s0)
	.loc 1 3068 20
	ld	a5,-136(s0)
	.loc 1 3068 8
	beq	a5,zero,.L450
	.loc 1 3069 7
	ld	a5,-136(s0)
	mv	a0,a5
	call	FreePool@plt
	.loc 1 3070 18
	sd	zero,-136(s0)
.L450:
	.loc 1 3073 21
	sd	zero,-64(s0)
.L436:
	.loc 1 2939 38
	ld	a5,-48(s0)
	beq	a5,zero,.L451
	.loc 1 2939 42 discriminator 1
	ld	a5,-48(s0)
	lhu	a5,0(a5)
	.loc 1 2939 38 discriminator 1
	bne	a5,zero,.L452
.L451:
	.loc 1 3079 34
	la	a5,mPrivate
	ld	a5,304(a5)
	.loc 1 3079 12
	ld	a4,-144(s0)
	addi	a3,s0,-160
	mv	a2,a3
	mv	a1,a4
	la	a4,mPrivate
	addi	a0,a4,288
	jalr	a5
.LVL3:
	sd	a0,-40(s0)
	.loc 1 3084 34
	ld	a5,-40(s0)
	.loc 1 3084 6
	bge	a5,zero,.L453
	.loc 1 3085 12
	li	a5,-1
	slli	a5,a5,63
	addi	a5,a5,7
	sd	a5,-40(s0)
	.loc 1 3086 5
	j	.L438
.L453:
	.loc 1 3089 16
	ld	a5,-192(s0)
	sw	zero,0(a5)
	j	.L438
.L463:
	.loc 1 3027 7
	nop
	j	.L438
.L464:
	.loc 1 3054 7
	nop
.L438:
	.loc 1 3092 6
	ld	a5,-64(s0)
	beq	a5,zero,.L454
	.loc 1 3093 50
	ld	a4,-64(s0)
	ld	a5,-72(s0)
	sub	a5,a4,a5
	.loc 1 3093 31
	mv	a4,a5
	ld	a5,-176(s0)
	add	a4,a5,a4
	.loc 1 3093 15
	ld	a5,-184(s0)
	sd	a4,0(a5)
	j	.L455
.L454:
	.loc 1 3095 44
	ld	a4,-48(s0)
	ld	a5,-72(s0)
	sub	a5,a4,a5
	.loc 1 3095 31
	mv	a4,a5
	ld	a5,-176(s0)
	add	a4,a5,a4
	.loc 1 3095 15
	ld	a5,-184(s0)
	sd	a4,0(a5)
.L455:
	.loc 1 3099 3
	ld	a0,-72(s0)
	call	FreePool@plt
	.loc 1 3100 17
	ld	a5,-80(s0)
	.loc 1 3100 6
	beq	a5,zero,.L456
	.loc 1 3101 5
	ld	a5,-80(s0)
	mv	a0,a5
	call	FreePool@plt
.L456:
	.loc 1 3104 18
	ld	a5,-88(s0)
	.loc 1 3104 6
	beq	a5,zero,.L457
	.loc 1 3105 5
	ld	a5,-88(s0)
	mv	a0,a5
	call	FreePool@plt
.L457:
	.loc 1 3108 19
	ld	a5,-104(s0)
	.loc 1 3108 6
	beq	a5,zero,.L458
	.loc 1 3109 5
	ld	a5,-104(s0)
	mv	a0,a5
	call	FreePool@plt
.L458:
	.loc 1 3112 20
	ld	a5,-152(s0)
	.loc 1 3112 6
	beq	a5,zero,.L459
	.loc 1 3113 5
	ld	a5,-152(s0)
	mv	a0,a5
	call	FreePool@plt
.L459:
	.loc 1 3116 18
	ld	a5,-136(s0)
	.loc 1 3116 6
	beq	a5,zero,.L460
	.loc 1 3117 5
	ld	a5,-136(s0)
	mv	a0,a5
	call	FreePool@plt
.L460:
	.loc 1 3120 24
	ld	a5,-144(s0)
	.loc 1 3120 6
	beq	a5,zero,.L461
	.loc 1 3120 61 discriminator 1
	ld	a4,-144(s0)
	ld	a5,-136(s0)
	.loc 1 3120 41 discriminator 1
	beq	a4,a5,.L461
	.loc 1 3121 5
	ld	a5,-144(s0)
	mv	a0,a5
	call	FreePool@plt
.L461:
	.loc 1 3124 10
	ld	a5,-40(s0)
.L462:
	.loc 1 3125 1
	mv	a0,a5
	ld	ra,184(sp)
	.cfi_restore 1
	ld	s0,176(sp)
	.cfi_restore 8
	.cfi_def_cfa 2, 192
	ld	s1,168(sp)
	.cfi_restore 9
	addi	sp,sp,192
	.cfi_def_cfa_offset 0
	jr	ra
	.cfi_endproc
.LFE28:
	.size	EfiConfigKeywordHandlerSetData, .-EfiConfigKeywordHandlerSetData
	.section	.text.EfiConfigKeywordHandlerGetData,"ax",@progbits
	.align	1
	.globl	EfiConfigKeywordHandlerGetData
	.type	EfiConfigKeywordHandlerGetData, @function
EfiConfigKeywordHandlerGetData:
.LFB29:
	.loc 1 3206 1
	.cfi_startproc
	addi	sp,sp,-208
	.cfi_def_cfa_offset 208
	sd	ra,200(sp)
	sd	s0,192(sp)
	sd	s1,184(sp)
	.cfi_offset 1, -8
	.cfi_offset 8, -16
	.cfi_offset 9, -24
	addi	s0,sp,208
	.cfi_def_cfa 8, 0
	sd	a0,-168(s0)
	sd	a1,-176(s0)
	sd	a2,-184(s0)
	sd	a3,-192(s0)
	sd	a4,-200(s0)
	sd	a5,-208(s0)
	.loc 1 3224 6
	ld	a5,-168(s0)
	beq	a5,zero,.L466
	.loc 1 3224 30 discriminator 1
	ld	a5,-192(s0)
	beq	a5,zero,.L466
	.loc 1 3224 60 discriminator 2
	ld	a5,-200(s0)
	beq	a5,zero,.L466
	.loc 1 3224 93 discriminator 3
	ld	a5,-208(s0)
	bne	a5,zero,.L467
.L466:
	.loc 1 3225 12
	li	a5,-1
	slli	a5,a5,63
	addi	a5,a5,2
	j	.L493
.L467:
	.loc 1 3228 16
	ld	a5,-200(s0)
	li	a4,-2147483648
	sw	a4,0(a5)
	.loc 1 3229 10
	sd	zero,-40(s0)
	.loc 1 3230 14
	sd	zero,-72(s0)
	.loc 1 3231 13
	sd	zero,-64(s0)
	.loc 1 3232 15
	sd	zero,-96(s0)
	.loc 1 3233 17
	sd	zero,-120(s0)
	.loc 1 3234 13
	ld	a5,-184(s0)
	sd	a5,-48(s0)
	.loc 1 3235 12
	sb	zero,-133(s0)
	.loc 1 3236 20
	sd	zero,-152(s0)
	.loc 1 3237 19
	sh	zero,-98(s0)
	.loc 1 3238 14
	sd	zero,-56(s0)
	.loc 1 3243 6
	ld	a5,-176(s0)
	beq	a5,zero,.L469
	.loc 1 3244 18
	ld	a0,-176(s0)
	call	StrSize@plt
	mv	a5,a0
	.loc 1 3244 18 is_stmt 0 discriminator 1
	ld	a1,-176(s0)
	mv	a0,a5
	call	AllocateCopyPool@plt
	sd	a0,-56(s0)
.L469:
	.loc 1 3251 12 is_stmt 1
	addi	a5,s0,-64
	li	a2,0
	mv	a1,a5
	ld	a0,-56(s0)
	call	ExtractNameSpace
	sd	a0,-40(s0)
	.loc 1 3252 6
	ld	a5,-56(s0)
	beq	a5,zero,.L470
	.loc 1 3253 5
	ld	a0,-56(s0)
	call	FreePool@plt
	.loc 1 3254 16
	sd	zero,-56(s0)
.L470:
	.loc 1 3257 34
	ld	a5,-40(s0)
	.loc 1 3257 6
	bge	a5,zero,.L471
	.loc 1 3258 18
	ld	a5,-200(s0)
	li	a4,2
	sw	a4,0(a5)
	.loc 1 3259 12
	ld	a5,-40(s0)
	j	.L493
.L471:
	.loc 1 3265 17
	ld	a5,-64(s0)
	.loc 1 3265 6
	beq	a5,zero,.L472
	.loc 1 3266 9
	ld	s1,-64(s0)
	lla	a0,.LC11
	call	AsciiStrLen@plt
	mv	a5,a0
	.loc 1 3266 9 is_stmt 0 discriminator 1
	mv	a2,a5
	lla	a1,.LC11
	mv	a0,s1
	call	AsciiStrnCmp@plt
	mv	a5,a0
	.loc 1 3266 8 is_stmt 1 discriminator 2
	beq	a5,zero,.L472
	.loc 1 3267 20
	ld	a5,-200(s0)
	li	a4,2
	sw	a4,0(a5)
	.loc 1 3268 14
	li	a5,-1
	slli	a5,a5,63
	addi	a5,a5,2
	j	.L493
.L472:
	.loc 1 3272 6
	ld	a5,-184(s0)
	beq	a5,zero,.L473
	.loc 1 3276 18
	ld	a0,-184(s0)
	call	StrSize@plt
	mv	a5,a0
	.loc 1 3276 18 is_stmt 0 discriminator 1
	ld	a1,-184(s0)
	mv	a0,a5
	call	AllocateCopyPool@plt
	sd	a0,-56(s0)
	.loc 1 3278 15 is_stmt 1
	ld	a5,-56(s0)
	sd	a5,-48(s0)
	.loc 1 3280 11
	j	.L474
.L486:
	.loc 1 3284 16
	addi	a4,s0,-88
	addi	a5,s0,-72
	mv	a2,a4
	mv	a1,a5
	ld	a0,-48(s0)
	call	ExtractDevicePath
	sd	a0,-40(s0)
	.loc 1 3285 38
	ld	a5,-40(s0)
	.loc 1 3285 10
	bge	a5,zero,.L475
	.loc 1 3286 22
	ld	a5,-200(s0)
	li	a4,2
	sw	a4,0(a5)
	.loc 1 3287 9
	j	.L476
.L475:
	.loc 1 3290 17
	ld	a5,-88(s0)
	sd	a5,-48(s0)
	.loc 1 3297 16
	addi	a4,s0,-88
	addi	a5,s0,-96
	mv	a2,a4
	mv	a1,a5
	ld	a0,-48(s0)
	call	ExtractKeyword
	sd	a0,-40(s0)
	.loc 1 3298 38
	ld	a5,-40(s0)
	.loc 1 3298 10
	bge	a5,zero,.L477
	.loc 1 3302 22
	ld	a5,-200(s0)
	li	a4,2
	sw	a4,0(a5)
	.loc 1 3303 16
	li	a5,-1
	slli	a5,a5,63
	addi	a5,a5,2
	sd	a5,-40(s0)
	.loc 1 3304 9
	j	.L476
.L477:
	.loc 1 3310 16
	ld	a2,-96(s0)
	addi	a5,s0,-80
	addi	a4,s0,-98
	addi	a3,s0,-132
	addi	a1,s0,-64
	addi	a0,s0,-72
	call	GetStringIdFromDatabase
	sd	a0,-40(s0)
	.loc 1 3311 38
	ld	a5,-40(s0)
	.loc 1 3311 10
	bge	a5,zero,.L478
	.loc 1 3312 22
	lw	a4,-132(s0)
	ld	a5,-200(s0)
	sw	a4,0(a5)
	.loc 1 3313 9
	j	.L476
.L478:
	.loc 1 3319 16
	ld	a5,-80(s0)
	lhu	a4,-98(s0)
	addi	a3,s0,-120
	addi	a2,s0,-112
	mv	a1,a4
	mv	a0,a5
	call	ExtractConfigRequest
	sd	a0,-40(s0)
	.loc 1 3320 38
	ld	a5,-40(s0)
	.loc 1 3320 10
	blt	a5,zero,.L494
	.loc 1 3327 16
	ld	a5,-120(s0)
	addi	a4,s0,-128
	mv	a1,a4
	mv	a0,a5
	call	ExtractValueFromDriver
	sd	a0,-40(s0)
	.loc 1 3328 38
	ld	a5,-40(s0)
	.loc 1 3328 10
	bge	a5,zero,.L480
	.loc 1 3329 12
	ld	a4,-40(s0)
	li	a5,-1
	slli	a5,a5,63
	addi	a5,a5,9
	beq	a4,a5,.L495
	.loc 1 3330 18
	li	a5,-1
	slli	a5,a5,63
	addi	a5,a5,7
	sd	a5,-40(s0)
	.loc 1 3333 9
	j	.L495
.L480:
	.loc 1 3336 17
	ld	a5,-88(s0)
	sd	a5,-48(s0)
	.loc 1 3341 16
	ld	a5,-112(s0)
	addi	a3,s0,-133
	addi	a4,s0,-88
	mv	a2,a4
	ld	a1,-48(s0)
	mv	a0,a5
	call	ValidateFilter
	mv	a5,a0
	.loc 1 3341 14 discriminator 1
	sw	a5,-132(s0)
	.loc 1 3342 18
	lw	a5,-132(s0)
	.loc 1 3342 10
	beq	a5,zero,.L482
	.loc 1 3343 22
	lw	a4,-132(s0)
	ld	a5,-200(s0)
	sw	a4,0(a5)
	.loc 1 3344 16
	li	a5,-1
	slli	a5,a5,63
	addi	a5,a5,2
	sd	a5,-40(s0)
	.loc 1 3345 9
	j	.L476
.L482:
	.loc 1 3348 17
	ld	a5,-88(s0)
	sd	a5,-48(s0)
	.loc 1 3353 16
	ld	a0,-64(s0)
	ld	a1,-72(s0)
	ld	a2,-96(s0)
	ld	a3,-128(s0)
	lbu	a4,-133(s0)
	addi	a5,s0,-144
	call	GenerateKeywordResp
	sd	a0,-40(s0)
	.loc 1 3354 10
	ld	a5,-40(s0)
	bne	a5,zero,.L496
	.loc 1 3361 16
	addi	a4,s0,-144
	addi	a5,s0,-152
	mv	a1,a4
	mv	a0,a5
	call	MergeToMultiKeywordResp
	sd	a0,-40(s0)
	.loc 1 3362 38
	ld	a5,-40(s0)
	.loc 1 3362 10
	blt	a5,zero,.L497
	.loc 1 3369 16
	ld	a4,-152(s0)
	ld	a5,-208(s0)
	sd	a4,0(a5)
	.loc 1 3374 7
	ld	a5,-72(s0)
	mv	a0,a5
	call	FreePool@plt
	.loc 1 3375 7
	ld	a5,-96(s0)
	mv	a0,a5
	call	FreePool@plt
	.loc 1 3376 7
	ld	a5,-128(s0)
	mv	a0,a5
	call	FreePool@plt
	.loc 1 3377 7
	ld	a5,-120(s0)
	mv	a0,a5
	call	FreePool@plt
	.loc 1 3378 18
	sd	zero,-72(s0)
	.loc 1 3379 19
	sd	zero,-96(s0)
	.loc 1 3380 20
	sd	zero,-128(s0)
	.loc 1 3381 21
	sd	zero,-120(s0)
	.loc 1 3382 23
	ld	a5,-144(s0)
	.loc 1 3382 10
	beq	a5,zero,.L474
	.loc 1 3383 9
	ld	a5,-144(s0)
	mv	a0,a5
	call	FreePool@plt
	.loc 1 3384 21
	sd	zero,-144(s0)
.L474:
	.loc 1 3280 12
	ld	a5,-48(s0)
	lhu	a5,0(a5)
	.loc 1 3280 23
	bne	a5,zero,.L486
	j	.L487
.L473:
	.loc 1 3391 14
	ld	a5,-64(s0)
	addi	a4,s0,-152
	ld	a2,-200(s0)
	mv	a1,a4
	mv	a0,a5
	call	EnumerateAllKeywords
	sd	a0,-40(s0)
	.loc 1 3392 36
	ld	a5,-40(s0)
	.loc 1 3392 8
	blt	a5,zero,.L498
	.loc 1 3396 14
	ld	a4,-152(s0)
	ld	a5,-208(s0)
	sd	a4,0(a5)
.L487:
	.loc 1 3399 16
	ld	a5,-200(s0)
	sw	zero,0(a5)
	j	.L476
.L494:
	.loc 1 3321 9
	nop
	j	.L476
.L495:
	.loc 1 3333 9
	nop
	j	.L476
.L496:
	.loc 1 3355 9
	nop
	j	.L476
.L497:
	.loc 1 3363 9
	nop
	j	.L476
.L498:
	.loc 1 3393 7
	nop
.L476:
	.loc 1 3402 42
	ld	a4,-48(s0)
	ld	a5,-56(s0)
	sub	a5,a4,a5
	.loc 1 3402 29
	mv	a4,a5
	ld	a5,-184(s0)
	add	a4,a5,a4
	.loc 1 3402 13
	ld	a5,-192(s0)
	sd	a4,0(a5)
	.loc 1 3404 6
	ld	a5,-56(s0)
	beq	a5,zero,.L489
	.loc 1 3405 5
	ld	a0,-56(s0)
	call	FreePool@plt
.L489:
	.loc 1 3408 17
	ld	a5,-64(s0)
	.loc 1 3408 6
	beq	a5,zero,.L490
	.loc 1 3409 5
	ld	a5,-64(s0)
	mv	a0,a5
	call	FreePool@plt
.L490:
	.loc 1 3412 18
	ld	a5,-72(s0)
	.loc 1 3412 6
	beq	a5,zero,.L491
	.loc 1 3413 5
	ld	a5,-72(s0)
	mv	a0,a5
	call	FreePool@plt
.L491:
	.loc 1 3416 19
	ld	a5,-96(s0)
	.loc 1 3416 6
	beq	a5,zero,.L492
	.loc 1 3417 5
	ld	a5,-96(s0)
	mv	a0,a5
	call	FreePool@plt
.L492:
	.loc 1 3420 10
	ld	a5,-40(s0)
.L493:
	.loc 1 3421 1
	mv	a0,a5
	ld	ra,200(sp)
	.cfi_restore 1
	ld	s0,192(sp)
	.cfi_restore 8
	.cfi_def_cfa 2, 208
	ld	s1,184(sp)
	.cfi_restore 9
	addi	sp,sp,208
	.cfi_def_cfa_offset 0
	jr	ra
	.cfi_endproc
.LFE29:
	.size	EfiConfigKeywordHandlerGetData, .-EfiConfigKeywordHandlerGetData
	.text
.Letext0:
	.file 2 "/home/kapoagaeming/Downloads/spacemit-image-builder/components/edk2/MdePkg/Include/RiscV64/ProcessorBind.h"
	.file 3 "/home/kapoagaeming/Downloads/spacemit-image-builder/components/edk2/MdePkg/Include/Base.h"
	.file 4 "/home/kapoagaeming/Downloads/spacemit-image-builder/components/edk2/MdePkg/Include/Uefi/UefiBaseType.h"
	.file 5 "/home/kapoagaeming/Downloads/spacemit-image-builder/components/edk2/MdePkg/Include/Protocol/DevicePath.h"
	.file 6 "/home/kapoagaeming/Downloads/spacemit-image-builder/components/edk2/MdePkg/Include/Uefi/UefiInternalFormRepresentation.h"
	.file 7 "/home/kapoagaeming/Downloads/spacemit-image-builder/components/edk2/MdePkg/Include/Protocol/GraphicsOutput.h"
	.file 8 "/home/kapoagaeming/Downloads/spacemit-image-builder/components/edk2/MdePkg/Include/Protocol/HiiImage.h"
	.file 9 "/home/kapoagaeming/Downloads/spacemit-image-builder/components/edk2/MdePkg/Include/Protocol/HiiFont.h"
	.file 10 "/home/kapoagaeming/Downloads/spacemit-image-builder/components/edk2/MdePkg/Include/Protocol/HiiImageEx.h"
	.file 11 "/home/kapoagaeming/Downloads/spacemit-image-builder/components/edk2/MdePkg/Include/Protocol/HiiString.h"
	.file 12 "/home/kapoagaeming/Downloads/spacemit-image-builder/components/edk2/MdePkg/Include/Protocol/HiiDatabase.h"
	.file 13 "/home/kapoagaeming/Downloads/spacemit-image-builder/components/edk2/MdePkg/Include/Protocol/HiiConfigRouting.h"
	.file 14 "/home/kapoagaeming/Downloads/spacemit-image-builder/components/edk2/MdePkg/Include/Protocol/HiiConfigKeyword.h"
	.file 15 "/home/kapoagaeming/Downloads/spacemit-image-builder/components/edk2/MdeModulePkg/Universal/HiiDatabaseDxe/HiiDatabase.h"
	.file 16 "/home/kapoagaeming/Downloads/spacemit-image-builder/components/edk2/MdePkg/Include/Library/MemoryAllocationLib.h"
	.file 17 "/home/kapoagaeming/Downloads/spacemit-image-builder/components/edk2/MdePkg/Include/Library/UefiLib.h"
	.file 18 "/home/kapoagaeming/Downloads/spacemit-image-builder/components/edk2/MdePkg/Include/Library/PrintLib.h"
	.file 19 "/home/kapoagaeming/Downloads/spacemit-image-builder/components/edk2/MdePkg/Include/Library/BaseLib.h"
	.file 20 "/home/kapoagaeming/Downloads/spacemit-image-builder/components/edk2/MdePkg/Include/Library/DevicePathLib.h"
	.file 21 "/home/kapoagaeming/Downloads/spacemit-image-builder/components/edk2/MdePkg/Include/Library/BaseMemoryLib.h"
	.section	.note.GNU-stack,"",@progbits
