	.file	"Database.c"
	.option pic
	.option norelax
	.attribute arch, "rv64i2p1_m2p0_a2p1_f2p2_d2p2_c2p0_zicsr2p0_zifencei2p0_zmmul1p0_zaamo1p0_zalrsc1p0_zca1p0_zcd1p0"
	.attribute unaligned_access, 0
	.attribute stack_align, 16
	.text
.Ltext0:
	.cfi_sections	.debug_frame
	.file 0 "/home/kapoagaeming/spacemit-image-builder/components/Build/Milk-V-Jupiter/RELEASE_GCC5/RISCV64/MdeModulePkg/Universal/HiiDatabaseDxe/HiiDatabaseDxe" "/home/kapoagaeming/spacemit-image-builder/components/edk2/MdeModulePkg/Universal/HiiDatabaseDxe/Database.c"
	.globl	gRTDatabaseInfoBuffer
	.section	.bss.gRTDatabaseInfoBuffer,"aw",@nobits
	.align	3
	.type	gRTDatabaseInfoBuffer, @object
	.size	gRTDatabaseInfoBuffer, 8
gRTDatabaseInfoBuffer:
	.zero	8
	.globl	gRTConfigRespBuffer
	.section	.bss.gRTConfigRespBuffer,"aw",@nobits
	.align	3
	.type	gRTConfigRespBuffer, @object
	.size	gRTConfigRespBuffer, 8
gRTConfigRespBuffer:
	.zero	8
	.globl	gDatabaseInfoSize
	.section	.bss.gDatabaseInfoSize,"aw",@nobits
	.align	3
	.type	gDatabaseInfoSize, @object
	.size	gDatabaseInfoSize, 8
gDatabaseInfoSize:
	.zero	8
	.globl	gConfigRespSize
	.section	.bss.gConfigRespSize,"aw",@nobits
	.align	3
	.type	gConfigRespSize, @object
	.size	gConfigRespSize, 8
gConfigRespSize:
	.zero	8
	.globl	gExportConfigResp
	.section	.bss.gExportConfigResp,"aw",@nobits
	.type	gExportConfigResp, @object
	.size	gExportConfigResp, 1
gExportConfigResp:
	.zero	1
	.globl	gNvDefaultStoreSize
	.section	.bss.gNvDefaultStoreSize,"aw",@nobits
	.align	3
	.type	gNvDefaultStoreSize, @object
	.size	gNvDefaultStoreSize, 8
gNvDefaultStoreSize:
	.zero	8
	.globl	gSkuId
	.section	.data.gSkuId,"aw"
	.align	3
	.type	gSkuId, @object
	.size	gSkuId, 8
gSkuId:
	.dword	-1
	.globl	gVarStorageList
	.section	.data.rel.local.gVarStorageList,"aw"
	.align	3
	.type	gVarStorageList, @object
	.size	gVarStorageList, 16
gVarStorageList:
	.dword	gVarStorageList
	.dword	gVarStorageList
	.globl	mHiiDatabaseLock
	.section	.data.mHiiDatabaseLock,"aw"
	.align	3
	.type	mHiiDatabaseLock, @object
	.size	mHiiDatabaseLock, 24
mHiiDatabaseLock:
	.dword	16
	.dword	4
	.word	1
	.zero	4
	.section	.text.GenerateHiiDatabaseRecord,"ax",@progbits
	.align	1
	.globl	GenerateHiiDatabaseRecord
	.type	GenerateHiiDatabaseRecord, @function
GenerateHiiDatabaseRecord:
.LFB0:
	.file 1 "/home/kapoagaeming/spacemit-image-builder/components/edk2/MdeModulePkg/Universal/HiiDatabaseDxe/Database.c"
	.loc 1 46 1
	.cfi_startproc
	addi	sp,sp,-64
	.cfi_def_cfa_offset 64
	sd	ra,56(sp)
	sd	s0,48(sp)
	.cfi_offset 1, -8
	.cfi_offset 8, -16
	addi	s0,sp,64
	.cfi_def_cfa 8, 0
	sd	a0,-56(s0)
	sd	a1,-64(s0)
	.loc 1 51 6
	ld	a5,-56(s0)
	beq	a5,zero,.L2
	.loc 1 51 33 discriminator 1
	ld	a5,-64(s0)
	bne	a5,zero,.L3
.L2:
	.loc 1 52 12
	li	a5,-1
	slli	a5,a5,63
	addi	a5,a5,2
	j	.L4
.L3:
	.loc 1 55 43
	li	a0,48
	call	AllocateZeroPool@plt
	sd	a0,-24(s0)
	.loc 1 56 6
	ld	a5,-24(s0)
	bne	a5,zero,.L5
	.loc 1 57 12
	li	a5,-1
	slli	a5,a5,63
	addi	a5,a5,9
	j	.L4
.L5:
	.loc 1 60 29
	ld	a5,-24(s0)
	li	a4,1919184896
	addi	a4,a4,-1688
	sd	a4,0(a5)
	.loc 1 62 33
	li	a0,136
	call	AllocateZeroPool@plt
	mv	a4,a0
	.loc 1 62 31 discriminator 1
	ld	a5,-24(s0)
	sd	a4,8(a5)
	.loc 1 63 21
	ld	a5,-24(s0)
	ld	a5,8(a5)
	.loc 1 63 6
	bne	a5,zero,.L6
	.loc 1 64 5
	ld	a0,-24(s0)
	call	FreePool@plt
	.loc 1 65 12
	li	a5,-1
	slli	a5,a5,63
	addi	a5,a5,9
	j	.L4
.L6:
	.loc 1 68 15
	ld	a5,-24(s0)
	ld	a5,8(a5)
	sd	a5,-32(s0)
	.loc 1 70 3
	ld	a5,-32(s0)
	addi	a5,a5,24
	mv	a0,a5
	call	InitializeListHead@plt
	.loc 1 71 3
	ld	a5,-32(s0)
	addi	a5,a5,40
	mv	a0,a5
	call	InitializeListHead@plt
	.loc 1 72 3
	ld	a5,-32(s0)
	addi	a5,a5,56
	mv	a0,a5
	call	InitializeListHead@plt
	.loc 1 73 3
	ld	a5,-32(s0)
	addi	a5,a5,72
	mv	a0,a5
	call	InitializeListHead@plt
	.loc 1 74 3
	ld	a5,-32(s0)
	addi	a5,a5,88
	mv	a0,a5
	call	InitializeListHead@plt
	.loc 1 75 3
	ld	a5,-32(s0)
	addi	a5,a5,112
	mv	a0,a5
	call	InitializeListHead@plt
	.loc 1 76 25
	ld	a5,-32(s0)
	sd	zero,104(a5)
	.loc 1 77 30
	ld	a5,-32(s0)
	sd	zero,128(a5)
	.loc 1 82 29
	li	a0,32
	call	AllocateZeroPool@plt
	sd	a0,-40(s0)
	.loc 1 83 6
	ld	a5,-40(s0)
	bne	a5,zero,.L7
	.loc 1 84 29
	ld	a5,-24(s0)
	ld	a5,8(a5)
	.loc 1 84 5
	mv	a0,a5
	call	FreePool@plt
	.loc 1 85 5
	ld	a0,-24(s0)
	call	FreePool@plt
	.loc 1 86 12
	li	a5,-1
	slli	a5,a5,63
	addi	a5,a5,9
	j	.L4
.L7:
	.loc 1 89 24
	ld	a5,-40(s0)
	li	a4,1818783744
	addi	a4,a4,-1688
	sd	a4,0(a5)
	.loc 1 93 10
	ld	a5,-56(s0)
	ld	a5,368(a5)
	.loc 1 93 26
	addi	a4,a5,1
	ld	a5,-56(s0)
	sd	a4,368(a5)
	.loc 1 94 34
	ld	a5,-56(s0)
	ld	a5,368(a5)
	.loc 1 94 20
	mv	a4,a5
	.loc 1 94 18
	ld	a5,-40(s0)
	sd	a4,24(a5)
	.loc 1 98 3
	ld	a5,-56(s0)
	addi	a4,a5,352
	ld	a5,-40(s0)
	addi	a5,a5,8
	mv	a1,a5
	mv	a0,a4
	call	InsertTailList@plt
	.loc 1 100 26
	ld	a5,-24(s0)
	ld	a4,-40(s0)
	sd	a4,24(a5)
	.loc 1 105 3
	ld	a5,-56(s0)
	addi	a4,a5,8
	ld	a5,-24(s0)
	addi	a5,a5,32
	mv	a1,a5
	mv	a0,a4
	call	InsertTailList@plt
	.loc 1 107 17
	ld	a5,-64(s0)
	ld	a4,-24(s0)
	sd	a4,0(a5)
	.loc 1 109 10
	li	a5,0
.L4:
	.loc 1 110 1
	mv	a0,a5
	ld	ra,56(sp)
	.cfi_restore 1
	ld	s0,48(sp)
	.cfi_restore 8
	.cfi_def_cfa 2, 64
	addi	sp,sp,64
	.cfi_def_cfa_offset 0
	jr	ra
	.cfi_endproc
.LFE0:
	.size	GenerateHiiDatabaseRecord, .-GenerateHiiDatabaseRecord
	.section	.text.IsHiiHandleValid,"ax",@progbits
	.align	1
	.globl	IsHiiHandleValid
	.type	IsHiiHandleValid, @function
IsHiiHandleValid:
.LFB1:
	.loc 1 126 1
	.cfi_startproc
	addi	sp,sp,-48
	.cfi_def_cfa_offset 48
	sd	ra,40(sp)
	sd	s0,32(sp)
	.cfi_offset 1, -8
	.cfi_offset 8, -16
	addi	s0,sp,48
	.cfi_def_cfa 8, 0
	sd	a0,-40(s0)
	.loc 1 129 13
	ld	a5,-40(s0)
	sd	a5,-24(s0)
	.loc 1 131 6
	ld	a5,-24(s0)
	bne	a5,zero,.L9
	.loc 1 132 12
	li	a5,0
	j	.L10
.L9:
	.loc 1 135 16
	ld	a5,-24(s0)
	ld	a4,0(a5)
	.loc 1 135 6
	li	a5,1818783744
	addi	a5,a5,-1688
	beq	a4,a5,.L11
	.loc 1 136 12
	li	a5,0
	j	.L10
.L11:
	.loc 1 139 10
	li	a5,1
.L10:
	.loc 1 140 1
	mv	a0,a5
	ld	ra,40(sp)
	.cfi_restore 1
	ld	s0,32(sp)
	.cfi_restore 8
	.cfi_def_cfa 2, 48
	addi	sp,sp,48
	.cfi_def_cfa_offset 0
	jr	ra
	.cfi_endproc
.LFE1:
	.size	IsHiiHandleValid, .-IsHiiHandleValid
	.section	.text.InvokeRegisteredFunction,"ax",@progbits
	.align	1
	.globl	InvokeRegisteredFunction
	.type	InvokeRegisteredFunction, @function
InvokeRegisteredFunction:
.LFB2:
	.loc 1 167 1
	.cfi_startproc
	addi	sp,sp,-112
	.cfi_def_cfa_offset 112
	sd	ra,104(sp)
	sd	s0,96(sp)
	.cfi_offset 1, -8
	.cfi_offset 8, -16
	addi	s0,sp,112
	.cfi_def_cfa 8, 0
	sd	a0,-72(s0)
	sd	a1,-80(s0)
	sd	a2,-88(s0)
	mv	a5,a3
	sd	a4,-104(s0)
	sb	a5,-89(s0)
	.loc 1 177 6
	ld	a5,-72(s0)
	beq	a5,zero,.L13
	.loc 1 177 49 discriminator 1
	ld	a5,-80(s0)
	andi	a5,a5,15
	.loc 1 177 33 discriminator 1
	beq	a5,zero,.L13
	.loc 1 177 62 discriminator 2
	ld	a5,-88(s0)
	bne	a5,zero,.L14
.L13:
	.loc 1 178 12
	li	a5,-1
	slli	a5,a5,63
	addi	a5,a5,2
	j	.L37
.L14:
	.loc 1 181 14
	ld	a5,-72(s0)
	ld	a4,0(a5)
	.loc 1 181 6
	li	a5,1883533312
	addi	a5,a5,-1720
	beq	a4,a5,.L16
	.loc 1 182 12
	li	a5,-1
	slli	a5,a5,63
	addi	a5,a5,2
	j	.L37
.L16:
	.loc 1 185 8
	ld	a0,-104(s0)
	call	IsHiiHandleValid
	mv	a5,a0
	.loc 1 185 6 discriminator 1
	bne	a5,zero,.L17
	.loc 1 186 12
	li	a5,-1
	slli	a5,a5,63
	addi	a5,a5,2
	j	.L37
.L17:
	.loc 1 189 10
	sd	zero,-48(s0)
	.loc 1 190 11
	sd	zero,-40(s0)
	.loc 1 196 3
	lbu	a5,-89(s0)
	sext.w	a5,a5
	li	a4,9
	beq	a5,a4,.L18
	li	a4,9
	bgt	a5,a4,.L19
	li	a4,8
	beq	a5,a4,.L20
	li	a4,8
	bgt	a5,a4,.L19
	li	a4,7
	beq	a5,a4,.L21
	li	a4,7
	bgt	a5,a4,.L19
	li	a4,6
	beq	a5,a4,.L22
	li	a4,6
	bgt	a5,a4,.L19
	li	a4,5
	beq	a5,a4,.L23
	li	a4,5
	bgt	a5,a4,.L19
	li	a4,4
	beq	a5,a4,.L24
	li	a4,4
	bgt	a5,a4,.L19
	li	a4,1
	beq	a5,a4,.L25
	li	a4,2
	beq	a5,a4,.L26
	j	.L19
.L25:
	.loc 1 198 15
	ld	a5,-88(s0)
	ld	a5,8(a5)
	sd	a5,-40(s0)
	.loc 1 199 7
	j	.L27
.L26:
	.loc 1 202 77
	ld	a5,-88(s0)
	ld	a5,8(a5)
	mv	a4,a5
	li	a5,16777216
	addi	a5,a5,-1
	and	a5,a4,a5
	sext.w	a5,a5
	.loc 1 202 18
	sw	a5,-52(s0)
	.loc 1 203 25
	lwu	a5,-52(s0)
	mv	a0,a5
	call	AllocateZeroPool@plt
	sd	a0,-48(s0)
	.loc 1 207 9
	ld	a5,-88(s0)
	addi	a5,a5,8
	.loc 1 205 7
	li	a2,4
	mv	a1,a5
	ld	a0,-48(s0)
	call	CopyMem@plt
	.loc 1 211 16
	ld	a5,-48(s0)
	addi	a4,a5,4
	.loc 1 212 54
	ld	a5,-88(s0)
	ld	a3,16(a5)
	.loc 1 210 7
	lwu	a5,-52(s0)
	.loc 1 213 20
	addi	a5,a5,-4
	.loc 1 210 7
	mv	a2,a5
	mv	a1,a3
	mv	a0,a4
	call	CopyMem@plt
	.loc 1 215 15
	ld	a5,-48(s0)
	sd	a5,-40(s0)
	.loc 1 216 7
	j	.L27
.L18:
	.loc 1 219 15
	ld	a5,-88(s0)
	ld	a5,8(a5)
	sd	a5,-40(s0)
	.loc 1 220 7
	j	.L27
.L24:
	.loc 1 223 68
	ld	a5,-88(s0)
	ld	a5,8(a5)
	.loc 1 223 90
	lbu	a4,0(a5)
	lbu	a3,1(a5)
	slli	a3,a3,8
	or	a4,a3,a4
	lbu	a5,2(a5)
	slli	a5,a5,16
	or	a5,a5,a4
	sext.w	a5,a5
	.loc 1 223 18
	sw	a5,-52(s0)
	.loc 1 224 68
	ld	a5,-88(s0)
	ld	a5,8(a5)
	.loc 1 224 82
	lbu	a4,4(a5)
	lbu	a3,5(a5)
	slli	a3,a3,8
	or	a4,a3,a4
	lbu	a3,6(a5)
	slli	a3,a3,16
	or	a4,a3,a4
	lbu	a5,7(a5)
	slli	a5,a5,24
	or	a5,a5,a4
	sext.w	a5,a5
	.loc 1 224 18
	sw	a5,-64(s0)
	.loc 1 225 25
	lwu	a5,-52(s0)
	mv	a0,a5
	call	AllocateZeroPool@plt
	sd	a0,-48(s0)
	.loc 1 229 57
	ld	a5,-88(s0)
	ld	a5,8(a5)
	.loc 1 227 7
	lw	a4,-64(s0)
	slli	a4,a4,32
	srli	a4,a4,32
	mv	a2,a4
	mv	a1,a5
	ld	a0,-48(s0)
	call	CopyMem@plt
	.loc 1 232 7
	lw	a5,-64(s0)
	slli	a5,a5,32
	srli	a5,a5,32
	.loc 1 233 16
	ld	a4,-48(s0)
	add	a4,a4,a5
	.loc 1 234 57
	ld	a5,-88(s0)
	ld	a3,16(a5)
	.loc 1 235 20
	lw	a5,-64(s0)
	lw	a2,-52(s0)
	subw	a5,a2,a5
	sext.w	a5,a5
	.loc 1 232 7
	slli	a5,a5,32
	srli	a5,a5,32
	mv	a2,a5
	mv	a1,a3
	mv	a0,a4
	call	CopyMem@plt
	.loc 1 237 15
	ld	a5,-48(s0)
	sd	a5,-40(s0)
	.loc 1 238 7
	j	.L27
.L23:
	.loc 1 241 66
	ld	a5,-88(s0)
	ld	a5,8(a5)
	.loc 1 241 86
	lbu	a4,0(a5)
	lbu	a3,1(a5)
	slli	a3,a3,8
	or	a4,a3,a4
	lbu	a5,2(a5)
	slli	a5,a5,16
	or	a5,a5,a4
	sext.w	a5,a5
	.loc 1 241 18
	sw	a5,-52(s0)
	.loc 1 242 66
	ld	a5,-88(s0)
	ld	a5,8(a5)
	.loc 1 242 78
	lbu	a4,4(a5)
	lbu	a3,5(a5)
	slli	a3,a3,8
	or	a4,a3,a4
	lbu	a3,6(a5)
	slli	a3,a3,16
	or	a4,a3,a4
	lbu	a5,7(a5)
	slli	a5,a5,24
	or	a5,a5,a4
	sext.w	a5,a5
	.loc 1 242 18
	sw	a5,-64(s0)
	.loc 1 243 25
	lwu	a5,-52(s0)
	mv	a0,a5
	call	AllocateZeroPool@plt
	sd	a0,-48(s0)
	.loc 1 247 55
	ld	a5,-88(s0)
	ld	a5,8(a5)
	.loc 1 245 7
	lw	a4,-64(s0)
	slli	a4,a4,32
	srli	a4,a4,32
	mv	a2,a4
	mv	a1,a5
	ld	a0,-48(s0)
	call	CopyMem@plt
	.loc 1 250 7
	lw	a5,-64(s0)
	slli	a5,a5,32
	srli	a5,a5,32
	.loc 1 251 16
	ld	a4,-48(s0)
	add	a4,a4,a5
	.loc 1 252 55
	ld	a5,-88(s0)
	ld	a3,24(a5)
	.loc 1 253 20
	lw	a5,-64(s0)
	lw	a2,-52(s0)
	subw	a5,a2,a5
	sext.w	a5,a5
	.loc 1 250 7
	slli	a5,a5,32
	srli	a5,a5,32
	mv	a2,a5
	mv	a1,a3
	mv	a0,a4
	call	CopyMem@plt
	.loc 1 255 15
	ld	a5,-48(s0)
	sd	a5,-40(s0)
	.loc 1 256 7
	j	.L27
.L22:
	.loc 1 259 87
	ld	a5,-88(s0)
	ld	a5,0(a5)
	mv	a4,a5
	li	a5,16777216
	addi	a5,a5,-1
	and	a5,a4,a5
	sext.w	a5,a5
	.loc 1 259 18
	sw	a5,-52(s0)
	.loc 1 260 18
	li	a5,12
	sw	a5,-64(s0)
	.loc 1 261 25
	lwu	a5,-52(s0)
	mv	a0,a5
	call	AllocateZeroPool@plt
	sd	a0,-48(s0)
	.loc 1 266 9
	ld	a5,-88(s0)
	.loc 1 264 7
	lw	a4,-64(s0)
	slli	a4,a4,32
	srli	a4,a4,32
	mv	a2,a4
	mv	a1,a5
	ld	a0,-48(s0)
	call	CopyMem@plt
	.loc 1 270 16
	ld	a5,-48(s0)
	addi	a5,a5,4
	.loc 1 269 7
	addi	a4,s0,-64
	li	a2,4
	mv	a1,a4
	mv	a0,a5
	call	CopyMem@plt
	.loc 1 275 22
	ld	a5,-88(s0)
	lw	a5,12(a5)
	sw	a5,-56(s0)
	.loc 1 276 10
	lw	a5,-56(s0)
	sext.w	a5,a5
	beq	a5,zero,.L28
	.loc 1 277 9
	lw	a5,-64(s0)
	slli	a5,a5,32
	srli	a5,a5,32
	.loc 1 278 18
	ld	a4,-48(s0)
	add	a4,a4,a5
	.loc 1 279 58
	ld	a5,-88(s0)
	ld	a5,24(a5)
	.loc 1 277 9
	lwu	a3,-56(s0)
	mv	a2,a3
	mv	a1,a5
	mv	a0,a4
	call	CopyMem@plt
.L28:
	.loc 1 284 23
	ld	a5,-88(s0)
	lw	a5,16(a5)
	sw	a5,-60(s0)
	.loc 1 285 10
	lw	a5,-60(s0)
	sext.w	a5,a5
	beq	a5,zero,.L29
	.loc 1 287 31
	lw	a5,-64(s0)
	slli	a4,a5,32
	srli	a4,a4,32
	lwu	a5,-56(s0)
	add	a5,a4,a5
	ld	a4,-48(s0)
	add	a4,a4,a5
	.loc 1 288 58
	ld	a5,-88(s0)
	ld	a5,32(a5)
	.loc 1 286 9
	lwu	a3,-60(s0)
	mv	a2,a3
	mv	a1,a5
	mv	a0,a4
	call	CopyMem@plt
	.loc 1 291 20
	lw	a5,-64(s0)
	lw	a4,-56(s0)
	addw	a5,a4,a5
	sext.w	a5,a5
	sw	a5,-64(s0)
	.loc 1 293 52
	ld	a5,-48(s0)
	addi	a5,a5,8
	.loc 1 292 9
	addi	a4,s0,-64
	li	a2,4
	mv	a1,a4
	mv	a0,a5
	call	CopyMem@plt
.L29:
	.loc 1 299 15
	ld	a5,-48(s0)
	sd	a5,-40(s0)
	.loc 1 300 7
	j	.L27
.L21:
	.loc 1 303 73
	ld	a5,-88(s0)
	ld	a5,8(a5)
	.loc 1 303 99
	lbu	a4,0(a5)
	lbu	a3,1(a5)
	slli	a3,a3,8
	or	a4,a3,a4
	lbu	a5,2(a5)
	slli	a5,a5,16
	or	a5,a5,a4
	sext.w	a5,a5
	.loc 1 303 18
	sw	a5,-52(s0)
	.loc 1 304 25
	lwu	a5,-52(s0)
	mv	a0,a5
	call	AllocateZeroPool@plt
	sd	a0,-48(s0)
	.loc 1 308 62
	ld	a5,-88(s0)
	ld	a5,8(a5)
	.loc 1 306 7
	lwu	a4,-52(s0)
	mv	a2,a4
	mv	a1,a5
	ld	a0,-48(s0)
	call	CopyMem@plt
	.loc 1 311 15
	ld	a5,-48(s0)
	sd	a5,-40(s0)
	.loc 1 312 7
	j	.L27
.L20:
	.loc 1 315 15
	ld	a5,-88(s0)
	sd	a5,-40(s0)
	.loc 1 316 7
	j	.L27
.L19:
	.loc 1 319 14
	li	a5,-1
	slli	a5,a5,63
	addi	a5,a5,2
	j	.L37
.L27:
	.loc 1 322 13
	ld	a5,-72(s0)
	ld	a5,24(a5)
	sd	a5,-32(s0)
	.loc 1 322 3
	j	.L30
.L35:
	.loc 1 327 16
	ld	a5,-32(s0)
	addi	a5,a5,-48
	.loc 1 327 141
	ld	a4,0(a5)
	.loc 1 327 226
	li	a5,1852076032
	addi	a5,a5,-1688
	bne	a4,a5,.L31
	.loc 1 327 12 discriminator 1
	ld	a5,-32(s0)
	addi	a5,a5,-48
	sd	a5,-24(s0)
	j	.L32
.L31:
	.loc 1 327 12 is_stmt 0 discriminator 2
	sd	zero,-24(s0)
.L32:
	.loc 1 328 16 is_stmt 1
	ld	a5,-24(s0)
	ld	a5,40(a5)
	.loc 1 328 8
	ld	a4,-80(s0)
	bne	a4,a5,.L33
	.loc 1 328 54 discriminator 1
	ld	a5,-24(s0)
	lbu	a4,16(a5)
	.loc 1 328 44 discriminator 1
	lbu	a5,-89(s0)
	andi	a5,a5,0xff
	bne	a5,a4,.L33
	.loc 1 332 10
	lbu	a5,-89(s0)
	andi	a4,a5,0xff
	li	a5,1
	beq	a4,a5,.L34
	.loc 1 333 29
	ld	a5,-24(s0)
	sd	zero,24(a5)
.L34:
	.loc 1 339 13
	ld	a5,-24(s0)
	ld	a5,32(a5)
	.loc 1 339 7
	ld	a4,-24(s0)
	lbu	a0,16(a4)
	.loc 1 341 23
	ld	a4,-24(s0)
	ld	a1,24(a4)
	.loc 1 339 7
	ld	a4,-80(s0)
	ld	a3,-104(s0)
	ld	a2,-40(s0)
	jalr	a5
.LVL0:
.L33:
	.loc 1 324 13
	ld	a5,-32(s0)
	ld	a5,0(a5)
	sd	a5,-32(s0)
.L30:
	.loc 1 323 16
	ld	a5,-72(s0)
	addi	a5,a5,24
	.loc 1 323 13
	ld	a4,-32(s0)
	bne	a4,a5,.L35
	.loc 1 349 6
	ld	a5,-48(s0)
	beq	a5,zero,.L36
	.loc 1 350 5
	ld	a0,-48(s0)
	call	FreePool@plt
.L36:
	.loc 1 353 10
	li	a5,0
.L37:
	.loc 1 354 1
	mv	a0,a5
	ld	ra,104(sp)
	.cfi_restore 1
	ld	s0,96(sp)
	.cfi_restore 8
	.cfi_def_cfa 2, 112
	addi	sp,sp,112
	.cfi_def_cfa_offset 0
	jr	ra
	.cfi_endproc
.LFE2:
	.size	InvokeRegisteredFunction, .-InvokeRegisteredFunction
	.section	.text.InsertGuidPackage,"ax",@progbits
	.align	1
	.globl	InsertGuidPackage
	.type	InsertGuidPackage, @function
InsertGuidPackage:
.LFB3:
	.loc 1 380 1
	.cfi_startproc
	addi	sp,sp,-64
	.cfi_def_cfa_offset 64
	sd	ra,56(sp)
	sd	s0,48(sp)
	.cfi_offset 1, -8
	.cfi_offset 8, -16
	addi	s0,sp,64
	.cfi_def_cfa 8, 0
	sd	a0,-40(s0)
	sd	a1,-48(s0)
	sd	a2,-56(s0)
	sd	a3,-64(s0)
	.loc 1 384 6
	ld	a5,-40(s0)
	beq	a5,zero,.L39
	.loc 1 384 36 discriminator 1
	ld	a5,-56(s0)
	bne	a5,zero,.L40
.L39:
	.loc 1 385 12
	li	a5,-1
	slli	a5,a5,63
	addi	a5,a5,2
	j	.L45
.L40:
	.loc 1 388 3
	addi	a5,s0,-32
	li	a2,4
	ld	a1,-40(s0)
	mv	a0,a5
	call	CopyMem@plt
	.loc 1 393 46
	li	a0,32
	call	AllocateZeroPool@plt
	sd	a0,-24(s0)
	.loc 1 394 6
	ld	a5,-24(s0)
	bne	a5,zero,.L42
	.loc 1 395 12
	li	a5,-1
	slli	a5,a5,63
	addi	a5,a5,9
	j	.L45
.L42:
	.loc 1 398 66
	ld	a5,-32(s0)
	mv	a4,a5
	li	a5,16777216
	addi	a5,a5,-1
	and	a5,a4,a5
	sext.w	a5,a5
	.loc 1 398 35
	slli	a5,a5,32
	srli	a5,a5,32
	mv	a0,a5
	call	AllocateZeroPool@plt
	mv	a4,a0
	.loc 1 398 24 discriminator 1
	ld	a5,-24(s0)
	sd	a4,8(a5)
	.loc 1 399 18
	ld	a5,-24(s0)
	ld	a5,8(a5)
	.loc 1 399 6
	bne	a5,zero,.L43
	.loc 1 400 5
	ld	a0,-24(s0)
	call	FreePool@plt
	.loc 1 401 12
	li	a5,-1
	slli	a5,a5,63
	addi	a5,a5,9
	j	.L45
.L43:
	.loc 1 404 26
	ld	a5,-24(s0)
	li	a4,1885827072
	addi	a4,a4,-1688
	sd	a4,0(a5)
	.loc 1 405 23
	ld	a5,-24(s0)
	ld	a4,8(a5)
	.loc 1 405 59
	ld	a5,-32(s0)
	mv	a3,a5
	li	a5,16777216
	addi	a5,a5,-1
	and	a5,a3,a5
	sext.w	a5,a5
	.loc 1 405 3
	slli	a5,a5,32
	srli	a5,a5,32
	mv	a2,a5
	ld	a1,-40(s0)
	mv	a0,a4
	call	CopyMem@plt
	.loc 1 406 3
	ld	a5,-56(s0)
	addi	a4,a5,24
	ld	a5,-24(s0)
	addi	a5,a5,16
	mv	a1,a5
	mv	a0,a4
	call	InsertTailList@plt
	.loc 1 407 12
	ld	a5,-64(s0)
	ld	a4,-24(s0)
	sd	a4,0(a5)
	.loc 1 409 6
	ld	a4,-48(s0)
	li	a5,8
	bne	a4,a5,.L44
	.loc 1 410 32
	ld	a5,-56(s0)
	lw	a5,16(a5)
	.loc 1 410 63
	ld	a4,-32(s0)
	mv	a3,a4
	li	a4,16777216
	addi	a4,a4,-1
	and	a4,a3,a4
	sext.w	a4,a4
	.loc 1 410 47
	addw	a5,a5,a4
	sext.w	a4,a5
	ld	a5,-56(s0)
	sw	a4,16(a5)
.L44:
	.loc 1 413 10
	li	a5,0
.L45:
	.loc 1 414 1
	mv	a0,a5
	ld	ra,56(sp)
	.cfi_restore 1
	ld	s0,48(sp)
	.cfi_restore 8
	.cfi_def_cfa 2, 64
	addi	sp,sp,64
	.cfi_def_cfa_offset 0
	jr	ra
	.cfi_endproc
.LFE3:
	.size	InsertGuidPackage, .-InsertGuidPackage
	.section	.text.ExportGuidPackages,"ax",@progbits
	.align	1
	.globl	ExportGuidPackages
	.type	ExportGuidPackages, @function
ExportGuidPackages:
.LFB4:
	.loc 1 443 1
	.cfi_startproc
	addi	sp,sp,-128
	.cfi_def_cfa_offset 128
	sd	ra,120(sp)
	sd	s0,112(sp)
	.cfi_offset 1, -8
	.cfi_offset 8, -16
	addi	s0,sp,128
	.cfi_def_cfa 8, 0
	sd	a0,-72(s0)
	sd	a1,-80(s0)
	sd	a2,-88(s0)
	sd	a3,-96(s0)
	sd	a4,-104(s0)
	sd	a5,-112(s0)
	sd	a6,-120(s0)
	.loc 1 450 6
	ld	a5,-88(s0)
	beq	a5,zero,.L47
	.loc 1 450 37 discriminator 1
	ld	a5,-120(s0)
	bne	a5,zero,.L48
.L47:
	.loc 1 451 12
	li	a5,-1
	slli	a5,a5,63
	addi	a5,a5,2
	j	.L56
.L48:
	.loc 1 454 6
	ld	a5,-104(s0)
	beq	a5,zero,.L50
	.loc 1 454 24 discriminator 1
	ld	a5,-112(s0)
	bne	a5,zero,.L50
	.loc 1 455 12
	li	a5,-1
	slli	a5,a5,63
	addi	a5,a5,2
	j	.L56
.L50:
	.loc 1 458 17
	sd	zero,-40(s0)
	.loc 1 459 10
	sd	zero,-48(s0)
	.loc 1 461 13
	ld	a5,-88(s0)
	ld	a5,24(a5)
	sd	a5,-32(s0)
	.loc 1 461 3
	j	.L51
.L55:
	.loc 1 462 21
	ld	a5,-32(s0)
	addi	a5,a5,-16
	.loc 1 462 148
	ld	a4,0(a5)
	.loc 1 462 233
	li	a5,1885827072
	addi	a5,a5,-1688
	bne	a4,a5,.L52
	.loc 1 462 17 discriminator 1
	ld	a5,-32(s0)
	addi	a5,a5,-16
	sd	a5,-24(s0)
	j	.L53
.L52:
	.loc 1 462 17 is_stmt 0 discriminator 2
	sd	zero,-24(s0)
.L53:
	.loc 1 463 41 is_stmt 1
	ld	a5,-24(s0)
	ld	a4,8(a5)
	.loc 1 463 5
	addi	a5,s0,-56
	li	a2,4
	mv	a1,a4
	mv	a0,a5
	call	CopyMem@plt
	.loc 1 464 35
	ld	a5,-56(s0)
	mv	a4,a5
	li	a5,16777216
	addi	a5,a5,-1
	and	a5,a4,a5
	sext.w	a5,a5
	slli	a5,a5,32
	srli	a5,a5,32
	.loc 1 464 19
	ld	a4,-40(s0)
	add	a5,a4,a5
	sd	a5,-40(s0)
	.loc 1 465 25
	ld	a5,-120(s0)
	ld	a4,0(a5)
	.loc 1 465 23
	ld	a5,-40(s0)
	add	a4,a4,a5
	.loc 1 465 37
	ld	a5,-96(s0)
	add	a5,a4,a5
	.loc 1 465 8
	ld	a4,-104(s0)
	bltu	a4,a5,.L54
	.loc 1 466 16
	ld	a4,-80(s0)
	li	a3,1
	ld	a2,-24(s0)
	li	a1,4
	ld	a0,-72(s0)
	call	InvokeRegisteredFunction
	sd	a0,-48(s0)
	.loc 1 474 35
	ld	a5,-24(s0)
	ld	a4,8(a5)
	.loc 1 474 59
	ld	a5,-56(s0)
	mv	a3,a5
	li	a5,16777216
	addi	a5,a5,-1
	and	a5,a3,a5
	sext.w	a5,a5
	.loc 1 474 7
	slli	a5,a5,32
	srli	a5,a5,32
	mv	a2,a5
	mv	a1,a4
	ld	a0,-112(s0)
	call	CopyMem@plt
	.loc 1 475 47
	ld	a5,-56(s0)
	mv	a4,a5
	li	a5,16777216
	addi	a5,a5,-1
	and	a5,a4,a5
	sext.w	a5,a5
	slli	a5,a5,32
	srli	a5,a5,32
	.loc 1 475 14
	ld	a4,-112(s0)
	add	a5,a4,a5
	sd	a5,-112(s0)
.L54:
	.loc 1 461 91 discriminator 2
	ld	a5,-32(s0)
	ld	a5,0(a5)
	sd	a5,-32(s0)
.L51:
	.loc 1 461 60 discriminator 1
	ld	a5,-88(s0)
	addi	a5,a5,24
	.loc 1 461 57 discriminator 1
	ld	a4,-32(s0)
	bne	a4,a5,.L55
	.loc 1 479 3
	ld	a5,-120(s0)
	ld	a4,0(a5)
	.loc 1 479 15
	ld	a5,-40(s0)
	add	a4,a4,a5
	ld	a5,-120(s0)
	sd	a4,0(a5)
	.loc 1 480 10
	li	a5,0
.L56:
	.loc 1 481 1
	mv	a0,a5
	ld	ra,120(sp)
	.cfi_restore 1
	ld	s0,112(sp)
	.cfi_restore 8
	.cfi_def_cfa 2, 128
	addi	sp,sp,128
	.cfi_def_cfa_offset 0
	jr	ra
	.cfi_endproc
.LFE4:
	.size	ExportGuidPackages, .-ExportGuidPackages
	.section	.text.RemoveGuidPackages,"ax",@progbits
	.align	1
	.globl	RemoveGuidPackages
	.type	RemoveGuidPackages, @function
RemoveGuidPackages:
.LFB5:
	.loc 1 503 1
	.cfi_startproc
	addi	sp,sp,-80
	.cfi_def_cfa_offset 80
	sd	ra,72(sp)
	sd	s0,64(sp)
	.cfi_offset 1, -8
	.cfi_offset 8, -16
	addi	s0,sp,80
	.cfi_def_cfa 8, 0
	sd	a0,-56(s0)
	sd	a1,-64(s0)
	sd	a2,-72(s0)
	.loc 1 509 12
	ld	a5,-72(s0)
	addi	a5,a5,24
	sd	a5,-32(s0)
	.loc 1 511 9
	j	.L58
.L63:
	.loc 1 512 76
	ld	a5,-32(s0)
	ld	a5,0(a5)
	.loc 1 512 17
	addi	a5,a5,-16
	.loc 1 512 161
	ld	a4,0(a5)
	.loc 1 512 246
	li	a5,1885827072
	addi	a5,a5,-1688
	bne	a4,a5,.L59
	.loc 1 512 308 discriminator 1
	ld	a5,-32(s0)
	ld	a5,0(a5)
	.loc 1 512 13 discriminator 1
	addi	a5,a5,-16
	sd	a5,-24(s0)
	j	.L60
.L59:
	.loc 1 512 13 is_stmt 0 discriminator 2
	sd	zero,-24(s0)
.L60:
	.loc 1 518 14 is_stmt 1
	ld	a4,-64(s0)
	li	a3,1
	ld	a2,-24(s0)
	li	a1,2
	ld	a0,-56(s0)
	call	InvokeRegisteredFunction
	sd	a0,-40(s0)
	.loc 1 525 36
	ld	a5,-40(s0)
	.loc 1 525 8
	bge	a5,zero,.L61
	.loc 1 526 14
	ld	a5,-40(s0)
	j	.L64
.L61:
	.loc 1 529 22
	ld	a5,-24(s0)
	addi	a5,a5,16
	.loc 1 529 5
	mv	a0,a5
	call	RemoveEntryList@plt
	.loc 1 530 37
	ld	a5,-24(s0)
	ld	a4,8(a5)
	.loc 1 530 5
	addi	a5,s0,-48
	li	a2,4
	mv	a1,a4
	mv	a0,a5
	call	CopyMem@plt
	.loc 1 531 32
	ld	a5,-72(s0)
	lw	a5,16(a5)
	.loc 1 531 63
	ld	a4,-48(s0)
	mv	a3,a4
	li	a4,16777216
	addi	a4,a4,-1
	and	a4,a3,a4
	sext.w	a4,a4
	.loc 1 531 47
	subw	a5,a5,a4
	sext.w	a4,a5
	ld	a5,-72(s0)
	sw	a4,16(a5)
	.loc 1 532 22
	ld	a5,-24(s0)
	ld	a5,8(a5)
	.loc 1 532 5
	mv	a0,a5
	call	FreePool@plt
	.loc 1 533 5
	ld	a0,-24(s0)
	call	FreePool@plt
.L58:
	.loc 1 511 11
	ld	a0,-32(s0)
	call	IsListEmpty@plt
	mv	a5,a0
	.loc 1 511 10 discriminator 1
	beq	a5,zero,.L63
	.loc 1 536 10
	li	a5,0
.L64:
	.loc 1 537 1
	mv	a0,a5
	ld	ra,72(sp)
	.cfi_restore 1
	ld	s0,64(sp)
	.cfi_restore 8
	.cfi_def_cfa 2, 80
	addi	sp,sp,80
	.cfi_def_cfa_offset 0
	jr	ra
	.cfi_endproc
.LFE5:
	.size	RemoveGuidPackages, .-RemoveGuidPackages
	.section	.text.IsEfiVarStoreQuestion,"ax",@progbits
	.align	1
	.globl	IsEfiVarStoreQuestion
	.type	IsEfiVarStoreQuestion, @function
IsEfiVarStoreQuestion:
.LFB6:
	.loc 1 555 1
	.cfi_startproc
	addi	sp,sp,-64
	.cfi_def_cfa_offset 64
	sd	ra,56(sp)
	sd	s0,48(sp)
	.cfi_offset 1, -8
	.cfi_offset 8, -16
	addi	s0,sp,64
	.cfi_def_cfa 8, 0
	sd	a0,-40(s0)
	sd	a1,-48(s0)
	sd	a2,-56(s0)
	.loc 1 558 14
	sd	zero,-24(s0)
	.loc 1 558 3
	j	.L66
.L69:
	.loc 1 559 23
	ld	a5,-40(s0)
	lbu	a4,6(a5)
	lbu	a5,7(a5)
	slli	a5,a5,8
	or	a5,a5,a4
	slli	a3,a5,48
	srli	a3,a3,48
	.loc 1 559 54
	ld	a5,-24(s0)
	slli	a5,a5,3
	ld	a4,-48(s0)
	add	a5,a4,a5
	ld	a5,0(a5)
	.loc 1 559 61
	lbu	a4,2(a5)
	lbu	a5,3(a5)
	slli	a5,a5,8
	or	a5,a5,a4
	slli	a5,a5,48
	srli	a5,a5,48
	.loc 1 559 8
	sext.w	a4,a3
	sext.w	a5,a5
	bne	a4,a5,.L67
	.loc 1 560 14
	ld	a5,-24(s0)
	j	.L68
.L67:
	.loc 1 558 51 discriminator 2
	ld	a5,-24(s0)
	addi	a5,a5,1
	sd	a5,-24(s0)
.L66:
	.loc 1 558 25 discriminator 1
	ld	a4,-24(s0)
	ld	a5,-56(s0)
	bltu	a4,a5,.L69
	.loc 1 564 10
	ld	a5,-56(s0)
.L68:
	.loc 1 565 1
	mv	a0,a5
	ld	ra,56(sp)
	.cfi_restore 1
	ld	s0,48(sp)
	.cfi_restore 8
	.cfi_def_cfa 2, 64
	addi	sp,sp,64
	.cfi_def_cfa_offset 0
	jr	ra
	.cfi_endproc
.LFE6:
	.size	IsEfiVarStoreQuestion, .-IsEfiVarStoreQuestion
	.section	.text.AuthFindVariableData,"ax",@progbits
	.align	1
	.globl	AuthFindVariableData
	.type	AuthFindVariableData, @function
AuthFindVariableData:
.LFB7:
	.loc 1 584 1
	.cfi_startproc
	addi	sp,sp,-64
	.cfi_def_cfa_offset 64
	sd	ra,56(sp)
	sd	s0,48(sp)
	.cfi_offset 1, -8
	.cfi_offset 8, -16
	addi	s0,sp,64
	.cfi_def_cfa 8, 0
	sd	a0,-40(s0)
	sd	a1,-48(s0)
	mv	a5,a2
	sd	a3,-64(s0)
	sw	a5,-52(s0)
	.loc 1 588 93
	ld	a5,-40(s0)
	lbu	a4,16(a5)
	lbu	a3,17(a5)
	slli	a3,a3,8
	or	a4,a3,a4
	lbu	a3,18(a5)
	slli	a3,a3,16
	or	a4,a3,a4
	lbu	a5,19(a5)
	slli	a5,a5,24
	or	a5,a5,a4
	sext.w	a5,a5
	slli	a5,a5,32
	srli	a5,a5,32
	.loc 1 588 15
	ld	a4,-40(s0)
	add	a5,a4,a5
	sd	a5,-32(s0)
	.loc 1 589 18
	ld	a5,-40(s0)
	addi	a5,a5,28
	sd	a5,-24(s0)
	.loc 1 590 55
	ld	a5,-24(s0)
	.loc 1 590 84
	addi	a5,a5,3
	.loc 1 590 89
	andi	a5,a5,-4
	.loc 1 590 18
	sd	a5,-24(s0)
	.loc 1 591 9
	j	.L71
.L74:
	.loc 1 592 22
	ld	a5,-24(s0)
	addi	a5,a5,44
	.loc 1 592 9
	ld	a1,-48(s0)
	mv	a0,a5
	call	CompareGuid@plt
	mv	a5,a0
	.loc 1 592 8 discriminator 1
	beq	a5,zero,.L72
	.loc 1 593 24
	ld	a5,-24(s0)
	lbu	a4,4(a5)
	lbu	a3,5(a5)
	slli	a3,a3,8
	or	a4,a3,a4
	lbu	a3,6(a5)
	slli	a3,a3,16
	or	a4,a3,a4
	lbu	a5,7(a5)
	slli	a5,a5,24
	or	a5,a5,a4
	sext.w	a5,a5
	.loc 1 592 60 discriminator 2
	lw	a4,-52(s0)
	sext.w	a4,a4
	bne	a4,a5,.L72
	.loc 1 594 53
	ld	a5,-24(s0)
	addi	a5,a5,60
	.loc 1 594 10
	mv	a1,a5
	ld	a0,-64(s0)
	call	StrCmp@plt
	mv	a5,a0
	.loc 1 593 54
	bne	a5,zero,.L72
	.loc 1 596 14
	ld	a5,-24(s0)
	j	.L73
.L72:
	.loc 1 599 137
	ld	a5,-24(s0)
	lbu	a4,36(a5)
	lbu	a3,37(a5)
	slli	a3,a3,8
	or	a4,a3,a4
	lbu	a3,38(a5)
	slli	a3,a3,16
	or	a4,a3,a4
	lbu	a5,39(a5)
	slli	a5,a5,24
	or	a5,a5,a4
	sext.w	a5,a5
	slli	a4,a5,32
	srli	a4,a4,32
	.loc 1 599 164
	ld	a5,-24(s0)
	lbu	a3,40(a5)
	lbu	a2,41(a5)
	slli	a2,a2,8
	or	a3,a2,a3
	lbu	a2,42(a5)
	slli	a2,a2,16
	or	a3,a2,a3
	lbu	a5,43(a5)
	slli	a5,a5,24
	or	a5,a5,a3
	sext.w	a5,a5
	slli	a5,a5,32
	srli	a5,a5,32
	.loc 1 599 148
	add	a5,a4,a5
	addi	a5,a5,60
	.loc 1 599 20
	ld	a4,-24(s0)
	add	a5,a4,a5
	sd	a5,-24(s0)
	.loc 1 600 57
	ld	a5,-24(s0)
	.loc 1 600 86
	addi	a5,a5,3
	.loc 1 600 91
	andi	a5,a5,-4
	.loc 1 600 20
	sd	a5,-24(s0)
.L71:
	.loc 1 591 25
	ld	a4,-24(s0)
	ld	a5,-32(s0)
	bltu	a4,a5,.L74
	.loc 1 603 10
	li	a5,0
.L73:
	.loc 1 604 1
	mv	a0,a5
	ld	ra,56(sp)
	.cfi_restore 1
	ld	s0,48(sp)
	.cfi_restore 8
	.cfi_def_cfa 2, 64
	addi	sp,sp,64
	.cfi_def_cfa_offset 0
	jr	ra
	.cfi_endproc
.LFE7:
	.size	AuthFindVariableData, .-AuthFindVariableData
	.section	.text.FindVariableData,"ax",@progbits
	.align	1
	.globl	FindVariableData
	.type	FindVariableData, @function
FindVariableData:
.LFB8:
	.loc 1 623 1
	.cfi_startproc
	addi	sp,sp,-64
	.cfi_def_cfa_offset 64
	sd	ra,56(sp)
	sd	s0,48(sp)
	.cfi_offset 1, -8
	.cfi_offset 8, -16
	addi	s0,sp,64
	.cfi_def_cfa 8, 0
	sd	a0,-40(s0)
	sd	a1,-48(s0)
	mv	a5,a2
	sd	a3,-64(s0)
	sw	a5,-52(s0)
	.loc 1 627 79
	ld	a5,-40(s0)
	lbu	a4,16(a5)
	lbu	a3,17(a5)
	slli	a3,a3,8
	or	a4,a3,a4
	lbu	a3,18(a5)
	slli	a3,a3,16
	or	a4,a3,a4
	lbu	a5,19(a5)
	slli	a5,a5,24
	or	a5,a5,a4
	sext.w	a5,a5
	slli	a5,a5,32
	srli	a5,a5,32
	.loc 1 627 15
	ld	a4,-40(s0)
	add	a5,a4,a5
	sd	a5,-32(s0)
	.loc 1 628 18
	ld	a5,-40(s0)
	addi	a5,a5,28
	sd	a5,-24(s0)
	.loc 1 629 41
	ld	a5,-24(s0)
	.loc 1 629 70
	addi	a5,a5,3
	.loc 1 629 75
	andi	a5,a5,-4
	.loc 1 629 18
	sd	a5,-24(s0)
	.loc 1 630 9
	j	.L76
.L79:
	.loc 1 631 22
	ld	a5,-24(s0)
	addi	a5,a5,16
	.loc 1 631 9
	ld	a1,-48(s0)
	mv	a0,a5
	call	CompareGuid@plt
	mv	a5,a0
	.loc 1 631 8 discriminator 1
	beq	a5,zero,.L77
	.loc 1 632 24
	ld	a5,-24(s0)
	lbu	a4,4(a5)
	lbu	a3,5(a5)
	slli	a3,a3,8
	or	a4,a3,a4
	lbu	a3,6(a5)
	slli	a3,a3,16
	or	a4,a3,a4
	lbu	a5,7(a5)
	slli	a5,a5,24
	or	a5,a5,a4
	sext.w	a5,a5
	.loc 1 631 60 discriminator 2
	lw	a4,-52(s0)
	sext.w	a4,a4
	bne	a4,a5,.L77
	.loc 1 633 53
	ld	a5,-24(s0)
	addi	a5,a5,32
	.loc 1 633 10
	mv	a1,a5
	ld	a0,-64(s0)
	call	StrCmp@plt
	mv	a5,a0
	.loc 1 632 54
	bne	a5,zero,.L77
	.loc 1 635 14
	ld	a5,-24(s0)
	j	.L78
.L77:
	.loc 1 638 109
	ld	a5,-24(s0)
	lbu	a4,8(a5)
	lbu	a3,9(a5)
	slli	a3,a3,8
	or	a4,a3,a4
	lbu	a3,10(a5)
	slli	a3,a3,16
	or	a4,a3,a4
	lbu	a5,11(a5)
	slli	a5,a5,24
	or	a5,a5,a4
	sext.w	a5,a5
	slli	a4,a5,32
	srli	a4,a4,32
	.loc 1 638 136
	ld	a5,-24(s0)
	lbu	a3,12(a5)
	lbu	a2,13(a5)
	slli	a2,a2,8
	or	a3,a2,a3
	lbu	a2,14(a5)
	slli	a2,a2,16
	or	a3,a2,a3
	lbu	a5,15(a5)
	slli	a5,a5,24
	or	a5,a5,a3
	sext.w	a5,a5
	slli	a5,a5,32
	srli	a5,a5,32
	.loc 1 638 120
	add	a5,a4,a5
	addi	a5,a5,32
	.loc 1 638 20
	ld	a4,-24(s0)
	add	a5,a4,a5
	sd	a5,-24(s0)
	.loc 1 639 43
	ld	a5,-24(s0)
	.loc 1 639 72
	addi	a5,a5,3
	.loc 1 639 77
	andi	a5,a5,-4
	.loc 1 639 20
	sd	a5,-24(s0)
.L76:
	.loc 1 630 25
	ld	a4,-24(s0)
	ld	a5,-32(s0)
	bltu	a4,a5,.L79
	.loc 1 642 10
	li	a5,0
.L78:
	.loc 1 643 1
	mv	a0,a5
	ld	ra,56(sp)
	.cfi_restore 1
	ld	s0,48(sp)
	.cfi_restore 8
	.cfi_def_cfa 2, 64
	addi	sp,sp,64
	.cfi_def_cfa_offset 0
	jr	ra
	.cfi_endproc
.LFE8:
	.size	FindVariableData, .-FindVariableData
	.section	.text.FindQuestionDefaultSetting,"ax",@progbits
	.align	1
	.globl	FindQuestionDefaultSetting
	.type	FindQuestionDefaultSetting, @function
FindQuestionDefaultSetting:
.LFB9:
	.loc 1 667 1
	.cfi_startproc
	addi	sp,sp,-224
	.cfi_def_cfa_offset 224
	sd	ra,216(sp)
	sd	s0,208(sp)
	.cfi_offset 1, -8
	.cfi_offset 8, -16
	addi	s0,sp,224
	.cfi_def_cfa 8, 0
	sd	a1,-192(s0)
	sd	a2,-200(s0)
	sd	a3,-208(s0)
	sd	a4,-216(s0)
	mv	a4,a5
	mv	a5,a0
	sh	a5,-178(s0)
	mv	a5,a4
	sb	a5,-179(s0)
	.loc 1 690 14
	lla	a5,gSkuId
	ld	a4,0(a5)
	.loc 1 690 6
	li	a5,-1
	bne	a4,a5,.L81
	.loc 1 691 14
	call	LibPcdGetSku@plt
	mv	a4,a0
	.loc 1 691 12 discriminator 1
	lla	a5,gSkuId
	sd	a4,0(a5)
.L81:
	.loc 1 697 19
	sd	zero,-24(s0)
	.loc 1 698 8
	lla	a5,gVarStorageList
	ld	a5,0(a5)
	sd	a5,-32(s0)
	.loc 1 699 9
	j	.L82
.L85:
	.loc 1 700 11
	ld	a5,-32(s0)
	sd	a5,-104(s0)
	.loc 1 701 14
	ld	a5,-104(s0)
	lhu	a5,16(a5)
	.loc 1 701 8
	lhu	a4,-178(s0)
	sext.w	a4,a4
	sext.w	a5,a5
	bne	a4,a5,.L83
	.loc 1 702 23
	ld	a5,-104(s0)
	ld	a5,24(a5)
	sd	a5,-24(s0)
	.loc 1 703 7
	j	.L84
.L83:
	.loc 1 706 10
	ld	a5,-32(s0)
	ld	a5,0(a5)
	sd	a5,-32(s0)
.L82:
	.loc 1 699 15
	ld	a4,-32(s0)
	lla	a5,gVarStorageList
	bne	a4,a5,.L85
.L84:
	.loc 1 709 6
	ld	a4,-32(s0)
	lla	a5,gVarStorageList
	bne	a4,a5,.L86
	.loc 1 710 27
	li	a5,196608
	addi	a1,a5,5
	la	a0,gEfiMdeModulePkgTokenSpaceGuid
	call	LibPcdGetExPtr@plt
	sd	a0,-112(s0)
	.loc 1 711 77
	ld	a5,-112(s0)
	lw	a5,4(a5)
	slli	a4,a5,32
	srli	a4,a4,32
	.loc 1 711 25
	lla	a5,gNvDefaultStoreSize
	sd	a4,0(a5)
	.loc 1 715 16
	ld	a5,-112(s0)
	addi	a5,a5,16
	sd	a5,-80(s0)
	.loc 1 716 111
	ld	a5,-80(s0)
	lw	a5,4(a5)
	slli	a5,a5,32
	srli	a5,a5,32
	.loc 1 716 99
	addi	a5,a5,4
	.loc 1 716 19
	ld	a4,-80(s0)
	add	a5,a4,a5
	sd	a5,-120(s0)
	.loc 1 717 50
	ld	a5,-120(s0)
	lbu	a4,16(a5)
	lbu	a3,17(a5)
	slli	a3,a3,8
	or	a4,a3,a4
	lbu	a3,18(a5)
	slli	a3,a3,16
	or	a4,a3,a4
	lbu	a5,19(a5)
	slli	a5,a5,24
	or	a5,a5,a4
	sext.w	a5,a5
	.loc 1 717 23
	slli	a5,a5,32
	srli	a5,a5,32
	mv	a0,a5
	call	AllocatePool@plt
	sd	a0,-24(s0)
	.loc 1 719 59
	ld	a5,-120(s0)
	lbu	a4,16(a5)
	lbu	a3,17(a5)
	slli	a3,a3,8
	or	a4,a3,a4
	lbu	a3,18(a5)
	slli	a3,a3,16
	or	a4,a3,a4
	lbu	a5,19(a5)
	slli	a5,a5,24
	or	a5,a5,a4
	sext.w	a5,a5
	.loc 1 719 5
	slli	a5,a5,32
	srli	a5,a5,32
	mv	a2,a5
	ld	a1,-120(s0)
	ld	a0,-24(s0)
	call	CopyMem@plt
	.loc 1 724 13
	sb	zero,-33(s0)
	.loc 1 725 17
	ld	a5,-80(s0)
	addi	a5,a5,8
	sd	a5,-88(s0)
	.loc 1 726 81
	ld	a5,-80(s0)
	lw	a5,4(a5)
	slli	a5,a5,32
	srli	a5,a5,32
	.loc 1 726 69
	addi	a5,a5,4
	.loc 1 726 15
	ld	a4,-80(s0)
	add	a5,a4,a5
	sd	a5,-128(s0)
	.loc 1 727 11
	j	.L87
.L90:
	.loc 1 728 23
	ld	a5,-88(s0)
	lhu	a5,8(a5)
	.loc 1 728 10
	lhu	a4,-178(s0)
	sext.w	a4,a4
	sext.w	a5,a5
	bne	a4,a5,.L88
	.loc 1 728 64 discriminator 1
	ld	a5,-88(s0)
	ld	a4,0(a5)
	.loc 1 728 72 discriminator 1
	lla	a5,gSkuId
	ld	a5,0(a5)
	.loc 1 728 49 discriminator 1
	bne	a4,a5,.L88
	.loc 1 729 17
	li	a5,1
	sb	a5,-33(s0)
	.loc 1 730 9
	j	.L89
.L88:
	.loc 1 733 18
	ld	a5,-88(s0)
	addi	a5,a5,16
	sd	a5,-88(s0)
.L87:
	.loc 1 727 33
	ld	a4,-88(s0)
	ld	a5,-128(s0)
	bltu	a4,a5,.L90
.L89:
	.loc 1 739 71
	ld	a5,-80(s0)
	lw	a5,0(a5)
	.loc 1 739 82
	addiw	a5,a5,7
	sext.w	a5,a5
	.loc 1 739 87
	slli	a4,a5,32
	srli	a4,a4,32
	li	a5,1
	slli	a5,a5,32
	addi	a5,a5,-8
	and	a5,a4,a5
	.loc 1 739 11
	addi	a5,a5,16
	sd	a5,-48(s0)
	.loc 1 740 16
	ld	a4,-112(s0)
	ld	a5,-48(s0)
	add	a5,a4,a5
	sd	a5,-80(s0)
	.loc 1 741 11
	j	.L91
.L100:
	.loc 1 742 19
	ld	a5,-80(s0)
	addi	a5,a5,8
	sd	a5,-88(s0)
	.loc 1 743 83
	ld	a5,-80(s0)
	lw	a5,4(a5)
	slli	a5,a5,32
	srli	a5,a5,32
	.loc 1 743 71
	addi	a5,a5,4
	.loc 1 743 17
	ld	a4,-80(s0)
	add	a5,a4,a5
	sd	a5,-128(s0)
	.loc 1 744 13
	j	.L92
.L95:
	.loc 1 745 25
	ld	a5,-88(s0)
	lhu	a5,8(a5)
	.loc 1 745 12
	lhu	a4,-178(s0)
	sext.w	a4,a4
	sext.w	a5,a5
	bne	a4,a5,.L93
	.loc 1 745 66 discriminator 1
	ld	a5,-88(s0)
	ld	a4,0(a5)
	.loc 1 745 74 discriminator 1
	lla	a5,gSkuId
	ld	a5,0(a5)
	.loc 1 745 51 discriminator 1
	bne	a4,a5,.L93
	.loc 1 746 19
	li	a5,1
	sb	a5,-33(s0)
	.loc 1 747 11
	j	.L94
.L93:
	.loc 1 750 20
	ld	a5,-88(s0)
	addi	a5,a5,16
	sd	a5,-88(s0)
.L92:
	.loc 1 744 35
	ld	a4,-88(s0)
	ld	a5,-128(s0)
	bltu	a4,a5,.L95
.L94:
	.loc 1 753 10
	lbu	a5,-33(s0)
	andi	a5,a5,0xff
	beq	a5,zero,.L96
	.loc 1 754 19
	ld	a5,-128(s0)
	sd	a5,-96(s0)
	.loc 1 755 53
	ld	a5,-80(s0)
	lw	a5,0(a5)
	slli	a5,a5,32
	srli	a5,a5,32
	.loc 1 755 19
	ld	a4,-80(s0)
	add	a5,a4,a5
	sd	a5,-128(s0)
	.loc 1 756 15
	j	.L97
.L98:
	.loc 1 757 49
	ld	a5,-96(s0)
	lw	a5,0(a5)
	mv	a4,a5
	li	a5,16777216
	addi	a5,a5,-1
	and	a5,a4,a5
	sext.w	a5,a5
	slli	a5,a5,32
	srli	a5,a5,32
	.loc 1 757 38
	ld	a4,-24(s0)
	add	a5,a4,a5
	.loc 1 757 61
	ld	a4,-96(s0)
	lbu	a4,3(a4)
	.loc 1 757 59
	sb	a4,0(a5)
	.loc 1 758 20
	ld	a5,-96(s0)
	addi	a5,a5,4
	sd	a5,-96(s0)
.L97:
	.loc 1 756 35
	ld	a4,-96(s0)
	ld	a5,-128(s0)
	bltu	a4,a5,.L98
	.loc 1 761 9
	j	.L99
.L96:
	.loc 1 764 34
	ld	a5,-80(s0)
	lw	a5,0(a5)
	slli	a4,a5,32
	srli	a4,a4,32
	.loc 1 764 22
	ld	a5,-48(s0)
	add	a5,a4,a5
	.loc 1 764 45
	addi	a5,a5,7
	.loc 1 764 13
	andi	a5,a5,-8
	sd	a5,-48(s0)
	.loc 1 765 18
	ld	a4,-112(s0)
	ld	a5,-48(s0)
	add	a5,a4,a5
	sd	a5,-80(s0)
.L91:
	.loc 1 741 52
	lbu	a5,-33(s0)
	andi	a5,a5,0xff
	bne	a5,zero,.L99
	.loc 1 741 30 discriminator 1
	lla	a5,gNvDefaultStoreSize
	ld	a5,0(a5)
	.loc 1 741 21 discriminator 1
	ld	a4,-48(s0)
	bgeu	a4,a5,.L99
	.loc 1 741 65 discriminator 2
	ld	a5,-80(s0)
	lw	a4,0(a5)
	.loc 1 741 52 discriminator 2
	li	a5,65536
	addi	a5,a5,-1
	bne	a4,a5,.L100
.L99:
	.loc 1 771 8
	lbu	a5,-33(s0)
	andi	a5,a5,0xff
	bne	a5,zero,.L101
	.loc 1 772 7
	ld	a0,-24(s0)
	call	FreePool@plt
	.loc 1 773 23
	sd	zero,-24(s0)
.L101:
	.loc 1 776 13
	li	a0,32
	call	AllocatePool@plt
	sd	a0,-104(s0)
	.loc 1 777 8
	ld	a5,-104(s0)
	beq	a5,zero,.L102
	.loc 1 778 24
	ld	a5,-104(s0)
	lhu	a4,-178(s0)
	sh	a4,16(a5)
	.loc 1 779 30
	ld	a5,-104(s0)
	ld	a4,-24(s0)
	sd	a4,24(a5)
	.loc 1 780 7
	ld	a5,-104(s0)
	mv	a1,a5
	lla	a0,gVarStorageList
	call	InsertTailList@plt
	j	.L86
.L102:
	.loc 1 781 15
	ld	a5,-24(s0)
	beq	a5,zero,.L86
	.loc 1 782 7
	ld	a0,-24(s0)
	call	FreePool@plt
	.loc 1 783 23
	sd	zero,-24(s0)
.L86:
	.loc 1 790 6
	ld	a5,-24(s0)
	bne	a5,zero,.L103
	.loc 1 791 12
	li	a5,-1
	slli	a5,a5,63
	addi	a5,a5,14
	j	.L115
.L103:
	.loc 1 794 37
	ld	a5,-24(s0)
	.loc 1 794 24
	la	a1,gEfiAuthenticatedVariableGuid
	mv	a0,a5
	call	CompareGuid@plt
	mv	a5,a0
	sb	a5,-129(s0)
	.loc 1 796 6
	lbu	a5,-129(s0)
	andi	a5,a5,0xff
	beq	a5,zero,.L105
	.loc 1 800 26
	ld	a5,-192(s0)
	addi	a1,a5,4
	ld	a5,-192(s0)
	lbu	a4,20(a5)
	lbu	a3,21(a5)
	slli	a3,a3,8
	or	a4,a3,a4
	lbu	a3,22(a5)
	slli	a3,a3,16
	or	a4,a3,a4
	lbu	a5,23(a5)
	slli	a5,a5,24
	or	a5,a5,a4
	sext.w	a4,a5
	.loc 1 800 120
	ld	a5,-192(s0)
	addi	a5,a5,26
	.loc 1 800 26
	mv	a3,a5
	mv	a2,a4
	ld	a0,-24(s0)
	call	AuthFindVariableData
	sd	a0,-168(s0)
	.loc 1 801 8
	ld	a5,-168(s0)
	bne	a5,zero,.L106
	.loc 1 802 14
	li	a5,-1
	slli	a5,a5,63
	addi	a5,a5,14
	j	.L115
.L106:
	.loc 1 805 14
	sd	zero,-64(s0)
	.loc 1 806 12
	sd	zero,-72(s0)
	.loc 1 807 46
	ld	a5,-200(s0)
	lbu	a4,8(a5)
	lbu	a5,9(a5)
	slli	a5,a5,8
	or	a5,a5,a4
	slli	a5,a5,48
	srli	a5,a5,48
	.loc 1 807 16
	sd	a5,-56(s0)
	.loc 1 808 8
	lbu	a5,-179(s0)
	andi	a5,a5,0xff
	beq	a5,zero,.L107
	.loc 1 809 47
	ld	a5,-200(s0)
	lbu	a4,8(a5)
	lbu	a5,9(a5)
	slli	a5,a5,8
	or	a5,a5,a4
	slli	a5,a5,48
	srli	a5,a5,48
	.loc 1 809 17
	sd	a5,-152(s0)
	.loc 1 810 18
	ld	a5,-152(s0)
	srli	a5,a5,3
	sd	a5,-56(s0)
	.loc 1 811 16
	ld	a5,-216(s0)
	sd	a5,-160(s0)
	.loc 1 812 16
	ld	a5,-152(s0)
	andi	a5,a5,7
	sd	a5,-64(s0)
	.loc 1 813 25
	ld	a4,-64(s0)
	ld	a5,-160(s0)
	add	a5,a4,a5
	.loc 1 813 14
	addi	a5,a5,-1
	sd	a5,-72(s0)
	.loc 1 814 22
	ld	a5,-72(s0)
	srli	a5,a5,3
	.loc 1 814 13
	addi	a5,a5,1
	sd	a5,-216(s0)
.L107:
	.loc 1 817 27
	ld	a5,-168(s0)
	lbu	a4,40(a5)
	lbu	a3,41(a5)
	slli	a3,a3,8
	or	a4,a3,a4
	lbu	a3,42(a5)
	slli	a3,a3,16
	or	a4,a3,a4
	lbu	a5,43(a5)
	slli	a5,a5,24
	or	a5,a5,a4
	sext.w	a5,a5
	slli	a4,a5,32
	srli	a4,a4,32
	.loc 1 817 51
	ld	a3,-56(s0)
	ld	a5,-216(s0)
	add	a5,a3,a5
	.loc 1 817 8
	bgeu	a4,a5,.L108
	.loc 1 818 14
	li	a5,-1
	slli	a5,a5,63
	addi	a5,a5,2
	j	.L115
.L108:
	.loc 1 824 8
	ld	a5,-208(s0)
	beq	a5,zero,.L109
	.loc 1 825 10
	lbu	a5,-179(s0)
	andi	a5,a5,0xff
	beq	a5,zero,.L110
	.loc 1 826 121
	ld	a5,-168(s0)
	lbu	a4,36(a5)
	lbu	a3,37(a5)
	slli	a3,a3,8
	or	a4,a3,a4
	lbu	a3,38(a5)
	slli	a3,a3,16
	or	a4,a3,a4
	lbu	a5,39(a5)
	slli	a5,a5,24
	or	a5,a5,a4
	sext.w	a5,a5
	slli	a4,a5,32
	srli	a4,a4,32
	.loc 1 826 132
	ld	a5,-56(s0)
	add	a5,a4,a5
	addi	a5,a5,60
	.loc 1 826 9
	ld	a4,-168(s0)
	add	a4,a4,a5
	addi	a5,s0,-172
	ld	a2,-216(s0)
	mv	a1,a4
	mv	a0,a5
	call	CopyMem@plt
	.loc 1 827 23
	lw	a5,-172(s0)
	ld	a2,-72(s0)
	ld	a1,-64(s0)
	mv	a0,a5
	call	BitFieldRead32@plt
	mv	a5,a0
	.loc 1 827 21 discriminator 1
	sw	a5,-176(s0)
	.loc 1 828 9
	addi	a5,s0,-176
	li	a2,4
	mv	a1,a5
	ld	a0,-208(s0)
	call	CopyMem@plt
	j	.L109
.L110:
	.loc 1 830 120
	ld	a5,-168(s0)
	lbu	a4,36(a5)
	lbu	a3,37(a5)
	slli	a3,a3,8
	or	a4,a3,a4
	lbu	a3,38(a5)
	slli	a3,a3,16
	or	a4,a3,a4
	lbu	a5,39(a5)
	slli	a5,a5,24
	or	a5,a5,a4
	sext.w	a5,a5
	slli	a4,a5,32
	srli	a4,a4,32
	.loc 1 830 161
	ld	a5,-200(s0)
	lbu	a3,8(a5)
	lbu	a5,9(a5)
	slli	a5,a5,8
	or	a5,a5,a3
	slli	a5,a5,48
	srli	a5,a5,48
	.loc 1 830 131
	add	a5,a4,a5
	addi	a5,a5,60
	.loc 1 830 9
	ld	a4,-168(s0)
	add	a5,a4,a5
	ld	a2,-216(s0)
	mv	a1,a5
	ld	a0,-208(s0)
	call	CopyMem@plt
	j	.L109
.L105:
	.loc 1 837 22
	ld	a5,-192(s0)
	addi	a1,a5,4
	ld	a5,-192(s0)
	lbu	a4,20(a5)
	lbu	a3,21(a5)
	slli	a3,a3,8
	or	a4,a3,a4
	lbu	a3,22(a5)
	slli	a3,a3,16
	or	a4,a3,a4
	lbu	a5,23(a5)
	slli	a5,a5,24
	or	a5,a5,a4
	sext.w	a4,a5
	.loc 1 837 112
	ld	a5,-192(s0)
	addi	a5,a5,26
	.loc 1 837 22
	mv	a3,a5
	mv	a2,a4
	ld	a0,-24(s0)
	call	FindVariableData
	sd	a0,-144(s0)
	.loc 1 838 8
	ld	a5,-144(s0)
	bne	a5,zero,.L111
	.loc 1 839 14
	li	a5,-1
	slli	a5,a5,63
	addi	a5,a5,14
	j	.L115
.L111:
	.loc 1 842 14
	sd	zero,-64(s0)
	.loc 1 843 12
	sd	zero,-72(s0)
	.loc 1 844 46
	ld	a5,-200(s0)
	lbu	a4,8(a5)
	lbu	a5,9(a5)
	slli	a5,a5,8
	or	a5,a5,a4
	slli	a5,a5,48
	srli	a5,a5,48
	.loc 1 844 16
	sd	a5,-56(s0)
	.loc 1 845 8
	lbu	a5,-179(s0)
	andi	a5,a5,0xff
	beq	a5,zero,.L112
	.loc 1 846 47
	ld	a5,-200(s0)
	lbu	a4,8(a5)
	lbu	a5,9(a5)
	slli	a5,a5,8
	or	a5,a5,a4
	slli	a5,a5,48
	srli	a5,a5,48
	.loc 1 846 17
	sd	a5,-152(s0)
	.loc 1 847 18
	ld	a5,-152(s0)
	srli	a5,a5,3
	sd	a5,-56(s0)
	.loc 1 848 16
	ld	a5,-216(s0)
	sd	a5,-160(s0)
	.loc 1 849 16
	ld	a5,-152(s0)
	andi	a5,a5,7
	sd	a5,-64(s0)
	.loc 1 850 25
	ld	a4,-64(s0)
	ld	a5,-160(s0)
	add	a5,a4,a5
	.loc 1 850 14
	addi	a5,a5,-1
	sd	a5,-72(s0)
	.loc 1 851 22
	ld	a5,-72(s0)
	srli	a5,a5,3
	.loc 1 851 13
	addi	a5,a5,1
	sd	a5,-216(s0)
.L112:
	.loc 1 854 23
	ld	a5,-144(s0)
	lbu	a4,12(a5)
	lbu	a3,13(a5)
	slli	a3,a3,8
	or	a4,a3,a4
	lbu	a3,14(a5)
	slli	a3,a3,16
	or	a4,a3,a4
	lbu	a5,15(a5)
	slli	a5,a5,24
	or	a5,a5,a4
	sext.w	a5,a5
	slli	a4,a5,32
	srli	a4,a4,32
	.loc 1 854 47
	ld	a3,-56(s0)
	ld	a5,-216(s0)
	add	a5,a3,a5
	.loc 1 854 8
	bgeu	a4,a5,.L113
	.loc 1 855 14
	li	a5,-1
	slli	a5,a5,63
	addi	a5,a5,2
	j	.L115
.L113:
	.loc 1 861 8
	ld	a5,-208(s0)
	beq	a5,zero,.L109
	.loc 1 862 10
	lbu	a5,-179(s0)
	andi	a5,a5,0xff
	beq	a5,zero,.L114
	.loc 1 863 99
	ld	a5,-144(s0)
	lbu	a4,8(a5)
	lbu	a3,9(a5)
	slli	a3,a3,8
	or	a4,a3,a4
	lbu	a3,10(a5)
	slli	a3,a3,16
	or	a4,a3,a4
	lbu	a5,11(a5)
	slli	a5,a5,24
	or	a5,a5,a4
	sext.w	a5,a5
	slli	a4,a5,32
	srli	a4,a4,32
	.loc 1 863 110
	ld	a5,-56(s0)
	add	a5,a4,a5
	addi	a5,a5,32
	.loc 1 863 9
	ld	a4,-144(s0)
	add	a4,a4,a5
	addi	a5,s0,-172
	ld	a2,-216(s0)
	mv	a1,a4
	mv	a0,a5
	call	CopyMem@plt
	.loc 1 864 23
	lw	a5,-172(s0)
	ld	a2,-72(s0)
	ld	a1,-64(s0)
	mv	a0,a5
	call	BitFieldRead32@plt
	mv	a5,a0
	.loc 1 864 21 discriminator 1
	sw	a5,-176(s0)
	.loc 1 865 9
	addi	a5,s0,-176
	li	a2,4
	mv	a1,a5
	ld	a0,-208(s0)
	call	CopyMem@plt
	j	.L109
.L114:
	.loc 1 867 98
	ld	a5,-144(s0)
	lbu	a4,8(a5)
	lbu	a3,9(a5)
	slli	a3,a3,8
	or	a4,a3,a4
	lbu	a3,10(a5)
	slli	a3,a3,16
	or	a4,a3,a4
	lbu	a5,11(a5)
	slli	a5,a5,24
	or	a5,a5,a4
	sext.w	a5,a5
	slli	a4,a5,32
	srli	a4,a4,32
	.loc 1 867 139
	ld	a5,-200(s0)
	lbu	a3,8(a5)
	lbu	a5,9(a5)
	slli	a5,a5,8
	or	a5,a5,a3
	slli	a5,a5,48
	srli	a5,a5,48
	.loc 1 867 109
	add	a5,a4,a5
	addi	a5,a5,32
	.loc 1 867 9
	ld	a4,-144(s0)
	add	a5,a4,a5
	ld	a2,-216(s0)
	mv	a1,a5
	ld	a0,-208(s0)
	call	CopyMem@plt
.L109:
	.loc 1 872 10
	li	a5,0
.L115:
	.loc 1 873 1
	mv	a0,a5
	ld	ra,216(sp)
	.cfi_restore 1
	ld	s0,208(sp)
	.cfi_restore 8
	.cfi_def_cfa 2, 224
	addi	sp,sp,224
	.cfi_def_cfa_offset 0
	jr	ra
	.cfi_endproc
.LFE9:
	.size	FindQuestionDefaultSetting, .-FindQuestionDefaultSetting
	.section	.text.UpdateDefaultSettingInFormPackage,"ax",@progbits
	.align	1
	.globl	UpdateDefaultSettingInFormPackage
	.type	UpdateDefaultSettingInFormPackage, @function
UpdateDefaultSettingInFormPackage:
.LFB10:
	.loc 1 885 1
	.cfi_startproc
	addi	sp,sp,-288
	.cfi_def_cfa_offset 288
	sd	ra,280(sp)
	sd	s0,272(sp)
	sd	s1,264(sp)
	sd	s2,256(sp)
	.cfi_offset 1, -8
	.cfi_offset 8, -16
	.cfi_offset 9, -24
	.cfi_offset 18, -32
	addi	s0,sp,288
	.cfi_def_cfa 8, 0
	sd	a0,-280(s0)
	.loc 1 916 27
	lla	a5,gNvDefaultStoreSize
	ld	a5,0(a5)
	.loc 1 916 6
	bne	a5,zero,.L117
	.loc 1 917 27
	li	a5,196608
	addi	a1,a5,5
	la	a0,gEfiMdeModulePkgTokenSpaceGuid
	call	LibPcdGetExSize@plt
	mv	a4,a0
	.loc 1 917 25 discriminator 1
	lla	a5,gNvDefaultStoreSize
	sd	a4,0(a5)
.L117:
	.loc 1 920 27
	lla	a5,gNvDefaultStoreSize
	ld	a4,0(a5)
	.loc 1 920 6
	li	a5,15
	bleu	a4,a5,.L180
	.loc 1 924 3
	addi	a5,s0,-264
	li	a1,11
	mv	a0,a5
	call	ZeroMem@plt
	.loc 1 925 42
	ld	a5,-280(s0)
	ld	a5,8(a5)
	mv	a4,a5
	li	a5,16777216
	addi	a5,a5,-1
	and	a5,a4,a5
	sext.w	a5,a5
	slli	a5,a5,32
	srli	a5,a5,32
	.loc 1 925 17
	addi	a5,a5,-4
	sd	a5,-152(s0)
	.loc 1 926 9
	sd	zero,-136(s0)
	.loc 1 927 13
	sd	zero,-40(s0)
	.loc 1 928 12
	sb	zero,-50(s0)
	.loc 1 929 12
	ld	a5,-280(s0)
	ld	a5,16(a5)
	sd	a5,-48(s0)
	.loc 1 930 18
	sd	zero,-64(s0)
	.loc 1 931 19
	sb	zero,-49(s0)
	.loc 1 932 21
	sd	zero,-80(s0)
	.loc 1 933 21
	sd	zero,-88(s0)
	.loc 1 934 19
	sd	zero,-112(s0)
	.loc 1 935 19
	sd	zero,-104(s0)
	.loc 1 936 19
	sd	zero,-72(s0)
	.loc 1 937 17
	sd	zero,-96(s0)
	.loc 1 938 24
	sb	zero,-121(s0)
	.loc 1 939 24
	sb	zero,-122(s0)
	.loc 1 940 25
	sb	zero,-137(s0)
	.loc 1 942 9
	j	.L120
.L175:
	.loc 1 943 21
	ld	a5,-48(s0)
	lbu	a5,0(a5)
	sext.w	a5,a5
	.loc 1 943 5
	li	a4,95
	beq	a5,a4,.L121
	li	a4,95
	bgt	a5,a4,.L181
	li	a4,93
	beq	a5,a4,.L123
	li	a4,93
	bgt	a5,a4,.L181
	li	a4,92
	beq	a5,a4,.L124
	li	a4,92
	bgt	a5,a4,.L181
	li	a4,91
	beq	a5,a4,.L125
	li	a4,91
	bgt	a5,a4,.L181
	li	a4,41
	beq	a5,a4,.L126
	li	a4,41
	bgt	a5,a4,.L181
	li	a4,38
	beq	a5,a4,.L127
	li	a4,38
	bgt	a5,a4,.L181
	li	a4,35
	beq	a5,a4,.L128
	li	a4,35
	bgt	a5,a4,.L181
	li	a4,9
	beq	a5,a4,.L129
	li	a4,9
	bgt	a5,a4,.L181
	li	a4,7
	beq	a5,a4,.L130
	li	a4,7
	bgt	a5,a4,.L181
	li	a4,6
	beq	a5,a4,.L131
	li	a4,6
	bgt	a5,a4,.L181
	li	a4,1
	beq	a5,a4,.L123
	li	a4,5
	beq	a5,a4,.L132
	.loc 1 1160 9
	j	.L181
.L127:
	.loc 1 945 12
	ld	a4,-88(s0)
	ld	a5,-80(s0)
	bltu	a4,a5,.L133
	.loc 1 949 63
	ld	a5,-80(s0)
	slli	a4,a5,3
	.loc 1 949 100
	ld	a5,-80(s0)
	addi	a5,a5,10
	.loc 1 949 106
	slli	a5,a5,3
	.loc 1 949 29
	ld	a2,-72(s0)
	mv	a1,a5
	mv	a0,a4
	call	ReallocatePool@plt
	sd	a0,-72(s0)
	.loc 1 950 14
	ld	a5,-72(s0)
	beq	a5,zero,.L182
	.loc 1 954 29
	ld	a5,-80(s0)
	addi	a5,a5,10
	sd	a5,-80(s0)
.L133:
	.loc 1 957 24
	ld	a5,-48(s0)
	sd	a5,-184(s0)
	.loc 1 961 82
	ld	a5,-184(s0)
	lbu	a5,1(a5)
	andi	a5,a5,127
	andi	a5,a5,0xff
	mv	s1,a5
	.loc 1 961 115
	ld	a5,-184(s0)
	addi	a5,a5,26
	.loc 1 961 92
	mv	a0,a5
	call	AsciiStrSize@plt
	mv	a5,a0
	.loc 1 961 46 discriminator 1
	add	a3,s1,a5
	.loc 1 961 24 discriminator 1
	ld	a5,-88(s0)
	slli	a5,a5,3
	ld	a4,-72(s0)
	add	s1,a4,a5
	.loc 1 961 46 discriminator 1
	mv	a0,a3
	call	AllocatePool@plt
	mv	a5,a0
	.loc 1 961 44 discriminator 2
	sd	a5,0(s1)
	.loc 1 962 28
	ld	a5,-88(s0)
	slli	a5,a5,3
	ld	a4,-72(s0)
	add	a5,a4,a5
	ld	a5,0(a5)
	.loc 1 962 12
	beq	a5,zero,.L183
	.loc 1 966 33
	ld	a5,-88(s0)
	slli	a5,a5,3
	ld	a4,-72(s0)
	add	a5,a4,a5
	.loc 1 966 9
	ld	a4,0(a5)
	.loc 1 966 92
	ld	a5,-184(s0)
	lbu	a5,1(a5)
	andi	a5,a5,127
	andi	a5,a5,0xff
	.loc 1 966 9
	mv	a2,a5
	ld	a1,-184(s0)
	mv	a0,a4
	call	CopyMem@plt
	.loc 1 967 41
	ld	a5,-184(s0)
	addi	s1,a5,26
	.loc 1 967 90
	ld	a5,-88(s0)
	slli	a5,a5,3
	ld	a4,-72(s0)
	add	a5,a4,a5
	ld	a5,0(a5)
	.loc 1 967 73
	addi	s2,a5,26
	.loc 1 967 144
	ld	a5,-184(s0)
	addi	a5,a5,26
	.loc 1 967 121
	mv	a0,a5
	call	AsciiStrSize@plt
	mv	a5,a0
	.loc 1 967 166 discriminator 1
	slli	a5,a5,1
	.loc 1 967 9 discriminator 1
	mv	a2,a5
	mv	a1,s2
	mv	a0,s1
	call	AsciiStrToUnicodeStrS@plt
	.loc 1 968 69
	ld	a5,-88(s0)
	slli	a5,a5,3
	ld	a4,-72(s0)
	add	a5,a4,a5
	.loc 1 968 18
	ld	a1,0(a5)
	.loc 1 968 143
	ld	a5,-184(s0)
	lbu	a4,24(a5)
	lbu	a5,25(a5)
	slli	a5,a5,8
	or	a5,a5,a4
	slli	a5,a5,48
	srli	a5,a5,48
	.loc 1 968 18
	mv	a4,a5
	addi	a2,s0,-264
	li	a5,0
	li	a3,0
	li	a0,0
	call	FindQuestionDefaultSetting
	sd	a0,-176(s0)
	.loc 1 969 13
	ld	a5,-176(s0)
	.loc 1 969 12
	blt	a5,zero,.L138
	.loc 1 970 28
	ld	a5,-88(s0)
	addi	a5,a5,1
	sd	a5,-88(s0)
	.loc 1 976 9
	j	.L137
.L138:
	.loc 1 972 36
	ld	a5,-88(s0)
	slli	a5,a5,3
	ld	a4,-72(s0)
	add	a5,a4,a5
	.loc 1 972 11
	ld	a5,0(a5)
	mv	a0,a5
	call	FreePool@plt
	.loc 1 973 26
	ld	a5,-88(s0)
	slli	a5,a5,3
	ld	a4,-72(s0)
	add	a5,a4,a5
	.loc 1 973 46
	sd	zero,0(a5)
	.loc 1 976 9
	j	.L137
.L124:
	.loc 1 978 12
	ld	a4,-104(s0)
	ld	a5,-112(s0)
	bltu	a4,a5,.L140
	.loc 1 982 59
	ld	a5,-112(s0)
	slli	a4,a5,1
	.loc 1 982 95
	ld	a5,-112(s0)
	addi	a5,a5,10
	.loc 1 982 101
	slli	a5,a5,1
	.loc 1 982 27
	ld	a2,-96(s0)
	mv	a1,a5
	mv	a0,a4
	call	ReallocatePool@plt
	sd	a0,-96(s0)
	.loc 1 983 14
	ld	a5,-96(s0)
	beq	a5,zero,.L184
	.loc 1 987 27
	ld	a5,-112(s0)
	addi	a5,a5,10
	sd	a5,-112(s0)
.L140:
	.loc 1 990 38
	ld	a5,-104(s0)
	addi	a4,a5,1
	sd	a4,-104(s0)
	.loc 1 990 22
	slli	a5,a5,1
	ld	a4,-96(s0)
	add	a4,a4,a5
	.loc 1 990 78
	ld	a5,-48(s0)
	lbu	a3,4(a5)
	lbu	a5,5(a5)
	slli	a5,a5,8
	or	a5,a5,a3
	slli	a5,a5,48
	srli	a5,a5,48
	.loc 1 990 42
	sh	a5,0(a4)
	.loc 1 991 9
	j	.L137
.L123:
	.loc 1 997 12
	ld	a5,-88(s0)
	beq	a5,zero,.L185
	.loc 1 997 38 discriminator 1
	ld	a5,-104(s0)
	bne	a5,zero,.L186
	.loc 1 998 11
	j	.L185
.L131:
	.loc 1 1003 28
	ld	a5,-48(s0)
	lbu	a5,1(a5)
	srliw	a5,a5,7
	andi	a5,a5,0xff
	.loc 1 1003 18
	sb	a5,-50(s0)
	.loc 1 1004 25
	ld	a5,-48(s0)
	lbu	a5,0(a5)
	sb	a5,-49(s0)
	.loc 1 1005 24
	ld	a5,-48(s0)
	addi	a5,a5,2
	sd	a5,-64(s0)
	.loc 1 1006 21
	ld	a5,-48(s0)
	sd	a5,-200(s0)
	.loc 1 1007 28
	ld	a2,-88(s0)
	ld	a1,-72(s0)
	ld	a0,-64(s0)
	call	IsEfiVarStoreQuestion
	sd	a0,-168(s0)
	.loc 1 1008 15
	li	a5,1
	sd	a5,-136(s0)
	.loc 1 1009 12
	ld	a4,-168(s0)
	ld	a5,-88(s0)
	bgeu	a4,a5,.L187
	.loc 1 1010 22
	sd	zero,-120(s0)
	.loc 1 1010 11
	j	.L145
.L150:
	.loc 1 1011 30
	ld	a5,-120(s0)
	slli	a5,a5,1
	ld	a4,-96(s0)
	add	a5,a4,a5
	lhu	a5,0(a5)
	.loc 1 1011 16
	bne	a5,zero,.L146
	.loc 1 1012 65
	ld	a5,-120(s0)
	slli	a5,a5,1
	ld	a4,-96(s0)
	add	a5,a4,a5
	.loc 1 1012 24
	lhu	a0,0(a5)
	.loc 1 1012 89
	ld	a5,-168(s0)
	slli	a5,a5,3
	ld	a4,-72(s0)
	add	a5,a4,a5
	.loc 1 1012 24
	ld	a1,0(a5)
	lbu	a5,-137(s0)
	addi	a3,s0,-224
	li	a4,1
	ld	a2,-64(s0)
	call	FindQuestionDefaultSetting
	sd	a0,-176(s0)
	.loc 1 1013 19
	ld	a5,-176(s0)
	.loc 1 1013 18
	blt	a5,zero,.L147
	.loc 1 1014 29
	lbu	a5,-224(s0)
	.loc 1 1014 20
	beq	a5,zero,.L148
	.loc 1 1015 51
	ld	a5,-200(s0)
	lbu	a5,13(a5)
	.loc 1 1015 38
	ori	a5,a5,1
	andi	a4,a5,0xff
	ld	a5,-200(s0)
	sb	a4,13(a5)
	j	.L147
.L148:
	.loc 1 1017 51
	ld	a5,-200(s0)
	lbu	a5,13(a5)
	.loc 1 1017 59
	andi	a5,a5,-2
	andi	a4,a5,0xff
	.loc 1 1017 38
	ld	a5,-200(s0)
	sb	a4,13(a5)
	j	.L147
.L146:
	.loc 1 1020 37
	ld	a5,-120(s0)
	slli	a5,a5,1
	ld	a4,-96(s0)
	add	a5,a4,a5
	lhu	a5,0(a5)
	.loc 1 1020 23
	sext.w	a4,a5
	li	a5,1
	bne	a4,a5,.L147
	.loc 1 1021 65
	ld	a5,-120(s0)
	slli	a5,a5,1
	ld	a4,-96(s0)
	add	a5,a4,a5
	.loc 1 1021 24
	lhu	a0,0(a5)
	.loc 1 1021 89
	ld	a5,-168(s0)
	slli	a5,a5,3
	ld	a4,-72(s0)
	add	a5,a4,a5
	.loc 1 1021 24
	ld	a1,0(a5)
	lbu	a5,-137(s0)
	addi	a3,s0,-224
	li	a4,1
	ld	a2,-64(s0)
	call	FindQuestionDefaultSetting
	sd	a0,-176(s0)
	.loc 1 1022 19
	ld	a5,-176(s0)
	.loc 1 1022 18
	blt	a5,zero,.L147
	.loc 1 1023 29
	lbu	a5,-224(s0)
	.loc 1 1023 20
	beq	a5,zero,.L149
	.loc 1 1024 51
	ld	a5,-200(s0)
	lbu	a5,13(a5)
	.loc 1 1024 38
	ori	a5,a5,2
	andi	a4,a5,0xff
	ld	a5,-200(s0)
	sb	a4,13(a5)
	j	.L147
.L149:
	.loc 1 1026 51
	ld	a5,-200(s0)
	lbu	a5,13(a5)
	.loc 1 1026 59
	andi	a5,a5,-3
	andi	a4,a5,0xff
	.loc 1 1026 38
	ld	a5,-200(s0)
	sb	a4,13(a5)
.L147:
	.loc 1 1010 57 discriminator 2
	ld	a5,-120(s0)
	addi	a5,a5,1
	sd	a5,-120(s0)
.L145:
	.loc 1 1010 33 discriminator 1
	ld	a4,-120(s0)
	ld	a5,-104(s0)
	bltu	a4,a5,.L150
	.loc 1 1033 9
	j	.L187
.L130:
	.loc 1 1035 28
	ld	a5,-48(s0)
	lbu	a5,1(a5)
	srliw	a5,a5,7
	andi	a5,a5,0xff
	.loc 1 1035 18
	sb	a5,-50(s0)
	.loc 1 1036 25
	ld	a5,-48(s0)
	lbu	a5,0(a5)
	sb	a5,-49(s0)
	.loc 1 1037 24
	ld	a5,-48(s0)
	addi	a5,a5,2
	sd	a5,-64(s0)
	.loc 1 1038 12
	lbu	a5,-137(s0)
	andi	a5,a5,0xff
	beq	a5,zero,.L151
	.loc 1 1039 55
	ld	a5,-48(s0)
	lbu	a5,13(a5)
	.loc 1 1039 17
	andi	a5,a5,63
	sd	a5,-136(s0)
	.loc 1 1044 9
	j	.L137
.L151:
	.loc 1 1041 69
	ld	a5,-48(s0)
	lbu	a5,13(a5)
	.loc 1 1041 77
	sext.w	a5,a5
	andi	a5,a5,3
	sext.w	a5,a5
	.loc 1 1041 37
	mv	a4,a5
	li	a5,1
	sllw	a5,a5,a4
	sext.w	a5,a5
	.loc 1 1041 17
	slli	a5,a5,32
	srli	a5,a5,32
	sd	a5,-136(s0)
	.loc 1 1044 9
	j	.L137
.L132:
	.loc 1 1046 28
	ld	a5,-48(s0)
	lbu	a5,1(a5)
	srliw	a5,a5,7
	andi	a5,a5,0xff
	.loc 1 1046 18
	sb	a5,-50(s0)
	.loc 1 1047 25
	ld	a5,-48(s0)
	lbu	a5,0(a5)
	sb	a5,-49(s0)
	.loc 1 1048 24
	ld	a5,-48(s0)
	addi	a5,a5,2
	sd	a5,-64(s0)
	.loc 1 1049 12
	lbu	a5,-137(s0)
	andi	a5,a5,0xff
	beq	a5,zero,.L153
	.loc 1 1050 55
	ld	a5,-48(s0)
	lbu	a5,13(a5)
	.loc 1 1050 17
	andi	a5,a5,63
	sd	a5,-136(s0)
	j	.L154
.L153:
	.loc 1 1052 69
	ld	a5,-48(s0)
	lbu	a5,13(a5)
	.loc 1 1052 77
	sext.w	a5,a5
	andi	a5,a5,3
	sext.w	a5,a5
	.loc 1 1052 37
	mv	a4,a5
	li	a5,1
	sllw	a5,a5,a4
	sext.w	a5,a5
	.loc 1 1052 17
	slli	a5,a5,32
	srli	a5,a5,32
	sd	a5,-136(s0)
.L154:
	.loc 1 1055 28
	ld	a2,-88(s0)
	ld	a1,-72(s0)
	ld	a0,-64(s0)
	call	IsEfiVarStoreQuestion
	sd	a0,-168(s0)
	.loc 1 1056 30
	sb	zero,-121(s0)
	.loc 1 1057 30
	sb	zero,-122(s0)
	.loc 1 1061 12
	ld	a4,-168(s0)
	ld	a5,-88(s0)
	bgeu	a4,a5,.L188
	.loc 1 1062 22
	sd	zero,-120(s0)
	.loc 1 1062 11
	j	.L156
.L159:
	.loc 1 1063 30
	ld	a5,-120(s0)
	slli	a5,a5,1
	ld	a4,-96(s0)
	add	a5,a4,a5
	lhu	a5,0(a5)
	.loc 1 1063 16
	bne	a5,zero,.L157
	.loc 1 1064 75
	ld	a5,-168(s0)
	slli	a5,a5,3
	ld	a4,-72(s0)
	add	a5,a4,a5
	.loc 1 1064 24
	ld	a1,0(a5)
	lbu	a5,-137(s0)
	addi	a3,s0,-224
	ld	a4,-136(s0)
	ld	a2,-64(s0)
	li	a0,0
	call	FindQuestionDefaultSetting
	sd	a0,-176(s0)
	.loc 1 1065 19
	ld	a5,-176(s0)
	.loc 1 1065 18
	blt	a5,zero,.L158
	.loc 1 1066 38
	li	a5,1
	sb	a5,-121(s0)
	j	.L158
.L157:
	.loc 1 1068 37
	ld	a5,-120(s0)
	slli	a5,a5,1
	ld	a4,-96(s0)
	add	a5,a4,a5
	lhu	a5,0(a5)
	.loc 1 1068 23
	sext.w	a4,a5
	li	a5,1
	bne	a4,a5,.L158
	.loc 1 1069 75
	ld	a5,-168(s0)
	slli	a5,a5,3
	ld	a4,-72(s0)
	add	a5,a4,a5
	.loc 1 1069 24
	ld	a1,0(a5)
	lbu	a5,-137(s0)
	addi	a3,s0,-248
	ld	a4,-136(s0)
	ld	a2,-64(s0)
	li	a0,1
	call	FindQuestionDefaultSetting
	sd	a0,-176(s0)
	.loc 1 1070 19
	ld	a5,-176(s0)
	.loc 1 1070 18
	blt	a5,zero,.L158
	.loc 1 1071 38
	li	a5,1
	sb	a5,-122(s0)
.L158:
	.loc 1 1062 57 discriminator 2
	ld	a5,-120(s0)
	addi	a5,a5,1
	sd	a5,-120(s0)
.L156:
	.loc 1 1062 33 discriminator 1
	ld	a4,-120(s0)
	ld	a5,-104(s0)
	bltu	a4,a5,.L159
	.loc 1 1077 9
	j	.L188
.L128:
	.loc 1 1079 28
	ld	a5,-48(s0)
	lbu	a5,1(a5)
	srliw	a5,a5,7
	andi	a5,a5,0xff
	.loc 1 1079 18
	sb	a5,-50(s0)
	.loc 1 1080 25
	ld	a5,-48(s0)
	lbu	a5,0(a5)
	sb	a5,-49(s0)
	.loc 1 1081 24
	ld	a5,-48(s0)
	addi	a5,a5,2
	sd	a5,-64(s0)
	.loc 1 1082 9
	j	.L137
.L129:
	.loc 1 1084 12
	ld	a5,-64(s0)
	beq	a5,zero,.L189
	.loc 1 1084 46 discriminator 1
	lbu	a5,-50(s0)
	andi	a5,a5,0xff
	beq	a5,zero,.L189
	.loc 1 1085 26
	ld	a5,-48(s0)
	sd	a5,-192(s0)
	.loc 1 1086 14
	lbu	a5,-49(s0)
	andi	a4,a5,0xff
	li	a5,5
	bne	a4,a5,.L189
	.loc 1 1087 57
	ld	a5,-192(s0)
	lbu	a5,4(a5)
	.loc 1 1087 65
	sext.w	a5,a5
	andi	a5,a5,3
	sext.w	a5,a5
	.loc 1 1087 39
	mv	a4,a5
	li	a5,1
	sllw	a5,a5,a4
	sext.w	a5,a5
	.loc 1 1087 19
	slli	a5,a5,32
	srli	a5,a5,32
	sd	a5,-136(s0)
	.loc 1 1088 16
	lbu	a5,-121(s0)
	andi	a5,a5,0xff
	beq	a5,zero,.L161
	.loc 1 1089 31
	ld	a5,-192(s0)
	addi	a5,a5,6
	.loc 1 1089 19
	addi	a4,s0,-224
	ld	a2,-136(s0)
	mv	a1,a4
	mv	a0,a5
	call	CompareMem@plt
	mv	a5,a0
	.loc 1 1089 18 discriminator 1
	bne	a5,zero,.L162
	.loc 1 1090 31
	ld	a5,-192(s0)
	lbu	a5,4(a5)
	.loc 1 1090 39
	ori	a5,a5,16
	andi	a4,a5,0xff
	ld	a5,-192(s0)
	sb	a4,4(a5)
	j	.L161
.L162:
	.loc 1 1092 31
	ld	a5,-192(s0)
	lbu	a5,4(a5)
	.loc 1 1092 39
	andi	a5,a5,-17
	andi	a4,a5,0xff
	ld	a5,-192(s0)
	sb	a4,4(a5)
.L161:
	.loc 1 1096 16
	lbu	a5,-122(s0)
	andi	a5,a5,0xff
	beq	a5,zero,.L189
	.loc 1 1097 31
	ld	a5,-192(s0)
	addi	a5,a5,6
	.loc 1 1097 19
	addi	a4,s0,-248
	ld	a2,-136(s0)
	mv	a1,a4
	mv	a0,a5
	call	CompareMem@plt
	mv	a5,a0
	.loc 1 1097 18 discriminator 1
	bne	a5,zero,.L163
	.loc 1 1098 31
	ld	a5,-192(s0)
	lbu	a5,4(a5)
	.loc 1 1098 39
	ori	a5,a5,32
	andi	a4,a5,0xff
	ld	a5,-192(s0)
	sb	a4,4(a5)
	.loc 1 1106 9
	j	.L189
.L163:
	.loc 1 1100 31
	ld	a5,-192(s0)
	lbu	a5,4(a5)
	.loc 1 1100 39
	andi	a5,a5,-33
	andi	a4,a5,0xff
	ld	a5,-192(s0)
	sb	a4,4(a5)
	.loc 1 1106 9
	j	.L189
.L125:
	.loc 1 1108 12
	ld	a5,-64(s0)
	beq	a5,zero,.L190
	.loc 1 1108 46 discriminator 1
	lbu	a5,-50(s0)
	andi	a5,a5,0xff
	beq	a5,zero,.L190
	.loc 1 1109 22
	ld	a5,-48(s0)
	sd	a5,-160(s0)
	.loc 1 1113 14
	lbu	a5,-137(s0)
	andi	a5,a5,0xff
	bne	a5,zero,.L165
	.loc 1 1114 19
	sd	zero,-136(s0)
	.loc 1 1115 28
	ld	a5,-160(s0)
	lbu	a5,4(a5)
	.loc 1 1115 16
	beq	a5,zero,.L166
	.loc 1 1115 58 discriminator 1
	ld	a5,-160(s0)
	lbu	a5,4(a5)
	.loc 1 1115 44 discriminator 1
	mv	a4,a5
	li	a5,4
	bne	a4,a5,.L167
.L166:
	.loc 1 1116 21
	li	a5,1
	sd	a5,-136(s0)
	j	.L165
.L167:
	.loc 1 1117 34
	ld	a5,-160(s0)
	lbu	a5,4(a5)
	.loc 1 1117 23
	mv	a4,a5
	li	a5,1
	bne	a4,a5,.L168
	.loc 1 1118 21
	li	a5,2
	sd	a5,-136(s0)
	j	.L165
.L168:
	.loc 1 1119 34
	ld	a5,-160(s0)
	lbu	a5,4(a5)
	.loc 1 1119 23
	mv	a4,a5
	li	a5,2
	bne	a4,a5,.L169
	.loc 1 1120 21
	li	a5,4
	sd	a5,-136(s0)
	j	.L165
.L169:
	.loc 1 1121 34
	ld	a5,-160(s0)
	lbu	a5,4(a5)
	.loc 1 1121 23
	mv	a4,a5
	li	a5,3
	bne	a4,a5,.L170
	.loc 1 1122 21
	li	a5,8
	sd	a5,-136(s0)
	j	.L165
.L170:
	.loc 1 1123 34
	ld	a5,-160(s0)
	lbu	a5,4(a5)
	.loc 1 1123 23
	mv	a4,a5
	li	a5,11
	bne	a4,a5,.L165
	.loc 1 1124 41
	ld	a5,-160(s0)
	lbu	a5,1(a5)
	andi	a5,a5,127
	andi	a5,a5,0xff
	.loc 1 1124 21
	addi	a5,a5,-5
	sd	a5,-136(s0)
.L165:
	.loc 1 1131 14
	ld	a5,-136(s0)
	beq	a5,zero,.L190
	.loc 1 1132 32
	ld	a2,-88(s0)
	ld	a1,-72(s0)
	ld	a0,-64(s0)
	call	IsEfiVarStoreQuestion
	sd	a0,-168(s0)
	.loc 1 1133 16
	ld	a4,-168(s0)
	ld	a5,-88(s0)
	bgeu	a4,a5,.L190
	.loc 1 1134 24
	ld	a5,-160(s0)
	lbu	a4,2(a5)
	lbu	a5,3(a5)
	slli	a5,a5,8
	or	a5,a5,a4
	slli	a0,a5,48
	srli	a0,a0,48
	.loc 1 1134 90
	ld	a5,-168(s0)
	slli	a5,a5,3
	ld	a4,-72(s0)
	add	a5,a4,a5
	.loc 1 1134 24
	ld	a1,0(a5)
	.loc 1 1134 126
	ld	a5,-160(s0)
	addi	a3,a5,5
	.loc 1 1134 24
	lbu	a5,-137(s0)
	ld	a4,-136(s0)
	ld	a2,-64(s0)
	call	FindQuestionDefaultSetting
	sd	a0,-176(s0)
	.loc 1 1139 9
	j	.L190
.L126:
	.loc 1 1141 12
	ld	a5,-64(s0)
	beq	a5,zero,.L191
	.loc 1 1142 14
	lbu	a5,-50(s0)
	andi	a5,a5,0xff
	beq	a5,zero,.L172
	.loc 1 1143 21
	lbu	a5,-50(s0)
	addiw	a5,a5,-1
	sb	a5,-50(s0)
.L172:
	.loc 1 1146 14
	lbu	a5,-50(s0)
	andi	a5,a5,0xff
	bne	a5,zero,.L191
	.loc 1 1147 28
	sd	zero,-64(s0)
	.loc 1 1148 35
	sb	zero,-137(s0)
	.loc 1 1152 9
	j	.L191
.L121:
	.loc 1 1154 13
	ld	a5,-48(s0)
	addi	a5,a5,2
	la	a1,gEdkiiIfrBitVarstoreGuid
	mv	a0,a5
	call	CompareGuid@plt
	mv	a5,a0
	.loc 1 1154 12 discriminator 1
	beq	a5,zero,.L192
	.loc 1 1155 33
	li	a5,1
	sb	a5,-137(s0)
	.loc 1 1158 9
	j	.L192
.L181:
	.loc 1 1160 9
	nop
	j	.L137
.L183:
	.loc 1 963 11
	nop
	j	.L137
.L186:
	.loc 1 1001 9
	nop
	j	.L137
.L187:
	.loc 1 1033 9
	nop
	j	.L137
.L188:
	.loc 1 1077 9
	nop
	j	.L137
.L189:
	.loc 1 1106 9
	nop
	j	.L137
.L190:
	.loc 1 1139 9
	nop
	j	.L137
.L191:
	.loc 1 1152 9
	nop
	j	.L137
.L192:
	.loc 1 1158 9
	nop
.L137:
	.loc 1 1163 37
	ld	a5,-48(s0)
	lbu	a5,1(a5)
	andi	a5,a5,127
	andi	a5,a5,0xff
	mv	a4,a5
	.loc 1 1163 15
	ld	a5,-40(s0)
	add	a5,a5,a4
	sd	a5,-40(s0)
	.loc 1 1164 66
	ld	a5,-48(s0)
	lbu	a5,1(a5)
	andi	a5,a5,127
	andi	a5,a5,0xff
	mv	a4,a5
	.loc 1 1164 14
	ld	a5,-48(s0)
	add	a5,a5,a4
	sd	a5,-48(s0)
	.loc 1 1165 8
	lbu	a5,-50(s0)
	andi	a5,a5,0xff
	beq	a5,zero,.L120
	.loc 1 1166 27
	ld	a5,-48(s0)
	lbu	a5,1(a5)
	srliw	a5,a5,7
	andi	a5,a5,0xff
	.loc 1 1166 16
	lbu	a4,-50(s0)
	addw	a5,a4,a5
	sb	a5,-50(s0)
.L120:
	.loc 1 942 20
	ld	a4,-40(s0)
	ld	a5,-152(s0)
	bltu	a4,a5,.L175
	.loc 1 1170 1
	j	.L135
.L182:
	.loc 1 951 13
	nop
	j	.L135
.L184:
	.loc 1 984 13
	nop
	j	.L135
.L185:
	.loc 1 998 11
	nop
.L135:
	.loc 1 1171 6
	ld	a5,-72(s0)
	beq	a5,zero,.L193
	.loc 1 1172 16
	sd	zero,-120(s0)
	.loc 1 1172 5
	j	.L177
.L178:
	.loc 1 1173 32
	ld	a5,-120(s0)
	slli	a5,a5,3
	ld	a4,-72(s0)
	add	a5,a4,a5
	.loc 1 1173 7
	ld	a5,0(a5)
	mv	a0,a5
	call	FreePool@plt
	.loc 1 1172 53 discriminator 3
	ld	a5,-120(s0)
	addi	a5,a5,1
	sd	a5,-120(s0)
.L177:
	.loc 1 1172 27 discriminator 1
	ld	a4,-120(s0)
	ld	a5,-88(s0)
	bltu	a4,a5,.L178
	.loc 1 1177 3
	j	.L193
.L180:
	.loc 1 921 5
	nop
	j	.L116
.L193:
	.loc 1 1177 3
	nop
.L116:
	.loc 1 1178 1
	ld	ra,280(sp)
	.cfi_restore 1
	ld	s0,272(sp)
	.cfi_restore 8
	.cfi_def_cfa 2, 288
	ld	s1,264(sp)
	.cfi_restore 9
	ld	s2,256(sp)
	.cfi_restore 18
	addi	sp,sp,288
	.cfi_def_cfa_offset 0
	jr	ra
	.cfi_endproc
.LFE10:
	.size	UpdateDefaultSettingInFormPackage, .-UpdateDefaultSettingInFormPackage
	.section	.text.InsertFormPackage,"ax",@progbits
	.align	1
	.globl	InsertFormPackage
	.type	InsertFormPackage, @function
InsertFormPackage:
.LFB11:
	.loc 1 1204 1
	.cfi_startproc
	addi	sp,sp,-64
	.cfi_def_cfa_offset 64
	sd	ra,56(sp)
	sd	s0,48(sp)
	.cfi_offset 1, -8
	.cfi_offset 8, -16
	addi	s0,sp,64
	.cfi_def_cfa 8, 0
	sd	a0,-40(s0)
	sd	a1,-48(s0)
	sd	a2,-56(s0)
	sd	a3,-64(s0)
	.loc 1 1208 6
	ld	a5,-40(s0)
	beq	a5,zero,.L195
	.loc 1 1208 36 discriminator 1
	ld	a5,-56(s0)
	bne	a5,zero,.L196
.L195:
	.loc 1 1209 12
	li	a5,-1
	slli	a5,a5,63
	addi	a5,a5,2
	j	.L201
.L196:
	.loc 1 1215 3
	addi	a5,s0,-32
	li	a2,4
	ld	a1,-40(s0)
	mv	a0,a5
	call	CopyMem@plt
	.loc 1 1220 45
	li	a0,40
	call	AllocateZeroPool@plt
	sd	a0,-24(s0)
	.loc 1 1221 6
	ld	a5,-24(s0)
	bne	a5,zero,.L198
	.loc 1 1222 12
	li	a5,-1
	slli	a5,a5,63
	addi	a5,a5,9
	j	.L201
.L198:
	.loc 1 1225 66
	ld	a5,-32(s0)
	mv	a4,a5
	li	a5,16777216
	addi	a5,a5,-1
	and	a5,a4,a5
	sext.w	a5,a5
	slli	a5,a5,32
	srli	a5,a5,32
	.loc 1 1225 74
	addi	a5,a5,-4
	.loc 1 1225 35
	mv	a0,a5
	call	AllocateZeroPool@plt
	mv	a4,a0
	.loc 1 1225 24 discriminator 1
	ld	a5,-24(s0)
	sd	a4,16(a5)
	.loc 1 1226 18
	ld	a5,-24(s0)
	ld	a5,16(a5)
	.loc 1 1226 6
	bne	a5,zero,.L199
	.loc 1 1227 5
	ld	a0,-24(s0)
	call	FreePool@plt
	.loc 1 1228 12
	li	a5,-1
	slli	a5,a5,63
	addi	a5,a5,9
	j	.L201
.L199:
	.loc 1 1231 26
	ld	a5,-24(s0)
	li	a4,1886543872
	addi	a4,a4,1640
	sd	a4,0(a5)
	.loc 1 1235 12
	ld	a5,-24(s0)
	addi	a5,a5,8
	.loc 1 1235 3
	addi	a4,s0,-32
	li	a2,4
	mv	a1,a4
	mv	a0,a5
	call	CopyMem@plt
	.loc 1 1241 16
	ld	a5,-24(s0)
	ld	a4,16(a5)
	.loc 1 1240 3
	ld	a5,-40(s0)
	addi	a3,a5,4
	.loc 1 1243 18
	ld	a5,-32(s0)
	mv	a2,a5
	li	a5,16777216
	addi	a5,a5,-1
	and	a5,a2,a5
	sext.w	a5,a5
	slli	a5,a5,32
	srli	a5,a5,32
	.loc 1 1243 26
	addi	a5,a5,-4
	.loc 1 1240 3
	mv	a2,a5
	mv	a1,a3
	mv	a0,a4
	call	CopyMem@plt
	.loc 1 1246 3
	ld	a5,-56(s0)
	addi	a4,a5,40
	ld	a5,-24(s0)
	addi	a5,a5,24
	mv	a1,a5
	mv	a0,a4
	call	InsertTailList@plt
	.loc 1 1247 12
	ld	a5,-64(s0)
	ld	a4,-24(s0)
	sd	a4,0(a5)
	.loc 1 1252 3
	ld	a0,-24(s0)
	call	UpdateDefaultSettingInFormPackage
	.loc 1 1254 6
	ld	a4,-48(s0)
	li	a5,8
	bne	a4,a5,.L200
	.loc 1 1255 32
	ld	a5,-56(s0)
	lw	a5,16(a5)
	.loc 1 1255 73
	ld	a4,-24(s0)
	ld	a4,8(a4)
	mv	a3,a4
	li	a4,16777216
	addi	a4,a4,-1
	and	a4,a3,a4
	sext.w	a4,a4
	.loc 1 1255 47
	addw	a5,a5,a4
	sext.w	a4,a5
	ld	a5,-56(s0)
	sw	a4,16(a5)
.L200:
	.loc 1 1258 10
	li	a5,0
.L201:
	.loc 1 1259 1
	mv	a0,a5
	ld	ra,56(sp)
	.cfi_restore 1
	ld	s0,48(sp)
	.cfi_restore 8
	.cfi_def_cfa 2, 64
	addi	sp,sp,64
	.cfi_def_cfa_offset 0
	jr	ra
	.cfi_endproc
.LFE11:
	.size	InsertFormPackage, .-InsertFormPackage
	.section	.text.ExportFormPackages,"ax",@progbits
	.align	1
	.globl	ExportFormPackages
	.type	ExportFormPackages, @function
ExportFormPackages:
.LFB12:
	.loc 1 1288 1
	.cfi_startproc
	addi	sp,sp,-112
	.cfi_def_cfa_offset 112
	sd	ra,104(sp)
	sd	s0,96(sp)
	.cfi_offset 1, -8
	.cfi_offset 8, -16
	addi	s0,sp,112
	.cfi_def_cfa 8, 0
	sd	a0,-56(s0)
	sd	a1,-64(s0)
	sd	a2,-72(s0)
	sd	a3,-80(s0)
	sd	a4,-88(s0)
	sd	a5,-96(s0)
	sd	a6,-104(s0)
	.loc 1 1294 6
	ld	a5,-56(s0)
	beq	a5,zero,.L203
	.loc 1 1294 33 discriminator 1
	ld	a5,-72(s0)
	beq	a5,zero,.L203
	.loc 1 1294 66 discriminator 2
	ld	a5,-104(s0)
	bne	a5,zero,.L204
.L203:
	.loc 1 1295 12
	li	a5,-1
	slli	a5,a5,63
	addi	a5,a5,2
	j	.L205
.L204:
	.loc 1 1298 6
	ld	a5,-88(s0)
	beq	a5,zero,.L206
	.loc 1 1298 24 discriminator 1
	ld	a5,-96(s0)
	bne	a5,zero,.L206
	.loc 1 1299 12
	li	a5,-1
	slli	a5,a5,63
	addi	a5,a5,2
	j	.L205
.L206:
	.loc 1 1302 17
	sd	zero,-32(s0)
	.loc 1 1303 10
	sd	zero,-48(s0)
	.loc 1 1308 13
	ld	a5,-72(s0)
	ld	a5,40(a5)
	sd	a5,-40(s0)
	.loc 1 1308 3
	j	.L207
.L211:
	.loc 1 1309 21
	ld	a5,-40(s0)
	addi	a5,a5,-24
	.loc 1 1309 145
	ld	a4,0(a5)
	.loc 1 1309 230
	li	a5,1886543872
	addi	a5,a5,1640
	bne	a4,a5,.L208
	.loc 1 1309 17 discriminator 1
	ld	a5,-40(s0)
	addi	a5,a5,-24
	sd	a5,-24(s0)
	j	.L209
.L208:
	.loc 1 1309 17 is_stmt 0 discriminator 2
	sd	zero,-24(s0)
.L209:
	.loc 1 1310 45 is_stmt 1
	ld	a5,-24(s0)
	ld	a5,8(a5)
	mv	a4,a5
	li	a5,16777216
	addi	a5,a5,-1
	and	a5,a4,a5
	sext.w	a5,a5
	slli	a5,a5,32
	srli	a5,a5,32
	.loc 1 1310 19
	ld	a4,-32(s0)
	add	a5,a4,a5
	sd	a5,-32(s0)
	.loc 1 1311 8
	ld	a5,-96(s0)
	beq	a5,zero,.L210
	.loc 1 1311 54 discriminator 1
	ld	a5,-104(s0)
	ld	a4,0(a5)
	.loc 1 1311 52 discriminator 1
	ld	a5,-32(s0)
	add	a4,a4,a5
	.loc 1 1311 66 discriminator 1
	ld	a5,-80(s0)
	add	a5,a4,a5
	.loc 1 1311 34 discriminator 1
	ld	a4,-88(s0)
	bltu	a4,a5,.L210
	.loc 1 1315 16
	ld	a4,-64(s0)
	li	a3,2
	ld	a2,-24(s0)
	li	a1,4
	ld	a0,-56(s0)
	call	InvokeRegisteredFunction
	sd	a0,-48(s0)
	.loc 1 1326 33
	ld	a5,-24(s0)
	addi	a5,a5,8
	.loc 1 1326 7
	li	a2,4
	mv	a1,a5
	ld	a0,-96(s0)
	call	CopyMem@plt
	.loc 1 1327 14
	ld	a5,-96(s0)
	addi	a5,a5,4
	sd	a5,-96(s0)
	.loc 1 1330 28
	ld	a5,-24(s0)
	ld	a4,16(a5)
	.loc 1 1331 32
	ld	a5,-24(s0)
	ld	a5,8(a5)
	mv	a3,a5
	li	a5,16777216
	addi	a5,a5,-1
	and	a5,a3,a5
	sext.w	a5,a5
	slli	a5,a5,32
	srli	a5,a5,32
	.loc 1 1331 40
	addi	a5,a5,-4
	.loc 1 1328 7
	mv	a2,a5
	mv	a1,a4
	ld	a0,-96(s0)
	call	CopyMem@plt
	.loc 1 1333 57
	ld	a5,-24(s0)
	ld	a5,8(a5)
	mv	a4,a5
	li	a5,16777216
	addi	a5,a5,-1
	and	a5,a4,a5
	sext.w	a5,a5
	slli	a5,a5,32
	srli	a5,a5,32
	.loc 1 1333 65
	addi	a5,a5,-4
	.loc 1 1333 14
	ld	a4,-96(s0)
	add	a5,a4,a5
	sd	a5,-96(s0)
.L210:
	.loc 1 1308 91 discriminator 2
	ld	a5,-40(s0)
	ld	a5,0(a5)
	sd	a5,-40(s0)
.L207:
	.loc 1 1308 60 discriminator 1
	ld	a5,-72(s0)
	addi	a5,a5,40
	.loc 1 1308 57 discriminator 1
	ld	a4,-40(s0)
	bne	a4,a5,.L211
	.loc 1 1337 3
	ld	a5,-104(s0)
	ld	a4,0(a5)
	.loc 1 1337 15
	ld	a5,-32(s0)
	add	a4,a4,a5
	ld	a5,-104(s0)
	sd	a4,0(a5)
	.loc 1 1339 10
	li	a5,0
.L205:
	.loc 1 1340 1
	mv	a0,a5
	ld	ra,104(sp)
	.cfi_restore 1
	ld	s0,96(sp)
	.cfi_restore 8
	.cfi_def_cfa 2, 112
	addi	sp,sp,112
	.cfi_def_cfa_offset 0
	jr	ra
	.cfi_endproc
.LFE12:
	.size	ExportFormPackages, .-ExportFormPackages
	.section	.text.RemoveFormPackages,"ax",@progbits
	.align	1
	.globl	RemoveFormPackages
	.type	RemoveFormPackages, @function
RemoveFormPackages:
.LFB13:
	.loc 1 1362 1
	.cfi_startproc
	addi	sp,sp,-80
	.cfi_def_cfa_offset 80
	sd	ra,72(sp)
	sd	s0,64(sp)
	.cfi_offset 1, -8
	.cfi_offset 8, -16
	addi	s0,sp,80
	.cfi_def_cfa 8, 0
	sd	a0,-56(s0)
	sd	a1,-64(s0)
	sd	a2,-72(s0)
	.loc 1 1367 12
	ld	a5,-72(s0)
	addi	a5,a5,40
	sd	a5,-32(s0)
	.loc 1 1369 9
	j	.L218
.L219:
	.loc 1 1370 75
	ld	a5,-32(s0)
	ld	a5,0(a5)
	.loc 1 1370 17
	addi	a5,a5,-24
	.loc 1 1370 158
	ld	a4,0(a5)
	.loc 1 1370 243
	li	a5,1886543872
	addi	a5,a5,1640
	bne	a4,a5,.L214
	.loc 1 1370 304 discriminator 1
	ld	a5,-32(s0)
	ld	a5,0(a5)
	.loc 1 1370 13 discriminator 1
	addi	a5,a5,-24
	sd	a5,-24(s0)
	j	.L215
.L214:
	.loc 1 1370 13 is_stmt 0 discriminator 2
	sd	zero,-24(s0)
.L215:
	.loc 1 1376 14 is_stmt 1
	ld	a4,-64(s0)
	li	a3,2
	ld	a2,-24(s0)
	li	a1,2
	ld	a0,-56(s0)
	call	InvokeRegisteredFunction
	sd	a0,-40(s0)
	.loc 1 1383 36
	ld	a5,-40(s0)
	.loc 1 1383 8
	bge	a5,zero,.L216
	.loc 1 1384 14
	ld	a5,-40(s0)
	j	.L217
.L216:
	.loc 1 1387 22
	ld	a5,-24(s0)
	addi	a5,a5,24
	.loc 1 1387 5
	mv	a0,a5
	call	RemoveEntryList@plt
	.loc 1 1388 32
	ld	a5,-72(s0)
	lw	a5,16(a5)
	.loc 1 1388 69
	ld	a4,-24(s0)
	ld	a4,8(a4)
	mv	a3,a4
	li	a4,16777216
	addi	a4,a4,-1
	and	a4,a3,a4
	sext.w	a4,a4
	.loc 1 1388 47
	subw	a5,a5,a4
	sext.w	a4,a5
	ld	a5,-72(s0)
	sw	a4,16(a5)
	.loc 1 1389 22
	ld	a5,-24(s0)
	ld	a5,16(a5)
	.loc 1 1389 5
	mv	a0,a5
	call	FreePool@plt
	.loc 1 1390 5
	ld	a0,-24(s0)
	call	FreePool@plt
	.loc 1 1398 9
	la	a5,gExportAfterReadyToBoot
	lbu	a5,0(a5)
	.loc 1 1398 8
	beq	a5,zero,.L218
	.loc 1 1399 25
	lla	a5,gExportConfigResp
	li	a4,1
	sb	a4,0(a5)
.L218:
	.loc 1 1369 11
	ld	a0,-32(s0)
	call	IsListEmpty@plt
	mv	a5,a0
	.loc 1 1369 10 discriminator 1
	beq	a5,zero,.L219
	.loc 1 1403 10
	li	a5,0
.L217:
	.loc 1 1404 1
	mv	a0,a5
	ld	ra,72(sp)
	.cfi_restore 1
	ld	s0,64(sp)
	.cfi_restore 8
	.cfi_def_cfa 2, 80
	addi	sp,sp,80
	.cfi_def_cfa_offset 0
	jr	ra
	.cfi_endproc
.LFE13:
	.size	RemoveFormPackages, .-RemoveFormPackages
	.section	.text.InsertStringPackage,"ax",@progbits
	.align	1
	.globl	InsertStringPackage
	.type	InsertStringPackage, @function
InsertStringPackage:
.LFB14:
	.loc 1 1434 1
	.cfi_startproc
	addi	sp,sp,-112
	.cfi_def_cfa_offset 112
	sd	ra,104(sp)
	sd	s0,96(sp)
	.cfi_offset 1, -8
	.cfi_offset 8, -16
	addi	s0,sp,112
	.cfi_def_cfa 8, 0
	sd	a0,-72(s0)
	sd	a1,-80(s0)
	sd	a2,-88(s0)
	sd	a3,-96(s0)
	sd	a4,-104(s0)
	.loc 1 1443 6
	ld	a5,-72(s0)
	beq	a5,zero,.L221
	.loc 1 1443 33 discriminator 1
	ld	a5,-80(s0)
	beq	a5,zero,.L221
	.loc 1 1443 65 discriminator 2
	ld	a5,-96(s0)
	bne	a5,zero,.L222
.L221:
	.loc 1 1444 12
	li	a5,-1
	slli	a5,a5,63
	addi	a5,a5,2
	j	.L240
.L222:
	.loc 1 1447 14
	ld	a5,-72(s0)
	ld	a4,0(a5)
	.loc 1 1447 6
	li	a5,1883533312
	addi	a5,a5,-1720
	beq	a4,a5,.L224
	.loc 1 1448 12
	li	a5,-1
	slli	a5,a5,63
	addi	a5,a5,2
	j	.L240
.L224:
	.loc 1 1451 3
	addi	a5,s0,-64
	li	a2,4
	ld	a1,-80(s0)
	mv	a0,a5
	call	CopyMem@plt
	.loc 1 1452 3
	ld	a5,-80(s0)
	addi	a4,a5,4
	addi	a5,s0,-60
	li	a2,4
	mv	a1,a4
	mv	a0,a5
	call	CopyMem@plt
	.loc 1 1458 67
	lw	a5,-60(s0)
	.loc 1 1458 16
	addiw	a5,a5,-46
	sw	a5,-44(s0)
	.loc 1 1459 23
	lwu	a5,-44(s0)
	mv	a0,a5
	call	AllocateZeroPool@plt
	sd	a0,-56(s0)
	.loc 1 1460 6
	ld	a5,-56(s0)
	bne	a5,zero,.L225
	.loc 1 1461 12
	li	a5,-1
	slli	a5,a5,63
	addi	a5,a5,9
	j	.L240
.L225:
	.loc 1 1464 3
	lwu	a3,-44(s0)
	.loc 1 1464 91
	lw	a5,-60(s0)
	slli	a4,a5,32
	srli	a4,a4,32
	lwu	a5,-44(s0)
	sub	a5,a4,a5
	.loc 1 1464 3
	ld	a4,-80(s0)
	add	a5,a4,a5
	mv	a2,a5
	mv	a1,a3
	ld	a0,-56(s0)
	call	AsciiStrCpyS@plt
	.loc 1 1465 13
	ld	a5,-96(s0)
	ld	a5,72(a5)
	sd	a5,-40(s0)
	.loc 1 1465 3
	j	.L226
.L230:
	.loc 1 1466 23
	ld	a5,-40(s0)
	addi	a5,a5,-24
	.loc 1 1466 156
	ld	a4,0(a5)
	.loc 1 1466 241
	li	a5,1886613504
	addi	a5,a5,-1688
	bne	a4,a5,.L227
	.loc 1 1466 19 discriminator 1
	ld	a5,-40(s0)
	addi	a5,a5,-24
	sd	a5,-24(s0)
	j	.L228
.L227:
	.loc 1 1466 19 is_stmt 0 discriminator 2
	sd	zero,-24(s0)
.L228:
	.loc 1 1467 52 is_stmt 1
	ld	a5,-24(s0)
	ld	a5,8(a5)
	.loc 1 1467 66
	addi	a5,a5,46
	.loc 1 1467 9
	mv	a1,a5
	ld	a0,-56(s0)
	call	HiiCompareLanguage@plt
	mv	a5,a0
	.loc 1 1467 8 discriminator 1
	beq	a5,zero,.L229
	.loc 1 1468 7
	ld	a0,-56(s0)
	call	FreePool@plt
	.loc 1 1469 14
	li	a5,-1
	slli	a5,a5,63
	addi	a5,a5,3
	j	.L240
.L229:
	.loc 1 1465 95 discriminator 2
	ld	a5,-40(s0)
	ld	a5,0(a5)
	sd	a5,-40(s0)
.L226:
	.loc 1 1465 62 discriminator 1
	ld	a5,-96(s0)
	addi	a5,a5,72
	.loc 1 1465 59 discriminator 1
	ld	a4,-40(s0)
	bne	a4,a5,.L230
	.loc 1 1473 3
	ld	a0,-56(s0)
	call	FreePool@plt
	.loc 1 1478 50
	li	a0,64
	call	AllocateZeroPool@plt
	sd	a0,-24(s0)
	.loc 1 1479 6
	ld	a5,-24(s0)
	bne	a5,zero,.L231
	.loc 1 1480 12
	li	a5,-1
	slli	a5,a5,63
	addi	a5,a5,9
	sd	a5,-32(s0)
	.loc 1 1481 5
	j	.L232
.L231:
	.loc 1 1484 63
	lw	a5,-60(s0)
	slli	a5,a5,32
	srli	a5,a5,32
	mv	a0,a5
	call	AllocateZeroPool@plt
	mv	a4,a0
	.loc 1 1484 31 discriminator 1
	ld	a5,-24(s0)
	sd	a4,8(a5)
	.loc 1 1485 20
	ld	a5,-24(s0)
	ld	a5,8(a5)
	.loc 1 1485 6
	bne	a5,zero,.L233
	.loc 1 1486 12
	li	a5,-1
	slli	a5,a5,63
	addi	a5,a5,9
	sd	a5,-32(s0)
	.loc 1 1487 5
	j	.L232
.L233:
	.loc 1 1490 72
	ld	a5,-64(s0)
	mv	a4,a5
	li	a5,16777216
	addi	a5,a5,-1
	and	a5,a4,a5
	sext.w	a5,a5
	mv	a4,a5
	.loc 1 1490 80
	lw	a5,-60(s0)
	subw	a5,a4,a5
	sext.w	a5,a5
	.loc 1 1490 41
	slli	a5,a5,32
	srli	a5,a5,32
	mv	a0,a5
	call	AllocateZeroPool@plt
	mv	a4,a0
	.loc 1 1490 30 discriminator 1
	ld	a5,-24(s0)
	sd	a4,16(a5)
	.loc 1 1491 20
	ld	a5,-24(s0)
	ld	a5,16(a5)
	.loc 1 1491 6
	bne	a5,zero,.L234
	.loc 1 1492 12
	li	a5,-1
	slli	a5,a5,63
	addi	a5,a5,9
	sd	a5,-32(s0)
	.loc 1 1493 5
	j	.L232
.L234:
	.loc 1 1496 28
	ld	a5,-24(s0)
	li	a4,1886613504
	addi	a4,a4,-1688
	sd	a4,0(a5)
	.loc 1 1497 25
	ld	a5,-24(s0)
	sb	zero,56(a5)
	.loc 1 1498 3
	ld	a5,-24(s0)
	addi	a5,a5,40
	mv	a0,a5
	call	InitializeListHead@plt
	.loc 1 1503 25
	ld	a5,-24(s0)
	ld	a5,8(a5)
	.loc 1 1503 3
	lw	a4,-60(s0)
	slli	a4,a4,32
	srli	a4,a4,32
	mv	a2,a4
	ld	a1,-80(s0)
	mv	a0,a5
	call	CopyMem@plt
	.loc 1 1509 18
	ld	a5,-24(s0)
	ld	a3,16(a5)
	.loc 1 1508 3
	lw	a5,-60(s0)
	slli	a5,a5,32
	srli	a5,a5,32
	ld	a4,-80(s0)
	add	a4,a4,a5
	.loc 1 1511 18
	ld	a5,-64(s0)
	mv	a2,a5
	li	a5,16777216
	addi	a5,a5,-1
	and	a5,a2,a5
	sext.w	a5,a5
	mv	a2,a5
	.loc 1 1511 26
	lw	a5,-60(s0)
	subw	a5,a2,a5
	sext.w	a5,a5
	.loc 1 1508 3
	slli	a5,a5,32
	srli	a5,a5,32
	mv	a2,a5
	mv	a1,a4
	mv	a0,a3
	call	CopyMem@plt
	.loc 1 1517 12
	ld	a5,-24(s0)
	addi	a5,a5,58
	li	a7,0
	mv	a6,a5
	li	a5,0
	li	a4,0
	li	a3,0
	li	a2,65536
	addi	a2,a2,-1
	ld	a1,-24(s0)
	ld	a0,-72(s0)
	call	FindStringBlock@plt
	sd	a0,-32(s0)
	.loc 1 1518 34
	ld	a5,-32(s0)
	.loc 1 1518 6
	bge	a5,zero,.L235
	.loc 1 1519 12
	ld	a5,-32(s0)
	j	.L240
.L235:
	.loc 1 1525 3
	ld	a5,-96(s0)
	addi	a4,a5,72
	ld	a5,-24(s0)
	addi	a5,a5,24
	mv	a1,a5
	mv	a0,a4
	call	InsertTailList@plt
	.loc 1 1526 12
	ld	a5,-104(s0)
	ld	a4,-24(s0)
	sd	a4,0(a5)
	.loc 1 1528 6
	ld	a4,-88(s0)
	li	a5,8
	bne	a4,a5,.L236
	.loc 1 1529 32
	ld	a5,-96(s0)
	lw	a4,16(a5)
	.loc 1 1529 63
	ld	a5,-24(s0)
	ld	a5,8(a5)
	.loc 1 1529 85
	lbu	a3,0(a5)
	lbu	a2,1(a5)
	slli	a2,a2,8
	or	a3,a2,a3
	lbu	a5,2(a5)
	slli	a5,a5,16
	or	a5,a5,a3
	sext.w	a5,a5
	.loc 1 1529 47
	addw	a5,a4,a5
	sext.w	a4,a5
	ld	a5,-96(s0)
	sw	a4,16(a5)
.L236:
	.loc 1 1532 10
	li	a5,0
	j	.L240
.L232:
	.loc 1 1536 6
	ld	a5,-24(s0)
	beq	a5,zero,.L237
	.loc 1 1537 22
	ld	a5,-24(s0)
	ld	a5,16(a5)
	.loc 1 1537 8
	beq	a5,zero,.L238
	.loc 1 1538 30
	ld	a5,-24(s0)
	ld	a5,16(a5)
	.loc 1 1538 7
	mv	a0,a5
	call	FreePool@plt
.L238:
	.loc 1 1541 22
	ld	a5,-24(s0)
	ld	a5,8(a5)
	.loc 1 1541 8
	beq	a5,zero,.L239
	.loc 1 1542 30
	ld	a5,-24(s0)
	ld	a5,8(a5)
	.loc 1 1542 7
	mv	a0,a5
	call	FreePool@plt
.L239:
	.loc 1 1545 5
	ld	a0,-24(s0)
	call	FreePool@plt
.L237:
	.loc 1 1548 10
	ld	a5,-32(s0)
.L240:
	.loc 1 1549 1
	mv	a0,a5
	ld	ra,104(sp)
	.cfi_restore 1
	ld	s0,96(sp)
	.cfi_restore 8
	.cfi_def_cfa 2, 112
	addi	sp,sp,112
	.cfi_def_cfa_offset 0
	jr	ra
	.cfi_endproc
.LFE14:
	.size	InsertStringPackage, .-InsertStringPackage
	.section	.text.AdjustStringPackage,"ax",@progbits
	.align	1
	.globl	AdjustStringPackage
	.type	AdjustStringPackage, @function
AdjustStringPackage:
.LFB15:
	.loc 1 1564 1
	.cfi_startproc
	addi	sp,sp,-96
	.cfi_def_cfa_offset 96
	sd	ra,88(sp)
	sd	s0,80(sp)
	.cfi_offset 1, -8
	.cfi_offset 8, -16
	addi	s0,sp,96
	.cfi_def_cfa 8, 0
	sd	a0,-88(s0)
	.loc 1 1574 15
	sh	zero,-34(s0)
	.loc 1 1575 13
	ld	a5,-88(s0)
	ld	a5,72(a5)
	sd	a5,-24(s0)
	.loc 1 1575 3
	j	.L242
.L246:
	.loc 1 1580 23
	ld	a5,-24(s0)
	addi	a5,a5,-24
	.loc 1 1580 156
	ld	a4,0(a5)
	.loc 1 1580 241
	li	a5,1886613504
	addi	a5,a5,-1688
	bne	a4,a5,.L243
	.loc 1 1580 19 discriminator 1
	ld	a5,-24(s0)
	addi	a5,a5,-24
	sd	a5,-32(s0)
	j	.L244
.L243:
	.loc 1 1580 19 is_stmt 0 discriminator 2
	sd	zero,-32(s0)
.L244:
	.loc 1 1581 36 is_stmt 1
	ld	a5,-32(s0)
	lhu	a5,58(a5)
	.loc 1 1581 8
	lhu	a4,-34(s0)
	sext.w	a4,a4
	sext.w	a5,a5
	bgeu	a4,a5,.L245
	.loc 1 1582 19
	ld	a5,-32(s0)
	lhu	a5,58(a5)
	sh	a5,-34(s0)
.L245:
	.loc 1 1577 13
	ld	a5,-24(s0)
	ld	a5,0(a5)
	sd	a5,-24(s0)
.L242:
	.loc 1 1576 16
	ld	a5,-88(s0)
	addi	a5,a5,72
	.loc 1 1576 13
	ld	a4,-24(s0)
	bne	a4,a5,.L246
	.loc 1 1586 13
	ld	a5,-88(s0)
	ld	a5,72(a5)
	sd	a5,-24(s0)
	.loc 1 1586 3
	j	.L247
.L253:
	.loc 1 1591 23
	ld	a5,-24(s0)
	addi	a5,a5,-24
	.loc 1 1591 156
	ld	a4,0(a5)
	.loc 1 1591 241
	li	a5,1886613504
	addi	a5,a5,-1688
	bne	a4,a5,.L248
	.loc 1 1591 19 discriminator 1
	ld	a5,-24(s0)
	addi	a5,a5,-24
	sd	a5,-32(s0)
	j	.L249
.L248:
	.loc 1 1591 19 is_stmt 0 discriminator 2
	sd	zero,-32(s0)
.L249:
	.loc 1 1592 22 is_stmt 1
	ld	a5,-32(s0)
	lhu	a5,58(a5)
	.loc 1 1592 8
	lhu	a4,-34(s0)
	sext.w	a4,a4
	sext.w	a5,a5
	bleu	a4,a5,.L250
	.loc 1 1593 35
	ld	a5,-32(s0)
	ld	a5,8(a5)
	.loc 1 1593 57
	lbu	a4,0(a5)
	lbu	a3,1(a5)
	slli	a3,a3,8
	or	a4,a3,a4
	lbu	a5,2(a5)
	slli	a5,a5,16
	or	a5,a5,a4
	sext.w	a5,a5
	mv	a2,a5
	.loc 1 1593 80
	ld	a5,-32(s0)
	ld	a5,8(a5)
	.loc 1 1593 94
	lbu	a4,4(a5)
	lbu	a3,5(a5)
	slli	a3,a3,8
	or	a4,a3,a4
	lbu	a3,6(a5)
	slli	a3,a3,16
	or	a4,a3,a4
	lbu	a5,7(a5)
	slli	a5,a5,24
	or	a5,a5,a4
	sext.w	a5,a5
	.loc 1 1593 20
	subw	a5,a2,a5
	sw	a5,-40(s0)
	.loc 1 1597 55
	ld	a5,-32(s0)
	lhu	a5,58(a5)
	.loc 1 1597 19
	lhu	a4,-34(s0)
	subw	a5,a4,a5
	slli	a5,a5,48
	srli	a5,a5,48
	.loc 1 1597 17
	sh	a5,-66(s0)
	.loc 1 1598 22
	li	a5,3
	sw	a5,-44(s0)
	.loc 1 1600 61
	lw	a5,-40(s0)
	mv	a4,a5
	lw	a5,-44(s0)
	addw	a5,a4,a5
	sext.w	a5,a5
	.loc 1 1600 30
	slli	a5,a5,32
	srli	a5,a5,32
	mv	a0,a5
	call	AllocateZeroPool@plt
	sd	a0,-56(s0)
	.loc 1 1601 10
	ld	a5,-56(s0)
	bne	a5,zero,.L251
	.loc 1 1602 16
	li	a5,-1
	slli	a5,a5,63
	addi	a5,a5,9
	j	.L254
.L251:
	.loc 1 1608 42
	ld	a5,-32(s0)
	ld	a4,16(a5)
	.loc 1 1608 7
	lwu	a5,-40(s0)
	.loc 1 1608 70
	addi	a5,a5,-1
	.loc 1 1608 7
	mv	a2,a5
	mv	a1,a4
	ld	a0,-56(s0)
	call	CopyMem@plt
	.loc 1 1612 45
	lwu	a5,-40(s0)
	addi	a5,a5,-1
	.loc 1 1612 16
	ld	a4,-56(s0)
	add	a5,a4,a5
	sd	a5,-64(s0)
	.loc 1 1613 17
	ld	a5,-64(s0)
	li	a4,33
	sb	a4,0(a5)
	.loc 1 1614 25
	ld	a5,-64(s0)
	addi	a5,a5,1
	.loc 1 1614 7
	addi	a4,s0,-66
	li	a2,2
	mv	a1,a4
	mv	a0,a5
	call	CopyMem@plt
	.loc 1 1615 16
	ld	a5,-64(s0)
	addi	a5,a5,3
	sd	a5,-64(s0)
	.loc 1 1620 17
	ld	a5,-64(s0)
	sb	zero,0(a5)
	.loc 1 1621 30
	ld	a5,-32(s0)
	ld	a5,16(a5)
	.loc 1 1621 7
	mv	a0,a5
	call	FreePool@plt
	.loc 1 1622 34
	ld	a5,-32(s0)
	ld	a4,-56(s0)
	sd	a4,16(a5)
	.loc 1 1623 20
	ld	a5,-32(s0)
	ld	a5,8(a5)
	.loc 1 1623 42
	lbu	a4,0(a5)
	lbu	a3,1(a5)
	slli	a3,a3,8
	or	a4,a3,a4
	lbu	a5,2(a5)
	slli	a5,a5,16
	or	a5,a5,a4
	sext.w	a5,a5
	.loc 1 1623 50
	lw	a4,-44(s0)
	addw	a5,a4,a5
	sext.w	a3,a5
	.loc 1 1623 20
	ld	a5,-32(s0)
	ld	a5,8(a5)
	.loc 1 1623 50
	li	a4,16777216
	addi	a4,a4,-1
	and	a4,a3,a4
	sext.w	a4,a4
	slli	a3,a4,32
	srli	a3,a3,32
	andi	a3,a3,255
	lbu	a2,0(a5)
	andi	a2,a2,0
	or	a3,a2,a3
	sb	a3,0(a5)
	srliw	a3,a4,8
	slli	a3,a3,32
	srli	a3,a3,32
	andi	a3,a3,255
	lbu	a2,1(a5)
	andi	a2,a2,0
	or	a3,a2,a3
	sb	a3,1(a5)
	srliw	a4,a4,16
	slli	a4,a4,32
	srli	a4,a4,32
	andi	a4,a4,255
	lbu	a3,2(a5)
	andi	a3,a3,0
	or	a4,a3,a4
	sb	a4,2(a5)
	.loc 1 1624 34
	ld	a5,-88(s0)
	lw	a5,16(a5)
	.loc 1 1624 49
	lw	a4,-44(s0)
	addw	a5,a4,a5
	sext.w	a4,a5
	ld	a5,-88(s0)
	sw	a4,16(a5)
	.loc 1 1625 34
	ld	a5,-32(s0)
	lhu	a4,-34(s0)
	sh	a4,58(a5)
.L250:
	.loc 1 1588 13
	ld	a5,-24(s0)
	ld	a5,0(a5)
	sd	a5,-24(s0)
.L247:
	.loc 1 1587 16
	ld	a5,-88(s0)
	addi	a5,a5,72
	.loc 1 1587 13
	ld	a4,-24(s0)
	bne	a4,a5,.L253
	.loc 1 1629 10
	li	a5,0
.L254:
	.loc 1 1630 1
	mv	a0,a5
	ld	ra,88(sp)
	.cfi_restore 1
	ld	s0,80(sp)
	.cfi_restore 8
	.cfi_def_cfa 2, 96
	addi	sp,sp,96
	.cfi_def_cfa_offset 0
	jr	ra
	.cfi_endproc
.LFE15:
	.size	AdjustStringPackage, .-AdjustStringPackage
	.section	.text.ExportStringPackages,"ax",@progbits
	.align	1
	.globl	ExportStringPackages
	.type	ExportStringPackages, @function
ExportStringPackages:
.LFB16:
	.loc 1 1659 1
	.cfi_startproc
	addi	sp,sp,-112
	.cfi_def_cfa_offset 112
	sd	ra,104(sp)
	sd	s0,96(sp)
	.cfi_offset 1, -8
	.cfi_offset 8, -16
	addi	s0,sp,112
	.cfi_def_cfa 8, 0
	sd	a0,-56(s0)
	sd	a1,-64(s0)
	sd	a2,-72(s0)
	sd	a3,-80(s0)
	sd	a4,-88(s0)
	sd	a5,-96(s0)
	sd	a6,-104(s0)
	.loc 1 1665 6
	ld	a5,-56(s0)
	beq	a5,zero,.L256
	.loc 1 1665 33 discriminator 1
	ld	a5,-72(s0)
	beq	a5,zero,.L256
	.loc 1 1665 66 discriminator 2
	ld	a5,-104(s0)
	bne	a5,zero,.L257
.L256:
	.loc 1 1666 12
	li	a5,-1
	slli	a5,a5,63
	addi	a5,a5,2
	j	.L258
.L257:
	.loc 1 1669 6
	ld	a5,-88(s0)
	beq	a5,zero,.L259
	.loc 1 1669 24 discriminator 1
	ld	a5,-96(s0)
	bne	a5,zero,.L259
	.loc 1 1670 12
	li	a5,-1
	slli	a5,a5,63
	addi	a5,a5,2
	j	.L258
.L259:
	.loc 1 1673 17
	sd	zero,-32(s0)
	.loc 1 1674 10
	sd	zero,-48(s0)
	.loc 1 1676 13
	ld	a5,-72(s0)
	ld	a5,72(a5)
	sd	a5,-24(s0)
	.loc 1 1676 3
	j	.L260
.L264:
	.loc 1 1677 23
	ld	a5,-24(s0)
	addi	a5,a5,-24
	.loc 1 1677 156
	ld	a4,0(a5)
	.loc 1 1677 241
	li	a5,1886613504
	addi	a5,a5,-1688
	bne	a4,a5,.L261
	.loc 1 1677 19 discriminator 1
	ld	a5,-24(s0)
	addi	a5,a5,-24
	sd	a5,-40(s0)
	j	.L262
.L261:
	.loc 1 1677 19 is_stmt 0 discriminator 2
	sd	zero,-40(s0)
.L262:
	.loc 1 1678 35 is_stmt 1
	ld	a5,-40(s0)
	ld	a5,8(a5)
	.loc 1 1678 57
	lbu	a4,0(a5)
	lbu	a3,1(a5)
	slli	a3,a3,8
	or	a4,a3,a4
	lbu	a5,2(a5)
	slli	a5,a5,16
	or	a5,a5,a4
	sext.w	a5,a5
	slli	a5,a5,32
	srli	a5,a5,32
	.loc 1 1678 19
	ld	a4,-32(s0)
	add	a5,a4,a5
	sd	a5,-32(s0)
	.loc 1 1679 25
	ld	a5,-104(s0)
	ld	a4,0(a5)
	.loc 1 1679 23
	ld	a5,-32(s0)
	add	a4,a4,a5
	.loc 1 1679 37
	ld	a5,-80(s0)
	add	a5,a4,a5
	.loc 1 1679 8
	ld	a4,-88(s0)
	bltu	a4,a5,.L263
	.loc 1 1683 16
	ld	a4,-64(s0)
	li	a3,4
	ld	a2,-40(s0)
	li	a1,4
	ld	a0,-56(s0)
	call	InvokeRegisteredFunction
	sd	a0,-48(s0)
	.loc 1 1694 37
	ld	a5,-40(s0)
	ld	a1,8(a5)
	.loc 1 1694 66
	ld	a5,-40(s0)
	ld	a5,8(a5)
	.loc 1 1694 80
	lbu	a4,4(a5)
	lbu	a3,5(a5)
	slli	a3,a3,8
	or	a4,a3,a4
	lbu	a3,6(a5)
	slli	a3,a3,16
	or	a4,a3,a4
	lbu	a5,7(a5)
	slli	a5,a5,24
	or	a5,a5,a4
	sext.w	a5,a5
	.loc 1 1694 7
	slli	a5,a5,32
	srli	a5,a5,32
	mv	a2,a5
	ld	a0,-96(s0)
	call	CopyMem@plt
	.loc 1 1695 47
	ld	a5,-40(s0)
	ld	a5,8(a5)
	.loc 1 1695 61
	lbu	a4,4(a5)
	lbu	a3,5(a5)
	slli	a3,a3,8
	or	a4,a3,a4
	lbu	a3,6(a5)
	slli	a3,a3,16
	or	a4,a3,a4
	lbu	a5,7(a5)
	slli	a5,a5,24
	or	a5,a5,a4
	sext.w	a5,a5
	slli	a5,a5,32
	srli	a5,a5,32
	.loc 1 1695 14
	ld	a4,-96(s0)
	add	a5,a4,a5
	sd	a5,-96(s0)
	.loc 1 1702 22
	ld	a5,-40(s0)
	ld	a1,16(a5)
	.loc 1 1703 22
	ld	a5,-40(s0)
	ld	a5,8(a5)
	.loc 1 1703 44
	lbu	a4,0(a5)
	lbu	a3,1(a5)
	slli	a3,a3,8
	or	a4,a3,a4
	lbu	a5,2(a5)
	slli	a5,a5,16
	or	a5,a5,a4
	sext.w	a5,a5
	mv	a2,a5
	.loc 1 1703 67
	ld	a5,-40(s0)
	ld	a5,8(a5)
	.loc 1 1703 81
	lbu	a4,4(a5)
	lbu	a3,5(a5)
	slli	a3,a3,8
	or	a4,a3,a4
	lbu	a3,6(a5)
	slli	a3,a3,16
	or	a4,a3,a4
	lbu	a5,7(a5)
	slli	a5,a5,24
	or	a5,a5,a4
	sext.w	a5,a5
	.loc 1 1703 52
	subw	a5,a2,a5
	sext.w	a5,a5
	.loc 1 1700 7
	slli	a5,a5,32
	srli	a5,a5,32
	mv	a2,a5
	ld	a0,-96(s0)
	call	CopyMem@plt
	.loc 1 1705 47
	ld	a5,-40(s0)
	ld	a5,8(a5)
	.loc 1 1705 69
	lbu	a4,0(a5)
	lbu	a3,1(a5)
	slli	a3,a3,8
	or	a4,a3,a4
	lbu	a5,2(a5)
	slli	a5,a5,16
	or	a5,a5,a4
	sext.w	a5,a5
	slli	a4,a5,32
	srli	a4,a4,32
	.loc 1 1705 92
	ld	a5,-40(s0)
	ld	a5,8(a5)
	.loc 1 1705 106
	lbu	a3,4(a5)
	lbu	a2,5(a5)
	slli	a2,a2,8
	or	a3,a2,a3
	lbu	a2,6(a5)
	slli	a2,a2,16
	or	a3,a2,a3
	lbu	a5,7(a5)
	slli	a5,a5,24
	or	a5,a5,a3
	sext.w	a5,a5
	slli	a5,a5,32
	srli	a5,a5,32
	.loc 1 1705 77
	sub	a5,a4,a5
	.loc 1 1705 14
	ld	a4,-96(s0)
	add	a5,a4,a5
	sd	a5,-96(s0)
.L263:
	.loc 1 1676 95 discriminator 2
	ld	a5,-24(s0)
	ld	a5,0(a5)
	sd	a5,-24(s0)
.L260:
	.loc 1 1676 62 discriminator 1
	ld	a5,-72(s0)
	addi	a5,a5,72
	.loc 1 1676 59 discriminator 1
	ld	a4,-24(s0)
	bne	a4,a5,.L264
	.loc 1 1709 3
	ld	a5,-104(s0)
	ld	a4,0(a5)
	.loc 1 1709 15
	ld	a5,-32(s0)
	add	a4,a4,a5
	ld	a5,-104(s0)
	sd	a4,0(a5)
	.loc 1 1710 10
	li	a5,0
.L258:
	.loc 1 1711 1
	mv	a0,a5
	ld	ra,104(sp)
	.cfi_restore 1
	ld	s0,96(sp)
	.cfi_restore 8
	.cfi_def_cfa 2, 112
	addi	sp,sp,112
	.cfi_def_cfa_offset 0
	jr	ra
	.cfi_endproc
.LFE16:
	.size	ExportStringPackages, .-ExportStringPackages
	.section	.text.RemoveStringPackages,"ax",@progbits
	.align	1
	.globl	RemoveStringPackages
	.type	RemoveStringPackages, @function
RemoveStringPackages:
.LFB17:
	.loc 1 1733 1
	.cfi_startproc
	addi	sp,sp,-80
	.cfi_def_cfa_offset 80
	sd	ra,72(sp)
	sd	s0,64(sp)
	.cfi_offset 1, -8
	.cfi_offset 8, -16
	addi	s0,sp,80
	.cfi_def_cfa 8, 0
	sd	a0,-56(s0)
	sd	a1,-64(s0)
	sd	a2,-72(s0)
	.loc 1 1739 12
	ld	a5,-72(s0)
	addi	a5,a5,72
	sd	a5,-40(s0)
	.loc 1 1741 9
	j	.L266
.L275:
	.loc 1 1742 78
	ld	a5,-40(s0)
	ld	a5,0(a5)
	.loc 1 1742 17
	addi	a5,a5,-24
	.loc 1 1742 167
	ld	a4,0(a5)
	.loc 1 1742 252
	li	a5,1886613504
	addi	a5,a5,-1688
	bne	a4,a5,.L267
	.loc 1 1742 316 discriminator 1
	ld	a5,-40(s0)
	ld	a5,0(a5)
	.loc 1 1742 13 discriminator 1
	addi	a5,a5,-24
	sd	a5,-24(s0)
	j	.L268
.L267:
	.loc 1 1742 13 is_stmt 0 discriminator 2
	sd	zero,-24(s0)
.L268:
	.loc 1 1748 14 is_stmt 1
	ld	a4,-64(s0)
	li	a3,4
	ld	a2,-24(s0)
	li	a1,2
	ld	a0,-56(s0)
	call	InvokeRegisteredFunction
	sd	a0,-48(s0)
	.loc 1 1755 36
	ld	a5,-48(s0)
	.loc 1 1755 8
	bge	a5,zero,.L269
	.loc 1 1756 14
	ld	a5,-48(s0)
	j	.L270
.L269:
	.loc 1 1759 22
	ld	a5,-24(s0)
	addi	a5,a5,24
	.loc 1 1759 5
	mv	a0,a5
	call	RemoveEntryList@plt
	.loc 1 1760 32
	ld	a5,-72(s0)
	lw	a4,16(a5)
	.loc 1 1760 57
	ld	a5,-24(s0)
	ld	a5,8(a5)
	.loc 1 1760 79
	lbu	a3,0(a5)
	lbu	a2,1(a5)
	slli	a2,a2,8
	or	a3,a2,a3
	lbu	a5,2(a5)
	slli	a5,a5,16
	or	a5,a5,a3
	sext.w	a5,a5
	.loc 1 1760 47
	subw	a5,a4,a5
	sext.w	a4,a5
	ld	a5,-72(s0)
	sw	a4,16(a5)
	.loc 1 1761 22
	ld	a5,-24(s0)
	ld	a5,16(a5)
	.loc 1 1761 5
	mv	a0,a5
	call	FreePool@plt
	.loc 1 1762 22
	ld	a5,-24(s0)
	ld	a5,8(a5)
	.loc 1 1762 5
	mv	a0,a5
	call	FreePool@plt
	.loc 1 1766 11
	j	.L271
.L274:
	.loc 1 1767 80
	ld	a5,-24(s0)
	ld	a5,40(a5)
	.loc 1 1767 20
	addi	a5,a5,-8
	.loc 1 1767 148
	ld	a4,0(a5)
	.loc 1 1767 233
	li	a5,1768321024
	addi	a5,a5,-920
	bne	a4,a5,.L272
	.loc 1 1767 296 discriminator 1
	ld	a5,-24(s0)
	ld	a5,40(a5)
	.loc 1 1767 16 discriminator 1
	addi	a5,a5,-8
	sd	a5,-32(s0)
	j	.L273
.L272:
	.loc 1 1767 16 is_stmt 0 discriminator 2
	sd	zero,-32(s0)
.L273:
	.loc 1 1773 24 is_stmt 1
	ld	a5,-32(s0)
	addi	a5,a5,8
	.loc 1 1773 7
	mv	a0,a5
	call	RemoveEntryList@plt
	.loc 1 1774 7
	ld	a0,-32(s0)
	call	FreePool@plt
.L271:
	.loc 1 1766 26
	ld	a5,-24(s0)
	addi	a5,a5,40
	.loc 1 1766 13
	mv	a0,a5
	call	IsListEmpty@plt
	mv	a5,a0
	.loc 1 1766 12 discriminator 1
	beq	a5,zero,.L274
	.loc 1 1777 5
	ld	a0,-24(s0)
	call	FreePool@plt
.L266:
	.loc 1 1741 11
	ld	a0,-40(s0)
	call	IsListEmpty@plt
	mv	a5,a0
	.loc 1 1741 10 discriminator 1
	beq	a5,zero,.L275
	.loc 1 1780 10
	li	a5,0
.L270:
	.loc 1 1781 1
	mv	a0,a5
	ld	ra,72(sp)
	.cfi_restore 1
	ld	s0,64(sp)
	.cfi_restore 8
	.cfi_def_cfa 2, 80
	addi	sp,sp,80
	.cfi_def_cfa_offset 0
	jr	ra
	.cfi_endproc
.LFE17:
	.size	RemoveStringPackages, .-RemoveStringPackages
	.section	.text.InsertFontPackage,"ax",@progbits
	.align	1
	.globl	InsertFontPackage
	.type	InsertFontPackage, @function
InsertFontPackage:
.LFB18:
	.loc 1 1811 1
	.cfi_startproc
	addi	sp,sp,-128
	.cfi_def_cfa_offset 128
	sd	ra,120(sp)
	sd	s0,112(sp)
	.cfi_offset 1, -8
	.cfi_offset 8, -16
	addi	s0,sp,128
	.cfi_def_cfa 8, 0
	sd	a0,-88(s0)
	sd	a1,-96(s0)
	sd	a2,-104(s0)
	sd	a3,-112(s0)
	sd	a4,-120(s0)
	.loc 1 1821 6
	ld	a5,-88(s0)
	beq	a5,zero,.L277
	.loc 1 1821 33 discriminator 1
	ld	a5,-96(s0)
	beq	a5,zero,.L277
	.loc 1 1821 65 discriminator 2
	ld	a5,-112(s0)
	bne	a5,zero,.L278
.L277:
	.loc 1 1822 12
	li	a5,-1
	slli	a5,a5,63
	addi	a5,a5,2
	j	.L294
.L278:
	.loc 1 1825 3
	addi	a5,s0,-72
	li	a2,4
	ld	a1,-96(s0)
	mv	a0,a5
	call	CopyMem@plt
	.loc 1 1826 3
	ld	a5,-96(s0)
	addi	a4,a5,4
	addi	a5,s0,-64
	li	a2,4
	mv	a1,a4
	mv	a0,a5
	call	CopyMem@plt
	.loc 1 1828 12
	sd	zero,-40(s0)
	.loc 1 1829 15
	sd	zero,-24(s0)
	.loc 1 1830 14
	sd	zero,-48(s0)
	.loc 1 1837 44
	lw	a5,-64(s0)
	slli	a5,a5,32
	srli	a5,a5,32
	mv	a0,a5
	call	AllocateZeroPool@plt
	sd	a0,-56(s0)
	.loc 1 1838 6
	ld	a5,-56(s0)
	bne	a5,zero,.L280
	.loc 1 1839 12
	li	a5,-1
	slli	a5,a5,63
	addi	a5,a5,9
	sd	a5,-32(s0)
	.loc 1 1840 5
	j	.L281
.L280:
	.loc 1 1843 3
	lw	a5,-64(s0)
	slli	a5,a5,32
	srli	a5,a5,32
	mv	a2,a5
	ld	a1,-96(s0)
	ld	a0,-56(s0)
	call	CopyMem@plt
	.loc 1 1845 54
	lw	a5,-64(s0)
	.loc 1 1845 16
	addiw	a5,a5,-20
	sw	a5,-60(s0)
	.loc 1 1846 31
	lwu	a5,-60(s0)
	mv	a0,a5
	call	AllocateZeroPool@plt
	sd	a0,-40(s0)
	.loc 1 1847 6
	ld	a5,-40(s0)
	bne	a5,zero,.L282
	.loc 1 1848 12
	li	a5,-1
	slli	a5,a5,63
	addi	a5,a5,9
	sd	a5,-32(s0)
	.loc 1 1849 5
	j	.L281
.L282:
	.loc 1 1852 35
	ld	a5,-56(s0)
	lbu	a4,22(a5)
	lbu	a3,23(a5)
	slli	a3,a3,8
	or	a4,a3,a4
	lbu	a3,24(a5)
	slli	a3,a3,16
	or	a4,a3,a4
	lbu	a5,25(a5)
	slli	a5,a5,24
	or	a5,a5,a4
	sext.w	a4,a5
	.loc 1 1852 23
	ld	a5,-40(s0)
	sw	a4,0(a5)
	.loc 1 1853 40
	ld	a5,-56(s0)
	lbu	a4,14(a5)
	lbu	a5,15(a5)
	slli	a5,a5,8
	or	a5,a5,a4
	slli	a4,a5,48
	srli	a4,a4,48
	.loc 1 1853 22
	ld	a5,-40(s0)
	sh	a4,4(a5)
	.loc 1 1854 20
	ld	a5,-40(s0)
	addi	a4,a5,6
	.loc 1 1854 46
	lwu	a5,-60(s0)
	addi	a5,a5,-6
	.loc 1 1854 103
	srli	a3,a5,1
	.loc 1 1854 132
	ld	a5,-56(s0)
	addi	a5,a5,26
	.loc 1 1854 3
	mv	a2,a5
	mv	a1,a3
	mv	a0,a4
	call	StrCpyS@plt
	.loc 1 1856 7
	li	a4,0
	li	a3,0
	li	a2,0
	ld	a1,-40(s0)
	ld	a0,-88(s0)
	call	IsFontInfoExisted@plt
	mv	a5,a0
	.loc 1 1856 6 discriminator 1
	beq	a5,zero,.L283
	.loc 1 1857 12
	li	a5,-1
	slli	a5,a5,63
	addi	a5,a5,3
	sd	a5,-32(s0)
	.loc 1 1858 5
	j	.L281
.L283:
	.loc 1 1864 46
	li	a0,64
	call	AllocateZeroPool@plt
	sd	a0,-24(s0)
	.loc 1 1865 6
	ld	a5,-24(s0)
	bne	a5,zero,.L284
	.loc 1 1866 12
	li	a5,-1
	slli	a5,a5,63
	addi	a5,a5,9
	sd	a5,-32(s0)
	.loc 1 1867 5
	j	.L281
.L284:
	.loc 1 1870 26
	ld	a5,-24(s0)
	li	a4,1885761536
	addi	a4,a4,-1688
	sd	a4,0(a5)
	.loc 1 1871 27
	ld	a5,-24(s0)
	ld	a4,-56(s0)
	sd	a4,8(a5)
	.loc 1 1872 3
	ld	a5,-24(s0)
	addi	a5,a5,48
	mv	a0,a5
	call	InitializeListHead@plt
	.loc 1 1874 69
	ld	a5,-72(s0)
	mv	a4,a5
	li	a5,16777216
	addi	a5,a5,-1
	and	a5,a4,a5
	sext.w	a5,a5
	mv	a4,a5
	.loc 1 1874 77
	lw	a5,-64(s0)
	subw	a5,a4,a5
	sext.w	a5,a5
	.loc 1 1874 38
	slli	a5,a5,32
	srli	a5,a5,32
	mv	a0,a5
	call	AllocateZeroPool@plt
	mv	a4,a0
	.loc 1 1874 27 discriminator 1
	ld	a5,-24(s0)
	sd	a4,24(a5)
	.loc 1 1875 18
	ld	a5,-24(s0)
	ld	a5,24(a5)
	.loc 1 1875 6
	bne	a5,zero,.L285
	.loc 1 1876 12
	li	a5,-1
	slli	a5,a5,63
	addi	a5,a5,9
	sd	a5,-32(s0)
	.loc 1 1877 5
	j	.L281
.L285:
	.loc 1 1880 23
	ld	a5,-24(s0)
	ld	a3,24(a5)
	.loc 1 1880 3
	lw	a5,-64(s0)
	slli	a5,a5,32
	srli	a5,a5,32
	ld	a4,-96(s0)
	add	a4,a4,a5
	.loc 1 1880 84
	ld	a5,-72(s0)
	mv	a2,a5
	li	a5,16777216
	addi	a5,a5,-1
	and	a5,a2,a5
	sext.w	a5,a5
	mv	a2,a5
	.loc 1 1880 92
	lw	a5,-64(s0)
	subw	a5,a2,a5
	sext.w	a5,a5
	.loc 1 1880 3
	slli	a5,a5,32
	srli	a5,a5,32
	mv	a2,a5
	mv	a1,a4
	mv	a0,a3
	call	CopyMem@plt
	.loc 1 1885 12
	li	a4,0
	li	a3,0
	li	a2,0
	li	a5,65536
	addi	a1,a5,-1
	ld	a0,-24(s0)
	call	FindGlyphBlock@plt
	sd	a0,-32(s0)
	.loc 1 1886 34
	ld	a5,-32(s0)
	.loc 1 1886 6
	blt	a5,zero,.L295
	.loc 1 1894 40
	li	a0,48
	call	AllocateZeroPool@plt
	sd	a0,-48(s0)
	.loc 1 1895 6
	ld	a5,-48(s0)
	bne	a5,zero,.L287
	.loc 1 1896 12
	li	a5,-1
	slli	a5,a5,63
	addi	a5,a5,9
	sd	a5,-32(s0)
	.loc 1 1897 5
	j	.L281
.L287:
	.loc 1 1900 25
	ld	a5,-48(s0)
	li	a4,1768316928
	addi	a4,a4,1896
	sd	a4,0(a5)
	.loc 1 1901 27
	ld	a5,-48(s0)
	ld	a4,-24(s0)
	sd	a4,24(a5)
	.loc 1 1902 28
	lwu	a4,-60(s0)
	ld	a5,-48(s0)
	sd	a4,32(a5)
	.loc 1 1903 24
	ld	a5,-48(s0)
	ld	a4,-40(s0)
	sd	a4,40(a5)
	.loc 1 1904 3
	ld	a5,-88(s0)
	addi	a4,a5,376
	ld	a5,-48(s0)
	addi	a5,a5,8
	mv	a1,a5
	mv	a0,a4
	call	InsertTailList@plt
	.loc 1 1909 3
	ld	a5,-112(s0)
	addi	a4,a5,88
	ld	a5,-24(s0)
	addi	a5,a5,32
	mv	a1,a5
	mv	a0,a4
	call	InsertTailList@plt
	.loc 1 1910 12
	ld	a5,-120(s0)
	ld	a4,-24(s0)
	sd	a4,0(a5)
	.loc 1 1912 6
	ld	a4,-104(s0)
	li	a5,8
	bne	a4,a5,.L288
	.loc 1 1913 32
	ld	a5,-112(s0)
	lw	a4,16(a5)
	.loc 1 1913 61
	ld	a5,-24(s0)
	ld	a5,8(a5)
	.loc 1 1913 81
	lbu	a3,0(a5)
	lbu	a2,1(a5)
	slli	a2,a2,8
	or	a3,a2,a3
	lbu	a5,2(a5)
	slli	a5,a5,16
	or	a5,a5,a3
	sext.w	a5,a5
	.loc 1 1913 47
	addw	a5,a4,a5
	sext.w	a4,a5
	ld	a5,-112(s0)
	sw	a4,16(a5)
.L288:
	.loc 1 1916 10
	li	a5,0
	j	.L294
.L295:
	.loc 1 1887 5
	nop
.L281:
	.loc 1 1920 6
	ld	a5,-56(s0)
	beq	a5,zero,.L289
	.loc 1 1921 5
	ld	a0,-56(s0)
	call	FreePool@plt
.L289:
	.loc 1 1924 6
	ld	a5,-40(s0)
	beq	a5,zero,.L290
	.loc 1 1925 5
	ld	a0,-40(s0)
	call	FreePool@plt
.L290:
	.loc 1 1928 6
	ld	a5,-24(s0)
	beq	a5,zero,.L291
	.loc 1 1929 20
	ld	a5,-24(s0)
	ld	a5,24(a5)
	.loc 1 1929 8
	beq	a5,zero,.L292
	.loc 1 1930 28
	ld	a5,-24(s0)
	ld	a5,24(a5)
	.loc 1 1930 7
	mv	a0,a5
	call	FreePool@plt
.L292:
	.loc 1 1933 5
	ld	a0,-24(s0)
	call	FreePool@plt
.L291:
	.loc 1 1936 6
	ld	a5,-48(s0)
	beq	a5,zero,.L293
	.loc 1 1937 5
	ld	a0,-48(s0)
	call	FreePool@plt
.L293:
	.loc 1 1940 10
	ld	a5,-32(s0)
.L294:
	.loc 1 1941 1
	mv	a0,a5
	ld	ra,120(sp)
	.cfi_restore 1
	ld	s0,112(sp)
	.cfi_restore 8
	.cfi_def_cfa 2, 128
	addi	sp,sp,128
	.cfi_def_cfa_offset 0
	jr	ra
	.cfi_endproc
.LFE18:
	.size	InsertFontPackage, .-InsertFontPackage
	.section	.text.ExportFontPackages,"ax",@progbits
	.align	1
	.globl	ExportFontPackages
	.type	ExportFontPackages, @function
ExportFontPackages:
.LFB19:
	.loc 1 1970 1
	.cfi_startproc
	addi	sp,sp,-112
	.cfi_def_cfa_offset 112
	sd	ra,104(sp)
	sd	s0,96(sp)
	.cfi_offset 1, -8
	.cfi_offset 8, -16
	addi	s0,sp,112
	.cfi_def_cfa 8, 0
	sd	a0,-56(s0)
	sd	a1,-64(s0)
	sd	a2,-72(s0)
	sd	a3,-80(s0)
	sd	a4,-88(s0)
	sd	a5,-96(s0)
	sd	a6,-104(s0)
	.loc 1 1976 6
	ld	a5,-56(s0)
	beq	a5,zero,.L297
	.loc 1 1976 33 discriminator 1
	ld	a5,-72(s0)
	beq	a5,zero,.L297
	.loc 1 1976 66 discriminator 2
	ld	a5,-104(s0)
	bne	a5,zero,.L298
.L297:
	.loc 1 1977 12
	li	a5,-1
	slli	a5,a5,63
	addi	a5,a5,2
	j	.L299
.L298:
	.loc 1 1980 6
	ld	a5,-88(s0)
	beq	a5,zero,.L300
	.loc 1 1980 24 discriminator 1
	ld	a5,-96(s0)
	bne	a5,zero,.L300
	.loc 1 1981 12
	li	a5,-1
	slli	a5,a5,63
	addi	a5,a5,2
	j	.L299
.L300:
	.loc 1 1984 17
	sd	zero,-32(s0)
	.loc 1 1985 10
	sd	zero,-48(s0)
	.loc 1 1987 13
	ld	a5,-72(s0)
	ld	a5,88(a5)
	sd	a5,-24(s0)
	.loc 1 1987 3
	j	.L301
.L305:
	.loc 1 1988 17
	ld	a5,-24(s0)
	addi	a5,a5,-32
	.loc 1 1988 144
	ld	a4,0(a5)
	.loc 1 1988 229
	li	a5,1885761536
	addi	a5,a5,-1688
	bne	a4,a5,.L302
	.loc 1 1988 13 discriminator 1
	ld	a5,-24(s0)
	addi	a5,a5,-32
	sd	a5,-40(s0)
	j	.L303
.L302:
	.loc 1 1988 13 is_stmt 0 discriminator 2
	sd	zero,-40(s0)
.L303:
	.loc 1 1989 29 is_stmt 1
	ld	a5,-40(s0)
	ld	a5,8(a5)
	.loc 1 1989 49
	lbu	a4,0(a5)
	lbu	a3,1(a5)
	slli	a3,a3,8
	or	a4,a3,a4
	lbu	a5,2(a5)
	slli	a5,a5,16
	or	a5,a5,a4
	sext.w	a5,a5
	slli	a5,a5,32
	srli	a5,a5,32
	.loc 1 1989 19
	ld	a4,-32(s0)
	add	a5,a4,a5
	sd	a5,-32(s0)
	.loc 1 1990 25
	ld	a5,-104(s0)
	ld	a4,0(a5)
	.loc 1 1990 23
	ld	a5,-32(s0)
	add	a4,a4,a5
	.loc 1 1990 37
	ld	a5,-80(s0)
	add	a5,a4,a5
	.loc 1 1990 8
	ld	a4,-88(s0)
	bltu	a4,a5,.L304
	.loc 1 1994 16
	ld	a4,-64(s0)
	li	a3,5
	ld	a2,-40(s0)
	li	a1,4
	ld	a0,-56(s0)
	call	InvokeRegisteredFunction
	sd	a0,-48(s0)
	.loc 1 2005 31
	ld	a5,-40(s0)
	ld	a1,8(a5)
	.loc 1 2005 52
	ld	a5,-40(s0)
	ld	a5,8(a5)
	.loc 1 2005 64
	lbu	a4,4(a5)
	lbu	a3,5(a5)
	slli	a3,a3,8
	or	a4,a3,a4
	lbu	a3,6(a5)
	slli	a3,a3,16
	or	a4,a3,a4
	lbu	a5,7(a5)
	slli	a5,a5,24
	or	a5,a5,a4
	sext.w	a5,a5
	.loc 1 2005 7
	slli	a5,a5,32
	srli	a5,a5,32
	mv	a2,a5
	ld	a0,-96(s0)
	call	CopyMem@plt
	.loc 1 2006 41
	ld	a5,-40(s0)
	ld	a5,8(a5)
	.loc 1 2006 53
	lbu	a4,4(a5)
	lbu	a3,5(a5)
	slli	a3,a3,8
	or	a4,a3,a4
	lbu	a3,6(a5)
	slli	a3,a3,16
	or	a4,a3,a4
	lbu	a5,7(a5)
	slli	a5,a5,24
	or	a5,a5,a4
	sext.w	a5,a5
	slli	a5,a5,32
	srli	a5,a5,32
	.loc 1 2006 14
	ld	a4,-96(s0)
	add	a5,a4,a5
	sd	a5,-96(s0)
	.loc 1 2013 16
	ld	a5,-40(s0)
	ld	a1,24(a5)
	.loc 1 2014 16
	ld	a5,-40(s0)
	ld	a5,8(a5)
	.loc 1 2014 36
	lbu	a4,0(a5)
	lbu	a3,1(a5)
	slli	a3,a3,8
	or	a4,a3,a4
	lbu	a5,2(a5)
	slli	a5,a5,16
	or	a5,a5,a4
	sext.w	a5,a5
	mv	a2,a5
	.loc 1 2014 53
	ld	a5,-40(s0)
	ld	a5,8(a5)
	.loc 1 2014 65
	lbu	a4,4(a5)
	lbu	a3,5(a5)
	slli	a3,a3,8
	or	a4,a3,a4
	lbu	a3,6(a5)
	slli	a3,a3,16
	or	a4,a3,a4
	lbu	a5,7(a5)
	slli	a5,a5,24
	or	a5,a5,a4
	sext.w	a5,a5
	.loc 1 2014 44
	subw	a5,a2,a5
	sext.w	a5,a5
	.loc 1 2011 7
	slli	a5,a5,32
	srli	a5,a5,32
	mv	a2,a5
	ld	a0,-96(s0)
	call	CopyMem@plt
	.loc 1 2016 41
	ld	a5,-40(s0)
	ld	a5,8(a5)
	.loc 1 2016 61
	lbu	a4,0(a5)
	lbu	a3,1(a5)
	slli	a3,a3,8
	or	a4,a3,a4
	lbu	a5,2(a5)
	slli	a5,a5,16
	or	a5,a5,a4
	sext.w	a5,a5
	slli	a4,a5,32
	srli	a4,a4,32
	.loc 1 2016 78
	ld	a5,-40(s0)
	ld	a5,8(a5)
	.loc 1 2016 90
	lbu	a3,4(a5)
	lbu	a2,5(a5)
	slli	a2,a2,8
	or	a3,a2,a3
	lbu	a2,6(a5)
	slli	a2,a2,16
	or	a3,a2,a3
	lbu	a5,7(a5)
	slli	a5,a5,24
	or	a5,a5,a3
	sext.w	a5,a5
	slli	a5,a5,32
	srli	a5,a5,32
	.loc 1 2016 69
	sub	a5,a4,a5
	.loc 1 2016 14
	ld	a4,-96(s0)
	add	a5,a4,a5
	sd	a5,-96(s0)
.L304:
	.loc 1 1987 91 discriminator 2
	ld	a5,-24(s0)
	ld	a5,0(a5)
	sd	a5,-24(s0)
.L301:
	.loc 1 1987 60 discriminator 1
	ld	a5,-72(s0)
	addi	a5,a5,88
	.loc 1 1987 57 discriminator 1
	ld	a4,-24(s0)
	bne	a4,a5,.L305
	.loc 1 2020 3
	ld	a5,-104(s0)
	ld	a4,0(a5)
	.loc 1 2020 15
	ld	a5,-32(s0)
	add	a4,a4,a5
	ld	a5,-104(s0)
	sd	a4,0(a5)
	.loc 1 2021 10
	li	a5,0
.L299:
	.loc 1 2022 1
	mv	a0,a5
	ld	ra,104(sp)
	.cfi_restore 1
	ld	s0,96(sp)
	.cfi_restore 8
	.cfi_def_cfa 2, 112
	addi	sp,sp,112
	.cfi_def_cfa_offset 0
	jr	ra
	.cfi_endproc
.LFE19:
	.size	ExportFontPackages, .-ExportFontPackages
	.section	.text.RemoveFontPackages,"ax",@progbits
	.align	1
	.globl	RemoveFontPackages
	.type	RemoveFontPackages, @function
RemoveFontPackages:
.LFB20:
	.loc 1 2044 1
	.cfi_startproc
	addi	sp,sp,-96
	.cfi_def_cfa_offset 96
	sd	ra,88(sp)
	sd	s0,80(sp)
	.cfi_offset 1, -8
	.cfi_offset 8, -16
	addi	s0,sp,96
	.cfi_def_cfa 8, 0
	sd	a0,-72(s0)
	sd	a1,-80(s0)
	sd	a2,-88(s0)
	.loc 1 2052 12
	ld	a5,-88(s0)
	addi	a5,a5,88
	sd	a5,-56(s0)
	.loc 1 2054 9
	j	.L307
.L323:
	.loc 1 2055 76
	ld	a5,-56(s0)
	ld	a5,0(a5)
	.loc 1 2055 17
	addi	a5,a5,-32
	.loc 1 2055 161
	ld	a4,0(a5)
	.loc 1 2055 246
	li	a5,1885761536
	addi	a5,a5,-1688
	bne	a4,a5,.L308
	.loc 1 2055 308 discriminator 1
	ld	a5,-56(s0)
	ld	a5,0(a5)
	.loc 1 2055 13 discriminator 1
	addi	a5,a5,-32
	sd	a5,-24(s0)
	j	.L309
.L308:
	.loc 1 2055 13 is_stmt 0 discriminator 2
	sd	zero,-24(s0)
.L309:
	.loc 1 2061 14 is_stmt 1
	ld	a4,-80(s0)
	li	a3,5
	ld	a2,-24(s0)
	li	a1,2
	ld	a0,-72(s0)
	call	InvokeRegisteredFunction
	sd	a0,-64(s0)
	.loc 1 2068 36
	ld	a5,-64(s0)
	.loc 1 2068 8
	bge	a5,zero,.L310
	.loc 1 2069 14
	ld	a5,-64(s0)
	j	.L311
.L310:
	.loc 1 2072 22
	ld	a5,-24(s0)
	addi	a5,a5,32
	.loc 1 2072 5
	mv	a0,a5
	call	RemoveEntryList@plt
	.loc 1 2073 32
	ld	a5,-88(s0)
	lw	a4,16(a5)
	.loc 1 2073 57
	ld	a5,-24(s0)
	ld	a5,8(a5)
	.loc 1 2073 77
	lbu	a3,0(a5)
	lbu	a2,1(a5)
	slli	a2,a2,8
	or	a3,a2,a3
	lbu	a5,2(a5)
	slli	a5,a5,16
	or	a5,a5,a3
	sext.w	a5,a5
	.loc 1 2073 47
	subw	a5,a4,a5
	sext.w	a4,a5
	ld	a5,-88(s0)
	sw	a4,16(a5)
	.loc 1 2075 16
	ld	a5,-24(s0)
	ld	a5,24(a5)
	.loc 1 2075 8
	beq	a5,zero,.L312
	.loc 1 2076 24
	ld	a5,-24(s0)
	ld	a5,24(a5)
	.loc 1 2076 7
	mv	a0,a5
	call	FreePool@plt
.L312:
	.loc 1 2079 22
	ld	a5,-24(s0)
	ld	a5,8(a5)
	.loc 1 2079 5
	mv	a0,a5
	call	FreePool@plt
	.loc 1 2083 11
	j	.L313
.L316:
	.loc 1 2084 83
	ld	a5,-24(s0)
	ld	a5,48(a5)
	.loc 1 2084 21
	addi	a5,a5,-8
	.loc 1 2084 152
	ld	a4,0(a5)
	.loc 1 2084 237
	li	a5,1936285696
	addi	a5,a5,1896
	bne	a4,a5,.L314
	.loc 1 2084 302 discriminator 1
	ld	a5,-24(s0)
	ld	a5,48(a5)
	.loc 1 2084 17 discriminator 1
	addi	a5,a5,-8
	sd	a5,-32(s0)
	j	.L315
.L314:
	.loc 1 2084 17 is_stmt 0 discriminator 2
	sd	zero,-32(s0)
.L315:
	.loc 1 2090 24 is_stmt 1
	ld	a5,-32(s0)
	addi	a5,a5,8
	.loc 1 2090 7
	mv	a0,a5
	call	RemoveEntryList@plt
	.loc 1 2091 7
	ld	a0,-32(s0)
	call	FreePool@plt
.L313:
	.loc 1 2083 26
	ld	a5,-24(s0)
	addi	a5,a5,48
	.loc 1 2083 13
	mv	a0,a5
	call	IsListEmpty@plt
	mv	a5,a0
	.loc 1 2083 12 discriminator 1
	beq	a5,zero,.L316
	.loc 1 2097 15
	ld	a5,-72(s0)
	ld	a5,376(a5)
	sd	a5,-40(s0)
	.loc 1 2097 5
	j	.L317
.L322:
	.loc 1 2098 22
	ld	a5,-40(s0)
	addi	a5,a5,-8
	.loc 1 2098 135
	ld	a4,0(a5)
	.loc 1 2098 220
	li	a5,1768316928
	addi	a5,a5,1896
	bne	a4,a5,.L318
	.loc 1 2098 18 discriminator 1
	ld	a5,-40(s0)
	addi	a5,a5,-8
	sd	a5,-48(s0)
	j	.L319
.L318:
	.loc 1 2098 18 is_stmt 0 discriminator 2
	sd	zero,-48(s0)
.L319:
	.loc 1 2099 21 is_stmt 1
	ld	a5,-48(s0)
	ld	a5,24(a5)
	.loc 1 2099 10
	ld	a4,-24(s0)
	bne	a4,a5,.L320
	.loc 1 2100 26
	ld	a5,-48(s0)
	addi	a5,a5,8
	.loc 1 2100 9
	mv	a0,a5
	call	RemoveEntryList@plt
	.loc 1 2101 29
	ld	a5,-48(s0)
	ld	a5,40(a5)
	.loc 1 2101 9
	mv	a0,a5
	call	FreePool@plt
	.loc 1 2102 9
	ld	a0,-48(s0)
	call	FreePool@plt
	.loc 1 2103 9
	j	.L321
.L320:
	.loc 1 2097 89 discriminator 2
	ld	a5,-40(s0)
	ld	a5,0(a5)
	sd	a5,-40(s0)
.L317:
	.loc 1 2097 60 discriminator 1
	ld	a5,-72(s0)
	addi	a5,a5,376
	.loc 1 2097 57 discriminator 1
	ld	a4,-40(s0)
	bne	a4,a5,.L322
.L321:
	.loc 1 2107 5
	ld	a0,-24(s0)
	call	FreePool@plt
.L307:
	.loc 1 2054 11
	ld	a0,-56(s0)
	call	IsListEmpty@plt
	mv	a5,a0
	.loc 1 2054 10 discriminator 1
	beq	a5,zero,.L323
	.loc 1 2110 10
	li	a5,0
.L311:
	.loc 1 2111 1
	mv	a0,a5
	ld	ra,88(sp)
	.cfi_restore 1
	ld	s0,80(sp)
	.cfi_restore 8
	.cfi_def_cfa 2, 96
	addi	sp,sp,96
	.cfi_def_cfa_offset 0
	jr	ra
	.cfi_endproc
.LFE20:
	.size	RemoveFontPackages, .-RemoveFontPackages
	.section	.text.InsertImagePackage,"ax",@progbits
	.align	1
	.globl	InsertImagePackage
	.type	InsertImagePackage, @function
InsertImagePackage:
.LFB21:
	.loc 1 2137 1
	.cfi_startproc
	addi	sp,sp,-112
	.cfi_def_cfa_offset 112
	sd	ra,104(sp)
	sd	s0,96(sp)
	.cfi_offset 1, -8
	.cfi_offset 8, -16
	addi	s0,sp,112
	.cfi_def_cfa 8, 0
	sd	a0,-88(s0)
	sd	a1,-96(s0)
	sd	a2,-104(s0)
	sd	a3,-112(s0)
	.loc 1 2148 6
	ld	a5,-88(s0)
	beq	a5,zero,.L325
	.loc 1 2148 36 discriminator 1
	ld	a5,-104(s0)
	bne	a5,zero,.L326
.L325:
	.loc 1 2149 12
	li	a5,-1
	slli	a5,a5,63
	addi	a5,a5,2
	j	.L337
.L326:
	.loc 1 2155 18
	ld	a5,-104(s0)
	ld	a5,104(a5)
	.loc 1 2155 6
	beq	a5,zero,.L328
	.loc 1 2156 12
	li	a5,-1
	slli	a5,a5,63
	addi	a5,a5,2
	j	.L337
.L328:
	.loc 1 2162 48
	li	a0,40
	call	AllocateZeroPool@plt
	sd	a0,-48(s0)
	.loc 1 2163 6
	ld	a5,-48(s0)
	bne	a5,zero,.L329
	.loc 1 2164 12
	li	a5,-1
	slli	a5,a5,63
	addi	a5,a5,9
	j	.L337
.L329:
	.loc 1 2170 12
	ld	a5,-48(s0)
	.loc 1 2170 3
	li	a2,12
	ld	a1,-88(s0)
	mv	a0,a5
	call	CopyMem@plt
	.loc 1 2172 21
	ld	a5,-48(s0)
	lw	a5,8(a5)
	sw	a5,-52(s0)
	.loc 1 2173 19
	ld	a5,-48(s0)
	lw	a5,4(a5)
	sw	a5,-56(s0)
	.loc 1 2178 15
	sw	zero,-20(s0)
	.loc 1 2179 30
	ld	a5,-48(s0)
	sd	zero,32(a5)
	.loc 1 2180 6
	lw	a5,-52(s0)
	sext.w	a5,a5
	beq	a5,zero,.L330
	.loc 1 2181 18
	lwu	a5,-52(s0)
	.loc 1 2181 16
	ld	a4,-88(s0)
	add	a5,a4,a5
	sd	a5,-64(s0)
	.loc 1 2182 17
	li	a5,2
	sw	a5,-20(s0)
	.loc 1 2183 19
	lwu	a5,-20(s0)
	.loc 1 2183 17
	ld	a4,-64(s0)
	add	a5,a4,a5
	sd	a5,-40(s0)
	.loc 1 2185 16
	sh	zero,-26(s0)
	.loc 1 2185 5
	j	.L331
.L332:
	.loc 1 2186 7
	addi	a5,s0,-66
	li	a2,2
	ld	a1,-40(s0)
	mv	a0,a5
	call	CopyMem@plt
	.loc 1 2187 19
	lhu	a5,-66(s0)
	addiw	a5,a5,2
	slli	a5,a5,48
	srli	a5,a5,48
	sh	a5,-66(s0)
	.loc 1 2188 22
	lhu	a5,-66(s0)
	sext.w	a5,a5
	.loc 1 2188 19
	lw	a4,-20(s0)
	addw	a5,a4,a5
	sw	a5,-20(s0)
	.loc 1 2189 21
	lhu	a5,-66(s0)
	mv	a4,a5
	.loc 1 2189 19
	ld	a5,-40(s0)
	add	a5,a5,a4
	sd	a5,-40(s0)
	.loc 1 2185 60 discriminator 3
	lhu	a5,-26(s0)
	addiw	a5,a5,1
	sh	a5,-26(s0)
.L331:
	.loc 1 2185 39 discriminator 1
	ld	a5,-64(s0)
	lbu	a4,0(a5)
	lbu	a5,1(a5)
	slli	a5,a5,8
	or	a5,a5,a4
	slli	a5,a5,48
	srli	a5,a5,48
	.loc 1 2185 27 discriminator 1
	lhu	a4,-26(s0)
	sext.w	a4,a4
	sext.w	a5,a5
	bltu	a4,a5,.L332
	.loc 1 2192 43
	lwu	a5,-20(s0)
	mv	a0,a5
	call	AllocateZeroPool@plt
	mv	a4,a0
	.loc 1 2192 32 discriminator 1
	ld	a5,-48(s0)
	sd	a4,32(a5)
	.loc 1 2193 21
	ld	a5,-48(s0)
	ld	a5,32(a5)
	.loc 1 2193 8
	bne	a5,zero,.L333
	.loc 1 2194 7
	ld	a0,-48(s0)
	call	FreePool@plt
	.loc 1 2195 14
	li	a5,-1
	slli	a5,a5,63
	addi	a5,a5,9
	j	.L337
.L333:
	.loc 1 2199 19
	ld	a5,-48(s0)
	ld	a3,32(a5)
	.loc 1 2198 5
	lwu	a5,-52(s0)
	ld	a4,-88(s0)
	add	a5,a4,a5
	lwu	a4,-20(s0)
	mv	a2,a4
	mv	a1,a5
	mv	a0,a3
	call	CopyMem@plt
.L330:
	.loc 1 2208 13
	sw	zero,-24(s0)
	.loc 1 2209 28
	ld	a5,-48(s0)
	sd	zero,24(a5)
	.loc 1 2210 6
	lw	a5,-56(s0)
	sext.w	a5,a5
	beq	a5,zero,.L334
	.loc 1 2211 49
	ld	a5,-48(s0)
	ld	a5,0(a5)
	mv	a4,a5
	li	a5,16777216
	addi	a5,a5,-1
	and	a5,a4,a5
	sext.w	a5,a5
	mv	a4,a5
	.loc 1 2212 52
	lw	a5,-20(s0)
	subw	a5,a4,a5
	sext.w	a5,a5
	.loc 1 2211 15
	addiw	a5,a5,-12
	sw	a5,-24(s0)
	.loc 1 2213 32
	lwu	a5,-24(s0)
	mv	a0,a5
	call	AllocateZeroPool@plt
	mv	a4,a0
	.loc 1 2213 30 discriminator 1
	ld	a5,-48(s0)
	sd	a4,24(a5)
	.loc 1 2214 21
	ld	a5,-48(s0)
	ld	a5,24(a5)
	.loc 1 2214 8
	bne	a5,zero,.L335
	.loc 1 2215 29
	ld	a5,-48(s0)
	ld	a5,32(a5)
	.loc 1 2215 7
	mv	a0,a5
	call	FreePool@plt
	.loc 1 2216 7
	ld	a0,-48(s0)
	call	FreePool@plt
	.loc 1 2217 14
	li	a5,-1
	slli	a5,a5,63
	addi	a5,a5,9
	j	.L337
.L335:
	.loc 1 2221 19
	ld	a5,-48(s0)
	ld	a3,24(a5)
	.loc 1 2220 5
	lwu	a5,-56(s0)
	ld	a4,-88(s0)
	add	a5,a4,a5
	lwu	a4,-24(s0)
	mv	a2,a4
	mv	a1,a5
	mv	a0,a3
	call	CopyMem@plt
.L334:
	.loc 1 2227 32
	ld	a5,-48(s0)
	lw	a4,-24(s0)
	sw	a4,12(a5)
	.loc 1 2228 33
	ld	a5,-48(s0)
	lw	a4,-20(s0)
	sw	a4,16(a5)
	.loc 1 2229 25
	ld	a5,-104(s0)
	ld	a4,-48(s0)
	sd	a4,104(a5)
	.loc 1 2230 12
	ld	a5,-112(s0)
	ld	a4,-48(s0)
	sd	a4,0(a5)
	.loc 1 2232 6
	ld	a4,-96(s0)
	li	a5,8
	bne	a4,a5,.L336
	.loc 1 2233 32
	ld	a5,-104(s0)
	lw	a5,16(a5)
	.loc 1 2233 82
	ld	a4,-48(s0)
	ld	a4,0(a4)
	mv	a3,a4
	li	a4,16777216
	addi	a4,a4,-1
	and	a4,a3,a4
	sext.w	a4,a4
	.loc 1 2233 47
	addw	a5,a5,a4
	sext.w	a4,a5
	ld	a5,-104(s0)
	sw	a4,16(a5)
.L336:
	.loc 1 2236 10
	li	a5,0
.L337:
	.loc 1 2237 1
	mv	a0,a5
	ld	ra,104(sp)
	.cfi_restore 1
	ld	s0,96(sp)
	.cfi_restore 8
	.cfi_def_cfa 2, 112
	addi	sp,sp,112
	.cfi_def_cfa_offset 0
	jr	ra
	.cfi_endproc
.LFE21:
	.size	InsertImagePackage, .-InsertImagePackage
	.section	.text.ExportImagePackages,"ax",@progbits
	.align	1
	.globl	ExportImagePackages
	.type	ExportImagePackages, @function
ExportImagePackages:
.LFB22:
	.loc 1 2266 1
	.cfi_startproc
	addi	sp,sp,-112
	.cfi_def_cfa_offset 112
	sd	ra,104(sp)
	sd	s0,96(sp)
	.cfi_offset 1, -8
	.cfi_offset 8, -16
	addi	s0,sp,112
	.cfi_def_cfa 8, 0
	sd	a0,-56(s0)
	sd	a1,-64(s0)
	sd	a2,-72(s0)
	sd	a3,-80(s0)
	sd	a4,-88(s0)
	sd	a5,-96(s0)
	sd	a6,-104(s0)
	.loc 1 2271 6
	ld	a5,-56(s0)
	beq	a5,zero,.L339
	.loc 1 2271 33 discriminator 1
	ld	a5,-72(s0)
	beq	a5,zero,.L339
	.loc 1 2271 66 discriminator 2
	ld	a5,-104(s0)
	bne	a5,zero,.L340
.L339:
	.loc 1 2272 12
	li	a5,-1
	slli	a5,a5,63
	addi	a5,a5,2
	j	.L341
.L340:
	.loc 1 2275 6
	ld	a5,-88(s0)
	beq	a5,zero,.L342
	.loc 1 2275 24 discriminator 1
	ld	a5,-96(s0)
	bne	a5,zero,.L342
	.loc 1 2276 12
	li	a5,-1
	slli	a5,a5,63
	addi	a5,a5,2
	j	.L341
.L342:
	.loc 1 2279 11
	ld	a5,-72(s0)
	ld	a5,104(a5)
	sd	a5,-24(s0)
	.loc 1 2281 6
	ld	a5,-24(s0)
	bne	a5,zero,.L343
	.loc 1 2282 12
	li	a5,0
	j	.L341
.L343:
	.loc 1 2285 46
	ld	a5,-24(s0)
	ld	a5,0(a5)
	mv	a4,a5
	li	a5,16777216
	addi	a5,a5,-1
	and	a5,a4,a5
	sext.w	a5,a5
	.loc 1 2285 17
	slli	a5,a5,32
	srli	a5,a5,32
	sd	a5,-32(s0)
	.loc 1 2287 23
	ld	a5,-104(s0)
	ld	a4,0(a5)
	.loc 1 2287 21
	ld	a5,-32(s0)
	add	a4,a4,a5
	.loc 1 2287 35
	ld	a5,-80(s0)
	add	a5,a4,a5
	.loc 1 2287 6
	ld	a4,-88(s0)
	bltu	a4,a5,.L344
	.loc 1 2291 14
	ld	a4,-64(s0)
	li	a3,6
	ld	a2,-24(s0)
	li	a1,4
	ld	a0,-56(s0)
	call	InvokeRegisteredFunction
	sd	a0,-40(s0)
	.loc 1 2307 22
	ld	a5,-24(s0)
	.loc 1 2307 5
	li	a2,12
	mv	a1,a5
	ld	a0,-96(s0)
	call	CopyMem@plt
	.loc 1 2308 12
	ld	a5,-96(s0)
	addi	a5,a5,12
	sd	a5,-96(s0)
	.loc 1 2313 16
	ld	a5,-24(s0)
	lw	a5,12(a5)
	.loc 1 2313 8
	beq	a5,zero,.L345
	.loc 1 2314 31
	ld	a5,-24(s0)
	ld	a4,24(a5)
	.loc 1 2314 52
	ld	a5,-24(s0)
	lw	a5,12(a5)
	.loc 1 2314 7
	slli	a5,a5,32
	srli	a5,a5,32
	mv	a2,a5
	mv	a1,a4
	ld	a0,-96(s0)
	call	CopyMem@plt
	.loc 1 2315 41
	ld	a5,-24(s0)
	lw	a5,12(a5)
	slli	a5,a5,32
	srli	a5,a5,32
	.loc 1 2315 14
	ld	a4,-96(s0)
	add	a5,a4,a5
	sd	a5,-96(s0)
.L345:
	.loc 1 2321 16
	ld	a5,-24(s0)
	lw	a5,16(a5)
	.loc 1 2321 8
	beq	a5,zero,.L344
	.loc 1 2322 31
	ld	a5,-24(s0)
	ld	a4,32(a5)
	.loc 1 2322 54
	ld	a5,-24(s0)
	lw	a5,16(a5)
	.loc 1 2322 7
	slli	a5,a5,32
	srli	a5,a5,32
	mv	a2,a5
	mv	a1,a4
	ld	a0,-96(s0)
	call	CopyMem@plt
	.loc 1 2323 41
	ld	a5,-24(s0)
	lw	a5,16(a5)
	slli	a5,a5,32
	srli	a5,a5,32
	.loc 1 2323 14
	ld	a4,-96(s0)
	add	a5,a4,a5
	sd	a5,-96(s0)
.L344:
	.loc 1 2327 3
	ld	a5,-104(s0)
	ld	a4,0(a5)
	.loc 1 2327 15
	ld	a5,-32(s0)
	add	a4,a4,a5
	ld	a5,-104(s0)
	sd	a4,0(a5)
	.loc 1 2328 10
	li	a5,0
.L341:
	.loc 1 2329 1
	mv	a0,a5
	ld	ra,104(sp)
	.cfi_restore 1
	ld	s0,96(sp)
	.cfi_restore 8
	.cfi_def_cfa 2, 112
	addi	sp,sp,112
	.cfi_def_cfa_offset 0
	jr	ra
	.cfi_endproc
.LFE22:
	.size	ExportImagePackages, .-ExportImagePackages
	.section	.text.RemoveImagePackages,"ax",@progbits
	.align	1
	.globl	RemoveImagePackages
	.type	RemoveImagePackages, @function
RemoveImagePackages:
.LFB23:
	.loc 1 2351 1
	.cfi_startproc
	addi	sp,sp,-64
	.cfi_def_cfa_offset 64
	sd	ra,56(sp)
	sd	s0,48(sp)
	.cfi_offset 1, -8
	.cfi_offset 8, -16
	addi	s0,sp,64
	.cfi_def_cfa 8, 0
	sd	a0,-40(s0)
	sd	a1,-48(s0)
	sd	a2,-56(s0)
	.loc 1 2355 11
	ld	a5,-56(s0)
	ld	a5,104(a5)
	sd	a5,-24(s0)
	.loc 1 2360 6
	ld	a5,-24(s0)
	bne	a5,zero,.L347
	.loc 1 2361 12
	li	a5,0
	j	.L348
.L347:
	.loc 1 2364 12
	ld	a4,-48(s0)
	li	a3,6
	ld	a2,-24(s0)
	li	a1,2
	ld	a0,-40(s0)
	call	InvokeRegisteredFunction
	sd	a0,-32(s0)
	.loc 1 2371 34
	ld	a5,-32(s0)
	.loc 1 2371 6
	bge	a5,zero,.L349
	.loc 1 2372 12
	ld	a5,-32(s0)
	j	.L348
.L349:
	.loc 1 2375 30
	ld	a5,-56(s0)
	lw	a5,16(a5)
	.loc 1 2375 75
	ld	a4,-24(s0)
	ld	a4,0(a4)
	mv	a3,a4
	li	a4,16777216
	addi	a4,a4,-1
	and	a4,a3,a4
	sext.w	a4,a4
	.loc 1 2375 45
	subw	a5,a5,a4
	sext.w	a4,a5
	ld	a5,-56(s0)
	sw	a4,16(a5)
	.loc 1 2377 20
	ld	a5,-24(s0)
	ld	a5,24(a5)
	.loc 1 2377 3
	mv	a0,a5
	call	FreePool@plt
	.loc 1 2378 14
	ld	a5,-24(s0)
	ld	a5,32(a5)
	.loc 1 2378 6
	beq	a5,zero,.L350
	.loc 1 2379 22
	ld	a5,-24(s0)
	ld	a5,32(a5)
	.loc 1 2379 5
	mv	a0,a5
	call	FreePool@plt
.L350:
	.loc 1 2382 3
	ld	a0,-24(s0)
	call	FreePool@plt
	.loc 1 2384 25
	ld	a5,-56(s0)
	sd	zero,104(a5)
	.loc 1 2386 10
	li	a5,0
.L348:
	.loc 1 2387 1
	mv	a0,a5
	ld	ra,56(sp)
	.cfi_restore 1
	ld	s0,48(sp)
	.cfi_restore 8
	.cfi_def_cfa 2, 64
	addi	sp,sp,64
	.cfi_def_cfa_offset 0
	jr	ra
	.cfi_endproc
.LFE23:
	.size	RemoveImagePackages, .-RemoveImagePackages
	.section	.text.InsertSimpleFontPackage,"ax",@progbits
	.align	1
	.globl	InsertSimpleFontPackage
	.type	InsertSimpleFontPackage, @function
InsertSimpleFontPackage:
.LFB24:
	.loc 1 2413 1
	.cfi_startproc
	addi	sp,sp,-80
	.cfi_def_cfa_offset 80
	sd	ra,72(sp)
	sd	s0,64(sp)
	.cfi_offset 1, -8
	.cfi_offset 8, -16
	addi	s0,sp,80
	.cfi_def_cfa 8, 0
	sd	a0,-56(s0)
	sd	a1,-64(s0)
	sd	a2,-72(s0)
	sd	a3,-80(s0)
	.loc 1 2418 6
	ld	a5,-56(s0)
	beq	a5,zero,.L352
	.loc 1 2418 36 discriminator 1
	ld	a5,-72(s0)
	bne	a5,zero,.L353
.L352:
	.loc 1 2419 12
	li	a5,-1
	slli	a5,a5,63
	addi	a5,a5,2
	j	.L361
.L353:
	.loc 1 2425 23
	li	a0,32
	call	AllocateZeroPool@plt
	sd	a0,-32(s0)
	.loc 1 2426 6
	ld	a5,-32(s0)
	bne	a5,zero,.L355
	.loc 1 2427 12
	li	a5,-1
	slli	a5,a5,63
	addi	a5,a5,9
	sd	a5,-24(s0)
	.loc 1 2428 5
	j	.L356
.L355:
	.loc 1 2431 32
	ld	a5,-32(s0)
	li	a4,1885761536
	addi	a4,a4,872
	sd	a4,0(a5)
	.loc 1 2436 3
	addi	a5,s0,-40
	li	a2,4
	ld	a1,-56(s0)
	mv	a0,a5
	call	CopyMem@plt
	.loc 1 2438 65
	ld	a5,-40(s0)
	mv	a4,a5
	li	a5,16777216
	addi	a5,a5,-1
	and	a5,a4,a5
	sext.w	a5,a5
	.loc 1 2438 41
	slli	a5,a5,32
	srli	a5,a5,32
	mv	a0,a5
	call	AllocateZeroPool@plt
	mv	a4,a0
	.loc 1 2438 39 discriminator 1
	ld	a5,-32(s0)
	sd	a4,8(a5)
	.loc 1 2439 24
	ld	a5,-32(s0)
	ld	a5,8(a5)
	.loc 1 2439 6
	bne	a5,zero,.L357
	.loc 1 2440 12
	li	a5,-1
	slli	a5,a5,63
	addi	a5,a5,9
	sd	a5,-24(s0)
	.loc 1 2441 5
	j	.L356
.L357:
	.loc 1 2444 29
	ld	a5,-32(s0)
	ld	a4,8(a5)
	.loc 1 2444 67
	ld	a5,-40(s0)
	mv	a3,a5
	li	a5,16777216
	addi	a5,a5,-1
	and	a5,a3,a5
	sext.w	a5,a5
	.loc 1 2444 3
	slli	a5,a5,32
	srli	a5,a5,32
	mv	a2,a5
	ld	a1,-56(s0)
	mv	a0,a4
	call	CopyMem@plt
	.loc 1 2449 3
	ld	a5,-72(s0)
	addi	a4,a5,112
	ld	a5,-32(s0)
	addi	a5,a5,16
	mv	a1,a5
	mv	a0,a4
	call	InsertTailList@plt
	.loc 1 2450 12
	ld	a5,-80(s0)
	ld	a4,-32(s0)
	sd	a4,0(a5)
	.loc 1 2452 6
	ld	a4,-64(s0)
	li	a5,8
	bne	a4,a5,.L358
	.loc 1 2453 32
	ld	a5,-72(s0)
	lw	a5,16(a5)
	.loc 1 2453 56
	ld	a4,-40(s0)
	mv	a3,a4
	li	a4,16777216
	addi	a4,a4,-1
	and	a4,a3,a4
	sext.w	a4,a4
	.loc 1 2453 47
	addw	a5,a5,a4
	sext.w	a4,a5
	ld	a5,-72(s0)
	sw	a4,16(a5)
.L358:
	.loc 1 2456 10
	li	a5,0
	j	.L361
.L356:
	.loc 1 2460 6
	ld	a5,-32(s0)
	beq	a5,zero,.L359
	.loc 1 2461 26
	ld	a5,-32(s0)
	ld	a5,8(a5)
	.loc 1 2461 8
	beq	a5,zero,.L360
	.loc 1 2462 34
	ld	a5,-32(s0)
	ld	a5,8(a5)
	.loc 1 2462 7
	mv	a0,a5
	call	FreePool@plt
.L360:
	.loc 1 2465 5
	ld	a0,-32(s0)
	call	FreePool@plt
.L359:
	.loc 1 2468 10
	ld	a5,-24(s0)
.L361:
	.loc 1 2469 1
	mv	a0,a5
	ld	ra,72(sp)
	.cfi_restore 1
	ld	s0,64(sp)
	.cfi_restore 8
	.cfi_def_cfa 2, 80
	addi	sp,sp,80
	.cfi_def_cfa_offset 0
	jr	ra
	.cfi_endproc
.LFE24:
	.size	InsertSimpleFontPackage, .-InsertSimpleFontPackage
	.section	.text.ExportSimpleFontPackages,"ax",@progbits
	.align	1
	.globl	ExportSimpleFontPackages
	.type	ExportSimpleFontPackages, @function
ExportSimpleFontPackages:
.LFB25:
	.loc 1 2498 1
	.cfi_startproc
	addi	sp,sp,-112
	.cfi_def_cfa_offset 112
	sd	ra,104(sp)
	sd	s0,96(sp)
	.cfi_offset 1, -8
	.cfi_offset 8, -16
	addi	s0,sp,112
	.cfi_def_cfa 8, 0
	sd	a0,-56(s0)
	sd	a1,-64(s0)
	sd	a2,-72(s0)
	sd	a3,-80(s0)
	sd	a4,-88(s0)
	sd	a5,-96(s0)
	sd	a6,-104(s0)
	.loc 1 2504 6
	ld	a5,-56(s0)
	beq	a5,zero,.L363
	.loc 1 2504 33 discriminator 1
	ld	a5,-72(s0)
	beq	a5,zero,.L363
	.loc 1 2504 66 discriminator 2
	ld	a5,-104(s0)
	bne	a5,zero,.L364
.L363:
	.loc 1 2505 12
	li	a5,-1
	slli	a5,a5,63
	addi	a5,a5,2
	j	.L365
.L364:
	.loc 1 2508 6
	ld	a5,-88(s0)
	beq	a5,zero,.L366
	.loc 1 2508 24 discriminator 1
	ld	a5,-96(s0)
	bne	a5,zero,.L366
	.loc 1 2509 12
	li	a5,-1
	slli	a5,a5,63
	addi	a5,a5,2
	j	.L365
.L366:
	.loc 1 2512 17
	sd	zero,-32(s0)
	.loc 1 2513 10
	sd	zero,-48(s0)
	.loc 1 2515 13
	ld	a5,-72(s0)
	ld	a5,112(a5)
	sd	a5,-24(s0)
	.loc 1 2515 3
	j	.L367
.L371:
	.loc 1 2516 17
	ld	a5,-24(s0)
	addi	a5,a5,-16
	.loc 1 2516 164
	ld	a4,0(a5)
	.loc 1 2516 249
	li	a5,1885761536
	addi	a5,a5,872
	bne	a4,a5,.L368
	.loc 1 2516 13 discriminator 1
	ld	a5,-24(s0)
	addi	a5,a5,-16
	sd	a5,-40(s0)
	j	.L369
.L368:
	.loc 1 2516 13 is_stmt 0 discriminator 2
	sd	zero,-40(s0)
.L369:
	.loc 1 2517 29 is_stmt 1
	ld	a5,-40(s0)
	ld	a5,8(a5)
	.loc 1 2517 55
	lbu	a4,0(a5)
	lbu	a3,1(a5)
	slli	a3,a3,8
	or	a4,a3,a4
	lbu	a5,2(a5)
	slli	a5,a5,16
	or	a5,a5,a4
	sext.w	a5,a5
	slli	a5,a5,32
	srli	a5,a5,32
	.loc 1 2517 19
	ld	a4,-32(s0)
	add	a5,a4,a5
	sd	a5,-32(s0)
	.loc 1 2518 25
	ld	a5,-104(s0)
	ld	a4,0(a5)
	.loc 1 2518 23
	ld	a5,-32(s0)
	add	a4,a4,a5
	.loc 1 2518 37
	ld	a5,-80(s0)
	add	a5,a4,a5
	.loc 1 2518 8
	ld	a4,-88(s0)
	bltu	a4,a5,.L370
	.loc 1 2522 16
	ld	a4,-64(s0)
	li	a3,7
	ld	a2,-40(s0)
	li	a1,4
	ld	a0,-56(s0)
	call	InvokeRegisteredFunction
	sd	a0,-48(s0)
	.loc 1 2534 31
	ld	a5,-40(s0)
	ld	a1,8(a5)
	.loc 1 2534 58
	ld	a5,-40(s0)
	ld	a5,8(a5)
	.loc 1 2534 84
	lbu	a4,0(a5)
	lbu	a3,1(a5)
	slli	a3,a3,8
	or	a4,a3,a4
	lbu	a5,2(a5)
	slli	a5,a5,16
	or	a5,a5,a4
	sext.w	a5,a5
	.loc 1 2534 7
	slli	a5,a5,32
	srli	a5,a5,32
	mv	a2,a5
	ld	a0,-96(s0)
	call	CopyMem@plt
	.loc 1 2535 41
	ld	a5,-40(s0)
	ld	a5,8(a5)
	.loc 1 2535 67
	lbu	a4,0(a5)
	lbu	a3,1(a5)
	slli	a3,a3,8
	or	a4,a3,a4
	lbu	a5,2(a5)
	slli	a5,a5,16
	or	a5,a5,a4
	sext.w	a5,a5
	slli	a5,a5,32
	srli	a5,a5,32
	.loc 1 2535 14
	ld	a4,-96(s0)
	add	a5,a4,a5
	sd	a5,-96(s0)
.L370:
	.loc 1 2515 103 discriminator 2
	ld	a5,-24(s0)
	ld	a5,0(a5)
	sd	a5,-24(s0)
.L367:
	.loc 1 2515 66 discriminator 1
	ld	a5,-72(s0)
	addi	a5,a5,112
	.loc 1 2515 63 discriminator 1
	ld	a4,-24(s0)
	bne	a4,a5,.L371
	.loc 1 2539 3
	ld	a5,-104(s0)
	ld	a4,0(a5)
	.loc 1 2539 15
	ld	a5,-32(s0)
	add	a4,a4,a5
	ld	a5,-104(s0)
	sd	a4,0(a5)
	.loc 1 2540 10
	li	a5,0
.L365:
	.loc 1 2541 1
	mv	a0,a5
	ld	ra,104(sp)
	.cfi_restore 1
	ld	s0,96(sp)
	.cfi_restore 8
	.cfi_def_cfa 2, 112
	addi	sp,sp,112
	.cfi_def_cfa_offset 0
	jr	ra
	.cfi_endproc
.LFE25:
	.size	ExportSimpleFontPackages, .-ExportSimpleFontPackages
	.section	.text.RemoveSimpleFontPackages,"ax",@progbits
	.align	1
	.globl	RemoveSimpleFontPackages
	.type	RemoveSimpleFontPackages, @function
RemoveSimpleFontPackages:
.LFB26:
	.loc 1 2563 1
	.cfi_startproc
	addi	sp,sp,-80
	.cfi_def_cfa_offset 80
	sd	ra,72(sp)
	sd	s0,64(sp)
	.cfi_offset 1, -8
	.cfi_offset 8, -16
	addi	s0,sp,80
	.cfi_def_cfa 8, 0
	sd	a0,-56(s0)
	sd	a1,-64(s0)
	sd	a2,-72(s0)
	.loc 1 2568 12
	ld	a5,-72(s0)
	addi	a5,a5,112
	sd	a5,-32(s0)
	.loc 1 2570 9
	j	.L373
.L378:
	.loc 1 2571 83
	ld	a5,-32(s0)
	ld	a5,0(a5)
	.loc 1 2571 17
	addi	a5,a5,-16
	.loc 1 2571 181
	ld	a4,0(a5)
	.loc 1 2571 266
	li	a5,1885761536
	addi	a5,a5,872
	bne	a4,a5,.L374
	.loc 1 2571 335 discriminator 1
	ld	a5,-32(s0)
	ld	a5,0(a5)
	.loc 1 2571 13 discriminator 1
	addi	a5,a5,-16
	sd	a5,-24(s0)
	j	.L375
.L374:
	.loc 1 2571 13 is_stmt 0 discriminator 2
	sd	zero,-24(s0)
.L375:
	.loc 1 2577 14 is_stmt 1
	ld	a4,-64(s0)
	li	a3,7
	ld	a2,-24(s0)
	li	a1,2
	ld	a0,-56(s0)
	call	InvokeRegisteredFunction
	sd	a0,-40(s0)
	.loc 1 2584 36
	ld	a5,-40(s0)
	.loc 1 2584 8
	bge	a5,zero,.L376
	.loc 1 2585 14
	ld	a5,-40(s0)
	j	.L377
.L376:
	.loc 1 2588 22
	ld	a5,-24(s0)
	addi	a5,a5,16
	.loc 1 2588 5
	mv	a0,a5
	call	RemoveEntryList@plt
	.loc 1 2589 32
	ld	a5,-72(s0)
	lw	a4,16(a5)
	.loc 1 2589 57
	ld	a5,-24(s0)
	ld	a5,8(a5)
	.loc 1 2589 83
	lbu	a3,0(a5)
	lbu	a2,1(a5)
	slli	a2,a2,8
	or	a3,a2,a3
	lbu	a5,2(a5)
	slli	a5,a5,16
	or	a5,a5,a3
	sext.w	a5,a5
	.loc 1 2589 47
	subw	a5,a4,a5
	sext.w	a4,a5
	ld	a5,-72(s0)
	sw	a4,16(a5)
	.loc 1 2590 22
	ld	a5,-24(s0)
	ld	a5,8(a5)
	.loc 1 2590 5
	mv	a0,a5
	call	FreePool@plt
	.loc 1 2591 5
	ld	a0,-24(s0)
	call	FreePool@plt
.L373:
	.loc 1 2570 11
	ld	a0,-32(s0)
	call	IsListEmpty@plt
	mv	a5,a0
	.loc 1 2570 10 discriminator 1
	beq	a5,zero,.L378
	.loc 1 2594 10
	li	a5,0
.L377:
	.loc 1 2595 1
	mv	a0,a5
	ld	ra,72(sp)
	.cfi_restore 1
	ld	s0,64(sp)
	.cfi_restore 8
	.cfi_def_cfa 2, 80
	addi	sp,sp,80
	.cfi_def_cfa_offset 0
	jr	ra
	.cfi_endproc
.LFE26:
	.size	RemoveSimpleFontPackages, .-RemoveSimpleFontPackages
	.section	.text.InsertDevicePathPackage,"ax",@progbits
	.align	1
	.globl	InsertDevicePathPackage
	.type	InsertDevicePathPackage, @function
InsertDevicePathPackage:
.LFB27:
	.loc 1 2619 1
	.cfi_startproc
	addi	sp,sp,-64
	.cfi_def_cfa_offset 64
	sd	ra,56(sp)
	sd	s0,48(sp)
	.cfi_offset 1, -8
	.cfi_offset 8, -16
	addi	s0,sp,64
	.cfi_def_cfa 8, 0
	sd	a0,-40(s0)
	sd	a1,-48(s0)
	sd	a2,-56(s0)
	.loc 1 2623 6
	ld	a5,-40(s0)
	beq	a5,zero,.L380
	.loc 1 2623 36 discriminator 1
	ld	a5,-56(s0)
	bne	a5,zero,.L381
.L380:
	.loc 1 2624 12
	li	a5,-1
	slli	a5,a5,63
	addi	a5,a5,2
	j	.L385
.L381:
	.loc 1 2630 18
	ld	a5,-56(s0)
	ld	a5,128(a5)
	.loc 1 2630 6
	beq	a5,zero,.L383
	.loc 1 2631 12
	li	a5,-1
	slli	a5,a5,63
	addi	a5,a5,2
	j	.L385
.L383:
	.loc 1 2634 27
	ld	a0,-40(s0)
	call	GetDevicePathSize@plt
	mv	a5,a0
	.loc 1 2634 19 discriminator 1
	sext.w	a5,a5
	.loc 1 2634 17 discriminator 1
	addiw	a5,a5,4
	sw	a5,-20(s0)
	.loc 1 2635 41
	lwu	a5,-20(s0)
	mv	a0,a5
	call	AllocateZeroPool@plt
	mv	a4,a0
	.loc 1 2635 30 discriminator 1
	ld	a5,-56(s0)
	sd	a4,128(a5)
	.loc 1 2636 18
	ld	a5,-56(s0)
	ld	a5,128(a5)
	.loc 1 2636 6
	bne	a5,zero,.L384
	.loc 1 2637 12
	li	a5,-1
	slli	a5,a5,63
	addi	a5,a5,9
	j	.L385
.L384:
	.loc 1 2640 17
	lw	a5,-20(s0)
	mv	a4,a5
	li	a5,16777216
	addi	a5,a5,-1
	and	a5,a4,a5
	sext.w	a5,a5
	mv	a4,a5
	li	a5,16777216
	addi	a5,a5,-1
	and	a3,a4,a5
	lw	a5,-24(s0)
	mv	a4,a5
	li	a5,-16777216
	and	a5,a4,a5
	mv	a4,a5
	mv	a5,a3
	or	a5,a4,a5
	sw	a5,-24(s0)
	.loc 1 2641 15
	li	a5,8
	sb	a5,-21(s0)
	.loc 1 2642 23
	ld	a5,-56(s0)
	ld	a5,128(a5)
	.loc 1 2642 3
	addi	a4,s0,-24
	li	a2,4
	mv	a1,a4
	mv	a0,a5
	call	CopyMem@plt
	.loc 1 2644 16
	ld	a5,-56(s0)
	ld	a5,128(a5)
	.loc 1 2644 32
	addi	a4,a5,4
	.loc 1 2643 3
	lwu	a5,-20(s0)
	.loc 1 2646 19
	addi	a5,a5,-4
	.loc 1 2643 3
	mv	a2,a5
	ld	a1,-40(s0)
	mv	a0,a4
	call	CopyMem@plt
	.loc 1 2653 30
	ld	a5,-56(s0)
	lw	a5,16(a5)
	.loc 1 2653 45
	lw	a4,-20(s0)
	addw	a5,a4,a5
	sext.w	a4,a5
	ld	a5,-56(s0)
	sw	a4,16(a5)
	.loc 1 2654 10
	li	a5,0
.L385:
	.loc 1 2655 1
	mv	a0,a5
	ld	ra,56(sp)
	.cfi_restore 1
	ld	s0,48(sp)
	.cfi_restore 8
	.cfi_def_cfa 2, 64
	addi	sp,sp,64
	.cfi_def_cfa_offset 0
	jr	ra
	.cfi_endproc
.LFE27:
	.size	InsertDevicePathPackage, .-InsertDevicePathPackage
	.section	.text.ExportDevicePathPackage,"ax",@progbits
	.align	1
	.globl	ExportDevicePathPackage
	.type	ExportDevicePathPackage, @function
ExportDevicePathPackage:
.LFB28:
	.loc 1 2684 1
	.cfi_startproc
	addi	sp,sp,-112
	.cfi_def_cfa_offset 112
	sd	ra,104(sp)
	sd	s0,96(sp)
	.cfi_offset 1, -8
	.cfi_offset 8, -16
	addi	s0,sp,112
	.cfi_def_cfa 8, 0
	sd	a0,-56(s0)
	sd	a1,-64(s0)
	sd	a2,-72(s0)
	sd	a3,-80(s0)
	sd	a4,-88(s0)
	sd	a5,-96(s0)
	sd	a6,-104(s0)
	.loc 1 2689 6
	ld	a5,-56(s0)
	beq	a5,zero,.L387
	.loc 1 2689 33 discriminator 1
	ld	a5,-72(s0)
	beq	a5,zero,.L387
	.loc 1 2689 66 discriminator 2
	ld	a5,-104(s0)
	bne	a5,zero,.L388
.L387:
	.loc 1 2690 12
	li	a5,-1
	slli	a5,a5,63
	addi	a5,a5,2
	j	.L393
.L388:
	.loc 1 2693 6
	ld	a5,-88(s0)
	beq	a5,zero,.L390
	.loc 1 2693 24 discriminator 1
	ld	a5,-96(s0)
	bne	a5,zero,.L390
	.loc 1 2694 12
	li	a5,-1
	slli	a5,a5,63
	addi	a5,a5,2
	j	.L393
.L390:
	.loc 1 2697 11
	ld	a5,-72(s0)
	ld	a5,128(a5)
	sd	a5,-24(s0)
	.loc 1 2699 6
	ld	a5,-24(s0)
	bne	a5,zero,.L391
	.loc 1 2700 12
	li	a5,0
	j	.L393
.L391:
	.loc 1 2703 3
	addi	a5,s0,-40
	li	a2,4
	ld	a1,-24(s0)
	mv	a0,a5
	call	CopyMem@plt
	.loc 1 2705 13
	ld	a5,-40(s0)
	mv	a4,a5
	li	a5,16777216
	addi	a5,a5,-1
	and	a5,a4,a5
	sext.w	a5,a5
	slli	a4,a5,32
	srli	a4,a4,32
	.loc 1 2705 23
	ld	a5,-104(s0)
	ld	a5,0(a5)
	.loc 1 2705 21
	add	a4,a4,a5
	.loc 1 2705 35
	ld	a5,-80(s0)
	add	a5,a4,a5
	.loc 1 2705 6
	ld	a4,-88(s0)
	bltu	a4,a5,.L392
	.loc 1 2709 14
	ld	a4,-64(s0)
	li	a3,8
	ld	a2,-24(s0)
	li	a1,4
	ld	a0,-56(s0)
	call	InvokeRegisteredFunction
	sd	a0,-32(s0)
	.loc 1 2721 37
	ld	a5,-40(s0)
	mv	a4,a5
	li	a5,16777216
	addi	a5,a5,-1
	and	a5,a4,a5
	sext.w	a5,a5
	.loc 1 2721 5
	slli	a5,a5,32
	srli	a5,a5,32
	mv	a2,a5
	ld	a1,-24(s0)
	ld	a0,-96(s0)
	call	CopyMem@plt
.L392:
	.loc 1 2724 3
	ld	a5,-104(s0)
	ld	a4,0(a5)
	.loc 1 2724 24
	ld	a5,-40(s0)
	mv	a3,a5
	li	a5,16777216
	addi	a5,a5,-1
	and	a5,a3,a5
	sext.w	a5,a5
	slli	a5,a5,32
	srli	a5,a5,32
	.loc 1 2724 15
	add	a4,a4,a5
	ld	a5,-104(s0)
	sd	a4,0(a5)
	.loc 1 2725 10
	li	a5,0
.L393:
	.loc 1 2726 1
	mv	a0,a5
	ld	ra,104(sp)
	.cfi_restore 1
	ld	s0,96(sp)
	.cfi_restore 8
	.cfi_def_cfa 2, 112
	addi	sp,sp,112
	.cfi_def_cfa_offset 0
	jr	ra
	.cfi_endproc
.LFE28:
	.size	ExportDevicePathPackage, .-ExportDevicePathPackage
	.section	.text.RemoveDevicePathPackage,"ax",@progbits
	.align	1
	.globl	RemoveDevicePathPackage
	.type	RemoveDevicePathPackage, @function
RemoveDevicePathPackage:
.LFB29:
	.loc 1 2747 1
	.cfi_startproc
	addi	sp,sp,-80
	.cfi_def_cfa_offset 80
	sd	ra,72(sp)
	sd	s0,64(sp)
	.cfi_offset 1, -8
	.cfi_offset 8, -16
	addi	s0,sp,80
	.cfi_def_cfa 8, 0
	sd	a0,-56(s0)
	sd	a1,-64(s0)
	sd	a2,-72(s0)
	.loc 1 2752 11
	ld	a5,-72(s0)
	ld	a5,128(a5)
	sd	a5,-24(s0)
	.loc 1 2757 6
	ld	a5,-24(s0)
	bne	a5,zero,.L395
	.loc 1 2758 12
	li	a5,0
	j	.L398
.L395:
	.loc 1 2761 12
	ld	a4,-64(s0)
	li	a3,8
	ld	a2,-24(s0)
	li	a1,2
	ld	a0,-56(s0)
	call	InvokeRegisteredFunction
	sd	a0,-32(s0)
	.loc 1 2768 34
	ld	a5,-32(s0)
	.loc 1 2768 6
	bge	a5,zero,.L397
	.loc 1 2769 12
	ld	a5,-32(s0)
	j	.L398
.L397:
	.loc 1 2772 3
	addi	a5,s0,-40
	li	a2,4
	ld	a1,-24(s0)
	mv	a0,a5
	call	CopyMem@plt
	.loc 1 2773 30
	ld	a5,-72(s0)
	lw	a5,16(a5)
	.loc 1 2773 54
	ld	a4,-40(s0)
	mv	a3,a4
	li	a4,16777216
	addi	a4,a4,-1
	and	a4,a3,a4
	sext.w	a4,a4
	.loc 1 2773 45
	subw	a5,a5,a4
	sext.w	a4,a5
	ld	a5,-72(s0)
	sw	a4,16(a5)
	.loc 1 2775 3
	ld	a0,-24(s0)
	call	FreePool@plt
	.loc 1 2777 30
	ld	a5,-72(s0)
	sd	zero,128(a5)
	.loc 1 2779 10
	li	a5,0
.L398:
	.loc 1 2780 1
	mv	a0,a5
	ld	ra,72(sp)
	.cfi_restore 1
	ld	s0,64(sp)
	.cfi_restore 8
	.cfi_def_cfa 2, 80
	addi	sp,sp,80
	.cfi_def_cfa_offset 0
	jr	ra
	.cfi_endproc
.LFE29:
	.size	RemoveDevicePathPackage, .-RemoveDevicePathPackage
	.section	.text.AddDevicePathPackage,"ax",@progbits
	.align	1
	.globl	AddDevicePathPackage
	.type	AddDevicePathPackage, @function
AddDevicePathPackage:
.LFB30:
	.loc 1 2807 1
	.cfi_startproc
	addi	sp,sp,-64
	.cfi_def_cfa_offset 64
	sd	ra,56(sp)
	sd	s0,48(sp)
	.cfi_offset 1, -8
	.cfi_offset 8, -16
	addi	s0,sp,64
	.cfi_def_cfa 8, 0
	sd	a0,-40(s0)
	sd	a1,-48(s0)
	sd	a2,-56(s0)
	sd	a3,-64(s0)
	.loc 1 2810 6
	ld	a5,-56(s0)
	bne	a5,zero,.L400
	.loc 1 2811 12
	li	a5,0
	j	.L401
.L400:
	.loc 1 2820 12
	ld	a5,-64(s0)
	ld	a5,8(a5)
	mv	a2,a5
	ld	a1,-48(s0)
	ld	a0,-56(s0)
	call	InsertDevicePathPackage
	sd	a0,-24(s0)
	.loc 1 2825 34
	ld	a5,-24(s0)
	.loc 1 2825 6
	bge	a5,zero,.L402
	.loc 1 2826 12
	ld	a5,-24(s0)
	j	.L401
.L402:
	.loc 1 2832 34
	ld	a5,-64(s0)
	ld	a5,8(a5)
	.loc 1 2832 47
	ld	a2,128(a5)
	.loc 1 2829 10
	ld	a5,-64(s0)
	ld	a5,24(a5)
	mv	a4,a5
	li	a3,8
	ld	a1,-48(s0)
	ld	a0,-40(s0)
	call	InvokeRegisteredFunction
	mv	a5,a0
.L401:
	.loc 1 2836 1
	mv	a0,a5
	ld	ra,56(sp)
	.cfi_restore 1
	ld	s0,48(sp)
	.cfi_restore 8
	.cfi_def_cfa 2, 64
	addi	sp,sp,64
	.cfi_def_cfa_offset 0
	jr	ra
	.cfi_endproc
.LFE30:
	.size	AddDevicePathPackage, .-AddDevicePathPackage
	.section	.text.InsertKeyboardLayoutPackage,"ax",@progbits
	.align	1
	.globl	InsertKeyboardLayoutPackage
	.type	InsertKeyboardLayoutPackage, @function
InsertKeyboardLayoutPackage:
.LFB31:
	.loc 1 2862 1
	.cfi_startproc
	addi	sp,sp,-80
	.cfi_def_cfa_offset 80
	sd	ra,72(sp)
	sd	s0,64(sp)
	.cfi_offset 1, -8
	.cfi_offset 8, -16
	addi	s0,sp,80
	.cfi_def_cfa 8, 0
	sd	a0,-56(s0)
	sd	a1,-64(s0)
	sd	a2,-72(s0)
	sd	a3,-80(s0)
	.loc 1 2867 6
	ld	a5,-56(s0)
	beq	a5,zero,.L404
	.loc 1 2867 36 discriminator 1
	ld	a5,-72(s0)
	bne	a5,zero,.L405
.L404:
	.loc 1 2868 12
	li	a5,-1
	slli	a5,a5,63
	addi	a5,a5,2
	j	.L413
.L405:
	.loc 1 2871 3
	addi	a5,s0,-40
	li	a2,4
	ld	a1,-56(s0)
	mv	a0,a5
	call	CopyMem@plt
	.loc 1 2876 27
	li	a0,32
	call	AllocateZeroPool@plt
	sd	a0,-32(s0)
	.loc 1 2877 6
	ld	a5,-32(s0)
	bne	a5,zero,.L407
	.loc 1 2878 12
	li	a5,-1
	slli	a5,a5,63
	addi	a5,a5,9
	sd	a5,-24(s0)
	.loc 1 2879 5
	j	.L408
.L407:
	.loc 1 2882 36
	ld	a5,-32(s0)
	li	a4,1886154752
	addi	a4,a4,-1176
	sd	a4,0(a5)
	.loc 1 2884 80
	ld	a5,-40(s0)
	mv	a4,a5
	li	a5,16777216
	addi	a5,a5,-1
	and	a5,a4,a5
	sext.w	a5,a5
	.loc 1 2884 49
	slli	a5,a5,32
	srli	a5,a5,32
	mv	a0,a5
	call	AllocateZeroPool@plt
	mv	a4,a0
	.loc 1 2884 38 discriminator 1
	ld	a5,-32(s0)
	sd	a4,8(a5)
	.loc 1 2885 28
	ld	a5,-32(s0)
	ld	a5,8(a5)
	.loc 1 2885 6
	bne	a5,zero,.L409
	.loc 1 2886 12
	li	a5,-1
	slli	a5,a5,63
	addi	a5,a5,9
	sd	a5,-24(s0)
	.loc 1 2887 5
	j	.L408
.L409:
	.loc 1 2890 33
	ld	a5,-32(s0)
	ld	a4,8(a5)
	.loc 1 2890 73
	ld	a5,-40(s0)
	mv	a3,a5
	li	a5,16777216
	addi	a5,a5,-1
	and	a5,a3,a5
	sext.w	a5,a5
	.loc 1 2890 3
	slli	a5,a5,32
	srli	a5,a5,32
	mv	a2,a5
	ld	a1,-56(s0)
	mv	a0,a4
	call	CopyMem@plt
	.loc 1 2891 3
	ld	a5,-72(s0)
	addi	a4,a5,56
	ld	a5,-32(s0)
	addi	a5,a5,16
	mv	a1,a5
	mv	a0,a4
	call	InsertTailList@plt
	.loc 1 2893 12
	ld	a5,-80(s0)
	ld	a4,-32(s0)
	sd	a4,0(a5)
	.loc 1 2895 6
	ld	a4,-64(s0)
	li	a5,8
	bne	a4,a5,.L410
	.loc 1 2896 32
	ld	a5,-72(s0)
	lw	a5,16(a5)
	.loc 1 2896 63
	ld	a4,-40(s0)
	mv	a3,a4
	li	a4,16777216
	addi	a4,a4,-1
	and	a4,a3,a4
	sext.w	a4,a4
	.loc 1 2896 47
	addw	a5,a5,a4
	sext.w	a4,a5
	ld	a5,-72(s0)
	sw	a4,16(a5)
.L410:
	.loc 1 2899 10
	li	a5,0
	j	.L413
.L408:
	.loc 1 2903 6
	ld	a5,-32(s0)
	beq	a5,zero,.L411
	.loc 1 2904 30
	ld	a5,-32(s0)
	ld	a5,8(a5)
	.loc 1 2904 8
	beq	a5,zero,.L412
	.loc 1 2905 38
	ld	a5,-32(s0)
	ld	a5,8(a5)
	.loc 1 2905 7
	mv	a0,a5
	call	FreePool@plt
.L412:
	.loc 1 2908 5
	ld	a0,-32(s0)
	call	FreePool@plt
.L411:
	.loc 1 2911 10
	ld	a5,-24(s0)
.L413:
	.loc 1 2912 1
	mv	a0,a5
	ld	ra,72(sp)
	.cfi_restore 1
	ld	s0,64(sp)
	.cfi_restore 8
	.cfi_def_cfa 2, 80
	addi	sp,sp,80
	.cfi_def_cfa_offset 0
	jr	ra
	.cfi_endproc
.LFE31:
	.size	InsertKeyboardLayoutPackage, .-InsertKeyboardLayoutPackage
	.section	.text.ExportKeyboardLayoutPackages,"ax",@progbits
	.align	1
	.globl	ExportKeyboardLayoutPackages
	.type	ExportKeyboardLayoutPackages, @function
ExportKeyboardLayoutPackages:
.LFB32:
	.loc 1 2942 1
	.cfi_startproc
	addi	sp,sp,-128
	.cfi_def_cfa_offset 128
	sd	ra,120(sp)
	sd	s0,112(sp)
	.cfi_offset 1, -8
	.cfi_offset 8, -16
	addi	s0,sp,128
	.cfi_def_cfa 8, 0
	sd	a0,-72(s0)
	sd	a1,-80(s0)
	sd	a2,-88(s0)
	sd	a3,-96(s0)
	sd	a4,-104(s0)
	sd	a5,-112(s0)
	sd	a6,-120(s0)
	.loc 1 2949 6
	ld	a5,-72(s0)
	beq	a5,zero,.L415
	.loc 1 2949 33 discriminator 1
	ld	a5,-88(s0)
	beq	a5,zero,.L415
	.loc 1 2949 66 discriminator 2
	ld	a5,-120(s0)
	bne	a5,zero,.L416
.L415:
	.loc 1 2950 12
	li	a5,-1
	slli	a5,a5,63
	addi	a5,a5,2
	j	.L424
.L416:
	.loc 1 2953 6
	ld	a5,-104(s0)
	beq	a5,zero,.L418
	.loc 1 2953 24 discriminator 1
	ld	a5,-112(s0)
	bne	a5,zero,.L418
	.loc 1 2954 12
	li	a5,-1
	slli	a5,a5,63
	addi	a5,a5,2
	j	.L424
.L418:
	.loc 1 2957 17
	sd	zero,-32(s0)
	.loc 1 2958 10
	sd	zero,-48(s0)
	.loc 1 2960 13
	ld	a5,-88(s0)
	ld	a5,56(a5)
	sd	a5,-24(s0)
	.loc 1 2960 3
	j	.L419
.L423:
	.loc 1 2961 17
	ld	a5,-24(s0)
	addi	a5,a5,-16
	.loc 1 2961 170
	ld	a4,0(a5)
	.loc 1 2961 255
	li	a5,1886154752
	addi	a5,a5,-1176
	bne	a4,a5,.L420
	.loc 1 2961 13 discriminator 1
	ld	a5,-24(s0)
	addi	a5,a5,-16
	sd	a5,-40(s0)
	j	.L421
.L420:
	.loc 1 2961 13 is_stmt 0 discriminator 2
	sd	zero,-40(s0)
.L421:
	.loc 1 2962 37 is_stmt 1
	ld	a5,-40(s0)
	ld	a4,8(a5)
	.loc 1 2962 5
	addi	a5,s0,-56
	li	a2,4
	mv	a1,a4
	mv	a0,a5
	call	CopyMem@plt
	.loc 1 2963 35
	ld	a5,-56(s0)
	mv	a4,a5
	li	a5,16777216
	addi	a5,a5,-1
	and	a5,a4,a5
	sext.w	a5,a5
	slli	a5,a5,32
	srli	a5,a5,32
	.loc 1 2963 19
	ld	a4,-32(s0)
	add	a5,a4,a5
	sd	a5,-32(s0)
	.loc 1 2964 25
	ld	a5,-120(s0)
	ld	a4,0(a5)
	.loc 1 2964 23
	ld	a5,-32(s0)
	add	a4,a4,a5
	.loc 1 2964 37
	ld	a5,-96(s0)
	add	a5,a4,a5
	.loc 1 2964 8
	ld	a4,-104(s0)
	bltu	a4,a5,.L422
	.loc 1 2968 16
	ld	a4,-80(s0)
	li	a3,9
	ld	a2,-40(s0)
	li	a1,4
	ld	a0,-72(s0)
	call	InvokeRegisteredFunction
	sd	a0,-48(s0)
	.loc 1 2980 31
	ld	a5,-40(s0)
	ld	a4,8(a5)
	.loc 1 2980 59
	ld	a5,-56(s0)
	mv	a3,a5
	li	a5,16777216
	addi	a5,a5,-1
	and	a5,a3,a5
	sext.w	a5,a5
	.loc 1 2980 7
	slli	a5,a5,32
	srli	a5,a5,32
	mv	a2,a5
	mv	a1,a4
	ld	a0,-112(s0)
	call	CopyMem@plt
	.loc 1 2981 47
	ld	a5,-56(s0)
	mv	a4,a5
	li	a5,16777216
	addi	a5,a5,-1
	and	a5,a4,a5
	sext.w	a5,a5
	slli	a5,a5,32
	srli	a5,a5,32
	.loc 1 2981 14
	ld	a4,-112(s0)
	add	a5,a4,a5
	sd	a5,-112(s0)
.L422:
	.loc 1 2960 105 discriminator 2
	ld	a5,-24(s0)
	ld	a5,0(a5)
	sd	a5,-24(s0)
.L419:
	.loc 1 2960 67 discriminator 1
	ld	a5,-88(s0)
	addi	a5,a5,56
	.loc 1 2960 64 discriminator 1
	ld	a4,-24(s0)
	bne	a4,a5,.L423
	.loc 1 2985 3
	ld	a5,-120(s0)
	ld	a4,0(a5)
	.loc 1 2985 15
	ld	a5,-32(s0)
	add	a4,a4,a5
	ld	a5,-120(s0)
	sd	a4,0(a5)
	.loc 1 2986 10
	li	a5,0
.L424:
	.loc 1 2987 1
	mv	a0,a5
	ld	ra,120(sp)
	.cfi_restore 1
	ld	s0,112(sp)
	.cfi_restore 8
	.cfi_def_cfa 2, 128
	addi	sp,sp,128
	.cfi_def_cfa_offset 0
	jr	ra
	.cfi_endproc
.LFE32:
	.size	ExportKeyboardLayoutPackages, .-ExportKeyboardLayoutPackages
	.section	.text.RemoveKeyboardLayoutPackages,"ax",@progbits
	.align	1
	.globl	RemoveKeyboardLayoutPackages
	.type	RemoveKeyboardLayoutPackages, @function
RemoveKeyboardLayoutPackages:
.LFB33:
	.loc 1 3010 1
	.cfi_startproc
	addi	sp,sp,-80
	.cfi_def_cfa_offset 80
	sd	ra,72(sp)
	sd	s0,64(sp)
	.cfi_offset 1, -8
	.cfi_offset 8, -16
	addi	s0,sp,80
	.cfi_def_cfa 8, 0
	sd	a0,-56(s0)
	sd	a1,-64(s0)
	sd	a2,-72(s0)
	.loc 1 3016 12
	ld	a5,-72(s0)
	addi	a5,a5,56
	sd	a5,-32(s0)
	.loc 1 3018 9
	j	.L426
.L431:
	.loc 1 3019 87
	ld	a5,-32(s0)
	ld	a5,0(a5)
	.loc 1 3019 17
	addi	a5,a5,-16
	.loc 1 3019 187
	ld	a4,0(a5)
	.loc 1 3019 272
	li	a5,1886154752
	addi	a5,a5,-1176
	bne	a4,a5,.L427
	.loc 1 3019 345 discriminator 1
	ld	a5,-32(s0)
	ld	a5,0(a5)
	.loc 1 3019 13 discriminator 1
	addi	a5,a5,-16
	sd	a5,-24(s0)
	j	.L428
.L427:
	.loc 1 3019 13 is_stmt 0 discriminator 2
	sd	zero,-24(s0)
.L428:
	.loc 1 3025 14 is_stmt 1
	ld	a4,-64(s0)
	li	a3,9
	ld	a2,-24(s0)
	li	a1,2
	ld	a0,-56(s0)
	call	InvokeRegisteredFunction
	sd	a0,-40(s0)
	.loc 1 3032 36
	ld	a5,-40(s0)
	.loc 1 3032 8
	bge	a5,zero,.L429
	.loc 1 3033 14
	ld	a5,-40(s0)
	j	.L432
.L429:
	.loc 1 3036 22
	ld	a5,-24(s0)
	addi	a5,a5,16
	.loc 1 3036 5
	mv	a0,a5
	call	RemoveEntryList@plt
	.loc 1 3037 37
	ld	a5,-24(s0)
	ld	a4,8(a5)
	.loc 1 3037 5
	addi	a5,s0,-48
	li	a2,4
	mv	a1,a4
	mv	a0,a5
	call	CopyMem@plt
	.loc 1 3038 32
	ld	a5,-72(s0)
	lw	a5,16(a5)
	.loc 1 3038 63
	ld	a4,-48(s0)
	mv	a3,a4
	li	a4,16777216
	addi	a4,a4,-1
	and	a4,a3,a4
	sext.w	a4,a4
	.loc 1 3038 47
	subw	a5,a5,a4
	sext.w	a4,a5
	ld	a5,-72(s0)
	sw	a4,16(a5)
	.loc 1 3039 22
	ld	a5,-24(s0)
	ld	a5,8(a5)
	.loc 1 3039 5
	mv	a0,a5
	call	FreePool@plt
	.loc 1 3040 5
	ld	a0,-24(s0)
	call	FreePool@plt
.L426:
	.loc 1 3018 11
	ld	a0,-32(s0)
	call	IsListEmpty@plt
	mv	a5,a0
	.loc 1 3018 10 discriminator 1
	beq	a5,zero,.L431
	.loc 1 3043 10
	li	a5,0
.L432:
	.loc 1 3044 1
	mv	a0,a5
	ld	ra,72(sp)
	.cfi_restore 1
	ld	s0,64(sp)
	.cfi_restore 8
	.cfi_def_cfa 2, 80
	addi	sp,sp,80
	.cfi_def_cfa_offset 0
	jr	ra
	.cfi_endproc
.LFE33:
	.size	RemoveKeyboardLayoutPackages, .-RemoveKeyboardLayoutPackages
	.section	.text.AddPackages,"ax",@progbits
	.align	1
	.globl	AddPackages
	.type	AddPackages, @function
AddPackages:
.LFB34:
	.loc 1 3073 1
	.cfi_startproc
	addi	sp,sp,-144
	.cfi_def_cfa_offset 144
	sd	ra,136(sp)
	sd	s0,128(sp)
	.cfi_offset 1, -8
	.cfi_offset 8, -16
	addi	s0,sp,144
	.cfi_def_cfa 8, 0
	sd	a0,-120(s0)
	sd	a1,-128(s0)
	sd	a2,-136(s0)
	sd	a3,-144(s0)
	.loc 1 3090 18
	sb	zero,-33(s0)
	.loc 1 3091 15
	sd	zero,-80(s0)
	.loc 1 3092 17
	sd	zero,-72(s0)
	.loc 1 3093 15
	sd	zero,-48(s0)
	.loc 1 3094 15
	sd	zero,-56(s0)
	.loc 1 3095 16
	sd	zero,-96(s0)
	.loc 1 3096 21
	sd	zero,-88(s0)
	.loc 1 3097 25
	sd	zero,-64(s0)
	.loc 1 3102 37
	ld	a5,-144(s0)
	ld	a5,8(a5)
	.loc 1 3102 21
	lw	a5,16(a5)
	sw	a5,-40(s0)
	.loc 1 3104 20
	ld	a5,-144(s0)
	ld	a5,8(a5)
	.loc 1 3103 3
	li	a2,20
	ld	a1,-136(s0)
	mv	a0,a5
	call	CopyMem@plt
	.loc 1 3108 6
	ld	a4,-128(s0)
	li	a5,8
	bne	a4,a5,.L434
	.loc 1 3109 19
	ld	a5,-144(s0)
	ld	a5,8(a5)
	.loc 1 3109 63
	lw	a4,-40(s0)
	sw	a4,16(a5)
.L434:
	.loc 1 3112 17
	ld	a5,-136(s0)
	addi	a5,a5,20
	sd	a5,-32(s0)
	.loc 1 3113 3
	addi	a5,s0,-104
	li	a2,4
	ld	a1,-32(s0)
	mv	a0,a5
	call	CopyMem@plt
	.loc 1 3115 10
	sd	zero,-24(s0)
	.loc 1 3117 9
	j	.L435
.L456:
	.loc 1 3118 26
	lbu	a5,-101(s0)
	sext.w	a5,a5
	.loc 1 3118 5
	li	a4,9
	beq	a5,a4,.L436
	li	a4,9
	bgt	a5,a4,.L459
	li	a4,8
	beq	a5,a4,.L438
	li	a4,8
	bgt	a5,a4,.L459
	li	a4,7
	beq	a5,a4,.L439
	li	a4,7
	bgt	a5,a4,.L459
	li	a4,6
	beq	a5,a4,.L440
	li	a4,6
	bgt	a5,a4,.L459
	li	a4,5
	beq	a5,a4,.L441
	li	a4,5
	bgt	a5,a4,.L459
	li	a4,4
	beq	a5,a4,.L442
	li	a4,4
	bgt	a5,a4,.L459
	li	a4,1
	beq	a5,a4,.L443
	li	a4,2
	beq	a5,a4,.L444
	.loc 1 3276 9
	j	.L459
.L443:
	.loc 1 3120 18
	ld	a5,-144(s0)
	ld	a5,8(a5)
	addi	a4,s0,-48
	mv	a3,a4
	mv	a2,a5
	ld	a1,-128(s0)
	ld	a0,-32(s0)
	call	InsertGuidPackage
	sd	a0,-24(s0)
	.loc 1 3126 40
	ld	a5,-24(s0)
	.loc 1 3126 12
	bge	a5,zero,.L445
	.loc 1 3127 18
	ld	a5,-24(s0)
	j	.L458
.L445:
	.loc 1 3130 18
	ld	a2,-48(s0)
	.loc 1 3134 20
	lbu	a3,-101(s0)
	.loc 1 3130 18
	ld	a5,-144(s0)
	ld	a5,24(a5)
	mv	a4,a5
	ld	a1,-128(s0)
	ld	a0,-120(s0)
	call	InvokeRegisteredFunction
	sd	a0,-24(s0)
	.loc 1 3137 9
	j	.L447
.L444:
	.loc 1 3139 18
	ld	a5,-144(s0)
	ld	a5,8(a5)
	addi	a4,s0,-56
	mv	a3,a4
	mv	a2,a5
	ld	a1,-128(s0)
	ld	a0,-32(s0)
	call	InsertFormPackage
	sd	a0,-24(s0)
	.loc 1 3145 40
	ld	a5,-24(s0)
	.loc 1 3145 12
	bge	a5,zero,.L448
	.loc 1 3146 18
	ld	a5,-24(s0)
	j	.L458
.L448:
	.loc 1 3149 18
	ld	a2,-56(s0)
	.loc 1 3153 20
	lbu	a3,-101(s0)
	.loc 1 3149 18
	ld	a5,-144(s0)
	ld	a5,24(a5)
	mv	a4,a5
	ld	a1,-128(s0)
	ld	a0,-120(s0)
	call	InvokeRegisteredFunction
	sd	a0,-24(s0)
	.loc 1 3163 13
	la	a5,gExportAfterReadyToBoot
	lbu	a5,0(a5)
	.loc 1 3163 12
	beq	a5,zero,.L460
	.loc 1 3164 29
	lla	a5,gExportConfigResp
	li	a4,1
	sb	a4,0(a5)
	.loc 1 3167 9
	j	.L460
.L436:
	.loc 1 3169 18
	ld	a5,-144(s0)
	ld	a5,8(a5)
	addi	a4,s0,-64
	mv	a3,a4
	mv	a2,a5
	ld	a1,-128(s0)
	ld	a0,-32(s0)
	call	InsertKeyboardLayoutPackage
	sd	a0,-24(s0)
	.loc 1 3175 40
	ld	a5,-24(s0)
	.loc 1 3175 12
	bge	a5,zero,.L450
	.loc 1 3176 18
	ld	a5,-24(s0)
	j	.L458
.L450:
	.loc 1 3179 18
	ld	a2,-64(s0)
	.loc 1 3183 20
	lbu	a3,-101(s0)
	.loc 1 3179 18
	ld	a5,-144(s0)
	ld	a5,24(a5)
	mv	a4,a5
	ld	a1,-128(s0)
	ld	a0,-120(s0)
	call	InvokeRegisteredFunction
	sd	a0,-24(s0)
	.loc 1 3186 9
	j	.L447
.L442:
	.loc 1 3188 18
	ld	a5,-144(s0)
	ld	a5,8(a5)
	addi	a4,s0,-72
	mv	a3,a5
	ld	a2,-128(s0)
	ld	a1,-32(s0)
	ld	a0,-120(s0)
	call	InsertStringPackage
	sd	a0,-24(s0)
	.loc 1 3195 40
	ld	a5,-24(s0)
	.loc 1 3195 12
	bge	a5,zero,.L451
	.loc 1 3196 18
	ld	a5,-24(s0)
	j	.L458
.L451:
	.loc 1 3200 18
	ld	a2,-72(s0)
	.loc 1 3204 20
	lbu	a3,-101(s0)
	.loc 1 3200 18
	ld	a5,-144(s0)
	ld	a5,24(a5)
	mv	a4,a5
	ld	a1,-128(s0)
	ld	a0,-120(s0)
	call	InvokeRegisteredFunction
	sd	a0,-24(s0)
	.loc 1 3207 24
	li	a5,1
	sb	a5,-33(s0)
	.loc 1 3208 9
	j	.L447
.L441:
	.loc 1 3210 18
	ld	a5,-144(s0)
	ld	a5,8(a5)
	addi	a4,s0,-80
	mv	a3,a5
	ld	a2,-128(s0)
	ld	a1,-32(s0)
	ld	a0,-120(s0)
	call	InsertFontPackage
	sd	a0,-24(s0)
	.loc 1 3217 40
	ld	a5,-24(s0)
	.loc 1 3217 12
	bge	a5,zero,.L452
	.loc 1 3218 18
	ld	a5,-24(s0)
	j	.L458
.L452:
	.loc 1 3221 18
	ld	a2,-80(s0)
	.loc 1 3225 20
	lbu	a3,-101(s0)
	.loc 1 3221 18
	ld	a5,-144(s0)
	ld	a5,24(a5)
	mv	a4,a5
	ld	a1,-128(s0)
	ld	a0,-120(s0)
	call	InvokeRegisteredFunction
	sd	a0,-24(s0)
	.loc 1 3228 9
	j	.L447
.L440:
	.loc 1 3230 18
	ld	a5,-144(s0)
	ld	a5,8(a5)
	addi	a4,s0,-96
	mv	a3,a4
	mv	a2,a5
	ld	a1,-128(s0)
	ld	a0,-32(s0)
	call	InsertImagePackage
	sd	a0,-24(s0)
	.loc 1 3236 40
	ld	a5,-24(s0)
	.loc 1 3236 12
	bge	a5,zero,.L453
	.loc 1 3237 18
	ld	a5,-24(s0)
	j	.L458
.L453:
	.loc 1 3240 18
	ld	a2,-96(s0)
	.loc 1 3244 20
	lbu	a3,-101(s0)
	.loc 1 3240 18
	ld	a5,-144(s0)
	ld	a5,24(a5)
	mv	a4,a5
	ld	a1,-128(s0)
	ld	a0,-120(s0)
	call	InvokeRegisteredFunction
	sd	a0,-24(s0)
	.loc 1 3247 9
	j	.L447
.L439:
	.loc 1 3249 18
	ld	a5,-144(s0)
	ld	a5,8(a5)
	addi	a4,s0,-88
	mv	a3,a4
	mv	a2,a5
	ld	a1,-128(s0)
	ld	a0,-32(s0)
	call	InsertSimpleFontPackage
	sd	a0,-24(s0)
	.loc 1 3255 40
	ld	a5,-24(s0)
	.loc 1 3255 12
	bge	a5,zero,.L454
	.loc 1 3256 18
	ld	a5,-24(s0)
	j	.L458
.L454:
	.loc 1 3259 18
	ld	a2,-88(s0)
	.loc 1 3263 20
	lbu	a3,-101(s0)
	.loc 1 3259 18
	ld	a5,-144(s0)
	ld	a5,24(a5)
	mv	a4,a5
	ld	a1,-128(s0)
	ld	a0,-120(s0)
	call	InvokeRegisteredFunction
	sd	a0,-24(s0)
	.loc 1 3266 9
	j	.L447
.L438:
	.loc 1 3268 18
	ld	a5,-32(s0)
	addi	a5,a5,4
	ld	a3,-144(s0)
	mv	a2,a5
	ld	a1,-128(s0)
	ld	a0,-120(s0)
	call	AddDevicePathPackage
	sd	a0,-24(s0)
	.loc 1 3274 9
	j	.L447
.L459:
	.loc 1 3276 9
	nop
	j	.L447
.L460:
	.loc 1 3167 9
	nop
.L447:
	.loc 1 3279 36
	ld	a5,-24(s0)
	.loc 1 3279 8
	bge	a5,zero,.L455
	.loc 1 3280 14
	ld	a5,-24(s0)
	j	.L458
.L455:
	.loc 1 3286 86
	ld	a5,-104(s0)
	mv	a4,a5
	li	a5,16777216
	addi	a5,a5,-1
	and	a5,a4,a5
	sext.w	a5,a5
	slli	a5,a5,32
	srli	a5,a5,32
	.loc 1 3286 19
	ld	a4,-32(s0)
	add	a5,a4,a5
	sd	a5,-32(s0)
	.loc 1 3287 5
	addi	a5,s0,-104
	li	a2,4
	ld	a1,-32(s0)
	mv	a0,a5
	call	CopyMem@plt
.L435:
	.loc 1 3117 23
	lbu	a5,-101(s0)
	.loc 1 3117 29
	mv	a4,a5
	li	a5,223
	bne	a4,a5,.L456
	.loc 1 3293 7
	ld	a5,-24(s0)
	.loc 1 3293 6
	blt	a5,zero,.L457
	.loc 1 3293 61 discriminator 1
	lbu	a5,-33(s0)
	andi	a5,a5,0xff
	beq	a5,zero,.L457
	.loc 1 3294 14
	ld	a5,-144(s0)
	ld	a5,8(a5)
	mv	a0,a5
	call	AdjustStringPackage
	sd	a0,-24(s0)
.L457:
	.loc 1 3297 10
	ld	a5,-24(s0)
.L458:
	.loc 1 3298 1
	mv	a0,a5
	ld	ra,136(sp)
	.cfi_restore 1
	ld	s0,128(sp)
	.cfi_restore 8
	.cfi_def_cfa 2, 144
	addi	sp,sp,144
	.cfi_def_cfa_offset 0
	jr	ra
	.cfi_endproc
.LFE34:
	.size	AddPackages, .-AddPackages
	.section	.text.ExportPackageList,"ax",@progbits
	.align	1
	.globl	ExportPackageList
	.type	ExportPackageList, @function
ExportPackageList:
.LFB35:
	.loc 1 3328 1
	.cfi_startproc
	addi	sp,sp,-96
	.cfi_def_cfa_offset 96
	sd	ra,88(sp)
	sd	s0,80(sp)
	.cfi_offset 1, -8
	.cfi_offset 8, -16
	addi	s0,sp,96
	.cfi_def_cfa 8, 0
	sd	a0,-56(s0)
	sd	a1,-64(s0)
	sd	a2,-72(s0)
	sd	a3,-80(s0)
	sd	a4,-88(s0)
	sd	a5,-96(s0)
	.loc 1 3337 6
	ld	a5,-88(s0)
	beq	a5,zero,.L462
	.loc 1 3337 24 discriminator 1
	ld	a5,-96(s0)
	bne	a5,zero,.L462
	.loc 1 3338 12
	li	a5,-1
	slli	a5,a5,63
	addi	a5,a5,2
	j	.L474
.L462:
	.loc 1 3345 14
	li	a5,20
	sd	a5,-32(s0)
	.loc 1 3346 20
	ld	a5,-80(s0)
	ld	a4,0(a5)
	.loc 1 3346 18
	ld	a5,-32(s0)
	add	a5,a4,a5
	.loc 1 3346 6
	ld	a4,-88(s0)
	bltu	a4,a5,.L464
	.loc 1 3347 5
	ld	a5,-32(s0)
	mv	a2,a5
	ld	a1,-72(s0)
	ld	a0,-96(s0)
	call	CopyMem@plt
.L464:
	.loc 1 3353 12
	ld	a5,-80(s0)
	ld	a3,0(a5)
	ld	a5,-32(s0)
	ld	a4,-96(s0)
	add	a5,a4,a5
	addi	a4,s0,-32
	mv	a6,a4
	ld	a4,-88(s0)
	ld	a2,-72(s0)
	ld	a1,-64(s0)
	ld	a0,-56(s0)
	call	ExportGuidPackages
	sd	a0,-24(s0)
	.loc 1 3362 34
	ld	a5,-24(s0)
	.loc 1 3362 6
	bge	a5,zero,.L465
	.loc 1 3363 12
	ld	a5,-24(s0)
	j	.L474
.L465:
	.loc 1 3366 12
	ld	a5,-80(s0)
	ld	a3,0(a5)
	ld	a5,-32(s0)
	ld	a4,-96(s0)
	add	a5,a4,a5
	addi	a4,s0,-32
	mv	a6,a4
	ld	a4,-88(s0)
	ld	a2,-72(s0)
	ld	a1,-64(s0)
	ld	a0,-56(s0)
	call	ExportFormPackages
	sd	a0,-24(s0)
	.loc 1 3375 34
	ld	a5,-24(s0)
	.loc 1 3375 6
	bge	a5,zero,.L466
	.loc 1 3376 12
	ld	a5,-24(s0)
	j	.L474
.L466:
	.loc 1 3379 12
	ld	a5,-80(s0)
	ld	a3,0(a5)
	ld	a5,-32(s0)
	ld	a4,-96(s0)
	add	a5,a4,a5
	addi	a4,s0,-32
	mv	a6,a4
	ld	a4,-88(s0)
	ld	a2,-72(s0)
	ld	a1,-64(s0)
	ld	a0,-56(s0)
	call	ExportKeyboardLayoutPackages
	sd	a0,-24(s0)
	.loc 1 3388 34
	ld	a5,-24(s0)
	.loc 1 3388 6
	bge	a5,zero,.L467
	.loc 1 3389 12
	ld	a5,-24(s0)
	j	.L474
.L467:
	.loc 1 3392 12
	ld	a5,-80(s0)
	ld	a3,0(a5)
	ld	a5,-32(s0)
	ld	a4,-96(s0)
	add	a5,a4,a5
	addi	a4,s0,-32
	mv	a6,a4
	ld	a4,-88(s0)
	ld	a2,-72(s0)
	ld	a1,-64(s0)
	ld	a0,-56(s0)
	call	ExportStringPackages
	sd	a0,-24(s0)
	.loc 1 3401 34
	ld	a5,-24(s0)
	.loc 1 3401 6
	bge	a5,zero,.L468
	.loc 1 3402 12
	ld	a5,-24(s0)
	j	.L474
.L468:
	.loc 1 3405 12
	ld	a5,-80(s0)
	ld	a3,0(a5)
	ld	a5,-32(s0)
	ld	a4,-96(s0)
	add	a5,a4,a5
	addi	a4,s0,-32
	mv	a6,a4
	ld	a4,-88(s0)
	ld	a2,-72(s0)
	ld	a1,-64(s0)
	ld	a0,-56(s0)
	call	ExportFontPackages
	sd	a0,-24(s0)
	.loc 1 3414 34
	ld	a5,-24(s0)
	.loc 1 3414 6
	bge	a5,zero,.L469
	.loc 1 3415 12
	ld	a5,-24(s0)
	j	.L474
.L469:
	.loc 1 3418 12
	ld	a5,-80(s0)
	ld	a3,0(a5)
	ld	a5,-32(s0)
	ld	a4,-96(s0)
	add	a5,a4,a5
	addi	a4,s0,-32
	mv	a6,a4
	ld	a4,-88(s0)
	ld	a2,-72(s0)
	ld	a1,-64(s0)
	ld	a0,-56(s0)
	call	ExportImagePackages
	sd	a0,-24(s0)
	.loc 1 3427 34
	ld	a5,-24(s0)
	.loc 1 3427 6
	bge	a5,zero,.L470
	.loc 1 3428 12
	ld	a5,-24(s0)
	j	.L474
.L470:
	.loc 1 3431 12
	ld	a5,-80(s0)
	ld	a3,0(a5)
	ld	a5,-32(s0)
	ld	a4,-96(s0)
	add	a5,a4,a5
	addi	a4,s0,-32
	mv	a6,a4
	ld	a4,-88(s0)
	ld	a2,-72(s0)
	ld	a1,-64(s0)
	ld	a0,-56(s0)
	call	ExportSimpleFontPackages
	sd	a0,-24(s0)
	.loc 1 3440 34
	ld	a5,-24(s0)
	.loc 1 3440 6
	bge	a5,zero,.L471
	.loc 1 3441 12
	ld	a5,-24(s0)
	j	.L474
.L471:
	.loc 1 3444 12
	ld	a5,-80(s0)
	ld	a3,0(a5)
	ld	a5,-32(s0)
	ld	a4,-96(s0)
	add	a5,a4,a5
	addi	a4,s0,-32
	mv	a6,a4
	ld	a4,-88(s0)
	ld	a2,-72(s0)
	ld	a1,-64(s0)
	ld	a0,-56(s0)
	call	ExportDevicePathPackage
	sd	a0,-24(s0)
	.loc 1 3453 34
	ld	a5,-24(s0)
	.loc 1 3453 6
	bge	a5,zero,.L472
	.loc 1 3454 12
	ld	a5,-24(s0)
	j	.L474
.L472:
	.loc 1 3460 27
	lw	a5,-40(s0)
	mv	a4,a5
	li	a5,-16777216
	and	a5,a4,a5
	ori	a5,a5,4
	sw	a5,-40(s0)
	.loc 1 3461 25
	li	a5,-33
	sb	a5,-37(s0)
	.loc 1 3462 20
	ld	a5,-80(s0)
	ld	a4,0(a5)
	.loc 1 3462 18
	ld	a5,-32(s0)
	add	a5,a4,a5
	.loc 1 3462 30
	addi	a5,a5,4
	.loc 1 3462 6
	ld	a4,-88(s0)
	bltu	a4,a5,.L473
	.loc 1 3463 5
	ld	a5,-32(s0)
	ld	a4,-96(s0)
	add	a5,a4,a5
	addi	a4,s0,-40
	li	a2,4
	mv	a1,a4
	mv	a0,a5
	call	CopyMem@plt
.L473:
	.loc 1 3470 13
	ld	a5,-80(s0)
	ld	a4,0(a5)
	ld	a5,-32(s0)
	add	a5,a4,a5
	addi	a4,a5,4
	ld	a5,-80(s0)
	sd	a4,0(a5)
	.loc 1 3472 10
	li	a5,0
.L474:
	.loc 1 3473 1
	mv	a0,a5
	ld	ra,88(sp)
	.cfi_restore 1
	ld	s0,80(sp)
	.cfi_restore 8
	.cfi_def_cfa 2, 96
	addi	sp,sp,96
	.cfi_def_cfa_offset 0
	jr	ra
	.cfi_endproc
.LFE35:
	.size	ExportPackageList, .-ExportPackageList
	.section	.text.HiiGetConfigRespInfo,"ax",@progbits
	.align	1
	.globl	HiiGetConfigRespInfo
	.type	HiiGetConfigRespInfo, @function
HiiGetConfigRespInfo:
.LFB36:
	.loc 1 3488 1
	.cfi_startproc
	addi	sp,sp,-64
	.cfi_def_cfa_offset 64
	sd	ra,56(sp)
	sd	s0,48(sp)
	.cfi_offset 1, -8
	.cfi_offset 8, -16
	addi	s0,sp,64
	.cfi_def_cfa 8, 0
	sd	a0,-56(s0)
	.loc 1 3494 17
	sd	zero,-48(s0)
	.loc 1 3495 14
	sd	zero,-32(s0)
	.loc 1 3497 15
	ld	a5,-56(s0)
	addi	a5,a5,-200
	.loc 1 3497 144
	ld	a4,0(a5)
	.loc 1 3497 229
	li	a5,1883533312
	addi	a5,a5,-1720
	bne	a4,a5,.L476
	.loc 1 3497 11 discriminator 1
	ld	a5,-56(s0)
	addi	a5,a5,-200
	sd	a5,-24(s0)
	j	.L477
.L476:
	.loc 1 3497 11 is_stmt 0 discriminator 2
	sd	zero,-24(s0)
.L477:
	.loc 1 3502 42 is_stmt 1
	ld	a5,-24(s0)
	addi	a5,a5,288
	.loc 1 3502 12
	addi	a4,s0,-48
	mv	a1,a4
	mv	a0,a5
	call	HiiConfigRoutingExportConfig@plt
	sd	a0,-40(s0)
	.loc 1 3504 7
	ld	a5,-40(s0)
	.loc 1 3504 6
	blt	a5,zero,.L478
	.loc 1 3505 18
	ld	a5,-48(s0)
	mv	a0,a5
	call	StrSize@plt
	sd	a0,-32(s0)
	.loc 1 3506 20
	lla	a5,gConfigRespSize
	ld	a5,0(a5)
	.loc 1 3506 8
	ld	a4,-32(s0)
	bleu	a4,a5,.L479
	.loc 1 3511 50
	ld	a5,-32(s0)
	srli	a4,a5,2
	.loc 1 3511 36
	ld	a5,-32(s0)
	add	a4,a4,a5
	.loc 1 3511 23
	lla	a5,gConfigRespSize
	sd	a4,0(a5)
	.loc 1 3512 31
	lla	a5,gRTConfigRespBuffer
	ld	a5,0(a5)
	.loc 1 3512 10
	beq	a5,zero,.L480
	.loc 1 3513 9
	lla	a5,gRTConfigRespBuffer
	ld	a5,0(a5)
	mv	a0,a5
	call	FreePool@plt
.L480:
	.loc 1 3517 41
	lla	a5,gConfigRespSize
	ld	a5,0(a5)
	mv	a0,a5
	call	AllocateRuntimeZeroPool@plt
	mv	a4,a0
	.loc 1 3517 27 discriminator 1
	lla	a5,gRTConfigRespBuffer
	sd	a4,0(a5)
	.loc 1 3518 31
	lla	a5,gRTConfigRespBuffer
	ld	a5,0(a5)
	.loc 1 3518 10
	bne	a5,zero,.L481
	.loc 1 3519 9
	ld	a5,-48(s0)
	mv	a0,a5
	call	FreePool@plt
	.loc 1 3524 12
	la	a5,gBS
	ld	a5,0(a5)
	ld	a5,192(a5)
	.loc 1 3524 9
	li	a1,0
	la	a0,gEfiHiiConfigRoutingProtocolGuid
	jalr	a5
.LVL1:
	.loc 1 3525 16
	li	a5,-1
	slli	a5,a5,63
	addi	a5,a5,9
	j	.L483
.L479:
	.loc 1 3528 7
	lla	a5,gRTConfigRespBuffer
	ld	a4,0(a5)
	lla	a5,gConfigRespSize
	ld	a5,0(a5)
	mv	a1,a5
	mv	a0,a4
	call	ZeroMem@plt
.L481:
	.loc 1 3531 5
	lla	a5,gRTConfigRespBuffer
	ld	a5,0(a5)
	ld	a4,-48(s0)
	ld	a2,-32(s0)
	mv	a1,a4
	mv	a0,a5
	call	CopyMem@plt
	.loc 1 3532 8
	la	a5,gBS
	ld	a5,0(a5)
	ld	a5,192(a5)
	.loc 1 3532 5
	lla	a4,gRTConfigRespBuffer
	ld	a4,0(a4)
	mv	a1,a4
	la	a0,gEfiHiiConfigRoutingProtocolGuid
	jalr	a5
.LVL2:
	.loc 1 3533 5
	ld	a5,-48(s0)
	mv	a0,a5
	call	FreePool@plt
.L478:
	.loc 1 3536 10
	li	a5,0
.L483:
	.loc 1 3537 1
	mv	a0,a5
	ld	ra,56(sp)
	.cfi_restore 1
	ld	s0,48(sp)
	.cfi_restore 8
	.cfi_def_cfa 2, 64
	addi	sp,sp,64
	.cfi_def_cfa_offset 0
	jr	ra
	.cfi_endproc
.LFE36:
	.size	HiiGetConfigRespInfo, .-HiiGetConfigRespInfo
	.section	.text.HiiGetDatabaseInfo,"ax",@progbits
	.align	1
	.globl	HiiGetDatabaseInfo
	.type	HiiGetDatabaseInfo, @function
HiiGetDatabaseInfo:
.LFB37:
	.loc 1 3552 1
	.cfi_startproc
	addi	sp,sp,-64
	.cfi_def_cfa_offset 64
	sd	ra,56(sp)
	sd	s0,48(sp)
	.cfi_offset 1, -8
	.cfi_offset 8, -16
	addi	s0,sp,64
	.cfi_def_cfa 8, 0
	sd	a0,-56(s0)
	.loc 1 3557 16
	sd	zero,-24(s0)
	.loc 1 3558 20
	sd	zero,-40(s0)
	.loc 1 3563 12
	addi	a5,s0,-40
	ld	a3,-24(s0)
	mv	a2,a5
	li	a1,0
	ld	a0,-56(s0)
	call	HiiExportPackageLists
	sd	a0,-32(s0)
	.loc 1 3567 24
	ld	a4,-40(s0)
	lla	a5,gDatabaseInfoSize
	ld	a5,0(a5)
	.loc 1 3567 6
	bleu	a4,a5,.L485
	.loc 1 3572 62
	ld	a5,-40(s0)
	srli	a4,a5,2
	.loc 1 3572 42
	ld	a5,-40(s0)
	add	a4,a4,a5
	.loc 1 3572 23
	lla	a5,gDatabaseInfoSize
	sd	a4,0(a5)
	.loc 1 3573 31
	lla	a5,gRTDatabaseInfoBuffer
	ld	a5,0(a5)
	.loc 1 3573 8
	beq	a5,zero,.L486
	.loc 1 3574 7
	lla	a5,gRTDatabaseInfoBuffer
	ld	a5,0(a5)
	mv	a0,a5
	call	FreePool@plt
.L486:
	.loc 1 3578 29
	lla	a5,gDatabaseInfoSize
	ld	a5,0(a5)
	mv	a0,a5
	call	AllocateRuntimeZeroPool@plt
	mv	a4,a0
	.loc 1 3578 27 discriminator 1
	lla	a5,gRTDatabaseInfoBuffer
	sd	a4,0(a5)
	.loc 1 3579 31
	lla	a5,gRTDatabaseInfoBuffer
	ld	a5,0(a5)
	.loc 1 3579 8
	bne	a5,zero,.L487
	.loc 1 3584 10
	la	a5,gBS
	ld	a5,0(a5)
	ld	a5,192(a5)
	.loc 1 3584 7
	li	a1,0
	la	a0,gEfiHiiDatabaseProtocolGuid
	jalr	a5
.LVL3:
	.loc 1 3585 14
	li	a5,-1
	slli	a5,a5,63
	addi	a5,a5,9
	j	.L489
.L485:
	.loc 1 3588 5
	lla	a5,gRTDatabaseInfoBuffer
	ld	a4,0(a5)
	lla	a5,gDatabaseInfoSize
	ld	a5,0(a5)
	mv	a1,a5
	mv	a0,a4
	call	ZeroMem@plt
.L487:
	.loc 1 3591 12
	lla	a5,gRTDatabaseInfoBuffer
	ld	a4,0(a5)
	addi	a5,s0,-40
	mv	a3,a4
	mv	a2,a5
	li	a1,0
	ld	a0,-56(s0)
	call	HiiExportPackageLists
	sd	a0,-32(s0)
	.loc 1 3593 6
	la	a5,gBS
	ld	a5,0(a5)
	ld	a5,192(a5)
	.loc 1 3593 3
	lla	a4,gRTDatabaseInfoBuffer
	ld	a4,0(a4)
	mv	a1,a4
	la	a0,gEfiHiiDatabaseProtocolGuid
	jalr	a5
.LVL4:
	.loc 1 3595 10
	li	a5,0
.L489:
	.loc 1 3596 1
	mv	a0,a5
	ld	ra,56(sp)
	.cfi_restore 1
	ld	s0,48(sp)
	.cfi_restore 8
	.cfi_def_cfa 2, 64
	addi	sp,sp,64
	.cfi_def_cfa_offset 0
	jr	ra
	.cfi_endproc
.LFE37:
	.size	HiiGetDatabaseInfo, .-HiiGetDatabaseInfo
	.section	.text.HiiNewPackageList,"ax",@progbits
	.align	1
	.globl	HiiNewPackageList
	.type	HiiNewPackageList, @function
HiiNewPackageList:
.LFB38:
	.loc 1 3628 1
	.cfi_startproc
	addi	sp,sp,-112
	.cfi_def_cfa_offset 112
	sd	ra,104(sp)
	sd	s0,96(sp)
	.cfi_offset 1, -8
	.cfi_offset 8, -16
	addi	s0,sp,112
	.cfi_def_cfa 8, 0
	sd	a0,-88(s0)
	sd	a1,-96(s0)
	sd	a2,-104(s0)
	sd	a3,-112(s0)
	.loc 1 3636 6
	ld	a5,-88(s0)
	beq	a5,zero,.L491
	.loc 1 3636 30 discriminator 1
	ld	a5,-96(s0)
	beq	a5,zero,.L491
	.loc 1 3636 63 discriminator 2
	ld	a5,-112(s0)
	bne	a5,zero,.L492
.L491:
	.loc 1 3637 12
	li	a5,-1
	slli	a5,a5,63
	addi	a5,a5,2
	j	.L506
.L492:
	.loc 1 3640 15
	ld	a5,-88(s0)
	addi	a5,a5,-200
	.loc 1 3640 144
	ld	a4,0(a5)
	.loc 1 3640 229
	li	a5,1883533312
	addi	a5,a5,-1720
	bne	a4,a5,.L494
	.loc 1 3640 11 discriminator 1
	ld	a5,-88(s0)
	addi	a5,a5,-200
	sd	a5,-24(s0)
	j	.L495
.L494:
	.loc 1 3640 11 is_stmt 0 discriminator 2
	sd	zero,-24(s0)
.L495:
	.loc 1 3641 3 is_stmt 1
	addi	a5,s0,-72
	li	a2,16
	ld	a1,-96(s0)
	mv	a0,a5
	call	CopyMem@plt
	.loc 1 3646 13
	ld	a5,-24(s0)
	ld	a5,8(a5)
	sd	a5,-32(s0)
	.loc 1 3646 3
	j	.L496
.L500:
	.loc 1 3647 24
	ld	a5,-32(s0)
	addi	a5,a5,-32
	.loc 1 3647 143
	ld	a4,0(a5)
	.loc 1 3647 228
	li	a5,1919184896
	addi	a5,a5,-1688
	bne	a4,a5,.L497
	.loc 1 3647 228 is_stmt 0 discriminator 1
	ld	a5,-32(s0)
	addi	a5,a5,-32
	j	.L498
.L497:
	.loc 1 3647 228 discriminator 2
	li	a5,0
.L498:
	.loc 1 3647 20 is_stmt 1 discriminator 4
	sd	a5,-48(s0)
	.loc 1 3649 27
	ld	a5,-48(s0)
	ld	a5,8(a5)
	.loc 1 3649 11
	mv	a4,a5
	.loc 1 3648 9
	addi	a5,s0,-72
	mv	a1,a5
	mv	a0,a4
	call	CompareGuid@plt
	mv	a5,a0
	.loc 1 3648 8 discriminator 1
	beq	a5,zero,.L499
	.loc 1 3652 24
	ld	a5,-48(s0)
	ld	a5,16(a5)
	.loc 1 3651 13
	ld	a4,-104(s0)
	bne	a4,a5,.L499
	.loc 1 3654 14
	li	a5,-1
	slli	a5,a5,63
	addi	a5,a5,2
	j	.L506
.L499:
	.loc 1 3646 87 discriminator 2
	ld	a5,-32(s0)
	ld	a5,0(a5)
	sd	a5,-32(s0)
.L496:
	.loc 1 3646 58 discriminator 1
	ld	a5,-24(s0)
	addi	a5,a5,8
	.loc 1 3646 55 discriminator 1
	ld	a4,-32(s0)
	bne	a4,a5,.L500
	.loc 1 3658 3
	lla	a0,mHiiDatabaseLock
	call	EfiAcquireLock@plt
	.loc 1 3663 12
	addi	a5,s0,-48
	mv	a1,a5
	ld	a0,-24(s0)
	call	GenerateHiiDatabaseRecord
	sd	a0,-40(s0)
	.loc 1 3664 34
	ld	a5,-40(s0)
	.loc 1 3664 6
	bge	a5,zero,.L501
	.loc 1 3665 5
	lla	a0,mHiiDatabaseLock
	call	EfiReleaseLock@plt
	.loc 1 3666 12
	ld	a5,-40(s0)
	j	.L506
.L501:
	.loc 1 3673 12
	ld	a5,-48(s0)
	mv	a3,a5
	ld	a2,-96(s0)
	li	a1,1
	ld	a0,-24(s0)
	call	AddPackages
	sd	a0,-40(s0)
	.loc 1 3674 34
	ld	a5,-40(s0)
	.loc 1 3674 6
	bge	a5,zero,.L502
	.loc 1 3675 5
	lla	a0,mHiiDatabaseLock
	call	EfiReleaseLock@plt
	.loc 1 3676 12
	ld	a5,-40(s0)
	j	.L506
.L502:
	.loc 1 3679 17
	ld	a5,-48(s0)
	.loc 1 3679 32
	ld	a4,-104(s0)
	sd	a4,16(a5)
	.loc 1 3684 15
	la	a5,gBS
	ld	a5,0(a5)
	ld	a5,152(a5)
	.loc 1 3684 12
	addi	a4,s0,-56
	mv	a2,a4
	la	a1,gEfiDevicePathProtocolGuid
	ld	a0,-104(s0)
	jalr	a5
.LVL5:
	sd	a0,-40(s0)
	.loc 1 3689 7
	ld	a5,-40(s0)
	.loc 1 3689 6
	blt	a5,zero,.L503
	.loc 1 3690 14
	ld	a5,-56(s0)
	ld	a4,-48(s0)
	mv	a3,a4
	mv	a2,a5
	li	a1,1
	ld	a0,-24(s0)
	call	AddDevicePathPackage
	sd	a0,-40(s0)
.L503:
	.loc 1 3694 27
	ld	a5,-48(s0)
	ld	a4,24(a5)
	.loc 1 3694 11
	ld	a5,-112(s0)
	sd	a4,0(a5)
	.loc 1 3700 7
	la	a5,gExportAfterReadyToBoot
	lbu	a5,0(a5)
	.loc 1 3700 6
	beq	a5,zero,.L504
	.loc 1 3701 5
	ld	a0,-88(s0)
	call	HiiGetDatabaseInfo
.L504:
	.loc 1 3704 3
	lla	a0,mHiiDatabaseLock
	call	EfiReleaseLock@plt
	.loc 1 3718 7
	la	a5,gExportAfterReadyToBoot
	lbu	a5,0(a5)
	.loc 1 3718 6
	beq	a5,zero,.L505
	.loc 1 3718 31 discriminator 1
	lla	a5,gExportConfigResp
	lbu	a5,0(a5)
	beq	a5,zero,.L505
	.loc 1 3719 5
	ld	a0,-88(s0)
	call	HiiGetConfigRespInfo
.L505:
	.loc 1 3722 10
	li	a5,0
.L506:
	.loc 1 3723 1
	mv	a0,a5
	ld	ra,104(sp)
	.cfi_restore 1
	ld	s0,96(sp)
	.cfi_restore 8
	.cfi_def_cfa 2, 112
	addi	sp,sp,112
	.cfi_def_cfa_offset 0
	jr	ra
	.cfi_endproc
.LFE38:
	.size	HiiNewPackageList, .-HiiNewPackageList
	.section	.text.HiiRemovePackageList,"ax",@progbits
	.align	1
	.globl	HiiRemovePackageList
	.type	HiiRemovePackageList, @function
HiiRemovePackageList:
.LFB39:
	.loc 1 3747 1
	.cfi_startproc
	addi	sp,sp,-80
	.cfi_def_cfa_offset 80
	sd	ra,72(sp)
	sd	s0,64(sp)
	.cfi_offset 1, -8
	.cfi_offset 8, -16
	addi	s0,sp,80
	.cfi_def_cfa 8, 0
	sd	a0,-72(s0)
	sd	a1,-80(s0)
	.loc 1 3755 6
	ld	a5,-72(s0)
	bne	a5,zero,.L508
	.loc 1 3756 12
	li	a5,-1
	slli	a5,a5,63
	addi	a5,a5,2
	j	.L509
.L508:
	.loc 1 3759 8
	ld	a0,-80(s0)
	call	IsHiiHandleValid
	mv	a5,a0
	.loc 1 3759 6 discriminator 1
	bne	a5,zero,.L510
	.loc 1 3760 12
	li	a5,-1
	slli	a5,a5,63
	addi	a5,a5,14
	j	.L509
.L510:
	.loc 1 3763 3
	lla	a0,mHiiDatabaseLock
	call	EfiAcquireLock@plt
	.loc 1 3765 15
	ld	a5,-72(s0)
	addi	a5,a5,-200
	.loc 1 3765 144
	ld	a4,0(a5)
	.loc 1 3765 229
	li	a5,1883533312
	addi	a5,a5,-1720
	bne	a4,a5,.L511
	.loc 1 3765 11 discriminator 1
	ld	a5,-72(s0)
	addi	a5,a5,-200
	sd	a5,-24(s0)
	j	.L512
.L511:
	.loc 1 3765 11 is_stmt 0 discriminator 2
	sd	zero,-24(s0)
.L512:
	.loc 1 3770 13 is_stmt 1
	ld	a5,-24(s0)
	ld	a5,8(a5)
	sd	a5,-32(s0)
	.loc 1 3770 3
	j	.L513
.L527:
	.loc 1 3771 14
	ld	a5,-32(s0)
	addi	a5,a5,-32
	.loc 1 3771 133
	ld	a4,0(a5)
	.loc 1 3771 218
	li	a5,1919184896
	addi	a5,a5,-1688
	bne	a4,a5,.L514
	.loc 1 3771 10 discriminator 1
	ld	a5,-32(s0)
	addi	a5,a5,-32
	sd	a5,-40(s0)
	j	.L515
.L514:
	.loc 1 3771 10 is_stmt 0 discriminator 2
	sd	zero,-40(s0)
.L515:
	.loc 1 3772 13 is_stmt 1
	ld	a5,-40(s0)
	ld	a5,24(a5)
	.loc 1 3772 8
	ld	a4,-80(s0)
	bne	a4,a5,.L516
	.loc 1 3773 19
	ld	a5,-40(s0)
	ld	a5,8(a5)
	sd	a5,-48(s0)
	.loc 1 3780 16
	ld	a2,-48(s0)
	ld	a1,-80(s0)
	ld	a0,-24(s0)
	call	RemoveGuidPackages
	sd	a0,-56(s0)
	.loc 1 3781 38
	ld	a5,-56(s0)
	.loc 1 3781 10
	bge	a5,zero,.L517
	.loc 1 3782 9
	lla	a0,mHiiDatabaseLock
	call	EfiReleaseLock@plt
	.loc 1 3783 16
	ld	a5,-56(s0)
	j	.L509
.L517:
	.loc 1 3786 16
	ld	a2,-48(s0)
	ld	a1,-80(s0)
	ld	a0,-24(s0)
	call	RemoveFormPackages
	sd	a0,-56(s0)
	.loc 1 3787 38
	ld	a5,-56(s0)
	.loc 1 3787 10
	bge	a5,zero,.L518
	.loc 1 3788 9
	lla	a0,mHiiDatabaseLock
	call	EfiReleaseLock@plt
	.loc 1 3789 16
	ld	a5,-56(s0)
	j	.L509
.L518:
	.loc 1 3792 16
	ld	a2,-48(s0)
	ld	a1,-80(s0)
	ld	a0,-24(s0)
	call	RemoveKeyboardLayoutPackages
	sd	a0,-56(s0)
	.loc 1 3793 38
	ld	a5,-56(s0)
	.loc 1 3793 10
	bge	a5,zero,.L519
	.loc 1 3794 9
	lla	a0,mHiiDatabaseLock
	call	EfiReleaseLock@plt
	.loc 1 3795 16
	ld	a5,-56(s0)
	j	.L509
.L519:
	.loc 1 3798 16
	ld	a2,-48(s0)
	ld	a1,-80(s0)
	ld	a0,-24(s0)
	call	RemoveStringPackages
	sd	a0,-56(s0)
	.loc 1 3799 38
	ld	a5,-56(s0)
	.loc 1 3799 10
	bge	a5,zero,.L520
	.loc 1 3800 9
	lla	a0,mHiiDatabaseLock
	call	EfiReleaseLock@plt
	.loc 1 3801 16
	ld	a5,-56(s0)
	j	.L509
.L520:
	.loc 1 3804 16
	ld	a2,-48(s0)
	ld	a1,-80(s0)
	ld	a0,-24(s0)
	call	RemoveFontPackages
	sd	a0,-56(s0)
	.loc 1 3805 38
	ld	a5,-56(s0)
	.loc 1 3805 10
	bge	a5,zero,.L521
	.loc 1 3806 9
	lla	a0,mHiiDatabaseLock
	call	EfiReleaseLock@plt
	.loc 1 3807 16
	ld	a5,-56(s0)
	j	.L509
.L521:
	.loc 1 3810 16
	ld	a2,-48(s0)
	ld	a1,-80(s0)
	ld	a0,-24(s0)
	call	RemoveImagePackages
	sd	a0,-56(s0)
	.loc 1 3811 38
	ld	a5,-56(s0)
	.loc 1 3811 10
	bge	a5,zero,.L522
	.loc 1 3812 9
	lla	a0,mHiiDatabaseLock
	call	EfiReleaseLock@plt
	.loc 1 3813 16
	ld	a5,-56(s0)
	j	.L509
.L522:
	.loc 1 3816 16
	ld	a2,-48(s0)
	ld	a1,-80(s0)
	ld	a0,-24(s0)
	call	RemoveSimpleFontPackages
	sd	a0,-56(s0)
	.loc 1 3817 38
	ld	a5,-56(s0)
	.loc 1 3817 10
	bge	a5,zero,.L523
	.loc 1 3818 9
	lla	a0,mHiiDatabaseLock
	call	EfiReleaseLock@plt
	.loc 1 3819 16
	ld	a5,-56(s0)
	j	.L509
.L523:
	.loc 1 3822 16
	ld	a2,-48(s0)
	ld	a1,-80(s0)
	ld	a0,-24(s0)
	call	RemoveDevicePathPackage
	sd	a0,-56(s0)
	.loc 1 3823 38
	ld	a5,-56(s0)
	.loc 1 3823 10
	bge	a5,zero,.L524
	.loc 1 3824 9
	lla	a0,mHiiDatabaseLock
	call	EfiReleaseLock@plt
	.loc 1 3825 16
	ld	a5,-56(s0)
	j	.L509
.L524:
	.loc 1 3831 24
	ld	a5,-40(s0)
	addi	a5,a5,32
	.loc 1 3831 7
	mv	a0,a5
	call	RemoveEntryList@plt
	.loc 1 3833 17
	ld	a5,-80(s0)
	sd	a5,-64(s0)
	.loc 1 3834 24
	ld	a5,-64(s0)
	addi	a5,a5,8
	.loc 1 3834 7
	mv	a0,a5
	call	RemoveEntryList@plt
	.loc 1 3835 14
	ld	a5,-24(s0)
	ld	a5,368(a5)
	.loc 1 3835 30
	addi	a4,a5,-1
	ld	a5,-24(s0)
	sd	a4,368(a5)
	.loc 1 3838 28
	ld	a5,-64(s0)
	sd	zero,0(a5)
	.loc 1 3839 7
	ld	a0,-64(s0)
	call	FreePool@plt
	.loc 1 3840 21
	ld	a5,-40(s0)
	ld	a5,8(a5)
	.loc 1 3840 7
	mv	a0,a5
	call	FreePool@plt
	.loc 1 3841 7
	ld	a0,-40(s0)
	call	FreePool@plt
	.loc 1 3847 11
	la	a5,gExportAfterReadyToBoot
	lbu	a5,0(a5)
	.loc 1 3847 10
	beq	a5,zero,.L525
	.loc 1 3848 9
	ld	a0,-72(s0)
	call	HiiGetDatabaseInfo
.L525:
	.loc 1 3851 7
	lla	a0,mHiiDatabaseLock
	call	EfiReleaseLock@plt
	.loc 1 3866 11
	la	a5,gExportAfterReadyToBoot
	lbu	a5,0(a5)
	.loc 1 3866 10
	beq	a5,zero,.L526
	.loc 1 3866 35 discriminator 1
	lla	a5,gExportConfigResp
	lbu	a5,0(a5)
	beq	a5,zero,.L526
	.loc 1 3867 9
	ld	a0,-72(s0)
	call	HiiGetConfigRespInfo
.L526:
	.loc 1 3870 14
	li	a5,0
	j	.L509
.L516:
	.loc 1 3770 87 discriminator 2
	ld	a5,-32(s0)
	ld	a5,0(a5)
	sd	a5,-32(s0)
.L513:
	.loc 1 3770 58 discriminator 1
	ld	a5,-24(s0)
	addi	a5,a5,8
	.loc 1 3770 55 discriminator 1
	ld	a4,-32(s0)
	bne	a4,a5,.L527
	.loc 1 3874 3
	lla	a0,mHiiDatabaseLock
	call	EfiReleaseLock@plt
	.loc 1 3875 10
	li	a5,-1
	slli	a5,a5,63
	addi	a5,a5,14
.L509:
	.loc 1 3876 1
	mv	a0,a5
	ld	ra,72(sp)
	.cfi_restore 1
	ld	s0,64(sp)
	.cfi_restore 8
	.cfi_def_cfa 2, 80
	addi	sp,sp,80
	.cfi_def_cfa_offset 0
	jr	ra
	.cfi_endproc
.LFE39:
	.size	HiiRemovePackageList, .-HiiRemovePackageList
	.section	.text.HiiUpdatePackageList,"ax",@progbits
	.align	1
	.globl	HiiUpdatePackageList
	.type	HiiUpdatePackageList, @function
HiiUpdatePackageList:
.LFB40:
	.loc 1 3903 1
	.cfi_startproc
	addi	sp,sp,-112
	.cfi_def_cfa_offset 112
	sd	ra,104(sp)
	sd	s0,96(sp)
	.cfi_offset 1, -8
	.cfi_offset 8, -16
	addi	s0,sp,112
	.cfi_def_cfa 8, 0
	sd	a0,-88(s0)
	sd	a1,-96(s0)
	sd	a2,-104(s0)
	.loc 1 3912 6
	ld	a5,-88(s0)
	beq	a5,zero,.L529
	.loc 1 3912 30 discriminator 1
	ld	a5,-104(s0)
	bne	a5,zero,.L530
.L529:
	.loc 1 3913 12
	li	a5,-1
	slli	a5,a5,63
	addi	a5,a5,2
	j	.L554
.L530:
	.loc 1 3916 8
	ld	a0,-96(s0)
	call	IsHiiHandleValid
	mv	a5,a0
	.loc 1 3916 6 discriminator 1
	bne	a5,zero,.L532
	.loc 1 3917 12
	li	a5,-1
	slli	a5,a5,63
	addi	a5,a5,14
	j	.L554
.L532:
	.loc 1 3920 15
	ld	a5,-88(s0)
	addi	a5,a5,-200
	.loc 1 3920 144
	ld	a4,0(a5)
	.loc 1 3920 229
	li	a5,1883533312
	addi	a5,a5,-1720
	bne	a4,a5,.L533
	.loc 1 3920 11 discriminator 1
	ld	a5,-88(s0)
	addi	a5,a5,-200
	sd	a5,-32(s0)
	j	.L534
.L533:
	.loc 1 3920 11 is_stmt 0 discriminator 2
	sd	zero,-32(s0)
.L534:
	.loc 1 3922 17 is_stmt 1
	ld	a5,-104(s0)
	addi	a5,a5,20
	sd	a5,-56(s0)
	.loc 1 3924 10
	sd	zero,-24(s0)
	.loc 1 3926 3
	lla	a0,mHiiDatabaseLock
	call	EfiAcquireLock@plt
	.loc 1 3930 13
	ld	a5,-32(s0)
	ld	a5,8(a5)
	sd	a5,-40(s0)
	.loc 1 3930 3
	j	.L535
.L553:
	.loc 1 3931 14
	ld	a5,-40(s0)
	addi	a5,a5,-32
	.loc 1 3931 133
	ld	a4,0(a5)
	.loc 1 3931 218
	li	a5,1919184896
	addi	a5,a5,-1688
	bne	a4,a5,.L536
	.loc 1 3931 10 discriminator 1
	ld	a5,-40(s0)
	addi	a5,a5,-32
	sd	a5,-48(s0)
	j	.L537
.L536:
	.loc 1 3931 10 is_stmt 0 discriminator 2
	sd	zero,-48(s0)
.L537:
	.loc 1 3932 13 is_stmt 1
	ld	a5,-48(s0)
	ld	a5,24(a5)
	.loc 1 3932 8
	ld	a4,-96(s0)
	bne	a4,a5,.L538
	.loc 1 3933 22
	ld	a5,-48(s0)
	ld	a5,8(a5)
	sd	a5,-64(s0)
	.loc 1 3938 7
	addi	a5,s0,-72
	li	a2,4
	ld	a1,-56(s0)
	mv	a0,a5
	call	CopyMem@plt
	.loc 1 3939 13
	j	.L539
.L550:
	.loc 1 3940 30
	lbu	a5,-69(s0)
	sext.w	a5,a5
	.loc 1 3940 9
	li	a4,9
	beq	a5,a4,.L540
	li	a4,9
	bgt	a5,a4,.L541
	li	a4,8
	beq	a5,a4,.L542
	li	a4,8
	bgt	a5,a4,.L541
	li	a4,7
	beq	a5,a4,.L543
	li	a4,7
	bgt	a5,a4,.L541
	li	a4,6
	beq	a5,a4,.L544
	li	a4,6
	bgt	a5,a4,.L541
	li	a4,5
	beq	a5,a4,.L545
	li	a4,5
	bgt	a5,a4,.L541
	li	a4,4
	beq	a5,a4,.L546
	li	a4,4
	bgt	a5,a4,.L541
	li	a4,1
	beq	a5,a4,.L547
	li	a4,2
	beq	a5,a4,.L548
	j	.L541
.L547:
	.loc 1 3942 22
	ld	a2,-64(s0)
	ld	a1,-96(s0)
	ld	a0,-32(s0)
	call	RemoveGuidPackages
	sd	a0,-24(s0)
	.loc 1 3943 13
	j	.L541
.L548:
	.loc 1 3945 22
	ld	a2,-64(s0)
	ld	a1,-96(s0)
	ld	a0,-32(s0)
	call	RemoveFormPackages
	sd	a0,-24(s0)
	.loc 1 3946 13
	j	.L541
.L540:
	.loc 1 3948 22
	ld	a2,-64(s0)
	ld	a1,-96(s0)
	ld	a0,-32(s0)
	call	RemoveKeyboardLayoutPackages
	sd	a0,-24(s0)
	.loc 1 3949 13
	j	.L541
.L546:
	.loc 1 3951 22
	ld	a2,-64(s0)
	ld	a1,-96(s0)
	ld	a0,-32(s0)
	call	RemoveStringPackages
	sd	a0,-24(s0)
	.loc 1 3952 13
	j	.L541
.L545:
	.loc 1 3954 22
	ld	a2,-64(s0)
	ld	a1,-96(s0)
	ld	a0,-32(s0)
	call	RemoveFontPackages
	sd	a0,-24(s0)
	.loc 1 3955 13
	j	.L541
.L544:
	.loc 1 3957 22
	ld	a2,-64(s0)
	ld	a1,-96(s0)
	ld	a0,-32(s0)
	call	RemoveImagePackages
	sd	a0,-24(s0)
	.loc 1 3958 13
	j	.L541
.L543:
	.loc 1 3960 22
	ld	a2,-64(s0)
	ld	a1,-96(s0)
	ld	a0,-32(s0)
	call	RemoveSimpleFontPackages
	sd	a0,-24(s0)
	.loc 1 3961 13
	j	.L541
.L542:
	.loc 1 3963 22
	ld	a2,-64(s0)
	ld	a1,-96(s0)
	ld	a0,-32(s0)
	call	RemoveDevicePathPackage
	sd	a0,-24(s0)
	.loc 1 3964 13
	nop
.L541:
	.loc 1 3967 40
	ld	a5,-24(s0)
	.loc 1 3967 12
	bge	a5,zero,.L549
	.loc 1 3968 11
	lla	a0,mHiiDatabaseLock
	call	EfiReleaseLock@plt
	.loc 1 3969 18
	ld	a5,-24(s0)
	j	.L554
.L549:
	.loc 1 3972 90
	ld	a5,-72(s0)
	mv	a4,a5
	li	a5,16777216
	addi	a5,a5,-1
	and	a5,a4,a5
	sext.w	a5,a5
	slli	a5,a5,32
	srli	a5,a5,32
	.loc 1 3972 23
	ld	a4,-56(s0)
	add	a5,a4,a5
	sd	a5,-56(s0)
	.loc 1 3973 9
	addi	a5,s0,-72
	li	a2,4
	ld	a1,-56(s0)
	mv	a0,a5
	call	CopyMem@plt
.L539:
	.loc 1 3939 27
	lbu	a5,-69(s0)
	.loc 1 3939 33
	mv	a4,a5
	li	a5,223
	bne	a4,a5,.L550
	.loc 1 3979 16
	ld	a3,-48(s0)
	ld	a2,-104(s0)
	li	a1,8
	ld	a0,-32(s0)
	call	AddPackages
	sd	a0,-24(s0)
	.loc 1 3985 11
	la	a5,gExportAfterReadyToBoot
	lbu	a5,0(a5)
	.loc 1 3985 10
	beq	a5,zero,.L551
	.loc 1 3985 35 discriminator 1
	ld	a5,-24(s0)
	bne	a5,zero,.L551
	.loc 1 3986 9
	ld	a0,-88(s0)
	call	HiiGetDatabaseInfo
.L551:
	.loc 1 3989 7
	lla	a0,mHiiDatabaseLock
	call	EfiReleaseLock@plt
	.loc 1 4004 11
	la	a5,gExportAfterReadyToBoot
	lbu	a5,0(a5)
	.loc 1 4004 10
	beq	a5,zero,.L552
	.loc 1 4004 35 discriminator 1
	lla	a5,gExportConfigResp
	lbu	a5,0(a5)
	beq	a5,zero,.L552
	.loc 1 4004 56 discriminator 2
	ld	a5,-24(s0)
	bne	a5,zero,.L552
	.loc 1 4005 9
	ld	a0,-88(s0)
	call	HiiGetConfigRespInfo
.L552:
	.loc 1 4008 14
	ld	a5,-24(s0)
	j	.L554
.L538:
	.loc 1 3930 87 discriminator 2
	ld	a5,-40(s0)
	ld	a5,0(a5)
	sd	a5,-40(s0)
.L535:
	.loc 1 3930 58 discriminator 1
	ld	a5,-32(s0)
	addi	a5,a5,8
	.loc 1 3930 55 discriminator 1
	ld	a4,-40(s0)
	bne	a4,a5,.L553
	.loc 1 4012 3
	lla	a0,mHiiDatabaseLock
	call	EfiReleaseLock@plt
	.loc 1 4013 10
	li	a5,-1
	slli	a5,a5,63
	addi	a5,a5,14
.L554:
	.loc 1 4014 1
	mv	a0,a5
	ld	ra,104(sp)
	.cfi_restore 1
	ld	s0,96(sp)
	.cfi_restore 8
	.cfi_def_cfa 2, 112
	addi	sp,sp,112
	.cfi_def_cfa_offset 0
	jr	ra
	.cfi_endproc
.LFE40:
	.size	HiiUpdatePackageList, .-HiiUpdatePackageList
	.section	.text.HiiListPackageLists,"ax",@progbits
	.align	1
	.globl	HiiListPackageLists
	.type	HiiListPackageLists, @function
HiiListPackageLists:
.LFB41:
	.loc 1 4059 1
	.cfi_startproc
	addi	sp,sp,-144
	.cfi_def_cfa_offset 144
	sd	ra,136(sp)
	sd	s0,128(sp)
	.cfi_offset 1, -8
	.cfi_offset 8, -16
	addi	s0,sp,144
	.cfi_def_cfa 8, 0
	sd	a0,-104(s0)
	mv	a5,a1
	sd	a2,-120(s0)
	sd	a3,-128(s0)
	sd	a4,-136(s0)
	sb	a5,-105(s0)
	.loc 1 4073 6
	ld	a5,-104(s0)
	beq	a5,zero,.L556
	.loc 1 4073 30 discriminator 1
	ld	a5,-128(s0)
	bne	a5,zero,.L557
.L556:
	.loc 1 4074 12
	li	a5,-1
	slli	a5,a5,63
	addi	a5,a5,2
	j	.L558
.L557:
	.loc 1 4077 8
	ld	a5,-128(s0)
	ld	a5,0(a5)
	.loc 1 4077 6
	beq	a5,zero,.L559
	.loc 1 4077 33 discriminator 1
	ld	a5,-136(s0)
	bne	a5,zero,.L559
	.loc 1 4078 12
	li	a5,-1
	slli	a5,a5,63
	addi	a5,a5,2
	j	.L558
.L559:
	.loc 1 4081 6
	lbu	a5,-105(s0)
	andi	a4,a5,0xff
	li	a5,1
	bne	a4,a5,.L560
	.loc 1 4081 30 discriminator 1
	ld	a5,-120(s0)
	beq	a5,zero,.L561
.L560:
	.loc 1 4081 64 discriminator 3
	lbu	a5,-105(s0)
	andi	a4,a5,0xff
	li	a5,1
	beq	a4,a5,.L562
	.loc 1 4082 30
	ld	a5,-120(s0)
	beq	a5,zero,.L562
.L561:
	.loc 1 4084 12
	li	a5,-1
	slli	a5,a5,63
	addi	a5,a5,2
	j	.L558
.L562:
	.loc 1 4087 15
	ld	a5,-104(s0)
	addi	a5,a5,-200
	.loc 1 4087 144
	ld	a4,0(a5)
	.loc 1 4087 229
	li	a5,1883533312
	addi	a5,a5,-1720
	bne	a4,a5,.L563
	.loc 1 4087 11 discriminator 1
	ld	a5,-104(s0)
	addi	a5,a5,-200
	sd	a5,-32(s0)
	j	.L564
.L563:
	.loc 1 4087 11 is_stmt 0 discriminator 2
	sd	zero,-32(s0)
.L564:
	.loc 1 4088 11 is_stmt 1
	sb	zero,-49(s0)
	.loc 1 4089 10
	ld	a5,-136(s0)
	sd	a5,-64(s0)
	.loc 1 4090 14
	sd	zero,-72(s0)
	.loc 1 4092 13
	ld	a5,-32(s0)
	ld	a5,8(a5)
	sd	a5,-48(s0)
	.loc 1 4092 3
	j	.L565
.L592:
	.loc 1 4093 14
	ld	a5,-48(s0)
	addi	a5,a5,-32
	.loc 1 4093 133
	ld	a4,0(a5)
	.loc 1 4093 218
	li	a5,1919184896
	addi	a5,a5,-1688
	bne	a4,a5,.L566
	.loc 1 4093 10 discriminator 1
	ld	a5,-48(s0)
	addi	a5,a5,-32
	sd	a5,-40(s0)
	j	.L567
.L566:
	.loc 1 4093 10 is_stmt 0 discriminator 2
	sd	zero,-40(s0)
.L567:
	.loc 1 4094 17 is_stmt 1
	ld	a5,-40(s0)
	ld	a5,8(a5)
	sd	a5,-88(s0)
	.loc 1 4095 5
	lbu	a5,-105(s0)
	sext.w	a5,a5
	li	a4,9
	beq	a5,a4,.L568
	li	a4,9
	bgt	a5,a4,.L595
	li	a4,8
	beq	a5,a4,.L570
	li	a4,8
	bgt	a5,a4,.L595
	li	a4,7
	beq	a5,a4,.L571
	li	a4,7
	bgt	a5,a4,.L595
	li	a4,6
	beq	a5,a4,.L572
	li	a4,6
	bgt	a5,a4,.L595
	li	a4,5
	beq	a5,a4,.L573
	li	a4,5
	bgt	a5,a4,.L595
	li	a4,4
	beq	a5,a4,.L574
	li	a4,4
	bgt	a5,a4,.L595
	li	a4,2
	beq	a5,a4,.L575
	li	a4,2
	bgt	a5,a4,.L595
	beq	a5,zero,.L576
	li	a4,1
	bne	a5,a4,.L595
	.loc 1 4097 20
	ld	a5,-88(s0)
	ld	a5,24(a5)
	sd	a5,-80(s0)
	.loc 1 4097 9
	j	.L577
.L582:
	.loc 1 4098 27
	ld	a5,-80(s0)
	addi	a5,a5,-16
	.loc 1 4098 155
	ld	a4,0(a5)
	.loc 1 4098 240
	li	a5,1885827072
	addi	a5,a5,-1688
	bne	a4,a5,.L578
	.loc 1 4098 23 discriminator 1
	ld	a5,-80(s0)
	addi	a5,a5,-16
	sd	a5,-24(s0)
	j	.L579
.L578:
	.loc 1 4098 23 is_stmt 0 discriminator 2
	sd	zero,-24(s0)
.L579:
	.loc 1 4101 41 is_stmt 1
	ld	a5,-24(s0)
	ld	a5,8(a5)
	.loc 1 4101 51
	addi	a5,a5,4
	.loc 1 4099 15
	mv	a1,a5
	ld	a0,-120(s0)
	call	CompareGuid@plt
	mv	a5,a0
	.loc 1 4099 14 discriminator 1
	beq	a5,zero,.L580
	.loc 1 4104 21
	li	a5,1
	sb	a5,-49(s0)
	.loc 1 4105 13
	nop
	.loc 1 4109 9
	j	.L583
.L580:
	.loc 1 4097 100 discriminator 2
	ld	a5,-80(s0)
	ld	a5,0(a5)
	sd	a5,-80(s0)
.L577:
	.loc 1 4097 68 discriminator 1
	ld	a5,-88(s0)
	addi	a5,a5,24
	.loc 1 4097 65 discriminator 1
	ld	a4,-80(s0)
	bne	a4,a5,.L582
	.loc 1 4109 9
	j	.L583
.L575:
	.loc 1 4111 27
	ld	a5,-88(s0)
	addi	a5,a5,40
	.loc 1 4111 14
	mv	a0,a5
	call	IsListEmpty@plt
	mv	a5,a0
	.loc 1 4111 12 discriminator 1
	bne	a5,zero,.L596
	.loc 1 4112 19
	li	a5,1
	sb	a5,-49(s0)
	.loc 1 4115 9
	j	.L596
.L568:
	.loc 1 4117 27
	ld	a5,-88(s0)
	addi	a5,a5,56
	.loc 1 4117 14
	mv	a0,a5
	call	IsListEmpty@plt
	mv	a5,a0
	.loc 1 4117 12 discriminator 1
	bne	a5,zero,.L597
	.loc 1 4118 19
	li	a5,1
	sb	a5,-49(s0)
	.loc 1 4121 9
	j	.L597
.L574:
	.loc 1 4123 27
	ld	a5,-88(s0)
	addi	a5,a5,72
	.loc 1 4123 14
	mv	a0,a5
	call	IsListEmpty@plt
	mv	a5,a0
	.loc 1 4123 12 discriminator 1
	bne	a5,zero,.L598
	.loc 1 4124 19
	li	a5,1
	sb	a5,-49(s0)
	.loc 1 4127 9
	j	.L598
.L573:
	.loc 1 4129 27
	ld	a5,-88(s0)
	addi	a5,a5,88
	.loc 1 4129 14
	mv	a0,a5
	call	IsListEmpty@plt
	mv	a5,a0
	.loc 1 4129 12 discriminator 1
	bne	a5,zero,.L599
	.loc 1 4130 19
	li	a5,1
	sb	a5,-49(s0)
	.loc 1 4133 9
	j	.L599
.L572:
	.loc 1 4135 24
	ld	a5,-88(s0)
	ld	a5,104(a5)
	.loc 1 4135 12
	beq	a5,zero,.L600
	.loc 1 4136 19
	li	a5,1
	sb	a5,-49(s0)
	.loc 1 4139 9
	j	.L600
.L571:
	.loc 1 4141 27
	ld	a5,-88(s0)
	addi	a5,a5,112
	.loc 1 4141 14
	mv	a0,a5
	call	IsListEmpty@plt
	mv	a5,a0
	.loc 1 4141 12 discriminator 1
	bne	a5,zero,.L601
	.loc 1 4142 19
	li	a5,1
	sb	a5,-49(s0)
	.loc 1 4145 9
	j	.L601
.L570:
	.loc 1 4147 24
	ld	a5,-88(s0)
	ld	a5,128(a5)
	.loc 1 4147 12
	beq	a5,zero,.L602
	.loc 1 4148 19
	li	a5,1
	sb	a5,-49(s0)
	.loc 1 4151 9
	j	.L602
.L576:
	.loc 1 4157 17
	li	a5,1
	sb	a5,-49(s0)
	.loc 1 4158 9
	j	.L583
.L595:
	.loc 1 4160 9
	nop
	j	.L583
.L596:
	.loc 1 4115 9
	nop
	j	.L583
.L597:
	.loc 1 4121 9
	nop
	j	.L583
.L598:
	.loc 1 4127 9
	nop
	j	.L583
.L599:
	.loc 1 4133 9
	nop
	j	.L583
.L600:
	.loc 1 4139 9
	nop
	j	.L583
.L601:
	.loc 1 4145 9
	nop
	j	.L583
.L602:
	.loc 1 4151 9
	nop
.L583:
	.loc 1 4166 8
	lbu	a5,-49(s0)
	andi	a5,a5,0xff
	beq	a5,zero,.L591
	.loc 1 4167 18
	ld	a5,-72(s0)
	addi	a5,a5,8
	sd	a5,-72(s0)
	.loc 1 4168 25
	ld	a5,-128(s0)
	ld	a5,0(a5)
	.loc 1 4168 10
	ld	a4,-72(s0)
	bgtu	a4,a5,.L591
	.loc 1 4169 16
	ld	a5,-64(s0)
	addi	a4,a5,8
	sd	a4,-64(s0)
	.loc 1 4169 25
	ld	a4,-40(s0)
	ld	a4,24(a4)
	.loc 1 4169 19
	sd	a4,0(a5)
.L591:
	.loc 1 4173 13
	sb	zero,-49(s0)
	.loc 1 4092 87 discriminator 2
	ld	a5,-48(s0)
	ld	a5,0(a5)
	sd	a5,-48(s0)
.L565:
	.loc 1 4092 58 discriminator 1
	ld	a5,-32(s0)
	addi	a5,a5,8
	.loc 1 4092 55 discriminator 1
	ld	a4,-48(s0)
	bne	a4,a5,.L592
	.loc 1 4176 6
	ld	a5,-72(s0)
	bne	a5,zero,.L593
	.loc 1 4177 12
	li	a5,-1
	slli	a5,a5,63
	addi	a5,a5,14
	j	.L558
.L593:
	.loc 1 4180 7
	ld	a5,-128(s0)
	ld	a5,0(a5)
	.loc 1 4180 6
	ld	a4,-72(s0)
	bleu	a4,a5,.L594
	.loc 1 4181 25
	ld	a5,-128(s0)
	ld	a4,-72(s0)
	sd	a4,0(a5)
	.loc 1 4182 12
	li	a5,-1
	slli	a5,a5,63
	addi	a5,a5,5
	j	.L558
.L594:
	.loc 1 4185 23
	ld	a5,-128(s0)
	ld	a4,-72(s0)
	sd	a4,0(a5)
	.loc 1 4186 10
	li	a5,0
.L558:
	.loc 1 4187 1
	mv	a0,a5
	ld	ra,136(sp)
	.cfi_restore 1
	ld	s0,128(sp)
	.cfi_restore 8
	.cfi_def_cfa 2, 144
	addi	sp,sp,144
	.cfi_def_cfa_offset 0
	jr	ra
	.cfi_endproc
.LFE41:
	.size	HiiListPackageLists, .-HiiListPackageLists
	.section	.text.HiiExportPackageLists,"ax",@progbits
	.align	1
	.globl	HiiExportPackageLists
	.type	HiiExportPackageLists, @function
HiiExportPackageLists:
.LFB42:
	.loc 1 4225 1
	.cfi_startproc
	addi	sp,sp,-96
	.cfi_def_cfa_offset 96
	sd	ra,88(sp)
	sd	s0,80(sp)
	.cfi_offset 1, -8
	.cfi_offset 8, -16
	addi	s0,sp,96
	.cfi_def_cfa 8, 0
	sd	a0,-72(s0)
	sd	a1,-80(s0)
	sd	a2,-88(s0)
	sd	a3,-96(s0)
	.loc 1 4232 6
	ld	a5,-72(s0)
	beq	a5,zero,.L604
	.loc 1 4232 30 discriminator 1
	ld	a5,-88(s0)
	bne	a5,zero,.L605
.L604:
	.loc 1 4233 12
	li	a5,-1
	slli	a5,a5,63
	addi	a5,a5,2
	j	.L620
.L605:
	.loc 1 4236 8
	ld	a5,-88(s0)
	ld	a5,0(a5)
	.loc 1 4236 6
	beq	a5,zero,.L607
	.loc 1 4236 25 discriminator 1
	ld	a5,-96(s0)
	bne	a5,zero,.L607
	.loc 1 4237 12
	li	a5,-1
	slli	a5,a5,63
	addi	a5,a5,2
	j	.L620
.L607:
	.loc 1 4240 6
	ld	a5,-80(s0)
	beq	a5,zero,.L608
	.loc 1 4240 37 discriminator 1
	ld	a0,-80(s0)
	call	IsHiiHandleValid
	mv	a5,a0
	.loc 1 4240 32 discriminator 2
	bne	a5,zero,.L608
	.loc 1 4241 12
	li	a5,-1
	slli	a5,a5,63
	addi	a5,a5,14
	j	.L620
.L608:
	.loc 1 4244 15
	ld	a5,-72(s0)
	addi	a5,a5,-200
	.loc 1 4244 144
	ld	a4,0(a5)
	.loc 1 4244 229
	li	a5,1883533312
	addi	a5,a5,-1720
	bne	a4,a5,.L609
	.loc 1 4244 11 discriminator 1
	ld	a5,-72(s0)
	addi	a5,a5,-200
	sd	a5,-32(s0)
	j	.L610
.L609:
	.loc 1 4244 11 is_stmt 0 discriminator 2
	sd	zero,-32(s0)
.L610:
	.loc 1 4245 12 is_stmt 1
	sd	zero,-56(s0)
	.loc 1 4247 13
	ld	a5,-32(s0)
	ld	a5,8(a5)
	sd	a5,-24(s0)
	.loc 1 4247 3
	j	.L611
.L617:
	.loc 1 4248 14
	ld	a5,-24(s0)
	addi	a5,a5,-32
	.loc 1 4248 133
	ld	a4,0(a5)
	.loc 1 4248 218
	li	a5,1919184896
	addi	a5,a5,-1688
	bne	a4,a5,.L612
	.loc 1 4248 10 discriminator 1
	ld	a5,-24(s0)
	addi	a5,a5,-32
	sd	a5,-40(s0)
	j	.L613
.L612:
	.loc 1 4248 10 is_stmt 0 discriminator 2
	sd	zero,-40(s0)
.L613:
	.loc 1 4249 8 is_stmt 1
	ld	a5,-80(s0)
	bne	a5,zero,.L614
	.loc 1 4253 16
	ld	a5,-40(s0)
	ld	a1,24(a5)
	ld	a5,-40(s0)
	ld	a2,8(a5)
	ld	a5,-88(s0)
	ld	a0,0(a5)
	ld	a5,-56(s0)
	ld	a4,-96(s0)
	add	a5,a4,a5
	addi	a3,s0,-56
	mv	a4,a0
	ld	a0,-32(s0)
	call	ExportPackageList
	sd	a0,-48(s0)
	j	.L615
.L614:
	.loc 1 4262 15
	ld	a5,-80(s0)
	beq	a5,zero,.L615
	.loc 1 4262 49 discriminator 1
	ld	a5,-40(s0)
	ld	a5,24(a5)
	.loc 1 4262 41 discriminator 1
	ld	a4,-80(s0)
	bne	a4,a5,.L615
	.loc 1 4263 16
	ld	a5,-40(s0)
	ld	a2,8(a5)
	ld	a5,-88(s0)
	ld	a4,0(a5)
	addi	a3,s0,-56
	ld	a5,-96(s0)
	ld	a1,-80(s0)
	ld	a0,-32(s0)
	call	ExportPackageList
	sd	a0,-48(s0)
	.loc 1 4272 11
	ld	a5,-88(s0)
	ld	a4,0(a5)
	.loc 1 4272 23
	ld	a5,-56(s0)
	.loc 1 4272 10
	bgeu	a4,a5,.L616
	.loc 1 4273 21
	ld	a4,-56(s0)
	ld	a5,-88(s0)
	sd	a4,0(a5)
	.loc 1 4274 16
	li	a5,-1
	slli	a5,a5,63
	addi	a5,a5,5
	j	.L620
.L616:
	.loc 1 4277 14
	li	a5,0
	j	.L620
.L615:
	.loc 1 4247 87 discriminator 2
	ld	a5,-24(s0)
	ld	a5,0(a5)
	sd	a5,-24(s0)
.L611:
	.loc 1 4247 58 discriminator 1
	ld	a5,-32(s0)
	addi	a5,a5,8
	.loc 1 4247 55 discriminator 1
	ld	a4,-24(s0)
	bne	a4,a5,.L617
	.loc 1 4281 6
	ld	a5,-80(s0)
	bne	a5,zero,.L618
	.loc 1 4281 45 discriminator 1
	ld	a5,-56(s0)
	.loc 1 4281 32 discriminator 1
	beq	a5,zero,.L618
	.loc 1 4282 9
	ld	a5,-88(s0)
	ld	a4,0(a5)
	.loc 1 4282 21
	ld	a5,-56(s0)
	.loc 1 4282 8
	bgeu	a4,a5,.L619
	.loc 1 4283 19
	ld	a4,-56(s0)
	ld	a5,-88(s0)
	sd	a4,0(a5)
	.loc 1 4284 14
	li	a5,-1
	slli	a5,a5,63
	addi	a5,a5,5
	j	.L620
.L619:
	.loc 1 4287 12
	li	a5,0
	j	.L620
.L618:
	.loc 1 4290 10
	li	a5,-1
	slli	a5,a5,63
	addi	a5,a5,14
.L620:
	.loc 1 4291 1
	mv	a0,a5
	ld	ra,88(sp)
	.cfi_restore 1
	ld	s0,80(sp)
	.cfi_restore 8
	.cfi_def_cfa 2, 96
	addi	sp,sp,96
	.cfi_def_cfa_offset 0
	jr	ra
	.cfi_endproc
.LFE42:
	.size	HiiExportPackageLists, .-HiiExportPackageLists
	.section	.text.HiiRegisterPackageNotify,"ax",@progbits
	.align	1
	.globl	HiiRegisterPackageNotify
	.type	HiiRegisterPackageNotify, @function
HiiRegisterPackageNotify:
.LFB43:
	.loc 1 4339 1
	.cfi_startproc
	addi	sp,sp,-96
	.cfi_def_cfa_offset 96
	sd	ra,88(sp)
	sd	s0,80(sp)
	.cfi_offset 1, -8
	.cfi_offset 8, -16
	addi	s0,sp,96
	.cfi_def_cfa 8, 0
	sd	a0,-56(s0)
	sd	a2,-72(s0)
	sd	a3,-80(s0)
	sd	a4,-88(s0)
	sd	a5,-96(s0)
	mv	a5,a1
	sb	a5,-57(s0)
	.loc 1 4344 6
	ld	a5,-56(s0)
	beq	a5,zero,.L622
	.loc 1 4344 30 discriminator 1
	ld	a5,-96(s0)
	bne	a5,zero,.L623
.L622:
	.loc 1 4345 12
	li	a5,-1
	slli	a5,a5,63
	addi	a5,a5,2
	j	.L624
.L623:
	.loc 1 4348 6
	lbu	a5,-57(s0)
	andi	a4,a5,0xff
	li	a5,1
	bne	a4,a5,.L625
	.loc 1 4348 30 discriminator 1
	ld	a5,-72(s0)
	beq	a5,zero,.L626
.L625:
	.loc 1 4348 64 discriminator 3
	lbu	a5,-57(s0)
	andi	a4,a5,0xff
	li	a5,1
	beq	a4,a5,.L627
	.loc 1 4349 30
	ld	a5,-72(s0)
	beq	a5,zero,.L627
.L626:
	.loc 1 4351 12
	li	a5,-1
	slli	a5,a5,63
	addi	a5,a5,2
	j	.L624
.L627:
	.loc 1 4354 15
	ld	a5,-56(s0)
	addi	a5,a5,-200
	.loc 1 4354 144
	ld	a4,0(a5)
	.loc 1 4354 229
	li	a5,1883533312
	addi	a5,a5,-1720
	bne	a4,a5,.L628
	.loc 1 4354 11 discriminator 1
	ld	a5,-56(s0)
	addi	a5,a5,-200
	sd	a5,-24(s0)
	j	.L629
.L628:
	.loc 1 4354 11 is_stmt 0 discriminator 2
	sd	zero,-24(s0)
.L629:
	.loc 1 4359 35 is_stmt 1
	li	a0,64
	call	AllocateZeroPool@plt
	sd	a0,-32(s0)
	.loc 1 4360 6
	ld	a5,-32(s0)
	bne	a5,zero,.L630
	.loc 1 4361 12
	li	a5,-1
	slli	a5,a5,63
	addi	a5,a5,9
	j	.L624
.L630:
	.loc 1 4367 15
	la	a5,gBS
	ld	a5,0(a5)
	ld	a5,328(a5)
	.loc 1 4367 12
	ld	a4,-32(s0)
	addi	a4,a4,8
	li	a3,0
	li	a2,0
	la	a1,gEfiCallerIdGuid
	mv	a0,a4
	jalr	a5
.LVL6:
	sd	a0,-40(s0)
	.loc 1 4378 21
	ld	a5,-32(s0)
	li	a4,1852076032
	addi	a4,a4,-1688
	sd	a4,0(a5)
	.loc 1 4379 23
	ld	a5,-32(s0)
	lbu	a4,-57(s0)
	sb	a4,16(a5)
	.loc 1 4380 23
	ld	a5,-32(s0)
	ld	a4,-72(s0)
	sd	a4,24(a5)
	.loc 1 4381 27
	ld	a5,-32(s0)
	ld	a4,-80(s0)
	sd	a4,32(a5)
	.loc 1 4382 22
	ld	a5,-32(s0)
	ld	a4,-88(s0)
	sd	a4,40(a5)
	.loc 1 4384 3
	ld	a5,-24(s0)
	addi	a4,a5,24
	ld	a5,-32(s0)
	addi	a5,a5,48
	mv	a1,a5
	mv	a0,a4
	call	InsertTailList@plt
	.loc 1 4385 25
	ld	a5,-32(s0)
	ld	a4,8(a5)
	.loc 1 4385 17
	ld	a5,-96(s0)
	sd	a4,0(a5)
	.loc 1 4387 10
	li	a5,0
.L624:
	.loc 1 4388 1
	mv	a0,a5
	ld	ra,88(sp)
	.cfi_restore 1
	ld	s0,80(sp)
	.cfi_restore 8
	.cfi_def_cfa 2, 96
	addi	sp,sp,96
	.cfi_def_cfa_offset 0
	jr	ra
	.cfi_endproc
.LFE43:
	.size	HiiRegisterPackageNotify, .-HiiRegisterPackageNotify
	.section	.text.HiiUnregisterPackageNotify,"ax",@progbits
	.align	1
	.globl	HiiUnregisterPackageNotify
	.type	HiiUnregisterPackageNotify, @function
HiiUnregisterPackageNotify:
.LFB44:
	.loc 1 4410 1
	.cfi_startproc
	addi	sp,sp,-64
	.cfi_def_cfa_offset 64
	sd	ra,56(sp)
	sd	s0,48(sp)
	.cfi_offset 1, -8
	.cfi_offset 8, -16
	addi	s0,sp,64
	.cfi_def_cfa 8, 0
	sd	a0,-56(s0)
	sd	a1,-64(s0)
	.loc 1 4416 6
	ld	a5,-56(s0)
	bne	a5,zero,.L632
	.loc 1 4417 12
	li	a5,-1
	slli	a5,a5,63
	addi	a5,a5,2
	j	.L633
.L632:
	.loc 1 4420 6
	ld	a5,-64(s0)
	bne	a5,zero,.L634
	.loc 1 4421 12
	li	a5,-1
	slli	a5,a5,63
	addi	a5,a5,14
	j	.L633
.L634:
	.loc 1 4424 15
	la	a5,gBS
	ld	a5,0(a5)
	ld	a6,280(a5)
	.loc 1 4424 12
	li	a5,4
	li	a4,0
	li	a3,0
	li	a2,0
	la	a1,gEfiCallerIdGuid
	ld	a0,-64(s0)
	jalr	a6
.LVL7:
	sd	a0,-48(s0)
	.loc 1 4432 34
	ld	a5,-48(s0)
	.loc 1 4432 6
	bge	a5,zero,.L635
	.loc 1 4433 12
	li	a5,-1
	slli	a5,a5,63
	addi	a5,a5,14
	j	.L633
.L635:
	.loc 1 4436 15
	ld	a5,-56(s0)
	addi	a5,a5,-200
	.loc 1 4436 144
	ld	a4,0(a5)
	.loc 1 4436 229
	li	a5,1883533312
	addi	a5,a5,-1720
	bne	a4,a5,.L636
	.loc 1 4436 11 discriminator 1
	ld	a5,-56(s0)
	addi	a5,a5,-200
	sd	a5,-24(s0)
	j	.L637
.L636:
	.loc 1 4436 11 is_stmt 0 discriminator 2
	sd	zero,-24(s0)
.L637:
	.loc 1 4438 13 is_stmt 1
	ld	a5,-24(s0)
	ld	a5,24(a5)
	sd	a5,-40(s0)
	.loc 1 4438 3
	j	.L638
.L642:
	.loc 1 4439 16
	ld	a5,-40(s0)
	addi	a5,a5,-48
	.loc 1 4439 141
	ld	a4,0(a5)
	.loc 1 4439 226
	li	a5,1852076032
	addi	a5,a5,-1688
	bne	a4,a5,.L639
	.loc 1 4439 12 discriminator 1
	ld	a5,-40(s0)
	addi	a5,a5,-48
	sd	a5,-32(s0)
	j	.L640
.L639:
	.loc 1 4439 12 is_stmt 0 discriminator 2
	sd	zero,-32(s0)
.L640:
	.loc 1 4440 15 is_stmt 1
	ld	a5,-32(s0)
	ld	a5,8(a5)
	.loc 1 4440 8
	ld	a4,-64(s0)
	bne	a4,a5,.L641
	.loc 1 4444 24
	ld	a5,-32(s0)
	addi	a5,a5,48
	.loc 1 4444 7
	mv	a0,a5
	call	RemoveEntryList@plt
	.loc 1 4445 19
	la	a5,gBS
	ld	a5,0(a5)
	ld	a5,336(a5)
	.loc 1 4445 16
	ld	a4,-32(s0)
	ld	a4,8(a4)
	li	a3,0
	li	a2,0
	la	a1,gEfiCallerIdGuid
	mv	a0,a4
	jalr	a5
.LVL8:
	sd	a0,-48(s0)
	.loc 1 4452 7
	ld	a0,-32(s0)
	call	FreePool@plt
	.loc 1 4454 14
	li	a5,0
	j	.L633
.L641:
	.loc 1 4438 99 discriminator 2
	ld	a5,-40(s0)
	ld	a5,0(a5)
	sd	a5,-40(s0)
.L638:
	.loc 1 4438 64 discriminator 1
	ld	a5,-24(s0)
	addi	a5,a5,24
	.loc 1 4438 61 discriminator 1
	ld	a4,-40(s0)
	bne	a4,a5,.L642
	.loc 1 4458 10
	li	a5,-1
	slli	a5,a5,63
	addi	a5,a5,14
.L633:
	.loc 1 4459 1
	mv	a0,a5
	ld	ra,56(sp)
	.cfi_restore 1
	ld	s0,48(sp)
	.cfi_restore 8
	.cfi_def_cfa 2, 64
	addi	sp,sp,64
	.cfi_def_cfa_offset 0
	jr	ra
	.cfi_endproc
.LFE44:
	.size	HiiUnregisterPackageNotify, .-HiiUnregisterPackageNotify
	.section	.text.HiiFindKeyboardLayouts,"ax",@progbits
	.align	1
	.globl	HiiFindKeyboardLayouts
	.type	HiiFindKeyboardLayouts, @function
HiiFindKeyboardLayouts:
.LFB45:
	.loc 1 4492 1
	.cfi_startproc
	addi	sp,sp,-128
	.cfi_def_cfa_offset 128
	sd	ra,120(sp)
	sd	s0,112(sp)
	.cfi_offset 1, -8
	.cfi_offset 8, -16
	addi	s0,sp,128
	.cfi_def_cfa 8, 0
	sd	a0,-104(s0)
	sd	a1,-112(s0)
	sd	a2,-120(s0)
	.loc 1 4505 6
	ld	a5,-104(s0)
	beq	a5,zero,.L644
	.loc 1 4505 30 discriminator 1
	ld	a5,-112(s0)
	bne	a5,zero,.L645
.L644:
	.loc 1 4506 12
	li	a5,-1
	slli	a5,a5,63
	addi	a5,a5,2
	j	.L663
.L645:
	.loc 1 4509 8
	ld	a5,-112(s0)
	lhu	a5,0(a5)
	.loc 1 4509 6
	beq	a5,zero,.L647
	.loc 1 4509 34 discriminator 1
	ld	a5,-120(s0)
	bne	a5,zero,.L647
	.loc 1 4510 12
	li	a5,-1
	slli	a5,a5,63
	addi	a5,a5,2
	j	.L663
.L647:
	.loc 1 4513 15
	ld	a5,-104(s0)
	addi	a5,a5,-200
	.loc 1 4513 144
	ld	a4,0(a5)
	.loc 1 4513 229
	li	a5,1883533312
	addi	a5,a5,-1720
	bne	a4,a5,.L648
	.loc 1 4513 11 discriminator 1
	ld	a5,-104(s0)
	addi	a5,a5,-200
	sd	a5,-24(s0)
	j	.L649
.L648:
	.loc 1 4513 11 is_stmt 0 discriminator 2
	sd	zero,-24(s0)
.L649:
	.loc 1 4514 14 is_stmt 1
	sh	zero,-50(s0)
	.loc 1 4519 13
	ld	a5,-24(s0)
	ld	a5,8(a5)
	sd	a5,-40(s0)
	.loc 1 4519 3
	j	.L650
.L660:
	.loc 1 4520 14
	ld	a5,-40(s0)
	addi	a5,a5,-32
	.loc 1 4520 133
	ld	a4,0(a5)
	.loc 1 4520 218
	li	a5,1919184896
	addi	a5,a5,-1688
	bne	a4,a5,.L651
	.loc 1 4520 10 discriminator 1
	ld	a5,-40(s0)
	addi	a5,a5,-32
	sd	a5,-32(s0)
	j	.L652
.L651:
	.loc 1 4520 10 is_stmt 0 discriminator 2
	sd	zero,-32(s0)
.L652:
	.loc 1 4521 17 is_stmt 1
	ld	a5,-32(s0)
	ld	a5,8(a5)
	sd	a5,-88(s0)
	.loc 1 4522 16
	ld	a5,-88(s0)
	ld	a5,56(a5)
	sd	a5,-48(s0)
	.loc 1 4522 5
	j	.L653
.L659:
	.loc 1 4530 19
	ld	a5,-48(s0)
	addi	a5,a5,-16
	.loc 1 4530 173
	ld	a4,0(a5)
	.loc 1 4530 258
	li	a5,1886154752
	addi	a5,a5,-1176
	bne	a4,a5,.L654
	.loc 1 4530 15 discriminator 1
	ld	a5,-48(s0)
	addi	a5,a5,-16
	sd	a5,-80(s0)
	j	.L655
.L654:
	.loc 1 4530 15 is_stmt 0 discriminator 2
	sd	zero,-80(s0)
.L655:
	.loc 1 4536 32 is_stmt 1
	ld	a5,-80(s0)
	ld	a5,8(a5)
	.loc 1 4536 14
	addi	a5,a5,6
	sd	a5,-72(s0)
	.loc 1 4539 25
	ld	a5,-80(s0)
	ld	a5,8(a5)
	.loc 1 4539 39
	addi	a4,a5,4
	.loc 1 4537 7
	addi	a5,s0,-90
	li	a2,2
	mv	a1,a4
	mv	a0,a5
	call	CopyMem@plt
	.loc 1 4542 18
	sd	zero,-64(s0)
	.loc 1 4542 7
	j	.L656
.L658:
	.loc 1 4543 20
	lhu	a5,-50(s0)
	addiw	a5,a5,16
	sh	a5,-50(s0)
	.loc 1 4544 27
	ld	a5,-112(s0)
	lhu	a5,0(a5)
	.loc 1 4544 12
	lhu	a4,-50(s0)
	sext.w	a4,a4
	sext.w	a5,a5
	bgtu	a4,a5,.L657
	.loc 1 4545 48
	lhu	a5,-50(s0)
	srliw	a5,a5,4
	slli	a5,a5,48
	srli	a5,a5,48
	.loc 1 4545 34
	slli	a5,a5,4
	addi	a5,a5,-16
	ld	a4,-120(s0)
	add	a4,a4,a5
	.loc 1 4545 81
	ld	a5,-72(s0)
	addi	a5,a5,2
	.loc 1 4545 11
	li	a2,16
	mv	a1,a5
	mv	a0,a4
	call	CopyMem@plt
	.loc 1 4546 11
	addi	a5,s0,-92
	li	a2,2
	ld	a1,-72(s0)
	mv	a0,a5
	call	CopyMem@plt
	.loc 1 4547 27
	lhu	a5,-92(s0)
	mv	a4,a5
	.loc 1 4547 18
	ld	a5,-72(s0)
	add	a5,a5,a4
	sd	a5,-72(s0)
.L657:
	.loc 1 4542 49 discriminator 2
	ld	a5,-64(s0)
	addi	a5,a5,1
	sd	a5,-64(s0)
.L656:
	.loc 1 4542 29 discriminator 1
	lhu	a5,-90(s0)
	mv	a4,a5
	ld	a5,-64(s0)
	bltu	a5,a4,.L658
	.loc 1 4524 16
	ld	a5,-48(s0)
	ld	a5,0(a5)
	sd	a5,-48(s0)
.L653:
	.loc 1 4523 19
	ld	a5,-88(s0)
	addi	a5,a5,56
	.loc 1 4523 16
	ld	a4,-48(s0)
	bne	a4,a5,.L659
	.loc 1 4519 87 discriminator 2
	ld	a5,-40(s0)
	ld	a5,0(a5)
	sd	a5,-40(s0)
.L650:
	.loc 1 4519 58 discriminator 1
	ld	a5,-24(s0)
	addi	a5,a5,8
	.loc 1 4519 55 discriminator 1
	ld	a4,-40(s0)
	bne	a4,a5,.L660
	.loc 1 4553 6
	lhu	a5,-50(s0)
	sext.w	a5,a5
	bne	a5,zero,.L661
	.loc 1 4554 12
	li	a5,-1
	slli	a5,a5,63
	addi	a5,a5,14
	j	.L663
.L661:
	.loc 1 4557 7
	ld	a5,-112(s0)
	lhu	a5,0(a5)
	.loc 1 4557 6
	lhu	a4,-50(s0)
	sext.w	a4,a4
	sext.w	a5,a5
	bleu	a4,a5,.L662
	.loc 1 4558 26
	ld	a5,-112(s0)
	lhu	a4,-50(s0)
	sh	a4,0(a5)
	.loc 1 4559 12
	li	a5,-1
	slli	a5,a5,63
	addi	a5,a5,5
	j	.L663
.L662:
	.loc 1 4562 24
	ld	a5,-112(s0)
	lhu	a4,-50(s0)
	sh	a4,0(a5)
	.loc 1 4563 10
	li	a5,0
.L663:
	.loc 1 4564 1
	mv	a0,a5
	ld	ra,120(sp)
	.cfi_restore 1
	ld	s0,112(sp)
	.cfi_restore 8
	.cfi_def_cfa 2, 128
	addi	sp,sp,128
	.cfi_def_cfa_offset 0
	jr	ra
	.cfi_endproc
.LFE45:
	.size	HiiFindKeyboardLayouts, .-HiiFindKeyboardLayouts
	.section	.text.HiiGetKeyboardLayout,"ax",@progbits
	.align	1
	.globl	HiiGetKeyboardLayout
	.type	HiiGetKeyboardLayout, @function
HiiGetKeyboardLayout:
.LFB46:
	.loc 1 4600 1
	.cfi_startproc
	addi	sp,sp,-128
	.cfi_def_cfa_offset 128
	sd	ra,120(sp)
	sd	s0,112(sp)
	.cfi_offset 1, -8
	.cfi_offset 8, -16
	addi	s0,sp,128
	.cfi_def_cfa 8, 0
	sd	a0,-104(s0)
	sd	a1,-112(s0)
	sd	a2,-120(s0)
	sd	a3,-128(s0)
	.loc 1 4612 6
	ld	a5,-104(s0)
	beq	a5,zero,.L665
	.loc 1 4612 30 discriminator 1
	ld	a5,-120(s0)
	bne	a5,zero,.L666
.L665:
	.loc 1 4613 12
	li	a5,-1
	slli	a5,a5,63
	addi	a5,a5,2
	j	.L686
.L666:
	.loc 1 4616 8
	ld	a5,-120(s0)
	lhu	a5,0(a5)
	.loc 1 4616 6
	beq	a5,zero,.L668
	.loc 1 4616 35 discriminator 1
	ld	a5,-128(s0)
	bne	a5,zero,.L668
	.loc 1 4617 12
	li	a5,-1
	slli	a5,a5,63
	addi	a5,a5,2
	j	.L686
.L668:
	.loc 1 4620 15
	ld	a5,-104(s0)
	addi	a5,a5,-200
	.loc 1 4620 144
	ld	a4,0(a5)
	.loc 1 4620 229
	li	a5,1883533312
	addi	a5,a5,-1720
	bne	a4,a5,.L669
	.loc 1 4620 11 discriminator 1
	ld	a5,-104(s0)
	addi	a5,a5,-200
	sd	a5,-24(s0)
	j	.L670
.L669:
	.loc 1 4620 11 is_stmt 0 discriminator 2
	sd	zero,-24(s0)
.L670:
	.loc 1 4624 6 is_stmt 1
	ld	a5,-112(s0)
	bne	a5,zero,.L671
	.loc 1 4625 16
	ld	a5,-24(s0)
	ld	a5,416(a5)
	.loc 1 4625 8
	bne	a5,zero,.L672
	.loc 1 4626 14
	li	a5,-1
	slli	a5,a5,63
	addi	a5,a5,14
	j	.L686
.L672:
	.loc 1 4629 36
	ld	a5,-24(s0)
	ld	a4,416(a5)
	.loc 1 4629 5
	addi	a5,s0,-84
	li	a2,2
	mv	a1,a4
	mv	a0,a5
	call	CopyMem@plt
	.loc 1 4630 9
	ld	a5,-120(s0)
	lhu	a4,0(a5)
	.loc 1 4630 31
	lhu	a5,-84(s0)
	.loc 1 4630 8
	sext.w	a4,a4
	sext.w	a5,a5
	bgeu	a4,a5,.L673
	.loc 1 4631 29
	lhu	a4,-84(s0)
	ld	a5,-120(s0)
	sh	a4,0(a5)
	.loc 1 4632 14
	li	a5,-1
	slli	a5,a5,63
	addi	a5,a5,5
	j	.L686
.L673:
	.loc 1 4635 37
	ld	a5,-24(s0)
	ld	a5,416(a5)
	.loc 1 4635 5
	lhu	a4,-84(s0)
	mv	a2,a4
	mv	a1,a5
	ld	a0,-128(s0)
	call	CopyMem@plt
	.loc 1 4636 12
	li	a5,0
	j	.L686
.L671:
	.loc 1 4639 13
	ld	a5,-24(s0)
	ld	a5,8(a5)
	sd	a5,-40(s0)
	.loc 1 4639 3
	j	.L674
.L685:
	.loc 1 4640 14
	ld	a5,-40(s0)
	addi	a5,a5,-32
	.loc 1 4640 133
	ld	a4,0(a5)
	.loc 1 4640 218
	li	a5,1919184896
	addi	a5,a5,-1688
	bne	a4,a5,.L675
	.loc 1 4640 10 discriminator 1
	ld	a5,-40(s0)
	addi	a5,a5,-32
	sd	a5,-32(s0)
	j	.L676
.L675:
	.loc 1 4640 10 is_stmt 0 discriminator 2
	sd	zero,-32(s0)
.L676:
	.loc 1 4641 17 is_stmt 1
	ld	a5,-32(s0)
	ld	a5,8(a5)
	sd	a5,-80(s0)
	.loc 1 4642 16
	ld	a5,-80(s0)
	ld	a5,56(a5)
	sd	a5,-48(s0)
	.loc 1 4642 5
	j	.L677
.L684:
	.loc 1 4647 19
	ld	a5,-48(s0)
	addi	a5,a5,-16
	.loc 1 4647 173
	ld	a4,0(a5)
	.loc 1 4647 258
	li	a5,1886154752
	addi	a5,a5,-1176
	bne	a4,a5,.L678
	.loc 1 4647 15 discriminator 1
	ld	a5,-48(s0)
	addi	a5,a5,-16
	sd	a5,-72(s0)
	j	.L679
.L678:
	.loc 1 4647 15 is_stmt 0 discriminator 2
	sd	zero,-72(s0)
.L679:
	.loc 1 4654 32 is_stmt 1
	ld	a5,-72(s0)
	ld	a5,8(a5)
	.loc 1 4654 14
	addi	a5,a5,6
	sd	a5,-64(s0)
	.loc 1 4656 37
	ld	a5,-64(s0)
	addi	a4,a5,-2
	.loc 1 4656 7
	addi	a5,s0,-82
	li	a2,2
	mv	a1,a4
	mv	a0,a5
	call	CopyMem@plt
	.loc 1 4657 18
	sd	zero,-56(s0)
	.loc 1 4657 7
	j	.L680
.L683:
	.loc 1 4658 9
	addi	a5,s0,-84
	li	a2,2
	ld	a1,-64(s0)
	mv	a0,a5
	call	CopyMem@plt
	.loc 1 4659 32
	ld	a5,-64(s0)
	addi	a5,a5,2
	.loc 1 4659 13
	li	a2,16
	ld	a1,-112(s0)
	mv	a0,a5
	call	CompareMem@plt
	mv	a5,a0
	.loc 1 4659 12 discriminator 1
	bne	a5,zero,.L681
	.loc 1 4660 31
	ld	a5,-120(s0)
	lhu	a4,0(a5)
	.loc 1 4660 28
	lhu	a5,-84(s0)
	.loc 1 4660 14
	sext.w	a4,a4
	sext.w	a5,a5
	bltu	a4,a5,.L682
	.loc 1 4661 13
	lhu	a5,-84(s0)
	mv	a2,a5
	ld	a1,-64(s0)
	ld	a0,-128(s0)
	call	CopyMem@plt
	.loc 1 4662 20
	li	a5,0
	j	.L686
.L682:
	.loc 1 4664 35
	lhu	a4,-84(s0)
	ld	a5,-120(s0)
	sh	a4,0(a5)
	.loc 1 4665 20
	li	a5,-1
	slli	a5,a5,63
	addi	a5,a5,5
	j	.L686
.L681:
	.loc 1 4669 25
	lhu	a5,-84(s0)
	mv	a4,a5
	.loc 1 4669 16
	ld	a5,-64(s0)
	add	a5,a5,a4
	sd	a5,-64(s0)
	.loc 1 4657 49 discriminator 2
	ld	a5,-56(s0)
	addi	a5,a5,1
	sd	a5,-56(s0)
.L680:
	.loc 1 4657 29 discriminator 1
	lhu	a5,-82(s0)
	mv	a4,a5
	ld	a5,-56(s0)
	bltu	a5,a4,.L683
	.loc 1 4644 16
	ld	a5,-48(s0)
	ld	a5,0(a5)
	sd	a5,-48(s0)
.L677:
	.loc 1 4643 19
	ld	a5,-80(s0)
	addi	a5,a5,56
	.loc 1 4643 16
	ld	a4,-48(s0)
	bne	a4,a5,.L684
	.loc 1 4639 87 discriminator 2
	ld	a5,-40(s0)
	ld	a5,0(a5)
	sd	a5,-40(s0)
.L674:
	.loc 1 4639 58 discriminator 1
	ld	a5,-24(s0)
	addi	a5,a5,8
	.loc 1 4639 55 discriminator 1
	ld	a4,-40(s0)
	bne	a4,a5,.L685
	.loc 1 4674 10
	li	a5,-1
	slli	a5,a5,63
	addi	a5,a5,14
.L686:
	.loc 1 4675 1
	mv	a0,a5
	ld	ra,120(sp)
	.cfi_restore 1
	ld	s0,112(sp)
	.cfi_restore 8
	.cfi_def_cfa 2, 128
	addi	sp,sp,128
	.cfi_def_cfa_offset 0
	jr	ra
	.cfi_endproc
.LFE46:
	.size	HiiGetKeyboardLayout, .-HiiGetKeyboardLayout
	.section	.text.HiiSetKeyboardLayout,"ax",@progbits
	.align	1
	.globl	HiiSetKeyboardLayout
	.type	HiiSetKeyboardLayout, @function
HiiSetKeyboardLayout:
.LFB47:
	.loc 1 4700 1
	.cfi_startproc
	addi	sp,sp,-64
	.cfi_def_cfa_offset 64
	sd	ra,56(sp)
	sd	s0,48(sp)
	.cfi_offset 1, -8
	.cfi_offset 8, -16
	addi	s0,sp,64
	.cfi_def_cfa 8, 0
	sd	a0,-56(s0)
	sd	a1,-64(s0)
	.loc 1 4706 6
	ld	a5,-56(s0)
	beq	a5,zero,.L688
	.loc 1 4706 30 discriminator 1
	ld	a5,-64(s0)
	bne	a5,zero,.L689
.L688:
	.loc 1 4707 12
	li	a5,-1
	slli	a5,a5,63
	addi	a5,a5,2
	j	.L696
.L689:
	.loc 1 4710 15
	ld	a5,-56(s0)
	addi	a5,a5,-200
	.loc 1 4710 144
	ld	a4,0(a5)
	.loc 1 4710 229
	li	a5,1883533312
	addi	a5,a5,-1720
	bne	a4,a5,.L691
	.loc 1 4710 11 discriminator 1
	ld	a5,-56(s0)
	addi	a5,a5,-200
	sd	a5,-24(s0)
	j	.L692
.L691:
	.loc 1 4710 11 is_stmt 0 discriminator 2
	sd	zero,-24(s0)
.L692:
	.loc 1 4716 20 is_stmt 1
	ld	a5,-24(s0)
	addi	a5,a5,400
	.loc 1 4716 7
	ld	a1,-64(s0)
	mv	a0,a5
	call	CompareGuid@plt
	mv	a5,a0
	.loc 1 4716 6 discriminator 1
	beq	a5,zero,.L693
	.loc 1 4717 12
	li	a5,0
	j	.L696
.L693:
	.loc 1 4723 24
	sh	zero,-42(s0)
	.loc 1 4724 18
	sd	zero,-32(s0)
	.loc 1 4725 12
	addi	a5,s0,-42
	ld	a3,-32(s0)
	mv	a2,a5
	ld	a1,-64(s0)
	ld	a0,-56(s0)
	call	HiiGetKeyboardLayout
	sd	a0,-40(s0)
	.loc 1 4726 6
	ld	a4,-40(s0)
	li	a5,-1
	slli	a5,a5,63
	addi	a5,a5,5
	beq	a4,a5,.L694
	.loc 1 4727 12
	ld	a5,-40(s0)
	j	.L696
.L694:
	.loc 1 4730 47
	lhu	a5,-42(s0)
	mv	a0,a5
	call	AllocateZeroPool@plt
	sd	a0,-32(s0)
	.loc 1 4732 12
	addi	a5,s0,-42
	ld	a3,-32(s0)
	mv	a2,a5
	ld	a1,-64(s0)
	ld	a0,-56(s0)
	call	HiiGetKeyboardLayout
	sd	a0,-40(s0)
	.loc 1 4738 12
	ld	a5,-24(s0)
	addi	a5,a5,400
	.loc 1 4738 3
	li	a2,16
	ld	a1,-64(s0)
	mv	a0,a5
	call	CopyMem@plt
	.loc 1 4739 14
	ld	a5,-24(s0)
	ld	a5,416(a5)
	.loc 1 4739 6
	beq	a5,zero,.L695
	.loc 1 4740 22
	ld	a5,-24(s0)
	ld	a5,416(a5)
	.loc 1 4740 5
	mv	a0,a5
	call	FreePool@plt
.L695:
	.loc 1 4743 26
	ld	a5,-24(s0)
	ld	a4,-32(s0)
	sd	a4,416(a5)
	.loc 1 4749 15
	la	a5,gBS
	ld	a5,0(a5)
	ld	a5,104(a5)
	.loc 1 4749 12
	la	a4,gHiiKeyboardLayoutChanged
	ld	a4,0(a4)
	mv	a0,a4
	jalr	a5
.LVL9:
	sd	a0,-40(s0)
	.loc 1 4752 10
	li	a5,0
.L696:
	.loc 1 4753 1
	mv	a0,a5
	ld	ra,56(sp)
	.cfi_restore 1
	ld	s0,48(sp)
	.cfi_restore 8
	.cfi_def_cfa 2, 64
	addi	sp,sp,64
	.cfi_def_cfa_offset 0
	jr	ra
	.cfi_endproc
.LFE47:
	.size	HiiSetKeyboardLayout, .-HiiSetKeyboardLayout
	.section	.text.HiiGetPackageListHandle,"ax",@progbits
	.align	1
	.globl	HiiGetPackageListHandle
	.type	HiiGetPackageListHandle, @function
HiiGetPackageListHandle:
.LFB48:
	.loc 1 4780 1
	.cfi_startproc
	addi	sp,sp,-80
	.cfi_def_cfa_offset 80
	sd	ra,72(sp)
	sd	s0,64(sp)
	.cfi_offset 1, -8
	.cfi_offset 8, -16
	addi	s0,sp,80
	.cfi_def_cfa 8, 0
	sd	a0,-56(s0)
	sd	a1,-64(s0)
	sd	a2,-72(s0)
	.loc 1 4785 6
	ld	a5,-56(s0)
	beq	a5,zero,.L698
	.loc 1 4785 30 discriminator 1
	ld	a5,-72(s0)
	bne	a5,zero,.L699
.L698:
	.loc 1 4786 12
	li	a5,-1
	slli	a5,a5,63
	addi	a5,a5,2
	j	.L700
.L699:
	.loc 1 4789 8
	ld	a0,-64(s0)
	call	IsHiiHandleValid
	mv	a5,a0
	.loc 1 4789 6 discriminator 1
	bne	a5,zero,.L701
	.loc 1 4790 12
	li	a5,-1
	slli	a5,a5,63
	addi	a5,a5,2
	j	.L700
.L701:
	.loc 1 4793 15
	ld	a5,-56(s0)
	addi	a5,a5,-200
	.loc 1 4793 144
	ld	a4,0(a5)
	.loc 1 4793 229
	li	a5,1883533312
	addi	a5,a5,-1720
	bne	a4,a5,.L702
	.loc 1 4793 11 discriminator 1
	ld	a5,-56(s0)
	addi	a5,a5,-200
	sd	a5,-24(s0)
	j	.L703
.L702:
	.loc 1 4793 11 is_stmt 0 discriminator 2
	sd	zero,-24(s0)
.L703:
	.loc 1 4795 13 is_stmt 1
	ld	a5,-24(s0)
	ld	a5,8(a5)
	sd	a5,-40(s0)
	.loc 1 4795 3
	j	.L704
.L708:
	.loc 1 4796 14
	ld	a5,-40(s0)
	addi	a5,a5,-32
	.loc 1 4796 133
	ld	a4,0(a5)
	.loc 1 4796 218
	li	a5,1919184896
	addi	a5,a5,-1688
	bne	a4,a5,.L705
	.loc 1 4796 10 discriminator 1
	ld	a5,-40(s0)
	addi	a5,a5,-32
	sd	a5,-32(s0)
	j	.L706
.L705:
	.loc 1 4796 10 is_stmt 0 discriminator 2
	sd	zero,-32(s0)
.L706:
	.loc 1 4797 13 is_stmt 1
	ld	a5,-32(s0)
	ld	a5,24(a5)
	.loc 1 4797 8
	ld	a4,-64(s0)
	bne	a4,a5,.L707
	.loc 1 4798 27
	ld	a5,-32(s0)
	ld	a4,16(a5)
	.loc 1 4798 21
	ld	a5,-72(s0)
	sd	a4,0(a5)
	.loc 1 4799 14
	li	a5,0
	j	.L700
.L707:
	.loc 1 4795 87 discriminator 2
	ld	a5,-40(s0)
	ld	a5,0(a5)
	sd	a5,-40(s0)
.L704:
	.loc 1 4795 58 discriminator 1
	ld	a5,-24(s0)
	addi	a5,a5,8
	.loc 1 4795 55 discriminator 1
	ld	a4,-40(s0)
	bne	a4,a5,.L708
	.loc 1 4803 10
	li	a5,-1
	slli	a5,a5,63
	addi	a5,a5,14
.L700:
	.loc 1 4804 1
	mv	a0,a5
	ld	ra,72(sp)
	.cfi_restore 1
	ld	s0,64(sp)
	.cfi_restore 8
	.cfi_def_cfa 2, 80
	addi	sp,sp,80
	.cfi_def_cfa_offset 0
	jr	ra
	.cfi_endproc
.LFE48:
	.size	HiiGetPackageListHandle, .-HiiGetPackageListHandle
	.text
.Letext0:
	.file 2 "/home/kapoagaeming/spacemit-image-builder/components/edk2/MdePkg/Include/RiscV64/ProcessorBind.h"
	.file 3 "/home/kapoagaeming/spacemit-image-builder/components/edk2/MdePkg/Include/Base.h"
	.file 4 "/home/kapoagaeming/spacemit-image-builder/components/edk2/MdePkg/Include/Uefi/UefiBaseType.h"
	.file 5 "/home/kapoagaeming/spacemit-image-builder/components/edk2/MdePkg/Include/Uefi/UefiMultiPhase.h"
	.file 6 "/home/kapoagaeming/spacemit-image-builder/components/edk2/MdePkg/Include/Protocol/DevicePath.h"
	.file 7 "/home/kapoagaeming/spacemit-image-builder/components/edk2/MdePkg/Include/Uefi/UefiSpec.h"
	.file 8 "/home/kapoagaeming/spacemit-image-builder/components/edk2/MdePkg/Include/Uefi/UefiInternalFormRepresentation.h"
	.file 9 "/home/kapoagaeming/spacemit-image-builder/components/Build/Milk-V-Jupiter/RELEASE_GCC5/RISCV64/MdeModulePkg/Universal/HiiDatabaseDxe/HiiDatabaseDxe/DEBUG/AutoGen.h"
	.file 10 "/home/kapoagaeming/spacemit-image-builder/components/edk2/MdePkg/Include/Protocol/GraphicsOutput.h"
	.file 11 "/home/kapoagaeming/spacemit-image-builder/components/edk2/MdePkg/Include/Protocol/HiiImage.h"
	.file 12 "/home/kapoagaeming/spacemit-image-builder/components/edk2/MdePkg/Include/Protocol/HiiFont.h"
	.file 13 "/home/kapoagaeming/spacemit-image-builder/components/edk2/MdePkg/Include/Protocol/HiiImageEx.h"
	.file 14 "/home/kapoagaeming/spacemit-image-builder/components/edk2/MdePkg/Include/Protocol/HiiString.h"
	.file 15 "/home/kapoagaeming/spacemit-image-builder/components/edk2/MdePkg/Include/Protocol/HiiDatabase.h"
	.file 16 "/home/kapoagaeming/spacemit-image-builder/components/edk2/MdePkg/Include/Protocol/HiiConfigRouting.h"
	.file 17 "/home/kapoagaeming/spacemit-image-builder/components/edk2/MdePkg/Include/Protocol/HiiConfigKeyword.h"
	.file 18 "/home/kapoagaeming/spacemit-image-builder/components/edk2/MdeModulePkg/Include/Guid/VariableFormat.h"
	.file 19 "/home/kapoagaeming/spacemit-image-builder/components/edk2/MdeModulePkg/Include/Guid/PcdDataBaseSignatureGuid.h"
	.file 20 "/home/kapoagaeming/spacemit-image-builder/components/edk2/MdePkg/Include/Library/UefiLib.h"
	.file 21 "/home/kapoagaeming/spacemit-image-builder/components/edk2/MdeModulePkg/Universal/HiiDatabaseDxe/HiiDatabase.h"
	.file 22 "/home/kapoagaeming/spacemit-image-builder/components/edk2/MdePkg/Include/Library/MemoryAllocationLib.h"
	.file 23 "/home/kapoagaeming/spacemit-image-builder/components/edk2/MdePkg/Include/Library/BaseLib.h"
	.file 24 "/home/kapoagaeming/spacemit-image-builder/components/edk2/MdePkg/Include/Library/DevicePathLib.h"
	.file 25 "/home/kapoagaeming/spacemit-image-builder/components/edk2/MdePkg/Include/Library/BaseMemoryLib.h"
	.file 26 "/home/kapoagaeming/spacemit-image-builder/components/edk2/MdePkg/Include/Library/PcdLib.h"
	.file 27 "/home/kapoagaeming/spacemit-image-builder/components/edk2/MdePkg/Include/Library/UefiBootServicesTableLib.h"
	.section	.note.GNU-stack,"",@progbits
