	.file	"Image.c"
	.option pic
	.option norelax
	.attribute arch, "rv64i2p1_m2p0_a2p1_f2p2_d2p2_c2p0_zicsr2p0_zifencei2p0_zmmul1p0_zaamo1p0_zalrsc1p0_zca1p0_zcd1p0"
	.attribute unaligned_access, 0
	.attribute stack_align, 16
	.text
.Ltext0:
	.cfi_sections	.debug_frame
	.file 0 "/home/kapoagaeming/Downloads/spacemit-image-builder/components/Build/Milk-V-Jupiter/RELEASE_GCC5/RISCV64/MdeModulePkg/Universal/HiiDatabaseDxe/HiiDatabaseDxe" "/home/kapoagaeming/Downloads/spacemit-image-builder/components/edk2/MdeModulePkg/Universal/HiiDatabaseDxe/Image.c"
	.section	.text.GetImageIdOrAddress,"ax",@progbits
	.align	1
	.globl	GetImageIdOrAddress
	.type	GetImageIdOrAddress, @function
GetImageIdOrAddress:
.LFB0:
	.file 1 "/home/kapoagaeming/Downloads/spacemit-image-builder/components/edk2/MdeModulePkg/Universal/HiiDatabaseDxe/Image.c"
	.loc 1 33 1
	.cfi_startproc
	addi	sp,sp,-80
	.cfi_def_cfa_offset 80
	sd	ra,72(sp)
	sd	s0,64(sp)
	sd	s1,56(sp)
	.cfi_offset 1, -8
	.cfi_offset 8, -16
	.cfi_offset 9, -24
	addi	s0,sp,80
	.cfi_def_cfa 8, 0
	sd	a0,-72(s0)
	sd	a1,-80(s0)
	.loc 1 39 21
	ld	a5,-72(s0)
	sd	a5,-48(s0)
	.loc 1 40 18
	li	a5,1
	sh	a5,-34(s0)
	.loc 1 42 9
	j	.L2
.L23:
	.loc 1 43 9
	ld	a5,-80(s0)
	lhu	a5,0(a5)
	.loc 1 43 8
	beq	a5,zero,.L3
	.loc 1 44 11
	ld	a5,-80(s0)
	lhu	a5,0(a5)
	.loc 1 44 10
	lhu	a4,-34(s0)
	sext.w	a4,a4
	sext.w	a5,a5
	bne	a4,a5,.L4
	.loc 1 49 30
	ld	a5,-48(s0)
	lbu	a5,0(a5)
	.loc 1 49 12
	mv	a4,a5
	li	a5,32
	bne	a4,a5,.L5
	.loc 1 50 47
	ld	a5,-48(s0)
	addi	a5,a5,1
	.loc 1 50 22
	mv	a0,a5
	call	ReadUnaligned16@plt
	mv	a5,a0
	mv	a4,a5
	.loc 1 50 20 discriminator 1
	ld	a5,-80(s0)
	sh	a4,0(a5)
	.loc 1 53 29
	ld	a5,-72(s0)
	sd	a5,-48(s0)
	.loc 1 54 26
	li	a5,1
	sh	a5,-34(s0)
	.loc 1 55 11
	j	.L2
.L5:
	.loc 1 58 16
	ld	a5,-48(s0)
	j	.L7
.L4:
	.loc 1 61 11
	ld	a5,-80(s0)
	lhu	a5,0(a5)
	.loc 1 61 10
	lhu	a4,-34(s0)
	sext.w	a4,a4
	sext.w	a5,a5
	bleu	a4,a5,.L3
	.loc 1 65 16
	li	a5,0
	j	.L7
.L3:
	.loc 1 69 30
	ld	a5,-48(s0)
	lbu	a5,0(a5)
	sext.w	a5,a5
	.loc 1 69 5
	li	a4,50
	beq	a5,a4,.L8
	li	a4,50
	bgt	a5,a4,.L9
	li	a4,49
	beq	a5,a4,.L10
	li	a4,49
	bgt	a5,a4,.L9
	li	a4,48
	beq	a5,a4,.L11
	li	a4,48
	bgt	a5,a4,.L9
	li	a4,34
	beq	a5,a4,.L12
	li	a4,34
	bgt	a5,a4,.L9
	li	a4,33
	beq	a5,a4,.L13
	li	a4,33
	bgt	a5,a4,.L9
	li	a4,32
	beq	a5,a4,.L14
	li	a4,32
	bgt	a5,a4,.L9
	li	a4,25
	beq	a5,a4,.L15
	li	a4,25
	bgt	a5,a4,.L9
	li	a4,24
	beq	a5,a4,.L16
	li	a4,24
	bgt	a5,a4,.L9
	li	a4,23
	bgt	a5,a4,.L9
	li	a4,22
	bge	a5,a4,.L17
	li	a4,21
	bgt	a5,a4,.L9
	li	a4,20
	bge	a5,a4,.L18
	li	a4,17
	bgt	a5,a4,.L19
	li	a4,16
	bge	a5,a4,.L20
	j	.L9
.L19:
	addiw	a5,a5,-18
	sext.w	a4,a5
	li	a5,1
	bgtu	a4,a5,.L9
	j	.L25
.L11:
	.loc 1 71 64
	ld	a5,-48(s0)
	lbu	a5,2(a5)
	.loc 1 71 16
	sd	a5,-56(s0)
	.loc 1 72 9
	j	.L22
.L10:
	.loc 1 74 35
	ld	a5,-48(s0)
	addi	a5,a5,2
	.loc 1 74 18
	mv	a0,a5
	call	ReadUnaligned16@plt
	mv	a5,a0
	.loc 1 74 16 discriminator 1
	sd	a5,-56(s0)
	.loc 1 75 9
	j	.L22
.L8:
	.loc 1 77 43
	ld	a5,-48(s0)
	addi	a5,a5,2
	.loc 1 77 18
	mv	a0,a5
	call	ReadUnaligned32@plt
	mv	a5,a0
	.loc 1 77 16 discriminator 1
	slli	a5,a5,32
	srli	a5,a5,32
	sd	a5,-56(s0)
	.loc 1 78 9
	j	.L22
.L20:
	.loc 1 83 38
	ld	a5,-48(s0)
	addi	a5,a5,2
	.loc 1 83 21
	mv	a0,a5
	call	ReadUnaligned16@plt
	mv	a5,a0
	.loc 1 83 21 is_stmt 0 discriminator 1
	sext.w	a5,a5
	.loc 1 83 108 is_stmt 1 discriminator 1
	addiw	a5,a5,7
	sext.w	a5,a5
	.loc 1 83 113 discriminator 1
	sraiw	a4,a5,31
	srliw	a4,a4,29
	addw	a5,a4,a5
	sraiw	a5,a5,3
	sext.w	s1,a5
	.loc 1 83 137 discriminator 1
	ld	a5,-48(s0)
	addi	a5,a5,4
	.loc 1 83 120 discriminator 1
	mv	a0,a5
	call	ReadUnaligned16@plt
	mv	a5,a0
	.loc 1 83 120 is_stmt 0 discriminator 2
	sext.w	a5,a5
	.loc 1 83 117 is_stmt 1 discriminator 2
	mulw	a5,s1,a5
	sext.w	a5,a5
	.loc 1 82 16
	addi	a5,a5,6
	sd	a5,-56(s0)
	.loc 1 87 23
	lhu	a5,-34(s0)
	addiw	a5,a5,1
	sh	a5,-34(s0)
	.loc 1 88 9
	j	.L22
.L25:
	.loc 1 93 38
	ld	a5,-48(s0)
	addi	a5,a5,2
	.loc 1 93 21
	mv	a0,a5
	call	ReadUnaligned16@plt
	mv	a5,a0
	.loc 1 93 21 is_stmt 0 discriminator 1
	sext.w	a5,a5
	.loc 1 93 108 is_stmt 1 discriminator 1
	addiw	a5,a5,1
	sext.w	a5,a5
	.loc 1 93 113 discriminator 1
	srliw	a4,a5,31
	addw	a5,a4,a5
	sraiw	a5,a5,1
	sext.w	s1,a5
	.loc 1 93 137 discriminator 1
	ld	a5,-48(s0)
	addi	a5,a5,4
	.loc 1 93 120 discriminator 1
	mv	a0,a5
	call	ReadUnaligned16@plt
	mv	a5,a0
	.loc 1 93 120 is_stmt 0 discriminator 2
	sext.w	a5,a5
	.loc 1 93 117 is_stmt 1 discriminator 2
	mulw	a5,s1,a5
	sext.w	a5,a5
	.loc 1 92 16
	addi	a5,a5,6
	sd	a5,-56(s0)
	.loc 1 97 23
	lhu	a5,-34(s0)
	addiw	a5,a5,1
	sh	a5,-34(s0)
	.loc 1 98 9
	j	.L22
.L18:
	.loc 1 103 45
	ld	a5,-48(s0)
	addi	a5,a5,2
	.loc 1 103 28
	mv	a0,a5
	call	ReadUnaligned16@plt
	mv	a5,a0
	.loc 1 103 20 discriminator 1
	sext.w	s1,a5
	.loc 1 103 135 discriminator 1
	ld	a5,-48(s0)
	addi	a5,a5,4
	.loc 1 103 118 discriminator 1
	mv	a0,a5
	call	ReadUnaligned16@plt
	mv	a5,a0
	.loc 1 103 118 is_stmt 0 discriminator 2
	sext.w	a5,a5
	.loc 1 103 115 is_stmt 1 discriminator 2
	mulw	a5,s1,a5
	sext.w	a5,a5
	slli	a5,a5,32
	srli	a5,a5,32
	.loc 1 102 16
	addi	a5,a5,6
	sd	a5,-56(s0)
	.loc 1 107 23
	lhu	a5,-34(s0)
	addiw	a5,a5,1
	sh	a5,-34(s0)
	.loc 1 108 9
	j	.L22
.L17:
	.loc 1 113 53
	ld	a5,-48(s0)
	addi	a5,a5,1
	.loc 1 113 28
	mv	a0,a5
	call	ReadUnaligned16@plt
	mv	a5,a0
	.loc 1 113 20 discriminator 1
	sext.w	s1,a5
	.loc 1 113 152 discriminator 1
	ld	a5,-48(s0)
	addi	a5,a5,3
	.loc 1 113 127 discriminator 1
	mv	a0,a5
	call	ReadUnaligned16@plt
	mv	a5,a0
	.loc 1 113 127 is_stmt 0 discriminator 2
	sext.w	a5,a5
	.loc 1 113 124 is_stmt 1 discriminator 2
	mulw	a5,s1,a5
	sext.w	a5,a5
	.loc 1 113 224 discriminator 2
	mv	a4,a5
	mv	a5,a4
	slliw	a5,a5,1
	addw	a5,a5,a4
	sext.w	a5,a5
	slli	a5,a5,32
	srli	a5,a5,32
	.loc 1 112 16
	addi	a5,a5,5
	sd	a5,-56(s0)
	.loc 1 117 23
	lhu	a5,-34(s0)
	addiw	a5,a5,1
	sh	a5,-34(s0)
	.loc 1 118 9
	j	.L22
.L14:
	.loc 1 121 16
	li	a5,3
	sd	a5,-56(s0)
	.loc 1 122 23
	lhu	a5,-34(s0)
	addiw	a5,a5,1
	sh	a5,-34(s0)
	.loc 1 123 9
	j	.L22
.L16:
	.loc 1 126 105
	ld	a5,-48(s0)
	addi	a5,a5,1
	.loc 1 126 80
	mv	a0,a5
	call	ReadUnaligned32@plt
	mv	a5,a0
	.loc 1 126 80 is_stmt 0 discriminator 1
	slli	a5,a5,32
	srli	a5,a5,32
	.loc 1 126 16 is_stmt 1 discriminator 1
	addi	a5,a5,5
	sd	a5,-56(s0)
	.loc 1 127 23
	lhu	a5,-34(s0)
	addiw	a5,a5,1
	sh	a5,-34(s0)
	.loc 1 128 9
	j	.L22
.L15:
	.loc 1 131 104
	ld	a5,-48(s0)
	addi	a5,a5,1
	.loc 1 131 79
	mv	a0,a5
	call	ReadUnaligned32@plt
	mv	a5,a0
	.loc 1 131 79 is_stmt 0 discriminator 1
	slli	a5,a5,32
	srli	a5,a5,32
	.loc 1 131 16 is_stmt 1 discriminator 1
	addi	a5,a5,5
	sd	a5,-56(s0)
	.loc 1 132 23
	lhu	a5,-34(s0)
	addiw	a5,a5,1
	sh	a5,-34(s0)
	.loc 1 133 9
	j	.L22
.L12:
	.loc 1 136 16
	li	a5,2
	sd	a5,-56(s0)
	.loc 1 137 74
	ld	a5,-48(s0)
	lbu	a5,1(a5)
	.loc 1 137 24
	lhu	a4,-34(s0)
	addw	a5,a4,a5
	sh	a5,-34(s0)
	.loc 1 138 9
	j	.L22
.L13:
	.loc 1 141 16
	li	a5,3
	sd	a5,-56(s0)
	.loc 1 142 52
	ld	a5,-48(s0)
	addi	a5,a5,1
	.loc 1 142 27
	mv	a0,a5
	call	ReadUnaligned16@plt
	mv	a5,a0
	mv	a4,a5
	.loc 1 142 24 discriminator 1
	lhu	a5,-34(s0)
	addw	a5,a4,a5
	sh	a5,-34(s0)
	.loc 1 143 9
	j	.L22
.L9:
	.loc 1 150 16
	sd	zero,-56(s0)
	.loc 1 151 9
	nop
.L22:
	.loc 1 154 23
	ld	a4,-48(s0)
	ld	a5,-56(s0)
	add	a5,a4,a5
	sd	a5,-48(s0)
.L2:
	.loc 1 42 27
	ld	a5,-48(s0)
	lbu	a5,0(a5)
	.loc 1 42 39
	bne	a5,zero,.L23
	.loc 1 160 7
	ld	a5,-80(s0)
	lhu	a5,0(a5)
	.loc 1 160 6
	bne	a5,zero,.L24
	.loc 1 161 14
	ld	a5,-80(s0)
	lhu	a4,-34(s0)
	sh	a4,0(a5)
	.loc 1 162 12
	ld	a5,-48(s0)
	j	.L7
.L24:
	.loc 1 165 10
	li	a5,0
.L7:
	.loc 1 166 1
	mv	a0,a5
	ld	ra,72(sp)
	.cfi_restore 1
	ld	s0,64(sp)
	.cfi_restore 8
	.cfi_def_cfa 2, 80
	ld	s1,56(sp)
	.cfi_restore 9
	addi	sp,sp,80
	.cfi_def_cfa_offset 0
	jr	ra
	.cfi_endproc
.LFE0:
	.size	GetImageIdOrAddress, .-GetImageIdOrAddress
	.section	.text.CopyGopToRgbPixel,"ax",@progbits
	.align	1
	.globl	CopyGopToRgbPixel
	.type	CopyGopToRgbPixel, @function
CopyGopToRgbPixel:
.LFB1:
	.loc 1 186 1
	.cfi_startproc
	addi	sp,sp,-64
	.cfi_def_cfa_offset 64
	sd	ra,56(sp)
	sd	s0,48(sp)
	.cfi_offset 1, -8
	.cfi_offset 8, -16
	addi	s0,sp,64
	.cfi_def_cfa 8, 0
	sd	a0,-40(s0)
	sd	a1,-48(s0)
	sd	a2,-56(s0)
	.loc 1 191 14
	sd	zero,-24(s0)
	.loc 1 191 3
	j	.L27
.L28:
	.loc 1 192 24
	ld	a4,-24(s0)
	mv	a5,a4
	slli	a5,a5,1
	add	a5,a5,a4
	ld	a4,-40(s0)
	add	a3,a4,a5
	.loc 1 192 42
	ld	a5,-24(s0)
	slli	a5,a5,2
	ld	a4,-48(s0)
	add	a5,a4,a5
	.loc 1 192 5
	li	a2,3
	mv	a1,a5
	mv	a0,a3
	call	CopyMem@plt
	.loc 1 191 42 discriminator 3
	ld	a5,-24(s0)
	addi	a5,a5,1
	sd	a5,-24(s0)
.L27:
	.loc 1 191 25 discriminator 1
	ld	a4,-24(s0)
	ld	a5,-56(s0)
	bltu	a4,a5,.L28
	.loc 1 194 1
	nop
	nop
	ld	ra,56(sp)
	.cfi_restore 1
	ld	s0,48(sp)
	.cfi_restore 8
	.cfi_def_cfa 2, 64
	addi	sp,sp,64
	.cfi_def_cfa_offset 0
	jr	ra
	.cfi_endproc
.LFE1:
	.size	CopyGopToRgbPixel, .-CopyGopToRgbPixel
	.section	.text.CopyRgbToGopPixel,"ax",@progbits
	.align	1
	.globl	CopyRgbToGopPixel
	.type	CopyRgbToGopPixel, @function
CopyRgbToGopPixel:
.LFB2:
	.loc 1 214 1
	.cfi_startproc
	addi	sp,sp,-64
	.cfi_def_cfa_offset 64
	sd	ra,56(sp)
	sd	s0,48(sp)
	.cfi_offset 1, -8
	.cfi_offset 8, -16
	addi	s0,sp,64
	.cfi_def_cfa 8, 0
	sd	a0,-40(s0)
	sd	a1,-48(s0)
	sd	a2,-56(s0)
	.loc 1 219 14
	sd	zero,-24(s0)
	.loc 1 219 3
	j	.L30
.L31:
	.loc 1 220 24
	ld	a5,-24(s0)
	slli	a5,a5,2
	ld	a4,-40(s0)
	add	a3,a4,a5
	.loc 1 220 42
	ld	a4,-24(s0)
	mv	a5,a4
	slli	a5,a5,1
	add	a5,a5,a4
	ld	a4,-48(s0)
	add	a5,a4,a5
	.loc 1 220 5
	li	a2,3
	mv	a1,a5
	mv	a0,a3
	call	CopyMem@plt
	.loc 1 219 42 discriminator 3
	ld	a5,-24(s0)
	addi	a5,a5,1
	sd	a5,-24(s0)
.L30:
	.loc 1 219 25 discriminator 1
	ld	a4,-24(s0)
	ld	a5,-56(s0)
	bltu	a4,a5,.L31
	.loc 1 222 1
	nop
	nop
	ld	ra,56(sp)
	.cfi_restore 1
	ld	s0,48(sp)
	.cfi_restore 8
	.cfi_def_cfa 2, 64
	addi	sp,sp,64
	.cfi_def_cfa_offset 0
	jr	ra
	.cfi_endproc
.LFE2:
	.size	CopyRgbToGopPixel, .-CopyRgbToGopPixel
	.section	.text.Output1bitPixel,"ax",@progbits
	.align	1
	.globl	Output1bitPixel
	.type	Output1bitPixel, @function
Output1bitPixel:
.LFB3:
	.loc 1 244 1
	.cfi_startproc
	addi	sp,sp,-112
	.cfi_def_cfa_offset 112
	sd	ra,104(sp)
	sd	s0,96(sp)
	.cfi_offset 1, -8
	.cfi_offset 8, -16
	addi	s0,sp,112
	.cfi_def_cfa 8, 0
	sd	a0,-88(s0)
	sd	a1,-96(s0)
	sd	a2,-104(s0)
	.loc 1 257 13
	ld	a5,-88(s0)
	ld	a5,8(a5)
	sd	a5,-32(s0)
	.loc 1 262 15
	sd	zero,-72(s0)
	.loc 1 263 3
	addi	a5,s0,-72
	li	a2,2
	ld	a1,-104(s0)
	mv	a0,a5
	call	CopyMem@plt
	.loc 1 264 15
	ld	a5,-72(s0)
	addi	a5,a5,2
	sd	a5,-72(s0)
	.loc 1 265 13
	ld	a5,-72(s0)
	mv	a0,a5
	call	AllocateZeroPool@plt
	sd	a0,-40(s0)
	.loc 1 267 6
	ld	a5,-40(s0)
	beq	a5,zero,.L48
	.loc 1 271 3
	ld	a5,-72(s0)
	mv	a2,a5
	ld	a1,-104(s0)
	ld	a0,-40(s0)
	call	CopyMem@plt
	.loc 1 273 3
	addi	a5,s0,-64
	li	a1,8
	mv	a0,a5
	call	ZeroMem@plt
	.loc 1 274 3
	ld	a5,-40(s0)
	addi	a4,a5,2
	addi	a5,s0,-64
	li	a2,1
	mv	a1,a4
	mv	a0,a5
	call	CopyRgbToGopPixel
	.loc 1 275 3
	ld	a5,-40(s0)
	addi	a4,a5,5
	addi	a5,s0,-64
	addi	a5,a5,4
	li	a2,1
	mv	a1,a4
	mv	a0,a5
	call	CopyRgbToGopPixel
	.loc 1 276 3
	ld	a0,-40(s0)
	call	FreePool@plt
	.loc 1 281 13
	sh	zero,-20(s0)
	.loc 1 281 3
	j	.L35
.L47:
	.loc 1 282 23
	ld	a5,-88(s0)
	lhu	a5,4(a5)
	sext.w	a5,a5
	.loc 1 282 32
	addiw	a5,a5,7
	sext.w	a5,a5
	.loc 1 282 37
	sraiw	a4,a5,31
	srliw	a4,a4,29
	addw	a5,a4,a5
	sraiw	a5,a5,3
	sext.w	a4,a5
	.loc 1 282 41
	lhu	a5,-20(s0)
	sext.w	a5,a5
	mulw	a5,a4,a5
	sext.w	a5,a5
	.loc 1 282 13
	sd	a5,-48(s0)
	.loc 1 286 15
	sh	zero,-18(s0)
	.loc 1 286 5
	j	.L36
.L41:
	.loc 1 287 31
	lhu	a4,-18(s0)
	ld	a5,-48(s0)
	add	a5,a4,a5
	ld	a4,-96(s0)
	add	a5,a4,a5
	.loc 1 287 12
	lbu	a5,0(a5)
	sb	a5,-49(s0)
	.loc 1 288 18
	sb	zero,-21(s0)
	.loc 1 288 7
	j	.L37
.L40:
	.loc 1 289 35
	lbu	a5,-49(s0)
	sext.w	a4,a5
	lbu	a5,-21(s0)
	sext.w	a5,a5
	sraw	a5,a4,a5
	sext.w	a5,a5
	andi	a5,a5,1
	sext.w	a5,a5
	.loc 1 289 12
	beq	a5,zero,.L38
	.loc 1 290 26
	lhu	a5,-20(s0)
	sext.w	a4,a5
	.loc 1 290 33
	ld	a5,-88(s0)
	lhu	a5,4(a5)
	sext.w	a5,a5
	.loc 1 290 26
	mulw	a5,a4,a5
	sext.w	a4,a5
	.loc 1 290 48
	lhu	a5,-18(s0)
	sext.w	a5,a5
	slliw	a5,a5,3
	sext.w	a5,a5
	.loc 1 290 41
	addw	a5,a4,a5
	sext.w	a4,a5
	.loc 1 290 65
	lbu	a5,-21(s0)
	sext.w	a5,a5
	li	a3,7
	subw	a5,a3,a5
	sext.w	a5,a5
	.loc 1 290 52
	addw	a5,a4,a5
	sext.w	a5,a5
	.loc 1 290 20
	slli	a5,a5,2
	ld	a4,-32(s0)
	add	a5,a4,a5
	.loc 1 290 71
	lbu	a4,-60(s0)
	mv	a2,a4
	lbu	a4,-59(s0)
	mv	a3,a4
	lbu	a4,-58(s0)
	sb	a2,0(a5)
	sb	a3,1(a5)
	sb	a4,2(a5)
	lbu	a4,-57(s0)
	sb	a4,3(a5)
	j	.L39
.L38:
	.loc 1 292 26
	lhu	a5,-20(s0)
	sext.w	a4,a5
	.loc 1 292 33
	ld	a5,-88(s0)
	lhu	a5,4(a5)
	sext.w	a5,a5
	.loc 1 292 26
	mulw	a5,a4,a5
	sext.w	a4,a5
	.loc 1 292 48
	lhu	a5,-18(s0)
	sext.w	a5,a5
	slliw	a5,a5,3
	sext.w	a5,a5
	.loc 1 292 41
	addw	a5,a4,a5
	sext.w	a4,a5
	.loc 1 292 65
	lbu	a5,-21(s0)
	sext.w	a5,a5
	li	a3,7
	subw	a5,a3,a5
	sext.w	a5,a5
	.loc 1 292 52
	addw	a5,a4,a5
	sext.w	a5,a5
	.loc 1 292 20
	slli	a5,a5,2
	ld	a4,-32(s0)
	add	a5,a4,a5
	.loc 1 292 71
	lbu	a4,-64(s0)
	mv	a2,a4
	lbu	a4,-63(s0)
	mv	a3,a4
	lbu	a4,-62(s0)
	sb	a2,0(a5)
	sb	a3,1(a5)
	sb	a4,2(a5)
	lbu	a4,-61(s0)
	sb	a4,3(a5)
.L39:
	.loc 1 288 39 discriminator 2
	lbu	a5,-21(s0)
	addiw	a5,a5,1
	sb	a5,-21(s0)
.L37:
	.loc 1 288 29 discriminator 1
	lbu	a5,-21(s0)
	andi	a4,a5,0xff
	li	a5,7
	bleu	a4,a5,.L40
	.loc 1 286 49 discriminator 2
	lhu	a5,-18(s0)
	addiw	a5,a5,1
	sh	a5,-18(s0)
.L36:
	.loc 1 286 32 discriminator 1
	ld	a5,-88(s0)
	lhu	a5,4(a5)
	.loc 1 286 25 discriminator 1
	srliw	a5,a5,3
	slli	a5,a5,48
	srli	a5,a5,48
	lhu	a4,-18(s0)
	sext.w	a4,a4
	sext.w	a5,a5
	bltu	a4,a5,.L41
	.loc 1 297 14
	ld	a5,-88(s0)
	lhu	a5,4(a5)
	.loc 1 297 26
	andi	a5,a5,7
	slli	a5,a5,48
	srli	a5,a5,48
	.loc 1 297 8
	beq	a5,zero,.L42
	.loc 1 301 31
	lhu	a4,-18(s0)
	ld	a5,-48(s0)
	add	a5,a4,a5
	ld	a4,-96(s0)
	add	a5,a4,a5
	.loc 1 301 12
	lbu	a5,0(a5)
	sb	a5,-49(s0)
	.loc 1 302 18
	sb	zero,-21(s0)
	.loc 1 302 7
	j	.L43
.L46:
	.loc 1 303 45
	lbu	a5,-49(s0)
	sext.w	a4,a5
	.loc 1 303 38
	lbu	a5,-21(s0)
	sext.w	a5,a5
	li	a3,7
	subw	a5,a3,a5
	sext.w	a5,a5
	.loc 1 303 45
	sraw	a5,a4,a5
	sext.w	a5,a5
	andi	a5,a5,1
	sext.w	a5,a5
	.loc 1 303 12
	beq	a5,zero,.L44
	.loc 1 304 26
	lhu	a5,-20(s0)
	sext.w	a4,a5
	.loc 1 304 33
	ld	a5,-88(s0)
	lhu	a5,4(a5)
	sext.w	a5,a5
	.loc 1 304 26
	mulw	a5,a4,a5
	sext.w	a4,a5
	.loc 1 304 48
	lhu	a5,-18(s0)
	sext.w	a5,a5
	slliw	a5,a5,3
	sext.w	a5,a5
	.loc 1 304 41
	addw	a5,a4,a5
	sext.w	a4,a5
	.loc 1 304 52
	lbu	a5,-21(s0)
	sext.w	a5,a5
	addw	a5,a4,a5
	sext.w	a5,a5
	.loc 1 304 20
	slli	a5,a5,2
	ld	a4,-32(s0)
	add	a5,a4,a5
	.loc 1 304 61
	lbu	a4,-60(s0)
	mv	a2,a4
	lbu	a4,-59(s0)
	mv	a3,a4
	lbu	a4,-58(s0)
	sb	a2,0(a5)
	sb	a3,1(a5)
	sb	a4,2(a5)
	lbu	a4,-57(s0)
	sb	a4,3(a5)
	j	.L45
.L44:
	.loc 1 306 26
	lhu	a5,-20(s0)
	sext.w	a4,a5
	.loc 1 306 33
	ld	a5,-88(s0)
	lhu	a5,4(a5)
	sext.w	a5,a5
	.loc 1 306 26
	mulw	a5,a4,a5
	sext.w	a4,a5
	.loc 1 306 48
	lhu	a5,-18(s0)
	sext.w	a5,a5
	slliw	a5,a5,3
	sext.w	a5,a5
	.loc 1 306 41
	addw	a5,a4,a5
	sext.w	a4,a5
	.loc 1 306 52
	lbu	a5,-21(s0)
	sext.w	a5,a5
	addw	a5,a4,a5
	sext.w	a5,a5
	.loc 1 306 20
	slli	a5,a5,2
	ld	a4,-32(s0)
	add	a5,a4,a5
	.loc 1 306 61
	lbu	a4,-64(s0)
	mv	a2,a4
	lbu	a4,-63(s0)
	mv	a3,a4
	lbu	a4,-62(s0)
	sb	a2,0(a5)
	sb	a3,1(a5)
	sb	a4,2(a5)
	lbu	a4,-61(s0)
	sb	a4,3(a5)
.L45:
	.loc 1 302 54 discriminator 2
	lbu	a5,-21(s0)
	addiw	a5,a5,1
	sb	a5,-21(s0)
.L43:
	.loc 1 302 29 discriminator 1
	lbu	a5,-21(s0)
	slli	a4,a5,48
	srli	a4,a4,48
	.loc 1 302 36 discriminator 1
	ld	a5,-88(s0)
	lhu	a5,4(a5)
	.loc 1 302 29 discriminator 1
	andi	a5,a5,7
	slli	a5,a5,48
	srli	a5,a5,48
	sext.w	a4,a4
	sext.w	a5,a5
	bltu	a4,a5,.L46
.L42:
	.loc 1 281 44 discriminator 2
	lhu	a5,-20(s0)
	addiw	a5,a5,1
	sh	a5,-20(s0)
.L35:
	.loc 1 281 30 discriminator 1
	ld	a5,-88(s0)
	lhu	a5,6(a5)
	.loc 1 281 23 discriminator 1
	lhu	a4,-20(s0)
	sext.w	a4,a4
	sext.w	a5,a5
	bltu	a4,a5,.L47
	j	.L32
.L48:
	.loc 1 268 5 discriminator 1
	nop
.L32:
	.loc 1 311 1
	ld	ra,104(sp)
	.cfi_restore 1
	ld	s0,96(sp)
	.cfi_restore 8
	.cfi_def_cfa 2, 112
	addi	sp,sp,112
	.cfi_def_cfa_offset 0
	jr	ra
	.cfi_endproc
.LFE3:
	.size	Output1bitPixel, .-Output1bitPixel
	.section	.text.Output4bitPixel,"ax",@progbits
	.align	1
	.globl	Output4bitPixel
	.type	Output4bitPixel, @function
Output4bitPixel:
.LFB4:
	.loc 1 333 1
	.cfi_startproc
	addi	sp,sp,-176
	.cfi_def_cfa_offset 176
	sd	ra,168(sp)
	sd	s0,160(sp)
	.cfi_offset 1, -8
	.cfi_offset 8, -16
	addi	s0,sp,176
	.cfi_def_cfa 8, 0
	sd	a0,-152(s0)
	sd	a1,-160(s0)
	sd	a2,-168(s0)
	.loc 1 346 13
	ld	a5,-152(s0)
	ld	a5,8(a5)
	sd	a5,-32(s0)
	.loc 1 351 15
	sd	zero,-136(s0)
	.loc 1 352 3
	addi	a5,s0,-136
	li	a2,2
	ld	a1,-168(s0)
	mv	a0,a5
	call	CopyMem@plt
	.loc 1 353 15
	ld	a5,-136(s0)
	addi	a5,a5,2
	sd	a5,-136(s0)
	.loc 1 354 13
	ld	a5,-136(s0)
	mv	a0,a5
	call	AllocateZeroPool@plt
	sd	a0,-40(s0)
	.loc 1 356 6
	ld	a5,-40(s0)
	beq	a5,zero,.L58
	.loc 1 360 3
	ld	a5,-136(s0)
	mv	a2,a5
	ld	a1,-168(s0)
	ld	a0,-40(s0)
	call	CopyMem@plt
	.loc 1 361 32
	ld	a5,-40(s0)
	lbu	a4,0(a5)
	lbu	a5,1(a5)
	slli	a5,a5,8
	or	a5,a5,a4
	slli	a5,a5,48
	srli	a5,a5,48
	.loc 1 361 14
	slli	a4,a5,32
	srli	a4,a4,32
	lla	a5,.LC0
	ld	a5,0(a5)
	mul	a5,a4,a5
	srli	a5,a5,32
	srliw	a5,a5,1
	sh	a5,-42(s0)
	.loc 1 363 3
	addi	a5,s0,-128
	li	a1,64
	mv	a0,a5
	call	ZeroMem@plt
	.loc 1 364 43
	ld	a5,-40(s0)
	addi	a1,a5,2
	.loc 1 364 147
	lhu	a5,-42(s0)
	slliw	a4,a5,16
	srliw	a4,a4,16
	sext.w	a3,a4
	li	a4,16
	bleu	a3,a4,.L52
	li	a5,16
.L52:
	slli	a5,a5,48
	srli	a5,a5,48
	.loc 1 364 3
	mv	a4,a5
	addi	a5,s0,-128
	mv	a2,a4
	mv	a0,a5
	call	CopyRgbToGopPixel
	.loc 1 365 3
	ld	a0,-40(s0)
	call	FreePool@plt
	.loc 1 370 13
	sh	zero,-20(s0)
	.loc 1 370 3
	j	.L53
.L57:
	.loc 1 371 23
	ld	a5,-152(s0)
	lhu	a5,4(a5)
	sext.w	a5,a5
	.loc 1 371 32
	addiw	a5,a5,1
	sext.w	a5,a5
	.loc 1 371 37
	srliw	a4,a5,31
	addw	a5,a4,a5
	sraiw	a5,a5,1
	sext.w	a4,a5
	.loc 1 371 41
	lhu	a5,-20(s0)
	sext.w	a5,a5
	mulw	a5,a4,a5
	sext.w	a5,a5
	.loc 1 371 13
	sd	a5,-56(s0)
	.loc 1 375 15
	sh	zero,-18(s0)
	.loc 1 375 5
	j	.L54
.L55:
	.loc 1 376 31
	lhu	a4,-18(s0)
	ld	a5,-56(s0)
	add	a5,a4,a5
	ld	a4,-160(s0)
	add	a5,a4,a5
	.loc 1 376 12
	lbu	a5,0(a5)
	sb	a5,-57(s0)
	.loc 1 377 69
	lbu	a5,-57(s0)
	srliw	a5,a5,4
	andi	a5,a5,0xff
	sext.w	a3,a5
	.loc 1 377 22
	lhu	a5,-20(s0)
	sext.w	a4,a5
	.loc 1 377 29
	ld	a5,-152(s0)
	lhu	a5,4(a5)
	sext.w	a5,a5
	.loc 1 377 22
	mulw	a5,a4,a5
	sext.w	a4,a5
	.loc 1 377 44
	lhu	a5,-18(s0)
	sext.w	a5,a5
	slliw	a5,a5,1
	sext.w	a5,a5
	.loc 1 377 37
	addw	a5,a4,a5
	sext.w	a5,a5
	.loc 1 377 16
	slli	a5,a5,2
	ld	a4,-32(s0)
	add	a5,a4,a5
	.loc 1 377 49
	addi	a4,s0,-128
	slli	a3,a3,2
	add	a4,a3,a4
	lbu	a3,0(a4)
	mv	a1,a3
	lbu	a3,1(a4)
	mv	a2,a3
	lbu	a3,2(a4)
	sb	a1,0(a5)
	sb	a2,1(a5)
	sb	a3,2(a5)
	lbu	a4,3(a4)
	sb	a4,3(a5)
	.loc 1 378 73
	lbu	a5,-57(s0)
	sext.w	a5,a5
	andi	a5,a5,15
	sext.w	a3,a5
	.loc 1 378 22
	lhu	a5,-20(s0)
	sext.w	a4,a5
	.loc 1 378 29
	ld	a5,-152(s0)
	lhu	a5,4(a5)
	sext.w	a5,a5
	.loc 1 378 22
	mulw	a5,a4,a5
	sext.w	a4,a5
	.loc 1 378 44
	lhu	a5,-18(s0)
	sext.w	a5,a5
	slliw	a5,a5,1
	sext.w	a5,a5
	.loc 1 378 37
	addw	a5,a4,a5
	sext.w	a5,a5
	.loc 1 378 16
	addi	a5,a5,1
	slli	a5,a5,2
	ld	a4,-32(s0)
	add	a5,a4,a5
	.loc 1 378 53
	addi	a4,s0,-128
	slli	a3,a3,2
	add	a4,a3,a4
	lbu	a3,0(a4)
	mv	a1,a3
	lbu	a3,1(a4)
	mv	a2,a3
	lbu	a3,2(a4)
	sb	a1,0(a5)
	sb	a2,1(a5)
	sb	a3,2(a5)
	lbu	a4,3(a4)
	sb	a4,3(a5)
	.loc 1 375 49 discriminator 3
	lhu	a5,-18(s0)
	addiw	a5,a5,1
	sh	a5,-18(s0)
.L54:
	.loc 1 375 32 discriminator 1
	ld	a5,-152(s0)
	lhu	a5,4(a5)
	.loc 1 375 25 discriminator 1
	srliw	a5,a5,1
	slli	a5,a5,48
	srli	a5,a5,48
	lhu	a4,-18(s0)
	sext.w	a4,a4
	sext.w	a5,a5
	bltu	a4,a5,.L55
	.loc 1 381 14
	ld	a5,-152(s0)
	lhu	a5,4(a5)
	.loc 1 381 26
	andi	a5,a5,1
	slli	a5,a5,48
	srli	a5,a5,48
	.loc 1 381 8
	beq	a5,zero,.L56
	.loc 1 385 31
	lhu	a4,-18(s0)
	ld	a5,-56(s0)
	add	a5,a4,a5
	ld	a4,-160(s0)
	add	a5,a4,a5
	.loc 1 385 12
	lbu	a5,0(a5)
	sb	a5,-57(s0)
	.loc 1 386 69
	lbu	a5,-57(s0)
	srliw	a5,a5,4
	andi	a5,a5,0xff
	sext.w	a3,a5
	.loc 1 386 22
	lhu	a5,-20(s0)
	sext.w	a4,a5
	.loc 1 386 29
	ld	a5,-152(s0)
	lhu	a5,4(a5)
	sext.w	a5,a5
	.loc 1 386 22
	mulw	a5,a4,a5
	sext.w	a4,a5
	.loc 1 386 44
	lhu	a5,-18(s0)
	sext.w	a5,a5
	slliw	a5,a5,1
	sext.w	a5,a5
	.loc 1 386 37
	addw	a5,a4,a5
	sext.w	a5,a5
	.loc 1 386 16
	slli	a5,a5,2
	ld	a4,-32(s0)
	add	a5,a4,a5
	.loc 1 386 49
	addi	a4,s0,-128
	slli	a3,a3,2
	add	a4,a3,a4
	lbu	a3,0(a4)
	mv	a1,a3
	lbu	a3,1(a4)
	mv	a2,a3
	lbu	a3,2(a4)
	sb	a1,0(a5)
	sb	a2,1(a5)
	sb	a3,2(a5)
	lbu	a4,3(a4)
	sb	a4,3(a5)
.L56:
	.loc 1 370 44 discriminator 2
	lhu	a5,-20(s0)
	addiw	a5,a5,1
	sh	a5,-20(s0)
.L53:
	.loc 1 370 30 discriminator 1
	ld	a5,-152(s0)
	lhu	a5,6(a5)
	.loc 1 370 23 discriminator 1
	lhu	a4,-20(s0)
	sext.w	a4,a4
	sext.w	a5,a5
	bltu	a4,a5,.L57
	j	.L49
.L58:
	.loc 1 357 5 discriminator 1
	nop
.L49:
	.loc 1 389 1
	ld	ra,168(sp)
	.cfi_restore 1
	ld	s0,160(sp)
	.cfi_restore 8
	.cfi_def_cfa 2, 176
	addi	sp,sp,176
	.cfi_def_cfa_offset 0
	jr	ra
	.cfi_endproc
.LFE4:
	.size	Output4bitPixel, .-Output4bitPixel
	.section	.text.Output8bitPixel,"ax",@progbits
	.align	1
	.globl	Output8bitPixel
	.type	Output8bitPixel, @function
Output8bitPixel:
.LFB5:
	.loc 1 411 1
	.cfi_startproc
	addi	sp,sp,-1136
	.cfi_def_cfa_offset 1136
	sd	ra,1128(sp)
	sd	s0,1120(sp)
	.cfi_offset 1, -8
	.cfi_offset 8, -16
	addi	s0,sp,1136
	.cfi_def_cfa 8, 0
	sd	a0,-1112(s0)
	sd	a1,-1120(s0)
	sd	a2,-1128(s0)
	.loc 1 424 13
	ld	a5,-1112(s0)
	ld	a5,8(a5)
	sd	a5,-32(s0)
	.loc 1 429 15
	sd	zero,-1096(s0)
	.loc 1 430 3
	addi	a5,s0,-1096
	li	a2,2
	ld	a1,-1128(s0)
	mv	a0,a5
	call	CopyMem@plt
	.loc 1 431 15
	ld	a5,-1096(s0)
	addi	a5,a5,2
	sd	a5,-1096(s0)
	.loc 1 432 13
	ld	a5,-1096(s0)
	mv	a0,a5
	call	AllocateZeroPool@plt
	sd	a0,-40(s0)
	.loc 1 434 6
	ld	a5,-40(s0)
	beq	a5,zero,.L67
	.loc 1 438 3
	ld	a5,-1096(s0)
	mv	a2,a5
	ld	a1,-1128(s0)
	ld	a0,-40(s0)
	call	CopyMem@plt
	.loc 1 439 32
	ld	a5,-40(s0)
	lbu	a4,0(a5)
	lbu	a5,1(a5)
	slli	a5,a5,8
	or	a5,a5,a4
	slli	a5,a5,48
	srli	a5,a5,48
	.loc 1 439 14
	slli	a4,a5,32
	srli	a4,a4,32
	lla	a5,.LC0
	ld	a5,0(a5)
	mul	a5,a4,a5
	srli	a5,a5,32
	srliw	a5,a5,1
	sh	a5,-42(s0)
	.loc 1 440 3
	addi	a5,s0,-1088
	li	a1,1024
	mv	a0,a5
	call	ZeroMem@plt
	.loc 1 441 43
	ld	a5,-40(s0)
	addi	a1,a5,2
	.loc 1 441 147
	lhu	a5,-42(s0)
	slliw	a4,a5,16
	srliw	a4,a4,16
	sext.w	a3,a4
	li	a4,256
	bleu	a3,a4,.L62
	li	a5,256
.L62:
	slli	a5,a5,48
	srli	a5,a5,48
	.loc 1 441 3
	mv	a4,a5
	addi	a5,s0,-1088
	mv	a2,a4
	mv	a0,a5
	call	CopyRgbToGopPixel
	.loc 1 442 3
	ld	a0,-40(s0)
	call	FreePool@plt
	.loc 1 447 13
	sh	zero,-20(s0)
	.loc 1 447 3
	j	.L63
.L66:
	.loc 1 448 30
	ld	a5,-1112(s0)
	lhu	a5,4(a5)
	.loc 1 448 17
	sext.w	a4,a5
	.loc 1 448 39
	lhu	a5,-20(s0)
	sext.w	a5,a5
	mulw	a5,a4,a5
	sext.w	a5,a5
	.loc 1 448 13
	slli	a5,a5,32
	srli	a5,a5,32
	sd	a5,-56(s0)
	.loc 1 452 15
	sh	zero,-18(s0)
	.loc 1 452 5
	j	.L64
.L65:
	.loc 1 453 31
	lhu	a4,-18(s0)
	ld	a5,-56(s0)
	add	a5,a4,a5
	ld	a4,-1120(s0)
	add	a5,a4,a5
	.loc 1 453 12
	lbu	a5,0(a5)
	sb	a5,-57(s0)
	.loc 1 454 47
	lbu	a5,-57(s0)
	sext.w	a3,a5
	.loc 1 454 25
	lhu	a4,-18(s0)
	ld	a5,-56(s0)
	add	a5,a4,a5
	.loc 1 454 16
	slli	a5,a5,2
	ld	a4,-32(s0)
	add	a5,a4,a5
	.loc 1 454 33
	addi	a4,s0,-1088
	slli	a3,a3,2
	add	a4,a3,a4
	lbu	a3,0(a4)
	mv	a1,a3
	lbu	a3,1(a4)
	mv	a2,a3
	lbu	a3,2(a4)
	sb	a1,0(a5)
	sb	a2,1(a5)
	sb	a3,2(a5)
	lbu	a4,3(a4)
	sb	a4,3(a5)
	.loc 1 452 45 discriminator 3
	lhu	a5,-18(s0)
	addiw	a5,a5,1
	sh	a5,-18(s0)
.L64:
	.loc 1 452 32 discriminator 1
	ld	a5,-1112(s0)
	lhu	a5,4(a5)
	.loc 1 452 25 discriminator 1
	lhu	a4,-18(s0)
	sext.w	a4,a4
	sext.w	a5,a5
	bltu	a4,a5,.L65
	.loc 1 447 44 discriminator 2
	lhu	a5,-20(s0)
	addiw	a5,a5,1
	sh	a5,-20(s0)
.L63:
	.loc 1 447 30 discriminator 1
	ld	a5,-1112(s0)
	lhu	a5,6(a5)
	.loc 1 447 23 discriminator 1
	lhu	a4,-20(s0)
	sext.w	a4,a4
	sext.w	a5,a5
	bltu	a4,a5,.L66
	j	.L59
.L67:
	.loc 1 435 5 discriminator 1
	nop
.L59:
	.loc 1 457 1
	ld	ra,1128(sp)
	.cfi_restore 1
	ld	s0,1120(sp)
	.cfi_restore 8
	.cfi_def_cfa 2, 1136
	addi	sp,sp,1136
	.cfi_def_cfa_offset 0
	jr	ra
	.cfi_endproc
.LFE5:
	.size	Output8bitPixel, .-Output8bitPixel
	.section	.text.Output24bitPixel,"ax",@progbits
	.align	1
	.globl	Output24bitPixel
	.type	Output24bitPixel, @function
Output24bitPixel:
.LFB6:
	.loc 1 476 1
	.cfi_startproc
	addi	sp,sp,-64
	.cfi_def_cfa_offset 64
	sd	ra,56(sp)
	sd	s0,48(sp)
	.cfi_offset 1, -8
	.cfi_offset 8, -16
	addi	s0,sp,64
	.cfi_def_cfa 8, 0
	sd	a0,-56(s0)
	sd	a1,-64(s0)
	.loc 1 483 13
	ld	a5,-56(s0)
	ld	a5,8(a5)
	sd	a5,-32(s0)
	.loc 1 485 13
	sh	zero,-18(s0)
	.loc 1 485 3
	j	.L69
.L70:
	.loc 1 486 30
	ld	a5,-56(s0)
	lhu	a5,4(a5)
	.loc 1 486 17
	sext.w	a4,a5
	.loc 1 486 39
	lhu	a5,-18(s0)
	sext.w	a5,a5
	mulw	a5,a4,a5
	sext.w	a5,a5
	.loc 1 486 13
	slli	a5,a5,32
	srli	a5,a5,32
	sd	a5,-40(s0)
	.loc 1 487 34
	ld	a5,-40(s0)
	slli	a5,a5,2
	.loc 1 487 5
	ld	a4,-32(s0)
	add	a3,a4,a5
	.loc 1 487 50
	ld	a4,-40(s0)
	mv	a5,a4
	slli	a5,a5,1
	add	a5,a5,a4
	.loc 1 487 5
	ld	a4,-64(s0)
	add	a4,a4,a5
	.loc 1 487 66
	ld	a5,-56(s0)
	lhu	a5,4(a5)
	.loc 1 487 5
	mv	a2,a5
	mv	a1,a4
	mv	a0,a3
	call	CopyRgbToGopPixel
	.loc 1 485 44 discriminator 3
	lhu	a5,-18(s0)
	addiw	a5,a5,1
	sh	a5,-18(s0)
.L69:
	.loc 1 485 30 discriminator 1
	ld	a5,-56(s0)
	lhu	a5,6(a5)
	.loc 1 485 23 discriminator 1
	lhu	a4,-18(s0)
	sext.w	a4,a4
	sext.w	a5,a5
	bltu	a4,a5,.L70
	.loc 1 489 1
	nop
	nop
	ld	ra,56(sp)
	.cfi_restore 1
	ld	s0,48(sp)
	.cfi_restore 8
	.cfi_def_cfa 2, 64
	addi	sp,sp,64
	.cfi_def_cfa_offset 0
	jr	ra
	.cfi_endproc
.LFE6:
	.size	Output24bitPixel, .-Output24bitPixel
	.section	.text.ImageToBlt,"ax",@progbits
	.align	1
	.globl	ImageToBlt
	.type	ImageToBlt, @function
ImageToBlt:
.LFB7:
	.loc 1 523 1
	.cfi_startproc
	addi	sp,sp,-144
	.cfi_def_cfa_offset 144
	sd	ra,136(sp)
	sd	s0,128(sp)
	.cfi_offset 1, -8
	.cfi_offset 8, -16
	addi	s0,sp,144
	.cfi_def_cfa 8, 0
	sd	a0,-88(s0)
	sd	a1,-96(s0)
	sd	a2,-104(s0)
	sd	a3,-112(s0)
	sd	a4,-120(s0)
	sd	a6,-136(s0)
	sb	a5,-121(s0)
	.loc 1 532 6
	ld	a5,-88(s0)
	beq	a5,zero,.L72
	.loc 1 532 35 discriminator 1
	ld	a5,-136(s0)
	beq	a5,zero,.L72
	.loc 1 532 64 discriminator 2
	ld	a5,-136(s0)
	ld	a5,0(a5)
	.loc 1 532 60 discriminator 2
	bne	a5,zero,.L73
.L72:
	.loc 1 533 12
	li	a5,-1
	slli	a5,a5,63
	addi	a5,a5,2
	j	.L83
.L73:
	.loc 1 536 12
	ld	a5,-136(s0)
	ld	a5,0(a5)
	sd	a5,-40(s0)
	.loc 1 538 13
	ld	a4,-112(s0)
	ld	a5,-96(s0)
	add	a5,a4,a5
	.loc 1 538 30
	ld	a4,-40(s0)
	lhu	a4,0(a4)
	.loc 1 538 6
	bleu	a5,a4,.L75
	.loc 1 539 12
	li	a5,-1
	slli	a5,a5,63
	addi	a5,a5,2
	j	.L83
.L75:
	.loc 1 542 14
	ld	a4,-120(s0)
	ld	a5,-104(s0)
	add	a5,a4,a5
	.loc 1 542 31
	ld	a4,-40(s0)
	lhu	a4,2(a4)
	.loc 1 542 6
	bleu	a5,a4,.L76
	.loc 1 543 12
	li	a5,-1
	slli	a5,a5,63
	addi	a5,a5,2
	j	.L83
.L76:
	.loc 1 546 3
	addi	a5,s0,-72
	li	a1,4
	mv	a0,a5
	call	ZeroMem@plt
	.loc 1 548 13
	sd	zero,-32(s0)
	.loc 1 548 3
	j	.L77
.L82:
	.loc 1 549 14
	ld	a4,-112(s0)
	ld	a5,-32(s0)
	mul	a5,a4,a5
	sd	a5,-48(s0)
	.loc 1 550 24
	ld	a5,-40(s0)
	lhu	a5,0(a5)
	mv	a3,a5
	.loc 1 550 40
	ld	a4,-104(s0)
	ld	a5,-32(s0)
	add	a5,a4,a5
	.loc 1 550 14
	mul	a5,a3,a5
	sd	a5,-56(s0)
	.loc 1 551 15
	sd	zero,-24(s0)
	.loc 1 551 5
	j	.L78
.L81:
	.loc 1 552 37
	ld	a4,-48(s0)
	ld	a5,-24(s0)
	add	a5,a4,a5
	.loc 1 552 27
	slli	a5,a5,2
	ld	a4,-88(s0)
	add	a5,a4,a5
	.loc 1 552 16
	lbu	a4,0(a5)
	mv	a2,a4
	lbu	a4,1(a5)
	mv	a3,a4
	lbu	a4,2(a5)
	sb	a2,-64(s0)
	sb	a3,-63(s0)
	sb	a4,-62(s0)
	lbu	a5,3(a5)
	sb	a5,-61(s0)
	.loc 1 553 10
	lbu	a5,-121(s0)
	andi	a5,a5,0xff
	beq	a5,zero,.L79
	.loc 1 554 13
	addi	a4,s0,-72
	addi	a5,s0,-64
	li	a2,3
	mv	a1,a4
	mv	a0,a5
	call	CompareMem@plt
	mv	a5,a0
	.loc 1 554 12 discriminator 1
	beq	a5,zero,.L80
	.loc 1 555 26
	ld	a5,-40(s0)
	ld	a4,8(a5)
	.loc 1 555 43
	ld	a3,-56(s0)
	ld	a5,-96(s0)
	add	a3,a3,a5
	.loc 1 555 50
	ld	a5,-24(s0)
	add	a5,a3,a5
	.loc 1 555 33
	slli	a5,a5,2
	add	a5,a4,a5
	.loc 1 555 58
	lbu	a4,-64(s0)
	mv	a2,a4
	lbu	a4,-63(s0)
	mv	a3,a4
	lbu	a4,-62(s0)
	sb	a2,0(a5)
	sb	a3,1(a5)
	sb	a4,2(a5)
	lbu	a4,-61(s0)
	sb	a4,3(a5)
	j	.L80
.L79:
	.loc 1 558 24
	ld	a5,-40(s0)
	ld	a4,8(a5)
	.loc 1 558 41
	ld	a3,-56(s0)
	ld	a5,-96(s0)
	add	a3,a3,a5
	.loc 1 558 48
	ld	a5,-24(s0)
	add	a5,a3,a5
	.loc 1 558 31
	slli	a5,a5,2
	add	a5,a4,a5
	.loc 1 558 56
	lbu	a4,-64(s0)
	mv	a2,a4
	lbu	a4,-63(s0)
	mv	a3,a4
	lbu	a4,-62(s0)
	sb	a2,0(a5)
	sb	a3,1(a5)
	sb	a4,2(a5)
	lbu	a4,-61(s0)
	sb	a4,3(a5)
.L80:
	.loc 1 551 38 discriminator 2
	ld	a5,-24(s0)
	addi	a5,a5,1
	sd	a5,-24(s0)
.L78:
	.loc 1 551 25 discriminator 1
	ld	a4,-24(s0)
	ld	a5,-112(s0)
	bltu	a4,a5,.L81
	.loc 1 548 37 discriminator 2
	ld	a5,-32(s0)
	addi	a5,a5,1
	sd	a5,-32(s0)
.L77:
	.loc 1 548 23 discriminator 1
	ld	a4,-32(s0)
	ld	a5,-120(s0)
	bltu	a4,a5,.L82
	.loc 1 563 10
	li	a5,0
.L83:
	.loc 1 564 1
	mv	a0,a5
	ld	ra,136(sp)
	.cfi_restore 1
	ld	s0,128(sp)
	.cfi_restore 8
	.cfi_def_cfa 2, 144
	addi	sp,sp,144
	.cfi_def_cfa_offset 0
	jr	ra
	.cfi_endproc
.LFE7:
	.size	ImageToBlt, .-ImageToBlt
	.section	.text.LocatePackageList,"ax",@progbits
	.align	1
	.globl	LocatePackageList
	.type	LocatePackageList, @function
LocatePackageList:
.LFB8:
	.loc 1 579 1
	.cfi_startproc
	addi	sp,sp,-48
	.cfi_def_cfa_offset 48
	sd	ra,40(sp)
	sd	s0,32(sp)
	.cfi_offset 1, -8
	.cfi_offset 8, -16
	addi	s0,sp,48
	.cfi_def_cfa 8, 0
	sd	a0,-40(s0)
	sd	a1,-48(s0)
	.loc 1 586 15
	ld	a0,-40(s0)
	call	GetFirstNode@plt
	sd	a0,-24(s0)
	.loc 1 586 3
	j	.L85
.L90:
	.loc 1 591 16
	ld	a5,-24(s0)
	addi	a5,a5,-32
	.loc 1 591 135
	ld	a4,0(a5)
	.loc 1 591 220
	li	a5,1919184896
	addi	a5,a5,-1688
	bne	a4,a5,.L86
	.loc 1 591 12 discriminator 1
	ld	a5,-24(s0)
	addi	a5,a5,-32
	sd	a5,-32(s0)
	j	.L87
.L86:
	.loc 1 591 12 is_stmt 0 discriminator 2
	sd	zero,-32(s0)
.L87:
	.loc 1 592 15 is_stmt 1
	ld	a5,-32(s0)
	ld	a5,24(a5)
	.loc 1 592 8
	ld	a4,-48(s0)
	bne	a4,a5,.L88
	.loc 1 593 20
	ld	a5,-32(s0)
	ld	a5,8(a5)
	j	.L89
.L88:
	.loc 1 588 15
	ld	a1,-24(s0)
	ld	a0,-40(s0)
	call	GetNextNode@plt
	sd	a0,-24(s0)
.L85:
	.loc 1 587 9
	ld	a1,-24(s0)
	ld	a0,-40(s0)
	call	IsNull@plt
	mv	a5,a0
	.loc 1 587 8 discriminator 1
	beq	a5,zero,.L90
	.loc 1 597 10
	li	a5,0
.L89:
	.loc 1 598 1
	mv	a0,a5
	ld	ra,40(sp)
	.cfi_restore 1
	ld	s0,32(sp)
	.cfi_restore 8
	.cfi_def_cfa 2, 48
	addi	sp,sp,48
	.cfi_def_cfa_offset 0
	jr	ra
	.cfi_endproc
.LFE8:
	.size	LocatePackageList, .-LocatePackageList
	.section	.text.HiiNewImage,"ax",@progbits
	.align	1
	.globl	HiiNewImage
	.type	HiiNewImage, @function
HiiNewImage:
.LFB9:
	.loc 1 626 1
	.cfi_startproc
	addi	sp,sp,-96
	.cfi_def_cfa_offset 96
	sd	ra,88(sp)
	sd	s0,80(sp)
	.cfi_offset 1, -8
	.cfi_offset 8, -16
	addi	s0,sp,96
	.cfi_def_cfa 8, 0
	sd	a0,-72(s0)
	sd	a1,-80(s0)
	sd	a2,-88(s0)
	sd	a3,-96(s0)
	.loc 1 633 6
	ld	a5,-72(s0)
	beq	a5,zero,.L92
	.loc 1 633 30 discriminator 1
	ld	a5,-88(s0)
	beq	a5,zero,.L92
	.loc 1 633 59 discriminator 2
	ld	a5,-96(s0)
	beq	a5,zero,.L92
	.loc 1 633 95 discriminator 3
	ld	a5,-96(s0)
	ld	a5,8(a5)
	.loc 1 633 86 discriminator 3
	bne	a5,zero,.L93
.L92:
	.loc 1 634 12
	li	a5,-1
	slli	a5,a5,63
	addi	a5,a5,2
	j	.L94
.L93:
	.loc 1 637 15
	ld	a5,-72(s0)
	addi	a5,a5,-72
	.loc 1 637 141
	ld	a4,0(a5)
	.loc 1 637 226
	li	a5,1883533312
	addi	a5,a5,-1720
	bne	a4,a5,.L95
	.loc 1 637 11 discriminator 1
	ld	a5,-72(s0)
	addi	a5,a5,-72
	sd	a5,-24(s0)
	j	.L96
.L95:
	.loc 1 637 11 is_stmt 0 discriminator 2
	sd	zero,-24(s0)
.L96:
	.loc 1 638 21 is_stmt 1
	ld	a5,-24(s0)
	addi	a5,a5,8
	ld	a1,-80(s0)
	mv	a0,a5
	call	LocatePackageList
	sd	a0,-40(s0)
	.loc 1 639 6
	ld	a5,-40(s0)
	bne	a5,zero,.L97
	.loc 1 640 12
	li	a5,-1
	slli	a5,a5,63
	addi	a5,a5,14
	j	.L94
.L97:
	.loc 1 643 3
	la	a0,mHiiDatabaseLock
	call	EfiAcquireLock@plt
	.loc 1 650 31
	ld	a5,-96(s0)
	lhu	a5,4(a5)
	.loc 1 650 18
	sext.w	a4,a5
	.loc 1 650 46
	ld	a5,-96(s0)
	lhu	a5,6(a5)
	sext.w	a5,a5
	.loc 1 650 16
	mulw	a5,a4,a5
	sw	a5,-44(s0)
	.loc 1 651 6
	lw	a5,-44(s0)
	sext.w	a4,a5
	li	a5,1431654400
	addi	a5,a5,1363
	bleu	a4,a5,.L98
	.loc 1 652 5
	la	a0,mHiiDatabaseLock
	call	EfiReleaseLock@plt
	.loc 1 653 12
	li	a5,-1
	slli	a5,a5,63
	addi	a5,a5,9
	j	.L94
.L98:
	.loc 1 656 31
	lw	a5,-44(s0)
	mv	a4,a5
	mv	a5,a4
	slliw	a5,a5,1
	addw	a5,a5,a4
	sext.w	a5,a5
	.loc 1 656 16
	addiw	a5,a5,5
	sw	a5,-44(s0)
	.loc 1 662 22
	ld	a5,-40(s0)
	ld	a5,104(a5)
	.loc 1 662 6
	beq	a5,zero,.L99
	.loc 1 663 18
	ld	a5,-40(s0)
	ld	a5,104(a5)
	sd	a5,-56(s0)
	.loc 1 669 14
	ld	a5,-88(s0)
	sh	zero,0(a5)
	.loc 1 670 5
	ld	a5,-56(s0)
	ld	a5,24(a5)
	ld	a1,-88(s0)
	mv	a0,a5
	call	GetImageIdOrAddress
	.loc 1 680 67
	ld	a5,-56(s0)
	ld	a5,0(a5)
	mv	a4,a5
	li	a5,16777216
	addi	a5,a5,-1
	and	a5,a4,a5
	sext.w	a5,a5
	mv	a4,a5
	.loc 1 680 33
	li	a5,16777216
	addiw	a5,a5,-1
	subw	a5,a5,a4
	sext.w	a5,a5
	mv	a4,a5
	.loc 1 680 8
	lw	a5,-44(s0)
	sext.w	a5,a5
	bleu	a5,a4,.L100
	.loc 1 681 7
	la	a0,mHiiDatabaseLock
	call	EfiReleaseLock@plt
	.loc 1 682 14
	li	a5,-1
	slli	a5,a5,63
	addi	a5,a5,9
	j	.L94
.L100:
	.loc 1 689 45
	ld	a5,-56(s0)
	lw	a5,12(a5)
	.loc 1 689 62
	lw	a4,-44(s0)
	addw	a5,a4,a5
	sext.w	a5,a5
	.loc 1 689 19
	slli	a5,a5,32
	srli	a5,a5,32
	mv	a0,a5
	call	AllocatePool@plt
	sd	a0,-32(s0)
	.loc 1 690 8
	ld	a5,-32(s0)
	bne	a5,zero,.L101
	.loc 1 691 7
	la	a0,mHiiDatabaseLock
	call	EfiReleaseLock@plt
	.loc 1 692 14
	li	a5,-1
	slli	a5,a5,63
	addi	a5,a5,9
	j	.L94
.L101:
	.loc 1 700 19
	ld	a5,-56(s0)
	ld	a4,24(a5)
	.loc 1 701 19
	ld	a5,-56(s0)
	lw	a5,12(a5)
	slli	a5,a5,32
	srli	a5,a5,32
	.loc 1 701 36
	addi	a5,a5,-1
	.loc 1 698 5
	mv	a2,a5
	mv	a1,a4
	ld	a0,-32(s0)
	call	CopyMem@plt
	.loc 1 703 27
	ld	a5,-56(s0)
	ld	a5,24(a5)
	.loc 1 703 5
	mv	a0,a5
	call	FreePool@plt
	.loc 1 704 30
	ld	a5,-56(s0)
	ld	a4,-32(s0)
	sd	a4,24(a5)
	.loc 1 710 78
	ld	a5,-56(s0)
	lw	a5,12(a5)
	slli	a5,a5,32
	srli	a5,a5,32
	.loc 1 710 95
	addi	a5,a5,-1
	.loc 1 709 17
	ld	a4,-32(s0)
	add	a5,a4,a5
	sd	a5,-32(s0)
	.loc 1 715 17
	ld	a5,-56(s0)
	lw	a5,12(a5)
	.loc 1 715 34
	lw	a4,-44(s0)
	addw	a5,a4,a5
	sext.w	a4,a5
	ld	a5,-56(s0)
	sw	a4,12(a5)
	.loc 1 716 37
	ld	a5,-56(s0)
	ld	a5,0(a5)
	mv	a4,a5
	li	a5,16777216
	addi	a5,a5,-1
	and	a5,a4,a5
	sext.w	a5,a5
	.loc 1 716 45
	lw	a4,-44(s0)
	addw	a5,a4,a5
	sext.w	a4,a5
	li	a5,16777216
	addi	a5,a5,-1
	and	a5,a4,a5
	sext.w	a4,a5
	ld	a5,-56(s0)
	mv	a3,a4
	li	a4,16777216
	addi	a4,a4,-1
	and	a2,a3,a4
	lw	a4,0(a5)
	mv	a3,a4
	li	a4,-16777216
	and	a4,a3,a4
	mv	a3,a4
	mv	a4,a2
	or	a4,a3,a4
	sw	a4,0(a5)
	.loc 1 717 36
	ld	a5,-40(s0)
	lw	a5,16(a5)
	.loc 1 717 51
	lw	a4,-44(s0)
	addw	a5,a4,a5
	sext.w	a4,a5
	ld	a5,-40(s0)
	sw	a4,16(a5)
	j	.L102
.L99:
	.loc 1 723 8
	lw	a5,-44(s0)
	sext.w	a4,a5
	li	a5,16777216
	addi	a5,a5,-14
	bleu	a4,a5,.L103
	.loc 1 724 7
	la	a0,mHiiDatabaseLock
	call	EfiReleaseLock@plt
	.loc 1 725 14
	li	a5,-1
	slli	a5,a5,63
	addi	a5,a5,9
	j	.L94
.L103:
	.loc 1 732 50
	li	a0,40
	call	AllocateZeroPool@plt
	sd	a0,-56(s0)
	.loc 1 733 8
	ld	a5,-56(s0)
	bne	a5,zero,.L104
	.loc 1 734 7
	la	a0,mHiiDatabaseLock
	call	EfiReleaseLock@plt
	.loc 1 735 14
	li	a5,-1
	slli	a5,a5,63
	addi	a5,a5,9
	j	.L94
.L104:
	.loc 1 742 14
	ld	a5,-88(s0)
	li	a4,1
	sh	a4,0(a5)
	.loc 1 746 97
	lw	a5,-44(s0)
	addiw	a5,a5,13
	sext.w	a4,a5
	li	a5,16777216
	addi	a5,a5,-1
	and	a5,a4,a5
	sext.w	a4,a5
	.loc 1 746 45
	ld	a5,-56(s0)
	mv	a3,a4
	li	a4,16777216
	addi	a4,a4,-1
	and	a2,a3,a4
	lw	a4,0(a5)
	mv	a3,a4
	li	a4,-16777216
	and	a4,a3,a4
	mv	a3,a4
	mv	a4,a2
	or	a4,a3,a4
	sw	a4,0(a5)
	.loc 1 747 43
	ld	a5,-56(s0)
	li	a4,6
	sb	a4,3(a5)
	.loc 1 748 47
	ld	a5,-56(s0)
	li	a4,12
	sw	a4,4(a5)
	.loc 1 749 49
	ld	a5,-56(s0)
	sw	zero,8(a5)
	.loc 1 754 32
	ld	a5,-56(s0)
	sd	zero,32(a5)
	.loc 1 755 35
	ld	a5,-56(s0)
	sw	zero,16(a5)
	.loc 1 760 49
	lw	a5,-44(s0)
	addiw	a5,a5,1
	sext.w	a4,a5
	.loc 1 760 34
	ld	a5,-56(s0)
	sw	a4,12(a5)
	.loc 1 761 32
	lwu	a5,-44(s0)
	.loc 1 761 63
	addi	a5,a5,1
	.loc 1 761 32
	mv	a0,a5
	call	AllocateZeroPool@plt
	mv	a4,a0
	.loc 1 761 30 discriminator 1
	ld	a5,-56(s0)
	sd	a4,24(a5)
	.loc 1 762 21
	ld	a5,-56(s0)
	ld	a5,24(a5)
	.loc 1 762 8
	bne	a5,zero,.L105
	.loc 1 763 7
	ld	a0,-56(s0)
	call	FreePool@plt
	.loc 1 764 7
	la	a0,mHiiDatabaseLock
	call	EfiReleaseLock@plt
	.loc 1 765 14
	li	a5,-1
	slli	a5,a5,63
	addi	a5,a5,9
	j	.L94
.L105:
	.loc 1 768 17
	ld	a5,-56(s0)
	ld	a5,24(a5)
	sd	a5,-32(s0)
	.loc 1 773 31
	ld	a5,-40(s0)
	ld	a4,-56(s0)
	sd	a4,104(a5)
	.loc 1 774 36
	ld	a5,-40(s0)
	lw	a5,16(a5)
	.loc 1 774 86
	ld	a4,-56(s0)
	ld	a4,0(a4)
	mv	a3,a4
	li	a4,16777216
	addi	a4,a4,-1
	and	a4,a3,a4
	sext.w	a4,a4
	.loc 1 774 51
	addw	a5,a5,a4
	sext.w	a4,a5
	ld	a5,-40(s0)
	sw	a4,16(a5)
.L102:
	.loc 1 780 12
	ld	a5,-96(s0)
	lw	a4,0(a5)
	.loc 1 780 6
	li	a5,1
	bne	a4,a5,.L106
	.loc 1 781 28
	ld	a5,-32(s0)
	li	a4,23
	sb	a4,0(a5)
	j	.L107
.L106:
	.loc 1 783 28
	ld	a5,-32(s0)
	li	a4,22
	sb	a4,0(a5)
.L107:
	.loc 1 786 3
	ld	a5,-32(s0)
	addi	a4,a5,1
	.loc 1 786 98
	ld	a5,-96(s0)
	lhu	a5,4(a5)
	.loc 1 786 3
	mv	a1,a5
	mv	a0,a4
	call	WriteUnaligned16@plt
	.loc 1 787 3
	ld	a5,-32(s0)
	addi	a4,a5,3
	.loc 1 787 99
	ld	a5,-96(s0)
	lhu	a5,6(a5)
	.loc 1 787 3
	mv	a1,a5
	mv	a0,a4
	call	WriteUnaligned16@plt
	.loc 1 788 77
	ld	a5,-32(s0)
	addi	a3,a5,5
	.loc 1 788 91
	ld	a5,-96(s0)
	ld	a1,8(a5)
	.loc 1 788 114
	ld	a5,-96(s0)
	lhu	a5,4(a5)
	.loc 1 788 101
	sext.w	a4,a5
	.loc 1 788 129
	ld	a5,-96(s0)
	lhu	a5,6(a5)
	sext.w	a5,a5
	.loc 1 788 122
	mulw	a5,a4,a5
	sext.w	a5,a5
	.loc 1 788 3
	slli	a5,a5,32
	srli	a5,a5,32
	mv	a2,a5
	mv	a0,a3
	call	CopyGopToRgbPixel
	.loc 1 793 17
	lwu	a5,-44(s0)
	.loc 1 793 15
	ld	a4,-32(s0)
	add	a5,a4,a5
	sd	a5,-32(s0)
	.loc 1 794 26
	ld	a5,-32(s0)
	sb	zero,0(a5)
	.loc 1 800 7
	la	a5,gExportAfterReadyToBoot
	lbu	a5,0(a5)
	.loc 1 800 6
	beq	a5,zero,.L108
	.loc 1 801 25
	ld	a5,-24(s0)
	addi	a5,a5,200
	.loc 1 801 5
	mv	a0,a5
	call	HiiGetDatabaseInfo@plt
.L108:
	.loc 1 804 3
	la	a0,mHiiDatabaseLock
	call	EfiReleaseLock@plt
	.loc 1 806 10
	li	a5,0
.L94:
	.loc 1 807 1
	mv	a0,a5
	ld	ra,88(sp)
	.cfi_restore 1
	ld	s0,80(sp)
	.cfi_restore 8
	.cfi_def_cfa 2, 96
	addi	sp,sp,96
	.cfi_def_cfa_offset 0
	jr	ra
	.cfi_endproc
.LFE9:
	.size	HiiNewImage, .-HiiNewImage
	.section	.text.IGetImage,"ax",@progbits
	.align	1
	.globl	IGetImage
	.type	IGetImage, @function
IGetImage:
.LFB10:
	.loc 1 839 1
	.cfi_startproc
	addi	sp,sp,-144
	.cfi_def_cfa_offset 144
	sd	ra,136(sp)
	sd	s0,128(sp)
	.cfi_offset 1, -8
	.cfi_offset 8, -16
	addi	s0,sp,144
	.cfi_def_cfa 8, 0
	sd	a0,-120(s0)
	sd	a1,-128(s0)
	mv	a5,a2
	sd	a3,-144(s0)
	sh	a5,-130(s0)
	mv	a5,a4
	sb	a5,-131(s0)
	.loc 1 854 6
	ld	a5,-144(s0)
	beq	a5,zero,.L110
	.loc 1 854 43 discriminator 1
	lhu	a5,-130(s0)
	.loc 1 854 31 discriminator 1
	bne	a5,zero,.L111
.L110:
	.loc 1 855 12
	li	a5,-1
	slli	a5,a5,63
	addi	a5,a5,2
	j	.L136
.L111:
	.loc 1 858 21
	ld	a1,-128(s0)
	ld	a0,-120(s0)
	call	LocatePackageList
	sd	a0,-40(s0)
	.loc 1 859 6
	ld	a5,-40(s0)
	bne	a5,zero,.L113
	.loc 1 860 12
	li	a5,-1
	slli	a5,a5,63
	addi	a5,a5,14
	j	.L136
.L113:
	.loc 1 863 16
	ld	a5,-40(s0)
	ld	a5,104(a5)
	sd	a5,-48(s0)
	.loc 1 864 6
	ld	a5,-48(s0)
	bne	a5,zero,.L114
	.loc 1 865 12
	li	a5,-1
	slli	a5,a5,63
	addi	a5,a5,14
	j	.L136
.L114:
	.loc 1 871 23
	ld	a5,-48(s0)
	ld	a5,24(a5)
	addi	a4,s0,-130
	mv	a1,a4
	mv	a0,a5
	call	GetImageIdOrAddress
	sd	a0,-56(s0)
	.loc 1 872 6
	ld	a5,-56(s0)
	bne	a5,zero,.L115
	.loc 1 873 12
	li	a5,-1
	slli	a5,a5,63
	addi	a5,a5,14
	j	.L136
.L115:
	.loc 1 876 16
	ld	a5,-144(s0)
	sw	zero,0(a5)
	.loc 1 877 28
	ld	a5,-56(s0)
	lbu	a5,0(a5)
	sext.w	a5,a5
	.loc 1 877 3
	li	a4,25
	bgt	a5,a4,.L116
	li	a4,24
	bge	a5,a4,.L117
	li	a4,23
	beq	a5,a4,.L118
	li	a4,23
	bgt	a5,a4,.L116
	li	a4,22
	beq	a5,a4,.L119
	li	a4,22
	bgt	a5,a4,.L116
	li	a4,21
	beq	a5,a4,.L120
	li	a4,21
	bgt	a5,a4,.L116
	li	a4,20
	beq	a5,a4,.L121
	li	a4,20
	bgt	a5,a4,.L116
	li	a4,19
	beq	a5,a4,.L120
	li	a4,19
	bgt	a5,a4,.L116
	li	a4,18
	beq	a5,a4,.L121
	li	a4,18
	bgt	a5,a4,.L116
	li	a4,16
	beq	a5,a4,.L121
	li	a4,17
	beq	a5,a4,.L120
	j	.L116
.L117:
	.loc 1 880 10
	lbu	a5,-131(s0)
	andi	a5,a5,0xff
	beq	a5,zero,.L122
	.loc 1 881 16
	li	a5,-1
	slli	a5,a5,63
	addi	a5,a5,3
	j	.L136
.L122:
	.loc 1 884 16
	sd	zero,-112(s0)
	.loc 1 885 17
	ld	a5,-56(s0)
	lbu	a5,0(a5)
	mv	a0,a5
	call	LocateHiiImageDecoder@plt
	sd	a0,-64(s0)
	.loc 1 886 10
	ld	a5,-64(s0)
	bne	a5,zero,.L123
	.loc 1 887 16
	li	a5,-1
	slli	a5,a5,63
	addi	a5,a5,3
	j	.L136
.L123:
	.loc 1 903 23
	ld	a5,-64(s0)
	ld	a6,16(a5)
	.loc 1 905 73
	ld	a5,-56(s0)
	addi	a1,a5,5
	.loc 1 906 73
	ld	a5,-56(s0)
	lbu	a4,1(a5)
	lbu	a3,2(a5)
	slli	a3,a3,8
	or	a4,a3,a4
	lbu	a3,3(a5)
	slli	a3,a3,16
	or	a4,a3,a4
	lbu	a5,4(a5)
	slli	a5,a5,24
	or	a5,a5,a4
	sext.w	a5,a5
	.loc 1 903 16
	slli	a5,a5,32
	srli	a5,a5,32
	addi	a3,s0,-112
	li	a4,0
	mv	a2,a5
	ld	a0,-64(s0)
	jalr	a6
.LVL0:
	sd	a0,-72(s0)
	.loc 1 915 11
	ld	a5,-72(s0)
	.loc 1 915 10
	blt	a5,zero,.L124
	.loc 1 916 33
	ld	a5,-112(s0)
	.loc 1 916 40
	ld	a4,8(a5)
	.loc 1 916 23
	ld	a5,-144(s0)
	sd	a4,8(a5)
	.loc 1 917 33
	ld	a5,-112(s0)
	lhu	a4,2(a5)
	.loc 1 917 23
	ld	a5,-144(s0)
	sh	a4,6(a5)
	.loc 1 918 32
	ld	a5,-112(s0)
	lhu	a4,0(a5)
	.loc 1 918 22
	ld	a5,-144(s0)
	sh	a4,4(a5)
	.loc 1 919 9
	ld	a5,-112(s0)
	mv	a0,a5
	call	FreePool@plt
.L124:
	.loc 1 922 14
	ld	a5,-72(s0)
	j	.L136
.L120:
	.loc 1 927 20
	ld	a5,-144(s0)
	li	a4,1
	sw	a4,0(a5)
.L121:
	.loc 1 937 7
	addi	a5,s0,-96
	li	a2,7
	ld	a1,-56(s0)
	mv	a0,a5
	call	CopyMem@plt
	.loc 1 938 43
	lhu	a5,-94(s0)
	.loc 1 938 21
	mv	a4,a5
	.loc 1 938 67
	lhu	a5,-92(s0)
	.loc 1 938 19
	mul	a5,a4,a5
	sd	a5,-88(s0)
	.loc 1 939 10
	ld	a4,-88(s0)
	li	a5,-1
	srli	a5,a5,2
	bleu	a4,a5,.L125
	.loc 1 940 16
	li	a5,-1
	slli	a5,a5,63
	addi	a5,a5,9
	j	.L136
.L125:
	.loc 1 943 19
	ld	a5,-88(s0)
	slli	a5,a5,2
	sd	a5,-88(s0)
	.loc 1 944 23
	ld	a0,-88(s0)
	call	AllocateZeroPool@plt
	mv	a4,a0
	.loc 1 944 21 discriminator 1
	ld	a5,-144(s0)
	sd	a4,8(a5)
	.loc 1 945 16
	ld	a5,-144(s0)
	ld	a5,8(a5)
	.loc 1 945 10
	bne	a5,zero,.L126
	.loc 1 946 16
	li	a5,-1
	slli	a5,a5,63
	addi	a5,a5,9
	j	.L136
.L126:
	.loc 1 949 37
	lhu	a4,-94(s0)
	.loc 1 949 20
	ld	a5,-144(s0)
	sh	a4,4(a5)
	.loc 1 950 38
	lhu	a4,-92(s0)
	.loc 1 950 21
	ld	a5,-144(s0)
	sh	a4,6(a5)
	.loc 1 952 33
	ld	a5,-48(s0)
	ld	a5,32(a5)
	.loc 1 952 19
	addi	a5,a5,2
	sd	a5,-24(s0)
	.loc 1 953 25
	li	a5,1
	sb	a5,-25(s0)
	.loc 1 953 7
	j	.L127
.L128:
	.loc 1 954 9
	addi	a5,s0,-98
	li	a2,2
	ld	a1,-24(s0)
	mv	a0,a5
	call	CopyMem@plt
	.loc 1 955 21
	lhu	a5,-98(s0)
	addi	a5,a5,2
	ld	a4,-24(s0)
	add	a5,a4,a5
	sd	a5,-24(s0)
	.loc 1 953 80 discriminator 3
	lbu	a5,-25(s0)
	addiw	a5,a5,1
	sb	a5,-25(s0)
.L127:
	.loc 1 953 53 discriminator 1
	lbu	a4,-95(s0)
	.loc 1 953 43 discriminator 1
	lbu	a5,-25(s0)
	andi	a5,a5,0xff
	bltu	a5,a4,.L128
	.loc 1 963 29
	ld	a5,-56(s0)
	lbu	a5,0(a5)
	.loc 1 963 10
	mv	a4,a5
	li	a5,16
	beq	a4,a5,.L129
	.loc 1 964 29
	ld	a5,-56(s0)
	lbu	a5,0(a5)
	.loc 1 963 50 discriminator 1
	mv	a4,a5
	li	a5,17
	bne	a4,a5,.L130
.L129:
	.loc 1 968 71
	ld	a5,-56(s0)
	addi	a5,a5,6
	.loc 1 966 9
	ld	a2,-24(s0)
	mv	a1,a5
	ld	a0,-144(s0)
	call	Output1bitPixel
	j	.L131
.L130:
	.loc 1 971 36
	ld	a5,-56(s0)
	lbu	a5,0(a5)
	.loc 1 971 17
	mv	a4,a5
	li	a5,18
	beq	a4,a5,.L132
	.loc 1 972 36
	ld	a5,-56(s0)
	lbu	a5,0(a5)
	.loc 1 971 57 discriminator 1
	mv	a4,a5
	li	a5,19
	bne	a4,a5,.L133
.L132:
	.loc 1 976 71
	ld	a5,-56(s0)
	addi	a5,a5,6
	.loc 1 974 9
	ld	a2,-24(s0)
	mv	a1,a5
	ld	a0,-144(s0)
	call	Output4bitPixel
	j	.L131
.L133:
	.loc 1 982 71
	ld	a5,-56(s0)
	addi	a5,a5,6
	.loc 1 980 9
	ld	a2,-24(s0)
	mv	a1,a5
	ld	a0,-144(s0)
	call	Output8bitPixel
.L131:
	.loc 1 987 14
	li	a5,0
	j	.L136
.L118:
	.loc 1 990 20
	ld	a5,-144(s0)
	li	a4,1
	sw	a4,0(a5)
.L119:
	.loc 1 995 40
	ld	a5,-56(s0)
	addi	a5,a5,1
	.loc 1 995 15
	mv	a0,a5
	call	ReadUnaligned16@plt
	mv	a5,a0
	sh	a5,-74(s0)
	.loc 1 996 41
	ld	a5,-56(s0)
	addi	a5,a5,3
	.loc 1 996 16
	mv	a0,a5
	call	ReadUnaligned16@plt
	mv	a5,a0
	sh	a5,-76(s0)
	.loc 1 997 21
	lhu	a4,-74(s0)
	.loc 1 997 34
	lhu	a5,-76(s0)
	.loc 1 997 19
	mul	a5,a4,a5
	sd	a5,-88(s0)
	.loc 1 998 10
	ld	a4,-88(s0)
	li	a5,-1
	srli	a5,a5,2
	bleu	a4,a5,.L134
	.loc 1 999 16
	li	a5,-1
	slli	a5,a5,63
	addi	a5,a5,9
	j	.L136
.L134:
	.loc 1 1002 19
	ld	a5,-88(s0)
	slli	a5,a5,2
	sd	a5,-88(s0)
	.loc 1 1003 23
	ld	a0,-88(s0)
	call	AllocateZeroPool@plt
	mv	a4,a0
	.loc 1 1003 21 discriminator 1
	ld	a5,-144(s0)
	sd	a4,8(a5)
	.loc 1 1004 16
	ld	a5,-144(s0)
	ld	a5,8(a5)
	.loc 1 1004 10
	bne	a5,zero,.L135
	.loc 1 1005 16
	li	a5,-1
	slli	a5,a5,63
	addi	a5,a5,9
	j	.L136
.L135:
	.loc 1 1008 20
	ld	a5,-144(s0)
	lhu	a4,-74(s0)
	sh	a4,4(a5)
	.loc 1 1009 21
	ld	a5,-144(s0)
	lhu	a4,-76(s0)
	sh	a4,6(a5)
	.loc 1 1016 70
	ld	a5,-56(s0)
	addi	a5,a5,5
	.loc 1 1014 7
	mv	a1,a5
	ld	a0,-144(s0)
	call	Output24bitPixel
	.loc 1 1018 14
	li	a5,0
	j	.L136
.L116:
	.loc 1 1021 14
	li	a5,-1
	slli	a5,a5,63
	addi	a5,a5,14
.L136:
	.loc 1 1023 1
	mv	a0,a5
	ld	ra,136(sp)
	.cfi_restore 1
	ld	s0,128(sp)
	.cfi_restore 8
	.cfi_def_cfa 2, 144
	addi	sp,sp,144
	.cfi_def_cfa_offset 0
	jr	ra
	.cfi_endproc
.LFE10:
	.size	IGetImage, .-IGetImage
	.section	.text.HiiGetImage,"ax",@progbits
	.align	1
	.globl	HiiGetImage
	.type	HiiGetImage, @function
HiiGetImage:
.LFB11:
	.loc 1 1054 1
	.cfi_startproc
	addi	sp,sp,-64
	.cfi_def_cfa_offset 64
	sd	ra,56(sp)
	sd	s0,48(sp)
	.cfi_offset 1, -8
	.cfi_offset 8, -16
	addi	s0,sp,64
	.cfi_def_cfa 8, 0
	sd	a0,-40(s0)
	sd	a1,-48(s0)
	mv	a5,a2
	sd	a3,-64(s0)
	sh	a5,-50(s0)
	.loc 1 1057 15
	ld	a5,-40(s0)
	addi	a5,a5,-72
	.loc 1 1057 141
	ld	a4,0(a5)
	.loc 1 1057 226
	li	a5,1883533312
	addi	a5,a5,-1720
	bne	a4,a5,.L138
	.loc 1 1057 11 discriminator 1
	ld	a5,-40(s0)
	addi	a5,a5,-72
	sd	a5,-24(s0)
	j	.L139
.L138:
	.loc 1 1057 11 is_stmt 0 discriminator 2
	sd	zero,-24(s0)
.L139:
	.loc 1 1058 10 is_stmt 1
	ld	a5,-24(s0)
	addi	a5,a5,8
	lhu	a2,-50(s0)
	li	a4,1
	ld	a3,-64(s0)
	ld	a1,-48(s0)
	mv	a0,a5
	call	IGetImage
	mv	a5,a0
	.loc 1 1059 1
	mv	a0,a5
	ld	ra,56(sp)
	.cfi_restore 1
	ld	s0,48(sp)
	.cfi_restore 8
	.cfi_def_cfa 2, 64
	addi	sp,sp,64
	.cfi_def_cfa_offset 0
	jr	ra
	.cfi_endproc
.LFE11:
	.size	HiiGetImage, .-HiiGetImage
	.section	.text.HiiSetImage,"ax",@progbits
	.align	1
	.globl	HiiSetImage
	.type	HiiSetImage, @function
HiiSetImage:
.LFB12:
	.loc 1 1085 1
	.cfi_startproc
	addi	sp,sp,-144
	.cfi_def_cfa_offset 144
	sd	ra,136(sp)
	sd	s0,128(sp)
	sd	s1,120(sp)
	.cfi_offset 1, -8
	.cfi_offset 8, -16
	.cfi_offset 9, -24
	addi	s0,sp,144
	.cfi_def_cfa 8, 0
	sd	a0,-120(s0)
	sd	a1,-128(s0)
	mv	a5,a2
	sd	a3,-144(s0)
	sh	a5,-130(s0)
	.loc 1 1097 6
	ld	a5,-120(s0)
	beq	a5,zero,.L142
	.loc 1 1097 30 discriminator 1
	ld	a5,-144(s0)
	beq	a5,zero,.L142
	.loc 1 1097 69 discriminator 2
	lhu	a5,-130(s0)
	.loc 1 1097 57 discriminator 2
	beq	a5,zero,.L142
	.loc 1 1097 84 discriminator 3
	ld	a5,-144(s0)
	ld	a5,8(a5)
	.loc 1 1097 75 discriminator 3
	bne	a5,zero,.L143
.L142:
	.loc 1 1098 12
	li	a5,-1
	slli	a5,a5,63
	addi	a5,a5,2
	j	.L144
.L143:
	.loc 1 1101 15
	ld	a5,-120(s0)
	addi	a5,a5,-72
	.loc 1 1101 141
	ld	a4,0(a5)
	.loc 1 1101 226
	li	a5,1883533312
	addi	a5,a5,-1720
	bne	a4,a5,.L145
	.loc 1 1101 11 discriminator 1
	ld	a5,-120(s0)
	addi	a5,a5,-72
	sd	a5,-40(s0)
	j	.L146
.L145:
	.loc 1 1101 11 is_stmt 0 discriminator 2
	sd	zero,-40(s0)
.L146:
	.loc 1 1102 21 is_stmt 1
	ld	a5,-40(s0)
	addi	a5,a5,8
	ld	a1,-128(s0)
	mv	a0,a5
	call	LocatePackageList
	sd	a0,-56(s0)
	.loc 1 1103 6
	ld	a5,-56(s0)
	bne	a5,zero,.L147
	.loc 1 1104 12
	li	a5,-1
	slli	a5,a5,63
	addi	a5,a5,14
	j	.L144
.L147:
	.loc 1 1107 16
	ld	a5,-56(s0)
	ld	a5,104(a5)
	sd	a5,-64(s0)
	.loc 1 1108 6
	ld	a5,-64(s0)
	bne	a5,zero,.L148
	.loc 1 1109 12
	li	a5,-1
	slli	a5,a5,63
	addi	a5,a5,14
	j	.L144
.L148:
	.loc 1 1115 23
	ld	a5,-64(s0)
	ld	a5,24(a5)
	addi	a4,s0,-130
	mv	a1,a4
	mv	a0,a5
	call	GetImageIdOrAddress
	sd	a0,-72(s0)
	.loc 1 1116 6
	ld	a5,-72(s0)
	bne	a5,zero,.L149
	.loc 1 1117 12
	li	a5,-1
	slli	a5,a5,63
	addi	a5,a5,14
	j	.L144
.L149:
	.loc 1 1120 3
	la	a0,mHiiDatabaseLock
	call	EfiAcquireLock@plt
	.loc 1 1126 28
	ld	a5,-72(s0)
	lbu	a5,0(a5)
	sext.w	a5,a5
	.loc 1 1126 3
	li	a4,25
	beq	a5,a4,.L150
	li	a4,25
	bgt	a5,a4,.L151
	li	a4,24
	beq	a5,a4,.L152
	li	a4,24
	bgt	a5,a4,.L151
	li	a4,23
	bgt	a5,a4,.L151
	li	a4,22
	bge	a5,a4,.L153
	li	a4,21
	bgt	a5,a4,.L151
	li	a4,20
	bge	a5,a4,.L154
	li	a4,17
	bgt	a5,a4,.L155
	li	a4,16
	bge	a5,a4,.L156
	j	.L151
.L155:
	addiw	a5,a5,-18
	sext.w	a4,a5
	li	a5,1
	bgtu	a4,a5,.L151
	j	.L165
.L152:
	.loc 1 1128 109
	ld	a5,-72(s0)
	addi	a5,a5,1
	.loc 1 1128 84
	mv	a0,a5
	call	ReadUnaligned32@plt
	mv	a5,a0
	.loc 1 1128 20 discriminator 1
	addiw	a5,a5,5
	sw	a5,-44(s0)
	.loc 1 1129 7
	j	.L158
.L150:
	.loc 1 1131 108
	ld	a5,-72(s0)
	addi	a5,a5,1
	.loc 1 1131 83
	mv	a0,a5
	call	ReadUnaligned32@plt
	mv	a5,a0
	.loc 1 1131 20 discriminator 1
	addiw	a5,a5,5
	sw	a5,-44(s0)
	.loc 1 1132 7
	j	.L158
.L156:
	.loc 1 1136 42
	ld	a5,-72(s0)
	addi	a5,a5,2
	.loc 1 1136 25
	mv	a0,a5
	call	ReadUnaligned16@plt
	mv	a5,a0
	.loc 1 1136 25 is_stmt 0 discriminator 1
	sext.w	a5,a5
	.loc 1 1136 112 is_stmt 1 discriminator 1
	addiw	a5,a5,7
	sext.w	a5,a5
	.loc 1 1136 117 discriminator 1
	sraiw	a4,a5,31
	srliw	a4,a4,29
	addw	a5,a4,a5
	sraiw	a5,a5,3
	sext.w	s1,a5
	.loc 1 1136 141 discriminator 1
	ld	a5,-72(s0)
	addi	a5,a5,4
	.loc 1 1136 124 discriminator 1
	mv	a0,a5
	call	ReadUnaligned16@plt
	mv	a5,a0
	.loc 1 1136 124 is_stmt 0 discriminator 2
	sext.w	a5,a5
	.loc 1 1136 121 is_stmt 1 discriminator 2
	mulw	a5,s1,a5
	sext.w	a5,a5
	.loc 1 1135 20
	addiw	a5,a5,6
	sw	a5,-44(s0)
	.loc 1 1140 7
	j	.L158
.L165:
	.loc 1 1144 42
	ld	a5,-72(s0)
	addi	a5,a5,2
	.loc 1 1144 25
	mv	a0,a5
	call	ReadUnaligned16@plt
	mv	a5,a0
	.loc 1 1144 25 is_stmt 0 discriminator 1
	sext.w	a5,a5
	.loc 1 1144 112 is_stmt 1 discriminator 1
	addiw	a5,a5,1
	sext.w	a5,a5
	.loc 1 1144 117 discriminator 1
	srliw	a4,a5,31
	addw	a5,a4,a5
	sraiw	a5,a5,1
	sext.w	s1,a5
	.loc 1 1144 141 discriminator 1
	ld	a5,-72(s0)
	addi	a5,a5,4
	.loc 1 1144 124 discriminator 1
	mv	a0,a5
	call	ReadUnaligned16@plt
	mv	a5,a0
	.loc 1 1144 124 is_stmt 0 discriminator 2
	sext.w	a5,a5
	.loc 1 1144 121 is_stmt 1 discriminator 2
	mulw	a5,s1,a5
	sext.w	a5,a5
	.loc 1 1143 20
	addiw	a5,a5,6
	sw	a5,-44(s0)
	.loc 1 1148 7
	j	.L158
.L154:
	.loc 1 1152 49
	ld	a5,-72(s0)
	addi	a5,a5,2
	.loc 1 1152 32
	mv	a0,a5
	call	ReadUnaligned16@plt
	mv	a5,a0
	.loc 1 1152 24 discriminator 1
	sext.w	s1,a5
	.loc 1 1152 139 discriminator 1
	ld	a5,-72(s0)
	addi	a5,a5,4
	.loc 1 1152 122 discriminator 1
	mv	a0,a5
	call	ReadUnaligned16@plt
	mv	a5,a0
	.loc 1 1152 122 is_stmt 0 discriminator 2
	sext.w	a5,a5
	.loc 1 1152 119 is_stmt 1 discriminator 2
	mulw	a5,s1,a5
	sext.w	a5,a5
	.loc 1 1151 20
	addiw	a5,a5,6
	sw	a5,-44(s0)
	.loc 1 1156 7
	j	.L158
.L153:
	.loc 1 1160 57
	ld	a5,-72(s0)
	addi	a5,a5,1
	.loc 1 1160 32
	mv	a0,a5
	call	ReadUnaligned16@plt
	mv	a5,a0
	.loc 1 1160 24 discriminator 1
	sext.w	s1,a5
	.loc 1 1160 156 discriminator 1
	ld	a5,-72(s0)
	addi	a5,a5,3
	.loc 1 1160 131 discriminator 1
	mv	a0,a5
	call	ReadUnaligned16@plt
	mv	a5,a0
	.loc 1 1160 131 is_stmt 0 discriminator 2
	sext.w	a5,a5
	.loc 1 1160 128 is_stmt 1 discriminator 2
	mulw	a5,s1,a5
	sext.w	a5,a5
	.loc 1 1160 228 discriminator 2
	mv	a4,a5
	mv	a5,a4
	slliw	a5,a5,1
	addw	a5,a5,a4
	sext.w	a5,a5
	.loc 1 1159 20
	addiw	a5,a5,5
	sw	a5,-44(s0)
	.loc 1 1164 7
	j	.L158
.L151:
	.loc 1 1166 7
	la	a0,mHiiDatabaseLock
	call	EfiReleaseLock@plt
	.loc 1 1167 14
	li	a5,-1
	slli	a5,a5,63
	addi	a5,a5,14
	j	.L144
.L158:
	.loc 1 1179 31
	ld	a5,-144(s0)
	lhu	a5,4(a5)
	.loc 1 1179 18
	sext.w	a4,a5
	.loc 1 1179 46
	ld	a5,-144(s0)
	lhu	a5,6(a5)
	sext.w	a5,a5
	.loc 1 1179 16
	mulw	a5,a4,a5
	sw	a5,-76(s0)
	.loc 1 1180 6
	lw	a5,-76(s0)
	sext.w	a4,a5
	li	a5,1431654400
	addi	a5,a5,1363
	bleu	a4,a5,.L159
	.loc 1 1181 5
	la	a0,mHiiDatabaseLock
	call	EfiReleaseLock@plt
	.loc 1 1182 12
	li	a5,-1
	slli	a5,a5,63
	addi	a5,a5,9
	j	.L144
.L159:
	.loc 1 1185 31
	lw	a5,-76(s0)
	mv	a4,a5
	mv	a5,a4
	slliw	a5,a5,1
	addw	a5,a5,a4
	sext.w	a5,a5
	.loc 1 1185 16
	addiw	a5,a5,5
	sw	a5,-76(s0)
	.loc 1 1186 6
	lw	a5,-76(s0)
	mv	a4,a5
	lw	a5,-44(s0)
	sext.w	a4,a4
	sext.w	a5,a5
	bleu	a4,a5,.L160
	.loc 1 1187 21
	lw	a5,-76(s0)
	mv	a4,a5
	lw	a5,-44(s0)
	subw	a5,a4,a5
	sext.w	a5,a5
	.loc 1 1187 81
	ld	a4,-64(s0)
	ld	a4,0(a4)
	mv	a3,a4
	li	a4,16777216
	addi	a4,a4,-1
	and	a4,a3,a4
	sext.w	a4,a4
	mv	a3,a4
	.loc 1 1187 47
	li	a4,16777216
	addiw	a4,a4,-1
	subw	a4,a4,a3
	sext.w	a4,a4
	.loc 1 1186 37 discriminator 1
	bleu	a5,a4,.L160
	.loc 1 1190 5
	la	a0,mHiiDatabaseLock
	call	EfiReleaseLock@plt
	.loc 1 1191 12
	li	a5,-1
	slli	a5,a5,63
	addi	a5,a5,9
	j	.L144
.L160:
	.loc 1 1197 47
	ld	a5,-64(s0)
	lw	a5,12(a5)
	.loc 1 1197 64
	lw	a4,-76(s0)
	addw	a5,a4,a5
	sext.w	a5,a5
	.loc 1 1197 79
	lw	a4,-44(s0)
	subw	a5,a5,a4
	sext.w	a5,a5
	.loc 1 1197 17
	slli	a5,a5,32
	srli	a5,a5,32
	mv	a0,a5
	call	AllocateZeroPool@plt
	sd	a0,-88(s0)
	.loc 1 1198 6
	ld	a5,-88(s0)
	bne	a5,zero,.L161
	.loc 1 1199 5
	la	a0,mHiiDatabaseLock
	call	EfiReleaseLock@plt
	.loc 1 1200 12
	li	a5,-1
	slli	a5,a5,63
	addi	a5,a5,9
	j	.L144
.L161:
	.loc 1 1203 24
	ld	a5,-72(s0)
	.loc 1 1203 70
	ld	a4,-64(s0)
	ld	a4,24(a4)
	.loc 1 1203 49
	sub	a5,a5,a4
	.loc 1 1203 13
	sw	a5,-92(s0)
	.loc 1 1204 27
	ld	a5,-64(s0)
	lw	a5,12(a5)
	.loc 1 1204 44
	lw	a4,-92(s0)
	subw	a5,a5,a4
	sext.w	a5,a5
	.loc 1 1204 13
	lw	a4,-44(s0)
	subw	a5,a5,a4
	sw	a5,-96(s0)
	.loc 1 1205 37
	ld	a5,-64(s0)
	ld	a5,24(a5)
	.loc 1 1205 3
	lwu	a4,-92(s0)
	mv	a2,a4
	mv	a1,a5
	ld	a0,-88(s0)
	call	CopyMem@plt
	.loc 1 1210 19
	lwu	a5,-92(s0)
	.loc 1 1210 17
	ld	a4,-88(s0)
	add	a5,a4,a5
	sd	a5,-104(s0)
	.loc 1 1211 13
	ld	a5,-144(s0)
	lw	a5,0(a5)
	.loc 1 1211 21
	andi	a5,a5,1
	sext.w	a5,a5
	.loc 1 1211 6
	beq	a5,zero,.L162
	.loc 1 1212 30
	ld	a5,-104(s0)
	li	a4,23
	sb	a4,0(a5)
	j	.L163
.L162:
	.loc 1 1214 30
	ld	a5,-104(s0)
	li	a4,22
	sb	a4,0(a5)
.L163:
	.loc 1 1217 3
	ld	a5,-104(s0)
	addi	a4,a5,1
	.loc 1 1217 100
	ld	a5,-144(s0)
	lhu	a5,4(a5)
	.loc 1 1217 3
	mv	a1,a5
	mv	a0,a4
	call	WriteUnaligned16@plt
	.loc 1 1218 3
	ld	a5,-104(s0)
	addi	a4,a5,3
	.loc 1 1218 101
	ld	a5,-144(s0)
	lhu	a5,6(a5)
	.loc 1 1218 3
	mv	a1,a5
	mv	a0,a4
	call	WriteUnaligned16@plt
	.loc 1 1220 62
	ld	a5,-104(s0)
	addi	a3,a5,5
	.loc 1 1221 10
	ld	a5,-144(s0)
	ld	a1,8(a5)
	.loc 1 1222 18
	ld	a5,-144(s0)
	lhu	a5,4(a5)
	.loc 1 1222 5
	sext.w	a4,a5
	.loc 1 1222 33
	ld	a5,-144(s0)
	lhu	a5,6(a5)
	sext.w	a5,a5
	.loc 1 1222 26
	mulw	a5,a4,a5
	sext.w	a5,a5
	.loc 1 1219 3
	slli	a5,a5,32
	srli	a5,a5,32
	mv	a2,a5
	mv	a0,a3
	call	CopyGopToRgbPixel
	.loc 1 1225 3
	lwu	a5,-76(s0)
	ld	a4,-104(s0)
	add	a3,a4,a5
	lwu	a5,-44(s0)
	ld	a4,-72(s0)
	add	a5,a4,a5
	lwu	a4,-96(s0)
	mv	a2,a4
	mv	a1,a5
	mv	a0,a3
	call	CopyMem@plt
	.loc 1 1227 25
	ld	a5,-64(s0)
	ld	a5,24(a5)
	.loc 1 1227 3
	mv	a0,a5
	call	FreePool@plt
	.loc 1 1228 28
	ld	a5,-64(s0)
	ld	a4,-88(s0)
	sd	a4,24(a5)
	.loc 1 1229 15
	ld	a5,-64(s0)
	lw	a4,12(a5)
	.loc 1 1229 48
	lw	a5,-76(s0)
	mv	a3,a5
	lw	a5,-44(s0)
	subw	a5,a3,a5
	sext.w	a5,a5
	.loc 1 1229 32
	addw	a5,a4,a5
	sext.w	a4,a5
	ld	a5,-64(s0)
	sw	a4,12(a5)
	.loc 1 1230 35
	ld	a5,-64(s0)
	ld	a5,0(a5)
	mv	a4,a5
	li	a5,16777216
	addi	a5,a5,-1
	and	a5,a4,a5
	sext.w	a5,a5
	mv	a4,a5
	.loc 1 1230 59
	lw	a5,-76(s0)
	mv	a3,a5
	lw	a5,-44(s0)
	subw	a5,a3,a5
	sext.w	a5,a5
	.loc 1 1230 43
	addw	a5,a4,a5
	sext.w	a4,a5
	li	a5,16777216
	addi	a5,a5,-1
	and	a5,a4,a5
	sext.w	a4,a5
	ld	a5,-64(s0)
	mv	a3,a4
	li	a4,16777216
	addi	a4,a4,-1
	and	a2,a3,a4
	lw	a4,0(a5)
	mv	a3,a4
	li	a4,-16777216
	and	a4,a3,a4
	mv	a3,a4
	mv	a4,a2
	or	a4,a3,a4
	sw	a4,0(a5)
	.loc 1 1231 34
	ld	a5,-56(s0)
	lw	a4,16(a5)
	.loc 1 1231 65
	lw	a5,-76(s0)
	mv	a3,a5
	lw	a5,-44(s0)
	subw	a5,a3,a5
	sext.w	a5,a5
	.loc 1 1231 49
	addw	a5,a4,a5
	sext.w	a4,a5
	ld	a5,-56(s0)
	sw	a4,16(a5)
	.loc 1 1237 7
	la	a5,gExportAfterReadyToBoot
	lbu	a5,0(a5)
	.loc 1 1237 6
	beq	a5,zero,.L164
	.loc 1 1238 25
	ld	a5,-40(s0)
	addi	a5,a5,200
	.loc 1 1238 5
	mv	a0,a5
	call	HiiGetDatabaseInfo@plt
.L164:
	.loc 1 1241 3
	la	a0,mHiiDatabaseLock
	call	EfiReleaseLock@plt
	.loc 1 1242 10
	li	a5,0
.L144:
	.loc 1 1243 1
	mv	a0,a5
	ld	ra,136(sp)
	.cfi_restore 1
	ld	s0,128(sp)
	.cfi_restore 8
	.cfi_def_cfa 2, 144
	ld	s1,120(sp)
	.cfi_restore 9
	addi	sp,sp,144
	.cfi_def_cfa_offset 0
	jr	ra
	.cfi_endproc
.LFE12:
	.size	HiiSetImage, .-HiiSetImage
	.section	.text.HiiDrawImage,"ax",@progbits
	.align	1
	.globl	HiiDrawImage
	.type	HiiDrawImage, @function
HiiDrawImage:
.LFB13:
	.loc 1 1282 1
	.cfi_startproc
	addi	sp,sp,-176
	.cfi_def_cfa_offset 176
	sd	ra,168(sp)
	sd	s0,160(sp)
	.cfi_offset 1, -8
	.cfi_offset 8, -16
	addi	s0,sp,176
	.cfi_def_cfa 8, 0
	sd	a0,-120(s0)
	sd	a2,-136(s0)
	sd	a3,-144(s0)
	sd	a4,-152(s0)
	sd	a5,-160(s0)
	mv	a5,a1
	sw	a5,-124(s0)
	.loc 1 1297 6
	ld	a5,-120(s0)
	beq	a5,zero,.L167
	.loc 1 1297 30 discriminator 1
	ld	a5,-136(s0)
	beq	a5,zero,.L167
	.loc 1 1297 57 discriminator 2
	ld	a5,-144(s0)
	bne	a5,zero,.L168
.L167:
	.loc 1 1298 12
	li	a5,-1
	slli	a5,a5,63
	addi	a5,a5,2
	j	.L200
.L168:
	.loc 1 1301 15
	lw	a5,-124(s0)
	andi	a5,a5,1
	sext.w	a5,a5
	.loc 1 1301 6
	beq	a5,zero,.L170
	.loc 1 1301 48 discriminator 1
	ld	a5,-144(s0)
	ld	a5,0(a5)
	.loc 1 1301 44 discriminator 1
	bne	a5,zero,.L170
	.loc 1 1302 12
	li	a5,-1
	slli	a5,a5,63
	addi	a5,a5,2
	j	.L200
.L170:
	.loc 1 1305 14
	lw	a5,-124(s0)
	andi	a5,a5,48
	sext.w	a4,a5
	.loc 1 1305 6
	li	a5,48
	bne	a4,a5,.L171
	.loc 1 1306 12
	li	a5,-1
	slli	a5,a5,63
	addi	a5,a5,2
	j	.L200
.L171:
	.loc 1 1309 12
	sd	zero,-104(s0)
	.loc 1 1314 15
	sb	zero,-33(s0)
	.loc 1 1315 14
	lw	a5,-124(s0)
	andi	a5,a5,48
	sext.w	a4,a5
	.loc 1 1315 6
	li	a5,16
	bne	a4,a5,.L172
	.loc 1 1316 17
	li	a5,1
	sb	a5,-33(s0)
	j	.L173
.L172:
	.loc 1 1317 21
	lw	a5,-124(s0)
	andi	a5,a5,48
	sext.w	a4,a5
	.loc 1 1317 13
	li	a5,32
	bne	a4,a5,.L174
	.loc 1 1318 17
	sb	zero,-33(s0)
	j	.L173
.L174:
	.loc 1 1324 15
	ld	a5,-136(s0)
	lw	a5,0(a5)
	.loc 1 1324 23
	andi	a5,a5,1
	sext.w	a5,a5
	.loc 1 1324 8
	beq	a5,zero,.L173
	.loc 1 1325 19
	li	a5,1
	sb	a5,-33(s0)
.L173:
	.loc 1 1333 6
	lbu	a5,-33(s0)
	andi	a5,a5,0xff
	beq	a5,zero,.L175
	.loc 1 1334 9
	ld	a5,-144(s0)
	ld	a5,0(a5)
	.loc 1 1334 8
	bne	a5,zero,.L176
	.loc 1 1335 14
	li	a5,-1
	slli	a5,a5,63
	addi	a5,a5,2
	j	.L200
.L176:
	.loc 1 1336 23
	lw	a5,-124(s0)
	andi	a5,a5,128
	sext.w	a5,a5
	.loc 1 1336 15
	beq	a5,zero,.L175
	.loc 1 1337 14
	li	a5,-1
	slli	a5,a5,63
	addi	a5,a5,2
	j	.L200
.L175:
	.loc 1 1341 15
	ld	a5,-120(s0)
	addi	a5,a5,-72
	.loc 1 1341 141
	ld	a4,0(a5)
	.loc 1 1341 226
	li	a5,1883533312
	addi	a5,a5,-1720
	bne	a4,a5,.L177
	.loc 1 1341 11 discriminator 1
	ld	a5,-120(s0)
	addi	a5,a5,-72
	sd	a5,-32(s0)
	j	.L178
.L177:
	.loc 1 1341 11 is_stmt 0 discriminator 2
	sd	zero,-32(s0)
.L178:
	.loc 1 1348 7 is_stmt 1
	ld	a5,-144(s0)
	ld	a5,0(a5)
	.loc 1 1348 6
	beq	a5,zero,.L179
	.loc 1 1352 19
	ld	a5,-144(s0)
	ld	a5,0(a5)
	.loc 1 1352 24
	lhu	a5,0(a5)
	mv	a4,a5
	.loc 1 1352 8
	ld	a5,-152(s0)
	bgeu	a5,a4,.L180
	.loc 1 1352 46 discriminator 1
	ld	a5,-144(s0)
	ld	a5,0(a5)
	.loc 1 1352 51 discriminator 1
	lhu	a5,2(a5)
	mv	a4,a5
	.loc 1 1352 33 discriminator 1
	ld	a5,-160(s0)
	bltu	a5,a4,.L181
.L180:
	.loc 1 1353 14
	li	a5,-1
	slli	a5,a5,63
	addi	a5,a5,2
	j	.L200
.L181:
	.loc 1 1360 11
	ld	a5,-136(s0)
	lhu	a5,4(a5)
	sh	a5,-36(s0)
	.loc 1 1361 12
	ld	a5,-136(s0)
	lhu	a5,6(a5)
	sh	a5,-38(s0)
	.loc 1 1363 15
	lhu	a5,-36(s0)
	sext.w	a4,a5
	.loc 1 1363 18
	ld	a5,-144(s0)
	ld	a5,0(a5)
	.loc 1 1363 23
	lhu	a5,0(a5)
	sext.w	a3,a5
	.loc 1 1363 33
	ld	a5,-152(s0)
	slli	a5,a5,48
	srli	a5,a5,48
	sext.w	a5,a5
	.loc 1 1363 31
	subw	a5,a3,a5
	sext.w	a5,a5
	.loc 1 1363 8
	ble	a4,a5,.L182
	.loc 1 1364 16
	ld	a5,-144(s0)
	ld	a5,0(a5)
	.loc 1 1364 21
	lhu	a4,0(a5)
	.loc 1 1364 31
	ld	a5,-152(s0)
	slli	a5,a5,48
	srli	a5,a5,48
	.loc 1 1364 13
	subw	a5,a4,a5
	sh	a5,-36(s0)
.L182:
	.loc 1 1367 16
	lhu	a5,-38(s0)
	sext.w	a4,a5
	.loc 1 1367 19
	ld	a5,-144(s0)
	ld	a5,0(a5)
	.loc 1 1367 24
	lhu	a5,2(a5)
	sext.w	a3,a5
	.loc 1 1367 35
	ld	a5,-160(s0)
	slli	a5,a5,48
	srli	a5,a5,48
	sext.w	a5,a5
	.loc 1 1367 33
	subw	a5,a3,a5
	sext.w	a5,a5
	.loc 1 1367 8
	ble	a4,a5,.L183
	.loc 1 1368 17
	ld	a5,-144(s0)
	ld	a5,0(a5)
	.loc 1 1368 22
	lhu	a4,2(a5)
	.loc 1 1368 33
	ld	a5,-160(s0)
	slli	a5,a5,48
	srli	a5,a5,48
	.loc 1 1368 14
	subw	a5,a4,a5
	sh	a5,-38(s0)
.L183:
	.loc 1 1375 23
	lhu	a5,-36(s0)
	sext.w	a4,a5
	lhu	a5,-38(s0)
	sext.w	a5,a5
	mulw	a5,a4,a5
	sext.w	a5,a5
	.loc 1 1375 15
	sd	a5,-64(s0)
	.loc 1 1376 8
	ld	a4,-64(s0)
	li	a5,-1
	srli	a5,a5,2
	bleu	a4,a5,.L184
	.loc 1 1377 14
	li	a5,-1
	slli	a5,a5,63
	addi	a5,a5,9
	j	.L200
.L184:
	.loc 1 1380 15
	ld	a5,-64(s0)
	slli	a5,a5,2
	sd	a5,-64(s0)
	.loc 1 1381 17
	ld	a0,-64(s0)
	call	AllocateZeroPool@plt
	sd	a0,-72(s0)
	.loc 1 1382 8
	ld	a5,-72(s0)
	bne	a5,zero,.L185
	.loc 1 1383 14
	li	a5,-1
	slli	a5,a5,63
	addi	a5,a5,9
	j	.L200
.L185:
	.loc 1 1386 24
	ld	a5,-136(s0)
	lhu	a5,4(a5)
	.loc 1 1386 8
	lhu	a4,-36(s0)
	sext.w	a4,a4
	sext.w	a5,a5
	bne	a4,a5,.L186
	.loc 1 1386 52 discriminator 1
	ld	a5,-136(s0)
	lhu	a5,6(a5)
	.loc 1 1386 33 discriminator 1
	lhu	a4,-38(s0)
	sext.w	a4,a4
	sext.w	a5,a5
	bne	a4,a5,.L186
	.loc 1 1387 32
	ld	a5,-136(s0)
	ld	a5,8(a5)
	.loc 1 1387 7
	ld	a2,-64(s0)
	mv	a1,a5
	ld	a0,-72(s0)
	call	CopyMem@plt
	j	.L187
.L186:
	.loc 1 1389 17
	sd	zero,-48(s0)
	.loc 1 1389 7
	j	.L188
.L189:
	.loc 1 1390 25
	ld	a5,-136(s0)
	lhu	a5,4(a5)
	mv	a4,a5
	.loc 1 1390 18
	ld	a5,-48(s0)
	mul	a5,a5,a4
	sd	a5,-88(s0)
	.loc 1 1391 26
	lhu	a5,-36(s0)
	.loc 1 1391 18
	ld	a4,-48(s0)
	mul	a5,a4,a5
	sd	a5,-96(s0)
	.loc 1 1393 21
	ld	a5,-96(s0)
	slli	a5,a5,2
	.loc 1 1393 11
	ld	a4,-72(s0)
	add	a3,a4,a5
	.loc 1 1394 17
	ld	a5,-136(s0)
	ld	a4,8(a5)
	.loc 1 1394 25
	ld	a5,-88(s0)
	slli	a5,a5,2
	.loc 1 1394 11
	add	a4,a4,a5
	.loc 1 1392 9
	lhu	a5,-36(s0)
	.loc 1 1395 17
	slli	a5,a5,2
	.loc 1 1392 9
	mv	a2,a5
	mv	a1,a4
	mv	a0,a3
	call	CopyMem@plt
	.loc 1 1389 41 discriminator 3
	ld	a5,-48(s0)
	addi	a5,a5,1
	sd	a5,-48(s0)
.L188:
	.loc 1 1389 27 discriminator 1
	lhu	a5,-38(s0)
	ld	a4,-48(s0)
	bltu	a4,a5,.L189
.L187:
	.loc 1 1403 16
	lw	a5,-124(s0)
	andi	a5,a5,128
	sext.w	a5,a5
	.loc 1 1403 8
	beq	a5,zero,.L190
	.loc 1 1411 17
	ld	a5,-144(s0)
	ld	a5,0(a5)
	.loc 1 1411 29
	ld	a5,8(a5)
	.loc 1 1411 36
	ld	t1,16(a5)
	.loc 1 1412 41
	ld	a5,-144(s0)
	ld	a5,0(a5)
	.loc 1 1411 17
	ld	a0,8(a5)
	lhu	a4,-36(s0)
	lhu	a5,-38(s0)
	sd	zero,8(sp)
	sd	a5,0(sp)
	mv	a7,a4
	ld	a6,-160(s0)
	ld	a5,-152(s0)
	li	a4,0
	li	a3,0
	li	a2,2
	ld	a1,-72(s0)
	jalr	t1
.LVL1:
	sd	a0,-24(s0)
	j	.L191
.L190:
	.loc 1 1427 16
	lhu	a3,-36(s0)
	lhu	a4,-38(s0)
	lbu	a5,-33(s0)
	ld	a6,-144(s0)
	ld	a2,-160(s0)
	ld	a1,-152(s0)
	ld	a0,-72(s0)
	call	ImageToBlt
	sd	a0,-24(s0)
.L191:
	.loc 1 1438 5
	ld	a0,-72(s0)
	call	FreePool@plt
	.loc 1 1439 12
	ld	a5,-24(s0)
	j	.L200
.L179:
	.loc 1 1448 48
	ld	a5,-136(s0)
	lhu	a5,4(a5)
	mv	a4,a5
	.loc 1 1448 41
	li	a5,65536
	addi	a5,a5,-1
	sub	a5,a5,a4
	.loc 1 1448 8
	ld	a4,-152(s0)
	bgtu	a4,a5,.L192
	.loc 1 1448 99 discriminator 1
	ld	a5,-136(s0)
	lhu	a5,6(a5)
	mv	a4,a5
	.loc 1 1448 92 discriminator 1
	li	a5,65536
	addi	a5,a5,-1
	sub	a5,a5,a4
	.loc 1 1448 57 discriminator 1
	ld	a4,-160(s0)
	bleu	a4,a5,.L193
.L192:
	.loc 1 1449 14
	li	a5,-1
	slli	a5,a5,63
	addi	a5,a5,2
	j	.L200
.L193:
	.loc 1 1452 18
	ld	a5,-136(s0)
	lhu	a4,4(a5)
	.loc 1 1452 28
	ld	a5,-152(s0)
	slli	a5,a5,48
	srli	a5,a5,48
	.loc 1 1452 11
	addw	a5,a4,a5
	sh	a5,-36(s0)
	.loc 1 1453 19
	ld	a5,-136(s0)
	lhu	a4,6(a5)
	.loc 1 1453 30
	ld	a5,-160(s0)
	slli	a5,a5,48
	srli	a5,a5,48
	.loc 1 1453 12
	addw	a5,a4,a5
	sh	a5,-38(s0)
	.loc 1 1458 23
	lhu	a5,-36(s0)
	sext.w	a4,a5
	lhu	a5,-38(s0)
	sext.w	a5,a5
	mulw	a5,a4,a5
	sext.w	a5,a5
	.loc 1 1458 15
	sd	a5,-64(s0)
	.loc 1 1459 8
	ld	a4,-64(s0)
	li	a5,-1
	srli	a5,a5,2
	bleu	a4,a5,.L194
	.loc 1 1460 14
	li	a5,-1
	slli	a5,a5,63
	addi	a5,a5,9
	j	.L200
.L194:
	.loc 1 1463 15
	ld	a5,-64(s0)
	slli	a5,a5,2
	sd	a5,-64(s0)
	.loc 1 1464 17
	ld	a0,-64(s0)
	call	AllocateZeroPool@plt
	sd	a0,-72(s0)
	.loc 1 1465 8
	ld	a5,-72(s0)
	bne	a5,zero,.L195
	.loc 1 1466 14
	li	a5,-1
	slli	a5,a5,63
	addi	a5,a5,9
	j	.L200
.L195:
	.loc 1 1469 36
	li	a0,16
	call	AllocateZeroPool@plt
	sd	a0,-80(s0)
	.loc 1 1470 8
	ld	a5,-80(s0)
	bne	a5,zero,.L196
	.loc 1 1471 7
	ld	a0,-72(s0)
	call	FreePool@plt
	.loc 1 1472 14
	li	a5,-1
	slli	a5,a5,63
	addi	a5,a5,9
	j	.L200
.L196:
	.loc 1 1475 21
	ld	a5,-80(s0)
	lhu	a4,-36(s0)
	sh	a4,0(a5)
	.loc 1 1476 22
	ld	a5,-80(s0)
	lhu	a4,-38(s0)
	sh	a4,2(a5)
	.loc 1 1477 28
	ld	a5,-80(s0)
	ld	a4,-72(s0)
	sd	a4,8(a5)
	.loc 1 1483 14
	addi	a5,s0,-104
	li	a2,0
	mv	a1,a5
	ld	a0,-32(s0)
	call	GetSystemFont@plt
	sd	a0,-24(s0)
	.loc 1 1484 36
	ld	a5,-24(s0)
	.loc 1 1484 8
	bge	a5,zero,.L197
	.loc 1 1485 7
	ld	a0,-72(s0)
	call	FreePool@plt
	.loc 1 1486 7
	ld	a0,-80(s0)
	call	FreePool@plt
	.loc 1 1487 14
	ld	a5,-24(s0)
	j	.L200
.L197:
	.loc 1 1491 16
	sd	zero,-56(s0)
	.loc 1 1491 5
	j	.L198
.L199:
	.loc 1 1492 34
	ld	a4,-104(s0)
	.loc 1 1492 16
	ld	a5,-56(s0)
	slli	a5,a5,2
	ld	a3,-72(s0)
	add	a5,a3,a5
	.loc 1 1492 24
	lbu	a3,4(a4)
	mv	a1,a3
	lbu	a3,5(a4)
	mv	a2,a3
	lbu	a3,6(a4)
	sb	a1,0(a5)
	sb	a2,1(a5)
	sb	a3,2(a5)
	lbu	a4,7(a4)
	sb	a4,3(a5)
	.loc 1 1491 57 discriminator 3
	ld	a5,-56(s0)
	addi	a5,a5,1
	sd	a5,-56(s0)
.L198:
	.loc 1 1491 29 discriminator 1
	lhu	a4,-36(s0)
	.loc 1 1491 42 discriminator 1
	lhu	a5,-38(s0)
	mul	a5,a4,a5
	.loc 1 1491 27 discriminator 1
	ld	a4,-56(s0)
	bltu	a4,a5,.L199
	.loc 1 1495 5
	ld	a5,-104(s0)
	mv	a0,a5
	call	FreePool@plt
	.loc 1 1500 10
	ld	a5,-144(s0)
	ld	a4,-80(s0)
	sd	a4,0(a5)
	.loc 1 1502 19
	ld	a5,-136(s0)
	ld	a0,8(a5)
	.loc 1 1505 19
	ld	a5,-136(s0)
	lhu	a5,4(a5)
	.loc 1 1501 12
	mv	a3,a5
	.loc 1 1506 19
	ld	a5,-136(s0)
	lhu	a5,6(a5)
	.loc 1 1501 12
	mv	a4,a5
	lbu	a5,-33(s0)
	ld	a6,-144(s0)
	ld	a2,-160(s0)
	ld	a1,-152(s0)
	call	ImageToBlt
	mv	a5,a0
.L200:
	.loc 1 1511 1
	mv	a0,a5
	ld	ra,168(sp)
	.cfi_restore 1
	ld	s0,160(sp)
	.cfi_restore 8
	.cfi_def_cfa 2, 176
	addi	sp,sp,176
	.cfi_def_cfa_offset 0
	jr	ra
	.cfi_endproc
.LFE13:
	.size	HiiDrawImage, .-HiiDrawImage
	.section	.text.HiiDrawImageId,"ax",@progbits
	.align	1
	.globl	HiiDrawImageId
	.type	HiiDrawImageId, @function
HiiDrawImageId:
.LFB14:
	.loc 1 1556 1
	.cfi_startproc
	addi	sp,sp,-96
	.cfi_def_cfa_offset 96
	sd	ra,88(sp)
	sd	s0,80(sp)
	.cfi_offset 1, -8
	.cfi_offset 8, -16
	addi	s0,sp,96
	.cfi_def_cfa 8, 0
	sd	a0,-56(s0)
	sd	a2,-72(s0)
	sd	a4,-80(s0)
	sd	a5,-88(s0)
	sd	a6,-96(s0)
	mv	a5,a1
	sw	a5,-60(s0)
	mv	a5,a3
	sh	a5,-62(s0)
	.loc 1 1563 6
	ld	a5,-56(s0)
	beq	a5,zero,.L202
	.loc 1 1563 30 discriminator 1
	ld	a5,-80(s0)
	bne	a5,zero,.L203
.L202:
	.loc 1 1564 12
	li	a5,-1
	slli	a5,a5,63
	addi	a5,a5,2
	j	.L207
.L203:
	.loc 1 1570 12
	addi	a4,s0,-40
	lhu	a5,-62(s0)
	mv	a3,a4
	mv	a2,a5
	ld	a1,-72(s0)
	ld	a0,-56(s0)
	call	HiiGetImage
	sd	a0,-24(s0)
	.loc 1 1571 34
	ld	a5,-24(s0)
	.loc 1 1571 6
	bge	a5,zero,.L205
	.loc 1 1572 12
	ld	a5,-24(s0)
	j	.L207
.L205:
	.loc 1 1578 12
	addi	a2,s0,-40
	lw	a1,-60(s0)
	ld	a5,-96(s0)
	ld	a4,-88(s0)
	ld	a3,-80(s0)
	ld	a0,-56(s0)
	call	HiiDrawImage
	sd	a0,-24(s0)
	.loc 1 1579 12
	ld	a5,-32(s0)
	.loc 1 1579 6
	beq	a5,zero,.L206
	.loc 1 1580 20
	ld	a5,-32(s0)
	.loc 1 1580 5
	mv	a0,a5
	call	FreePool@plt
.L206:
	.loc 1 1583 10
	ld	a5,-24(s0)
.L207:
	.loc 1 1584 1
	mv	a0,a5
	ld	ra,88(sp)
	.cfi_restore 1
	ld	s0,80(sp)
	.cfi_restore 8
	.cfi_def_cfa 2, 96
	addi	sp,sp,96
	.cfi_def_cfa_offset 0
	jr	ra
	.cfi_endproc
.LFE14:
	.size	HiiDrawImageId, .-HiiDrawImageId
	.section	.rodata
	.align	3
.LC0:
	.dword	2863311531
	.text
.Letext0:
	.file 2 "/home/kapoagaeming/Downloads/spacemit-image-builder/components/edk2/MdePkg/Include/RiscV64/ProcessorBind.h"
	.file 3 "/home/kapoagaeming/Downloads/spacemit-image-builder/components/edk2/MdePkg/Include/Base.h"
	.file 4 "/home/kapoagaeming/Downloads/spacemit-image-builder/components/edk2/MdePkg/Include/Uefi/UefiBaseType.h"
	.file 5 "/home/kapoagaeming/Downloads/spacemit-image-builder/components/edk2/MdePkg/Include/Protocol/DevicePath.h"
	.file 6 "/home/kapoagaeming/Downloads/spacemit-image-builder/components/edk2/MdePkg/Include/Uefi/UefiInternalFormRepresentation.h"
	.file 7 "/home/kapoagaeming/Downloads/spacemit-image-builder/components/edk2/MdePkg/Include/Protocol/GraphicsOutput.h"
	.file 8 "/home/kapoagaeming/Downloads/spacemit-image-builder/components/edk2/MdePkg/Include/Protocol/HiiImage.h"
	.file 9 "/home/kapoagaeming/Downloads/spacemit-image-builder/components/edk2/MdePkg/Include/Protocol/HiiFont.h"
	.file 10 "/home/kapoagaeming/Downloads/spacemit-image-builder/components/edk2/MdePkg/Include/Protocol/HiiImageEx.h"
	.file 11 "/home/kapoagaeming/Downloads/spacemit-image-builder/components/edk2/MdePkg/Include/Protocol/HiiImageDecoder.h"
	.file 12 "/home/kapoagaeming/Downloads/spacemit-image-builder/components/edk2/MdePkg/Include/Protocol/HiiString.h"
	.file 13 "/home/kapoagaeming/Downloads/spacemit-image-builder/components/edk2/MdePkg/Include/Protocol/HiiDatabase.h"
	.file 14 "/home/kapoagaeming/Downloads/spacemit-image-builder/components/edk2/MdePkg/Include/Protocol/HiiConfigRouting.h"
	.file 15 "/home/kapoagaeming/Downloads/spacemit-image-builder/components/edk2/MdePkg/Include/Protocol/HiiConfigKeyword.h"
	.file 16 "/home/kapoagaeming/Downloads/spacemit-image-builder/components/edk2/MdePkg/Include/Library/UefiLib.h"
	.file 17 "/home/kapoagaeming/Downloads/spacemit-image-builder/components/edk2/MdeModulePkg/Universal/HiiDatabaseDxe/HiiDatabase.h"
	.file 18 "/home/kapoagaeming/Downloads/spacemit-image-builder/components/edk2/MdePkg/Include/Library/BaseLib.h"
	.file 19 "/home/kapoagaeming/Downloads/spacemit-image-builder/components/edk2/MdePkg/Include/Library/MemoryAllocationLib.h"
	.file 20 "/home/kapoagaeming/Downloads/spacemit-image-builder/components/edk2/MdePkg/Include/Library/BaseMemoryLib.h"
	.section	.note.GNU-stack,"",@progbits
