	.file	"String.c"
	.option pic
	.option norelax
	.attribute arch, "rv64i2p1_m2p0_a2p1_f2p2_d2p2_c2p0_zicsr2p0_zifencei2p0_zmmul1p0_zaamo1p0_zalrsc1p0_zca1p0_zcd1p0"
	.attribute unaligned_access, 0
	.attribute stack_align, 16
	.text
.Ltext0:
	.cfi_sections	.debug_frame
	.file 0 "/home/kapoagaeming/Downloads/spacemit-image-builder/components/Build/Milk-V-Jupiter/RELEASE_GCC5/RISCV64/MdeModulePkg/Universal/HiiDatabaseDxe/HiiDatabaseDxe" "/home/kapoagaeming/Downloads/spacemit-image-builder/components/edk2/MdeModulePkg/Universal/HiiDatabaseDxe/String.c"
	.globl	mLanguageWindow
	.section	.data.mLanguageWindow,"aw"
	.align	3
	.type	mLanguageWindow, @object
	.size	mLanguageWindow, 32
mLanguageWindow:
	.half	0
	.half	128
	.half	256
	.half	768
	.half	8192
	.half	8320
	.half	8448
	.half	12288
	.half	128
	.half	192
	.half	1024
	.half	1536
	.half	2304
	.half	12352
	.half	12448
	.half	-256
	.section	.text.ReferFontInfoLocally,"ax",@progbits
	.align	1
	.globl	ReferFontInfoLocally
	.type	ReferFontInfoLocally, @function
ReferFontInfoLocally:
.LFB0:
	.file 1 "/home/kapoagaeming/Downloads/spacemit-image-builder/components/edk2/MdeModulePkg/Universal/HiiDatabaseDxe/String.c"
	.loc 1 52 1
	.cfi_startproc
	addi	sp,sp,-80
	.cfi_def_cfa_offset 80
	sd	ra,72(sp)
	sd	s0,64(sp)
	.cfi_offset 1, -8
	.cfi_offset 8, -16
	addi	s0,sp,80
	.cfi_def_cfa 8, 0
	sd	a0,-40(s0)
	sd	a1,-48(s0)
	sd	a4,-64(s0)
	sd	a5,-72(s0)
	mv	a5,a2
	sb	a5,-49(s0)
	mv	a5,a3
	sb	a5,-50(s0)
	.loc 1 58 6
	lbu	a5,-50(s0)
	andi	a5,a5,0xff
	bne	a5,zero,.L2
	.loc 1 59 15
	ld	a5,-48(s0)
	ld	a5,40(a5)
	sd	a5,-32(s0)
	.loc 1 59 5
	j	.L3
.L8:
	.loc 1 64 21
	ld	a5,-32(s0)
	addi	a5,a5,-8
	.loc 1 64 120
	ld	a4,0(a5)
	.loc 1 64 205
	li	a5,1768321024
	addi	a5,a5,-920
	bne	a4,a5,.L4
	.loc 1 64 17 discriminator 1
	ld	a5,-32(s0)
	addi	a5,a5,-8
	sd	a5,-24(s0)
	j	.L5
.L4:
	.loc 1 64 17 is_stmt 0 discriminator 2
	sd	zero,-24(s0)
.L5:
	.loc 1 65 20 is_stmt 1
	ld	a5,-24(s0)
	ld	a4,24(a5)
	.loc 1 65 37
	ld	a5,-64(s0)
	addi	a5,a5,8
	.loc 1 65 10
	bne	a4,a5,.L6
	.loc 1 69 24
	ld	a5,-72(s0)
	ld	a4,-24(s0)
	sd	a4,0(a5)
	.loc 1 70 16
	li	a5,1
	j	.L7
.L6:
	.loc 1 61 15
	ld	a5,-32(s0)
	ld	a5,0(a5)
	sd	a5,-32(s0)
.L3:
	.loc 1 60 18
	ld	a5,-48(s0)
	addi	a5,a5,40
	.loc 1 60 15
	ld	a4,-32(s0)
	bne	a4,a5,.L8
.L2:
	.loc 1 79 32
	li	a0,40
	call	AllocateZeroPool@plt
	sd	a0,-24(s0)
	.loc 1 82 24
	ld	a5,-24(s0)
	li	a4,1768321024
	addi	a4,a4,-920
	sd	a4,0(a5)
	.loc 1 83 21
	ld	a5,-24(s0)
	lbu	a4,-49(s0)
	sb	a4,32(a5)
	.loc 1 84 28
	ld	a5,-64(s0)
	addi	a4,a5,8
	.loc 1 84 26
	ld	a5,-24(s0)
	sd	a4,24(a5)
	.loc 1 85 3
	ld	a5,-48(s0)
	addi	a4,a5,40
	ld	a5,-24(s0)
	addi	a5,a5,8
	mv	a1,a5
	mv	a0,a4
	call	InsertTailList@plt
	.loc 1 87 18
	ld	a5,-72(s0)
	ld	a4,-24(s0)
	sd	a4,0(a5)
	.loc 1 88 10
	li	a5,0
.L7:
	.loc 1 89 1
	mv	a0,a5
	ld	ra,72(sp)
	.cfi_restore 1
	ld	s0,64(sp)
	.cfi_restore 8
	.cfi_def_cfa 2, 80
	addi	sp,sp,80
	.cfi_def_cfa_offset 0
	jr	ra
	.cfi_endproc
.LFE0:
	.size	ReferFontInfoLocally, .-ReferFontInfoLocally
	.section	.text.ConvertToUnicodeText,"ax",@progbits
	.align	1
	.globl	ConvertToUnicodeText
	.type	ConvertToUnicodeText, @function
ConvertToUnicodeText:
.LFB1:
	.loc 1 114 1
	.cfi_startproc
	addi	sp,sp,-64
	.cfi_def_cfa_offset 64
	sd	ra,56(sp)
	sd	s0,48(sp)
	.cfi_offset 1, -8
	.cfi_offset 8, -16
	addi	s0,sp,64
	.cfi_def_cfa 8, 0
	sd	a0,-40(s0)
	sd	a1,-48(s0)
	sd	a2,-56(s0)
	.loc 1 120 16
	ld	a0,-48(s0)
	call	AsciiStrSize@plt
	mv	a5,a0
	.loc 1 120 14 discriminator 1
	slli	a5,a5,1
	sd	a5,-32(s0)
	.loc 1 121 8
	ld	a5,-56(s0)
	ld	a5,0(a5)
	.loc 1 121 6
	ld	a4,-32(s0)
	bgtu	a4,a5,.L10
	.loc 1 121 34 discriminator 1
	ld	a5,-40(s0)
	bne	a5,zero,.L11
.L10:
	.loc 1 122 17
	ld	a5,-56(s0)
	ld	a4,-32(s0)
	sd	a4,0(a5)
	.loc 1 123 12
	li	a5,-1
	slli	a5,a5,63
	addi	a5,a5,5
	j	.L12
.L11:
	.loc 1 126 14
	sd	zero,-24(s0)
	.loc 1 126 3
	j	.L13
.L14:
	.loc 1 127 42
	ld	a4,-48(s0)
	ld	a5,-24(s0)
	add	a5,a4,a5
	lbu	a3,0(a5)
	.loc 1 127 15
	ld	a5,-24(s0)
	slli	a5,a5,1
	ld	a4,-40(s0)
	add	a5,a4,a5
	.loc 1 127 25
	mv	a4,a3
	.loc 1 127 23
	sh	a4,0(a5)
	.loc 1 126 57 discriminator 4
	ld	a5,-24(s0)
	addi	a5,a5,1
	sd	a5,-24(s0)
.L13:
	.loc 1 126 27 discriminator 1
	ld	a0,-48(s0)
	call	AsciiStrLen@plt
	mv	a4,a0
	.loc 1 126 25 discriminator 3
	ld	a5,-24(s0)
	bltu	a5,a4,.L14
	.loc 1 130 13
	ld	a5,-24(s0)
	slli	a5,a5,1
	ld	a4,-40(s0)
	add	a5,a4,a5
	.loc 1 130 21
	sh	zero,0(a5)
	.loc 1 131 10
	li	a5,0
.L12:
	.loc 1 132 1
	mv	a0,a5
	ld	ra,56(sp)
	.cfi_restore 1
	ld	s0,48(sp)
	.cfi_restore 8
	.cfi_def_cfa 2, 64
	addi	sp,sp,64
	.cfi_def_cfa_offset 0
	jr	ra
	.cfi_endproc
.LFE1:
	.size	ConvertToUnicodeText, .-ConvertToUnicodeText
	.section	.text.GetUnicodeStringTextOrSize,"ax",@progbits
	.align	1
	.globl	GetUnicodeStringTextOrSize
	.type	GetUnicodeStringTextOrSize, @function
GetUnicodeStringTextOrSize:
.LFB2:
	.loc 1 157 1
	.cfi_startproc
	addi	sp,sp,-64
	.cfi_def_cfa_offset 64
	sd	ra,56(sp)
	sd	s0,48(sp)
	.cfi_offset 1, -8
	.cfi_offset 8, -16
	addi	s0,sp,64
	.cfi_def_cfa 8, 0
	sd	a0,-40(s0)
	sd	a1,-48(s0)
	sd	a2,-56(s0)
	.loc 1 163 14
	li	a5,2
	sd	a5,-24(s0)
	.loc 1 164 13
	ld	a5,-48(s0)
	sd	a5,-32(s0)
	.loc 1 165 9
	j	.L16
.L17:
	.loc 1 166 16
	ld	a5,-24(s0)
	addi	a5,a5,2
	sd	a5,-24(s0)
	.loc 1 167 15
	ld	a5,-32(s0)
	addi	a5,a5,2
	sd	a5,-32(s0)
.L16:
	.loc 1 165 10
	ld	a0,-32(s0)
	call	ReadUnaligned16@plt
	mv	a5,a0
	.loc 1 165 48 discriminator 1
	bne	a5,zero,.L17
	.loc 1 170 7
	ld	a5,-56(s0)
	ld	a5,0(a5)
	.loc 1 170 6
	ld	a4,-24(s0)
	bleu	a4,a5,.L18
	.loc 1 171 17
	ld	a5,-56(s0)
	ld	a4,-24(s0)
	sd	a4,0(a5)
	.loc 1 172 12
	li	a5,-1
	slli	a5,a5,63
	addi	a5,a5,5
	j	.L19
.L18:
	.loc 1 175 6
	ld	a5,-40(s0)
	beq	a5,zero,.L20
	.loc 1 176 5
	ld	a2,-24(s0)
	ld	a1,-48(s0)
	ld	a0,-40(s0)
	call	CopyMem@plt
.L20:
	.loc 1 179 15
	ld	a5,-56(s0)
	ld	a4,-24(s0)
	sd	a4,0(a5)
	.loc 1 180 10
	li	a5,0
.L19:
	.loc 1 181 1
	mv	a0,a5
	ld	ra,56(sp)
	.cfi_restore 1
	ld	s0,48(sp)
	.cfi_restore 8
	.cfi_def_cfa 2, 64
	addi	sp,sp,64
	.cfi_def_cfa_offset 0
	jr	ra
	.cfi_endproc
.LFE2:
	.size	GetUnicodeStringTextOrSize, .-GetUnicodeStringTextOrSize
	.section	.text.GetStringFontInfo,"ax",@progbits
	.align	1
	.globl	GetStringFontInfo
	.type	GetStringFontInfo, @function
GetStringFontInfo:
.LFB3:
	.loc 1 204 1
	.cfi_startproc
	addi	sp,sp,-80
	.cfi_def_cfa_offset 80
	sd	ra,72(sp)
	sd	s0,64(sp)
	.cfi_offset 1, -8
	.cfi_offset 8, -16
	addi	s0,sp,80
	.cfi_def_cfa 8, 0
	sd	a0,-56(s0)
	mv	a5,a1
	sd	a2,-72(s0)
	sb	a5,-57(s0)
	.loc 1 211 13
	ld	a5,-56(s0)
	ld	a5,40(a5)
	sd	a5,-24(s0)
	.loc 1 211 3
	j	.L22
.L30:
	.loc 1 212 18
	ld	a5,-24(s0)
	addi	a5,a5,-8
	.loc 1 212 117
	ld	a4,0(a5)
	.loc 1 212 202
	li	a5,1768321024
	addi	a5,a5,-920
	bne	a4,a5,.L23
	.loc 1 212 14 discriminator 1
	ld	a5,-24(s0)
	addi	a5,a5,-8
	sd	a5,-32(s0)
	j	.L24
.L23:
	.loc 1 212 14 is_stmt 0 discriminator 2
	sd	zero,-32(s0)
.L24:
	.loc 1 213 17 is_stmt 1
	ld	a5,-32(s0)
	lbu	a4,32(a5)
	.loc 1 213 8
	lbu	a5,-57(s0)
	andi	a5,a5,0xff
	bne	a5,a4,.L25
	.loc 1 214 76
	ld	a5,-32(s0)
	ld	a5,24(a5)
	.loc 1 214 22
	addi	a5,a5,-8
	.loc 1 214 152
	ld	a4,0(a5)
	.loc 1 214 237
	li	a5,1768316928
	addi	a5,a5,1896
	bne	a4,a5,.L26
	.loc 1 214 294 discriminator 1
	ld	a5,-32(s0)
	ld	a5,24(a5)
	.loc 1 214 18 discriminator 1
	addi	a5,a5,-8
	sd	a5,-40(s0)
	j	.L27
.L26:
	.loc 1 214 18 is_stmt 0 discriminator 2
	sd	zero,-40(s0)
.L27:
	.loc 1 215 42 is_stmt 1
	ld	a5,-40(s0)
	ld	a5,32(a5)
	mv	a0,a5
	call	AllocateZeroPool@plt
	mv	a4,a0
	.loc 1 215 23 discriminator 1
	ld	a5,-72(s0)
	sd	a4,0(a5)
	.loc 1 216 11
	ld	a5,-72(s0)
	ld	a5,0(a5)
	.loc 1 216 10
	bne	a5,zero,.L28
	.loc 1 217 16
	li	a5,-1
	slli	a5,a5,63
	addi	a5,a5,9
	j	.L29
.L28:
	.loc 1 220 7
	ld	a5,-72(s0)
	ld	a4,0(a5)
	.loc 1 220 43
	ld	a5,-40(s0)
	ld	a3,40(a5)
	.loc 1 220 7
	ld	a5,-40(s0)
	ld	a5,32(a5)
	mv	a2,a5
	mv	a1,a3
	mv	a0,a4
	call	CopyMem@plt
	.loc 1 221 14
	li	a5,0
	j	.L29
.L25:
	.loc 1 211 99 discriminator 2
	ld	a5,-24(s0)
	ld	a5,0(a5)
	sd	a5,-24(s0)
.L22:
	.loc 1 211 64 discriminator 1
	ld	a5,-56(s0)
	addi	a5,a5,40
	.loc 1 211 61 discriminator 1
	ld	a4,-24(s0)
	bne	a4,a5,.L30
	.loc 1 225 10
	li	a5,-1
	slli	a5,a5,63
	addi	a5,a5,14
.L29:
	.loc 1 226 1
	mv	a0,a5
	ld	ra,72(sp)
	.cfi_restore 1
	ld	s0,64(sp)
	.cfi_restore 8
	.cfi_def_cfa 2, 80
	addi	sp,sp,80
	.cfi_def_cfa_offset 0
	jr	ra
	.cfi_endproc
.LFE3:
	.size	GetStringFontInfo, .-GetStringFontInfo
	.section	.text.FindStringBlock,"ax",@progbits
	.align	1
	.globl	FindStringBlock
	.type	FindStringBlock, @function
FindStringBlock:
.LFB4:
	.loc 1 265 1
	.cfi_startproc
	addi	sp,sp,-208
	.cfi_def_cfa_offset 208
	sd	ra,200(sp)
	sd	s0,192(sp)
	.cfi_offset 1, -8
	.cfi_offset 8, -16
	addi	s0,sp,208
	.cfi_def_cfa 8, 0
	sd	a0,-152(s0)
	sd	a1,-160(s0)
	sd	a3,-176(s0)
	sd	a4,-184(s0)
	sd	a5,-192(s0)
	sd	a6,-200(s0)
	sd	a7,-208(s0)
	mv	a5,a2
	sh	a5,-162(s0)
	.loc 1 290 19
	li	a5,1
	sh	a5,-26(s0)
	.loc 1 291 14
	sd	zero,-128(s0)
	.loc 1 293 17
	lhu	a5,-162(s0)
	.loc 1 293 6
	sext.w	a4,a5
	li	a5,65536
	addi	a5,a5,-1
	beq	a4,a5,.L32
	.loc 1 293 54 discriminator 1
	lhu	a5,-162(s0)
	.loc 1 293 41 discriminator 1
	beq	a5,zero,.L32
	.loc 1 295 33
	ld	a5,-160(s0)
	lhu	a4,58(a5)
	.loc 1 295 18
	lhu	a5,-162(s0)
	.loc 1 295 8
	sext.w	a4,a4
	sext.w	a5,a5
	bgeu	a4,a5,.L35
	.loc 1 296 14
	li	a5,-1
	slli	a5,a5,63
	addi	a5,a5,14
	j	.L77
.L32:
	.loc 1 300 19
	lhu	a5,-162(s0)
	.loc 1 300 8
	bne	a5,zero,.L35
	.loc 1 300 25 discriminator 1
	ld	a5,-200(s0)
	beq	a5,zero,.L35
	.loc 1 301 36
	ld	a5,-160(s0)
	lhu	a4,58(a5)
	.loc 1 301 21
	ld	a5,-200(s0)
	sh	a4,0(a5)
	.loc 1 302 14
	li	a5,0
	j	.L77
.L35:
	.loc 1 306 3
	addi	a5,s0,-130
	li	a1,2
	mv	a0,a5
	call	ZeroMem@plt
	.loc 1 311 12
	ld	a5,-160(s0)
	ld	a5,16(a5)
	sd	a5,-24(s0)
	.loc 1 312 13
	sd	zero,-40(s0)
	.loc 1 313 10
	sd	zero,-64(s0)
	.loc 1 314 9
	j	.L36
.L75:
	.loc 1 315 13
	ld	a5,-24(s0)
	lbu	a5,0(a5)
	sext.w	a5,a5
	.loc 1 315 5
	li	a4,50
	beq	a5,a4,.L37
	li	a4,50
	bgt	a5,a4,.L78
	li	a4,49
	beq	a5,a4,.L39
	li	a4,49
	bgt	a5,a4,.L78
	li	a4,48
	beq	a5,a4,.L40
	li	a4,48
	bgt	a5,a4,.L78
	li	a4,34
	beq	a5,a4,.L41
	li	a4,34
	bgt	a5,a4,.L78
	li	a4,33
	beq	a5,a4,.L42
	li	a4,33
	bgt	a5,a4,.L78
	li	a4,32
	beq	a5,a4,.L43
	li	a4,32
	bgt	a5,a4,.L78
	li	a4,23
	beq	a5,a4,.L44
	li	a4,23
	bgt	a5,a4,.L78
	li	a4,22
	beq	a5,a4,.L45
	li	a4,22
	bgt	a5,a4,.L78
	li	a4,21
	beq	a5,a4,.L46
	li	a4,21
	bgt	a5,a4,.L78
	li	a4,20
	beq	a5,a4,.L47
	li	a4,20
	bgt	a5,a4,.L78
	li	a4,19
	beq	a5,a4,.L48
	li	a4,19
	bgt	a5,a4,.L78
	li	a4,18
	beq	a5,a4,.L49
	li	a4,18
	bgt	a5,a4,.L78
	li	a4,16
	beq	a5,a4,.L50
	li	a4,17
	beq	a5,a4,.L51
	.loc 1 550 9
	j	.L78
.L50:
	.loc 1 317 16
	li	a5,1
	sd	a5,-64(s0)
	.loc 1 318 23
	ld	a4,-24(s0)
	ld	a5,-64(s0)
	add	a5,a4,a5
	sd	a5,-56(s0)
	.loc 1 319 31
	ld	a0,-56(s0)
	call	AsciiStrSize@plt
	mv	a4,a0
	.loc 1 319 29 discriminator 1
	ld	a5,-64(s0)
	add	a5,a4,a5
	.loc 1 319 19 discriminator 1
	ld	a4,-40(s0)
	add	a5,a4,a5
	sd	a5,-40(s0)
	.loc 1 320 24
	lhu	a5,-26(s0)
	addiw	a5,a5,1
	sh	a5,-26(s0)
	.loc 1 321 9
	j	.L52
.L51:
	.loc 1 324 16
	li	a5,2
	sd	a5,-64(s0)
	.loc 1 325 23
	ld	a4,-24(s0)
	ld	a5,-64(s0)
	add	a5,a4,a5
	sd	a5,-56(s0)
	.loc 1 326 31
	ld	a0,-56(s0)
	call	AsciiStrSize@plt
	mv	a4,a0
	.loc 1 326 29 discriminator 1
	ld	a5,-64(s0)
	add	a5,a4,a5
	.loc 1 326 19 discriminator 1
	ld	a4,-40(s0)
	add	a5,a4,a5
	sd	a5,-40(s0)
	.loc 1 327 24
	lhu	a5,-26(s0)
	addiw	a5,a5,1
	sh	a5,-26(s0)
	.loc 1 328 9
	j	.L52
.L49:
	.loc 1 331 41
	ld	a5,-24(s0)
	addi	a4,a5,1
	.loc 1 331 9
	addi	a5,s0,-98
	li	a2,2
	mv	a1,a4
	mv	a0,a5
	call	CopyMem@plt
	.loc 1 332 35
	ld	a5,-24(s0)
	.loc 1 332 94
	addi	a5,a5,3
	.loc 1 332 23
	sd	a5,-56(s0)
	.loc 1 333 36
	ld	a4,-56(s0)
	ld	a5,-24(s0)
	sub	a5,a4,a5
	mv	a4,a5
	.loc 1 333 19
	ld	a5,-40(s0)
	add	a5,a5,a4
	sd	a5,-40(s0)
	.loc 1 335 20
	sd	zero,-48(s0)
	.loc 1 335 9
	j	.L53
.L55:
	.loc 1 336 24
	ld	a0,-56(s0)
	call	AsciiStrSize@plt
	mv	a4,a0
	.loc 1 336 21 discriminator 1
	ld	a5,-40(s0)
	add	a5,a5,a4
	sd	a5,-40(s0)
	.loc 1 337 31
	lhu	a5,-162(s0)
	.loc 1 337 14
	lhu	a4,-26(s0)
	sext.w	a4,a4
	sext.w	a5,a5
	bne	a4,a5,.L54
	.loc 1 339 26
	ld	a5,-24(s0)
	lbu	a4,0(a5)
	.loc 1 339 24
	ld	a5,-176(s0)
	sb	a4,0(a5)
	.loc 1 340 30
	ld	a5,-184(s0)
	ld	a4,-24(s0)
	sd	a4,0(a5)
	.loc 1 341 47
	ld	a4,-56(s0)
	ld	a5,-24(s0)
	sub	a5,a4,a5
	mv	a4,a5
	.loc 1 341 31
	ld	a5,-192(s0)
	sd	a4,0(a5)
	.loc 1 342 20
	li	a5,0
	j	.L77
.L54:
	.loc 1 345 43
	ld	a0,-56(s0)
	call	AsciiStrSize@plt
	mv	a4,a0
	.loc 1 345 25 discriminator 1
	ld	a5,-56(s0)
	add	a5,a5,a4
	sd	a5,-56(s0)
	.loc 1 346 26
	lhu	a5,-26(s0)
	addiw	a5,a5,1
	sh	a5,-26(s0)
	.loc 1 335 51 discriminator 2
	ld	a5,-48(s0)
	addi	a5,a5,1
	sd	a5,-48(s0)
.L53:
	.loc 1 335 31 discriminator 1
	lhu	a5,-98(s0)
	mv	a4,a5
	ld	a5,-48(s0)
	bltu	a5,a4,.L55
	.loc 1 349 9
	j	.L52
.L48:
	.loc 1 354 21
	ld	a5,-24(s0)
	.loc 1 354 69
	addi	a5,a5,2
	.loc 1 352 9
	mv	a4,a5
	addi	a5,s0,-98
	li	a2,2
	mv	a1,a4
	mv	a0,a5
	call	CopyMem@plt
	.loc 1 357 35
	ld	a5,-24(s0)
	.loc 1 357 99
	addi	a5,a5,4
	.loc 1 357 23
	sd	a5,-56(s0)
	.loc 1 358 36
	ld	a4,-56(s0)
	ld	a5,-24(s0)
	sub	a5,a4,a5
	mv	a4,a5
	.loc 1 358 19
	ld	a5,-40(s0)
	add	a5,a5,a4
	sd	a5,-40(s0)
	.loc 1 360 20
	sd	zero,-48(s0)
	.loc 1 360 9
	j	.L56
.L58:
	.loc 1 361 24
	ld	a0,-56(s0)
	call	AsciiStrSize@plt
	mv	a4,a0
	.loc 1 361 21 discriminator 1
	ld	a5,-40(s0)
	add	a5,a5,a4
	sd	a5,-40(s0)
	.loc 1 362 31
	lhu	a5,-162(s0)
	.loc 1 362 14
	lhu	a4,-26(s0)
	sext.w	a4,a4
	sext.w	a5,a5
	bne	a4,a5,.L57
	.loc 1 364 26
	ld	a5,-24(s0)
	lbu	a4,0(a5)
	.loc 1 364 24
	ld	a5,-176(s0)
	sb	a4,0(a5)
	.loc 1 365 30
	ld	a5,-184(s0)
	ld	a4,-24(s0)
	sd	a4,0(a5)
	.loc 1 366 47
	ld	a4,-56(s0)
	ld	a5,-24(s0)
	sub	a5,a4,a5
	mv	a4,a5
	.loc 1 366 31
	ld	a5,-192(s0)
	sd	a4,0(a5)
	.loc 1 367 20
	li	a5,0
	j	.L77
.L57:
	.loc 1 370 43
	ld	a0,-56(s0)
	call	AsciiStrSize@plt
	mv	a4,a0
	.loc 1 370 25 discriminator 1
	ld	a5,-56(s0)
	add	a5,a5,a4
	sd	a5,-56(s0)
	.loc 1 371 26
	lhu	a5,-26(s0)
	addiw	a5,a5,1
	sh	a5,-26(s0)
	.loc 1 360 51 discriminator 2
	ld	a5,-48(s0)
	addi	a5,a5,1
	sd	a5,-48(s0)
.L56:
	.loc 1 360 31 discriminator 1
	lhu	a5,-98(s0)
	mv	a4,a5
	ld	a5,-48(s0)
	bltu	a5,a4,.L58
	.loc 1 374 9
	j	.L52
.L47:
	.loc 1 377 16
	li	a5,1
	sd	a5,-64(s0)
	.loc 1 378 23
	ld	a4,-24(s0)
	ld	a5,-64(s0)
	add	a5,a4,a5
	sd	a5,-56(s0)
	.loc 1 383 9
	addi	a5,s0,-128
	mv	a2,a5
	ld	a1,-56(s0)
	li	a0,0
	call	GetUnicodeStringTextOrSize
	.loc 1 384 29
	ld	a4,-128(s0)
	ld	a5,-64(s0)
	add	a5,a4,a5
	.loc 1 384 19
	ld	a4,-40(s0)
	add	a5,a4,a5
	sd	a5,-40(s0)
	.loc 1 385 24
	lhu	a5,-26(s0)
	addiw	a5,a5,1
	sh	a5,-26(s0)
	.loc 1 386 9
	j	.L52
.L46:
	.loc 1 389 16
	li	a5,2
	sd	a5,-64(s0)
	.loc 1 390 23
	ld	a4,-24(s0)
	ld	a5,-64(s0)
	add	a5,a4,a5
	sd	a5,-56(s0)
	.loc 1 395 9
	addi	a5,s0,-128
	mv	a2,a5
	ld	a1,-56(s0)
	li	a0,0
	call	GetUnicodeStringTextOrSize
	.loc 1 396 29
	ld	a4,-128(s0)
	ld	a5,-64(s0)
	add	a5,a4,a5
	.loc 1 396 19
	ld	a4,-40(s0)
	add	a5,a4,a5
	sd	a5,-40(s0)
	.loc 1 397 24
	lhu	a5,-26(s0)
	addiw	a5,a5,1
	sh	a5,-26(s0)
	.loc 1 398 9
	j	.L52
.L45:
	.loc 1 401 16
	li	a5,3
	sd	a5,-64(s0)
	.loc 1 402 23
	ld	a4,-24(s0)
	ld	a5,-64(s0)
	add	a5,a4,a5
	sd	a5,-56(s0)
	.loc 1 403 19
	ld	a4,-40(s0)
	ld	a5,-64(s0)
	add	a5,a4,a5
	sd	a5,-40(s0)
	.loc 1 404 41
	ld	a5,-24(s0)
	addi	a4,a5,1
	.loc 1 404 9
	addi	a5,s0,-98
	li	a2,2
	mv	a1,a4
	mv	a0,a5
	call	CopyMem@plt
	.loc 1 405 20
	sd	zero,-48(s0)
	.loc 1 405 9
	j	.L59
.L61:
	.loc 1 406 11
	addi	a5,s0,-128
	mv	a2,a5
	ld	a1,-56(s0)
	li	a0,0
	call	GetUnicodeStringTextOrSize
	.loc 1 407 21
	ld	a5,-128(s0)
	ld	a4,-40(s0)
	add	a5,a4,a5
	sd	a5,-40(s0)
	.loc 1 408 31
	lhu	a5,-162(s0)
	.loc 1 408 14
	lhu	a4,-26(s0)
	sext.w	a4,a4
	sext.w	a5,a5
	bne	a4,a5,.L60
	.loc 1 410 26
	ld	a5,-24(s0)
	lbu	a4,0(a5)
	.loc 1 410 24
	ld	a5,-176(s0)
	sb	a4,0(a5)
	.loc 1 411 30
	ld	a5,-184(s0)
	ld	a4,-24(s0)
	sd	a4,0(a5)
	.loc 1 412 47
	ld	a4,-56(s0)
	ld	a5,-24(s0)
	sub	a5,a4,a5
	mv	a4,a5
	.loc 1 412 31
	ld	a5,-192(s0)
	sd	a4,0(a5)
	.loc 1 413 20
	li	a5,0
	j	.L77
.L60:
	.loc 1 416 41
	ld	a5,-128(s0)
	.loc 1 416 25
	ld	a4,-56(s0)
	add	a5,a4,a5
	sd	a5,-56(s0)
	.loc 1 417 26
	lhu	a5,-26(s0)
	addiw	a5,a5,1
	sh	a5,-26(s0)
	.loc 1 405 51 discriminator 2
	ld	a5,-48(s0)
	addi	a5,a5,1
	sd	a5,-48(s0)
.L59:
	.loc 1 405 31 discriminator 1
	lhu	a5,-98(s0)
	mv	a4,a5
	ld	a5,-48(s0)
	bltu	a5,a4,.L61
	.loc 1 420 9
	j	.L52
.L44:
	.loc 1 423 16
	li	a5,4
	sd	a5,-64(s0)
	.loc 1 424 23
	ld	a4,-24(s0)
	ld	a5,-64(s0)
	add	a5,a4,a5
	sd	a5,-56(s0)
	.loc 1 425 19
	ld	a4,-40(s0)
	ld	a5,-64(s0)
	add	a5,a4,a5
	sd	a5,-40(s0)
	.loc 1 428 21
	ld	a5,-24(s0)
	.loc 1 428 69
	addi	a5,a5,2
	.loc 1 426 9
	mv	a4,a5
	addi	a5,s0,-98
	li	a2,2
	mv	a1,a4
	mv	a0,a5
	call	CopyMem@plt
	.loc 1 431 20
	sd	zero,-48(s0)
	.loc 1 431 9
	j	.L62
.L64:
	.loc 1 432 11
	addi	a5,s0,-128
	mv	a2,a5
	ld	a1,-56(s0)
	li	a0,0
	call	GetUnicodeStringTextOrSize
	.loc 1 433 21
	ld	a5,-128(s0)
	ld	a4,-40(s0)
	add	a5,a4,a5
	sd	a5,-40(s0)
	.loc 1 434 31
	lhu	a5,-162(s0)
	.loc 1 434 14
	lhu	a4,-26(s0)
	sext.w	a4,a4
	sext.w	a5,a5
	bne	a4,a5,.L63
	.loc 1 436 26
	ld	a5,-24(s0)
	lbu	a4,0(a5)
	.loc 1 436 24
	ld	a5,-176(s0)
	sb	a4,0(a5)
	.loc 1 437 30
	ld	a5,-184(s0)
	ld	a4,-24(s0)
	sd	a4,0(a5)
	.loc 1 438 47
	ld	a4,-56(s0)
	ld	a5,-24(s0)
	sub	a5,a4,a5
	mv	a4,a5
	.loc 1 438 31
	ld	a5,-192(s0)
	sd	a4,0(a5)
	.loc 1 439 20
	li	a5,0
	j	.L77
.L63:
	.loc 1 442 41
	ld	a5,-128(s0)
	.loc 1 442 25
	ld	a4,-56(s0)
	add	a5,a4,a5
	sd	a5,-56(s0)
	.loc 1 443 26
	lhu	a5,-26(s0)
	addiw	a5,a5,1
	sh	a5,-26(s0)
	.loc 1 431 51 discriminator 2
	ld	a5,-48(s0)
	addi	a5,a5,1
	sd	a5,-48(s0)
.L62:
	.loc 1 431 31 discriminator 1
	lhu	a5,-98(s0)
	mv	a4,a5
	ld	a5,-48(s0)
	bltu	a5,a4,.L64
	.loc 1 446 9
	j	.L52
.L43:
	.loc 1 449 29
	lhu	a5,-162(s0)
	.loc 1 449 12
	lhu	a4,-26(s0)
	sext.w	a4,a4
	sext.w	a5,a5
	bne	a4,a5,.L65
	.loc 1 457 22
	ld	a5,-24(s0)
	addi	a4,a5,1
	.loc 1 455 11
	addi	a5,s0,-162
	li	a2,2
	mv	a1,a4
	mv	a0,a5
	call	CopyMem@plt
	.loc 1 461 27
	li	a5,1
	sh	a5,-26(s0)
	.loc 1 462 21
	sd	zero,-40(s0)
	.loc 1 468 9
	j	.L52
.L65:
	.loc 1 464 21
	ld	a5,-40(s0)
	addi	a5,a5,3
	sd	a5,-40(s0)
	.loc 1 465 26
	lhu	a5,-26(s0)
	addiw	a5,a5,1
	sh	a5,-26(s0)
	.loc 1 468 9
	j	.L52
.L41:
	.loc 1 471 41
	ld	a5,-24(s0)
	.loc 1 471 57
	addi	a5,a5,1
	.loc 1 471 30
	lbu	a5,0(a5)
	.loc 1 471 19
	sh	a5,-100(s0)
	.loc 1 472 27
	lhu	a5,-100(s0)
	.loc 1 472 25
	lhu	a4,-26(s0)
	addw	a5,a4,a5
	sh	a5,-26(s0)
	.loc 1 473 19
	ld	a5,-40(s0)
	addi	a5,a5,2
	sd	a5,-40(s0)
	.loc 1 474 9
	j	.L52
.L42:
	.loc 1 477 39
	ld	a5,-24(s0)
	addi	a4,a5,1
	.loc 1 477 9
	addi	a5,s0,-100
	li	a2,2
	mv	a1,a4
	mv	a0,a5
	call	CopyMem@plt
	.loc 1 478 27
	lhu	a5,-100(s0)
	.loc 1 478 25
	lhu	a4,-26(s0)
	addw	a5,a4,a5
	sh	a5,-26(s0)
	.loc 1 479 19
	ld	a5,-40(s0)
	addi	a5,a5,3
	sd	a5,-40(s0)
	.loc 1 480 9
	j	.L52
.L40:
	.loc 1 485 21
	ld	a5,-24(s0)
	.loc 1 485 69
	addi	a5,a5,2
	.loc 1 483 9
	mv	a4,a5
	addi	a5,s0,-107
	li	a2,1
	mv	a1,a4
	mv	a0,a5
	call	CopyMem@plt
	.loc 1 488 19
	lbu	a5,-107(s0)
	mv	a4,a5
	ld	a5,-40(s0)
	add	a5,a5,a4
	sd	a5,-40(s0)
	.loc 1 489 9
	j	.L52
.L39:
	.loc 1 492 9
	addi	a5,s0,-112
	li	a2,4
	ld	a1,-24(s0)
	mv	a0,a5
	call	CopyMem@plt
	.loc 1 493 18
	lbu	a5,-111(s0)
	.loc 1 493 12
	mv	a4,a5
	li	a5,64
	bne	a4,a5,.L67
	.loc 1 493 52 discriminator 1
	lhu	a5,-162(s0)
	.loc 1 493 39 discriminator 1
	sext.w	a4,a5
	li	a5,65536
	addi	a5,a5,-1
	bne	a4,a5,.L67
	.loc 1 498 20
	ld	a5,-24(s0)
	addi	a5,a5,4
	sd	a5,-24(s0)
	.loc 1 499 11
	addi	a5,s0,-113
	li	a2,1
	ld	a1,-24(s0)
	mv	a0,a5
	call	CopyMem@plt
	.loc 1 500 19
	ld	a5,-24(s0)
	addi	a5,a5,1
	sd	a5,-24(s0)
	.loc 1 501 11
	addi	a5,s0,-106
	li	a2,2
	ld	a1,-24(s0)
	mv	a0,a5
	call	CopyMem@plt
	.loc 1 502 20
	ld	a5,-24(s0)
	addi	a5,a5,2
	sd	a5,-24(s0)
	.loc 1 503 11
	addi	a5,s0,-104
	li	a2,4
	ld	a1,-24(s0)
	mv	a0,a5
	call	CopyMem@plt
	.loc 1 504 20
	ld	a5,-24(s0)
	addi	a5,a5,4
	sd	a5,-24(s0)
	.loc 1 505 11
	addi	a5,s0,-128
	mv	a2,a5
	ld	a1,-24(s0)
	li	a0,0
	call	GetUnicodeStringTextOrSize
	.loc 1 507 67
	ld	a5,-128(s0)
	.loc 1 507 24
	addi	a5,a5,6
	sd	a5,-72(s0)
	.loc 1 508 39
	ld	a0,-72(s0)
	call	AllocateZeroPool@plt
	sd	a0,-80(s0)
	.loc 1 509 14
	ld	a5,-80(s0)
	bne	a5,zero,.L68
	.loc 1 510 20
	li	a5,-1
	slli	a5,a5,63
	addi	a5,a5,9
	j	.L77
.L68:
	.loc 1 513 31
	lw	a4,-104(s0)
	ld	a5,-80(s0)
	sw	a4,0(a5)
	.loc 1 514 30
	lhu	a4,-106(s0)
	ld	a5,-80(s0)
	sh	a4,4(a5)
	.loc 1 515 28
	ld	a5,-80(s0)
	addi	a5,a5,6
	.loc 1 515 11
	ld	a4,-128(s0)
	mv	a2,a4
	ld	a1,-24(s0)
	mv	a0,a5
	call	CopyMem@plt
	.loc 1 521 15
	addi	a5,s0,-96
	mv	a4,a5
	li	a3,0
	li	a2,0
	ld	a1,-80(s0)
	ld	a0,-152(s0)
	call	IsFontInfoExisted@plt
	mv	a5,a0
	.loc 1 521 14 discriminator 1
	beq	a5,zero,.L69
	.loc 1 522 13
	lbu	a2,-113(s0)
	ld	a4,-96(s0)
	addi	a5,s0,-88
	li	a3,1
	ld	a1,-160(s0)
	ld	a0,-152(s0)
	call	ReferFontInfoLocally
.L69:
	.loc 1 530 24
	ld	a5,-160(s0)
	lbu	a5,56(a5)
	.loc 1 530 32
	addiw	a5,a5,1
	andi	a4,a5,0xff
	ld	a5,-160(s0)
	sb	a4,56(a5)
	.loc 1 532 11
	ld	a0,-80(s0)
	call	FreePool@plt
.L67:
	.loc 1 535 26
	lhu	a5,-110(s0)
	mv	a4,a5
	.loc 1 535 19
	ld	a5,-40(s0)
	add	a5,a5,a4
	sd	a5,-40(s0)
	.loc 1 537 9
	j	.L52
.L37:
	.loc 1 542 21
	ld	a5,-24(s0)
	.loc 1 542 69
	addi	a5,a5,2
	.loc 1 540 9
	mv	a4,a5
	addi	a5,s0,-120
	li	a2,4
	mv	a1,a4
	mv	a0,a5
	call	CopyMem@plt
	.loc 1 546 19
	lw	a5,-120(s0)
	slli	a5,a5,32
	srli	a5,a5,32
	ld	a4,-40(s0)
	add	a5,a4,a5
	sd	a5,-40(s0)
	.loc 1 547 9
	j	.L52
.L78:
	.loc 1 550 9
	nop
.L52:
	.loc 1 553 19
	lhu	a5,-162(s0)
	.loc 1 553 8
	beq	a5,zero,.L70
	.loc 1 553 37 discriminator 1
	lhu	a5,-162(s0)
	.loc 1 553 24 discriminator 1
	sext.w	a4,a5
	li	a5,65536
	addi	a5,a5,-1
	beq	a4,a5,.L70
	.loc 1 555 20
	ld	a5,-24(s0)
	lbu	a4,0(a5)
	.loc 1 555 18
	ld	a5,-176(s0)
	sb	a4,0(a5)
	.loc 1 556 24
	ld	a5,-184(s0)
	ld	a4,-24(s0)
	sd	a4,0(a5)
	.loc 1 557 25
	ld	a5,-192(s0)
	ld	a4,-64(s0)
	sd	a4,0(a5)
	.loc 1 559 20
	lhu	a5,-162(s0)
	sext.w	a4,a5
	.loc 1 559 39
	lhu	a5,-26(s0)
	sext.w	a5,a5
	addiw	a5,a5,-1
	sext.w	a5,a5
	.loc 1 559 10
	bne	a4,a5,.L71
	.loc 1 563 14
	ld	a5,-176(s0)
	lbu	a5,0(a5)
	.loc 1 563 12
	mv	a4,a5
	li	a5,33
	beq	a4,a5,.L72
	.loc 1 563 38 discriminator 1
	ld	a5,-176(s0)
	lbu	a5,0(a5)
	.loc 1 563 34 discriminator 1
	mv	a4,a5
	li	a5,34
	bne	a4,a5,.L73
.L72:
	.loc 1 564 18
	li	a5,-1
	slli	a5,a5,63
	addi	a5,a5,14
	j	.L77
.L73:
	.loc 1 566 18
	li	a5,0
	j	.L77
.L71:
	.loc 1 570 20
	lhu	a5,-162(s0)
	sext.w	a4,a5
	.loc 1 570 38
	lhu	a5,-26(s0)
	sext.w	a5,a5
	addiw	a5,a5,-1
	sext.w	a5,a5
	.loc 1 570 10
	bge	a4,a5,.L70
	.loc 1 571 16
	li	a5,-1
	slli	a5,a5,63
	addi	a5,a5,14
	j	.L77
.L70:
	.loc 1 575 29
	ld	a5,-160(s0)
	ld	a4,16(a5)
	.loc 1 575 14
	ld	a5,-40(s0)
	add	a5,a4,a5
	sd	a5,-24(s0)
	.loc 1 576 8
	ld	a5,-208(s0)
	beq	a5,zero,.L36
	.loc 1 577 22
	ld	a5,-208(s0)
	lhu	a4,-26(s0)
	sh	a4,0(a5)
.L36:
	.loc 1 314 10
	ld	a5,-24(s0)
	lbu	a5,0(a5)
	.loc 1 314 20
	bne	a5,zero,.L75
	.loc 1 584 17
	lhu	a5,-162(s0)
	.loc 1 584 6
	sext.w	a4,a5
	li	a5,65536
	addi	a5,a5,-1
	bne	a4,a5,.L76
	.loc 1 584 41 discriminator 1
	ld	a5,-200(s0)
	beq	a5,zero,.L76
	.loc 1 585 21
	lhu	a5,-26(s0)
	addiw	a5,a5,-1
	slli	a4,a5,48
	srli	a4,a4,48
	.loc 1 585 19
	ld	a5,-200(s0)
	sh	a4,0(a5)
	.loc 1 586 12
	li	a5,0
	j	.L77
.L76:
	.loc 1 589 10
	li	a5,-1
	slli	a5,a5,63
	addi	a5,a5,14
.L77:
	.loc 1 590 1
	mv	a0,a5
	ld	ra,200(sp)
	.cfi_restore 1
	ld	s0,192(sp)
	.cfi_restore 8
	.cfi_def_cfa 2, 208
	addi	sp,sp,208
	.cfi_def_cfa_offset 0
	jr	ra
	.cfi_endproc
.LFE4:
	.size	FindStringBlock, .-FindStringBlock
	.section	.text.GetStringWorker,"ax",@progbits
	.align	1
	.globl	GetStringWorker
	.type	GetStringWorker, @function
GetStringWorker:
.LFB5:
	.loc 1 626 1
	.cfi_startproc
	addi	sp,sp,-112
	.cfi_def_cfa_offset 112
	sd	ra,104(sp)
	sd	s0,96(sp)
	.cfi_offset 1, -8
	.cfi_offset 8, -16
	addi	s0,sp,112
	.cfi_def_cfa 8, 0
	sd	a0,-72(s0)
	sd	a1,-80(s0)
	sd	a3,-96(s0)
	sd	a4,-104(s0)
	sd	a5,-112(s0)
	mv	a5,a2
	sh	a5,-82(s0)
	.loc 1 640 12
	addi	a5,s0,-64
	addi	a4,s0,-56
	addi	a3,s0,-41
	lhu	a2,-82(s0)
	li	a7,0
	li	a6,0
	ld	a1,-80(s0)
	ld	a0,-72(s0)
	call	FindStringBlock
	sd	a0,-24(s0)
	.loc 1 650 34
	ld	a5,-24(s0)
	.loc 1 650 6
	bge	a5,zero,.L80
	.loc 1 651 12
	ld	a5,-24(s0)
	j	.L93
.L80:
	.loc 1 654 6
	ld	a5,-104(s0)
	bne	a5,zero,.L82
	.loc 1 658 12
	li	a5,0
	j	.L93
.L82:
	.loc 1 664 35
	ld	a4,-56(s0)
	ld	a5,-64(s0)
	.loc 1 664 17
	add	a5,a4,a5
	sd	a5,-40(s0)
	.loc 1 665 3
	lbu	a5,-41(s0)
	sext.w	a5,a5
	li	a4,19
	bgt	a5,a4,.L83
	li	a4,16
	bge	a5,a4,.L84
	j	.L85
.L83:
	addiw	a5,a5,-20
	sext.w	a4,a5
	li	a5,3
	bgtu	a4,a5,.L85
	j	.L94
.L84:
	.loc 1 670 16
	ld	a2,-104(s0)
	ld	a1,-40(s0)
	ld	a0,-96(s0)
	call	ConvertToUnicodeText
	sd	a0,-24(s0)
	.loc 1 671 7
	j	.L87
.L94:
	.loc 1 676 16
	ld	a2,-104(s0)
	ld	a1,-40(s0)
	ld	a0,-96(s0)
	call	GetUnicodeStringTextOrSize
	sd	a0,-24(s0)
	.loc 1 677 7
	j	.L87
.L85:
	.loc 1 679 14
	li	a5,-1
	slli	a5,a5,63
	addi	a5,a5,14
	j	.L93
.L87:
	.loc 1 682 34
	ld	a5,-24(s0)
	.loc 1 682 6
	bge	a5,zero,.L88
	.loc 1 683 12
	ld	a5,-24(s0)
	j	.L93
.L88:
	.loc 1 690 6
	ld	a5,-112(s0)
	beq	a5,zero,.L89
	.loc 1 691 5
	lbu	a5,-41(s0)
	sext.w	a5,a5
	li	a4,23
	beq	a5,a4,.L90
	li	a4,23
	bgt	a5,a4,.L91
	li	a4,21
	beq	a5,a4,.L90
	li	a4,21
	bgt	a5,a4,.L91
	li	a4,17
	beq	a5,a4,.L90
	li	a4,19
	bne	a5,a4,.L91
.L90:
	.loc 1 696 16
	ld	a5,-56(s0)
	lbu	a5,1(a5)
	sb	a5,-25(s0)
	.loc 1 697 9
	j	.L92
.L91:
	.loc 1 699 16
	sb	zero,-25(s0)
.L92:
	.loc 1 702 14
	lbu	a5,-25(s0)
	ld	a2,-112(s0)
	mv	a1,a5
	ld	a0,-80(s0)
	call	GetStringFontInfo
	sd	a0,-24(s0)
	.loc 1 703 8
	ld	a4,-24(s0)
	li	a5,-1
	slli	a5,a5,63
	addi	a5,a5,14
	bne	a4,a5,.L89
	.loc 1 704 23
	ld	a5,-112(s0)
	sd	zero,0(a5)
.L89:
	.loc 1 708 10
	li	a5,0
.L93:
	.loc 1 709 1
	mv	a0,a5
	ld	ra,104(sp)
	.cfi_restore 1
	ld	s0,96(sp)
	.cfi_restore 8
	.cfi_def_cfa 2, 112
	addi	sp,sp,112
	.cfi_def_cfa_offset 0
	jr	ra
	.cfi_endproc
.LFE5:
	.size	GetStringWorker, .-GetStringWorker
	.section	.text.InsertLackStringBlock,"ax",@progbits
	.align	1
	.globl	InsertLackStringBlock
	.type	InsertLackStringBlock, @function
InsertLackStringBlock:
.LFB6:
	.loc 1 739 1
	.cfi_startproc
	addi	sp,sp,-112
	.cfi_def_cfa_offset 112
	sd	ra,104(sp)
	sd	s0,96(sp)
	.cfi_offset 1, -8
	.cfi_offset 8, -16
	addi	s0,sp,112
	.cfi_def_cfa 8, 0
	sd	a0,-88(s0)
	sd	a3,-104(s0)
	sd	a4,-112(s0)
	mv	a4,a5
	mv	a5,a1
	sh	a5,-90(s0)
	mv	a5,a2
	sh	a5,-92(s0)
	mv	a5,a4
	sb	a5,-93(s0)
	.loc 1 750 16
	sw	zero,-36(s0)
	.loc 1 751 11
	sw	zero,-28(s0)
	.loc 1 752 17
	ld	a5,-112(s0)
	ld	a5,0(a5)
	sd	a5,-56(s0)
	.loc 1 758 7
	ld	a5,-104(s0)
	lbu	a5,0(a5)
	.loc 1 758 6
	mv	a4,a5
	li	a5,34
	bne	a4,a5,.L96
	.loc 1 759 13
	li	a5,2
	sw	a5,-28(s0)
	.loc 1 760 16
	ld	a5,-56(s0)
	addi	a5,a5,1
	.loc 1 760 15
	lbu	a5,0(a5)
	.loc 1 760 13
	sw	a5,-44(s0)
	j	.L97
.L96:
	.loc 1 762 13
	li	a5,3
	sw	a5,-28(s0)
	.loc 1 763 41
	ld	a5,-56(s0)
	addi	a5,a5,1
	.loc 1 763 15
	lhu	a5,0(a5)
	.loc 1 763 13
	sw	a5,-44(s0)
.L97:
	.loc 1 769 6
	lbu	a5,-93(s0)
	andi	a5,a5,0xff
	beq	a5,zero,.L98
	.loc 1 770 20
	li	a5,4
	sw	a5,-40(s0)
	j	.L99
.L98:
	.loc 1 772 20
	li	a5,3
	sw	a5,-40(s0)
.L99:
	.loc 1 775 31
	ld	a5,-88(s0)
	ld	a5,8(a5)
	.loc 1 775 53
	lbu	a4,0(a5)
	lbu	a3,1(a5)
	slli	a3,a3,8
	or	a4,a3,a4
	lbu	a5,2(a5)
	slli	a5,a5,16
	or	a5,a5,a4
	sext.w	a5,a5
	mv	a2,a5
	.loc 1 775 76
	ld	a5,-88(s0)
	ld	a5,8(a5)
	.loc 1 775 90
	lbu	a4,4(a5)
	lbu	a3,5(a5)
	slli	a3,a3,8
	or	a4,a3,a4
	lbu	a3,6(a5)
	slli	a3,a3,16
	or	a4,a3,a4
	lbu	a5,7(a5)
	slli	a5,a5,24
	or	a5,a5,a4
	sext.w	a5,a5
	.loc 1 775 16
	subw	a5,a2,a5
	sw	a5,-60(s0)
	.loc 1 777 6
	lhu	a4,-90(s0)
	lhu	a5,-92(s0)
	sext.w	a4,a4
	sext.w	a5,a5
	bne	a4,a5,.L100
	.loc 1 781 8
	lw	a5,-44(s0)
	sext.w	a4,a5
	li	a5,1
	bleu	a4,a5,.L101
	.loc 1 782 20
	lw	a5,-60(s0)
	mv	a4,a5
	lw	a5,-40(s0)
	addw	a5,a4,a5
	sw	a5,-32(s0)
	j	.L102
.L101:
	.loc 1 784 35
	lw	a5,-60(s0)
	mv	a4,a5
	lw	a5,-40(s0)
	addw	a5,a4,a5
	sext.w	a5,a5
	.loc 1 784 20
	lw	a4,-28(s0)
	subw	a5,a5,a4
	sw	a5,-32(s0)
	j	.L102
.L100:
	.loc 1 786 28
	lhu	a5,-90(s0)
	sext.w	a5,a5
	lw	a4,-44(s0)
	addw	a5,a4,a5
	sext.w	a5,a5
	.loc 1 786 38
	addiw	a5,a5,-1
	sext.w	a4,a5
	.loc 1 786 42
	lhu	a5,-92(s0)
	sext.w	a5,a5
	.loc 1 786 13
	bne	a4,a5,.L103
	.loc 1 790 18
	lw	a5,-60(s0)
	mv	a4,a5
	lw	a5,-40(s0)
	addw	a5,a4,a5
	sw	a5,-32(s0)
	.loc 1 791 29
	lhu	a5,-92(s0)
	sext.w	a4,a5
	lhu	a5,-90(s0)
	sext.w	a5,a5
	subw	a5,a4,a5
	sext.w	a5,a5
	.loc 1 791 18
	sw	a5,-36(s0)
	j	.L102
.L103:
	.loc 1 796 33
	lw	a5,-60(s0)
	mv	a4,a5
	lw	a5,-40(s0)
	addw	a5,a4,a5
	sext.w	a5,a5
	.loc 1 796 18
	lw	a4,-28(s0)
	addw	a5,a4,a5
	sw	a5,-32(s0)
	.loc 1 797 29
	lhu	a5,-92(s0)
	sext.w	a4,a5
	lhu	a5,-90(s0)
	sext.w	a5,a5
	subw	a5,a4,a5
	sext.w	a5,a5
	.loc 1 797 18
	sw	a5,-36(s0)
.L102:
	.loc 1 800 26
	lwu	a5,-32(s0)
	mv	a0,a5
	call	AllocateZeroPool@plt
	sd	a0,-72(s0)
	.loc 1 801 6
	ld	a5,-72(s0)
	bne	a5,zero,.L104
	.loc 1 802 12
	li	a5,-1
	slli	a5,a5,63
	addi	a5,a5,9
	j	.L105
.L104:
	.loc 1 808 38
	ld	a5,-88(s0)
	ld	a3,16(a5)
	.loc 1 808 82
	ld	a5,-88(s0)
	ld	a5,16(a5)
	.loc 1 808 67
	ld	a4,-56(s0)
	sub	a5,a4,a5
	.loc 1 808 3
	mv	a2,a5
	mv	a1,a3
	ld	a0,-72(s0)
	call	CopyMem@plt
	.loc 1 809 58
	ld	a5,-88(s0)
	ld	a5,16(a5)
	.loc 1 809 43
	ld	a4,-56(s0)
	sub	a5,a4,a5
	mv	a4,a5
	.loc 1 809 12
	ld	a5,-72(s0)
	add	a5,a5,a4
	sd	a5,-24(s0)
	.loc 1 811 6
	lw	a5,-36(s0)
	sext.w	a5,a5
	beq	a5,zero,.L106
	.loc 1 812 17
	ld	a5,-104(s0)
	lbu	a4,0(a5)
	.loc 1 812 15
	ld	a5,-24(s0)
	sb	a4,0(a5)
	.loc 1 813 9
	ld	a5,-104(s0)
	lbu	a5,0(a5)
	.loc 1 813 8
	mv	a4,a5
	li	a5,34
	bne	a4,a5,.L107
	.loc 1 814 18
	ld	a5,-24(s0)
	addi	a5,a5,1
	.loc 1 814 53
	lw	a4,-36(s0)
	andi	a4,a4,0xff
	.loc 1 814 51
	sb	a4,0(a5)
	j	.L108
.L107:
	.loc 1 816 28
	ld	a5,-24(s0)
	addi	a5,a5,1
	.loc 1 816 63
	lw	a4,-36(s0)
	slli	a4,a4,48
	srli	a4,a4,48
	.loc 1 816 61
	sh	a4,0(a5)
.L108:
	.loc 1 819 14
	lwu	a5,-28(s0)
	ld	a4,-24(s0)
	add	a5,a4,a5
	sd	a5,-24(s0)
.L106:
	.loc 1 825 20
	ld	a5,-112(s0)
	ld	a4,-24(s0)
	sd	a4,0(a5)
	.loc 1 826 6
	lbu	a5,-93(s0)
	andi	a5,a5,0xff
	beq	a5,zero,.L109
	.loc 1 827 15
	ld	a5,-24(s0)
	li	a4,21
	sb	a4,0(a5)
	j	.L110
.L109:
	.loc 1 829 15
	ld	a5,-24(s0)
	li	a4,20
	sb	a4,0(a5)
.L110:
	.loc 1 832 12
	lwu	a5,-40(s0)
	ld	a4,-24(s0)
	add	a5,a4,a5
	sd	a5,-24(s0)
	.loc 1 834 30
	lw	a5,-36(s0)
	addiw	a5,a5,1
	sext.w	a5,a5
	.loc 1 834 6
	lw	a4,-44(s0)
	sext.w	a4,a4
	bleu	a4,a5,.L111
	.loc 1 835 17
	ld	a5,-104(s0)
	lbu	a4,0(a5)
	.loc 1 835 15
	ld	a5,-24(s0)
	sb	a4,0(a5)
	.loc 1 836 9
	ld	a5,-104(s0)
	lbu	a5,0(a5)
	.loc 1 836 8
	mv	a4,a5
	li	a5,34
	bne	a4,a5,.L112
	.loc 1 837 69
	lw	a5,-44(s0)
	andi	a4,a5,0xff
	lw	a5,-36(s0)
	andi	a5,a5,0xff
	subw	a5,a4,a5
	andi	a4,a5,0xff
	.loc 1 837 18
	ld	a5,-24(s0)
	addi	a5,a5,1
	.loc 1 837 53
	addiw	a4,a4,-1
	andi	a4,a4,0xff
	.loc 1 837 51
	sb	a4,0(a5)
	j	.L113
.L112:
	.loc 1 839 80
	lw	a5,-44(s0)
	slli	a4,a5,48
	srli	a4,a4,48
	lw	a5,-36(s0)
	slli	a5,a5,48
	srli	a5,a5,48
	subw	a5,a4,a5
	slli	a4,a5,48
	srli	a4,a4,48
	.loc 1 839 28
	ld	a5,-24(s0)
	addi	a5,a5,1
	.loc 1 839 63
	addiw	a4,a4,-1
	slli	a4,a4,48
	srli	a4,a4,48
	.loc 1 839 61
	sh	a4,0(a5)
.L113:
	.loc 1 842 14
	lwu	a5,-28(s0)
	ld	a4,-24(s0)
	add	a5,a4,a5
	sd	a5,-24(s0)
.L111:
	.loc 1 848 3
	lwu	a5,-28(s0)
	.loc 1 848 36
	ld	a4,-56(s0)
	add	a1,a4,a5
	.loc 1 848 60
	lwu	a4,-60(s0)
	.loc 1 848 92
	ld	a5,-88(s0)
	ld	a5,16(a5)
	.loc 1 848 77
	ld	a3,-56(s0)
	sub	a5,a3,a5
	.loc 1 848 60
	sub	a4,a4,a5
	.loc 1 848 107
	lwu	a5,-28(s0)
	sub	a5,a4,a5
	.loc 1 848 3
	mv	a2,a5
	ld	a0,-24(s0)
	call	CopyMem@plt
	.loc 1 850 6
	lbu	a5,-93(s0)
	andi	a5,a5,0xff
	beq	a5,zero,.L114
	.loc 1 851 16
	ld	a5,-104(s0)
	li	a4,21
	sb	a4,0(a5)
	j	.L115
.L114:
	.loc 1 853 16
	ld	a5,-104(s0)
	li	a4,20
	sb	a4,0(a5)
.L115:
	.loc 1 856 26
	ld	a5,-88(s0)
	ld	a5,16(a5)
	.loc 1 856 3
	mv	a0,a5
	call	FreePool@plt
	.loc 1 857 30
	ld	a5,-88(s0)
	ld	a4,-72(s0)
	sd	a4,16(a5)
	.loc 1 858 16
	ld	a5,-88(s0)
	ld	a5,8(a5)
	.loc 1 858 38
	lbu	a4,0(a5)
	lbu	a3,1(a5)
	slli	a3,a3,8
	or	a4,a3,a4
	lbu	a5,2(a5)
	slli	a5,a5,16
	or	a5,a5,a4
	sext.w	a5,a5
	mv	a4,a5
	.loc 1 858 62
	lw	a5,-32(s0)
	mv	a3,a5
	lw	a5,-60(s0)
	subw	a5,a3,a5
	sext.w	a5,a5
	.loc 1 858 46
	addw	a5,a4,a5
	sext.w	a3,a5
	.loc 1 858 16
	ld	a5,-88(s0)
	ld	a5,8(a5)
	.loc 1 858 46
	li	a4,16777216
	addi	a4,a4,-1
	and	a4,a3,a4
	sext.w	a4,a4
	slli	a3,a4,32
	srli	a3,a3,32
	andi	a3,a3,255
	lbu	a2,0(a5)
	andi	a2,a2,0
	or	a3,a2,a3
	sb	a3,0(a5)
	srliw	a3,a4,8
	slli	a3,a3,32
	srli	a3,a3,32
	andi	a3,a3,255
	lbu	a2,1(a5)
	andi	a2,a2,0
	or	a3,a2,a3
	sb	a3,1(a5)
	srliw	a4,a4,16
	slli	a4,a4,32
	srli	a4,a4,32
	andi	a4,a4,255
	lbu	a3,2(a5)
	andi	a3,a3,0
	or	a4,a3,a4
	sb	a4,2(a5)
	.loc 1 860 10
	li	a5,0
.L105:
	.loc 1 861 1
	mv	a0,a5
	ld	ra,104(sp)
	.cfi_restore 1
	ld	s0,96(sp)
	.cfi_restore 8
	.cfi_def_cfa 2, 112
	addi	sp,sp,112
	.cfi_def_cfa_offset 0
	jr	ra
	.cfi_endproc
.LFE6:
	.size	InsertLackStringBlock, .-InsertLackStringBlock
	.section	.text.SetStringWorker,"ax",@progbits
	.align	1
	.globl	SetStringWorker
	.type	SetStringWorker, @function
SetStringWorker:
.LFB7:
	.loc 1 893 1
	.cfi_startproc
	addi	sp,sp,-208
	.cfi_def_cfa_offset 208
	sd	ra,200(sp)
	sd	s0,192(sp)
	sd	s1,184(sp)
	.cfi_offset 1, -8
	.cfi_offset 8, -16
	.cfi_offset 9, -24
	addi	s0,sp,208
	.cfi_def_cfa 8, 0
	sd	a0,-168(s0)
	sd	a1,-176(s0)
	mv	a5,a2
	sd	a3,-192(s0)
	sd	a4,-200(s0)
	sh	a5,-178(s0)
	.loc 1 911 17
	sh	zero,-154(s0)
	.loc 1 912 14
	sd	zero,-152(s0)
	.loc 1 918 12
	addi	a1,s0,-154
	addi	a5,s0,-120
	addi	a4,s0,-112
	addi	a3,s0,-97
	lhu	a2,-178(s0)
	mv	a7,a1
	li	a6,0
	ld	a1,-176(s0)
	ld	a0,-168(s0)
	call	FindStringBlock
	sd	a0,-56(s0)
	.loc 1 928 34
	ld	a5,-56(s0)
	.loc 1 928 6
	bge	a5,zero,.L117
	.loc 1 928 75 discriminator 1
	lbu	a5,-97(s0)
	.loc 1 928 60 discriminator 1
	mv	a4,a5
	li	a5,34
	beq	a4,a5,.L118
	.loc 1 928 98 discriminator 2
	lbu	a5,-97(s0)
	.loc 1 928 84 discriminator 2
	mv	a4,a5
	li	a5,33
	bne	a4,a5,.L117
.L118:
	.loc 1 929 14
	lhu	a1,-154(s0)
	.loc 1 935 16
	ld	a5,-200(s0)
	snez	a5,a5
	andi	a5,a5,0xff
	.loc 1 929 14
	addi	a4,s0,-112
	addi	a3,s0,-97
	lhu	a2,-178(s0)
	ld	a0,-176(s0)
	call	InsertLackStringBlock
	sd	a0,-56(s0)
	.loc 1 937 36
	ld	a5,-56(s0)
	.loc 1 937 8
	bge	a5,zero,.L119
	.loc 1 938 14
	ld	a5,-56(s0)
	j	.L139
.L119:
	.loc 1 941 8
	ld	a5,-200(s0)
	beq	a5,zero,.L121
	.loc 1 942 24
	li	a5,2
	sd	a5,-120(s0)
	j	.L117
.L121:
	.loc 1 944 24
	li	a5,1
	sd	a5,-120(s0)
.L117:
	.loc 1 948 13
	sd	zero,-128(s0)
	.loc 1 949 14
	sd	zero,-136(s0)
	.loc 1 950 12
	sb	zero,-41(s0)
	.loc 1 955 6
	ld	a5,-200(s0)
	beq	a5,zero,.L122
	.loc 1 956 10
	addi	a5,s0,-136
	mv	a4,a5
	li	a3,0
	li	a2,0
	ld	a1,-200(s0)
	ld	a0,-168(s0)
	call	IsFontInfoExisted@plt
	mv	a5,a0
	.loc 1 956 8 discriminator 1
	bne	a5,zero,.L123
	.loc 1 957 14
	li	a5,-1
	slli	a5,a5,63
	addi	a5,a5,2
	j	.L139
.L123:
	.loc 1 959 18
	ld	a5,-176(s0)
	lbu	a2,56(a5)
	ld	a4,-136(s0)
	addi	a5,s0,-128
	li	a3,0
	ld	a1,-176(s0)
	ld	a0,-168(s0)
	call	ReferFontInfoLocally
	mv	a5,a0
	sb	a5,-41(s0)
	.loc 1 967 10
	lbu	a5,-41(s0)
	andi	a5,a5,0xff
	bne	a5,zero,.L124
	.loc 1 968 22
	ld	a5,-176(s0)
	lbu	a5,56(a5)
	.loc 1 968 30
	addiw	a5,a5,1
	andi	a4,a5,0xff
	ld	a5,-176(s0)
	sb	a4,56(a5)
.L124:
	.loc 1 975 5
	lbu	a5,-97(s0)
	sext.w	a5,a5
	li	a4,23
	beq	a5,a4,.L125
	li	a4,23
	bgt	a5,a4,.L126
	li	a4,21
	beq	a5,a4,.L125
	li	a4,21
	bgt	a5,a4,.L126
	li	a4,17
	beq	a5,a4,.L125
	li	a4,19
	bne	a5,a4,.L126
.L125:
	.loc 1 980 71
	ld	a4,-128(s0)
	.loc 1 980 27
	ld	a5,-112(s0)
	addi	a5,a5,1
	.loc 1 980 71
	lbu	a4,32(a4)
	.loc 1 980 60
	sb	a4,0(a5)
	.loc 1 981 9
	j	.L122
.L126:
	.loc 1 988 16
	li	a5,-1
	slli	a5,a5,63
	addi	a5,a5,3
	j	.L139
.L122:
	.loc 1 992 31
	ld	a5,-176(s0)
	ld	a5,8(a5)
	.loc 1 992 53
	lbu	a4,0(a5)
	lbu	a3,1(a5)
	slli	a3,a3,8
	or	a4,a3,a4
	lbu	a5,2(a5)
	slli	a5,a5,16
	or	a5,a5,a4
	sext.w	a5,a5
	mv	a2,a5
	.loc 1 992 76
	ld	a5,-176(s0)
	ld	a5,8(a5)
	.loc 1 992 90
	lbu	a4,4(a5)
	lbu	a3,5(a5)
	slli	a3,a3,8
	or	a4,a3,a4
	lbu	a3,6(a5)
	slli	a3,a3,16
	or	a4,a3,a4
	lbu	a5,7(a5)
	slli	a5,a5,24
	or	a5,a5,a4
	sext.w	a5,a5
	.loc 1 992 61
	subw	a5,a2,a5
	sext.w	a5,a5
	.loc 1 992 16
	slli	a5,a5,32
	srli	a5,a5,32
	sd	a5,-64(s0)
	.loc 1 997 35
	ld	a4,-112(s0)
	ld	a5,-120(s0)
	.loc 1 997 17
	add	a5,a4,a5
	sd	a5,-72(s0)
	.loc 1 998 3
	lbu	a5,-97(s0)
	sext.w	a5,a5
	li	a4,19
	bgt	a5,a4,.L127
	li	a4,16
	bge	a5,a4,.L128
	j	.L129
.L127:
	addiw	a5,a5,-20
	sext.w	a4,a5
	li	a5,3
	bgtu	a4,a5,.L129
	j	.L140
.L128:
	.loc 1 1003 34
	ld	a0,-192(s0)
	call	StrLen@plt
	mv	a4,a0
	.loc 1 1003 17 discriminator 1
	ld	a5,-64(s0)
	add	a5,a5,a4
	sd	a5,-80(s0)
	.loc 1 1004 20
	ld	a0,-72(s0)
	call	AsciiStrSize@plt
	mv	a4,a0
	.loc 1 1004 17 discriminator 1
	ld	a5,-80(s0)
	sub	a5,a5,a4
	sd	a5,-80(s0)
	.loc 1 1005 15
	ld	a0,-80(s0)
	call	AllocateZeroPool@plt
	sd	a0,-88(s0)
	.loc 1 1006 10
	ld	a5,-88(s0)
	bne	a5,zero,.L131
	.loc 1 1007 16
	li	a5,-1
	slli	a5,a5,63
	addi	a5,a5,9
	j	.L139
.L131:
	.loc 1 1010 36
	ld	a5,-176(s0)
	ld	a3,16(a5)
	.loc 1 1010 80
	ld	a5,-176(s0)
	ld	a5,16(a5)
	.loc 1 1010 65
	ld	a4,-72(s0)
	sub	a5,a4,a5
	.loc 1 1010 7
	mv	a2,a5
	mv	a1,a3
	ld	a0,-88(s0)
	call	CopyMem@plt
	.loc 1 1011 56
	ld	a5,-176(s0)
	ld	a5,16(a5)
	.loc 1 1011 41
	ld	a4,-72(s0)
	sub	a5,a4,a5
	mv	a4,a5
	.loc 1 1011 16
	ld	a5,-88(s0)
	add	a5,a5,a4
	sd	a5,-40(s0)
	.loc 1 1013 13
	j	.L132
.L133:
	.loc 1 1014 37
	ld	a5,-192(s0)
	addi	a4,a5,2
	sd	a4,-192(s0)
	.loc 1 1014 30
	lhu	a3,0(a5)
	.loc 1 1014 18
	ld	a5,-40(s0)
	addi	a4,a5,1
	sd	a4,-40(s0)
	.loc 1 1014 23
	andi	a4,a3,0xff
	.loc 1 1014 21
	sb	a4,0(a5)
.L132:
	.loc 1 1013 14
	ld	a5,-192(s0)
	lhu	a5,0(a5)
	.loc 1 1013 22
	bne	a5,zero,.L133
	.loc 1 1017 16
	ld	a5,-40(s0)
	addi	a4,a5,1
	sd	a4,-40(s0)
	.loc 1 1017 19
	sb	zero,0(a5)
	.loc 1 1019 62
	ld	a5,-176(s0)
	ld	a5,16(a5)
	.loc 1 1019 47
	ld	a4,-72(s0)
	sub	a5,a4,a5
	mv	a4,a5
	.loc 1 1019 30
	ld	a5,-64(s0)
	sub	s1,a5,a4
	.loc 1 1019 79
	ld	a0,-72(s0)
	call	AsciiStrSize@plt
	mv	a5,a0
	.loc 1 1019 15 discriminator 1
	sub	a5,s1,a5
	sd	a5,-96(s0)
	.loc 1 1022 25
	ld	a0,-72(s0)
	call	AsciiStrSize@plt
	mv	a4,a0
	.loc 1 1022 23 discriminator 1
	ld	a5,-72(s0)
	add	a5,a5,a4
	.loc 1 1020 7
	ld	a2,-96(s0)
	mv	a1,a5
	ld	a0,-40(s0)
	call	CopyMem@plt
	.loc 1 1026 29
	ld	a5,-176(s0)
	ld	a5,16(a5)
	.loc 1 1026 7
	ld	a1,-64(s0)
	mv	a0,a5
	call	ZeroMem@plt
	.loc 1 1027 30
	ld	a5,-176(s0)
	ld	a5,16(a5)
	.loc 1 1027 7
	mv	a0,a5
	call	FreePool@plt
	.loc 1 1028 34
	ld	a5,-176(s0)
	ld	a4,-88(s0)
	sd	a4,16(a5)
	.loc 1 1029 20
	ld	a5,-176(s0)
	ld	a5,8(a5)
	.loc 1 1029 42
	lbu	a4,0(a5)
	lbu	a3,1(a5)
	slli	a3,a3,8
	or	a4,a3,a4
	lbu	a5,2(a5)
	slli	a5,a5,16
	or	a5,a5,a4
	sext.w	a5,a5
	mv	a3,a5
	.loc 1 1029 53
	ld	a5,-80(s0)
	sext.w	a4,a5
	ld	a5,-64(s0)
	sext.w	a5,a5
	subw	a5,a4,a5
	sext.w	a5,a5
	.loc 1 1029 50
	addw	a5,a3,a5
	sext.w	a3,a5
	.loc 1 1029 20
	ld	a5,-176(s0)
	ld	a5,8(a5)
	.loc 1 1029 50
	li	a4,16777216
	addi	a4,a4,-1
	and	a4,a3,a4
	sext.w	a4,a4
	slli	a3,a4,32
	srli	a3,a3,32
	andi	a3,a3,255
	lbu	a2,0(a5)
	andi	a2,a2,0
	or	a3,a2,a3
	sb	a3,0(a5)
	srliw	a3,a4,8
	slli	a3,a3,32
	srli	a3,a3,32
	andi	a3,a3,255
	lbu	a2,1(a5)
	andi	a2,a2,0
	or	a3,a2,a3
	sb	a3,1(a5)
	srliw	a4,a4,16
	slli	a4,a4,32
	srli	a4,a4,32
	andi	a4,a4,255
	lbu	a3,2(a5)
	andi	a3,a3,0
	or	a4,a3,a4
	sb	a4,2(a5)
	.loc 1 1030 7
	j	.L134
.L140:
	.loc 1 1040 7
	addi	a5,s0,-152
	mv	a2,a5
	ld	a1,-72(s0)
	li	a0,0
	call	GetUnicodeStringTextOrSize
	.loc 1 1042 34
	ld	a0,-192(s0)
	call	StrSize@plt
	mv	a4,a0
	.loc 1 1042 32 discriminator 1
	ld	a5,-64(s0)
	add	a4,a4,a5
	.loc 1 1042 51 discriminator 1
	ld	a5,-152(s0)
	.loc 1 1042 17 discriminator 1
	sub	a5,a4,a5
	sd	a5,-80(s0)
	.loc 1 1043 15
	ld	a0,-80(s0)
	call	AllocateZeroPool@plt
	sd	a0,-88(s0)
	.loc 1 1044 10
	ld	a5,-88(s0)
	bne	a5,zero,.L135
	.loc 1 1045 16
	li	a5,-1
	slli	a5,a5,63
	addi	a5,a5,9
	j	.L139
.L135:
	.loc 1 1048 36
	ld	a5,-176(s0)
	ld	a3,16(a5)
	.loc 1 1048 80
	ld	a5,-176(s0)
	ld	a5,16(a5)
	.loc 1 1048 65
	ld	a4,-72(s0)
	sub	a5,a4,a5
	.loc 1 1048 7
	mv	a2,a5
	mv	a1,a3
	ld	a0,-88(s0)
	call	CopyMem@plt
	.loc 1 1049 56
	ld	a5,-176(s0)
	ld	a5,16(a5)
	.loc 1 1049 41
	ld	a4,-72(s0)
	sub	a5,a4,a5
	mv	a4,a5
	.loc 1 1049 16
	ld	a5,-88(s0)
	add	a5,a5,a4
	sd	a5,-40(s0)
	.loc 1 1051 7
	ld	a0,-192(s0)
	call	StrSize@plt
	mv	a5,a0
	.loc 1 1051 7 is_stmt 0 discriminator 1
	mv	a2,a5
	ld	a1,-192(s0)
	ld	a0,-40(s0)
	call	CopyMem@plt
	.loc 1 1052 19 is_stmt 1
	ld	a0,-192(s0)
	call	StrSize@plt
	mv	a4,a0
	.loc 1 1052 16 discriminator 1
	ld	a5,-40(s0)
	add	a5,a5,a4
	sd	a5,-40(s0)
	.loc 1 1054 7
	ld	a5,-152(s0)
	.loc 1 1056 23
	ld	a4,-72(s0)
	add	a3,a4,a5
	.loc 1 1057 54
	ld	a5,-176(s0)
	ld	a5,16(a5)
	.loc 1 1057 39
	ld	a4,-72(s0)
	sub	a5,a4,a5
	mv	a4,a5
	.loc 1 1057 22
	ld	a5,-64(s0)
	sub	a4,a5,a4
	.loc 1 1054 7
	ld	a5,-152(s0)
	.loc 1 1057 69
	sub	a5,a4,a5
	.loc 1 1054 7
	mv	a2,a5
	mv	a1,a3
	ld	a0,-40(s0)
	call	CopyMem@plt
	.loc 1 1060 29
	ld	a5,-176(s0)
	ld	a5,16(a5)
	.loc 1 1060 7
	ld	a1,-64(s0)
	mv	a0,a5
	call	ZeroMem@plt
	.loc 1 1061 30
	ld	a5,-176(s0)
	ld	a5,16(a5)
	.loc 1 1061 7
	mv	a0,a5
	call	FreePool@plt
	.loc 1 1062 34
	ld	a5,-176(s0)
	ld	a4,-88(s0)
	sd	a4,16(a5)
	.loc 1 1063 20
	ld	a5,-176(s0)
	ld	a5,8(a5)
	.loc 1 1063 42
	lbu	a4,0(a5)
	lbu	a3,1(a5)
	slli	a3,a3,8
	or	a4,a3,a4
	lbu	a5,2(a5)
	slli	a5,a5,16
	or	a5,a5,a4
	sext.w	a5,a5
	mv	a3,a5
	.loc 1 1063 53
	ld	a5,-80(s0)
	sext.w	a4,a5
	ld	a5,-64(s0)
	sext.w	a5,a5
	subw	a5,a4,a5
	sext.w	a5,a5
	.loc 1 1063 50
	addw	a5,a3,a5
	sext.w	a3,a5
	.loc 1 1063 20
	ld	a5,-176(s0)
	ld	a5,8(a5)
	.loc 1 1063 50
	li	a4,16777216
	addi	a4,a4,-1
	and	a4,a3,a4
	sext.w	a4,a4
	slli	a3,a4,32
	srli	a3,a3,32
	andi	a3,a3,255
	lbu	a2,0(a5)
	andi	a2,a2,0
	or	a3,a2,a3
	sb	a3,0(a5)
	srliw	a3,a4,8
	slli	a3,a3,32
	srli	a3,a3,32
	andi	a3,a3,255
	lbu	a2,1(a5)
	andi	a2,a2,0
	or	a3,a2,a3
	sb	a3,1(a5)
	srliw	a4,a4,16
	slli	a4,a4,32
	srli	a4,a4,32
	andi	a4,a4,255
	lbu	a3,2(a5)
	andi	a3,a3,0
	or	a4,a3,a4
	sb	a4,2(a5)
	.loc 1 1064 7
	j	.L134
.L129:
	.loc 1 1067 14
	li	a5,-1
	slli	a5,a5,63
	addi	a5,a5,14
	j	.L139
.L134:
	.loc 1 1077 6
	ld	a5,-200(s0)
	beq	a5,zero,.L136
	.loc 1 1077 40 discriminator 1
	lbu	a5,-41(s0)
	andi	a5,a5,0xff
	beq	a5,zero,.L137
.L136:
	.loc 1 1078 12
	li	a5,0
	j	.L139
.L137:
	.loc 1 1081 31
	ld	a5,-176(s0)
	ld	a5,8(a5)
	.loc 1 1081 53
	lbu	a4,0(a5)
	lbu	a3,1(a5)
	slli	a3,a3,8
	or	a4,a3,a4
	lbu	a5,2(a5)
	slli	a5,a5,16
	or	a5,a5,a4
	sext.w	a5,a5
	mv	a2,a5
	.loc 1 1081 76
	ld	a5,-176(s0)
	ld	a5,8(a5)
	.loc 1 1081 90
	lbu	a4,4(a5)
	lbu	a3,5(a5)
	slli	a3,a3,8
	or	a4,a3,a4
	lbu	a3,6(a5)
	slli	a3,a3,16
	or	a4,a3,a4
	lbu	a5,7(a5)
	slli	a5,a5,24
	or	a5,a5,a4
	sext.w	a5,a5
	.loc 1 1081 61
	subw	a5,a2,a5
	sext.w	a5,a5
	.loc 1 1081 16
	slli	a5,a5,32
	srli	a5,a5,32
	sd	a5,-64(s0)
	.loc 1 1083 37
	ld	a5,-136(s0)
	ld	a5,40(a5)
	.loc 1 1083 47
	addi	a5,a5,6
	.loc 1 1083 18
	mv	a0,a5
	call	StrSize@plt
	mv	a4,a0
	.loc 1 1082 81
	ld	a5,-64(s0)
	add	a5,a4,a5
	.loc 1 1082 13
	addi	a5,a5,11
	sd	a5,-80(s0)
	.loc 1 1085 11
	ld	a0,-80(s0)
	call	AllocateZeroPool@plt
	sd	a0,-88(s0)
	.loc 1 1086 6
	ld	a5,-88(s0)
	bne	a5,zero,.L138
	.loc 1 1087 12
	li	a5,-1
	slli	a5,a5,63
	addi	a5,a5,9
	j	.L139
.L138:
	.loc 1 1090 12
	ld	a5,-88(s0)
	sd	a5,-40(s0)
	.loc 1 1091 25
	li	a5,49
	sb	a5,-144(s0)
	.loc 1 1092 19
	li	a5,64
	sb	a5,-143(s0)
	.loc 1 1093 17
	ld	a5,-80(s0)
	slli	a4,a5,48
	srli	a4,a4,48
	ld	a5,-64(s0)
	slli	a5,a5,48
	srli	a5,a5,48
	subw	a5,a4,a5
	slli	a5,a5,48
	srli	a5,a5,48
	.loc 1 1093 15
	sh	a5,-142(s0)
	.loc 1 1094 3
	addi	a5,s0,-144
	li	a2,4
	mv	a1,a5
	ld	a0,-40(s0)
	call	CopyMem@plt
	.loc 1 1095 12
	ld	a5,-40(s0)
	addi	a5,a5,4
	sd	a5,-40(s0)
	.loc 1 1097 24
	ld	a5,-128(s0)
	lbu	a4,32(a5)
	.loc 1 1097 13
	ld	a5,-40(s0)
	sb	a4,0(a5)
	.loc 1 1098 11
	ld	a5,-40(s0)
	addi	a5,a5,1
	sd	a5,-40(s0)
	.loc 1 1099 33
	ld	a5,-136(s0)
	ld	a5,40(a5)
	.loc 1 1099 22
	addi	a5,a5,4
	.loc 1 1099 3
	li	a2,2
	mv	a1,a5
	ld	a0,-40(s0)
	call	CopyMem@plt
	.loc 1 1100 12
	ld	a5,-40(s0)
	addi	a5,a5,2
	sd	a5,-40(s0)
	.loc 1 1101 33
	ld	a5,-136(s0)
	ld	a5,40(a5)
	.loc 1 1101 3
	li	a2,4
	mv	a1,a5
	ld	a0,-40(s0)
	call	CopyMem@plt
	.loc 1 1102 12
	ld	a5,-40(s0)
	addi	a5,a5,4
	sd	a5,-40(s0)
	.loc 1 1105 15
	ld	a5,-136(s0)
	ld	a5,40(a5)
	.loc 1 1105 25
	addi	s1,a5,6
	.loc 1 1106 24
	ld	a5,-136(s0)
	ld	a5,40(a5)
	.loc 1 1106 34
	addi	a5,a5,6
	.loc 1 1103 3
	mv	a0,a5
	call	StrSize@plt
	mv	a5,a0
	.loc 1 1103 3 is_stmt 0 discriminator 1
	mv	a2,a5
	mv	a1,s1
	ld	a0,-40(s0)
	call	CopyMem@plt
	.loc 1 1108 34 is_stmt 1
	ld	a5,-136(s0)
	ld	a5,40(a5)
	.loc 1 1108 44
	addi	a5,a5,6
	.loc 1 1108 15
	mv	a0,a5
	call	StrSize@plt
	mv	a4,a0
	.loc 1 1108 12 discriminator 1
	ld	a5,-40(s0)
	add	a5,a5,a4
	sd	a5,-40(s0)
	.loc 1 1110 35
	ld	a5,-176(s0)
	ld	a5,16(a5)
	.loc 1 1110 3
	ld	a2,-64(s0)
	mv	a1,a5
	ld	a0,-40(s0)
	call	CopyMem@plt
	.loc 1 1112 25
	ld	a5,-176(s0)
	ld	a5,16(a5)
	.loc 1 1112 3
	ld	a1,-64(s0)
	mv	a0,a5
	call	ZeroMem@plt
	.loc 1 1113 26
	ld	a5,-176(s0)
	ld	a5,16(a5)
	.loc 1 1113 3
	mv	a0,a5
	call	FreePool@plt
	.loc 1 1114 30
	ld	a5,-176(s0)
	ld	a4,-88(s0)
	sd	a4,16(a5)
	.loc 1 1115 16
	ld	a5,-176(s0)
	ld	a5,8(a5)
	.loc 1 1115 38
	lbu	a4,0(a5)
	lbu	a3,1(a5)
	slli	a3,a3,8
	or	a4,a3,a4
	lbu	a5,2(a5)
	slli	a5,a5,16
	or	a5,a5,a4
	sext.w	a5,a5
	mv	a4,a5
	.loc 1 1115 53
	lhu	a5,-142(s0)
	sext.w	a5,a5
	.loc 1 1115 46
	addw	a5,a4,a5
	sext.w	a3,a5
	.loc 1 1115 16
	ld	a5,-176(s0)
	ld	a5,8(a5)
	.loc 1 1115 46
	li	a4,16777216
	addi	a4,a4,-1
	and	a4,a3,a4
	sext.w	a4,a4
	slli	a3,a4,32
	srli	a3,a3,32
	andi	a3,a3,255
	lbu	a2,0(a5)
	andi	a2,a2,0
	or	a3,a2,a3
	sb	a3,0(a5)
	srliw	a3,a4,8
	slli	a3,a3,32
	srli	a3,a3,32
	andi	a3,a3,255
	lbu	a2,1(a5)
	andi	a2,a2,0
	or	a3,a2,a3
	sb	a3,1(a5)
	srliw	a4,a4,16
	slli	a4,a4,32
	srli	a4,a4,32
	andi	a4,a4,255
	lbu	a3,2(a5)
	andi	a3,a3,0
	or	a4,a3,a4
	sb	a4,2(a5)
	.loc 1 1117 10
	li	a5,0
.L139:
	.loc 1 1118 1
	mv	a0,a5
	ld	ra,200(sp)
	.cfi_restore 1
	ld	s0,192(sp)
	.cfi_restore 8
	.cfi_def_cfa 2, 208
	ld	s1,184(sp)
	.cfi_restore 9
	addi	sp,sp,208
	.cfi_def_cfa_offset 0
	jr	ra
	.cfi_endproc
.LFE7:
	.size	SetStringWorker, .-SetStringWorker
	.section	.text.HiiNewString,"ax",@progbits
	.align	1
	.globl	HiiNewString
	.type	HiiNewString, @function
HiiNewString:
.LFB8:
	.loc 1 1165 1
	.cfi_startproc
	addi	sp,sp,-240
	.cfi_def_cfa_offset 240
	sd	ra,232(sp)
	sd	s0,224(sp)
	sd	s1,216(sp)
	.cfi_offset 1, -8
	.cfi_offset 8, -16
	.cfi_offset 9, -24
	addi	s0,sp,240
	.cfi_def_cfa 8, 0
	sd	a0,-184(s0)
	sd	a1,-192(s0)
	sd	a2,-200(s0)
	sd	a3,-208(s0)
	sd	a4,-216(s0)
	sd	a5,-224(s0)
	sd	a6,-232(s0)
	.loc 1 1189 6
	ld	a5,-184(s0)
	beq	a5,zero,.L142
	.loc 1 1189 30 discriminator 1
	ld	a5,-224(s0)
	beq	a5,zero,.L142
	.loc 1 1189 58 discriminator 2
	ld	a5,-200(s0)
	beq	a5,zero,.L142
	.loc 1 1189 88 discriminator 3
	ld	a5,-208(s0)
	beq	a5,zero,.L142
	.loc 1 1189 118 discriminator 4
	ld	a5,-192(s0)
	bne	a5,zero,.L143
.L142:
	.loc 1 1190 12
	li	a5,-1
	slli	a5,a5,63
	addi	a5,a5,2
	j	.L189
.L143:
	.loc 1 1193 8
	ld	a0,-192(s0)
	call	IsHiiHandleValid@plt
	mv	a5,a0
	.loc 1 1193 6 discriminator 1
	bne	a5,zero,.L145
	.loc 1 1194 12
	li	a5,-1
	slli	a5,a5,63
	addi	a5,a5,14
	j	.L189
.L145:
	.loc 1 1197 15
	ld	a5,-184(s0)
	addi	a5,a5,-160
	.loc 1 1197 142
	ld	a4,0(a5)
	.loc 1 1197 227
	li	a5,1883533312
	addi	a5,a5,-1720
	bne	a4,a5,.L146
	.loc 1 1197 11 discriminator 1
	ld	a5,-184(s0)
	addi	a5,a5,-160
	sd	a5,-56(s0)
	j	.L147
.L146:
	.loc 1 1197 11 is_stmt 0 discriminator 2
	sd	zero,-56(s0)
.L147:
	.loc 1 1198 14 is_stmt 1
	sd	zero,-168(s0)
	.loc 1 1203 6
	ld	a5,-232(s0)
	beq	a5,zero,.L148
	.loc 1 1204 10
	addi	a5,s0,-168
	mv	a4,a5
	li	a3,0
	li	a2,0
	ld	a1,-232(s0)
	ld	a0,-56(s0)
	call	IsFontInfoExisted@plt
	mv	a5,a0
	.loc 1 1204 8 discriminator 1
	bne	a5,zero,.L148
	.loc 1 1205 14
	li	a5,-1
	slli	a5,a5,63
	addi	a5,a5,2
	j	.L189
.L148:
	.loc 1 1212 19
	sd	zero,-72(s0)
	.loc 1 1213 13
	ld	a5,-56(s0)
	ld	a5,8(a5)
	sd	a5,-48(s0)
	.loc 1 1213 3
	j	.L149
.L154:
	.loc 1 1214 24
	ld	a5,-48(s0)
	addi	a5,a5,-32
	.loc 1 1214 143
	ld	a4,0(a5)
	.loc 1 1214 228
	li	a5,1919184896
	addi	a5,a5,-1688
	bne	a4,a5,.L150
	.loc 1 1214 20 discriminator 1
	ld	a5,-48(s0)
	addi	a5,a5,-32
	sd	a5,-64(s0)
	j	.L151
.L150:
	.loc 1 1214 20 is_stmt 0 discriminator 2
	sd	zero,-64(s0)
.L151:
	.loc 1 1215 23 is_stmt 1
	ld	a5,-64(s0)
	ld	a5,24(a5)
	.loc 1 1215 8
	ld	a4,-192(s0)
	bne	a4,a5,.L152
	.loc 1 1216 23
	ld	a5,-64(s0)
	ld	a5,8(a5)
	sd	a5,-72(s0)
	.loc 1 1217 7
	j	.L153
.L152:
	.loc 1 1213 87 discriminator 2
	ld	a5,-48(s0)
	ld	a5,0(a5)
	sd	a5,-48(s0)
.L149:
	.loc 1 1213 58 discriminator 1
	ld	a5,-56(s0)
	addi	a5,a5,8
	.loc 1 1213 55 discriminator 1
	ld	a4,-48(s0)
	bne	a4,a5,.L154
.L153:
	.loc 1 1221 6
	ld	a5,-72(s0)
	bne	a5,zero,.L155
	.loc 1 1222 12
	li	a5,-1
	slli	a5,a5,63
	addi	a5,a5,14
	j	.L189
.L155:
	.loc 1 1225 3
	la	a0,mHiiDatabaseLock
	call	EfiAcquireLock@plt
	.loc 1 1227 10
	sd	zero,-40(s0)
	.loc 1 1228 27
	sb	zero,-105(s0)
	.loc 1 1229 15
	sh	zero,-90(s0)
	.loc 1 1230 16
	sh	zero,-170(s0)
	.loc 1 1231 17
	sd	zero,-80(s0)
	.loc 1 1232 22
	sd	zero,-104(s0)
	.loc 1 1233 13
	ld	a5,-72(s0)
	ld	a5,72(a5)
	sd	a5,-48(s0)
	.loc 1 1233 3
	j	.L156
.L165:
	.loc 1 1238 23
	ld	a5,-48(s0)
	addi	a5,a5,-24
	.loc 1 1238 156
	ld	a4,0(a5)
	.loc 1 1238 241
	li	a5,1886613504
	addi	a5,a5,-1688
	bne	a4,a5,.L157
	.loc 1 1238 19 discriminator 1
	ld	a5,-48(s0)
	addi	a5,a5,-24
	sd	a5,-80(s0)
	j	.L158
.L157:
	.loc 1 1238 19 is_stmt 0 discriminator 2
	sd	zero,-80(s0)
.L158:
	.loc 1 1243 14 is_stmt 1
	addi	a5,s0,-170
	li	a7,0
	mv	a6,a5
	li	a5,0
	li	a4,0
	li	a3,0
	li	a2,0
	ld	a1,-80(s0)
	ld	a0,-56(s0)
	call	FindStringBlock
	sd	a0,-40(s0)
	.loc 1 1253 36
	ld	a5,-40(s0)
	.loc 1 1253 8
	blt	a5,zero,.L190
	.loc 1 1260 8
	lhu	a5,-90(s0)
	sext.w	a5,a5
	beq	a5,zero,.L161
	.loc 1 1260 44 discriminator 1
	lhu	a5,-170(s0)
	.loc 1 1260 28 discriminator 1
	lhu	a4,-90(s0)
	sext.w	a4,a4
	sext.w	a5,a5
	beq	a4,a5,.L161
	.loc 1 1262 14
	li	a5,-1
	slli	a5,a5,63
	addi	a5,a5,2
	sd	a5,-40(s0)
	.loc 1 1263 7
	j	.L160
.L161:
	.loc 1 1266 17
	lhu	a5,-170(s0)
	sh	a5,-90(s0)
	.loc 1 1270 42
	ld	a5,-80(s0)
	ld	a5,8(a5)
	.loc 1 1270 56
	addi	a5,a5,46
	.loc 1 1270 9
	ld	a1,-208(s0)
	mv	a0,a5
	call	HiiCompareLanguage
	mv	a5,a0
	.loc 1 1270 8 discriminator 1
	beq	a5,zero,.L162
	.loc 1 1271 26
	ld	a5,-80(s0)
	sd	a5,-104(s0)
	j	.L163
.L162:
	.loc 1 1273 35
	ld	a5,-80(s0)
	ld	a5,8(a5)
	.loc 1 1273 57
	lbu	a4,0(a5)
	lbu	a3,1(a5)
	slli	a3,a3,8
	or	a4,a3,a4
	lbu	a5,2(a5)
	slli	a5,a5,16
	or	a5,a5,a4
	sext.w	a5,a5
	mv	a2,a5
	.loc 1 1273 80
	ld	a5,-80(s0)
	ld	a5,8(a5)
	.loc 1 1273 94
	lbu	a4,4(a5)
	lbu	a3,5(a5)
	slli	a3,a3,8
	or	a4,a3,a4
	lbu	a3,6(a5)
	slli	a3,a3,16
	or	a4,a3,a4
	lbu	a5,7(a5)
	slli	a5,a5,24
	or	a5,a5,a4
	sext.w	a5,a5
	.loc 1 1273 20
	subw	a5,a2,a5
	sw	a5,-124(s0)
	.loc 1 1277 21
	li	a5,3
	sw	a5,-116(s0)
	.loc 1 1279 61
	lw	a5,-124(s0)
	mv	a4,a5
	lw	a5,-116(s0)
	addw	a5,a4,a5
	sext.w	a5,a5
	.loc 1 1279 30
	slli	a5,a5,32
	srli	a5,a5,32
	mv	a0,a5
	call	AllocateZeroPool@plt
	sd	a0,-144(s0)
	.loc 1 1280 10
	ld	a5,-144(s0)
	bne	a5,zero,.L164
	.loc 1 1281 16
	li	a5,-1
	slli	a5,a5,63
	addi	a5,a5,9
	sd	a5,-40(s0)
	.loc 1 1282 9
	j	.L160
.L164:
	.loc 1 1288 42
	ld	a5,-80(s0)
	ld	a4,16(a5)
	.loc 1 1288 7
	lwu	a5,-124(s0)
	.loc 1 1288 70
	addi	a5,a5,-1
	.loc 1 1288 7
	mv	a2,a5
	mv	a1,a4
	ld	a0,-144(s0)
	call	CopyMem@plt
	.loc 1 1292 45
	lwu	a5,-124(s0)
	addi	a5,a5,-1
	.loc 1 1292 16
	ld	a4,-144(s0)
	add	a5,a4,a5
	sd	a5,-88(s0)
	.loc 1 1293 17
	ld	a5,-88(s0)
	li	a4,20
	sb	a4,0(a5)
	.loc 1 1294 16
	ld	a5,-88(s0)
	addi	a5,a5,3
	sd	a5,-88(s0)
	.loc 1 1299 17
	ld	a5,-88(s0)
	sb	zero,0(a5)
	.loc 1 1300 29
	ld	a5,-80(s0)
	ld	a5,16(a5)
	.loc 1 1300 7
	lwu	a4,-124(s0)
	mv	a1,a4
	mv	a0,a5
	call	ZeroMem@plt
	.loc 1 1301 30
	ld	a5,-80(s0)
	ld	a5,16(a5)
	.loc 1 1301 7
	mv	a0,a5
	call	FreePool@plt
	.loc 1 1302 34
	ld	a5,-80(s0)
	ld	a4,-144(s0)
	sd	a4,16(a5)
	.loc 1 1303 20
	ld	a5,-80(s0)
	ld	a5,8(a5)
	.loc 1 1303 42
	lbu	a4,0(a5)
	lbu	a3,1(a5)
	slli	a3,a3,8
	or	a4,a3,a4
	lbu	a5,2(a5)
	slli	a5,a5,16
	or	a5,a5,a4
	sext.w	a5,a5
	.loc 1 1303 50
	lw	a4,-116(s0)
	addw	a5,a4,a5
	sext.w	a3,a5
	.loc 1 1303 20
	ld	a5,-80(s0)
	ld	a5,8(a5)
	.loc 1 1303 50
	li	a4,16777216
	addi	a4,a4,-1
	and	a4,a3,a4
	sext.w	a4,a4
	slli	a3,a4,32
	srli	a3,a3,32
	andi	a3,a3,255
	lbu	a2,0(a5)
	andi	a2,a2,0
	or	a3,a2,a3
	sb	a3,0(a5)
	srliw	a3,a4,8
	slli	a3,a3,32
	srli	a3,a3,32
	andi	a3,a3,255
	lbu	a2,1(a5)
	andi	a2,a2,0
	or	a3,a2,a3
	sb	a3,1(a5)
	srliw	a4,a4,16
	slli	a4,a4,32
	srli	a4,a4,32
	andi	a4,a4,255
	lbu	a3,2(a5)
	andi	a3,a3,0
	or	a4,a3,a4
	sb	a4,2(a5)
	.loc 1 1304 38
	ld	a5,-72(s0)
	lw	a5,16(a5)
	.loc 1 1304 53
	lw	a4,-116(s0)
	addw	a5,a4,a5
	sext.w	a4,a5
	ld	a5,-72(s0)
	sw	a4,16(a5)
.L163:
	.loc 1 1235 13
	ld	a5,-48(s0)
	ld	a5,0(a5)
	sd	a5,-48(s0)
.L156:
	.loc 1 1234 16
	ld	a5,-72(s0)
	addi	a5,a5,72
	.loc 1 1234 13
	ld	a4,-48(s0)
	bne	a4,a5,.L165
	.loc 1 1308 6
	lhu	a5,-90(s0)
	sext.w	a5,a5
	bne	a5,zero,.L166
	.loc 1 1313 15
	ld	a5,-200(s0)
	li	a4,2
	sh	a4,0(a5)
	j	.L167
.L166:
	.loc 1 1318 17
	lhu	a5,-90(s0)
	addiw	a5,a5,1
	slli	a4,a5,48
	srli	a4,a4,48
	.loc 1 1318 15
	ld	a5,-200(s0)
	sh	a4,0(a5)
.L167:
	.loc 1 1321 6
	ld	a5,-104(s0)
	beq	a5,zero,.L168
	.loc 1 1322 19
	ld	a5,-104(s0)
	sd	a5,-80(s0)
	j	.L169
.L168:
	.loc 1 1327 8
	ld	a5,-216(s0)
	bne	a5,zero,.L170
	.loc 1 1328 14
	li	a5,-1
	slli	a5,a5,63
	addi	a5,a5,2
	sd	a5,-40(s0)
	.loc 1 1329 7
	j	.L160
.L170:
	.loc 1 1332 21
	li	a0,64
	call	AllocateZeroPool@plt
	sd	a0,-80(s0)
	.loc 1 1333 8
	ld	a5,-80(s0)
	bne	a5,zero,.L171
	.loc 1 1334 14
	li	a5,-1
	slli	a5,a5,63
	addi	a5,a5,9
	sd	a5,-40(s0)
	.loc 1 1335 7
	j	.L160
.L171:
	.loc 1 1338 30
	ld	a5,-80(s0)
	li	a4,1886613504
	addi	a4,a4,-1688
	sd	a4,0(a5)
	.loc 1 1339 34
	ld	a5,-200(s0)
	lhu	a4,0(a5)
	.loc 1 1339 32
	ld	a5,-80(s0)
	sh	a4,58(a5)
	.loc 1 1340 27
	ld	a5,-80(s0)
	sb	zero,56(a5)
	.loc 1 1341 5
	ld	a5,-80(s0)
	addi	a5,a5,40
	mv	a0,a5
	call	InitializeListHead@plt
	.loc 1 1346 27
	ld	a0,-208(s0)
	call	AsciiStrSize@plt
	mv	a5,a0
	.loc 1 1346 18 discriminator 1
	sext.w	a5,a5
	.loc 1 1346 16 discriminator 1
	addiw	a5,a5,46
	sw	a5,-112(s0)
	.loc 1 1347 35
	lwu	a5,-112(s0)
	mv	a0,a5
	call	AllocateZeroPool@plt
	mv	a4,a0
	.loc 1 1347 33 discriminator 1
	ld	a5,-80(s0)
	sd	a4,8(a5)
	.loc 1 1348 22
	ld	a5,-80(s0)
	ld	a5,8(a5)
	.loc 1 1348 8
	bne	a5,zero,.L172
	.loc 1 1349 7
	ld	a0,-80(s0)
	call	FreePool@plt
	.loc 1 1350 14
	li	a5,-1
	slli	a5,a5,63
	addi	a5,a5,9
	sd	a5,-40(s0)
	.loc 1 1351 7
	j	.L160
.L172:
	.loc 1 1354 18
	ld	a5,-80(s0)
	ld	a5,8(a5)
	.loc 1 1354 46
	li	a4,4
	sb	a4,3(a5)
	.loc 1 1355 18
	ld	a5,-80(s0)
	ld	a5,8(a5)
	.loc 1 1355 42
	ld	a4,-112(s0)
	andi	a4,a4,255
	lbu	a3,4(a5)
	andi	a3,a3,0
	or	a4,a3,a4
	sb	a4,4(a5)
	ld	a4,-112(s0)
	srli	a4,a4,8
	andi	a4,a4,255
	lbu	a3,5(a5)
	andi	a3,a3,0
	or	a4,a3,a4
	sb	a4,5(a5)
	ld	a4,-112(s0)
	srli	a4,a4,16
	andi	a4,a4,255
	lbu	a3,6(a5)
	andi	a3,a3,0
	or	a4,a3,a4
	sb	a4,6(a5)
	ld	a4,-112(s0)
	srli	a4,a4,24
	andi	a4,a4,255
	lbu	a3,7(a5)
	andi	a3,a3,0
	or	a4,a3,a4
	sb	a4,7(a5)
	.loc 1 1356 18
	ld	a5,-80(s0)
	ld	a5,8(a5)
	.loc 1 1356 51
	ld	a4,-112(s0)
	andi	a4,a4,255
	lbu	a3,8(a5)
	andi	a3,a3,0
	or	a4,a3,a4
	sb	a4,8(a5)
	ld	a4,-112(s0)
	srli	a4,a4,8
	andi	a4,a4,255
	lbu	a3,9(a5)
	andi	a3,a3,0
	or	a4,a3,a4
	sb	a4,9(a5)
	ld	a4,-112(s0)
	srli	a4,a4,16
	andi	a4,a4,255
	lbu	a3,10(a5)
	andi	a3,a3,0
	or	a4,a3,a4
	sb	a4,10(a5)
	ld	a4,-112(s0)
	srli	a4,a4,24
	andi	a4,a4,255
	lbu	a3,11(a5)
	andi	a3,a3,0
	or	a4,a3,a4
	sb	a4,11(a5)
	.loc 1 1357 27
	ld	a5,-80(s0)
	ld	a5,8(a5)
	.loc 1 1357 41
	addi	a5,a5,12
	.loc 1 1357 5
	li	a2,32
	lla	a1,mLanguageWindow
	mv	a0,a5
	call	CopyMem@plt
	.loc 1 1358 18
	ld	a5,-80(s0)
	ld	a5,8(a5)
	.loc 1 1358 47
	lbu	a4,44(a5)
	andi	a4,a4,0
	ori	a4,a4,1
	sb	a4,44(a5)
	lbu	a4,45(a5)
	andi	a4,a4,0
	sb	a4,45(a5)
	.loc 1 1359 32
	ld	a5,-80(s0)
	ld	a5,8(a5)
	.loc 1 1359 46
	addi	a4,a5,46
	.loc 1 1359 5
	lwu	a5,-112(s0)
	.loc 1 1359 140
	addi	a5,a5,-46
	.loc 1 1359 5
	ld	a2,-208(s0)
	mv	a1,a5
	mv	a0,a4
	call	AsciiStrCpyS@plt
	.loc 1 1365 30
	ld	a0,-216(s0)
	call	StrSize@plt
	mv	a5,a0
	.loc 1 1365 63 discriminator 1
	sext.w	a4,a5
	.loc 1 1366 31
	ld	a5,-200(s0)
	lhu	a5,0(a5)
	sext.w	a5,a5
	.loc 1 1366 41
	addiw	a5,a5,-1
	sext.w	a5,a5
	.loc 1 1365 63
	mv	a3,a5
	mv	a5,a3
	slliw	a5,a5,1
	addw	a5,a5,a3
	sext.w	a5,a5
	addw	a5,a4,a5
	sext.w	a5,a5
	.loc 1 1365 19
	addiw	a5,a5,-2
	sw	a5,-116(s0)
	.loc 1 1368 15
	lw	a5,-116(s0)
	addiw	a5,a5,1
	sw	a5,-120(s0)
	.loc 1 1369 43
	lwu	a5,-120(s0)
	mv	a0,a5
	call	AllocateZeroPool@plt
	mv	a4,a0
	.loc 1 1369 32 discriminator 1
	ld	a5,-80(s0)
	sd	a4,16(a5)
	.loc 1 1370 22
	ld	a5,-80(s0)
	ld	a5,16(a5)
	.loc 1 1370 8
	bne	a5,zero,.L173
	.loc 1 1371 30
	ld	a5,-80(s0)
	ld	a5,8(a5)
	.loc 1 1371 7
	mv	a0,a5
	call	FreePool@plt
	.loc 1 1372 7
	ld	a0,-80(s0)
	call	FreePool@plt
	.loc 1 1373 14
	li	a5,-1
	slli	a5,a5,63
	addi	a5,a5,9
	sd	a5,-40(s0)
	.loc 1 1374 7
	j	.L160
.L173:
	.loc 1 1380 14
	ld	a5,-80(s0)
	ld	a5,16(a5)
	sd	a5,-88(s0)
	.loc 1 1381 15
	ld	a5,-88(s0)
	li	a4,20
	sb	a4,0(a5)
	.loc 1 1382 14
	ld	a5,-88(s0)
	addi	a5,a5,1
	sd	a5,-88(s0)
	.loc 1 1383 5
	ld	a0,-216(s0)
	call	StrSize@plt
	mv	a5,a0
	.loc 1 1383 5 is_stmt 0 discriminator 1
	mv	a2,a5
	ld	a1,-216(s0)
	ld	a0,-88(s0)
	call	CopyMem@plt
	.loc 1 1384 17 is_stmt 1
	ld	a0,-216(s0)
	call	StrSize@plt
	mv	a4,a0
	.loc 1 1384 14 discriminator 1
	ld	a5,-88(s0)
	add	a5,a5,a4
	sd	a5,-88(s0)
	.loc 1 1385 16
	li	a5,2
	sh	a5,-92(s0)
	.loc 1 1385 5
	j	.L174
.L175:
	.loc 1 1386 17
	ld	a5,-88(s0)
	li	a4,20
	sb	a4,0(a5)
	.loc 1 1387 16
	ld	a5,-88(s0)
	addi	a5,a5,3
	sd	a5,-88(s0)
	.loc 1 1385 50 discriminator 3
	lhu	a5,-92(s0)
	addiw	a5,a5,1
	sh	a5,-92(s0)
.L174:
	.loc 1 1385 30 discriminator 1
	ld	a5,-200(s0)
	lhu	a5,0(a5)
	.loc 1 1385 27 discriminator 1
	lhu	a4,-92(s0)
	sext.w	a4,a4
	sext.w	a5,a5
	bltu	a4,a5,.L175
	.loc 1 1393 15
	ld	a5,-88(s0)
	sb	zero,0(a5)
	.loc 1 1398 61
	lw	a5,-112(s0)
	mv	a4,a5
	lw	a5,-120(s0)
	addw	a5,a4,a5
	sext.w	a3,a5
	.loc 1 1398 18
	ld	a5,-80(s0)
	ld	a5,8(a5)
	.loc 1 1398 61
	li	a4,16777216
	addi	a4,a4,-1
	and	a4,a3,a4
	sext.w	a4,a4
	.loc 1 1398 48
	slli	a3,a4,32
	srli	a3,a3,32
	andi	a3,a3,255
	lbu	a2,0(a5)
	andi	a2,a2,0
	or	a3,a2,a3
	sb	a3,0(a5)
	srliw	a3,a4,8
	slli	a3,a3,32
	srli	a3,a3,32
	andi	a3,a3,255
	lbu	a2,1(a5)
	andi	a2,a2,0
	or	a3,a2,a3
	sb	a3,1(a5)
	srliw	a4,a4,16
	slli	a4,a4,32
	srli	a4,a4,32
	andi	a4,a4,255
	lbu	a3,2(a5)
	andi	a3,a3,0
	or	a4,a3,a4
	sb	a4,2(a5)
	.loc 1 1399 36
	ld	a5,-72(s0)
	lw	a4,16(a5)
	.loc 1 1399 67
	ld	a5,-80(s0)
	ld	a5,8(a5)
	.loc 1 1399 89
	lbu	a3,0(a5)
	lbu	a2,1(a5)
	slli	a2,a2,8
	or	a3,a2,a3
	lbu	a5,2(a5)
	slli	a5,a5,16
	or	a5,a5,a3
	sext.w	a5,a5
	.loc 1 1399 51
	addw	a5,a4,a5
	sext.w	a4,a5
	ld	a5,-72(s0)
	sw	a4,16(a5)
	.loc 1 1400 5
	ld	a5,-72(s0)
	addi	a4,a5,72
	ld	a5,-80(s0)
	addi	a5,a5,24
	mv	a1,a5
	mv	a0,a4
	call	InsertTailList@plt
	.loc 1 1401 29
	li	a5,1
	sb	a5,-105(s0)
.L169:
	.loc 1 1404 31
	ld	a5,-80(s0)
	ld	a5,8(a5)
	.loc 1 1404 53
	lbu	a4,0(a5)
	lbu	a3,1(a5)
	slli	a3,a3,8
	or	a4,a3,a4
	lbu	a5,2(a5)
	slli	a5,a5,16
	or	a5,a5,a4
	sext.w	a5,a5
	mv	a2,a5
	.loc 1 1404 76
	ld	a5,-80(s0)
	ld	a5,8(a5)
	.loc 1 1404 90
	lbu	a4,4(a5)
	lbu	a3,5(a5)
	slli	a3,a3,8
	or	a4,a3,a4
	lbu	a3,6(a5)
	slli	a3,a3,16
	or	a4,a3,a4
	lbu	a5,7(a5)
	slli	a5,a5,24
	or	a5,a5,a4
	sext.w	a5,a5
	.loc 1 1404 16
	subw	a5,a2,a5
	sw	a5,-124(s0)
	.loc 1 1406 6
	ld	a5,-232(s0)
	bne	a5,zero,.L176
	.loc 1 1410 30
	ld	a0,-224(s0)
	call	StrSize@plt
	mv	a5,a0
	.loc 1 1410 21 discriminator 1
	sext.w	a5,a5
	.loc 1 1410 19 discriminator 1
	addiw	a5,a5,1
	sw	a5,-116(s0)
	.loc 1 1413 59
	lw	a5,-124(s0)
	mv	a4,a5
	lw	a5,-116(s0)
	addw	a5,a4,a5
	sext.w	a5,a5
	.loc 1 1413 28
	slli	a5,a5,32
	srli	a5,a5,32
	mv	a0,a5
	call	AllocateZeroPool@plt
	sd	a0,-144(s0)
	.loc 1 1414 8
	ld	a5,-144(s0)
	bne	a5,zero,.L177
	.loc 1 1415 14
	li	a5,-1
	slli	a5,a5,63
	addi	a5,a5,9
	sd	a5,-40(s0)
	.loc 1 1416 7
	j	.L160
.L177:
	.loc 1 1422 40
	ld	a5,-80(s0)
	ld	a4,16(a5)
	.loc 1 1422 5
	lwu	a5,-124(s0)
	.loc 1 1422 68
	addi	a5,a5,-1
	.loc 1 1422 5
	mv	a2,a5
	mv	a1,a4
	ld	a0,-144(s0)
	call	CopyMem@plt
	.loc 1 1426 43
	lwu	a5,-124(s0)
	addi	a5,a5,-1
	.loc 1 1426 14
	ld	a4,-144(s0)
	add	a5,a4,a5
	sd	a5,-88(s0)
	.loc 1 1427 15
	ld	a5,-88(s0)
	li	a4,20
	sb	a4,0(a5)
	.loc 1 1428 14
	ld	a5,-88(s0)
	addi	a5,a5,1
	sd	a5,-88(s0)
	.loc 1 1429 5
	ld	a0,-224(s0)
	call	StrSize@plt
	mv	a5,a0
	.loc 1 1429 5 is_stmt 0 discriminator 1
	mv	a2,a5
	ld	a1,-224(s0)
	ld	a0,-88(s0)
	call	CopyMem@plt
	.loc 1 1430 17 is_stmt 1
	ld	a0,-224(s0)
	call	StrSize@plt
	mv	a4,a0
	.loc 1 1430 14 discriminator 1
	ld	a5,-88(s0)
	add	a5,a5,a4
	sd	a5,-88(s0)
	.loc 1 1435 15
	ld	a5,-88(s0)
	sb	zero,0(a5)
	.loc 1 1436 27
	ld	a5,-80(s0)
	ld	a5,16(a5)
	.loc 1 1436 5
	lwu	a4,-124(s0)
	mv	a1,a4
	mv	a0,a5
	call	ZeroMem@plt
	.loc 1 1437 28
	ld	a5,-80(s0)
	ld	a5,16(a5)
	.loc 1 1437 5
	mv	a0,a5
	call	FreePool@plt
	.loc 1 1438 32
	ld	a5,-80(s0)
	ld	a4,-144(s0)
	sd	a4,16(a5)
	.loc 1 1439 18
	ld	a5,-80(s0)
	ld	a5,8(a5)
	.loc 1 1439 40
	lbu	a4,0(a5)
	lbu	a3,1(a5)
	slli	a3,a3,8
	or	a4,a3,a4
	lbu	a5,2(a5)
	slli	a5,a5,16
	or	a5,a5,a4
	sext.w	a5,a5
	.loc 1 1439 48
	lw	a4,-116(s0)
	addw	a5,a4,a5
	sext.w	a3,a5
	.loc 1 1439 18
	ld	a5,-80(s0)
	ld	a5,8(a5)
	.loc 1 1439 48
	li	a4,16777216
	addi	a4,a4,-1
	and	a4,a3,a4
	sext.w	a4,a4
	slli	a3,a4,32
	srli	a3,a3,32
	andi	a3,a3,255
	lbu	a2,0(a5)
	andi	a2,a2,0
	or	a3,a2,a3
	sb	a3,0(a5)
	srliw	a3,a4,8
	slli	a3,a3,32
	srli	a3,a3,32
	andi	a3,a3,255
	lbu	a2,1(a5)
	andi	a2,a2,0
	or	a3,a2,a3
	sb	a3,1(a5)
	srliw	a4,a4,16
	slli	a4,a4,32
	srli	a4,a4,32
	andi	a4,a4,255
	lbu	a3,2(a5)
	andi	a3,a3,0
	or	a4,a3,a4
	sb	a4,2(a5)
	.loc 1 1440 36
	ld	a5,-72(s0)
	lw	a5,16(a5)
	.loc 1 1440 51
	lw	a4,-116(s0)
	addw	a5,a4,a5
	sext.w	a4,a5
	ld	a5,-72(s0)
	sw	a4,16(a5)
	j	.L160
.L176:
	.loc 1 1448 34
	ld	a0,-224(s0)
	call	StrSize@plt
	mv	a5,a0
	.loc 1 1448 25 discriminator 1
	sext.w	a5,a5
	.loc 1 1448 23 discriminator 1
	addiw	a5,a5,2
	sw	a5,-128(s0)
	.loc 1 1450 9
	ld	a5,-80(s0)
	lbu	a2,56(a5)
	ld	a4,-168(s0)
	addi	a5,s0,-160
	li	a3,0
	ld	a1,-80(s0)
	ld	a0,-56(s0)
	call	ReferFontInfoLocally
	mv	a5,a0
	.loc 1 1450 8 discriminator 1
	beq	a5,zero,.L178
	.loc 1 1454 61
	lw	a5,-124(s0)
	mv	a4,a5
	lw	a5,-128(s0)
	addw	a5,a4,a5
	sext.w	a5,a5
	.loc 1 1454 30
	slli	a5,a5,32
	srli	a5,a5,32
	mv	a0,a5
	call	AllocateZeroPool@plt
	sd	a0,-144(s0)
	.loc 1 1455 10
	ld	a5,-144(s0)
	bne	a5,zero,.L179
	.loc 1 1456 16
	li	a5,-1
	slli	a5,a5,63
	addi	a5,a5,9
	sd	a5,-40(s0)
	.loc 1 1457 9
	j	.L160
.L179:
	.loc 1 1463 42
	ld	a5,-80(s0)
	ld	a4,16(a5)
	.loc 1 1463 7
	lwu	a5,-124(s0)
	.loc 1 1463 70
	addi	a5,a5,-1
	.loc 1 1463 7
	mv	a2,a5
	mv	a1,a4
	ld	a0,-144(s0)
	call	CopyMem@plt
	.loc 1 1467 45
	lwu	a5,-124(s0)
	addi	a5,a5,-1
	.loc 1 1467 16
	ld	a4,-144(s0)
	add	a5,a4,a5
	sd	a5,-88(s0)
	.loc 1 1468 17
	ld	a5,-88(s0)
	li	a4,21
	sb	a4,0(a5)
	.loc 1 1469 16
	ld	a5,-88(s0)
	addi	a5,a5,1
	sd	a5,-88(s0)
	.loc 1 1470 28
	ld	a5,-160(s0)
	lbu	a4,32(a5)
	.loc 1 1470 17
	ld	a5,-88(s0)
	sb	a4,0(a5)
	.loc 1 1471 15
	ld	a5,-88(s0)
	addi	a5,a5,1
	sd	a5,-88(s0)
	.loc 1 1472 7
	ld	a0,-224(s0)
	call	StrSize@plt
	mv	a5,a0
	.loc 1 1472 7 is_stmt 0 discriminator 1
	mv	a2,a5
	ld	a1,-224(s0)
	ld	a0,-88(s0)
	call	CopyMem@plt
	.loc 1 1473 19 is_stmt 1
	ld	a0,-224(s0)
	call	StrSize@plt
	mv	a4,a0
	.loc 1 1473 16 discriminator 1
	ld	a5,-88(s0)
	add	a5,a5,a4
	sd	a5,-88(s0)
	.loc 1 1478 17
	ld	a5,-88(s0)
	sb	zero,0(a5)
	.loc 1 1479 29
	ld	a5,-80(s0)
	ld	a5,16(a5)
	.loc 1 1479 7
	lwu	a4,-124(s0)
	mv	a1,a4
	mv	a0,a5
	call	ZeroMem@plt
	.loc 1 1480 30
	ld	a5,-80(s0)
	ld	a5,16(a5)
	.loc 1 1480 7
	mv	a0,a5
	call	FreePool@plt
	.loc 1 1481 34
	ld	a5,-80(s0)
	ld	a4,-144(s0)
	sd	a4,16(a5)
	.loc 1 1482 20
	ld	a5,-80(s0)
	ld	a5,8(a5)
	.loc 1 1482 42
	lbu	a4,0(a5)
	lbu	a3,1(a5)
	slli	a3,a3,8
	or	a4,a3,a4
	lbu	a5,2(a5)
	slli	a5,a5,16
	or	a5,a5,a4
	sext.w	a5,a5
	.loc 1 1482 50
	lw	a4,-128(s0)
	addw	a5,a4,a5
	sext.w	a3,a5
	.loc 1 1482 20
	ld	a5,-80(s0)
	ld	a5,8(a5)
	.loc 1 1482 50
	li	a4,16777216
	addi	a4,a4,-1
	and	a4,a3,a4
	sext.w	a4,a4
	slli	a3,a4,32
	srli	a3,a3,32
	andi	a3,a3,255
	lbu	a2,0(a5)
	andi	a2,a2,0
	or	a3,a2,a3
	sb	a3,0(a5)
	srliw	a3,a4,8
	slli	a3,a3,32
	srli	a3,a3,32
	andi	a3,a3,255
	lbu	a2,1(a5)
	andi	a2,a2,0
	or	a3,a2,a3
	sb	a3,1(a5)
	srliw	a4,a4,16
	slli	a4,a4,32
	srli	a4,a4,32
	andi	a4,a4,255
	lbu	a3,2(a5)
	andi	a3,a3,0
	or	a4,a3,a4
	sb	a4,2(a5)
	.loc 1 1483 38
	ld	a5,-72(s0)
	lw	a5,16(a5)
	.loc 1 1483 53
	lw	a4,-128(s0)
	addw	a5,a4,a5
	sext.w	a4,a5
	ld	a5,-72(s0)
	sw	a4,16(a5)
	j	.L160
.L178:
	.loc 1 1490 74
	ld	a5,-232(s0)
	addi	a5,a5,6
	.loc 1 1490 32
	mv	a0,a5
	call	StrSize@plt
	mv	a5,a0
	.loc 1 1490 23 discriminator 1
	sext.w	a5,a5
	.loc 1 1490 21 discriminator 1
	addiw	a5,a5,11
	sw	a5,-132(s0)
	.loc 1 1492 61
	lw	a5,-124(s0)
	mv	a4,a5
	lw	a5,-132(s0)
	addw	a5,a4,a5
	sext.w	a5,a5
	.loc 1 1492 77
	lw	a4,-128(s0)
	addw	a5,a4,a5
	sext.w	a5,a5
	.loc 1 1492 30
	slli	a5,a5,32
	srli	a5,a5,32
	mv	a0,a5
	call	AllocateZeroPool@plt
	sd	a0,-144(s0)
	.loc 1 1493 10
	ld	a5,-144(s0)
	bne	a5,zero,.L180
	.loc 1 1494 16
	li	a5,-1
	slli	a5,a5,63
	addi	a5,a5,9
	sd	a5,-40(s0)
	.loc 1 1495 9
	j	.L160
.L180:
	.loc 1 1501 42
	ld	a5,-80(s0)
	ld	a4,16(a5)
	.loc 1 1501 7
	lwu	a5,-124(s0)
	.loc 1 1501 70
	addi	a5,a5,-1
	.loc 1 1501 7
	mv	a2,a5
	mv	a1,a4
	ld	a0,-144(s0)
	call	CopyMem@plt
	.loc 1 1507 45
	lwu	a5,-124(s0)
	addi	a5,a5,-1
	.loc 1 1507 16
	ld	a4,-144(s0)
	add	a5,a4,a5
	sd	a5,-88(s0)
	.loc 1 1509 29
	li	a5,49
	sb	a5,-152(s0)
	.loc 1 1510 23
	li	a5,64
	sb	a5,-151(s0)
	.loc 1 1511 21
	lw	a5,-132(s0)
	slli	a5,a5,48
	srli	a5,a5,48
	.loc 1 1511 19
	sh	a5,-150(s0)
	.loc 1 1512 7
	addi	a5,s0,-152
	li	a2,4
	mv	a1,a5
	ld	a0,-88(s0)
	call	CopyMem@plt
	.loc 1 1513 16
	ld	a5,-88(s0)
	addi	a5,a5,4
	sd	a5,-88(s0)
	.loc 1 1515 28
	ld	a5,-160(s0)
	lbu	a4,32(a5)
	.loc 1 1515 17
	ld	a5,-88(s0)
	sb	a4,0(a5)
	.loc 1 1516 15
	ld	a5,-88(s0)
	addi	a5,a5,1
	sd	a5,-88(s0)
	.loc 1 1517 26
	ld	a5,-232(s0)
	addi	a5,a5,4
	.loc 1 1517 7
	li	a2,2
	mv	a1,a5
	ld	a0,-88(s0)
	call	CopyMem@plt
	.loc 1 1518 16
	ld	a5,-88(s0)
	addi	a5,a5,2
	sd	a5,-88(s0)
	.loc 1 1519 26
	ld	a5,-232(s0)
	.loc 1 1519 7
	li	a2,4
	mv	a1,a5
	ld	a0,-88(s0)
	call	CopyMem@plt
	.loc 1 1520 16
	ld	a5,-88(s0)
	addi	a5,a5,4
	sd	a5,-88(s0)
	.loc 1 1523 9
	ld	a5,-232(s0)
	addi	s1,a5,6
	.loc 1 1524 51
	ld	a5,-232(s0)
	addi	a5,a5,6
	.loc 1 1521 7
	mv	a0,a5
	call	StrSize@plt
	mv	a5,a0
	.loc 1 1521 7 is_stmt 0 discriminator 1
	mv	a2,a5
	mv	a1,s1
	ld	a0,-88(s0)
	call	CopyMem@plt
	.loc 1 1526 61 is_stmt 1
	ld	a5,-232(s0)
	addi	a5,a5,6
	.loc 1 1526 19
	mv	a0,a5
	call	StrSize@plt
	mv	a4,a0
	.loc 1 1526 16 discriminator 1
	ld	a5,-88(s0)
	add	a5,a5,a4
	sd	a5,-88(s0)
	.loc 1 1530 17
	ld	a5,-88(s0)
	li	a4,21
	sb	a4,0(a5)
	.loc 1 1531 16
	ld	a5,-88(s0)
	addi	a5,a5,1
	sd	a5,-88(s0)
	.loc 1 1532 28
	ld	a5,-160(s0)
	lbu	a4,32(a5)
	.loc 1 1532 17
	ld	a5,-88(s0)
	sb	a4,0(a5)
	.loc 1 1533 15
	ld	a5,-88(s0)
	addi	a5,a5,1
	sd	a5,-88(s0)
	.loc 1 1534 7
	ld	a0,-224(s0)
	call	StrSize@plt
	mv	a5,a0
	.loc 1 1534 7 is_stmt 0 discriminator 1
	mv	a2,a5
	ld	a1,-224(s0)
	ld	a0,-88(s0)
	call	CopyMem@plt
	.loc 1 1535 19 is_stmt 1
	ld	a0,-224(s0)
	call	StrSize@plt
	mv	a4,a0
	.loc 1 1535 16 discriminator 1
	ld	a5,-88(s0)
	add	a5,a5,a4
	sd	a5,-88(s0)
	.loc 1 1540 17
	ld	a5,-88(s0)
	sb	zero,0(a5)
	.loc 1 1541 29
	ld	a5,-80(s0)
	ld	a5,16(a5)
	.loc 1 1541 7
	lwu	a4,-124(s0)
	mv	a1,a4
	mv	a0,a5
	call	ZeroMem@plt
	.loc 1 1542 30
	ld	a5,-80(s0)
	ld	a5,16(a5)
	.loc 1 1542 7
	mv	a0,a5
	call	FreePool@plt
	.loc 1 1543 34
	ld	a5,-80(s0)
	ld	a4,-144(s0)
	sd	a4,16(a5)
	.loc 1 1544 20
	ld	a5,-80(s0)
	ld	a5,8(a5)
	.loc 1 1544 42
	lbu	a4,0(a5)
	lbu	a3,1(a5)
	slli	a3,a3,8
	or	a4,a3,a4
	lbu	a5,2(a5)
	slli	a5,a5,16
	or	a5,a5,a4
	sext.w	a5,a5
	mv	a4,a5
	.loc 1 1544 67
	lw	a5,-132(s0)
	mv	a3,a5
	lw	a5,-128(s0)
	addw	a5,a3,a5
	sext.w	a5,a5
	.loc 1 1544 50
	addw	a5,a4,a5
	sext.w	a3,a5
	.loc 1 1544 20
	ld	a5,-80(s0)
	ld	a5,8(a5)
	.loc 1 1544 50
	li	a4,16777216
	addi	a4,a4,-1
	and	a4,a3,a4
	sext.w	a4,a4
	slli	a3,a4,32
	srli	a3,a3,32
	andi	a3,a3,255
	lbu	a2,0(a5)
	andi	a2,a2,0
	or	a3,a2,a3
	sb	a3,0(a5)
	srliw	a3,a4,8
	slli	a3,a3,32
	srli	a3,a3,32
	andi	a3,a3,255
	lbu	a2,1(a5)
	andi	a2,a2,0
	or	a3,a2,a3
	sb	a3,1(a5)
	srliw	a4,a4,16
	slli	a4,a4,32
	srli	a4,a4,32
	andi	a4,a4,255
	lbu	a3,2(a5)
	andi	a3,a3,0
	or	a4,a3,a4
	sb	a4,2(a5)
	.loc 1 1545 38
	ld	a5,-72(s0)
	lw	a4,16(a5)
	.loc 1 1545 70
	lw	a5,-132(s0)
	mv	a3,a5
	lw	a5,-128(s0)
	addw	a5,a3,a5
	sext.w	a5,a5
	.loc 1 1545 53
	addw	a5,a4,a5
	sext.w	a4,a5
	ld	a5,-72(s0)
	sw	a4,16(a5)
	.loc 1 1551 20
	ld	a5,-80(s0)
	lbu	a5,56(a5)
	.loc 1 1551 28
	addiw	a5,a5,1
	andi	a4,a5,0xff
	ld	a5,-80(s0)
	sb	a4,56(a5)
	j	.L160
.L190:
	.loc 1 1254 7
	nop
.L160:
	.loc 1 1556 7
	ld	a5,-40(s0)
	.loc 1 1556 6
	blt	a5,zero,.L181
	.loc 1 1556 61 discriminator 1
	lbu	a5,-105(s0)
	andi	a5,a5,0xff
	beq	a5,zero,.L181
	.loc 1 1560 14
	ld	a4,-192(s0)
	li	a3,4
	ld	a2,-80(s0)
	li	a1,1
	ld	a0,-56(s0)
	call	InvokeRegisteredFunction@plt
	sd	a0,-40(s0)
.L181:
	.loc 1 1569 7
	ld	a5,-40(s0)
	.loc 1 1569 6
	blt	a5,zero,.L182
	.loc 1 1573 15
	ld	a5,-72(s0)
	ld	a5,72(a5)
	sd	a5,-48(s0)
	.loc 1 1573 5
	j	.L183
.L186:
	.loc 1 1578 25
	ld	a5,-48(s0)
	addi	a5,a5,-24
	.loc 1 1578 158
	ld	a4,0(a5)
	.loc 1 1578 243
	li	a5,1886613504
	addi	a5,a5,-1688
	bne	a4,a5,.L184
	.loc 1 1578 21 discriminator 1
	ld	a5,-48(s0)
	addi	a5,a5,-24
	sd	a5,-80(s0)
	j	.L185
.L184:
	.loc 1 1578 21 is_stmt 0 discriminator 2
	sd	zero,-80(s0)
.L185:
	.loc 1 1579 36 is_stmt 1
	ld	a5,-200(s0)
	lhu	a4,0(a5)
	.loc 1 1579 34
	ld	a5,-80(s0)
	sh	a4,58(a5)
	.loc 1 1575 15
	ld	a5,-48(s0)
	ld	a5,0(a5)
	sd	a5,-48(s0)
.L183:
	.loc 1 1574 18
	ld	a5,-72(s0)
	addi	a5,a5,72
	.loc 1 1574 15
	ld	a4,-48(s0)
	bne	a4,a5,.L186
	j	.L187
.L182:
	.loc 1 1581 13
	lbu	a5,-105(s0)
	andi	a5,a5,0xff
	beq	a5,zero,.L187
	.loc 1 1585 22
	ld	a5,-80(s0)
	addi	a5,a5,24
	.loc 1 1585 5
	mv	a0,a5
	call	RemoveEntryList@plt
	.loc 1 1586 28
	ld	a5,-80(s0)
	ld	a5,16(a5)
	.loc 1 1586 5
	mv	a0,a5
	call	FreePool@plt
	.loc 1 1587 28
	ld	a5,-80(s0)
	ld	a5,8(a5)
	.loc 1 1587 5
	mv	a0,a5
	call	FreePool@plt
	.loc 1 1588 5
	ld	a0,-80(s0)
	call	FreePool@plt
.L187:
	.loc 1 1598 7
	la	a5,gExportAfterReadyToBoot
	lbu	a5,0(a5)
	.loc 1 1598 6
	beq	a5,zero,.L188
	.loc 1 1599 9
	ld	a5,-40(s0)
	.loc 1 1599 8
	blt	a5,zero,.L188
	.loc 1 1600 27
	ld	a5,-56(s0)
	addi	a5,a5,200
	.loc 1 1600 7
	mv	a0,a5
	call	HiiGetDatabaseInfo@plt
.L188:
	.loc 1 1604 3
	la	a0,mHiiDatabaseLock
	call	EfiReleaseLock@plt
	.loc 1 1606 10
	ld	a5,-40(s0)
.L189:
	.loc 1 1607 1
	mv	a0,a5
	ld	ra,232(sp)
	.cfi_restore 1
	ld	s0,224(sp)
	.cfi_restore 8
	.cfi_def_cfa 2, 240
	ld	s1,216(sp)
	.cfi_restore 9
	addi	sp,sp,240
	.cfi_def_cfa_offset 0
	jr	ra
	.cfi_endproc
.LFE8:
	.size	HiiNewString, .-HiiNewString
	.section	.text.HiiGetString,"ax",@progbits
	.align	1
	.globl	HiiGetString
	.type	HiiGetString, @function
HiiGetString:
.LFB9:
	.loc 1 1653 1
	.cfi_startproc
	addi	sp,sp,-128
	.cfi_def_cfa_offset 128
	sd	ra,120(sp)
	sd	s0,112(sp)
	.cfi_offset 1, -8
	.cfi_offset 8, -16
	addi	s0,sp,128
	.cfi_def_cfa 8, 0
	sd	a0,-72(s0)
	sd	a1,-80(s0)
	sd	a2,-88(s0)
	sd	a4,-104(s0)
	sd	a5,-112(s0)
	sd	a6,-120(s0)
	mv	a5,a3
	sh	a5,-90(s0)
	.loc 1 1661 6
	ld	a5,-72(s0)
	beq	a5,zero,.L192
	.loc 1 1661 30 discriminator 1
	ld	a5,-80(s0)
	beq	a5,zero,.L192
	.loc 1 1661 60 discriminator 2
	lhu	a5,-90(s0)
	sext.w	a5,a5
	beq	a5,zero,.L192
	.loc 1 1661 78 discriminator 3
	ld	a5,-112(s0)
	beq	a5,zero,.L192
	.loc 1 1661 110 discriminator 4
	ld	a5,-88(s0)
	bne	a5,zero,.L193
.L192:
	.loc 1 1662 12
	li	a5,-1
	slli	a5,a5,63
	addi	a5,a5,2
	j	.L194
.L193:
	.loc 1 1665 6
	ld	a5,-104(s0)
	bne	a5,zero,.L195
	.loc 1 1665 36 discriminator 1
	ld	a5,-112(s0)
	ld	a5,0(a5)
	.loc 1 1665 32 discriminator 1
	beq	a5,zero,.L195
	.loc 1 1666 12
	li	a5,-1
	slli	a5,a5,63
	addi	a5,a5,2
	j	.L194
.L195:
	.loc 1 1669 8
	ld	a0,-88(s0)
	call	IsHiiHandleValid@plt
	mv	a5,a0
	.loc 1 1669 6 discriminator 1
	bne	a5,zero,.L196
	.loc 1 1670 12
	li	a5,-1
	slli	a5,a5,63
	addi	a5,a5,14
	j	.L194
.L196:
	.loc 1 1673 15
	ld	a5,-72(s0)
	addi	a5,a5,-160
	.loc 1 1673 142
	ld	a4,0(a5)
	.loc 1 1673 227
	li	a5,1883533312
	addi	a5,a5,-1720
	bne	a4,a5,.L197
	.loc 1 1673 11 discriminator 1
	ld	a5,-72(s0)
	addi	a5,a5,-160
	sd	a5,-32(s0)
	j	.L198
.L197:
	.loc 1 1673 11 is_stmt 0 discriminator 2
	sd	zero,-32(s0)
.L198:
	.loc 1 1674 19 is_stmt 1
	sd	zero,-48(s0)
	.loc 1 1676 13
	ld	a5,-32(s0)
	ld	a5,8(a5)
	sd	a5,-24(s0)
	.loc 1 1676 3
	j	.L199
.L204:
	.loc 1 1677 24
	ld	a5,-24(s0)
	addi	a5,a5,-32
	.loc 1 1677 143
	ld	a4,0(a5)
	.loc 1 1677 228
	li	a5,1919184896
	addi	a5,a5,-1688
	bne	a4,a5,.L200
	.loc 1 1677 20 discriminator 1
	ld	a5,-24(s0)
	addi	a5,a5,-32
	sd	a5,-40(s0)
	j	.L201
.L200:
	.loc 1 1677 20 is_stmt 0 discriminator 2
	sd	zero,-40(s0)
.L201:
	.loc 1 1678 23 is_stmt 1
	ld	a5,-40(s0)
	ld	a5,24(a5)
	.loc 1 1678 8
	ld	a4,-88(s0)
	bne	a4,a5,.L202
	.loc 1 1679 23
	ld	a5,-40(s0)
	ld	a5,8(a5)
	sd	a5,-48(s0)
	.loc 1 1680 7
	j	.L203
.L202:
	.loc 1 1676 87 discriminator 2
	ld	a5,-24(s0)
	ld	a5,0(a5)
	sd	a5,-24(s0)
.L199:
	.loc 1 1676 58 discriminator 1
	ld	a5,-32(s0)
	addi	a5,a5,8
	.loc 1 1676 55 discriminator 1
	ld	a4,-24(s0)
	bne	a4,a5,.L204
.L203:
	.loc 1 1684 6
	ld	a5,-48(s0)
	beq	a5,zero,.L205
	.loc 1 1688 15
	ld	a5,-48(s0)
	ld	a5,72(a5)
	sd	a5,-24(s0)
	.loc 1 1688 5
	j	.L206
.L210:
	.loc 1 1693 25
	ld	a5,-24(s0)
	addi	a5,a5,-24
	.loc 1 1693 158
	ld	a4,0(a5)
	.loc 1 1693 243
	li	a5,1886613504
	addi	a5,a5,-1688
	bne	a4,a5,.L207
	.loc 1 1693 21 discriminator 1
	ld	a5,-24(s0)
	addi	a5,a5,-24
	sd	a5,-56(s0)
	j	.L208
.L207:
	.loc 1 1693 21 is_stmt 0 discriminator 2
	sd	zero,-56(s0)
.L208:
	.loc 1 1694 44 is_stmt 1
	ld	a5,-56(s0)
	ld	a5,8(a5)
	.loc 1 1694 58
	addi	a5,a5,46
	.loc 1 1694 11
	ld	a1,-80(s0)
	mv	a0,a5
	call	HiiCompareLanguage
	mv	a5,a0
	.loc 1 1694 10 discriminator 1
	beq	a5,zero,.L209
	.loc 1 1695 18
	lhu	a2,-90(s0)
	ld	a5,-120(s0)
	ld	a4,-112(s0)
	ld	a3,-104(s0)
	ld	a1,-56(s0)
	ld	a0,-32(s0)
	call	GetStringWorker
	sd	a0,-64(s0)
	.loc 1 1696 12
	ld	a4,-64(s0)
	li	a5,-1
	slli	a5,a5,63
	addi	a5,a5,14
	beq	a4,a5,.L209
	.loc 1 1697 18
	ld	a5,-64(s0)
	j	.L194
.L209:
	.loc 1 1690 15
	ld	a5,-24(s0)
	ld	a5,0(a5)
	sd	a5,-24(s0)
.L206:
	.loc 1 1689 18
	ld	a5,-48(s0)
	addi	a5,a5,72
	.loc 1 1689 15
	ld	a4,-24(s0)
	bne	a4,a5,.L210
	.loc 1 1705 15
	ld	a5,-48(s0)
	ld	a5,72(a5)
	sd	a5,-24(s0)
	.loc 1 1705 5
	j	.L211
.L215:
	.loc 1 1710 25
	ld	a5,-24(s0)
	addi	a5,a5,-24
	.loc 1 1710 158
	ld	a4,0(a5)
	.loc 1 1710 243
	li	a5,1886613504
	addi	a5,a5,-1688
	bne	a4,a5,.L212
	.loc 1 1710 21 discriminator 1
	ld	a5,-24(s0)
	addi	a5,a5,-24
	sd	a5,-56(s0)
	j	.L213
.L212:
	.loc 1 1710 21 is_stmt 0 discriminator 2
	sd	zero,-56(s0)
.L213:
	.loc 1 1711 16 is_stmt 1
	lhu	a2,-90(s0)
	li	a5,0
	li	a4,0
	li	a3,0
	ld	a1,-56(s0)
	ld	a0,-32(s0)
	call	GetStringWorker
	sd	a0,-64(s0)
	.loc 1 1712 11
	ld	a5,-64(s0)
	.loc 1 1712 10
	blt	a5,zero,.L214
	.loc 1 1713 16
	li	a5,-1
	slli	a5,a5,63
	addi	a5,a5,32
	j	.L194
.L214:
	.loc 1 1707 15
	ld	a5,-24(s0)
	ld	a5,0(a5)
	sd	a5,-24(s0)
.L211:
	.loc 1 1706 18
	ld	a5,-48(s0)
	addi	a5,a5,72
	.loc 1 1706 15
	ld	a4,-24(s0)
	bne	a4,a5,.L215
.L205:
	.loc 1 1718 10
	li	a5,-1
	slli	a5,a5,63
	addi	a5,a5,14
.L194:
	.loc 1 1719 1
	mv	a0,a5
	ld	ra,120(sp)
	.cfi_restore 1
	ld	s0,112(sp)
	.cfi_restore 8
	.cfi_def_cfa 2, 128
	addi	sp,sp,128
	.cfi_def_cfa_offset 0
	jr	ra
	.cfi_endproc
.LFE9:
	.size	HiiGetString, .-HiiGetString
	.section	.text.HiiSetString,"ax",@progbits
	.align	1
	.globl	HiiSetString
	.type	HiiSetString, @function
HiiSetString:
.LFB10:
	.loc 1 1754 1
	.cfi_startproc
	addi	sp,sp,-128
	.cfi_def_cfa_offset 128
	sd	ra,120(sp)
	sd	s0,112(sp)
	.cfi_offset 1, -8
	.cfi_offset 8, -16
	addi	s0,sp,128
	.cfi_def_cfa 8, 0
	sd	a0,-88(s0)
	sd	a1,-96(s0)
	sd	a3,-112(s0)
	sd	a4,-120(s0)
	sd	a5,-128(s0)
	mv	a5,a2
	sh	a5,-98(s0)
	.loc 1 1763 6
	ld	a5,-88(s0)
	beq	a5,zero,.L217
	.loc 1 1763 30 discriminator 1
	ld	a5,-112(s0)
	beq	a5,zero,.L217
	.loc 1 1763 60 discriminator 2
	lhu	a5,-98(s0)
	sext.w	a5,a5
	beq	a5,zero,.L217
	.loc 1 1763 78 discriminator 3
	ld	a5,-120(s0)
	beq	a5,zero,.L217
	.loc 1 1763 106 discriminator 4
	ld	a5,-96(s0)
	bne	a5,zero,.L218
.L217:
	.loc 1 1764 12
	li	a5,-1
	slli	a5,a5,63
	addi	a5,a5,2
	j	.L219
.L218:
	.loc 1 1767 8
	ld	a0,-96(s0)
	call	IsHiiHandleValid@plt
	mv	a5,a0
	.loc 1 1767 6 discriminator 1
	bne	a5,zero,.L220
	.loc 1 1768 12
	li	a5,-1
	slli	a5,a5,63
	addi	a5,a5,14
	j	.L219
.L220:
	.loc 1 1771 3
	la	a0,mHiiDatabaseLock
	call	EfiAcquireLock@plt
	.loc 1 1773 15
	ld	a5,-88(s0)
	addi	a5,a5,-160
	.loc 1 1773 142
	ld	a4,0(a5)
	.loc 1 1773 227
	li	a5,1883533312
	addi	a5,a5,-1720
	bne	a4,a5,.L221
	.loc 1 1773 11 discriminator 1
	ld	a5,-88(s0)
	addi	a5,a5,-160
	sd	a5,-32(s0)
	j	.L222
.L221:
	.loc 1 1773 11 is_stmt 0 discriminator 2
	sd	zero,-32(s0)
.L222:
	.loc 1 1774 19 is_stmt 1
	sd	zero,-48(s0)
	.loc 1 1776 13
	ld	a5,-32(s0)
	ld	a5,8(a5)
	sd	a5,-24(s0)
	.loc 1 1776 3
	j	.L223
.L227:
	.loc 1 1777 24
	ld	a5,-24(s0)
	addi	a5,a5,-32
	.loc 1 1777 143
	ld	a4,0(a5)
	.loc 1 1777 228
	li	a5,1919184896
	addi	a5,a5,-1688
	bne	a4,a5,.L224
	.loc 1 1777 20 discriminator 1
	ld	a5,-24(s0)
	addi	a5,a5,-32
	sd	a5,-40(s0)
	j	.L225
.L224:
	.loc 1 1777 20 is_stmt 0 discriminator 2
	sd	zero,-40(s0)
.L225:
	.loc 1 1778 23 is_stmt 1
	ld	a5,-40(s0)
	ld	a5,24(a5)
	.loc 1 1778 8
	ld	a4,-96(s0)
	bne	a4,a5,.L226
	.loc 1 1779 23
	ld	a5,-40(s0)
	ld	a5,8(a5)
	sd	a5,-48(s0)
.L226:
	.loc 1 1776 87 discriminator 2
	ld	a5,-24(s0)
	ld	a5,0(a5)
	sd	a5,-24(s0)
.L223:
	.loc 1 1776 58 discriminator 1
	ld	a5,-32(s0)
	addi	a5,a5,8
	.loc 1 1776 55 discriminator 1
	ld	a4,-24(s0)
	bne	a4,a5,.L227
	.loc 1 1783 6
	ld	a5,-48(s0)
	beq	a5,zero,.L228
	.loc 1 1784 15
	ld	a5,-48(s0)
	ld	a5,72(a5)
	sd	a5,-24(s0)
	.loc 1 1784 5
	j	.L229
.L235:
	.loc 1 1789 25
	ld	a5,-24(s0)
	addi	a5,a5,-24
	.loc 1 1789 158
	ld	a4,0(a5)
	.loc 1 1789 243
	li	a5,1886613504
	addi	a5,a5,-1688
	bne	a4,a5,.L230
	.loc 1 1789 21 discriminator 1
	ld	a5,-24(s0)
	addi	a5,a5,-24
	sd	a5,-56(s0)
	j	.L231
.L230:
	.loc 1 1789 21 is_stmt 0 discriminator 2
	sd	zero,-56(s0)
.L231:
	.loc 1 1790 44 is_stmt 1
	ld	a5,-56(s0)
	ld	a5,8(a5)
	.loc 1 1790 58
	addi	a5,a5,46
	.loc 1 1790 11
	ld	a1,-112(s0)
	mv	a0,a5
	call	HiiCompareLanguage
	mv	a5,a0
	.loc 1 1790 10 discriminator 1
	beq	a5,zero,.L232
	.loc 1 1791 38
	ld	a5,-56(s0)
	ld	a5,8(a5)
	.loc 1 1791 60
	lbu	a4,0(a5)
	lbu	a3,1(a5)
	slli	a3,a3,8
	or	a4,a3,a4
	lbu	a5,2(a5)
	slli	a5,a5,16
	or	a5,a5,a4
	sext.w	a5,a5
	.loc 1 1791 23
	sw	a5,-60(s0)
	.loc 1 1792 18
	lhu	a5,-98(s0)
	ld	a4,-128(s0)
	ld	a3,-120(s0)
	mv	a2,a5
	ld	a1,-56(s0)
	ld	a0,-32(s0)
	call	SetStringWorker
	sd	a0,-72(s0)
	.loc 1 1799 40
	ld	a5,-72(s0)
	.loc 1 1799 12
	bge	a5,zero,.L233
	.loc 1 1800 11
	la	a0,mHiiDatabaseLock
	call	EfiReleaseLock@plt
	.loc 1 1801 18
	ld	a5,-72(s0)
	j	.L219
.L233:
	.loc 1 1804 40
	ld	a5,-48(s0)
	lw	a4,16(a5)
	.loc 1 1804 71
	ld	a5,-56(s0)
	ld	a5,8(a5)
	.loc 1 1804 93
	lbu	a3,0(a5)
	lbu	a2,1(a5)
	slli	a2,a2,8
	or	a3,a2,a3
	lbu	a5,2(a5)
	slli	a5,a5,16
	or	a5,a5,a3
	sext.w	a5,a5
	mv	a3,a5
	.loc 1 1804 101
	lw	a5,-60(s0)
	subw	a5,a3,a5
	sext.w	a5,a5
	.loc 1 1804 55
	addw	a5,a4,a5
	sext.w	a4,a5
	ld	a5,-48(s0)
	sw	a4,16(a5)
	.loc 1 1809 13
	la	a5,gExportAfterReadyToBoot
	lbu	a5,0(a5)
	.loc 1 1809 12
	beq	a5,zero,.L234
	.loc 1 1810 31
	ld	a5,-32(s0)
	addi	a5,a5,200
	.loc 1 1810 11
	mv	a0,a5
	call	HiiGetDatabaseInfo@plt
.L234:
	.loc 1 1813 9
	la	a0,mHiiDatabaseLock
	call	EfiReleaseLock@plt
	.loc 1 1814 16
	li	a5,0
	j	.L219
.L232:
	.loc 1 1786 15
	ld	a5,-24(s0)
	ld	a5,0(a5)
	sd	a5,-24(s0)
.L229:
	.loc 1 1785 18
	ld	a5,-48(s0)
	addi	a5,a5,72
	.loc 1 1785 15
	ld	a4,-24(s0)
	bne	a4,a5,.L235
.L228:
	.loc 1 1819 3
	la	a0,mHiiDatabaseLock
	call	EfiReleaseLock@plt
	.loc 1 1820 10
	li	a5,-1
	slli	a5,a5,63
	addi	a5,a5,14
.L219:
	.loc 1 1821 1
	mv	a0,a5
	ld	ra,120(sp)
	.cfi_restore 1
	ld	s0,112(sp)
	.cfi_restore 8
	.cfi_def_cfa 2, 128
	addi	sp,sp,128
	.cfi_def_cfa_offset 0
	jr	ra
	.cfi_endproc
.LFE10:
	.size	HiiSetString, .-HiiSetString
	.section	.text.HiiGetLanguages,"ax",@progbits
	.align	1
	.globl	HiiGetLanguages
	.type	HiiGetLanguages, @function
HiiGetLanguages:
.LFB11:
	.loc 1 1853 1
	.cfi_startproc
	addi	sp,sp,-96
	.cfi_def_cfa_offset 96
	sd	ra,88(sp)
	sd	s0,80(sp)
	.cfi_offset 1, -8
	.cfi_offset 8, -16
	addi	s0,sp,96
	.cfi_def_cfa 8, 0
	sd	a0,-72(s0)
	sd	a1,-80(s0)
	sd	a2,-88(s0)
	sd	a3,-96(s0)
	.loc 1 1861 6
	ld	a5,-72(s0)
	beq	a5,zero,.L237
	.loc 1 1861 30 discriminator 1
	ld	a5,-96(s0)
	beq	a5,zero,.L237
	.loc 1 1861 65 discriminator 2
	ld	a5,-80(s0)
	bne	a5,zero,.L238
.L237:
	.loc 1 1862 12
	li	a5,-1
	slli	a5,a5,63
	addi	a5,a5,2
	j	.L239
.L238:
	.loc 1 1865 8
	ld	a5,-96(s0)
	ld	a5,0(a5)
	.loc 1 1865 6
	beq	a5,zero,.L240
	.loc 1 1865 29 discriminator 1
	ld	a5,-88(s0)
	bne	a5,zero,.L240
	.loc 1 1866 12
	li	a5,-1
	slli	a5,a5,63
	addi	a5,a5,2
	j	.L239
.L240:
	.loc 1 1869 8
	ld	a0,-80(s0)
	call	IsHiiHandleValid@plt
	mv	a5,a0
	.loc 1 1869 6 discriminator 1
	bne	a5,zero,.L241
	.loc 1 1870 12
	li	a5,-1
	slli	a5,a5,63
	addi	a5,a5,14
	j	.L239
.L241:
	.loc 1 1873 15
	ld	a5,-72(s0)
	addi	a5,a5,-160
	.loc 1 1873 142
	ld	a4,0(a5)
	.loc 1 1873 227
	li	a5,1883533312
	addi	a5,a5,-1720
	bne	a4,a5,.L242
	.loc 1 1873 11 discriminator 1
	ld	a5,-72(s0)
	addi	a5,a5,-160
	sd	a5,-32(s0)
	j	.L243
.L242:
	.loc 1 1873 11 is_stmt 0 discriminator 2
	sd	zero,-32(s0)
.L243:
	.loc 1 1875 19 is_stmt 1
	sd	zero,-48(s0)
	.loc 1 1876 13
	ld	a5,-32(s0)
	ld	a5,8(a5)
	sd	a5,-24(s0)
	.loc 1 1876 3
	j	.L244
.L249:
	.loc 1 1877 24
	ld	a5,-24(s0)
	addi	a5,a5,-32
	.loc 1 1877 143
	ld	a4,0(a5)
	.loc 1 1877 228
	li	a5,1919184896
	addi	a5,a5,-1688
	bne	a4,a5,.L245
	.loc 1 1877 20 discriminator 1
	ld	a5,-24(s0)
	addi	a5,a5,-32
	sd	a5,-40(s0)
	j	.L246
.L245:
	.loc 1 1877 20 is_stmt 0 discriminator 2
	sd	zero,-40(s0)
.L246:
	.loc 1 1878 23 is_stmt 1
	ld	a5,-40(s0)
	ld	a5,24(a5)
	.loc 1 1878 8
	ld	a4,-80(s0)
	bne	a4,a5,.L247
	.loc 1 1879 23
	ld	a5,-40(s0)
	ld	a5,8(a5)
	sd	a5,-48(s0)
	.loc 1 1880 7
	j	.L248
.L247:
	.loc 1 1876 87 discriminator 2
	ld	a5,-24(s0)
	ld	a5,0(a5)
	sd	a5,-24(s0)
.L244:
	.loc 1 1876 58 discriminator 1
	ld	a5,-32(s0)
	addi	a5,a5,8
	.loc 1 1876 55 discriminator 1
	ld	a4,-24(s0)
	bne	a4,a5,.L249
.L248:
	.loc 1 1884 6
	ld	a5,-48(s0)
	bne	a5,zero,.L250
	.loc 1 1885 12
	li	a5,-1
	slli	a5,a5,63
	addi	a5,a5,14
	j	.L239
.L250:
	.loc 1 1891 14
	sd	zero,-64(s0)
	.loc 1 1892 13
	ld	a5,-48(s0)
	ld	a5,72(a5)
	sd	a5,-24(s0)
	.loc 1 1892 3
	j	.L251
.L255:
	.loc 1 1897 23
	ld	a5,-24(s0)
	addi	a5,a5,-24
	.loc 1 1897 156
	ld	a4,0(a5)
	.loc 1 1897 241
	li	a5,1886613504
	addi	a5,a5,-1688
	bne	a4,a5,.L252
	.loc 1 1897 19 discriminator 1
	ld	a5,-24(s0)
	addi	a5,a5,-24
	sd	a5,-56(s0)
	j	.L253
.L252:
	.loc 1 1897 19 is_stmt 0 discriminator 2
	sd	zero,-56(s0)
.L253:
	.loc 1 1898 46 is_stmt 1
	ld	a5,-56(s0)
	ld	a5,8(a5)
	.loc 1 1898 60
	addi	a5,a5,46
	.loc 1 1898 19
	mv	a0,a5
	call	AsciiStrSize@plt
	mv	a4,a0
	.loc 1 1898 16 discriminator 1
	ld	a5,-64(s0)
	add	a5,a5,a4
	sd	a5,-64(s0)
	.loc 1 1899 23
	ld	a5,-96(s0)
	ld	a5,0(a5)
	.loc 1 1899 8
	ld	a4,-64(s0)
	bgtu	a4,a5,.L254
	.loc 1 1900 7
	ld	a5,-96(s0)
	ld	a4,0(a5)
	.loc 1 1900 78
	ld	a5,-56(s0)
	ld	a5,8(a5)
	.loc 1 1900 92
	addi	a5,a5,46
	.loc 1 1900 7
	mv	a2,a5
	mv	a1,a4
	ld	a0,-88(s0)
	call	AsciiStrCpyS@plt
	.loc 1 1901 47
	ld	a5,-56(s0)
	ld	a5,8(a5)
	.loc 1 1901 61
	addi	a5,a5,46
	.loc 1 1901 20
	mv	a0,a5
	call	AsciiStrSize@plt
	mv	a4,a0
	.loc 1 1901 17 discriminator 1
	ld	a5,-88(s0)
	add	a5,a5,a4
	sd	a5,-88(s0)
	.loc 1 1902 19
	ld	a5,-88(s0)
	addi	a5,a5,-1
	.loc 1 1902 24
	li	a4,59
	sb	a4,0(a5)
.L254:
	.loc 1 1894 13
	ld	a5,-24(s0)
	ld	a5,0(a5)
	sd	a5,-24(s0)
.L251:
	.loc 1 1893 16
	ld	a5,-48(s0)
	addi	a5,a5,72
	.loc 1 1893 13
	ld	a4,-24(s0)
	bne	a4,a5,.L255
	.loc 1 1906 6
	ld	a5,-64(s0)
	bne	a5,zero,.L256
	.loc 1 1907 12
	li	a5,-1
	slli	a5,a5,63
	addi	a5,a5,14
	j	.L239
.L256:
	.loc 1 1910 7
	ld	a5,-96(s0)
	ld	a5,0(a5)
	.loc 1 1910 6
	ld	a4,-64(s0)
	bleu	a4,a5,.L257
	.loc 1 1911 20
	ld	a5,-96(s0)
	ld	a4,-64(s0)
	sd	a4,0(a5)
	.loc 1 1912 12
	li	a5,-1
	slli	a5,a5,63
	addi	a5,a5,5
	j	.L239
.L257:
	.loc 1 1915 15
	ld	a5,-88(s0)
	addi	a5,a5,-1
	.loc 1 1915 20
	sb	zero,0(a5)
	.loc 1 1916 10
	li	a5,0
.L239:
	.loc 1 1917 1
	mv	a0,a5
	ld	ra,88(sp)
	.cfi_restore 1
	ld	s0,80(sp)
	.cfi_restore 8
	.cfi_def_cfa 2, 96
	addi	sp,sp,96
	.cfi_def_cfa_offset 0
	jr	ra
	.cfi_endproc
.LFE11:
	.size	HiiGetLanguages, .-HiiGetLanguages
	.section	.rodata
	.align	3
.LC0:
	.string	";"
	.section	.text.HiiGetSecondaryLanguages,"ax",@progbits
	.align	1
	.globl	HiiGetSecondaryLanguages
	.type	HiiGetSecondaryLanguages, @function
HiiGetSecondaryLanguages:
.LFB12:
	.loc 1 1961 1
	.cfi_startproc
	addi	sp,sp,-128
	.cfi_def_cfa_offset 128
	sd	ra,120(sp)
	sd	s0,112(sp)
	.cfi_offset 1, -8
	.cfi_offset 8, -16
	addi	s0,sp,128
	.cfi_def_cfa 8, 0
	sd	a0,-88(s0)
	sd	a1,-96(s0)
	sd	a2,-104(s0)
	sd	a3,-112(s0)
	sd	a4,-120(s0)
	.loc 1 1971 6
	ld	a5,-88(s0)
	beq	a5,zero,.L259
	.loc 1 1971 30 discriminator 1
	ld	a5,-96(s0)
	beq	a5,zero,.L259
	.loc 1 1971 63 discriminator 2
	ld	a5,-104(s0)
	beq	a5,zero,.L259
	.loc 1 1971 100 discriminator 3
	ld	a5,-120(s0)
	bne	a5,zero,.L260
.L259:
	.loc 1 1972 12
	li	a5,-1
	slli	a5,a5,63
	addi	a5,a5,2
	j	.L261
.L260:
	.loc 1 1975 6
	ld	a5,-112(s0)
	bne	a5,zero,.L262
	.loc 1 1975 48 discriminator 1
	ld	a5,-120(s0)
	ld	a5,0(a5)
	.loc 1 1975 44 discriminator 1
	beq	a5,zero,.L262
	.loc 1 1976 12
	li	a5,-1
	slli	a5,a5,63
	addi	a5,a5,2
	j	.L261
.L262:
	.loc 1 1979 8
	ld	a0,-96(s0)
	call	IsHiiHandleValid@plt
	mv	a5,a0
	.loc 1 1979 6 discriminator 1
	bne	a5,zero,.L263
	.loc 1 1980 12
	li	a5,-1
	slli	a5,a5,63
	addi	a5,a5,14
	j	.L261
.L263:
	.loc 1 1983 15
	ld	a5,-88(s0)
	addi	a5,a5,-160
	.loc 1 1983 142
	ld	a4,0(a5)
	.loc 1 1983 227
	li	a5,1883533312
	addi	a5,a5,-1720
	bne	a4,a5,.L264
	.loc 1 1983 11 discriminator 1
	ld	a5,-88(s0)
	addi	a5,a5,-160
	sd	a5,-40(s0)
	j	.L265
.L264:
	.loc 1 1983 11 is_stmt 0 discriminator 2
	sd	zero,-40(s0)
.L265:
	.loc 1 1985 19 is_stmt 1
	sd	zero,-56(s0)
	.loc 1 1986 13
	ld	a5,-40(s0)
	ld	a5,8(a5)
	sd	a5,-24(s0)
	.loc 1 1986 3
	j	.L266
.L271:
	.loc 1 1987 24
	ld	a5,-24(s0)
	addi	a5,a5,-32
	.loc 1 1987 143
	ld	a4,0(a5)
	.loc 1 1987 228
	li	a5,1919184896
	addi	a5,a5,-1688
	bne	a4,a5,.L267
	.loc 1 1987 20 discriminator 1
	ld	a5,-24(s0)
	addi	a5,a5,-32
	sd	a5,-48(s0)
	j	.L268
.L267:
	.loc 1 1987 20 is_stmt 0 discriminator 2
	sd	zero,-48(s0)
.L268:
	.loc 1 1988 23 is_stmt 1
	ld	a5,-48(s0)
	ld	a5,24(a5)
	.loc 1 1988 8
	ld	a4,-96(s0)
	bne	a4,a5,.L269
	.loc 1 1989 23
	ld	a5,-48(s0)
	ld	a5,8(a5)
	sd	a5,-56(s0)
	.loc 1 1990 7
	j	.L270
.L269:
	.loc 1 1986 87 discriminator 2
	ld	a5,-24(s0)
	ld	a5,0(a5)
	sd	a5,-24(s0)
.L266:
	.loc 1 1986 58 discriminator 1
	ld	a5,-40(s0)
	addi	a5,a5,8
	.loc 1 1986 55 discriminator 1
	ld	a4,-24(s0)
	bne	a4,a5,.L271
.L270:
	.loc 1 1994 6
	ld	a5,-56(s0)
	bne	a5,zero,.L272
	.loc 1 1995 12
	li	a5,-1
	slli	a5,a5,63
	addi	a5,a5,14
	j	.L261
.L272:
	.loc 1 1998 13
	sd	zero,-72(s0)
	.loc 1 1999 14
	sd	zero,-80(s0)
	.loc 1 2000 14
	ld	a5,-56(s0)
	ld	a5,72(a5)
	sd	a5,-32(s0)
	.loc 1 2000 3
	j	.L273
.L281:
	.loc 1 2005 23
	ld	a5,-32(s0)
	addi	a5,a5,-24
	.loc 1 2005 157
	ld	a4,0(a5)
	.loc 1 2005 242
	li	a5,1886613504
	addi	a5,a5,-1688
	bne	a4,a5,.L274
	.loc 1 2005 19 discriminator 1
	ld	a5,-32(s0)
	addi	a5,a5,-24
	sd	a5,-64(s0)
	j	.L275
.L274:
	.loc 1 2005 19 is_stmt 0 discriminator 2
	sd	zero,-64(s0)
.L275:
	.loc 1 2006 42 is_stmt 1
	ld	a5,-64(s0)
	ld	a5,8(a5)
	.loc 1 2006 56
	addi	a5,a5,46
	.loc 1 2006 9
	ld	a1,-104(s0)
	mv	a0,a5
	call	HiiCompareLanguage
	mv	a5,a0
	.loc 1 2006 8 discriminator 1
	beq	a5,zero,.L276
	.loc 1 2007 32
	ld	a5,-64(s0)
	ld	a5,8(a5)
	.loc 1 2007 17
	addi	a5,a5,46
	sd	a5,-72(s0)
	.loc 1 2013 19
	lla	a1,.LC0
	ld	a0,-72(s0)
	call	AsciiStrStr@plt
	sd	a0,-72(s0)
	.loc 1 2014 10
	ld	a5,-72(s0)
	beq	a5,zero,.L282
	.loc 1 2018 16
	ld	a5,-72(s0)
	addi	a5,a5,1
	sd	a5,-72(s0)
	.loc 1 2020 20
	ld	a0,-72(s0)
	call	AsciiStrSize@plt
	sd	a0,-80(s0)
	.loc 1 2021 25
	ld	a5,-120(s0)
	ld	a5,0(a5)
	.loc 1 2021 10
	ld	a4,-80(s0)
	bgtu	a4,a5,.L279
	.loc 1 2022 9
	ld	a5,-120(s0)
	ld	a5,0(a5)
	ld	a2,-72(s0)
	mv	a1,a5
	ld	a0,-112(s0)
	call	AsciiStrCpyS@plt
	.loc 1 2028 14
	li	a5,0
	j	.L261
.L279:
	.loc 1 2024 33
	ld	a5,-120(s0)
	ld	a4,-80(s0)
	sd	a4,0(a5)
	.loc 1 2025 16
	li	a5,-1
	slli	a5,a5,63
	addi	a5,a5,5
	j	.L261
.L276:
	.loc 1 2002 14
	ld	a5,-32(s0)
	ld	a5,0(a5)
	sd	a5,-32(s0)
.L273:
	.loc 1 2001 17
	ld	a5,-56(s0)
	addi	a5,a5,72
	.loc 1 2001 14
	ld	a4,-32(s0)
	bne	a4,a5,.L281
	j	.L278
.L282:
	.loc 1 2015 9
	nop
.L278:
	.loc 1 2032 10
	li	a5,-1
	slli	a5,a5,63
	addi	a5,a5,32
.L261:
	.loc 1 2033 1
	mv	a0,a5
	ld	ra,120(sp)
	.cfi_restore 1
	ld	s0,112(sp)
	.cfi_restore 8
	.cfi_def_cfa 2, 128
	addi	sp,sp,128
	.cfi_def_cfa_offset 0
	jr	ra
	.cfi_endproc
.LFE12:
	.size	HiiGetSecondaryLanguages, .-HiiGetSecondaryLanguages
	.section	.text.AsciiHiiToLower,"ax",@progbits
	.align	1
	.globl	AsciiHiiToLower
	.type	AsciiHiiToLower, @function
AsciiHiiToLower:
.LFB13:
	.loc 1 2047 1
	.cfi_startproc
	addi	sp,sp,-32
	.cfi_def_cfa_offset 32
	sd	ra,24(sp)
	sd	s0,16(sp)
	.cfi_offset 1, -8
	.cfi_offset 8, -16
	addi	s0,sp,32
	.cfi_def_cfa 8, 0
	sd	a0,-24(s0)
	.loc 1 2053 3
	j	.L284
.L286:
	.loc 1 2054 10
	ld	a5,-24(s0)
	lbu	a5,0(a5)
	.loc 1 2054 8
	mv	a4,a5
	li	a5,64
	bleu	a4,a5,.L285
	.loc 1 2054 36 discriminator 1
	ld	a5,-24(s0)
	lbu	a5,0(a5)
	.loc 1 2054 32 discriminator 1
	mv	a4,a5
	li	a5,90
	bgtu	a4,a5,.L285
	.loc 1 2055 31
	ld	a5,-24(s0)
	lbu	a5,0(a5)
	.loc 1 2055 23
	addiw	a5,a5,32
	andi	a4,a5,0xff
	.loc 1 2055 21
	ld	a5,-24(s0)
	sb	a4,0(a5)
.L285:
	.loc 1 2053 46
	ld	a5,-24(s0)
	addi	a5,a5,1
	sd	a5,-24(s0)
.L284:
	.loc 1 2053 11 discriminator 1
	ld	a5,-24(s0)
	lbu	a5,0(a5)
	.loc 1 2053 25 discriminator 1
	bne	a5,zero,.L286
	.loc 1 2058 1
	nop
	nop
	ld	ra,24(sp)
	.cfi_restore 1
	ld	s0,16(sp)
	.cfi_restore 8
	.cfi_def_cfa 2, 32
	addi	sp,sp,32
	.cfi_def_cfa_offset 0
	jr	ra
	.cfi_endproc
.LFE13:
	.size	AsciiHiiToLower, .-AsciiHiiToLower
	.section	.text.HiiCompareLanguage,"ax",@progbits
	.align	1
	.globl	HiiCompareLanguage
	.type	HiiCompareLanguage, @function
HiiCompareLanguage:
.LFB14:
	.loc 1 2075 1
	.cfi_startproc
	addi	sp,sp,-64
	.cfi_def_cfa_offset 64
	sd	ra,56(sp)
	sd	s0,48(sp)
	.cfi_offset 1, -8
	.cfi_offset 8, -16
	addi	s0,sp,64
	.cfi_def_cfa 8, 0
	sd	a0,-56(s0)
	sd	a1,-64(s0)
	.loc 1 2084 12
	ld	a0,-56(s0)
	call	AsciiStrSize@plt
	sd	a0,-32(s0)
	.loc 1 2085 10
	ld	a0,-32(s0)
	call	AllocateZeroPool@plt
	sd	a0,-40(s0)
	.loc 1 2087 3
	ld	a2,-56(s0)
	ld	a1,-32(s0)
	ld	a0,-40(s0)
	call	AsciiStrCpyS@plt
	.loc 1 2088 3
	ld	a0,-40(s0)
	call	AsciiHiiToLower
	.loc 1 2090 12
	ld	a0,-64(s0)
	call	AsciiStrSize@plt
	sd	a0,-32(s0)
	.loc 1 2091 10
	ld	a0,-32(s0)
	call	AllocateZeroPool@plt
	sd	a0,-48(s0)
	.loc 1 2093 3
	ld	a2,-64(s0)
	ld	a1,-32(s0)
	ld	a0,-48(s0)
	call	AsciiStrCpyS@plt
	.loc 1 2094 3
	ld	a0,-48(s0)
	call	AsciiHiiToLower
	.loc 1 2099 14
	sd	zero,-24(s0)
	.loc 1 2099 3
	j	.L288
.L292:
	.loc 1 2100 13
	ld	a4,-40(s0)
	ld	a5,-24(s0)
	add	a5,a4,a5
	lbu	a3,0(a5)
	.loc 1 2100 28
	ld	a4,-48(s0)
	ld	a5,-24(s0)
	add	a5,a4,a5
	lbu	a5,0(a5)
	.loc 1 2100 8
	mv	a4,a3
	beq	a4,a5,.L289
	.loc 1 2104 7
	ld	a0,-40(s0)
	call	FreePool@plt
	.loc 1 2105 7
	ld	a0,-48(s0)
	call	FreePool@plt
	.loc 1 2106 14
	li	a5,0
	j	.L290
.L289:
	.loc 1 2099 64 discriminator 2
	ld	a5,-24(s0)
	addi	a5,a5,1
	sd	a5,-24(s0)
.L288:
	.loc 1 2099 23 discriminator 1
	ld	a4,-40(s0)
	ld	a5,-24(s0)
	add	a5,a4,a5
	lbu	a5,0(a5)
	.loc 1 2099 36 discriminator 1
	beq	a5,zero,.L291
	.loc 1 2099 43 discriminator 3
	ld	a4,-40(s0)
	ld	a5,-24(s0)
	add	a5,a4,a5
	lbu	a5,0(a5)
	.loc 1 2099 36 discriminator 3
	mv	a4,a5
	li	a5,59
	bne	a4,a5,.L292
.L291:
	.loc 1 2110 3
	ld	a0,-40(s0)
	call	FreePool@plt
	.loc 1 2111 3
	ld	a0,-48(s0)
	call	FreePool@plt
	.loc 1 2119 29
	ld	a4,-64(s0)
	ld	a5,-24(s0)
	add	a5,a4,a5
	lbu	a5,0(a5)
	.loc 1 2119 10
	sext.w	a5,a5
	seqz	a5,a5
	andi	a5,a5,0xff
.L290:
	.loc 1 2120 1
	mv	a0,a5
	ld	ra,56(sp)
	.cfi_restore 1
	ld	s0,48(sp)
	.cfi_restore 8
	.cfi_def_cfa 2, 64
	addi	sp,sp,64
	.cfi_def_cfa_offset 0
	jr	ra
	.cfi_endproc
.LFE14:
	.size	HiiCompareLanguage, .-HiiCompareLanguage
	.text
.Letext0:
	.file 2 "/home/kapoagaeming/Downloads/spacemit-image-builder/components/edk2/MdePkg/Include/RiscV64/ProcessorBind.h"
	.file 3 "/home/kapoagaeming/Downloads/spacemit-image-builder/components/edk2/MdePkg/Include/Base.h"
	.file 4 "/home/kapoagaeming/Downloads/spacemit-image-builder/components/edk2/MdePkg/Include/Uefi/UefiBaseType.h"
	.file 5 "/home/kapoagaeming/Downloads/spacemit-image-builder/components/edk2/MdePkg/Include/Protocol/DevicePath.h"
	.file 6 "/home/kapoagaeming/Downloads/spacemit-image-builder/components/edk2/MdePkg/Include/Uefi/UefiInternalFormRepresentation.h"
	.file 7 "/home/kapoagaeming/Downloads/spacemit-image-builder/components/edk2/MdePkg/Include/Protocol/GraphicsOutput.h"
	.file 8 "/home/kapoagaeming/Downloads/spacemit-image-builder/components/edk2/MdePkg/Include/Protocol/HiiImage.h"
	.file 9 "/home/kapoagaeming/Downloads/spacemit-image-builder/components/edk2/MdePkg/Include/Protocol/HiiFont.h"
	.file 10 "/home/kapoagaeming/Downloads/spacemit-image-builder/components/edk2/MdePkg/Include/Protocol/HiiImageEx.h"
	.file 11 "/home/kapoagaeming/Downloads/spacemit-image-builder/components/edk2/MdePkg/Include/Protocol/HiiString.h"
	.file 12 "/home/kapoagaeming/Downloads/spacemit-image-builder/components/edk2/MdePkg/Include/Protocol/HiiDatabase.h"
	.file 13 "/home/kapoagaeming/Downloads/spacemit-image-builder/components/edk2/MdePkg/Include/Protocol/HiiConfigRouting.h"
	.file 14 "/home/kapoagaeming/Downloads/spacemit-image-builder/components/edk2/MdePkg/Include/Protocol/HiiConfigKeyword.h"
	.file 15 "/home/kapoagaeming/Downloads/spacemit-image-builder/components/edk2/MdePkg/Include/Library/UefiLib.h"
	.file 16 "/home/kapoagaeming/Downloads/spacemit-image-builder/components/edk2/MdeModulePkg/Universal/HiiDatabaseDxe/HiiDatabase.h"
	.file 17 "/home/kapoagaeming/Downloads/spacemit-image-builder/components/edk2/MdePkg/Include/Library/BaseLib.h"
	.file 18 "/home/kapoagaeming/Downloads/spacemit-image-builder/components/edk2/MdePkg/Include/Library/MemoryAllocationLib.h"
	.file 19 "/home/kapoagaeming/Downloads/spacemit-image-builder/components/edk2/MdePkg/Include/Library/BaseMemoryLib.h"
	.section	.note.GNU-stack,"",@progbits
