	.file	"IoHighLevel.c"
	.option pic
	.option norelax
	.attribute arch, "rv64i2p1_m2p0_a2p1_f2p2_d2p2_c2p0_zicsr2p0_zifencei2p0_zmmul1p0_zaamo1p0_zalrsc1p0_zca1p0_zcd1p0"
	.attribute unaligned_access, 0
	.attribute stack_align, 16
	.text
.Ltext0:
	.cfi_sections	.debug_frame
	.file 0 "/home/kapoagaeming/Downloads/spacemit-image-builder/components/Build/Milk-V-Jupiter/RELEASE_GCC5/RISCV64/MdePkg/Library/BaseIoLibIntrinsic/BaseIoLibIntrinsic" "/home/kapoagaeming/Downloads/spacemit-image-builder/components/edk2/MdePkg/Library/BaseIoLibIntrinsic/IoHighLevel.c"
	.section	.text.IoOr8,"ax",@progbits
	.align	1
	.globl	IoOr8
	.type	IoOr8, @function
IoOr8:
.LFB0:
	.file 1 "/home/kapoagaeming/Downloads/spacemit-image-builder/components/edk2/MdePkg/Library/BaseIoLibIntrinsic/IoHighLevel.c"
	.loc 1 44 1
	.cfi_startproc
	addi	sp,sp,-32
	.cfi_def_cfa_offset 32
	sd	ra,24(sp)
	sd	s0,16(sp)
	.cfi_offset 1, -8
	.cfi_offset 8, -16
	addi	s0,sp,32
	.cfi_def_cfa 8, 0
	sd	a0,-24(s0)
	mv	a5,a1
	sb	a5,-25(s0)
	.loc 1 45 34
	ld	a0,-24(s0)
	call	IoRead8@plt
	mv	a5,a0
	mv	a4,a5
	.loc 1 45 26 discriminator 1
	lbu	a5,-25(s0)
	or	a5,a4,a5
	andi	a5,a5,0xff
	.loc 1 45 10 discriminator 1
	mv	a1,a5
	ld	a0,-24(s0)
	call	IoWrite8@plt
	mv	a5,a0
	.loc 1 46 1
	mv	a0,a5
	ld	ra,24(sp)
	.cfi_restore 1
	ld	s0,16(sp)
	.cfi_restore 8
	.cfi_def_cfa 2, 32
	addi	sp,sp,32
	.cfi_def_cfa_offset 0
	jr	ra
	.cfi_endproc
.LFE0:
	.size	IoOr8, .-IoOr8
	.section	.text.IoAnd8,"ax",@progbits
	.align	1
	.globl	IoAnd8
	.type	IoAnd8, @function
IoAnd8:
.LFB1:
	.loc 1 72 1
	.cfi_startproc
	addi	sp,sp,-32
	.cfi_def_cfa_offset 32
	sd	ra,24(sp)
	sd	s0,16(sp)
	.cfi_offset 1, -8
	.cfi_offset 8, -16
	addi	s0,sp,32
	.cfi_def_cfa 8, 0
	sd	a0,-24(s0)
	mv	a5,a1
	sb	a5,-25(s0)
	.loc 1 73 34
	ld	a0,-24(s0)
	call	IoRead8@plt
	mv	a5,a0
	mv	a4,a5
	.loc 1 73 26 discriminator 1
	lbu	a5,-25(s0)
	and	a5,a4,a5
	andi	a5,a5,0xff
	.loc 1 73 10 discriminator 1
	mv	a1,a5
	ld	a0,-24(s0)
	call	IoWrite8@plt
	mv	a5,a0
	.loc 1 74 1
	mv	a0,a5
	ld	ra,24(sp)
	.cfi_restore 1
	ld	s0,16(sp)
	.cfi_restore 8
	.cfi_def_cfa 2, 32
	addi	sp,sp,32
	.cfi_def_cfa_offset 0
	jr	ra
	.cfi_endproc
.LFE1:
	.size	IoAnd8, .-IoAnd8
	.section	.text.IoAndThenOr8,"ax",@progbits
	.align	1
	.globl	IoAndThenOr8
	.type	IoAndThenOr8, @function
IoAndThenOr8:
.LFB2:
	.loc 1 103 1
	.cfi_startproc
	addi	sp,sp,-32
	.cfi_def_cfa_offset 32
	sd	ra,24(sp)
	sd	s0,16(sp)
	.cfi_offset 1, -8
	.cfi_offset 8, -16
	addi	s0,sp,32
	.cfi_def_cfa 8, 0
	sd	a0,-24(s0)
	mv	a5,a1
	mv	a4,a2
	sb	a5,-25(s0)
	mv	a5,a4
	sb	a5,-26(s0)
	.loc 1 104 35
	ld	a0,-24(s0)
	call	IoRead8@plt
	mv	a5,a0
	mv	a4,a5
	.loc 1 104 10 discriminator 1
	lbu	a5,-25(s0)
	and	a5,a4,a5
	andi	a5,a5,0xff
	.loc 1 104 26 discriminator 1
	lbu	a4,-26(s0)
	or	a5,a5,a4
	andi	a5,a5,0xff
	.loc 1 104 10 discriminator 1
	mv	a1,a5
	ld	a0,-24(s0)
	call	IoWrite8@plt
	mv	a5,a0
	.loc 1 105 1
	mv	a0,a5
	ld	ra,24(sp)
	.cfi_restore 1
	ld	s0,16(sp)
	.cfi_restore 8
	.cfi_def_cfa 2, 32
	addi	sp,sp,32
	.cfi_def_cfa_offset 0
	jr	ra
	.cfi_endproc
.LFE2:
	.size	IoAndThenOr8, .-IoAndThenOr8
	.section	.text.IoBitFieldRead8,"ax",@progbits
	.align	1
	.globl	IoBitFieldRead8
	.type	IoBitFieldRead8, @function
IoBitFieldRead8:
.LFB3:
	.loc 1 134 1
	.cfi_startproc
	addi	sp,sp,-48
	.cfi_def_cfa_offset 48
	sd	ra,40(sp)
	sd	s0,32(sp)
	.cfi_offset 1, -8
	.cfi_offset 8, -16
	addi	s0,sp,48
	.cfi_def_cfa 8, 0
	sd	a0,-24(s0)
	sd	a1,-32(s0)
	sd	a2,-40(s0)
	.loc 1 135 10
	ld	a0,-24(s0)
	call	IoRead8@plt
	mv	a5,a0
	.loc 1 135 10 is_stmt 0 discriminator 1
	ld	a2,-40(s0)
	ld	a1,-32(s0)
	mv	a0,a5
	call	BitFieldRead8@plt
	mv	a5,a0
	.loc 1 136 1 is_stmt 1
	mv	a0,a5
	ld	ra,40(sp)
	.cfi_restore 1
	ld	s0,32(sp)
	.cfi_restore 8
	.cfi_def_cfa 2, 48
	addi	sp,sp,48
	.cfi_def_cfa_offset 0
	jr	ra
	.cfi_endproc
.LFE3:
	.size	IoBitFieldRead8, .-IoBitFieldRead8
	.section	.text.IoBitFieldWrite8,"ax",@progbits
	.align	1
	.globl	IoBitFieldWrite8
	.type	IoBitFieldWrite8, @function
IoBitFieldWrite8:
.LFB4:
	.loc 1 169 1
	.cfi_startproc
	addi	sp,sp,-48
	.cfi_def_cfa_offset 48
	sd	ra,40(sp)
	sd	s0,32(sp)
	.cfi_offset 1, -8
	.cfi_offset 8, -16
	addi	s0,sp,48
	.cfi_def_cfa 8, 0
	sd	a0,-24(s0)
	sd	a1,-32(s0)
	sd	a2,-40(s0)
	mv	a5,a3
	sb	a5,-41(s0)
	.loc 1 170 10
	ld	a0,-24(s0)
	call	IoRead8@plt
	mv	a5,a0
	mv	a4,a5
	.loc 1 170 10 is_stmt 0 discriminator 1
	lbu	a5,-41(s0)
	mv	a3,a5
	ld	a2,-40(s0)
	ld	a1,-32(s0)
	mv	a0,a4
	call	BitFieldWrite8@plt
	mv	a5,a0
	.loc 1 170 10 discriminator 2
	mv	a1,a5
	ld	a0,-24(s0)
	call	IoWrite8@plt
	mv	a5,a0
	.loc 1 174 1 is_stmt 1
	mv	a0,a5
	ld	ra,40(sp)
	.cfi_restore 1
	ld	s0,32(sp)
	.cfi_restore 8
	.cfi_def_cfa 2, 48
	addi	sp,sp,48
	.cfi_def_cfa_offset 0
	jr	ra
	.cfi_endproc
.LFE4:
	.size	IoBitFieldWrite8, .-IoBitFieldWrite8
	.section	.text.IoBitFieldOr8,"ax",@progbits
	.align	1
	.globl	IoBitFieldOr8
	.type	IoBitFieldOr8, @function
IoBitFieldOr8:
.LFB5:
	.loc 1 210 1
	.cfi_startproc
	addi	sp,sp,-48
	.cfi_def_cfa_offset 48
	sd	ra,40(sp)
	sd	s0,32(sp)
	.cfi_offset 1, -8
	.cfi_offset 8, -16
	addi	s0,sp,48
	.cfi_def_cfa 8, 0
	sd	a0,-24(s0)
	sd	a1,-32(s0)
	sd	a2,-40(s0)
	mv	a5,a3
	sb	a5,-41(s0)
	.loc 1 211 10
	ld	a0,-24(s0)
	call	IoRead8@plt
	mv	a5,a0
	mv	a4,a5
	.loc 1 211 10 is_stmt 0 discriminator 1
	lbu	a5,-41(s0)
	mv	a3,a5
	ld	a2,-40(s0)
	ld	a1,-32(s0)
	mv	a0,a4
	call	BitFieldOr8@plt
	mv	a5,a0
	.loc 1 211 10 discriminator 2
	mv	a1,a5
	ld	a0,-24(s0)
	call	IoWrite8@plt
	mv	a5,a0
	.loc 1 215 1 is_stmt 1
	mv	a0,a5
	ld	ra,40(sp)
	.cfi_restore 1
	ld	s0,32(sp)
	.cfi_restore 8
	.cfi_def_cfa 2, 48
	addi	sp,sp,48
	.cfi_def_cfa_offset 0
	jr	ra
	.cfi_endproc
.LFE5:
	.size	IoBitFieldOr8, .-IoBitFieldOr8
	.section	.text.IoBitFieldAnd8,"ax",@progbits
	.align	1
	.globl	IoBitFieldAnd8
	.type	IoBitFieldAnd8, @function
IoBitFieldAnd8:
.LFB6:
	.loc 1 251 1
	.cfi_startproc
	addi	sp,sp,-48
	.cfi_def_cfa_offset 48
	sd	ra,40(sp)
	sd	s0,32(sp)
	.cfi_offset 1, -8
	.cfi_offset 8, -16
	addi	s0,sp,48
	.cfi_def_cfa 8, 0
	sd	a0,-24(s0)
	sd	a1,-32(s0)
	sd	a2,-40(s0)
	mv	a5,a3
	sb	a5,-41(s0)
	.loc 1 252 10
	ld	a0,-24(s0)
	call	IoRead8@plt
	mv	a5,a0
	mv	a4,a5
	.loc 1 252 10 is_stmt 0 discriminator 1
	lbu	a5,-41(s0)
	mv	a3,a5
	ld	a2,-40(s0)
	ld	a1,-32(s0)
	mv	a0,a4
	call	BitFieldAnd8@plt
	mv	a5,a0
	.loc 1 252 10 discriminator 2
	mv	a1,a5
	ld	a0,-24(s0)
	call	IoWrite8@plt
	mv	a5,a0
	.loc 1 256 1 is_stmt 1
	mv	a0,a5
	ld	ra,40(sp)
	.cfi_restore 1
	ld	s0,32(sp)
	.cfi_restore 8
	.cfi_def_cfa 2, 48
	addi	sp,sp,48
	.cfi_def_cfa_offset 0
	jr	ra
	.cfi_endproc
.LFE6:
	.size	IoBitFieldAnd8, .-IoBitFieldAnd8
	.section	.text.IoBitFieldAndThenOr8,"ax",@progbits
	.align	1
	.globl	IoBitFieldAndThenOr8
	.type	IoBitFieldAndThenOr8, @function
IoBitFieldAndThenOr8:
.LFB7:
	.loc 1 297 1
	.cfi_startproc
	addi	sp,sp,-48
	.cfi_def_cfa_offset 48
	sd	ra,40(sp)
	sd	s0,32(sp)
	.cfi_offset 1, -8
	.cfi_offset 8, -16
	addi	s0,sp,48
	.cfi_def_cfa 8, 0
	sd	a0,-24(s0)
	sd	a1,-32(s0)
	sd	a2,-40(s0)
	mv	a5,a3
	sb	a5,-41(s0)
	mv	a5,a4
	sb	a5,-42(s0)
	.loc 1 298 10
	ld	a0,-24(s0)
	call	IoRead8@plt
	mv	a5,a0
	mv	a0,a5
	.loc 1 298 10 is_stmt 0 discriminator 1
	lbu	a4,-42(s0)
	lbu	a5,-41(s0)
	mv	a3,a5
	ld	a2,-40(s0)
	ld	a1,-32(s0)
	call	BitFieldAndThenOr8@plt
	mv	a5,a0
	.loc 1 298 10 discriminator 2
	mv	a1,a5
	ld	a0,-24(s0)
	call	IoWrite8@plt
	mv	a5,a0
	.loc 1 302 1 is_stmt 1
	mv	a0,a5
	ld	ra,40(sp)
	.cfi_restore 1
	ld	s0,32(sp)
	.cfi_restore 8
	.cfi_def_cfa 2, 48
	addi	sp,sp,48
	.cfi_def_cfa_offset 0
	jr	ra
	.cfi_endproc
.LFE7:
	.size	IoBitFieldAndThenOr8, .-IoBitFieldAndThenOr8
	.section	.text.IoOr16,"ax",@progbits
	.align	1
	.globl	IoOr16
	.type	IoOr16, @function
IoOr16:
.LFB8:
	.loc 1 329 1
	.cfi_startproc
	addi	sp,sp,-32
	.cfi_def_cfa_offset 32
	sd	ra,24(sp)
	sd	s0,16(sp)
	.cfi_offset 1, -8
	.cfi_offset 8, -16
	addi	s0,sp,32
	.cfi_def_cfa 8, 0
	sd	a0,-24(s0)
	mv	a5,a1
	sh	a5,-26(s0)
	.loc 1 330 36
	ld	a0,-24(s0)
	call	IoRead16@plt
	mv	a5,a0
	mv	a4,a5
	.loc 1 330 27 discriminator 1
	lhu	a5,-26(s0)
	or	a5,a4,a5
	slli	a5,a5,48
	srli	a5,a5,48
	.loc 1 330 10 discriminator 1
	mv	a1,a5
	ld	a0,-24(s0)
	call	IoWrite16@plt
	mv	a5,a0
	.loc 1 331 1
	mv	a0,a5
	ld	ra,24(sp)
	.cfi_restore 1
	ld	s0,16(sp)
	.cfi_restore 8
	.cfi_def_cfa 2, 32
	addi	sp,sp,32
	.cfi_def_cfa_offset 0
	jr	ra
	.cfi_endproc
.LFE8:
	.size	IoOr16, .-IoOr16
	.section	.text.IoAnd16,"ax",@progbits
	.align	1
	.globl	IoAnd16
	.type	IoAnd16, @function
IoAnd16:
.LFB9:
	.loc 1 358 1
	.cfi_startproc
	addi	sp,sp,-32
	.cfi_def_cfa_offset 32
	sd	ra,24(sp)
	sd	s0,16(sp)
	.cfi_offset 1, -8
	.cfi_offset 8, -16
	addi	s0,sp,32
	.cfi_def_cfa 8, 0
	sd	a0,-24(s0)
	mv	a5,a1
	sh	a5,-26(s0)
	.loc 1 359 36
	ld	a0,-24(s0)
	call	IoRead16@plt
	mv	a5,a0
	mv	a4,a5
	.loc 1 359 27 discriminator 1
	lhu	a5,-26(s0)
	and	a5,a4,a5
	slli	a5,a5,48
	srli	a5,a5,48
	.loc 1 359 10 discriminator 1
	mv	a1,a5
	ld	a0,-24(s0)
	call	IoWrite16@plt
	mv	a5,a0
	.loc 1 360 1
	mv	a0,a5
	ld	ra,24(sp)
	.cfi_restore 1
	ld	s0,16(sp)
	.cfi_restore 8
	.cfi_def_cfa 2, 32
	addi	sp,sp,32
	.cfi_def_cfa_offset 0
	jr	ra
	.cfi_endproc
.LFE9:
	.size	IoAnd16, .-IoAnd16
	.section	.text.IoAndThenOr16,"ax",@progbits
	.align	1
	.globl	IoAndThenOr16
	.type	IoAndThenOr16, @function
IoAndThenOr16:
.LFB10:
	.loc 1 390 1
	.cfi_startproc
	addi	sp,sp,-32
	.cfi_def_cfa_offset 32
	sd	ra,24(sp)
	sd	s0,16(sp)
	.cfi_offset 1, -8
	.cfi_offset 8, -16
	addi	s0,sp,32
	.cfi_def_cfa 8, 0
	sd	a0,-24(s0)
	mv	a5,a1
	mv	a4,a2
	sh	a5,-26(s0)
	mv	a5,a4
	sh	a5,-28(s0)
	.loc 1 391 37
	ld	a0,-24(s0)
	call	IoRead16@plt
	mv	a5,a0
	mv	a4,a5
	.loc 1 391 10 discriminator 1
	lhu	a5,-26(s0)
	and	a5,a4,a5
	slli	a5,a5,48
	srli	a5,a5,48
	.loc 1 391 27 discriminator 1
	lhu	a4,-28(s0)
	or	a5,a5,a4
	slli	a5,a5,48
	srli	a5,a5,48
	.loc 1 391 10 discriminator 1
	mv	a1,a5
	ld	a0,-24(s0)
	call	IoWrite16@plt
	mv	a5,a0
	.loc 1 392 1
	mv	a0,a5
	ld	ra,24(sp)
	.cfi_restore 1
	ld	s0,16(sp)
	.cfi_restore 8
	.cfi_def_cfa 2, 32
	addi	sp,sp,32
	.cfi_def_cfa_offset 0
	jr	ra
	.cfi_endproc
.LFE10:
	.size	IoAndThenOr16, .-IoAndThenOr16
	.section	.text.IoBitFieldRead16,"ax",@progbits
	.align	1
	.globl	IoBitFieldRead16
	.type	IoBitFieldRead16, @function
IoBitFieldRead16:
.LFB11:
	.loc 1 422 1
	.cfi_startproc
	addi	sp,sp,-48
	.cfi_def_cfa_offset 48
	sd	ra,40(sp)
	sd	s0,32(sp)
	.cfi_offset 1, -8
	.cfi_offset 8, -16
	addi	s0,sp,48
	.cfi_def_cfa 8, 0
	sd	a0,-24(s0)
	sd	a1,-32(s0)
	sd	a2,-40(s0)
	.loc 1 423 10
	ld	a0,-24(s0)
	call	IoRead16@plt
	mv	a5,a0
	.loc 1 423 10 is_stmt 0 discriminator 1
	ld	a2,-40(s0)
	ld	a1,-32(s0)
	mv	a0,a5
	call	BitFieldRead16@plt
	mv	a5,a0
	.loc 1 424 1 is_stmt 1
	mv	a0,a5
	ld	ra,40(sp)
	.cfi_restore 1
	ld	s0,32(sp)
	.cfi_restore 8
	.cfi_def_cfa 2, 48
	addi	sp,sp,48
	.cfi_def_cfa_offset 0
	jr	ra
	.cfi_endproc
.LFE11:
	.size	IoBitFieldRead16, .-IoBitFieldRead16
	.section	.text.IoBitFieldWrite16,"ax",@progbits
	.align	1
	.globl	IoBitFieldWrite16
	.type	IoBitFieldWrite16, @function
IoBitFieldWrite16:
.LFB12:
	.loc 1 459 1
	.cfi_startproc
	addi	sp,sp,-48
	.cfi_def_cfa_offset 48
	sd	ra,40(sp)
	sd	s0,32(sp)
	.cfi_offset 1, -8
	.cfi_offset 8, -16
	addi	s0,sp,48
	.cfi_def_cfa 8, 0
	sd	a0,-24(s0)
	sd	a1,-32(s0)
	sd	a2,-40(s0)
	mv	a5,a3
	sh	a5,-42(s0)
	.loc 1 460 10
	ld	a0,-24(s0)
	call	IoRead16@plt
	mv	a5,a0
	mv	a4,a5
	.loc 1 460 10 is_stmt 0 discriminator 1
	lhu	a5,-42(s0)
	mv	a3,a5
	ld	a2,-40(s0)
	ld	a1,-32(s0)
	mv	a0,a4
	call	BitFieldWrite16@plt
	mv	a5,a0
	.loc 1 460 10 discriminator 2
	mv	a1,a5
	ld	a0,-24(s0)
	call	IoWrite16@plt
	mv	a5,a0
	.loc 1 464 1 is_stmt 1
	mv	a0,a5
	ld	ra,40(sp)
	.cfi_restore 1
	ld	s0,32(sp)
	.cfi_restore 8
	.cfi_def_cfa 2, 48
	addi	sp,sp,48
	.cfi_def_cfa_offset 0
	jr	ra
	.cfi_endproc
.LFE12:
	.size	IoBitFieldWrite16, .-IoBitFieldWrite16
	.section	.text.IoBitFieldOr16,"ax",@progbits
	.align	1
	.globl	IoBitFieldOr16
	.type	IoBitFieldOr16, @function
IoBitFieldOr16:
.LFB13:
	.loc 1 501 1
	.cfi_startproc
	addi	sp,sp,-48
	.cfi_def_cfa_offset 48
	sd	ra,40(sp)
	sd	s0,32(sp)
	.cfi_offset 1, -8
	.cfi_offset 8, -16
	addi	s0,sp,48
	.cfi_def_cfa 8, 0
	sd	a0,-24(s0)
	sd	a1,-32(s0)
	sd	a2,-40(s0)
	mv	a5,a3
	sh	a5,-42(s0)
	.loc 1 502 10
	ld	a0,-24(s0)
	call	IoRead16@plt
	mv	a5,a0
	mv	a4,a5
	.loc 1 502 10 is_stmt 0 discriminator 1
	lhu	a5,-42(s0)
	mv	a3,a5
	ld	a2,-40(s0)
	ld	a1,-32(s0)
	mv	a0,a4
	call	BitFieldOr16@plt
	mv	a5,a0
	.loc 1 502 10 discriminator 2
	mv	a1,a5
	ld	a0,-24(s0)
	call	IoWrite16@plt
	mv	a5,a0
	.loc 1 506 1 is_stmt 1
	mv	a0,a5
	ld	ra,40(sp)
	.cfi_restore 1
	ld	s0,32(sp)
	.cfi_restore 8
	.cfi_def_cfa 2, 48
	addi	sp,sp,48
	.cfi_def_cfa_offset 0
	jr	ra
	.cfi_endproc
.LFE13:
	.size	IoBitFieldOr16, .-IoBitFieldOr16
	.section	.text.IoBitFieldAnd16,"ax",@progbits
	.align	1
	.globl	IoBitFieldAnd16
	.type	IoBitFieldAnd16, @function
IoBitFieldAnd16:
.LFB14:
	.loc 1 543 1
	.cfi_startproc
	addi	sp,sp,-48
	.cfi_def_cfa_offset 48
	sd	ra,40(sp)
	sd	s0,32(sp)
	.cfi_offset 1, -8
	.cfi_offset 8, -16
	addi	s0,sp,48
	.cfi_def_cfa 8, 0
	sd	a0,-24(s0)
	sd	a1,-32(s0)
	sd	a2,-40(s0)
	mv	a5,a3
	sh	a5,-42(s0)
	.loc 1 544 10
	ld	a0,-24(s0)
	call	IoRead16@plt
	mv	a5,a0
	mv	a4,a5
	.loc 1 544 10 is_stmt 0 discriminator 1
	lhu	a5,-42(s0)
	mv	a3,a5
	ld	a2,-40(s0)
	ld	a1,-32(s0)
	mv	a0,a4
	call	BitFieldAnd16@plt
	mv	a5,a0
	.loc 1 544 10 discriminator 2
	mv	a1,a5
	ld	a0,-24(s0)
	call	IoWrite16@plt
	mv	a5,a0
	.loc 1 548 1 is_stmt 1
	mv	a0,a5
	ld	ra,40(sp)
	.cfi_restore 1
	ld	s0,32(sp)
	.cfi_restore 8
	.cfi_def_cfa 2, 48
	addi	sp,sp,48
	.cfi_def_cfa_offset 0
	jr	ra
	.cfi_endproc
.LFE14:
	.size	IoBitFieldAnd16, .-IoBitFieldAnd16
	.section	.text.IoBitFieldAndThenOr16,"ax",@progbits
	.align	1
	.globl	IoBitFieldAndThenOr16
	.type	IoBitFieldAndThenOr16, @function
IoBitFieldAndThenOr16:
.LFB15:
	.loc 1 590 1
	.cfi_startproc
	addi	sp,sp,-48
	.cfi_def_cfa_offset 48
	sd	ra,40(sp)
	sd	s0,32(sp)
	.cfi_offset 1, -8
	.cfi_offset 8, -16
	addi	s0,sp,48
	.cfi_def_cfa 8, 0
	sd	a0,-24(s0)
	sd	a1,-32(s0)
	sd	a2,-40(s0)
	mv	a5,a3
	sh	a5,-42(s0)
	mv	a5,a4
	sh	a5,-44(s0)
	.loc 1 591 10
	ld	a0,-24(s0)
	call	IoRead16@plt
	mv	a5,a0
	mv	a0,a5
	.loc 1 591 10 is_stmt 0 discriminator 1
	lhu	a4,-44(s0)
	lhu	a5,-42(s0)
	mv	a3,a5
	ld	a2,-40(s0)
	ld	a1,-32(s0)
	call	BitFieldAndThenOr16@plt
	mv	a5,a0
	.loc 1 591 10 discriminator 2
	mv	a1,a5
	ld	a0,-24(s0)
	call	IoWrite16@plt
	mv	a5,a0
	.loc 1 595 1 is_stmt 1
	mv	a0,a5
	ld	ra,40(sp)
	.cfi_restore 1
	ld	s0,32(sp)
	.cfi_restore 8
	.cfi_def_cfa 2, 48
	addi	sp,sp,48
	.cfi_def_cfa_offset 0
	jr	ra
	.cfi_endproc
.LFE15:
	.size	IoBitFieldAndThenOr16, .-IoBitFieldAndThenOr16
	.section	.text.IoOr32,"ax",@progbits
	.align	1
	.globl	IoOr32
	.type	IoOr32, @function
IoOr32:
.LFB16:
	.loc 1 622 1
	.cfi_startproc
	addi	sp,sp,-32
	.cfi_def_cfa_offset 32
	sd	ra,24(sp)
	sd	s0,16(sp)
	.cfi_offset 1, -8
	.cfi_offset 8, -16
	addi	s0,sp,32
	.cfi_def_cfa 8, 0
	sd	a0,-24(s0)
	mv	a5,a1
	sw	a5,-28(s0)
	.loc 1 623 27
	ld	a0,-24(s0)
	call	IoRead32@plt
	mv	a5,a0
	mv	a3,a5
	.loc 1 623 10 discriminator 1
	lw	a5,-28(s0)
	mv	a4,a5
	mv	a5,a3
	or	a5,a4,a5
	sext.w	a5,a5
	mv	a1,a5
	ld	a0,-24(s0)
	call	IoWrite32@plt
	mv	a5,a0
	.loc 1 624 1
	mv	a0,a5
	ld	ra,24(sp)
	.cfi_restore 1
	ld	s0,16(sp)
	.cfi_restore 8
	.cfi_def_cfa 2, 32
	addi	sp,sp,32
	.cfi_def_cfa_offset 0
	jr	ra
	.cfi_endproc
.LFE16:
	.size	IoOr32, .-IoOr32
	.section	.text.IoAnd32,"ax",@progbits
	.align	1
	.globl	IoAnd32
	.type	IoAnd32, @function
IoAnd32:
.LFB17:
	.loc 1 651 1
	.cfi_startproc
	addi	sp,sp,-32
	.cfi_def_cfa_offset 32
	sd	ra,24(sp)
	sd	s0,16(sp)
	.cfi_offset 1, -8
	.cfi_offset 8, -16
	addi	s0,sp,32
	.cfi_def_cfa 8, 0
	sd	a0,-24(s0)
	mv	a5,a1
	sw	a5,-28(s0)
	.loc 1 652 27
	ld	a0,-24(s0)
	call	IoRead32@plt
	mv	a5,a0
	mv	a3,a5
	.loc 1 652 10 discriminator 1
	lw	a5,-28(s0)
	mv	a4,a5
	mv	a5,a3
	and	a5,a4,a5
	sext.w	a5,a5
	mv	a1,a5
	ld	a0,-24(s0)
	call	IoWrite32@plt
	mv	a5,a0
	.loc 1 653 1
	mv	a0,a5
	ld	ra,24(sp)
	.cfi_restore 1
	ld	s0,16(sp)
	.cfi_restore 8
	.cfi_def_cfa 2, 32
	addi	sp,sp,32
	.cfi_def_cfa_offset 0
	jr	ra
	.cfi_endproc
.LFE17:
	.size	IoAnd32, .-IoAnd32
	.section	.text.IoAndThenOr32,"ax",@progbits
	.align	1
	.globl	IoAndThenOr32
	.type	IoAndThenOr32, @function
IoAndThenOr32:
.LFB18:
	.loc 1 683 1
	.cfi_startproc
	addi	sp,sp,-32
	.cfi_def_cfa_offset 32
	sd	ra,24(sp)
	sd	s0,16(sp)
	.cfi_offset 1, -8
	.cfi_offset 8, -16
	addi	s0,sp,32
	.cfi_def_cfa 8, 0
	sd	a0,-24(s0)
	mv	a5,a1
	mv	a4,a2
	sw	a5,-28(s0)
	mv	a5,a4
	sw	a5,-32(s0)
	.loc 1 684 28
	ld	a0,-24(s0)
	call	IoRead32@plt
	mv	a5,a0
	mv	a3,a5
	.loc 1 684 44 discriminator 1
	lw	a5,-28(s0)
	mv	a4,a5
	mv	a5,a3
	and	a5,a4,a5
	sext.w	a5,a5
	.loc 1 684 10 discriminator 1
	lw	a4,-32(s0)
	or	a5,a4,a5
	sext.w	a5,a5
	mv	a1,a5
	ld	a0,-24(s0)
	call	IoWrite32@plt
	mv	a5,a0
	.loc 1 685 1
	mv	a0,a5
	ld	ra,24(sp)
	.cfi_restore 1
	ld	s0,16(sp)
	.cfi_restore 8
	.cfi_def_cfa 2, 32
	addi	sp,sp,32
	.cfi_def_cfa_offset 0
	jr	ra
	.cfi_endproc
.LFE18:
	.size	IoAndThenOr32, .-IoAndThenOr32
	.section	.text.IoBitFieldRead32,"ax",@progbits
	.align	1
	.globl	IoBitFieldRead32
	.type	IoBitFieldRead32, @function
IoBitFieldRead32:
.LFB19:
	.loc 1 715 1
	.cfi_startproc
	addi	sp,sp,-48
	.cfi_def_cfa_offset 48
	sd	ra,40(sp)
	sd	s0,32(sp)
	.cfi_offset 1, -8
	.cfi_offset 8, -16
	addi	s0,sp,48
	.cfi_def_cfa 8, 0
	sd	a0,-24(s0)
	sd	a1,-32(s0)
	sd	a2,-40(s0)
	.loc 1 716 10
	ld	a0,-24(s0)
	call	IoRead32@plt
	mv	a5,a0
	.loc 1 716 10 is_stmt 0 discriminator 1
	ld	a2,-40(s0)
	ld	a1,-32(s0)
	mv	a0,a5
	call	BitFieldRead32@plt
	mv	a5,a0
	.loc 1 717 1 is_stmt 1
	mv	a0,a5
	ld	ra,40(sp)
	.cfi_restore 1
	ld	s0,32(sp)
	.cfi_restore 8
	.cfi_def_cfa 2, 48
	addi	sp,sp,48
	.cfi_def_cfa_offset 0
	jr	ra
	.cfi_endproc
.LFE19:
	.size	IoBitFieldRead32, .-IoBitFieldRead32
	.section	.text.IoBitFieldWrite32,"ax",@progbits
	.align	1
	.globl	IoBitFieldWrite32
	.type	IoBitFieldWrite32, @function
IoBitFieldWrite32:
.LFB20:
	.loc 1 752 1
	.cfi_startproc
	addi	sp,sp,-48
	.cfi_def_cfa_offset 48
	sd	ra,40(sp)
	sd	s0,32(sp)
	.cfi_offset 1, -8
	.cfi_offset 8, -16
	addi	s0,sp,48
	.cfi_def_cfa 8, 0
	sd	a0,-24(s0)
	sd	a1,-32(s0)
	sd	a2,-40(s0)
	mv	a5,a3
	sw	a5,-44(s0)
	.loc 1 753 10
	ld	a0,-24(s0)
	call	IoRead32@plt
	mv	a5,a0
	mv	a4,a5
	.loc 1 753 10 is_stmt 0 discriminator 1
	lw	a5,-44(s0)
	mv	a3,a5
	ld	a2,-40(s0)
	ld	a1,-32(s0)
	mv	a0,a4
	call	BitFieldWrite32@plt
	mv	a5,a0
	.loc 1 753 10 discriminator 2
	mv	a1,a5
	ld	a0,-24(s0)
	call	IoWrite32@plt
	mv	a5,a0
	.loc 1 757 1 is_stmt 1
	mv	a0,a5
	ld	ra,40(sp)
	.cfi_restore 1
	ld	s0,32(sp)
	.cfi_restore 8
	.cfi_def_cfa 2, 48
	addi	sp,sp,48
	.cfi_def_cfa_offset 0
	jr	ra
	.cfi_endproc
.LFE20:
	.size	IoBitFieldWrite32, .-IoBitFieldWrite32
	.section	.text.IoBitFieldOr32,"ax",@progbits
	.align	1
	.globl	IoBitFieldOr32
	.type	IoBitFieldOr32, @function
IoBitFieldOr32:
.LFB21:
	.loc 1 794 1
	.cfi_startproc
	addi	sp,sp,-48
	.cfi_def_cfa_offset 48
	sd	ra,40(sp)
	sd	s0,32(sp)
	.cfi_offset 1, -8
	.cfi_offset 8, -16
	addi	s0,sp,48
	.cfi_def_cfa 8, 0
	sd	a0,-24(s0)
	sd	a1,-32(s0)
	sd	a2,-40(s0)
	mv	a5,a3
	sw	a5,-44(s0)
	.loc 1 795 10
	ld	a0,-24(s0)
	call	IoRead32@plt
	mv	a5,a0
	mv	a4,a5
	.loc 1 795 10 is_stmt 0 discriminator 1
	lw	a5,-44(s0)
	mv	a3,a5
	ld	a2,-40(s0)
	ld	a1,-32(s0)
	mv	a0,a4
	call	BitFieldOr32@plt
	mv	a5,a0
	.loc 1 795 10 discriminator 2
	mv	a1,a5
	ld	a0,-24(s0)
	call	IoWrite32@plt
	mv	a5,a0
	.loc 1 799 1 is_stmt 1
	mv	a0,a5
	ld	ra,40(sp)
	.cfi_restore 1
	ld	s0,32(sp)
	.cfi_restore 8
	.cfi_def_cfa 2, 48
	addi	sp,sp,48
	.cfi_def_cfa_offset 0
	jr	ra
	.cfi_endproc
.LFE21:
	.size	IoBitFieldOr32, .-IoBitFieldOr32
	.section	.text.IoBitFieldAnd32,"ax",@progbits
	.align	1
	.globl	IoBitFieldAnd32
	.type	IoBitFieldAnd32, @function
IoBitFieldAnd32:
.LFB22:
	.loc 1 836 1
	.cfi_startproc
	addi	sp,sp,-48
	.cfi_def_cfa_offset 48
	sd	ra,40(sp)
	sd	s0,32(sp)
	.cfi_offset 1, -8
	.cfi_offset 8, -16
	addi	s0,sp,48
	.cfi_def_cfa 8, 0
	sd	a0,-24(s0)
	sd	a1,-32(s0)
	sd	a2,-40(s0)
	mv	a5,a3
	sw	a5,-44(s0)
	.loc 1 837 10
	ld	a0,-24(s0)
	call	IoRead32@plt
	mv	a5,a0
	mv	a4,a5
	.loc 1 837 10 is_stmt 0 discriminator 1
	lw	a5,-44(s0)
	mv	a3,a5
	ld	a2,-40(s0)
	ld	a1,-32(s0)
	mv	a0,a4
	call	BitFieldAnd32@plt
	mv	a5,a0
	.loc 1 837 10 discriminator 2
	mv	a1,a5
	ld	a0,-24(s0)
	call	IoWrite32@plt
	mv	a5,a0
	.loc 1 841 1 is_stmt 1
	mv	a0,a5
	ld	ra,40(sp)
	.cfi_restore 1
	ld	s0,32(sp)
	.cfi_restore 8
	.cfi_def_cfa 2, 48
	addi	sp,sp,48
	.cfi_def_cfa_offset 0
	jr	ra
	.cfi_endproc
.LFE22:
	.size	IoBitFieldAnd32, .-IoBitFieldAnd32
	.section	.text.IoBitFieldAndThenOr32,"ax",@progbits
	.align	1
	.globl	IoBitFieldAndThenOr32
	.type	IoBitFieldAndThenOr32, @function
IoBitFieldAndThenOr32:
.LFB23:
	.loc 1 883 1
	.cfi_startproc
	addi	sp,sp,-48
	.cfi_def_cfa_offset 48
	sd	ra,40(sp)
	sd	s0,32(sp)
	.cfi_offset 1, -8
	.cfi_offset 8, -16
	addi	s0,sp,48
	.cfi_def_cfa 8, 0
	sd	a0,-24(s0)
	sd	a1,-32(s0)
	sd	a2,-40(s0)
	mv	a5,a3
	sw	a5,-44(s0)
	mv	a5,a4
	sw	a5,-48(s0)
	.loc 1 884 10
	ld	a0,-24(s0)
	call	IoRead32@plt
	mv	a5,a0
	mv	a0,a5
	.loc 1 884 10 is_stmt 0 discriminator 1
	lw	a4,-48(s0)
	lw	a5,-44(s0)
	mv	a3,a5
	ld	a2,-40(s0)
	ld	a1,-32(s0)
	call	BitFieldAndThenOr32@plt
	mv	a5,a0
	.loc 1 884 10 discriminator 2
	mv	a1,a5
	ld	a0,-24(s0)
	call	IoWrite32@plt
	mv	a5,a0
	.loc 1 888 1 is_stmt 1
	mv	a0,a5
	ld	ra,40(sp)
	.cfi_restore 1
	ld	s0,32(sp)
	.cfi_restore 8
	.cfi_def_cfa 2, 48
	addi	sp,sp,48
	.cfi_def_cfa_offset 0
	jr	ra
	.cfi_endproc
.LFE23:
	.size	IoBitFieldAndThenOr32, .-IoBitFieldAndThenOr32
	.section	.text.IoOr64,"ax",@progbits
	.align	1
	.globl	IoOr64
	.type	IoOr64, @function
IoOr64:
.LFB24:
	.loc 1 915 1
	.cfi_startproc
	addi	sp,sp,-32
	.cfi_def_cfa_offset 32
	sd	ra,24(sp)
	sd	s0,16(sp)
	.cfi_offset 1, -8
	.cfi_offset 8, -16
	addi	s0,sp,32
	.cfi_def_cfa 8, 0
	sd	a0,-24(s0)
	sd	a1,-32(s0)
	.loc 1 916 27
	ld	a0,-24(s0)
	call	IoRead64@plt
	mv	a4,a0
	.loc 1 916 10 discriminator 1
	ld	a5,-32(s0)
	or	a5,a4,a5
	mv	a1,a5
	ld	a0,-24(s0)
	call	IoWrite64@plt
	mv	a5,a0
	.loc 1 917 1
	mv	a0,a5
	ld	ra,24(sp)
	.cfi_restore 1
	ld	s0,16(sp)
	.cfi_restore 8
	.cfi_def_cfa 2, 32
	addi	sp,sp,32
	.cfi_def_cfa_offset 0
	jr	ra
	.cfi_endproc
.LFE24:
	.size	IoOr64, .-IoOr64
	.section	.text.IoAnd64,"ax",@progbits
	.align	1
	.globl	IoAnd64
	.type	IoAnd64, @function
IoAnd64:
.LFB25:
	.loc 1 944 1
	.cfi_startproc
	addi	sp,sp,-32
	.cfi_def_cfa_offset 32
	sd	ra,24(sp)
	sd	s0,16(sp)
	.cfi_offset 1, -8
	.cfi_offset 8, -16
	addi	s0,sp,32
	.cfi_def_cfa 8, 0
	sd	a0,-24(s0)
	sd	a1,-32(s0)
	.loc 1 945 27
	ld	a0,-24(s0)
	call	IoRead64@plt
	mv	a4,a0
	.loc 1 945 10 discriminator 1
	ld	a5,-32(s0)
	and	a5,a4,a5
	mv	a1,a5
	ld	a0,-24(s0)
	call	IoWrite64@plt
	mv	a5,a0
	.loc 1 946 1
	mv	a0,a5
	ld	ra,24(sp)
	.cfi_restore 1
	ld	s0,16(sp)
	.cfi_restore 8
	.cfi_def_cfa 2, 32
	addi	sp,sp,32
	.cfi_def_cfa_offset 0
	jr	ra
	.cfi_endproc
.LFE25:
	.size	IoAnd64, .-IoAnd64
	.section	.text.IoAndThenOr64,"ax",@progbits
	.align	1
	.globl	IoAndThenOr64
	.type	IoAndThenOr64, @function
IoAndThenOr64:
.LFB26:
	.loc 1 976 1
	.cfi_startproc
	addi	sp,sp,-48
	.cfi_def_cfa_offset 48
	sd	ra,40(sp)
	sd	s0,32(sp)
	.cfi_offset 1, -8
	.cfi_offset 8, -16
	addi	s0,sp,48
	.cfi_def_cfa 8, 0
	sd	a0,-24(s0)
	sd	a1,-32(s0)
	sd	a2,-40(s0)
	.loc 1 977 28
	ld	a0,-24(s0)
	call	IoRead64@plt
	mv	a4,a0
	.loc 1 977 44 discriminator 1
	ld	a5,-32(s0)
	and	a4,a4,a5
	.loc 1 977 10 discriminator 1
	ld	a5,-40(s0)
	or	a5,a4,a5
	mv	a1,a5
	ld	a0,-24(s0)
	call	IoWrite64@plt
	mv	a5,a0
	.loc 1 978 1
	mv	a0,a5
	ld	ra,40(sp)
	.cfi_restore 1
	ld	s0,32(sp)
	.cfi_restore 8
	.cfi_def_cfa 2, 48
	addi	sp,sp,48
	.cfi_def_cfa_offset 0
	jr	ra
	.cfi_endproc
.LFE26:
	.size	IoAndThenOr64, .-IoAndThenOr64
	.section	.text.IoBitFieldRead64,"ax",@progbits
	.align	1
	.globl	IoBitFieldRead64
	.type	IoBitFieldRead64, @function
IoBitFieldRead64:
.LFB27:
	.loc 1 1008 1
	.cfi_startproc
	addi	sp,sp,-48
	.cfi_def_cfa_offset 48
	sd	ra,40(sp)
	sd	s0,32(sp)
	.cfi_offset 1, -8
	.cfi_offset 8, -16
	addi	s0,sp,48
	.cfi_def_cfa 8, 0
	sd	a0,-24(s0)
	sd	a1,-32(s0)
	sd	a2,-40(s0)
	.loc 1 1009 10
	ld	a0,-24(s0)
	call	IoRead64@plt
	mv	a5,a0
	.loc 1 1009 10 is_stmt 0 discriminator 1
	ld	a2,-40(s0)
	ld	a1,-32(s0)
	mv	a0,a5
	call	BitFieldRead64@plt
	mv	a5,a0
	.loc 1 1010 1 is_stmt 1
	mv	a0,a5
	ld	ra,40(sp)
	.cfi_restore 1
	ld	s0,32(sp)
	.cfi_restore 8
	.cfi_def_cfa 2, 48
	addi	sp,sp,48
	.cfi_def_cfa_offset 0
	jr	ra
	.cfi_endproc
.LFE27:
	.size	IoBitFieldRead64, .-IoBitFieldRead64
	.section	.text.IoBitFieldWrite64,"ax",@progbits
	.align	1
	.globl	IoBitFieldWrite64
	.type	IoBitFieldWrite64, @function
IoBitFieldWrite64:
.LFB28:
	.loc 1 1045 1
	.cfi_startproc
	addi	sp,sp,-48
	.cfi_def_cfa_offset 48
	sd	ra,40(sp)
	sd	s0,32(sp)
	.cfi_offset 1, -8
	.cfi_offset 8, -16
	addi	s0,sp,48
	.cfi_def_cfa 8, 0
	sd	a0,-24(s0)
	sd	a1,-32(s0)
	sd	a2,-40(s0)
	sd	a3,-48(s0)
	.loc 1 1046 10
	ld	a0,-24(s0)
	call	IoRead64@plt
	mv	a5,a0
	.loc 1 1046 10 is_stmt 0 discriminator 1
	ld	a3,-48(s0)
	ld	a2,-40(s0)
	ld	a1,-32(s0)
	mv	a0,a5
	call	BitFieldWrite64@plt
	mv	a5,a0
	.loc 1 1046 10 discriminator 2
	mv	a1,a5
	ld	a0,-24(s0)
	call	IoWrite64@plt
	mv	a5,a0
	.loc 1 1050 1 is_stmt 1
	mv	a0,a5
	ld	ra,40(sp)
	.cfi_restore 1
	ld	s0,32(sp)
	.cfi_restore 8
	.cfi_def_cfa 2, 48
	addi	sp,sp,48
	.cfi_def_cfa_offset 0
	jr	ra
	.cfi_endproc
.LFE28:
	.size	IoBitFieldWrite64, .-IoBitFieldWrite64
	.section	.text.IoBitFieldOr64,"ax",@progbits
	.align	1
	.globl	IoBitFieldOr64
	.type	IoBitFieldOr64, @function
IoBitFieldOr64:
.LFB29:
	.loc 1 1087 1
	.cfi_startproc
	addi	sp,sp,-48
	.cfi_def_cfa_offset 48
	sd	ra,40(sp)
	sd	s0,32(sp)
	.cfi_offset 1, -8
	.cfi_offset 8, -16
	addi	s0,sp,48
	.cfi_def_cfa 8, 0
	sd	a0,-24(s0)
	sd	a1,-32(s0)
	sd	a2,-40(s0)
	sd	a3,-48(s0)
	.loc 1 1088 10
	ld	a0,-24(s0)
	call	IoRead64@plt
	mv	a5,a0
	.loc 1 1088 10 is_stmt 0 discriminator 1
	ld	a3,-48(s0)
	ld	a2,-40(s0)
	ld	a1,-32(s0)
	mv	a0,a5
	call	BitFieldOr64@plt
	mv	a5,a0
	.loc 1 1088 10 discriminator 2
	mv	a1,a5
	ld	a0,-24(s0)
	call	IoWrite64@plt
	mv	a5,a0
	.loc 1 1092 1 is_stmt 1
	mv	a0,a5
	ld	ra,40(sp)
	.cfi_restore 1
	ld	s0,32(sp)
	.cfi_restore 8
	.cfi_def_cfa 2, 48
	addi	sp,sp,48
	.cfi_def_cfa_offset 0
	jr	ra
	.cfi_endproc
.LFE29:
	.size	IoBitFieldOr64, .-IoBitFieldOr64
	.section	.text.IoBitFieldAnd64,"ax",@progbits
	.align	1
	.globl	IoBitFieldAnd64
	.type	IoBitFieldAnd64, @function
IoBitFieldAnd64:
.LFB30:
	.loc 1 1129 1
	.cfi_startproc
	addi	sp,sp,-48
	.cfi_def_cfa_offset 48
	sd	ra,40(sp)
	sd	s0,32(sp)
	.cfi_offset 1, -8
	.cfi_offset 8, -16
	addi	s0,sp,48
	.cfi_def_cfa 8, 0
	sd	a0,-24(s0)
	sd	a1,-32(s0)
	sd	a2,-40(s0)
	sd	a3,-48(s0)
	.loc 1 1130 10
	ld	a0,-24(s0)
	call	IoRead64@plt
	mv	a5,a0
	.loc 1 1130 10 is_stmt 0 discriminator 1
	ld	a3,-48(s0)
	ld	a2,-40(s0)
	ld	a1,-32(s0)
	mv	a0,a5
	call	BitFieldAnd64@plt
	mv	a5,a0
	.loc 1 1130 10 discriminator 2
	mv	a1,a5
	ld	a0,-24(s0)
	call	IoWrite64@plt
	mv	a5,a0
	.loc 1 1134 1 is_stmt 1
	mv	a0,a5
	ld	ra,40(sp)
	.cfi_restore 1
	ld	s0,32(sp)
	.cfi_restore 8
	.cfi_def_cfa 2, 48
	addi	sp,sp,48
	.cfi_def_cfa_offset 0
	jr	ra
	.cfi_endproc
.LFE30:
	.size	IoBitFieldAnd64, .-IoBitFieldAnd64
	.section	.text.IoBitFieldAndThenOr64,"ax",@progbits
	.align	1
	.globl	IoBitFieldAndThenOr64
	.type	IoBitFieldAndThenOr64, @function
IoBitFieldAndThenOr64:
.LFB31:
	.loc 1 1176 1
	.cfi_startproc
	addi	sp,sp,-64
	.cfi_def_cfa_offset 64
	sd	ra,56(sp)
	sd	s0,48(sp)
	.cfi_offset 1, -8
	.cfi_offset 8, -16
	addi	s0,sp,64
	.cfi_def_cfa 8, 0
	sd	a0,-24(s0)
	sd	a1,-32(s0)
	sd	a2,-40(s0)
	sd	a3,-48(s0)
	sd	a4,-56(s0)
	.loc 1 1177 10
	ld	a0,-24(s0)
	call	IoRead64@plt
	mv	a5,a0
	.loc 1 1177 10 is_stmt 0 discriminator 1
	ld	a4,-56(s0)
	ld	a3,-48(s0)
	ld	a2,-40(s0)
	ld	a1,-32(s0)
	mv	a0,a5
	call	BitFieldAndThenOr64@plt
	mv	a5,a0
	.loc 1 1177 10 discriminator 2
	mv	a1,a5
	ld	a0,-24(s0)
	call	IoWrite64@plt
	mv	a5,a0
	.loc 1 1181 1 is_stmt 1
	mv	a0,a5
	ld	ra,56(sp)
	.cfi_restore 1
	ld	s0,48(sp)
	.cfi_restore 8
	.cfi_def_cfa 2, 64
	addi	sp,sp,64
	.cfi_def_cfa_offset 0
	jr	ra
	.cfi_endproc
.LFE31:
	.size	IoBitFieldAndThenOr64, .-IoBitFieldAndThenOr64
	.section	.text.MmioOr8,"ax",@progbits
	.align	1
	.globl	MmioOr8
	.type	MmioOr8, @function
MmioOr8:
.LFB32:
	.loc 1 1207 1
	.cfi_startproc
	addi	sp,sp,-32
	.cfi_def_cfa_offset 32
	sd	ra,24(sp)
	sd	s0,16(sp)
	.cfi_offset 1, -8
	.cfi_offset 8, -16
	addi	s0,sp,32
	.cfi_def_cfa 8, 0
	sd	a0,-24(s0)
	mv	a5,a1
	sb	a5,-25(s0)
	.loc 1 1208 39
	ld	a0,-24(s0)
	call	MmioRead8@plt
	mv	a5,a0
	mv	a4,a5
	.loc 1 1208 31 discriminator 1
	lbu	a5,-25(s0)
	or	a5,a4,a5
	andi	a5,a5,0xff
	.loc 1 1208 10 discriminator 1
	mv	a1,a5
	ld	a0,-24(s0)
	call	MmioWrite8@plt
	mv	a5,a0
	.loc 1 1209 1
	mv	a0,a5
	ld	ra,24(sp)
	.cfi_restore 1
	ld	s0,16(sp)
	.cfi_restore 8
	.cfi_def_cfa 2, 32
	addi	sp,sp,32
	.cfi_def_cfa_offset 0
	jr	ra
	.cfi_endproc
.LFE32:
	.size	MmioOr8, .-MmioOr8
	.section	.text.MmioAnd8,"ax",@progbits
	.align	1
	.globl	MmioAnd8
	.type	MmioAnd8, @function
MmioAnd8:
.LFB33:
	.loc 1 1235 1
	.cfi_startproc
	addi	sp,sp,-32
	.cfi_def_cfa_offset 32
	sd	ra,24(sp)
	sd	s0,16(sp)
	.cfi_offset 1, -8
	.cfi_offset 8, -16
	addi	s0,sp,32
	.cfi_def_cfa 8, 0
	sd	a0,-24(s0)
	mv	a5,a1
	sb	a5,-25(s0)
	.loc 1 1236 39
	ld	a0,-24(s0)
	call	MmioRead8@plt
	mv	a5,a0
	mv	a4,a5
	.loc 1 1236 31 discriminator 1
	lbu	a5,-25(s0)
	and	a5,a4,a5
	andi	a5,a5,0xff
	.loc 1 1236 10 discriminator 1
	mv	a1,a5
	ld	a0,-24(s0)
	call	MmioWrite8@plt
	mv	a5,a0
	.loc 1 1237 1
	mv	a0,a5
	ld	ra,24(sp)
	.cfi_restore 1
	ld	s0,16(sp)
	.cfi_restore 8
	.cfi_def_cfa 2, 32
	addi	sp,sp,32
	.cfi_def_cfa_offset 0
	jr	ra
	.cfi_endproc
.LFE33:
	.size	MmioAnd8, .-MmioAnd8
	.section	.text.MmioAndThenOr8,"ax",@progbits
	.align	1
	.globl	MmioAndThenOr8
	.type	MmioAndThenOr8, @function
MmioAndThenOr8:
.LFB34:
	.loc 1 1267 1
	.cfi_startproc
	addi	sp,sp,-32
	.cfi_def_cfa_offset 32
	sd	ra,24(sp)
	sd	s0,16(sp)
	.cfi_offset 1, -8
	.cfi_offset 8, -16
	addi	s0,sp,32
	.cfi_def_cfa 8, 0
	sd	a0,-24(s0)
	mv	a5,a1
	mv	a4,a2
	sb	a5,-25(s0)
	mv	a5,a4
	sb	a5,-26(s0)
	.loc 1 1268 40
	ld	a0,-24(s0)
	call	MmioRead8@plt
	mv	a5,a0
	mv	a4,a5
	.loc 1 1268 10 discriminator 1
	lbu	a5,-25(s0)
	and	a5,a4,a5
	andi	a5,a5,0xff
	.loc 1 1268 31 discriminator 1
	lbu	a4,-26(s0)
	or	a5,a5,a4
	andi	a5,a5,0xff
	.loc 1 1268 10 discriminator 1
	mv	a1,a5
	ld	a0,-24(s0)
	call	MmioWrite8@plt
	mv	a5,a0
	.loc 1 1269 1
	mv	a0,a5
	ld	ra,24(sp)
	.cfi_restore 1
	ld	s0,16(sp)
	.cfi_restore 8
	.cfi_def_cfa 2, 32
	addi	sp,sp,32
	.cfi_def_cfa_offset 0
	jr	ra
	.cfi_endproc
.LFE34:
	.size	MmioAndThenOr8, .-MmioAndThenOr8
	.section	.text.MmioBitFieldRead8,"ax",@progbits
	.align	1
	.globl	MmioBitFieldRead8
	.type	MmioBitFieldRead8, @function
MmioBitFieldRead8:
.LFB35:
	.loc 1 1298 1
	.cfi_startproc
	addi	sp,sp,-48
	.cfi_def_cfa_offset 48
	sd	ra,40(sp)
	sd	s0,32(sp)
	.cfi_offset 1, -8
	.cfi_offset 8, -16
	addi	s0,sp,48
	.cfi_def_cfa 8, 0
	sd	a0,-24(s0)
	sd	a1,-32(s0)
	sd	a2,-40(s0)
	.loc 1 1299 10
	ld	a0,-24(s0)
	call	MmioRead8@plt
	mv	a5,a0
	.loc 1 1299 10 is_stmt 0 discriminator 1
	ld	a2,-40(s0)
	ld	a1,-32(s0)
	mv	a0,a5
	call	BitFieldRead8@plt
	mv	a5,a0
	.loc 1 1300 1 is_stmt 1
	mv	a0,a5
	ld	ra,40(sp)
	.cfi_restore 1
	ld	s0,32(sp)
	.cfi_restore 8
	.cfi_def_cfa 2, 48
	addi	sp,sp,48
	.cfi_def_cfa_offset 0
	jr	ra
	.cfi_endproc
.LFE35:
	.size	MmioBitFieldRead8, .-MmioBitFieldRead8
	.section	.text.MmioBitFieldWrite8,"ax",@progbits
	.align	1
	.globl	MmioBitFieldWrite8
	.type	MmioBitFieldWrite8, @function
MmioBitFieldWrite8:
.LFB36:
	.loc 1 1333 1
	.cfi_startproc
	addi	sp,sp,-48
	.cfi_def_cfa_offset 48
	sd	ra,40(sp)
	sd	s0,32(sp)
	.cfi_offset 1, -8
	.cfi_offset 8, -16
	addi	s0,sp,48
	.cfi_def_cfa 8, 0
	sd	a0,-24(s0)
	sd	a1,-32(s0)
	sd	a2,-40(s0)
	mv	a5,a3
	sb	a5,-41(s0)
	.loc 1 1334 10
	ld	a0,-24(s0)
	call	MmioRead8@plt
	mv	a5,a0
	mv	a4,a5
	.loc 1 1334 10 is_stmt 0 discriminator 1
	lbu	a5,-41(s0)
	mv	a3,a5
	ld	a2,-40(s0)
	ld	a1,-32(s0)
	mv	a0,a4
	call	BitFieldWrite8@plt
	mv	a5,a0
	.loc 1 1334 10 discriminator 2
	mv	a1,a5
	ld	a0,-24(s0)
	call	MmioWrite8@plt
	mv	a5,a0
	.loc 1 1338 1 is_stmt 1
	mv	a0,a5
	ld	ra,40(sp)
	.cfi_restore 1
	ld	s0,32(sp)
	.cfi_restore 8
	.cfi_def_cfa 2, 48
	addi	sp,sp,48
	.cfi_def_cfa_offset 0
	jr	ra
	.cfi_endproc
.LFE36:
	.size	MmioBitFieldWrite8, .-MmioBitFieldWrite8
	.section	.text.MmioBitFieldOr8,"ax",@progbits
	.align	1
	.globl	MmioBitFieldOr8
	.type	MmioBitFieldOr8, @function
MmioBitFieldOr8:
.LFB37:
	.loc 1 1375 1
	.cfi_startproc
	addi	sp,sp,-48
	.cfi_def_cfa_offset 48
	sd	ra,40(sp)
	sd	s0,32(sp)
	.cfi_offset 1, -8
	.cfi_offset 8, -16
	addi	s0,sp,48
	.cfi_def_cfa 8, 0
	sd	a0,-24(s0)
	sd	a1,-32(s0)
	sd	a2,-40(s0)
	mv	a5,a3
	sb	a5,-41(s0)
	.loc 1 1376 10
	ld	a0,-24(s0)
	call	MmioRead8@plt
	mv	a5,a0
	mv	a4,a5
	.loc 1 1376 10 is_stmt 0 discriminator 1
	lbu	a5,-41(s0)
	mv	a3,a5
	ld	a2,-40(s0)
	ld	a1,-32(s0)
	mv	a0,a4
	call	BitFieldOr8@plt
	mv	a5,a0
	.loc 1 1376 10 discriminator 2
	mv	a1,a5
	ld	a0,-24(s0)
	call	MmioWrite8@plt
	mv	a5,a0
	.loc 1 1380 1 is_stmt 1
	mv	a0,a5
	ld	ra,40(sp)
	.cfi_restore 1
	ld	s0,32(sp)
	.cfi_restore 8
	.cfi_def_cfa 2, 48
	addi	sp,sp,48
	.cfi_def_cfa_offset 0
	jr	ra
	.cfi_endproc
.LFE37:
	.size	MmioBitFieldOr8, .-MmioBitFieldOr8
	.section	.text.MmioBitFieldAnd8,"ax",@progbits
	.align	1
	.globl	MmioBitFieldAnd8
	.type	MmioBitFieldAnd8, @function
MmioBitFieldAnd8:
.LFB38:
	.loc 1 1417 1
	.cfi_startproc
	addi	sp,sp,-48
	.cfi_def_cfa_offset 48
	sd	ra,40(sp)
	sd	s0,32(sp)
	.cfi_offset 1, -8
	.cfi_offset 8, -16
	addi	s0,sp,48
	.cfi_def_cfa 8, 0
	sd	a0,-24(s0)
	sd	a1,-32(s0)
	sd	a2,-40(s0)
	mv	a5,a3
	sb	a5,-41(s0)
	.loc 1 1418 10
	ld	a0,-24(s0)
	call	MmioRead8@plt
	mv	a5,a0
	mv	a4,a5
	.loc 1 1418 10 is_stmt 0 discriminator 1
	lbu	a5,-41(s0)
	mv	a3,a5
	ld	a2,-40(s0)
	ld	a1,-32(s0)
	mv	a0,a4
	call	BitFieldAnd8@plt
	mv	a5,a0
	.loc 1 1418 10 discriminator 2
	mv	a1,a5
	ld	a0,-24(s0)
	call	MmioWrite8@plt
	mv	a5,a0
	.loc 1 1422 1 is_stmt 1
	mv	a0,a5
	ld	ra,40(sp)
	.cfi_restore 1
	ld	s0,32(sp)
	.cfi_restore 8
	.cfi_def_cfa 2, 48
	addi	sp,sp,48
	.cfi_def_cfa_offset 0
	jr	ra
	.cfi_endproc
.LFE38:
	.size	MmioBitFieldAnd8, .-MmioBitFieldAnd8
	.section	.text.MmioBitFieldAndThenOr8,"ax",@progbits
	.align	1
	.globl	MmioBitFieldAndThenOr8
	.type	MmioBitFieldAndThenOr8, @function
MmioBitFieldAndThenOr8:
.LFB39:
	.loc 1 1463 1
	.cfi_startproc
	addi	sp,sp,-48
	.cfi_def_cfa_offset 48
	sd	ra,40(sp)
	sd	s0,32(sp)
	.cfi_offset 1, -8
	.cfi_offset 8, -16
	addi	s0,sp,48
	.cfi_def_cfa 8, 0
	sd	a0,-24(s0)
	sd	a1,-32(s0)
	sd	a2,-40(s0)
	mv	a5,a3
	sb	a5,-41(s0)
	mv	a5,a4
	sb	a5,-42(s0)
	.loc 1 1464 10
	ld	a0,-24(s0)
	call	MmioRead8@plt
	mv	a5,a0
	mv	a0,a5
	.loc 1 1464 10 is_stmt 0 discriminator 1
	lbu	a4,-42(s0)
	lbu	a5,-41(s0)
	mv	a3,a5
	ld	a2,-40(s0)
	ld	a1,-32(s0)
	call	BitFieldAndThenOr8@plt
	mv	a5,a0
	.loc 1 1464 10 discriminator 2
	mv	a1,a5
	ld	a0,-24(s0)
	call	MmioWrite8@plt
	mv	a5,a0
	.loc 1 1468 1 is_stmt 1
	mv	a0,a5
	ld	ra,40(sp)
	.cfi_restore 1
	ld	s0,32(sp)
	.cfi_restore 8
	.cfi_def_cfa 2, 48
	addi	sp,sp,48
	.cfi_def_cfa_offset 0
	jr	ra
	.cfi_endproc
.LFE39:
	.size	MmioBitFieldAndThenOr8, .-MmioBitFieldAndThenOr8
	.section	.text.MmioOr16,"ax",@progbits
	.align	1
	.globl	MmioOr16
	.type	MmioOr16, @function
MmioOr16:
.LFB40:
	.loc 1 1495 1
	.cfi_startproc
	addi	sp,sp,-32
	.cfi_def_cfa_offset 32
	sd	ra,24(sp)
	sd	s0,16(sp)
	.cfi_offset 1, -8
	.cfi_offset 8, -16
	addi	s0,sp,32
	.cfi_def_cfa 8, 0
	sd	a0,-24(s0)
	mv	a5,a1
	sh	a5,-26(s0)
	.loc 1 1496 41
	ld	a0,-24(s0)
	call	MmioRead16@plt
	mv	a5,a0
	mv	a4,a5
	.loc 1 1496 32 discriminator 1
	lhu	a5,-26(s0)
	or	a5,a4,a5
	slli	a5,a5,48
	srli	a5,a5,48
	.loc 1 1496 10 discriminator 1
	mv	a1,a5
	ld	a0,-24(s0)
	call	MmioWrite16@plt
	mv	a5,a0
	.loc 1 1497 1
	mv	a0,a5
	ld	ra,24(sp)
	.cfi_restore 1
	ld	s0,16(sp)
	.cfi_restore 8
	.cfi_def_cfa 2, 32
	addi	sp,sp,32
	.cfi_def_cfa_offset 0
	jr	ra
	.cfi_endproc
.LFE40:
	.size	MmioOr16, .-MmioOr16
	.section	.text.MmioAnd16,"ax",@progbits
	.align	1
	.globl	MmioAnd16
	.type	MmioAnd16, @function
MmioAnd16:
.LFB41:
	.loc 1 1524 1
	.cfi_startproc
	addi	sp,sp,-32
	.cfi_def_cfa_offset 32
	sd	ra,24(sp)
	sd	s0,16(sp)
	.cfi_offset 1, -8
	.cfi_offset 8, -16
	addi	s0,sp,32
	.cfi_def_cfa 8, 0
	sd	a0,-24(s0)
	mv	a5,a1
	sh	a5,-26(s0)
	.loc 1 1525 41
	ld	a0,-24(s0)
	call	MmioRead16@plt
	mv	a5,a0
	mv	a4,a5
	.loc 1 1525 32 discriminator 1
	lhu	a5,-26(s0)
	and	a5,a4,a5
	slli	a5,a5,48
	srli	a5,a5,48
	.loc 1 1525 10 discriminator 1
	mv	a1,a5
	ld	a0,-24(s0)
	call	MmioWrite16@plt
	mv	a5,a0
	.loc 1 1526 1
	mv	a0,a5
	ld	ra,24(sp)
	.cfi_restore 1
	ld	s0,16(sp)
	.cfi_restore 8
	.cfi_def_cfa 2, 32
	addi	sp,sp,32
	.cfi_def_cfa_offset 0
	jr	ra
	.cfi_endproc
.LFE41:
	.size	MmioAnd16, .-MmioAnd16
	.section	.text.MmioAndThenOr16,"ax",@progbits
	.align	1
	.globl	MmioAndThenOr16
	.type	MmioAndThenOr16, @function
MmioAndThenOr16:
.LFB42:
	.loc 1 1556 1
	.cfi_startproc
	addi	sp,sp,-32
	.cfi_def_cfa_offset 32
	sd	ra,24(sp)
	sd	s0,16(sp)
	.cfi_offset 1, -8
	.cfi_offset 8, -16
	addi	s0,sp,32
	.cfi_def_cfa 8, 0
	sd	a0,-24(s0)
	mv	a5,a1
	mv	a4,a2
	sh	a5,-26(s0)
	mv	a5,a4
	sh	a5,-28(s0)
	.loc 1 1557 42
	ld	a0,-24(s0)
	call	MmioRead16@plt
	mv	a5,a0
	mv	a4,a5
	.loc 1 1557 10 discriminator 1
	lhu	a5,-26(s0)
	and	a5,a4,a5
	slli	a5,a5,48
	srli	a5,a5,48
	.loc 1 1557 32 discriminator 1
	lhu	a4,-28(s0)
	or	a5,a5,a4
	slli	a5,a5,48
	srli	a5,a5,48
	.loc 1 1557 10 discriminator 1
	mv	a1,a5
	ld	a0,-24(s0)
	call	MmioWrite16@plt
	mv	a5,a0
	.loc 1 1558 1
	mv	a0,a5
	ld	ra,24(sp)
	.cfi_restore 1
	ld	s0,16(sp)
	.cfi_restore 8
	.cfi_def_cfa 2, 32
	addi	sp,sp,32
	.cfi_def_cfa_offset 0
	jr	ra
	.cfi_endproc
.LFE42:
	.size	MmioAndThenOr16, .-MmioAndThenOr16
	.section	.text.MmioBitFieldRead16,"ax",@progbits
	.align	1
	.globl	MmioBitFieldRead16
	.type	MmioBitFieldRead16, @function
MmioBitFieldRead16:
.LFB43:
	.loc 1 1588 1
	.cfi_startproc
	addi	sp,sp,-48
	.cfi_def_cfa_offset 48
	sd	ra,40(sp)
	sd	s0,32(sp)
	.cfi_offset 1, -8
	.cfi_offset 8, -16
	addi	s0,sp,48
	.cfi_def_cfa 8, 0
	sd	a0,-24(s0)
	sd	a1,-32(s0)
	sd	a2,-40(s0)
	.loc 1 1589 10
	ld	a0,-24(s0)
	call	MmioRead16@plt
	mv	a5,a0
	.loc 1 1589 10 is_stmt 0 discriminator 1
	ld	a2,-40(s0)
	ld	a1,-32(s0)
	mv	a0,a5
	call	BitFieldRead16@plt
	mv	a5,a0
	.loc 1 1590 1 is_stmt 1
	mv	a0,a5
	ld	ra,40(sp)
	.cfi_restore 1
	ld	s0,32(sp)
	.cfi_restore 8
	.cfi_def_cfa 2, 48
	addi	sp,sp,48
	.cfi_def_cfa_offset 0
	jr	ra
	.cfi_endproc
.LFE43:
	.size	MmioBitFieldRead16, .-MmioBitFieldRead16
	.section	.text.MmioBitFieldWrite16,"ax",@progbits
	.align	1
	.globl	MmioBitFieldWrite16
	.type	MmioBitFieldWrite16, @function
MmioBitFieldWrite16:
.LFB44:
	.loc 1 1624 1
	.cfi_startproc
	addi	sp,sp,-48
	.cfi_def_cfa_offset 48
	sd	ra,40(sp)
	sd	s0,32(sp)
	.cfi_offset 1, -8
	.cfi_offset 8, -16
	addi	s0,sp,48
	.cfi_def_cfa 8, 0
	sd	a0,-24(s0)
	sd	a1,-32(s0)
	sd	a2,-40(s0)
	mv	a5,a3
	sh	a5,-42(s0)
	.loc 1 1625 10
	ld	a0,-24(s0)
	call	MmioRead16@plt
	mv	a5,a0
	mv	a4,a5
	.loc 1 1625 10 is_stmt 0 discriminator 1
	lhu	a5,-42(s0)
	mv	a3,a5
	ld	a2,-40(s0)
	ld	a1,-32(s0)
	mv	a0,a4
	call	BitFieldWrite16@plt
	mv	a5,a0
	.loc 1 1625 10 discriminator 2
	mv	a1,a5
	ld	a0,-24(s0)
	call	MmioWrite16@plt
	mv	a5,a0
	.loc 1 1629 1 is_stmt 1
	mv	a0,a5
	ld	ra,40(sp)
	.cfi_restore 1
	ld	s0,32(sp)
	.cfi_restore 8
	.cfi_def_cfa 2, 48
	addi	sp,sp,48
	.cfi_def_cfa_offset 0
	jr	ra
	.cfi_endproc
.LFE44:
	.size	MmioBitFieldWrite16, .-MmioBitFieldWrite16
	.section	.text.MmioBitFieldOr16,"ax",@progbits
	.align	1
	.globl	MmioBitFieldOr16
	.type	MmioBitFieldOr16, @function
MmioBitFieldOr16:
.LFB45:
	.loc 1 1667 1
	.cfi_startproc
	addi	sp,sp,-48
	.cfi_def_cfa_offset 48
	sd	ra,40(sp)
	sd	s0,32(sp)
	.cfi_offset 1, -8
	.cfi_offset 8, -16
	addi	s0,sp,48
	.cfi_def_cfa 8, 0
	sd	a0,-24(s0)
	sd	a1,-32(s0)
	sd	a2,-40(s0)
	mv	a5,a3
	sh	a5,-42(s0)
	.loc 1 1668 10
	ld	a0,-24(s0)
	call	MmioRead16@plt
	mv	a5,a0
	mv	a4,a5
	.loc 1 1668 10 is_stmt 0 discriminator 1
	lhu	a5,-42(s0)
	mv	a3,a5
	ld	a2,-40(s0)
	ld	a1,-32(s0)
	mv	a0,a4
	call	BitFieldOr16@plt
	mv	a5,a0
	.loc 1 1668 10 discriminator 2
	mv	a1,a5
	ld	a0,-24(s0)
	call	MmioWrite16@plt
	mv	a5,a0
	.loc 1 1672 1 is_stmt 1
	mv	a0,a5
	ld	ra,40(sp)
	.cfi_restore 1
	ld	s0,32(sp)
	.cfi_restore 8
	.cfi_def_cfa 2, 48
	addi	sp,sp,48
	.cfi_def_cfa_offset 0
	jr	ra
	.cfi_endproc
.LFE45:
	.size	MmioBitFieldOr16, .-MmioBitFieldOr16
	.section	.text.MmioBitFieldAnd16,"ax",@progbits
	.align	1
	.globl	MmioBitFieldAnd16
	.type	MmioBitFieldAnd16, @function
MmioBitFieldAnd16:
.LFB46:
	.loc 1 1710 1
	.cfi_startproc
	addi	sp,sp,-48
	.cfi_def_cfa_offset 48
	sd	ra,40(sp)
	sd	s0,32(sp)
	.cfi_offset 1, -8
	.cfi_offset 8, -16
	addi	s0,sp,48
	.cfi_def_cfa 8, 0
	sd	a0,-24(s0)
	sd	a1,-32(s0)
	sd	a2,-40(s0)
	mv	a5,a3
	sh	a5,-42(s0)
	.loc 1 1711 10
	ld	a0,-24(s0)
	call	MmioRead16@plt
	mv	a5,a0
	mv	a4,a5
	.loc 1 1711 10 is_stmt 0 discriminator 1
	lhu	a5,-42(s0)
	mv	a3,a5
	ld	a2,-40(s0)
	ld	a1,-32(s0)
	mv	a0,a4
	call	BitFieldAnd16@plt
	mv	a5,a0
	.loc 1 1711 10 discriminator 2
	mv	a1,a5
	ld	a0,-24(s0)
	call	MmioWrite16@plt
	mv	a5,a0
	.loc 1 1715 1 is_stmt 1
	mv	a0,a5
	ld	ra,40(sp)
	.cfi_restore 1
	ld	s0,32(sp)
	.cfi_restore 8
	.cfi_def_cfa 2, 48
	addi	sp,sp,48
	.cfi_def_cfa_offset 0
	jr	ra
	.cfi_endproc
.LFE46:
	.size	MmioBitFieldAnd16, .-MmioBitFieldAnd16
	.section	.text.MmioBitFieldAndThenOr16,"ax",@progbits
	.align	1
	.globl	MmioBitFieldAndThenOr16
	.type	MmioBitFieldAndThenOr16, @function
MmioBitFieldAndThenOr16:
.LFB47:
	.loc 1 1757 1
	.cfi_startproc
	addi	sp,sp,-48
	.cfi_def_cfa_offset 48
	sd	ra,40(sp)
	sd	s0,32(sp)
	.cfi_offset 1, -8
	.cfi_offset 8, -16
	addi	s0,sp,48
	.cfi_def_cfa 8, 0
	sd	a0,-24(s0)
	sd	a1,-32(s0)
	sd	a2,-40(s0)
	mv	a5,a3
	sh	a5,-42(s0)
	mv	a5,a4
	sh	a5,-44(s0)
	.loc 1 1758 10
	ld	a0,-24(s0)
	call	MmioRead16@plt
	mv	a5,a0
	mv	a0,a5
	.loc 1 1758 10 is_stmt 0 discriminator 1
	lhu	a4,-44(s0)
	lhu	a5,-42(s0)
	mv	a3,a5
	ld	a2,-40(s0)
	ld	a1,-32(s0)
	call	BitFieldAndThenOr16@plt
	mv	a5,a0
	.loc 1 1758 10 discriminator 2
	mv	a1,a5
	ld	a0,-24(s0)
	call	MmioWrite16@plt
	mv	a5,a0
	.loc 1 1762 1 is_stmt 1
	mv	a0,a5
	ld	ra,40(sp)
	.cfi_restore 1
	ld	s0,32(sp)
	.cfi_restore 8
	.cfi_def_cfa 2, 48
	addi	sp,sp,48
	.cfi_def_cfa_offset 0
	jr	ra
	.cfi_endproc
.LFE47:
	.size	MmioBitFieldAndThenOr16, .-MmioBitFieldAndThenOr16
	.section	.text.MmioOr32,"ax",@progbits
	.align	1
	.globl	MmioOr32
	.type	MmioOr32, @function
MmioOr32:
.LFB48:
	.loc 1 1789 1
	.cfi_startproc
	addi	sp,sp,-32
	.cfi_def_cfa_offset 32
	sd	ra,24(sp)
	sd	s0,16(sp)
	.cfi_offset 1, -8
	.cfi_offset 8, -16
	addi	s0,sp,32
	.cfi_def_cfa 8, 0
	sd	a0,-24(s0)
	mv	a5,a1
	sw	a5,-28(s0)
	.loc 1 1790 32
	ld	a0,-24(s0)
	call	MmioRead32@plt
	mv	a5,a0
	mv	a3,a5
	.loc 1 1790 10 discriminator 1
	lw	a5,-28(s0)
	mv	a4,a5
	mv	a5,a3
	or	a5,a4,a5
	sext.w	a5,a5
	mv	a1,a5
	ld	a0,-24(s0)
	call	MmioWrite32@plt
	mv	a5,a0
	.loc 1 1791 1
	mv	a0,a5
	ld	ra,24(sp)
	.cfi_restore 1
	ld	s0,16(sp)
	.cfi_restore 8
	.cfi_def_cfa 2, 32
	addi	sp,sp,32
	.cfi_def_cfa_offset 0
	jr	ra
	.cfi_endproc
.LFE48:
	.size	MmioOr32, .-MmioOr32
	.section	.text.MmioAnd32,"ax",@progbits
	.align	1
	.globl	MmioAnd32
	.type	MmioAnd32, @function
MmioAnd32:
.LFB49:
	.loc 1 1818 1
	.cfi_startproc
	addi	sp,sp,-32
	.cfi_def_cfa_offset 32
	sd	ra,24(sp)
	sd	s0,16(sp)
	.cfi_offset 1, -8
	.cfi_offset 8, -16
	addi	s0,sp,32
	.cfi_def_cfa 8, 0
	sd	a0,-24(s0)
	mv	a5,a1
	sw	a5,-28(s0)
	.loc 1 1819 32
	ld	a0,-24(s0)
	call	MmioRead32@plt
	mv	a5,a0
	mv	a3,a5
	.loc 1 1819 10 discriminator 1
	lw	a5,-28(s0)
	mv	a4,a5
	mv	a5,a3
	and	a5,a4,a5
	sext.w	a5,a5
	mv	a1,a5
	ld	a0,-24(s0)
	call	MmioWrite32@plt
	mv	a5,a0
	.loc 1 1820 1
	mv	a0,a5
	ld	ra,24(sp)
	.cfi_restore 1
	ld	s0,16(sp)
	.cfi_restore 8
	.cfi_def_cfa 2, 32
	addi	sp,sp,32
	.cfi_def_cfa_offset 0
	jr	ra
	.cfi_endproc
.LFE49:
	.size	MmioAnd32, .-MmioAnd32
	.section	.text.MmioAndThenOr32,"ax",@progbits
	.align	1
	.globl	MmioAndThenOr32
	.type	MmioAndThenOr32, @function
MmioAndThenOr32:
.LFB50:
	.loc 1 1850 1
	.cfi_startproc
	addi	sp,sp,-32
	.cfi_def_cfa_offset 32
	sd	ra,24(sp)
	sd	s0,16(sp)
	.cfi_offset 1, -8
	.cfi_offset 8, -16
	addi	s0,sp,32
	.cfi_def_cfa 8, 0
	sd	a0,-24(s0)
	mv	a5,a1
	mv	a4,a2
	sw	a5,-28(s0)
	mv	a5,a4
	sw	a5,-32(s0)
	.loc 1 1851 33
	ld	a0,-24(s0)
	call	MmioRead32@plt
	mv	a5,a0
	mv	a3,a5
	.loc 1 1851 54 discriminator 1
	lw	a5,-28(s0)
	mv	a4,a5
	mv	a5,a3
	and	a5,a4,a5
	sext.w	a5,a5
	.loc 1 1851 10 discriminator 1
	lw	a4,-32(s0)
	or	a5,a4,a5
	sext.w	a5,a5
	mv	a1,a5
	ld	a0,-24(s0)
	call	MmioWrite32@plt
	mv	a5,a0
	.loc 1 1852 1
	mv	a0,a5
	ld	ra,24(sp)
	.cfi_restore 1
	ld	s0,16(sp)
	.cfi_restore 8
	.cfi_def_cfa 2, 32
	addi	sp,sp,32
	.cfi_def_cfa_offset 0
	jr	ra
	.cfi_endproc
.LFE50:
	.size	MmioAndThenOr32, .-MmioAndThenOr32
	.section	.text.MmioBitFieldRead32,"ax",@progbits
	.align	1
	.globl	MmioBitFieldRead32
	.type	MmioBitFieldRead32, @function
MmioBitFieldRead32:
.LFB51:
	.loc 1 1882 1
	.cfi_startproc
	addi	sp,sp,-48
	.cfi_def_cfa_offset 48
	sd	ra,40(sp)
	sd	s0,32(sp)
	.cfi_offset 1, -8
	.cfi_offset 8, -16
	addi	s0,sp,48
	.cfi_def_cfa 8, 0
	sd	a0,-24(s0)
	sd	a1,-32(s0)
	sd	a2,-40(s0)
	.loc 1 1883 10
	ld	a0,-24(s0)
	call	MmioRead32@plt
	mv	a5,a0
	.loc 1 1883 10 is_stmt 0 discriminator 1
	ld	a2,-40(s0)
	ld	a1,-32(s0)
	mv	a0,a5
	call	BitFieldRead32@plt
	mv	a5,a0
	.loc 1 1884 1 is_stmt 1
	mv	a0,a5
	ld	ra,40(sp)
	.cfi_restore 1
	ld	s0,32(sp)
	.cfi_restore 8
	.cfi_def_cfa 2, 48
	addi	sp,sp,48
	.cfi_def_cfa_offset 0
	jr	ra
	.cfi_endproc
.LFE51:
	.size	MmioBitFieldRead32, .-MmioBitFieldRead32
	.section	.text.MmioBitFieldWrite32,"ax",@progbits
	.align	1
	.globl	MmioBitFieldWrite32
	.type	MmioBitFieldWrite32, @function
MmioBitFieldWrite32:
.LFB52:
	.loc 1 1918 1
	.cfi_startproc
	addi	sp,sp,-48
	.cfi_def_cfa_offset 48
	sd	ra,40(sp)
	sd	s0,32(sp)
	.cfi_offset 1, -8
	.cfi_offset 8, -16
	addi	s0,sp,48
	.cfi_def_cfa 8, 0
	sd	a0,-24(s0)
	sd	a1,-32(s0)
	sd	a2,-40(s0)
	mv	a5,a3
	sw	a5,-44(s0)
	.loc 1 1919 10
	ld	a0,-24(s0)
	call	MmioRead32@plt
	mv	a5,a0
	mv	a4,a5
	.loc 1 1919 10 is_stmt 0 discriminator 1
	lw	a5,-44(s0)
	mv	a3,a5
	ld	a2,-40(s0)
	ld	a1,-32(s0)
	mv	a0,a4
	call	BitFieldWrite32@plt
	mv	a5,a0
	.loc 1 1919 10 discriminator 2
	mv	a1,a5
	ld	a0,-24(s0)
	call	MmioWrite32@plt
	mv	a5,a0
	.loc 1 1923 1 is_stmt 1
	mv	a0,a5
	ld	ra,40(sp)
	.cfi_restore 1
	ld	s0,32(sp)
	.cfi_restore 8
	.cfi_def_cfa 2, 48
	addi	sp,sp,48
	.cfi_def_cfa_offset 0
	jr	ra
	.cfi_endproc
.LFE52:
	.size	MmioBitFieldWrite32, .-MmioBitFieldWrite32
	.section	.text.MmioBitFieldOr32,"ax",@progbits
	.align	1
	.globl	MmioBitFieldOr32
	.type	MmioBitFieldOr32, @function
MmioBitFieldOr32:
.LFB53:
	.loc 1 1961 1
	.cfi_startproc
	addi	sp,sp,-48
	.cfi_def_cfa_offset 48
	sd	ra,40(sp)
	sd	s0,32(sp)
	.cfi_offset 1, -8
	.cfi_offset 8, -16
	addi	s0,sp,48
	.cfi_def_cfa 8, 0
	sd	a0,-24(s0)
	sd	a1,-32(s0)
	sd	a2,-40(s0)
	mv	a5,a3
	sw	a5,-44(s0)
	.loc 1 1962 10
	ld	a0,-24(s0)
	call	MmioRead32@plt
	mv	a5,a0
	mv	a4,a5
	.loc 1 1962 10 is_stmt 0 discriminator 1
	lw	a5,-44(s0)
	mv	a3,a5
	ld	a2,-40(s0)
	ld	a1,-32(s0)
	mv	a0,a4
	call	BitFieldOr32@plt
	mv	a5,a0
	.loc 1 1962 10 discriminator 2
	mv	a1,a5
	ld	a0,-24(s0)
	call	MmioWrite32@plt
	mv	a5,a0
	.loc 1 1966 1 is_stmt 1
	mv	a0,a5
	ld	ra,40(sp)
	.cfi_restore 1
	ld	s0,32(sp)
	.cfi_restore 8
	.cfi_def_cfa 2, 48
	addi	sp,sp,48
	.cfi_def_cfa_offset 0
	jr	ra
	.cfi_endproc
.LFE53:
	.size	MmioBitFieldOr32, .-MmioBitFieldOr32
	.section	.text.MmioBitFieldAnd32,"ax",@progbits
	.align	1
	.globl	MmioBitFieldAnd32
	.type	MmioBitFieldAnd32, @function
MmioBitFieldAnd32:
.LFB54:
	.loc 1 2004 1
	.cfi_startproc
	addi	sp,sp,-48
	.cfi_def_cfa_offset 48
	sd	ra,40(sp)
	sd	s0,32(sp)
	.cfi_offset 1, -8
	.cfi_offset 8, -16
	addi	s0,sp,48
	.cfi_def_cfa 8, 0
	sd	a0,-24(s0)
	sd	a1,-32(s0)
	sd	a2,-40(s0)
	mv	a5,a3
	sw	a5,-44(s0)
	.loc 1 2005 10
	ld	a0,-24(s0)
	call	MmioRead32@plt
	mv	a5,a0
	mv	a4,a5
	.loc 1 2005 10 is_stmt 0 discriminator 1
	lw	a5,-44(s0)
	mv	a3,a5
	ld	a2,-40(s0)
	ld	a1,-32(s0)
	mv	a0,a4
	call	BitFieldAnd32@plt
	mv	a5,a0
	.loc 1 2005 10 discriminator 2
	mv	a1,a5
	ld	a0,-24(s0)
	call	MmioWrite32@plt
	mv	a5,a0
	.loc 1 2009 1 is_stmt 1
	mv	a0,a5
	ld	ra,40(sp)
	.cfi_restore 1
	ld	s0,32(sp)
	.cfi_restore 8
	.cfi_def_cfa 2, 48
	addi	sp,sp,48
	.cfi_def_cfa_offset 0
	jr	ra
	.cfi_endproc
.LFE54:
	.size	MmioBitFieldAnd32, .-MmioBitFieldAnd32
	.section	.text.MmioBitFieldAndThenOr32,"ax",@progbits
	.align	1
	.globl	MmioBitFieldAndThenOr32
	.type	MmioBitFieldAndThenOr32, @function
MmioBitFieldAndThenOr32:
.LFB55:
	.loc 1 2051 1
	.cfi_startproc
	addi	sp,sp,-48
	.cfi_def_cfa_offset 48
	sd	ra,40(sp)
	sd	s0,32(sp)
	.cfi_offset 1, -8
	.cfi_offset 8, -16
	addi	s0,sp,48
	.cfi_def_cfa 8, 0
	sd	a0,-24(s0)
	sd	a1,-32(s0)
	sd	a2,-40(s0)
	mv	a5,a3
	sw	a5,-44(s0)
	mv	a5,a4
	sw	a5,-48(s0)
	.loc 1 2052 10
	ld	a0,-24(s0)
	call	MmioRead32@plt
	mv	a5,a0
	mv	a0,a5
	.loc 1 2052 10 is_stmt 0 discriminator 1
	lw	a4,-48(s0)
	lw	a5,-44(s0)
	mv	a3,a5
	ld	a2,-40(s0)
	ld	a1,-32(s0)
	call	BitFieldAndThenOr32@plt
	mv	a5,a0
	.loc 1 2052 10 discriminator 2
	mv	a1,a5
	ld	a0,-24(s0)
	call	MmioWrite32@plt
	mv	a5,a0
	.loc 1 2056 1 is_stmt 1
	mv	a0,a5
	ld	ra,40(sp)
	.cfi_restore 1
	ld	s0,32(sp)
	.cfi_restore 8
	.cfi_def_cfa 2, 48
	addi	sp,sp,48
	.cfi_def_cfa_offset 0
	jr	ra
	.cfi_endproc
.LFE55:
	.size	MmioBitFieldAndThenOr32, .-MmioBitFieldAndThenOr32
	.section	.text.MmioOr64,"ax",@progbits
	.align	1
	.globl	MmioOr64
	.type	MmioOr64, @function
MmioOr64:
.LFB56:
	.loc 1 2083 1
	.cfi_startproc
	addi	sp,sp,-32
	.cfi_def_cfa_offset 32
	sd	ra,24(sp)
	sd	s0,16(sp)
	.cfi_offset 1, -8
	.cfi_offset 8, -16
	addi	s0,sp,32
	.cfi_def_cfa 8, 0
	sd	a0,-24(s0)
	sd	a1,-32(s0)
	.loc 1 2084 32
	ld	a0,-24(s0)
	call	MmioRead64@plt
	mv	a4,a0
	.loc 1 2084 10 discriminator 1
	ld	a5,-32(s0)
	or	a5,a4,a5
	mv	a1,a5
	ld	a0,-24(s0)
	call	MmioWrite64@plt
	mv	a5,a0
	.loc 1 2085 1
	mv	a0,a5
	ld	ra,24(sp)
	.cfi_restore 1
	ld	s0,16(sp)
	.cfi_restore 8
	.cfi_def_cfa 2, 32
	addi	sp,sp,32
	.cfi_def_cfa_offset 0
	jr	ra
	.cfi_endproc
.LFE56:
	.size	MmioOr64, .-MmioOr64
	.section	.text.MmioAnd64,"ax",@progbits
	.align	1
	.globl	MmioAnd64
	.type	MmioAnd64, @function
MmioAnd64:
.LFB57:
	.loc 1 2112 1
	.cfi_startproc
	addi	sp,sp,-32
	.cfi_def_cfa_offset 32
	sd	ra,24(sp)
	sd	s0,16(sp)
	.cfi_offset 1, -8
	.cfi_offset 8, -16
	addi	s0,sp,32
	.cfi_def_cfa 8, 0
	sd	a0,-24(s0)
	sd	a1,-32(s0)
	.loc 1 2113 32
	ld	a0,-24(s0)
	call	MmioRead64@plt
	mv	a4,a0
	.loc 1 2113 10 discriminator 1
	ld	a5,-32(s0)
	and	a5,a4,a5
	mv	a1,a5
	ld	a0,-24(s0)
	call	MmioWrite64@plt
	mv	a5,a0
	.loc 1 2114 1
	mv	a0,a5
	ld	ra,24(sp)
	.cfi_restore 1
	ld	s0,16(sp)
	.cfi_restore 8
	.cfi_def_cfa 2, 32
	addi	sp,sp,32
	.cfi_def_cfa_offset 0
	jr	ra
	.cfi_endproc
.LFE57:
	.size	MmioAnd64, .-MmioAnd64
	.section	.text.MmioAndThenOr64,"ax",@progbits
	.align	1
	.globl	MmioAndThenOr64
	.type	MmioAndThenOr64, @function
MmioAndThenOr64:
.LFB58:
	.loc 1 2144 1
	.cfi_startproc
	addi	sp,sp,-48
	.cfi_def_cfa_offset 48
	sd	ra,40(sp)
	sd	s0,32(sp)
	.cfi_offset 1, -8
	.cfi_offset 8, -16
	addi	s0,sp,48
	.cfi_def_cfa 8, 0
	sd	a0,-24(s0)
	sd	a1,-32(s0)
	sd	a2,-40(s0)
	.loc 1 2145 33
	ld	a0,-24(s0)
	call	MmioRead64@plt
	mv	a4,a0
	.loc 1 2145 54 discriminator 1
	ld	a5,-32(s0)
	and	a4,a4,a5
	.loc 1 2145 10 discriminator 1
	ld	a5,-40(s0)
	or	a5,a4,a5
	mv	a1,a5
	ld	a0,-24(s0)
	call	MmioWrite64@plt
	mv	a5,a0
	.loc 1 2146 1
	mv	a0,a5
	ld	ra,40(sp)
	.cfi_restore 1
	ld	s0,32(sp)
	.cfi_restore 8
	.cfi_def_cfa 2, 48
	addi	sp,sp,48
	.cfi_def_cfa_offset 0
	jr	ra
	.cfi_endproc
.LFE58:
	.size	MmioAndThenOr64, .-MmioAndThenOr64
	.section	.text.MmioBitFieldRead64,"ax",@progbits
	.align	1
	.globl	MmioBitFieldRead64
	.type	MmioBitFieldRead64, @function
MmioBitFieldRead64:
.LFB59:
	.loc 1 2176 1
	.cfi_startproc
	addi	sp,sp,-48
	.cfi_def_cfa_offset 48
	sd	ra,40(sp)
	sd	s0,32(sp)
	.cfi_offset 1, -8
	.cfi_offset 8, -16
	addi	s0,sp,48
	.cfi_def_cfa 8, 0
	sd	a0,-24(s0)
	sd	a1,-32(s0)
	sd	a2,-40(s0)
	.loc 1 2177 10
	ld	a0,-24(s0)
	call	MmioRead64@plt
	mv	a5,a0
	.loc 1 2177 10 is_stmt 0 discriminator 1
	ld	a2,-40(s0)
	ld	a1,-32(s0)
	mv	a0,a5
	call	BitFieldRead64@plt
	mv	a5,a0
	.loc 1 2178 1 is_stmt 1
	mv	a0,a5
	ld	ra,40(sp)
	.cfi_restore 1
	ld	s0,32(sp)
	.cfi_restore 8
	.cfi_def_cfa 2, 48
	addi	sp,sp,48
	.cfi_def_cfa_offset 0
	jr	ra
	.cfi_endproc
.LFE59:
	.size	MmioBitFieldRead64, .-MmioBitFieldRead64
	.section	.text.MmioBitFieldWrite64,"ax",@progbits
	.align	1
	.globl	MmioBitFieldWrite64
	.type	MmioBitFieldWrite64, @function
MmioBitFieldWrite64:
.LFB60:
	.loc 1 2212 1
	.cfi_startproc
	addi	sp,sp,-48
	.cfi_def_cfa_offset 48
	sd	ra,40(sp)
	sd	s0,32(sp)
	.cfi_offset 1, -8
	.cfi_offset 8, -16
	addi	s0,sp,48
	.cfi_def_cfa 8, 0
	sd	a0,-24(s0)
	sd	a1,-32(s0)
	sd	a2,-40(s0)
	sd	a3,-48(s0)
	.loc 1 2213 10
	ld	a0,-24(s0)
	call	MmioRead64@plt
	mv	a5,a0
	.loc 1 2213 10 is_stmt 0 discriminator 1
	ld	a3,-48(s0)
	ld	a2,-40(s0)
	ld	a1,-32(s0)
	mv	a0,a5
	call	BitFieldWrite64@plt
	mv	a5,a0
	.loc 1 2213 10 discriminator 2
	mv	a1,a5
	ld	a0,-24(s0)
	call	MmioWrite64@plt
	mv	a5,a0
	.loc 1 2217 1 is_stmt 1
	mv	a0,a5
	ld	ra,40(sp)
	.cfi_restore 1
	ld	s0,32(sp)
	.cfi_restore 8
	.cfi_def_cfa 2, 48
	addi	sp,sp,48
	.cfi_def_cfa_offset 0
	jr	ra
	.cfi_endproc
.LFE60:
	.size	MmioBitFieldWrite64, .-MmioBitFieldWrite64
	.section	.text.MmioBitFieldOr64,"ax",@progbits
	.align	1
	.globl	MmioBitFieldOr64
	.type	MmioBitFieldOr64, @function
MmioBitFieldOr64:
.LFB61:
	.loc 1 2255 1
	.cfi_startproc
	addi	sp,sp,-48
	.cfi_def_cfa_offset 48
	sd	ra,40(sp)
	sd	s0,32(sp)
	.cfi_offset 1, -8
	.cfi_offset 8, -16
	addi	s0,sp,48
	.cfi_def_cfa 8, 0
	sd	a0,-24(s0)
	sd	a1,-32(s0)
	sd	a2,-40(s0)
	sd	a3,-48(s0)
	.loc 1 2256 10
	ld	a0,-24(s0)
	call	MmioRead64@plt
	mv	a5,a0
	.loc 1 2256 10 is_stmt 0 discriminator 1
	ld	a3,-48(s0)
	ld	a2,-40(s0)
	ld	a1,-32(s0)
	mv	a0,a5
	call	BitFieldOr64@plt
	mv	a5,a0
	.loc 1 2256 10 discriminator 2
	mv	a1,a5
	ld	a0,-24(s0)
	call	MmioWrite64@plt
	mv	a5,a0
	.loc 1 2260 1 is_stmt 1
	mv	a0,a5
	ld	ra,40(sp)
	.cfi_restore 1
	ld	s0,32(sp)
	.cfi_restore 8
	.cfi_def_cfa 2, 48
	addi	sp,sp,48
	.cfi_def_cfa_offset 0
	jr	ra
	.cfi_endproc
.LFE61:
	.size	MmioBitFieldOr64, .-MmioBitFieldOr64
	.section	.text.MmioBitFieldAnd64,"ax",@progbits
	.align	1
	.globl	MmioBitFieldAnd64
	.type	MmioBitFieldAnd64, @function
MmioBitFieldAnd64:
.LFB62:
	.loc 1 2298 1
	.cfi_startproc
	addi	sp,sp,-48
	.cfi_def_cfa_offset 48
	sd	ra,40(sp)
	sd	s0,32(sp)
	.cfi_offset 1, -8
	.cfi_offset 8, -16
	addi	s0,sp,48
	.cfi_def_cfa 8, 0
	sd	a0,-24(s0)
	sd	a1,-32(s0)
	sd	a2,-40(s0)
	sd	a3,-48(s0)
	.loc 1 2299 10
	ld	a0,-24(s0)
	call	MmioRead64@plt
	mv	a5,a0
	.loc 1 2299 10 is_stmt 0 discriminator 1
	ld	a3,-48(s0)
	ld	a2,-40(s0)
	ld	a1,-32(s0)
	mv	a0,a5
	call	BitFieldAnd64@plt
	mv	a5,a0
	.loc 1 2299 10 discriminator 2
	mv	a1,a5
	ld	a0,-24(s0)
	call	MmioWrite64@plt
	mv	a5,a0
	.loc 1 2303 1 is_stmt 1
	mv	a0,a5
	ld	ra,40(sp)
	.cfi_restore 1
	ld	s0,32(sp)
	.cfi_restore 8
	.cfi_def_cfa 2, 48
	addi	sp,sp,48
	.cfi_def_cfa_offset 0
	jr	ra
	.cfi_endproc
.LFE62:
	.size	MmioBitFieldAnd64, .-MmioBitFieldAnd64
	.section	.text.MmioBitFieldAndThenOr64,"ax",@progbits
	.align	1
	.globl	MmioBitFieldAndThenOr64
	.type	MmioBitFieldAndThenOr64, @function
MmioBitFieldAndThenOr64:
.LFB63:
	.loc 1 2345 1
	.cfi_startproc
	addi	sp,sp,-64
	.cfi_def_cfa_offset 64
	sd	ra,56(sp)
	sd	s0,48(sp)
	.cfi_offset 1, -8
	.cfi_offset 8, -16
	addi	s0,sp,64
	.cfi_def_cfa 8, 0
	sd	a0,-24(s0)
	sd	a1,-32(s0)
	sd	a2,-40(s0)
	sd	a3,-48(s0)
	sd	a4,-56(s0)
	.loc 1 2346 10
	ld	a0,-24(s0)
	call	MmioRead64@plt
	mv	a5,a0
	.loc 1 2346 10 is_stmt 0 discriminator 1
	ld	a4,-56(s0)
	ld	a3,-48(s0)
	ld	a2,-40(s0)
	ld	a1,-32(s0)
	mv	a0,a5
	call	BitFieldAndThenOr64@plt
	mv	a5,a0
	.loc 1 2346 10 discriminator 2
	mv	a1,a5
	ld	a0,-24(s0)
	call	MmioWrite64@plt
	mv	a5,a0
	.loc 1 2350 1 is_stmt 1
	mv	a0,a5
	ld	ra,56(sp)
	.cfi_restore 1
	ld	s0,48(sp)
	.cfi_restore 8
	.cfi_def_cfa 2, 64
	addi	sp,sp,64
	.cfi_def_cfa_offset 0
	jr	ra
	.cfi_endproc
.LFE63:
	.size	MmioBitFieldAndThenOr64, .-MmioBitFieldAndThenOr64
	.text
.Letext0:
	.file 2 "/home/kapoagaeming/Downloads/spacemit-image-builder/components/edk2/MdePkg/Include/RiscV64/ProcessorBind.h"
	.file 3 "/home/kapoagaeming/Downloads/spacemit-image-builder/components/edk2/MdePkg/Include/Library/IoLib.h"
	.file 4 "/home/kapoagaeming/Downloads/spacemit-image-builder/components/edk2/MdePkg/Include/Library/BaseLib.h"
	.section	.note.GNU-stack,"",@progbits
