	.file	"MemoryProtection.c"
	.option pic
	.option norelax
	.attribute arch, "rv64i2p1_m2p0_a2p1_f2p2_d2p2_c2p0_zicsr2p0_zifencei2p0_zmmul1p0_zaamo1p0_zalrsc1p0_zca1p0_zcd1p0"
	.attribute unaligned_access, 0
	.attribute stack_align, 16
	.text
.Ltext0:
	.cfi_sections	.debug_frame
	.file 0 "/home/kapoagaeming/Downloads/spacemit-image-builder/components/Build/Milk-V-Jupiter/RELEASE_GCC5/RISCV64/MdeModulePkg/Core/Dxe/DxeMain" "/home/kapoagaeming/Downloads/spacemit-image-builder/components/edk2/MdeModulePkg/Core/Dxe/Misc/MemoryProtection.c"
	.globl	mImageProtectionPolicy
	.section	.bss.mImageProtectionPolicy,"aw",@nobits
	.align	2
	.type	mImageProtectionPolicy, @object
	.size	mImageProtectionPolicy, 4
mImageProtectionPolicy:
	.zero	4
	.section	.bss.mProtectedImageRecordList,"aw",@nobits
	.align	3
	.type	mProtectedImageRecordList, @object
	.size	mProtectedImageRecordList, 16
mProtectedImageRecordList:
	.zero	16
	.section	.text.GetImageType,"ax",@progbits
	.align	1
	.globl	GetImageType
	.type	GetImageType, @function
GetImageType:
.LFB0:
	.file 1 "/home/kapoagaeming/Downloads/spacemit-image-builder/components/edk2/MdeModulePkg/Core/Dxe/Misc/MemoryProtection.c"
	.loc 1 82 1
	.cfi_startproc
	addi	sp,sp,-64
	.cfi_def_cfa_offset 64
	sd	ra,56(sp)
	sd	s0,48(sp)
	.cfi_offset 1, -8
	.cfi_offset 8, -16
	addi	s0,sp,64
	.cfi_def_cfa 8, 0
	sd	a0,-56(s0)
	.loc 1 87 6
	ld	a5,-56(s0)
	bne	a5,zero,.L2
	.loc 1 88 12
	li	a5,1
	j	.L5
.L2:
	.loc 1 94 16
	sd	zero,-32(s0)
	.loc 1 95 18
	ld	a5,-56(s0)
	sd	a5,-40(s0)
	.loc 1 96 15
	la	a5,gBS
	ld	a5,0(a5)
	ld	a5,184(a5)
	.loc 1 96 12
	addi	a3,s0,-32
	addi	a4,s0,-40
	mv	a2,a3
	mv	a1,a4
	la	a0,gEfiFirmwareVolume2ProtocolGuid
	jalr	a5
.LVL0:
	sd	a0,-24(s0)
	.loc 1 101 7
	ld	a5,-24(s0)
	.loc 1 101 6
	blt	a5,zero,.L4
	.loc 1 102 17
	la	a5,gBS
	ld	a5,0(a5)
	ld	a6,280(a5)
	.loc 1 102 14
	ld	a0,-32(s0)
	li	a5,4
	li	a4,0
	li	a3,0
	li	a2,0
	la	a1,gEfiFirmwareVolume2ProtocolGuid
	jalr	a6
.LVL1:
	sd	a0,-24(s0)
	.loc 1 110 9
	ld	a5,-24(s0)
	.loc 1 110 8
	blt	a5,zero,.L4
	.loc 1 111 14
	li	a5,2
	j	.L5
.L4:
	.loc 1 115 10
	li	a5,1
.L5:
	.loc 1 116 1
	mv	a0,a5
	ld	ra,56(sp)
	.cfi_restore 1
	ld	s0,48(sp)
	.cfi_restore 8
	.cfi_def_cfa 2, 64
	addi	sp,sp,64
	.cfi_def_cfa_offset 0
	jr	ra
	.cfi_endproc
.LFE0:
	.size	GetImageType, .-GetImageType
	.section	.text.GetProtectionPolicyFromImageType,"ax",@progbits
	.align	1
	.globl	GetProtectionPolicyFromImageType
	.type	GetProtectionPolicyFromImageType, @function
GetProtectionPolicyFromImageType:
.LFB1:
	.loc 1 129 1
	.cfi_startproc
	addi	sp,sp,-32
	.cfi_def_cfa_offset 32
	sd	ra,24(sp)
	sd	s0,16(sp)
	.cfi_offset 1, -8
	.cfi_offset 8, -16
	addi	s0,sp,32
	.cfi_def_cfa 8, 0
	mv	a5,a0
	sw	a5,-20(s0)
	.loc 1 130 18
	lla	a5,mImageProtectionPolicy
	lw	a5,0(a5)
	lw	a4,-20(s0)
	and	a5,a4,a5
	sext.w	a5,a5
	.loc 1 130 6
	bne	a5,zero,.L7
	.loc 1 131 12
	li	a5,0
	j	.L8
.L7:
	.loc 1 133 12
	li	a5,1
.L8:
	.loc 1 135 1
	mv	a0,a5
	ld	ra,24(sp)
	.cfi_restore 1
	ld	s0,16(sp)
	.cfi_restore 8
	.cfi_def_cfa 2, 32
	addi	sp,sp,32
	.cfi_def_cfa_offset 0
	jr	ra
	.cfi_endproc
.LFE1:
	.size	GetProtectionPolicyFromImageType, .-GetProtectionPolicyFromImageType
	.section	.text.GetUefiImageProtectionPolicy,"ax",@progbits
	.align	1
	.globl	GetUefiImageProtectionPolicy
	.type	GetUefiImageProtectionPolicy, @function
GetUefiImageProtectionPolicy:
.LFB2:
	.loc 1 150 1
	.cfi_startproc
	addi	sp,sp,-48
	.cfi_def_cfa_offset 48
	sd	ra,40(sp)
	sd	s0,32(sp)
	.cfi_offset 1, -8
	.cfi_offset 8, -16
	addi	s0,sp,48
	.cfi_def_cfa 8, 0
	sd	a0,-40(s0)
	sd	a1,-48(s0)
	.loc 1 158 9
	sb	zero,-25(s0)
	.loc 1 159 17
	la	a5,gSmmBase2
	ld	a5,0(a5)
	.loc 1 159 6
	beq	a5,zero,.L10
	.loc 1 160 14
	la	a5,gSmmBase2
	ld	a5,0(a5)
	ld	a5,0(a5)
	.loc 1 160 5
	la	a4,gSmmBase2
	ld	a4,0(a4)
	addi	a3,s0,-25
	mv	a1,a3
	mv	a0,a4
	jalr	a5
.LVL2:
.L10:
	.loc 1 163 7
	lbu	a5,-25(s0)
	.loc 1 163 6
	beq	a5,zero,.L11
	.loc 1 164 12
	li	a5,0
	j	.L15
.L11:
	.loc 1 170 19
	la	a5,gDxeCoreLoadedImage
	ld	a5,0(a5)
	.loc 1 170 6
	ld	a4,-40(s0)
	bne	a4,a5,.L13
	.loc 1 171 15
	li	a5,2
	sw	a5,-20(s0)
	j	.L14
.L13:
	.loc 1 173 17
	ld	a0,-48(s0)
	call	GetImageType
	mv	a5,a0
	sw	a5,-20(s0)
.L14:
	.loc 1 176 22
	lw	a5,-20(s0)
	mv	a0,a5
	call	GetProtectionPolicyFromImageType
	mv	a5,a0
	sw	a5,-24(s0)
	.loc 1 177 10
	lw	a5,-24(s0)
.L15:
	.loc 1 178 1
	mv	a0,a5
	ld	ra,40(sp)
	.cfi_restore 1
	ld	s0,32(sp)
	.cfi_restore 8
	.cfi_def_cfa 2, 48
	addi	sp,sp,48
	.cfi_def_cfa_offset 0
	jr	ra
	.cfi_endproc
.LFE2:
	.size	GetUefiImageProtectionPolicy, .-GetUefiImageProtectionPolicy
	.section	.text.SetUefiImageMemoryAttributes,"ax",@progbits
	.align	1
	.globl	SetUefiImageMemoryAttributes
	.type	SetUefiImageMemoryAttributes, @function
SetUefiImageMemoryAttributes:
.LFB3:
	.loc 1 193 1
	.cfi_startproc
	addi	sp,sp,-128
	.cfi_def_cfa_offset 128
	sd	ra,120(sp)
	sd	s0,112(sp)
	.cfi_offset 1, -8
	.cfi_offset 8, -16
	addi	s0,sp,128
	.cfi_def_cfa 8, 0
	sd	a0,-104(s0)
	sd	a1,-112(s0)
	sd	a2,-120(s0)
	.loc 1 198 12
	addi	a5,s0,-88
	mv	a1,a5
	ld	a0,-104(s0)
	call	CoreGetMemorySpaceDescriptor@plt
	sd	a0,-24(s0)
	.loc 1 201 32
	ld	a4,-64(s0)
	.loc 1 201 44
	li	a5,4096
	addi	a5,a5,31
	and	a4,a4,a5
	.loc 1 201 205
	ld	a3,-120(s0)
	li	a5,942080
	and	a5,a3,a5
	.loc 1 201 19
	or	a5,a4,a5
	sd	a5,-32(s0)
	.loc 1 206 7
	la	a5,gCpu
	ld	a5,0(a5)
	ld	a5,56(a5)
	.loc 1 206 3
	la	a4,gCpu
	ld	a4,0(a4)
	ld	a3,-32(s0)
	ld	a2,-112(s0)
	ld	a1,-104(s0)
	mv	a0,a4
	jalr	a5
.LVL3:
	.loc 1 207 1
	nop
	ld	ra,120(sp)
	.cfi_restore 1
	ld	s0,112(sp)
	.cfi_restore 8
	.cfi_def_cfa 2, 128
	addi	sp,sp,128
	.cfi_def_cfa_offset 0
	jr	ra
	.cfi_endproc
.LFE3:
	.size	SetUefiImageMemoryAttributes, .-SetUefiImageMemoryAttributes
	.section	.text.SetUefiImageProtectionAttributes,"ax",@progbits
	.align	1
	.globl	SetUefiImageProtectionAttributes
	.type	SetUefiImageProtectionAttributes, @function
SetUefiImageProtectionAttributes:
.LFB4:
	.loc 1 218 1
	.cfi_startproc
	addi	sp,sp,-80
	.cfi_def_cfa_offset 80
	sd	ra,72(sp)
	sd	s0,64(sp)
	.cfi_offset 1, -8
	.cfi_offset 8, -16
	addi	s0,sp,80
	.cfi_def_cfa 8, 0
	sd	a0,-72(s0)
	.loc 1 226 30
	ld	a5,-72(s0)
	addi	a5,a5,48
	sd	a5,-48(s0)
	.loc 1 228 15
	ld	a5,-72(s0)
	ld	a5,24(a5)
	sd	a5,-40(s0)
	.loc 1 229 25
	ld	a5,-72(s0)
	ld	a4,24(a5)
	.loc 1 229 50
	ld	a5,-72(s0)
	ld	a5,32(a5)
	.loc 1 229 12
	add	a5,a4,a5
	sd	a5,-56(s0)
	.loc 1 231 30
	ld	a5,-48(s0)
	ld	a5,0(a5)
	sd	a5,-32(s0)
	.loc 1 232 33
	ld	a5,-48(s0)
	sd	a5,-64(s0)
	.loc 1 233 9
	j	.L18
.L22:
	.loc 1 234 32
	ld	a5,-32(s0)
	addi	a5,a5,-8
	.loc 1 234 198
	lw	a4,0(a5)
	.loc 1 234 283
	li	a5,1129467904
	addi	a5,a5,73
	bne	a4,a5,.L19
	.loc 1 234 28 discriminator 1
	ld	a5,-32(s0)
	addi	a5,a5,-8
	sd	a5,-24(s0)
	j	.L20
.L19:
	.loc 1 234 28 is_stmt 0 discriminator 2
	sd	zero,-24(s0)
.L20:
	.loc 1 240 32 is_stmt 1
	ld	a5,-32(s0)
	ld	a5,0(a5)
	sd	a5,-32(s0)
	.loc 1 243 45
	ld	a5,-24(s0)
	ld	a5,24(a5)
	.loc 1 243 8
	ld	a4,-40(s0)
	bgeu	a4,a5,.L21
	.loc 1 249 31
	ld	a5,-24(s0)
	ld	a4,24(a5)
	.loc 1 249 49
	ld	a5,-40(s0)
	sub	a5,a4,a5
	.loc 1 247 7
	li	a2,16384
	mv	a1,a5
	ld	a0,-40(s0)
	call	SetUefiImageMemoryAttributes
.L21:
	.loc 1 258 29
	ld	a5,-24(s0)
	ld	a4,24(a5)
	.loc 1 257 5
	ld	a5,-24(s0)
	ld	a5,32(a5)
	li	a2,131072
	mv	a1,a5
	mv	a0,a4
	call	SetUefiImageMemoryAttributes
	.loc 1 262 41
	ld	a5,-24(s0)
	ld	a4,24(a5)
	.loc 1 262 83
	ld	a5,-24(s0)
	ld	a5,32(a5)
	.loc 1 262 17
	add	a5,a4,a5
	sd	a5,-40(s0)
.L18:
	.loc 1 233 37
	ld	a4,-32(s0)
	ld	a5,-64(s0)
	bne	a4,a5,.L22
	.loc 1 269 6
	ld	a4,-40(s0)
	ld	a5,-56(s0)
	bgeu	a4,a5,.L25
	.loc 1 273 5
	ld	a4,-56(s0)
	ld	a5,-40(s0)
	sub	a5,a4,a5
	li	a2,16384
	mv	a1,a5
	ld	a0,-40(s0)
	call	SetUefiImageMemoryAttributes
	.loc 1 280 3
	nop
.L25:
	nop
	.loc 1 281 1
	ld	ra,72(sp)
	.cfi_restore 1
	ld	s0,64(sp)
	.cfi_restore 8
	.cfi_def_cfa 2, 80
	addi	sp,sp,80
	.cfi_def_cfa_offset 0
	jr	ra
	.cfi_endproc
.LFE4:
	.size	SetUefiImageProtectionAttributes, .-SetUefiImageProtectionAttributes
	.section	.text.GetMemoryProtectionSectionAlignment,"ax",@progbits
	.align	1
	.type	GetMemoryProtectionSectionAlignment, @function
GetMemoryProtectionSectionAlignment:
.LFB5:
	.loc 1 296 1
	.cfi_startproc
	addi	sp,sp,-48
	.cfi_def_cfa_offset 48
	sd	ra,40(sp)
	sd	s0,32(sp)
	.cfi_offset 1, -8
	.cfi_offset 8, -16
	addi	s0,sp,48
	.cfi_def_cfa 8, 0
	mv	a5,a0
	sw	a5,-36(s0)
	.loc 1 299 3
	lw	a5,-36(s0)
	sext.w	a4,a5
	li	a5,10
	beq	a4,a5,.L27
	lw	a5,-36(s0)
	sext.w	a4,a5
	li	a5,10
	bgtu	a4,a5,.L28
	lw	a5,-36(s0)
	sext.w	a4,a5
	li	a5,6
	beq	a4,a5,.L29
	lw	a5,-36(s0)
	sext.w	a4,a5
	li	a5,6
	bgtu	a4,a5,.L28
	lw	a5,-36(s0)
	sext.w	a4,a5
	li	a5,5
	beq	a4,a5,.L27
	lw	a5,-36(s0)
	sext.w	a4,a5
	li	a5,5
	bgtu	a4,a5,.L28
	lw	a5,-36(s0)
	sext.w	a4,a5
	li	a5,3
	beq	a4,a5,.L30
	lw	a5,-36(s0)
	sext.w	a4,a5
	li	a5,3
	bgtu	a4,a5,.L28
	lw	a5,-36(s0)
	sext.w	a5,a5
	beq	a5,zero,.L27
	lw	a5,-36(s0)
	sext.w	a4,a5
	li	a5,1
	beq	a4,a5,.L30
	j	.L28
.L27:
	.loc 1 303 24
	li	a5,4096
	sw	a5,-20(s0)
	.loc 1 304 7
	j	.L31
.L29:
	.loc 1 307 24
	li	a5,4096
	sw	a5,-20(s0)
	.loc 1 308 7
	j	.L31
.L30:
	.loc 1 311 24
	li	a5,4096
	sw	a5,-20(s0)
	.loc 1 312 7
	j	.L31
.L28:
	.loc 1 316 24
	li	a5,4096
	sw	a5,-20(s0)
	.loc 1 317 7
	nop
.L31:
	.loc 1 320 10
	lw	a5,-20(s0)
	.loc 1 321 1
	mv	a0,a5
	ld	ra,40(sp)
	.cfi_restore 1
	ld	s0,32(sp)
	.cfi_restore 8
	.cfi_def_cfa 2, 48
	addi	sp,sp,48
	.cfi_def_cfa_offset 0
	jr	ra
	.cfi_endproc
.LFE5:
	.size	GetMemoryProtectionSectionAlignment, .-GetMemoryProtectionSectionAlignment
	.section	.text.ProtectUefiImage,"ax",@progbits
	.align	1
	.globl	ProtectUefiImage
	.type	ProtectUefiImage, @function
ProtectUefiImage:
.LFB6:
	.loc 1 334 1
	.cfi_startproc
	addi	sp,sp,-64
	.cfi_def_cfa_offset 64
	sd	ra,56(sp)
	sd	s0,48(sp)
	.cfi_offset 1, -8
	.cfi_offset 8, -16
	addi	s0,sp,64
	.cfi_def_cfa 8, 0
	sd	a0,-56(s0)
	sd	a1,-64(s0)
	.loc 1 343 12
	la	a5,gCpu
	ld	a5,0(a5)
	.loc 1 343 6
	beq	a5,zero,.L44
	.loc 1 347 22
	ld	a1,-64(s0)
	ld	a0,-56(s0)
	call	GetUefiImageProtectionPolicy
	mv	a5,a0
	sw	a5,-20(s0)
	.loc 1 348 3
	lw	a5,-20(s0)
	sext.w	a5,a5
	beq	a5,zero,.L45
	lw	a5,-20(s0)
	sext.w	a4,a5
	li	a5,1
	beq	a4,a5,.L46
	.loc 1 355 7
	j	.L33
.L46:
	.loc 1 352 7
	nop
	.loc 1 358 17
	li	a0,64
	call	AllocateZeroPool@plt
	sd	a0,-32(s0)
	.loc 1 359 6
	ld	a5,-32(s0)
	beq	a5,zero,.L47
	.loc 1 363 23
	ld	a5,-56(s0)
	lw	a5,80(a5)
	mv	a0,a5
	call	GetMemoryProtectionSectionAlignment
	mv	a5,a0
	.loc 1 363 21 discriminator 1
	sw	a5,-44(s0)
	.loc 1 366 25
	ld	a5,-56(s0)
	ld	a4,64(a5)
	.loc 1 367 25
	ld	a5,-56(s0)
	ld	a5,72(a5)
	.loc 1 365 12
	addi	a2,s0,-44
	ld	a3,-32(s0)
	mv	a1,a5
	mv	a0,a4
	call	CreateImagePropertiesRecord@plt
	sd	a0,-40(s0)
	.loc 1 372 34
	ld	a5,-40(s0)
	.loc 1 372 6
	bge	a5,zero,.L41
	.loc 1 374 5
	ld	a0,-32(s0)
	call	FreePool@plt
	.loc 1 375 5
	nop
.L42:
	.loc 1 389 3
	j	.L33
.L41:
	.loc 1 381 3
	ld	a0,-32(s0)
	call	SetUefiImageProtectionAttributes
	.loc 1 386 3
	ld	a5,-32(s0)
	addi	a5,a5,8
	mv	a1,a5
	lla	a0,mProtectedImageRecordList
	call	InsertTailList@plt
	.loc 1 389 3
	j	.L33
.L44:
	.loc 1 344 5
	nop
	j	.L33
.L45:
	.loc 1 350 7
	nop
	j	.L33
.L47:
	.loc 1 360 5
	nop
.L33:
	.loc 1 390 1
	ld	ra,56(sp)
	.cfi_restore 1
	ld	s0,48(sp)
	.cfi_restore 8
	.cfi_def_cfa 2, 64
	addi	sp,sp,64
	.cfi_def_cfa_offset 0
	jr	ra
	.cfi_endproc
.LFE6:
	.size	ProtectUefiImage, .-ProtectUefiImage
	.section	.text.UnprotectUefiImage,"ax",@progbits
	.align	1
	.globl	UnprotectUefiImage
	.type	UnprotectUefiImage, @function
UnprotectUefiImage:
.LFB7:
	.loc 1 403 1
	.cfi_startproc
	addi	sp,sp,-48
	.cfi_def_cfa_offset 48
	sd	ra,40(sp)
	sd	s0,32(sp)
	.cfi_offset 1, -8
	.cfi_offset 8, -16
	addi	s0,sp,48
	.cfi_def_cfa 8, 0
	sd	a0,-40(s0)
	sd	a1,-48(s0)
	.loc 1 407 51
	la	a5,_gPcd_FixedAtBuild_PcdImageProtectionPolicy
	lw	a5,0(a5)
	.loc 1 407 6
	beq	a5,zero,.L48
	.loc 1 408 26
	lla	a5,mProtectedImageRecordList
	ld	a5,0(a5)
	sd	a5,-32(s0)
	.loc 1 408 5
	j	.L50
.L54:
	.loc 1 412 23
	ld	a5,-32(s0)
	addi	a5,a5,-8
	.loc 1 412 152
	lw	a4,0(a5)
	.loc 1 412 237
	li	a5,1146245120
	addi	a5,a5,73
	bne	a4,a5,.L51
	.loc 1 412 19 discriminator 1
	ld	a5,-32(s0)
	addi	a5,a5,-8
	sd	a5,-24(s0)
	j	.L52
.L51:
	.loc 1 412 19 is_stmt 0 discriminator 2
	sd	zero,-24(s0)
.L52:
	.loc 1 419 22 is_stmt 1
	ld	a5,-24(s0)
	ld	a5,24(a5)
	.loc 1 419 77
	ld	a4,-40(s0)
	ld	a4,64(a4)
	.loc 1 419 10
	bne	a5,a4,.L53
	.loc 1 421 22
	ld	a5,-24(s0)
	ld	a4,24(a5)
	.loc 1 420 9
	ld	a5,-24(s0)
	ld	a5,32(a5)
	li	a2,0
	mv	a1,a5
	mv	a0,a4
	call	SetUefiImageMemoryAttributes
	.loc 1 425 9
	ld	a0,-24(s0)
	call	DeleteImagePropertiesRecord@plt
	.loc 1 426 9
	j	.L48
.L53:
	.loc 1 410 26
	ld	a5,-32(s0)
	ld	a5,0(a5)
	sd	a5,-32(s0)
.L50:
	.loc 1 409 26
	ld	a4,-32(s0)
	lla	a5,mProtectedImageRecordList
	bne	a4,a5,.L54
.L48:
	.loc 1 430 1
	ld	ra,40(sp)
	.cfi_restore 1
	ld	s0,32(sp)
	.cfi_restore 8
	.cfi_def_cfa 2, 48
	addi	sp,sp,48
	.cfi_def_cfa_offset 0
	jr	ra
	.cfi_endproc
.LFE7:
	.size	UnprotectUefiImage, .-UnprotectUefiImage
	.section	.text.GetPermissionAttributeForMemoryType,"ax",@progbits
	.align	1
	.type	GetPermissionAttributeForMemoryType, @function
GetPermissionAttributeForMemoryType:
.LFB8:
	.loc 1 443 1
	.cfi_startproc
	addi	sp,sp,-48
	.cfi_def_cfa_offset 48
	sd	ra,40(sp)
	sd	s0,32(sp)
	.cfi_offset 1, -8
	.cfi_offset 8, -16
	addi	s0,sp,48
	.cfi_def_cfa 8, 0
	mv	a5,a0
	sw	a5,-36(s0)
	.loc 1 446 26
	lw	a5,-36(s0)
	.loc 1 446 6
	bge	a5,zero,.L56
	.loc 1 447 13
	li	a5,-1
	slli	a5,a5,63
	sd	a5,-24(s0)
	j	.L57
.L56:
	.loc 1 448 13
	lw	a5,-36(s0)
	sext.w	a4,a5
	li	a5,1879048192
	bltu	a4,a5,.L58
	.loc 1 449 13
	li	a5,1
	slli	a5,a5,62
	sd	a5,-24(s0)
	j	.L57
.L58:
	.loc 1 451 15
	lwu	a5,-36(s0)
	mv	a1,a5
	li	a0,1
	call	LShiftU64@plt
	sd	a0,-24(s0)
.L57:
	.loc 1 454 58
	la	a5,_gPcd_FixedAtBuild_PcdDxeNxMemoryProtectionPolicy
	ld	a4,0(a5)
	ld	a5,-24(s0)
	and	a5,a4,a5
	.loc 1 454 6
	beq	a5,zero,.L59
	.loc 1 455 12
	li	a5,16384
	j	.L60
.L59:
	.loc 1 457 12
	li	a5,0
.L60:
	.loc 1 459 1
	mv	a0,a5
	ld	ra,40(sp)
	.cfi_restore 1
	ld	s0,32(sp)
	.cfi_restore 8
	.cfi_def_cfa 2, 48
	addi	sp,sp,48
	.cfi_def_cfa_offset 0
	jr	ra
	.cfi_endproc
.LFE8:
	.size	GetPermissionAttributeForMemoryType, .-GetPermissionAttributeForMemoryType
	.section	.text.SortMemoryMap,"ax",@progbits
	.align	1
	.type	SortMemoryMap, @function
SortMemoryMap:
.LFB9:
	.loc 1 476 1
	.cfi_startproc
	addi	sp,sp,-112
	.cfi_def_cfa_offset 112
	sd	ra,104(sp)
	sd	s0,96(sp)
	.cfi_offset 1, -8
	.cfi_offset 8, -16
	addi	s0,sp,112
	.cfi_def_cfa 8, 0
	sd	a0,-88(s0)
	sd	a1,-96(s0)
	sd	a2,-104(s0)
	.loc 1 482 18
	ld	a5,-88(s0)
	sd	a5,-24(s0)
	.loc 1 483 22
	ld	a4,-24(s0)
	ld	a5,-104(s0)
	add	a5,a4,a5
	sd	a5,-32(s0)
	.loc 1 484 16
	ld	a4,-88(s0)
	ld	a5,-96(s0)
	add	a5,a4,a5
	sd	a5,-40(s0)
	.loc 1 485 9
	j	.L62
.L65:
	.loc 1 487 25
	ld	a5,-24(s0)
	ld	a4,8(a5)
	.loc 1 487 61
	ld	a5,-32(s0)
	ld	a5,8(a5)
	.loc 1 487 10
	bleu	a4,a5,.L64
	.loc 1 488 9
	addi	a5,s0,-80
	li	a2,40
	ld	a1,-24(s0)
	mv	a0,a5
	call	CopyMem@plt
	.loc 1 489 9
	li	a2,40
	ld	a1,-32(s0)
	ld	a0,-24(s0)
	call	CopyMem@plt
	.loc 1 490 9
	addi	a5,s0,-80
	li	a2,40
	mv	a1,a5
	ld	a0,-32(s0)
	call	CopyMem@plt
.L64:
	.loc 1 493 26
	ld	a4,-32(s0)
	ld	a5,-104(s0)
	add	a5,a4,a5
	sd	a5,-32(s0)
.L63:
	.loc 1 486 31
	ld	a4,-32(s0)
	ld	a5,-40(s0)
	bltu	a4,a5,.L65
	.loc 1 496 20
	ld	a4,-24(s0)
	ld	a5,-104(s0)
	add	a5,a4,a5
	sd	a5,-24(s0)
	.loc 1 497 24
	ld	a4,-24(s0)
	ld	a5,-104(s0)
	add	a5,a4,a5
	sd	a5,-32(s0)
.L62:
	.loc 1 485 25
	ld	a4,-24(s0)
	ld	a5,-40(s0)
	bltu	a4,a5,.L63
	.loc 1 499 1
	nop
	nop
	ld	ra,104(sp)
	.cfi_restore 1
	ld	s0,96(sp)
	.cfi_restore 8
	.cfi_def_cfa 2, 112
	addi	sp,sp,112
	.cfi_def_cfa_offset 0
	jr	ra
	.cfi_endproc
.LFE9:
	.size	SortMemoryMap, .-SortMemoryMap
	.section	.text.MergeMemoryMapForProtectionPolicy,"ax",@progbits
	.align	1
	.type	MergeMemoryMapForProtectionPolicy, @function
MergeMemoryMapForProtectionPolicy:
.LFB10:
	.loc 1 519 1
	.cfi_startproc
	addi	sp,sp,-96
	.cfi_def_cfa_offset 96
	sd	ra,88(sp)
	sd	s0,80(sp)
	.cfi_offset 1, -8
	.cfi_offset 8, -16
	addi	s0,sp,96
	.cfi_def_cfa 8, 0
	sd	a0,-72(s0)
	sd	a1,-80(s0)
	sd	a2,-88(s0)
	.loc 1 527 3
	ld	a5,-80(s0)
	ld	a5,0(a5)
	ld	a2,-88(s0)
	mv	a1,a5
	ld	a0,-72(s0)
	call	SortMemoryMap
	.loc 1 529 18
	ld	a5,-72(s0)
	sd	a5,-24(s0)
	.loc 1 530 21
	ld	a5,-72(s0)
	sd	a5,-32(s0)
	.loc 1 531 65
	ld	a5,-80(s0)
	ld	a5,0(a5)
	.loc 1 531 16
	ld	a4,-72(s0)
	add	a5,a4,a5
	sd	a5,-48(s0)
	.loc 1 532 9
	j	.L68
.L74:
	.loc 1 533 5
	li	a2,40
	ld	a1,-24(s0)
	ld	a0,-32(s0)
	call	CopyMem@plt
	.loc 1 534 24
	ld	a4,-24(s0)
	ld	a5,-88(s0)
	add	a5,a4,a5
	sd	a5,-40(s0)
.L73:
	.loc 1 537 59
	ld	a5,-24(s0)
	ld	a5,24(a5)
	.loc 1 537 25
	slli	a5,a5,12
	sd	a5,-56(s0)
	.loc 1 538 71
	ld	a5,-24(s0)
	lw	a5,0(a5)
	.loc 1 538 20
	mv	a0,a5
	call	GetPermissionAttributeForMemoryType
	sd	a0,-64(s0)
	.loc 1 540 12
	ld	a4,-40(s0)
	.loc 1 540 40
	ld	a5,-48(s0)
	.loc 1 540 10
	bgeu	a4,a5,.L69
	.loc 1 541 81
	ld	a5,-40(s0)
	lw	a5,0(a5)
	.loc 1 541 26
	mv	a0,a5
	call	GetPermissionAttributeForMemoryType
	mv	a4,a0
	.loc 1 540 61 discriminator 1
	ld	a5,-64(s0)
	bne	a5,a4,.L69
	.loc 1 542 27
	ld	a5,-24(s0)
	ld	a4,8(a5)
	.loc 1 542 43
	ld	a5,-56(s0)
	add	a4,a4,a5
	.loc 1 542 85
	ld	a5,-40(s0)
	ld	a5,8(a5)
	.loc 1 541 90
	bne	a4,a5,.L69
	.loc 1 544 23
	ld	a5,-24(s0)
	ld	a4,24(a5)
	.loc 1 544 60
	ld	a5,-40(s0)
	ld	a5,24(a5)
	.loc 1 544 39
	add	a4,a4,a5
	ld	a5,-24(s0)
	sd	a4,24(a5)
	.loc 1 545 12
	ld	a4,-32(s0)
	ld	a5,-24(s0)
	beq	a4,a5,.L70
	.loc 1 546 28
	ld	a5,-32(s0)
	ld	a4,24(a5)
	.loc 1 546 65
	ld	a5,-40(s0)
	ld	a5,24(a5)
	.loc 1 546 44
	add	a4,a4,a5
	ld	a5,-32(s0)
	sd	a4,24(a5)
.L70:
	.loc 1 549 28
	ld	a4,-40(s0)
	ld	a5,-88(s0)
	add	a5,a4,a5
	sd	a5,-40(s0)
	.loc 1 550 9
	j	.L76
.L69:
	.loc 1 552 83
	ld	a5,-88(s0)
	neg	a5,a5
	.loc 1 552 24
	ld	a4,-40(s0)
	add	a5,a4,a5
	sd	a5,-24(s0)
	.loc 1 553 9
	j	.L77
.L76:
	.loc 1 537 25
	j	.L73
.L77:
	.loc 1 557 20
	ld	a4,-24(s0)
	ld	a5,-88(s0)
	add	a5,a4,a5
	sd	a5,-24(s0)
	.loc 1 558 23
	ld	a4,-32(s0)
	ld	a5,-88(s0)
	add	a5,a4,a5
	sd	a5,-32(s0)
.L68:
	.loc 1 532 10
	ld	a4,-24(s0)
	.loc 1 532 34
	ld	a5,-48(s0)
	.loc 1 532 32
	bltu	a4,a5,.L74
	.loc 1 561 20
	ld	a4,-32(s0)
	.loc 1 561 47
	ld	a5,-72(s0)
	.loc 1 561 45
	sub	a4,a4,a5
	.loc 1 561 18
	ld	a5,-80(s0)
	sd	a4,0(a5)
	.loc 1 563 3
	nop
	.loc 1 564 1
	ld	ra,88(sp)
	.cfi_restore 1
	ld	s0,80(sp)
	.cfi_restore 8
	.cfi_def_cfa 2, 96
	addi	sp,sp,96
	.cfi_def_cfa_offset 0
	jr	ra
	.cfi_endproc
.LFE10:
	.size	MergeMemoryMapForProtectionPolicy, .-MergeMemoryMapForProtectionPolicy
	.section	.text.InitializeDxeNxMemoryProtectionPolicy,"ax",@progbits
	.align	1
	.type	InitializeDxeNxMemoryProtectionPolicy, @function
InitializeDxeNxMemoryProtectionPolicy:
.LFB11:
	.loc 1 575 1
	.cfi_startproc
	addi	sp,sp,-144
	.cfi_def_cfa_offset 144
	sd	ra,136(sp)
	sd	s0,128(sp)
	sd	s1,120(sp)
	.cfi_offset 1, -8
	.cfi_offset 8, -16
	.cfi_offset 9, -24
	addi	s0,sp,144
	.cfi_def_cfa 8, 0
	.loc 1 594 17
	sd	zero,-112(s0)
	.loc 1 595 13
	sd	zero,-72(s0)
	.loc 1 597 15
	la	a5,gBS
	ld	a5,0(a5)
	ld	a5,56(a5)
	.loc 1 597 12
	addi	a4,s0,-132
	addi	a3,s0,-128
	addi	a2,s0,-120
	addi	a0,s0,-112
	ld	a1,-72(s0)
	jalr	a5
.LVL4:
	sd	a0,-80(s0)
.L80:
	.loc 1 606 42
	ld	a5,-112(s0)
	mv	a0,a5
	call	AllocatePool@plt
	sd	a0,-72(s0)
	.loc 1 608 17
	la	a5,gBS
	ld	a5,0(a5)
	ld	a5,56(a5)
	.loc 1 608 14
	addi	a4,s0,-132
	addi	a3,s0,-128
	addi	a2,s0,-120
	addi	a0,s0,-112
	ld	a1,-72(s0)
	jalr	a5
.LVL5:
	sd	a0,-80(s0)
	.loc 1 615 36
	ld	a5,-80(s0)
	.loc 1 615 8
	bge	a5,zero,.L79
	.loc 1 616 7
	ld	a0,-72(s0)
	call	FreePool@plt
.L79:
	.loc 1 618 19
	ld	a4,-80(s0)
	li	a5,-1
	slli	a5,a5,63
	addi	a5,a5,5
	beq	a4,a5,.L80
	.loc 1 622 13
	sd	zero,-64(s0)
	.loc 1 623 7
	la	a5,_gPcd_FixedAtBuild_PcdCpuStackGuard
	lbu	a5,0(a5)
	.loc 1 623 6
	beq	a5,zero,.L95
	.loc 1 627 15
	call	GetHobList@plt
	mv	a5,a0
	.loc 1 627 13 discriminator 1
	sd	a5,-144(s0)
	.loc 1 628 11
	j	.L82
.L84:
	.loc 1 629 17
	ld	a5,-144(s0)
	sd	a5,-88(s0)
	.loc 1 630 54
	ld	a5,-88(s0)
	addi	a5,a5,8
	.loc 1 630 11
	mv	a1,a5
	la	a0,gEfiHobMemoryAllocStackGuid
	call	CompareGuid@plt
	mv	a5,a0
	.loc 1 630 10 discriminator 1
	beq	a5,zero,.L83
	.loc 1 639 19
	ld	a5,-88(s0)
	ld	a5,24(a5)
	sd	a5,-64(s0)
	.loc 1 644 9
	j	.L95
.L83:
	.loc 1 647 37
	addi	a5,s0,-144
	.loc 1 647 26
	ld	a5,0(a5)
	.loc 1 647 76
	addi	a4,s0,-144
	.loc 1 647 48
	ld	a4,0(a4)
	.loc 1 647 83
	lhu	a4,2(a4)
	.loc 1 647 44
	add	a5,a5,a4
	.loc 1 647 15
	sd	a5,-144(s0)
.L82:
	.loc 1 628 46
	ld	a5,-144(s0)
	.loc 1 628 23
	mv	a1,a5
	li	a0,2
	call	GetNextHob@plt
	mv	a5,a0
	.loc 1 628 21 discriminator 1
	sd	a5,-144(s0)
	.loc 1 628 16 discriminator 1
	ld	a5,-144(s0)
	.loc 1 628 53 discriminator 1
	bne	a5,zero,.L84
.L95:
	.loc 1 663 3
	ld	a4,-128(s0)
	addi	a5,s0,-112
	mv	a2,a4
	mv	a1,a5
	ld	a0,-72(s0)
	call	MergeMemoryMapForProtectionPolicy
	.loc 1 665 18
	ld	a5,-72(s0)
	sd	a5,-40(s0)
	.loc 1 666 18
	ld	a5,-112(s0)
	.loc 1 666 16
	ld	a4,-72(s0)
	add	a5,a4,a5
	sd	a5,-96(s0)
	.loc 1 667 9
	j	.L85
.L88:
	.loc 1 668 69
	ld	a5,-40(s0)
	lw	a5,0(a5)
	.loc 1 668 18
	mv	a0,a5
	call	GetPermissionAttributeForMemoryType
	sd	a0,-104(s0)
	.loc 1 669 8
	ld	a5,-104(s0)
	beq	a5,zero,.L86
	.loc 1 671 23
	ld	a5,-40(s0)
	ld	s1,8(a5)
	.loc 1 670 7
	ld	a5,-40(s0)
	ld	a5,24(a5)
	li	a1,12
	mv	a0,a5
	call	LShiftU64@plt
	mv	a5,a0
	.loc 1 670 7 is_stmt 0 discriminator 1
	ld	a2,-104(s0)
	mv	a1,a5
	mv	a0,s1
	call	SetUefiImageMemoryAttributes
	.loc 1 680 26 is_stmt 1
	ld	a5,-40(s0)
	ld	a5,8(a5)
	.loc 1 680 10
	bne	a5,zero,.L87
	.loc 1 681 67
	la	a5,_gPcd_FixedAtBuild_PcdNullPointerDetectionPropertyMask
	lbu	a5,0(a5)
	.loc 1 680 48 discriminator 1
	beq	a5,zero,.L87
	.loc 1 687 33
	ld	a4,-104(s0)
	li	a5,8192
	or	a5,a4,a5
	.loc 1 684 9
	mv	a2,a5
	li	a1,4096
	li	a0,0
	call	SetUefiImageMemoryAttributes
.L87:
	.loc 1 695 10
	ld	a5,-64(s0)
	beq	a5,zero,.L86
	.loc 1 696 40
	ld	a5,-40(s0)
	ld	a5,8(a5)
	.loc 1 695 28 discriminator 1
	ld	a4,-64(s0)
	bltu	a4,a5,.L86
	.loc 1 697 39
	ld	a5,-40(s0)
	ld	s1,8(a5)
	.loc 1 698 13
	ld	a5,-40(s0)
	ld	a5,24(a5)
	li	a1,12
	mv	a0,a5
	call	LShiftU64@plt
	mv	a5,a0
	.loc 1 697 55
	add	a5,s1,a5
	.loc 1 696 57
	ld	a4,-64(s0)
	bgeu	a4,a5,.L86
	.loc 1 698 61
	la	a5,_gPcd_FixedAtBuild_PcdCpuStackGuard
	lbu	a5,0(a5)
	beq	a5,zero,.L86
	.loc 1 704 33
	ld	a4,-104(s0)
	li	a5,8192
	or	a5,a4,a5
	.loc 1 701 9
	mv	a2,a5
	li	a1,4096
	ld	a0,-64(s0)
	call	SetUefiImageMemoryAttributes
.L86:
	.loc 1 709 23
	ld	a5,-128(s0)
	.loc 1 709 20
	ld	a4,-40(s0)
	add	a5,a4,a5
	sd	a5,-40(s0)
.L85:
	.loc 1 667 10
	ld	a4,-40(s0)
	.loc 1 667 34
	ld	a5,-96(s0)
	.loc 1 667 32
	bltu	a4,a5,.L88
	.loc 1 712 3
	ld	a0,-72(s0)
	call	FreePool@plt
	.loc 1 718 7
	li	a0,7
	call	GetPermissionAttributeForMemoryType
	mv	a5,a0
	.loc 1 718 6 discriminator 1
	beq	a5,zero,.L96
	.loc 1 725 5
	call	CoreAcquireGcdMemoryLock@plt
	.loc 1 727 10
	la	a5,mGcdMemorySpaceMap
	ld	a5,0(a5)
	sd	a5,-48(s0)
	.loc 1 728 11
	j	.L90
.L94:
	.loc 1 729 17
	ld	a5,-48(s0)
	addi	a5,a5,-8
	.loc 1 729 123
	ld	a4,0(a5)
	.loc 1 729 208
	li	a5,1835294720
	addi	a5,a5,871
	bne	a4,a5,.L91
	.loc 1 729 13 discriminator 1
	ld	a5,-48(s0)
	addi	a5,a5,-8
	sd	a5,-56(s0)
	j	.L92
.L91:
	.loc 1 729 13 is_stmt 0 discriminator 2
	sd	zero,-56(s0)
.L92:
	.loc 1 731 17 is_stmt 1
	ld	a5,-56(s0)
	lw	a4,56(a5)
	.loc 1 731 10
	li	a5,1
	bne	a4,a5,.L93
	.loc 1 732 17
	ld	a5,-56(s0)
	ld	a4,32(a5)
	.loc 1 731 62 discriminator 1
	li	a5,-1
	beq	a4,a5,.L93
	.loc 1 733 18
	ld	a5,-56(s0)
	ld	a4,40(a5)
	.loc 1 733 33
	li	a5,7
	slli	a5,a5,56
	and	a4,a4,a5
	.loc 1 732 55
	li	a5,3
	slli	a5,a5,56
	bne	a4,a5,.L93
	.loc 1 736 22
	li	a0,7
	call	GetPermissionAttributeForMemoryType
	mv	a3,a0
	.loc 1 737 28
	ld	a5,-56(s0)
	ld	a4,48(a5)
	.loc 1 737 41
	li	a5,4096
	addi	a5,a5,31
	and	a5,a4,a5
	.loc 1 736 20
	or	a5,a3,a5
	sd	a5,-104(s0)
	.loc 1 748 13
	la	a5,gCpu
	ld	a5,0(a5)
	ld	a5,56(a5)
	.loc 1 748 9
	la	a4,gCpu
	ld	a0,0(a4)
	ld	a4,-56(s0)
	ld	a1,24(a4)
	.loc 1 751 22
	ld	a4,-56(s0)
	ld	a3,32(a4)
	.loc 1 751 42
	ld	a4,-56(s0)
	ld	a4,24(a4)
	.loc 1 751 35
	sub	a4,a3,a4
	.loc 1 751 56
	addi	a4,a4,1
	.loc 1 748 9
	ld	a3,-104(s0)
	mv	a2,a4
	jalr	a5
.LVL6:
.L93:
	.loc 1 756 12
	ld	a5,-48(s0)
	ld	a5,0(a5)
	sd	a5,-48(s0)
.L90:
	.loc 1 728 17
	ld	a4,-48(s0)
	la	a5,mGcdMemorySpaceMap
	bne	a4,a5,.L94
	.loc 1 759 5
	call	CoreReleaseGcdMemoryLock@plt
.L96:
	.loc 1 761 1
	nop
	ld	ra,136(sp)
	.cfi_restore 1
	ld	s0,128(sp)
	.cfi_restore 8
	.cfi_def_cfa 2, 144
	ld	s1,120(sp)
	.cfi_restore 9
	addi	sp,sp,144
	.cfi_def_cfa_offset 0
	jr	ra
	.cfi_endproc
.LFE11:
	.size	InitializeDxeNxMemoryProtectionPolicy, .-InitializeDxeNxMemoryProtectionPolicy
	.section	.text.MemoryProtectionCpuArchProtocolNotify,"ax",@progbits
	.align	1
	.globl	MemoryProtectionCpuArchProtocolNotify
	.type	MemoryProtectionCpuArchProtocolNotify, @function
MemoryProtectionCpuArchProtocolNotify:
.LFB12:
	.loc 1 777 1
	.cfi_startproc
	addi	sp,sp,-80
	.cfi_def_cfa_offset 80
	sd	ra,72(sp)
	sd	s0,64(sp)
	.cfi_offset 1, -8
	.cfi_offset 8, -16
	addi	s0,sp,80
	.cfi_def_cfa 8, 0
	sd	a0,-72(s0)
	sd	a1,-80(s0)
	.loc 1 786 12
	la	a2,gCpu
	li	a1,0
	la	a0,gEfiCpuArchProtocolGuid
	call	CoreLocateProtocol@plt
	sd	a0,-32(s0)
	.loc 1 787 34
	ld	a5,-32(s0)
	.loc 1 787 6
	blt	a5,zero,.L108
	.loc 1 794 57
	la	a5,_gPcd_FixedAtBuild_PcdDxeNxMemoryProtectionPolicy
	ld	a5,0(a5)
	.loc 1 794 6
	beq	a5,zero,.L100
	.loc 1 795 5
	call	InitializeDxeNxMemoryProtectionPolicy
.L100:
	.loc 1 801 3
	call	HeapGuardCpuArchProtocolNotify@plt
	.loc 1 803 30
	lla	a5,mImageProtectionPolicy
	lw	a5,0(a5)
	.loc 1 803 6
	beq	a5,zero,.L109
	.loc 1 807 15
	la	a5,gBS
	ld	a5,0(a5)
	ld	a5,312(a5)
	.loc 1 807 12
	addi	a4,s0,-64
	addi	a3,s0,-56
	li	a2,0
	la	a1,gEfiLoadedImageProtocolGuid
	li	a0,2
	jalr	a5
.LVL7:
	sd	a0,-32(s0)
	.loc 1 814 34
	ld	a5,-32(s0)
	.loc 1 814 6
	bge	a5,zero,.L102
	.loc 1 814 74 discriminator 1
	ld	a5,-56(s0)
	.loc 1 814 60 discriminator 1
	beq	a5,zero,.L110
.L102:
	.loc 1 818 14
	sd	zero,-24(s0)
	.loc 1 818 3
	j	.L103
.L107:
	.loc 1 819 17
	la	a5,gBS
	ld	a5,0(a5)
	ld	a5,152(a5)
	.loc 1 820 33
	ld	a3,-64(s0)
	ld	a4,-24(s0)
	slli	a4,a4,3
	add	a4,a3,a4
	.loc 1 819 14
	ld	a4,0(a4)
	addi	a3,s0,-40
	mv	a2,a3
	la	a1,gEfiLoadedImageProtocolGuid
	mv	a0,a4
	jalr	a5
.LVL8:
	sd	a0,-32(s0)
	.loc 1 824 36
	ld	a5,-32(s0)
	.loc 1 824 8
	blt	a5,zero,.L111
	.loc 1 828 17
	la	a5,gBS
	ld	a5,0(a5)
	ld	a5,152(a5)
	.loc 1 829 33
	ld	a3,-64(s0)
	ld	a4,-24(s0)
	slli	a4,a4,3
	add	a4,a3,a4
	.loc 1 828 14
	ld	a4,0(a4)
	addi	a3,s0,-48
	mv	a2,a3
	la	a1,gEfiLoadedImageDevicePathProtocolGuid
	mv	a0,a4
	jalr	a5
.LVL9:
	sd	a0,-32(s0)
	.loc 1 833 36
	ld	a5,-32(s0)
	.loc 1 833 8
	bge	a5,zero,.L106
	.loc 1 834 29
	sd	zero,-48(s0)
.L106:
	.loc 1 837 5
	ld	a5,-40(s0)
	ld	a4,-48(s0)
	mv	a1,a4
	mv	a0,a5
	call	ProtectUefiImage
	j	.L105
.L111:
	.loc 1 825 7
	nop
.L105:
	.loc 1 818 43 discriminator 2
	ld	a5,-24(s0)
	addi	a5,a5,1
	sd	a5,-24(s0)
.L103:
	.loc 1 818 25 discriminator 1
	ld	a5,-56(s0)
	ld	a4,-24(s0)
	bltu	a4,a5,.L107
	.loc 1 840 3
	ld	a5,-64(s0)
	mv	a0,a5
	call	FreePool@plt
	j	.L99
.L108:
	.loc 1 788 5
	nop
	j	.L99
.L109:
	.loc 1 804 5
	nop
	j	.L99
.L110:
	.loc 1 815 5
	nop
.L99:
	.loc 1 843 3
	ld	a0,-72(s0)
	call	CoreCloseEvent@plt
	.loc 1 844 1
	nop
	ld	ra,72(sp)
	.cfi_restore 1
	ld	s0,64(sp)
	.cfi_restore 8
	.cfi_def_cfa 2, 80
	addi	sp,sp,80
	.cfi_def_cfa_offset 0
	jr	ra
	.cfi_endproc
.LFE12:
	.size	MemoryProtectionCpuArchProtocolNotify, .-MemoryProtectionCpuArchProtocolNotify
	.section	.text.MemoryProtectionExitBootServicesCallback,"ax",@progbits
	.align	1
	.globl	MemoryProtectionExitBootServicesCallback
	.type	MemoryProtectionExitBootServicesCallback, @function
MemoryProtectionExitBootServicesCallback:
.LFB13:
	.loc 1 853 1
	.cfi_startproc
	addi	sp,sp,-32
	.cfi_def_cfa_offset 32
	sd	ra,24(sp)
	sd	s0,16(sp)
	.cfi_offset 1, -8
	.cfi_offset 8, -16
	addi	s0,sp,32
	.cfi_def_cfa 8, 0
	.loc 1 866 30
	lla	a5,mImageProtectionPolicy
	lw	a5,0(a5)
	.loc 1 866 6
	beq	a5,zero,.L116
	.loc 1 867 25
	la	a5,gRuntime
	ld	a5,0(a5)
	.loc 1 867 15
	ld	a5,0(a5)
	sd	a5,-24(s0)
	.loc 1 867 5
	j	.L114
.L115:
	.loc 1 868 20
	ld	a5,-24(s0)
	addi	a5,a5,-32
	sd	a5,-32(s0)
	.loc 1 869 64
	ld	a5,-32(s0)
	ld	a5,0(a5)
	.loc 1 869 7
	mv	a0,a5
	.loc 1 869 91
	ld	a5,-32(s0)
	ld	a4,8(a5)
	.loc 1 869 136
	ld	a5,-32(s0)
	ld	a5,8(a5)
	.loc 1 869 150
	neg	a3,a5
	li	a5,4096
	addi	a5,a5,-1
	and	a5,a3,a5
	.loc 1 869 7
	add	a5,a4,a5
	li	a2,0
	mv	a1,a5
	call	SetUefiImageMemoryAttributes
	.loc 1 867 85 discriminator 3
	ld	a5,-24(s0)
	ld	a5,0(a5)
	sd	a5,-24(s0)
.L114:
	.loc 1 867 67 discriminator 1
	la	a5,gRuntime
	ld	a5,0(a5)
	.loc 1 867 58 discriminator 1
	mv	a4,a5
	.loc 1 867 55 discriminator 1
	ld	a5,-24(s0)
	bne	a5,a4,.L115
.L116:
	.loc 1 872 1
	nop
	ld	ra,24(sp)
	.cfi_restore 1
	ld	s0,16(sp)
	.cfi_restore 8
	.cfi_def_cfa 2, 32
	addi	sp,sp,32
	.cfi_def_cfa_offset 0
	jr	ra
	.cfi_endproc
.LFE13:
	.size	MemoryProtectionExitBootServicesCallback, .-MemoryProtectionExitBootServicesCallback
	.section	.text.DisableNullDetectionAtTheEndOfDxe,"ax",@progbits
	.align	1
	.globl	DisableNullDetectionAtTheEndOfDxe
	.type	DisableNullDetectionAtTheEndOfDxe, @function
DisableNullDetectionAtTheEndOfDxe:
.LFB14:
	.loc 1 888 1
	.cfi_startproc
	addi	sp,sp,-96
	.cfi_def_cfa_offset 96
	sd	ra,88(sp)
	sd	s0,80(sp)
	.cfi_offset 1, -8
	.cfi_offset 8, -16
	addi	s0,sp,96
	.cfi_def_cfa 8, 0
	sd	a0,-88(s0)
	sd	a1,-96(s0)
	.loc 1 896 12
	addi	a5,s0,-80
	mv	a1,a5
	li	a0,0
	call	CoreGetMemorySpaceDescriptor@plt
	sd	a0,-24(s0)
	.loc 1 899 12
	ld	a4,-64(s0)
	.loc 1 899 26
	li	a5,8192
	and	a5,a4,a5
	.loc 1 899 6
	bne	a5,zero,.L118
	.loc 1 903 20
	ld	a4,-64(s0)
	.loc 1 903 34
	li	a5,8192
	or	a5,a4,a5
	.loc 1 900 14
	mv	a2,a5
	li	a1,4096
	li	a0,0
	call	CoreSetMemorySpaceCapabilities@plt
	sd	a0,-24(s0)
.L118:
	.loc 1 911 18
	ld	a4,-56(s0)
	.loc 1 908 12
	li	a5,-8192
	addi	a5,a5,-1
	and	a5,a4,a5
	mv	a2,a5
	li	a1,4096
	li	a0,0
	call	CoreSetMemorySpaceAttributes@plt
	sd	a0,-24(s0)
	.loc 1 918 3
	li	a1,1
	li	a0,0
	call	CoreFreePages@plt
	.loc 1 920 3
	ld	a0,-88(s0)
	call	CoreCloseEvent@plt
	.loc 1 923 3
	nop
	.loc 1 924 1
	ld	ra,88(sp)
	.cfi_restore 1
	ld	s0,80(sp)
	.cfi_restore 8
	.cfi_def_cfa 2, 96
	addi	sp,sp,96
	.cfi_def_cfa_offset 0
	jr	ra
	.cfi_endproc
.LFE14:
	.size	DisableNullDetectionAtTheEndOfDxe, .-DisableNullDetectionAtTheEndOfDxe
	.section	.text.CoreInitializeMemoryProtection,"ax",@progbits
	.align	1
	.globl	CoreInitializeMemoryProtection
	.type	CoreInitializeMemoryProtection, @function
CoreInitializeMemoryProtection:
.LFB15:
	.loc 1 934 1
	.cfi_startproc
	addi	sp,sp,-48
	.cfi_def_cfa_offset 48
	sd	ra,40(sp)
	sd	s0,32(sp)
	.cfi_offset 1, -8
	.cfi_offset 8, -16
	addi	s0,sp,48
	.cfi_def_cfa 8, 0
	.loc 1 940 26
	la	a5,_gPcd_FixedAtBuild_PcdImageProtectionPolicy
	lw	a4,0(a5)
	lla	a5,mImageProtectionPolicy
	sw	a4,0(a5)
	.loc 1 942 3
	lla	a0,mProtectedImageRecordList
	call	InitializeListHead@plt
	.loc 1 958 12
	addi	a5,s0,-32
	mv	a4,a5
	li	a3,0
	lla	a2,MemoryProtectionCpuArchProtocolNotify
	li	a1,8
	li	a0,512
	call	CoreCreateEvent@plt
	sd	a0,-24(s0)
	.loc 1 970 12
	ld	a5,-32(s0)
	addi	a4,s0,-48
	mv	a2,a4
	mv	a1,a5
	la	a0,gEfiCpuArchProtocolGuid
	call	CoreRegisterProtocolNotify@plt
	sd	a0,-24(s0)
	.loc 1 980 63
	la	a5,_gPcd_FixedAtBuild_PcdNullPointerDetectionPropertyMask
	lbu	a5,0(a5)
	sext.w	a5,a5
	andi	a5,a5,129
	sext.w	a4,a5
	.loc 1 980 6
	li	a5,129
	bne	a4,a5,.L123
	.loc 1 983 14
	addi	a5,s0,-40
	la	a4,gEfiEndOfDxeEventGroupGuid
	li	a3,0
	lla	a2,DisableNullDetectionAtTheEndOfDxe
	li	a1,16
	li	a0,512
	call	CoreCreateEventEx@plt
	sd	a0,-24(s0)
	.loc 1 994 3
	nop
.L123:
	nop
	.loc 1 995 1
	ld	ra,40(sp)
	.cfi_restore 1
	ld	s0,32(sp)
	.cfi_restore 8
	.cfi_def_cfa 2, 48
	addi	sp,sp,48
	.cfi_def_cfa_offset 0
	jr	ra
	.cfi_endproc
.LFE15:
	.size	CoreInitializeMemoryProtection, .-CoreInitializeMemoryProtection
	.section	.text.IsInSmm,"ax",@progbits
	.align	1
	.type	IsInSmm, @function
IsInSmm:
.LFB16:
	.loc 1 1005 1
	.cfi_startproc
	addi	sp,sp,-32
	.cfi_def_cfa_offset 32
	sd	ra,24(sp)
	sd	s0,16(sp)
	.cfi_offset 1, -8
	.cfi_offset 8, -16
	addi	s0,sp,32
	.cfi_def_cfa 8, 0
	.loc 1 1008 9
	sb	zero,-17(s0)
	.loc 1 1009 17
	la	a5,gSmmBase2
	ld	a5,0(a5)
	.loc 1 1009 6
	beq	a5,zero,.L125
	.loc 1 1010 14
	la	a5,gSmmBase2
	ld	a5,0(a5)
	ld	a5,0(a5)
	.loc 1 1010 5
	la	a4,gSmmBase2
	ld	a4,0(a4)
	addi	a3,s0,-17
	mv	a1,a3
	mv	a0,a4
	jalr	a5
.LVL10:
.L125:
	.loc 1 1013 10
	lbu	a5,-17(s0)
	.loc 1 1014 1
	mv	a0,a5
	ld	ra,24(sp)
	.cfi_restore 1
	ld	s0,16(sp)
	.cfi_restore 8
	.cfi_def_cfa 2, 32
	addi	sp,sp,32
	.cfi_def_cfa_offset 0
	jr	ra
	.cfi_endproc
.LFE16:
	.size	IsInSmm, .-IsInSmm
	.section	.text.ApplyMemoryProtectionPolicy,"ax",@progbits
	.align	1
	.globl	ApplyMemoryProtectionPolicy
	.type	ApplyMemoryProtectionPolicy, @function
ApplyMemoryProtectionPolicy:
.LFB17:
	.loc 1 1041 1
	.cfi_startproc
	addi	sp,sp,-64
	.cfi_def_cfa_offset 64
	sd	ra,56(sp)
	sd	s0,48(sp)
	.cfi_offset 1, -8
	.cfi_offset 8, -16
	addi	s0,sp,64
	.cfi_def_cfa 8, 0
	mv	a5,a0
	mv	a4,a1
	sd	a2,-48(s0)
	sd	a3,-56(s0)
	sw	a5,-36(s0)
	mv	a5,a4
	sw	a5,-40(s0)
	.loc 1 1049 7
	call	IsInSmm
	mv	a5,a0
	.loc 1 1049 6 discriminator 1
	beq	a5,zero,.L128
	.loc 1 1050 12
	li	a5,0
	j	.L129
.L128:
	.loc 1 1058 12
	la	a5,gCpu
	ld	a5,0(a5)
	.loc 1 1058 6
	bne	a5,zero,.L130
	.loc 1 1059 12
	li	a5,0
	j	.L129
.L130:
	.loc 1 1065 57
	la	a5,_gPcd_FixedAtBuild_PcdDxeNxMemoryProtectionPolicy
	ld	a5,0(a5)
	.loc 1 1065 6
	bne	a5,zero,.L131
	.loc 1 1066 12
	li	a5,0
	j	.L129
.L131:
	.loc 1 1073 7
	li	a0,3
	call	IsHeapGuardEnabled@plt
	mv	a5,a0
	.loc 1 1073 6 discriminator 1
	beq	a5,zero,.L132
	.loc 1 1074 9
	ld	a0,-48(s0)
	call	IsGuardPage@plt
	mv	a5,a0
	.loc 1 1074 8 discriminator 1
	beq	a5,zero,.L133
	.loc 1 1075 14
	ld	a4,-48(s0)
	li	a5,4096
	add	a5,a4,a5
	sd	a5,-48(s0)
	.loc 1 1076 14
	ld	a4,-56(s0)
	li	a5,-4096
	add	a5,a4,a5
	sd	a5,-56(s0)
	.loc 1 1077 10
	ld	a5,-56(s0)
	bne	a5,zero,.L133
	.loc 1 1078 16
	li	a5,0
	j	.L129
.L133:
	.loc 1 1082 29
	ld	a4,-48(s0)
	ld	a5,-56(s0)
	add	a4,a4,a5
	.loc 1 1082 38
	li	a5,-4096
	add	a5,a4,a5
	.loc 1 1082 9
	mv	a0,a5
	call	IsGuardPage@plt
	mv	a5,a0
	.loc 1 1082 8 discriminator 1
	beq	a5,zero,.L132
	.loc 1 1083 14
	ld	a4,-56(s0)
	li	a5,-4096
	add	a5,a4,a5
	sd	a5,-56(s0)
	.loc 1 1084 10
	ld	a5,-56(s0)
	bne	a5,zero,.L132
	.loc 1 1085 16
	li	a5,0
	j	.L129
.L132:
	.loc 1 1096 19
	lw	a5,-40(s0)
	mv	a0,a5
	call	GetPermissionAttributeForMemoryType
	sd	a0,-24(s0)
	.loc 1 1098 6
	lw	a5,-36(s0)
	sext.w	a4,a5
	li	a5,16
	beq	a4,a5,.L134
	.loc 1 1099 21
	lw	a5,-36(s0)
	mv	a0,a5
	call	GetPermissionAttributeForMemoryType
	sd	a0,-32(s0)
	.loc 1 1100 8
	ld	a4,-32(s0)
	ld	a5,-24(s0)
	bne	a4,a5,.L135
	.loc 1 1102 14
	li	a5,0
	j	.L129
.L134:
	.loc 1 1104 13
	ld	a5,-24(s0)
	bne	a5,zero,.L135
	.loc 1 1106 12
	li	a5,0
	j	.L129
.L135:
	.loc 1 1109 14
	la	a5,gCpu
	ld	a5,0(a5)
	ld	a5,56(a5)
	.loc 1 1109 10
	la	a4,gCpu
	ld	a4,0(a4)
	ld	a3,-24(s0)
	ld	a2,-56(s0)
	ld	a1,-48(s0)
	mv	a0,a4
	jalr	a5
.LVL11:
	mv	a5,a0
.L129:
	.loc 1 1110 1
	mv	a0,a5
	ld	ra,56(sp)
	.cfi_restore 1
	ld	s0,48(sp)
	.cfi_restore 8
	.cfi_def_cfa 2, 64
	addi	sp,sp,64
	.cfi_def_cfa_offset 0
	jr	ra
	.cfi_endproc
.LFE17:
	.size	ApplyMemoryProtectionPolicy, .-ApplyMemoryProtectionPolicy
	.text
.Letext0:
	.file 2 "/home/kapoagaeming/Downloads/spacemit-image-builder/components/edk2/MdePkg/Include/RiscV64/ProcessorBind.h"
	.file 3 "/home/kapoagaeming/Downloads/spacemit-image-builder/components/edk2/MdePkg/Include/Base.h"
	.file 4 "/home/kapoagaeming/Downloads/spacemit-image-builder/components/edk2/MdePkg/Include/Uefi/UefiBaseType.h"
	.file 5 "/home/kapoagaeming/Downloads/spacemit-image-builder/components/edk2/MdePkg/Include/Uefi/UefiMultiPhase.h"
	.file 6 "/home/kapoagaeming/Downloads/spacemit-image-builder/components/edk2/MdePkg/Include/Protocol/DevicePath.h"
	.file 7 "/home/kapoagaeming/Downloads/spacemit-image-builder/components/edk2/MdePkg/Include/Protocol/SimpleTextIn.h"
	.file 8 "/home/kapoagaeming/Downloads/spacemit-image-builder/components/edk2/MdePkg/Include/Protocol/SimpleTextOut.h"
	.file 9 "/home/kapoagaeming/Downloads/spacemit-image-builder/components/edk2/MdePkg/Include/Uefi/UefiSpec.h"
	.file 10 "/home/kapoagaeming/Downloads/spacemit-image-builder/components/edk2/MdePkg/Include/Pi/PiBootMode.h"
	.file 11 "/home/kapoagaeming/Downloads/spacemit-image-builder/components/edk2/MdePkg/Include/Pi/PiHob.h"
	.file 12 "/home/kapoagaeming/Downloads/spacemit-image-builder/components/edk2/MdePkg/Include/Protocol/DebugSupport.h"
	.file 13 "/home/kapoagaeming/Downloads/spacemit-image-builder/components/edk2/MdePkg/Include/Pi/PiMultiPhase.h"
	.file 14 "/home/kapoagaeming/Downloads/spacemit-image-builder/components/edk2/MdePkg/Include/Pi/PiDxeCis.h"
	.file 15 "/home/kapoagaeming/Downloads/spacemit-image-builder/components/Build/Milk-V-Jupiter/RELEASE_GCC5/RISCV64/MdeModulePkg/Core/Dxe/DxeMain/DEBUG/AutoGen.h"
	.file 16 "/home/kapoagaeming/Downloads/spacemit-image-builder/components/edk2/MdeModulePkg/Include/Library/ImagePropertiesRecordLib.h"
	.file 17 "/home/kapoagaeming/Downloads/spacemit-image-builder/components/edk2/MdePkg/Include/Protocol/LoadedImage.h"
	.file 18 "/home/kapoagaeming/Downloads/spacemit-image-builder/components/edk2/MdePkg/Include/Protocol/Runtime.h"
	.file 19 "/home/kapoagaeming/Downloads/spacemit-image-builder/components/edk2/MdePkg/Include/Protocol/Cpu.h"
	.file 20 "/home/kapoagaeming/Downloads/spacemit-image-builder/components/edk2/MdePkg/Include/Protocol/MmCpuIo.h"
	.file 21 "/home/kapoagaeming/Downloads/spacemit-image-builder/components/edk2/MdePkg/Include/Pi/PiMmCis.h"
	.file 22 "/home/kapoagaeming/Downloads/spacemit-image-builder/components/edk2/MdePkg/Include/Protocol/SmmCpuIo2.h"
	.file 23 "/home/kapoagaeming/Downloads/spacemit-image-builder/components/edk2/MdePkg/Include/Pi/PiSmmCis.h"
	.file 24 "/home/kapoagaeming/Downloads/spacemit-image-builder/components/edk2/MdePkg/Include/Protocol/SmmBase2.h"
	.file 25 "/home/kapoagaeming/Downloads/spacemit-image-builder/components/edk2/MdeModulePkg/Core/Dxe/DxeMain.h"
	.file 26 "/home/kapoagaeming/Downloads/spacemit-image-builder/components/edk2/MdeModulePkg/Core/Dxe/Mem/HeapGuard.h"
	.file 27 "/home/kapoagaeming/Downloads/spacemit-image-builder/components/edk2/MdePkg/Include/Library/BaseLib.h"
	.file 28 "/home/kapoagaeming/Downloads/spacemit-image-builder/components/edk2/MdePkg/Include/Library/HobLib.h"
	.file 29 "/home/kapoagaeming/Downloads/spacemit-image-builder/components/edk2/MdePkg/Include/Library/BaseMemoryLib.h"
	.file 30 "/home/kapoagaeming/Downloads/spacemit-image-builder/components/edk2/MdePkg/Include/Library/MemoryAllocationLib.h"
	.file 31 "/home/kapoagaeming/Downloads/spacemit-image-builder/components/edk2/MdePkg/Include/Library/UefiBootServicesTableLib.h"
	.section	.note.GNU-stack,"",@progbits
