	.file	"Stall.c"
	.option pic
	.option norelax
	.attribute arch, "rv64i2p1_m2p0_a2p1_f2p2_d2p2_c2p0_zicsr2p0_zifencei2p0_zmmul1p0_zaamo1p0_zalrsc1p0_zca1p0_zcd1p0"
	.attribute unaligned_access, 0
	.attribute stack_align, 16
	.text
.Ltext0:
	.cfi_sections	.debug_frame
	.file 0 "/home/kapoagaeming/Downloads/spacemit-image-builder/components/Build/Milk-V-Jupiter/RELEASE_GCC5/RISCV64/MdeModulePkg/Core/Dxe/DxeMain" "/home/kapoagaeming/Downloads/spacemit-image-builder/components/edk2/MdeModulePkg/Core/Dxe/Misc/Stall.c"
	.section	.text.CoreInternalWaitForTick,"ax",@progbits
	.align	1
	.globl	CoreInternalWaitForTick
	.type	CoreInternalWaitForTick, @function
CoreInternalWaitForTick:
.LFB0:
	.file 1 "/home/kapoagaeming/Downloads/spacemit-image-builder/components/edk2/MdeModulePkg/Core/Dxe/Misc/Stall.c"
	.loc 1 28 1
	.cfi_startproc
	addi	sp,sp,-32
	.cfi_def_cfa_offset 32
	sd	ra,24(sp)
	sd	s0,16(sp)
	.cfi_offset 1, -8
	.cfi_offset 8, -16
	addi	s0,sp,32
	.cfi_def_cfa 8, 0
	sd	a0,-24(s0)
	.loc 1 29 9
	j	.L2
.L3:
	.loc 1 30 15
	la	a5,gMetronome
	ld	a5,0(a5)
	ld	a5,0(a5)
	.loc 1 30 5
	la	a4,gMetronome
	ld	a4,0(a4)
	li	a1,-1
	mv	a0,a4
	jalr	a5
.LVL0:
	.loc 1 31 13
	ld	a4,-24(s0)
	li	a5,-1
	slli	a5,a5,32
	addi	a5,a5,1
	add	a5,a4,a5
	sd	a5,-24(s0)
.L2:
	.loc 1 29 10
	li	a1,32
	ld	a0,-24(s0)
	call	RShiftU64@plt
	mv	a5,a0
	.loc 1 29 34 discriminator 1
	bne	a5,zero,.L3
	.loc 1 34 13
	la	a5,gMetronome
	ld	a5,0(a5)
	ld	a5,0(a5)
	.loc 1 34 3
	la	a4,gMetronome
	ld	a4,0(a4)
	ld	a3,-24(s0)
	sext.w	a3,a3
	mv	a1,a3
	mv	a0,a4
	jalr	a5
.LVL1:
	.loc 1 35 1
	nop
	ld	ra,24(sp)
	.cfi_restore 1
	ld	s0,16(sp)
	.cfi_restore 8
	.cfi_def_cfa 2, 32
	addi	sp,sp,32
	.cfi_def_cfa_offset 0
	jr	ra
	.cfi_endproc
.LFE0:
	.size	CoreInternalWaitForTick, .-CoreInternalWaitForTick
	.section	.text.CoreStall,"ax",@progbits
	.align	1
	.globl	CoreStall
	.type	CoreStall, @function
CoreStall:
.LFB1:
	.loc 1 52 1
	.cfi_startproc
	addi	sp,sp,-64
	.cfi_def_cfa_offset 64
	sd	ra,56(sp)
	sd	s0,48(sp)
	.cfi_offset 1, -8
	.cfi_offset 8, -16
	addi	s0,sp,64
	.cfi_def_cfa 8, 0
	sd	a0,-56(s0)
	.loc 1 57 18
	la	a5,gMetronome
	ld	a5,0(a5)
	.loc 1 57 6
	bne	a5,zero,.L5
	.loc 1 58 12
	li	a5,-3
	slli	a5,a5,61
	addi	a5,a5,2
	j	.L12
.L5:
	.loc 1 65 6
	ld	a4,-56(s0)
	lla	a5,.LC0
	ld	a5,0(a5)
	bleu	a4,a5,.L7
	.loc 1 72 27
	la	a5,gMetronome
	ld	a5,0(a5)
	.loc 1 70 15
	lw	a5,8(a5)
	addi	a4,s0,-36
	mv	a2,a4
	mv	a1,a5
	ld	a0,-56(s0)
	call	DivU64x32Remainder@plt
	sd	a0,-24(s0)
	.loc 1 75 16
	sd	zero,-32(s0)
	.loc 1 75 5
	j	.L8
.L9:
	.loc 1 76 7
	ld	a0,-24(s0)
	call	CoreInternalWaitForTick
	.loc 1 75 38 discriminator 3
	ld	a5,-32(s0)
	addi	a5,a5,1
	sd	a5,-32(s0)
.L8:
	.loc 1 75 27 discriminator 1
	ld	a4,-32(s0)
	li	a5,9
	bleu	a4,a5,.L9
	.loc 1 79 19
	lw	a5,-36(s0)
	.loc 1 79 8
	beq	a5,zero,.L10
	.loc 1 86 7
	li	a0,10
	call	CoreInternalWaitForTick
	j	.L10
.L7:
	.loc 1 93 15
	li	a1,10
	ld	a0,-56(s0)
	call	MultU64x32@plt
	mv	a3,a0
	.loc 1 95 27
	la	a5,gMetronome
	ld	a5,0(a5)
	.loc 1 93 15
	lw	a5,8(a5)
	addi	a4,s0,-36
	mv	a2,a4
	mv	a1,a5
	mv	a0,a3
	call	DivU64x32Remainder@plt
	sd	a0,-24(s0)
	.loc 1 98 19
	lw	a5,-36(s0)
	.loc 1 98 8
	beq	a5,zero,.L11
	.loc 1 102 14
	ld	a5,-24(s0)
	addi	a5,a5,1
	sd	a5,-24(s0)
.L11:
	.loc 1 105 5
	ld	a0,-24(s0)
	call	CoreInternalWaitForTick
.L10:
	.loc 1 108 10
	li	a5,0
.L12:
	.loc 1 109 1
	mv	a0,a5
	ld	ra,56(sp)
	.cfi_restore 1
	ld	s0,48(sp)
	.cfi_restore 8
	.cfi_def_cfa 2, 64
	addi	sp,sp,64
	.cfi_def_cfa_offset 0
	jr	ra
	.cfi_endproc
.LFE1:
	.size	CoreStall, .-CoreStall
	.section	.rodata
	.align	3
.LC0:
	.dword	1844674407370955161
	.text
.Letext0:
	.file 2 "/home/kapoagaeming/Downloads/spacemit-image-builder/components/edk2/MdePkg/Include/RiscV64/ProcessorBind.h"
	.file 3 "/home/kapoagaeming/Downloads/spacemit-image-builder/components/edk2/MdePkg/Include/Base.h"
	.file 4 "/home/kapoagaeming/Downloads/spacemit-image-builder/components/edk2/MdePkg/Include/Uefi/UefiBaseType.h"
	.file 5 "/home/kapoagaeming/Downloads/spacemit-image-builder/components/edk2/MdePkg/Include/Protocol/Metronome.h"
	.file 6 "/home/kapoagaeming/Downloads/spacemit-image-builder/components/edk2/MdePkg/Include/Library/BaseLib.h"
	.file 7 "/home/kapoagaeming/Downloads/spacemit-image-builder/components/edk2/MdeModulePkg/Core/Dxe/DxeMain.h"
	.section	.note.GNU-stack,"",@progbits
