	.file	"PrePiExtractGuidedSectionLib.c"
	.option pic
	.option norelax
	.attribute arch, "rv64i2p1_m2p0_a2p1_f2p2_d2p2_c2p0_zicsr2p0_zifencei2p0_zmmul1p0_zaamo1p0_zalrsc1p0_zca1p0_zcd1p0"
	.attribute unaligned_access, 0
	.attribute stack_align, 16
	.text
.Ltext0:
	.cfi_sections	.debug_frame
	.file 0 "/home/kapoagaeming/Downloads/spacemit-image-builder/components/Build/Milk-V-Jupiter/RELEASE_GCC5/RISCV64/EmbeddedPkg/Library/PrePiExtractGuidedSectionLib/PrePiExtractGuidedSectionLib" "/home/kapoagaeming/Downloads/spacemit-image-builder/components/edk2/EmbeddedPkg/Library/PrePiExtractGuidedSectionLib/PrePiExtractGuidedSectionLib.c"
	.section	.rodata
	.align	3
.LC0:
	.word	945461292
	.half	12105
	.half	16451
	.base64	"pR5JAQJci2s="
	.section	.text.GetSavedData,"ax",@progbits
	.align	1
	.globl	GetSavedData
	.type	GetSavedData, @function
GetSavedData:
.LFB0:
	.file 1 "/home/kapoagaeming/Downloads/spacemit-image-builder/components/edk2/EmbeddedPkg/Library/PrePiExtractGuidedSectionLib/PrePiExtractGuidedSectionLib.c"
	.loc 1 29 1
	.cfi_startproc
	addi	sp,sp,-48
	.cfi_def_cfa_offset 48
	sd	ra,40(sp)
	sd	s0,32(sp)
	.cfi_offset 1, -8
	.cfi_offset 8, -16
	addi	s0,sp,48
	.cfi_def_cfa 8, 0
	.loc 1 31 8
	lla	a5,.LC0
	ld	a4,0(a5)
	sd	a4,-40(s0)
	ld	a5,8(a5)
	sd	a5,-32(s0)
	.loc 1 33 13
	addi	a5,s0,-40
	mv	a0,a5
	call	GetFirstGuidHob@plt
	sd	a0,-24(s0)
	.loc 1 34 10
	ld	a5,-24(s0)
	addi	a5,a5,24
	sd	a5,-24(s0)
	.loc 1 36 10
	ld	a5,-24(s0)
	.loc 1 37 1
	mv	a0,a5
	ld	ra,40(sp)
	.cfi_restore 1
	ld	s0,32(sp)
	.cfi_restore 8
	.cfi_def_cfa 2, 48
	addi	sp,sp,48
	.cfi_def_cfa_offset 0
	jr	ra
	.cfi_endproc
.LFE0:
	.size	GetSavedData, .-GetSavedData
	.section	.text.ExtractGuidedSectionRegisterHandlers,"ax",@progbits
	.align	1
	.globl	ExtractGuidedSectionRegisterHandlers
	.type	ExtractGuidedSectionRegisterHandlers, @function
ExtractGuidedSectionRegisterHandlers:
.LFB1:
	.loc 1 46 1
	.cfi_startproc
	addi	sp,sp,-64
	.cfi_def_cfa_offset 64
	sd	ra,56(sp)
	sd	s0,48(sp)
	.cfi_offset 1, -8
	.cfi_offset 8, -16
	addi	s0,sp,64
	.cfi_def_cfa 8, 0
	sd	a0,-40(s0)
	sd	a1,-48(s0)
	sd	a2,-56(s0)
	.loc 1 53 6
	ld	a5,-40(s0)
	bne	a5,zero,.L4
	.loc 1 54 12
	li	a5,-1
	slli	a5,a5,63
	addi	a5,a5,2
	j	.L5
.L4:
	.loc 1 57 15
	call	GetSavedData
	sd	a0,-32(s0)
	.loc 1 62 14
	sw	zero,-20(s0)
	.loc 1 62 3
	j	.L6
.L9:
	.loc 1 63 32
	ld	a5,-32(s0)
	ld	a4,8(a5)
	.loc 1 63 57
	lwu	a5,-20(s0)
	slli	a5,a5,4
	.loc 1 63 22
	add	a5,a4,a5
	.loc 1 63 9
	ld	a1,-40(s0)
	mv	a0,a5
	call	CompareGuid@plt
	mv	a5,a0
	.loc 1 63 8 discriminator 1
	bne	a5,zero,.L12
	.loc 1 62 67 discriminator 2
	lw	a5,-20(s0)
	addiw	a5,a5,1
	sw	a5,-20(s0)
.L6:
	.loc 1 62 36 discriminator 1
	ld	a5,-32(s0)
	lw	a5,0(a5)
	.loc 1 62 25 discriminator 1
	lw	a4,-20(s0)
	sext.w	a4,a4
	bltu	a4,a5,.L9
	j	.L8
.L12:
	.loc 1 64 7
	nop
.L8:
	.loc 1 71 24
	ld	a5,-32(s0)
	lw	a5,0(a5)
	.loc 1 71 6
	lw	a4,-20(s0)
	sext.w	a4,a4
	bgeu	a4,a5,.L10
	.loc 1 72 14
	ld	a5,-32(s0)
	ld	a4,16(a5)
	.loc 1 72 41
	lwu	a5,-20(s0)
	slli	a5,a5,3
	add	a5,a4,a5
	.loc 1 72 49
	ld	a4,-56(s0)
	sd	a4,0(a5)
	.loc 1 73 14
	ld	a5,-32(s0)
	ld	a4,24(a5)
	.loc 1 73 42
	lwu	a5,-20(s0)
	slli	a5,a5,3
	add	a5,a4,a5
	.loc 1 73 50
	ld	a4,-48(s0)
	sd	a4,0(a5)
	.loc 1 74 12
	li	a5,0
	j	.L5
.L10:
	.loc 1 80 16
	ld	a5,-32(s0)
	lw	a4,0(a5)
	.loc 1 80 41
	la	a5,_gPcd_FixedAtBuild_PcdMaximumGuidedExtractHandler
	lw	a5,0(a5)
	.loc 1 80 6
	bltu	a4,a5,.L11
	.loc 1 81 12
	li	a5,-1
	slli	a5,a5,63
	addi	a5,a5,9
	j	.L5
.L11:
	.loc 1 87 23
	ld	a5,-32(s0)
	ld	a4,8(a5)
	.loc 1 87 58
	ld	a5,-32(s0)
	lw	a5,0(a5)
	slli	a5,a5,32
	srli	a5,a5,32
	.loc 1 87 48
	slli	a5,a5,4
	.loc 1 87 3
	add	a5,a4,a5
	ld	a1,-40(s0)
	mv	a0,a5
	call	CopyGuid@plt
	.loc 1 88 12
	ld	a5,-32(s0)
	ld	a4,16(a5)
	.loc 1 88 49
	ld	a5,-32(s0)
	lw	a5,0(a5)
	slli	a5,a5,32
	srli	a5,a5,32
	.loc 1 88 39
	slli	a5,a5,3
	add	a5,a4,a5
	.loc 1 88 75
	ld	a4,-56(s0)
	sd	a4,0(a5)
	.loc 1 89 12
	ld	a5,-32(s0)
	ld	a4,24(a5)
	.loc 1 89 50
	ld	a5,-32(s0)
	lw	a5,0(a5)
	.loc 1 89 74
	addiw	a3,a5,1
	sext.w	a2,a3
	ld	a3,-32(s0)
	sw	a2,0(a3)
	slli	a5,a5,32
	srli	a5,a5,32
	.loc 1 89 40
	slli	a5,a5,3
	add	a5,a4,a5
	.loc 1 89 78
	ld	a4,-48(s0)
	sd	a4,0(a5)
	.loc 1 91 10
	li	a5,0
.L5:
	.loc 1 92 1
	mv	a0,a5
	ld	ra,56(sp)
	.cfi_restore 1
	ld	s0,48(sp)
	.cfi_restore 8
	.cfi_def_cfa 2, 64
	addi	sp,sp,64
	.cfi_def_cfa_offset 0
	jr	ra
	.cfi_endproc
.LFE1:
	.size	ExtractGuidedSectionRegisterHandlers, .-ExtractGuidedSectionRegisterHandlers
	.section	.text.ExtractGuidedSectionGetGuidList,"ax",@progbits
	.align	1
	.globl	ExtractGuidedSectionGetGuidList
	.type	ExtractGuidedSectionGetGuidList, @function
ExtractGuidedSectionGetGuidList:
.LFB2:
	.loc 1 99 1
	.cfi_startproc
	addi	sp,sp,-48
	.cfi_def_cfa_offset 48
	sd	ra,40(sp)
	sd	s0,32(sp)
	.cfi_offset 1, -8
	.cfi_offset 8, -16
	addi	s0,sp,48
	.cfi_def_cfa 8, 0
	sd	a0,-40(s0)
	.loc 1 104 15
	call	GetSavedData
	sd	a0,-24(s0)
	.loc 1 106 39
	ld	a5,-24(s0)
	ld	a4,8(a5)
	.loc 1 106 28
	ld	a5,-40(s0)
	sd	a4,0(a5)
	.loc 1 107 19
	ld	a5,-24(s0)
	lw	a5,0(a5)
	slli	a5,a5,32
	srli	a5,a5,32
	.loc 1 108 1
	mv	a0,a5
	ld	ra,40(sp)
	.cfi_restore 1
	ld	s0,32(sp)
	.cfi_restore 8
	.cfi_def_cfa 2, 48
	addi	sp,sp,48
	.cfi_def_cfa_offset 0
	jr	ra
	.cfi_endproc
.LFE2:
	.size	ExtractGuidedSectionGetGuidList, .-ExtractGuidedSectionGetGuidList
	.section	.text.ExtractGuidedSectionGetInfo,"ax",@progbits
	.align	1
	.globl	ExtractGuidedSectionGetInfo
	.type	ExtractGuidedSectionGetInfo, @function
ExtractGuidedSectionGetInfo:
.LFB3:
	.loc 1 118 1
	.cfi_startproc
	addi	sp,sp,-80
	.cfi_def_cfa_offset 80
	sd	ra,72(sp)
	sd	s0,64(sp)
	.cfi_offset 1, -8
	.cfi_offset 8, -16
	addi	s0,sp,80
	.cfi_def_cfa 8, 0
	sd	a0,-56(s0)
	sd	a1,-64(s0)
	sd	a2,-72(s0)
	sd	a3,-80(s0)
	.loc 1 123 6
	ld	a5,-56(s0)
	bne	a5,zero,.L16
	.loc 1 124 12
	li	a5,-1
	slli	a5,a5,63
	addi	a5,a5,2
	j	.L17
.L16:
	.loc 1 131 15
	call	GetSavedData
	sd	a0,-40(s0)
	.loc 1 133 81
	ld	a5,-56(s0)
	lbu	a5,0(a5)
	sext.w	a4,a5
	.loc 1 133 150
	ld	a5,-56(s0)
	lbu	a5,1(a5)
	sext.w	a5,a5
	.loc 1 133 154
	slliw	a5,a5,8
	sext.w	a5,a5
	.loc 1 133 87
	or	a5,a4,a5
	sext.w	a4,a5
	.loc 1 133 223
	ld	a5,-56(s0)
	lbu	a5,2(a5)
	sext.w	a5,a5
	.loc 1 133 227
	slliw	a5,a5,16
	sext.w	a5,a5
	.loc 1 133 160
	or	a5,a4,a5
	sext.w	a4,a5
	.loc 1 133 6
	li	a5,16777216
	addi	a5,a5,-1
	bne	a4,a5,.L18
	.loc 1 134 27
	ld	a5,-56(s0)
	addi	a5,a5,8
	sd	a5,-32(s0)
	j	.L19
.L18:
	.loc 1 136 27
	ld	a5,-56(s0)
	addi	a5,a5,4
	sd	a5,-32(s0)
.L19:
	.loc 1 142 14
	sw	zero,-20(s0)
	.loc 1 142 3
	j	.L20
.L23:
	.loc 1 143 32
	ld	a5,-40(s0)
	ld	a4,8(a5)
	.loc 1 143 57
	lwu	a5,-20(s0)
	slli	a5,a5,4
	.loc 1 143 22
	add	a5,a4,a5
	.loc 1 143 9
	ld	a1,-32(s0)
	mv	a0,a5
	call	CompareGuid@plt
	mv	a5,a0
	.loc 1 143 8 discriminator 1
	bne	a5,zero,.L25
	.loc 1 142 67 discriminator 2
	lw	a5,-20(s0)
	addiw	a5,a5,1
	sw	a5,-20(s0)
.L20:
	.loc 1 142 36 discriminator 1
	ld	a5,-40(s0)
	lw	a5,0(a5)
	.loc 1 142 25 discriminator 1
	lw	a4,-20(s0)
	sext.w	a4,a4
	bltu	a4,a5,.L23
	j	.L22
.L25:
	.loc 1 144 7
	nop
.L22:
	.loc 1 151 25
	ld	a5,-40(s0)
	lw	a5,0(a5)
	.loc 1 151 6
	lw	a4,-20(s0)
	sext.w	a4,a4
	bne	a4,a5,.L24
	.loc 1 152 12
	li	a5,-1
	slli	a5,a5,63
	addi	a5,a5,2
	j	.L17
.L24:
	.loc 1 158 19
	ld	a5,-40(s0)
	ld	a4,24(a5)
	.loc 1 158 47
	lwu	a5,-20(s0)
	slli	a5,a5,3
	add	a5,a4,a5
	ld	a5,0(a5)
	.loc 1 158 10
	ld	a3,-80(s0)
	ld	a2,-72(s0)
	ld	a1,-64(s0)
	ld	a0,-56(s0)
	jalr	a5
.LVL0:
	mv	a5,a0
.L17:
	.loc 1 164 1
	mv	a0,a5
	ld	ra,72(sp)
	.cfi_restore 1
	ld	s0,64(sp)
	.cfi_restore 8
	.cfi_def_cfa 2, 80
	addi	sp,sp,80
	.cfi_def_cfa_offset 0
	jr	ra
	.cfi_endproc
.LFE3:
	.size	ExtractGuidedSectionGetInfo, .-ExtractGuidedSectionGetInfo
	.section	.text.ExtractGuidedSectionDecode,"ax",@progbits
	.align	1
	.globl	ExtractGuidedSectionDecode
	.type	ExtractGuidedSectionDecode, @function
ExtractGuidedSectionDecode:
.LFB4:
	.loc 1 174 1
	.cfi_startproc
	addi	sp,sp,-80
	.cfi_def_cfa_offset 80
	sd	ra,72(sp)
	sd	s0,64(sp)
	.cfi_offset 1, -8
	.cfi_offset 8, -16
	addi	s0,sp,80
	.cfi_def_cfa 8, 0
	sd	a0,-56(s0)
	sd	a1,-64(s0)
	sd	a2,-72(s0)
	sd	a3,-80(s0)
	.loc 1 179 6
	ld	a5,-56(s0)
	bne	a5,zero,.L27
	.loc 1 180 12
	li	a5,-1
	slli	a5,a5,63
	addi	a5,a5,2
	j	.L28
.L27:
	.loc 1 186 15
	call	GetSavedData
	sd	a0,-40(s0)
	.loc 1 188 81
	ld	a5,-56(s0)
	lbu	a5,0(a5)
	sext.w	a4,a5
	.loc 1 188 150
	ld	a5,-56(s0)
	lbu	a5,1(a5)
	sext.w	a5,a5
	.loc 1 188 154
	slliw	a5,a5,8
	sext.w	a5,a5
	.loc 1 188 87
	or	a5,a4,a5
	sext.w	a4,a5
	.loc 1 188 223
	ld	a5,-56(s0)
	lbu	a5,2(a5)
	sext.w	a5,a5
	.loc 1 188 227
	slliw	a5,a5,16
	sext.w	a5,a5
	.loc 1 188 160
	or	a5,a4,a5
	sext.w	a4,a5
	.loc 1 188 6
	li	a5,16777216
	addi	a5,a5,-1
	bne	a4,a5,.L29
	.loc 1 189 27
	ld	a5,-56(s0)
	addi	a5,a5,8
	sd	a5,-32(s0)
	j	.L30
.L29:
	.loc 1 191 27
	ld	a5,-56(s0)
	addi	a5,a5,4
	sd	a5,-32(s0)
.L30:
	.loc 1 197 14
	sw	zero,-20(s0)
	.loc 1 197 3
	j	.L31
.L34:
	.loc 1 198 32
	ld	a5,-40(s0)
	ld	a4,8(a5)
	.loc 1 198 57
	lwu	a5,-20(s0)
	slli	a5,a5,4
	.loc 1 198 22
	add	a5,a4,a5
	.loc 1 198 9
	ld	a1,-32(s0)
	mv	a0,a5
	call	CompareGuid@plt
	mv	a5,a0
	.loc 1 198 8 discriminator 1
	bne	a5,zero,.L36
	.loc 1 197 67 discriminator 2
	lw	a5,-20(s0)
	addiw	a5,a5,1
	sw	a5,-20(s0)
.L31:
	.loc 1 197 36 discriminator 1
	ld	a5,-40(s0)
	lw	a5,0(a5)
	.loc 1 197 25 discriminator 1
	lw	a4,-20(s0)
	sext.w	a4,a4
	bltu	a4,a5,.L34
	j	.L33
.L36:
	.loc 1 199 7
	nop
.L33:
	.loc 1 206 25
	ld	a5,-40(s0)
	lw	a5,0(a5)
	.loc 1 206 6
	lw	a4,-20(s0)
	sext.w	a4,a4
	bne	a4,a5,.L35
	.loc 1 207 12
	li	a5,-1
	slli	a5,a5,63
	addi	a5,a5,2
	j	.L28
.L35:
	.loc 1 213 19
	ld	a5,-40(s0)
	ld	a4,16(a5)
	.loc 1 213 46
	lwu	a5,-20(s0)
	slli	a5,a5,3
	add	a5,a4,a5
	ld	a5,0(a5)
	.loc 1 213 10
	ld	a3,-80(s0)
	ld	a2,-72(s0)
	ld	a1,-64(s0)
	ld	a0,-56(s0)
	jalr	a5
.LVL1:
	mv	a5,a0
.L28:
	.loc 1 219 1
	mv	a0,a5
	ld	ra,72(sp)
	.cfi_restore 1
	ld	s0,64(sp)
	.cfi_restore 8
	.cfi_def_cfa 2, 80
	addi	sp,sp,80
	.cfi_def_cfa_offset 0
	jr	ra
	.cfi_endproc
.LFE4:
	.size	ExtractGuidedSectionDecode, .-ExtractGuidedSectionDecode
	.section	.text.ExtractGuidedSectionLibConstructor,"ax",@progbits
	.align	1
	.globl	ExtractGuidedSectionLibConstructor
	.type	ExtractGuidedSectionLibConstructor, @function
ExtractGuidedSectionLibConstructor:
.LFB5:
	.loc 1 226 1
	.cfi_startproc
	addi	sp,sp,-64
	.cfi_def_cfa_offset 64
	sd	ra,56(sp)
	sd	s0,48(sp)
	.cfi_offset 1, -8
	.cfi_offset 8, -16
	addi	s0,sp,64
	.cfi_def_cfa 8, 0
	.loc 1 228 8
	lla	a5,.LC0
	ld	a4,0(a5)
	sd	a4,-64(s0)
	ld	a5,8(a5)
	sd	a5,-56(s0)
	.loc 1 233 47
	la	a5,_gPcd_FixedAtBuild_PcdMaximumGuidedExtractHandler
	lw	a5,0(a5)
	slli	a5,a5,32
	srli	a5,a5,32
	.loc 1 233 111
	slli	a5,a5,4
	.loc 1 233 47
	mv	a0,a5
	call	AllocatePool@plt
	mv	a5,a0
	.loc 1 233 37 discriminator 1
	sd	a5,-40(s0)
	.loc 1 234 16
	ld	a5,-40(s0)
	.loc 1 234 6
	bne	a5,zero,.L38
	.loc 1 235 12
	li	a5,-1
	slli	a5,a5,63
	addi	a5,a5,9
	j	.L42
.L38:
	.loc 1 238 82
	la	a5,_gPcd_FixedAtBuild_PcdMaximumGuidedExtractHandler
	lw	a5,0(a5)
	slli	a5,a5,32
	srli	a5,a5,32
	.loc 1 238 146
	slli	a5,a5,3
	.loc 1 238 82
	mv	a0,a5
	call	AllocatePool@plt
	mv	a5,a0
	.loc 1 238 39 discriminator 1
	sd	a5,-32(s0)
	.loc 1 239 16
	ld	a5,-32(s0)
	.loc 1 239 6
	bne	a5,zero,.L40
	.loc 1 240 12
	li	a5,-1
	slli	a5,a5,63
	addi	a5,a5,9
	j	.L42
.L40:
	.loc 1 243 85
	la	a5,_gPcd_FixedAtBuild_PcdMaximumGuidedExtractHandler
	lw	a5,0(a5)
	slli	a5,a5,32
	srli	a5,a5,32
	.loc 1 243 149
	slli	a5,a5,3
	.loc 1 243 85
	mv	a0,a5
	call	AllocatePool@plt
	mv	a5,a0
	.loc 1 243 40 discriminator 1
	sd	a5,-24(s0)
	.loc 1 244 16
	ld	a5,-24(s0)
	.loc 1 244 6
	bne	a5,zero,.L41
	.loc 1 245 12
	li	a5,-1
	slli	a5,a5,63
	addi	a5,a5,9
	j	.L42
.L41:
	.loc 1 251 36
	sw	zero,-48(s0)
	.loc 1 253 3
	addi	a4,s0,-48
	addi	a5,s0,-64
	li	a2,32
	mv	a1,a4
	mv	a0,a5
	call	BuildGuidDataHob@plt
	.loc 1 255 10
	li	a5,0
.L42:
	.loc 1 256 1
	mv	a0,a5
	ld	ra,56(sp)
	.cfi_restore 1
	ld	s0,48(sp)
	.cfi_restore 8
	.cfi_def_cfa 2, 64
	addi	sp,sp,64
	.cfi_def_cfa_offset 0
	jr	ra
	.cfi_endproc
.LFE5:
	.size	ExtractGuidedSectionLibConstructor, .-ExtractGuidedSectionLibConstructor
	.text
.Letext0:
	.file 2 "/home/kapoagaeming/Downloads/spacemit-image-builder/components/edk2/MdePkg/Include/RiscV64/ProcessorBind.h"
	.file 3 "/home/kapoagaeming/Downloads/spacemit-image-builder/components/edk2/MdePkg/Include/Base.h"
	.file 4 "/home/kapoagaeming/Downloads/spacemit-image-builder/components/edk2/MdePkg/Include/Uefi/UefiBaseType.h"
	.file 5 "/home/kapoagaeming/Downloads/spacemit-image-builder/components/edk2/MdePkg/Include/Pi/PiFirmwareFile.h"
	.file 6 "/home/kapoagaeming/Downloads/spacemit-image-builder/components/edk2/MdePkg/Include/Pi/PiHob.h"
	.file 7 "/home/kapoagaeming/Downloads/spacemit-image-builder/components/edk2/MdePkg/Include/Library/ExtractGuidedSectionLib.h"
	.file 8 "/home/kapoagaeming/Downloads/spacemit-image-builder/components/edk2/EmbeddedPkg/Include/Library/PrePiLib.h"
	.file 9 "/home/kapoagaeming/Downloads/spacemit-image-builder/components/edk2/MdePkg/Include/Library/BaseMemoryLib.h"
	.file 10 "/home/kapoagaeming/Downloads/spacemit-image-builder/components/Build/Milk-V-Jupiter/RELEASE_GCC5/RISCV64/EmbeddedPkg/Library/PrePiExtractGuidedSectionLib/PrePiExtractGuidedSectionLib/DEBUG/AutoGen.h"
	.section	.note.GNU-stack,"",@progbits
