	.file	"BootLogoLib.c"
	.option pic
	.option norelax
	.attribute arch, "rv64i2p1_m2p0_a2p1_f2p2_d2p2_c2p0_zicsr2p0_zifencei2p0_zmmul1p0_zaamo1p0_zalrsc1p0_zca1p0_zcd1p0"
	.attribute unaligned_access, 0
	.attribute stack_align, 16
	.text
.Ltext0:
	.cfi_sections	.debug_frame
	.file 0 "/home/kapoagaeming/Downloads/spacemit-image-builder/components/Build/Milk-V-Jupiter/RELEASE_GCC5/RISCV64/MdeModulePkg/Library/BootLogoLib/BootLogoLib" "/home/kapoagaeming/Downloads/spacemit-image-builder/components/edk2/MdeModulePkg/Library/BootLogoLib/BootLogoLib.c"
	.section	.text.BootLogoEnableLogo,"ax",@progbits
	.align	1
	.globl	BootLogoEnableLogo
	.type	BootLogoEnableLogo, @function
BootLogoEnableLogo:
.LFB0:
	.file 1 "/home/kapoagaeming/Downloads/spacemit-image-builder/components/edk2/MdeModulePkg/Library/BootLogoLib/BootLogoLib.c"
	.loc 1 37 1
	.cfi_startproc
	addi	sp,sp,-240
	.cfi_def_cfa_offset 240
	sd	ra,232(sp)
	sd	s0,224(sp)
	.cfi_offset 1, -8
	.cfi_offset 8, -16
	addi	s0,sp,240
	.cfi_def_cfa 8, 0
	.loc 1 66 15
	la	a5,gBS
	ld	a5,0(a5)
	ld	a5,320(a5)
	.loc 1 66 12
	addi	a4,s0,-128
	mv	a2,a4
	li	a1,0
	la	a0,gEdkiiPlatformLogoProtocolGuid
	jalr	a5
.LVL0:
	sd	a0,-24(s0)
	.loc 1 67 34
	ld	a5,-24(s0)
	.loc 1 67 6
	bge	a5,zero,.L2
	.loc 1 68 12
	li	a5,-1
	slli	a5,a5,63
	addi	a5,a5,3
	j	.L46
.L2:
	.loc 1 71 11
	sd	zero,-192(s0)
	.loc 1 75 15
	la	a5,gBS
	ld	a5,0(a5)
	ld	a5,152(a5)
	.loc 1 75 36
	la	a4,gST
	ld	a4,0(a4)
	.loc 1 75 12
	ld	a4,56(a4)
	addi	a3,s0,-208
	mv	a2,a3
	la	a1,gEfiGraphicsOutputProtocolGuid
	mv	a0,a4
	jalr	a5
.LVL1:
	sd	a0,-24(s0)
	.loc 1 76 34
	ld	a5,-24(s0)
	.loc 1 76 6
	bge	a5,zero,.L4
	.loc 1 76 60 discriminator 1
	la	a5,_gPcd_FixedAtBuild_PcdUgaConsumeSupport
	lbu	a5,0(a5)
	beq	a5,zero,.L4
	.loc 1 77 20
	sd	zero,-208(s0)
	.loc 1 81 17
	la	a5,gBS
	ld	a5,0(a5)
	ld	a5,152(a5)
	.loc 1 81 38
	la	a4,gST
	ld	a4,0(a4)
	.loc 1 81 14
	ld	a4,56(a4)
	addi	a3,s0,-192
	mv	a2,a3
	la	a1,gEfiUgaDrawProtocolGuid
	mv	a0,a4
	jalr	a5
.LVL2:
	sd	a0,-24(s0)
	.loc 1 82 36
	ld	a5,-24(s0)
	.loc 1 82 8
	bge	a5,zero,.L4
	.loc 1 83 15
	sd	zero,-192(s0)
.L4:
	.loc 1 87 34
	ld	a5,-24(s0)
	.loc 1 87 6
	bge	a5,zero,.L5
	.loc 1 88 12
	li	a5,-1
	slli	a5,a5,63
	addi	a5,a5,3
	j	.L46
.L5:
	.loc 1 94 15
	la	a5,gBS
	ld	a5,0(a5)
	ld	a5,320(a5)
	.loc 1 94 12
	addi	a4,s0,-216
	mv	a2,a4
	li	a1,0
	la	a0,gEfiBootLogoProtocolGuid
	jalr	a5
.LVL3:
	sd	a0,-24(s0)
	.loc 1 95 34
	ld	a5,-24(s0)
	.loc 1 95 6
	bge	a5,zero,.L6
	.loc 1 96 14
	sd	zero,-216(s0)
.L6:
	.loc 1 102 15
	la	a5,gBS
	ld	a5,0(a5)
	ld	a5,320(a5)
	.loc 1 102 12
	addi	a4,s0,-224
	mv	a2,a4
	li	a1,0
	la	a0,gEdkiiBootLogo2ProtocolGuid
	jalr	a5
.LVL4:
	sd	a0,-24(s0)
	.loc 1 103 34
	ld	a5,-24(s0)
	.loc 1 103 6
	bge	a5,zero,.L7
	.loc 1 104 15
	sd	zero,-224(s0)
.L7:
	.loc 1 110 6
	la	a5,gST
	ld	a5,0(a5)
	ld	a5,64(a5)
	.loc 1 110 14
	ld	a5,64(a5)
	.loc 1 110 33
	la	a4,gST
	ld	a4,0(a4)
	.loc 1 110 3
	ld	a4,64(a4)
	li	a1,0
	mv	a0,a4
	jalr	a5
.LVL5:
	.loc 1 112 22
	ld	a5,-208(s0)
	.loc 1 112 6
	beq	a5,zero,.L8
	.loc 1 113 29
	ld	a5,-208(s0)
	ld	a5,24(a5)
	.loc 1 113 35
	ld	a5,8(a5)
	.loc 1 113 41
	lw	a5,4(a5)
	.loc 1 113 13
	sw	a5,-156(s0)
	.loc 1 114 29
	ld	a5,-208(s0)
	ld	a5,24(a5)
	.loc 1 114 35
	ld	a5,8(a5)
	.loc 1 114 41
	lw	a5,8(a5)
	.loc 1 114 13
	sw	a5,-160(s0)
	j	.L9
.L8:
	.loc 1 117 21
	ld	a5,-192(s0)
	ld	a5,0(a5)
	.loc 1 117 14
	ld	a0,-192(s0)
	addi	a4,s0,-200
	addi	a3,s0,-196
	addi	a2,s0,-160
	addi	a1,s0,-156
	jalr	a5
.LVL6:
	sd	a0,-24(s0)
	.loc 1 118 36
	ld	a5,-24(s0)
	.loc 1 118 8
	bge	a5,zero,.L9
	.loc 1 119 14
	li	a5,-1
	slli	a5,a5,63
	addi	a5,a5,3
	j	.L46
.L9:
	.loc 1 123 7
	sd	zero,-48(s0)
	.loc 1 124 17
	sd	zero,-56(s0)
	.loc 1 125 13
	sd	zero,-72(s0)
	.loc 1 126 13
	sd	zero,-80(s0)
	.loc 1 127 14
	sd	zero,-88(s0)
	.loc 1 128 13
	sd	zero,-96(s0)
	.loc 1 129 12
	sd	zero,-104(s0)
	.loc 1 130 12
	sd	zero,-112(s0)
	.loc 1 131 12
	sw	zero,-164(s0)
	.loc 1 132 9
	sd	zero,-32(s0)
	.loc 1 133 9
	sd	zero,-40(s0)
.L32:
	.loc 1 138 26
	ld	a5,-128(s0)
	ld	a6,0(a5)
	.loc 1 138 14
	ld	a0,-128(s0)
	addi	a5,s0,-152
	addi	a4,s0,-144
	addi	a3,s0,-132
	addi	a2,s0,-184
	addi	a1,s0,-164
	jalr	a6
.LVL7:
	sd	a0,-24(s0)
	.loc 1 146 36
	ld	a5,-24(s0)
	.loc 1 146 8
	blt	a5,zero,.L48
	.loc 1 150 8
	ld	a5,-48(s0)
	beq	a5,zero,.L12
	.loc 1 151 7
	ld	a0,-48(s0)
	call	FreePool@plt
.L12:
	.loc 1 154 9
	ld	a5,-176(s0)
	sd	a5,-48(s0)
	.loc 1 159 5
	lw	a5,-132(s0)
	li	a4,8
	beq	a5,a4,.L13
	li	a4,8
	bgtu	a5,a4,.L49
	li	a4,7
	beq	a5,a4,.L15
	li	a4,7
	bgtu	a5,a4,.L49
	li	a4,6
	beq	a5,a4,.L16
	li	a4,6
	bgtu	a5,a4,.L49
	li	a4,5
	beq	a5,a4,.L17
	li	a4,5
	bgtu	a5,a4,.L49
	li	a4,4
	beq	a5,a4,.L18
	li	a4,4
	bgtu	a5,a4,.L49
	li	a4,3
	beq	a5,a4,.L19
	li	a4,3
	bgtu	a5,a4,.L49
	li	a4,2
	beq	a5,a4,.L20
	li	a4,2
	bgtu	a5,a4,.L49
	beq	a5,zero,.L21
	li	a4,1
	beq	a5,a4,.L22
	.loc 1 201 9
	j	.L49
.L21:
	.loc 1 161 15
	sd	zero,-32(s0)
	.loc 1 162 15
	sd	zero,-40(s0)
	.loc 1 163 9
	j	.L23
.L22:
	.loc 1 165 26
	lw	a4,-156(s0)
	.loc 1 165 33
	lhu	a5,-180(s0)
	sext.w	a5,a5
	.loc 1 165 26
	subw	a5,a4,a5
	sext.w	a5,a5
	.loc 1 165 41
	srliw	a5,a5,1
	sext.w	a5,a5
	.loc 1 165 15
	slli	a5,a5,32
	srli	a5,a5,32
	sd	a5,-32(s0)
	.loc 1 166 15
	sd	zero,-40(s0)
	.loc 1 167 9
	j	.L23
.L20:
	.loc 1 169 25
	lw	a4,-156(s0)
	.loc 1 169 32
	lhu	a5,-180(s0)
	sext.w	a5,a5
	.loc 1 169 25
	subw	a5,a4,a5
	sext.w	a5,a5
	.loc 1 169 15
	slli	a5,a5,32
	srli	a5,a5,32
	sd	a5,-32(s0)
	.loc 1 170 15
	sd	zero,-40(s0)
	.loc 1 171 9
	j	.L23
.L15:
	.loc 1 174 15
	sd	zero,-32(s0)
	.loc 1 175 26
	lw	a4,-160(s0)
	.loc 1 175 33
	lhu	a5,-178(s0)
	sext.w	a5,a5
	.loc 1 175 26
	subw	a5,a4,a5
	sext.w	a5,a5
	.loc 1 175 42
	srliw	a5,a5,1
	sext.w	a5,a5
	.loc 1 175 15
	slli	a5,a5,32
	srli	a5,a5,32
	sd	a5,-40(s0)
	.loc 1 176 9
	j	.L23
.L13:
	.loc 1 178 26
	lw	a4,-156(s0)
	.loc 1 178 33
	lhu	a5,-180(s0)
	sext.w	a5,a5
	.loc 1 178 26
	subw	a5,a4,a5
	sext.w	a5,a5
	.loc 1 178 41
	srliw	a5,a5,1
	sext.w	a5,a5
	.loc 1 178 15
	slli	a5,a5,32
	srli	a5,a5,32
	sd	a5,-32(s0)
	.loc 1 179 26
	lw	a4,-160(s0)
	.loc 1 179 33
	lhu	a5,-178(s0)
	sext.w	a5,a5
	.loc 1 179 26
	subw	a5,a4,a5
	sext.w	a5,a5
	.loc 1 179 42
	srliw	a5,a5,1
	sext.w	a5,a5
	.loc 1 179 15
	slli	a5,a5,32
	srli	a5,a5,32
	sd	a5,-40(s0)
	.loc 1 180 9
	j	.L23
.L19:
	.loc 1 182 25
	lw	a4,-156(s0)
	.loc 1 182 32
	lhu	a5,-180(s0)
	sext.w	a5,a5
	.loc 1 182 25
	subw	a5,a4,a5
	sext.w	a5,a5
	.loc 1 182 15
	slli	a5,a5,32
	srli	a5,a5,32
	sd	a5,-32(s0)
	.loc 1 183 26
	lw	a4,-160(s0)
	.loc 1 183 33
	lhu	a5,-178(s0)
	sext.w	a5,a5
	.loc 1 183 26
	subw	a5,a4,a5
	sext.w	a5,a5
	.loc 1 183 42
	srliw	a5,a5,1
	sext.w	a5,a5
	.loc 1 183 15
	slli	a5,a5,32
	srli	a5,a5,32
	sd	a5,-40(s0)
	.loc 1 184 9
	j	.L23
.L16:
	.loc 1 187 15
	sd	zero,-32(s0)
	.loc 1 188 25
	lw	a4,-160(s0)
	.loc 1 188 32
	lhu	a5,-178(s0)
	sext.w	a5,a5
	.loc 1 188 25
	subw	a5,a4,a5
	sext.w	a5,a5
	.loc 1 188 15
	slli	a5,a5,32
	srli	a5,a5,32
	sd	a5,-40(s0)
	.loc 1 189 9
	j	.L23
.L17:
	.loc 1 191 26
	lw	a4,-156(s0)
	.loc 1 191 33
	lhu	a5,-180(s0)
	sext.w	a5,a5
	.loc 1 191 26
	subw	a5,a4,a5
	sext.w	a5,a5
	.loc 1 191 41
	srliw	a5,a5,1
	sext.w	a5,a5
	.loc 1 191 15
	slli	a5,a5,32
	srli	a5,a5,32
	sd	a5,-32(s0)
	.loc 1 192 25
	lw	a4,-160(s0)
	.loc 1 192 32
	lhu	a5,-178(s0)
	sext.w	a5,a5
	.loc 1 192 25
	subw	a5,a4,a5
	sext.w	a5,a5
	.loc 1 192 15
	slli	a5,a5,32
	srli	a5,a5,32
	sd	a5,-40(s0)
	.loc 1 193 9
	j	.L23
.L18:
	.loc 1 195 25
	lw	a4,-156(s0)
	.loc 1 195 32
	lhu	a5,-180(s0)
	sext.w	a5,a5
	.loc 1 195 25
	subw	a5,a4,a5
	sext.w	a5,a5
	.loc 1 195 15
	slli	a5,a5,32
	srli	a5,a5,32
	sd	a5,-32(s0)
	.loc 1 196 25
	lw	a4,-160(s0)
	.loc 1 196 32
	lhu	a5,-178(s0)
	sext.w	a5,a5
	.loc 1 196 25
	subw	a5,a4,a5
	sext.w	a5,a5
	.loc 1 196 15
	slli	a5,a5,32
	srli	a5,a5,32
	sd	a5,-40(s0)
	.loc 1 197 9
	nop
.L23:
	.loc 1 205 11
	ld	a5,-144(s0)
	ld	a4,-32(s0)
	add	a5,a4,a5
	sd	a5,-32(s0)
	.loc 1 206 11
	ld	a5,-152(s0)
	ld	a4,-40(s0)
	add	a5,a4,a5
	sd	a5,-40(s0)
	.loc 1 208 8
	ld	a5,-32(s0)
	blt	a5,zero,.L32
	.loc 1 208 22 discriminator 1
	ld	a5,-40(s0)
	blt	a5,zero,.L32
	.loc 1 209 26
	ld	a5,-208(s0)
	.loc 1 209 10
	beq	a5,zero,.L25
	.loc 1 210 32
	ld	a5,-208(s0)
	ld	t1,16(a5)
	.loc 1 210 18
	ld	a0,-208(s0)
	ld	a4,-32(s0)
	ld	a3,-40(s0)
	.loc 1 218 41
	lhu	a5,-180(s0)
	.loc 1 210 18
	mv	a1,a5
	.loc 1 219 41
	lhu	a5,-178(s0)
	.loc 1 210 18
	mv	a2,a5
	.loc 1 220 41
	lhu	a5,-180(s0)
	.loc 1 220 48
	slli	a5,a5,2
	.loc 1 210 18
	sd	a5,8(sp)
	sd	a2,0(sp)
	mv	a7,a1
	mv	a6,a3
	mv	a5,a4
	li	a4,0
	li	a3,0
	li	a2,2
	ld	a1,-48(s0)
	jalr	t1
.LVL8:
	sd	a0,-24(s0)
	j	.L26
.L25:
	.loc 1 224 25
	ld	a5,-192(s0)
	ld	t1,16(a5)
	.loc 1 224 18
	ld	a0,-192(s0)
	ld	a4,-32(s0)
	ld	a3,-40(s0)
	.loc 1 232 34
	lhu	a5,-180(s0)
	.loc 1 224 18
	mv	a1,a5
	.loc 1 233 34
	lhu	a5,-178(s0)
	.loc 1 224 18
	mv	a2,a5
	.loc 1 234 34
	lhu	a5,-180(s0)
	.loc 1 234 41
	slli	a5,a5,2
	.loc 1 224 18
	sd	a5,8(sp)
	sd	a2,0(sp)
	mv	a7,a1
	mv	a6,a3
	mv	a5,a4
	li	a4,0
	li	a3,0
	li	a2,2
	ld	a1,-48(s0)
	jalr	t1
.LVL9:
	sd	a0,-24(s0)
.L26:
	.loc 1 241 11
	ld	a5,-24(s0)
	.loc 1 241 10
	blt	a5,zero,.L32
	.loc 1 242 22
	ld	a5,-56(s0)
	addi	a5,a5,1
	sd	a5,-56(s0)
	.loc 1 244 12
	ld	a4,-56(s0)
	li	a5,1
	bne	a4,a5,.L27
	.loc 1 248 21
	ld	a5,-32(s0)
	sd	a5,-72(s0)
	.loc 1 249 21
	ld	a5,-40(s0)
	sd	a5,-80(s0)
	.loc 1 250 28
	lhu	a5,-180(s0)
	.loc 1 250 21
	sd	a5,-96(s0)
	.loc 1 251 29
	lhu	a5,-178(s0)
	.loc 1 251 22
	sd	a5,-88(s0)
	j	.L32
.L27:
	.loc 1 256 25
	ld	a4,-32(s0)
	.loc 1 256 20
	ld	a5,-72(s0)
	bleu	a5,a4,.L28
	mv	a5,a4
.L28:
	sd	a5,-104(s0)
	.loc 1 257 25
	ld	a4,-40(s0)
	.loc 1 257 20
	ld	a5,-80(s0)
	bleu	a5,a4,.L29
	mv	a5,a4
.L29:
	sd	a5,-112(s0)
	.loc 1 258 67
	ld	a4,-72(s0)
	ld	a5,-96(s0)
	add	a3,a4,a5
	.loc 1 258 46
	lhu	a5,-180(s0)
	mv	a4,a5
	.loc 1 258 26
	ld	a5,-32(s0)
	.loc 1 258 39
	add	a4,a4,a5
	.loc 1 258 112
	mv	a5,a3
	bgeu	a5,a4,.L30
	mv	a5,a4
.L30:
	.loc 1 258 21
	ld	a4,-104(s0)
	sub	a5,a5,a4
	sd	a5,-96(s0)
	.loc 1 259 69
	ld	a4,-80(s0)
	ld	a5,-88(s0)
	add	a3,a4,a5
	.loc 1 259 47
	lhu	a5,-178(s0)
	mv	a4,a5
	.loc 1 259 27
	ld	a5,-40(s0)
	.loc 1 259 40
	add	a4,a4,a5
	.loc 1 259 116
	mv	a5,a3
	bgeu	a5,a4,.L31
	mv	a5,a4
.L31:
	.loc 1 259 22
	ld	a4,-112(s0)
	sub	a5,a5,a4
	sd	a5,-88(s0)
	.loc 1 261 21
	ld	a5,-104(s0)
	sd	a5,-72(s0)
	.loc 1 262 21
	ld	a5,-112(s0)
	sd	a5,-80(s0)
	j	.L32
.L49:
	.loc 1 201 9
	nop
	.loc 1 138 12
	j	.L32
.L48:
	.loc 1 147 7
	nop
	.loc 1 268 18
	ld	a5,-216(s0)
	.loc 1 268 6
	bne	a5,zero,.L33
	.loc 1 268 49 discriminator 1
	ld	a5,-224(s0)
	.loc 1 268 35 discriminator 1
	beq	a5,zero,.L34
.L33:
	.loc 1 268 67 discriminator 3
	ld	a5,-56(s0)
	bne	a5,zero,.L35
.L34:
	.loc 1 272 8
	ld	a5,-48(s0)
	beq	a5,zero,.L36
	.loc 1 273 7
	ld	a0,-48(s0)
	call	FreePool@plt
.L36:
	.loc 1 276 12
	ld	a5,-24(s0)
	j	.L46
.L35:
	.loc 1 282 6
	ld	a4,-56(s0)
	li	a5,1
	bne	a4,a5,.L37
	.loc 1 286 13
	ld	a5,-48(s0)
	sd	a5,-64(s0)
	.loc 1 287 12
	sd	zero,-24(s0)
	j	.L38
.L37:
	.loc 1 292 8
	ld	a5,-48(s0)
	beq	a5,zero,.L39
	.loc 1 293 7
	ld	a0,-48(s0)
	call	FreePool@plt
.L39:
	.loc 1 299 53
	li	a4,-1
	ld	a5,-96(s0)
	divu	a5,a4,a5
	.loc 1 299 65
	srli	a5,a5,2
	.loc 1 299 8
	ld	a4,-88(s0)
	bleu	a4,a5,.L40
	.loc 1 300 14
	li	a5,-1
	slli	a5,a5,63
	addi	a5,a5,3
	j	.L46
.L40:
	.loc 1 303 28
	ld	a4,-96(s0)
	ld	a5,-88(s0)
	mul	a5,a4,a5
	.loc 1 303 16
	slli	a5,a5,2
	sd	a5,-120(s0)
	.loc 1 305 15
	ld	a0,-120(s0)
	call	AllocatePool@plt
	sd	a0,-64(s0)
	.loc 1 306 8
	ld	a5,-64(s0)
	bne	a5,zero,.L41
	.loc 1 307 14
	li	a5,-1
	slli	a5,a5,63
	addi	a5,a5,9
	j	.L46
.L41:
	.loc 1 310 24
	ld	a5,-208(s0)
	.loc 1 310 8
	beq	a5,zero,.L42
	.loc 1 311 30
	ld	a5,-208(s0)
	ld	t1,16(a5)
	.loc 1 311 16
	ld	a0,-208(s0)
	.loc 1 321 44
	ld	a5,-96(s0)
	slli	a5,a5,2
	.loc 1 311 16
	sd	a5,8(sp)
	ld	a5,-88(s0)
	sd	a5,0(sp)
	ld	a7,-96(s0)
	li	a6,0
	li	a5,0
	ld	a4,-80(s0)
	ld	a3,-72(s0)
	li	a2,1
	ld	a1,-64(s0)
	jalr	t1
.LVL10:
	sd	a0,-24(s0)
	j	.L38
.L42:
	.loc 1 324 23
	ld	a5,-192(s0)
	ld	t1,16(a5)
	.loc 1 324 16
	ld	a0,-192(s0)
	.loc 1 334 37
	ld	a5,-96(s0)
	slli	a5,a5,2
	.loc 1 324 16
	sd	a5,8(sp)
	ld	a5,-88(s0)
	sd	a5,0(sp)
	ld	a7,-96(s0)
	li	a6,0
	li	a5,0
	ld	a4,-80(s0)
	ld	a3,-72(s0)
	li	a2,1
	ld	a1,-64(s0)
	jalr	t1
.LVL11:
	sd	a0,-24(s0)
.L38:
	.loc 1 339 7
	ld	a5,-24(s0)
	.loc 1 339 6
	blt	a5,zero,.L43
	.loc 1 343 19
	ld	a5,-224(s0)
	.loc 1 343 8
	beq	a5,zero,.L44
	.loc 1 344 25
	ld	a5,-224(s0)
	ld	a6,0(a5)
	.loc 1 344 16
	ld	a0,-224(s0)
	ld	a5,-88(s0)
	ld	a4,-96(s0)
	ld	a3,-80(s0)
	ld	a2,-72(s0)
	ld	a1,-64(s0)
	jalr	a6
.LVL12:
	sd	a0,-24(s0)
.L44:
	.loc 1 351 36
	ld	a5,-24(s0)
	.loc 1 351 8
	bge	a5,zero,.L45
	.loc 1 351 75 discriminator 1
	ld	a5,-216(s0)
	.loc 1 351 62 discriminator 1
	beq	a5,zero,.L45
	.loc 1 352 24
	ld	a5,-216(s0)
	ld	a6,0(a5)
	.loc 1 352 16
	ld	a0,-216(s0)
	ld	a5,-88(s0)
	ld	a4,-96(s0)
	ld	a3,-80(s0)
	ld	a2,-72(s0)
	ld	a1,-64(s0)
	jalr	a6
.LVL13:
	sd	a0,-24(s0)
.L45:
	.loc 1 359 12
	sd	zero,-24(s0)
.L43:
	.loc 1 362 3
	ld	a0,-64(s0)
	call	FreePool@plt
	.loc 1 364 10
	ld	a5,-24(s0)
.L46:
	.loc 1 365 1
	mv	a0,a5
	ld	ra,232(sp)
	.cfi_restore 1
	ld	s0,224(sp)
	.cfi_restore 8
	.cfi_def_cfa 2, 240
	addi	sp,sp,240
	.cfi_def_cfa_offset 0
	jr	ra
	.cfi_endproc
.LFE0:
	.size	BootLogoEnableLogo, .-BootLogoEnableLogo
	.section	.text.BootLogoDisableLogo,"ax",@progbits
	.align	1
	.globl	BootLogoDisableLogo
	.type	BootLogoDisableLogo, @function
BootLogoDisableLogo:
.LFB1:
	.loc 1 379 1
	.cfi_startproc
	addi	sp,sp,-16
	.cfi_def_cfa_offset 16
	sd	ra,8(sp)
	sd	s0,0(sp)
	.cfi_offset 1, -8
	.cfi_offset 8, -16
	addi	s0,sp,16
	.cfi_def_cfa 8, 0
	.loc 1 383 6
	la	a5,gST
	ld	a5,0(a5)
	ld	a5,64(a5)
	.loc 1 383 14
	ld	a5,64(a5)
	.loc 1 383 33
	la	a4,gST
	ld	a4,0(a4)
	.loc 1 383 3
	ld	a4,64(a4)
	li	a1,1
	mv	a0,a4
	jalr	a5
.LVL14:
	.loc 1 384 10
	li	a5,0
	.loc 1 385 1
	mv	a0,a5
	ld	ra,8(sp)
	.cfi_restore 1
	ld	s0,0(sp)
	.cfi_restore 8
	.cfi_def_cfa 2, 16
	addi	sp,sp,16
	.cfi_def_cfa_offset 0
	jr	ra
	.cfi_endproc
.LFE1:
	.size	BootLogoDisableLogo, .-BootLogoDisableLogo
	.section	.text.BootLogoUpdateProgress,"ax",@progbits
	.align	1
	.globl	BootLogoUpdateProgress
	.type	BootLogoUpdateProgress, @function
BootLogoUpdateProgress:
.LFB2:
	.loc 1 411 1
	.cfi_startproc
	addi	sp,sp,-192
	.cfi_def_cfa_offset 192
	sd	ra,184(sp)
	sd	s0,176(sp)
	sd	s1,168(sp)
	.cfi_offset 1, -8
	.cfi_offset 8, -16
	.cfi_offset 9, -24
	addi	s0,sp,192
	.cfi_def_cfa 8, 0
	sw	a0,-136(s0)
	sw	a1,-144(s0)
	sd	a2,-152(s0)
	sw	a3,-160(s0)
	sd	a4,-168(s0)
	sd	a5,-176(s0)
	.loc 1 427 6
	ld	a4,-168(s0)
	li	a5,100
	bleu	a4,a5,.L53
	.loc 1 428 12
	li	a5,-1
	slli	a5,a5,63
	addi	a5,a5,2
	j	.L68
.L53:
	.loc 1 431 11
	sd	zero,-104(s0)
	.loc 1 432 15
	la	a5,gBS
	ld	a5,0(a5)
	ld	a5,152(a5)
	.loc 1 432 36
	la	a4,gST
	ld	a4,0(a4)
	.loc 1 432 12
	ld	a4,56(a4)
	addi	a3,s0,-96
	mv	a2,a3
	la	a1,gEfiGraphicsOutputProtocolGuid
	mv	a0,a4
	jalr	a5
.LVL15:
	sd	a0,-40(s0)
	.loc 1 433 34
	ld	a5,-40(s0)
	.loc 1 433 6
	bge	a5,zero,.L55
	.loc 1 433 60 discriminator 1
	la	a5,_gPcd_FixedAtBuild_PcdUgaConsumeSupport
	lbu	a5,0(a5)
	beq	a5,zero,.L55
	.loc 1 434 20
	sd	zero,-96(s0)
	.loc 1 436 17
	la	a5,gBS
	ld	a5,0(a5)
	ld	a5,152(a5)
	.loc 1 436 38
	la	a4,gST
	ld	a4,0(a4)
	.loc 1 436 14
	ld	a4,56(a4)
	addi	a3,s0,-104
	mv	a2,a3
	la	a1,gEfiUgaDrawProtocolGuid
	mv	a0,a4
	jalr	a5
.LVL16:
	sd	a0,-40(s0)
	.loc 1 437 36
	ld	a5,-40(s0)
	.loc 1 437 8
	bge	a5,zero,.L55
	.loc 1 438 15
	sd	zero,-104(s0)
.L55:
	.loc 1 442 34
	ld	a5,-40(s0)
	.loc 1 442 6
	bge	a5,zero,.L56
	.loc 1 443 12
	li	a5,-1
	slli	a5,a5,63
	addi	a5,a5,3
	j	.L68
.L56:
	.loc 1 446 11
	sw	zero,-108(s0)
	.loc 1 447 11
	sw	zero,-112(s0)
	.loc 1 448 22
	ld	a5,-96(s0)
	.loc 1 448 6
	beq	a5,zero,.L57
	.loc 1 449 29
	ld	a5,-96(s0)
	ld	a5,24(a5)
	.loc 1 449 35
	ld	a5,8(a5)
	.loc 1 449 41
	lw	a5,4(a5)
	.loc 1 449 13
	sw	a5,-108(s0)
	.loc 1 450 29
	ld	a5,-96(s0)
	ld	a5,24(a5)
	.loc 1 450 35
	ld	a5,8(a5)
	.loc 1 450 41
	lw	a5,8(a5)
	.loc 1 450 13
	sw	a5,-112(s0)
	j	.L58
.L57:
	.loc 1 451 22
	ld	a5,-104(s0)
	.loc 1 451 13
	beq	a5,zero,.L59
	.loc 1 452 21
	ld	a5,-104(s0)
	ld	a5,0(a5)
	.loc 1 452 14
	ld	a0,-104(s0)
	addi	a4,s0,-120
	addi	a3,s0,-116
	addi	a2,s0,-112
	addi	a1,s0,-108
	jalr	a5
.LVL17:
	sd	a0,-40(s0)
	.loc 1 459 36
	ld	a5,-40(s0)
	.loc 1 459 8
	bge	a5,zero,.L58
	.loc 1 460 14
	li	a5,-1
	slli	a5,a5,63
	addi	a5,a5,3
	j	.L68
.L59:
	.loc 1 463 12
	li	a5,-1
	slli	a5,a5,63
	addi	a5,a5,3
	j	.L68
.L58:
	.loc 1 466 24
	lw	a5,-108(s0)
	slli	a4,a5,32
	srli	a4,a4,32
	li	a5,1374388224
	addi	a5,a5,1311
	mul	a5,a4,a5
	srli	a5,a5,32
	srliw	a5,a5,5
	sext.w	a5,a5
	.loc 1 466 14
	slli	a5,a5,32
	srli	a5,a5,32
	sd	a5,-56(s0)
	.loc 1 467 25
	lw	a5,-112(s0)
	slli	a4,a5,32
	srli	a4,a4,32
	li	a5,1374388224
	addi	a5,a5,1311
	mul	a5,a4,a5
	srli	a5,a5,32
	srliw	a5,a5,4
	sext.w	a5,a5
	.loc 1 467 15
	slli	a5,a5,32
	srli	a5,a5,32
	sd	a5,-64(s0)
	.loc 1 469 12
	ld	a5,-168(s0)
	sd	a5,-72(s0)
	.loc 1 471 8
	sd	zero,-80(s0)
	.loc 1 472 18
	lw	a5,-112(s0)
	mv	a4,a5
	mv	a5,a4
	slliw	a5,a5,1
	addw	a5,a5,a4
	slliw	a5,a5,4
	sext.w	a5,a5
	.loc 1 472 23
	slli	a4,a5,32
	srli	a4,a4,32
	li	a5,1374388224
	addi	a5,a5,1311
	mul	a5,a4,a5
	srli	a5,a5,32
	srliw	a5,a5,4
	sext.w	a5,a5
	.loc 1 472 8
	slli	a5,a5,32
	srli	a5,a5,32
	sd	a5,-88(s0)
	.loc 1 474 6
	ld	a5,-72(s0)
	bne	a5,zero,.L60
	.loc 1 478 5
	addi	a5,s0,-128
	li	a2,0
	li	a1,4
	mv	a0,a5
	call	SetMem@plt
	.loc 1 480 24
	ld	a5,-96(s0)
	.loc 1 480 8
	beq	a5,zero,.L61
	.loc 1 481 30
	ld	a5,-96(s0)
	ld	t1,16(a5)
	.loc 1 481 16
	ld	a0,-96(s0)
	ld	a5,-88(s0)
	addi	a3,a5,-20
	lw	a5,-108(s0)
	slli	a2,a5,32
	srli	a2,a2,32
	.loc 1 490 42
	lw	a5,-112(s0)
	slli	a4,a5,32
	srli	a4,a4,32
	ld	a5,-88(s0)
	sub	a5,a4,a5
	.loc 1 481 16
	addi	a5,a5,20
	lw	a4,-108(s0)
	slli	a4,a4,32
	srli	a4,a4,32
	.loc 1 491 42
	slli	a4,a4,2
	.loc 1 481 16
	addi	a1,s0,-128
	sd	a4,8(sp)
	sd	a5,0(sp)
	mv	a7,a2
	mv	a6,a3
	li	a5,0
	li	a4,0
	li	a3,0
	li	a2,0
	jalr	t1
.LVL18:
	sd	a0,-40(s0)
	j	.L60
.L61:
	.loc 1 493 16
	la	a5,_gPcd_FixedAtBuild_PcdUgaConsumeSupport
	lbu	a5,0(a5)
	.loc 1 493 15
	beq	a5,zero,.L62
	.loc 1 494 23
	ld	a5,-104(s0)
	ld	t1,16(a5)
	.loc 1 494 16
	ld	a0,-104(s0)
	ld	a5,-88(s0)
	addi	a3,a5,-20
	lw	a5,-108(s0)
	slli	a2,a5,32
	srli	a2,a2,32
	.loc 1 503 35
	lw	a5,-112(s0)
	slli	a4,a5,32
	srli	a4,a4,32
	ld	a5,-88(s0)
	sub	a5,a4,a5
	.loc 1 494 16
	addi	a5,a5,20
	lw	a4,-108(s0)
	slli	a4,a4,32
	srli	a4,a4,32
	.loc 1 504 35
	slli	a4,a4,2
	.loc 1 494 16
	addi	a1,s0,-128
	sd	a4,8(sp)
	sd	a5,0(sp)
	mv	a7,a2
	mv	a6,a3
	li	a5,0
	li	a4,0
	li	a3,0
	li	a2,0
	jalr	t1
.LVL19:
	sd	a0,-40(s0)
	j	.L60
.L62:
	.loc 1 507 14
	li	a5,-1
	slli	a5,a5,63
	addi	a5,a5,3
	j	.L68
.L60:
	.loc 1 514 14
	ld	a5,-176(s0)
	sd	a5,-48(s0)
	.loc 1 514 3
	j	.L63
.L67:
	.loc 1 515 10
	ld	a4,-48(s0)
	ld	a5,-56(s0)
	mul	a5,a4,a5
	sd	a5,-80(s0)
	.loc 1 516 24
	ld	a5,-96(s0)
	.loc 1 516 8
	beq	a5,zero,.L64
	.loc 1 517 30
	ld	a5,-96(s0)
	ld	t1,16(a5)
	.loc 1 517 16
	ld	a0,-96(s0)
	ld	a5,-56(s0)
	addi	a4,a5,-1
	.loc 1 527 47
	ld	a5,-56(s0)
	slli	a5,a5,2
	.loc 1 517 16
	addi	a1,s0,-160
	sd	a5,8(sp)
	ld	a5,-64(s0)
	sd	a5,0(sp)
	mv	a7,a4
	ld	a6,-88(s0)
	ld	a5,-80(s0)
	li	a4,0
	li	a3,0
	li	a2,0
	jalr	t1
.LVL20:
	sd	a0,-40(s0)
	j	.L65
.L64:
	.loc 1 529 16
	la	a5,_gPcd_FixedAtBuild_PcdUgaConsumeSupport
	lbu	a5,0(a5)
	.loc 1 529 15
	beq	a5,zero,.L66
	.loc 1 530 23
	ld	a5,-104(s0)
	ld	t1,16(a5)
	.loc 1 530 16
	ld	a0,-104(s0)
	ld	a5,-56(s0)
	addi	a4,a5,-1
	.loc 1 540 40
	ld	a5,-56(s0)
	slli	a5,a5,2
	.loc 1 530 16
	addi	a1,s0,-160
	sd	a5,8(sp)
	ld	a5,-64(s0)
	sd	a5,0(sp)
	mv	a7,a4
	ld	a6,-88(s0)
	ld	a5,-80(s0)
	li	a4,0
	li	a3,0
	li	a2,0
	jalr	t1
.LVL21:
	sd	a0,-40(s0)
	j	.L65
.L66:
	.loc 1 543 14
	li	a5,-1
	slli	a5,a5,63
	addi	a5,a5,3
	j	.L68
.L65:
	.loc 1 514 54 discriminator 2
	ld	a5,-48(s0)
	addi	a5,a5,1
	sd	a5,-48(s0)
.L63:
	.loc 1 514 37 discriminator 1
	ld	a4,-48(s0)
	ld	a5,-72(s0)
	bltu	a4,a5,.L67
	.loc 1 548 14
	lw	a5,-108(s0)
	slli	s1,a5,32
	srli	s1,s1,32
	.loc 1 548 16
	ld	a0,-152(s0)
	call	StrLen@plt
	mv	a5,a0
	.loc 1 548 31 discriminator 1
	slli	a5,a5,3
	.loc 1 548 14 discriminator 1
	sub	a5,s1,a5
	.loc 1 547 3
	srli	a0,a5,1
	ld	a5,-88(s0)
	addi	a5,a5,-20
	addi	a3,s0,-144
	addi	a2,s0,-136
	ld	a4,-152(s0)
	mv	a1,a5
	call	PrintXY@plt
	.loc 1 555 10
	li	a5,0
.L68:
	.loc 1 556 1
	mv	a0,a5
	ld	ra,184(sp)
	.cfi_restore 1
	ld	s0,176(sp)
	.cfi_restore 8
	.cfi_def_cfa 2, 192
	ld	s1,168(sp)
	.cfi_restore 9
	addi	sp,sp,192
	.cfi_def_cfa_offset 0
	jr	ra
	.cfi_endproc
.LFE2:
	.size	BootLogoUpdateProgress, .-BootLogoUpdateProgress
	.text
.Letext0:
	.file 2 "/home/kapoagaeming/Downloads/spacemit-image-builder/components/edk2/MdePkg/Include/RiscV64/ProcessorBind.h"
	.file 3 "/home/kapoagaeming/Downloads/spacemit-image-builder/components/edk2/MdePkg/Include/Base.h"
	.file 4 "/home/kapoagaeming/Downloads/spacemit-image-builder/components/edk2/MdePkg/Include/Uefi/UefiBaseType.h"
	.file 5 "/home/kapoagaeming/Downloads/spacemit-image-builder/components/edk2/MdePkg/Include/Uefi/UefiMultiPhase.h"
	.file 6 "/home/kapoagaeming/Downloads/spacemit-image-builder/components/edk2/MdePkg/Include/Protocol/DevicePath.h"
	.file 7 "/home/kapoagaeming/Downloads/spacemit-image-builder/components/edk2/MdePkg/Include/Protocol/SimpleTextIn.h"
	.file 8 "/home/kapoagaeming/Downloads/spacemit-image-builder/components/edk2/MdePkg/Include/Protocol/SimpleTextOut.h"
	.file 9 "/home/kapoagaeming/Downloads/spacemit-image-builder/components/edk2/MdePkg/Include/Uefi/UefiSpec.h"
	.file 10 "/home/kapoagaeming/Downloads/spacemit-image-builder/components/Build/Milk-V-Jupiter/RELEASE_GCC5/RISCV64/MdeModulePkg/Library/BootLogoLib/BootLogoLib/DEBUG/AutoGen.h"
	.file 11 "/home/kapoagaeming/Downloads/spacemit-image-builder/components/edk2/MdePkg/Include/Protocol/GraphicsOutput.h"
	.file 12 "/home/kapoagaeming/Downloads/spacemit-image-builder/components/edk2/MdePkg/Include/Protocol/HiiImage.h"
	.file 13 "/home/kapoagaeming/Downloads/spacemit-image-builder/components/edk2/MdeModulePkg/Include/Protocol/PlatformLogo.h"
	.file 14 "/home/kapoagaeming/Downloads/spacemit-image-builder/components/edk2/MdePkg/Include/Protocol/UgaDraw.h"
	.file 15 "/home/kapoagaeming/Downloads/spacemit-image-builder/components/edk2/MdeModulePkg/Include/Protocol/BootLogo.h"
	.file 16 "/home/kapoagaeming/Downloads/spacemit-image-builder/components/edk2/MdeModulePkg/Include/Protocol/BootLogo2.h"
	.file 17 "/home/kapoagaeming/Downloads/spacemit-image-builder/components/edk2/MdePkg/Include/Library/UefiBootServicesTableLib.h"
	.file 18 "/home/kapoagaeming/Downloads/spacemit-image-builder/components/edk2/MdePkg/Include/Library/UefiLib.h"
	.file 19 "/home/kapoagaeming/Downloads/spacemit-image-builder/components/edk2/MdePkg/Include/Library/BaseLib.h"
	.file 20 "/home/kapoagaeming/Downloads/spacemit-image-builder/components/edk2/MdePkg/Include/Library/BaseMemoryLib.h"
	.file 21 "/home/kapoagaeming/Downloads/spacemit-image-builder/components/edk2/MdePkg/Include/Library/MemoryAllocationLib.h"
	.section	.note.GNU-stack,"",@progbits
