	.file	"UsbBus.c"
	.option pic
	.option norelax
	.attribute arch, "rv64i2p1_m2p0_a2p1_f2p2_d2p2_c2p0_zicsr2p0_zifencei2p0_zmmul1p0_zaamo1p0_zalrsc1p0_zca1p0_zcd1p0"
	.attribute unaligned_access, 0
	.attribute stack_align, 16
	.text
.Ltext0:
	.cfi_sections	.debug_frame
	.file 0 "/home/kapoagaeming/Downloads/spacemit-image-builder/components/Build/Milk-V-Jupiter/RELEASE_GCC5/RISCV64/MdeModulePkg/Bus/Usb/UsbBusDxe/UsbBusDxe" "/home/kapoagaeming/Downloads/spacemit-image-builder/components/edk2/MdeModulePkg/Bus/Usb/UsbBusDxe/UsbBus.c"
	.globl	mUsbIoProtocol
	.section	.data.rel.local.mUsbIoProtocol,"aw"
	.align	3
	.type	mUsbIoProtocol, @object
	.size	mUsbIoProtocol, 104
mUsbIoProtocol:
	.dword	UsbIoControlTransfer
	.dword	UsbIoBulkTransfer
	.dword	UsbIoAsyncInterruptTransfer
	.dword	UsbIoSyncInterruptTransfer
	.dword	UsbIoIsochronousTransfer
	.dword	UsbIoAsyncIsochronousTransfer
	.dword	UsbIoGetDeviceDescriptor
	.dword	UsbIoGetActiveConfigDescriptor
	.dword	UsbIoGetInterfaceDescriptor
	.dword	UsbIoGetEndpointDescriptor
	.dword	UsbIoGetStringDescriptor
	.dword	UsbIoGetSupportedLanguages
	.dword	UsbIoPortReset
	.globl	mUsbBusDriverBinding
	.section	.data.rel.local.mUsbBusDriverBinding,"aw"
	.align	3
	.type	mUsbBusDriverBinding, @object
	.size	mUsbBusDriverBinding, 48
mUsbBusDriverBinding:
	.dword	UsbBusControllerDriverSupported
	.dword	UsbBusControllerDriverStart
	.dword	UsbBusControllerDriverStop
	.word	10
	.zero	4
	.dword	0
	.dword	0
	.section	.text.UsbIoControlTransfer,"ax",@progbits
	.align	1
	.globl	UsbIoControlTransfer
	.type	UsbIoControlTransfer, @function
UsbIoControlTransfer:
.LFB0:
	.file 1 "/home/kapoagaeming/Downloads/spacemit-image-builder/components/edk2/MdeModulePkg/Bus/Usb/UsbBusDxe/UsbBus.c"
	.loc 1 68 1
	.cfi_startproc
	addi	sp,sp,-144
	.cfi_def_cfa_offset 144
	sd	ra,136(sp)
	sd	s0,128(sp)
	.cfi_offset 1, -8
	.cfi_offset 8, -16
	addi	s0,sp,144
	.cfi_def_cfa 8, 0
	sd	a0,-72(s0)
	sd	a1,-80(s0)
	sd	a4,-96(s0)
	sd	a5,-104(s0)
	sd	a6,-112(s0)
	mv	a5,a2
	sw	a5,-84(s0)
	mv	a5,a3
	sw	a5,-88(s0)
	.loc 1 76 6
	ld	a5,-112(s0)
	bne	a5,zero,.L2
	.loc 1 77 12
	li	a5,-1
	slli	a5,a5,63
	addi	a5,a5,2
	j	.L3
.L2:
	.loc 1 80 15
	la	a5,gBS
	ld	a5,0(a5)
	ld	a5,24(a5)
	.loc 1 80 12
	li	a0,16
	jalr	a5
.LVL0:
	sd	a0,-40(s0)
	.loc 1 82 13
	ld	a5,-72(s0)
	addi	a5,a5,-40
	.loc 1 82 112
	ld	a4,0(a5)
	.loc 1 82 197
	li	a5,1229082624
	addi	a5,a5,853
	bne	a4,a5,.L4
	.loc 1 82 9 discriminator 1
	ld	a5,-72(s0)
	addi	a5,a5,-40
	sd	a5,-24(s0)
	j	.L5
.L4:
	.loc 1 82 9 is_stmt 0 discriminator 2
	sd	zero,-24(s0)
.L5:
	.loc 1 83 7 is_stmt 1
	ld	a5,-24(s0)
	ld	a5,8(a5)
	sd	a5,-48(s0)
	.loc 1 85 23
	ld	a5,-104(s0)
	sd	a5,-56(s0)
	.loc 1 86 12
	ld	a5,-48(s0)
	ld	a0,0(a5)
	ld	a5,-48(s0)
	lbu	a1,9(a5)
	ld	a5,-48(s0)
	lbu	a2,8(a5)
	.loc 1 90 30
	ld	a5,-48(s0)
	lw	a5,12(a5)
	.loc 1 86 12
	slli	t1,a5,32
	srli	t1,t1,32
	lwu	a5,-88(s0)
	ld	a4,-48(s0)
	addi	a4,a4,200
	addi	a6,s0,-104
	lw	t3,-84(s0)
	ld	a3,-112(s0)
	sd	a3,16(sp)
	sd	a4,8(sp)
	sd	a5,0(sp)
	mv	a7,a6
	ld	a6,-96(s0)
	mv	a5,t3
	ld	a4,-80(s0)
	mv	a3,t1
	call	UsbHcControlTransfer@plt
	sd	a0,-32(s0)
	.loc 1 105 7
	ld	a5,-32(s0)
	.loc 1 105 6
	blt	a5,zero,.L6
	.loc 1 106 8
	lw	a5,-84(s0)
	sext.w	a4,a5
	li	a5,2
	beq	a4,a5,.L6
	.loc 1 106 52 discriminator 1
	ld	a5,-104(s0)
	.loc 1 106 37 discriminator 1
	ld	a4,-56(s0)
	beq	a4,a5,.L6
	.loc 1 107 14
	li	a5,-1
	slli	a5,a5,63
	addi	a5,a5,7
	sd	a5,-32(s0)
	.loc 1 108 7
	j	.L7
.L6:
	.loc 1 112 34
	ld	a5,-32(s0)
	.loc 1 112 6
	blt	a5,zero,.L8
	.loc 1 112 64 discriminator 1
	ld	a5,-112(s0)
	lw	a5,0(a5)
	.loc 1 112 60 discriminator 1
	beq	a5,zero,.L9
.L8:
	.loc 1 118 24
	ld	a5,-48(s0)
	lbu	a5,200(a5)
	.loc 1 118 8
	beq	a5,zero,.L16
	.loc 1 120 12
	ld	a5,-48(s0)
	ld	a4,0(a5)
	.loc 1 120 42
	ld	a5,-48(s0)
	lbu	a5,200(a5)
	sext.w	a5,a5
	.loc 1 119 7
	addi	a5,a5,6
	slli	a5,a5,3
	add	a5,a4,a5
	ld	a0,8(a5)
	ld	a5,-48(s0)
	lbu	a1,201(a5)
	.loc 1 122 12
	ld	a5,-48(s0)
	lbu	a5,9(a5)
	.loc 1 119 7
	li	a4,0
	li	a3,0
	mv	a2,a5
	call	UsbHubCtrlClearTTBuffer@plt
	.loc 1 128 5
	j	.L16
.L9:
	.loc 1 142 15
	ld	a5,-80(s0)
	lbu	a5,1(a5)
	.loc 1 142 6
	mv	a4,a5
	li	a5,1
	bne	a4,a5,.L11
	.loc 1 143 15
	ld	a5,-80(s0)
	lbu	a5,0(a5)
	.loc 1 142 51 discriminator 1
	mv	a4,a5
	li	a5,2
	bne	a4,a5,.L11
	.loc 1 148 15
	ld	a5,-80(s0)
	lbu	a4,2(a5)
	lbu	a5,3(a5)
	slli	a5,a5,8
	or	a5,a5,a4
	slli	a5,a5,48
	srli	a5,a5,48
	.loc 1 147 37
	bne	a5,zero,.L11
	.loc 1 150 55
	ld	a5,-80(s0)
	lbu	a4,4(a5)
	lbu	a5,5(a5)
	slli	a5,a5,8
	or	a5,a5,a4
	slli	a5,a5,48
	srli	a5,a5,48
	.loc 1 150 14
	andi	a5,a5,0xff
	mv	a1,a5
	ld	a0,-24(s0)
	call	UsbGetEndpointDesc@plt
	sd	a0,-64(s0)
	.loc 1 152 8
	ld	a5,-64(s0)
	beq	a5,zero,.L11
	.loc 1 153 22
	ld	a5,-64(s0)
	sb	zero,7(a5)
.L11:
	.loc 1 164 15
	ld	a5,-80(s0)
	lbu	a5,1(a5)
	.loc 1 164 6
	mv	a4,a5
	li	a5,9
	bne	a4,a5,.L12
	.loc 1 165 15
	ld	a5,-80(s0)
	lbu	a5,0(a5)
	.loc 1 164 48 discriminator 1
	bne	a5,zero,.L12
	.loc 1 174 13
	ld	a5,-48(s0)
	ld	a5,24(a5)
	.loc 1 174 8
	beq	a5,zero,.L13
	.loc 1 175 17
	ld	a5,-80(s0)
	lbu	a4,2(a5)
	lbu	a5,3(a5)
	slli	a5,a5,8
	or	a5,a5,a4
	slli	a4,a5,48
	srli	a4,a4,48
	.loc 1 175 31
	ld	a5,-48(s0)
	ld	a5,24(a5)
	.loc 1 175 51
	lbu	a5,5(a5)
	.loc 1 174 45 discriminator 1
	sext.w	a4,a4
	sext.w	a5,a5
	beq	a4,a5,.L17
.L13:
	.loc 1 182 12
	ld	a5,-48(s0)
	ld	a5,24(a5)
	.loc 1 182 8
	beq	a5,zero,.L14
	.loc 1 183 7
	ld	a0,-48(s0)
	call	UsbRemoveConfig@plt
.L14:
	.loc 1 186 16
	ld	a5,-80(s0)
	lbu	a4,2(a5)
	lbu	a5,3(a5)
	slli	a5,a5,8
	or	a5,a5,a4
	slli	a5,a5,48
	srli	a5,a5,48
	.loc 1 186 8
	beq	a5,zero,.L18
	.loc 1 187 52
	ld	a5,-80(s0)
	lbu	a4,2(a5)
	lbu	a5,3(a5)
	slli	a5,a5,8
	or	a5,a5,a4
	slli	a5,a5,48
	srli	a5,a5,48
	.loc 1 187 16
	andi	a5,a5,0xff
	mv	a1,a5
	ld	a0,-48(s0)
	call	UsbSelectConfig@plt
	sd	a0,-32(s0)
	.loc 1 193 5
	j	.L18
.L12:
	.loc 1 202 15
	ld	a5,-80(s0)
	lbu	a5,1(a5)
	.loc 1 202 6
	mv	a4,a5
	li	a5,11
	bne	a4,a5,.L19
	.loc 1 203 15
	ld	a5,-80(s0)
	lbu	a5,0(a5)
	.loc 1 202 51 discriminator 1
	mv	a4,a5
	li	a5,1
	bne	a4,a5,.L19
	.loc 1 208 15
	ld	a5,-80(s0)
	lbu	a4,4(a5)
	lbu	a5,5(a5)
	slli	a5,a5,8
	or	a5,a5,a4
	slli	a4,a5,48
	srli	a4,a4,48
	.loc 1 208 31
	ld	a5,-24(s0)
	ld	a5,24(a5)
	.loc 1 208 48
	lbu	a5,2(a5)
	.loc 1 207 37
	sext.w	a4,a4
	sext.w	a5,a5
	bne	a4,a5,.L19
	.loc 1 210 14
	ld	a5,-24(s0)
	ld	a3,16(a5)
	.loc 1 210 61
	ld	a5,-80(s0)
	lbu	a4,2(a5)
	lbu	a5,3(a5)
	slli	a5,a5,8
	or	a5,a5,a4
	slli	a5,a5,48
	srli	a5,a5,48
	.loc 1 210 14
	andi	a5,a5,0xff
	mv	a1,a5
	mv	a0,a3
	call	UsbSelectSetting@plt
	sd	a0,-32(s0)
	.loc 1 212 9
	ld	a5,-32(s0)
	.loc 1 212 8
	blt	a5,zero,.L19
	.loc 1 214 31
	ld	a5,-24(s0)
	ld	a4,16(a5)
	.loc 1 214 55
	ld	a5,-24(s0)
	ld	a3,16(a5)
	.loc 1 214 63
	li	a5,4096
	add	a5,a3,a5
	ld	a5,-2040(a5)
	.loc 1 214 49
	slli	a5,a5,3
	add	a5,a4,a5
	ld	a4,0(a5)
	.loc 1 214 24
	ld	a5,-24(s0)
	sd	a4,24(a5)
	j	.L7
.L16:
	.loc 1 128 5
	nop
	j	.L7
.L17:
	.loc 1 177 7
	nop
	j	.L7
.L18:
	.loc 1 193 5
	nop
	j	.L7
.L19:
	.loc 1 218 1
	nop
.L7:
	.loc 1 219 6
	la	a5,gBS
	ld	a5,0(a5)
	ld	a5,32(a5)
	.loc 1 219 3
	ld	a0,-40(s0)
	jalr	a5
.LVL1:
	.loc 1 220 10
	ld	a5,-32(s0)
.L3:
	.loc 1 221 1
	mv	a0,a5
	ld	ra,136(sp)
	.cfi_restore 1
	ld	s0,128(sp)
	.cfi_restore 8
	.cfi_def_cfa 2, 144
	addi	sp,sp,144
	.cfi_def_cfa_offset 0
	jr	ra
	.cfi_endproc
.LFE0:
	.size	UsbIoControlTransfer, .-UsbIoControlTransfer
	.section	.text.UsbIoBulkTransfer,"ax",@progbits
	.align	1
	.globl	UsbIoBulkTransfer
	.type	UsbIoBulkTransfer, @function
UsbIoBulkTransfer:
.LFB1:
	.loc 1 249 1
	.cfi_startproc
	addi	sp,sp,-144
	.cfi_def_cfa_offset 144
	sd	ra,136(sp)
	sd	s0,128(sp)
	.cfi_offset 1, -8
	.cfi_offset 8, -16
	addi	s0,sp,144
	.cfi_def_cfa 8, 0
	sd	a0,-72(s0)
	sd	a2,-88(s0)
	sd	a3,-96(s0)
	sd	a4,-104(s0)
	sd	a5,-112(s0)
	mv	a5,a1
	sb	a5,-73(s0)
	.loc 1 258 20
	lbu	a5,-73(s0)
	sext.w	a5,a5
	andi	a5,a5,127
	sext.w	a5,a5
	.loc 1 258 6
	beq	a5,zero,.L21
	.loc 1 258 58 discriminator 1
	lbu	a5,-73(s0)
	sext.w	a5,a5
	andi	a5,a5,112
	sext.w	a5,a5
	.loc 1 258 34 discriminator 1
	bne	a5,zero,.L21
	.loc 1 258 64 discriminator 2
	ld	a5,-112(s0)
	bne	a5,zero,.L22
.L21:
	.loc 1 261 12
	li	a5,-1
	slli	a5,a5,63
	addi	a5,a5,2
	j	.L30
.L22:
	.loc 1 264 15
	la	a5,gBS
	ld	a5,0(a5)
	ld	a5,24(a5)
	.loc 1 264 12
	li	a0,16
	jalr	a5
.LVL2:
	sd	a0,-40(s0)
	.loc 1 266 13
	ld	a5,-72(s0)
	addi	a5,a5,-40
	.loc 1 266 112
	ld	a4,0(a5)
	.loc 1 266 197
	li	a5,1229082624
	addi	a5,a5,853
	bne	a4,a5,.L24
	.loc 1 266 9 discriminator 1
	ld	a5,-72(s0)
	addi	a5,a5,-40
	sd	a5,-24(s0)
	j	.L25
.L24:
	.loc 1 266 9 is_stmt 0 discriminator 2
	sd	zero,-24(s0)
.L25:
	.loc 1 267 7 is_stmt 1
	ld	a5,-24(s0)
	ld	a5,8(a5)
	sd	a5,-48(s0)
	.loc 1 269 12
	lbu	a5,-73(s0)
	mv	a1,a5
	ld	a0,-24(s0)
	call	UsbGetEndpointDesc@plt
	sd	a0,-56(s0)
	.loc 1 271 6
	ld	a5,-56(s0)
	beq	a5,zero,.L26
	.loc 1 271 52 discriminator 1
	ld	a5,-56(s0)
	lbu	a5,3(a5)
	.loc 1 271 65 discriminator 1
	sext.w	a5,a5
	andi	a5,a5,3
	sext.w	a4,a5
	.loc 1 271 32 discriminator 1
	li	a5,2
	beq	a4,a5,.L27
.L26:
	.loc 1 272 12
	li	a5,-1
	slli	a5,a5,63
	addi	a5,a5,2
	sd	a5,-32(s0)
	.loc 1 273 5
	j	.L28
.L27:
	.loc 1 276 10
	li	a5,1
	sb	a5,-57(s0)
	.loc 1 277 18
	ld	a5,-56(s0)
	lbu	a5,7(a5)
	.loc 1 277 10
	sb	a5,-58(s0)
	.loc 1 278 12
	ld	a5,-48(s0)
	ld	a0,0(a5)
	ld	a5,-48(s0)
	lbu	a1,9(a5)
	ld	a5,-48(s0)
	lbu	a3,8(a5)
	.loc 1 283 26
	ld	a5,-56(s0)
	lbu	a4,4(a5)
	lbu	a5,5(a5)
	slli	a5,a5,8
	or	a5,a5,a4
	slli	a5,a5,48
	srli	a5,a5,48
	.loc 1 278 12
	mv	t3,a5
	ld	a5,-48(s0)
	addi	a5,a5,200
	addi	a6,s0,-88
	lbu	t1,-57(s0)
	lbu	a2,-73(s0)
	ld	a4,-112(s0)
	sd	a4,24(sp)
	sd	a5,16(sp)
	ld	a5,-104(s0)
	sd	a5,8(sp)
	addi	a5,s0,-58
	sd	a5,0(sp)
	ld	a7,-96(s0)
	mv	a5,t1
	mv	a4,t3
	call	UsbHcBulkTransfer@plt
	sd	a0,-32(s0)
	.loc 1 293 18
	lbu	a4,-58(s0)
	ld	a5,-56(s0)
	sb	a4,7(a5)
	.loc 1 295 34
	ld	a5,-32(s0)
	.loc 1 295 6
	blt	a5,zero,.L29
	.loc 1 295 64 discriminator 1
	ld	a5,-112(s0)
	lw	a5,0(a5)
	.loc 1 295 60 discriminator 1
	beq	a5,zero,.L31
.L29:
	.loc 1 301 24
	ld	a5,-48(s0)
	lbu	a5,200(a5)
	.loc 1 301 8
	beq	a5,zero,.L31
	.loc 1 303 12
	ld	a5,-48(s0)
	ld	a4,0(a5)
	.loc 1 303 42
	ld	a5,-48(s0)
	lbu	a5,200(a5)
	sext.w	a5,a5
	.loc 1 302 7
	addi	a5,a5,6
	slli	a5,a5,3
	add	a5,a4,a5
	ld	a0,8(a5)
	ld	a5,-48(s0)
	lbu	a1,201(a5)
	.loc 1 305 12
	ld	a5,-48(s0)
	lbu	a5,9(a5)
	.loc 1 302 7
	li	a4,2
	li	a3,0
	mv	a2,a5
	call	UsbHubCtrlClearTTBuffer@plt
	j	.L28
.L31:
	.loc 1 312 1
	nop
.L28:
	.loc 1 313 6
	la	a5,gBS
	ld	a5,0(a5)
	ld	a5,32(a5)
	.loc 1 313 3
	ld	a0,-40(s0)
	jalr	a5
.LVL3:
	.loc 1 314 10
	ld	a5,-32(s0)
.L30:
	.loc 1 315 1
	mv	a0,a5
	ld	ra,136(sp)
	.cfi_restore 1
	ld	s0,128(sp)
	.cfi_restore 8
	.cfi_def_cfa 2, 144
	addi	sp,sp,144
	.cfi_def_cfa_offset 0
	jr	ra
	.cfi_endproc
.LFE1:
	.size	UsbIoBulkTransfer, .-UsbIoBulkTransfer
	.section	.text.UsbIoSyncInterruptTransfer,"ax",@progbits
	.align	1
	.globl	UsbIoSyncInterruptTransfer
	.type	UsbIoSyncInterruptTransfer, @function
UsbIoSyncInterruptTransfer:
.LFB2:
	.loc 1 343 1
	.cfi_startproc
	addi	sp,sp,-144
	.cfi_def_cfa_offset 144
	sd	ra,136(sp)
	sd	s0,128(sp)
	.cfi_offset 1, -8
	.cfi_offset 8, -16
	addi	s0,sp,144
	.cfi_def_cfa 8, 0
	sd	a0,-72(s0)
	sd	a2,-88(s0)
	sd	a3,-96(s0)
	sd	a4,-104(s0)
	sd	a5,-112(s0)
	mv	a5,a1
	sb	a5,-73(s0)
	.loc 1 351 20
	lbu	a5,-73(s0)
	sext.w	a5,a5
	andi	a5,a5,127
	sext.w	a5,a5
	.loc 1 351 6
	beq	a5,zero,.L33
	.loc 1 351 58 discriminator 1
	lbu	a5,-73(s0)
	sext.w	a5,a5
	andi	a5,a5,112
	sext.w	a5,a5
	.loc 1 351 34 discriminator 1
	bne	a5,zero,.L33
	.loc 1 351 64 discriminator 2
	ld	a5,-112(s0)
	bne	a5,zero,.L34
.L33:
	.loc 1 354 12
	li	a5,-1
	slli	a5,a5,63
	addi	a5,a5,2
	j	.L41
.L34:
	.loc 1 357 15
	la	a5,gBS
	ld	a5,0(a5)
	ld	a5,24(a5)
	.loc 1 357 12
	li	a0,16
	jalr	a5
.LVL4:
	sd	a0,-40(s0)
	.loc 1 359 13
	ld	a5,-72(s0)
	addi	a5,a5,-40
	.loc 1 359 112
	ld	a4,0(a5)
	.loc 1 359 197
	li	a5,1229082624
	addi	a5,a5,853
	bne	a4,a5,.L36
	.loc 1 359 9 discriminator 1
	ld	a5,-72(s0)
	addi	a5,a5,-40
	sd	a5,-24(s0)
	j	.L37
.L36:
	.loc 1 359 9 is_stmt 0 discriminator 2
	sd	zero,-24(s0)
.L37:
	.loc 1 360 7 is_stmt 1
	ld	a5,-24(s0)
	ld	a5,8(a5)
	sd	a5,-48(s0)
	.loc 1 362 12
	lbu	a5,-73(s0)
	mv	a1,a5
	ld	a0,-24(s0)
	call	UsbGetEndpointDesc@plt
	sd	a0,-56(s0)
	.loc 1 364 6
	ld	a5,-56(s0)
	beq	a5,zero,.L38
	.loc 1 364 52 discriminator 1
	ld	a5,-56(s0)
	lbu	a5,3(a5)
	.loc 1 364 65 discriminator 1
	sext.w	a5,a5
	andi	a5,a5,3
	sext.w	a4,a5
	.loc 1 364 32 discriminator 1
	li	a5,3
	beq	a4,a5,.L39
.L38:
	.loc 1 365 12
	li	a5,-1
	slli	a5,a5,63
	addi	a5,a5,2
	sd	a5,-32(s0)
	.loc 1 366 5
	j	.L40
.L39:
	.loc 1 369 18
	ld	a5,-56(s0)
	lbu	a5,7(a5)
	.loc 1 369 10
	sb	a5,-57(s0)
	.loc 1 370 12
	ld	a5,-48(s0)
	ld	a0,0(a5)
	ld	a5,-48(s0)
	lbu	a1,9(a5)
	ld	a5,-48(s0)
	lbu	a3,8(a5)
	.loc 1 375 26
	ld	a5,-56(s0)
	lbu	a4,4(a5)
	lbu	a5,5(a5)
	slli	a5,a5,8
	or	a5,a5,a4
	slli	a5,a5,48
	srli	a5,a5,48
	.loc 1 370 12
	mv	t1,a5
	ld	a5,-48(s0)
	addi	a5,a5,200
	addi	a6,s0,-57
	lbu	a2,-73(s0)
	ld	a4,-112(s0)
	sd	a4,16(sp)
	sd	a5,8(sp)
	ld	a5,-104(s0)
	sd	a5,0(sp)
	mv	a7,a6
	ld	a6,-96(s0)
	ld	a5,-88(s0)
	mv	a4,t1
	call	UsbHcSyncInterruptTransfer@plt
	sd	a0,-32(s0)
	.loc 1 384 18
	lbu	a4,-57(s0)
	ld	a5,-56(s0)
	sb	a4,7(a5)
.L40:
	.loc 1 387 6
	la	a5,gBS
	ld	a5,0(a5)
	ld	a5,32(a5)
	.loc 1 387 3
	ld	a0,-40(s0)
	jalr	a5
.LVL5:
	.loc 1 388 10
	ld	a5,-32(s0)
.L41:
	.loc 1 389 1
	mv	a0,a5
	ld	ra,136(sp)
	.cfi_restore 1
	ld	s0,128(sp)
	.cfi_restore 8
	.cfi_def_cfa 2, 144
	addi	sp,sp,144
	.cfi_def_cfa_offset 0
	jr	ra
	.cfi_endproc
.LFE2:
	.size	UsbIoSyncInterruptTransfer, .-UsbIoSyncInterruptTransfer
	.section	.text.UsbIoAsyncInterruptTransfer,"ax",@progbits
	.align	1
	.globl	UsbIoAsyncInterruptTransfer
	.type	UsbIoAsyncInterruptTransfer, @function
UsbIoAsyncInterruptTransfer:
.LFB3:
	.loc 1 422 1
	.cfi_startproc
	addi	sp,sp,-144
	.cfi_def_cfa_offset 144
	sd	ra,136(sp)
	sd	s0,128(sp)
	.cfi_offset 1, -8
	.cfi_offset 8, -16
	addi	s0,sp,144
	.cfi_def_cfa 8, 0
	sd	a0,-72(s0)
	sd	a3,-88(s0)
	sd	a4,-96(s0)
	sd	a5,-104(s0)
	sd	a6,-112(s0)
	mv	a5,a1
	sb	a5,-73(s0)
	mv	a5,a2
	sb	a5,-74(s0)
	.loc 1 430 20
	lbu	a5,-73(s0)
	sext.w	a5,a5
	andi	a5,a5,127
	sext.w	a5,a5
	.loc 1 430 6
	beq	a5,zero,.L43
	.loc 1 430 58 discriminator 1
	lbu	a5,-73(s0)
	sext.w	a5,a5
	andi	a5,a5,112
	sext.w	a5,a5
	.loc 1 430 34 discriminator 1
	beq	a5,zero,.L44
.L43:
	.loc 1 431 12
	li	a5,-1
	slli	a5,a5,63
	addi	a5,a5,2
	j	.L51
.L44:
	.loc 1 434 15
	la	a5,gBS
	ld	a5,0(a5)
	ld	a5,24(a5)
	.loc 1 434 12
	li	a0,16
	jalr	a5
.LVL6:
	sd	a0,-40(s0)
	.loc 1 435 13
	ld	a5,-72(s0)
	addi	a5,a5,-40
	.loc 1 435 112
	ld	a4,0(a5)
	.loc 1 435 197
	li	a5,1229082624
	addi	a5,a5,853
	bne	a4,a5,.L46
	.loc 1 435 9 discriminator 1
	ld	a5,-72(s0)
	addi	a5,a5,-40
	sd	a5,-24(s0)
	j	.L47
.L46:
	.loc 1 435 9 is_stmt 0 discriminator 2
	sd	zero,-24(s0)
.L47:
	.loc 1 436 7 is_stmt 1
	ld	a5,-24(s0)
	ld	a5,8(a5)
	sd	a5,-48(s0)
	.loc 1 438 12
	lbu	a5,-73(s0)
	mv	a1,a5
	ld	a0,-24(s0)
	call	UsbGetEndpointDesc@plt
	sd	a0,-56(s0)
	.loc 1 440 6
	ld	a5,-56(s0)
	beq	a5,zero,.L48
	.loc 1 440 52 discriminator 1
	ld	a5,-56(s0)
	lbu	a5,3(a5)
	.loc 1 440 65 discriminator 1
	sext.w	a5,a5
	andi	a5,a5,3
	sext.w	a4,a5
	.loc 1 440 32 discriminator 1
	li	a5,3
	beq	a4,a5,.L49
.L48:
	.loc 1 441 12
	li	a5,-1
	slli	a5,a5,63
	addi	a5,a5,2
	sd	a5,-32(s0)
	.loc 1 442 5
	j	.L50
.L49:
	.loc 1 445 18
	ld	a5,-56(s0)
	lbu	a5,7(a5)
	.loc 1 445 10
	sb	a5,-57(s0)
	.loc 1 446 12
	ld	a5,-48(s0)
	ld	a0,0(a5)
	ld	a5,-48(s0)
	lbu	a1,9(a5)
	ld	a5,-48(s0)
	lbu	a3,8(a5)
	.loc 1 451 26
	ld	a5,-56(s0)
	lbu	a4,4(a5)
	lbu	a5,5(a5)
	slli	a5,a5,8
	or	a5,a5,a4
	slli	a5,a5,48
	srli	a5,a5,48
	.loc 1 446 12
	mv	t3,a5
	ld	a5,-48(s0)
	addi	a5,a5,200
	addi	a6,s0,-57
	lbu	t1,-74(s0)
	lbu	a2,-73(s0)
	ld	a4,-112(s0)
	sd	a4,24(sp)
	ld	a4,-104(s0)
	sd	a4,16(sp)
	sd	a5,8(sp)
	ld	a5,-96(s0)
	sd	a5,0(sp)
	ld	a7,-88(s0)
	mv	a5,t1
	mv	a4,t3
	call	UsbHcAsyncInterruptTransfer@plt
	sd	a0,-32(s0)
	.loc 1 461 18
	lbu	a4,-57(s0)
	ld	a5,-56(s0)
	sb	a4,7(a5)
.L50:
	.loc 1 464 6
	la	a5,gBS
	ld	a5,0(a5)
	ld	a5,32(a5)
	.loc 1 464 3
	ld	a0,-40(s0)
	jalr	a5
.LVL7:
	.loc 1 465 10
	ld	a5,-32(s0)
.L51:
	.loc 1 466 1
	mv	a0,a5
	ld	ra,136(sp)
	.cfi_restore 1
	ld	s0,128(sp)
	.cfi_restore 8
	.cfi_def_cfa 2, 144
	addi	sp,sp,144
	.cfi_def_cfa_offset 0
	jr	ra
	.cfi_endproc
.LFE3:
	.size	UsbIoAsyncInterruptTransfer, .-UsbIoAsyncInterruptTransfer
	.section	.text.UsbIoIsochronousTransfer,"ax",@progbits
	.align	1
	.globl	UsbIoIsochronousTransfer
	.type	UsbIoIsochronousTransfer, @function
UsbIoIsochronousTransfer:
.LFB4:
	.loc 1 489 1
	.cfi_startproc
	addi	sp,sp,-64
	.cfi_def_cfa_offset 64
	sd	ra,56(sp)
	sd	s0,48(sp)
	.cfi_offset 1, -8
	.cfi_offset 8, -16
	addi	s0,sp,64
	.cfi_def_cfa 8, 0
	sd	a0,-24(s0)
	mv	a5,a1
	sd	a2,-40(s0)
	sd	a3,-48(s0)
	sd	a4,-56(s0)
	sb	a5,-25(s0)
	.loc 1 490 10
	li	a5,-1
	slli	a5,a5,63
	addi	a5,a5,3
	.loc 1 491 1
	mv	a0,a5
	ld	ra,56(sp)
	.cfi_restore 1
	ld	s0,48(sp)
	.cfi_restore 8
	.cfi_def_cfa 2, 64
	addi	sp,sp,64
	.cfi_def_cfa_offset 0
	jr	ra
	.cfi_endproc
.LFE4:
	.size	UsbIoIsochronousTransfer, .-UsbIoIsochronousTransfer
	.section	.text.UsbIoAsyncIsochronousTransfer,"ax",@progbits
	.align	1
	.globl	UsbIoAsyncIsochronousTransfer
	.type	UsbIoAsyncIsochronousTransfer, @function
UsbIoAsyncIsochronousTransfer:
.LFB5:
	.loc 1 517 1
	.cfi_startproc
	addi	sp,sp,-64
	.cfi_def_cfa_offset 64
	sd	ra,56(sp)
	sd	s0,48(sp)
	.cfi_offset 1, -8
	.cfi_offset 8, -16
	addi	s0,sp,64
	.cfi_def_cfa 8, 0
	sd	a0,-24(s0)
	sd	a2,-40(s0)
	sd	a3,-48(s0)
	sd	a4,-56(s0)
	sd	a5,-64(s0)
	mv	a5,a1
	sb	a5,-25(s0)
	.loc 1 518 10
	li	a5,-1
	slli	a5,a5,63
	addi	a5,a5,3
	.loc 1 519 1
	mv	a0,a5
	ld	ra,56(sp)
	.cfi_restore 1
	ld	s0,48(sp)
	.cfi_restore 8
	.cfi_def_cfa 2, 64
	addi	sp,sp,64
	.cfi_def_cfa_offset 0
	jr	ra
	.cfi_endproc
.LFE5:
	.size	UsbIoAsyncIsochronousTransfer, .-UsbIoAsyncIsochronousTransfer
	.section	.text.UsbIoGetDeviceDescriptor,"ax",@progbits
	.align	1
	.globl	UsbIoGetDeviceDescriptor
	.type	UsbIoGetDeviceDescriptor, @function
UsbIoGetDeviceDescriptor:
.LFB6:
	.loc 1 537 1
	.cfi_startproc
	addi	sp,sp,-64
	.cfi_def_cfa_offset 64
	sd	ra,56(sp)
	sd	s0,48(sp)
	.cfi_offset 1, -8
	.cfi_offset 8, -16
	addi	s0,sp,64
	.cfi_def_cfa 8, 0
	sd	a0,-56(s0)
	sd	a1,-64(s0)
	.loc 1 542 6
	ld	a5,-64(s0)
	bne	a5,zero,.L57
	.loc 1 543 12
	li	a5,-1
	slli	a5,a5,63
	addi	a5,a5,2
	j	.L58
.L57:
	.loc 1 546 15
	la	a5,gBS
	ld	a5,0(a5)
	ld	a5,24(a5)
	.loc 1 546 12
	li	a0,16
	jalr	a5
.LVL8:
	sd	a0,-32(s0)
	.loc 1 548 13
	ld	a5,-56(s0)
	addi	a5,a5,-40
	.loc 1 548 112
	ld	a4,0(a5)
	.loc 1 548 197
	li	a5,1229082624
	addi	a5,a5,853
	bne	a4,a5,.L59
	.loc 1 548 9 discriminator 1
	ld	a5,-56(s0)
	addi	a5,a5,-40
	sd	a5,-24(s0)
	j	.L60
.L59:
	.loc 1 548 9 is_stmt 0 discriminator 2
	sd	zero,-24(s0)
.L60:
	.loc 1 549 7 is_stmt 1
	ld	a5,-24(s0)
	ld	a5,8(a5)
	sd	a5,-40(s0)
	.loc 1 551 28
	ld	a5,-40(s0)
	ld	a5,16(a5)
	.loc 1 551 3
	li	a2,18
	mv	a1,a5
	ld	a0,-64(s0)
	call	CopyMem@plt
	.loc 1 553 6
	la	a5,gBS
	ld	a5,0(a5)
	ld	a5,32(a5)
	.loc 1 553 3
	ld	a0,-32(s0)
	jalr	a5
.LVL9:
	.loc 1 554 10
	li	a5,0
.L58:
	.loc 1 555 1
	mv	a0,a5
	ld	ra,56(sp)
	.cfi_restore 1
	ld	s0,48(sp)
	.cfi_restore 8
	.cfi_def_cfa 2, 64
	addi	sp,sp,64
	.cfi_def_cfa_offset 0
	jr	ra
	.cfi_endproc
.LFE6:
	.size	UsbIoGetDeviceDescriptor, .-UsbIoGetDeviceDescriptor
	.section	.text.UsbIoGetActiveConfigDescriptor,"ax",@progbits
	.align	1
	.globl	UsbIoGetActiveConfigDescriptor
	.type	UsbIoGetActiveConfigDescriptor, @function
UsbIoGetActiveConfigDescriptor:
.LFB7:
	.loc 1 574 1
	.cfi_startproc
	addi	sp,sp,-64
	.cfi_def_cfa_offset 64
	sd	ra,56(sp)
	sd	s0,48(sp)
	.cfi_offset 1, -8
	.cfi_offset 8, -16
	addi	s0,sp,64
	.cfi_def_cfa 8, 0
	sd	a0,-56(s0)
	sd	a1,-64(s0)
	.loc 1 580 6
	ld	a5,-64(s0)
	bne	a5,zero,.L62
	.loc 1 581 12
	li	a5,-1
	slli	a5,a5,63
	addi	a5,a5,2
	j	.L63
.L62:
	.loc 1 584 10
	sd	zero,-32(s0)
	.loc 1 585 15
	la	a5,gBS
	ld	a5,0(a5)
	ld	a5,24(a5)
	.loc 1 585 12
	li	a0,16
	jalr	a5
.LVL10:
	sd	a0,-40(s0)
	.loc 1 587 13
	ld	a5,-56(s0)
	addi	a5,a5,-40
	.loc 1 587 112
	ld	a4,0(a5)
	.loc 1 587 197
	li	a5,1229082624
	addi	a5,a5,853
	bne	a4,a5,.L64
	.loc 1 587 9 discriminator 1
	ld	a5,-56(s0)
	addi	a5,a5,-40
	sd	a5,-24(s0)
	j	.L65
.L64:
	.loc 1 587 9 is_stmt 0 discriminator 2
	sd	zero,-24(s0)
.L65:
	.loc 1 588 7 is_stmt 1
	ld	a5,-24(s0)
	ld	a5,8(a5)
	sd	a5,-48(s0)
	.loc 1 590 10
	ld	a5,-48(s0)
	ld	a5,24(a5)
	.loc 1 590 6
	bne	a5,zero,.L66
	.loc 1 591 12
	li	a5,-1
	slli	a5,a5,63
	addi	a5,a5,14
	sd	a5,-32(s0)
	.loc 1 592 5
	j	.L67
.L66:
	.loc 1 595 29
	ld	a5,-48(s0)
	ld	a5,24(a5)
	.loc 1 595 3
	li	a2,9
	mv	a1,a5
	ld	a0,-64(s0)
	call	CopyMem@plt
.L67:
	.loc 1 598 6
	la	a5,gBS
	ld	a5,0(a5)
	ld	a5,32(a5)
	.loc 1 598 3
	ld	a0,-40(s0)
	jalr	a5
.LVL11:
	.loc 1 599 10
	ld	a5,-32(s0)
.L63:
	.loc 1 600 1
	mv	a0,a5
	ld	ra,56(sp)
	.cfi_restore 1
	ld	s0,48(sp)
	.cfi_restore 8
	.cfi_def_cfa 2, 64
	addi	sp,sp,64
	.cfi_def_cfa_offset 0
	jr	ra
	.cfi_endproc
.LFE7:
	.size	UsbIoGetActiveConfigDescriptor, .-UsbIoGetActiveConfigDescriptor
	.section	.text.UsbIoGetInterfaceDescriptor,"ax",@progbits
	.align	1
	.globl	UsbIoGetInterfaceDescriptor
	.type	UsbIoGetInterfaceDescriptor, @function
UsbIoGetInterfaceDescriptor:
.LFB8:
	.loc 1 618 1
	.cfi_startproc
	addi	sp,sp,-48
	.cfi_def_cfa_offset 48
	sd	ra,40(sp)
	sd	s0,32(sp)
	.cfi_offset 1, -8
	.cfi_offset 8, -16
	addi	s0,sp,48
	.cfi_def_cfa 8, 0
	sd	a0,-40(s0)
	sd	a1,-48(s0)
	.loc 1 622 6
	ld	a5,-48(s0)
	bne	a5,zero,.L69
	.loc 1 623 12
	li	a5,-1
	slli	a5,a5,63
	addi	a5,a5,2
	j	.L70
.L69:
	.loc 1 626 15
	la	a5,gBS
	ld	a5,0(a5)
	ld	a5,24(a5)
	.loc 1 626 12
	li	a0,16
	jalr	a5
.LVL12:
	sd	a0,-32(s0)
	.loc 1 628 13
	ld	a5,-40(s0)
	addi	a5,a5,-40
	.loc 1 628 112
	ld	a4,0(a5)
	.loc 1 628 197
	li	a5,1229082624
	addi	a5,a5,853
	bne	a4,a5,.L71
	.loc 1 628 9 discriminator 1
	ld	a5,-40(s0)
	addi	a5,a5,-40
	sd	a5,-24(s0)
	j	.L72
.L71:
	.loc 1 628 9 is_stmt 0 discriminator 2
	sd	zero,-24(s0)
.L72:
	.loc 1 629 31 is_stmt 1
	ld	a5,-24(s0)
	ld	a5,24(a5)
	.loc 1 629 3
	li	a2,9
	mv	a1,a5
	ld	a0,-48(s0)
	call	CopyMem@plt
	.loc 1 631 6
	la	a5,gBS
	ld	a5,0(a5)
	ld	a5,32(a5)
	.loc 1 631 3
	ld	a0,-32(s0)
	jalr	a5
.LVL13:
	.loc 1 632 10
	li	a5,0
.L70:
	.loc 1 633 1
	mv	a0,a5
	ld	ra,40(sp)
	.cfi_restore 1
	ld	s0,32(sp)
	.cfi_restore 8
	.cfi_def_cfa 2, 48
	addi	sp,sp,48
	.cfi_def_cfa_offset 0
	jr	ra
	.cfi_endproc
.LFE8:
	.size	UsbIoGetInterfaceDescriptor, .-UsbIoGetInterfaceDescriptor
	.section	.text.UsbIoGetEndpointDescriptor,"ax",@progbits
	.align	1
	.globl	UsbIoGetEndpointDescriptor
	.type	UsbIoGetEndpointDescriptor, @function
UsbIoGetEndpointDescriptor:
.LFB9:
	.loc 1 654 1
	.cfi_startproc
	addi	sp,sp,-64
	.cfi_def_cfa_offset 64
	sd	ra,56(sp)
	sd	s0,48(sp)
	.cfi_offset 1, -8
	.cfi_offset 8, -16
	addi	s0,sp,64
	.cfi_def_cfa 8, 0
	sd	a0,-40(s0)
	mv	a5,a1
	sd	a2,-56(s0)
	sb	a5,-41(s0)
	.loc 1 658 15
	la	a5,gBS
	ld	a5,0(a5)
	ld	a5,24(a5)
	.loc 1 658 12
	li	a0,16
	jalr	a5
.LVL14:
	sd	a0,-32(s0)
	.loc 1 660 13
	ld	a5,-40(s0)
	addi	a5,a5,-40
	.loc 1 660 112
	ld	a4,0(a5)
	.loc 1 660 197
	li	a5,1229082624
	addi	a5,a5,853
	bne	a4,a5,.L74
	.loc 1 660 9 discriminator 1
	ld	a5,-40(s0)
	addi	a5,a5,-40
	sd	a5,-24(s0)
	j	.L75
.L74:
	.loc 1 660 9 is_stmt 0 discriminator 2
	sd	zero,-24(s0)
.L75:
	.loc 1 662 6 is_stmt 1
	ld	a5,-56(s0)
	beq	a5,zero,.L76
	.loc 1 662 36 discriminator 1
	lbu	a5,-41(s0)
	andi	a4,a5,0xff
	li	a5,15
	bleu	a4,a5,.L77
.L76:
	.loc 1 663 8
	la	a5,gBS
	ld	a5,0(a5)
	ld	a5,32(a5)
	.loc 1 663 5
	ld	a0,-32(s0)
	jalr	a5
.LVL15:
	.loc 1 664 12
	li	a5,-1
	slli	a5,a5,63
	addi	a5,a5,2
	j	.L78
.L77:
	.loc 1 667 21
	ld	a5,-24(s0)
	ld	a5,24(a5)
	.loc 1 667 38
	lbu	a4,4(a5)
	.loc 1 667 6
	lbu	a5,-41(s0)
	andi	a5,a5,0xff
	bltu	a5,a4,.L79
	.loc 1 668 8
	la	a5,gBS
	ld	a5,0(a5)
	ld	a5,32(a5)
	.loc 1 668 5
	ld	a0,-32(s0)
	jalr	a5
.LVL16:
	.loc 1 669 12
	li	a5,-1
	slli	a5,a5,63
	addi	a5,a5,14
	j	.L78
.L79:
	.loc 1 674 12
	ld	a5,-24(s0)
	ld	a5,24(a5)
	.loc 1 674 23
	ld	a4,16(a5)
	.loc 1 674 34
	lbu	a5,-41(s0)
	slli	a5,a5,3
	add	a5,a4,a5
	ld	a5,0(a5)
	.loc 1 672 3
	li	a2,7
	mv	a1,a5
	ld	a0,-56(s0)
	call	CopyMem@plt
	.loc 1 678 6
	la	a5,gBS
	ld	a5,0(a5)
	ld	a5,32(a5)
	.loc 1 678 3
	ld	a0,-32(s0)
	jalr	a5
.LVL17:
	.loc 1 679 10
	li	a5,0
.L78:
	.loc 1 680 1
	mv	a0,a5
	ld	ra,56(sp)
	.cfi_restore 1
	ld	s0,48(sp)
	.cfi_restore 8
	.cfi_def_cfa 2, 64
	addi	sp,sp,64
	.cfi_def_cfa_offset 0
	jr	ra
	.cfi_endproc
.LFE9:
	.size	UsbIoGetEndpointDescriptor, .-UsbIoGetEndpointDescriptor
	.section	.text.UsbIoGetSupportedLanguages,"ax",@progbits
	.align	1
	.globl	UsbIoGetSupportedLanguages
	.type	UsbIoGetSupportedLanguages, @function
UsbIoGetSupportedLanguages:
.LFB10:
	.loc 1 699 1
	.cfi_startproc
	addi	sp,sp,-80
	.cfi_def_cfa_offset 80
	sd	ra,72(sp)
	sd	s0,64(sp)
	.cfi_offset 1, -8
	.cfi_offset 8, -16
	addi	s0,sp,80
	.cfi_def_cfa 8, 0
	sd	a0,-56(s0)
	sd	a1,-64(s0)
	sd	a2,-72(s0)
	.loc 1 704 15
	la	a5,gBS
	ld	a5,0(a5)
	ld	a5,24(a5)
	.loc 1 704 12
	li	a0,16
	jalr	a5
.LVL18:
	sd	a0,-32(s0)
	.loc 1 706 13
	ld	a5,-56(s0)
	addi	a5,a5,-40
	.loc 1 706 112
	ld	a4,0(a5)
	.loc 1 706 197
	li	a5,1229082624
	addi	a5,a5,853
	bne	a4,a5,.L81
	.loc 1 706 9 discriminator 1
	ld	a5,-56(s0)
	addi	a5,a5,-40
	sd	a5,-24(s0)
	j	.L82
.L81:
	.loc 1 706 9 is_stmt 0 discriminator 2
	sd	zero,-24(s0)
.L82:
	.loc 1 707 7 is_stmt 1
	ld	a5,-24(s0)
	ld	a5,8(a5)
	sd	a5,-40(s0)
	.loc 1 709 18
	ld	a5,-40(s0)
	addi	a4,a5,32
	.loc 1 709 16
	ld	a5,-64(s0)
	sd	a4,0(a5)
	.loc 1 710 28
	ld	a5,-40(s0)
	lhu	a5,64(a5)
	.loc 1 710 16
	slliw	a5,a5,1
	slli	a4,a5,48
	srli	a4,a4,48
	.loc 1 710 14
	ld	a5,-72(s0)
	sh	a4,0(a5)
	.loc 1 712 6
	la	a5,gBS
	ld	a5,0(a5)
	ld	a5,32(a5)
	.loc 1 712 3
	ld	a0,-32(s0)
	jalr	a5
.LVL19:
	.loc 1 713 10
	li	a5,0
	.loc 1 714 1
	mv	a0,a5
	ld	ra,72(sp)
	.cfi_restore 1
	ld	s0,64(sp)
	.cfi_restore 8
	.cfi_def_cfa 2, 80
	addi	sp,sp,80
	.cfi_def_cfa_offset 0
	jr	ra
	.cfi_endproc
.LFE10:
	.size	UsbIoGetSupportedLanguages, .-UsbIoGetSupportedLanguages
	.section	.text.UsbIoGetStringDescriptor,"ax",@progbits
	.align	1
	.globl	UsbIoGetStringDescriptor
	.type	UsbIoGetStringDescriptor, @function
UsbIoGetStringDescriptor:
.LFB11:
	.loc 1 736 1
	.cfi_startproc
	addi	sp,sp,-112
	.cfi_def_cfa_offset 112
	sd	ra,104(sp)
	sd	s0,96(sp)
	.cfi_offset 1, -8
	.cfi_offset 8, -16
	addi	s0,sp,112
	.cfi_def_cfa 8, 0
	sd	a0,-88(s0)
	mv	a5,a1
	mv	a4,a2
	sd	a3,-104(s0)
	sh	a5,-90(s0)
	mv	a5,a4
	sb	a5,-91(s0)
	.loc 1 745 6
	lbu	a5,-91(s0)
	andi	a5,a5,0xff
	beq	a5,zero,.L85
	.loc 1 745 26 discriminator 1
	lhu	a5,-90(s0)
	sext.w	a5,a5
	bne	a5,zero,.L86
.L85:
	.loc 1 746 12
	li	a5,-1
	slli	a5,a5,63
	addi	a5,a5,14
	j	.L87
.L86:
	.loc 1 749 15
	la	a5,gBS
	ld	a5,0(a5)
	ld	a5,24(a5)
	.loc 1 749 12
	li	a0,16
	jalr	a5
.LVL20:
	sd	a0,-48(s0)
	.loc 1 751 13
	ld	a5,-88(s0)
	addi	a5,a5,-40
	.loc 1 751 112
	ld	a4,0(a5)
	.loc 1 751 197
	li	a5,1229082624
	addi	a5,a5,853
	bne	a4,a5,.L88
	.loc 1 751 9 discriminator 1
	ld	a5,-88(s0)
	addi	a5,a5,-40
	sd	a5,-24(s0)
	j	.L89
.L88:
	.loc 1 751 9 is_stmt 0 discriminator 2
	sd	zero,-24(s0)
.L89:
	.loc 1 752 7 is_stmt 1
	ld	a5,-24(s0)
	ld	a5,8(a5)
	sd	a5,-56(s0)
	.loc 1 757 10
	li	a5,-1
	slli	a5,a5,63
	addi	a5,a5,14
	sd	a5,-40(s0)
	.loc 1 759 14
	sb	zero,-25(s0)
	.loc 1 759 3
	j	.L90
.L93:
	.loc 1 761 20
	lbu	a5,-25(s0)
	sext.w	a5,a5
	ld	a4,-56(s0)
	addi	a5,a5,16
	slli	a5,a5,1
	add	a5,a4,a5
	lhu	a5,0(a5)
	.loc 1 761 8
	lhu	a4,-90(s0)
	sext.w	a4,a4
	sext.w	a5,a5
	beq	a4,a5,.L100
	.loc 1 759 50 discriminator 2
	lbu	a5,-25(s0)
	addiw	a5,a5,1
	sb	a5,-25(s0)
.L90:
	.loc 1 759 25 discriminator 1
	lbu	a5,-25(s0)
	slli	a4,a5,48
	srli	a4,a4,48
	.loc 1 759 30 discriminator 1
	ld	a5,-56(s0)
	lhu	a5,64(a5)
	.loc 1 759 25 discriminator 1
	sext.w	a4,a4
	sext.w	a5,a5
	bltu	a4,a5,.L93
	j	.L92
.L100:
	.loc 1 762 7
	nop
.L92:
	.loc 1 766 13
	lbu	a5,-25(s0)
	slli	a4,a5,48
	srli	a4,a4,48
	.loc 1 766 19
	ld	a5,-56(s0)
	lhu	a5,64(a5)
	.loc 1 766 6
	sext.w	a4,a4
	sext.w	a5,a5
	beq	a4,a5,.L101
	.loc 1 774 13
	lhu	a4,-90(s0)
	lbu	a5,-91(s0)
	mv	a2,a4
	mv	a1,a5
	ld	a0,-56(s0)
	call	UsbGetOneString@plt
	sd	a0,-64(s0)
	.loc 1 776 6
	ld	a5,-64(s0)
	beq	a5,zero,.L102
	.loc 1 780 14
	ld	a5,-64(s0)
	lbu	a5,0(a5)
	.loc 1 780 6
	mv	a4,a5
	li	a5,2
	bleu	a4,a5,.L103
	.loc 1 784 34
	ld	a5,-64(s0)
	lbu	a5,0(a5)
	.loc 1 784 9
	mv	a0,a5
	call	AllocateZeroPool@plt
	sd	a0,-72(s0)
	.loc 1 786 6
	ld	a5,-72(s0)
	bne	a5,zero,.L99
	.loc 1 787 12
	li	a5,-1
	slli	a5,a5,63
	addi	a5,a5,9
	sd	a5,-40(s0)
	.loc 1 788 5
	j	.L98
.L99:
	.loc 1 791 24
	ld	a5,-64(s0)
	addi	a4,a5,2
	.loc 1 791 41
	ld	a5,-64(s0)
	lbu	a5,0(a5)
	sext.w	a5,a5
	.loc 1 791 50
	addiw	a5,a5,-2
	sext.w	a5,a5
	.loc 1 791 3
	mv	a2,a5
	mv	a1,a4
	ld	a0,-72(s0)
	call	CopyMem@plt
	.loc 1 792 11
	ld	a5,-104(s0)
	ld	a4,-72(s0)
	sd	a4,0(a5)
	.loc 1 793 10
	sd	zero,-40(s0)
	j	.L98
.L103:
	.loc 1 781 5
	nop
.L98:
	.loc 1 796 6
	la	a5,gBS
	ld	a5,0(a5)
	ld	a5,72(a5)
	.loc 1 796 3
	ld	a0,-64(s0)
	jalr	a5
.LVL21:
	j	.L95
.L101:
	.loc 1 767 5
	nop
	j	.L95
.L102:
	.loc 1 777 5
	nop
.L95:
	.loc 1 799 6
	la	a5,gBS
	ld	a5,0(a5)
	ld	a5,32(a5)
	.loc 1 799 3
	ld	a0,-48(s0)
	jalr	a5
.LVL22:
	.loc 1 800 10
	ld	a5,-40(s0)
.L87:
	.loc 1 801 1
	mv	a0,a5
	ld	ra,104(sp)
	.cfi_restore 1
	ld	s0,96(sp)
	.cfi_restore 8
	.cfi_def_cfa 2, 112
	addi	sp,sp,112
	.cfi_def_cfa_offset 0
	jr	ra
	.cfi_endproc
.LFE11:
	.size	UsbIoGetStringDescriptor, .-UsbIoGetStringDescriptor
	.section	.text.UsbIoPortReset,"ax",@progbits
	.align	1
	.globl	UsbIoPortReset
	.type	UsbIoPortReset, @function
UsbIoPortReset:
.LFB12:
	.loc 1 818 1
	.cfi_startproc
	addi	sp,sp,-96
	.cfi_def_cfa_offset 96
	sd	ra,88(sp)
	sd	s0,80(sp)
	.cfi_offset 1, -8
	.cfi_offset 8, -16
	addi	s0,sp,96
	.cfi_def_cfa 8, 0
	sd	a0,-88(s0)
	.loc 1 827 15
	la	a5,gBS
	ld	a5,0(a5)
	ld	a5,24(a5)
	.loc 1 827 12
	li	a0,16
	jalr	a5
.LVL23:
	sd	a0,-64(s0)
	.loc 1 829 13
	ld	a5,-88(s0)
	addi	a5,a5,-40
	.loc 1 829 112
	ld	a4,0(a5)
	.loc 1 829 197
	li	a5,1229082624
	addi	a5,a5,853
	bne	a4,a5,.L105
	.loc 1 829 9 discriminator 1
	ld	a5,-88(s0)
	addi	a5,a5,-40
	sd	a5,-56(s0)
	j	.L106
.L105:
	.loc 1 829 9 is_stmt 0 discriminator 2
	sd	zero,-56(s0)
.L106:
	.loc 1 830 7 is_stmt 1
	ld	a5,-56(s0)
	ld	a5,8(a5)
	sd	a5,-48(s0)
	.loc 1 832 12
	ld	a5,-56(s0)
	lbu	a5,153(a5)
	.loc 1 832 6
	beq	a5,zero,.L107
	.loc 1 833 12
	li	a5,-1
	slli	a5,a5,63
	addi	a5,a5,2
	sd	a5,-24(s0)
	.loc 1 834 5
	j	.L108
.L107:
	.loc 1 837 9
	ld	a5,-48(s0)
	ld	a5,208(a5)
	sd	a5,-40(s0)
	.loc 1 838 17
	ld	a5,-40(s0)
	ld	a5,160(a5)
	.loc 1 838 25
	ld	a5,40(a5)
	.loc 1 838 12
	ld	a4,-48(s0)
	lbu	a4,216(a4)
	mv	a1,a4
	ld	a0,-40(s0)
	jalr	a5
.LVL24:
	sd	a0,-24(s0)
	.loc 1 840 34
	ld	a5,-24(s0)
	.loc 1 840 6
	blt	a5,zero,.L112
	.loc 1 852 8
	ld	a5,-40(s0)
	ld	a5,160(a5)
	.loc 1 852 16
	ld	a5,16(a5)
	.loc 1 852 3
	ld	a4,-48(s0)
	lbu	a4,216(a4)
	mv	a1,a4
	ld	a0,-40(s0)
	jalr	a5
.LVL25:
	.loc 1 859 14
	ld	a5,-48(s0)
	lbu	a5,9(a5)
	sb	a5,-25(s0)
	.loc 1 860 16
	ld	a5,-48(s0)
	sb	zero,9(a5)
	.loc 1 861 12
	lbu	a5,-25(s0)
	mv	a1,a5
	ld	a0,-48(s0)
	call	UsbSetAddress@plt
	sd	a0,-24(s0)
	.loc 1 862 16
	ld	a5,-48(s0)
	lbu	a4,-25(s0)
	sb	a4,9(a5)
	.loc 1 864 6
	la	a5,gBS
	ld	a5,0(a5)
	ld	a5,248(a5)
	.loc 1 864 3
	li	a0,2000
	jalr	a5
.LVL26:
	.loc 1 866 34
	ld	a5,-24(s0)
	.loc 1 866 6
	blt	a5,zero,.L113
	.loc 1 886 10
	ld	a5,-48(s0)
	ld	a5,24(a5)
	.loc 1 886 6
	beq	a5,zero,.L114
	.loc 1 887 5
	ld	a5,-48(s0)
	ld	a5,16(a5)
	mv	a0,a5
	call	UsbFreeDevDesc@plt
	.loc 1 889 14
	ld	a0,-48(s0)
	call	UsbRemoveConfig@plt
	sd	a0,-24(s0)
	.loc 1 894 14
	ld	a0,-48(s0)
	call	UsbGetMaxPacketSize0@plt
	sd	a0,-24(s0)
	.loc 1 899 14
	ld	a0,-48(s0)
	call	UsbBuildDescTable@plt
	sd	a0,-24(s0)
	.loc 1 904 17
	ld	a5,-48(s0)
	ld	a5,16(a5)
	.loc 1 904 26
	ld	a5,24(a5)
	.loc 1 904 35
	ld	a5,0(a5)
	.loc 1 904 12
	lbu	a5,5(a5)
	sb	a5,-65(s0)
	.loc 1 906 14
	lbu	a5,-65(s0)
	mv	a1,a5
	ld	a0,-48(s0)
	call	UsbSetConfig@plt
	sd	a0,-24(s0)
	.loc 1 916 14
	lbu	a5,-65(s0)
	mv	a1,a5
	ld	a0,-48(s0)
	call	UsbSelectConfig@plt
	sd	a0,-24(s0)
	.loc 1 922 1
	j	.L114
.L112:
	.loc 1 849 5
	nop
	j	.L108
.L113:
	.loc 1 877 5
	nop
	j	.L108
.L114:
	.loc 1 922 1
	nop
.L108:
	.loc 1 923 6
	la	a5,gBS
	ld	a5,0(a5)
	ld	a5,32(a5)
	.loc 1 923 3
	ld	a0,-64(s0)
	jalr	a5
.LVL27:
	.loc 1 924 10
	ld	a5,-24(s0)
	.loc 1 925 1
	mv	a0,a5
	ld	ra,88(sp)
	.cfi_restore 1
	ld	s0,80(sp)
	.cfi_restore 8
	.cfi_def_cfa 2, 96
	addi	sp,sp,96
	.cfi_def_cfa_offset 0
	jr	ra
	.cfi_endproc
.LFE12:
	.size	UsbIoPortReset, .-UsbIoPortReset
	.section	.text.UsbBusBuildProtocol,"ax",@progbits
	.align	1
	.globl	UsbBusBuildProtocol
	.type	UsbBusBuildProtocol, @function
UsbBusBuildProtocol:
.LFB13:
	.loc 1 946 1
	.cfi_startproc
	addi	sp,sp,-96
	.cfi_def_cfa_offset 96
	sd	ra,88(sp)
	sd	s0,80(sp)
	.cfi_offset 1, -8
	.cfi_offset 8, -16
	addi	s0,sp,96
	.cfi_def_cfa 8, 0
	sd	a0,-72(s0)
	sd	a1,-80(s0)
	sd	a2,-88(s0)
	.loc 1 953 12
	li	a5,4096
	addi	a0,a5,-1976
	call	AllocateZeroPool@plt
	sd	a0,-32(s0)
	.loc 1 955 6
	ld	a5,-32(s0)
	bne	a5,zero,.L116
	.loc 1 956 12
	li	a5,-1
	slli	a5,a5,63
	addi	a5,a5,9
	j	.L117
.L116:
	.loc 1 959 21
	ld	a5,-32(s0)
	li	a4,1111642112
	addi	a4,a4,853
	sd	a4,0(a5)
	.loc 1 960 22
	ld	a4,-80(s0)
	ld	a5,-32(s0)
	sd	a4,16(a5)
	.loc 1 961 22
	ld	a5,-32(s0)
	li	a4,128
	sw	a4,48(a5)
	.loc 1 963 15
	la	a5,gBS
	ld	a5,0(a5)
	ld	a6,280(a5)
	.loc 1 963 12
	ld	a0,-80(s0)
	.loc 1 966 28
	ld	a5,-32(s0)
	addi	a2,a5,24
	.loc 1 963 12
	ld	a5,-72(s0)
	ld	a3,40(a5)
	ld	a4,-80(s0)
	li	a5,16
	la	a1,gEfiDevicePathProtocolGuid
	jalr	a6
.LVL28:
	sd	a0,-24(s0)
	.loc 1 972 34
	ld	a5,-24(s0)
	.loc 1 972 6
	bge	a5,zero,.L118
	.loc 1 975 5
	ld	a0,-32(s0)
	call	FreePool@plt
	.loc 1 976 12
	ld	a5,-24(s0)
	j	.L117
.L118:
	.loc 1 987 15
	la	a5,gBS
	ld	a5,0(a5)
	ld	a6,280(a5)
	.loc 1 987 12
	ld	a0,-80(s0)
	.loc 1 990 28
	ld	a5,-32(s0)
	addi	a2,a5,32
	.loc 1 987 12
	ld	a5,-72(s0)
	ld	a3,40(a5)
	ld	a4,-80(s0)
	li	a5,16
	la	a1,gEfiUsb2HcProtocolGuid
	jalr	a6
.LVL29:
	sd	a0,-24(s0)
	.loc 1 996 16
	la	a5,gBS
	ld	a5,0(a5)
	ld	a6,280(a5)
	.loc 1 996 13
	ld	a0,-80(s0)
	.loc 1 999 29
	ld	a5,-32(s0)
	addi	a2,a5,40
	.loc 1 996 13
	ld	a5,-72(s0)
	ld	a3,40(a5)
	ld	a4,-80(s0)
	li	a5,16
	la	a1,gEfiUsbHcProtocolGuid
	jalr	a6
.LVL30:
	sd	a0,-40(s0)
	.loc 1 1005 34
	ld	a5,-24(s0)
	.loc 1 1005 6
	bge	a5,zero,.L119
	.loc 1 1005 91 discriminator 1
	ld	a5,-40(s0)
	.loc 1 1005 60 discriminator 1
	bge	a5,zero,.L119
	.loc 1 1008 12
	li	a5,-1
	slli	a5,a5,63
	addi	a5,a5,7
	sd	a5,-24(s0)
	.loc 1 1009 5
	j	.L120
.L119:
	.loc 1 1012 7
	ld	a5,-24(s0)
	.loc 1 1012 6
	blt	a5,zero,.L121
	.loc 1 1018 15
	ld	a5,-32(s0)
	ld	a5,32(a5)
	.loc 1 1018 23
	lhu	a5,104(a5)
	.loc 1 1018 8
	sext.w	a4,a5
	li	a5,3
	bne	a4,a5,.L121
	.loc 1 1019 26
	ld	a5,-32(s0)
	li	a4,256
	sw	a4,48(a5)
.L121:
	.loc 1 1026 15
	la	a5,gBS
	ld	a5,0(a5)
	ld	a5,128(a5)
	.loc 1 1030 19
	ld	a4,-32(s0)
	addi	a3,a4,8
	.loc 1 1026 12
	addi	a4,s0,-80
	li	a2,0
	la	a1,gEfiCallerIdGuid
	mv	a0,a4
	jalr	a5
.LVL31:
	sd	a0,-24(s0)
	.loc 1 1033 34
	ld	a5,-24(s0)
	.loc 1 1033 6
	blt	a5,zero,.L133
	.loc 1 1041 3
	ld	a4,-32(s0)
	li	a5,4096
	addi	a5,a5,-1992
	add	a5,a4,a5
	mv	a0,a5
	call	InitializeListHead@plt
	.loc 1 1042 12
	ld	a5,-32(s0)
	addi	a5,a5,8
	ld	a1,-88(s0)
	mv	a0,a5
	call	UsbBusAddWantedUsbIoDP@plt
	sd	a0,-24(s0)
	.loc 1 1047 13
	li	a0,224
	call	AllocateZeroPool@plt
	sd	a0,-48(s0)
	.loc 1 1049 6
	ld	a5,-48(s0)
	bne	a5,zero,.L123
	.loc 1 1050 12
	li	a5,-1
	slli	a5,a5,63
	addi	a5,a5,9
	sd	a5,-24(s0)
	.loc 1 1051 5
	j	.L124
.L123:
	.loc 1 1054 12
	li	a0,208
	call	AllocateZeroPool@plt
	sd	a0,-56(s0)
	.loc 1 1056 6
	ld	a5,-56(s0)
	bne	a5,zero,.L125
	.loc 1 1057 5
	ld	a0,-48(s0)
	call	FreePool@plt
	.loc 1 1058 12
	li	a5,-1
	slli	a5,a5,63
	addi	a5,a5,9
	sd	a5,-24(s0)
	.loc 1 1059 5
	j	.L126
.L125:
	.loc 1 1062 16
	ld	a5,-48(s0)
	ld	a4,-32(s0)
	sd	a4,0(a5)
	.loc 1 1063 27
	ld	a5,-48(s0)
	li	a4,1
	sb	a4,66(a5)
	.loc 1 1064 26
	ld	a5,-48(s0)
	ld	a4,-56(s0)
	sd	a4,72(a5)
	.loc 1 1065 17
	ld	a5,-48(s0)
	sb	zero,217(a5)
	.loc 1 1066 21
	ld	a5,-56(s0)
	li	a4,1229082624
	addi	a4,a4,853
	sd	a4,0(a5)
	.loc 1 1067 18
	ld	a5,-56(s0)
	ld	a4,-48(s0)
	sd	a4,8(a5)
	.loc 1 1068 30
	ld	a5,-32(s0)
	ld	a4,24(a5)
	.loc 1 1068 22
	ld	a5,-56(s0)
	sd	a4,144(a5)
	.loc 1 1073 4
	call	ReportProgressCodeEnabled@plt
	mv	a5,a0
	.loc 1 1073 183 discriminator 1
	beq	a5,zero,.L127
	.loc 1 1073 169 discriminator 4
	ld	a5,-32(s0)
	ld	a5,24(a5)
	.loc 1 1073 80 discriminator 4
	mv	a2,a5
	li	a5,33685504
	addi	a1,a5,3
	li	a0,1
	call	ReportStatusCodeWithDevicePath@plt
	.loc 1 1073 183
	j	.L128
.L127:
	.loc 1 1073 186 discriminator 5
	call	ReportErrorCodeEnabled@plt
	.loc 1 1073 365 discriminator 9
	call	ReportDebugCodeEnabled@plt
.L128:
	.loc 1 1079 26
	la	a5,mUsbRootHubApi
	ld	a5,0(a5)
	.loc 1 1079 12
	ld	a0,-56(s0)
	jalr	a5
.LVL32:
	sd	a0,-24(s0)
	.loc 1 1081 34
	ld	a5,-24(s0)
	.loc 1 1081 6
	blt	a5,zero,.L134
	.loc 1 1086 22
	ld	a5,-32(s0)
	ld	a4,-48(s0)
	sd	a4,56(a5)
	.loc 1 1089 10
	li	a5,0
	j	.L117
.L134:
	.loc 1 1083 5
	nop
.L126:
	.loc 1 1092 6
	ld	a5,-56(s0)
	beq	a5,zero,.L130
	.loc 1 1093 5
	ld	a0,-56(s0)
	call	FreePool@plt
.L130:
	.loc 1 1096 6
	ld	a5,-48(s0)
	beq	a5,zero,.L135
	.loc 1 1097 5
	ld	a0,-48(s0)
	call	FreePool@plt
	j	.L124
.L135:
	.loc 1 1100 1
	nop
.L124:
	.loc 1 1101 6
	la	a5,gBS
	ld	a5,0(a5)
	ld	a5,144(a5)
	.loc 1 1101 3
	ld	a3,-80(s0)
	.loc 1 1101 67
	ld	a4,-32(s0)
	addi	a4,a4,8
	.loc 1 1101 3
	mv	a2,a4
	la	a1,gEfiCallerIdGuid
	mv	a0,a3
	jalr	a5
.LVL33:
	j	.L120
.L133:
	.loc 1 1035 5
	nop
.L120:
	.loc 1 1104 13
	ld	a5,-32(s0)
	ld	a5,32(a5)
	.loc 1 1104 6
	beq	a5,zero,.L131
	.loc 1 1105 8
	la	a5,gBS
	ld	a5,0(a5)
	ld	a5,288(a5)
	.loc 1 1105 5
	ld	a0,-80(s0)
	ld	a4,-72(s0)
	ld	a4,40(a4)
	ld	a3,-80(s0)
	mv	a2,a4
	la	a1,gEfiUsb2HcProtocolGuid
	jalr	a5
.LVL34:
.L131:
	.loc 1 1113 13
	ld	a5,-32(s0)
	ld	a5,40(a5)
	.loc 1 1113 6
	beq	a5,zero,.L132
	.loc 1 1114 8
	la	a5,gBS
	ld	a5,0(a5)
	ld	a5,288(a5)
	.loc 1 1114 5
	ld	a0,-80(s0)
	ld	a4,-72(s0)
	ld	a4,40(a4)
	ld	a3,-80(s0)
	mv	a2,a4
	la	a1,gEfiUsbHcProtocolGuid
	jalr	a5
.LVL35:
.L132:
	.loc 1 1122 6
	la	a5,gBS
	ld	a5,0(a5)
	ld	a5,288(a5)
	.loc 1 1122 3
	ld	a0,-80(s0)
	ld	a4,-72(s0)
	ld	a4,40(a4)
	ld	a3,-80(s0)
	mv	a2,a4
	la	a1,gEfiDevicePathProtocolGuid
	jalr	a5
.LVL36:
	.loc 1 1128 3
	ld	a0,-32(s0)
	call	FreePool@plt
	.loc 1 1131 10
	ld	a5,-24(s0)
.L117:
	.loc 1 1132 1
	mv	a0,a5
	ld	ra,88(sp)
	.cfi_restore 1
	ld	s0,80(sp)
	.cfi_restore 8
	.cfi_def_cfa 2, 96
	addi	sp,sp,96
	.cfi_def_cfa_offset 0
	jr	ra
	.cfi_endproc
.LFE13:
	.size	UsbBusBuildProtocol, .-UsbBusBuildProtocol
	.section	.text.UsbBusDriverEntryPoint,"ax",@progbits
	.align	1
	.globl	UsbBusDriverEntryPoint
	.type	UsbBusDriverEntryPoint, @function
UsbBusDriverEntryPoint:
.LFB14:
	.loc 1 1150 1
	.cfi_startproc
	addi	sp,sp,-32
	.cfi_def_cfa_offset 32
	sd	ra,24(sp)
	sd	s0,16(sp)
	.cfi_offset 1, -8
	.cfi_offset 8, -16
	addi	s0,sp,32
	.cfi_def_cfa 8, 0
	sd	a0,-24(s0)
	sd	a1,-32(s0)
	.loc 1 1151 10
	la	a5,mUsbBusComponentName2
	la	a4,mUsbBusComponentName
	ld	a3,-24(s0)
	lla	a2,mUsbBusDriverBinding
	ld	a1,-32(s0)
	ld	a0,-24(s0)
	call	EfiLibInstallDriverBindingComponentName2@plt
	mv	a5,a0
	.loc 1 1159 1
	mv	a0,a5
	ld	ra,24(sp)
	.cfi_restore 1
	ld	s0,16(sp)
	.cfi_restore 8
	.cfi_def_cfa 2, 32
	addi	sp,sp,32
	.cfi_def_cfa_offset 0
	jr	ra
	.cfi_endproc
.LFE14:
	.size	UsbBusDriverEntryPoint, .-UsbBusDriverEntryPoint
	.section	.text.UsbBusControllerDriverSupported,"ax",@progbits
	.align	1
	.globl	UsbBusControllerDriverSupported
	.type	UsbBusControllerDriverSupported, @function
UsbBusControllerDriverSupported:
.LFB15:
	.loc 1 1179 1
	.cfi_startproc
	addi	sp,sp,-96
	.cfi_def_cfa_offset 96
	sd	ra,88(sp)
	sd	s0,80(sp)
	.cfi_offset 1, -8
	.cfi_offset 8, -16
	addi	s0,sp,96
	.cfi_def_cfa 8, 0
	sd	a0,-72(s0)
	sd	a1,-80(s0)
	sd	a2,-88(s0)
	.loc 1 1189 6
	ld	a5,-88(s0)
	beq	a5,zero,.L139
	.loc 1 1194 10
	ld	a0,-88(s0)
	call	IsDevicePathEnd@plt
	mv	a5,a0
	.loc 1 1194 8 discriminator 1
	bne	a5,zero,.L139
	.loc 1 1199 30
	ld	a5,-88(s0)
	sd	a5,-32(s0)
	.loc 1 1201 26
	ld	a5,-32(s0)
	.loc 1 1201 34
	lbu	a5,0(a5)
	.loc 1 1201 10
	mv	a4,a5
	li	a5,3
	bne	a4,a5,.L140
	.loc 1 1202 28
	ld	a5,-32(s0)
	.loc 1 1202 36
	lbu	a5,1(a5)
	.loc 1 1201 50 discriminator 1
	mv	a4,a5
	li	a5,5
	beq	a4,a5,.L139
	.loc 1 1203 29
	ld	a5,-32(s0)
	.loc 1 1203 37
	lbu	a5,1(a5)
	.loc 1 1202 55
	mv	a4,a5
	li	a5,15
	beq	a4,a5,.L139
	.loc 1 1204 29
	ld	a5,-32(s0)
	.loc 1 1204 37
	lbu	a5,1(a5)
	.loc 1 1204 11
	mv	a4,a5
	li	a5,16
	beq	a4,a5,.L139
.L140:
	.loc 1 1207 16
	li	a5,-1
	slli	a5,a5,63
	addi	a5,a5,3
	j	.L149
.L139:
	.loc 1 1215 15
	la	a5,gBS
	ld	a5,0(a5)
	ld	a6,280(a5)
	.loc 1 1215 12
	ld	a5,-72(s0)
	ld	a3,40(a5)
	addi	a2,s0,-48
	li	a5,16
	ld	a4,-80(s0)
	la	a1,gEfiUsb2HcProtocolGuid
	ld	a0,-80(s0)
	jalr	a6
.LVL37:
	sd	a0,-24(s0)
	.loc 1 1223 6
	ld	a4,-24(s0)
	li	a5,-1
	slli	a5,a5,63
	addi	a5,a5,20
	bne	a4,a5,.L142
	.loc 1 1224 12
	li	a5,0
	j	.L149
.L142:
	.loc 1 1227 34
	ld	a5,-24(s0)
	.loc 1 1227 6
	bge	a5,zero,.L143
	.loc 1 1231 17
	la	a5,gBS
	ld	a5,0(a5)
	ld	a6,280(a5)
	.loc 1 1231 14
	ld	a5,-72(s0)
	ld	a3,40(a5)
	addi	a2,s0,-56
	li	a5,16
	ld	a4,-80(s0)
	la	a1,gEfiUsbHcProtocolGuid
	ld	a0,-80(s0)
	jalr	a6
.LVL38:
	sd	a0,-24(s0)
	.loc 1 1239 8
	ld	a4,-24(s0)
	li	a5,-1
	slli	a5,a5,63
	addi	a5,a5,20
	bne	a4,a5,.L144
	.loc 1 1240 14
	li	a5,0
	j	.L149
.L144:
	.loc 1 1243 36
	ld	a5,-24(s0)
	.loc 1 1243 8
	bge	a5,zero,.L145
	.loc 1 1244 14
	ld	a5,-24(s0)
	j	.L149
.L145:
	.loc 1 1250 8
	la	a5,gBS
	ld	a5,0(a5)
	ld	a5,288(a5)
	.loc 1 1250 5
	ld	a4,-72(s0)
	ld	a4,40(a4)
	ld	a3,-80(s0)
	mv	a2,a4
	la	a1,gEfiUsbHcProtocolGuid
	ld	a0,-80(s0)
	jalr	a5
.LVL39:
	j	.L146
.L143:
	.loc 1 1260 8
	la	a5,gBS
	ld	a5,0(a5)
	ld	a5,288(a5)
	.loc 1 1260 5
	ld	a4,-72(s0)
	ld	a4,40(a4)
	ld	a3,-80(s0)
	mv	a2,a4
	la	a1,gEfiUsb2HcProtocolGuid
	ld	a0,-80(s0)
	jalr	a5
.LVL40:
.L146:
	.loc 1 1271 15
	la	a5,gBS
	ld	a5,0(a5)
	ld	a6,280(a5)
	.loc 1 1271 12
	ld	a5,-72(s0)
	ld	a3,40(a5)
	addi	a2,s0,-40
	li	a5,16
	ld	a4,-80(s0)
	la	a1,gEfiDevicePathProtocolGuid
	ld	a0,-80(s0)
	jalr	a6
.LVL41:
	sd	a0,-24(s0)
	.loc 1 1279 6
	ld	a4,-24(s0)
	li	a5,-1
	slli	a5,a5,63
	addi	a5,a5,20
	bne	a4,a5,.L147
	.loc 1 1280 12
	li	a5,0
	j	.L149
.L147:
	.loc 1 1283 7
	ld	a5,-24(s0)
	.loc 1 1283 6
	blt	a5,zero,.L148
	.loc 1 1287 8
	la	a5,gBS
	ld	a5,0(a5)
	ld	a5,288(a5)
	.loc 1 1287 5
	ld	a4,-72(s0)
	ld	a4,40(a4)
	ld	a3,-80(s0)
	mv	a2,a4
	la	a1,gEfiDevicePathProtocolGuid
	ld	a0,-80(s0)
	jalr	a5
.LVL42:
	.loc 1 1294 12
	li	a5,0
	j	.L149
.L148:
	.loc 1 1297 10
	ld	a5,-24(s0)
.L149:
	.loc 1 1298 1
	mv	a0,a5
	ld	ra,88(sp)
	.cfi_restore 1
	ld	s0,80(sp)
	.cfi_restore 8
	.cfi_def_cfa 2, 96
	addi	sp,sp,96
	.cfi_def_cfa_offset 0
	jr	ra
	.cfi_endproc
.LFE15:
	.size	UsbBusControllerDriverSupported, .-UsbBusControllerDriverSupported
	.section	.text.UsbBusControllerDriverStart,"ax",@progbits
	.align	1
	.globl	UsbBusControllerDriverStart
	.type	UsbBusControllerDriverStart, @function
UsbBusControllerDriverStart:
.LFB16:
	.loc 1 1320 1
	.cfi_startproc
	addi	sp,sp,-80
	.cfi_def_cfa_offset 80
	sd	ra,72(sp)
	sd	s0,64(sp)
	.cfi_offset 1, -8
	.cfi_offset 8, -16
	addi	s0,sp,80
	.cfi_def_cfa 8, 0
	sd	a0,-56(s0)
	sd	a1,-64(s0)
	sd	a2,-72(s0)
	.loc 1 1325 15
	la	a5,gBS
	ld	a5,0(a5)
	ld	a6,280(a5)
	.loc 1 1325 12
	ld	a5,-56(s0)
	ld	a3,40(a5)
	addi	a2,s0,-40
	li	a5,2
	ld	a4,-64(s0)
	la	a1,gEfiDevicePathProtocolGuid
	ld	a0,-64(s0)
	jalr	a6
.LVL43:
	sd	a0,-24(s0)
	.loc 1 1338 4
	call	ReportProgressCodeEnabled@plt
	mv	a5,a0
	.loc 1 1338 181 discriminator 1
	beq	a5,zero,.L151
	.loc 1 1338 80 discriminator 4
	ld	a5,-40(s0)
	mv	a2,a5
	li	a1,33685504
	li	a0,1
	call	ReportStatusCodeWithDevicePath@plt
	.loc 1 1338 181
	j	.L152
.L151:
	.loc 1 1338 184 discriminator 5
	call	ReportErrorCodeEnabled@plt
	.loc 1 1338 361 discriminator 9
	call	ReportDebugCodeEnabled@plt
.L152:
	.loc 1 1348 15
	la	a5,gBS
	ld	a5,0(a5)
	ld	a6,280(a5)
	.loc 1 1348 12
	ld	a5,-56(s0)
	ld	a3,40(a5)
	addi	a2,s0,-32
	li	a5,2
	ld	a4,-64(s0)
	la	a1,gEfiCallerIdGuid
	ld	a0,-64(s0)
	jalr	a6
.LVL44:
	sd	a0,-24(s0)
	.loc 1 1357 34
	ld	a5,-24(s0)
	.loc 1 1357 6
	bge	a5,zero,.L153
	.loc 1 1361 6
	call	ReportProgressCodeEnabled@plt
	mv	a5,a0
	.loc 1 1361 152 discriminator 1
	beq	a5,zero,.L154
	.loc 1 1361 82 discriminator 4
	li	a5,33685504
	addi	a1,a5,4
	li	a0,1
	call	ReportStatusCode@plt
	.loc 1 1361 152
	j	.L155
.L154:
	.loc 1 1361 155 discriminator 5
	call	ReportErrorCodeEnabled@plt
	.loc 1 1361 301 discriminator 9
	call	ReportDebugCodeEnabled@plt
.L155:
	.loc 1 1362 14
	ld	a2,-72(s0)
	ld	a1,-64(s0)
	ld	a0,-56(s0)
	call	UsbBusBuildProtocol
	sd	a0,-24(s0)
	.loc 1 1363 36
	ld	a5,-24(s0)
	.loc 1 1363 8
	bge	a5,zero,.L156
	.loc 1 1364 14
	ld	a5,-24(s0)
	j	.L160
.L156:
	.loc 1 1370 17
	la	a5,gBS
	ld	a5,0(a5)
	ld	a6,280(a5)
	.loc 1 1370 14
	ld	a5,-56(s0)
	ld	a3,40(a5)
	addi	a2,s0,-32
	li	a5,2
	ld	a4,-64(s0)
	la	a1,gEfiCallerIdGuid
	ld	a0,-64(s0)
	jalr	a6
.LVL45:
	sd	a0,-24(s0)
	j	.L158
.L153:
	.loc 1 1389 8
	ld	a5,-72(s0)
	beq	a5,zero,.L159
	.loc 1 1390 11
	ld	a0,-72(s0)
	call	IsDevicePathEnd@plt
	mv	a5,a0
	.loc 1 1390 10 discriminator 1
	beq	a5,zero,.L159
	.loc 1 1395 16
	li	a5,0
	j	.L160
.L159:
	.loc 1 1399 14
	ld	a5,-32(s0)
	ld	a1,-72(s0)
	mv	a0,a5
	call	UsbBusAddWantedUsbIoDP@plt
	sd	a0,-24(s0)
	.loc 1 1404 14
	ld	a5,-32(s0)
	mv	a0,a5
	call	UsbBusRecursivelyConnectWantedUsbIo@plt
	sd	a0,-24(s0)
.L158:
	.loc 1 1408 10
	li	a5,0
.L160:
	.loc 1 1409 1
	mv	a0,a5
	ld	ra,72(sp)
	.cfi_restore 1
	ld	s0,64(sp)
	.cfi_restore 8
	.cfi_def_cfa 2, 80
	addi	sp,sp,80
	.cfi_def_cfa_offset 0
	jr	ra
	.cfi_endproc
.LFE16:
	.size	UsbBusControllerDriverStart, .-UsbBusControllerDriverStart
	.section	.text.UsbBusControllerDriverStop,"ax",@progbits
	.align	1
	.globl	UsbBusControllerDriverStop
	.type	UsbBusControllerDriverStop, @function
UsbBusControllerDriverStop:
.LFB17:
	.loc 1 1432 1
	.cfi_startproc
	addi	sp,sp,-144
	.cfi_def_cfa_offset 144
	sd	ra,136(sp)
	sd	s0,128(sp)
	.cfi_offset 1, -8
	.cfi_offset 8, -16
	addi	s0,sp,144
	.cfi_def_cfa 8, 0
	sd	a0,-120(s0)
	sd	a1,-128(s0)
	sd	a2,-136(s0)
	sd	a3,-144(s0)
	.loc 1 1445 10
	sd	zero,-48(s0)
	.loc 1 1447 6
	ld	a5,-136(s0)
	beq	a5,zero,.L162
	.loc 1 1451 17
	la	a5,gBS
	ld	a5,0(a5)
	ld	a5,24(a5)
	.loc 1 1451 14
	li	a0,8
	jalr	a5
.LVL46:
	sd	a0,-64(s0)
	.loc 1 1453 18
	sd	zero,-56(s0)
	.loc 1 1454 16
	sd	zero,-40(s0)
	.loc 1 1454 5
	j	.L163
.L168:
	.loc 1 1455 19
	la	a5,gBS
	ld	a5,0(a5)
	ld	a6,280(a5)
	.loc 1 1456 40
	ld	a5,-40(s0)
	slli	a5,a5,3
	ld	a4,-144(s0)
	add	a5,a4,a5
	.loc 1 1455 16
	ld	a0,0(a5)
	ld	a5,-120(s0)
	ld	a3,40(a5)
	addi	a2,s0,-104
	li	a5,2
	ld	a4,-128(s0)
	la	a1,gEfiUsbIoProtocolGuid
	jalr	a6
.LVL47:
	sd	a0,-48(s0)
	.loc 1 1464 38
	ld	a5,-48(s0)
	.loc 1 1464 10
	blt	a5,zero,.L180
	.loc 1 1474 35
	ld	a5,-104(s0)
	.loc 1 1474 17
	addi	a5,a5,-40
	.loc 1 1474 117
	ld	a4,0(a5)
	.loc 1 1474 202
	li	a5,1229082624
	addi	a5,a5,853
	bne	a4,a5,.L166
	.loc 1 1474 223 discriminator 1
	ld	a5,-104(s0)
	.loc 1 1474 13 discriminator 1
	addi	a5,a5,-40
	sd	a5,-32(s0)
	j	.L167
.L166:
	.loc 1 1474 13 is_stmt 0 discriminator 2
	sd	zero,-32(s0)
.L167:
	.loc 1 1475 14 is_stmt 1
	ld	a5,-32(s0)
	ld	a5,8(a5)
	sd	a5,-88(s0)
	.loc 1 1477 22
	ld	a0,-88(s0)
	call	UsbRemoveDevice@plt
	sd	a0,-56(s0)
	j	.L165
.L180:
	.loc 1 1471 9
	nop
.L165:
	.loc 1 1454 52 discriminator 2
	ld	a5,-40(s0)
	addi	a5,a5,1
	sd	a5,-40(s0)
.L163:
	.loc 1 1454 27 discriminator 1
	ld	a4,-40(s0)
	ld	a5,-136(s0)
	bltu	a4,a5,.L168
	.loc 1 1480 8
	la	a5,gBS
	ld	a5,0(a5)
	ld	a5,32(a5)
	.loc 1 1480 5
	ld	a0,-64(s0)
	jalr	a5
.LVL48:
	.loc 1 1481 12
	ld	a5,-56(s0)
	j	.L179
.L162:
	.loc 1 1489 15
	la	a5,gBS
	ld	a5,0(a5)
	ld	a6,280(a5)
	.loc 1 1489 12
	ld	a5,-120(s0)
	ld	a3,40(a5)
	addi	a2,s0,-96
	li	a5,2
	ld	a4,-128(s0)
	la	a1,gEfiCallerIdGuid
	ld	a0,-128(s0)
	jalr	a6
.LVL49:
	sd	a0,-48(s0)
	.loc 1 1498 34
	ld	a5,-48(s0)
	.loc 1 1498 6
	bge	a5,zero,.L170
	.loc 1 1499 12
	ld	a5,-48(s0)
	j	.L179
.L170:
	.loc 1 1502 23
	ld	a5,-96(s0)
	.loc 1 1502 11
	addi	a5,a5,-8
	.loc 1 1502 99
	ld	a4,0(a5)
	.loc 1 1502 184
	li	a5,1111642112
	addi	a5,a5,853
	bne	a4,a5,.L171
	.loc 1 1502 199 discriminator 1
	ld	a5,-96(s0)
	.loc 1 1502 7 discriminator 1
	addi	a5,a5,-8
	sd	a5,-24(s0)
	j	.L172
.L171:
	.loc 1 1502 7 is_stmt 0 discriminator 2
	sd	zero,-24(s0)
.L172:
	.loc 1 1509 15 is_stmt 1
	la	a5,gBS
	ld	a5,0(a5)
	ld	a5,24(a5)
	.loc 1 1509 12
	li	a0,8
	jalr	a5
.LVL50:
	sd	a0,-64(s0)
	.loc 1 1511 11
	ld	a5,-24(s0)
	ld	a5,56(a5)
	sd	a5,-72(s0)
	.loc 1 1512 10
	ld	a5,-72(s0)
	ld	a5,72(a5)
	sd	a5,-80(s0)
	.loc 1 1515 16
	sd	zero,-56(s0)
	.loc 1 1516 14
	li	a5,1
	sd	a5,-40(s0)
	.loc 1 1516 3
	j	.L173
.L175:
	.loc 1 1517 21
	ld	a4,-24(s0)
	ld	a5,-40(s0)
	addi	a5,a5,6
	slli	a5,a5,3
	add	a5,a4,a5
	ld	a5,8(a5)
	.loc 1 1517 8
	beq	a5,zero,.L174
	.loc 1 1518 16
	ld	a4,-24(s0)
	ld	a5,-40(s0)
	addi	a5,a5,6
	slli	a5,a5,3
	add	a5,a4,a5
	ld	a5,8(a5)
	mv	a0,a5
	call	UsbRemoveDevice@plt
	sd	a0,-48(s0)
	.loc 1 1519 38
	ld	a5,-48(s0)
	.loc 1 1519 10
	bge	a5,zero,.L174
	.loc 1 1520 22
	ld	a5,-48(s0)
	sd	a5,-56(s0)
.L174:
	.loc 1 1516 49 discriminator 2
	ld	a5,-40(s0)
	addi	a5,a5,1
	sd	a5,-40(s0)
.L173:
	.loc 1 1516 30 discriminator 1
	ld	a5,-24(s0)
	lw	a5,48(a5)
	slli	a5,a5,32
	srli	a5,a5,32
	.loc 1 1516 25 discriminator 1
	ld	a4,-40(s0)
	bltu	a4,a5,.L175
	.loc 1 1525 6
	la	a5,gBS
	ld	a5,0(a5)
	ld	a5,32(a5)
	.loc 1 1525 3
	ld	a0,-64(s0)
	jalr	a5
.LVL51:
	.loc 1 1527 7
	ld	a5,-56(s0)
	.loc 1 1527 6
	blt	a5,zero,.L176
	.loc 1 1528 19
	la	a5,mUsbRootHubApi
	ld	a5,48(a5)
	.loc 1 1528 5
	ld	a0,-80(s0)
	jalr	a5
.LVL52:
	.loc 1 1529 8
	la	a5,gBS
	ld	a5,0(a5)
	ld	a5,72(a5)
	.loc 1 1529 5
	ld	a0,-80(s0)
	jalr	a5
.LVL53:
	.loc 1 1530 8
	la	a5,gBS
	ld	a5,0(a5)
	ld	a5,72(a5)
	.loc 1 1530 5
	ld	a0,-72(s0)
	jalr	a5
.LVL54:
	.loc 1 1532 14
	ld	a4,-24(s0)
	li	a5,4096
	addi	a5,a5,-1992
	add	a5,a4,a5
	mv	a0,a5
	call	UsbBusFreeUsbDPList@plt
	sd	a0,-48(s0)
	.loc 1 1538 8
	la	a5,gBS
	ld	a5,0(a5)
	ld	a5,144(a5)
	.loc 1 1538 69
	ld	a4,-24(s0)
	addi	a4,a4,8
	.loc 1 1538 5
	mv	a2,a4
	la	a1,gEfiCallerIdGuid
	ld	a0,-128(s0)
	jalr	a5
.LVL55:
	.loc 1 1540 12
	ld	a5,-24(s0)
	ld	a5,32(a5)
	.loc 1 1540 8
	beq	a5,zero,.L177
	.loc 1 1541 19
	la	a5,gBS
	ld	a5,0(a5)
	ld	a5,288(a5)
	.loc 1 1541 16
	ld	a4,-120(s0)
	ld	a4,40(a4)
	ld	a3,-128(s0)
	mv	a2,a4
	la	a1,gEfiUsb2HcProtocolGuid
	ld	a0,-128(s0)
	jalr	a5
.LVL56:
	sd	a0,-48(s0)
.L177:
	.loc 1 1549 12
	ld	a5,-24(s0)
	ld	a5,40(a5)
	.loc 1 1549 8
	beq	a5,zero,.L178
	.loc 1 1550 19
	la	a5,gBS
	ld	a5,0(a5)
	ld	a5,288(a5)
	.loc 1 1550 16
	ld	a4,-120(s0)
	ld	a4,40(a4)
	ld	a3,-128(s0)
	mv	a2,a4
	la	a1,gEfiUsbHcProtocolGuid
	ld	a0,-128(s0)
	jalr	a5
.LVL57:
	sd	a0,-48(s0)
.L178:
	.loc 1 1558 9
	ld	a5,-48(s0)
	.loc 1 1558 8
	blt	a5,zero,.L176
	.loc 1 1559 10
	la	a5,gBS
	ld	a5,0(a5)
	ld	a5,288(a5)
	.loc 1 1559 7
	ld	a4,-120(s0)
	ld	a4,40(a4)
	ld	a3,-128(s0)
	mv	a2,a4
	la	a1,gEfiDevicePathProtocolGuid
	ld	a0,-128(s0)
	jalr	a5
.LVL58:
	.loc 1 1566 10
	la	a5,gBS
	ld	a5,0(a5)
	ld	a5,72(a5)
	.loc 1 1566 7
	ld	a0,-24(s0)
	jalr	a5
.LVL59:
.L176:
	.loc 1 1570 10
	ld	a5,-48(s0)
.L179:
	.loc 1 1571 1
	mv	a0,a5
	ld	ra,136(sp)
	.cfi_restore 1
	ld	s0,128(sp)
	.cfi_restore 8
	.cfi_def_cfa 2, 144
	addi	sp,sp,144
	.cfi_def_cfa_offset 0
	jr	ra
	.cfi_endproc
.LFE17:
	.size	UsbBusControllerDriverStop, .-UsbBusControllerDriverStop
	.text
.Letext0:
	.file 2 "/home/kapoagaeming/Downloads/spacemit-image-builder/components/edk2/MdePkg/Include/RiscV64/ProcessorBind.h"
	.file 3 "/home/kapoagaeming/Downloads/spacemit-image-builder/components/edk2/MdePkg/Include/Base.h"
	.file 4 "/home/kapoagaeming/Downloads/spacemit-image-builder/components/edk2/MdePkg/Include/Uefi/UefiBaseType.h"
	.file 5 "/home/kapoagaeming/Downloads/spacemit-image-builder/components/edk2/MdePkg/Include/Uefi/UefiMultiPhase.h"
	.file 6 "/home/kapoagaeming/Downloads/spacemit-image-builder/components/edk2/MdePkg/Include/IndustryStandard/Bluetooth.h"
	.file 7 "/home/kapoagaeming/Downloads/spacemit-image-builder/components/edk2/MdePkg/Include/Protocol/DevicePath.h"
	.file 8 "/home/kapoagaeming/Downloads/spacemit-image-builder/components/edk2/MdePkg/Include/Protocol/SimpleTextIn.h"
	.file 9 "/home/kapoagaeming/Downloads/spacemit-image-builder/components/edk2/MdePkg/Include/Protocol/SimpleTextOut.h"
	.file 10 "/home/kapoagaeming/Downloads/spacemit-image-builder/components/edk2/MdePkg/Include/Uefi/UefiSpec.h"
	.file 11 "/home/kapoagaeming/Downloads/spacemit-image-builder/components/Build/Milk-V-Jupiter/RELEASE_GCC5/RISCV64/MdeModulePkg/Bus/Usb/UsbBusDxe/UsbBusDxe/DEBUG/AutoGen.h"
	.file 12 "/home/kapoagaeming/Downloads/spacemit-image-builder/components/edk2/MdePkg/Include/IndustryStandard/Usb.h"
	.file 13 "/home/kapoagaeming/Downloads/spacemit-image-builder/components/edk2/MdePkg/Include/Protocol/UsbIo.h"
	.file 14 "/home/kapoagaeming/Downloads/spacemit-image-builder/components/edk2/MdePkg/Include/Protocol/Usb2HostController.h"
	.file 15 "/home/kapoagaeming/Downloads/spacemit-image-builder/components/edk2/MdePkg/Include/Protocol/UsbHostController.h"
	.file 16 "/home/kapoagaeming/Downloads/spacemit-image-builder/components/edk2/MdePkg/Include/Protocol/DriverBinding.h"
	.file 17 "/home/kapoagaeming/Downloads/spacemit-image-builder/components/edk2/MdePkg/Include/Protocol/ComponentName.h"
	.file 18 "/home/kapoagaeming/Downloads/spacemit-image-builder/components/edk2/MdePkg/Include/Protocol/ComponentName2.h"
	.file 19 "/home/kapoagaeming/Downloads/spacemit-image-builder/components/edk2/MdePkg/Include/Pi/PiStatusCode.h"
	.file 20 "/home/kapoagaeming/Downloads/spacemit-image-builder/components/edk2/MdeModulePkg/Bus/Usb/UsbBusDxe/UsbBus.h"
	.file 21 "/home/kapoagaeming/Downloads/spacemit-image-builder/components/edk2/MdeModulePkg/Bus/Usb/UsbBusDxe/UsbDesc.h"
	.file 22 "/home/kapoagaeming/Downloads/spacemit-image-builder/components/edk2/MdeModulePkg/Bus/Usb/UsbBusDxe/UsbHub.h"
	.file 23 "/home/kapoagaeming/Downloads/spacemit-image-builder/components/edk2/MdeModulePkg/Bus/Usb/UsbBusDxe/UsbEnumer.h"
	.file 24 "/home/kapoagaeming/Downloads/spacemit-image-builder/components/edk2/MdePkg/Include/Library/ReportStatusCodeLib.h"
	.file 25 "/home/kapoagaeming/Downloads/spacemit-image-builder/components/edk2/MdePkg/Include/Library/DevicePathLib.h"
	.file 26 "/home/kapoagaeming/Downloads/spacemit-image-builder/components/edk2/MdePkg/Include/Library/UefiLib.h"
	.file 27 "/home/kapoagaeming/Downloads/spacemit-image-builder/components/edk2/MdePkg/Include/Library/BaseLib.h"
	.file 28 "/home/kapoagaeming/Downloads/spacemit-image-builder/components/edk2/MdePkg/Include/Library/MemoryAllocationLib.h"
	.file 29 "/home/kapoagaeming/Downloads/spacemit-image-builder/components/edk2/MdePkg/Include/Library/BaseMemoryLib.h"
	.file 30 "/home/kapoagaeming/Downloads/spacemit-image-builder/components/edk2/MdeModulePkg/Bus/Usb/UsbBusDxe/UsbUtility.h"
	.file 31 "/home/kapoagaeming/Downloads/spacemit-image-builder/components/edk2/MdePkg/Include/Library/UefiBootServicesTableLib.h"
	.section	.note.GNU-stack,"",@progbits
