	.file	"UsbDesc.c"
	.option pic
	.option norelax
	.attribute arch, "rv64i2p1_m2p0_a2p1_f2p2_d2p2_c2p0_zicsr2p0_zifencei2p0_zmmul1p0_zaamo1p0_zalrsc1p0_zca1p0_zcd1p0"
	.attribute unaligned_access, 0
	.attribute stack_align, 16
	.text
.Ltext0:
	.cfi_sections	.debug_frame
	.file 0 "/home/kapoagaeming/spacemit-image-builder/components/Build/Milk-V-Jupiter/RELEASE_GCC5/RISCV64/MdeModulePkg/Bus/Usb/UsbBusDxe/UsbBusDxe" "/home/kapoagaeming/spacemit-image-builder/components/edk2/MdeModulePkg/Bus/Usb/UsbBusDxe/UsbDesc.c"
	.section	.text.UsbFreeInterfaceDesc,"ax",@progbits
	.align	1
	.globl	UsbFreeInterfaceDesc
	.type	UsbFreeInterfaceDesc, @function
UsbFreeInterfaceDesc:
.LFB0:
	.file 1 "/home/kapoagaeming/spacemit-image-builder/components/edk2/MdeModulePkg/Bus/Usb/UsbBusDxe/UsbDesc.c"
	.loc 1 22 1
	.cfi_startproc
	addi	sp,sp,-48
	.cfi_def_cfa_offset 48
	sd	ra,40(sp)
	sd	s0,32(sp)
	.cfi_offset 1, -8
	.cfi_offset 8, -16
	addi	s0,sp,48
	.cfi_def_cfa 8, 0
	sd	a0,-40(s0)
	.loc 1 26 14
	ld	a5,-40(s0)
	ld	a5,16(a5)
	.loc 1 26 6
	beq	a5,zero,.L2
	.loc 1 30 16
	sd	zero,-24(s0)
	.loc 1 30 5
	j	.L3
.L5:
	.loc 1 31 19
	ld	a5,-40(s0)
	ld	a4,16(a5)
	.loc 1 31 30
	ld	a5,-24(s0)
	slli	a5,a5,3
	add	a5,a4,a5
	.loc 1 31 10
	ld	a5,0(a5)
	sd	a5,-32(s0)
	.loc 1 33 10
	ld	a5,-32(s0)
	beq	a5,zero,.L4
	.loc 1 34 9
	ld	a0,-32(s0)
	call	FreePool@plt
.L4:
	.loc 1 30 62 discriminator 2
	ld	a5,-24(s0)
	addi	a5,a5,1
	sd	a5,-24(s0)
.L3:
	.loc 1 30 42 discriminator 1
	ld	a5,-40(s0)
	lbu	a5,4(a5)
	mv	a4,a5
	.loc 1 30 27 discriminator 1
	ld	a5,-24(s0)
	bltu	a5,a4,.L5
	.loc 1 41 22
	ld	a5,-40(s0)
	lbu	a5,4(a5)
	.loc 1 41 8
	beq	a5,zero,.L2
	.loc 1 42 24
	ld	a5,-40(s0)
	ld	a5,16(a5)
	.loc 1 42 7
	mv	a0,a5
	call	FreePool@plt
.L2:
	.loc 1 46 3
	ld	a0,-40(s0)
	call	FreePool@plt
	.loc 1 47 1
	nop
	ld	ra,40(sp)
	.cfi_restore 1
	ld	s0,32(sp)
	.cfi_restore 8
	.cfi_def_cfa 2, 48
	addi	sp,sp,48
	.cfi_def_cfa_offset 0
	jr	ra
	.cfi_endproc
.LFE0:
	.size	UsbFreeInterfaceDesc, .-UsbFreeInterfaceDesc
	.section	.text.UsbFreeConfigDesc,"ax",@progbits
	.align	1
	.globl	UsbFreeConfigDesc
	.type	UsbFreeConfigDesc, @function
UsbFreeConfigDesc:
.LFB1:
	.loc 1 60 1
	.cfi_startproc
	addi	sp,sp,-64
	.cfi_def_cfa_offset 64
	sd	ra,56(sp)
	sd	s0,48(sp)
	.cfi_offset 1, -8
	.cfi_offset 8, -16
	addi	s0,sp,64
	.cfi_def_cfa 8, 0
	sd	a0,-56(s0)
	.loc 1 65 13
	ld	a5,-56(s0)
	ld	a5,16(a5)
	.loc 1 65 6
	beq	a5,zero,.L7
	.loc 1 69 16
	sd	zero,-24(s0)
	.loc 1 69 5
	j	.L8
.L14:
	.loc 1 70 25
	ld	a5,-56(s0)
	ld	a4,16(a5)
	.loc 1 70 37
	ld	a5,-24(s0)
	slli	a5,a5,3
	add	a5,a4,a5
	.loc 1 70 17
	ld	a5,0(a5)
	sd	a5,-40(s0)
	.loc 1 72 10
	ld	a5,-40(s0)
	beq	a5,zero,.L15
	.loc 1 79 21
	sd	zero,-32(s0)
	.loc 1 79 7
	j	.L11
.L13:
	.loc 1 80 32
	ld	a4,-40(s0)
	ld	a5,-32(s0)
	slli	a5,a5,3
	add	a5,a4,a5
	ld	a5,0(a5)
	.loc 1 80 12
	beq	a5,zero,.L12
	.loc 1 81 11
	ld	a4,-40(s0)
	ld	a5,-32(s0)
	slli	a5,a5,3
	add	a5,a4,a5
	ld	a5,0(a5)
	mv	a0,a5
	call	UsbFreeInterfaceDesc
.L12:
	.loc 1 79 70 discriminator 2
	ld	a5,-32(s0)
	addi	a5,a5,1
	sd	a5,-32(s0)
.L11:
	.loc 1 79 46 discriminator 1
	ld	a4,-40(s0)
	li	a5,4096
	add	a5,a4,a5
	ld	a5,-2048(a5)
	.loc 1 79 35 discriminator 1
	ld	a4,-32(s0)
	bltu	a4,a5,.L13
	.loc 1 85 7
	ld	a0,-40(s0)
	call	FreePool@plt
	j	.L10
.L15:
	.loc 1 73 9
	nop
.L10:
	.loc 1 69 62 discriminator 2
	ld	a5,-24(s0)
	addi	a5,a5,1
	sd	a5,-24(s0)
.L8:
	.loc 1 69 41 discriminator 1
	ld	a5,-56(s0)
	lbu	a5,4(a5)
	mv	a4,a5
	.loc 1 69 27 discriminator 1
	ld	a5,-24(s0)
	bltu	a5,a4,.L14
	.loc 1 88 21
	ld	a5,-56(s0)
	ld	a5,16(a5)
	.loc 1 88 5
	mv	a0,a5
	call	FreePool@plt
.L7:
	.loc 1 91 3
	ld	a0,-56(s0)
	call	FreePool@plt
	.loc 1 92 1
	nop
	ld	ra,56(sp)
	.cfi_restore 1
	ld	s0,48(sp)
	.cfi_restore 8
	.cfi_def_cfa 2, 64
	addi	sp,sp,64
	.cfi_def_cfa_offset 0
	jr	ra
	.cfi_endproc
.LFE1:
	.size	UsbFreeConfigDesc, .-UsbFreeConfigDesc
	.section	.text.UsbFreeDevDesc,"ax",@progbits
	.align	1
	.globl	UsbFreeDevDesc
	.type	UsbFreeDevDesc, @function
UsbFreeDevDesc:
.LFB2:
	.loc 1 104 1
	.cfi_startproc
	addi	sp,sp,-48
	.cfi_def_cfa_offset 48
	sd	ra,40(sp)
	sd	s0,32(sp)
	.cfi_offset 1, -8
	.cfi_offset 8, -16
	addi	s0,sp,48
	.cfi_def_cfa 8, 0
	sd	a0,-40(s0)
	.loc 1 107 14
	ld	a5,-40(s0)
	ld	a5,24(a5)
	.loc 1 107 6
	beq	a5,zero,.L17
	.loc 1 108 16
	sd	zero,-24(s0)
	.loc 1 108 5
	j	.L18
.L20:
	.loc 1 109 18
	ld	a5,-40(s0)
	ld	a4,24(a5)
	.loc 1 109 27
	ld	a5,-24(s0)
	slli	a5,a5,3
	add	a5,a4,a5
	ld	a5,0(a5)
	.loc 1 109 10
	beq	a5,zero,.L19
	.loc 1 110 35
	ld	a5,-40(s0)
	ld	a4,24(a5)
	.loc 1 110 44
	ld	a5,-24(s0)
	slli	a5,a5,3
	add	a5,a4,a5
	.loc 1 110 9
	ld	a5,0(a5)
	mv	a0,a5
	call	UsbFreeConfigDesc
.L19:
	.loc 1 108 67 discriminator 2
	ld	a5,-24(s0)
	addi	a5,a5,1
	sd	a5,-24(s0)
.L18:
	.loc 1 108 42 discriminator 1
	ld	a5,-40(s0)
	lbu	a5,17(a5)
	mv	a4,a5
	.loc 1 108 27 discriminator 1
	ld	a5,-24(s0)
	bltu	a5,a4,.L20
	.loc 1 114 22
	ld	a5,-40(s0)
	ld	a5,24(a5)
	.loc 1 114 5
	mv	a0,a5
	call	FreePool@plt
.L17:
	.loc 1 117 3
	ld	a0,-40(s0)
	call	FreePool@plt
	.loc 1 118 1
	nop
	ld	ra,40(sp)
	.cfi_restore 1
	ld	s0,32(sp)
	.cfi_restore 8
	.cfi_def_cfa 2, 48
	addi	sp,sp,48
	.cfi_def_cfa_offset 0
	jr	ra
	.cfi_endproc
.LFE2:
	.size	UsbFreeDevDesc, .-UsbFreeDevDesc
	.section	.text.UsbCreateDesc,"ax",@progbits
	.align	1
	.globl	UsbCreateDesc
	.type	UsbCreateDesc, @function
UsbCreateDesc:
.LFB3:
	.loc 1 138 1
	.cfi_startproc
	addi	sp,sp,-96
	.cfi_def_cfa_offset 96
	sd	ra,88(sp)
	sd	s0,80(sp)
	.cfi_offset 1, -8
	.cfi_offset 8, -16
	addi	s0,sp,96
	.cfi_def_cfa 8, 0
	sd	a0,-72(s0)
	sd	a1,-80(s0)
	mv	a5,a2
	sd	a3,-96(s0)
	sb	a5,-81(s0)
	.loc 1 145 11
	sd	zero,-32(s0)
	.loc 1 146 11
	sd	zero,-24(s0)
	.loc 1 147 13
	ld	a5,-96(s0)
	sd	zero,0(a5)
	.loc 1 149 3
	lbu	a5,-81(s0)
	sext.w	a5,a5
	li	a4,5
	beq	a5,a4,.L22
	li	a4,5
	bgt	a5,a4,.L23
	li	a4,4
	beq	a5,a4,.L24
	li	a4,4
	bgt	a5,a4,.L23
	li	a4,1
	beq	a5,a4,.L25
	li	a4,2
	beq	a5,a4,.L26
	j	.L23
.L25:
	.loc 1 151 15
	li	a5,18
	sd	a5,-32(s0)
	.loc 1 152 15
	li	a5,32
	sd	a5,-24(s0)
	.loc 1 153 7
	j	.L27
.L26:
	.loc 1 156 15
	li	a5,9
	sd	a5,-32(s0)
	.loc 1 157 15
	li	a5,24
	sd	a5,-24(s0)
	.loc 1 158 7
	j	.L27
.L24:
	.loc 1 161 15
	li	a5,9
	sd	a5,-32(s0)
	.loc 1 162 15
	li	a5,24
	sd	a5,-24(s0)
	.loc 1 163 7
	j	.L27
.L22:
	.loc 1 166 15
	li	a5,7
	sd	a5,-32(s0)
	.loc 1 167 15
	li	a5,8
	sd	a5,-24(s0)
	.loc 1 168 7
	j	.L27
.L23:
	.loc 1 172 14
	li	a5,0
	j	.L28
.L27:
	.loc 1 178 6
	ld	a4,-80(s0)
	li	a5,2
	bgtu	a4,a5,.L29
	.loc 1 180 12
	li	a5,0
	j	.L28
.L29:
	.loc 1 187 10
	sd	zero,-40(s0)
	.loc 1 188 8
	ld	a5,-72(s0)
	sd	a5,-48(s0)
	.loc 1 189 9
	j	.L30
.L34:
	.loc 1 193 10
	ld	a4,-72(s0)
	ld	a5,-40(s0)
	add	a5,a4,a5
	sd	a5,-48(s0)
	.loc 1 195 13
	ld	a5,-48(s0)
	lbu	a5,0(a5)
	.loc 1 195 8
	bne	a5,zero,.L31
	.loc 1 197 14
	li	a5,0
	j	.L28
.L31:
	.loc 1 203 13
	ld	a5,-48(s0)
	lbu	a5,0(a5)
	mv	a4,a5
	.loc 1 203 52
	ld	a5,-40(s0)
	not	a5,a5
	.loc 1 203 8
	bleu	a4,a5,.L32
	.loc 1 205 14
	li	a5,0
	j	.L28
.L32:
	.loc 1 208 19
	ld	a5,-48(s0)
	lbu	a5,0(a5)
	mv	a4,a5
	.loc 1 208 12
	ld	a5,-40(s0)
	add	a5,a5,a4
	sd	a5,-40(s0)
	.loc 1 210 13
	ld	a5,-48(s0)
	lbu	a4,1(a5)
	.loc 1 210 8
	lbu	a5,-81(s0)
	andi	a5,a5,0xff
	beq	a5,a4,.L39
.L30:
	.loc 1 189 23
	ld	a5,-80(s0)
	addi	a5,a5,-2
	.loc 1 189 17
	ld	a4,-40(s0)
	bltu	a4,a5,.L34
	j	.L33
.L39:
	.loc 1 211 7
	nop
.L33:
	.loc 1 219 6
	ld	a4,-80(s0)
	ld	a5,-40(s0)
	bgeu	a4,a5,.L35
	.loc 1 221 12
	li	a5,0
	j	.L28
.L35:
	.loc 1 224 12
	ld	a5,-48(s0)
	lbu	a4,1(a5)
	.loc 1 224 6
	lbu	a5,-81(s0)
	andi	a5,a5,0xff
	bne	a5,a4,.L36
	.loc 1 224 36 discriminator 1
	ld	a5,-48(s0)
	lbu	a5,0(a5)
	mv	a4,a5
	.loc 1 224 28 discriminator 1
	ld	a5,-32(s0)
	bleu	a5,a4,.L37
.L36:
	.loc 1 226 12
	li	a5,0
	j	.L28
.L37:
	.loc 1 229 10
	ld	a0,-24(s0)
	call	AllocateZeroPool@plt
	sd	a0,-56(s0)
	.loc 1 230 6
	ld	a5,-56(s0)
	bne	a5,zero,.L38
	.loc 1 231 12
	li	a5,0
	j	.L28
.L38:
	.loc 1 234 3
	ld	a2,-32(s0)
	ld	a1,-48(s0)
	ld	a0,-56(s0)
	call	CopyMem@plt
	.loc 1 236 13
	ld	a5,-96(s0)
	ld	a4,-40(s0)
	sd	a4,0(a5)
	.loc 1 238 10
	ld	a5,-56(s0)
.L28:
	.loc 1 239 1
	mv	a0,a5
	ld	ra,88(sp)
	.cfi_restore 1
	ld	s0,80(sp)
	.cfi_restore 8
	.cfi_def_cfa 2, 96
	addi	sp,sp,96
	.cfi_def_cfa_offset 0
	jr	ra
	.cfi_endproc
.LFE3:
	.size	UsbCreateDesc, .-UsbCreateDesc
	.section	.text.UsbParseInterfaceDesc,"ax",@progbits
	.align	1
	.globl	UsbParseInterfaceDesc
	.type	UsbParseInterfaceDesc, @function
UsbParseInterfaceDesc:
.LFB4:
	.loc 1 257 1
	.cfi_startproc
	addi	sp,sp,-96
	.cfi_def_cfa_offset 96
	sd	ra,88(sp)
	sd	s0,80(sp)
	.cfi_offset 1, -8
	.cfi_offset 8, -16
	addi	s0,sp,96
	.cfi_def_cfa 8, 0
	sd	a0,-72(s0)
	sd	a1,-80(s0)
	sd	a2,-88(s0)
	.loc 1 265 13
	ld	a5,-88(s0)
	sd	zero,0(a5)
	.loc 1 266 13
	addi	a5,s0,-64
	mv	a3,a5
	li	a2,4
	ld	a1,-80(s0)
	ld	a0,-72(s0)
	call	UsbCreateDesc
	sd	a0,-40(s0)
	.loc 1 268 6
	ld	a5,-40(s0)
	bne	a5,zero,.L41
	.loc 1 270 12
	li	a5,0
	j	.L50
.L41:
	.loc 1 273 10
	ld	a5,-64(s0)
	sd	a5,-24(s0)
	.loc 1 278 24
	ld	a5,-40(s0)
	lbu	a5,4(a5)
	.loc 1 278 9
	sd	a5,-48(s0)
	.loc 1 288 6
	ld	a5,-48(s0)
	beq	a5,zero,.L51
	.loc 1 292 71
	ld	a5,-48(s0)
	slli	a5,a5,3
	.loc 1 292 24
	mv	a0,a5
	call	AllocateZeroPool@plt
	mv	a4,a0
	.loc 1 292 22 discriminator 1
	ld	a5,-40(s0)
	sd	a4,16(a5)
	.loc 1 294 14
	ld	a5,-40(s0)
	ld	a5,16(a5)
	.loc 1 294 6
	beq	a5,zero,.L52
	.loc 1 301 14
	sd	zero,-32(s0)
	.loc 1 301 3
	j	.L47
.L49:
	.loc 1 302 10
	ld	a4,-72(s0)
	ld	a5,-24(s0)
	add	a0,a4,a5
	ld	a4,-80(s0)
	ld	a5,-24(s0)
	sub	a5,a4,a5
	addi	a4,s0,-64
	mv	a3,a4
	li	a2,5
	mv	a1,a5
	call	UsbCreateDesc
	sd	a0,-56(s0)
	.loc 1 304 8
	ld	a5,-56(s0)
	beq	a5,zero,.L53
	.loc 1 309 12
	ld	a5,-40(s0)
	ld	a4,16(a5)
	.loc 1 309 23
	ld	a5,-32(s0)
	slli	a5,a5,3
	add	a5,a4,a5
	.loc 1 309 31
	ld	a4,-56(s0)
	sd	a4,0(a5)
	.loc 1 310 12
	ld	a5,-64(s0)
	ld	a4,-24(s0)
	add	a5,a4,a5
	sd	a5,-24(s0)
	.loc 1 301 59 discriminator 2
	ld	a5,-32(s0)
	addi	a5,a5,1
	sd	a5,-32(s0)
.L47:
	.loc 1 301 35 discriminator 1
	ld	a4,-32(s0)
	ld	a5,-48(s0)
	bgeu	a4,a5,.L54
	.loc 1 301 35 is_stmt 0 discriminator 3
	ld	a4,-24(s0)
	ld	a5,-80(s0)
	bltu	a4,a5,.L49
	.loc 1 313 1 is_stmt 1
	j	.L54
.L51:
	.loc 1 289 5
	nop
	j	.L44
.L54:
	.loc 1 313 1
	nop
.L44:
	.loc 1 314 13
	ld	a5,-88(s0)
	ld	a4,-24(s0)
	sd	a4,0(a5)
	.loc 1 315 10
	ld	a5,-40(s0)
	j	.L50
.L52:
	.loc 1 295 5
	nop
	j	.L46
.L53:
	.loc 1 306 7
	nop
.L46:
	.loc 1 318 3
	ld	a0,-40(s0)
	call	UsbFreeInterfaceDesc
	.loc 1 319 10
	li	a5,0
.L50:
	.loc 1 320 1
	mv	a0,a5
	ld	ra,88(sp)
	.cfi_restore 1
	ld	s0,80(sp)
	.cfi_restore 8
	.cfi_def_cfa 2, 96
	addi	sp,sp,96
	.cfi_def_cfa_offset 0
	jr	ra
	.cfi_endproc
.LFE4:
	.size	UsbParseInterfaceDesc, .-UsbParseInterfaceDesc
	.section	.text.UsbParseConfigDesc,"ax",@progbits
	.align	1
	.globl	UsbParseConfigDesc
	.type	UsbParseConfigDesc, @function
UsbParseConfigDesc:
.LFB5:
	.loc 1 336 1
	.cfi_startproc
	addi	sp,sp,-80
	.cfi_def_cfa_offset 80
	sd	ra,72(sp)
	sd	s0,64(sp)
	.cfi_offset 1, -8
	.cfi_offset 8, -16
	addi	s0,sp,80
	.cfi_def_cfa 8, 0
	sd	a0,-72(s0)
	sd	a1,-80(s0)
	.loc 1 346 12
	addi	a5,s0,-64
	mv	a3,a5
	li	a2,2
	ld	a1,-80(s0)
	ld	a0,-72(s0)
	call	UsbCreateDesc
	sd	a0,-32(s0)
	.loc 1 348 6
	ld	a5,-32(s0)
	bne	a5,zero,.L56
	.loc 1 349 12
	li	a5,0
	j	.L69
.L56:
	.loc 1 355 23
	ld	a5,-32(s0)
	lbu	a5,4(a5)
	.loc 1 355 9
	sd	a5,-40(s0)
	.loc 1 356 72
	ld	a5,-40(s0)
	slli	a5,a5,3
	.loc 1 356 24
	mv	a0,a5
	call	AllocateZeroPool@plt
	mv	a4,a0
	.loc 1 356 22 discriminator 1
	ld	a5,-32(s0)
	sd	a4,16(a5)
	.loc 1 358 13
	ld	a5,-32(s0)
	ld	a5,16(a5)
	.loc 1 358 6
	beq	a5,zero,.L70
	.loc 1 369 14
	sd	zero,-24(s0)
	.loc 1 369 3
	j	.L60
.L62:
	.loc 1 370 17
	li	a5,4096
	addi	a0,a5,-2032
	call	AllocateZeroPool@plt
	sd	a0,-56(s0)
	.loc 1 372 8
	ld	a5,-56(s0)
	beq	a5,zero,.L71
	.loc 1 376 11
	ld	a5,-32(s0)
	ld	a4,16(a5)
	.loc 1 376 23
	ld	a5,-24(s0)
	slli	a5,a5,3
	add	a5,a4,a5
	.loc 1 376 31
	ld	a4,-56(s0)
	sd	a4,0(a5)
	.loc 1 369 39 discriminator 2
	ld	a5,-24(s0)
	addi	a5,a5,1
	sd	a5,-24(s0)
.L60:
	.loc 1 369 25 discriminator 1
	ld	a4,-24(s0)
	ld	a5,-40(s0)
	bltu	a4,a5,.L62
	.loc 1 387 11
	ld	a5,-64(s0)
	ld	a4,-72(s0)
	add	a5,a4,a5
	sd	a5,-72(s0)
	.loc 1 388 7
	ld	a5,-64(s0)
	ld	a4,-80(s0)
	sub	a5,a4,a5
	sd	a5,-80(s0)
	.loc 1 394 9
	j	.L63
.L68:
	.loc 1 395 15
	addi	a5,s0,-64
	mv	a2,a5
	ld	a1,-80(s0)
	ld	a0,-72(s0)
	call	UsbParseInterfaceDesc
	sd	a0,-48(s0)
	.loc 1 397 8
	ld	a5,-48(s0)
	beq	a5,zero,.L72
	.loc 1 400 29
	ld	a5,-48(s0)
	lbu	a5,2(a5)
	mv	a4,a5
	.loc 1 400 15
	ld	a5,-40(s0)
	bgtu	a5,a4,.L66
	.loc 1 403 7
	ld	a0,-48(s0)
	call	UsbFreeInterfaceDesc
	.loc 1 404 7
	j	.L59
.L66:
	.loc 1 410 23
	ld	a5,-32(s0)
	ld	a4,16(a5)
	.loc 1 410 49
	ld	a5,-48(s0)
	lbu	a5,2(a5)
	.loc 1 410 35
	slli	a5,a5,3
	add	a5,a4,a5
	.loc 1 410 15
	ld	a5,0(a5)
	sd	a5,-56(s0)
	.loc 1 412 18
	ld	a4,-56(s0)
	li	a5,4096
	add	a5,a4,a5
	ld	a4,-2048(a5)
	.loc 1 412 8
	li	a5,255
	bgtu	a4,a5,.L73
	.loc 1 416 34
	ld	a4,-56(s0)
	li	a5,4096
	add	a5,a4,a5
	ld	a5,-2048(a5)
	.loc 1 416 50
	ld	a4,-56(s0)
	slli	a5,a5,3
	add	a5,a4,a5
	ld	a4,-48(s0)
	sd	a4,0(a5)
	.loc 1 417 14
	ld	a4,-56(s0)
	li	a5,4096
	add	a5,a4,a5
	ld	a5,-2048(a5)
	.loc 1 417 28
	addi	a4,a5,1
	ld	a3,-56(s0)
	li	a5,4096
	add	a5,a3,a5
	sd	a4,-2048(a5)
	.loc 1 419 13
	ld	a5,-64(s0)
	ld	a4,-72(s0)
	add	a5,a4,a5
	sd	a5,-72(s0)
	.loc 1 420 9
	ld	a5,-64(s0)
	ld	a4,-80(s0)
	sub	a5,a4,a5
	sd	a5,-80(s0)
.L63:
	.loc 1 394 14
	ld	a4,-80(s0)
	li	a5,8
	bgtu	a4,a5,.L68
	j	.L65
.L72:
	.loc 1 399 7
	nop
.L65:
	.loc 1 423 10
	ld	a5,-32(s0)
	j	.L69
.L70:
	.loc 1 359 5
	nop
	j	.L59
.L71:
	.loc 1 373 7
	nop
	j	.L59
.L73:
	.loc 1 413 7
	nop
.L59:
	.loc 1 426 3
	ld	a0,-32(s0)
	call	UsbFreeConfigDesc
	.loc 1 427 10
	li	a5,0
.L69:
	.loc 1 428 1
	mv	a0,a5
	ld	ra,72(sp)
	.cfi_restore 1
	ld	s0,64(sp)
	.cfi_restore 8
	.cfi_def_cfa 2, 80
	addi	sp,sp,80
	.cfi_def_cfa_offset 0
	jr	ra
	.cfi_endproc
.LFE5:
	.size	UsbParseConfigDesc, .-UsbParseConfigDesc
	.section	.text.UsbCtrlRequest,"ax",@progbits
	.align	1
	.globl	UsbCtrlRequest
	.type	UsbCtrlRequest, @function
UsbCtrlRequest:
.LFB6:
	.loc 1 462 1
	.cfi_startproc
	addi	sp,sp,-128
	.cfi_def_cfa_offset 128
	sd	ra,120(sp)
	sd	s0,112(sp)
	.cfi_offset 1, -8
	.cfi_offset 8, -16
	addi	s0,sp,128
	.cfi_def_cfa 8, 0
	sd	a0,-56(s0)
	sd	a2,-72(s0)
	sd	a3,-80(s0)
	sd	a4,-88(s0)
	mv	a3,a5
	mv	a4,a6
	sd	a7,-96(s0)
	mv	a5,a1
	sw	a5,-60(s0)
	mv	a5,a3
	sh	a5,-62(s0)
	mv	a5,a4
	sh	a5,-64(s0)
	.loc 1 470 75
	lw	a5,-60(s0)
	sext.w	a5,a5
	bne	a5,zero,.L75
	.loc 1 470 75 is_stmt 0 discriminator 1
	li	a5,128
	j	.L76
.L75:
	.loc 1 470 75 discriminator 2
	li	a5,0
.L76:
	.loc 1 470 81 is_stmt 1 discriminator 4
	ld	a4,-72(s0)
	andi	a4,a4,0xff
	or	a5,a5,a4
	andi	a4,a5,0xff
	.loc 1 470 25 discriminator 4
	ld	a5,-80(s0)
	andi	a5,a5,0xff
	or	a5,a4,a5
	andi	a5,a5,0xff
	.loc 1 470 22 discriminator 4
	sb	a5,-32(s0)
	.loc 1 471 20
	ld	a5,-88(s0)
	andi	a5,a5,0xff
	.loc 1 471 18
	sb	a5,-31(s0)
	.loc 1 472 16
	lhu	a5,-62(s0)
	sh	a5,-30(s0)
	.loc 1 473 16
	lhu	a5,-64(s0)
	sh	a5,-28(s0)
	.loc 1 474 19
	ld	a5,0(s0)
	slli	a5,a5,48
	srli	a5,a5,48
	.loc 1 474 17
	sh	a5,-26(s0)
	.loc 1 476 7
	ld	a5,0(s0)
	sd	a5,-48(s0)
	.loc 1 477 12
	ld	a5,-56(s0)
	ld	a0,0(a5)
	ld	a5,-56(s0)
	lbu	a1,9(a5)
	ld	a5,-56(s0)
	lbu	a2,8(a5)
	.loc 1 481 20
	ld	a5,-56(s0)
	lw	a5,12(a5)
	.loc 1 477 12
	slli	a3,a5,32
	srli	a3,a3,32
	ld	a5,-56(s0)
	addi	a5,a5,200
	addi	a6,s0,-48
	lw	t3,-60(s0)
	addi	t1,s0,-32
	addi	a4,s0,-36
	sd	a4,16(sp)
	sd	a5,8(sp)
	li	a5,500
	sd	a5,0(sp)
	mv	a7,a6
	ld	a6,-96(s0)
	mv	a5,t3
	mv	a4,t1
	call	UsbHcControlTransfer@plt
	sd	a0,-24(s0)
	.loc 1 491 10
	ld	a5,-24(s0)
	.loc 1 492 1
	mv	a0,a5
	ld	ra,120(sp)
	.cfi_restore 1
	ld	s0,112(sp)
	.cfi_restore 8
	.cfi_def_cfa 2, 128
	addi	sp,sp,128
	.cfi_def_cfa_offset 0
	jr	ra
	.cfi_endproc
.LFE6:
	.size	UsbCtrlRequest, .-UsbCtrlRequest
	.section	.text.UsbCtrlGetDesc,"ax",@progbits
	.align	1
	.globl	UsbCtrlGetDesc
	.type	UsbCtrlGetDesc, @function
UsbCtrlGetDesc:
.LFB7:
	.loc 1 518 1
	.cfi_startproc
	addi	sp,sp,-96
	.cfi_def_cfa_offset 96
	sd	ra,88(sp)
	sd	s0,80(sp)
	.cfi_offset 1, -8
	.cfi_offset 8, -16
	addi	s0,sp,96
	.cfi_def_cfa 8, 0
	sd	a0,-40(s0)
	sd	a1,-48(s0)
	sd	a2,-56(s0)
	sd	a4,-72(s0)
	sd	a5,-80(s0)
	mv	a5,a3
	sh	a5,-58(s0)
	.loc 1 527 33
	ld	a5,-48(s0)
	slli	a5,a5,48
	srli	a5,a5,48
	slliw	a5,a5,8
	slli	a4,a5,48
	srli	a4,a4,48
	.loc 1 521 12
	ld	a5,-56(s0)
	slli	a5,a5,48
	srli	a5,a5,48
	or	a5,a4,a5
	slli	a4,a5,48
	srli	a4,a4,48
	lhu	a3,-58(s0)
	ld	a5,-80(s0)
	sd	a5,0(sp)
	ld	a7,-72(s0)
	mv	a6,a3
	mv	a5,a4
	li	a4,6
	li	a3,0
	li	a2,0
	li	a1,0
	ld	a0,-40(s0)
	call	UsbCtrlRequest
	sd	a0,-24(s0)
	.loc 1 533 10
	ld	a5,-24(s0)
	.loc 1 534 1
	mv	a0,a5
	ld	ra,88(sp)
	.cfi_restore 1
	ld	s0,80(sp)
	.cfi_restore 8
	.cfi_def_cfa 2, 96
	addi	sp,sp,96
	.cfi_def_cfa_offset 0
	jr	ra
	.cfi_endproc
.LFE7:
	.size	UsbCtrlGetDesc, .-UsbCtrlGetDesc
	.section	.text.UsbGetMaxPacketSize0,"ax",@progbits
	.align	1
	.globl	UsbGetMaxPacketSize0
	.type	UsbGetMaxPacketSize0, @function
UsbGetMaxPacketSize0:
.LFB8:
	.loc 1 551 1
	.cfi_startproc
	addi	sp,sp,-80
	.cfi_def_cfa_offset 80
	sd	ra,72(sp)
	sd	s0,64(sp)
	.cfi_offset 1, -8
	.cfi_offset 8, -16
	addi	s0,sp,80
	.cfi_def_cfa 8, 0
	sd	a0,-72(s0)
	.loc 1 560 14
	sd	zero,-24(s0)
	.loc 1 560 3
	j	.L81
.L85:
	.loc 1 561 14
	addi	a4,s0,-56
	li	a5,8
	li	a3,0
	li	a2,0
	li	a1,1
	ld	a0,-72(s0)
	call	UsbCtrlGetDesc
	sd	a0,-32(s0)
	.loc 1 563 9
	ld	a5,-32(s0)
	.loc 1 563 8
	blt	a5,zero,.L82
	.loc 1 564 19
	lhu	a5,-54(s0)
	.loc 1 564 10
	sext.w	a4,a5
	li	a5,767
	bleu	a4,a5,.L83
	.loc 1 564 49 discriminator 1
	lbu	a5,-49(s0)
	.loc 1 564 38 discriminator 1
	mv	a4,a5
	li	a5,9
	bne	a4,a5,.L83
	.loc 1 565 28
	ld	a5,-72(s0)
	li	a4,512
	sw	a4,12(a5)
	.loc 1 566 16
	li	a5,0
	j	.L86
.L83:
	.loc 1 569 35
	lbu	a5,-49(s0)
	sext.w	a4,a5
	.loc 1 569 26
	ld	a5,-72(s0)
	sw	a4,12(a5)
	.loc 1 570 14
	li	a5,0
	j	.L86
.L82:
	.loc 1 573 8
	la	a5,gBS
	ld	a5,0(a5)
	ld	a5,248(a5)
	.loc 1 573 5
	li	a4,98304
	addi	a0,a4,1696
	jalr	a5
.LVL0:
	.loc 1 560 35 discriminator 2
	ld	a5,-24(s0)
	addi	a5,a5,1
	sd	a5,-24(s0)
.L81:
	.loc 1 560 25 discriminator 1
	ld	a4,-24(s0)
	li	a5,2
	bleu	a4,a5,.L85
	.loc 1 576 10
	li	a5,-1
	slli	a5,a5,63
	addi	a5,a5,7
.L86:
	.loc 1 577 1
	mv	a0,a5
	ld	ra,72(sp)
	.cfi_restore 1
	ld	s0,64(sp)
	.cfi_restore 8
	.cfi_def_cfa 2, 80
	addi	sp,sp,80
	.cfi_def_cfa_offset 0
	jr	ra
	.cfi_endproc
.LFE8:
	.size	UsbGetMaxPacketSize0, .-UsbGetMaxPacketSize0
	.section	.text.UsbGetDevDesc,"ax",@progbits
	.align	1
	.globl	UsbGetDevDesc
	.type	UsbGetDevDesc, @function
UsbGetDevDesc:
.LFB9:
	.loc 1 592 1
	.cfi_startproc
	addi	sp,sp,-48
	.cfi_def_cfa_offset 48
	sd	ra,40(sp)
	sd	s0,32(sp)
	.cfi_offset 1, -8
	.cfi_offset 8, -16
	addi	s0,sp,48
	.cfi_def_cfa 8, 0
	sd	a0,-40(s0)
	.loc 1 596 13
	li	a0,32
	call	AllocateZeroPool@plt
	sd	a0,-24(s0)
	.loc 1 598 6
	ld	a5,-24(s0)
	bne	a5,zero,.L88
	.loc 1 599 12
	li	a5,-1
	slli	a5,a5,63
	addi	a5,a5,9
	j	.L89
.L88:
	.loc 1 602 12
	li	a5,18
	ld	a4,-24(s0)
	li	a3,0
	li	a2,0
	li	a1,1
	ld	a0,-40(s0)
	call	UsbCtrlGetDesc
	sd	a0,-32(s0)
	.loc 1 611 34
	ld	a5,-32(s0)
	.loc 1 611 6
	bge	a5,zero,.L90
	.loc 1 612 8
	la	a5,gBS
	ld	a5,0(a5)
	ld	a5,72(a5)
	.loc 1 612 5
	ld	a0,-24(s0)
	jalr	a5
.LVL1:
	j	.L91
.L90:
	.loc 1 614 21
	ld	a5,-40(s0)
	ld	a4,-24(s0)
	sd	a4,16(a5)
.L91:
	.loc 1 617 10
	ld	a5,-32(s0)
.L89:
	.loc 1 618 1
	mv	a0,a5
	ld	ra,40(sp)
	.cfi_restore 1
	ld	s0,32(sp)
	.cfi_restore 8
	.cfi_def_cfa 2, 48
	addi	sp,sp,48
	.cfi_def_cfa_offset 0
	jr	ra
	.cfi_endproc
.LFE9:
	.size	UsbGetDevDesc, .-UsbGetDevDesc
	.section	.text.UsbGetOneString,"ax",@progbits
	.align	1
	.globl	UsbGetOneString
	.type	UsbGetOneString, @function
UsbGetOneString:
.LFB10:
	.loc 1 638 1
	.cfi_startproc
	addi	sp,sp,-64
	.cfi_def_cfa_offset 64
	sd	ra,56(sp)
	sd	s0,48(sp)
	.cfi_offset 1, -8
	.cfi_offset 8, -16
	addi	s0,sp,64
	.cfi_def_cfa 8, 0
	sd	a0,-56(s0)
	mv	a5,a1
	mv	a4,a2
	sb	a5,-57(s0)
	mv	a5,a4
	sh	a5,-60(s0)
	.loc 1 646 12
	lbu	a2,-57(s0)
	addi	a4,s0,-40
	lhu	a3,-60(s0)
	li	a5,2
	li	a1,3
	ld	a0,-56(s0)
	call	UsbCtrlGetDesc
	sd	a0,-24(s0)
	.loc 1 651 34
	ld	a5,-24(s0)
	.loc 1 651 6
	blt	a5,zero,.L93
	.loc 1 652 12
	lbu	a5,-40(s0)
	.loc 1 651 60 discriminator 1
	beq	a5,zero,.L93
	.loc 1 653 12
	lbu	a5,-40(s0)
	.loc 1 653 24
	andi	a5,a5,1
	andi	a5,a5,0xff
	.loc 1 652 110
	beq	a5,zero,.L94
.L93:
	.loc 1 656 12
	li	a5,0
	j	.L98
.L94:
	.loc 1 659 31
	lbu	a5,-40(s0)
	.loc 1 659 9
	mv	a0,a5
	call	AllocateZeroPool@plt
	sd	a0,-32(s0)
	.loc 1 661 6
	ld	a5,-32(s0)
	bne	a5,zero,.L96
	.loc 1 662 12
	li	a5,0
	j	.L98
.L96:
	.loc 1 665 12
	lbu	a2,-57(s0)
	.loc 1 671 18
	lbu	a5,-40(s0)
	.loc 1 665 12
	lhu	a3,-60(s0)
	ld	a4,-32(s0)
	li	a1,3
	ld	a0,-56(s0)
	call	UsbCtrlGetDesc
	sd	a0,-24(s0)
	.loc 1 674 34
	ld	a5,-24(s0)
	.loc 1 674 6
	bge	a5,zero,.L97
	.loc 1 675 5
	ld	a0,-32(s0)
	call	FreePool@plt
	.loc 1 676 12
	li	a5,0
	j	.L98
.L97:
	.loc 1 679 10
	ld	a5,-32(s0)
.L98:
	.loc 1 680 1
	mv	a0,a5
	ld	ra,56(sp)
	.cfi_restore 1
	ld	s0,48(sp)
	.cfi_restore 8
	.cfi_def_cfa 2, 64
	addi	sp,sp,64
	.cfi_def_cfa_offset 0
	jr	ra
	.cfi_endproc
.LFE10:
	.size	UsbGetOneString, .-UsbGetOneString
	.section	.text.UsbBuildLangTable,"ax",@progbits
	.align	1
	.globl	UsbBuildLangTable
	.type	UsbBuildLangTable, @function
UsbBuildLangTable:
.LFB11:
	.loc 1 694 1
	.cfi_startproc
	addi	sp,sp,-80
	.cfi_def_cfa_offset 80
	sd	ra,72(sp)
	sd	s0,64(sp)
	.cfi_offset 1, -8
	.cfi_offset 8, -16
	addi	s0,sp,80
	.cfi_def_cfa 8, 0
	sd	a0,-72(s0)
	.loc 1 704 10
	li	a2,0
	li	a1,0
	ld	a0,-72(s0)
	call	UsbGetOneString
	sd	a0,-48(s0)
	.loc 1 706 6
	ld	a5,-48(s0)
	bne	a5,zero,.L100
	.loc 1 707 12
	li	a5,-1
	slli	a5,a5,63
	addi	a5,a5,3
	j	.L101
.L100:
	.loc 1 710 11
	ld	a5,-48(s0)
	lbu	a5,0(a5)
	.loc 1 710 6
	mv	a4,a5
	li	a5,3
	bgtu	a4,a5,.L102
	.loc 1 711 12
	li	a5,-1
	slli	a5,a5,63
	addi	a5,a5,3
	sd	a5,-24(s0)
	.loc 1 712 5
	j	.L103
.L102:
	.loc 1 715 10
	sd	zero,-24(s0)
	.loc 1 717 14
	ld	a5,-48(s0)
	lbu	a5,0(a5)
	sext.w	a5,a5
	.loc 1 717 23
	addiw	a5,a5,-2
	sext.w	a5,a5
	.loc 1 717 28
	srliw	a4,a5,31
	addw	a5,a4,a5
	sraiw	a5,a5,1
	sext.w	a5,a5
	.loc 1 717 7
	sd	a5,-56(s0)
	.loc 1 718 7
	ld	a5,-56(s0)
	li	a4,16
	bleu	a5,a4,.L104
	li	a5,16
.L104:
	sd	a5,-56(s0)
	.loc 1 720 9
	ld	a5,-48(s0)
	addi	a5,a5,2
	sd	a5,-40(s0)
	.loc 1 721 14
	sd	zero,-32(s0)
	.loc 1 721 3
	j	.L105
.L106:
	.loc 1 722 29
	ld	a5,-40(s0)
	lhu	a4,0(a5)
	.loc 1 722 27
	ld	a3,-72(s0)
	ld	a5,-32(s0)
	addi	a5,a5,16
	slli	a5,a5,1
	add	a5,a3,a5
	sh	a4,0(a5)
	.loc 1 723 10
	ld	a5,-40(s0)
	addi	a5,a5,2
	sd	a5,-40(s0)
	.loc 1 721 37 discriminator 3
	ld	a5,-32(s0)
	addi	a5,a5,1
	sd	a5,-32(s0)
.L105:
	.loc 1 721 25 discriminator 1
	ld	a4,-32(s0)
	ld	a5,-56(s0)
	bltu	a4,a5,.L106
	.loc 1 726 25
	ld	a5,-56(s0)
	slli	a4,a5,48
	srli	a4,a4,48
	.loc 1 726 23
	ld	a5,-72(s0)
	sh	a4,64(a5)
.L103:
	.loc 1 729 6
	la	a5,gBS
	ld	a5,0(a5)
	ld	a5,72(a5)
	.loc 1 729 3
	ld	a0,-48(s0)
	jalr	a5
.LVL2:
	.loc 1 730 10
	ld	a5,-24(s0)
.L101:
	.loc 1 731 1
	mv	a0,a5
	ld	ra,72(sp)
	.cfi_restore 1
	ld	s0,64(sp)
	.cfi_restore 8
	.cfi_def_cfa 2, 80
	addi	sp,sp,80
	.cfi_def_cfa_offset 0
	jr	ra
	.cfi_endproc
.LFE11:
	.size	UsbBuildLangTable, .-UsbBuildLangTable
	.section	.text.UsbGetOneConfig,"ax",@progbits
	.align	1
	.globl	UsbGetOneConfig
	.type	UsbGetOneConfig, @function
UsbGetOneConfig:
.LFB12:
	.loc 1 750 1
	.cfi_startproc
	addi	sp,sp,-64
	.cfi_def_cfa_offset 64
	sd	ra,56(sp)
	sd	s0,48(sp)
	.cfi_offset 1, -8
	.cfi_offset 8, -16
	addi	s0,sp,64
	.cfi_def_cfa 8, 0
	sd	a0,-56(s0)
	mv	a5,a1
	sb	a5,-57(s0)
	.loc 1 759 12
	lbu	a2,-57(s0)
	addi	a4,s0,-48
	li	a5,8
	li	a3,0
	li	a1,2
	ld	a0,-56(s0)
	call	UsbCtrlGetDesc
	sd	a0,-24(s0)
	.loc 1 761 34
	ld	a5,-24(s0)
	.loc 1 761 6
	bge	a5,zero,.L108
	.loc 1 769 12
	li	a5,0
	j	.L113
.L108:
	.loc 1 777 11
	lhu	a5,-46(s0)
	.loc 1 777 6
	sext.w	a4,a5
	li	a5,3
	bgtu	a4,a5,.L110
	.loc 1 778 12
	li	a5,0
	j	.L113
.L110:
	.loc 1 781 31
	lhu	a5,-46(s0)
	.loc 1 781 9
	mv	a0,a5
	call	AllocateZeroPool@plt
	sd	a0,-32(s0)
	.loc 1 783 6
	ld	a5,-32(s0)
	bne	a5,zero,.L111
	.loc 1 784 12
	li	a5,0
	j	.L113
.L111:
	.loc 1 787 12
	lbu	a2,-57(s0)
	.loc 1 787 77
	lhu	a5,-46(s0)
	.loc 1 787 12
	ld	a4,-32(s0)
	li	a3,0
	li	a1,2
	ld	a0,-56(s0)
	call	UsbCtrlGetDesc
	sd	a0,-24(s0)
	.loc 1 789 34
	ld	a5,-24(s0)
	.loc 1 789 6
	bge	a5,zero,.L112
	.loc 1 792 5
	ld	a0,-32(s0)
	call	FreePool@plt
	.loc 1 793 12
	li	a5,0
	j	.L113
.L112:
	.loc 1 796 10
	ld	a5,-32(s0)
.L113:
	.loc 1 797 1
	mv	a0,a5
	ld	ra,56(sp)
	.cfi_restore 1
	ld	s0,48(sp)
	.cfi_restore 8
	.cfi_def_cfa 2, 64
	addi	sp,sp,64
	.cfi_def_cfa_offset 0
	jr	ra
	.cfi_endproc
.LFE12:
	.size	UsbGetOneConfig, .-UsbGetOneConfig
	.section	.text.UsbBuildDescTable,"ax",@progbits
	.align	1
	.globl	UsbBuildDescTable
	.type	UsbBuildDescTable, @function
UsbBuildDescTable:
.LFB13:
	.loc 1 814 1
	.cfi_startproc
	addi	sp,sp,-80
	.cfi_def_cfa_offset 80
	sd	ra,72(sp)
	sd	s0,64(sp)
	.cfi_offset 1, -8
	.cfi_offset 8, -16
	addi	s0,sp,80
	.cfi_def_cfa 8, 0
	sd	a0,-72(s0)
	.loc 1 826 12
	ld	a0,-72(s0)
	call	UsbGetDevDesc
	sd	a0,-32(s0)
	.loc 1 828 34
	ld	a5,-32(s0)
	.loc 1 828 6
	bge	a5,zero,.L115
	.loc 1 830 12
	ld	a5,-32(s0)
	j	.L116
.L115:
	.loc 1 833 11
	ld	a5,-72(s0)
	ld	a5,16(a5)
	sd	a5,-40(s0)
	.loc 1 834 13
	ld	a5,-40(s0)
	lbu	a5,17(a5)
	sb	a5,-41(s0)
	.loc 1 835 6
	lbu	a5,-41(s0)
	andi	a5,a5,0xff
	bne	a5,zero,.L117
	.loc 1 836 12
	li	a5,-1
	slli	a5,a5,63
	addi	a5,a5,7
	j	.L116
.L117:
	.loc 1 839 22
	lbu	a5,-41(s0)
	.loc 1 839 50
	slli	a5,a5,3
	.loc 1 839 22
	mv	a0,a5
	call	AllocateZeroPool@plt
	mv	a4,a0
	.loc 1 839 20 discriminator 1
	ld	a5,-40(s0)
	sd	a4,24(a5)
	.loc 1 840 14
	ld	a5,-40(s0)
	ld	a5,24(a5)
	.loc 1 840 6
	bne	a5,zero,.L118
	.loc 1 841 12
	li	a5,-1
	slli	a5,a5,63
	addi	a5,a5,9
	j	.L116
.L118:
	.loc 1 849 14
	sb	zero,-17(s0)
	.loc 1 849 3
	j	.L119
.L125:
	.loc 1 850 14
	lbu	a5,-17(s0)
	mv	a1,a5
	ld	a0,-72(s0)
	call	UsbGetOneConfig
	sd	a0,-56(s0)
	.loc 1 852 8
	ld	a5,-56(s0)
	bne	a5,zero,.L120
	.loc 1 859 10
	lbu	a5,-17(s0)
	andi	a5,a5,0xff
	bne	a5,zero,.L126
	.loc 1 860 16
	li	a5,-1
	slli	a5,a5,63
	addi	a5,a5,7
	j	.L116
.L120:
	.loc 1 866 61
	ld	a5,-56(s0)
	lbu	a4,2(a5)
	lbu	a5,3(a5)
	slli	a5,a5,8
	or	a5,a5,a4
	slli	a5,a5,48
	srli	a5,a5,48
	.loc 1 866 18
	mv	a1,a5
	ld	a0,-56(s0)
	call	UsbParseConfigDesc
	sd	a0,-64(s0)
	.loc 1 868 5
	ld	a0,-56(s0)
	call	FreePool@plt
	.loc 1 870 8
	ld	a5,-64(s0)
	bne	a5,zero,.L123
	.loc 1 877 10
	lbu	a5,-17(s0)
	andi	a5,a5,0xff
	bne	a5,zero,.L127
	.loc 1 878 16
	li	a5,-1
	slli	a5,a5,63
	addi	a5,a5,7
	j	.L116
.L123:
	.loc 1 884 12
	ld	a5,-40(s0)
	ld	a4,24(a5)
	.loc 1 884 21
	lbu	a5,-17(s0)
	slli	a5,a5,3
	add	a5,a4,a5
	.loc 1 884 29
	ld	a4,-64(s0)
	sd	a4,0(a5)
	.loc 1 849 43 discriminator 2
	lbu	a5,-17(s0)
	addiw	a5,a5,1
	sb	a5,-17(s0)
.L119:
	.loc 1 849 25 discriminator 1
	lbu	a5,-17(s0)
	mv	a4,a5
	lbu	a5,-41(s0)
	andi	a4,a4,0xff
	andi	a5,a5,0xff
	bltu	a4,a5,.L125
	j	.L122
.L126:
	.loc 1 863 7
	nop
	j	.L122
.L127:
	.loc 1 881 7
	nop
.L122:
	.loc 1 891 12
	ld	a0,-72(s0)
	call	UsbBuildLangTable
	sd	a0,-32(s0)
	.loc 1 897 10
	li	a5,0
.L116:
	.loc 1 898 1
	mv	a0,a5
	ld	ra,72(sp)
	.cfi_restore 1
	ld	s0,64(sp)
	.cfi_restore 8
	.cfi_def_cfa 2, 80
	addi	sp,sp,80
	.cfi_def_cfa_offset 0
	jr	ra
	.cfi_endproc
.LFE13:
	.size	UsbBuildDescTable, .-UsbBuildDescTable
	.section	.text.UsbSetAddress,"ax",@progbits
	.align	1
	.globl	UsbSetAddress
	.type	UsbSetAddress, @function
UsbSetAddress:
.LFB14:
	.loc 1 915 1
	.cfi_startproc
	addi	sp,sp,-64
	.cfi_def_cfa_offset 64
	sd	ra,56(sp)
	sd	s0,48(sp)
	.cfi_offset 1, -8
	.cfi_offset 8, -16
	addi	s0,sp,64
	.cfi_def_cfa 8, 0
	sd	a0,-40(s0)
	mv	a5,a1
	sb	a5,-41(s0)
	.loc 1 918 12
	lbu	a5,-41(s0)
	slli	a5,a5,48
	srli	a5,a5,48
	sd	zero,0(sp)
	li	a7,0
	li	a6,0
	li	a4,5
	li	a3,0
	li	a2,0
	li	a1,2
	ld	a0,-40(s0)
	call	UsbCtrlRequest
	sd	a0,-24(s0)
	.loc 1 930 10
	ld	a5,-24(s0)
	.loc 1 931 1
	mv	a0,a5
	ld	ra,56(sp)
	.cfi_restore 1
	ld	s0,48(sp)
	.cfi_restore 8
	.cfi_def_cfa 2, 64
	addi	sp,sp,64
	.cfi_def_cfa_offset 0
	jr	ra
	.cfi_endproc
.LFE14:
	.size	UsbSetAddress, .-UsbSetAddress
	.section	.text.UsbSetConfig,"ax",@progbits
	.align	1
	.globl	UsbSetConfig
	.type	UsbSetConfig, @function
UsbSetConfig:
.LFB15:
	.loc 1 950 1
	.cfi_startproc
	addi	sp,sp,-64
	.cfi_def_cfa_offset 64
	sd	ra,56(sp)
	sd	s0,48(sp)
	.cfi_offset 1, -8
	.cfi_offset 8, -16
	addi	s0,sp,64
	.cfi_def_cfa 8, 0
	sd	a0,-40(s0)
	mv	a5,a1
	sb	a5,-41(s0)
	.loc 1 953 12
	lbu	a5,-41(s0)
	slli	a5,a5,48
	srli	a5,a5,48
	sd	zero,0(sp)
	li	a7,0
	li	a6,0
	li	a4,9
	li	a3,0
	li	a2,0
	li	a1,2
	ld	a0,-40(s0)
	call	UsbCtrlRequest
	sd	a0,-24(s0)
	.loc 1 965 10
	ld	a5,-24(s0)
	.loc 1 966 1
	mv	a0,a5
	ld	ra,56(sp)
	.cfi_restore 1
	ld	s0,48(sp)
	.cfi_restore 8
	.cfi_def_cfa 2, 64
	addi	sp,sp,64
	.cfi_def_cfa_offset 0
	jr	ra
	.cfi_endproc
.LFE15:
	.size	UsbSetConfig, .-UsbSetConfig
	.section	.text.UsbIoClearFeature,"ax",@progbits
	.align	1
	.globl	UsbIoClearFeature
	.type	UsbIoClearFeature, @function
UsbIoClearFeature:
.LFB16:
	.loc 1 989 1
	.cfi_startproc
	addi	sp,sp,-80
	.cfi_def_cfa_offset 80
	sd	ra,72(sp)
	sd	s0,64(sp)
	.cfi_offset 1, -8
	.cfi_offset 8, -16
	addi	s0,sp,80
	.cfi_def_cfa 8, 0
	sd	a0,-56(s0)
	sd	a1,-64(s0)
	mv	a5,a2
	mv	a4,a3
	sh	a5,-66(s0)
	mv	a5,a4
	sh	a5,-68(s0)
	.loc 1 994 25
	ld	a5,-64(s0)
	andi	a5,a5,0xff
	.loc 1 994 22
	sb	a5,-32(s0)
	.loc 1 995 18
	li	a5,1
	sb	a5,-31(s0)
	.loc 1 996 16
	lhu	a5,-66(s0)
	sh	a5,-30(s0)
	.loc 1 997 16
	lhu	a5,-68(s0)
	sh	a5,-28(s0)
	.loc 1 998 17
	sh	zero,-26(s0)
	.loc 1 1000 17
	ld	a5,-56(s0)
	ld	a7,0(a5)
	.loc 1 1000 12
	addi	a5,s0,-36
	addi	a1,s0,-32
	mv	a6,a5
	li	a5,0
	li	a4,0
	li	a3,10
	li	a2,2
	ld	a0,-56(s0)
	jalr	a7
.LVL3:
	sd	a0,-24(s0)
	.loc 1 1010 10
	ld	a5,-24(s0)
	.loc 1 1011 1
	mv	a0,a5
	ld	ra,72(sp)
	.cfi_restore 1
	ld	s0,64(sp)
	.cfi_restore 8
	.cfi_def_cfa 2, 80
	addi	sp,sp,80
	.cfi_def_cfa_offset 0
	jr	ra
	.cfi_endproc
.LFE16:
	.size	UsbIoClearFeature, .-UsbIoClearFeature
	.text
.Letext0:
	.file 2 "/home/kapoagaeming/spacemit-image-builder/components/edk2/MdePkg/Include/RiscV64/ProcessorBind.h"
	.file 3 "/home/kapoagaeming/spacemit-image-builder/components/edk2/MdePkg/Include/Base.h"
	.file 4 "/home/kapoagaeming/spacemit-image-builder/components/edk2/MdePkg/Include/Uefi/UefiBaseType.h"
	.file 5 "/home/kapoagaeming/spacemit-image-builder/components/edk2/MdePkg/Include/Uefi/UefiMultiPhase.h"
	.file 6 "/home/kapoagaeming/spacemit-image-builder/components/edk2/MdePkg/Include/Protocol/DevicePath.h"
	.file 7 "/home/kapoagaeming/spacemit-image-builder/components/edk2/MdePkg/Include/Uefi/UefiSpec.h"
	.file 8 "/home/kapoagaeming/spacemit-image-builder/components/edk2/MdePkg/Include/IndustryStandard/Usb.h"
	.file 9 "/home/kapoagaeming/spacemit-image-builder/components/edk2/MdePkg/Include/Protocol/UsbIo.h"
	.file 10 "/home/kapoagaeming/spacemit-image-builder/components/edk2/MdePkg/Include/Protocol/Usb2HostController.h"
	.file 11 "/home/kapoagaeming/spacemit-image-builder/components/edk2/MdePkg/Include/Protocol/UsbHostController.h"
	.file 12 "/home/kapoagaeming/spacemit-image-builder/components/edk2/MdeModulePkg/Bus/Usb/UsbBusDxe/UsbBus.h"
	.file 13 "/home/kapoagaeming/spacemit-image-builder/components/edk2/MdeModulePkg/Bus/Usb/UsbBusDxe/UsbDesc.h"
	.file 14 "/home/kapoagaeming/spacemit-image-builder/components/edk2/MdeModulePkg/Bus/Usb/UsbBusDxe/UsbEnumer.h"
	.file 15 "/home/kapoagaeming/spacemit-image-builder/components/edk2/MdeModulePkg/Bus/Usb/UsbBusDxe/UsbUtility.h"
	.file 16 "/home/kapoagaeming/spacemit-image-builder/components/edk2/MdePkg/Include/Library/BaseMemoryLib.h"
	.file 17 "/home/kapoagaeming/spacemit-image-builder/components/edk2/MdePkg/Include/Library/MemoryAllocationLib.h"
	.file 18 "/home/kapoagaeming/spacemit-image-builder/components/edk2/MdePkg/Include/Library/UefiBootServicesTableLib.h"
	.section	.note.GNU-stack,"",@progbits
