	.file	"UsbUtility.c"
	.option pic
	.option norelax
	.attribute arch, "rv64i2p1_m2p0_a2p1_f2p2_d2p2_c2p0_zicsr2p0_zifencei2p0_zmmul1p0_zaamo1p0_zalrsc1p0_zca1p0_zcd1p0"
	.attribute unaligned_access, 0
	.attribute stack_align, 16
	.text
.Ltext0:
	.cfi_sections	.debug_frame
	.file 0 "/home/kapoagaeming/Downloads/spacemit-image-builder/components/Build/Milk-V-Jupiter/RELEASE_GCC5/RISCV64/MdeModulePkg/Bus/Usb/UsbBusDxe/UsbBusDxe" "/home/kapoagaeming/Downloads/spacemit-image-builder/components/edk2/MdeModulePkg/Bus/Usb/UsbBusDxe/UsbUtility.c"
	.globl	mAllUsbClassDevicePath
	.section	.data.mAllUsbClassDevicePath,"aw"
	.align	3
	.type	mAllUsbClassDevicePath, @object
	.size	mAllUsbClassDevicePath, 15
mAllUsbClassDevicePath:
	.byte	3
	.byte	15
	.string	"\013"
	.half	-1
	.half	-1
	.byte	-1
	.byte	-1
	.byte	-1
	.byte	127
	.byte	-1
	.string	"\004"
	.section	.text.UsbHcGetCapability,"ax",@progbits
	.align	1
	.globl	UsbHcGetCapability
	.type	UsbHcGetCapability, @function
UsbHcGetCapability:
.LFB0:
	.file 1 "/home/kapoagaeming/Downloads/spacemit-image-builder/components/edk2/MdeModulePkg/Bus/Usb/UsbBusDxe/UsbUtility.c"
	.loc 1 63 1
	.cfi_startproc
	addi	sp,sp,-64
	.cfi_def_cfa_offset 64
	sd	ra,56(sp)
	sd	s0,48(sp)
	.cfi_offset 1, -8
	.cfi_offset 8, -16
	addi	s0,sp,64
	.cfi_def_cfa 8, 0
	sd	a0,-40(s0)
	sd	a1,-48(s0)
	sd	a2,-56(s0)
	sd	a3,-64(s0)
	.loc 1 66 13
	ld	a5,-40(s0)
	ld	a5,32(a5)
	.loc 1 66 6
	beq	a5,zero,.L2
	.loc 1 67 20
	ld	a5,-40(s0)
	ld	a5,32(a5)
	.loc 1 67 28
	ld	a5,0(a5)
	.loc 1 67 14
	ld	a4,-40(s0)
	ld	a4,32(a4)
	ld	a3,-64(s0)
	ld	a2,-56(s0)
	ld	a1,-48(s0)
	mv	a0,a4
	jalr	a5
.LVL0:
	sd	a0,-24(s0)
	j	.L3
.L2:
	.loc 1 74 20
	ld	a5,-40(s0)
	ld	a5,40(a5)
	.loc 1 74 27
	ld	a5,72(a5)
	.loc 1 74 14
	ld	a4,-40(s0)
	ld	a4,40(a4)
	ld	a1,-56(s0)
	mv	a0,a4
	jalr	a5
.LVL1:
	sd	a0,-24(s0)
	.loc 1 76 15
	ld	a5,-48(s0)
	sb	zero,0(a5)
	.loc 1 77 21
	ld	a5,-64(s0)
	sb	zero,0(a5)
.L3:
	.loc 1 80 10
	ld	a5,-24(s0)
	.loc 1 81 1
	mv	a0,a5
	ld	ra,56(sp)
	.cfi_restore 1
	ld	s0,48(sp)
	.cfi_restore 8
	.cfi_def_cfa 2, 64
	addi	sp,sp,64
	.cfi_def_cfa_offset 0
	jr	ra
	.cfi_endproc
.LFE0:
	.size	UsbHcGetCapability, .-UsbHcGetCapability
	.section	.text.UsbHcGetRootHubPortStatus,"ax",@progbits
	.align	1
	.globl	UsbHcGetRootHubPortStatus
	.type	UsbHcGetRootHubPortStatus, @function
UsbHcGetRootHubPortStatus:
.LFB1:
	.loc 1 100 1
	.cfi_startproc
	addi	sp,sp,-64
	.cfi_def_cfa_offset 64
	sd	ra,56(sp)
	sd	s0,48(sp)
	.cfi_offset 1, -8
	.cfi_offset 8, -16
	addi	s0,sp,64
	.cfi_def_cfa 8, 0
	sd	a0,-40(s0)
	mv	a5,a1
	sd	a2,-56(s0)
	sb	a5,-41(s0)
	.loc 1 103 13
	ld	a5,-40(s0)
	ld	a5,32(a5)
	.loc 1 103 6
	beq	a5,zero,.L6
	.loc 1 104 20
	ld	a5,-40(s0)
	ld	a5,32(a5)
	.loc 1 104 28
	ld	a5,80(a5)
	.loc 1 104 14
	ld	a4,-40(s0)
	ld	a4,32(a4)
	lbu	a3,-41(s0)
	ld	a2,-56(s0)
	mv	a1,a3
	mv	a0,a4
	jalr	a5
.LVL2:
	sd	a0,-24(s0)
	j	.L7
.L6:
	.loc 1 106 20
	ld	a5,-40(s0)
	ld	a5,40(a5)
	.loc 1 106 27
	ld	a5,80(a5)
	.loc 1 106 14
	ld	a4,-40(s0)
	ld	a4,40(a4)
	lbu	a3,-41(s0)
	ld	a2,-56(s0)
	mv	a1,a3
	mv	a0,a4
	jalr	a5
.LVL3:
	sd	a0,-24(s0)
.L7:
	.loc 1 109 10
	ld	a5,-24(s0)
	.loc 1 110 1
	mv	a0,a5
	ld	ra,56(sp)
	.cfi_restore 1
	ld	s0,48(sp)
	.cfi_restore 8
	.cfi_def_cfa 2, 64
	addi	sp,sp,64
	.cfi_def_cfa_offset 0
	jr	ra
	.cfi_endproc
.LFE1:
	.size	UsbHcGetRootHubPortStatus, .-UsbHcGetRootHubPortStatus
	.section	.text.UsbHcSetRootHubPortFeature,"ax",@progbits
	.align	1
	.globl	UsbHcSetRootHubPortFeature
	.type	UsbHcSetRootHubPortFeature, @function
UsbHcSetRootHubPortFeature:
.LFB2:
	.loc 1 129 1
	.cfi_startproc
	addi	sp,sp,-48
	.cfi_def_cfa_offset 48
	sd	ra,40(sp)
	sd	s0,32(sp)
	.cfi_offset 1, -8
	.cfi_offset 8, -16
	addi	s0,sp,48
	.cfi_def_cfa 8, 0
	sd	a0,-40(s0)
	mv	a5,a1
	mv	a4,a2
	sb	a5,-41(s0)
	mv	a5,a4
	sw	a5,-48(s0)
	.loc 1 132 13
	ld	a5,-40(s0)
	ld	a5,32(a5)
	.loc 1 132 6
	beq	a5,zero,.L10
	.loc 1 133 20
	ld	a5,-40(s0)
	ld	a5,32(a5)
	.loc 1 133 28
	ld	a5,88(a5)
	.loc 1 133 14
	ld	a4,-40(s0)
	ld	a4,32(a4)
	lw	a2,-48(s0)
	lbu	a3,-41(s0)
	mv	a1,a3
	mv	a0,a4
	jalr	a5
.LVL4:
	sd	a0,-24(s0)
	j	.L11
.L10:
	.loc 1 135 20
	ld	a5,-40(s0)
	ld	a5,40(a5)
	.loc 1 135 27
	ld	a5,88(a5)
	.loc 1 135 14
	ld	a4,-40(s0)
	ld	a4,40(a4)
	lw	a2,-48(s0)
	lbu	a3,-41(s0)
	mv	a1,a3
	mv	a0,a4
	jalr	a5
.LVL5:
	sd	a0,-24(s0)
.L11:
	.loc 1 138 10
	ld	a5,-24(s0)
	.loc 1 139 1
	mv	a0,a5
	ld	ra,40(sp)
	.cfi_restore 1
	ld	s0,32(sp)
	.cfi_restore 8
	.cfi_def_cfa 2, 48
	addi	sp,sp,48
	.cfi_def_cfa_offset 0
	jr	ra
	.cfi_endproc
.LFE2:
	.size	UsbHcSetRootHubPortFeature, .-UsbHcSetRootHubPortFeature
	.section	.text.UsbHcClearRootHubPortFeature,"ax",@progbits
	.align	1
	.globl	UsbHcClearRootHubPortFeature
	.type	UsbHcClearRootHubPortFeature, @function
UsbHcClearRootHubPortFeature:
.LFB3:
	.loc 1 158 1
	.cfi_startproc
	addi	sp,sp,-48
	.cfi_def_cfa_offset 48
	sd	ra,40(sp)
	sd	s0,32(sp)
	.cfi_offset 1, -8
	.cfi_offset 8, -16
	addi	s0,sp,48
	.cfi_def_cfa 8, 0
	sd	a0,-40(s0)
	mv	a5,a1
	mv	a4,a2
	sb	a5,-41(s0)
	mv	a5,a4
	sw	a5,-48(s0)
	.loc 1 161 13
	ld	a5,-40(s0)
	ld	a5,32(a5)
	.loc 1 161 6
	beq	a5,zero,.L14
	.loc 1 162 20
	ld	a5,-40(s0)
	ld	a5,32(a5)
	.loc 1 162 28
	ld	a5,96(a5)
	.loc 1 162 14
	ld	a4,-40(s0)
	ld	a4,32(a4)
	lw	a2,-48(s0)
	lbu	a3,-41(s0)
	mv	a1,a3
	mv	a0,a4
	jalr	a5
.LVL6:
	sd	a0,-24(s0)
	j	.L15
.L14:
	.loc 1 164 20
	ld	a5,-40(s0)
	ld	a5,40(a5)
	.loc 1 164 27
	ld	a5,96(a5)
	.loc 1 164 14
	ld	a4,-40(s0)
	ld	a4,40(a4)
	lw	a2,-48(s0)
	lbu	a3,-41(s0)
	mv	a1,a3
	mv	a0,a4
	jalr	a5
.LVL7:
	sd	a0,-24(s0)
.L15:
	.loc 1 167 10
	ld	a5,-24(s0)
	.loc 1 168 1
	mv	a0,a5
	ld	ra,40(sp)
	.cfi_restore 1
	ld	s0,32(sp)
	.cfi_restore 8
	.cfi_def_cfa 2, 48
	addi	sp,sp,48
	.cfi_def_cfa_offset 0
	jr	ra
	.cfi_endproc
.LFE3:
	.size	UsbHcClearRootHubPortFeature, .-UsbHcClearRootHubPortFeature
	.section	.text.UsbHcControlTransfer,"ax",@progbits
	.align	1
	.globl	UsbHcControlTransfer
	.type	UsbHcControlTransfer, @function
UsbHcControlTransfer:
.LFB4:
	.loc 1 203 1
	.cfi_startproc
	addi	sp,sp,-112
	.cfi_def_cfa_offset 112
	sd	ra,104(sp)
	sd	s0,96(sp)
	.cfi_offset 1, -8
	.cfi_offset 8, -16
	addi	s0,sp,112
	.cfi_def_cfa 8, 0
	sd	a0,-40(s0)
	sd	a3,-56(s0)
	sd	a4,-64(s0)
	mv	a4,a5
	sd	a6,-72(s0)
	sd	a7,-80(s0)
	mv	a5,a1
	sb	a5,-41(s0)
	mv	a5,a2
	sb	a5,-42(s0)
	mv	a5,a4
	sw	a5,-48(s0)
	.loc 1 207 13
	ld	a5,-40(s0)
	ld	a5,32(a5)
	.loc 1 207 6
	beq	a5,zero,.L18
	.loc 1 208 20
	ld	a5,-40(s0)
	ld	a5,32(a5)
	.loc 1 208 28
	ld	t1,32(a5)
	.loc 1 208 14
	ld	a5,-40(s0)
	ld	a0,32(a5)
	lw	a4,-48(s0)
	lbu	a2,-42(s0)
	lbu	a1,-41(s0)
	ld	a5,16(s0)
	sd	a5,16(sp)
	ld	a5,8(s0)
	sd	a5,8(sp)
	ld	a5,0(s0)
	sd	a5,0(sp)
	ld	a7,-80(s0)
	ld	a6,-72(s0)
	mv	a5,a4
	ld	a4,-64(s0)
	ld	a3,-56(s0)
	jalr	t1
.LVL8:
	sd	a0,-24(s0)
	j	.L19
.L18:
	.loc 1 222 20
	lbu	a5,-42(s0)
	sext.w	a4,a5
	li	a5,1
	sub	a5,a4,a5
	seqz	a5,a5
	andi	a5,a5,0xff
	.loc 1 222 18
	sb	a5,-25(s0)
	.loc 1 223 20
	ld	a5,-40(s0)
	ld	a5,40(a5)
	.loc 1 223 27
	ld	t1,24(a5)
	.loc 1 223 14
	ld	a5,-40(s0)
	ld	a0,40(a5)
	ld	a5,-56(s0)
	andi	a3,a5,0xff
	lw	a4,-48(s0)
	lbu	a2,-25(s0)
	lbu	a1,-41(s0)
	ld	a5,16(s0)
	sd	a5,8(sp)
	ld	a5,0(s0)
	sd	a5,0(sp)
	ld	a7,-80(s0)
	ld	a6,-72(s0)
	mv	a5,a4
	ld	a4,-64(s0)
	jalr	t1
.LVL9:
	sd	a0,-24(s0)
.L19:
	.loc 1 237 10
	ld	a5,-24(s0)
	.loc 1 238 1
	mv	a0,a5
	ld	ra,104(sp)
	.cfi_restore 1
	ld	s0,96(sp)
	.cfi_restore 8
	.cfi_def_cfa 2, 112
	addi	sp,sp,112
	.cfi_def_cfa_offset 0
	jr	ra
	.cfi_endproc
.LFE4:
	.size	UsbHcControlTransfer, .-UsbHcControlTransfer
	.section	.text.UsbHcBulkTransfer,"ax",@progbits
	.align	1
	.globl	UsbHcBulkTransfer
	.type	UsbHcBulkTransfer, @function
UsbHcBulkTransfer:
.LFB5:
	.loc 1 277 1
	.cfi_startproc
	addi	sp,sp,-112
	.cfi_def_cfa_offset 112
	sd	ra,104(sp)
	sd	s0,96(sp)
	.cfi_offset 1, -8
	.cfi_offset 8, -16
	addi	s0,sp,112
	.cfi_def_cfa 8, 0
	sd	a0,-40(s0)
	sd	a4,-56(s0)
	mv	a4,a5
	sd	a6,-64(s0)
	sd	a7,-72(s0)
	mv	a5,a1
	sb	a5,-41(s0)
	mv	a5,a2
	sb	a5,-42(s0)
	mv	a5,a3
	sb	a5,-43(s0)
	mv	a5,a4
	sb	a5,-44(s0)
	.loc 1 280 13
	ld	a5,-40(s0)
	ld	a5,32(a5)
	.loc 1 280 6
	beq	a5,zero,.L22
	.loc 1 281 20
	ld	a5,-40(s0)
	ld	a5,32(a5)
	.loc 1 281 28
	ld	t1,40(a5)
	.loc 1 281 14
	ld	a5,-40(s0)
	ld	a0,32(a5)
	lbu	a4,-44(s0)
	lbu	a3,-43(s0)
	lbu	a2,-42(s0)
	lbu	a1,-41(s0)
	ld	a5,24(s0)
	sd	a5,24(sp)
	ld	a5,16(s0)
	sd	a5,16(sp)
	ld	a5,8(s0)
	sd	a5,8(sp)
	ld	a5,0(s0)
	sd	a5,0(sp)
	ld	a7,-72(s0)
	ld	a6,-64(s0)
	mv	a5,a4
	ld	a4,-56(s0)
	jalr	t1
.LVL10:
	sd	a0,-24(s0)
	j	.L23
.L22:
	.loc 1 296 20
	ld	a5,-40(s0)
	ld	a5,40(a5)
	.loc 1 296 27
	ld	t1,32(a5)
	.loc 1 296 14
	ld	a5,-40(s0)
	ld	a0,40(a5)
	ld	a5,-56(s0)
	andi	a3,a5,0xff
	ld	a5,-64(s0)
	ld	a4,0(a5)
	lbu	a2,-42(s0)
	lbu	a1,-41(s0)
	ld	a5,24(s0)
	sd	a5,0(sp)
	ld	a7,8(s0)
	ld	a6,0(s0)
	ld	a5,-72(s0)
	jalr	t1
.LVL11:
	sd	a0,-24(s0)
.L23:
	.loc 1 309 10
	ld	a5,-24(s0)
	.loc 1 310 1
	mv	a0,a5
	ld	ra,104(sp)
	.cfi_restore 1
	ld	s0,96(sp)
	.cfi_restore 8
	.cfi_def_cfa 2, 112
	addi	sp,sp,112
	.cfi_def_cfa_offset 0
	jr	ra
	.cfi_endproc
.LFE5:
	.size	UsbHcBulkTransfer, .-UsbHcBulkTransfer
	.section	.text.UsbHcAsyncInterruptTransfer,"ax",@progbits
	.align	1
	.globl	UsbHcAsyncInterruptTransfer
	.type	UsbHcAsyncInterruptTransfer, @function
UsbHcAsyncInterruptTransfer:
.LFB6:
	.loc 1 349 1
	.cfi_startproc
	addi	sp,sp,-112
	.cfi_def_cfa_offset 112
	sd	ra,104(sp)
	sd	s0,96(sp)
	.cfi_offset 1, -8
	.cfi_offset 8, -16
	addi	s0,sp,112
	.cfi_def_cfa 8, 0
	sd	a0,-40(s0)
	sd	a4,-56(s0)
	mv	a4,a5
	sd	a6,-64(s0)
	sd	a7,-72(s0)
	mv	a5,a1
	sb	a5,-41(s0)
	mv	a5,a2
	sb	a5,-42(s0)
	mv	a5,a3
	sb	a5,-43(s0)
	mv	a5,a4
	sb	a5,-44(s0)
	.loc 1 353 13
	ld	a5,-40(s0)
	ld	a5,32(a5)
	.loc 1 353 6
	beq	a5,zero,.L26
	.loc 1 354 20
	ld	a5,-40(s0)
	ld	a5,32(a5)
	.loc 1 354 28
	ld	t1,48(a5)
	.loc 1 354 14
	ld	a5,-40(s0)
	ld	a0,32(a5)
	lbu	a4,-44(s0)
	lbu	a3,-43(s0)
	lbu	a2,-42(s0)
	lbu	a1,-41(s0)
	ld	a5,24(s0)
	sd	a5,24(sp)
	ld	a5,16(s0)
	sd	a5,16(sp)
	ld	a5,8(s0)
	sd	a5,8(sp)
	ld	a5,0(s0)
	sd	a5,0(sp)
	ld	a7,-72(s0)
	ld	a6,-64(s0)
	mv	a5,a4
	ld	a4,-56(s0)
	jalr	t1
.LVL12:
	sd	a0,-24(s0)
	j	.L27
.L26:
	.loc 1 369 20
	lbu	a5,-43(s0)
	sext.w	a4,a5
	li	a5,1
	sub	a5,a4,a5
	seqz	a5,a5
	andi	a5,a5,0xff
	.loc 1 369 18
	sb	a5,-25(s0)
	.loc 1 371 20
	ld	a5,-40(s0)
	ld	a5,40(a5)
	.loc 1 371 27
	ld	t1,40(a5)
	.loc 1 371 14
	ld	a5,-40(s0)
	ld	a0,40(a5)
	ld	a5,-56(s0)
	andi	a4,a5,0xff
	lbu	t3,-44(s0)
	lbu	a3,-25(s0)
	lbu	a2,-42(s0)
	lbu	a1,-41(s0)
	ld	a5,24(s0)
	sd	a5,16(sp)
	ld	a5,16(s0)
	sd	a5,8(sp)
	ld	a5,0(s0)
	sd	a5,0(sp)
	ld	a7,-72(s0)
	ld	a6,-64(s0)
	mv	a5,t3
	jalr	t1
.LVL13:
	sd	a0,-24(s0)
.L27:
	.loc 1 386 10
	ld	a5,-24(s0)
	.loc 1 387 1
	mv	a0,a5
	ld	ra,104(sp)
	.cfi_restore 1
	ld	s0,96(sp)
	.cfi_restore 8
	.cfi_def_cfa 2, 112
	addi	sp,sp,112
	.cfi_def_cfa_offset 0
	jr	ra
	.cfi_endproc
.LFE6:
	.size	UsbHcAsyncInterruptTransfer, .-UsbHcAsyncInterruptTransfer
	.section	.text.UsbHcSyncInterruptTransfer,"ax",@progbits
	.align	1
	.globl	UsbHcSyncInterruptTransfer
	.type	UsbHcSyncInterruptTransfer, @function
UsbHcSyncInterruptTransfer:
.LFB7:
	.loc 1 424 1
	.cfi_startproc
	addi	sp,sp,-112
	.cfi_def_cfa_offset 112
	sd	ra,104(sp)
	sd	s0,96(sp)
	.cfi_offset 1, -8
	.cfi_offset 8, -16
	addi	s0,sp,112
	.cfi_def_cfa 8, 0
	sd	a0,-40(s0)
	sd	a4,-56(s0)
	sd	a5,-64(s0)
	sd	a6,-72(s0)
	sd	a7,-80(s0)
	mv	a5,a1
	sb	a5,-41(s0)
	mv	a5,a2
	sb	a5,-42(s0)
	mv	a5,a3
	sb	a5,-43(s0)
	.loc 1 428 13
	ld	a5,-40(s0)
	ld	a5,32(a5)
	.loc 1 428 6
	beq	a5,zero,.L30
	.loc 1 429 20
	ld	a5,-40(s0)
	ld	a5,32(a5)
	.loc 1 429 28
	ld	t1,56(a5)
	.loc 1 429 14
	ld	a5,-40(s0)
	ld	a0,32(a5)
	lbu	a3,-43(s0)
	lbu	a2,-42(s0)
	lbu	a1,-41(s0)
	ld	a5,16(s0)
	sd	a5,16(sp)
	ld	a5,8(s0)
	sd	a5,8(sp)
	ld	a5,0(s0)
	sd	a5,0(sp)
	ld	a7,-80(s0)
	ld	a6,-72(s0)
	ld	a5,-64(s0)
	ld	a4,-56(s0)
	jalr	t1
.LVL14:
	sd	a0,-24(s0)
	j	.L31
.L30:
	.loc 1 443 20
	lbu	a5,-43(s0)
	andi	a4,a5,0xff
	li	a5,1
	bne	a4,a5,.L32
	.loc 1 443 18 discriminator 1
	li	a5,1
	sb	a5,-25(s0)
	j	.L33
.L32:
	.loc 1 443 18 is_stmt 0 discriminator 2
	sb	zero,-25(s0)
.L33:
	.loc 1 444 20 is_stmt 1
	ld	a5,-40(s0)
	ld	a5,40(a5)
	.loc 1 444 27
	ld	t1,48(a5)
	.loc 1 444 14
	ld	a5,-40(s0)
	ld	a0,40(a5)
	ld	a5,-56(s0)
	andi	a4,a5,0xff
	lbu	a3,-25(s0)
	lbu	a2,-42(s0)
	lbu	a1,-41(s0)
	ld	a5,16(s0)
	sd	a5,8(sp)
	ld	a5,0(s0)
	sd	a5,0(sp)
	ld	a7,-80(s0)
	ld	a6,-72(s0)
	ld	a5,-64(s0)
	jalr	t1
.LVL15:
	sd	a0,-24(s0)
.L31:
	.loc 1 458 10
	ld	a5,-24(s0)
	.loc 1 459 1
	mv	a0,a5
	ld	ra,104(sp)
	.cfi_restore 1
	ld	s0,96(sp)
	.cfi_restore 8
	.cfi_def_cfa 2, 112
	addi	sp,sp,112
	.cfi_def_cfa_offset 0
	jr	ra
	.cfi_endproc
.LFE7:
	.size	UsbHcSyncInterruptTransfer, .-UsbHcSyncInterruptTransfer
	.section	.text.UsbOpenHostProtoByChild,"ax",@progbits
	.align	1
	.globl	UsbOpenHostProtoByChild
	.type	UsbOpenHostProtoByChild, @function
UsbOpenHostProtoByChild:
.LFB8:
	.loc 1 475 1
	.cfi_startproc
	addi	sp,sp,-64
	.cfi_def_cfa_offset 64
	sd	ra,56(sp)
	sd	s0,48(sp)
	.cfi_offset 1, -8
	.cfi_offset 8, -16
	addi	s0,sp,64
	.cfi_def_cfa 8, 0
	sd	a0,-56(s0)
	sd	a1,-64(s0)
	.loc 1 480 10
	ld	a5,-56(s0)
	ld	a5,32(a5)
	.loc 1 480 6
	beq	a5,zero,.L36
	.loc 1 481 17
	la	a5,gBS
	ld	a5,0(a5)
	ld	a6,280(a5)
	.loc 1 481 14
	ld	a5,-56(s0)
	ld	a0,16(a5)
	la	a5,mUsbBusDriverBinding
	ld	a3,40(a5)
	addi	a2,s0,-40
	li	a5,8
	ld	a4,-64(s0)
	la	a1,gEfiUsb2HcProtocolGuid
	jalr	a6
.LVL16:
	sd	a0,-24(s0)
	j	.L37
.L36:
	.loc 1 490 17
	la	a5,gBS
	ld	a5,0(a5)
	ld	a6,280(a5)
	.loc 1 490 14
	ld	a5,-56(s0)
	ld	a0,16(a5)
	la	a5,mUsbBusDriverBinding
	ld	a3,40(a5)
	addi	a2,s0,-32
	li	a5,8
	ld	a4,-64(s0)
	la	a1,gEfiUsbHcProtocolGuid
	jalr	a6
.LVL17:
	sd	a0,-24(s0)
.L37:
	.loc 1 500 10
	ld	a5,-24(s0)
	.loc 1 501 1
	mv	a0,a5
	ld	ra,56(sp)
	.cfi_restore 1
	ld	s0,48(sp)
	.cfi_restore 8
	.cfi_def_cfa 2, 64
	addi	sp,sp,64
	.cfi_def_cfa_offset 0
	jr	ra
	.cfi_endproc
.LFE8:
	.size	UsbOpenHostProtoByChild, .-UsbOpenHostProtoByChild
	.section	.text.UsbCloseHostProtoByChild,"ax",@progbits
	.align	1
	.globl	UsbCloseHostProtoByChild
	.type	UsbCloseHostProtoByChild, @function
UsbCloseHostProtoByChild:
.LFB9:
	.loc 1 515 1
	.cfi_startproc
	addi	sp,sp,-32
	.cfi_def_cfa_offset 32
	sd	ra,24(sp)
	sd	s0,16(sp)
	.cfi_offset 1, -8
	.cfi_offset 8, -16
	addi	s0,sp,32
	.cfi_def_cfa 8, 0
	sd	a0,-24(s0)
	sd	a1,-32(s0)
	.loc 1 516 10
	ld	a5,-24(s0)
	ld	a5,32(a5)
	.loc 1 516 6
	beq	a5,zero,.L40
	.loc 1 517 8
	la	a5,gBS
	ld	a5,0(a5)
	ld	a5,288(a5)
	.loc 1 517 5
	ld	a4,-24(s0)
	ld	a0,16(a4)
	la	a4,mUsbBusDriverBinding
	ld	a4,40(a4)
	ld	a3,-32(s0)
	mv	a2,a4
	la	a1,gEfiUsb2HcProtocolGuid
	jalr	a5
.LVL18:
	.loc 1 531 1
	j	.L42
.L40:
	.loc 1 524 8
	la	a5,gBS
	ld	a5,0(a5)
	ld	a5,288(a5)
	.loc 1 524 5
	ld	a4,-24(s0)
	ld	a0,16(a4)
	la	a4,mUsbBusDriverBinding
	ld	a4,40(a4)
	ld	a3,-32(s0)
	mv	a2,a4
	la	a1,gEfiUsbHcProtocolGuid
	jalr	a5
.LVL19:
.L42:
	.loc 1 531 1
	nop
	ld	ra,24(sp)
	.cfi_restore 1
	ld	s0,16(sp)
	.cfi_restore 8
	.cfi_def_cfa 2, 32
	addi	sp,sp,32
	.cfi_def_cfa_offset 0
	jr	ra
	.cfi_endproc
.LFE9:
	.size	UsbCloseHostProtoByChild, .-UsbCloseHostProtoByChild
	.section	.text.UsbGetCurrentTpl,"ax",@progbits
	.align	1
	.globl	UsbGetCurrentTpl
	.type	UsbGetCurrentTpl, @function
UsbGetCurrentTpl:
.LFB10:
	.loc 1 545 1
	.cfi_startproc
	addi	sp,sp,-32
	.cfi_def_cfa_offset 32
	sd	ra,24(sp)
	sd	s0,16(sp)
	.cfi_offset 1, -8
	.cfi_offset 8, -16
	addi	s0,sp,32
	.cfi_def_cfa 8, 0
	.loc 1 548 12
	la	a5,gBS
	ld	a5,0(a5)
	ld	a5,24(a5)
	.loc 1 548 9
	li	a0,31
	jalr	a5
.LVL20:
	sd	a0,-24(s0)
	.loc 1 549 6
	la	a5,gBS
	ld	a5,0(a5)
	ld	a5,32(a5)
	.loc 1 549 3
	ld	a0,-24(s0)
	jalr	a5
.LVL21:
	.loc 1 551 10
	ld	a5,-24(s0)
	.loc 1 552 1
	mv	a0,a5
	ld	ra,24(sp)
	.cfi_restore 1
	ld	s0,16(sp)
	.cfi_restore 8
	.cfi_def_cfa 2, 32
	addi	sp,sp,32
	.cfi_def_cfa_offset 0
	jr	ra
	.cfi_endproc
.LFE10:
	.size	UsbGetCurrentTpl, .-UsbGetCurrentTpl
	.section	.text.GetUsbDPFromFullDP,"ax",@progbits
	.align	1
	.globl	GetUsbDPFromFullDP
	.type	GetUsbDPFromFullDP, @function
GetUsbDPFromFullDP:
.LFB11:
	.loc 1 567 1
	.cfi_startproc
	addi	sp,sp,-64
	.cfi_def_cfa_offset 64
	sd	ra,56(sp)
	sd	s0,48(sp)
	.cfi_offset 1, -8
	.cfi_offset 8, -16
	addi	s0,sp,64
	.cfi_def_cfa 8, 0
	sd	a0,-56(s0)
	.loc 1 576 25
	ld	a5,-56(s0)
	sd	a5,-24(s0)
	.loc 1 577 9
	j	.L46
.L48:
	.loc 1 584 29
	ld	a0,-24(s0)
	call	NextDevicePathNode@plt
	sd	a0,-24(s0)
.L46:
	.loc 1 577 12
	ld	a0,-24(s0)
	call	IsDevicePathEnd@plt
	mv	a5,a0
	.loc 1 577 53 discriminator 1
	bne	a5,zero,.L47
	.loc 1 578 33
	ld	a5,-24(s0)
	lbu	a5,0(a5)
	.loc 1 577 53 discriminator 2
	mv	a4,a5
	li	a5,3
	bne	a4,a5,.L48
	.loc 1 579 34
	ld	a5,-24(s0)
	lbu	a5,1(a5)
	.loc 1 578 49
	mv	a4,a5
	li	a5,5
	beq	a4,a5,.L47
	.loc 1 580 35
	ld	a5,-24(s0)
	lbu	a5,1(a5)
	.loc 1 579 52
	mv	a4,a5
	li	a5,15
	beq	a4,a5,.L47
	.loc 1 581 35
	ld	a5,-24(s0)
	lbu	a5,1(a5)
	.loc 1 581 11
	mv	a4,a5
	li	a5,16
	bne	a4,a5,.L48
.L47:
	.loc 1 590 23
	ld	a5,-24(s0)
	sd	a5,-32(s0)
	.loc 1 591 9
	j	.L49
.L51:
	.loc 1 598 27
	ld	a0,-32(s0)
	call	NextDevicePathNode@plt
	sd	a0,-32(s0)
.L49:
	.loc 1 591 12
	ld	a0,-32(s0)
	call	IsDevicePathEnd@plt
	mv	a5,a0
	.loc 1 592 46
	bne	a5,zero,.L50
	.loc 1 592 30 discriminator 1
	ld	a5,-32(s0)
	lbu	a5,0(a5)
	.loc 1 591 51
	mv	a4,a5
	li	a5,3
	bne	a4,a5,.L50
	.loc 1 593 31
	ld	a5,-32(s0)
	lbu	a5,1(a5)
	.loc 1 592 46
	mv	a4,a5
	li	a5,5
	beq	a4,a5,.L51
	.loc 1 594 32
	ld	a5,-32(s0)
	lbu	a5,1(a5)
	.loc 1 593 49
	mv	a4,a5
	li	a5,15
	beq	a4,a5,.L51
	.loc 1 595 32
	ld	a5,-32(s0)
	lbu	a5,1(a5)
	.loc 1 595 10
	mv	a4,a5
	li	a5,16
	beq	a4,a5,.L51
.L50:
	.loc 1 601 10
	ld	a0,-24(s0)
	call	GetDevicePathSize@plt
	sd	a0,-40(s0)
	.loc 1 602 11
	ld	a0,-32(s0)
	call	GetDevicePathSize@plt
	mv	a4,a0
	.loc 1 602 8 discriminator 1
	ld	a5,-40(s0)
	sub	a5,a5,a4
	sd	a5,-40(s0)
	.loc 1 603 6
	ld	a5,-40(s0)
	bne	a5,zero,.L52
	.loc 1 607 12
	li	a5,0
	j	.L53
.L52:
	.loc 1 613 45
	ld	a5,-40(s0)
	addi	a5,a5,4
	.loc 1 613 22
	mv	a0,a5
	call	AllocateZeroPool@plt
	sd	a0,-48(s0)
	.loc 1 615 3
	ld	a2,-40(s0)
	ld	a1,-24(s0)
	ld	a0,-48(s0)
	call	CopyMem@plt
	.loc 1 619 54
	ld	a4,-48(s0)
	.loc 1 619 78
	ld	a5,-40(s0)
	add	a5,a4,a5
	.loc 1 619 23
	sd	a5,-32(s0)
	.loc 1 620 3
	ld	a0,-32(s0)
	call	SetDevicePathEndNode@plt
	.loc 1 621 10
	ld	a5,-48(s0)
.L53:
	.loc 1 622 1
	mv	a0,a5
	ld	ra,56(sp)
	.cfi_restore 1
	ld	s0,48(sp)
	.cfi_restore 8
	.cfi_def_cfa 2, 64
	addi	sp,sp,64
	.cfi_def_cfa_offset 0
	jr	ra
	.cfi_endproc
.LFE11:
	.size	GetUsbDPFromFullDP, .-GetUsbDPFromFullDP
	.section	.text.SearchUsbDPInList,"ax",@progbits
	.align	1
	.globl	SearchUsbDPInList
	.type	SearchUsbDPInList, @function
SearchUsbDPInList:
.LFB12:
	.loc 1 640 1
	.cfi_startproc
	addi	sp,sp,-64
	.cfi_def_cfa_offset 64
	sd	ra,56(sp)
	sd	s0,48(sp)
	.cfi_offset 1, -8
	.cfi_offset 8, -16
	addi	s0,sp,64
	.cfi_def_cfa 8, 0
	sd	a0,-56(s0)
	sd	a1,-64(s0)
	.loc 1 649 6
	ld	a5,-64(s0)
	beq	a5,zero,.L55
	.loc 1 649 37 discriminator 1
	ld	a5,-56(s0)
	bne	a5,zero,.L56
.L55:
	.loc 1 650 12
	li	a5,0
	j	.L57
.L56:
	.loc 1 653 9
	sb	zero,-33(s0)
	.loc 1 654 13
	ld	a5,-64(s0)
	ld	a5,0(a5)
	sd	a5,-24(s0)
	.loc 1 655 9
	j	.L58
.L63:
	.loc 1 656 18
	ld	a5,-24(s0)
	addi	a5,a5,-8
	.loc 1 656 137
	ld	a4,0(a5)
	.loc 1 656 222
	li	a5,1768714240
	addi	a5,a5,100
	bne	a4,a5,.L59
	.loc 1 656 14 discriminator 1
	ld	a5,-24(s0)
	addi	a5,a5,-8
	sd	a5,-32(s0)
	j	.L60
.L59:
	.loc 1 656 14 is_stmt 0 discriminator 2
	sd	zero,-32(s0)
.L60:
	.loc 1 662 27 is_stmt 1
	ld	a0,-56(s0)
	call	GetDevicePathSize@plt
	sd	a0,-48(s0)
	.loc 1 663 59
	ld	a5,-32(s0)
	ld	a5,24(a5)
	.loc 1 663 32
	mv	a0,a5
	call	GetDevicePathSize@plt
	mv	a4,a0
	.loc 1 663 8 discriminator 1
	ld	a5,-48(s0)
	bne	a5,a4,.L61
	.loc 1 664 39
	ld	a5,-32(s0)
	ld	a5,24(a5)
	.loc 1 664 12
	ld	a2,-48(s0)
	mv	a1,a5
	ld	a0,-56(s0)
	call	CompareMem@plt
	mv	a5,a0
	.loc 1 664 10 discriminator 1
	bne	a5,zero,.L61
	.loc 1 665 15
	li	a5,1
	sb	a5,-33(s0)
	.loc 1 666 9
	j	.L62
.L61:
	.loc 1 670 15
	ld	a5,-24(s0)
	ld	a5,0(a5)
	sd	a5,-24(s0)
.L58:
	.loc 1 655 20
	ld	a4,-24(s0)
	ld	a5,-64(s0)
	bne	a4,a5,.L63
.L62:
	.loc 1 673 10
	lbu	a5,-33(s0)
.L57:
	.loc 1 674 1
	mv	a0,a5
	ld	ra,56(sp)
	.cfi_restore 1
	ld	s0,48(sp)
	.cfi_restore 8
	.cfi_def_cfa 2, 64
	addi	sp,sp,64
	.cfi_def_cfa_offset 0
	jr	ra
	.cfi_endproc
.LFE12:
	.size	SearchUsbDPInList, .-SearchUsbDPInList
	.section	.text.AddUsbDPToList,"ax",@progbits
	.align	1
	.globl	AddUsbDPToList
	.type	AddUsbDPToList, @function
AddUsbDPToList:
.LFB13:
	.loc 1 692 1
	.cfi_startproc
	addi	sp,sp,-48
	.cfi_def_cfa_offset 48
	sd	ra,40(sp)
	sd	s0,32(sp)
	.cfi_offset 1, -8
	.cfi_offset 8, -16
	addi	s0,sp,48
	.cfi_def_cfa 8, 0
	sd	a0,-40(s0)
	sd	a1,-48(s0)
	.loc 1 698 6
	ld	a5,-48(s0)
	beq	a5,zero,.L65
	.loc 1 698 37 discriminator 1
	ld	a5,-40(s0)
	bne	a5,zero,.L66
.L65:
	.loc 1 699 12
	li	a5,-1
	slli	a5,a5,63
	addi	a5,a5,2
	j	.L67
.L66:
	.loc 1 702 7
	ld	a1,-48(s0)
	ld	a0,-40(s0)
	call	SearchUsbDPInList
	mv	a5,a0
	.loc 1 702 6 discriminator 1
	beq	a5,zero,.L68
	.loc 1 703 12
	li	a5,0
	j	.L67
.L68:
	.loc 1 709 14
	li	a0,32
	call	AllocateZeroPool@plt
	sd	a0,-24(s0)
	.loc 1 711 23
	ld	a5,-24(s0)
	li	a4,1768714240
	addi	a4,a4,100
	sd	a4,0(a5)
	.loc 1 712 26
	ld	a0,-40(s0)
	call	DuplicateDevicePath@plt
	mv	a4,a0
	.loc 1 712 24 discriminator 1
	ld	a5,-24(s0)
	sd	a4,24(a5)
	.loc 1 714 3
	ld	a5,-24(s0)
	addi	a5,a5,8
	mv	a1,a5
	ld	a0,-48(s0)
	call	InsertTailList@plt
	.loc 1 716 10
	li	a5,0
.L67:
	.loc 1 717 1
	mv	a0,a5
	ld	ra,40(sp)
	.cfi_restore 1
	ld	s0,32(sp)
	.cfi_restore 8
	.cfi_def_cfa 2, 48
	addi	sp,sp,48
	.cfi_def_cfa_offset 0
	jr	ra
	.cfi_endproc
.LFE13:
	.size	AddUsbDPToList, .-AddUsbDPToList
	.section	.text.MatchUsbClass,"ax",@progbits
	.align	1
	.globl	MatchUsbClass
	.type	MatchUsbClass, @function
MatchUsbClass:
.LFB14:
	.loc 1 736 1
	.cfi_startproc
	addi	sp,sp,-64
	.cfi_def_cfa_offset 64
	sd	ra,56(sp)
	sd	s0,48(sp)
	.cfi_offset 1, -8
	.cfi_offset 8, -16
	addi	s0,sp,64
	.cfi_def_cfa 8, 0
	sd	a0,-56(s0)
	sd	a1,-64(s0)
	.loc 1 741 37
	ld	a5,-56(s0)
	lbu	a5,0(a5)
	.loc 1 741 6
	mv	a4,a5
	li	a5,3
	bne	a4,a5,.L70
	.loc 1 742 37
	ld	a5,-56(s0)
	lbu	a5,1(a5)
	.loc 1 741 52 discriminator 1
	mv	a4,a5
	li	a5,15
	beq	a4,a5,.L71
.L70:
	.loc 1 745 12
	li	a5,0
	j	.L72
.L71:
	.loc 1 748 10
	ld	a5,-64(s0)
	ld	a5,16(a5)
	sd	a5,-24(s0)
	.loc 1 750 40
	ld	a4,-24(s0)
	li	a5,4096
	add	a5,a4,a5
	ld	a5,-2040(a5)
	.loc 1 750 33
	ld	a4,-24(s0)
	slli	a5,a5,3
	add	a5,a4,a5
	ld	a5,0(a5)
	.loc 1 750 13
	sd	a5,-32(s0)
	.loc 1 751 20
	ld	a5,-64(s0)
	ld	a5,8(a5)
	.loc 1 751 28
	ld	a5,16(a5)
	.loc 1 751 11
	sd	a5,-40(s0)
	.loc 1 759 17
	ld	a5,-32(s0)
	lbu	a5,5(a5)
	.loc 1 759 6
	mv	a4,a5
	li	a5,9
	bne	a4,a5,.L73
	.loc 1 760 17
	ld	a5,-32(s0)
	lbu	a5,6(a5)
	.loc 1 759 43 discriminator 1
	bne	a5,zero,.L73
	.loc 1 762 12
	li	a5,1
	j	.L72
.L73:
	.loc 1 768 30
	ld	a5,-56(s0)
	lbu	a4,4(a5)
	lbu	a5,5(a5)
	slli	a5,a5,8
	or	a5,a5,a4
	slli	a5,a5,48
	srli	a5,a5,48
	.loc 1 768 6
	sext.w	a4,a5
	li	a5,65536
	addi	a5,a5,-1
	beq	a4,a5,.L74
	.loc 1 768 77 discriminator 2
	ld	a5,-56(s0)
	lbu	a4,4(a5)
	lbu	a5,5(a5)
	slli	a5,a5,8
	or	a5,a5,a4
	slli	a3,a5,48
	srli	a3,a3,48
	.loc 1 768 98 discriminator 2
	ld	a5,-40(s0)
	lbu	a4,8(a5)
	lbu	a5,9(a5)
	slli	a5,a5,8
	or	a5,a5,a4
	slli	a5,a5,48
	srli	a5,a5,48
	.loc 1 768 52 discriminator 2
	sext.w	a4,a3
	sext.w	a5,a5
	bne	a4,a5,.L75
.L74:
	.loc 1 769 30
	ld	a5,-56(s0)
	lbu	a4,6(a5)
	lbu	a5,7(a5)
	slli	a5,a5,8
	or	a5,a5,a4
	slli	a5,a5,48
	srli	a5,a5,48
	.loc 1 768 111 discriminator 3
	sext.w	a4,a5
	li	a5,65536
	addi	a5,a5,-1
	beq	a4,a5,.L76
	.loc 1 769 78
	ld	a5,-56(s0)
	lbu	a4,6(a5)
	lbu	a5,7(a5)
	slli	a5,a5,8
	or	a5,a5,a4
	slli	a3,a5,48
	srli	a3,a3,48
	.loc 1 769 100
	ld	a5,-40(s0)
	lbu	a4,10(a5)
	lbu	a5,11(a5)
	slli	a5,a5,8
	or	a5,a5,a4
	slli	a5,a5,48
	srli	a5,a5,48
	.loc 1 769 53
	sext.w	a4,a3
	sext.w	a5,a5
	bne	a4,a5,.L75
.L76:
	.loc 1 774 16
	ld	a5,-40(s0)
	lbu	a5,4(a5)
	.loc 1 774 8
	bne	a5,zero,.L77
	.loc 1 775 34
	ld	a5,-56(s0)
	lbu	a4,8(a5)
	.loc 1 775 60
	ld	a5,-32(s0)
	lbu	a5,5(a5)
	.loc 1 775 10
	beq	a4,a5,.L78
	.loc 1 776 34
	ld	a5,-56(s0)
	lbu	a5,8(a5)
	.loc 1 775 78 discriminator 1
	mv	a4,a5
	li	a5,255
	bne	a4,a5,.L75
.L78:
	.loc 1 777 34
	ld	a5,-56(s0)
	lbu	a4,9(a5)
	.loc 1 777 63
	ld	a5,-32(s0)
	lbu	a5,6(a5)
	.loc 1 776 58
	beq	a4,a5,.L79
	.loc 1 778 34
	ld	a5,-56(s0)
	lbu	a5,9(a5)
	.loc 1 777 84
	mv	a4,a5
	li	a5,255
	bne	a4,a5,.L75
.L79:
	.loc 1 779 34
	ld	a5,-56(s0)
	lbu	a4,10(a5)
	.loc 1 779 63
	ld	a5,-32(s0)
	lbu	a5,7(a5)
	.loc 1 778 61
	beq	a4,a5,.L80
	.loc 1 780 34
	ld	a5,-56(s0)
	lbu	a5,10(a5)
	.loc 1 779 84
	mv	a4,a5
	li	a5,255
	bne	a4,a5,.L75
.L80:
	.loc 1 782 16
	li	a5,1
	j	.L72
.L77:
	.loc 1 784 39
	ld	a5,-56(s0)
	lbu	a4,8(a5)
	.loc 1 784 63
	ld	a5,-40(s0)
	lbu	a5,4(a5)
	.loc 1 784 15
	beq	a4,a5,.L81
	.loc 1 785 39
	ld	a5,-56(s0)
	lbu	a5,8(a5)
	.loc 1 784 78 discriminator 1
	mv	a4,a5
	li	a5,255
	bne	a4,a5,.L75
.L81:
	.loc 1 786 39
	ld	a5,-56(s0)
	lbu	a4,9(a5)
	.loc 1 786 66
	ld	a5,-40(s0)
	lbu	a5,5(a5)
	.loc 1 785 63
	beq	a4,a5,.L82
	.loc 1 787 39
	ld	a5,-56(s0)
	lbu	a5,9(a5)
	.loc 1 786 84
	mv	a4,a5
	li	a5,255
	bne	a4,a5,.L75
.L82:
	.loc 1 788 39
	ld	a5,-56(s0)
	lbu	a4,10(a5)
	.loc 1 788 66
	ld	a5,-40(s0)
	lbu	a5,6(a5)
	.loc 1 787 66
	beq	a4,a5,.L83
	.loc 1 789 39
	ld	a5,-56(s0)
	lbu	a5,10(a5)
	.loc 1 788 84
	mv	a4,a5
	li	a5,255
	bne	a4,a5,.L75
.L83:
	.loc 1 791 14
	li	a5,1
	j	.L72
.L75:
	.loc 1 795 10
	li	a5,0
.L72:
	.loc 1 796 1
	mv	a0,a5
	ld	ra,56(sp)
	.cfi_restore 1
	ld	s0,48(sp)
	.cfi_restore 8
	.cfi_def_cfa 2, 64
	addi	sp,sp,64
	.cfi_def_cfa_offset 0
	jr	ra
	.cfi_endproc
.LFE14:
	.size	MatchUsbClass, .-MatchUsbClass
	.section	.text.MatchUsbWwid,"ax",@progbits
	.align	1
	.globl	MatchUsbWwid
	.type	MatchUsbWwid, @function
MatchUsbWwid:
.LFB15:
	.loc 1 814 1
	.cfi_startproc
	addi	sp,sp,-96
	.cfi_def_cfa_offset 96
	sd	ra,88(sp)
	sd	s0,80(sp)
	.cfi_offset 1, -8
	.cfi_offset 8, -16
	addi	s0,sp,96
	.cfi_def_cfa 8, 0
	sd	a0,-88(s0)
	sd	a1,-96(s0)
	.loc 1 824 36
	ld	a5,-88(s0)
	lbu	a5,0(a5)
	.loc 1 824 6
	mv	a4,a5
	li	a5,3
	bne	a4,a5,.L85
	.loc 1 825 36
	ld	a5,-88(s0)
	lbu	a5,1(a5)
	.loc 1 824 51 discriminator 1
	mv	a4,a5
	li	a5,16
	beq	a4,a5,.L86
.L85:
	.loc 1 828 12
	li	a5,0
	j	.L87
.L86:
	.loc 1 831 10
	ld	a5,-96(s0)
	ld	a5,16(a5)
	sd	a5,-40(s0)
	.loc 1 833 40
	ld	a4,-40(s0)
	li	a5,4096
	add	a5,a4,a5
	ld	a5,-2040(a5)
	.loc 1 833 33
	ld	a4,-40(s0)
	slli	a5,a5,3
	add	a5,a4,a5
	ld	a5,0(a5)
	.loc 1 833 13
	sd	a5,-48(s0)
	.loc 1 834 20
	ld	a5,-96(s0)
	ld	a5,8(a5)
	.loc 1 834 28
	ld	a5,16(a5)
	.loc 1 834 11
	sd	a5,-56(s0)
	.loc 1 839 17
	ld	a5,-48(s0)
	lbu	a5,5(a5)
	.loc 1 839 6
	mv	a4,a5
	li	a5,9
	bne	a4,a5,.L88
	.loc 1 840 17
	ld	a5,-48(s0)
	lbu	a5,6(a5)
	.loc 1 839 43 discriminator 1
	bne	a5,zero,.L88
	.loc 1 842 12
	li	a5,1
	j	.L87
.L88:
	.loc 1 848 15
	ld	a5,-56(s0)
	lbu	a4,8(a5)
	lbu	a5,9(a5)
	slli	a5,a5,8
	or	a5,a5,a4
	slli	a3,a5,48
	srli	a3,a3,48
	.loc 1 848 49
	ld	a5,-88(s0)
	lbu	a4,6(a5)
	lbu	a5,7(a5)
	slli	a5,a5,8
	or	a5,a5,a4
	slli	a5,a5,48
	srli	a5,a5,48
	.loc 1 848 6
	sext.w	a4,a3
	sext.w	a5,a5
	bne	a4,a5,.L89
	.loc 1 849 15
	ld	a5,-56(s0)
	lbu	a4,10(a5)
	lbu	a5,11(a5)
	slli	a5,a5,8
	or	a5,a5,a4
	slli	a3,a5,48
	srli	a3,a3,48
	.loc 1 849 50
	ld	a5,-88(s0)
	lbu	a4,8(a5)
	lbu	a5,9(a5)
	slli	a5,a5,8
	or	a5,a5,a4
	slli	a5,a5,48
	srli	a5,a5,48
	.loc 1 848 61 discriminator 1
	sext.w	a4,a3
	sext.w	a5,a5
	bne	a4,a5,.L89
	.loc 1 850 17
	ld	a5,-48(s0)
	lbu	a5,2(a5)
	mv	a3,a5
	.loc 1 850 58
	ld	a5,-88(s0)
	lbu	a4,4(a5)
	lbu	a5,5(a5)
	slli	a5,a5,8
	or	a5,a5,a4
	slli	a5,a5,48
	srli	a5,a5,48
	.loc 1 849 63
	sext.w	a4,a3
	sext.w	a5,a5
	beq	a4,a5,.L90
.L89:
	.loc 1 852 12
	li	a5,0
	j	.L87
.L90:
	.loc 1 858 14
	ld	a5,-56(s0)
	lbu	a5,16(a5)
	.loc 1 858 6
	bne	a5,zero,.L91
	.loc 1 859 12
	li	a5,0
	j	.L87
.L91:
	.loc 1 865 14
	ld	a5,-88(s0)
	addi	a5,a5,10
	sd	a5,-64(s0)
	.loc 1 866 17
	ld	a0,-88(s0)
	call	DevicePathNodeLength@plt
	mv	a5,a0
	.loc 1 866 61 discriminator 1
	addi	a5,a5,-10
	.loc 1 866 14 discriminator 1
	srli	a5,a5,1
	sd	a5,-32(s0)
	.loc 1 867 17
	ld	a5,-32(s0)
	slli	a5,a5,1
	addi	a5,a5,-2
	ld	a4,-64(s0)
	add	a5,a4,a5
	lhu	a5,0(a5)
	.loc 1 867 6
	bne	a5,zero,.L92
	.loc 1 868 15
	ld	a5,-32(s0)
	addi	a5,a5,-1
	sd	a5,-32(s0)
.L92:
	.loc 1 874 14
	sh	zero,-18(s0)
	.loc 1 874 3
	j	.L93
.L96:
	.loc 1 875 15
	ld	a5,-96(s0)
	ld	a3,8(a5)
	ld	a5,-56(s0)
	lbu	a1,16(a5)
	.loc 1 875 78
	ld	a5,-96(s0)
	ld	a4,8(a5)
	.loc 1 875 15
	lhu	a5,-18(s0)
	sext.w	a5,a5
	addi	a5,a5,16
	slli	a5,a5,1
	add	a5,a4,a5
	lhu	a5,0(a5)
	mv	a2,a5
	mv	a0,a3
	call	UsbGetOneString@plt
	sd	a0,-72(s0)
	.loc 1 876 8
	ld	a5,-72(s0)
	beq	a5,zero,.L97
	.loc 1 880 22
	ld	a5,-72(s0)
	lbu	a5,0(a5)
	sext.w	a5,a5
	.loc 1 880 31
	addiw	a5,a5,-2
	sext.w	a5,a5
	.loc 1 880 12
	srli	a5,a5,1
	sd	a5,-80(s0)
	.loc 1 881 8
	ld	a4,-80(s0)
	ld	a5,-32(s0)
	bltu	a4,a5,.L95
	.loc 1 882 22
	ld	a5,-72(s0)
	addi	a4,a5,2
	.loc 1 882 47
	ld	a3,-80(s0)
	ld	a5,-32(s0)
	sub	a5,a3,a5
	slli	a5,a5,1
	.loc 1 882 10
	add	a4,a4,a5
	.loc 1 882 84
	ld	a5,-32(s0)
	slli	a5,a5,1
	.loc 1 882 10
	mv	a2,a5
	ld	a1,-64(s0)
	mv	a0,a4
	call	CompareMem@plt
	mv	a5,a0
	.loc 1 881 32 discriminator 1
	bne	a5,zero,.L95
	.loc 1 884 14
	li	a5,1
	j	.L87
.L97:
	.loc 1 877 7
	nop
.L95:
	.loc 1 874 60 discriminator 2
	lhu	a5,-18(s0)
	addiw	a5,a5,1
	sh	a5,-18(s0)
.L93:
	.loc 1 874 32 discriminator 1
	ld	a5,-96(s0)
	ld	a5,8(a5)
	.loc 1 874 40 discriminator 1
	lhu	a5,64(a5)
	.loc 1 874 25 discriminator 1
	lhu	a4,-18(s0)
	sext.w	a4,a4
	sext.w	a5,a5
	bltu	a4,a5,.L96
	.loc 1 888 10
	li	a5,0
.L87:
	.loc 1 889 1
	mv	a0,a5
	ld	ra,88(sp)
	.cfi_restore 1
	ld	s0,80(sp)
	.cfi_restore 8
	.cfi_def_cfa 2, 96
	addi	sp,sp,96
	.cfi_def_cfa_offset 0
	jr	ra
	.cfi_endproc
.LFE15:
	.size	MatchUsbWwid, .-MatchUsbWwid
	.section	.text.UsbBusFreeUsbDPList,"ax",@progbits
	.align	1
	.globl	UsbBusFreeUsbDPList
	.type	UsbBusFreeUsbDPList, @function
UsbBusFreeUsbDPList:
.LFB16:
	.loc 1 905 1
	.cfi_startproc
	addi	sp,sp,-48
	.cfi_def_cfa_offset 48
	sd	ra,40(sp)
	sd	s0,32(sp)
	.cfi_offset 1, -8
	.cfi_offset 8, -16
	addi	s0,sp,48
	.cfi_def_cfa 8, 0
	sd	a0,-40(s0)
	.loc 1 912 6
	ld	a5,-40(s0)
	bne	a5,zero,.L99
	.loc 1 913 12
	li	a5,-1
	slli	a5,a5,63
	addi	a5,a5,2
	j	.L100
.L99:
	.loc 1 916 13
	ld	a5,-40(s0)
	ld	a5,0(a5)
	sd	a5,-24(s0)
	.loc 1 917 9
	j	.L101
.L105:
	.loc 1 918 18
	ld	a5,-24(s0)
	addi	a5,a5,-8
	.loc 1 918 137
	ld	a4,0(a5)
	.loc 1 918 222
	li	a5,1768714240
	addi	a5,a5,100
	bne	a4,a5,.L102
	.loc 1 918 14 discriminator 1
	ld	a5,-24(s0)
	addi	a5,a5,-8
	sd	a5,-32(s0)
	j	.L103
.L102:
	.loc 1 918 14 is_stmt 0 discriminator 2
	sd	zero,-32(s0)
.L103:
	.loc 1 922 17 is_stmt 1
	ld	a5,-32(s0)
	ld	a5,24(a5)
	.loc 1 922 8
	beq	a5,zero,.L104
	.loc 1 923 25
	ld	a5,-32(s0)
	ld	a5,24(a5)
	.loc 1 923 7
	mv	a0,a5
	call	FreePool@plt
.L104:
	.loc 1 929 15
	ld	a5,-24(s0)
	ld	a5,0(a5)
	sd	a5,-24(s0)
	.loc 1 930 22
	ld	a5,-32(s0)
	addi	a5,a5,8
	.loc 1 930 5
	mv	a0,a5
	call	RemoveEntryList@plt
	.loc 1 931 5
	ld	a0,-32(s0)
	call	FreePool@plt
.L101:
	.loc 1 917 20
	ld	a4,-24(s0)
	ld	a5,-40(s0)
	bne	a4,a5,.L105
	.loc 1 934 3
	ld	a0,-40(s0)
	call	InitializeListHead@plt
	.loc 1 935 10
	li	a5,0
.L100:
	.loc 1 936 1
	mv	a0,a5
	ld	ra,40(sp)
	.cfi_restore 1
	ld	s0,32(sp)
	.cfi_restore 8
	.cfi_def_cfa 2, 48
	addi	sp,sp,48
	.cfi_def_cfa_offset 0
	jr	ra
	.cfi_endproc
.LFE16:
	.size	UsbBusFreeUsbDPList, .-UsbBusFreeUsbDPList
	.section	.text.UsbBusAddWantedUsbIoDP,"ax",@progbits
	.align	1
	.globl	UsbBusAddWantedUsbIoDP
	.type	UsbBusAddWantedUsbIoDP, @function
UsbBusAddWantedUsbIoDP:
.LFB17:
	.loc 1 955 1
	.cfi_startproc
	addi	sp,sp,-64
	.cfi_def_cfa_offset 64
	sd	ra,56(sp)
	sd	s0,48(sp)
	.cfi_offset 1, -8
	.cfi_offset 8, -16
	addi	s0,sp,64
	.cfi_def_cfa 8, 0
	sd	a0,-56(s0)
	sd	a1,-64(s0)
	.loc 1 963 6
	ld	a5,-64(s0)
	beq	a5,zero,.L107
	.loc 1 963 49 discriminator 1
	ld	a0,-64(s0)
	call	IsDevicePathEnd@plt
	mv	a5,a0
	.loc 1 963 45 discriminator 2
	bne	a5,zero,.L107
	.loc 1 964 29
	ld	a5,-64(s0)
	lbu	a5,0(a5)
	.loc 1 964 8
	mv	a4,a5
	li	a5,3
	bne	a4,a5,.L108
	.loc 1 965 31
	ld	a5,-64(s0)
	lbu	a5,1(a5)
	.loc 1 964 45 discriminator 1
	mv	a4,a5
	li	a5,5
	beq	a4,a5,.L107
	.loc 1 966 32
	ld	a5,-64(s0)
	lbu	a5,1(a5)
	.loc 1 965 50
	mv	a4,a5
	li	a5,15
	beq	a4,a5,.L107
	.loc 1 967 32
	ld	a5,-64(s0)
	lbu	a5,1(a5)
	.loc 1 967 9
	mv	a4,a5
	li	a5,16
	beq	a4,a5,.L107
.L108:
	.loc 1 970 14
	li	a5,-1
	slli	a5,a5,63
	addi	a5,a5,2
	j	.L109
.L107:
	.loc 1 974 6
	ld	a5,-56(s0)
	bne	a5,zero,.L110
	.loc 1 975 12
	li	a5,-1
	slli	a5,a5,63
	addi	a5,a5,2
	j	.L109
.L110:
	.loc 1 978 11
	ld	a5,-56(s0)
	addi	a5,a5,-8
	.loc 1 978 102
	ld	a4,0(a5)
	.loc 1 978 187
	li	a5,1111642112
	addi	a5,a5,853
	bne	a4,a5,.L111
	.loc 1 978 7 discriminator 1
	ld	a5,-56(s0)
	addi	a5,a5,-8
	sd	a5,-24(s0)
	j	.L112
.L111:
	.loc 1 978 7 is_stmt 0 discriminator 2
	sd	zero,-24(s0)
.L112:
	.loc 1 980 6 is_stmt 1
	ld	a5,-64(s0)
	bne	a5,zero,.L113
	.loc 1 986 14
	ld	a4,-24(s0)
	li	a5,4096
	addi	a5,a5,-1992
	add	a5,a4,a5
	mv	a0,a5
	call	UsbBusFreeUsbDPList
	sd	a0,-40(s0)
	.loc 1 988 21
	lla	a0,mAllUsbClassDevicePath
	call	DuplicateDevicePath@plt
	sd	a0,-32(s0)
	j	.L114
.L113:
	.loc 1 989 15
	ld	a0,-64(s0)
	call	IsDevicePathEnd@plt
	mv	a5,a0
	.loc 1 989 13 discriminator 1
	bne	a5,zero,.L115
	.loc 1 994 21
	ld	a0,-64(s0)
	call	GetUsbDPFromFullDP
	sd	a0,-32(s0)
	j	.L114
.L115:
	.loc 1 1000 12
	li	a5,0
	j	.L109
.L114:
	.loc 1 1004 12
	ld	a4,-24(s0)
	li	a5,4096
	addi	a5,a5,-1992
	add	a5,a4,a5
	mv	a1,a5
	ld	a0,-32(s0)
	call	AddUsbDPToList
	sd	a0,-40(s0)
	.loc 1 1006 3
	ld	a0,-32(s0)
	call	FreePool@plt
	.loc 1 1007 10
	li	a5,0
.L109:
	.loc 1 1008 1
	mv	a0,a5
	ld	ra,56(sp)
	.cfi_restore 1
	ld	s0,48(sp)
	.cfi_restore 8
	.cfi_def_cfa 2, 64
	addi	sp,sp,64
	.cfi_def_cfa_offset 0
	jr	ra
	.cfi_endproc
.LFE17:
	.size	UsbBusAddWantedUsbIoDP, .-UsbBusAddWantedUsbIoDP
	.section	.text.UsbBusIsWantedUsbIO,"ax",@progbits
	.align	1
	.globl	UsbBusIsWantedUsbIO
	.type	UsbBusIsWantedUsbIO, @function
UsbBusIsWantedUsbIO:
.LFB18:
	.loc 1 1026 1
	.cfi_startproc
	addi	sp,sp,-96
	.cfi_def_cfa_offset 96
	sd	ra,88(sp)
	sd	s0,80(sp)
	sd	s1,72(sp)
	.cfi_offset 1, -8
	.cfi_offset 8, -16
	.cfi_offset 9, -24
	addi	s0,sp,96
	.cfi_def_cfa 8, 0
	sd	a0,-88(s0)
	sd	a1,-96(s0)
	.loc 1 1037 6
	ld	a5,-96(s0)
	beq	a5,zero,.L117
	.loc 1 1037 31 discriminator 1
	ld	a5,-88(s0)
	bne	a5,zero,.L118
.L117:
	.loc 1 1038 12
	li	a5,0
	j	.L119
.L118:
	.loc 1 1044 12
	ld	a5,-96(s0)
	lbu	a5,153(a5)
	.loc 1 1044 6
	beq	a5,zero,.L120
	.loc 1 1045 12
	li	a5,1
	j	.L119
.L120:
	.loc 1 1051 7
	ld	a4,-88(s0)
	li	a5,4096
	addi	a5,a5,-1992
	add	a5,a4,a5
	mv	a1,a5
	lla	a0,mAllUsbClassDevicePath
	call	SearchUsbDPInList
	mv	a5,a0
	.loc 1 1051 6 discriminator 1
	beq	a5,zero,.L121
	.loc 1 1052 12
	li	a5,1
	j	.L119
.L121:
	.loc 1 1058 24
	ld	a4,-88(s0)
	li	a5,4096
	addi	a5,a5,-1992
	add	a5,a4,a5
	sd	a5,-64(s0)
	.loc 1 1062 19
	ld	a5,-96(s0)
	ld	a5,144(a5)
	mv	a0,a5
	call	GetUsbDPFromFullDP
	sd	a0,-72(s0)
	.loc 1 1065 13
	sb	zero,-49(s0)
	.loc 1 1066 19
	ld	a5,-64(s0)
	ld	a5,0(a5)
	sd	a5,-40(s0)
	.loc 1 1067 9
	j	.L122
.L135:
	.loc 1 1068 24
	ld	a5,-40(s0)
	addi	a5,a5,-8
	.loc 1 1068 149
	ld	a4,0(a5)
	.loc 1 1068 234
	li	a5,1768714240
	addi	a5,a5,100
	bne	a4,a5,.L123
	.loc 1 1068 20 discriminator 1
	ld	a5,-40(s0)
	addi	a5,a5,-8
	sd	a5,-48(s0)
	j	.L124
.L123:
	.loc 1 1068 20 is_stmt 0 discriminator 2
	sd	zero,-48(s0)
.L124:
	.loc 1 1070 27 is_stmt 1
	ld	a5,-48(s0)
	ld	a5,24(a5)
	.loc 1 1070 39
	lbu	a5,1(a5)
	sext.w	a5,a5
	.loc 1 1070 5
	li	a4,16
	beq	a5,a4,.L125
	li	a4,16
	bgt	a5,a4,.L137
	li	a4,5
	beq	a5,a4,.L127
	li	a4,15
	beq	a5,a4,.L128
	.loc 1 1100 9
	j	.L137
.L127:
	.loc 1 1072 64
	ld	a5,-48(s0)
	ld	a5,24(a5)
	.loc 1 1072 31
	mv	a0,a5
	call	GetDevicePathSize@plt
	sd	a0,-80(s0)
	.loc 1 1073 36
	ld	a0,-72(s0)
	call	GetDevicePathSize@plt
	mv	a4,a0
	.loc 1 1073 12 discriminator 1
	ld	a5,-80(s0)
	bne	a5,a4,.L138
	.loc 1 1075 31
	ld	a5,-48(s0)
	ld	s1,24(a5)
	.loc 1 1074 15
	ld	a0,-72(s0)
	call	GetDevicePathSize@plt
	mv	a5,a0
	.loc 1 1074 15 is_stmt 0 discriminator 1
	mv	a2,a5
	ld	a1,-72(s0)
	mv	a0,s1
	call	CompareMem@plt
	mv	a5,a0
	.loc 1 1074 14 is_stmt 1 discriminator 2
	bne	a5,zero,.L138
	.loc 1 1081 23
	li	a5,1
	sb	a5,-49(s0)
	.loc 1 1085 9
	j	.L138
.L128:
	.loc 1 1087 67
	ld	a5,-48(s0)
	ld	a5,24(a5)
	.loc 1 1087 13
	ld	a1,-96(s0)
	mv	a0,a5
	call	MatchUsbClass
	mv	a5,a0
	.loc 1 1087 12 discriminator 1
	beq	a5,zero,.L139
	.loc 1 1088 21
	li	a5,1
	sb	a5,-49(s0)
	.loc 1 1091 9
	j	.L139
.L125:
	.loc 1 1093 65
	ld	a5,-48(s0)
	ld	a5,24(a5)
	.loc 1 1093 13
	ld	a1,-96(s0)
	mv	a0,a5
	call	MatchUsbWwid
	mv	a5,a0
	.loc 1 1093 12 discriminator 1
	beq	a5,zero,.L140
	.loc 1 1094 21
	li	a5,1
	sb	a5,-49(s0)
	.loc 1 1097 9
	j	.L140
.L137:
	.loc 1 1100 9
	nop
	j	.L130
.L138:
	.loc 1 1085 9
	nop
	j	.L130
.L139:
	.loc 1 1091 9
	nop
	j	.L130
.L140:
	.loc 1 1097 9
	nop
.L130:
	.loc 1 1103 8
	lbu	a5,-49(s0)
	andi	a5,a5,0xff
	bne	a5,zero,.L141
	.loc 1 1107 21
	ld	a5,-40(s0)
	ld	a5,0(a5)
	sd	a5,-40(s0)
.L122:
	.loc 1 1067 26
	ld	a4,-40(s0)
	ld	a5,-64(s0)
	bne	a4,a5,.L135
	j	.L134
.L141:
	.loc 1 1104 7
	nop
.L134:
	.loc 1 1110 6
	la	a5,gBS
	ld	a5,0(a5)
	ld	a5,72(a5)
	.loc 1 1110 3
	ld	a0,-72(s0)
	jalr	a5
.LVL22:
	.loc 1 1115 6
	lbu	a5,-49(s0)
	andi	a5,a5,0xff
	beq	a5,zero,.L136
	.loc 1 1116 12
	li	a5,1
	j	.L119
.L136:
	.loc 1 1118 12
	li	a5,0
.L119:
	.loc 1 1120 1
	mv	a0,a5
	ld	ra,88(sp)
	.cfi_restore 1
	ld	s0,80(sp)
	.cfi_restore 8
	.cfi_def_cfa 2, 96
	ld	s1,72(sp)
	.cfi_restore 9
	addi	sp,sp,96
	.cfi_def_cfa_offset 0
	jr	ra
	.cfi_endproc
.LFE18:
	.size	UsbBusIsWantedUsbIO, .-UsbBusIsWantedUsbIO
	.section	.text.UsbBusRecursivelyConnectWantedUsbIo,"ax",@progbits
	.align	1
	.globl	UsbBusRecursivelyConnectWantedUsbIo
	.type	UsbBusRecursivelyConnectWantedUsbIo, @function
UsbBusRecursivelyConnectWantedUsbIo:
.LFB19:
	.loc 1 1137 1
	.cfi_startproc
	addi	sp,sp,-112
	.cfi_def_cfa_offset 112
	sd	ra,104(sp)
	sd	s0,96(sp)
	sd	s1,88(sp)
	sd	s2,80(sp)
	.cfi_offset 1, -8
	.cfi_offset 8, -16
	.cfi_offset 9, -24
	.cfi_offset 18, -32
	addi	s0,sp,112
	.cfi_def_cfa 8, 0
	sd	a0,-104(s0)
	.loc 1 1147 6
	ld	a5,-104(s0)
	bne	a5,zero,.L143
	.loc 1 1148 12
	li	a5,-1
	slli	a5,a5,63
	addi	a5,a5,2
	j	.L158
.L143:
	.loc 1 1151 11
	ld	a5,-104(s0)
	addi	a5,a5,-8
	.loc 1 1151 102
	ld	a4,0(a5)
	.loc 1 1151 187
	li	a5,1111642112
	addi	a5,a5,853
	bne	a4,a5,.L145
	.loc 1 1151 7 discriminator 1
	ld	a5,-104(s0)
	addi	a5,a5,-8
	sd	a5,-48(s0)
	j	.L146
.L145:
	.loc 1 1151 7 is_stmt 0 discriminator 2
	sd	zero,-48(s0)
.L146:
	.loc 1 1156 20 is_stmt 1
	sd	zero,-80(s0)
	.loc 1 1157 15
	la	a5,gBS
	ld	a5,0(a5)
	ld	a5,312(a5)
	.loc 1 1157 12
	addi	a4,s0,-88
	addi	a3,s0,-80
	li	a2,0
	la	a1,gEfiUsbIoProtocolGuid
	li	a0,2
	jalr	a5
.LVL23:
	sd	a0,-64(s0)
	.loc 1 1158 6
	ld	a4,-64(s0)
	li	a5,-1
	slli	a5,a5,63
	addi	a5,a5,14
	beq	a4,a5,.L147
	.loc 1 1158 88 discriminator 1
	ld	a5,-80(s0)
	.loc 1 1158 67 discriminator 1
	bne	a5,zero,.L148
.L147:
	.loc 1 1159 12
	li	a5,0
	j	.L158
.L148:
	.loc 1 1164 14
	sd	zero,-56(s0)
	.loc 1 1164 3
	j	.L149
.L157:
	.loc 1 1169 21
	sd	zero,-96(s0)
	.loc 1 1170 17
	la	a5,gBS
	ld	a5,0(a5)
	ld	a5,152(a5)
	.loc 1 1170 46
	ld	a3,-88(s0)
	ld	a4,-56(s0)
	slli	a4,a4,3
	add	a4,a3,a4
	.loc 1 1170 14
	ld	a4,0(a4)
	addi	a3,s0,-96
	mv	a2,a3
	la	a1,gEfiDevicePathProtocolGuid
	mv	a0,a4
	jalr	a5
.LVL24:
	sd	a0,-64(s0)
	.loc 1 1171 36
	ld	a5,-64(s0)
	.loc 1 1171 8
	blt	a5,zero,.L159
	.loc 1 1171 82 discriminator 2
	ld	a5,-96(s0)
	.loc 1 1171 62 discriminator 2
	beq	a5,zero,.L159
	.loc 1 1175 9
	ld	s1,-96(s0)
	.loc 1 1177 14
	ld	a5,-48(s0)
	ld	s2,24(a5)
	.loc 1 1178 34
	ld	a5,-48(s0)
	ld	a5,24(a5)
	.loc 1 1178 12
	mv	a0,a5
	call	GetDevicePathSize@plt
	mv	a5,a0
	.loc 1 1178 48 discriminator 1
	addi	a5,a5,-4
	.loc 1 1175 9
	mv	a2,a5
	mv	a1,s2
	mv	a0,s1
	call	CompareMem@plt
	mv	a5,a0
	.loc 1 1175 8 discriminator 1
	bne	a5,zero,.L160
	.loc 1 1187 17
	la	a5,gBS
	ld	a5,0(a5)
	ld	a5,152(a5)
	.loc 1 1188 32
	ld	a3,-88(s0)
	ld	a4,-56(s0)
	slli	a4,a4,3
	add	a4,a3,a4
	.loc 1 1187 14
	ld	a4,0(a4)
	addi	a3,s0,-72
	mv	a2,a3
	la	a1,gEfiUsbIoProtocolGuid
	mv	a0,a4
	jalr	a5
.LVL25:
	sd	a0,-64(s0)
	.loc 1 1192 36
	ld	a5,-64(s0)
	.loc 1 1192 8
	blt	a5,zero,.L161
	.loc 1 1196 33
	ld	a5,-72(s0)
	.loc 1 1196 15
	addi	a5,a5,-40
	.loc 1 1196 115
	ld	a4,0(a5)
	.loc 1 1196 200
	li	a5,1229082624
	addi	a5,a5,853
	bne	a4,a5,.L155
	.loc 1 1196 221 discriminator 1
	ld	a5,-72(s0)
	.loc 1 1196 11 discriminator 1
	addi	a5,a5,-40
	sd	a5,-40(s0)
	j	.L156
.L155:
	.loc 1 1196 11 is_stmt 0 discriminator 2
	sd	zero,-40(s0)
.L156:
	.loc 1 1198 9 is_stmt 1
	ld	a1,-40(s0)
	ld	a0,-48(s0)
	call	UsbBusIsWantedUsbIO
	mv	a5,a0
	.loc 1 1198 8 discriminator 1
	beq	a5,zero,.L152
	.loc 1 1199 17
	ld	a5,-40(s0)
	lbu	a5,152(a5)
	.loc 1 1199 10
	bne	a5,zero,.L152
	.loc 1 1204 21
	la	a5,gBS
	ld	a5,0(a5)
	ld	a5,264(a5)
	.loc 1 1204 18
	ld	a4,-40(s0)
	ld	a4,32(a4)
	li	a3,1
	li	a2,0
	li	a1,0
	mv	a0,a4
	jalr	a5
.LVL26:
	sd	a0,-64(s0)
	.loc 1 1205 38
	ld	a5,-64(s0)
	.loc 1 1205 28
	not	a5,a5
	srli	a5,a5,63
	andi	a5,a5,0xff
	mv	a4,a5
	.loc 1 1205 26
	ld	a5,-40(s0)
	sb	a4,152(a5)
	j	.L152
.L159:
	.loc 1 1172 7
	nop
	j	.L152
.L160:
	.loc 1 1181 7
	nop
	j	.L152
.L161:
	.loc 1 1193 7
	nop
.L152:
	.loc 1 1164 50 discriminator 2
	ld	a5,-56(s0)
	addi	a5,a5,1
	sd	a5,-56(s0)
.L149:
	.loc 1 1164 25 discriminator 1
	ld	a5,-80(s0)
	ld	a4,-56(s0)
	bltu	a4,a5,.L157
	.loc 1 1211 3
	ld	a5,-88(s0)
	mv	a0,a5
	call	FreePool@plt
	.loc 1 1213 10
	li	a5,0
.L158:
	.loc 1 1214 1
	mv	a0,a5
	ld	ra,104(sp)
	.cfi_restore 1
	ld	s0,96(sp)
	.cfi_restore 8
	.cfi_def_cfa 2, 112
	ld	s1,88(sp)
	.cfi_restore 9
	ld	s2,80(sp)
	.cfi_restore 18
	addi	sp,sp,112
	.cfi_def_cfa_offset 0
	jr	ra
	.cfi_endproc
.LFE19:
	.size	UsbBusRecursivelyConnectWantedUsbIo, .-UsbBusRecursivelyConnectWantedUsbIo
	.text
.Letext0:
	.file 2 "/home/kapoagaeming/Downloads/spacemit-image-builder/components/edk2/MdePkg/Include/RiscV64/ProcessorBind.h"
	.file 3 "/home/kapoagaeming/Downloads/spacemit-image-builder/components/edk2/MdePkg/Include/Base.h"
	.file 4 "/home/kapoagaeming/Downloads/spacemit-image-builder/components/edk2/MdePkg/Include/Uefi/UefiBaseType.h"
	.file 5 "/home/kapoagaeming/Downloads/spacemit-image-builder/components/edk2/MdePkg/Include/Uefi/UefiMultiPhase.h"
	.file 6 "/home/kapoagaeming/Downloads/spacemit-image-builder/components/edk2/MdePkg/Include/Protocol/DevicePath.h"
	.file 7 "/home/kapoagaeming/Downloads/spacemit-image-builder/components/edk2/MdePkg/Include/Uefi/UefiSpec.h"
	.file 8 "/home/kapoagaeming/Downloads/spacemit-image-builder/components/Build/Milk-V-Jupiter/RELEASE_GCC5/RISCV64/MdeModulePkg/Bus/Usb/UsbBusDxe/UsbBusDxe/DEBUG/AutoGen.h"
	.file 9 "/home/kapoagaeming/Downloads/spacemit-image-builder/components/edk2/MdePkg/Include/IndustryStandard/Usb.h"
	.file 10 "/home/kapoagaeming/Downloads/spacemit-image-builder/components/edk2/MdePkg/Include/Protocol/UsbIo.h"
	.file 11 "/home/kapoagaeming/Downloads/spacemit-image-builder/components/edk2/MdePkg/Include/Protocol/Usb2HostController.h"
	.file 12 "/home/kapoagaeming/Downloads/spacemit-image-builder/components/edk2/MdePkg/Include/Protocol/UsbHostController.h"
	.file 13 "/home/kapoagaeming/Downloads/spacemit-image-builder/components/edk2/MdePkg/Include/Protocol/DriverBinding.h"
	.file 14 "/home/kapoagaeming/Downloads/spacemit-image-builder/components/edk2/MdeModulePkg/Bus/Usb/UsbBusDxe/UsbBus.h"
	.file 15 "/home/kapoagaeming/Downloads/spacemit-image-builder/components/edk2/MdeModulePkg/Bus/Usb/UsbBusDxe/UsbDesc.h"
	.file 16 "/home/kapoagaeming/Downloads/spacemit-image-builder/components/edk2/MdeModulePkg/Bus/Usb/UsbBusDxe/UsbEnumer.h"
	.file 17 "/home/kapoagaeming/Downloads/spacemit-image-builder/components/edk2/MdePkg/Include/Library/BaseLib.h"
	.file 18 "/home/kapoagaeming/Downloads/spacemit-image-builder/components/edk2/MdePkg/Include/Library/DevicePathLib.h"
	.file 19 "/home/kapoagaeming/Downloads/spacemit-image-builder/components/edk2/MdePkg/Include/Library/BaseMemoryLib.h"
	.file 20 "/home/kapoagaeming/Downloads/spacemit-image-builder/components/edk2/MdePkg/Include/Library/MemoryAllocationLib.h"
	.file 21 "/home/kapoagaeming/Downloads/spacemit-image-builder/components/edk2/MdePkg/Include/Library/UefiBootServicesTableLib.h"
	.section	.note.GNU-stack,"",@progbits
