	.file	"BitField.c"
	.option pic
	.option norelax
	.attribute arch, "rv64i2p1_m2p0_a2p1_f2p2_d2p2_c2p0_zicsr2p0_zifencei2p0_zmmul1p0_zaamo1p0_zalrsc1p0_zca1p0_zcd1p0"
	.attribute unaligned_access, 0
	.attribute stack_align, 16
	.text
.Ltext0:
	.cfi_sections	.debug_frame
	.file 0 "/home/kapoagaeming/spacemit-image-builder/components/Build/Milk-V-Jupiter/RELEASE_GCC5/RISCV64/MdePkg/Library/BaseLib/BaseLib" "/home/kapoagaeming/spacemit-image-builder/components/edk2/MdePkg/Library/BaseLib/BitField.c"
	.section	.text.InternalBaseLibBitFieldReadUint,"ax",@progbits
	.align	1
	.globl	InternalBaseLibBitFieldReadUint
	.type	InternalBaseLibBitFieldReadUint, @function
InternalBaseLibBitFieldReadUint:
.LFB0:
	.file 1 "/home/kapoagaeming/spacemit-image-builder/components/edk2/MdePkg/Library/BaseLib/BitField.c"
	.loc 1 30 1
	.cfi_startproc
	addi	sp,sp,-48
	.cfi_def_cfa_offset 48
	sd	ra,40(sp)
	sd	s0,32(sp)
	.cfi_offset 1, -8
	.cfi_offset 8, -16
	addi	s0,sp,48
	.cfi_def_cfa 8, 0
	sd	a0,-24(s0)
	sd	a1,-32(s0)
	sd	a2,-40(s0)
	.loc 1 35 33
	ld	a5,-40(s0)
	sext.w	a5,a5
	mv	a4,a5
	li	a5,-2
	sll	a5,a5,a4
	.loc 1 35 21
	not	a4,a5
	.loc 1 35 19
	ld	a5,-24(s0)
	and	a5,a4,a5
	.loc 1 35 45
	ld	a4,-32(s0)
	sext.w	a4,a4
	srl	a5,a5,a4
	.loc 1 36 1
	mv	a0,a5
	ld	ra,40(sp)
	.cfi_restore 1
	ld	s0,32(sp)
	.cfi_restore 8
	.cfi_def_cfa 2, 48
	addi	sp,sp,48
	.cfi_def_cfa_offset 0
	jr	ra
	.cfi_endproc
.LFE0:
	.size	InternalBaseLibBitFieldReadUint, .-InternalBaseLibBitFieldReadUint
	.section	.text.InternalBaseLibBitFieldOrUint,"ax",@progbits
	.align	1
	.globl	InternalBaseLibBitFieldOrUint
	.type	InternalBaseLibBitFieldOrUint, @function
InternalBaseLibBitFieldOrUint:
.LFB1:
	.loc 1 64 1
	.cfi_startproc
	addi	sp,sp,-48
	.cfi_def_cfa_offset 48
	sd	ra,40(sp)
	sd	s0,32(sp)
	.cfi_offset 1, -8
	.cfi_offset 8, -16
	addi	s0,sp,48
	.cfi_def_cfa 8, 0
	sd	a0,-24(s0)
	sd	a1,-32(s0)
	sd	a2,-40(s0)
	sd	a3,-48(s0)
	.loc 1 77 29
	ld	a5,-32(s0)
	sext.w	a5,a5
	mv	a4,a5
	ld	a5,-48(s0)
	sll	a4,a5,a4
	.loc 1 77 56
	ld	a5,-40(s0)
	sext.w	a5,a5
	mv	a3,a5
	li	a5,-2
	sll	a5,a5,a3
	.loc 1 77 44
	not	a5,a5
	.loc 1 77 42
	and	a4,a4,a5
	.loc 1 77 18
	ld	a5,-24(s0)
	or	a5,a4,a5
	.loc 1 78 1
	mv	a0,a5
	ld	ra,40(sp)
	.cfi_restore 1
	ld	s0,32(sp)
	.cfi_restore 8
	.cfi_def_cfa 2, 48
	addi	sp,sp,48
	.cfi_def_cfa_offset 0
	jr	ra
	.cfi_endproc
.LFE1:
	.size	InternalBaseLibBitFieldOrUint, .-InternalBaseLibBitFieldOrUint
	.section	.text.InternalBaseLibBitFieldAndUint,"ax",@progbits
	.align	1
	.globl	InternalBaseLibBitFieldAndUint
	.type	InternalBaseLibBitFieldAndUint, @function
InternalBaseLibBitFieldAndUint:
.LFB2:
	.loc 1 106 1
	.cfi_startproc
	addi	sp,sp,-48
	.cfi_def_cfa_offset 48
	sd	ra,40(sp)
	sd	s0,32(sp)
	.cfi_offset 1, -8
	.cfi_offset 8, -16
	addi	s0,sp,48
	.cfi_def_cfa 8, 0
	sd	a0,-24(s0)
	sd	a1,-32(s0)
	sd	a2,-40(s0)
	sd	a3,-48(s0)
	.loc 1 119 59
	ld	a5,-40(s0)
	sext.w	a5,a5
	mv	a4,a5
	li	a5,-2
	sll	a4,a5,a4
	.loc 1 119 23
	ld	a5,-48(s0)
	not	a5,a5
	.loc 1 119 32
	ld	a3,-32(s0)
	sext.w	a3,a3
	sll	a5,a5,a3
	.loc 1 119 20
	not	a5,a5
	or	a4,a4,a5
	.loc 1 119 18
	ld	a5,-24(s0)
	and	a5,a4,a5
	.loc 1 120 1
	mv	a0,a5
	ld	ra,40(sp)
	.cfi_restore 1
	ld	s0,32(sp)
	.cfi_restore 8
	.cfi_def_cfa 2, 48
	addi	sp,sp,48
	.cfi_def_cfa_offset 0
	jr	ra
	.cfi_endproc
.LFE2:
	.size	InternalBaseLibBitFieldAndUint, .-InternalBaseLibBitFieldAndUint
	.section	.text.BitFieldRead8,"ax",@progbits
	.align	1
	.globl	BitFieldRead8
	.type	BitFieldRead8, @function
BitFieldRead8:
.LFB3:
	.loc 1 148 1
	.cfi_startproc
	addi	sp,sp,-48
	.cfi_def_cfa_offset 48
	sd	ra,40(sp)
	sd	s0,32(sp)
	.cfi_offset 1, -8
	.cfi_offset 8, -16
	addi	s0,sp,48
	.cfi_def_cfa 8, 0
	mv	a5,a0
	sd	a1,-32(s0)
	sd	a2,-40(s0)
	sb	a5,-17(s0)
	.loc 1 151 17
	lbu	a5,-17(s0)
	ld	a2,-40(s0)
	ld	a1,-32(s0)
	mv	a0,a5
	call	InternalBaseLibBitFieldReadUint
	mv	a5,a0
	.loc 1 151 10 discriminator 1
	andi	a5,a5,0xff
	.loc 1 152 1
	mv	a0,a5
	ld	ra,40(sp)
	.cfi_restore 1
	ld	s0,32(sp)
	.cfi_restore 8
	.cfi_def_cfa 2, 48
	addi	sp,sp,48
	.cfi_def_cfa_offset 0
	jr	ra
	.cfi_endproc
.LFE3:
	.size	BitFieldRead8, .-BitFieldRead8
	.section	.text.BitFieldWrite8,"ax",@progbits
	.align	1
	.globl	BitFieldWrite8
	.type	BitFieldWrite8, @function
BitFieldWrite8:
.LFB4:
	.loc 1 185 1
	.cfi_startproc
	addi	sp,sp,-48
	.cfi_def_cfa_offset 48
	sd	ra,40(sp)
	sd	s0,32(sp)
	.cfi_offset 1, -8
	.cfi_offset 8, -16
	addi	s0,sp,48
	.cfi_def_cfa 8, 0
	mv	a5,a0
	sd	a1,-32(s0)
	sd	a2,-40(s0)
	mv	a4,a3
	sb	a5,-17(s0)
	mv	a5,a4
	sb	a5,-18(s0)
	.loc 1 188 10
	lbu	a4,-18(s0)
	lbu	a5,-17(s0)
	li	a3,0
	ld	a2,-40(s0)
	ld	a1,-32(s0)
	mv	a0,a5
	call	BitFieldAndThenOr8
	mv	a5,a0
	.loc 1 189 1
	mv	a0,a5
	ld	ra,40(sp)
	.cfi_restore 1
	ld	s0,32(sp)
	.cfi_restore 8
	.cfi_def_cfa 2, 48
	addi	sp,sp,48
	.cfi_def_cfa_offset 0
	jr	ra
	.cfi_endproc
.LFE4:
	.size	BitFieldWrite8, .-BitFieldWrite8
	.section	.text.BitFieldOr8,"ax",@progbits
	.align	1
	.globl	BitFieldOr8
	.type	BitFieldOr8, @function
BitFieldOr8:
.LFB5:
	.loc 1 223 1
	.cfi_startproc
	addi	sp,sp,-48
	.cfi_def_cfa_offset 48
	sd	ra,40(sp)
	sd	s0,32(sp)
	.cfi_offset 1, -8
	.cfi_offset 8, -16
	addi	s0,sp,48
	.cfi_def_cfa 8, 0
	mv	a5,a0
	sd	a1,-32(s0)
	sd	a2,-40(s0)
	mv	a4,a3
	sb	a5,-17(s0)
	mv	a5,a4
	sb	a5,-18(s0)
	.loc 1 226 17
	lbu	a5,-17(s0)
	lbu	a4,-18(s0)
	mv	a3,a4
	ld	a2,-40(s0)
	ld	a1,-32(s0)
	mv	a0,a5
	call	InternalBaseLibBitFieldOrUint
	mv	a5,a0
	.loc 1 226 10 discriminator 1
	andi	a5,a5,0xff
	.loc 1 227 1
	mv	a0,a5
	ld	ra,40(sp)
	.cfi_restore 1
	ld	s0,32(sp)
	.cfi_restore 8
	.cfi_def_cfa 2, 48
	addi	sp,sp,48
	.cfi_def_cfa_offset 0
	jr	ra
	.cfi_endproc
.LFE5:
	.size	BitFieldOr8, .-BitFieldOr8
	.section	.text.BitFieldAnd8,"ax",@progbits
	.align	1
	.globl	BitFieldAnd8
	.type	BitFieldAnd8, @function
BitFieldAnd8:
.LFB6:
	.loc 1 261 1
	.cfi_startproc
	addi	sp,sp,-48
	.cfi_def_cfa_offset 48
	sd	ra,40(sp)
	sd	s0,32(sp)
	.cfi_offset 1, -8
	.cfi_offset 8, -16
	addi	s0,sp,48
	.cfi_def_cfa 8, 0
	mv	a5,a0
	sd	a1,-32(s0)
	sd	a2,-40(s0)
	mv	a4,a3
	sb	a5,-17(s0)
	mv	a5,a4
	sb	a5,-18(s0)
	.loc 1 264 17
	lbu	a5,-17(s0)
	lbu	a4,-18(s0)
	mv	a3,a4
	ld	a2,-40(s0)
	ld	a1,-32(s0)
	mv	a0,a5
	call	InternalBaseLibBitFieldAndUint
	mv	a5,a0
	.loc 1 264 10 discriminator 1
	andi	a5,a5,0xff
	.loc 1 265 1
	mv	a0,a5
	ld	ra,40(sp)
	.cfi_restore 1
	ld	s0,32(sp)
	.cfi_restore 8
	.cfi_def_cfa 2, 48
	addi	sp,sp,48
	.cfi_def_cfa_offset 0
	jr	ra
	.cfi_endproc
.LFE6:
	.size	BitFieldAnd8, .-BitFieldAnd8
	.section	.text.BitFieldAndThenOr8,"ax",@progbits
	.align	1
	.globl	BitFieldAndThenOr8
	.type	BitFieldAndThenOr8, @function
BitFieldAndThenOr8:
.LFB7:
	.loc 1 303 1
	.cfi_startproc
	addi	sp,sp,-48
	.cfi_def_cfa_offset 48
	sd	ra,40(sp)
	sd	s0,32(sp)
	.cfi_offset 1, -8
	.cfi_offset 8, -16
	addi	s0,sp,48
	.cfi_def_cfa 8, 0
	mv	a5,a0
	sd	a1,-32(s0)
	sd	a2,-40(s0)
	sb	a5,-17(s0)
	mv	a5,a3
	sb	a5,-18(s0)
	mv	a5,a4
	sb	a5,-19(s0)
	.loc 1 306 10
	lbu	a4,-18(s0)
	lbu	a5,-17(s0)
	mv	a3,a4
	ld	a2,-40(s0)
	ld	a1,-32(s0)
	mv	a0,a5
	call	BitFieldAnd8
	mv	a5,a0
	mv	a4,a5
	.loc 1 306 10 is_stmt 0 discriminator 1
	lbu	a5,-19(s0)
	mv	a3,a5
	ld	a2,-40(s0)
	ld	a1,-32(s0)
	mv	a0,a4
	call	BitFieldOr8
	mv	a5,a0
	.loc 1 312 1 is_stmt 1
	mv	a0,a5
	ld	ra,40(sp)
	.cfi_restore 1
	ld	s0,32(sp)
	.cfi_restore 8
	.cfi_def_cfa 2, 48
	addi	sp,sp,48
	.cfi_def_cfa_offset 0
	jr	ra
	.cfi_endproc
.LFE7:
	.size	BitFieldAndThenOr8, .-BitFieldAndThenOr8
	.section	.text.BitFieldRead16,"ax",@progbits
	.align	1
	.globl	BitFieldRead16
	.type	BitFieldRead16, @function
BitFieldRead16:
.LFB8:
	.loc 1 340 1
	.cfi_startproc
	addi	sp,sp,-48
	.cfi_def_cfa_offset 48
	sd	ra,40(sp)
	sd	s0,32(sp)
	.cfi_offset 1, -8
	.cfi_offset 8, -16
	addi	s0,sp,48
	.cfi_def_cfa 8, 0
	mv	a5,a0
	sd	a1,-32(s0)
	sd	a2,-40(s0)
	sh	a5,-18(s0)
	.loc 1 343 18
	lhu	a5,-18(s0)
	ld	a2,-40(s0)
	ld	a1,-32(s0)
	mv	a0,a5
	call	InternalBaseLibBitFieldReadUint
	mv	a5,a0
	.loc 1 343 10 discriminator 1
	slli	a5,a5,48
	srli	a5,a5,48
	.loc 1 344 1
	mv	a0,a5
	ld	ra,40(sp)
	.cfi_restore 1
	ld	s0,32(sp)
	.cfi_restore 8
	.cfi_def_cfa 2, 48
	addi	sp,sp,48
	.cfi_def_cfa_offset 0
	jr	ra
	.cfi_endproc
.LFE8:
	.size	BitFieldRead16, .-BitFieldRead16
	.section	.text.BitFieldWrite16,"ax",@progbits
	.align	1
	.globl	BitFieldWrite16
	.type	BitFieldWrite16, @function
BitFieldWrite16:
.LFB9:
	.loc 1 377 1
	.cfi_startproc
	addi	sp,sp,-48
	.cfi_def_cfa_offset 48
	sd	ra,40(sp)
	sd	s0,32(sp)
	.cfi_offset 1, -8
	.cfi_offset 8, -16
	addi	s0,sp,48
	.cfi_def_cfa 8, 0
	mv	a5,a0
	sd	a1,-32(s0)
	sd	a2,-40(s0)
	mv	a4,a3
	sh	a5,-18(s0)
	mv	a5,a4
	sh	a5,-20(s0)
	.loc 1 380 10
	lhu	a4,-20(s0)
	lhu	a5,-18(s0)
	li	a3,0
	ld	a2,-40(s0)
	ld	a1,-32(s0)
	mv	a0,a5
	call	BitFieldAndThenOr16
	mv	a5,a0
	.loc 1 381 1
	mv	a0,a5
	ld	ra,40(sp)
	.cfi_restore 1
	ld	s0,32(sp)
	.cfi_restore 8
	.cfi_def_cfa 2, 48
	addi	sp,sp,48
	.cfi_def_cfa_offset 0
	jr	ra
	.cfi_endproc
.LFE9:
	.size	BitFieldWrite16, .-BitFieldWrite16
	.section	.text.BitFieldOr16,"ax",@progbits
	.align	1
	.globl	BitFieldOr16
	.type	BitFieldOr16, @function
BitFieldOr16:
.LFB10:
	.loc 1 415 1
	.cfi_startproc
	addi	sp,sp,-48
	.cfi_def_cfa_offset 48
	sd	ra,40(sp)
	sd	s0,32(sp)
	.cfi_offset 1, -8
	.cfi_offset 8, -16
	addi	s0,sp,48
	.cfi_def_cfa 8, 0
	mv	a5,a0
	sd	a1,-32(s0)
	sd	a2,-40(s0)
	mv	a4,a3
	sh	a5,-18(s0)
	mv	a5,a4
	sh	a5,-20(s0)
	.loc 1 418 18
	lhu	a5,-18(s0)
	lhu	a4,-20(s0)
	mv	a3,a4
	ld	a2,-40(s0)
	ld	a1,-32(s0)
	mv	a0,a5
	call	InternalBaseLibBitFieldOrUint
	mv	a5,a0
	.loc 1 418 10 discriminator 1
	slli	a5,a5,48
	srli	a5,a5,48
	.loc 1 419 1
	mv	a0,a5
	ld	ra,40(sp)
	.cfi_restore 1
	ld	s0,32(sp)
	.cfi_restore 8
	.cfi_def_cfa 2, 48
	addi	sp,sp,48
	.cfi_def_cfa_offset 0
	jr	ra
	.cfi_endproc
.LFE10:
	.size	BitFieldOr16, .-BitFieldOr16
	.section	.text.BitFieldAnd16,"ax",@progbits
	.align	1
	.globl	BitFieldAnd16
	.type	BitFieldAnd16, @function
BitFieldAnd16:
.LFB11:
	.loc 1 453 1
	.cfi_startproc
	addi	sp,sp,-48
	.cfi_def_cfa_offset 48
	sd	ra,40(sp)
	sd	s0,32(sp)
	.cfi_offset 1, -8
	.cfi_offset 8, -16
	addi	s0,sp,48
	.cfi_def_cfa 8, 0
	mv	a5,a0
	sd	a1,-32(s0)
	sd	a2,-40(s0)
	mv	a4,a3
	sh	a5,-18(s0)
	mv	a5,a4
	sh	a5,-20(s0)
	.loc 1 456 18
	lhu	a5,-18(s0)
	lhu	a4,-20(s0)
	mv	a3,a4
	ld	a2,-40(s0)
	ld	a1,-32(s0)
	mv	a0,a5
	call	InternalBaseLibBitFieldAndUint
	mv	a5,a0
	.loc 1 456 10 discriminator 1
	slli	a5,a5,48
	srli	a5,a5,48
	.loc 1 457 1
	mv	a0,a5
	ld	ra,40(sp)
	.cfi_restore 1
	ld	s0,32(sp)
	.cfi_restore 8
	.cfi_def_cfa 2, 48
	addi	sp,sp,48
	.cfi_def_cfa_offset 0
	jr	ra
	.cfi_endproc
.LFE11:
	.size	BitFieldAnd16, .-BitFieldAnd16
	.section	.text.BitFieldAndThenOr16,"ax",@progbits
	.align	1
	.globl	BitFieldAndThenOr16
	.type	BitFieldAndThenOr16, @function
BitFieldAndThenOr16:
.LFB12:
	.loc 1 495 1
	.cfi_startproc
	addi	sp,sp,-48
	.cfi_def_cfa_offset 48
	sd	ra,40(sp)
	sd	s0,32(sp)
	.cfi_offset 1, -8
	.cfi_offset 8, -16
	addi	s0,sp,48
	.cfi_def_cfa 8, 0
	mv	a5,a0
	sd	a1,-32(s0)
	sd	a2,-40(s0)
	sh	a5,-18(s0)
	mv	a5,a3
	sh	a5,-20(s0)
	mv	a5,a4
	sh	a5,-22(s0)
	.loc 1 498 10
	lhu	a4,-20(s0)
	lhu	a5,-18(s0)
	mv	a3,a4
	ld	a2,-40(s0)
	ld	a1,-32(s0)
	mv	a0,a5
	call	BitFieldAnd16
	mv	a5,a0
	mv	a4,a5
	.loc 1 498 10 is_stmt 0 discriminator 1
	lhu	a5,-22(s0)
	mv	a3,a5
	ld	a2,-40(s0)
	ld	a1,-32(s0)
	mv	a0,a4
	call	BitFieldOr16
	mv	a5,a0
	.loc 1 504 1 is_stmt 1
	mv	a0,a5
	ld	ra,40(sp)
	.cfi_restore 1
	ld	s0,32(sp)
	.cfi_restore 8
	.cfi_def_cfa 2, 48
	addi	sp,sp,48
	.cfi_def_cfa_offset 0
	jr	ra
	.cfi_endproc
.LFE12:
	.size	BitFieldAndThenOr16, .-BitFieldAndThenOr16
	.section	.text.BitFieldRead32,"ax",@progbits
	.align	1
	.globl	BitFieldRead32
	.type	BitFieldRead32, @function
BitFieldRead32:
.LFB13:
	.loc 1 532 1
	.cfi_startproc
	addi	sp,sp,-48
	.cfi_def_cfa_offset 48
	sd	ra,40(sp)
	sd	s0,32(sp)
	.cfi_offset 1, -8
	.cfi_offset 8, -16
	addi	s0,sp,48
	.cfi_def_cfa 8, 0
	mv	a5,a0
	sd	a1,-32(s0)
	sd	a2,-40(s0)
	sw	a5,-20(s0)
	.loc 1 535 18
	lwu	a5,-20(s0)
	ld	a2,-40(s0)
	ld	a1,-32(s0)
	mv	a0,a5
	call	InternalBaseLibBitFieldReadUint
	mv	a5,a0
	.loc 1 535 10 discriminator 1
	sext.w	a5,a5
	.loc 1 536 1
	mv	a0,a5
	ld	ra,40(sp)
	.cfi_restore 1
	ld	s0,32(sp)
	.cfi_restore 8
	.cfi_def_cfa 2, 48
	addi	sp,sp,48
	.cfi_def_cfa_offset 0
	jr	ra
	.cfi_endproc
.LFE13:
	.size	BitFieldRead32, .-BitFieldRead32
	.section	.text.BitFieldWrite32,"ax",@progbits
	.align	1
	.globl	BitFieldWrite32
	.type	BitFieldWrite32, @function
BitFieldWrite32:
.LFB14:
	.loc 1 569 1
	.cfi_startproc
	addi	sp,sp,-48
	.cfi_def_cfa_offset 48
	sd	ra,40(sp)
	sd	s0,32(sp)
	.cfi_offset 1, -8
	.cfi_offset 8, -16
	addi	s0,sp,48
	.cfi_def_cfa 8, 0
	mv	a5,a0
	sd	a1,-32(s0)
	sd	a2,-40(s0)
	mv	a4,a3
	sw	a5,-20(s0)
	mv	a5,a4
	sw	a5,-24(s0)
	.loc 1 572 10
	lw	a4,-24(s0)
	lw	a5,-20(s0)
	li	a3,0
	ld	a2,-40(s0)
	ld	a1,-32(s0)
	mv	a0,a5
	call	BitFieldAndThenOr32
	mv	a5,a0
	.loc 1 573 1
	mv	a0,a5
	ld	ra,40(sp)
	.cfi_restore 1
	ld	s0,32(sp)
	.cfi_restore 8
	.cfi_def_cfa 2, 48
	addi	sp,sp,48
	.cfi_def_cfa_offset 0
	jr	ra
	.cfi_endproc
.LFE14:
	.size	BitFieldWrite32, .-BitFieldWrite32
	.section	.text.BitFieldOr32,"ax",@progbits
	.align	1
	.globl	BitFieldOr32
	.type	BitFieldOr32, @function
BitFieldOr32:
.LFB15:
	.loc 1 607 1
	.cfi_startproc
	addi	sp,sp,-48
	.cfi_def_cfa_offset 48
	sd	ra,40(sp)
	sd	s0,32(sp)
	.cfi_offset 1, -8
	.cfi_offset 8, -16
	addi	s0,sp,48
	.cfi_def_cfa 8, 0
	mv	a5,a0
	sd	a1,-32(s0)
	sd	a2,-40(s0)
	mv	a4,a3
	sw	a5,-20(s0)
	mv	a5,a4
	sw	a5,-24(s0)
	.loc 1 610 18
	lwu	a5,-20(s0)
	lwu	a4,-24(s0)
	mv	a3,a4
	ld	a2,-40(s0)
	ld	a1,-32(s0)
	mv	a0,a5
	call	InternalBaseLibBitFieldOrUint
	mv	a5,a0
	.loc 1 610 10 discriminator 1
	sext.w	a5,a5
	.loc 1 611 1
	mv	a0,a5
	ld	ra,40(sp)
	.cfi_restore 1
	ld	s0,32(sp)
	.cfi_restore 8
	.cfi_def_cfa 2, 48
	addi	sp,sp,48
	.cfi_def_cfa_offset 0
	jr	ra
	.cfi_endproc
.LFE15:
	.size	BitFieldOr32, .-BitFieldOr32
	.section	.text.BitFieldAnd32,"ax",@progbits
	.align	1
	.globl	BitFieldAnd32
	.type	BitFieldAnd32, @function
BitFieldAnd32:
.LFB16:
	.loc 1 645 1
	.cfi_startproc
	addi	sp,sp,-48
	.cfi_def_cfa_offset 48
	sd	ra,40(sp)
	sd	s0,32(sp)
	.cfi_offset 1, -8
	.cfi_offset 8, -16
	addi	s0,sp,48
	.cfi_def_cfa 8, 0
	mv	a5,a0
	sd	a1,-32(s0)
	sd	a2,-40(s0)
	mv	a4,a3
	sw	a5,-20(s0)
	mv	a5,a4
	sw	a5,-24(s0)
	.loc 1 648 18
	lwu	a5,-20(s0)
	lwu	a4,-24(s0)
	mv	a3,a4
	ld	a2,-40(s0)
	ld	a1,-32(s0)
	mv	a0,a5
	call	InternalBaseLibBitFieldAndUint
	mv	a5,a0
	.loc 1 648 10 discriminator 1
	sext.w	a5,a5
	.loc 1 649 1
	mv	a0,a5
	ld	ra,40(sp)
	.cfi_restore 1
	ld	s0,32(sp)
	.cfi_restore 8
	.cfi_def_cfa 2, 48
	addi	sp,sp,48
	.cfi_def_cfa_offset 0
	jr	ra
	.cfi_endproc
.LFE16:
	.size	BitFieldAnd32, .-BitFieldAnd32
	.section	.text.BitFieldAndThenOr32,"ax",@progbits
	.align	1
	.globl	BitFieldAndThenOr32
	.type	BitFieldAndThenOr32, @function
BitFieldAndThenOr32:
.LFB17:
	.loc 1 687 1
	.cfi_startproc
	addi	sp,sp,-48
	.cfi_def_cfa_offset 48
	sd	ra,40(sp)
	sd	s0,32(sp)
	.cfi_offset 1, -8
	.cfi_offset 8, -16
	addi	s0,sp,48
	.cfi_def_cfa 8, 0
	mv	a5,a0
	sd	a1,-32(s0)
	sd	a2,-40(s0)
	sw	a5,-20(s0)
	mv	a5,a3
	sw	a5,-24(s0)
	mv	a5,a4
	sw	a5,-44(s0)
	.loc 1 690 10
	lw	a4,-24(s0)
	lw	a5,-20(s0)
	mv	a3,a4
	ld	a2,-40(s0)
	ld	a1,-32(s0)
	mv	a0,a5
	call	BitFieldAnd32
	mv	a5,a0
	mv	a4,a5
	.loc 1 690 10 is_stmt 0 discriminator 1
	lw	a5,-44(s0)
	mv	a3,a5
	ld	a2,-40(s0)
	ld	a1,-32(s0)
	mv	a0,a4
	call	BitFieldOr32
	mv	a5,a0
	.loc 1 696 1 is_stmt 1
	mv	a0,a5
	ld	ra,40(sp)
	.cfi_restore 1
	ld	s0,32(sp)
	.cfi_restore 8
	.cfi_def_cfa 2, 48
	addi	sp,sp,48
	.cfi_def_cfa_offset 0
	jr	ra
	.cfi_endproc
.LFE17:
	.size	BitFieldAndThenOr32, .-BitFieldAndThenOr32
	.section	.text.BitFieldRead64,"ax",@progbits
	.align	1
	.globl	BitFieldRead64
	.type	BitFieldRead64, @function
BitFieldRead64:
.LFB18:
	.loc 1 724 1
	.cfi_startproc
	addi	sp,sp,-48
	.cfi_def_cfa_offset 48
	sd	ra,40(sp)
	sd	s0,32(sp)
	.cfi_offset 1, -8
	.cfi_offset 8, -16
	addi	s0,sp,48
	.cfi_def_cfa 8, 0
	sd	a0,-24(s0)
	sd	a1,-32(s0)
	sd	a2,-40(s0)
	.loc 1 727 32
	ld	a1,-40(s0)
	li	a0,-2
	call	LShiftU64@plt
	mv	a5,a0
	.loc 1 727 31 discriminator 1
	not	a4,a5
	.loc 1 727 10 discriminator 1
	ld	a5,-24(s0)
	and	a5,a4,a5
	ld	a1,-32(s0)
	mv	a0,a5
	call	RShiftU64@plt
	mv	a5,a0
	.loc 1 728 1
	mv	a0,a5
	ld	ra,40(sp)
	.cfi_restore 1
	ld	s0,32(sp)
	.cfi_restore 8
	.cfi_def_cfa 2, 48
	addi	sp,sp,48
	.cfi_def_cfa_offset 0
	jr	ra
	.cfi_endproc
.LFE18:
	.size	BitFieldRead64, .-BitFieldRead64
	.section	.text.BitFieldWrite64,"ax",@progbits
	.align	1
	.globl	BitFieldWrite64
	.type	BitFieldWrite64, @function
BitFieldWrite64:
.LFB19:
	.loc 1 761 1
	.cfi_startproc
	addi	sp,sp,-48
	.cfi_def_cfa_offset 48
	sd	ra,40(sp)
	sd	s0,32(sp)
	.cfi_offset 1, -8
	.cfi_offset 8, -16
	addi	s0,sp,48
	.cfi_def_cfa 8, 0
	sd	a0,-24(s0)
	sd	a1,-32(s0)
	sd	a2,-40(s0)
	sd	a3,-48(s0)
	.loc 1 764 10
	ld	a4,-48(s0)
	li	a3,0
	ld	a2,-40(s0)
	ld	a1,-32(s0)
	ld	a0,-24(s0)
	call	BitFieldAndThenOr64
	mv	a5,a0
	.loc 1 765 1
	mv	a0,a5
	ld	ra,40(sp)
	.cfi_restore 1
	ld	s0,32(sp)
	.cfi_restore 8
	.cfi_def_cfa 2, 48
	addi	sp,sp,48
	.cfi_def_cfa_offset 0
	jr	ra
	.cfi_endproc
.LFE19:
	.size	BitFieldWrite64, .-BitFieldWrite64
	.section	.text.BitFieldOr64,"ax",@progbits
	.align	1
	.globl	BitFieldOr64
	.type	BitFieldOr64, @function
BitFieldOr64:
.LFB20:
	.loc 1 799 1
	.cfi_startproc
	addi	sp,sp,-64
	.cfi_def_cfa_offset 64
	sd	ra,56(sp)
	sd	s0,48(sp)
	.cfi_offset 1, -8
	.cfi_offset 8, -16
	addi	s0,sp,64
	.cfi_def_cfa 8, 0
	sd	a0,-40(s0)
	sd	a1,-48(s0)
	sd	a2,-56(s0)
	sd	a3,-64(s0)
	.loc 1 813 12
	ld	a1,-48(s0)
	ld	a0,-64(s0)
	call	LShiftU64@plt
	sd	a0,-24(s0)
	.loc 1 814 12
	ld	a1,-56(s0)
	li	a0,-2
	call	LShiftU64@plt
	sd	a0,-32(s0)
	.loc 1 816 30
	ld	a5,-32(s0)
	not	a4,a5
	.loc 1 816 28
	ld	a5,-24(s0)
	and	a4,a4,a5
	.loc 1 816 18
	ld	a5,-40(s0)
	or	a5,a4,a5
	.loc 1 817 1
	mv	a0,a5
	ld	ra,56(sp)
	.cfi_restore 1
	ld	s0,48(sp)
	.cfi_restore 8
	.cfi_def_cfa 2, 64
	addi	sp,sp,64
	.cfi_def_cfa_offset 0
	jr	ra
	.cfi_endproc
.LFE20:
	.size	BitFieldOr64, .-BitFieldOr64
	.section	.text.BitFieldAnd64,"ax",@progbits
	.align	1
	.globl	BitFieldAnd64
	.type	BitFieldAnd64, @function
BitFieldAnd64:
.LFB21:
	.loc 1 851 1
	.cfi_startproc
	addi	sp,sp,-64
	.cfi_def_cfa_offset 64
	sd	ra,56(sp)
	sd	s0,48(sp)
	.cfi_offset 1, -8
	.cfi_offset 8, -16
	addi	s0,sp,64
	.cfi_def_cfa 8, 0
	sd	a0,-40(s0)
	sd	a1,-48(s0)
	sd	a2,-56(s0)
	sd	a3,-64(s0)
	.loc 1 865 12
	ld	a5,-64(s0)
	not	a5,a5
	ld	a1,-48(s0)
	mv	a0,a5
	call	LShiftU64@plt
	sd	a0,-24(s0)
	.loc 1 866 12
	ld	a1,-56(s0)
	li	a0,-2
	call	LShiftU64@plt
	sd	a0,-32(s0)
	.loc 1 868 20
	ld	a5,-24(s0)
	not	a4,a5
	ld	a5,-32(s0)
	or	a4,a4,a5
	.loc 1 868 18
	ld	a5,-40(s0)
	and	a5,a4,a5
	.loc 1 869 1
	mv	a0,a5
	ld	ra,56(sp)
	.cfi_restore 1
	ld	s0,48(sp)
	.cfi_restore 8
	.cfi_def_cfa 2, 64
	addi	sp,sp,64
	.cfi_def_cfa_offset 0
	jr	ra
	.cfi_endproc
.LFE21:
	.size	BitFieldAnd64, .-BitFieldAnd64
	.section	.text.BitFieldAndThenOr64,"ax",@progbits
	.align	1
	.globl	BitFieldAndThenOr64
	.type	BitFieldAndThenOr64, @function
BitFieldAndThenOr64:
.LFB22:
	.loc 1 907 1
	.cfi_startproc
	addi	sp,sp,-64
	.cfi_def_cfa_offset 64
	sd	ra,56(sp)
	sd	s0,48(sp)
	.cfi_offset 1, -8
	.cfi_offset 8, -16
	addi	s0,sp,64
	.cfi_def_cfa 8, 0
	sd	a0,-24(s0)
	sd	a1,-32(s0)
	sd	a2,-40(s0)
	sd	a3,-48(s0)
	sd	a4,-56(s0)
	.loc 1 910 10
	ld	a3,-48(s0)
	ld	a2,-40(s0)
	ld	a1,-32(s0)
	ld	a0,-24(s0)
	call	BitFieldAnd64
	mv	a5,a0
	.loc 1 910 10 is_stmt 0 discriminator 1
	ld	a3,-56(s0)
	ld	a2,-40(s0)
	ld	a1,-32(s0)
	mv	a0,a5
	call	BitFieldOr64
	mv	a5,a0
	.loc 1 916 1 is_stmt 1
	mv	a0,a5
	ld	ra,56(sp)
	.cfi_restore 1
	ld	s0,48(sp)
	.cfi_restore 8
	.cfi_def_cfa 2, 64
	addi	sp,sp,64
	.cfi_def_cfa_offset 0
	jr	ra
	.cfi_endproc
.LFE22:
	.size	BitFieldAndThenOr64, .-BitFieldAndThenOr64
	.section	.text.BitFieldCountOnes32,"ax",@progbits
	.align	1
	.globl	BitFieldCountOnes32
	.type	BitFieldCountOnes32, @function
BitFieldCountOnes32:
.LFB23:
	.loc 1 945 1
	.cfi_startproc
	addi	sp,sp,-64
	.cfi_def_cfa_offset 64
	sd	ra,56(sp)
	sd	s0,48(sp)
	.cfi_offset 1, -8
	.cfi_offset 8, -16
	addi	s0,sp,64
	.cfi_def_cfa 8, 0
	mv	a5,a0
	sd	a1,-48(s0)
	sd	a2,-56(s0)
	sw	a5,-36(s0)
	.loc 1 951 11
	lw	a5,-36(s0)
	ld	a2,-56(s0)
	ld	a1,-48(s0)
	mv	a0,a5
	call	BitFieldRead32
	mv	a5,a0
	sw	a5,-20(s0)
	.loc 1 952 20
	lw	a5,-20(s0)
	srliw	a5,a5,1
	sext.w	a5,a5
	.loc 1 952 26
	mv	a4,a5
	li	a5,1431654400
	addi	a5,a5,1365
	and	a5,a4,a5
	sext.w	a5,a5
	.loc 1 952 9
	lw	a4,-20(s0)
	subw	a5,a4,a5
	sw	a5,-20(s0)
	.loc 1 953 18
	lw	a5,-20(s0)
	mv	a4,a5
	li	a5,858992640
	addi	a5,a5,819
	and	a5,a4,a5
	sext.w	a4,a5
	.loc 1 953 42
	lw	a5,-20(s0)
	srliw	a5,a5,2
	sext.w	a5,a5
	.loc 1 953 48
	mv	a3,a5
	li	a5,858992640
	addi	a5,a5,819
	and	a5,a3,a5
	sext.w	a5,a5
	.loc 1 953 9
	addw	a5,a4,a5
	sw	a5,-20(s0)
	.loc 1 954 18
	lw	a5,-20(s0)
	srliw	a5,a5,4
	sext.w	a5,a5
	.loc 1 954 9
	lw	a4,-20(s0)
	addw	a5,a4,a5
	sw	a5,-20(s0)
	.loc 1 955 9
	lw	a5,-20(s0)
	mv	a4,a5
	li	a5,252645376
	addi	a5,a5,-241
	and	a5,a4,a5
	sw	a5,-20(s0)
	.loc 1 956 18
	lw	a5,-20(s0)
	srliw	a5,a5,8
	sext.w	a5,a5
	.loc 1 956 9
	lw	a4,-20(s0)
	addw	a5,a4,a5
	sw	a5,-20(s0)
	.loc 1 957 18
	lw	a5,-20(s0)
	srliw	a5,a5,16
	sext.w	a5,a5
	.loc 1 957 9
	lw	a4,-20(s0)
	addw	a5,a4,a5
	sw	a5,-20(s0)
	.loc 1 959 23
	lw	a5,-20(s0)
	andi	a5,a5,0xff
	andi	a5,a5,63
	andi	a5,a5,0xff
	.loc 1 960 1
	mv	a0,a5
	ld	ra,56(sp)
	.cfi_restore 1
	ld	s0,48(sp)
	.cfi_restore 8
	.cfi_def_cfa 2, 64
	addi	sp,sp,64
	.cfi_def_cfa_offset 0
	jr	ra
	.cfi_endproc
.LFE23:
	.size	BitFieldCountOnes32, .-BitFieldCountOnes32
	.section	.text.BitFieldCountOnes64,"ax",@progbits
	.align	1
	.globl	BitFieldCountOnes64
	.type	BitFieldCountOnes64, @function
BitFieldCountOnes64:
.LFB24:
	.loc 1 989 1
	.cfi_startproc
	addi	sp,sp,-64
	.cfi_def_cfa_offset 64
	sd	ra,56(sp)
	sd	s0,48(sp)
	.cfi_offset 1, -8
	.cfi_offset 8, -16
	addi	s0,sp,64
	.cfi_def_cfa 8, 0
	sd	a0,-40(s0)
	sd	a1,-48(s0)
	sd	a2,-56(s0)
	.loc 1 996 14
	ld	a2,-56(s0)
	ld	a1,-48(s0)
	ld	a0,-40(s0)
	call	BitFieldRead64
	sd	a0,-24(s0)
	.loc 1 997 11
	ld	a5,-24(s0)
	sext.w	a5,a5
	li	a2,31
	li	a1,0
	mv	a0,a5
	call	BitFieldCountOnes32
	mv	a5,a0
	sb	a5,-25(s0)
	.loc 1 998 41
	li	a1,32
	ld	a0,-24(s0)
	call	RShiftU64@plt
	mv	a5,a0
	.loc 1 998 12 discriminator 1
	sext.w	a5,a5
	li	a2,31
	li	a1,0
	mv	a0,a5
	call	BitFieldCountOnes32
	mv	a5,a0
	mv	a4,a5
	.loc 1 998 9 discriminator 2
	lbu	a5,-25(s0)
	addw	a5,a4,a5
	sb	a5,-25(s0)
	.loc 1 1000 10
	lbu	a5,-25(s0)
	.loc 1 1001 1
	mv	a0,a5
	ld	ra,56(sp)
	.cfi_restore 1
	ld	s0,48(sp)
	.cfi_restore 8
	.cfi_def_cfa 2, 64
	addi	sp,sp,64
	.cfi_def_cfa_offset 0
	jr	ra
	.cfi_endproc
.LFE24:
	.size	BitFieldCountOnes64, .-BitFieldCountOnes64
	.text
.Letext0:
	.file 2 "/home/kapoagaeming/spacemit-image-builder/components/edk2/MdePkg/Include/RiscV64/ProcessorBind.h"
	.file 3 "/home/kapoagaeming/spacemit-image-builder/components/edk2/MdePkg/Include/Library/BaseLib.h"
	.section	.note.GNU-stack,"",@progbits
