	.file	"K1xGpioDxe.c"
	.option pic
	.option norelax
	.attribute arch, "rv64i2p1_m2p0_a2p1_f2p2_d2p2_c2p0_zicsr2p0_zifencei2p0_zmmul1p0_zaamo1p0_zalrsc1p0_zca1p0_zcd1p0"
	.attribute unaligned_access, 0
	.attribute stack_align, 16
	.text
.Ltext0:
	.cfi_sections	.debug_frame
	.file 0 "/home/kapoagaeming/Downloads/spacemit-image-builder/components/Build/Milk-V-Jupiter/RELEASE_GCC5/RISCV64/Silicon/Spacemit/K1/Drivers/GPIO/K1xGpioDxe" "/home/kapoagaeming/Downloads/spacemit-image-builder/components/edk2-platforms/Silicon/Spacemit/K1/Drivers/GPIO/K1xGpioDxe.c"
	.section	.bss.mGpioInstance,"aw",@nobits
	.align	3
	.type	mGpioInstance, @object
	.size	mGpioInstance, 8
mGpioInstance:
	.zero	8
	.section	.rodata.mDevicePathTemplate,"a"
	.align	3
	.type	mDevicePathTemplate, @object
	.size	mDevicePathTemplate, 24
mDevicePathTemplate:
	.byte	1
	.byte	4
	.string	"\024"
	.word	-1906808761
	.half	-4533
	.half	-31002
	.base64	"mjRcRVGi3IU="
	.byte	127
	.byte	-1
	.string	"\004"
	.section	.text.GetGpioBase,"ax",@progbits
	.align	1
	.type	GetGpioBase, @function
GetGpioBase:
.LFB0:
	.file 1 "/home/kapoagaeming/Downloads/spacemit-image-builder/components/edk2-platforms/Silicon/Spacemit/K1/Drivers/GPIO/K1xGpioDxe.c"
	.loc 1 58 1
	.cfi_startproc
	addi	sp,sp,-48
	.cfi_def_cfa_offset 48
	sd	ra,40(sp)
	sd	s0,32(sp)
	.cfi_offset 1, -8
	.cfi_offset 8, -16
	addi	s0,sp,48
	.cfi_def_cfa 8, 0
	sd	a0,-40(s0)
	.loc 1 67 6
	ld	a4,-40(s0)
	li	a5,3
	bleu	a4,a5,.L2
	.loc 1 69 12
	li	a5,0
	j	.L3
.L2:
	.loc 1 72 15
	la	a5,_gPcd_FixedAtBuild_PcdGpioControllerBase
	ld	a5,0(a5)
	sd	a5,-24(s0)
	.loc 1 73 57
	lla	a4,BankOffset.0
	ld	a5,-40(s0)
	slli	a5,a5,3
	add	a5,a4,a5
	ld	a4,0(a5)
	.loc 1 73 45
	ld	a5,-24(s0)
	add	a5,a4,a5
.L3:
	.loc 1 74 1
	mv	a0,a5
	ld	ra,40(sp)
	.cfi_restore 1
	ld	s0,32(sp)
	.cfi_restore 8
	.cfi_def_cfa 2, 48
	addi	sp,sp,48
	.cfi_def_cfa_offset 0
	jr	ra
	.cfi_endproc
.LFE0:
	.size	GetGpioBase, .-GetGpioBase
	.section	.text.GpioMmioRemap,"ax",@progbits
	.align	1
	.type	GpioMmioRemap, @function
GpioMmioRemap:
.LFB1:
	.loc 1 86 1
	.cfi_startproc
	addi	sp,sp,-16
	.cfi_def_cfa_offset 16
	sd	ra,8(sp)
	sd	s0,0(sp)
	.cfi_offset 1, -8
	.cfi_offset 8, -16
	addi	s0,sp,16
	.cfi_def_cfa 8, 0
	.loc 1 88 3
	la	a5,_gPcd_FixedAtBuild_PcdGpioControllerBase
	ld	a5,0(a5)
	li	a1,4096
	mv	a0,a5
	call	MapRegToGcdMmioSpace@plt
	.loc 1 89 3
	li	a1,4096
	li	a5,1778446336
	slli	a0,a5,1
	call	MapRegToGcdMmioSpace@plt
	.loc 1 90 3
	li	a1,4096
	li	a5,868352
	addi	a5,a5,21
	slli	a0,a5,12
	call	MapRegToGcdMmioSpace@plt
	.loc 1 91 1
	nop
	ld	ra,8(sp)
	.cfi_restore 1
	ld	s0,0(sp)
	.cfi_restore 8
	.cfi_def_cfa 2, 16
	addi	sp,sp,16
	.cfi_def_cfa_offset 0
	jr	ra
	.cfi_endproc
.LFE1:
	.size	GpioMmioRemap, .-GpioMmioRemap
	.section	.text.GpioHwInit,"ax",@progbits
	.align	1
	.type	GpioHwInit, @function
GpioHwInit:
.LFB2:
	.loc 1 103 1
	.cfi_startproc
	addi	sp,sp,-16
	.cfi_def_cfa_offset 16
	sd	ra,8(sp)
	sd	s0,0(sp)
	.cfi_offset 1, -8
	.cfi_offset 8, -16
	addi	s0,sp,16
	.cfi_def_cfa 8, 0
	.loc 1 105 3
	li	a1,-4
	li	a5,444608512
	addi	a5,a5,-1535
	slli	a0,a5,3
	call	MmioAnd32@plt
	.loc 1 107 3
	li	a2,3
	li	a1,-4
	li	a5,444608512
	addi	a5,a5,-1535
	slli	a0,a5,3
	call	MmioAndThenOr32@plt
	.loc 1 108 1
	nop
	ld	ra,8(sp)
	.cfi_restore 1
	ld	s0,0(sp)
	.cfi_restore 8
	.cfi_def_cfa 2, 16
	addi	sp,sp,16
	.cfi_def_cfa_offset 0
	jr	ra
	.cfi_endproc
.LFE2:
	.size	GpioHwInit, .-GpioHwInit
	.section	.text.K1xGpioGet,"ax",@progbits
	.align	1
	.type	K1xGpioGet, @function
K1xGpioGet:
.LFB3:
	.loc 1 128 1
	.cfi_startproc
	addi	sp,sp,-80
	.cfi_def_cfa_offset 80
	sd	ra,72(sp)
	sd	s0,64(sp)
	.cfi_offset 1, -8
	.cfi_offset 8, -16
	addi	s0,sp,80
	.cfi_def_cfa 8, 0
	sd	a0,-56(s0)
	sd	a1,-64(s0)
	sd	a2,-72(s0)
	.loc 1 133 6
	ld	a5,-72(s0)
	bne	a5,zero,.L7
	.loc 1 134 12
	li	a5,-1
	slli	a5,a5,63
	addi	a5,a5,2
	j	.L8
.L7:
	.loc 1 137 11
	ld	a5,-64(s0)
	sd	a5,-24(s0)
	.loc 1 138 6
	ld	a4,-24(s0)
	li	a5,127
	bleu	a4,a5,.L9
	.loc 1 140 12
	li	a5,-1
	slli	a5,a5,63
	addi	a5,a5,2
	j	.L8
.L9:
	.loc 1 143 17
	ld	a5,-24(s0)
	srli	a5,a5,5
	mv	a0,a5
	call	GetGpioBase
	sd	a0,-32(s0)
	.loc 1 144 6
	ld	a5,-32(s0)
	bne	a5,zero,.L10
	.loc 1 145 12
	li	a5,-1
	slli	a5,a5,63
	addi	a5,a5,7
	j	.L8
.L10:
	.loc 1 149 33
	ld	a5,-32(s0)
	.loc 1 149 14
	mv	a0,a5
	call	MmioRead32@plt
	mv	a5,a0
	sw	a5,-36(s0)
	.loc 1 152 41
	ld	a5,-24(s0)
	sext.w	a5,a5
	andi	a5,a5,31
	sext.w	a5,a5
	.loc 1 152 27
	li	a4,1
	sllw	a5,a4,a5
	sext.w	a5,a5
	mv	a3,a5
	.loc 1 152 22
	lw	a5,-36(s0)
	mv	a4,a5
	mv	a5,a3
	and	a5,a4,a5
	sext.w	a5,a5
	.loc 1 152 55
	snez	a5,a5
	andi	a5,a5,0xff
	mv	a4,a5
	.loc 1 152 10
	ld	a5,-72(s0)
	sd	a4,0(a5)
	.loc 1 154 10
	li	a5,0
.L8:
	.loc 1 155 1
	mv	a0,a5
	ld	ra,72(sp)
	.cfi_restore 1
	ld	s0,64(sp)
	.cfi_restore 8
	.cfi_def_cfa 2, 80
	addi	sp,sp,80
	.cfi_def_cfa_offset 0
	jr	ra
	.cfi_endproc
.LFE3:
	.size	K1xGpioGet, .-K1xGpioGet
	.section	.text.K1xGpioSet,"ax",@progbits
	.align	1
	.type	K1xGpioSet, @function
K1xGpioSet:
.LFB4:
	.loc 1 176 1
	.cfi_startproc
	addi	sp,sp,-64
	.cfi_def_cfa_offset 64
	sd	ra,56(sp)
	sd	s0,48(sp)
	.cfi_offset 1, -8
	.cfi_offset 8, -16
	addi	s0,sp,64
	.cfi_def_cfa 8, 0
	sd	a0,-40(s0)
	sd	a1,-48(s0)
	mv	a5,a2
	sw	a5,-52(s0)
	.loc 1 180 11
	ld	a5,-48(s0)
	sd	a5,-24(s0)
	.loc 1 181 6
	ld	a4,-24(s0)
	li	a5,127
	bleu	a4,a5,.L12
	.loc 1 183 12
	li	a5,-1
	slli	a5,a5,63
	addi	a5,a5,2
	j	.L13
.L12:
	.loc 1 186 17
	ld	a5,-24(s0)
	srli	a5,a5,5
	mv	a0,a5
	call	GetGpioBase
	sd	a0,-32(s0)
	.loc 1 187 6
	ld	a5,-32(s0)
	bne	a5,zero,.L14
	.loc 1 188 12
	li	a5,-1
	slli	a5,a5,63
	addi	a5,a5,7
	j	.L13
.L14:
	.loc 1 191 3
	lw	a5,-52(s0)
	sext.w	a4,a5
	li	a5,15
	beq	a4,a5,.L15
	lw	a5,-52(s0)
	sext.w	a4,a5
	li	a5,15
	bgtu	a4,a5,.L20
	lw	a5,-52(s0)
	sext.w	a5,a5
	beq	a5,zero,.L17
	lw	a5,-52(s0)
	sext.w	a4,a5
	li	a5,14
	beq	a4,a5,.L18
	j	.L20
.L17:
	.loc 1 194 27
	ld	a5,-32(s0)
	addi	a5,a5,96
	.loc 1 194 7
	mv	a3,a5
	.loc 1 194 64
	ld	a5,-24(s0)
	sext.w	a5,a5
	andi	a5,a5,31
	sext.w	a5,a5
	.loc 1 194 50
	li	a4,1
	sllw	a5,a4,a5
	sext.w	a5,a5
	.loc 1 194 7
	mv	a1,a5
	mv	a0,a3
	call	MmioWrite32@plt
	.loc 1 195 7
	j	.L19
.L18:
	.loc 1 199 27
	ld	a5,-32(s0)
	addi	a5,a5,84
	.loc 1 199 7
	mv	a3,a5
	.loc 1 199 64
	ld	a5,-24(s0)
	sext.w	a5,a5
	andi	a5,a5,31
	sext.w	a5,a5
	.loc 1 199 50
	li	a4,1
	sllw	a5,a4,a5
	sext.w	a5,a5
	.loc 1 199 7
	mv	a1,a5
	mv	a0,a3
	call	MmioWrite32@plt
	.loc 1 201 27
	ld	a5,-32(s0)
	addi	a5,a5,36
	.loc 1 201 7
	mv	a3,a5
	.loc 1 201 64
	ld	a5,-24(s0)
	sext.w	a5,a5
	andi	a5,a5,31
	sext.w	a5,a5
	.loc 1 201 50
	li	a4,1
	sllw	a5,a4,a5
	sext.w	a5,a5
	.loc 1 201 7
	mv	a1,a5
	mv	a0,a3
	call	MmioWrite32@plt
	.loc 1 202 7
	j	.L19
.L15:
	.loc 1 206 27
	ld	a5,-32(s0)
	addi	a5,a5,84
	.loc 1 206 7
	mv	a3,a5
	.loc 1 206 64
	ld	a5,-24(s0)
	sext.w	a5,a5
	andi	a5,a5,31
	sext.w	a5,a5
	.loc 1 206 50
	li	a4,1
	sllw	a5,a4,a5
	sext.w	a5,a5
	.loc 1 206 7
	mv	a1,a5
	mv	a0,a3
	call	MmioWrite32@plt
	.loc 1 208 27
	ld	a5,-32(s0)
	addi	a5,a5,24
	.loc 1 208 7
	mv	a3,a5
	.loc 1 208 64
	ld	a5,-24(s0)
	sext.w	a5,a5
	andi	a5,a5,31
	sext.w	a5,a5
	.loc 1 208 50
	li	a4,1
	sllw	a5,a4,a5
	sext.w	a5,a5
	.loc 1 208 7
	mv	a1,a5
	mv	a0,a3
	call	MmioWrite32@plt
	.loc 1 209 7
	j	.L19
.L20:
	.loc 1 213 14
	li	a5,-1
	slli	a5,a5,63
	addi	a5,a5,3
	j	.L13
.L19:
	.loc 1 216 10
	li	a5,0
.L13:
	.loc 1 217 1
	mv	a0,a5
	ld	ra,56(sp)
	.cfi_restore 1
	ld	s0,48(sp)
	.cfi_restore 8
	.cfi_def_cfa 2, 64
	addi	sp,sp,64
	.cfi_def_cfa_offset 0
	jr	ra
	.cfi_endproc
.LFE4:
	.size	K1xGpioSet, .-K1xGpioSet
	.section	.text.K1xGpioGetMode,"ax",@progbits
	.align	1
	.type	K1xGpioGetMode, @function
K1xGpioGetMode:
.LFB5:
	.loc 1 237 1
	.cfi_startproc
	addi	sp,sp,-80
	.cfi_def_cfa_offset 80
	sd	ra,72(sp)
	sd	s0,64(sp)
	.cfi_offset 1, -8
	.cfi_offset 8, -16
	addi	s0,sp,80
	.cfi_def_cfa 8, 0
	sd	a0,-56(s0)
	sd	a1,-64(s0)
	sd	a2,-72(s0)
	.loc 1 243 6
	ld	a5,-72(s0)
	bne	a5,zero,.L22
	.loc 1 244 12
	li	a5,-1
	slli	a5,a5,63
	addi	a5,a5,2
	j	.L23
.L22:
	.loc 1 247 11
	ld	a5,-64(s0)
	sd	a5,-24(s0)
	.loc 1 248 6
	ld	a4,-24(s0)
	li	a5,127
	bleu	a4,a5,.L24
	.loc 1 250 12
	li	a5,-1
	slli	a5,a5,63
	addi	a5,a5,2
	j	.L23
.L24:
	.loc 1 253 17
	ld	a5,-24(s0)
	srli	a5,a5,5
	mv	a0,a5
	call	GetGpioBase
	sd	a0,-32(s0)
	.loc 1 254 6
	ld	a5,-32(s0)
	bne	a5,zero,.L25
	.loc 1 255 12
	li	a5,-1
	slli	a5,a5,63
	addi	a5,a5,7
	j	.L23
.L25:
	.loc 1 259 33
	ld	a5,-32(s0)
	addi	a5,a5,12
	.loc 1 259 14
	mv	a0,a5
	call	MmioRead32@plt
	mv	a5,a0
	sw	a5,-36(s0)
	.loc 1 261 37
	ld	a5,-24(s0)
	sext.w	a5,a5
	andi	a5,a5,31
	sext.w	a5,a5
	.loc 1 261 23
	li	a4,1
	sllw	a5,a4,a5
	sext.w	a5,a5
	mv	a3,a5
	.loc 1 261 18
	lw	a5,-36(s0)
	mv	a4,a5
	mv	a5,a3
	and	a5,a4,a5
	sext.w	a5,a5
	.loc 1 261 6
	bne	a5,zero,.L26
	.loc 1 263 11
	ld	a5,-72(s0)
	sw	zero,0(a5)
	j	.L27
.L26:
	.loc 1 266 37
	ld	a5,-32(s0)
	.loc 1 266 18
	mv	a0,a5
	call	MmioRead32@plt
	mv	a5,a0
	sw	a5,-40(s0)
	.loc 1 268 39
	ld	a5,-24(s0)
	sext.w	a5,a5
	andi	a5,a5,31
	sext.w	a5,a5
	.loc 1 268 25
	li	a4,1
	sllw	a5,a4,a5
	sext.w	a5,a5
	mv	a3,a5
	.loc 1 268 20
	lw	a5,-40(s0)
	mv	a4,a5
	mv	a5,a3
	and	a5,a4,a5
	sext.w	a5,a5
	.loc 1 268 8
	beq	a5,zero,.L28
	.loc 1 270 13
	ld	a5,-72(s0)
	li	a4,15
	sw	a4,0(a5)
	j	.L27
.L28:
	.loc 1 273 13
	ld	a5,-72(s0)
	li	a4,14
	sw	a4,0(a5)
.L27:
	.loc 1 277 10
	li	a5,0
.L23:
	.loc 1 278 1
	mv	a0,a5
	ld	ra,72(sp)
	.cfi_restore 1
	ld	s0,64(sp)
	.cfi_restore 8
	.cfi_def_cfa 2, 80
	addi	sp,sp,80
	.cfi_def_cfa_offset 0
	jr	ra
	.cfi_endproc
.LFE5:
	.size	K1xGpioGetMode, .-K1xGpioGetMode
	.section	.text.K1xGpioSetPull,"ax",@progbits
	.align	1
	.type	K1xGpioSetPull, @function
K1xGpioSetPull:
.LFB6:
	.loc 1 299 1
	.cfi_startproc
	addi	sp,sp,-80
	.cfi_def_cfa_offset 80
	sd	ra,72(sp)
	sd	s0,64(sp)
	.cfi_offset 1, -8
	.cfi_offset 8, -16
	addi	s0,sp,80
	.cfi_def_cfa 8, 0
	sd	a0,-56(s0)
	sd	a1,-64(s0)
	mv	a5,a2
	sw	a5,-68(s0)
	.loc 1 303 11
	ld	a5,-64(s0)
	sd	a5,-32(s0)
	.loc 1 304 6
	ld	a4,-32(s0)
	li	a5,127
	bleu	a4,a5,.L30
	.loc 1 306 12
	li	a5,-1
	slli	a5,a5,63
	addi	a5,a5,2
	j	.L31
.L30:
.LBB2:
	.loc 1 309 56
	ld	a4,-32(s0)
	li	a5,110
	bleu	a4,a5,.L32
	.loc 1 309 111 discriminator 1
	ld	a5,-32(s0)
	addi	a5,a5,20
	.loc 1 309 87 discriminator 1
	sext.w	a5,a5
	slliw	a5,a5,2
	sw	a5,-20(s0)
	j	.L33
.L32:
	.loc 1 309 125 discriminator 2
	ld	a4,-32(s0)
	li	a5,85
	bleu	a4,a5,.L34
	.loc 1 309 179 discriminator 4
	ld	a5,-32(s0)
	addi	a5,a5,37
	.loc 1 309 155 discriminator 4
	sext.w	a5,a5
	slliw	a5,a5,2
	sw	a5,-20(s0)
	j	.L33
.L34:
	.loc 1 309 219 discriminator 5
	ld	a5,-32(s0)
	addi	a5,a5,1
	.loc 1 309 202 discriminator 5
	sext.w	a5,a5
	slliw	a5,a5,2
	sw	a5,-20(s0)
.L33:
	.loc 1 309 225 discriminator 7
	lw	a5,-20(s0)
.LBE2:
	.loc 1 309 31 discriminator 7
	slli	a4,a5,32
	srli	a4,a4,32
	.loc 1 309 10 discriminator 7
	li	a5,1778446336
	slli	a5,a5,1
	add	a5,a4,a5
	sd	a5,-40(s0)
	.loc 1 311 3
	lw	a5,-68(s0)
	sext.w	a4,a5
	li	a5,2
	beq	a4,a5,.L35
	lw	a5,-68(s0)
	sext.w	a4,a5
	li	a5,2
	bgtu	a4,a5,.L39
	lw	a5,-68(s0)
	sext.w	a5,a5
	beq	a5,zero,.L37
	lw	a5,-68(s0)
	sext.w	a4,a5
	li	a5,1
	bne	a4,a5,.L39
	.loc 1 313 7
	li	a2,49152
	li	a5,-57344
	addi	a1,a5,-1
	ld	a0,-40(s0)
	call	MmioAndThenOr32@plt
	.loc 1 314 7
	j	.L38
.L35:
	.loc 1 317 7
	li	a2,40960
	li	a5,-57344
	addi	a1,a5,-1
	ld	a0,-40(s0)
	call	MmioAndThenOr32@plt
	.loc 1 318 7
	j	.L38
.L37:
	.loc 1 321 7
	li	a2,0
	li	a5,-57344
	addi	a1,a5,-1
	ld	a0,-40(s0)
	call	MmioAndThenOr32@plt
	.loc 1 322 7
	j	.L38
.L39:
	.loc 1 326 14
	li	a5,-1
	slli	a5,a5,63
	addi	a5,a5,3
	j	.L31
.L38:
	.loc 1 329 10
	li	a5,0
.L31:
	.loc 1 330 1
	mv	a0,a5
	ld	ra,72(sp)
	.cfi_restore 1
	ld	s0,64(sp)
	.cfi_restore 8
	.cfi_def_cfa 2, 80
	addi	sp,sp,80
	.cfi_def_cfa_offset 0
	jr	ra
	.cfi_endproc
.LFE6:
	.size	K1xGpioSetPull, .-K1xGpioSetPull
	.section	.text.K1xGpioDxeInitialize,"ax",@progbits
	.align	1
	.globl	K1xGpioDxeInitialize
	.type	K1xGpioDxeInitialize, @function
K1xGpioDxeInitialize:
.LFB7:
	.loc 1 347 1
	.cfi_startproc
	addi	sp,sp,-80
	.cfi_def_cfa_offset 80
	sd	ra,72(sp)
	sd	s0,64(sp)
	sd	s1,56(sp)
	.cfi_offset 1, -8
	.cfi_offset 8, -16
	.cfi_offset 9, -24
	addi	s0,sp,80
	.cfi_def_cfa 8, 0
	sd	a0,-72(s0)
	sd	a1,-80(s0)
	.loc 1 353 3
	call	GpioMmioRemap
	.loc 1 354 3
	call	GpioHwInit
	.loc 1 357 19
	li	a5,1
	sd	a5,-48(s0)
	.loc 1 363 20
	lla	a0,mDevicePathTemplate
	call	DuplicateDevicePath@plt
	sd	a0,-40(s0)
	.loc 1 364 6
	ld	a5,-40(s0)
	bne	a5,zero,.L41
	.loc 1 366 12
	li	a5,-1
	slli	a5,a5,63
	addi	a5,a5,9
	j	.L42
.L41:
	.loc 1 372 19
	li	a0,64
	call	AllocateZeroPool@plt
	mv	a4,a0
	.loc 1 372 17 discriminator 1
	lla	a5,mGpioInstance
	sd	a4,0(a5)
	.loc 1 373 21
	lla	a5,mGpioInstance
	ld	a5,0(a5)
	.loc 1 373 6
	bne	a5,zero,.L43
	.loc 1 375 5
	ld	a0,-40(s0)
	call	FreePool@plt
	.loc 1 376 12
	li	a5,-1
	slli	a5,a5,63
	addi	a5,a5,9
	j	.L42
.L43:
	.loc 1 380 82
	ld	a5,-48(s0)
	slli	a4,a5,4
	.loc 1 380 16
	lla	a5,mGpioInstance
	ld	s1,0(a5)
	.loc 1 380 28
	mv	a0,a4
	call	AllocateZeroPool@plt
	mv	a5,a0
	.loc 1 380 26 discriminator 1
	sd	a5,32(s1)
	.loc 1 381 20
	lla	a5,mGpioInstance
	ld	a5,0(a5)
	ld	a5,32(a5)
	.loc 1 381 6
	bne	a5,zero,.L44
	.loc 1 383 5
	lla	a5,mGpioInstance
	ld	a5,0(a5)
	mv	a0,a5
	call	FreePool@plt
	.loc 1 384 19
	lla	a5,mGpioInstance
	sd	zero,0(a5)
	.loc 1 385 5
	ld	a0,-40(s0)
	call	FreePool@plt
	.loc 1 386 12
	li	a5,-1
	slli	a5,a5,63
	addi	a5,a5,9
	j	.L42
.L44:
	.loc 1 390 16
	lla	a5,mGpioInstance
	ld	a5,0(a5)
	.loc 1 390 28
	lla	a4,.LC0
	ld	a4,0(a4)
	sd	a4,48(a5)
	.loc 1 391 16
	lla	a5,mGpioInstance
	ld	a5,0(a5)
	.loc 1 391 34
	ld	a4,-48(s0)
	sd	a4,40(a5)
	.loc 1 394 16
	lla	a5,mGpioInstance
	ld	a5,0(a5)
	ld	a5,32(a5)
	.loc 1 394 42
	la	a4,_gPcd_FixedAtBuild_PcdGpioControllerBase
	ld	a4,0(a4)
	sd	a4,0(a5)
	.loc 1 395 16
	lla	a5,mGpioInstance
	ld	a5,0(a5)
	ld	a5,32(a5)
	.loc 1 395 47
	li	a4,128
	sd	a4,8(a5)
	.loc 1 404 16
	lla	a5,mGpioInstance
	ld	a5,0(a5)
	.loc 1 404 35
	lla	a4,K1xGpioGet
	sd	a4,0(a5)
	.loc 1 405 16
	lla	a5,mGpioInstance
	ld	a5,0(a5)
	.loc 1 405 35
	lla	a4,K1xGpioSet
	sd	a4,8(a5)
	.loc 1 406 16
	lla	a5,mGpioInstance
	ld	a5,0(a5)
	.loc 1 406 39
	lla	a4,K1xGpioGetMode
	sd	a4,16(a5)
	.loc 1 407 16
	lla	a5,mGpioInstance
	ld	a5,0(a5)
	.loc 1 407 39
	lla	a4,K1xGpioSetPull
	sd	a4,24(a5)
	.loc 1 412 15
	la	a5,gBS
	ld	a5,0(a5)
	ld	a6,328(a5)
	.loc 1 413 67
	lla	a5,mGpioInstance
	ld	a5,0(a5)
	.loc 1 412 12
	addi	a0,a5,56
	.loc 1 415 67
	lla	a5,mGpioInstance
	ld	a5,0(a5)
	.loc 1 412 12
	mv	a2,a5
	li	a5,0
	ld	a4,-40(s0)
	la	a3,gEfiDevicePathProtocolGuid
	la	a1,gEmbeddedGpioProtocolGuid
	jalr	a6
.LVL0:
	sd	a0,-56(s0)
	.loc 1 420 34
	ld	a5,-56(s0)
	.loc 1 420 6
	blt	a5,zero,.L48
	.loc 1 428 10
	li	a5,0
	j	.L42
.L48:
	.loc 1 422 5
	nop
.L46:
	.loc 1 431 26
	lla	a5,mGpioInstance
	ld	a5,0(a5)
	ld	a5,32(a5)
	.loc 1 431 3
	mv	a0,a5
	call	FreePool@plt
	.loc 1 432 3
	lla	a5,mGpioInstance
	ld	a5,0(a5)
	mv	a0,a5
	call	FreePool@plt
	.loc 1 433 17
	lla	a5,mGpioInstance
	sd	zero,0(a5)
	.loc 1 434 3
	ld	a0,-40(s0)
	call	FreePool@plt
	.loc 1 436 10
	ld	a5,-56(s0)
.L42:
	.loc 1 437 1
	mv	a0,a5
	ld	ra,72(sp)
	.cfi_restore 1
	ld	s0,64(sp)
	.cfi_restore 8
	.cfi_def_cfa 2, 80
	ld	s1,56(sp)
	.cfi_restore 9
	addi	sp,sp,80
	.cfi_def_cfa_offset 0
	jr	ra
	.cfi_endproc
.LFE7:
	.size	K1xGpioDxeInitialize, .-K1xGpioDxeInitialize
	.section	.rodata.BankOffset.0,"a"
	.align	3
	.type	BankOffset.0, @object
	.size	BankOffset.0, 32
BankOffset.0:
	.dword	0
	.dword	4
	.dword	8
	.dword	256
	.section	.rodata
	.align	3
.LC0:
	.dword	5713185869768700235
	.text
.Letext0:
	.file 2 "/home/kapoagaeming/Downloads/spacemit-image-builder/components/edk2/MdePkg/Include/RiscV64/ProcessorBind.h"
	.file 3 "/home/kapoagaeming/Downloads/spacemit-image-builder/components/edk2/MdePkg/Include/Base.h"
	.file 4 "/home/kapoagaeming/Downloads/spacemit-image-builder/components/edk2/MdePkg/Include/Uefi/UefiBaseType.h"
	.file 5 "/home/kapoagaeming/Downloads/spacemit-image-builder/components/edk2/MdePkg/Include/Uefi/UefiMultiPhase.h"
	.file 6 "/home/kapoagaeming/Downloads/spacemit-image-builder/components/edk2/MdePkg/Include/Protocol/DevicePath.h"
	.file 7 "/home/kapoagaeming/Downloads/spacemit-image-builder/components/edk2/MdePkg/Include/Protocol/SimpleTextIn.h"
	.file 8 "/home/kapoagaeming/Downloads/spacemit-image-builder/components/edk2/MdePkg/Include/Protocol/SimpleTextOut.h"
	.file 9 "/home/kapoagaeming/Downloads/spacemit-image-builder/components/edk2/MdePkg/Include/Uefi/UefiSpec.h"
	.file 10 "/home/kapoagaeming/Downloads/spacemit-image-builder/components/Build/Milk-V-Jupiter/RELEASE_GCC5/RISCV64/Silicon/Spacemit/K1/Drivers/GPIO/K1xGpioDxe/DEBUG/AutoGen.h"
	.file 11 "/home/kapoagaeming/Downloads/spacemit-image-builder/components/edk2/EmbeddedPkg/Include/Protocol/EmbeddedGpio.h"
	.file 12 "/home/kapoagaeming/Downloads/spacemit-image-builder/components/edk2-platforms/Silicon/Spacemit/K1/Drivers/GPIO/K1xGpioDxe.h"
	.file 13 "/home/kapoagaeming/Downloads/spacemit-image-builder/components/edk2/MdePkg/Include/Library/MemoryAllocationLib.h"
	.file 14 "/home/kapoagaeming/Downloads/spacemit-image-builder/components/edk2/MdePkg/Include/Library/DevicePathLib.h"
	.file 15 "/home/kapoagaeming/Downloads/spacemit-image-builder/components/edk2/MdePkg/Include/Library/IoLib.h"
	.file 16 "/home/kapoagaeming/Downloads/spacemit-image-builder/components/edk2-platforms/Silicon/Spacemit/Include/Library/MemoryManagementLib.h"
	.file 17 "/home/kapoagaeming/Downloads/spacemit-image-builder/components/edk2/MdePkg/Include/Library/UefiBootServicesTableLib.h"
	.section	.note.GNU-stack,"",@progbits
