	.file	"FwVol.c"
	.option pic
	.option norelax
	.attribute arch, "rv64i2p1_m2p0_a2p1_f2p2_d2p2_c2p0_zicsr2p0_zifencei2p0_zmmul1p0_zaamo1p0_zalrsc1p0_zca1p0_zcd1p0"
	.attribute unaligned_access, 0
	.attribute stack_align, 16
	.text
.Ltext0:
	.cfi_sections	.debug_frame
	.file 0 "/home/kapoagaeming/spacemit-image-builder/components/Build/Milk-V-Jupiter/RELEASE_GCC5/RISCV64/EmbeddedPkg/Library/PrePiLib/PrePiLib" "/home/kapoagaeming/spacemit-image-builder/components/edk2/EmbeddedPkg/Library/PrePiLib/FwVol.c"
	.section	.text.GetFileState,"ax",@progbits
	.align	1
	.type	GetFileState, @function
GetFileState:
.LFB0:
	.file 1 "/home/kapoagaeming/spacemit-image-builder/components/edk2/EmbeddedPkg/Library/PrePiLib/FwVol.c"
	.loc 1 35 1
	.cfi_startproc
	addi	sp,sp,-48
	.cfi_def_cfa_offset 48
	sd	ra,40(sp)
	sd	s0,32(sp)
	.cfi_offset 1, -8
	.cfi_offset 8, -16
	addi	s0,sp,48
	.cfi_def_cfa 8, 0
	mv	a5,a0
	sd	a1,-48(s0)
	sb	a5,-33(s0)
	.loc 1 39 13
	ld	a5,-48(s0)
	lbu	a5,23(a5)
	sb	a5,-17(s0)
	.loc 1 41 6
	lbu	a5,-33(s0)
	andi	a5,a5,0xff
	beq	a5,zero,.L2
	.loc 1 42 15
	lbu	a5,-17(s0)
	not	a5,a5
	sb	a5,-17(s0)
.L2:
	.loc 1 45 14
	li	a5,-128
	sb	a5,-18(s0)
	.loc 1 46 9
	j	.L3
.L5:
	.loc 1 47 16
	lbu	a5,-18(s0)
	srliw	a5,a5,1
	sb	a5,-18(s0)
.L3:
	.loc 1 46 26
	lbu	a5,-18(s0)
	andi	a5,a5,0xff
	beq	a5,zero,.L4
	.loc 1 46 54 discriminator 1
	lbu	a5,-18(s0)
	mv	a4,a5
	lbu	a5,-17(s0)
	and	a5,a4,a5
	andi	a5,a5,0xff
	.loc 1 46 26 discriminator 1
	beq	a5,zero,.L5
.L4:
	.loc 1 50 10
	lbu	a5,-18(s0)
	.loc 1 51 1
	mv	a0,a5
	ld	ra,40(sp)
	.cfi_restore 1
	ld	s0,32(sp)
	.cfi_restore 8
	.cfi_def_cfa 2, 48
	addi	sp,sp,48
	.cfi_def_cfa_offset 0
	jr	ra
	.cfi_endproc
.LFE0:
	.size	GetFileState, .-GetFileState
	.section	.text.CalculateHeaderChecksum,"ax",@progbits
	.align	1
	.type	CalculateHeaderChecksum, @function
CalculateHeaderChecksum:
.LFB1:
	.loc 1 67 1
	.cfi_startproc
	addi	sp,sp,-64
	.cfi_def_cfa_offset 64
	sd	ra,56(sp)
	sd	s0,48(sp)
	.cfi_offset 1, -8
	.cfi_offset 8, -16
	addi	s0,sp,64
	.cfi_def_cfa 8, 0
	sd	a0,-56(s0)
	.loc 1 72 7
	sb	zero,-25(s0)
	.loc 1 73 7
	ld	a5,-56(s0)
	sd	a5,-40(s0)
	.loc 1 75 14
	sd	zero,-24(s0)
	.loc 1 75 3
	j	.L8
.L9:
	.loc 1 76 28
	ld	a4,-40(s0)
	ld	a5,-24(s0)
	add	a5,a4,a5
	lbu	a5,0(a5)
	.loc 1 76 9
	lbu	a4,-25(s0)
	addw	a5,a4,a5
	sb	a5,-25(s0)
	.loc 1 77 28
	ld	a5,-24(s0)
	addi	a5,a5,1
	ld	a4,-40(s0)
	add	a5,a4,a5
	lbu	a5,0(a5)
	.loc 1 77 9
	lbu	a4,-25(s0)
	addw	a5,a4,a5
	sb	a5,-25(s0)
	.loc 1 78 28
	ld	a5,-24(s0)
	addi	a5,a5,2
	ld	a4,-40(s0)
	add	a5,a4,a5
	lbu	a5,0(a5)
	.loc 1 78 9
	lbu	a4,-25(s0)
	addw	a5,a4,a5
	sb	a5,-25(s0)
	.loc 1 79 28
	ld	a5,-24(s0)
	addi	a5,a5,3
	ld	a4,-40(s0)
	add	a5,a4,a5
	lbu	a5,0(a5)
	.loc 1 79 9
	lbu	a4,-25(s0)
	addw	a5,a4,a5
	sb	a5,-25(s0)
	.loc 1 75 67 discriminator 3
	ld	a5,-24(s0)
	addi	a5,a5,4
	sd	a5,-24(s0)
.L8:
	.loc 1 75 25 discriminator 1
	ld	a4,-24(s0)
	li	a5,20
	bleu	a4,a5,.L9
	.loc 1 82 3
	j	.L10
.L11:
	.loc 1 83 28
	ld	a4,-40(s0)
	ld	a5,-24(s0)
	add	a5,a4,a5
	lbu	a5,0(a5)
	.loc 1 83 9
	lbu	a4,-25(s0)
	addw	a5,a4,a5
	sb	a5,-25(s0)
	.loc 1 82 54 discriminator 2
	ld	a5,-24(s0)
	addi	a5,a5,1
	sd	a5,-24(s0)
.L10:
	.loc 1 82 17 discriminator 1
	ld	a4,-24(s0)
	li	a5,23
	bleu	a4,a5,.L11
	.loc 1 89 33
	ld	a5,-56(s0)
	lbu	a5,23(a5)
	.loc 1 89 7
	lbu	a4,-25(s0)
	subw	a5,a4,a5
	sb	a5,-25(s0)
	.loc 1 93 58
	ld	a5,-56(s0)
	lbu	a5,17(a5)
	.loc 1 93 7
	lbu	a4,-25(s0)
	subw	a5,a4,a5
	sb	a5,-25(s0)
	.loc 1 95 10
	lbu	a5,-25(s0)
	.loc 1 96 1
	mv	a0,a5
	ld	ra,56(sp)
	.cfi_restore 1
	ld	s0,48(sp)
	.cfi_restore 8
	.cfi_def_cfa 2, 64
	addi	sp,sp,64
	.cfi_def_cfa_offset 0
	jr	ra
	.cfi_endproc
.LFE1:
	.size	CalculateHeaderChecksum, .-CalculateHeaderChecksum
	.section	.text.FileHandleToVolume,"ax",@progbits
	.align	1
	.type	FileHandleToVolume, @function
FileHandleToVolume:
.LFB2:
	.loc 1 114 1
	.cfi_startproc
	addi	sp,sp,-48
	.cfi_def_cfa_offset 48
	sd	ra,40(sp)
	sd	s0,32(sp)
	.cfi_offset 1, -8
	.cfi_offset 8, -16
	addi	s0,sp,48
	.cfi_def_cfa 8, 0
	sd	a0,-40(s0)
	sd	a1,-48(s0)
	.loc 1 118 13
	call	GetHobList@plt
	mv	a5,a0
	.loc 1 118 11 discriminator 1
	sd	a5,-32(s0)
	.loc 1 119 10
	ld	a5,-32(s0)
	.loc 1 119 6
	bne	a5,zero,.L14
	.loc 1 120 12
	li	a5,0
	j	.L18
.L14:
	.loc 1 124 38
	ld	a5,-32(s0)
	.loc 1 124 15
	mv	a1,a5
	li	a0,5
	call	GetNextHob@plt
	mv	a5,a0
	.loc 1 124 13 discriminator 1
	sd	a5,-32(s0)
	.loc 1 125 12
	ld	a5,-32(s0)
	.loc 1 125 8
	beq	a5,zero,.L16
	.loc 1 126 62
	ld	a5,-32(s0)
	.loc 1 126 77
	ld	a5,8(a5)
	.loc 1 126 19
	sd	a5,-24(s0)
	.loc 1 127 12
	ld	a4,-40(s0)
	.loc 1 127 40
	ld	a5,-24(s0)
	.loc 1 127 10
	bleu	a4,a5,.L17
	.loc 1 128 82
	ld	a5,-24(s0)
	ld	a4,32(a5)
	.loc 1 128 42
	ld	a5,-24(s0)
	.loc 1 128 69
	add	a5,a4,a5
	.loc 1 128 93
	addi	a4,a5,-1
	.loc 1 128 12
	ld	a5,-40(s0)
	.loc 1 127 68 discriminator 1
	bltu	a4,a5,.L17
	.loc 1 130 23
	ld	a5,-48(s0)
	ld	a4,-24(s0)
	sd	a4,0(a5)
	.loc 1 131 16
	li	a5,1
	j	.L18
.L17:
	.loc 1 134 43
	ld	a5,-32(s0)
	.loc 1 134 56
	ld	a4,-32(s0)
	.loc 1 134 63
	lhu	a4,2(a4)
	.loc 1 134 48
	add	a5,a5,a4
	.loc 1 134 17
	mv	a1,a5
	li	a0,5
	call	GetNextHob@plt
	mv	a5,a0
	.loc 1 134 15 discriminator 1
	sd	a5,-32(s0)
.L16:
	.loc 1 136 15
	ld	a5,-32(s0)
	.loc 1 136 20
	bne	a5,zero,.L14
	.loc 1 138 10
	li	a5,0
.L18:
	.loc 1 139 1
	mv	a0,a5
	ld	ra,40(sp)
	.cfi_restore 1
	ld	s0,32(sp)
	.cfi_restore 8
	.cfi_def_cfa 2, 48
	addi	sp,sp,48
	.cfi_def_cfa_offset 0
	jr	ra
	.cfi_endproc
.LFE2:
	.size	FileHandleToVolume, .-FileHandleToVolume
	.section	.text.FindFileEx,"ax",@progbits
	.align	1
	.globl	FindFileEx
	.type	FindFileEx, @function
FindFileEx:
.LFB3:
	.loc 1 158 1
	.cfi_startproc
	addi	sp,sp,-112
	.cfi_def_cfa_offset 112
	sd	ra,104(sp)
	sd	s0,96(sp)
	.cfi_offset 1, -8
	.cfi_offset 8, -16
	addi	s0,sp,112
	.cfi_def_cfa 8, 0
	sd	a0,-88(s0)
	sd	a1,-96(s0)
	mv	a5,a2
	sd	a3,-112(s0)
	sb	a5,-97(s0)
	.loc 1 170 15
	ld	a5,-88(s0)
	sd	a5,-40(s0)
	.loc 1 171 14
	ld	a5,-112(s0)
	sd	a5,-48(s0)
	.loc 1 173 12
	ld	a5,-40(s0)
	ld	a5,32(a5)
	sd	a5,-56(s0)
	.loc 1 174 18
	ld	a5,-40(s0)
	lw	a5,44(a5)
	.loc 1 174 31
	mv	a4,a5
	li	a5,4096
	addi	a5,a5,-2048
	and	a5,a4,a5
	sext.w	a5,a5
	.loc 1 174 6
	beq	a5,zero,.L20
	.loc 1 175 19
	li	a5,1
	sb	a5,-29(s0)
	j	.L21
.L20:
	.loc 1 177 19
	sb	zero,-29(s0)
.L21:
	.loc 1 185 8
	ld	a5,-48(s0)
	ld	a5,0(a5)
	.loc 1 185 6
	beq	a5,zero,.L22
	.loc 1 185 37 discriminator 1
	ld	a5,-96(s0)
	beq	a5,zero,.L23
.L22:
	.loc 1 186 79
	ld	a5,-40(s0)
	lhu	a5,48(a5)
	mv	a4,a5
	.loc 1 186 19
	ld	a5,-40(s0)
	add	a5,a5,a4
	sd	a5,-24(s0)
	.loc 1 187 20
	ld	a5,-40(s0)
	lhu	a5,52(a5)
	.loc 1 187 8
	beq	a5,zero,.L25
	.loc 1 188 98
	ld	a5,-40(s0)
	lhu	a5,52(a5)
	mv	a4,a5
	.loc 1 188 25
	ld	a5,-40(s0)
	add	a5,a5,a4
	sd	a5,-72(s0)
	.loc 1 189 95
	ld	a5,-72(s0)
	lw	a5,16(a5)
	slli	a5,a5,32
	srli	a5,a5,32
	.loc 1 189 21
	ld	a4,-72(s0)
	add	a5,a4,a5
	sd	a5,-24(s0)
	.loc 1 187 8
	j	.L25
.L23:
	.loc 1 196 30
	ld	a5,-48(s0)
	ld	a5,0(a5)
	.loc 1 196 29
	addi	a5,a5,20
	.loc 1 196 18
	lw	a5,0(a5)
	.loc 1 196 16
	mv	a4,a5
	li	a5,16777216
	addi	a5,a5,-1
	and	a5,a4,a5
	sw	a5,-60(s0)
	.loc 1 197 75
	lw	a5,-60(s0)
	negw	a5,a5
	sext.w	a5,a5
	andi	a5,a5,7
	sext.w	a5,a5
	.loc 1 197 22
	lw	a4,-60(s0)
	addw	a5,a4,a5
	sw	a5,-64(s0)
	.loc 1 198 54
	ld	a5,-48(s0)
	ld	a4,0(a5)
	.loc 1 198 21
	lwu	a5,-64(s0)
	.loc 1 198 19
	add	a5,a4,a5
	sd	a5,-24(s0)
.L25:
	.loc 1 202 69
	ld	a5,-24(s0)
	.loc 1 202 94
	neg	a5,a5
	andi	a4,a5,7
	.loc 1 202 32
	ld	a5,-24(s0)
	.loc 1 202 56
	add	a5,a4,a5
	.loc 1 202 17
	sd	a5,-24(s0)
	.loc 1 204 48
	ld	a4,-24(s0)
	ld	a5,-40(s0)
	sub	a5,a4,a5
	.loc 1 204 14
	sw	a5,-28(s0)
	.loc 1 207 9
	j	.L26
.L37:
	.loc 1 211 17
	lbu	a5,-29(s0)
	ld	a1,-24(s0)
	mv	a0,a5
	call	GetFileState
	mv	a5,a0
	sb	a5,-73(s0)
	.loc 1 213 5
	lbu	a5,-73(s0)
	sext.w	a5,a5
	li	a4,32
	beq	a5,a4,.L27
	li	a4,32
	bgt	a5,a4,.L28
	li	a4,16
	beq	a5,a4,.L29
	li	a4,16
	bgt	a5,a4,.L28
	li	a4,4
	beq	a5,a4,.L30
	li	a4,8
	beq	a5,a4,.L30
	j	.L28
.L27:
	.loc 1 215 20
	lw	a5,-28(s0)
	addiw	a5,a5,24
	sw	a5,-28(s0)
	.loc 1 216 23
	ld	a5,-24(s0)
	addi	a5,a5,24
	sd	a5,-24(s0)
	.loc 1 217 9
	j	.L26
.L30:
	.loc 1 221 13
	ld	a0,-24(s0)
	call	CalculateHeaderChecksum
	mv	a5,a0
	.loc 1 221 12 discriminator 1
	beq	a5,zero,.L32
	.loc 1 223 23
	ld	a5,-48(s0)
	sd	zero,0(a5)
	.loc 1 224 18
	li	a5,-1
	slli	a5,a5,63
	addi	a5,a5,14
	j	.L33
.L32:
	.loc 1 227 33
	ld	a5,-24(s0)
	addi	a5,a5,20
	.loc 1 227 22
	lw	a5,0(a5)
	.loc 1 227 20
	mv	a4,a5
	li	a5,16777216
	addi	a5,a5,-1
	and	a5,a4,a5
	sw	a5,-60(s0)
	.loc 1 228 79
	lw	a5,-60(s0)
	negw	a5,a5
	sext.w	a5,a5
	andi	a5,a5,7
	sext.w	a5,a5
	.loc 1 228 26
	lw	a4,-60(s0)
	addw	a5,a4,a5
	sw	a5,-64(s0)
	.loc 1 230 12
	ld	a5,-96(s0)
	beq	a5,zero,.L34
	.loc 1 231 28
	ld	a5,-24(s0)
	.loc 1 231 15
	ld	a1,-96(s0)
	mv	a0,a5
	call	CompareGuid@plt
	mv	a5,a0
	.loc 1 231 14 discriminator 1
	beq	a5,zero,.L35
	.loc 1 232 25
	ld	a5,-48(s0)
	ld	a4,-24(s0)
	sd	a4,0(a5)
	.loc 1 233 20
	li	a5,0
	j	.L33
.L34:
	.loc 1 235 49
	ld	a5,-24(s0)
	lbu	a4,18(a5)
	.loc 1 235 19
	lbu	a5,-97(s0)
	andi	a5,a5,0xff
	beq	a5,a4,.L36
	.loc 1 235 57 discriminator 2
	lbu	a5,-97(s0)
	andi	a5,a5,0xff
	bne	a5,zero,.L35
.L36:
	.loc 1 236 34
	ld	a5,-24(s0)
	lbu	a5,18(a5)
	.loc 1 235 82 discriminator 3
	mv	a4,a5
	li	a5,240
	beq	a4,a5,.L35
	.loc 1 238 23
	ld	a5,-48(s0)
	ld	a4,-24(s0)
	sd	a4,0(a5)
	.loc 1 239 18
	li	a5,0
	j	.L33
.L35:
	.loc 1 242 20
	lw	a5,-28(s0)
	mv	a4,a5
	lw	a5,-64(s0)
	addw	a5,a4,a5
	sw	a5,-28(s0)
	.loc 1 243 25
	lwu	a5,-64(s0)
	.loc 1 243 23
	ld	a4,-24(s0)
	add	a5,a4,a5
	sd	a5,-24(s0)
	.loc 1 244 9
	j	.L26
.L29:
	.loc 1 247 33
	ld	a5,-24(s0)
	addi	a5,a5,20
	.loc 1 247 22
	lw	a5,0(a5)
	.loc 1 247 20
	mv	a4,a5
	li	a5,16777216
	addi	a5,a5,-1
	and	a5,a4,a5
	sw	a5,-60(s0)
	.loc 1 248 79
	lw	a5,-60(s0)
	negw	a5,a5
	sext.w	a5,a5
	andi	a5,a5,7
	sext.w	a5,a5
	.loc 1 248 26
	lw	a4,-60(s0)
	addw	a5,a4,a5
	sw	a5,-64(s0)
	.loc 1 249 20
	lw	a5,-28(s0)
	mv	a4,a5
	lw	a5,-64(s0)
	addw	a5,a4,a5
	sw	a5,-28(s0)
	.loc 1 250 25
	lwu	a5,-64(s0)
	.loc 1 250 23
	ld	a4,-24(s0)
	add	a5,a4,a5
	sd	a5,-24(s0)
	.loc 1 251 9
	j	.L26
.L28:
	.loc 1 254 21
	ld	a5,-48(s0)
	sd	zero,0(a5)
	.loc 1 255 16
	li	a5,-1
	slli	a5,a5,63
	addi	a5,a5,14
	j	.L33
.L26:
	.loc 1 207 21
	lwu	a4,-28(s0)
	.loc 1 207 33
	ld	a5,-56(s0)
	addi	a5,a5,-24
	.loc 1 207 21
	bltu	a4,a5,.L37
	.loc 1 259 15
	ld	a5,-48(s0)
	sd	zero,0(a5)
	.loc 1 260 10
	li	a5,-1
	slli	a5,a5,63
	addi	a5,a5,14
.L33:
	.loc 1 261 1
	mv	a0,a5
	ld	ra,104(sp)
	.cfi_restore 1
	ld	s0,96(sp)
	.cfi_restore 8
	.cfi_def_cfa 2, 112
	addi	sp,sp,112
	.cfi_def_cfa_offset 0
	jr	ra
	.cfi_endproc
.LFE3:
	.size	FindFileEx, .-FindFileEx
	.section	.text.FfsProcessSection,"ax",@progbits
	.align	1
	.globl	FfsProcessSection
	.type	FfsProcessSection, @function
FfsProcessSection:
.LFB4:
	.loc 1 283 1
	.cfi_startproc
	addi	sp,sp,-160
	.cfi_def_cfa_offset 160
	sd	ra,152(sp)
	sd	s0,144(sp)
	.cfi_offset 1, -8
	.cfi_offset 8, -16
	addi	s0,sp,160
	.cfi_def_cfa 8, 0
	mv	a5,a0
	sd	a1,-128(s0)
	sd	a2,-136(s0)
	sd	a3,-144(s0)
	sd	a4,-152(s0)
	sb	a5,-113(s0)
	.loc 1 299 9
	sb	zero,-53(s0)
	.loc 1 300 17
	ld	a5,-152(s0)
	sd	zero,0(a5)
	.loc 1 301 16
	sd	zero,-40(s0)
	.loc 1 302 10
	li	a5,-1
	slli	a5,a5,63
	addi	a5,a5,14
	sd	a5,-24(s0)
	.loc 1 303 9
	j	.L39
.L71:
	.loc 1 308 16
	ld	a5,-136(s0)
	lbu	a4,3(a5)
	.loc 1 308 8
	lbu	a5,-113(s0)
	andi	a5,a5,0xff
	bne	a5,a4,.L40
	.loc 1 309 10
	ld	a5,-128(s0)
	beq	a5,zero,.L41
	.loc 1 310 17
	ld	a5,-128(s0)
	ld	a0,-136(s0)
	jalr	a5
.LVL0:
	mv	a5,a0
	.loc 1 310 44 discriminator 1
	seqz	a5,a5
	andi	a5,a5,0xff
	.loc 1 310 15 discriminator 1
	sb	a5,-53(s0)
	j	.L42
.L41:
	.loc 1 312 15
	li	a5,1
	sb	a5,-53(s0)
.L42:
	.loc 1 315 10
	lbu	a5,-53(s0)
	andi	a5,a5,0xff
	beq	a5,zero,.L73
	.loc 1 316 82
	ld	a5,-136(s0)
	lbu	a5,0(a5)
	sext.w	a4,a5
	.loc 1 316 146
	ld	a5,-136(s0)
	lbu	a5,1(a5)
	sext.w	a5,a5
	.loc 1 316 150
	slliw	a5,a5,8
	sext.w	a5,a5
	.loc 1 316 88
	or	a5,a4,a5
	sext.w	a4,a5
	.loc 1 316 214
	ld	a5,-136(s0)
	lbu	a5,2(a5)
	sext.w	a5,a5
	.loc 1 316 218
	slliw	a5,a5,16
	sext.w	a5,a5
	.loc 1 316 156
	or	a5,a4,a5
	sext.w	a4,a5
	.loc 1 316 12
	li	a5,16777216
	addi	a5,a5,-1
	bne	a4,a5,.L44
	.loc 1 317 27
	ld	a5,-136(s0)
	addi	a4,a5,8
	.loc 1 317 25
	ld	a5,-152(s0)
	sd	a4,0(a5)
	j	.L45
.L44:
	.loc 1 319 27
	ld	a5,-136(s0)
	addi	a4,a5,4
	.loc 1 319 25
	ld	a5,-152(s0)
	sd	a4,0(a5)
.L45:
	.loc 1 322 16
	li	a5,0
	j	.L72
.L40:
	.loc 1 326 24
	ld	a5,-136(s0)
	lbu	a5,3(a5)
	.loc 1 326 15
	mv	a4,a5
	li	a5,1
	beq	a4,a5,.L48
	.loc 1 326 51 discriminator 1
	ld	a5,-136(s0)
	lbu	a5,3(a5)
	.loc 1 326 40 discriminator 1
	mv	a4,a5
	li	a5,2
	bne	a4,a5,.L74
.L48:
	.loc 1 327 18
	ld	a5,-136(s0)
	lbu	a5,3(a5)
	.loc 1 327 10
	mv	a4,a5
	li	a5,1
	bne	a4,a5,.L49
	.loc 1 328 82
	ld	a5,-136(s0)
	lbu	a5,0(a5)
	sext.w	a4,a5
	.loc 1 328 146
	ld	a5,-136(s0)
	lbu	a5,1(a5)
	sext.w	a5,a5
	.loc 1 328 150
	slliw	a5,a5,8
	sext.w	a5,a5
	.loc 1 328 88
	or	a5,a4,a5
	sext.w	a4,a5
	.loc 1 328 214
	ld	a5,-136(s0)
	lbu	a5,2(a5)
	sext.w	a5,a5
	.loc 1 328 218
	slliw	a5,a5,16
	sext.w	a5,a5
	.loc 1 328 156
	or	a5,a4,a5
	sext.w	a4,a5
	.loc 1 328 12
	li	a5,16777216
	addi	a5,a5,-1
	bne	a4,a5,.L50
	.loc 1 329 31
	ld	a5,-136(s0)
	sd	a5,-72(s0)
	.loc 1 330 25
	ld	a5,-136(s0)
	lbu	a4,4(a5)
	lbu	a3,5(a5)
	slli	a3,a3,8
	or	a4,a3,a4
	lbu	a3,6(a5)
	slli	a3,a3,16
	or	a4,a3,a4
	lbu	a5,7(a5)
	slli	a5,a5,24
	or	a5,a5,a4
	sw	a5,-28(s0)
	.loc 1 332 34
	ld	a5,-72(s0)
	lbu	a5,12(a5)
	.loc 1 332 14
	mv	a4,a5
	li	a5,1
	beq	a4,a5,.L51
	.loc 1 333 20
	li	a5,-1
	slli	a5,a5,63
	addi	a5,a5,3
	j	.L72
.L51:
	.loc 1 336 26
	ld	a5,-136(s0)
	addi	a5,a5,13
	sd	a5,-48(s0)
	.loc 1 337 32
	lw	a5,-28(s0)
	addiw	a5,a5,-13
	sw	a5,-52(s0)
	j	.L52
.L50:
	.loc 1 339 30
	ld	a5,-136(s0)
	sd	a5,-64(s0)
	.loc 1 340 95
	ld	a5,-136(s0)
	lbu	a5,0(a5)
	sext.w	a4,a5
	.loc 1 340 159
	ld	a5,-136(s0)
	lbu	a5,1(a5)
	sext.w	a5,a5
	.loc 1 340 163
	slliw	a5,a5,8
	sext.w	a5,a5
	.loc 1 340 101
	or	a5,a4,a5
	sext.w	a4,a5
	.loc 1 340 227
	ld	a5,-136(s0)
	lbu	a5,2(a5)
	sext.w	a5,a5
	.loc 1 340 231
	slliw	a5,a5,16
	sext.w	a5,a5
	.loc 1 340 169
	or	a5,a4,a5
	sext.w	a5,a5
	.loc 1 340 25
	sw	a5,-28(s0)
	.loc 1 342 33
	ld	a5,-64(s0)
	lbu	a5,8(a5)
	.loc 1 342 14
	mv	a4,a5
	li	a5,1
	beq	a4,a5,.L53
	.loc 1 343 20
	li	a5,-1
	slli	a5,a5,63
	addi	a5,a5,3
	j	.L72
.L53:
	.loc 1 346 26
	ld	a5,-136(s0)
	addi	a5,a5,9
	sd	a5,-48(s0)
	.loc 1 347 32
	lw	a5,-28(s0)
	addiw	a5,a5,-9
	sw	a5,-52(s0)
.L52:
	.loc 1 350 18
	addi	a3,s0,-88
	addi	a4,s0,-84
	lw	a5,-52(s0)
	mv	a2,a4
	mv	a1,a5
	ld	a0,-48(s0)
	call	UefiDecompressGetInfo@plt
	sd	a0,-24(s0)
	j	.L54
.L49:
	.loc 1 356 25
	ld	a5,-136(s0)
	lbu	a5,3(a5)
	.loc 1 356 17
	mv	a4,a5
	li	a5,2
	bne	a4,a5,.L54
	.loc 1 357 18
	addi	a3,s0,-98
	addi	a4,s0,-88
	addi	a5,s0,-84
	mv	a2,a4
	mv	a1,a5
	ld	a0,-136(s0)
	call	ExtractGuidedSectionGetInfo@plt
	sd	a0,-24(s0)
.L54:
	.loc 1 365 38
	ld	a5,-24(s0)
	.loc 1 365 10
	bge	a5,zero,.L55
	.loc 1 370 16
	li	a5,-1
	slli	a5,a5,63
	addi	a5,a5,14
	j	.L72
.L55:
	.loc 1 376 75
	lw	a5,-88(s0)
	srliw	a5,a5,12
	sext.w	a4,a5
	.loc 1 376 106
	lw	a5,-88(s0)
	mv	a3,a5
	li	a5,4096
	addi	a5,a5,-1
	and	a5,a3,a5
	sext.w	a5,a5
	.loc 1 376 119
	beq	a5,zero,.L56
	.loc 1 376 119 is_stmt 0 discriminator 1
	li	a5,1
	j	.L57
.L56:
	.loc 1 376 119 discriminator 2
	li	a5,0
.L57:
	.loc 1 376 82 is_stmt 1 discriminator 4
	addw	a5,a5,a4
	sext.w	a5,a5
	.loc 1 376 23 discriminator 4
	slli	a5,a5,32
	srli	a5,a5,32
	mv	a0,a5
	call	AllocatePages@plt
	sd	a0,-80(s0)
	.loc 1 377 10
	ld	a5,-80(s0)
	bne	a5,zero,.L58
	.loc 1 378 16
	li	a5,-1
	slli	a5,a5,63
	addi	a5,a5,9
	j	.L72
.L58:
	.loc 1 384 67
	lw	a5,-84(s0)
	srliw	a5,a5,12
	sext.w	a4,a5
	.loc 1 384 94
	lw	a5,-84(s0)
	mv	a3,a5
	li	a5,4096
	addi	a5,a5,-1
	and	a5,a3,a5
	sext.w	a5,a5
	.loc 1 384 107
	beq	a5,zero,.L59
	.loc 1 384 107 is_stmt 0 discriminator 1
	li	a5,1
	j	.L60
.L59:
	.loc 1 384 107 discriminator 2
	li	a5,0
.L60:
	.loc 1 384 74 is_stmt 1 discriminator 4
	addw	a5,a5,a4
	sext.w	a5,a5
	.loc 1 384 113 discriminator 4
	addiw	a5,a5,1
	sext.w	a5,a5
	.loc 1 384 19 discriminator 4
	slli	a5,a5,32
	srli	a5,a5,32
	mv	a0,a5
	call	AllocatePages@plt
	mv	a5,a0
	.loc 1 384 17 discriminator 5
	sd	a5,-96(s0)
	.loc 1 385 21
	ld	a5,-96(s0)
	.loc 1 385 10
	bne	a5,zero,.L61
	.loc 1 386 16
	li	a5,-1
	slli	a5,a5,63
	addi	a5,a5,9
	j	.L72
.L61:
	.loc 1 393 80
	ld	a5,-136(s0)
	lbu	a5,0(a5)
	sext.w	a4,a5
	.loc 1 393 144
	ld	a5,-136(s0)
	lbu	a5,1(a5)
	sext.w	a5,a5
	.loc 1 393 148
	slliw	a5,a5,8
	sext.w	a5,a5
	.loc 1 393 86
	or	a5,a4,a5
	sext.w	a4,a5
	.loc 1 393 212
	ld	a5,-136(s0)
	lbu	a5,2(a5)
	sext.w	a5,a5
	.loc 1 393 216
	slliw	a5,a5,16
	sext.w	a5,a5
	.loc 1 393 154
	or	a5,a4,a5
	sext.w	a4,a5
	.loc 1 393 10
	li	a5,16777216
	addi	a5,a5,-1
	bne	a4,a5,.L62
	.loc 1 394 53
	ld	a4,-96(s0)
	li	a5,4096
	addi	a5,a5,-8
	add	a5,a4,a5
	.loc 1 394 19
	sd	a5,-96(s0)
	j	.L63
.L62:
	.loc 1 396 53
	ld	a4,-96(s0)
	li	a5,4096
	addi	a5,a5,-4
	add	a5,a4,a5
	.loc 1 396 19
	sd	a5,-96(s0)
.L63:
	.loc 1 402 18
	ld	a5,-136(s0)
	lbu	a5,3(a5)
	.loc 1 402 10
	mv	a4,a5
	li	a5,1
	bne	a4,a5,.L64
	.loc 1 403 82
	ld	a5,-136(s0)
	lbu	a5,0(a5)
	sext.w	a4,a5
	.loc 1 403 146
	ld	a5,-136(s0)
	lbu	a5,1(a5)
	sext.w	a5,a5
	.loc 1 403 150
	slliw	a5,a5,8
	sext.w	a5,a5
	.loc 1 403 88
	or	a5,a4,a5
	sext.w	a4,a5
	.loc 1 403 214
	ld	a5,-136(s0)
	lbu	a5,2(a5)
	sext.w	a5,a5
	.loc 1 403 218
	slliw	a5,a5,16
	sext.w	a5,a5
	.loc 1 403 156
	or	a5,a4,a5
	sext.w	a4,a5
	.loc 1 403 12
	li	a5,16777216
	addi	a5,a5,-1
	bne	a4,a5,.L65
	.loc 1 404 26
	ld	a5,-136(s0)
	addi	a5,a5,13
	sd	a5,-48(s0)
	j	.L66
.L65:
	.loc 1 406 26
	ld	a5,-136(s0)
	addi	a5,a5,9
	sd	a5,-48(s0)
.L66:
	.loc 1 409 18
	ld	a5,-96(s0)
	ld	a2,-80(s0)
	mv	a1,a5
	ld	a0,-48(s0)
	call	UefiDecompress@plt
	sd	a0,-24(s0)
	j	.L67
.L64:
	.loc 1 414 25
	ld	a5,-136(s0)
	lbu	a5,3(a5)
	.loc 1 414 17
	mv	a4,a5
	li	a5,2
	bne	a4,a5,.L67
	.loc 1 415 18
	addi	a4,s0,-104
	addi	a5,s0,-96
	mv	a3,a4
	ld	a2,-80(s0)
	mv	a1,a5
	ld	a0,-136(s0)
	call	ExtractGuidedSectionDecode@plt
	sd	a0,-24(s0)
.L67:
	.loc 1 423 38
	ld	a5,-24(s0)
	.loc 1 423 10
	bge	a5,zero,.L68
	.loc 1 428 16
	li	a5,-1
	slli	a5,a5,63
	addi	a5,a5,14
	j	.L72
.L68:
	.loc 1 430 16
	ld	a2,-96(s0)
	lw	a5,-84(s0)
	slli	a3,a5,32
	srli	a3,a3,32
	lbu	a5,-113(s0)
	ld	a4,-152(s0)
	ld	a1,-128(s0)
	mv	a0,a5
	call	FfsProcessSection
	mv	a5,a0
	j	.L72
.L73:
	.loc 1 324 9
	nop
	j	.L47
.L74:
	.loc 1 440 1
	nop
.L47:
	.loc 1 441 78
	ld	a5,-136(s0)
	lbu	a5,0(a5)
	sext.w	a4,a5
	.loc 1 441 142
	ld	a5,-136(s0)
	lbu	a5,1(a5)
	sext.w	a5,a5
	.loc 1 441 146
	slliw	a5,a5,8
	sext.w	a5,a5
	.loc 1 441 84
	or	a5,a4,a5
	sext.w	a4,a5
	.loc 1 441 210
	ld	a5,-136(s0)
	lbu	a5,2(a5)
	sext.w	a5,a5
	.loc 1 441 214
	slliw	a5,a5,16
	sext.w	a5,a5
	.loc 1 441 152
	or	a5,a4,a5
	sext.w	a4,a5
	.loc 1 441 8
	li	a5,16777216
	addi	a5,a5,-1
	bne	a4,a5,.L69
	.loc 1 442 21
	ld	a5,-136(s0)
	lbu	a4,4(a5)
	lbu	a3,5(a5)
	slli	a3,a3,8
	or	a4,a3,a4
	lbu	a3,6(a5)
	slli	a3,a3,16
	or	a4,a3,a4
	lbu	a5,7(a5)
	slli	a5,a5,24
	or	a5,a5,a4
	sw	a5,-28(s0)
	j	.L70
.L69:
	.loc 1 444 91
	ld	a5,-136(s0)
	lbu	a5,0(a5)
	sext.w	a4,a5
	.loc 1 444 155
	ld	a5,-136(s0)
	lbu	a5,1(a5)
	sext.w	a5,a5
	.loc 1 444 159
	slliw	a5,a5,8
	sext.w	a5,a5
	.loc 1 444 97
	or	a5,a4,a5
	sext.w	a4,a5
	.loc 1 444 223
	ld	a5,-136(s0)
	lbu	a5,2(a5)
	sext.w	a5,a5
	.loc 1 444 227
	slliw	a5,a5,16
	sext.w	a5,a5
	.loc 1 444 165
	or	a5,a4,a5
	sext.w	a5,a5
	.loc 1 444 21
	sw	a5,-28(s0)
.L70:
	.loc 1 451 78
	lw	a5,-28(s0)
	negw	a5,a5
	sext.w	a5,a5
	andi	a5,a5,3
	sext.w	a5,a5
	.loc 1 451 19
	lw	a4,-28(s0)
	addw	a5,a4,a5
	sw	a5,-28(s0)
	.loc 1 453 18
	lwu	a5,-28(s0)
	ld	a4,-40(s0)
	add	a5,a4,a5
	sd	a5,-40(s0)
	.loc 1 454 15
	lwu	a5,-28(s0)
	.loc 1 454 13
	ld	a4,-136(s0)
	add	a5,a4,a5
	sd	a5,-136(s0)
.L39:
	.loc 1 303 23
	ld	a4,-40(s0)
	ld	a5,-144(s0)
	bltu	a4,a5,.L71
	.loc 1 457 10
	li	a5,-1
	slli	a5,a5,63
	addi	a5,a5,14
.L72:
	.loc 1 458 1
	mv	a0,a5
	ld	ra,152(sp)
	.cfi_restore 1
	ld	s0,144(sp)
	.cfi_restore 8
	.cfi_def_cfa 2, 160
	addi	sp,sp,160
	.cfi_def_cfa_offset 0
	jr	ra
	.cfi_endproc
.LFE4:
	.size	FfsProcessSection, .-FfsProcessSection
	.section	.text.FfsFindSectionDataWithHook,"ax",@progbits
	.align	1
	.globl	FfsFindSectionDataWithHook
	.type	FfsFindSectionDataWithHook, @function
FfsFindSectionDataWithHook:
.LFB5:
	.loc 1 482 1
	.cfi_startproc
	addi	sp,sp,-80
	.cfi_def_cfa_offset 80
	sd	ra,72(sp)
	sd	s0,64(sp)
	.cfi_offset 1, -8
	.cfi_offset 8, -16
	addi	s0,sp,80
	.cfi_def_cfa 8, 0
	mv	a5,a0
	sd	a1,-64(s0)
	sd	a2,-72(s0)
	sd	a3,-80(s0)
	sb	a5,-49(s0)
	.loc 1 487 17
	ld	a5,-72(s0)
	sd	a5,-24(s0)
	.loc 1 494 11
	ld	a5,-24(s0)
	addi	a5,a5,24
	sd	a5,-32(s0)
	.loc 1 495 25
	ld	a5,-24(s0)
	addi	a5,a5,20
	.loc 1 495 14
	lw	a5,0(a5)
	.loc 1 495 12
	mv	a4,a5
	li	a5,16777216
	addi	a5,a5,-1
	and	a5,a4,a5
	sw	a5,-36(s0)
	.loc 1 496 12
	lw	a5,-36(s0)
	addiw	a5,a5,-24
	sw	a5,-36(s0)
	.loc 1 498 10
	lwu	a3,-36(s0)
	lbu	a5,-49(s0)
	ld	a4,-80(s0)
	ld	a2,-32(s0)
	ld	a1,-64(s0)
	mv	a0,a5
	call	FfsProcessSection
	mv	a5,a0
	.loc 1 505 1
	mv	a0,a5
	ld	ra,72(sp)
	.cfi_restore 1
	ld	s0,64(sp)
	.cfi_restore 8
	.cfi_def_cfa 2, 80
	addi	sp,sp,80
	.cfi_def_cfa_offset 0
	jr	ra
	.cfi_endproc
.LFE5:
	.size	FfsFindSectionDataWithHook, .-FfsFindSectionDataWithHook
	.section	.text.FfsFindSectionData,"ax",@progbits
	.align	1
	.globl	FfsFindSectionData
	.type	FfsFindSectionData, @function
FfsFindSectionData:
.LFB6:
	.loc 1 526 1
	.cfi_startproc
	addi	sp,sp,-48
	.cfi_def_cfa_offset 48
	sd	ra,40(sp)
	sd	s0,32(sp)
	.cfi_offset 1, -8
	.cfi_offset 8, -16
	addi	s0,sp,48
	.cfi_def_cfa 8, 0
	mv	a5,a0
	sd	a1,-32(s0)
	sd	a2,-40(s0)
	sb	a5,-17(s0)
	.loc 1 527 10
	lbu	a5,-17(s0)
	ld	a3,-40(s0)
	ld	a2,-32(s0)
	li	a1,0
	mv	a0,a5
	call	FfsFindSectionDataWithHook
	mv	a5,a0
	.loc 1 528 1
	mv	a0,a5
	ld	ra,40(sp)
	.cfi_restore 1
	ld	s0,32(sp)
	.cfi_restore 8
	.cfi_def_cfa 2, 48
	addi	sp,sp,48
	.cfi_def_cfa_offset 0
	jr	ra
	.cfi_endproc
.LFE6:
	.size	FfsFindSectionData, .-FfsFindSectionData
	.section	.text.FfsFindNextFile,"ax",@progbits
	.align	1
	.globl	FfsFindNextFile
	.type	FfsFindNextFile, @function
FfsFindNextFile:
.LFB7:
	.loc 1 550 1
	.cfi_startproc
	addi	sp,sp,-48
	.cfi_def_cfa_offset 48
	sd	ra,40(sp)
	sd	s0,32(sp)
	.cfi_offset 1, -8
	.cfi_offset 8, -16
	addi	s0,sp,48
	.cfi_def_cfa 8, 0
	mv	a5,a0
	sd	a1,-32(s0)
	sd	a2,-40(s0)
	sb	a5,-17(s0)
	.loc 1 551 10
	lbu	a5,-17(s0)
	ld	a3,-40(s0)
	mv	a2,a5
	li	a1,0
	ld	a0,-32(s0)
	call	FindFileEx
	mv	a5,a0
	.loc 1 552 1
	mv	a0,a5
	ld	ra,40(sp)
	.cfi_restore 1
	ld	s0,32(sp)
	.cfi_restore 8
	.cfi_def_cfa 2, 48
	addi	sp,sp,48
	.cfi_def_cfa_offset 0
	jr	ra
	.cfi_endproc
.LFE7:
	.size	FfsFindNextFile, .-FfsFindNextFile
	.section	.text.FfsFindNextVolume,"ax",@progbits
	.align	1
	.globl	FfsFindNextVolume
	.type	FfsFindNextVolume, @function
FfsFindNextVolume:
.LFB8:
	.loc 1 571 1
	.cfi_startproc
	addi	sp,sp,-48
	.cfi_def_cfa_offset 48
	sd	ra,40(sp)
	sd	s0,32(sp)
	.cfi_offset 1, -8
	.cfi_offset 8, -16
	addi	s0,sp,48
	.cfi_def_cfa 8, 0
	sd	a0,-40(s0)
	sd	a1,-48(s0)
	.loc 1 574 13
	call	GetHobList@plt
	mv	a5,a0
	.loc 1 574 11 discriminator 1
	sd	a5,-24(s0)
	.loc 1 575 10
	ld	a5,-24(s0)
	.loc 1 575 6
	bne	a5,zero,.L82
	.loc 1 576 12
	li	a5,-1
	slli	a5,a5,63
	addi	a5,a5,14
	j	.L86
.L82:
	.loc 1 580 38
	ld	a5,-24(s0)
	.loc 1 580 15
	mv	a1,a5
	li	a0,5
	call	GetNextHob@plt
	mv	a5,a0
	.loc 1 580 13 discriminator 1
	sd	a5,-24(s0)
	.loc 1 581 12
	ld	a5,-24(s0)
	.loc 1 581 8
	beq	a5,zero,.L84
	.loc 1 582 19
	ld	a5,-40(s0)
	addi	a4,a5,-1
	sd	a4,-40(s0)
	.loc 1 582 10
	bne	a5,zero,.L85
	.loc 1 583 55
	ld	a5,-24(s0)
	.loc 1 583 70
	ld	a5,8(a5)
	.loc 1 583 25
	mv	a4,a5
	.loc 1 583 23
	ld	a5,-48(s0)
	sd	a4,0(a5)
	.loc 1 584 16
	li	a5,0
	j	.L86
.L85:
	.loc 1 587 43
	ld	a5,-24(s0)
	.loc 1 587 56
	ld	a4,-24(s0)
	.loc 1 587 63
	lhu	a4,2(a4)
	.loc 1 587 48
	add	a5,a5,a4
	.loc 1 587 17
	mv	a1,a5
	li	a0,5
	call	GetNextHob@plt
	mv	a5,a0
	.loc 1 587 15 discriminator 1
	sd	a5,-24(s0)
.L84:
	.loc 1 589 15
	ld	a5,-24(s0)
	.loc 1 589 20
	bne	a5,zero,.L82
	.loc 1 591 10
	li	a5,-1
	slli	a5,a5,63
	addi	a5,a5,14
.L86:
	.loc 1 592 1
	mv	a0,a5
	ld	ra,40(sp)
	.cfi_restore 1
	ld	s0,32(sp)
	.cfi_restore 8
	.cfi_def_cfa 2, 48
	addi	sp,sp,48
	.cfi_def_cfa_offset 0
	jr	ra
	.cfi_endproc
.LFE8:
	.size	FfsFindNextVolume, .-FfsFindNextVolume
	.section	.text.FfsFindFileByName,"ax",@progbits
	.align	1
	.globl	FfsFindFileByName
	.type	FfsFindFileByName, @function
FfsFindFileByName:
.LFB9:
	.loc 1 619 1
	.cfi_startproc
	addi	sp,sp,-64
	.cfi_def_cfa_offset 64
	sd	ra,56(sp)
	sd	s0,48(sp)
	.cfi_offset 1, -8
	.cfi_offset 8, -16
	addi	s0,sp,64
	.cfi_def_cfa 8, 0
	sd	a0,-40(s0)
	sd	a1,-48(s0)
	sd	a2,-56(s0)
	.loc 1 622 6
	ld	a5,-48(s0)
	beq	a5,zero,.L88
	.loc 1 622 38 discriminator 1
	ld	a5,-40(s0)
	beq	a5,zero,.L88
	.loc 1 622 68 discriminator 2
	ld	a5,-56(s0)
	bne	a5,zero,.L89
.L88:
	.loc 1 623 12
	li	a5,-1
	slli	a5,a5,63
	addi	a5,a5,2
	j	.L90
.L89:
	.loc 1 626 12
	ld	a3,-56(s0)
	li	a2,0
	ld	a1,-40(s0)
	ld	a0,-48(s0)
	call	FindFileEx
	sd	a0,-24(s0)
	.loc 1 627 6
	ld	a4,-24(s0)
	li	a5,-1
	slli	a5,a5,63
	addi	a5,a5,14
	bne	a4,a5,.L91
	.loc 1 628 17
	ld	a5,-56(s0)
	sd	zero,0(a5)
.L91:
	.loc 1 631 10
	ld	a5,-24(s0)
.L90:
	.loc 1 632 1
	mv	a0,a5
	ld	ra,56(sp)
	.cfi_restore 1
	ld	s0,48(sp)
	.cfi_restore 8
	.cfi_def_cfa 2, 64
	addi	sp,sp,64
	.cfi_def_cfa_offset 0
	jr	ra
	.cfi_endproc
.LFE9:
	.size	FfsFindFileByName, .-FfsFindFileByName
	.section	.text.FfsGetFileInfo,"ax",@progbits
	.align	1
	.globl	FfsGetFileInfo
	.type	FfsGetFileInfo, @function
FfsGetFileInfo:
.LFB10:
	.loc 1 656 1
	.cfi_startproc
	addi	sp,sp,-64
	.cfi_def_cfa_offset 64
	sd	ra,56(sp)
	sd	s0,48(sp)
	.cfi_offset 1, -8
	.cfi_offset 8, -16
	addi	s0,sp,64
	.cfi_def_cfa 8, 0
	sd	a0,-56(s0)
	sd	a1,-64(s0)
	.loc 1 662 6
	ld	a5,-56(s0)
	beq	a5,zero,.L93
	.loc 1 662 36 discriminator 1
	ld	a5,-64(s0)
	bne	a5,zero,.L94
.L93:
	.loc 1 663 12
	li	a5,-1
	slli	a5,a5,63
	addi	a5,a5,2
	j	.L102
.L94:
	.loc 1 666 16
	sd	zero,-40(s0)
	.loc 1 670 8
	addi	a5,s0,-40
	mv	a1,a5
	ld	a0,-56(s0)
	call	FileHandleToVolume
	mv	a5,a0
	.loc 1 670 6 discriminator 1
	bne	a5,zero,.L96
	.loc 1 671 12
	li	a5,-1
	slli	a5,a5,63
	addi	a5,a5,2
	j	.L102
.L96:
	.loc 1 674 8
	ld	a5,-40(s0)
	.loc 1 674 51
	lw	a5,44(a5)
	.loc 1 674 64
	mv	a4,a5
	li	a5,4096
	addi	a5,a5,-2048
	and	a5,a4,a5
	sext.w	a5,a5
	.loc 1 674 6
	beq	a5,zero,.L97
	.loc 1 675 19
	li	a5,1
	sb	a5,-17(s0)
	j	.L98
.L97:
	.loc 1 677 19
	sb	zero,-17(s0)
.L98:
	.loc 1 683 15
	lbu	a5,-17(s0)
	ld	a1,-56(s0)
	mv	a0,a5
	call	GetFileState
	mv	a5,a0
	sb	a5,-18(s0)
	.loc 1 685 3
	lbu	a5,-18(s0)
	sext.w	a5,a5
	li	a4,4
	beq	a5,a4,.L103
	li	a4,8
	beq	a5,a4,.L103
	.loc 1 690 14
	li	a5,-1
	slli	a5,a5,63
	addi	a5,a5,2
	j	.L102
.L103:
	.loc 1 688 7
	nop
	.loc 1 693 14
	ld	a5,-56(s0)
	sd	a5,-32(s0)
	.loc 1 694 12
	ld	a5,-64(s0)
	.loc 1 694 33
	ld	a4,-32(s0)
	.loc 1 694 3
	li	a2,16
	mv	a1,a4
	mv	a0,a5
	call	CopyMem@plt
	.loc 1 695 34
	ld	a5,-32(s0)
	lbu	a4,18(a5)
	.loc 1 695 22
	ld	a5,-64(s0)
	sb	a4,16(a5)
	.loc 1 696 40
	ld	a5,-32(s0)
	lbu	a5,19(a5)
	sext.w	a4,a5
	.loc 1 696 28
	ld	a5,-64(s0)
	sw	a4,20(a5)
	.loc 1 697 39
	ld	a5,-32(s0)
	addi	a5,a5,20
	.loc 1 697 28
	lw	a5,0(a5)
	.loc 1 697 57
	mv	a4,a5
	li	a5,16777216
	addi	a5,a5,-1
	and	a5,a4,a5
	sext.w	a5,a5
	.loc 1 697 71
	addiw	a5,a5,-24
	sext.w	a4,a5
	.loc 1 697 24
	ld	a5,-64(s0)
	sw	a4,32(a5)
	.loc 1 698 34
	ld	a5,-32(s0)
	addi	a4,a5,24
	.loc 1 698 20
	ld	a5,-64(s0)
	sd	a4,24(a5)
	.loc 1 699 10
	li	a5,0
.L102:
	.loc 1 700 1
	mv	a0,a5
	ld	ra,56(sp)
	.cfi_restore 1
	ld	s0,48(sp)
	.cfi_restore 8
	.cfi_def_cfa 2, 64
	addi	sp,sp,64
	.cfi_def_cfa_offset 0
	jr	ra
	.cfi_endproc
.LFE10:
	.size	FfsGetFileInfo, .-FfsGetFileInfo
	.section	.text.FfsGetVolumeInfo,"ax",@progbits
	.align	1
	.globl	FfsGetVolumeInfo
	.type	FfsGetVolumeInfo, @function
FfsGetVolumeInfo:
.LFB11:
	.loc 1 724 1
	.cfi_startproc
	addi	sp,sp,-112
	.cfi_def_cfa_offset 112
	sd	ra,104(sp)
	sd	s0,96(sp)
	.cfi_offset 1, -8
	.cfi_offset 8, -16
	addi	s0,sp,112
	.cfi_def_cfa 8, 0
	sd	a0,-104(s0)
	sd	a1,-112(s0)
	.loc 1 728 6
	ld	a5,-112(s0)
	bne	a5,zero,.L105
	.loc 1 729 12
	li	a5,-1
	slli	a5,a5,63
	addi	a5,a5,2
	j	.L109
.L105:
	.loc 1 737 3
	addi	a5,s0,-88
	li	a2,64
	ld	a1,-104(s0)
	mv	a0,a5
	call	CopyMem@plt
	.loc 1 741 18
	lw	a4,-48(s0)
	.loc 1 741 6
	li	a5,1213612032
	addi	a5,a5,1631
	beq	a4,a5,.L107
	.loc 1 742 12
	li	a5,-1
	slli	a5,a5,63
	addi	a5,a5,2
	j	.L109
.L107:
	.loc 1 745 41
	lw	a4,-44(s0)
	.loc 1 745 28
	ld	a5,-112(s0)
	sw	a4,0(a5)
	.loc 1 746 23
	ld	a5,-112(s0)
	ld	a4,-104(s0)
	sd	a4,40(a5)
	.loc 1 747 35
	ld	a4,-56(s0)
	.loc 1 747 22
	ld	a5,-112(s0)
	sd	a4,48(a5)
	.loc 1 748 12
	ld	a5,-112(s0)
	addi	a4,a5,4
	.loc 1 748 3
	addi	a5,s0,-88
	addi	a5,a5,16
	li	a2,16
	mv	a1,a5
	mv	a0,a4
	call	CopyMem@plt
	.loc 1 750 18
	lhu	a5,-36(s0)
	.loc 1 750 6
	beq	a5,zero,.L108
	.loc 1 751 97
	lhu	a5,-36(s0)
	mv	a4,a5
	.loc 1 751 23
	ld	a5,-104(s0)
	add	a5,a5,a4
	sd	a5,-24(s0)
	.loc 1 752 14
	ld	a5,-112(s0)
	addi	a5,a5,20
	.loc 1 752 35
	ld	a4,-24(s0)
	.loc 1 752 5
	li	a2,16
	mv	a1,a4
	mv	a0,a5
	call	CopyMem@plt
.L108:
	.loc 1 755 10
	li	a5,0
.L109:
	.loc 1 756 1
	mv	a0,a5
	ld	ra,104(sp)
	.cfi_restore 1
	ld	s0,96(sp)
	.cfi_restore 8
	.cfi_def_cfa 2, 112
	addi	sp,sp,112
	.cfi_def_cfa_offset 0
	jr	ra
	.cfi_endproc
.LFE11:
	.size	FfsGetVolumeInfo, .-FfsGetVolumeInfo
	.section	.text.FfsAnyFvFindFirstFile,"ax",@progbits
	.align	1
	.globl	FfsAnyFvFindFirstFile
	.type	FfsAnyFvFindFirstFile, @function
FfsAnyFvFindFirstFile:
.LFB12:
	.loc 1 776 1
	.cfi_startproc
	addi	sp,sp,-64
	.cfi_def_cfa_offset 64
	sd	ra,56(sp)
	sd	s0,48(sp)
	.cfi_offset 1, -8
	.cfi_offset 8, -16
	addi	s0,sp,64
	.cfi_def_cfa 8, 0
	mv	a5,a0
	sd	a1,-48(s0)
	sd	a2,-56(s0)
	sb	a5,-33(s0)
	.loc 1 783 12
	sd	zero,-32(s0)
	.loc 1 784 15
	ld	a5,-56(s0)
	sd	zero,0(a5)
.L114:
	.loc 1 787 14
	ld	a5,-32(s0)
	addi	a4,a5,1
	sd	a4,-32(s0)
	ld	a1,-48(s0)
	mv	a0,a5
	call	FfsFindNextVolume
	sd	a0,-24(s0)
	.loc 1 788 36
	ld	a5,-24(s0)
	.loc 1 788 8
	blt	a5,zero,.L116
	.loc 1 792 14
	ld	a5,-48(s0)
	ld	a4,0(a5)
	lbu	a5,-33(s0)
	ld	a2,-56(s0)
	mv	a1,a4
	mv	a0,a5
	call	FfsFindNextFile
	sd	a0,-24(s0)
	.loc 1 793 9
	ld	a5,-24(s0)
	.loc 1 793 8
	bge	a5,zero,.L117
	.loc 1 787 12
	j	.L114
.L116:
	.loc 1 789 7
	nop
	j	.L112
.L117:
	.loc 1 794 7
	nop
.L112:
	.loc 1 798 10
	ld	a5,-24(s0)
	.loc 1 799 1
	mv	a0,a5
	ld	ra,56(sp)
	.cfi_restore 1
	ld	s0,48(sp)
	.cfi_restore 8
	.cfi_def_cfa 2, 64
	addi	sp,sp,64
	.cfi_def_cfa_offset 0
	jr	ra
	.cfi_endproc
.LFE12:
	.size	FfsAnyFvFindFirstFile, .-FfsAnyFvFindFirstFile
	.section	.text.FfsProcessFvFile,"ax",@progbits
	.align	1
	.globl	FfsProcessFvFile
	.type	FfsProcessFvFile, @function
FfsProcessFvFile:
.LFB13:
	.loc 1 816 1
	.cfi_startproc
	addi	sp,sp,-128
	.cfi_def_cfa_offset 128
	sd	ra,120(sp)
	sd	s0,112(sp)
	.cfi_offset 1, -8
	.cfi_offset 8, -16
	addi	s0,sp,128
	.cfi_def_cfa 8, 0
	sd	a0,-120(s0)
	.loc 1 824 12
	sd	zero,-32(s0)
	.loc 1 830 16
	call	GetHobList@plt
	mv	a5,a0
	.loc 1 830 14 discriminator 1
	sd	a5,-112(s0)
	.loc 1 831 9
	j	.L119
.L122:
	.loc 1 832 22
	ld	a4,-120(s0)
	.loc 1 832 77
	ld	a5,-112(s0)
	.loc 1 832 70
	addi	a5,a5,40
	.loc 1 832 9
	mv	a1,a5
	mv	a0,a4
	call	CompareGuid@plt
	mv	a5,a0
	.loc 1 832 8 discriminator 1
	beq	a5,zero,.L120
	.loc 1 836 14
	li	a5,0
	j	.L129
.L120:
	.loc 1 839 27
	ld	a5,-112(s0)
	.loc 1 839 43
	ld	a4,-112(s0)
	.loc 1 839 50
	lhu	a4,2(a4)
	.loc 1 839 32
	add	a5,a5,a4
	.loc 1 839 16
	sd	a5,-112(s0)
.L119:
	.loc 1 831 50
	ld	a5,-112(s0)
	.loc 1 831 24
	mv	a1,a5
	li	a0,9
	call	GetNextHob@plt
	mv	a5,a0
	.loc 1 831 22 discriminator 1
	sd	a5,-112(s0)
	.loc 1 831 17 discriminator 1
	ld	a5,-112(s0)
	.loc 1 831 57 discriminator 1
	bne	a5,zero,.L122
	.loc 1 845 12
	addi	a5,s0,-48
	mv	a3,a5
	ld	a2,-120(s0)
	li	a1,0
	li	a0,23
	call	FfsFindSectionDataWithHook
	sd	a0,-40(s0)
	.loc 1 846 34
	ld	a5,-40(s0)
	.loc 1 846 6
	bge	a5,zero,.L123
	.loc 1 847 12
	ld	a5,-40(s0)
	j	.L129
.L123:
	.loc 1 853 3
	addi	a5,s0,-104
	li	a1,56
	mv	a0,a5
	call	ZeroMem@plt
	.loc 1 854 12
	ld	a5,-48(s0)
	addi	a4,s0,-104
	mv	a1,a4
	mv	a0,a5
	call	FfsGetVolumeInfo
	sd	a0,-40(s0)
	.loc 1 860 35
	lw	a5,-104(s0)
	.loc 1 860 63
	srliw	a5,a5,16
	sext.w	a5,a5
	andi	a5,a5,31
	sext.w	a5,a5
	.loc 1 860 19
	li	a4,1
	sllw	a5,a4,a5
	sext.w	a5,a5
	.loc 1 860 15
	sw	a5,-20(s0)
	.loc 1 861 6
	lw	a5,-20(s0)
	sext.w	a4,a5
	li	a5,7
	bgtu	a4,a5,.L124
	.loc 1 862 17
	li	a5,8
	sw	a5,-20(s0)
.L124:
	.loc 1 868 25
	ld	a5,-64(s0)
	.loc 1 868 7
	mv	a4,a5
	.loc 1 868 34
	lwu	a5,-20(s0)
	remu	a5,a4,a5
	.loc 1 868 6
	beq	a5,zero,.L125
	.loc 1 869 60
	ld	a5,-56(s0)
	.loc 1 869 41
	sext.w	a5,a5
	.loc 1 869 69
	srliw	a5,a5,12
	sext.w	a4,a5
	.loc 1 869 100
	ld	a5,-56(s0)
	.loc 1 869 81
	sext.w	a5,a5
	.loc 1 869 109
	mv	a3,a5
	li	a5,4096
	addi	a5,a5,-1
	and	a5,a3,a5
	sext.w	a5,a5
	.loc 1 869 122
	beq	a5,zero,.L126
	.loc 1 869 122 is_stmt 0 discriminator 1
	li	a5,1
	j	.L127
.L126:
	.loc 1 869 122 discriminator 2
	li	a5,0
.L127:
	.loc 1 869 76 is_stmt 1 discriminator 4
	addw	a5,a5,a4
	sext.w	a5,a5
	.loc 1 869 16 discriminator 4
	slli	a5,a5,32
	srli	a5,a5,32
	lwu	a4,-20(s0)
	mv	a1,a4
	mv	a0,a5
	call	AllocateAlignedPages@plt
	sd	a0,-32(s0)
	.loc 1 870 8
	ld	a5,-32(s0)
	bne	a5,zero,.L128
	.loc 1 871 14
	li	a5,-1
	slli	a5,a5,63
	addi	a5,a5,9
	j	.L129
.L128:
	.loc 1 874 35
	ld	a5,-64(s0)
	.loc 1 874 63
	ld	a4,-56(s0)
	.loc 1 874 5
	mv	a2,a4
	mv	a1,a5
	ld	a0,-32(s0)
	call	CopyMem@plt
	.loc 1 878 5
	addi	a5,s0,-104
	mv	a1,a5
	ld	a0,-32(s0)
	call	FfsGetVolumeInfo
.L125:
	.loc 1 884 55
	ld	a5,-64(s0)
	.loc 1 884 3
	mv	a4,a5
	ld	a5,-56(s0)
	mv	a1,a5
	mv	a0,a4
	call	BuildFvHob@plt
	.loc 1 891 45
	ld	a5,-64(s0)
	.loc 1 890 3
	mv	a0,a5
	ld	a4,-56(s0)
	.loc 1 894 5
	ld	a3,-120(s0)
	.loc 1 890 3
	addi	a5,s0,-104
	addi	a5,a5,20
	mv	a2,a5
	mv	a1,a4
	call	BuildFv2Hob@plt
	.loc 1 897 10
	li	a5,0
.L129:
	.loc 1 898 1
	mv	a0,a5
	ld	ra,120(sp)
	.cfi_restore 1
	ld	s0,112(sp)
	.cfi_restore 8
	.cfi_def_cfa 2, 128
	addi	sp,sp,128
	.cfi_def_cfa_offset 0
	jr	ra
	.cfi_endproc
.LFE13:
	.size	FfsProcessFvFile, .-FfsProcessFvFile
	.text
.Letext0:
	.file 2 "/home/kapoagaeming/spacemit-image-builder/components/edk2/MdePkg/Include/RiscV64/ProcessorBind.h"
	.file 3 "/home/kapoagaeming/spacemit-image-builder/components/edk2/MdePkg/Include/Base.h"
	.file 4 "/home/kapoagaeming/spacemit-image-builder/components/edk2/MdePkg/Include/Uefi/UefiBaseType.h"
	.file 5 "/home/kapoagaeming/spacemit-image-builder/components/edk2/MdePkg/Include/Uefi/UefiMultiPhase.h"
	.file 6 "/home/kapoagaeming/spacemit-image-builder/components/edk2/MdePkg/Include/Pi/PiFirmwareVolume.h"
	.file 7 "/home/kapoagaeming/spacemit-image-builder/components/edk2/MdePkg/Include/Pi/PiFirmwareFile.h"
	.file 8 "/home/kapoagaeming/spacemit-image-builder/components/edk2/MdePkg/Include/Pi/PiBootMode.h"
	.file 9 "/home/kapoagaeming/spacemit-image-builder/components/edk2/MdePkg/Include/Pi/PiHob.h"
	.file 10 "/home/kapoagaeming/spacemit-image-builder/components/edk2/MdePkg/Include/Pi/PiPeiCis.h"
	.file 11 "/home/kapoagaeming/spacemit-image-builder/components/edk2/EmbeddedPkg/Include/Library/PrePiLib.h"
	.file 12 "/home/kapoagaeming/spacemit-image-builder/components/edk2/MdePkg/Include/Library/MemoryAllocationLib.h"
	.file 13 "/home/kapoagaeming/spacemit-image-builder/components/edk2/MdePkg/Include/Library/BaseMemoryLib.h"
	.file 14 "/home/kapoagaeming/spacemit-image-builder/components/edk2/MdePkg/Include/Library/ExtractGuidedSectionLib.h"
	.file 15 "/home/kapoagaeming/spacemit-image-builder/components/edk2/MdePkg/Include/Library/UefiDecompressLib.h"
	.section	.note.GNU-stack,"",@progbits
