	.file	"AutoGen.c"
	.option pic
	.option norelax
	.attribute arch, "rv64i2p1_m2p0_a2p1_f2p2_d2p2_c2p0_zicsr2p0_zifencei2p0_zmmul1p0_zaamo1p0_zalrsc1p0_zca1p0_zcd1p0"
	.attribute unaligned_access, 0
	.attribute stack_align, 16
	.text
.Ltext0:
	.cfi_sections	.debug_frame
	.file 0 "/home/kapoagaeming/spacemit-image-builder/components/Build/Milk-V-Jupiter/RELEASE_GCC5/RISCV64/Silicon/Spacemit/Sec/SecMain" "/home/kapoagaeming/spacemit-image-builder/components/Build/Milk-V-Jupiter/RELEASE_GCC5/RISCV64/Silicon/Spacemit/Sec/SecMain/DEBUG/AutoGen.c"
	.globl	gEfiCallerIdGuid
	.section	.data.gEfiCallerIdGuid,"aw"
	.align	3
	.type	gEfiCallerIdGuid, @object
	.size	gEfiCallerIdGuid, 16
gEfiCallerIdGuid:
	.word	-2092119624
	.half	17710
	.half	19821
	.base64	"vSUdIZMYuyg="
	.globl	gEdkiiDscPlatformGuid
	.section	.data.gEdkiiDscPlatformGuid,"aw"
	.align	3
	.type	gEdkiiDscPlatformGuid, @object
	.size	gEdkiiDscPlatformGuid, 16
gEdkiiDscPlatformGuid:
	.word	-1093915514
	.half	809
	.half	18550
	.base64	"mLFXzDezPfM="
	.globl	gEfiCallerBaseName
	.section	.rodata
	.align	3
.LC0:
	.string	"SecMainRiscV64"
	.section	.data.rel.local.gEfiCallerBaseName,"aw"
	.align	3
	.type	gEfiCallerBaseName, @object
	.size	gEfiCallerBaseName, 8
gEfiCallerBaseName:
	.dword	.LC0
	.globl	gSpacemitTokenSpaceGuid
	.section	.data.gSpacemitTokenSpaceGuid,"aw"
	.align	3
	.type	gSpacemitTokenSpaceGuid, @object
	.size	gSpacemitTokenSpaceGuid, 16
gSpacemitTokenSpaceGuid:
	.word	214524533
	.half	15414
	.half	18954
	.base64	"qDNTBN8K0EQ="
	.globl	gEfiMdePkgTokenSpaceGuid
	.section	.data.gEfiMdePkgTokenSpaceGuid,"aw"
	.align	3
	.type	gEfiMdePkgTokenSpaceGuid, @object
	.size	gEfiMdePkgTokenSpaceGuid, 16
gEfiMdePkgTokenSpaceGuid:
	.word	-1857360921
	.half	17973
	.half	17819
	.base64	"qhwR4hmwOhA="
	.globl	gUefiCpuPkgTokenSpaceGuid
	.section	.data.gUefiCpuPkgTokenSpaceGuid,"aw"
	.align	3
	.type	gUefiCpuPkgTokenSpaceGuid, @object
	.size	gUefiCpuPkgTokenSpaceGuid, 16
gUefiCpuPkgTokenSpaceGuid:
	.word	-1408909517
	.half	-26278
	.half	20180
	.base64	"qrjveugPXLA="
	.globl	gEfiHobMemoryAllocModuleGuid
	.section	.data.gEfiHobMemoryAllocModuleGuid,"aw"
	.align	3
	.type	gEfiHobMemoryAllocModuleGuid, @object
	.size	gEfiHobMemoryAllocModuleGuid, 16
gEfiHobMemoryAllocModuleGuid:
	.word	-119400075
	.half	2201
	.half	20312
	.base64	"pL5VJanG13o="
	.globl	gEfiHobMemoryAllocStackGuid
	.section	.data.gEfiHobMemoryAllocStackGuid,"aw"
	.align	3
	.type	gEfiHobMemoryAllocStackGuid, @object
	.size	gEfiHobMemoryAllocStackGuid, 16
gEfiHobMemoryAllocStackGuid:
	.word	1322565415
	.half	16530
	.half	17129
	.base64	"gH1Sex0Ayb0="
	.globl	gEmbeddedTokenSpaceGuid
	.section	.data.gEmbeddedTokenSpaceGuid,"aw"
	.align	3
	.type	gEmbeddedTokenSpaceGuid, @object
	.size	gEmbeddedTokenSpaceGuid, 16
gEmbeddedTokenSpaceGuid:
	.word	-522663401
	.half	17014
	.half	17286
	.base64	"u3lIy4E9PE8="
	.globl	gEfiMemoryTypeInformationGuid
	.section	.data.gEfiMemoryTypeInformationGuid,"aw"
	.align	3
	.type	gEfiMemoryTypeInformationGuid, @object
	.size	gEfiMemoryTypeInformationGuid, 16
gEfiMemoryTypeInformationGuid:
	.word	1276707999
	.half	16695
	.half	19923
	.base64	"nBCLl6g//fo="
	.globl	gFdtHobGuid
	.section	.data.gFdtHobGuid,"aw"
	.align	3
	.type	gFdtHobGuid, @object
	.size	gFdtHobGuid, 16
gFdtHobGuid:
	.word	378897478
	.half	6583
	.half	18443
	.base64	"sEd0ha0/cW0="
	.globl	gUefiRiscVPlatformPkgTokenSpaceGuid
	.section	.data.gUefiRiscVPlatformPkgTokenSpaceGuid,"aw"
	.align	3
	.type	gUefiRiscVPlatformPkgTokenSpaceGuid, @object
	.size	gUefiRiscVPlatformPkgTokenSpaceGuid, 16
gUefiRiscVPlatformPkgTokenSpaceGuid:
	.word	1785180057
	.half	17810
	.half	16632
	.base64	"tr5ivKENoew="
	.globl	gLzmaCustomDecompressGuid
	.section	.data.gLzmaCustomDecompressGuid,"aw"
	.align	3
	.type	gLzmaCustomDecompressGuid, @object
	.size	gLzmaCustomDecompressGuid, 16
gLzmaCustomDecompressGuid:
	.word	-296855400
	.half	14612
	.half	16985
	.base64	"nW7ce9eUA88="
	.globl	gPeCoffLoaderProtocolGuid
	.section	.data.gPeCoffLoaderProtocolGuid,"aw"
	.align	3
	.type	gPeCoffLoaderProtocolGuid, @object
	.size	gPeCoffLoaderProtocolGuid, 16
gPeCoffLoaderProtocolGuid:
	.word	-1289545829
	.half	-26629
	.half	18302
	.base64	"sP7YhZH6Eas="
	.globl	_gPcd_SkuId_Array
	.section	.bss._gPcd_SkuId_Array,"aw",@nobits
	.align	3
	.type	_gPcd_SkuId_Array, @object
	.size	_gPcd_SkuId_Array, 8
_gPcd_SkuId_Array:
	.zero	8
	.globl	_gPcd_FixedAtBuild_PcdSecStackBase
	.section	.rodata._gPcd_FixedAtBuild_PcdSecStackBase,"a"
	.align	3
	.type	_gPcd_FixedAtBuild_PcdSecStackBase, @object
	.size	_gPcd_FixedAtBuild_PcdSecStackBase, 8
_gPcd_FixedAtBuild_PcdSecStackBase:
	.dword	603914240
	.globl	_gPcd_FixedAtBuild_PcdSecStackSize
	.section	.rodata._gPcd_FixedAtBuild_PcdSecStackSize,"a"
	.align	3
	.type	_gPcd_FixedAtBuild_PcdSecStackSize, @object
	.size	_gPcd_FixedAtBuild_PcdSecStackSize, 8
_gPcd_FixedAtBuild_PcdSecStackSize:
	.dword	65536
	.globl	_gPcd_FixedAtBuild_PcdSecUefiMemorySize
	.section	.rodata._gPcd_FixedAtBuild_PcdSecUefiMemorySize,"a"
	.align	3
	.type	_gPcd_FixedAtBuild_PcdSecUefiMemorySize, @object
	.size	_gPcd_FixedAtBuild_PcdSecUefiMemorySize, 8
_gPcd_FixedAtBuild_PcdSecUefiMemorySize:
	.dword	33554432
	.globl	_gPcd_FixedAtBuild_PcdVerifyNodeInList
	.section	.rodata._gPcd_FixedAtBuild_PcdVerifyNodeInList,"a"
	.type	_gPcd_FixedAtBuild_PcdVerifyNodeInList, @object
	.size	_gPcd_FixedAtBuild_PcdVerifyNodeInList, 1
_gPcd_FixedAtBuild_PcdVerifyNodeInList:
	.zero	1
	.globl	_gPcd_FixedAtBuild_PcdMaximumLinkedListLength
	.section	.rodata._gPcd_FixedAtBuild_PcdMaximumLinkedListLength,"a"
	.align	2
	.type	_gPcd_FixedAtBuild_PcdMaximumLinkedListLength, @object
	.size	_gPcd_FixedAtBuild_PcdMaximumLinkedListLength, 4
_gPcd_FixedAtBuild_PcdMaximumLinkedListLength:
	.word	1000000
	.globl	_gPcd_FixedAtBuild_PcdMaximumAsciiStringLength
	.section	.rodata._gPcd_FixedAtBuild_PcdMaximumAsciiStringLength,"a"
	.align	2
	.type	_gPcd_FixedAtBuild_PcdMaximumAsciiStringLength, @object
	.size	_gPcd_FixedAtBuild_PcdMaximumAsciiStringLength, 4
_gPcd_FixedAtBuild_PcdMaximumAsciiStringLength:
	.word	1000000
	.globl	_gPcd_FixedAtBuild_PcdMaximumUnicodeStringLength
	.section	.rodata._gPcd_FixedAtBuild_PcdMaximumUnicodeStringLength,"a"
	.align	2
	.type	_gPcd_FixedAtBuild_PcdMaximumUnicodeStringLength, @object
	.size	_gPcd_FixedAtBuild_PcdMaximumUnicodeStringLength, 4
_gPcd_FixedAtBuild_PcdMaximumUnicodeStringLength:
	.word	1000000
	.globl	_gPcd_FixedAtBuild_PcdControlFlowEnforcementPropertyMask
	.section	.rodata._gPcd_FixedAtBuild_PcdControlFlowEnforcementPropertyMask,"a"
	.align	2
	.type	_gPcd_FixedAtBuild_PcdControlFlowEnforcementPropertyMask, @object
	.size	_gPcd_FixedAtBuild_PcdControlFlowEnforcementPropertyMask, 4
_gPcd_FixedAtBuild_PcdControlFlowEnforcementPropertyMask:
	.zero	4
	.globl	_gPcd_FixedAtBuild_PcdSpeculationBarrierType
	.section	.rodata._gPcd_FixedAtBuild_PcdSpeculationBarrierType,"a"
	.type	_gPcd_FixedAtBuild_PcdSpeculationBarrierType, @object
	.size	_gPcd_FixedAtBuild_PcdSpeculationBarrierType, 1
_gPcd_FixedAtBuild_PcdSpeculationBarrierType:
	.byte	1
	.globl	_gPcd_FixedAtBuild_PcdDebugPrintErrorLevel
	.section	.rodata._gPcd_FixedAtBuild_PcdDebugPrintErrorLevel,"a"
	.align	2
	.type	_gPcd_FixedAtBuild_PcdDebugPrintErrorLevel, @object
	.size	_gPcd_FixedAtBuild_PcdDebugPrintErrorLevel, 4
_gPcd_FixedAtBuild_PcdDebugPrintErrorLevel:
	.word	-2147483577
	.globl	_gPcd_FixedAtBuild_PcdDebugClearMemoryValue
	.section	.rodata._gPcd_FixedAtBuild_PcdDebugClearMemoryValue,"a"
	.type	_gPcd_FixedAtBuild_PcdDebugClearMemoryValue, @object
	.size	_gPcd_FixedAtBuild_PcdDebugClearMemoryValue, 1
_gPcd_FixedAtBuild_PcdDebugClearMemoryValue:
	.byte	-81
	.globl	_gPcd_FixedAtBuild_PcdDebugPropertyMask
	.section	.rodata._gPcd_FixedAtBuild_PcdDebugPropertyMask,"a"
	.type	_gPcd_FixedAtBuild_PcdDebugPropertyMask, @object
	.size	_gPcd_FixedAtBuild_PcdDebugPropertyMask, 1
_gPcd_FixedAtBuild_PcdDebugPropertyMask:
	.byte	47
	.globl	_gPcd_FixedAtBuild_PcdFixedDebugPrintErrorLevel
	.section	.rodata._gPcd_FixedAtBuild_PcdFixedDebugPrintErrorLevel,"a"
	.align	2
	.type	_gPcd_FixedAtBuild_PcdFixedDebugPrintErrorLevel, @object
	.size	_gPcd_FixedAtBuild_PcdFixedDebugPrintErrorLevel, 4
_gPcd_FixedAtBuild_PcdFixedDebugPrintErrorLevel:
	.word	-1
	.globl	_gPcd_FixedAtBuild_PcdPerformanceLibraryPropertyMask
	.section	.rodata._gPcd_FixedAtBuild_PcdPerformanceLibraryPropertyMask,"a"
	.type	_gPcd_FixedAtBuild_PcdPerformanceLibraryPropertyMask, @object
	.size	_gPcd_FixedAtBuild_PcdPerformanceLibraryPropertyMask, 1
_gPcd_FixedAtBuild_PcdPerformanceLibraryPropertyMask:
	.zero	1
	.globl	_gPcd_FixedAtBuild_PcdCpuCoreCrystalClockFrequency
	.section	.rodata._gPcd_FixedAtBuild_PcdCpuCoreCrystalClockFrequency,"a"
	.align	3
	.type	_gPcd_FixedAtBuild_PcdCpuCoreCrystalClockFrequency, @object
	.size	_gPcd_FixedAtBuild_PcdCpuCoreCrystalClockFrequency, 8
_gPcd_FixedAtBuild_PcdCpuCoreCrystalClockFrequency:
	.dword	24000000
	.globl	_gPcd_FixedAtBuild_PcdMaximumGuidedExtractHandler
	.section	.rodata._gPcd_FixedAtBuild_PcdMaximumGuidedExtractHandler,"a"
	.align	2
	.type	_gPcd_FixedAtBuild_PcdMaximumGuidedExtractHandler, @object
	.size	_gPcd_FixedAtBuild_PcdMaximumGuidedExtractHandler, 4
_gPcd_FixedAtBuild_PcdMaximumGuidedExtractHandler:
	.word	16
	.globl	_gPcd_FixedAtBuild_PcdRiscVFeatureOverride
	.section	.rodata._gPcd_FixedAtBuild_PcdRiscVFeatureOverride,"a"
	.align	3
	.type	_gPcd_FixedAtBuild_PcdRiscVFeatureOverride, @object
	.size	_gPcd_FixedAtBuild_PcdRiscVFeatureOverride, 8
_gPcd_FixedAtBuild_PcdRiscVFeatureOverride:
	.dword	7
	.globl	_gPcd_FixedAtBuild_PcdMemoryTypeEfiACPIReclaimMemory
	.section	.rodata._gPcd_FixedAtBuild_PcdMemoryTypeEfiACPIReclaimMemory,"a"
	.align	2
	.type	_gPcd_FixedAtBuild_PcdMemoryTypeEfiACPIReclaimMemory, @object
	.size	_gPcd_FixedAtBuild_PcdMemoryTypeEfiACPIReclaimMemory, 4
_gPcd_FixedAtBuild_PcdMemoryTypeEfiACPIReclaimMemory:
	.zero	4
	.globl	_gPcd_FixedAtBuild_PcdMemoryTypeEfiACPIMemoryNVS
	.section	.rodata._gPcd_FixedAtBuild_PcdMemoryTypeEfiACPIMemoryNVS,"a"
	.align	2
	.type	_gPcd_FixedAtBuild_PcdMemoryTypeEfiACPIMemoryNVS, @object
	.size	_gPcd_FixedAtBuild_PcdMemoryTypeEfiACPIMemoryNVS, 4
_gPcd_FixedAtBuild_PcdMemoryTypeEfiACPIMemoryNVS:
	.zero	4
	.globl	_gPcd_FixedAtBuild_PcdMemoryTypeEfiReservedMemoryType
	.section	.rodata._gPcd_FixedAtBuild_PcdMemoryTypeEfiReservedMemoryType,"a"
	.align	2
	.type	_gPcd_FixedAtBuild_PcdMemoryTypeEfiReservedMemoryType, @object
	.size	_gPcd_FixedAtBuild_PcdMemoryTypeEfiReservedMemoryType, 4
_gPcd_FixedAtBuild_PcdMemoryTypeEfiReservedMemoryType:
	.zero	4
	.globl	_gPcd_FixedAtBuild_PcdMemoryTypeEfiRuntimeServicesData
	.section	.rodata._gPcd_FixedAtBuild_PcdMemoryTypeEfiRuntimeServicesData,"a"
	.align	2
	.type	_gPcd_FixedAtBuild_PcdMemoryTypeEfiRuntimeServicesData, @object
	.size	_gPcd_FixedAtBuild_PcdMemoryTypeEfiRuntimeServicesData, 4
_gPcd_FixedAtBuild_PcdMemoryTypeEfiRuntimeServicesData:
	.word	300
	.globl	_gPcd_FixedAtBuild_PcdMemoryTypeEfiRuntimeServicesCode
	.section	.rodata._gPcd_FixedAtBuild_PcdMemoryTypeEfiRuntimeServicesCode,"a"
	.align	2
	.type	_gPcd_FixedAtBuild_PcdMemoryTypeEfiRuntimeServicesCode, @object
	.size	_gPcd_FixedAtBuild_PcdMemoryTypeEfiRuntimeServicesCode, 4
_gPcd_FixedAtBuild_PcdMemoryTypeEfiRuntimeServicesCode:
	.word	150
	.globl	_gPcd_FixedAtBuild_PcdPrePiProduceMemoryTypeInformationHob
	.section	.rodata._gPcd_FixedAtBuild_PcdPrePiProduceMemoryTypeInformationHob,"a"
	.type	_gPcd_FixedAtBuild_PcdPrePiProduceMemoryTypeInformationHob, @object
	.size	_gPcd_FixedAtBuild_PcdPrePiProduceMemoryTypeInformationHob, 1
_gPcd_FixedAtBuild_PcdPrePiProduceMemoryTypeInformationHob:
	.byte	1
	.globl	_gPcd_FixedAtBuild_PcdMemoryTypeEfiBootServicesCode
	.section	.rodata._gPcd_FixedAtBuild_PcdMemoryTypeEfiBootServicesCode,"a"
	.align	2
	.type	_gPcd_FixedAtBuild_PcdMemoryTypeEfiBootServicesCode, @object
	.size	_gPcd_FixedAtBuild_PcdMemoryTypeEfiBootServicesCode, 4
_gPcd_FixedAtBuild_PcdMemoryTypeEfiBootServicesCode:
	.word	1000
	.globl	_gPcd_FixedAtBuild_PcdMemoryTypeEfiBootServicesData
	.section	.rodata._gPcd_FixedAtBuild_PcdMemoryTypeEfiBootServicesData,"a"
	.align	2
	.type	_gPcd_FixedAtBuild_PcdMemoryTypeEfiBootServicesData, @object
	.size	_gPcd_FixedAtBuild_PcdMemoryTypeEfiBootServicesData, 4
_gPcd_FixedAtBuild_PcdMemoryTypeEfiBootServicesData:
	.word	6000
	.globl	_gPcd_FixedAtBuild_PcdMemoryTypeEfiLoaderCode
	.section	.rodata._gPcd_FixedAtBuild_PcdMemoryTypeEfiLoaderCode,"a"
	.align	2
	.type	_gPcd_FixedAtBuild_PcdMemoryTypeEfiLoaderCode, @object
	.size	_gPcd_FixedAtBuild_PcdMemoryTypeEfiLoaderCode, 4
_gPcd_FixedAtBuild_PcdMemoryTypeEfiLoaderCode:
	.word	20
	.globl	_gPcd_FixedAtBuild_PcdMemoryTypeEfiLoaderData
	.section	.rodata._gPcd_FixedAtBuild_PcdMemoryTypeEfiLoaderData,"a"
	.align	2
	.type	_gPcd_FixedAtBuild_PcdMemoryTypeEfiLoaderData, @object
	.size	_gPcd_FixedAtBuild_PcdMemoryTypeEfiLoaderData, 4
_gPcd_FixedAtBuild_PcdMemoryTypeEfiLoaderData:
	.zero	4
	.globl	_gPcd_FixedAtBuild_PcdRiscVDxeFvBase
	.section	.rodata._gPcd_FixedAtBuild_PcdRiscVDxeFvBase,"a"
	.align	2
	.type	_gPcd_FixedAtBuild_PcdRiscVDxeFvBase, @object
	.size	_gPcd_FixedAtBuild_PcdRiscVDxeFvBase, 4
_gPcd_FixedAtBuild_PcdRiscVDxeFvBase:
	.word	2097152
	.globl	_gPcd_FixedAtBuild_PcdRiscVDxeFvSize
	.section	.rodata._gPcd_FixedAtBuild_PcdRiscVDxeFvSize,"a"
	.align	2
	.type	_gPcd_FixedAtBuild_PcdRiscVDxeFvSize, @object
	.size	_gPcd_FixedAtBuild_PcdRiscVDxeFvSize, 4
_gPcd_FixedAtBuild_PcdRiscVDxeFvSize:
	.word	2093056
	.globl	_gPcd_FixedAtBuild_PcdMemoryAddressWidthMax
	.section	.rodata._gPcd_FixedAtBuild_PcdMemoryAddressWidthMax,"a"
	.type	_gPcd_FixedAtBuild_PcdMemoryAddressWidthMax, @object
	.size	_gPcd_FixedAtBuild_PcdMemoryAddressWidthMax, 1
_gPcd_FixedAtBuild_PcdMemoryAddressWidthMax:
	.byte	56
	.globl	_gPcd_FixedAtBuild_PcdIoAddressWidthMax
	.section	.rodata._gPcd_FixedAtBuild_PcdIoAddressWidthMax,"a"
	.type	_gPcd_FixedAtBuild_PcdIoAddressWidthMax, @object
	.size	_gPcd_FixedAtBuild_PcdIoAddressWidthMax, 1
_gPcd_FixedAtBuild_PcdIoAddressWidthMax:
	.byte	32
	.section	.text.ProcessLibraryConstructorList,"ax",@progbits
	.align	1
	.globl	ProcessLibraryConstructorList
	.type	ProcessLibraryConstructorList, @function
ProcessLibraryConstructorList:
.LFB0:
	.file 1 "/home/kapoagaeming/spacemit-image-builder/components/Build/Milk-V-Jupiter/RELEASE_GCC5/RISCV64/Silicon/Spacemit/Sec/SecMain/DEBUG/AutoGen.c"
	.loc 1 319 1
	.cfi_startproc
	addi	sp,sp,-32
	.cfi_def_cfa_offset 32
	sd	ra,24(sp)
	sd	s0,16(sp)
	.cfi_offset 1, -8
	.cfi_offset 8, -16
	addi	s0,sp,32
	.cfi_def_cfa 8, 0
	.loc 1 322 12
	call	BaseDebugLibSerialPortConstructor@plt
	sd	a0,-24(s0)
	.loc 1 325 12
	call	ExtractGuidedSectionLibConstructor@plt
	sd	a0,-24(s0)
	.loc 1 328 12
	call	LzmaDecompressLibConstructor@plt
	sd	a0,-24(s0)
	.loc 1 331 1
	nop
	ld	ra,24(sp)
	.cfi_restore 1
	ld	s0,16(sp)
	.cfi_restore 8
	.cfi_def_cfa 2, 32
	addi	sp,sp,32
	.cfi_def_cfa_offset 0
	jr	ra
	.cfi_endproc
.LFE0:
	.size	ProcessLibraryConstructorList, .-ProcessLibraryConstructorList
	.section	.text.ProcessLibraryDestructorList,"ax",@progbits
	.align	1
	.globl	ProcessLibraryDestructorList
	.type	ProcessLibraryDestructorList, @function
ProcessLibraryDestructorList:
.LFB1:
	.loc 1 340 1
	.cfi_startproc
	addi	sp,sp,-16
	.cfi_def_cfa_offset 16
	sd	ra,8(sp)
	sd	s0,0(sp)
	.cfi_offset 1, -8
	.cfi_offset 8, -16
	addi	s0,sp,16
	.cfi_def_cfa 8, 0
	.loc 1 342 1
	nop
	ld	ra,8(sp)
	.cfi_restore 1
	ld	s0,0(sp)
	.cfi_restore 8
	.cfi_def_cfa 2, 16
	addi	sp,sp,16
	.cfi_def_cfa_offset 0
	jr	ra
	.cfi_endproc
.LFE1:
	.size	ProcessLibraryDestructorList, .-ProcessLibraryDestructorList
	.text
.Letext0:
	.file 2 "/home/kapoagaeming/spacemit-image-builder/components/edk2/MdePkg/Include/RiscV64/ProcessorBind.h"
	.file 3 "/home/kapoagaeming/spacemit-image-builder/components/edk2/MdePkg/Include/Base.h"
	.file 4 "/home/kapoagaeming/spacemit-image-builder/components/edk2/MdePkg/Include/Uefi/UefiBaseType.h"
	.file 5 "/home/kapoagaeming/spacemit-image-builder/components/Build/Milk-V-Jupiter/RELEASE_GCC5/RISCV64/Silicon/Spacemit/Sec/SecMain/DEBUG/AutoGen.h"
	.section	.note.GNU-stack,"",@progbits
