	.file	"CustomizedDisplayLib.c"
	.option pic
	.option norelax
	.attribute arch, "rv64i2p1_m2p0_a2p1_f2p2_d2p2_c2p0_zicsr2p0_zifencei2p0_zmmul1p0_zaamo1p0_zalrsc1p0_zca1p0_zcd1p0"
	.attribute unaligned_access, 0
	.attribute stack_align, 16
	.text
.Ltext0:
	.cfi_sections	.debug_frame
	.file 0 "/home/kapoagaeming/Downloads/spacemit-image-builder/components/Build/Milk-V-Jupiter/RELEASE_GCC5/RISCV64/MdeModulePkg/Library/CustomizedDisplayLib/CustomizedDisplayLib" "/home/kapoagaeming/Downloads/spacemit-image-builder/components/edk2/MdeModulePkg/Library/CustomizedDisplayLib/CustomizedDisplayLib.c"
	.globl	gCustomizedDisplayLibGuid
	.section	.data.gCustomizedDisplayLibGuid,"aw"
	.align	3
	.type	gCustomizedDisplayLibGuid, @object
	.size	gCustomizedDisplayLibGuid, 16
gCustomizedDisplayLibGuid:
	.word	-1711421187
	.half	-31589
	.half	20154
	.base64	"rRP7lpnJCk0="
	.globl	mCDLStringPackHandle
	.section	.bss.mCDLStringPackHandle,"aw",@nobits
	.align	3
	.type	mCDLStringPackHandle, @object
	.size	mCDLStringPackHandle, 8
mCDLStringPackHandle:
	.zero	8
	.globl	gClassOfVfr
	.section	.bss.gClassOfVfr,"aw",@nobits
	.align	1
	.type	gClassOfVfr, @object
	.size	gClassOfVfr, 2
gClassOfVfr:
	.zero	2
	.globl	gLibIsFirstForm
	.section	.data.gLibIsFirstForm,"aw"
	.type	gLibIsFirstForm, @object
	.size	gLibIsFirstForm, 1
gLibIsFirstForm:
	.byte	1
	.globl	gBannerData
	.section	.bss.gBannerData,"aw",@nobits
	.align	3
	.type	gBannerData, @object
	.size	gBannerData, 8
gBannerData:
	.zero	8
	.globl	gFooterHeight
	.section	.bss.gFooterHeight,"aw",@nobits
	.align	3
	.type	gFooterHeight, @object
	.size	gFooterHeight, 8
gFooterHeight:
	.zero	8
	.section	.text.DisplayPageFrame,"ax",@progbits
	.align	1
	.globl	DisplayPageFrame
	.type	DisplayPageFrame, @function
DisplayPageFrame:
.LFB0:
	.file 1 "/home/kapoagaeming/Downloads/spacemit-image-builder/components/edk2/MdeModulePkg/Library/CustomizedDisplayLib/CustomizedDisplayLib.c"
	.loc 1 59 1
	.cfi_startproc
	addi	sp,sp,-48
	.cfi_def_cfa_offset 48
	sd	ra,40(sp)
	sd	s0,32(sp)
	.cfi_offset 1, -8
	.cfi_offset 8, -16
	addi	s0,sp,48
	.cfi_def_cfa 8, 0
	sd	a0,-40(s0)
	sd	a1,-48(s0)
	.loc 1 63 6
	ld	a5,-40(s0)
	beq	a5,zero,.L2
	.loc 1 63 34 discriminator 1
	ld	a5,-48(s0)
	bne	a5,zero,.L3
.L2:
	.loc 1 64 12
	li	a5,-1
	slli	a5,a5,63
	addi	a5,a5,2
	j	.L4
.L3:
	.loc 1 67 12
	ld	a0,-40(s0)
	call	ScreenDiemensionInfoValidate@plt
	sd	a0,-24(s0)
	.loc 1 68 34
	ld	a5,-24(s0)
	.loc 1 68 6
	bge	a5,zero,.L5
	.loc 1 69 12
	ld	a5,-24(s0)
	j	.L4
.L5:
	.loc 1 72 15
	lla	a5,gClassOfVfr
	li	a4,1
	sh	a4,0(a5)
	.loc 1 74 3
	ld	a0,-40(s0)
	call	ProcessExternedOpcode@plt
	.loc 1 79 52
	la	a5,gScreenDimensions
	ld	a4,24(a5)
	.loc 1 79 67
	lla	a5,gFooterHeight
	ld	a5,0(a5)
	sub	a5,a4,a5
	addi	a4,a5,-1
	.loc 1 79 33
	ld	a5,-48(s0)
	sd	a4,24(a5)
	.loc 1 80 19
	lla	a5,gClassOfVfr
	lhu	a5,0(a5)
	.loc 1 80 6
	sext.w	a4,a5
	li	a5,2
	bne	a4,a5,.L6
	.loc 1 81 51
	la	a5,gScreenDimensions
	ld	a5,16(a5)
	.loc 1 81 59
	addi	a4,a5,6
	.loc 1 81 32
	ld	a5,-48(s0)
	sd	a4,16(a5)
	j	.L7
.L6:
	.loc 1 83 51
	la	a5,gScreenDimensions
	ld	a5,16(a5)
	.loc 1 83 59
	addi	a4,a5,3
	.loc 1 83 32
	ld	a5,-48(s0)
	sd	a4,16(a5)
.L7:
	.loc 1 86 53
	la	a5,gScreenDimensions
	ld	a4,0(a5)
	.loc 1 86 34
	ld	a5,-48(s0)
	sd	a4,0(a5)
	.loc 1 87 54
	la	a5,gScreenDimensions
	ld	a4,8(a5)
	.loc 1 87 35
	ld	a5,-48(s0)
	sd	a4,8(a5)
	.loc 1 89 7
	lla	a5,gLibIsFirstForm
	lbu	a5,0(a5)
	.loc 1 89 6
	bne	a5,zero,.L8
	.loc 1 89 38 discriminator 1
	ld	a5,-40(s0)
	lw	a5,84(a5)
	.loc 1 89 50 discriminator 1
	andi	a5,a5,8
	sext.w	a5,a5
	.loc 1 89 25 discriminator 1
	beq	a5,zero,.L9
.L8:
	.loc 1 93 8
	la	a5,gST
	ld	a5,0(a5)
	ld	a5,64(a5)
	.loc 1 93 16
	ld	a5,40(a5)
	.loc 1 93 35
	la	a4,gST
	ld	a4,0(a4)
	.loc 1 93 5
	ld	a4,64(a4)
	li	a1,7
	mv	a0,a4
	jalr	a5
.LVL0:
	.loc 1 94 5
	la	a5,gScreenDimensions
	ld	a1,8(a5)
	la	a5,gScreenDimensions
	ld	a5,24(a5)
	li	a4,0
	mv	a3,a5
	li	a2,0
	li	a0,0
	call	ClearLines
	.loc 1 95 21
	lla	a5,gLibIsFirstForm
	sb	zero,0(a5)
.L9:
	.loc 1 101 16
	ld	a5,-40(s0)
	lw	a5,84(a5)
	.loc 1 101 28
	andi	a5,a5,8
	sext.w	a5,a5
	.loc 1 101 6
	beq	a5,zero,.L10
	.loc 1 102 12
	li	a5,0
	j	.L4
.L10:
	.loc 1 105 19
	lla	a5,gClassOfVfr
	lhu	a5,0(a5)
	.loc 1 105 6
	sext.w	a4,a5
	li	a5,2
	bne	a4,a5,.L11
	.loc 1 106 5
	ld	a0,-40(s0)
	call	PrintBannerInfo@plt
.L11:
	.loc 1 109 3
	ld	a0,-40(s0)
	call	PrintFramework@plt
	.loc 1 111 3
	ld	a5,-40(s0)
	lbu	a5,88(a5)
	mv	a1,a5
	li	a0,2
	call	UpdateStatusBar
	.loc 1 113 10
	li	a5,0
.L4:
	.loc 1 114 1
	mv	a0,a5
	ld	ra,40(sp)
	.cfi_restore 1
	ld	s0,32(sp)
	.cfi_restore 8
	.cfi_def_cfa 2, 48
	addi	sp,sp,48
	.cfi_def_cfa_offset 0
	jr	ra
	.cfi_endproc
.LFE0:
	.size	DisplayPageFrame, .-DisplayPageFrame
	.section	.rodata
	.align	3
.LC1:
	.string	"%"
	.string	"c"
	.string	"%"
	.string	"c"
	.string	"%"
	.string	"c"
	.string	"%"
	.string	"c"
	.string	"%"
	.string	"s"
	.zero	2
	.align	3
.LC2:
	.string	"%"
	.string	"c"
	.string	"%"
	.string	"c"
	.string	"%"
	.string	"s"
	.zero	2
	.section	.text.RefreshKeyHelp,"ax",@progbits
	.align	1
	.globl	RefreshKeyHelp
	.type	RefreshKeyHelp, @function
RefreshKeyHelp:
.LFB1:
	.loc 1 132 1
	.cfi_startproc
	addi	sp,sp,-192
	.cfi_def_cfa_offset 192
	sd	ra,184(sp)
	sd	s0,176(sp)
	.cfi_offset 1, -8
	.cfi_offset 8, -16
	addi	s0,sp,192
	.cfi_def_cfa 8, 0
	sd	a0,-152(s0)
	sd	a1,-160(s0)
	mv	a5,a2
	sb	a5,-161(s0)
	.loc 1 151 6
	ld	a5,-152(s0)
	beq	a5,zero,.L45
	.loc 1 155 6
	la	a5,gST
	ld	a5,0(a5)
	ld	a5,64(a5)
	.loc 1 155 14
	ld	a5,40(a5)
	.loc 1 155 33
	la	a4,gST
	ld	a4,0(a4)
	.loc 1 155 3
	ld	a4,64(a4)
	li	a1,7
	mv	a0,a4
	jalr	a5
.LVL1:
	.loc 1 157 16
	ld	a5,-152(s0)
	lw	a5,84(a5)
	.loc 1 157 28
	andi	a5,a5,8
	sext.w	a5,a5
	.loc 1 157 6
	bne	a5,zero,.L46
	.loc 1 161 29
	la	a5,gScreenDimensions
	ld	a4,0(a5)
	.loc 1 161 61
	la	a5,gScreenDimensions
	ld	a3,8(a5)
	.loc 1 161 93
	la	a5,gScreenDimensions
	ld	a5,0(a5)
	.loc 1 161 74
	sub	a3,a3,a5
	.loc 1 161 106
	lla	a5,.LC0
	ld	a5,0(a5)
	mulhu	a5,a3,a5
	srli	a5,a5,1
	.loc 1 161 10
	add	a5,a4,a5
	sd	a5,-64(s0)
	.loc 1 162 29
	la	a5,gScreenDimensions
	ld	a4,0(a5)
	.loc 1 162 61
	la	a5,gScreenDimensions
	ld	a3,8(a5)
	.loc 1 162 93
	la	a5,gScreenDimensions
	ld	a5,0(a5)
	.loc 1 162 74
	sub	a3,a3,a5
	.loc 1 162 106
	lla	a5,.LC0
	ld	a5,0(a5)
	mulhu	a5,a3,a5
	srli	a5,a5,1
	.loc 1 162 110
	slli	a5,a5,1
	.loc 1 162 10
	add	a5,a4,a5
	sd	a5,-72(s0)
	.loc 1 167 40
	la	a5,gScreenDimensions
	ld	a5,0(a5)
	.loc 1 167 21
	addi	a5,a5,2
	sd	a5,-80(s0)
	.loc 1 168 40
	la	a5,gScreenDimensions
	ld	a5,8(a5)
	.loc 1 168 21
	addi	a5,a5,-1
	sd	a5,-88(s0)
	.loc 1 169 35
	la	a5,gScreenDimensions
	ld	a4,24(a5)
	.loc 1 169 66
	lla	a5,gFooterHeight
	ld	a5,0(a5)
	.loc 1 169 16
	sub	a5,a4,a5
	sd	a5,-96(s0)
	.loc 1 170 38
	la	a5,gScreenDimensions
	ld	a5,24(a5)
	.loc 1 170 19
	addi	a5,a5,-3
	sd	a5,-104(s0)
	.loc 1 172 16
	ld	a4,-64(s0)
	ld	a5,-80(s0)
	sub	a5,a4,a5
	sd	a5,-112(s0)
	.loc 1 173 16
	ld	a4,-72(s0)
	ld	a5,-64(s0)
	sub	a5,a4,a5
	sd	a5,-120(s0)
	.loc 1 174 16
	ld	a4,-88(s0)
	ld	a5,-72(s0)
	sub	a5,a4,a5
	sd	a5,-128(s0)
	.loc 1 175 14
	la	a5,gLibEmptyString
	ld	a5,0(a5)
	sd	a5,-40(s0)
	.loc 1 176 14
	la	a5,gLibEmptyString
	ld	a5,0(a5)
	sd	a5,-48(s0)
	.loc 1 177 14
	la	a5,gLibEmptyString
	ld	a5,0(a5)
	sd	a5,-56(s0)
	.loc 1 182 3
	ld	a5,-80(s0)
	addi	a4,a5,-1
	la	a5,gLibEmptyString
	ld	a5,0(a5)
	li	a3,1
	mv	a2,a5
	ld	a1,-104(s0)
	mv	a0,a4
	call	PrintStringAtWithWidth
	.loc 1 183 3
	ld	a5,-80(s0)
	addi	a4,a5,-1
	la	a5,gLibEmptyString
	ld	a5,0(a5)
	li	a3,1
	mv	a2,a5
	ld	a1,-96(s0)
	mv	a0,a4
	call	PrintStringAtWithWidth
	.loc 1 185 6
	ld	a5,-160(s0)
	bne	a5,zero,.L16
	.loc 1 189 5
	li	a1,1
	ld	a0,-152(s0)
	call	PrintHotKeyHelpString@plt
	.loc 1 190 5
	la	a5,gLibEmptyString
	ld	a5,0(a5)
	ld	a3,-112(s0)
	mv	a2,a5
	ld	a1,-104(s0)
	ld	a0,-80(s0)
	call	PrintStringAtWithWidth
	.loc 1 191 5
	la	a5,gLibEmptyString
	ld	a5,0(a5)
	ld	a3,-120(s0)
	mv	a2,a5
	ld	a1,-104(s0)
	ld	a0,-64(s0)
	call	PrintStringAtWithWidth
	.loc 1 192 5
	la	a5,gLibEmptyString
	ld	a5,0(a5)
	ld	a3,-112(s0)
	mv	a2,a5
	ld	a1,-96(s0)
	ld	a0,-80(s0)
	call	PrintStringAtWithWidth
	.loc 1 193 21
	lla	a5,gClassOfVfr
	lhu	a5,0(a5)
	.loc 1 193 8
	sext.w	a4,a5
	li	a5,1
	bne	a4,a5,.L17
	.loc 1 194 18
	la	a5,gEscapeString
	ld	a5,0(a5)
	sd	a5,-56(s0)
.L17:
	.loc 1 197 5
	ld	a3,-128(s0)
	ld	a2,-56(s0)
	ld	a1,-104(s0)
	ld	a0,-72(s0)
	call	PrintStringAtWithWidth
	.loc 1 199 5
	j	.L12
.L16:
	.loc 1 202 14
	sb	zero,-25(s0)
	.loc 1 203 13
	sd	zero,-24(s0)
	.loc 1 204 10
	sd	zero,-136(s0)
	.loc 1 205 10
	sd	zero,-144(s0)
	.loc 1 206 16
	ld	a5,-160(s0)
	ld	a5,32(a5)
	.loc 1 206 24
	lbu	a5,0(a5)
	.loc 1 206 6
	mv	a4,a5
	li	a5,7
	bne	a4,a5,.L18
	.loc 1 207 15
	ld	a5,-160(s0)
	ld	a5,32(a5)
	sd	a5,-24(s0)
	.loc 1 208 28
	ld	a5,-24(s0)
	lbu	a5,13(a5)
	.loc 1 208 36
	sext.w	a5,a5
	andi	a5,a5,32
	sext.w	a5,a5
	.loc 1 208 44
	srli	a5,a5,5
	andi	a5,a5,1
	andi	a5,a5,0xff
	.loc 1 208 16
	sb	a5,-25(s0)
	j	.L19
.L18:
	.loc 1 209 23
	ld	a5,-160(s0)
	ld	a5,32(a5)
	.loc 1 209 31
	lbu	a5,0(a5)
	.loc 1 209 13
	mv	a4,a5
	li	a5,26
	bne	a4,a5,.L20
	.loc 1 210 12
	ld	a5,-160(s0)
	ld	a5,32(a5)
	sd	a5,-136(s0)
	.loc 1 211 25
	ld	a5,-136(s0)
	lbu	a5,13(a5)
	.loc 1 211 33
	sext.w	a5,a5
	andi	a5,a5,32
	sext.w	a5,a5
	.loc 1 211 41
	srli	a5,a5,5
	andi	a5,a5,1
	andi	a5,a5,0xff
	.loc 1 211 16
	sb	a5,-25(s0)
	j	.L19
.L20:
	.loc 1 212 23
	ld	a5,-160(s0)
	ld	a5,32(a5)
	.loc 1 212 31
	lbu	a5,0(a5)
	.loc 1 212 13
	mv	a4,a5
	li	a5,27
	bne	a4,a5,.L19
	.loc 1 213 12
	ld	a5,-160(s0)
	ld	a5,32(a5)
	sd	a5,-144(s0)
	.loc 1 214 25
	ld	a5,-144(s0)
	lbu	a5,13(a5)
	.loc 1 214 33
	sext.w	a5,a5
	andi	a5,a5,32
	sext.w	a5,a5
	.loc 1 214 41
	srli	a5,a5,5
	andi	a5,a5,1
	andi	a5,a5,0xff
	.loc 1 214 16
	sb	a5,-25(s0)
.L19:
	.loc 1 217 20
	ld	a5,-160(s0)
	ld	a5,32(a5)
	.loc 1 217 28
	lbu	a5,0(a5)
	sext.w	a5,a5
	.loc 1 217 3
	li	a4,35
	beq	a5,a4,.L21
	li	a4,35
	bgt	a5,a4,.L47
	li	a4,28
	beq	a5,a4,.L23
	li	a4,28
	bgt	a5,a4,.L47
	li	a4,27
	bgt	a5,a4,.L47
	li	a4,26
	bge	a5,a4,.L21
	li	a4,15
	beq	a5,a4,.L23
	li	a4,15
	bgt	a5,a4,.L47
	li	a4,13
	bgt	a5,a4,.L47
	li	a4,12
	bge	a5,a4,.L23
	li	a4,8
	beq	a5,a4,.L23
	li	a4,8
	bgt	a5,a4,.L47
	li	a4,7
	beq	a5,a4,.L21
	li	a4,7
	bgt	a5,a4,.L47
	li	a4,6
	beq	a5,a4,.L24
	li	a4,6
	bgt	a5,a4,.L47
	li	a4,3
	bgt	a5,a4,.L25
	li	a4,2
	bge	a5,a4,.L23
	.loc 1 341 7
	j	.L47
.L25:
	.loc 1 217 3
	li	a4,5
	bne	a5,a4,.L47
.L21:
	.loc 1 223 10
	lbu	a5,-161(s0)
	andi	a5,a5,0xff
	bne	a5,zero,.L26
	.loc 1 224 9
	li	a1,1
	ld	a0,-152(s0)
	call	PrintHotKeyHelpString@plt
	.loc 1 226 25
	lla	a5,gClassOfVfr
	lhu	a5,0(a5)
	.loc 1 226 12
	sext.w	a4,a5
	li	a5,1
	bne	a4,a5,.L27
	.loc 1 227 22
	la	a5,gEscapeString
	ld	a5,0(a5)
	sd	a5,-56(s0)
.L27:
	.loc 1 230 9
	ld	a3,-128(s0)
	ld	a2,-56(s0)
	ld	a1,-104(s0)
	ld	a0,-72(s0)
	call	PrintStringAtWithWidth
	.loc 1 232 23
	ld	a5,-160(s0)
	ld	a5,32(a5)
	.loc 1 232 31
	lbu	a5,0(a5)
	.loc 1 232 12
	mv	a4,a5
	li	a5,26
	beq	a4,a5,.L28
	.loc 1 233 23
	ld	a5,-160(s0)
	ld	a5,32(a5)
	.loc 1 233 31
	lbu	a5,0(a5)
	.loc 1 232 49 discriminator 1
	mv	a4,a5
	li	a5,27
	bne	a4,a5,.L29
.L28:
	.loc 1 235 11
	la	a5,gMoveHighlight
	ld	a5,0(a5)
	sd	a5,0(sp)
	li	a5,8192
	addi	a7,a5,400
	li	a5,8192
	addi	a6,a5,402
	li	a5,8192
	addi	a5,a5,403
	li	a4,8192
	addi	a4,a4,401
	lla	a3,.LC1
	ld	a2,-104(s0)
	ld	a1,-80(s0)
	ld	a0,-112(s0)
	call	PrintAt@plt
	.loc 1 246 11
	la	a5,gEnterString
	ld	a5,0(a5)
	ld	a3,-120(s0)
	mv	a2,a5
	ld	a1,-104(s0)
	ld	a0,-64(s0)
	call	PrintStringAtWithWidth
	.loc 1 247 11
	la	a5,gAdjustNumber
	ld	a5,0(a5)
	ld	a3,-112(s0)
	mv	a2,a5
	ld	a1,-96(s0)
	ld	a0,-80(s0)
	call	PrintStringAtWithWidth
	.loc 1 286 7
	j	.L12
.L29:
	.loc 1 249 11
	la	a5,gMoveHighlight
	ld	a5,0(a5)
	mv	a6,a5
	li	a5,8192
	addi	a5,a5,403
	li	a4,8192
	addi	a4,a4,401
	lla	a3,.LC2
	ld	a2,-104(s0)
	ld	a1,-80(s0)
	ld	a0,-112(s0)
	call	PrintAt@plt
	.loc 1 250 25
	ld	a5,-160(s0)
	ld	a5,32(a5)
	.loc 1 250 33
	lbu	a5,0(a5)
	.loc 1 250 14
	mv	a4,a5
	li	a5,7
	bne	a4,a5,.L31
	.loc 1 250 51 discriminator 1
	ld	a5,-24(s0)
	beq	a5,zero,.L31
	.loc 1 250 86 discriminator 2
	ld	a5,-160(s0)
	ld	a5,32(a5)
	mv	a0,a5
	call	LibGetFieldFromNum@plt
	mv	a5,a0
	.loc 1 250 82 discriminator 3
	beq	a5,zero,.L31
	.loc 1 251 24
	la	a5,gAdjustNumber
	ld	a5,0(a5)
	sd	a5,-40(s0)
.L31:
	.loc 1 254 11
	ld	a3,-112(s0)
	ld	a2,-40(s0)
	ld	a1,-96(s0)
	ld	a0,-80(s0)
	call	PrintStringAtWithWidth
	.loc 1 255 11
	la	a5,gEnterString
	ld	a5,0(a5)
	ld	a3,-120(s0)
	mv	a2,a5
	ld	a1,-104(s0)
	ld	a0,-64(s0)
	call	PrintStringAtWithWidth
	.loc 1 286 7
	j	.L12
.L26:
	.loc 1 258 9
	li	a1,0
	ld	a0,-152(s0)
	call	PrintHotKeyHelpString@plt
	.loc 1 259 9
	la	a5,gEnterCommitString
	ld	a5,0(a5)
	ld	a3,-120(s0)
	mv	a2,a5
	ld	a1,-104(s0)
	ld	a0,-64(s0)
	call	PrintStringAtWithWidth
	.loc 1 264 23
	ld	a5,-160(s0)
	ld	a5,32(a5)
	.loc 1 264 31
	lbu	a5,0(a5)
	.loc 1 264 12
	mv	a4,a5
	li	a5,7
	beq	a4,a5,.L33
	.loc 1 265 23
	ld	a5,-160(s0)
	ld	a5,32(a5)
	.loc 1 265 31
	lbu	a5,0(a5)
	.loc 1 264 49 discriminator 1
	mv	a4,a5
	li	a5,26
	beq	a4,a5,.L33
	.loc 1 266 23
	ld	a5,-160(s0)
	ld	a5,32(a5)
	.loc 1 266 31
	lbu	a5,0(a5)
	.loc 1 265 49
	mv	a4,a5
	li	a5,27
	bne	a4,a5,.L34
.L33:
	.loc 1 268 54
	lbu	a5,-25(s0)
	andi	a5,a5,0xff
	beq	a5,zero,.L35
	.loc 1 268 22 discriminator 1
	la	a5,gHexNumericInput
	ld	a5,0(a5)
	sd	a5,-48(s0)
	j	.L36
.L35:
	.loc 1 268 22 is_stmt 0 discriminator 2
	la	a5,gDecNumericInput
	ld	a5,0(a5)
	sd	a5,-48(s0)
.L36:
	.loc 1 269 11 is_stmt 1
	la	a5,gLibEmptyString
	ld	a5,0(a5)
	ld	a3,-112(s0)
	mv	a2,a5
	ld	a1,-104(s0)
	ld	a0,-80(s0)
	call	PrintStringAtWithWidth
	j	.L37
.L34:
	.loc 1 271 11
	la	a5,gMoveHighlight
	ld	a5,0(a5)
	mv	a6,a5
	li	a5,8192
	addi	a5,a5,403
	li	a4,8192
	addi	a4,a4,401
	lla	a3,.LC2
	ld	a2,-104(s0)
	ld	a1,-80(s0)
	ld	a0,-112(s0)
	call	PrintAt@plt
.L37:
	.loc 1 274 22
	ld	a5,-160(s0)
	ld	a5,32(a5)
	.loc 1 274 30
	lbu	a5,0(a5)
	.loc 1 274 12
	mv	a4,a5
	li	a5,35
	bne	a4,a5,.L38
	.loc 1 275 22
	la	a5,gPlusString
	ld	a5,0(a5)
	sd	a5,-40(s0)
	.loc 1 276 22
	la	a5,gMinusString
	ld	a5,0(a5)
	sd	a5,-56(s0)
.L38:
	.loc 1 279 9
	ld	a3,-112(s0)
	ld	a2,-40(s0)
	ld	a1,-96(s0)
	ld	a0,-80(s0)
	call	PrintStringAtWithWidth
	.loc 1 280 9
	ld	a3,-128(s0)
	ld	a2,-56(s0)
	ld	a1,-96(s0)
	ld	a0,-72(s0)
	call	PrintStringAtWithWidth
	.loc 1 281 9
	ld	a3,-120(s0)
	ld	a2,-48(s0)
	ld	a1,-96(s0)
	ld	a0,-64(s0)
	call	PrintStringAtWithWidth
	.loc 1 283 9
	la	a5,gEnterEscapeString
	ld	a5,0(a5)
	ld	a3,-128(s0)
	mv	a2,a5
	ld	a1,-104(s0)
	ld	a0,-72(s0)
	call	PrintStringAtWithWidth
	.loc 1 286 7
	j	.L12
.L24:
	.loc 1 289 7
	li	a1,1
	ld	a0,-152(s0)
	call	PrintHotKeyHelpString@plt
	.loc 1 291 23
	lla	a5,gClassOfVfr
	lhu	a5,0(a5)
	.loc 1 291 10
	sext.w	a4,a5
	li	a5,1
	bne	a4,a5,.L39
	.loc 1 292 20
	la	a5,gEscapeString
	ld	a5,0(a5)
	sd	a5,-56(s0)
.L39:
	.loc 1 295 7
	ld	a3,-128(s0)
	ld	a2,-56(s0)
	ld	a1,-104(s0)
	ld	a0,-72(s0)
	call	PrintStringAtWithWidth
	.loc 1 297 7
	la	a5,gMoveHighlight
	ld	a5,0(a5)
	mv	a6,a5
	li	a5,8192
	addi	a5,a5,403
	li	a4,8192
	addi	a4,a4,401
	lla	a3,.LC2
	ld	a2,-104(s0)
	ld	a1,-80(s0)
	ld	a0,-112(s0)
	call	PrintAt@plt
	.loc 1 298 7
	la	a5,gToggleCheckBox
	ld	a5,0(a5)
	ld	a3,-120(s0)
	mv	a2,a5
	ld	a1,-104(s0)
	ld	a0,-64(s0)
	call	PrintStringAtWithWidth
	.loc 1 299 7
	la	a5,gLibEmptyString
	ld	a5,0(a5)
	ld	a3,-112(s0)
	mv	a2,a5
	ld	a1,-96(s0)
	ld	a0,-80(s0)
	call	PrintStringAtWithWidth
	.loc 1 300 7
	j	.L12
.L23:
	.loc 1 309 10
	lbu	a5,-161(s0)
	andi	a5,a5,0xff
	bne	a5,zero,.L40
	.loc 1 310 9
	li	a1,1
	ld	a0,-152(s0)
	call	PrintHotKeyHelpString@plt
	.loc 1 312 25
	lla	a5,gClassOfVfr
	lhu	a5,0(a5)
	.loc 1 312 12
	sext.w	a4,a5
	li	a5,1
	bne	a4,a5,.L41
	.loc 1 313 22
	la	a5,gEscapeString
	ld	a5,0(a5)
	sd	a5,-56(s0)
.L41:
	.loc 1 316 9
	ld	a3,-128(s0)
	ld	a2,-56(s0)
	ld	a1,-104(s0)
	ld	a0,-72(s0)
	call	PrintStringAtWithWidth
	.loc 1 318 9
	la	a5,gMoveHighlight
	ld	a5,0(a5)
	mv	a6,a5
	li	a5,8192
	addi	a5,a5,403
	li	a4,8192
	addi	a4,a4,401
	lla	a3,.LC2
	ld	a2,-104(s0)
	ld	a1,-80(s0)
	ld	a0,-112(s0)
	call	PrintAt@plt
	.loc 1 319 23
	ld	a5,-160(s0)
	ld	a5,32(a5)
	.loc 1 319 31
	lbu	a5,0(a5)
	.loc 1 319 12
	mv	a4,a5
	li	a5,3
	beq	a4,a5,.L42
	.loc 1 319 62 discriminator 1
	ld	a5,-160(s0)
	ld	a5,32(a5)
	.loc 1 319 70 discriminator 1
	lbu	a5,0(a5)
	.loc 1 319 49 discriminator 1
	mv	a4,a5
	li	a5,2
	beq	a4,a5,.L42
	.loc 1 320 22
	la	a5,gEnterString
	ld	a5,0(a5)
	sd	a5,-48(s0)
.L42:
	.loc 1 323 9
	ld	a3,-120(s0)
	ld	a2,-48(s0)
	ld	a1,-104(s0)
	ld	a0,-64(s0)
	call	PrintStringAtWithWidth
	.loc 1 324 9
	ld	a3,-112(s0)
	ld	a2,-40(s0)
	ld	a1,-96(s0)
	ld	a0,-80(s0)
	call	PrintStringAtWithWidth
	.loc 1 338 7
	j	.L12
.L40:
	.loc 1 326 9
	li	a1,0
	ld	a0,-152(s0)
	call	PrintHotKeyHelpString@plt
	.loc 1 327 22
	ld	a5,-160(s0)
	ld	a5,32(a5)
	.loc 1 327 30
	lbu	a5,0(a5)
	.loc 1 327 12
	mv	a4,a5
	li	a5,15
	beq	a4,a5,.L44
	.loc 1 328 22
	la	a5,gEnterCommitString
	ld	a5,0(a5)
	sd	a5,-48(s0)
	.loc 1 329 22
	la	a5,gEnterEscapeString
	ld	a5,0(a5)
	sd	a5,-56(s0)
.L44:
	.loc 1 332 9
	ld	a3,-112(s0)
	ld	a2,-40(s0)
	ld	a1,-96(s0)
	ld	a0,-80(s0)
	call	PrintStringAtWithWidth
	.loc 1 333 9
	ld	a3,-112(s0)
	ld	a2,-40(s0)
	ld	a1,-104(s0)
	ld	a0,-80(s0)
	call	PrintStringAtWithWidth
	.loc 1 334 9
	ld	a3,-120(s0)
	ld	a2,-48(s0)
	ld	a1,-104(s0)
	ld	a0,-64(s0)
	call	PrintStringAtWithWidth
	.loc 1 335 9
	ld	a3,-128(s0)
	ld	a2,-56(s0)
	ld	a1,-104(s0)
	ld	a0,-72(s0)
	call	PrintStringAtWithWidth
	.loc 1 338 7
	j	.L12
.L45:
	.loc 1 152 5
	nop
	j	.L12
.L46:
	.loc 1 158 5
	nop
	j	.L12
.L47:
	.loc 1 341 7
	nop
.L12:
	.loc 1 343 1
	ld	ra,184(sp)
	.cfi_restore 1
	ld	s0,176(sp)
	.cfi_restore 8
	.cfi_def_cfa 2, 192
	addi	sp,sp,192
	.cfi_def_cfa_offset 0
	jr	ra
	.cfi_endproc
.LFE1:
	.size	RefreshKeyHelp, .-RefreshKeyHelp
	.section	.rodata
	.align	3
.LC3:
	.string	" "
	.string	" "
	.zero	2
	.section	.text.UpdateStatusBar,"ax",@progbits
	.align	1
	.globl	UpdateStatusBar
	.type	UpdateStatusBar, @function
UpdateStatusBar:
.LFB2:
	.loc 1 360 1
	.cfi_startproc
	addi	sp,sp,-48
	.cfi_def_cfa_offset 48
	sd	ra,40(sp)
	sd	s0,32(sp)
	.cfi_offset 1, -8
	.cfi_offset 8, -16
	addi	s0,sp,48
	.cfi_def_cfa 8, 0
	sd	a0,-40(s0)
	mv	a5,a1
	sb	a5,-41(s0)
	.loc 1 364 44
	la	a5,gScreenDimensions
	ld	a4,8(a5)
	.loc 1 364 76
	la	a5,gScreenDimensions
	ld	a5,0(a5)
	.loc 1 364 57
	sub	a4,a4,a5
	.loc 1 364 89
	lla	a5,.LC0
	ld	a5,0(a5)
	mulhu	a5,a4,a5
	srli	a5,a5,1
	.loc 1 364 15
	sh	a5,-26(s0)
	.loc 1 366 3
	ld	a4,-40(s0)
	li	a5,1
	beq	a4,a5,.L49
	ld	a4,-40(s0)
	li	a5,2
	beq	a4,a5,.L50
	.loc 1 409 7
	j	.L56
.L49:
	.loc 1 368 10
	lbu	a5,-41(s0)
	andi	a5,a5,0xff
	beq	a5,zero,.L52
	.loc 1 369 12
	la	a5,gST
	ld	a5,0(a5)
	ld	a5,64(a5)
	.loc 1 369 20
	ld	a5,40(a5)
	.loc 1 369 39
	la	a4,gST
	ld	a4,0(a4)
	.loc 1 369 9
	ld	a4,64(a4)
	li	a1,12
	mv	a0,a4
	jalr	a5
.LVL2:
	.loc 1 371 28
	la	a5,gScreenDimensions
	ld	a4,0(a5)
	.loc 1 370 9
	lhu	a5,-26(s0)
	add	a4,a4,a5
	.loc 1 372 28
	la	a5,gScreenDimensions
	ld	a5,24(a5)
	.loc 1 370 9
	addi	a3,a5,-1
	la	a5,gInputErrorMessage
	ld	a5,0(a5)
	mv	a2,a5
	mv	a1,a3
	mv	a0,a4
	call	PrintStringAt
	.loc 1 382 7
	j	.L56
.L52:
	.loc 1 376 12
	la	a5,gST
	ld	a5,0(a5)
	ld	a5,64(a5)
	.loc 1 376 20
	ld	a5,40(a5)
	.loc 1 376 39
	la	a4,gST
	ld	a4,0(a4)
	.loc 1 376 9
	ld	a4,64(a4)
	li	a1,0
	mv	a0,a4
	jalr	a5
.LVL3:
	.loc 1 377 20
	sd	zero,-24(s0)
	.loc 1 377 9
	j	.L54
.L55:
	.loc 1 378 43
	la	a5,gScreenDimensions
	ld	a4,0(a5)
	.loc 1 378 55
	lhu	a5,-26(s0)
	add	a4,a4,a5
	.loc 1 378 11
	ld	a5,-24(s0)
	add	a4,a4,a5
	.loc 1 378 95
	la	a5,gScreenDimensions
	ld	a5,24(a5)
	.loc 1 378 11
	addi	a5,a5,-1
	lla	a2,.LC3
	mv	a1,a5
	mv	a0,a4
	call	PrintStringAt
	.loc 1 377 88 discriminator 4
	ld	a5,-24(s0)
	addi	a5,a5,1
	sd	a5,-24(s0)
.L54:
	.loc 1 377 34 discriminator 1
	la	a5,gInputErrorMessage
	ld	a5,0(a5)
	mv	a0,a5
	call	LibGetStringWidth@plt
	mv	a5,a0
	.loc 1 377 73 discriminator 3
	addi	a5,a5,-2
	.loc 1 377 78 discriminator 3
	srli	a5,a5,1
	.loc 1 377 31 discriminator 3
	ld	a4,-24(s0)
	bltu	a4,a5,.L55
	.loc 1 382 7
	j	.L56
.L50:
	.loc 1 388 10
	lbu	a5,-41(s0)
	andi	a5,a5,0xff
	beq	a5,zero,.L57
	.loc 1 389 12
	la	a5,gST
	ld	a5,0(a5)
	ld	a5,64(a5)
	.loc 1 389 20
	ld	a5,40(a5)
	.loc 1 389 39
	la	a4,gST
	ld	a4,0(a4)
	.loc 1 389 9
	ld	a4,64(a4)
	li	a1,14
	mv	a0,a4
	jalr	a5
.LVL4:
	.loc 1 391 28
	la	a5,gScreenDimensions
	ld	a5,0(a5)
	.loc 1 391 54
	lhu	a4,-26(s0)
	sext.w	a4,a4
	slliw	a4,a4,1
	sext.w	a4,a4
	.loc 1 390 9
	add	a4,a5,a4
	.loc 1 392 28
	la	a5,gScreenDimensions
	ld	a5,24(a5)
	.loc 1 390 9
	addi	a3,a5,-1
	la	a5,gNvUpdateMessage
	ld	a5,0(a5)
	mv	a2,a5
	mv	a1,a3
	mv	a0,a4
	call	PrintStringAt
	.loc 1 406 7
	j	.L61
.L57:
	.loc 1 396 12
	la	a5,gST
	ld	a5,0(a5)
	ld	a5,64(a5)
	.loc 1 396 20
	ld	a5,40(a5)
	.loc 1 396 39
	la	a4,gST
	ld	a4,0(a4)
	.loc 1 396 9
	ld	a4,64(a4)
	li	a1,0
	mv	a0,a4
	jalr	a5
.LVL5:
	.loc 1 397 20
	sd	zero,-24(s0)
	.loc 1 397 9
	j	.L59
.L60:
	.loc 1 399 31
	la	a5,gScreenDimensions
	ld	a5,0(a5)
	.loc 1 399 57
	lhu	a4,-26(s0)
	sext.w	a4,a4
	slliw	a4,a4,1
	sext.w	a4,a4
	.loc 1 399 43
	add	a4,a5,a4
	.loc 1 398 11
	ld	a5,-24(s0)
	add	a4,a4,a5
	.loc 1 400 30
	la	a5,gScreenDimensions
	ld	a5,24(a5)
	.loc 1 398 11
	addi	a5,a5,-1
	lla	a2,.LC3
	mv	a1,a5
	mv	a0,a4
	call	PrintStringAt
	.loc 1 397 86 discriminator 4
	ld	a5,-24(s0)
	addi	a5,a5,1
	sd	a5,-24(s0)
.L59:
	.loc 1 397 34 discriminator 1
	la	a5,gNvUpdateMessage
	ld	a5,0(a5)
	mv	a0,a5
	call	LibGetStringWidth@plt
	mv	a5,a0
	.loc 1 397 71 discriminator 3
	addi	a5,a5,-2
	.loc 1 397 76 discriminator 3
	srli	a5,a5,1
	.loc 1 397 31 discriminator 3
	ld	a4,-24(s0)
	bltu	a4,a5,.L60
.L61:
	.loc 1 406 7
	nop
.L56:
	.loc 1 411 1
	nop
	ld	ra,40(sp)
	.cfi_restore 1
	ld	s0,32(sp)
	.cfi_restore 8
	.cfi_def_cfa 2, 48
	addi	sp,sp,48
	.cfi_def_cfa_offset 0
	jr	ra
	.cfi_endproc
.LFE2:
	.size	UpdateStatusBar, .-UpdateStatusBar
	.section	.text.CreateDialog,"ax",@progbits
	.align	1
	.globl	CreateDialog
	.type	CreateDialog, @function
CreateDialog:
.LFB3:
	.loc 1 428 1
	.cfi_startproc
	addi	sp,sp,-256
	.cfi_def_cfa_offset 256
	sd	ra,184(sp)
	sd	s0,176(sp)
	sd	s1,168(sp)
	sd	s2,160(sp)
	.cfi_offset 1, -72
	.cfi_offset 8, -80
	.cfi_offset 9, -88
	.cfi_offset 18, -96
	addi	s0,sp,192
	.cfi_def_cfa 8, 64
	sd	a0,-184(s0)
	sd	a1,8(s0)
	sd	a2,16(s0)
	sd	a3,24(s0)
	sd	a4,32(s0)
	sd	a5,40(s0)
	sd	a6,48(s0)
	sd	a7,56(s0)
	.loc 1 450 25
	la	a5,gScreenDimensions
	ld	a5,8(a5)
	.loc 1 450 6
	beq	a5,zero,.L63
	.loc 1 450 65 discriminator 1
	la	a5,gScreenDimensions
	ld	a5,24(a5)
	.loc 1 450 44 discriminator 1
	bne	a5,zero,.L64
.L63:
	.loc 1 451 5
	li	a1,32
	la	a0,gScreenDimensions
	call	ZeroMem@plt
	.loc 1 452 8
	la	a5,gST
	ld	a5,0(a5)
	ld	a5,64(a5)
	.loc 1 452 16
	ld	a5,24(a5)
	.loc 1 453 23
	la	a4,gST
	ld	a4,0(a4)
	.loc 1 452 5
	ld	a0,64(a4)
	.loc 1 454 23
	la	a4,gST
	ld	a4,0(a4)
	ld	a4,64(a4)
	.loc 1 454 31
	ld	a4,72(a4)
	.loc 1 454 37
	lw	a4,4(a4)
	.loc 1 452 5
	mv	a1,a4
	la	a4,gScreenDimensions
	addi	a3,a4,24
	la	a4,gScreenDimensions
	addi	a2,a4,8
	jalr	a5
.LVL6:
.L64:
	.loc 1 460 38
	la	a5,gScreenDimensions
	ld	a4,8(a5)
	.loc 1 460 70
	la	a5,gScreenDimensions
	ld	a5,0(a5)
	.loc 1 460 19
	sub	a5,a4,a5
	sd	a5,-72(s0)
	.loc 1 461 39
	la	a5,gScreenDimensions
	ld	a4,24(a5)
	.loc 1 461 69
	la	a5,gScreenDimensions
	ld	a5,16(a5)
	.loc 1 461 20
	sub	a5,a4,a5
	sd	a5,-80(s0)
	.loc 1 463 17
	sd	zero,-40(s0)
	.loc 1 464 11
	sd	zero,-48(s0)
	.loc 1 465 3
	addi	a5,s0,64
	sd	a5,-192(s0)
	ld	a5,-192(s0)
	addi	a5,a5,-56
	sd	a5,-160(s0)
	.loc 1 466 9
	j	.L65
.L67:
	.loc 1 467 12
	ld	a5,-48(s0)
	addi	a5,a5,1
	sd	a5,-48(s0)
	.loc 1 469 10
	ld	a0,-88(s0)
	call	LibGetStringWidth@plt
	mv	a5,a0
	.loc 1 469 37 discriminator 1
	srli	a5,a5,1
	.loc 1 469 8 discriminator 1
	ld	a4,-40(s0)
	bgeu	a4,a5,.L65
	.loc 1 470 24
	ld	a0,-88(s0)
	call	LibGetStringWidth@plt
	mv	a5,a0
	.loc 1 470 21 discriminator 1
	srli	a5,a5,1
	sd	a5,-40(s0)
.L65:
	.loc 1 466 18
	ld	a5,-160(s0)
	addi	a4,a5,8
	sd	a4,-160(s0)
	ld	a5,0(a5)
	sd	a5,-88(s0)
	.loc 1 466 157 discriminator 1
	ld	a5,-88(s0)
	bne	a5,zero,.L67
	.loc 1 476 22
	ld	a5,-40(s0)
	addi	a5,a5,2
	.loc 1 476 6
	ld	a4,-72(s0)
	bgeu	a4,a5,.L68
	.loc 1 477 19
	ld	a5,-72(s0)
	addi	a5,a5,-2
	sd	a5,-40(s0)
.L68:
	.loc 1 480 25
	la	a5,gST
	ld	a5,0(a5)
	ld	a5,64(a5)
	.loc 1 480 33
	ld	a5,72(a5)
	.loc 1 480 39
	lw	a5,8(a5)
	.loc 1 480 20
	sd	a5,-96(s0)
	.loc 1 481 22
	la	a5,gST
	ld	a5,0(a5)
	ld	a5,64(a5)
	.loc 1 481 30
	ld	a5,72(a5)
	.loc 1 481 17
	lbu	a5,20(a5)
	sb	a5,-97(s0)
	.loc 1 482 6
	la	a5,gST
	ld	a5,0(a5)
	ld	a5,64(a5)
	.loc 1 482 14
	ld	a5,64(a5)
	.loc 1 482 33
	la	a4,gST
	ld	a4,0(a4)
	.loc 1 482 3
	ld	a4,64(a4)
	li	a1,0
	mv	a0,a4
	jalr	a5
.LVL7:
	.loc 1 483 6
	la	a5,gST
	ld	a5,0(a5)
	ld	a5,64(a5)
	.loc 1 483 14
	ld	s1,40(a5)
	.loc 1 483 33
	la	a5,gST
	ld	a5,0(a5)
	.loc 1 483 3
	ld	s2,64(a5)
	.loc 1 483 43
	call	GetPopupColor
	mv	a5,a0
	.loc 1 483 3 discriminator 1
	mv	a1,a5
	mv	a0,s2
	jalr	s1
.LVL8:
	.loc 1 489 28
	ld	a4,-72(s0)
	ld	a5,-40(s0)
	sub	a5,a4,a5
	.loc 1 489 44
	addi	a5,a5,-2
	.loc 1 489 49
	srli	a4,a5,1
	.loc 1 489 72
	la	a5,gScreenDimensions
	ld	a5,0(a5)
	.loc 1 489 53
	add	a5,a4,a5
	.loc 1 489 9
	addi	a5,a5,1
	sd	a5,-112(s0)
	.loc 1 490 15
	ld	a4,-112(s0)
	ld	a5,-40(s0)
	add	a5,a4,a5
	.loc 1 490 7
	addi	a5,a5,1
	sd	a5,-120(s0)
	.loc 1 492 28
	ld	a4,-80(s0)
	ld	a5,-48(s0)
	sub	a5,a4,a5
	.loc 1 492 38
	addi	a5,a5,-2
	.loc 1 492 43
	srli	a4,a5,1
	.loc 1 492 67
	la	a5,gScreenDimensions
	ld	a5,16(a5)
	.loc 1 492 48
	add	a5,a4,a5
	.loc 1 492 7
	addi	a5,a5,-1
	sd	a5,-128(s0)
	.loc 1 493 16
	ld	a4,-128(s0)
	ld	a5,-48(s0)
	add	a5,a4,a5
	.loc 1 493 10
	addi	a5,a5,2
	sd	a5,-136(s0)
	.loc 1 495 13
	li	a5,8192
	addi	a5,a5,1292
	sh	a5,-138(s0)
	.loc 1 496 3
	lhu	a5,-138(s0)
	mv	a2,a5
	ld	a1,-128(s0)
	ld	a0,-112(s0)
	call	PrintCharAt
	.loc 1 497 13
	li	a5,8192
	addi	a5,a5,1280
	sh	a5,-138(s0)
	.loc 1 498 14
	ld	a5,-112(s0)
	sd	a5,-56(s0)
	.loc 1 498 3
	j	.L69
.L70:
	.loc 1 499 5
	lhu	a5,-138(s0)
	mv	a2,a5
	li	a1,-1
	li	a0,-1
	call	PrintCharAt
	.loc 1 498 45 discriminator 3
	ld	a5,-56(s0)
	addi	a5,a5,1
	sd	a5,-56(s0)
.L69:
	.loc 1 498 29 discriminator 1
	ld	a5,-56(s0)
	addi	a5,a5,2
	.loc 1 498 33 discriminator 1
	ld	a4,-120(s0)
	bgtu	a4,a5,.L70
	.loc 1 502 13
	li	a5,8192
	addi	a5,a5,1296
	sh	a5,-138(s0)
	.loc 1 503 3
	lhu	a5,-138(s0)
	mv	a2,a5
	li	a1,-1
	li	a0,-1
	call	PrintCharAt
	.loc 1 504 13
	li	a5,8192
	addi	a5,a5,1282
	sh	a5,-138(s0)
	.loc 1 506 9
	sd	zero,-64(s0)
	.loc 1 507 3
	addi	a5,s0,64
	sd	a5,-192(s0)
	ld	a5,-192(s0)
	addi	a5,a5,-56
	sd	a5,-160(s0)
	.loc 1 508 14
	ld	a5,-128(s0)
	sd	a5,-56(s0)
	.loc 1 508 3
	j	.L71
.L75:
	.loc 1 509 12
	ld	a5,-160(s0)
	addi	a4,a5,8
	sd	a4,-160(s0)
	ld	a5,0(a5)
	sd	a5,-88(s0)
	.loc 1 511 15
	ld	a5,-88(s0)
	lhu	a5,0(a5)
	.loc 1 511 8
	bne	a5,zero,.L72
	.loc 1 515 7
	ld	a5,-56(s0)
	addi	s1,a5,1
	ld	a5,-56(s0)
	addi	s2,a5,1
	.loc 1 515 53
	call	GetPopupColor
	mv	a5,a0
	.loc 1 515 7 discriminator 1
	mv	a4,a5
	mv	a3,s2
	mv	a2,s1
	ld	a1,-120(s0)
	ld	a0,-112(s0)
	call	ClearLines
	j	.L73
.L72:
	.loc 1 516 22
	ld	a5,-88(s0)
	lhu	a5,0(a5)
	.loc 1 516 15
	sext.w	a4,a5
	li	a5,32
	bne	a4,a5,.L74
	.loc 1 520 7
	ld	a5,-112(s0)
	addi	a0,a5,1
	ld	a5,-120(s0)
	addi	a1,a5,-1
	ld	a5,-56(s0)
	addi	a2,a5,1
	ld	a5,-56(s0)
	addi	a5,a5,1
	li	a4,7
	mv	a3,a5
	call	ClearLines
	.loc 1 522 29
	ld	a0,-88(s0)
	call	LibGetStringWidth@plt
	mv	a5,a0
	.loc 1 522 56 discriminator 1
	srli	a5,a5,1
	.loc 1 522 27 discriminator 1
	ld	a4,-72(s0)
	sub	a5,a4,a5
	.loc 1 522 61 discriminator 1
	srli	a4,a5,1
	.loc 1 522 85 discriminator 1
	la	a5,gScreenDimensions
	ld	a5,0(a5)
	.loc 1 522 66 discriminator 1
	add	a5,a4,a5
	.loc 1 521 7
	addi	a4,a5,1
	ld	a5,-56(s0)
	addi	a3,a5,1
	ld	a5,-88(s0)
	addi	a5,a5,2
	mv	a2,a5
	mv	a1,a3
	mv	a0,a4
	call	PrintStringAt
	j	.L73
.L74:
	.loc 1 532 7
	ld	a5,-56(s0)
	addi	s1,a5,1
	ld	a5,-56(s0)
	addi	s2,a5,1
	.loc 1 532 53
	call	GetPopupColor
	mv	a5,a0
	.loc 1 532 7 discriminator 1
	mv	a4,a5
	mv	a3,s2
	mv	a2,s1
	ld	a1,-120(s0)
	ld	a0,-112(s0)
	call	ClearLines
	.loc 1 534 29
	ld	a0,-88(s0)
	call	LibGetStringWidth@plt
	mv	a5,a0
	.loc 1 534 56 discriminator 1
	srli	a5,a5,1
	.loc 1 534 27 discriminator 1
	ld	a4,-72(s0)
	sub	a5,a4,a5
	.loc 1 534 61 discriminator 1
	srli	a4,a5,1
	.loc 1 534 85 discriminator 1
	la	a5,gScreenDimensions
	ld	a5,0(a5)
	.loc 1 534 66 discriminator 1
	add	a5,a4,a5
	.loc 1 533 7
	addi	a4,a5,1
	ld	a5,-56(s0)
	addi	a5,a5,1
	ld	a2,-88(s0)
	mv	a1,a5
	mv	a0,a4
	call	PrintStringAt
.L73:
	.loc 1 540 8
	la	a5,gST
	ld	a5,0(a5)
	ld	a5,64(a5)
	.loc 1 540 16
	ld	s1,40(a5)
	.loc 1 540 35
	la	a5,gST
	ld	a5,0(a5)
	.loc 1 540 5
	ld	s2,64(a5)
	.loc 1 540 45
	call	GetPopupColor
	mv	a5,a0
	.loc 1 540 5 discriminator 1
	mv	a1,a5
	mv	a0,s2
	jalr	s1
.LVL9:
	.loc 1 541 5
	ld	a5,-56(s0)
	addi	a5,a5,1
	lhu	a4,-138(s0)
	mv	a2,a4
	mv	a1,a5
	ld	a0,-112(s0)
	call	PrintCharAt
	.loc 1 542 5
	ld	a5,-120(s0)
	addi	a4,a5,-1
	ld	a5,-56(s0)
	addi	a5,a5,1
	lhu	a3,-138(s0)
	mv	a2,a3
	mv	a1,a5
	mv	a0,a4
	call	PrintCharAt
	.loc 1 508 46 discriminator 2
	ld	a5,-56(s0)
	addi	a5,a5,1
	sd	a5,-56(s0)
	.loc 1 508 55 discriminator 2
	ld	a5,-64(s0)
	addi	a5,a5,1
	sd	a5,-64(s0)
.L71:
	.loc 1 508 27 discriminator 1
	ld	a5,-56(s0)
	addi	a5,a5,2
	.loc 1 508 31 discriminator 1
	ld	a4,-136(s0)
	bgtu	a4,a5,.L75
	.loc 1 547 13
	li	a5,8192
	addi	a5,a5,1300
	sh	a5,-138(s0)
	.loc 1 548 3
	ld	a5,-136(s0)
	addi	a5,a5,-1
	lhu	a4,-138(s0)
	mv	a2,a4
	mv	a1,a5
	ld	a0,-112(s0)
	call	PrintCharAt
	.loc 1 549 13
	li	a5,8192
	addi	a5,a5,1280
	sh	a5,-138(s0)
	.loc 1 550 14
	ld	a5,-112(s0)
	sd	a5,-56(s0)
	.loc 1 550 3
	j	.L76
.L77:
	.loc 1 551 5
	lhu	a5,-138(s0)
	mv	a2,a5
	li	a1,-1
	li	a0,-1
	call	PrintCharAt
	.loc 1 550 45 discriminator 3
	ld	a5,-56(s0)
	addi	a5,a5,1
	sd	a5,-56(s0)
.L76:
	.loc 1 550 29 discriminator 1
	ld	a5,-56(s0)
	addi	a5,a5,2
	.loc 1 550 33 discriminator 1
	ld	a4,-120(s0)
	bgtu	a4,a5,.L77
	.loc 1 554 13
	li	a5,8192
	addi	a5,a5,1304
	sh	a5,-138(s0)
	.loc 1 555 3
	lhu	a5,-138(s0)
	mv	a2,a5
	li	a1,-1
	li	a0,-1
	call	PrintCharAt
	.loc 1 557 6
	ld	a5,-184(s0)
	beq	a5,zero,.L78
	.loc 1 558 14
	addi	a5,s0,-168
	mv	a0,a5
	call	WaitForKeyStroke@plt
	sd	a0,-152(s0)
	.loc 1 560 5
	addi	a5,s0,-168
	li	a2,4
	mv	a1,a5
	ld	a0,-184(s0)
	call	CopyMem@plt
.L78:
	.loc 1 563 6
	la	a5,gST
	ld	a5,0(a5)
	ld	a5,64(a5)
	.loc 1 563 14
	ld	a5,40(a5)
	.loc 1 563 33
	la	a4,gST
	ld	a4,0(a4)
	.loc 1 563 3
	ld	a4,64(a4)
	ld	a1,-96(s0)
	mv	a0,a4
	jalr	a5
.LVL10:
	.loc 1 564 6
	la	a5,gST
	ld	a5,0(a5)
	ld	a5,64(a5)
	.loc 1 564 14
	ld	a5,64(a5)
	.loc 1 564 33
	la	a4,gST
	ld	a4,0(a4)
	.loc 1 564 3
	ld	a4,64(a4)
	lbu	a3,-97(s0)
	mv	a1,a3
	mv	a0,a4
	jalr	a5
.LVL11:
	.loc 1 565 1
	nop
	ld	ra,184(sp)
	.cfi_restore 1
	ld	s0,176(sp)
	.cfi_restore 8
	.cfi_def_cfa 2, 256
	ld	s1,168(sp)
	.cfi_restore 9
	ld	s2,160(sp)
	.cfi_restore 18
	addi	sp,sp,256
	.cfi_def_cfa_offset 0
	jr	ra
	.cfi_endproc
.LFE3:
	.size	CreateDialog, .-CreateDialog
	.section	.text.ConfirmDataChange,"ax",@progbits
	.align	1
	.globl	ConfirmDataChange
	.type	ConfirmDataChange, @function
ConfirmDataChange:
.LFB4:
	.loc 1 577 1
	.cfi_startproc
	addi	sp,sp,-32
	.cfi_def_cfa_offset 32
	sd	ra,24(sp)
	sd	s0,16(sp)
	.cfi_offset 1, -8
	.cfi_offset 8, -16
	addi	s0,sp,32
	.cfi_def_cfa 8, 0
	.loc 1 582 6
	la	a5,gST
	ld	a5,0(a5)
	ld	a5,48(a5)
	.loc 1 582 13
	ld	a5,8(a5)
	.loc 1 582 33
	la	a4,gST
	ld	a4,0(a4)
	.loc 1 582 3
	ld	a4,48(a4)
	addi	a3,s0,-24
	mv	a1,a3
	mv	a0,a4
	jalr	a5
.LVL12:
	.loc 1 584 29
	la	a5,gYesResponse
	ld	a5,0(a5)
	.loc 1 584 15
	lhu	a5,0(a5)
	sh	a5,-18(s0)
	.loc 1 585 27
	la	a5,gNoResponse
	ld	a5,0(a5)
	.loc 1 585 14
	lhu	a5,0(a5)
	sh	a5,-20(s0)
.L81:
	.loc 1 591 5
	la	a5,gLibEmptyString
	ld	a1,0(a5)
	la	a5,gSaveChanges
	ld	a2,0(a5)
	la	a5,gAreYouSure
	ld	a3,0(a5)
	la	a5,gLibEmptyString
	ld	a4,0(a5)
	addi	a0,s0,-24
	li	a5,0
	call	CreateDialog
	.loc 1 594 8
	lhu	a5,-24(s0)
	.loc 1 595 54 discriminator 2
	sext.w	a4,a5
	li	a5,23
	beq	a4,a5,.L80
	.loc 1 595 9 discriminator 1
	lhu	a5,-22(s0)
	.loc 1 595 30 discriminator 1
	ori	a5,a5,32
	slli	a4,a5,48
	srli	a4,a4,48
	lhu	a5,-20(s0)
	ori	a5,a5,32
	slli	a5,a5,48
	srli	a5,a5,48
	.loc 1 594 29
	sext.w	a4,a4
	sext.w	a5,a5
	beq	a4,a5,.L80
	.loc 1 596 9
	lhu	a5,-22(s0)
	.loc 1 596 30
	ori	a5,a5,32
	slli	a4,a5,48
	srli	a4,a4,48
	lhu	a5,-18(s0)
	ori	a5,a5,32
	slli	a5,a5,48
	srli	a5,a5,48
	.loc 1 595 54
	sext.w	a4,a4
	sext.w	a5,a5
	bne	a4,a5,.L81
.L80:
	.loc 1 599 10
	lhu	a5,-24(s0)
	.loc 1 599 6
	sext.w	a4,a5
	li	a5,23
	bne	a4,a5,.L82
	.loc 1 600 12
	li	a5,65536
	j	.L85
.L82:
	.loc 1 601 18
	lhu	a5,-22(s0)
	.loc 1 601 39
	ori	a5,a5,32
	slli	a4,a5,48
	srli	a4,a4,48
	lhu	a5,-18(s0)
	ori	a5,a5,32
	slli	a5,a5,48
	srli	a5,a5,48
	.loc 1 601 13
	sext.w	a4,a4
	sext.w	a5,a5
	bne	a4,a5,.L84
	.loc 1 602 12
	li	a5,4
	j	.L85
.L84:
	.loc 1 604 12
	li	a5,1
.L85:
	.loc 1 606 1
	mv	a0,a5
	ld	ra,24(sp)
	.cfi_restore 1
	ld	s0,16(sp)
	.cfi_restore 8
	.cfi_def_cfa 2, 32
	addi	sp,sp,32
	.cfi_def_cfa_offset 0
	jr	ra
	.cfi_endproc
.LFE4:
	.size	ConfirmDataChange, .-ConfirmDataChange
	.section	.text.FormExitPolicy,"ax",@progbits
	.align	1
	.globl	FormExitPolicy
	.type	FormExitPolicy, @function
FormExitPolicy:
.LFB5:
	.loc 1 622 1
	.cfi_startproc
	addi	sp,sp,-16
	.cfi_def_cfa_offset 16
	sd	ra,8(sp)
	sd	s0,0(sp)
	.cfi_offset 1, -8
	.cfi_offset 8, -16
	addi	s0,sp,16
	.cfi_def_cfa 8, 0
	.loc 1 623 52
	lla	a5,gClassOfVfr
	lhu	a5,0(a5)
	sext.w	a4,a5
	li	a5,2
	sub	a5,a4,a5
	snez	a5,a5
	andi	a5,a5,0xff
	.loc 1 624 1
	mv	a0,a5
	ld	ra,8(sp)
	.cfi_restore 1
	ld	s0,0(sp)
	.cfi_restore 8
	.cfi_def_cfa 2, 16
	addi	sp,sp,16
	.cfi_def_cfa_offset 0
	jr	ra
	.cfi_endproc
.LFE5:
	.size	FormExitPolicy, .-FormExitPolicy
	.section	.text.FormExitTimeout,"ax",@progbits
	.align	1
	.globl	FormExitTimeout
	.type	FormExitTimeout, @function
FormExitTimeout:
.LFB6:
	.loc 1 642 1
	.cfi_startproc
	addi	sp,sp,-32
	.cfi_def_cfa_offset 32
	sd	ra,24(sp)
	sd	s0,16(sp)
	.cfi_offset 1, -8
	.cfi_offset 8, -16
	addi	s0,sp,32
	.cfi_def_cfa 8, 0
	sd	a0,-24(s0)
	.loc 1 643 10
	li	a5,0
	.loc 1 644 1
	mv	a0,a5
	ld	ra,24(sp)
	.cfi_restore 1
	ld	s0,16(sp)
	.cfi_restore 8
	.cfi_def_cfa 2, 32
	addi	sp,sp,32
	.cfi_def_cfa_offset 0
	jr	ra
	.cfi_endproc
.LFE6:
	.size	FormExitTimeout, .-FormExitTimeout
	.section	.rodata
	.align	3
.LC4:
	.string	"%"
	.string	"s"
	.zero	2
	.section	.text.PrintStringAt,"ax",@progbits
	.align	1
	.globl	PrintStringAt
	.type	PrintStringAt, @function
PrintStringAt:
.LFB7:
	.loc 1 668 1
	.cfi_startproc
	addi	sp,sp,-48
	.cfi_def_cfa_offset 48
	sd	ra,40(sp)
	sd	s0,32(sp)
	.cfi_offset 1, -8
	.cfi_offset 8, -16
	addi	s0,sp,48
	.cfi_def_cfa 8, 0
	sd	a0,-24(s0)
	sd	a1,-32(s0)
	sd	a2,-40(s0)
	.loc 1 669 10
	ld	a4,-40(s0)
	lla	a3,.LC4
	ld	a2,-32(s0)
	ld	a1,-24(s0)
	li	a0,0
	call	PrintAt@plt
	mv	a5,a0
	.loc 1 670 1
	mv	a0,a5
	ld	ra,40(sp)
	.cfi_restore 1
	ld	s0,32(sp)
	.cfi_restore 8
	.cfi_def_cfa 2, 48
	addi	sp,sp,48
	.cfi_def_cfa_offset 0
	jr	ra
	.cfi_endproc
.LFE7:
	.size	PrintStringAt, .-PrintStringAt
	.section	.text.PrintStringAtWithWidth,"ax",@progbits
	.align	1
	.globl	PrintStringAtWithWidth
	.type	PrintStringAtWithWidth, @function
PrintStringAtWithWidth:
.LFB8:
	.loc 1 692 1
	.cfi_startproc
	addi	sp,sp,-48
	.cfi_def_cfa_offset 48
	sd	ra,40(sp)
	sd	s0,32(sp)
	.cfi_offset 1, -8
	.cfi_offset 8, -16
	addi	s0,sp,48
	.cfi_def_cfa 8, 0
	sd	a0,-24(s0)
	sd	a1,-32(s0)
	sd	a2,-40(s0)
	sd	a3,-48(s0)
	.loc 1 693 10
	ld	a4,-40(s0)
	lla	a3,.LC4
	ld	a2,-32(s0)
	ld	a1,-24(s0)
	ld	a0,-48(s0)
	call	PrintAt@plt
	mv	a5,a0
	.loc 1 694 1
	mv	a0,a5
	ld	ra,40(sp)
	.cfi_restore 1
	ld	s0,32(sp)
	.cfi_restore 8
	.cfi_def_cfa 2, 48
	addi	sp,sp,48
	.cfi_def_cfa_offset 0
	jr	ra
	.cfi_endproc
.LFE8:
	.size	PrintStringAtWithWidth, .-PrintStringAtWithWidth
	.section	.rodata
	.align	3
.LC5:
	.string	"%"
	.string	"c"
	.zero	2
	.section	.text.PrintCharAt,"ax",@progbits
	.align	1
	.globl	PrintCharAt
	.type	PrintCharAt, @function
PrintCharAt:
.LFB9:
	.loc 1 714 1
	.cfi_startproc
	addi	sp,sp,-48
	.cfi_def_cfa_offset 48
	sd	ra,40(sp)
	sd	s0,32(sp)
	.cfi_offset 1, -8
	.cfi_offset 8, -16
	addi	s0,sp,48
	.cfi_def_cfa 8, 0
	sd	a0,-24(s0)
	sd	a1,-32(s0)
	mv	a5,a2
	sh	a5,-34(s0)
	.loc 1 715 10
	lhu	a5,-34(s0)
	sext.w	a5,a5
	mv	a4,a5
	lla	a3,.LC5
	ld	a2,-32(s0)
	ld	a1,-24(s0)
	li	a0,0
	call	PrintAt@plt
	mv	a5,a0
	.loc 1 716 1
	mv	a0,a5
	ld	ra,40(sp)
	.cfi_restore 1
	ld	s0,32(sp)
	.cfi_restore 8
	.cfi_def_cfa 2, 48
	addi	sp,sp,48
	.cfi_def_cfa_offset 0
	jr	ra
	.cfi_endproc
.LFE9:
	.size	PrintCharAt, .-PrintCharAt
	.section	.text.ClearLines,"ax",@progbits
	.align	1
	.globl	ClearLines
	.type	ClearLines, @function
ClearLines:
.LFB10:
	.loc 1 737 1
	.cfi_startproc
	addi	sp,sp,-80
	.cfi_def_cfa_offset 80
	sd	ra,72(sp)
	sd	s0,64(sp)
	.cfi_offset 1, -8
	.cfi_offset 8, -16
	addi	s0,sp,80
	.cfi_def_cfa 8, 0
	sd	a0,-40(s0)
	sd	a1,-48(s0)
	sd	a2,-56(s0)
	sd	a3,-64(s0)
	sd	a4,-72(s0)
	.loc 1 744 12
	li	a0,65536
	call	AllocateZeroPool@plt
	sd	a0,-32(s0)
	.loc 1 750 6
	la	a5,gST
	ld	a5,0(a5)
	ld	a5,64(a5)
	.loc 1 750 14
	ld	a5,40(a5)
	.loc 1 750 33
	la	a4,gST
	ld	a4,0(a4)
	.loc 1 750 3
	ld	a4,64(a4)
	ld	a1,-72(s0)
	mv	a0,a4
	jalr	a5
.LVL13:
	.loc 1 755 3
	ld	a4,-48(s0)
	ld	a5,-40(s0)
	sub	a5,a4,a5
	li	a2,32
	mv	a1,a5
	ld	a0,-32(s0)
	call	LibSetUnicodeMem@plt
	.loc 1 760 12
	ld	a5,-56(s0)
	sd	a5,-24(s0)
	.loc 1 760 3
	j	.L97
.L98:
	.loc 1 761 5
	ld	a2,-32(s0)
	ld	a1,-24(s0)
	ld	a0,-40(s0)
	call	PrintStringAt
	.loc 1 760 43 discriminator 3
	ld	a5,-24(s0)
	addi	a5,a5,1
	sd	a5,-24(s0)
.L97:
	.loc 1 760 26 discriminator 1
	ld	a4,-24(s0)
	ld	a5,-64(s0)
	bleu	a4,a5,.L98
	.loc 1 764 6
	la	a5,gST
	ld	a5,0(a5)
	ld	a5,64(a5)
	.loc 1 764 14
	ld	a5,56(a5)
	.loc 1 764 38
	la	a4,gST
	ld	a4,0(a4)
	.loc 1 764 3
	ld	a4,64(a4)
	ld	a2,-56(s0)
	ld	a1,-40(s0)
	mv	a0,a4
	jalr	a5
.LVL14:
	.loc 1 766 3
	ld	a0,-32(s0)
	call	FreePool@plt
	.loc 1 767 1
	nop
	ld	ra,72(sp)
	.cfi_restore 1
	ld	s0,64(sp)
	.cfi_restore 8
	.cfi_def_cfa 2, 80
	addi	sp,sp,80
	.cfi_def_cfa_offset 0
	jr	ra
	.cfi_endproc
.LFE10:
	.size	ClearLines, .-ClearLines
	.section	.text.GetPopupColor,"ax",@progbits
	.align	1
	.globl	GetPopupColor
	.type	GetPopupColor, @function
GetPopupColor:
.LFB11:
	.loc 1 783 1
	.cfi_startproc
	addi	sp,sp,-16
	.cfi_def_cfa_offset 16
	sd	ra,8(sp)
	sd	s0,0(sp)
	.cfi_offset 1, -8
	.cfi_offset 8, -16
	addi	s0,sp,16
	.cfi_def_cfa 8, 0
	.loc 1 784 10
	li	a5,23
	.loc 1 785 1
	mv	a0,a5
	ld	ra,8(sp)
	.cfi_restore 1
	ld	s0,0(sp)
	.cfi_restore 8
	.cfi_def_cfa 2, 16
	addi	sp,sp,16
	.cfi_def_cfa_offset 0
	jr	ra
	.cfi_endproc
.LFE11:
	.size	GetPopupColor, .-GetPopupColor
	.section	.text.GetPopupInverseColor,"ax",@progbits
	.align	1
	.globl	GetPopupInverseColor
	.type	GetPopupInverseColor, @function
GetPopupInverseColor:
.LFB12:
	.loc 1 797 1
	.cfi_startproc
	addi	sp,sp,-16
	.cfi_def_cfa_offset 16
	sd	ra,8(sp)
	sd	s0,0(sp)
	.cfi_offset 1, -8
	.cfi_offset 8, -16
	addi	s0,sp,16
	.cfi_def_cfa 8, 0
	.loc 1 798 10
	li	a5,7
	.loc 1 799 1
	mv	a0,a5
	ld	ra,8(sp)
	.cfi_restore 1
	ld	s0,0(sp)
	.cfi_restore 8
	.cfi_def_cfa 2, 16
	addi	sp,sp,16
	.cfi_def_cfa_offset 0
	jr	ra
	.cfi_endproc
.LFE12:
	.size	GetPopupInverseColor, .-GetPopupInverseColor
	.section	.text.GetPickListColor,"ax",@progbits
	.align	1
	.globl	GetPickListColor
	.type	GetPickListColor, @function
GetPickListColor:
.LFB13:
	.loc 1 811 1
	.cfi_startproc
	addi	sp,sp,-16
	.cfi_def_cfa_offset 16
	sd	ra,8(sp)
	sd	s0,0(sp)
	.cfi_offset 1, -8
	.cfi_offset 8, -16
	addi	s0,sp,16
	.cfi_def_cfa 8, 0
	.loc 1 812 10
	li	a5,63
	.loc 1 813 1
	mv	a0,a5
	ld	ra,8(sp)
	.cfi_restore 1
	ld	s0,0(sp)
	.cfi_restore 8
	.cfi_def_cfa 2, 16
	addi	sp,sp,16
	.cfi_def_cfa_offset 0
	jr	ra
	.cfi_endproc
.LFE13:
	.size	GetPickListColor, .-GetPickListColor
	.section	.text.GetArrowColor,"ax",@progbits
	.align	1
	.globl	GetArrowColor
	.type	GetArrowColor, @function
GetArrowColor:
.LFB14:
	.loc 1 825 1
	.cfi_startproc
	addi	sp,sp,-16
	.cfi_def_cfa_offset 16
	sd	ra,8(sp)
	sd	s0,0(sp)
	.cfi_offset 1, -8
	.cfi_offset 8, -16
	addi	s0,sp,16
	.cfi_def_cfa 8, 0
	.loc 1 826 10
	li	a5,124
	.loc 1 827 1
	mv	a0,a5
	ld	ra,8(sp)
	.cfi_restore 1
	ld	s0,0(sp)
	.cfi_restore 8
	.cfi_def_cfa 2, 16
	addi	sp,sp,16
	.cfi_def_cfa_offset 0
	jr	ra
	.cfi_endproc
.LFE14:
	.size	GetArrowColor, .-GetArrowColor
	.section	.text.GetInfoTextColor,"ax",@progbits
	.align	1
	.globl	GetInfoTextColor
	.type	GetInfoTextColor, @function
GetInfoTextColor:
.LFB15:
	.loc 1 839 1
	.cfi_startproc
	addi	sp,sp,-16
	.cfi_def_cfa_offset 16
	sd	ra,8(sp)
	sd	s0,0(sp)
	.cfi_offset 1, -8
	.cfi_offset 8, -16
	addi	s0,sp,16
	.cfi_def_cfa 8, 0
	.loc 1 840 10
	li	a5,126
	.loc 1 841 1
	mv	a0,a5
	ld	ra,8(sp)
	.cfi_restore 1
	ld	s0,0(sp)
	.cfi_restore 8
	.cfi_def_cfa 2, 16
	addi	sp,sp,16
	.cfi_def_cfa_offset 0
	jr	ra
	.cfi_endproc
.LFE15:
	.size	GetInfoTextColor, .-GetInfoTextColor
	.section	.text.GetHelpTextColor,"ax",@progbits
	.align	1
	.globl	GetHelpTextColor
	.type	GetHelpTextColor, @function
GetHelpTextColor:
.LFB16:
	.loc 1 853 1
	.cfi_startproc
	addi	sp,sp,-16
	.cfi_def_cfa_offset 16
	sd	ra,8(sp)
	sd	s0,0(sp)
	.cfi_offset 1, -8
	.cfi_offset 8, -16
	addi	s0,sp,16
	.cfi_def_cfa 8, 0
	.loc 1 854 10
	li	a5,113
	.loc 1 855 1
	mv	a0,a5
	ld	ra,8(sp)
	.cfi_restore 1
	ld	s0,0(sp)
	.cfi_restore 8
	.cfi_def_cfa 2, 16
	addi	sp,sp,16
	.cfi_def_cfa_offset 0
	jr	ra
	.cfi_endproc
.LFE16:
	.size	GetHelpTextColor, .-GetHelpTextColor
	.section	.text.GetGrayedTextColor,"ax",@progbits
	.align	1
	.globl	GetGrayedTextColor
	.type	GetGrayedTextColor, @function
GetGrayedTextColor:
.LFB17:
	.loc 1 867 1
	.cfi_startproc
	addi	sp,sp,-16
	.cfi_def_cfa_offset 16
	sd	ra,8(sp)
	sd	s0,0(sp)
	.cfi_offset 1, -8
	.cfi_offset 8, -16
	addi	s0,sp,16
	.cfi_def_cfa 8, 0
	.loc 1 868 10
	li	a5,120
	.loc 1 869 1
	mv	a0,a5
	ld	ra,8(sp)
	.cfi_restore 1
	ld	s0,0(sp)
	.cfi_restore 8
	.cfi_def_cfa 2, 16
	addi	sp,sp,16
	.cfi_def_cfa_offset 0
	jr	ra
	.cfi_endproc
.LFE17:
	.size	GetGrayedTextColor, .-GetGrayedTextColor
	.section	.text.GetHighlightTextColor,"ax",@progbits
	.align	1
	.globl	GetHighlightTextColor
	.type	GetHighlightTextColor, @function
GetHighlightTextColor:
.LFB18:
	.loc 1 881 1
	.cfi_startproc
	addi	sp,sp,-16
	.cfi_def_cfa_offset 16
	sd	ra,8(sp)
	sd	s0,0(sp)
	.cfi_offset 1, -8
	.cfi_offset 8, -16
	addi	s0,sp,16
	.cfi_def_cfa 8, 0
	.loc 1 882 63
	la	a5,_gPcd_FixedAtBuild_PcdBrowserFieldTextHighlightColor
	lbu	a4,0(a5)
	la	a5,_gPcd_FixedAtBuild_PcdBrowserFieldBackgroundHighlightColor
	lbu	a5,0(a5)
	or	a5,a4,a5
	andi	a5,a5,0xff
	.loc 1 883 1
	mv	a0,a5
	ld	ra,8(sp)
	.cfi_restore 1
	ld	s0,0(sp)
	.cfi_restore 8
	.cfi_def_cfa 2, 16
	addi	sp,sp,16
	.cfi_def_cfa_offset 0
	jr	ra
	.cfi_endproc
.LFE18:
	.size	GetHighlightTextColor, .-GetHighlightTextColor
	.section	.text.GetFieldTextColor,"ax",@progbits
	.align	1
	.globl	GetFieldTextColor
	.type	GetFieldTextColor, @function
GetFieldTextColor:
.LFB19:
	.loc 1 895 1
	.cfi_startproc
	addi	sp,sp,-16
	.cfi_def_cfa_offset 16
	sd	ra,8(sp)
	sd	s0,0(sp)
	.cfi_offset 1, -8
	.cfi_offset 8, -16
	addi	s0,sp,16
	.cfi_def_cfa 8, 0
	.loc 1 896 54
	la	a5,_gPcd_FixedAtBuild_PcdBrowserFieldTextColor
	lbu	a5,0(a5)
	ori	a5,a5,112
	andi	a5,a5,0xff
	.loc 1 897 1
	mv	a0,a5
	ld	ra,8(sp)
	.cfi_restore 1
	ld	s0,0(sp)
	.cfi_restore 8
	.cfi_def_cfa 2, 16
	addi	sp,sp,16
	.cfi_def_cfa_offset 0
	jr	ra
	.cfi_endproc
.LFE19:
	.size	GetFieldTextColor, .-GetFieldTextColor
	.section	.text.GetSubTitleTextColor,"ax",@progbits
	.align	1
	.globl	GetSubTitleTextColor
	.type	GetSubTitleTextColor, @function
GetSubTitleTextColor:
.LFB20:
	.loc 1 909 1
	.cfi_startproc
	addi	sp,sp,-16
	.cfi_def_cfa_offset 16
	sd	ra,8(sp)
	sd	s0,0(sp)
	.cfi_offset 1, -8
	.cfi_offset 8, -16
	addi	s0,sp,16
	.cfi_def_cfa 8, 0
	.loc 1 910 57
	la	a5,_gPcd_FixedAtBuild_PcdBrowserSubtitleTextColor
	lbu	a5,0(a5)
	ori	a5,a5,112
	andi	a5,a5,0xff
	.loc 1 911 1
	mv	a0,a5
	ld	ra,8(sp)
	.cfi_restore 1
	ld	s0,0(sp)
	.cfi_restore 8
	.cfi_def_cfa 2, 16
	addi	sp,sp,16
	.cfi_def_cfa_offset 0
	jr	ra
	.cfi_endproc
.LFE20:
	.size	GetSubTitleTextColor, .-GetSubTitleTextColor
	.section	.text.ClearDisplayPage,"ax",@progbits
	.align	1
	.globl	ClearDisplayPage
	.type	ClearDisplayPage, @function
ClearDisplayPage:
.LFB21:
	.loc 1 921 1
	.cfi_startproc
	addi	sp,sp,-16
	.cfi_def_cfa_offset 16
	sd	ra,8(sp)
	sd	s0,0(sp)
	.cfi_offset 1, -8
	.cfi_offset 8, -16
	addi	s0,sp,16
	.cfi_def_cfa 8, 0
	.loc 1 922 6
	la	a5,gST
	ld	a5,0(a5)
	ld	a5,64(a5)
	.loc 1 922 14
	ld	a5,40(a5)
	.loc 1 922 33
	la	a4,gST
	ld	a4,0(a4)
	.loc 1 922 3
	ld	a4,64(a4)
	li	a1,7
	mv	a0,a4
	jalr	a5
.LVL15:
	.loc 1 923 6
	la	a5,gST
	ld	a5,0(a5)
	ld	a5,64(a5)
	.loc 1 923 14
	ld	a5,48(a5)
	.loc 1 923 32
	la	a4,gST
	ld	a4,0(a4)
	.loc 1 923 3
	ld	a4,64(a4)
	mv	a0,a4
	jalr	a5
.LVL16:
	.loc 1 924 19
	lla	a5,gLibIsFirstForm
	li	a4,1
	sb	a4,0(a5)
	.loc 1 925 1
	nop
	ld	ra,8(sp)
	.cfi_restore 1
	ld	s0,0(sp)
	.cfi_restore 8
	.cfi_def_cfa 2, 16
	addi	sp,sp,16
	.cfi_def_cfa_offset 0
	jr	ra
	.cfi_endproc
.LFE21:
	.size	ClearDisplayPage, .-ClearDisplayPage
	.section	.text.CustomizedDisplayLibConstructor,"ax",@progbits
	.align	1
	.globl	CustomizedDisplayLibConstructor
	.type	CustomizedDisplayLibConstructor, @function
CustomizedDisplayLibConstructor:
.LFB22:
	.loc 1 942 1
	.cfi_startproc
	addi	sp,sp,-32
	.cfi_def_cfa_offset 32
	sd	ra,24(sp)
	sd	s0,16(sp)
	.cfi_offset 1, -8
	.cfi_offset 8, -16
	addi	s0,sp,32
	.cfi_def_cfa 8, 0
	sd	a0,-24(s0)
	sd	a1,-32(s0)
	.loc 1 943 26
	li	a3,0
	la	a2,CustomizedDisplayLibStrings
	ld	a1,-24(s0)
	lla	a0,gCustomizedDisplayLibGuid
	call	HiiAddPackages@plt
	mv	a4,a0
	.loc 1 943 24 discriminator 1
	lla	a5,mCDLStringPackHandle
	sd	a4,0(a5)
	.loc 1 946 3
	call	InitializeLibStrings@plt
	.loc 1 948 10
	li	a5,0
	.loc 1 949 1
	mv	a0,a5
	ld	ra,24(sp)
	.cfi_restore 1
	ld	s0,16(sp)
	.cfi_restore 8
	.cfi_def_cfa 2, 32
	addi	sp,sp,32
	.cfi_def_cfa_offset 0
	jr	ra
	.cfi_endproc
.LFE22:
	.size	CustomizedDisplayLibConstructor, .-CustomizedDisplayLibConstructor
	.section	.text.CustomizedDisplayLibDestructor,"ax",@progbits
	.align	1
	.globl	CustomizedDisplayLibDestructor
	.type	CustomizedDisplayLibDestructor, @function
CustomizedDisplayLibDestructor:
.LFB23:
	.loc 1 967 1
	.cfi_startproc
	addi	sp,sp,-32
	.cfi_def_cfa_offset 32
	sd	ra,24(sp)
	sd	s0,16(sp)
	.cfi_offset 1, -8
	.cfi_offset 8, -16
	addi	s0,sp,32
	.cfi_def_cfa 8, 0
	sd	a0,-24(s0)
	sd	a1,-32(s0)
	.loc 1 968 3
	lla	a5,mCDLStringPackHandle
	ld	a5,0(a5)
	mv	a0,a5
	call	HiiRemovePackages@plt
	.loc 1 970 3
	call	FreeLibStrings@plt
	.loc 1 972 10
	li	a5,0
	.loc 1 973 1
	mv	a0,a5
	ld	ra,24(sp)
	.cfi_restore 1
	ld	s0,16(sp)
	.cfi_restore 8
	.cfi_def_cfa 2, 32
	addi	sp,sp,32
	.cfi_def_cfa_offset 0
	jr	ra
	.cfi_endproc
.LFE23:
	.size	CustomizedDisplayLibDestructor, .-CustomizedDisplayLibDestructor
	.section	.rodata
	.align	3
.LC0:
	.dword	-6148914691236517205
	.text
.Letext0:
	.file 2 "/home/kapoagaeming/Downloads/spacemit-image-builder/components/edk2/MdePkg/Include/RiscV64/ProcessorBind.h"
	.file 3 "/home/kapoagaeming/Downloads/spacemit-image-builder/components/edk2/MdePkg/Include/Base.h"
	.file 4 "/home/kapoagaeming/Downloads/spacemit-image-builder/components/edk2/MdePkg/Include/Uefi/UefiBaseType.h"
	.file 5 "/home/kapoagaeming/Downloads/spacemit-image-builder/components/edk2/MdePkg/Include/Uefi/UefiMultiPhase.h"
	.file 6 "/home/kapoagaeming/Downloads/spacemit-image-builder/components/edk2/MdePkg/Include/Protocol/DevicePath.h"
	.file 7 "/home/kapoagaeming/Downloads/spacemit-image-builder/components/edk2/MdePkg/Include/Protocol/SimpleTextIn.h"
	.file 8 "/home/kapoagaeming/Downloads/spacemit-image-builder/components/edk2/MdePkg/Include/Protocol/SimpleTextOut.h"
	.file 9 "/home/kapoagaeming/Downloads/spacemit-image-builder/components/edk2/MdePkg/Include/Uefi/UefiSpec.h"
	.file 10 "/home/kapoagaeming/Downloads/spacemit-image-builder/components/edk2/MdePkg/Include/Uefi/UefiInternalFormRepresentation.h"
	.file 11 "/home/kapoagaeming/Downloads/spacemit-image-builder/components/Build/Milk-V-Jupiter/RELEASE_GCC5/RISCV64/MdeModulePkg/Library/CustomizedDisplayLib/CustomizedDisplayLib/DEBUG/AutoGen.h"
	.file 12 "/home/kapoagaeming/Downloads/spacemit-image-builder/components/Build/Milk-V-Jupiter/RELEASE_GCC5/RISCV64/MdeModulePkg/Library/CustomizedDisplayLib/CustomizedDisplayLib/DEBUG/CustomizedDisplayLibStrDefs.h"
	.file 13 "/home/kapoagaeming/Downloads/spacemit-image-builder/components/edk2/MdePkg/Include/Protocol/FormBrowser2.h"
	.file 14 "/home/kapoagaeming/Downloads/spacemit-image-builder/components/edk2/MdeModulePkg/Include/Protocol/DisplayProtocol.h"
	.file 15 "/home/kapoagaeming/Downloads/spacemit-image-builder/components/edk2/MdeModulePkg/Library/CustomizedDisplayLib/CustomizedDisplayLibInternal.h"
	.file 16 "/home/kapoagaeming/Downloads/spacemit-image-builder/components/edk2/MdeModulePkg/Include/Library/HiiLib.h"
	.file 17 "/home/kapoagaeming/Downloads/spacemit-image-builder/components/edk2/MdePkg/Include/Library/MemoryAllocationLib.h"
	.file 18 "/home/kapoagaeming/Downloads/spacemit-image-builder/components/edk2/MdePkg/Include/Library/BaseMemoryLib.h"
	.file 19 "/home/kapoagaeming/Downloads/spacemit-image-builder/components/edk2/MdePkg/Include/Library/UefiBootServicesTableLib.h"
	.section	.note.GNU-stack,"",@progbits
