	.file	"Xhci.c"
	.option pic
	.option norelax
	.attribute arch, "rv64i2p1_m2p0_a2p1_f2p2_d2p2_c2p0_zicsr2p0_zifencei2p0_zmmul1p0_zaamo1p0_zalrsc1p0_zca1p0_zcd1p0"
	.attribute unaligned_access, 0
	.attribute stack_align, 16
	.text
.Ltext0:
	.cfi_sections	.debug_frame
	.file 0 "/home/kapoagaeming/Downloads/spacemit-image-builder/components/Build/Milk-V-Jupiter/RELEASE_GCC5/RISCV64/MdeModulePkg/Bus/Pci/XhciDxe/XhciDxe" "/home/kapoagaeming/Downloads/spacemit-image-builder/components/edk2/MdeModulePkg/Bus/Pci/XhciDxe/Xhci.c"
	.globl	mUsbPortStateMap
	.section	.data.mUsbPortStateMap,"aw"
	.align	3
	.type	mUsbPortStateMap, @object
	.size	mUsbPortStateMap, 32
mUsbPortStateMap:
	.word	1
	.half	1
	.zero	2
	.word	2
	.half	2
	.zero	2
	.word	8
	.half	8
	.zero	2
	.word	16
	.half	16
	.zero	2
	.globl	mUsbPortChangeMap
	.section	.data.mUsbPortChangeMap,"aw"
	.align	3
	.type	mUsbPortChangeMap, @object
	.size	mUsbPortChangeMap, 32
mUsbPortChangeMap:
	.word	131072
	.half	1
	.zero	2
	.word	262144
	.half	2
	.zero	2
	.word	1048576
	.half	8
	.zero	2
	.word	2097152
	.half	16
	.zero	2
	.globl	mUsbClearPortChangeMap
	.section	.data.mUsbClearPortChangeMap,"aw"
	.align	3
	.type	mUsbClearPortChangeMap, @object
	.size	mUsbClearPortChangeMap, 32
mUsbClearPortChangeMap:
	.word	131072
	.half	16
	.zero	2
	.word	262144
	.half	17
	.zero	2
	.word	1048576
	.half	19
	.zero	2
	.word	2097152
	.half	20
	.zero	2
	.globl	mUsbHubPortStateMap
	.section	.data.mUsbHubPortStateMap,"aw"
	.align	3
	.type	mUsbHubPortStateMap, @object
	.size	mUsbHubPortStateMap, 32
mUsbHubPortStateMap:
	.word	1
	.half	1
	.zero	2
	.word	2
	.half	2
	.zero	2
	.word	8
	.half	8
	.zero	2
	.word	16
	.half	16
	.zero	2
	.globl	mUsbHubPortChangeMap
	.section	.data.mUsbHubPortChangeMap,"aw"
	.align	3
	.type	mUsbHubPortChangeMap, @object
	.size	mUsbHubPortChangeMap, 32
mUsbHubPortChangeMap:
	.word	65536
	.half	1
	.zero	2
	.word	131072
	.half	2
	.zero	2
	.word	524288
	.half	8
	.zero	2
	.word	1048576
	.half	16
	.zero	2
	.globl	mUsbHubClearPortChangeMap
	.section	.data.mUsbHubClearPortChangeMap,"aw"
	.align	3
	.type	mUsbHubClearPortChangeMap, @object
	.size	mUsbHubClearPortChangeMap, 40
mUsbHubClearPortChangeMap:
	.word	65536
	.half	16
	.zero	2
	.word	131072
	.half	17
	.zero	2
	.word	524288
	.half	19
	.zero	2
	.word	1048576
	.half	20
	.zero	2
	.word	2097152
	.half	29
	.zero	2
	.globl	gXhciDriverBinding
	.section	.data.rel.local.gXhciDriverBinding,"aw"
	.align	3
	.type	gXhciDriverBinding, @object
	.size	gXhciDriverBinding, 48
gXhciDriverBinding:
	.dword	XhcDriverBindingSupported
	.dword	XhcDriverBindingStart
	.dword	XhcDriverBindingStop
	.word	48
	.zero	4
	.dword	0
	.dword	0
	.globl	gXhciUsb2HcTemplate
	.section	.data.rel.local.gXhciUsb2HcTemplate,"aw"
	.align	3
	.type	gXhciUsb2HcTemplate, @object
	.size	gXhciUsb2HcTemplate, 112
gXhciUsb2HcTemplate:
	.dword	XhcGetCapability
	.dword	XhcReset
	.dword	XhcGetState
	.dword	XhcSetState
	.dword	XhcControlTransfer
	.dword	XhcBulkTransfer
	.dword	XhcAsyncInterruptTransfer
	.dword	XhcSyncInterruptTransfer
	.dword	XhcIsochronousTransfer
	.dword	XhcAsyncIsochronousTransfer
	.dword	XhcGetRootHubPortStatus
	.dword	XhcSetRootHubPortFeature
	.dword	XhcClearRootHubPortFeature
	.half	3
	.half	0
	.zero	4
	.section	.bss.mXhciPerformanceCounterStartValue,"aw",@nobits
	.align	3
	.type	mXhciPerformanceCounterStartValue, @object
	.size	mXhciPerformanceCounterStartValue, 8
mXhciPerformanceCounterStartValue:
	.zero	8
	.section	.bss.mXhciPerformanceCounterEndValue,"aw",@nobits
	.align	3
	.type	mXhciPerformanceCounterEndValue, @object
	.size	mXhciPerformanceCounterEndValue, 8
mXhciPerformanceCounterEndValue:
	.zero	8
	.section	.bss.mXhciPerformanceCounterFrequency,"aw",@nobits
	.align	3
	.type	mXhciPerformanceCounterFrequency, @object
	.size	mXhciPerformanceCounterFrequency, 8
mXhciPerformanceCounterFrequency:
	.zero	8
	.section	.bss.mXhciPerformanceCounterValuesCached,"aw",@nobits
	.type	mXhciPerformanceCounterValuesCached, @object
	.size	mXhciPerformanceCounterValuesCached, 1
mXhciPerformanceCounterValuesCached:
	.zero	1
	.section	.text.XhcGetCapability,"ax",@progbits
	.align	1
	.globl	XhcGetCapability
	.type	XhcGetCapability, @function
XhcGetCapability:
.LFB0:
	.file 1 "/home/kapoagaeming/Downloads/spacemit-image-builder/components/edk2/MdeModulePkg/Bus/Pci/XhciDxe/Xhci.c"
	.loc 1 115 1
	.cfi_startproc
	addi	sp,sp,-64
	.cfi_def_cfa_offset 64
	sd	ra,56(sp)
	sd	s0,48(sp)
	.cfi_offset 1, -8
	.cfi_offset 8, -16
	addi	s0,sp,64
	.cfi_def_cfa 8, 0
	sd	a0,-40(s0)
	sd	a1,-48(s0)
	sd	a2,-56(s0)
	sd	a3,-64(s0)
	.loc 1 119 6
	ld	a5,-48(s0)
	beq	a5,zero,.L2
	.loc 1 119 34 discriminator 1
	ld	a5,-56(s0)
	beq	a5,zero,.L2
	.loc 1 119 66 discriminator 2
	ld	a5,-64(s0)
	bne	a5,zero,.L3
.L2:
	.loc 1 120 12
	li	a5,-1
	slli	a5,a5,63
	addi	a5,a5,2
	j	.L4
.L3:
	.loc 1 123 15
	la	a5,gBS
	ld	a5,0(a5)
	ld	a5,24(a5)
	.loc 1 123 12
	li	a0,16
	jalr	a5
.LVL0:
	sd	a0,-32(s0)
	.loc 1 125 11
	ld	a5,-40(s0)
	addi	a5,a5,-32
	.loc 1 125 119
	lw	a4,0(a5)
	.loc 1 125 204
	li	a5,1768124416
	addi	a5,a5,-1928
	bne	a4,a5,.L5
	.loc 1 125 7 discriminator 1
	ld	a5,-40(s0)
	addi	a5,a5,-32
	sd	a5,-24(s0)
	j	.L6
.L5:
	.loc 1 125 7 is_stmt 0 discriminator 2
	sd	zero,-24(s0)
.L6:
	.loc 1 126 13 is_stmt 1
	ld	a5,-48(s0)
	li	a4,3
	sb	a4,0(a5)
	.loc 1 127 45
	ld	a5,-24(s0)
	lbu	a4,188(a5)
	.loc 1 127 15
	ld	a5,-56(s0)
	sb	a4,0(a5)
	.loc 1 128 31
	ld	a4,-24(s0)
	li	a5,86016
	add	a5,a4,a5
	lbu	a4,-1640(a5)
	.loc 1 128 19
	ld	a5,-64(s0)
	sb	a4,0(a5)
	.loc 1 131 6
	la	a5,gBS
	ld	a5,0(a5)
	ld	a5,32(a5)
	.loc 1 131 3
	ld	a0,-32(s0)
	jalr	a5
.LVL1:
	.loc 1 133 10
	li	a5,0
.L4:
	.loc 1 134 1
	mv	a0,a5
	ld	ra,56(sp)
	.cfi_restore 1
	ld	s0,48(sp)
	.cfi_restore 8
	.cfi_def_cfa 2, 64
	addi	sp,sp,64
	.cfi_def_cfa_offset 0
	jr	ra
	.cfi_endproc
.LFE0:
	.size	XhcGetCapability, .-XhcGetCapability
	.section	.text.XhcReset,"ax",@progbits
	.align	1
	.globl	XhcReset
	.type	XhcReset, @function
XhcReset:
.LFB1:
	.loc 1 155 1
	.cfi_startproc
	addi	sp,sp,-64
	.cfi_def_cfa_offset 64
	sd	ra,56(sp)
	sd	s0,48(sp)
	.cfi_offset 1, -8
	.cfi_offset 8, -16
	addi	s0,sp,64
	.cfi_def_cfa 8, 0
	sd	a0,-56(s0)
	mv	a5,a1
	sh	a5,-58(s0)
	.loc 1 160 11
	ld	a5,-56(s0)
	addi	a5,a5,-32
	.loc 1 160 119
	lw	a4,0(a5)
	.loc 1 160 204
	li	a5,1768124416
	addi	a5,a5,-1928
	bne	a4,a5,.L8
	.loc 1 160 7 discriminator 1
	ld	a5,-56(s0)
	addi	a5,a5,-32
	sd	a5,-32(s0)
	j	.L9
.L8:
	.loc 1 160 7 is_stmt 0 discriminator 2
	sd	zero,-32(s0)
.L9:
	.loc 1 162 10 is_stmt 1
	ld	a5,-32(s0)
	ld	a5,144(a5)
	.loc 1 162 6
	beq	a5,zero,.L10
	.loc 1 166 6
	call	ReportProgressCodeEnabled@plt
	mv	a5,a0
	.loc 1 166 182 discriminator 1
	beq	a5,zero,.L11
	.loc 1 166 168 discriminator 4
	ld	a5,-32(s0)
	ld	a5,144(a5)
	.loc 1 166 82 discriminator 4
	mv	a2,a5
	li	a5,33685504
	addi	a1,a5,1
	li	a0,1
	call	ReportStatusCodeWithDevicePath@plt
	.loc 1 166 182
	j	.L10
.L11:
	.loc 1 166 185 discriminator 5
	call	ReportErrorCodeEnabled@plt
	.loc 1 166 361 discriminator 9
	call	ReportDebugCodeEnabled@plt
.L10:
	.loc 1 173 15
	la	a5,gBS
	ld	a5,0(a5)
	ld	a5,24(a5)
	.loc 1 173 12
	li	a0,16
	jalr	a5
.LVL2:
	sd	a0,-40(s0)
	.loc 1 175 3
	lhu	a5,-58(s0)
	sext.w	a5,a5
	li	a4,8
	beq	a5,a4,.L12
	li	a4,8
	bgt	a5,a4,.L13
	li	a4,2
	bgt	a5,a4,.L14
	bgt	a5,zero,.L15
	j	.L13
.L14:
	li	a4,4
	beq	a5,a4,.L12
	j	.L13
.L15:
	.loc 1 181 15
	ld	a5,-32(s0)
	lw	a4,264(a5)
	.loc 1 181 10
	li	a5,-1
	beq	a4,a5,.L16
	.loc 1 181 55 discriminator 1
	ld	a5,-32(s0)
	lw	a5,264(a5)
	mv	a1,a5
	ld	a0,-32(s0)
	call	XhcReadExtCapReg@plt
	mv	a5,a0
	.loc 1 181 102 discriminator 2
	andi	a5,a5,255
	sext.w	a4,a5
	.loc 1 181 50 discriminator 2
	li	a5,10
	bne	a4,a5,.L16
	.loc 1 182 39
	ld	a5,-32(s0)
	lw	a5,264(a5)
	.loc 1 182 13
	addiw	a5,a5,32
	sext.w	a5,a5
	mv	a1,a5
	ld	a0,-32(s0)
	call	XhcReadExtCapReg@plt
	mv	a5,a0
	.loc 1 182 67 discriminator 1
	andi	a5,a5,1
	sext.w	a5,a5
	.loc 1 181 119 discriminator 3
	beq	a5,zero,.L16
	.loc 1 184 16
	sd	zero,-24(s0)
	.loc 1 185 9
	j	.L21
.L16:
	.loc 1 191 12
	ld	a0,-32(s0)
	call	XhcIsHalt@plt
	mv	a5,a0
	.loc 1 191 10 discriminator 1
	bne	a5,zero,.L18
	.loc 1 192 18
	li	a5,8192
	addi	a1,a5,1808
	ld	a0,-32(s0)
	call	XhcHaltHC@plt
	sd	a0,-24(s0)
	.loc 1 194 40
	ld	a5,-24(s0)
	.loc 1 194 12
	bge	a5,zero,.L18
	.loc 1 195 18
	li	a5,-1
	slli	a5,a5,63
	addi	a5,a5,7
	sd	a5,-24(s0)
	.loc 1 196 11
	j	.L21
.L18:
	.loc 1 200 16
	li	a1,1000
	ld	a0,-32(s0)
	call	XhcResetHC@plt
	sd	a0,-24(s0)
	.loc 1 203 38
	ld	a5,-24(s0)
	.loc 1 203 10
	blt	a5,zero,.L22
	.loc 1 211 7
	ld	a0,-32(s0)
	call	XhciDelAllAsyncIntTransfers@plt
	.loc 1 212 7
	ld	a0,-32(s0)
	call	XhcFreeSched@plt
	.loc 1 214 7
	ld	a0,-32(s0)
	call	XhcInitSched@plt
	.loc 1 215 7
	j	.L21
.L12:
	.loc 1 219 14
	li	a5,-1
	slli	a5,a5,63
	addi	a5,a5,3
	sd	a5,-24(s0)
	.loc 1 220 7
	j	.L21
.L13:
	.loc 1 223 14
	li	a5,-1
	slli	a5,a5,63
	addi	a5,a5,2
	sd	a5,-24(s0)
	j	.L21
.L17:
.L22:
	.loc 1 204 9
	nop
.L21:
	.loc 1 228 6
	la	a5,gBS
	ld	a5,0(a5)
	ld	a5,32(a5)
	.loc 1 228 3
	ld	a0,-40(s0)
	jalr	a5
.LVL3:
	.loc 1 230 10
	ld	a5,-24(s0)
	.loc 1 231 1
	mv	a0,a5
	ld	ra,56(sp)
	.cfi_restore 1
	ld	s0,48(sp)
	.cfi_restore 8
	.cfi_def_cfa 2, 64
	addi	sp,sp,64
	.cfi_def_cfa_offset 0
	jr	ra
	.cfi_endproc
.LFE1:
	.size	XhcReset, .-XhcReset
	.section	.text.XhcGetState,"ax",@progbits
	.align	1
	.globl	XhcGetState
	.type	XhcGetState, @function
XhcGetState:
.LFB2:
	.loc 1 252 1
	.cfi_startproc
	addi	sp,sp,-48
	.cfi_def_cfa_offset 48
	sd	ra,40(sp)
	sd	s0,32(sp)
	.cfi_offset 1, -8
	.cfi_offset 8, -16
	addi	s0,sp,48
	.cfi_def_cfa 8, 0
	sd	a0,-40(s0)
	sd	a1,-48(s0)
	.loc 1 256 6
	ld	a5,-48(s0)
	bne	a5,zero,.L24
	.loc 1 257 12
	li	a5,-1
	slli	a5,a5,63
	addi	a5,a5,2
	j	.L25
.L24:
	.loc 1 260 15
	la	a5,gBS
	ld	a5,0(a5)
	ld	a5,24(a5)
	.loc 1 260 12
	li	a0,16
	jalr	a5
.LVL4:
	sd	a0,-32(s0)
	.loc 1 262 11
	ld	a5,-40(s0)
	addi	a5,a5,-32
	.loc 1 262 119
	lw	a4,0(a5)
	.loc 1 262 204
	li	a5,1768124416
	addi	a5,a5,-1928
	bne	a4,a5,.L26
	.loc 1 262 7 discriminator 1
	ld	a5,-40(s0)
	addi	a5,a5,-32
	sd	a5,-24(s0)
	j	.L27
.L26:
	.loc 1 262 7 is_stmt 0 discriminator 2
	sd	zero,-24(s0)
.L27:
	.loc 1 264 21 is_stmt 1
	li	a1,4
	ld	a0,-24(s0)
	call	XhcReadOpReg@plt
	mv	a5,a0
	.loc 1 264 53 discriminator 1
	andi	a5,a5,1
	sext.w	a4,a5
	.loc 1 264 6 discriminator 1
	li	a5,1
	bne	a4,a5,.L28
	.loc 1 265 12
	ld	a5,-48(s0)
	sw	zero,0(a5)
	j	.L29
.L28:
	.loc 1 267 12
	ld	a5,-48(s0)
	li	a4,1
	sw	a4,0(a5)
.L29:
	.loc 1 271 6
	la	a5,gBS
	ld	a5,0(a5)
	ld	a5,32(a5)
	.loc 1 271 3
	ld	a0,-32(s0)
	jalr	a5
.LVL5:
	.loc 1 273 10
	li	a5,0
.L25:
	.loc 1 274 1
	mv	a0,a5
	ld	ra,40(sp)
	.cfi_restore 1
	ld	s0,32(sp)
	.cfi_restore 8
	.cfi_def_cfa 2, 48
	addi	sp,sp,48
	.cfi_def_cfa_offset 0
	jr	ra
	.cfi_endproc
.LFE2:
	.size	XhcGetState, .-XhcGetState
	.section	.text.XhcSetState,"ax",@progbits
	.align	1
	.globl	XhcSetState
	.type	XhcSetState, @function
XhcSetState:
.LFB3:
	.loc 1 294 1
	.cfi_startproc
	addi	sp,sp,-64
	.cfi_def_cfa_offset 64
	sd	ra,56(sp)
	sd	s0,48(sp)
	.cfi_offset 1, -8
	.cfi_offset 8, -16
	addi	s0,sp,64
	.cfi_def_cfa 8, 0
	sd	a0,-56(s0)
	mv	a5,a1
	sw	a5,-60(s0)
	.loc 1 300 12
	addi	a5,s0,-44
	mv	a1,a5
	ld	a0,-56(s0)
	call	XhcGetState
	sd	a0,-32(s0)
	.loc 1 302 34
	ld	a5,-32(s0)
	.loc 1 302 6
	bge	a5,zero,.L31
	.loc 1 303 12
	li	a5,-1
	slli	a5,a5,63
	addi	a5,a5,7
	j	.L43
.L31:
	.loc 1 306 16
	lw	a5,-44(s0)
	.loc 1 306 6
	lw	a4,-60(s0)
	sext.w	a4,a4
	bne	a4,a5,.L33
	.loc 1 307 12
	li	a5,0
	j	.L43
.L33:
	.loc 1 310 15
	la	a5,gBS
	ld	a5,0(a5)
	ld	a5,24(a5)
	.loc 1 310 12
	li	a0,16
	jalr	a5
.LVL6:
	sd	a0,-40(s0)
	.loc 1 312 11
	ld	a5,-56(s0)
	addi	a5,a5,-32
	.loc 1 312 119
	lw	a4,0(a5)
	.loc 1 312 204
	li	a5,1768124416
	addi	a5,a5,-1928
	bne	a4,a5,.L34
	.loc 1 312 7 discriminator 1
	ld	a5,-56(s0)
	addi	a5,a5,-32
	sd	a5,-24(s0)
	j	.L35
.L34:
	.loc 1 312 7 is_stmt 0 discriminator 2
	sd	zero,-24(s0)
.L35:
	.loc 1 314 3 is_stmt 1
	lw	a5,-60(s0)
	sext.w	a4,a5
	li	a5,2
	beq	a4,a5,.L36
	lw	a5,-60(s0)
	sext.w	a4,a5
	li	a5,2
	bgtu	a4,a5,.L37
	lw	a5,-60(s0)
	sext.w	a5,a5
	beq	a5,zero,.L38
	lw	a5,-60(s0)
	sext.w	a4,a5
	li	a5,1
	beq	a4,a5,.L39
	j	.L37
.L38:
	.loc 1 316 16
	li	a5,8192
	addi	a1,a5,1808
	ld	a0,-24(s0)
	call	XhcHaltHC@plt
	sd	a0,-32(s0)
	.loc 1 317 7
	j	.L44
.L39:
	.loc 1 320 25
	li	a1,4
	ld	a0,-24(s0)
	call	XhcReadOpReg@plt
	mv	a5,a0
	.loc 1 320 57 discriminator 1
	andi	a5,a5,4
	sext.w	a4,a5
	.loc 1 320 10 discriminator 1
	li	a5,4
	bne	a4,a5,.L41
	.loc 1 321 16
	li	a5,-1
	slli	a5,a5,63
	addi	a5,a5,7
	sd	a5,-32(s0)
	.loc 1 322 9
	j	.L44
.L41:
	.loc 1 330 26
	li	a1,4
	ld	a0,-24(s0)
	call	XhcReadOpReg@plt
	mv	a5,a0
	.loc 1 330 58 discriminator 1
	andi	a5,a5,1
	sext.w	a4,a5
	.loc 1 330 10 discriminator 1
	li	a5,1
	beq	a4,a5,.L42
	.loc 1 331 16
	li	a5,-1
	slli	a5,a5,63
	addi	a5,a5,7
	sd	a5,-32(s0)
	.loc 1 332 9
	j	.L44
.L42:
	.loc 1 335 16
	li	a5,8192
	addi	a1,a5,1808
	ld	a0,-24(s0)
	call	XhcRunHC@plt
	sd	a0,-32(s0)
	.loc 1 336 7
	j	.L44
.L36:
	.loc 1 339 14
	li	a5,-1
	slli	a5,a5,63
	addi	a5,a5,3
	sd	a5,-32(s0)
	.loc 1 340 7
	j	.L44
.L37:
	.loc 1 343 14
	li	a5,-1
	slli	a5,a5,63
	addi	a5,a5,2
	sd	a5,-32(s0)
.L44:
	.loc 1 347 6
	la	a5,gBS
	ld	a5,0(a5)
	ld	a5,32(a5)
	.loc 1 347 3
	ld	a0,-40(s0)
	jalr	a5
.LVL7:
	.loc 1 349 10
	ld	a5,-32(s0)
.L43:
	.loc 1 350 1
	mv	a0,a5
	ld	ra,56(sp)
	.cfi_restore 1
	ld	s0,48(sp)
	.cfi_restore 8
	.cfi_def_cfa 2, 64
	addi	sp,sp,64
	.cfi_def_cfa_offset 0
	jr	ra
	.cfi_endproc
.LFE3:
	.size	XhcSetState, .-XhcSetState
	.section	.text.XhcGetRootHubPortStatus,"ax",@progbits
	.align	1
	.globl	XhcGetRootHubPortStatus
	.type	XhcGetRootHubPortStatus, @function
XhcGetRootHubPortStatus:
.LFB4:
	.loc 1 373 1
	.cfi_startproc
	addi	sp,sp,-112
	.cfi_def_cfa_offset 112
	sd	ra,104(sp)
	sd	s0,96(sp)
	.cfi_offset 1, -8
	.cfi_offset 8, -16
	addi	s0,sp,112
	.cfi_def_cfa 8, 0
	sd	a0,-88(s0)
	mv	a5,a1
	sd	a2,-104(s0)
	sb	a5,-89(s0)
	.loc 1 385 6
	ld	a5,-104(s0)
	bne	a5,zero,.L46
	.loc 1 386 12
	li	a5,-1
	slli	a5,a5,63
	addi	a5,a5,2
	j	.L67
.L46:
	.loc 1 389 15
	la	a5,gBS
	ld	a5,0(a5)
	ld	a5,24(a5)
	.loc 1 389 12
	li	a0,16
	jalr	a5
.LVL8:
	sd	a0,-48(s0)
	.loc 1 391 11
	ld	a5,-88(s0)
	addi	a5,a5,-32
	.loc 1 391 119
	lw	a4,0(a5)
	.loc 1 391 204
	li	a5,1768124416
	addi	a5,a5,-1928
	bne	a4,a5,.L48
	.loc 1 391 7 discriminator 1
	ld	a5,-88(s0)
	addi	a5,a5,-32
	sd	a5,-24(s0)
	j	.L49
.L48:
	.loc 1 391 7 is_stmt 0 discriminator 2
	sd	zero,-24(s0)
.L49:
	.loc 1 392 10 is_stmt 1
	sd	zero,-40(s0)
	.loc 1 394 35
	ld	a5,-24(s0)
	lbu	a5,188(a5)
	.loc 1 394 13
	sw	a5,-52(s0)
	.loc 1 396 18
	lbu	a5,-89(s0)
	sext.w	a5,a5
	.loc 1 396 6
	lw	a4,-52(s0)
	sext.w	a4,a4
	bgtu	a4,a5,.L50
	.loc 1 397 12
	li	a5,-1
	slli	a5,a5,63
	addi	a5,a5,2
	sd	a5,-40(s0)
	.loc 1 398 5
	j	.L51
.L50:
	.loc 1 401 28
	lbu	a5,-89(s0)
	sext.w	a5,a5
	addiw	a5,a5,64
	sext.w	a5,a5
	slliw	a5,a5,4
	sext.w	a5,a5
	.loc 1 401 10
	sw	a5,-56(s0)
	.loc 1 402 26
	ld	a5,-104(s0)
	sh	zero,0(a5)
	.loc 1 403 32
	ld	a5,-104(s0)
	sh	zero,2(a5)
	.loc 1 405 11
	lw	a5,-56(s0)
	mv	a1,a5
	ld	a0,-24(s0)
	call	XhcReadOpReg@plt
	mv	a5,a0
	sw	a5,-60(s0)
	.loc 1 407 71
	lw	a5,-60(s0)
	srliw	a5,a5,10
	sext.w	a5,a5
	andi	a5,a5,0xff
	.loc 1 407 13
	andi	a5,a5,15
	sb	a5,-61(s0)
	.loc 1 413 6
	lbu	a5,-61(s0)
	andi	a5,a5,0xff
	beq	a5,zero,.L52
	.loc 1 414 30
	lbu	a4,-89(s0)
	lbu	a5,-61(s0)
	mv	a2,a4
	mv	a1,a5
	ld	a0,-24(s0)
	call	XhcCheckUsbPortSpeedUsedPsic@plt
	mv	a5,a0
	mv	a4,a5
	.loc 1 414 28 discriminator 1
	ld	a5,-104(s0)
	sh	a4,0(a5)
	.loc 1 416 19
	ld	a5,-104(s0)
	lhu	a5,0(a5)
	.loc 1 416 8
	bne	a5,zero,.L52
	.loc 1 421 7
	lbu	a5,-61(s0)
	sext.w	a5,a5
	li	a4,5
	bgt	a5,a4,.L68
	li	a4,4
	bge	a5,a4,.L54
	li	a4,2
	beq	a5,a4,.L55
	li	a4,3
	beq	a5,a4,.L56
	.loc 1 436 11
	j	.L68
.L55:
	.loc 1 423 21
	ld	a5,-104(s0)
	lhu	a5,0(a5)
	.loc 1 423 34
	ori	a5,a5,512
	slli	a4,a5,48
	srli	a4,a4,48
	ld	a5,-104(s0)
	sh	a4,0(a5)
	.loc 1 424 11
	j	.L52
.L56:
	.loc 1 427 21
	ld	a5,-104(s0)
	lhu	a5,0(a5)
	.loc 1 427 34
	ori	a5,a5,1024
	slli	a4,a5,48
	srli	a4,a4,48
	ld	a5,-104(s0)
	sh	a4,0(a5)
	.loc 1 428 11
	j	.L52
.L54:
	.loc 1 432 21
	ld	a5,-104(s0)
	lhu	a4,0(a5)
	.loc 1 432 34
	li	a5,4096
	addi	a5,a5,-2048
	or	a5,a4,a5
	slli	a4,a5,48
	srli	a4,a4,48
	ld	a5,-104(s0)
	sh	a4,0(a5)
	.loc 1 433 11
	j	.L52
.L68:
	.loc 1 436 11
	nop
.L52:
	.loc 1 444 11
	li	a5,4
	sd	a5,-72(s0)
	.loc 1 446 14
	sd	zero,-32(s0)
	.loc 1 446 3
	j	.L57
.L59:
	.loc 1 447 55
	lla	a4,mUsbPortStateMap
	ld	a5,-32(s0)
	slli	a5,a5,3
	add	a5,a4,a5
	lw	a5,0(a5)
	.loc 1 447 29
	lw	a4,-60(s0)
	and	a5,a4,a5
	sext.w	a4,a5
	.loc 1 447 93
	lla	a3,mUsbPortStateMap
	ld	a5,-32(s0)
	slli	a5,a5,3
	add	a5,a3,a5
	lw	a5,0(a5)
	.loc 1 447 8
	bne	a4,a5,.L58
	.loc 1 448 51
	ld	a5,-104(s0)
	lhu	a4,0(a5)
	.loc 1 448 89
	lla	a3,mUsbPortStateMap
	ld	a5,-32(s0)
	slli	a5,a5,3
	add	a5,a3,a5
	lhu	a5,4(a5)
	.loc 1 448 32
	or	a5,a4,a5
	slli	a4,a5,48
	srli	a4,a4,48
	.loc 1 448 30
	ld	a5,-104(s0)
	sh	a4,0(a5)
.L58:
	.loc 1 446 41 discriminator 2
	ld	a5,-32(s0)
	addi	a5,a5,1
	sd	a5,-32(s0)
.L57:
	.loc 1 446 25 discriminator 1
	ld	a4,-32(s0)
	ld	a5,-72(s0)
	bltu	a4,a5,.L59
	.loc 1 455 68
	lw	a5,-60(s0)
	andi	a5,a5,480
	sext.w	a4,a5
	.loc 1 455 6
	li	a5,96
	bne	a4,a5,.L60
	.loc 1 456 15
	ld	a5,-104(s0)
	lhu	a5,0(a5)
	.loc 1 456 28
	ori	a5,a5,4
	slli	a4,a5,48
	srli	a4,a4,48
	ld	a5,-104(s0)
	sh	a4,0(a5)
.L60:
	.loc 1 459 11
	li	a5,4
	sd	a5,-72(s0)
	.loc 1 461 14
	sd	zero,-32(s0)
	.loc 1 461 3
	j	.L61
.L63:
	.loc 1 462 56
	lla	a4,mUsbPortChangeMap
	ld	a5,-32(s0)
	slli	a5,a5,3
	add	a5,a4,a5
	lw	a5,0(a5)
	.loc 1 462 29
	lw	a4,-60(s0)
	and	a5,a4,a5
	sext.w	a4,a5
	.loc 1 462 95
	lla	a3,mUsbPortChangeMap
	ld	a5,-32(s0)
	slli	a5,a5,3
	add	a5,a3,a5
	lw	a5,0(a5)
	.loc 1 462 8
	bne	a4,a5,.L62
	.loc 1 463 57
	ld	a5,-104(s0)
	lhu	a4,2(a5)
	.loc 1 463 102
	lla	a3,mUsbPortChangeMap
	ld	a5,-32(s0)
	slli	a5,a5,3
	add	a5,a3,a5
	lhu	a5,4(a5)
	.loc 1 463 38
	or	a5,a4,a5
	slli	a4,a5,48
	srli	a4,a4,48
	.loc 1 463 36
	ld	a5,-104(s0)
	sh	a4,2(a5)
.L62:
	.loc 1 461 41 discriminator 2
	ld	a5,-32(s0)
	addi	a5,a5,1
	sd	a5,-32(s0)
.L61:
	.loc 1 461 25 discriminator 1
	ld	a4,-32(s0)
	ld	a5,-72(s0)
	bltu	a4,a5,.L63
	.loc 1 467 11
	li	a5,4
	sd	a5,-72(s0)
	.loc 1 469 14
	sd	zero,-32(s0)
	.loc 1 469 3
	j	.L64
.L66:
	.loc 1 470 61
	lla	a4,mUsbClearPortChangeMap
	ld	a5,-32(s0)
	slli	a5,a5,3
	add	a5,a4,a5
	lw	a5,0(a5)
	.loc 1 470 29
	lw	a4,-60(s0)
	and	a5,a4,a5
	sext.w	a4,a5
	.loc 1 470 105
	lla	a3,mUsbClearPortChangeMap
	ld	a5,-32(s0)
	slli	a5,a5,3
	add	a5,a3,a5
	lw	a5,0(a5)
	.loc 1 470 8
	bne	a4,a5,.L65
	.loc 1 471 104
	lla	a4,mUsbClearPortChangeMap
	ld	a5,-32(s0)
	slli	a5,a5,3
	add	a5,a4,a5
	lhu	a5,4(a5)
	.loc 1 471 7
	sext.w	a4,a5
	lbu	a5,-89(s0)
	mv	a2,a4
	mv	a1,a5
	ld	a0,-88(s0)
	call	XhcClearRootHubPortFeature
.L65:
	.loc 1 469 41 discriminator 2
	ld	a5,-32(s0)
	addi	a5,a5,1
	sd	a5,-32(s0)
.L64:
	.loc 1 469 25 discriminator 1
	ld	a4,-32(s0)
	ld	a5,-72(s0)
	bltu	a4,a5,.L66
	.loc 1 479 26
	sw	zero,-80(s0)
	.loc 1 480 12
	lbu	a5,-89(s0)
	ld	a3,-104(s0)
	mv	a2,a5
	lw	a5,-80(s0)
	mv	a1,a5
	ld	a0,-24(s0)
	call	XhcPollPortStatusChange@plt
	sd	a0,-40(s0)
	.loc 1 486 34
	ld	a5,-40(s0)
	.loc 1 486 6
	bge	a5,zero,.L69
	.loc 1 487 15
	ld	a5,-104(s0)
	lhu	a5,2(a5)
	.loc 1 487 34
	andi	a5,a5,-17
	slli	a4,a5,48
	srli	a4,a4,48
	ld	a5,-104(s0)
	sh	a4,2(a5)
	.loc 1 488 12
	sd	zero,-40(s0)
	j	.L51
.L69:
	.loc 1 491 1
	nop
.L51:
	.loc 1 492 6
	la	a5,gBS
	ld	a5,0(a5)
	ld	a5,32(a5)
	.loc 1 492 3
	ld	a0,-48(s0)
	jalr	a5
.LVL9:
	.loc 1 493 10
	ld	a5,-40(s0)
.L67:
	.loc 1 494 1
	mv	a0,a5
	ld	ra,104(sp)
	.cfi_restore 1
	ld	s0,96(sp)
	.cfi_restore 8
	.cfi_def_cfa 2, 112
	addi	sp,sp,112
	.cfi_def_cfa_offset 0
	jr	ra
	.cfi_endproc
.LFE4:
	.size	XhcGetRootHubPortStatus, .-XhcGetRootHubPortStatus
	.section	.text.XhcSetRootHubPortFeature,"ax",@progbits
	.align	1
	.globl	XhcSetRootHubPortFeature
	.type	XhcSetRootHubPortFeature, @function
XhcSetRootHubPortFeature:
.LFB5:
	.loc 1 515 1
	.cfi_startproc
	addi	sp,sp,-80
	.cfi_def_cfa_offset 80
	sd	ra,72(sp)
	sd	s0,64(sp)
	.cfi_offset 1, -8
	.cfi_offset 8, -16
	addi	s0,sp,80
	.cfi_def_cfa 8, 0
	sd	a0,-72(s0)
	mv	a5,a1
	mv	a4,a2
	sb	a5,-73(s0)
	mv	a5,a4
	sw	a5,-80(s0)
	.loc 1 523 15
	la	a5,gBS
	ld	a5,0(a5)
	ld	a5,24(a5)
	.loc 1 523 12
	li	a0,16
	jalr	a5
.LVL10:
	sd	a0,-40(s0)
	.loc 1 525 11
	ld	a5,-72(s0)
	addi	a5,a5,-32
	.loc 1 525 119
	lw	a4,0(a5)
	.loc 1 525 204
	li	a5,1768124416
	addi	a5,a5,-1928
	bne	a4,a5,.L71
	.loc 1 525 7 discriminator 1
	ld	a5,-72(s0)
	addi	a5,a5,-32
	sd	a5,-32(s0)
	j	.L72
.L71:
	.loc 1 525 7 is_stmt 0 discriminator 2
	sd	zero,-32(s0)
.L72:
	.loc 1 526 10 is_stmt 1
	sd	zero,-24(s0)
	.loc 1 528 36
	ld	a5,-32(s0)
	lbu	a5,188(a5)
	.loc 1 528 13
	sw	a5,-44(s0)
	.loc 1 530 18
	lbu	a5,-73(s0)
	sext.w	a5,a5
	.loc 1 530 6
	lw	a4,-44(s0)
	sext.w	a4,a4
	bgtu	a4,a5,.L73
	.loc 1 531 12
	li	a5,-1
	slli	a5,a5,63
	addi	a5,a5,2
	sd	a5,-24(s0)
	.loc 1 532 5
	j	.L83
.L73:
	.loc 1 535 28
	lbu	a5,-73(s0)
	sext.w	a5,a5
	addiw	a5,a5,64
	sext.w	a5,a5
	slliw	a5,a5,4
	sext.w	a5,a5
	.loc 1 535 10
	sw	a5,-48(s0)
	.loc 1 536 11
	lw	a5,-48(s0)
	mv	a1,a5
	ld	a0,-32(s0)
	call	XhcReadOpReg@plt
	mv	a5,a0
	sw	a5,-52(s0)
	.loc 1 542 9
	lw	a5,-52(s0)
	mv	a4,a5
	li	a5,-16646144
	addi	a5,a5,-3
	and	a5,a4,a5
	sw	a5,-52(s0)
	.loc 1 544 3
	lw	a5,-80(s0)
	sext.w	a4,a5
	li	a5,13
	beq	a4,a5,.L75
	lw	a5,-80(s0)
	sext.w	a4,a5
	li	a5,13
	bgtu	a4,a5,.L76
	lw	a5,-80(s0)
	sext.w	a4,a5
	li	a5,8
	beq	a4,a5,.L77
	lw	a5,-80(s0)
	sext.w	a4,a5
	li	a5,8
	bgtu	a4,a5,.L76
	lw	a5,-80(s0)
	sext.w	a4,a5
	li	a5,4
	beq	a4,a5,.L84
	lw	a5,-80(s0)
	sext.w	a4,a5
	li	a5,4
	bgtu	a4,a5,.L76
	lw	a5,-80(s0)
	sext.w	a4,a5
	li	a5,1
	beq	a4,a5,.L79
	lw	a5,-80(s0)
	sext.w	a4,a5
	li	a5,2
	beq	a4,a5,.L80
	j	.L76
.L79:
	.loc 1 550 14
	sd	zero,-24(s0)
	.loc 1 551 7
	j	.L83
.L80:
	.loc 1 554 13
	lw	a5,-52(s0)
	mv	a4,a5
	li	a5,65536
	or	a5,a4,a5
	sw	a5,-52(s0)
	.loc 1 555 7
	lw	a4,-52(s0)
	lw	a5,-48(s0)
	mv	a2,a4
	mv	a1,a5
	ld	a0,-32(s0)
	call	XhcWriteOpReg@plt
	.loc 1 556 13
	lw	a5,-52(s0)
	andi	a5,a5,-481
	sw	a5,-52(s0)
	.loc 1 557 13
	lw	a5,-52(s0)
	ori	a5,a5,96
	sw	a5,-52(s0)
	.loc 1 558 7
	lw	a4,-52(s0)
	lw	a5,-48(s0)
	mv	a2,a4
	mv	a1,a5
	ld	a0,-32(s0)
	call	XhcWriteOpReg@plt
	.loc 1 559 7
	j	.L83
.L84:
	.loc 1 566 11
	ld	a0,-32(s0)
	call	XhcIsHalt@plt
	mv	a5,a0
	.loc 1 566 10 discriminator 1
	beq	a5,zero,.L81
	.loc 1 567 18
	li	a5,8192
	addi	a1,a5,1808
	ld	a0,-32(s0)
	call	XhcRunHC@plt
	sd	a0,-24(s0)
	.loc 1 569 40
	ld	a5,-24(s0)
	.loc 1 569 12
	blt	a5,zero,.L85
.L81:
	.loc 1 579 13
	lw	a5,-52(s0)
	ori	a5,a5,16
	sw	a5,-52(s0)
	.loc 1 580 7
	lw	a4,-52(s0)
	lw	a5,-48(s0)
	mv	a2,a4
	mv	a1,a5
	ld	a0,-32(s0)
	call	XhcWriteOpReg@plt
	.loc 1 581 7
	lw	a1,-48(s0)
	li	a5,8192
	addi	a4,a5,1808
	li	a3,1
	li	a2,2097152
	ld	a0,-32(s0)
	call	XhcWaitOpRegBit@plt
	.loc 1 582 7
	j	.L83
.L77:
	.loc 1 588 14
	sd	zero,-24(s0)
	.loc 1 589 7
	j	.L83
.L75:
	.loc 1 595 14
	sd	zero,-24(s0)
	.loc 1 596 7
	j	.L83
.L76:
	.loc 1 599 14
	li	a5,-1
	slli	a5,a5,63
	addi	a5,a5,2
	sd	a5,-24(s0)
	j	.L83
.L74:
.L85:
	.loc 1 571 11
	nop
.L83:
	.loc 1 604 6
	la	a5,gBS
	ld	a5,0(a5)
	ld	a5,32(a5)
	.loc 1 604 3
	ld	a0,-40(s0)
	jalr	a5
.LVL11:
	.loc 1 606 10
	ld	a5,-24(s0)
	.loc 1 607 1
	mv	a0,a5
	ld	ra,72(sp)
	.cfi_restore 1
	ld	s0,64(sp)
	.cfi_restore 8
	.cfi_def_cfa 2, 80
	addi	sp,sp,80
	.cfi_def_cfa_offset 0
	jr	ra
	.cfi_endproc
.LFE5:
	.size	XhcSetRootHubPortFeature, .-XhcSetRootHubPortFeature
	.section	.text.XhcClearRootHubPortFeature,"ax",@progbits
	.align	1
	.globl	XhcClearRootHubPortFeature
	.type	XhcClearRootHubPortFeature, @function
XhcClearRootHubPortFeature:
.LFB6:
	.loc 1 631 1
	.cfi_startproc
	addi	sp,sp,-80
	.cfi_def_cfa_offset 80
	sd	ra,72(sp)
	sd	s0,64(sp)
	.cfi_offset 1, -8
	.cfi_offset 8, -16
	addi	s0,sp,80
	.cfi_def_cfa 8, 0
	sd	a0,-72(s0)
	mv	a5,a1
	mv	a4,a2
	sb	a5,-73(s0)
	mv	a5,a4
	sw	a5,-80(s0)
	.loc 1 639 15
	la	a5,gBS
	ld	a5,0(a5)
	ld	a5,24(a5)
	.loc 1 639 12
	li	a0,16
	jalr	a5
.LVL12:
	sd	a0,-40(s0)
	.loc 1 641 11
	ld	a5,-72(s0)
	addi	a5,a5,-32
	.loc 1 641 119
	lw	a4,0(a5)
	.loc 1 641 204
	li	a5,1768124416
	addi	a5,a5,-1928
	bne	a4,a5,.L87
	.loc 1 641 7 discriminator 1
	ld	a5,-72(s0)
	addi	a5,a5,-32
	sd	a5,-24(s0)
	j	.L88
.L87:
	.loc 1 641 7 is_stmt 0 discriminator 2
	sd	zero,-24(s0)
.L88:
	.loc 1 642 10 is_stmt 1
	sd	zero,-32(s0)
	.loc 1 644 36
	ld	a5,-24(s0)
	lbu	a5,188(a5)
	.loc 1 644 13
	sw	a5,-44(s0)
	.loc 1 646 18
	lbu	a5,-73(s0)
	sext.w	a5,a5
	.loc 1 646 6
	lw	a4,-44(s0)
	sext.w	a4,a4
	bgtu	a4,a5,.L89
	.loc 1 647 12
	li	a5,-1
	slli	a5,a5,63
	addi	a5,a5,2
	sd	a5,-32(s0)
	.loc 1 648 5
	j	.L102
.L89:
	.loc 1 651 19
	lbu	a5,-73(s0)
	sext.w	a5,a5
	addiw	a5,a5,64
	sext.w	a5,a5
	slliw	a5,a5,4
	sext.w	a5,a5
	.loc 1 651 10
	sw	a5,-48(s0)
	.loc 1 657 11
	lw	a5,-48(s0)
	mv	a1,a5
	ld	a0,-24(s0)
	call	XhcReadOpReg@plt
	mv	a5,a0
	sw	a5,-52(s0)
	.loc 1 658 9
	lw	a5,-52(s0)
	mv	a4,a5
	li	a5,-16646144
	addi	a5,a5,-3
	and	a5,a4,a5
	sw	a5,-52(s0)
	.loc 1 660 3
	lw	a5,-80(s0)
	sext.w	a4,a5
	li	a5,20
	beq	a4,a5,.L91
	lw	a5,-80(s0)
	sext.w	a4,a5
	li	a5,20
	bgtu	a4,a5,.L92
	lw	a5,-80(s0)
	sext.w	a4,a5
	li	a5,19
	beq	a4,a5,.L93
	lw	a5,-80(s0)
	sext.w	a4,a5
	li	a5,19
	bgtu	a4,a5,.L92
	lw	a5,-80(s0)
	sext.w	a4,a5
	li	a5,18
	beq	a4,a5,.L103
	lw	a5,-80(s0)
	sext.w	a4,a5
	li	a5,18
	bgtu	a4,a5,.L92
	lw	a5,-80(s0)
	sext.w	a4,a5
	li	a5,17
	beq	a4,a5,.L95
	lw	a5,-80(s0)
	sext.w	a4,a5
	li	a5,17
	bgtu	a4,a5,.L92
	lw	a5,-80(s0)
	sext.w	a4,a5
	li	a5,16
	beq	a4,a5,.L96
	lw	a5,-80(s0)
	sext.w	a4,a5
	li	a5,16
	bgtu	a4,a5,.L92
	lw	a5,-80(s0)
	sext.w	a4,a5
	li	a5,13
	beq	a4,a5,.L104
	lw	a5,-80(s0)
	sext.w	a4,a5
	li	a5,13
	bgtu	a4,a5,.L92
	lw	a5,-80(s0)
	sext.w	a4,a5
	li	a5,8
	beq	a4,a5,.L103
	lw	a5,-80(s0)
	sext.w	a4,a5
	li	a5,8
	bgtu	a4,a5,.L92
	lw	a5,-80(s0)
	sext.w	a4,a5
	li	a5,4
	beq	a4,a5,.L105
	lw	a5,-80(s0)
	sext.w	a4,a5
	li	a5,4
	bgtu	a4,a5,.L92
	lw	a5,-80(s0)
	sext.w	a4,a5
	li	a5,1
	beq	a4,a5,.L99
	lw	a5,-80(s0)
	sext.w	a4,a5
	li	a5,2
	beq	a4,a5,.L100
	j	.L92
.L99:
	.loc 1 666 13
	lw	a5,-52(s0)
	ori	a5,a5,2
	sw	a5,-52(s0)
	.loc 1 667 13
	lw	a5,-52(s0)
	andi	a5,a5,-17
	sw	a5,-52(s0)
	.loc 1 668 7
	lw	a4,-52(s0)
	lw	a5,-48(s0)
	mv	a2,a4
	mv	a1,a5
	ld	a0,-24(s0)
	call	XhcWriteOpReg@plt
	.loc 1 669 7
	j	.L102
.L100:
	.loc 1 672 13
	lw	a5,-52(s0)
	mv	a4,a5
	li	a5,65536
	or	a5,a4,a5
	sw	a5,-52(s0)
	.loc 1 673 7
	lw	a4,-52(s0)
	lw	a5,-48(s0)
	mv	a2,a4
	mv	a1,a5
	ld	a0,-24(s0)
	call	XhcWriteOpReg@plt
	.loc 1 674 13
	lw	a5,-52(s0)
	andi	a5,a5,-481
	sw	a5,-52(s0)
	.loc 1 675 7
	lw	a4,-52(s0)
	lw	a5,-48(s0)
	mv	a2,a4
	mv	a1,a5
	ld	a0,-24(s0)
	call	XhcWriteOpReg@plt
	.loc 1 676 7
	j	.L102
.L96:
	.loc 1 696 13
	lw	a5,-52(s0)
	mv	a4,a5
	li	a5,131072
	or	a5,a4,a5
	sw	a5,-52(s0)
	.loc 1 697 7
	lw	a4,-52(s0)
	lw	a5,-48(s0)
	mv	a2,a4
	mv	a1,a5
	ld	a0,-24(s0)
	call	XhcWriteOpReg@plt
	.loc 1 698 7
	j	.L102
.L95:
	.loc 1 704 13
	lw	a5,-52(s0)
	mv	a4,a5
	li	a5,262144
	or	a5,a4,a5
	sw	a5,-52(s0)
	.loc 1 705 7
	lw	a4,-52(s0)
	lw	a5,-48(s0)
	mv	a2,a4
	mv	a1,a5
	ld	a0,-24(s0)
	call	XhcWriteOpReg@plt
	.loc 1 706 7
	j	.L102
.L93:
	.loc 1 712 13
	lw	a5,-52(s0)
	mv	a4,a5
	li	a5,1048576
	or	a5,a4,a5
	sw	a5,-52(s0)
	.loc 1 713 7
	lw	a4,-52(s0)
	lw	a5,-48(s0)
	mv	a2,a4
	mv	a1,a5
	ld	a0,-24(s0)
	call	XhcWriteOpReg@plt
	.loc 1 714 7
	j	.L102
.L91:
	.loc 1 720 13
	lw	a5,-52(s0)
	mv	a4,a5
	li	a5,2097152
	or	a5,a4,a5
	sw	a5,-52(s0)
	.loc 1 721 7
	lw	a4,-52(s0)
	lw	a5,-48(s0)
	mv	a2,a4
	mv	a1,a5
	ld	a0,-24(s0)
	call	XhcWriteOpReg@plt
	.loc 1 722 7
	j	.L102
.L92:
	.loc 1 732 14
	li	a5,-1
	slli	a5,a5,63
	addi	a5,a5,2
	sd	a5,-32(s0)
	.loc 1 733 7
	j	.L102
.L90:
.L103:
	.loc 1 729 7
	nop
	j	.L102
.L104:
	.loc 1 690 7
	nop
	j	.L102
.L105:
	.loc 1 684 7
	nop
.L102:
	.loc 1 738 6
	la	a5,gBS
	ld	a5,0(a5)
	ld	a5,32(a5)
	.loc 1 738 3
	ld	a0,-40(s0)
	jalr	a5
.LVL13:
	.loc 1 740 10
	ld	a5,-32(s0)
	.loc 1 741 1
	mv	a0,a5
	ld	ra,72(sp)
	.cfi_restore 1
	ld	s0,64(sp)
	.cfi_restore 8
	.cfi_def_cfa 2, 80
	addi	sp,sp,80
	.cfi_def_cfa_offset 0
	jr	ra
	.cfi_endproc
.LFE6:
	.size	XhcClearRootHubPortFeature, .-XhcClearRootHubPortFeature
	.section	.text.XhcTransfer,"ax",@progbits
	.align	1
	.globl	XhcTransfer
	.type	XhcTransfer, @function
XhcTransfer:
.LFB7:
	.loc 1 780 1
	.cfi_startproc
	addi	sp,sp,-128
	.cfi_def_cfa_offset 128
	sd	ra,120(sp)
	sd	s0,112(sp)
	.cfi_offset 1, -8
	.cfi_offset 8, -16
	addi	s0,sp,128
	.cfi_def_cfa 8, 0
	sd	a0,-56(s0)
	sd	a4,-72(s0)
	sd	a5,-80(s0)
	sd	a6,-88(s0)
	sd	a7,-96(s0)
	mv	a5,a1
	sb	a5,-57(s0)
	mv	a5,a2
	sb	a5,-58(s0)
	mv	a5,a3
	sb	a5,-59(s0)
	.loc 1 786 9
	ld	a5,0(s0)
	ld	a5,0(a5)
	lbu	a3,-59(s0)
	lbu	a2,-58(s0)
	lbu	a1,-57(s0)
	sd	zero,16(sp)
	sd	zero,8(sp)
	sd	a5,0(sp)
	ld	a7,-96(s0)
	ld	a6,-88(s0)
	ld	a5,-80(s0)
	ld	a4,-72(s0)
	ld	a0,-56(s0)
	call	XhcCreateUrb@plt
	sd	a0,-32(s0)
	.loc 1 800 6
	ld	a5,-32(s0)
	bne	a5,zero,.L107
	.loc 1 802 12
	li	a5,-1
	slli	a5,a5,63
	addi	a5,a5,9
	j	.L108
.L107:
	.loc 1 805 12
	ld	a3,8(s0)
	ld	a2,-32(s0)
	li	a1,0
	ld	a0,-56(s0)
	call	XhcExecTransfer@plt
	sd	a0,-24(s0)
	.loc 1 807 6
	ld	a4,-24(s0)
	li	a5,-1
	slli	a5,a5,63
	addi	a5,a5,18
	bne	a4,a5,.L109
	.loc 1 811 22
	ld	a1,-32(s0)
	ld	a0,-56(s0)
	call	XhcDequeueTrbFromEndpoint@plt
	sd	a0,-40(s0)
	.loc 1 812 8
	ld	a4,-40(s0)
	li	a5,-1
	slli	a5,a5,63
	addi	a5,a5,20
	bne	a4,a5,.L109
	.loc 1 818 14
	sd	zero,-24(s0)
.L109:
	.loc 1 825 24
	ld	a5,-32(s0)
	lw	a4,112(a5)
	.loc 1 825 19
	ld	a5,16(s0)
	sw	a4,0(a5)
	.loc 1 826 20
	ld	a5,-32(s0)
	ld	a4,120(a5)
	.loc 1 826 15
	ld	a5,0(s0)
	sd	a4,0(a5)
	.loc 1 831 8
	ld	a5,16(s0)
	lw	a4,0(a5)
	.loc 1 831 6
	li	a5,2
	beq	a4,a5,.L111
	.loc 1 831 37 discriminator 1
	ld	a5,16(s0)
	lw	a4,0(a5)
	.loc 1 831 33 discriminator 1
	li	a5,8
	beq	a4,a5,.L111
	.loc 1 831 66 discriminator 2
	ld	a5,16(s0)
	lw	a4,0(a5)
	.loc 1 831 62 discriminator 2
	li	a5,512
	bne	a4,a5,.L112
.L111:
	.loc 1 833 22
	ld	a1,-32(s0)
	ld	a0,-56(s0)
	call	XhcRecoverHaltedEndpoint@plt
	sd	a0,-40(s0)
.L112:
	.loc 1 839 6
	ld	a5,-56(s0)
	ld	a5,8(a5)
	.loc 1 839 13
	ld	a5,104(a5)
	.loc 1 839 3
	ld	a4,-56(s0)
	ld	a4,8(a4)
	mv	a0,a4
	jalr	a5
.LVL14:
	.loc 1 840 3
	ld	a1,-32(s0)
	ld	a0,-56(s0)
	call	XhcFreeUrb@plt
	.loc 1 841 10
	ld	a5,-24(s0)
.L108:
	.loc 1 842 1
	mv	a0,a5
	ld	ra,120(sp)
	.cfi_restore 1
	ld	s0,112(sp)
	.cfi_restore 8
	.cfi_def_cfa 2, 128
	addi	sp,sp,128
	.cfi_def_cfa_offset 0
	jr	ra
	.cfi_endproc
.LFE7:
	.size	XhcTransfer, .-XhcTransfer
	.section	.text.XhcControlTransfer,"ax",@progbits
	.align	1
	.globl	XhcControlTransfer
	.type	XhcControlTransfer, @function
XhcControlTransfer:
.LFB8:
	.loc 1 883 1
	.cfi_startproc
	addi	sp,sp,-208
	.cfi_def_cfa_offset 208
	sd	ra,200(sp)
	sd	s0,192(sp)
	sd	s1,184(sp)
	.cfi_offset 1, -8
	.cfi_offset 8, -16
	.cfi_offset 9, -24
	addi	s0,sp,208
	.cfi_def_cfa 8, 0
	sd	a0,-136(s0)
	sd	a3,-152(s0)
	sd	a4,-160(s0)
	mv	a4,a5
	sd	a6,-168(s0)
	sd	a7,-176(s0)
	mv	a5,a1
	sb	a5,-137(s0)
	mv	a5,a2
	sb	a5,-138(s0)
	mv	a5,a4
	sw	a5,-144(s0)
	.loc 1 904 6
	ld	a5,-160(s0)
	beq	a5,zero,.L114
	.loc 1 904 33 discriminator 1
	ld	a5,16(s0)
	bne	a5,zero,.L115
.L114:
	.loc 1 905 12
	li	a5,-1
	slli	a5,a5,63
	addi	a5,a5,2
	j	.L175
.L115:
	.loc 1 908 6
	lw	a5,-144(s0)
	sext.w	a5,a5
	beq	a5,zero,.L117
	.loc 1 908 43 discriminator 1
	lw	a5,-144(s0)
	sext.w	a4,a5
	li	a5,1
	beq	a4,a5,.L117
	.loc 1 909 44
	lw	a5,-144(s0)
	sext.w	a4,a5
	li	a5,2
	beq	a4,a5,.L117
	.loc 1 912 12
	li	a5,-1
	slli	a5,a5,63
	addi	a5,a5,2
	j	.L175
.L117:
	.loc 1 915 6
	lw	a5,-144(s0)
	sext.w	a4,a5
	li	a5,2
	bne	a4,a5,.L118
	.loc 1 915 43 discriminator 1
	ld	a5,-168(s0)
	bne	a5,zero,.L119
	.loc 1 916 35
	ld	a5,-176(s0)
	ld	a5,0(a5)
	.loc 1 916 31
	beq	a5,zero,.L118
.L119:
	.loc 1 918 12
	li	a5,-1
	slli	a5,a5,63
	addi	a5,a5,2
	j	.L175
.L118:
	.loc 1 921 6
	lw	a5,-144(s0)
	sext.w	a4,a5
	li	a5,2
	beq	a4,a5,.L120
	.loc 1 921 43 discriminator 1
	ld	a5,-168(s0)
	beq	a5,zero,.L121
	.loc 1 922 35
	ld	a5,-176(s0)
	ld	a5,0(a5)
	.loc 1 922 31
	bne	a5,zero,.L120
.L121:
	.loc 1 924 12
	li	a5,-1
	slli	a5,a5,63
	addi	a5,a5,2
	j	.L175
.L120:
	.loc 1 927 6
	ld	a4,-152(s0)
	li	a5,8
	beq	a4,a5,.L122
	.loc 1 927 34 discriminator 1
	ld	a4,-152(s0)
	li	a5,16
	beq	a4,a5,.L122
	.loc 1 927 65 discriminator 2
	ld	a4,-152(s0)
	li	a5,32
	beq	a4,a5,.L122
	.loc 1 928 35
	ld	a4,-152(s0)
	li	a5,64
	beq	a4,a5,.L122
	.loc 1 928 66 discriminator 1
	ld	a4,-152(s0)
	li	a5,512
	beq	a4,a5,.L122
	.loc 1 932 12
	li	a5,-1
	slli	a5,a5,63
	addi	a5,a5,2
	j	.L175
.L122:
	.loc 1 935 6
	lbu	a5,-138(s0)
	andi	a4,a5,0xff
	li	a5,1
	bne	a4,a5,.L123
	.loc 1 935 31 discriminator 1
	ld	a4,-152(s0)
	li	a5,8
	beq	a4,a5,.L123
	.loc 1 936 12
	li	a5,-1
	slli	a5,a5,63
	addi	a5,a5,2
	j	.L175
.L123:
	.loc 1 939 6
	lbu	a5,-138(s0)
	andi	a4,a5,0xff
	li	a5,3
	bne	a4,a5,.L124
	.loc 1 939 31 discriminator 1
	ld	a4,-152(s0)
	li	a5,512
	beq	a4,a5,.L124
	.loc 1 940 12
	li	a5,-1
	slli	a5,a5,63
	addi	a5,a5,2
	j	.L175
.L124:
	.loc 1 943 15
	la	a5,gBS
	ld	a5,0(a5)
	ld	a5,24(a5)
	.loc 1 943 12
	li	a0,16
	jalr	a5
.LVL15:
	sd	a0,-72(s0)
	.loc 1 945 11
	ld	a5,-136(s0)
	addi	a5,a5,-32
	.loc 1 945 119
	lw	a4,0(a5)
	.loc 1 945 204
	li	a5,1768124416
	addi	a5,a5,-1928
	bne	a4,a5,.L125
	.loc 1 945 7 discriminator 1
	ld	a5,-136(s0)
	addi	a5,a5,-32
	sd	a5,-48(s0)
	j	.L126
.L125:
	.loc 1 945 7 is_stmt 0 discriminator 2
	sd	zero,-48(s0)
.L126:
	.loc 1 947 10 is_stmt 1
	li	a5,-1
	slli	a5,a5,63
	addi	a5,a5,7
	sd	a5,-64(s0)
	.loc 1 948 19
	ld	a5,16(s0)
	li	a4,256
	sw	a4,0(a5)
	.loc 1 949 7
	sd	zero,-128(s0)
	.loc 1 951 7
	ld	a0,-48(s0)
	call	XhcIsHalt@plt
	mv	a5,a0
	.loc 1 951 6 discriminator 1
	bne	a5,zero,.L176
	.loc 1 951 26 discriminator 2
	ld	a0,-48(s0)
	call	XhcIsSysError@plt
	mv	a5,a0
	.loc 1 951 23 discriminator 3
	bne	a5,zero,.L176
	.loc 1 959 12
	lbu	a5,-137(s0)
	mv	a1,a5
	ld	a0,-48(s0)
	call	XhcBusDevAddrToSlotId@plt
	mv	a5,a0
	sb	a5,-73(s0)
	.loc 1 960 6
	lbu	a5,-73(s0)
	andi	a5,a5,0xff
	beq	a5,zero,.L177
	.loc 1 968 15
	ld	a5,-160(s0)
	lbu	a5,1(a5)
	.loc 1 968 6
	mv	a4,a5
	li	a5,5
	bne	a4,a5,.L131
	.loc 1 969 15
	ld	a5,-160(s0)
	lbu	a5,0(a5)
	.loc 1 968 49 discriminator 1
	bne	a5,zero,.L131
	.loc 1 975 16
	sb	zero,-33(s0)
	.loc 1 975 5
	j	.L132
.L134:
	.loc 1 976 37
	lbu	a5,-33(s0)
	sext.w	a5,a5
	addiw	a5,a5,1
	sext.w	a3,a5
	.loc 1 976 41
	ld	a4,-48(s0)
	li	a5,328
	mul	a5,a3,a5
	add	a5,a4,a5
	lbu	a5,408(a5)
	.loc 1 976 10
	bne	a5,zero,.L133
	.loc 1 977 37
	lbu	a5,-33(s0)
	sext.w	a5,a5
	addiw	a5,a5,1
	sext.w	a3,a5
	.loc 1 977 41
	ld	a4,-48(s0)
	li	a5,328
	mul	a5,a3,a5
	add	a5,a4,a5
	lbu	a5,409(a5)
	.loc 1 976 50 discriminator 1
	bne	a5,zero,.L133
	.loc 1 978 37
	lbu	a5,-33(s0)
	sext.w	a5,a5
	addiw	a5,a5,1
	sext.w	a3,a5
	.loc 1 978 41
	ld	a4,-48(s0)
	li	a5,328
	mul	a5,a3,a5
	add	a5,a4,a5
	lbu	a3,421(a5)
	.loc 1 978 70
	ld	a5,-160(s0)
	lbu	a4,2(a5)
	lbu	a5,3(a5)
	slli	a5,a5,8
	or	a5,a5,a4
	slli	a5,a5,48
	srli	a5,a5,48
	.loc 1 978 53
	andi	a5,a5,0xff
	.loc 1 977 55
	mv	a4,a3
	bne	a4,a5,.L133
	.loc 1 980 34
	lbu	a5,-33(s0)
	sext.w	a5,a5
	addiw	a5,a5,1
	sext.w	a3,a5
	.loc 1 980 50
	ld	a4,-48(s0)
	li	a5,328
	mul	a5,a3,a5
	add	a5,a4,a5
	sb	zero,421(a5)
.L133:
	.loc 1 975 39 discriminator 2
	lbu	a5,-33(s0)
	addiw	a5,a5,1
	sb	a5,-33(s0)
.L132:
	.loc 1 975 27 discriminator 1
	lbu	a5,-33(s0)
	andi	a4,a5,0xff
	li	a5,255
	bne	a4,a5,.L134
	.loc 1 984 35
	lbu	a5,-73(s0)
	sext.w	a3,a5
	ld	a4,-48(s0)
	li	a5,328
	mul	a5,a3,a5
	add	a5,a4,a5
	lbu	a5,420(a5)
	.loc 1 984 8
	bne	a5,zero,.L135
	.loc 1 985 14
	li	a5,-1
	slli	a5,a5,63
	addi	a5,a5,7
	sd	a5,-64(s0)
	.loc 1 986 7
	j	.L129
.L135:
	.loc 1 995 59
	ld	a5,-160(s0)
	lbu	a4,2(a5)
	lbu	a5,3(a5)
	slli	a5,a5,8
	or	a5,a5,a4
	slli	a5,a5,48
	srli	a5,a5,48
	.loc 1 995 31
	lbu	a4,-73(s0)
	sext.w	a2,a4
	.loc 1 995 45
	andi	a4,a5,0xff
	.loc 1 995 43
	ld	a3,-48(s0)
	li	a5,328
	mul	a5,a2,a5
	add	a5,a3,a5
	sb	a4,421(a5)
	.loc 1 996 12
	sd	zero,-64(s0)
	.loc 1 997 5
	j	.L129
.L131:
	.loc 1 1007 14
	lw	a5,-144(s0)
	sext.w	a5,a5
	bne	a5,zero,.L136
	.loc 1 1007 12 discriminator 1
	li	a5,-128
	sb	a5,-34(s0)
	j	.L137
.L136:
	.loc 1 1007 12 is_stmt 0 discriminator 2
	sb	zero,-34(s0)
.L137:
	.loc 1 1008 12 is_stmt 1
	lbu	a3,-138(s0)
	lbu	a2,-34(s0)
	lbu	a1,-137(s0)
	ld	a5,16(s0)
	sd	a5,16(sp)
	ld	a5,0(s0)
	sd	a5,8(sp)
	ld	a5,-176(s0)
	sd	a5,0(sp)
	ld	a7,-168(s0)
	ld	a6,-160(s0)
	li	a5,1
	ld	a4,-152(s0)
	ld	a0,-48(s0)
	call	XhcTransfer
	sd	a0,-64(s0)
	.loc 1 1022 34
	ld	a5,-64(s0)
	.loc 1 1022 6
	blt	a5,zero,.L178
	.loc 1 1031 15
	ld	a5,-160(s0)
	lbu	a5,1(a5)
	.loc 1 1031 6
	mv	a4,a5
	li	a5,6
	bne	a4,a5,.L139
	.loc 1 1032 16
	ld	a5,-160(s0)
	lbu	a5,0(a5)
	.loc 1 1031 52 discriminator 1
	mv	a4,a5
	li	a5,128
	beq	a4,a5,.L140
	.loc 1 1033 17
	ld	a5,-160(s0)
	lbu	a5,0(a5)
	.loc 1 1032 144
	mv	a4,a5
	li	a5,160
	bne	a4,a5,.L139
.L140:
	.loc 1 1035 37
	ld	a5,-160(s0)
	lbu	a4,2(a5)
	lbu	a5,3(a5)
	slli	a5,a5,8
	or	a5,a5,a4
	slli	a5,a5,48
	srli	a5,a5,48
	.loc 1 1035 22
	srliw	a5,a5,8
	slli	a5,a5,48
	srli	a5,a5,48
	.loc 1 1035 20
	sb	a5,-74(s0)
	.loc 1 1036 8
	lbu	a5,-74(s0)
	andi	a4,a5,0xff
	li	a5,1
	bne	a4,a5,.L141
	.loc 1 1036 55 discriminator 1
	ld	a5,-176(s0)
	ld	a4,0(a5)
	.loc 1 1036 50 discriminator 1
	li	a5,18
	beq	a4,a5,.L142
	.loc 1 1036 106 discriminator 2
	lbu	a5,-138(s0)
	andi	a5,a5,0xff
	bne	a5,zero,.L141
	.loc 1 1036 138 discriminator 3
	ld	a5,-176(s0)
	ld	a4,0(a5)
	.loc 1 1036 134 discriminator 3
	li	a5,8
	bne	a4,a5,.L141
.L142:
	.loc 1 1041 43
	lbu	a5,-73(s0)
	sext.w	a4,a5
	.loc 1 1041 16
	li	a5,328
	mul	a5,a4,a5
	addi	a5,a5,672
	ld	a4,-48(s0)
	add	a5,a4,a5
	addi	a4,a5,16
	.loc 1 1041 7
	ld	a5,-176(s0)
	ld	a5,0(a5)
	mv	a2,a5
	ld	a1,-168(s0)
	mv	a0,a4
	call	CopyMem@plt
	.loc 1 1042 45
	lbu	a5,-73(s0)
	sext.w	a3,a5
	ld	a4,-48(s0)
	li	a5,328
	mul	a5,a3,a5
	add	a5,a4,a5
	lhu	a5,690(a5)
	.loc 1 1042 10
	sext.w	a4,a5
	li	a5,767
	bleu	a4,a5,.L143
	.loc 1 1046 61
	lbu	a5,-73(s0)
	sext.w	a3,a5
	ld	a4,-48(s0)
	li	a5,328
	mul	a5,a3,a5
	add	a5,a4,a5
	lbu	a5,695(a5)
	sext.w	a5,a5
	.loc 1 1046 24
	li	a4,1
	sllw	a5,a4,a5
	sext.w	a5,a5
	.loc 1 1046 20
	sw	a5,-56(s0)
	j	.L144
.L143:
	.loc 1 1048 56
	lbu	a5,-73(s0)
	sext.w	a3,a5
	ld	a4,-48(s0)
	li	a5,328
	mul	a5,a3,a5
	add	a5,a4,a5
	lbu	a5,695(a5)
	.loc 1 1048 20
	sw	a5,-56(s0)
.L144:
	.loc 1 1051 97
	lbu	a5,-73(s0)
	sext.w	a3,a5
	ld	a4,-48(s0)
	li	a5,328
	mul	a5,a3,a5
	add	a5,a4,a5
	lbu	a5,705(a5)
	.loc 1 1051 116
	slli	a5,a5,3
	.loc 1 1051 33
	lbu	a4,-73(s0)
	sext.w	s1,a4
	.loc 1 1051 45
	mv	a0,a5
	call	AllocateZeroPool@plt
	mv	a3,a0
	.loc 1 1051 43 discriminator 1
	ld	a4,-48(s0)
	li	a5,328
	mul	a5,s1,a5
	add	a5,a4,a5
	sd	a3,712(a5)
	.loc 1 1052 35
	ld	a5,-48(s0)
	lbu	a5,193(a5)
	andi	a5,a5,4
	andi	a5,a5,0xff
	.loc 1 1052 10
	bne	a5,zero,.L145
	.loc 1 1053 18
	lw	a4,-56(s0)
	lbu	a5,-73(s0)
	mv	a2,a4
	mv	a1,a5
	ld	a0,-48(s0)
	call	XhcEvaluateContext@plt
	sd	a0,-64(s0)
	.loc 1 1052 10
	j	.L147
.L145:
	.loc 1 1055 18
	lw	a4,-56(s0)
	lbu	a5,-73(s0)
	mv	a2,a4
	mv	a1,a5
	ld	a0,-48(s0)
	call	XhcEvaluateContext64@plt
	sd	a0,-64(s0)
	.loc 1 1052 10
	j	.L147
.L141:
	.loc 1 1057 15
	lbu	a5,-74(s0)
	andi	a4,a5,0xff
	li	a5,2
	bne	a4,a5,.L148
	.loc 1 1059 11
	ld	a5,-176(s0)
	ld	a5,0(a5)
	.loc 1 1059 42
	ld	a4,-168(s0)
	addi	a4,a4,2
	lhu	a4,0(a4)
	.loc 1 1059 10
	bne	a5,a4,.L179
	.loc 1 1063 31
	ld	a5,-160(s0)
	lbu	a4,2(a5)
	lbu	a5,3(a5)
	slli	a5,a5,8
	or	a5,a5,a4
	slli	a5,a5,48
	srli	a5,a5,48
	.loc 1 1063 15
	sb	a5,-33(s0)
	.loc 1 1065 54
	ld	a5,-176(s0)
	ld	a2,0(a5)
	.loc 1 1065 35
	lbu	a5,-73(s0)
	sext.w	a3,a5
	ld	a4,-48(s0)
	li	a5,328
	mul	a5,a3,a5
	add	a5,a4,a5
	ld	a4,712(a5)
	.loc 1 1065 44
	lbu	a5,-33(s0)
	slli	a5,a5,3
	add	s1,a4,a5
	.loc 1 1065 54
	mv	a0,a2
	call	AllocateZeroPool@plt
	mv	a5,a0
	.loc 1 1065 52 discriminator 1
	sd	a5,0(s1)
	.loc 1 1066 44
	lbu	a5,-73(s0)
	sext.w	a3,a5
	ld	a4,-48(s0)
	li	a5,328
	mul	a5,a3,a5
	add	a5,a4,a5
	ld	a4,712(a5)
	.loc 1 1066 53
	lbu	a5,-33(s0)
	slli	a5,a5,3
	add	a5,a4,a5
	.loc 1 1066 9
	ld	a4,0(a5)
	ld	a5,-176(s0)
	ld	a5,0(a5)
	mv	a2,a5
	ld	a1,-168(s0)
	mv	a0,a4
	call	CopyMem@plt
	.loc 1 1070 105
	lbu	a5,-73(s0)
	sext.w	a3,a5
	ld	a4,-48(s0)
	li	a5,328
	mul	a5,a3,a5
	add	a5,a4,a5
	ld	a4,712(a5)
	.loc 1 1070 114
	lbu	a5,-33(s0)
	slli	a5,a5,3
	add	a5,a4,a5
	ld	a5,0(a5)
	.loc 1 1070 121
	lbu	a5,4(a5)
	.loc 1 1070 61
	mv	a4,a5
	.loc 1 1070 35
	lbu	a5,-73(s0)
	sext.w	s1,a5
	.loc 1 1070 61
	mv	a0,a4
	call	AllocateZeroPool@plt
	mv	a3,a0
	.loc 1 1070 59 discriminator 1
	ld	a4,-48(s0)
	li	a5,328
	mul	a5,s1,a5
	add	a5,a4,a5
	sd	a3,728(a5)
	.loc 1 1036 8
	j	.L179
.L148:
	.loc 1 1072 15
	lbu	a5,-74(s0)
	andi	a4,a5,0xff
	li	a5,41
	beq	a4,a5,.L149
	.loc 1 1072 42 discriminator 1
	lbu	a5,-74(s0)
	andi	a4,a5,0xff
	li	a5,42
	bne	a4,a5,.L179
.L149:
	.loc 1 1073 47
	ld	a5,-176(s0)
	ld	a4,0(a5)
	.loc 1 1073 43
	li	a5,2
	bleu	a4,a5,.L179
	.loc 1 1076 15
	ld	a5,-168(s0)
	sd	a5,-88(s0)
	.loc 1 1081 29
	ld	a5,-88(s0)
	lbu	a4,3(a5)
	lbu	a5,4(a5)
	slli	a5,a5,8
	or	a5,a5,a4
	slli	a5,a5,48
	srli	a5,a5,48
	.loc 1 1081 73
	sext.w	a5,a5
	sraiw	a5,a5,5
	sext.w	a5,a5
	.loc 1 1081 13
	andi	a5,a5,0xff
	.loc 1 1081 11
	andi	a5,a5,3
	sb	a5,-89(s0)
	.loc 1 1082 45
	lbu	a5,-73(s0)
	sext.w	a3,a5
	ld	a4,-48(s0)
	li	a5,328
	mul	a5,a3,a5
	add	a5,a4,a5
	lbu	a5,694(a5)
	.loc 1 1082 10
	mv	a4,a5
	li	a5,2
	bne	a4,a5,.L150
	.loc 1 1086 13
	sb	zero,-49(s0)
	j	.L151
.L150:
	.loc 1 1089 13
	sb	zero,-49(s0)
.L151:
	.loc 1 1092 35
	ld	a5,-48(s0)
	lbu	a5,193(a5)
	andi	a5,a5,4
	andi	a5,a5,0xff
	.loc 1 1092 10
	bne	a5,zero,.L152
	.loc 1 1093 18
	ld	a5,-88(s0)
	lbu	a2,2(a5)
	lbu	a4,-49(s0)
	lbu	a3,-89(s0)
	lbu	a5,-73(s0)
	mv	a1,a5
	ld	a0,-48(s0)
	call	XhcConfigHubContext@plt
	sd	a0,-64(s0)
	.loc 1 1036 8
	j	.L179
.L152:
	.loc 1 1095 18
	ld	a5,-88(s0)
	lbu	a2,2(a5)
	lbu	a4,-49(s0)
	lbu	a3,-89(s0)
	lbu	a5,-73(s0)
	mv	a1,a5
	ld	a0,-48(s0)
	call	XhcConfigHubContext64@plt
	sd	a0,-64(s0)
	.loc 1 1036 8
	j	.L179
.L147:
	j	.L179
.L139:
	.loc 1 1098 22
	ld	a5,-160(s0)
	lbu	a5,1(a5)
	.loc 1 1098 13
	mv	a4,a5
	li	a5,9
	bne	a4,a5,.L153
	.loc 1 1099 22
	ld	a5,-160(s0)
	lbu	a5,0(a5)
	.loc 1 1098 55 discriminator 1
	bne	a5,zero,.L153
	.loc 1 1104 16
	sb	zero,-33(s0)
	.loc 1 1104 5
	j	.L154
.L159:
	.loc 1 1105 37
	lbu	a5,-73(s0)
	sext.w	a3,a5
	ld	a4,-48(s0)
	li	a5,328
	mul	a5,a3,a5
	add	a5,a4,a5
	ld	a4,712(a5)
	.loc 1 1105 46
	lbu	a5,-33(s0)
	slli	a5,a5,3
	add	a5,a4,a5
	ld	a5,0(a5)
	.loc 1 1105 53
	lbu	a3,5(a5)
	.loc 1 1105 91
	ld	a5,-160(s0)
	lbu	a4,2(a5)
	lbu	a5,3(a5)
	slli	a5,a5,8
	or	a5,a5,a4
	slli	a5,a5,48
	srli	a5,a5,48
	.loc 1 1105 74
	andi	a5,a5,0xff
	.loc 1 1105 10
	mv	a4,a3
	bne	a4,a5,.L155
	.loc 1 1106 37
	ld	a5,-48(s0)
	lbu	a5,193(a5)
	andi	a5,a5,4
	andi	a5,a5,0xff
	.loc 1 1106 12
	bne	a5,zero,.L156
	.loc 1 1107 89
	lbu	a5,-73(s0)
	sext.w	a3,a5
	ld	a4,-48(s0)
	li	a5,328
	mul	a5,a3,a5
	add	a5,a4,a5
	ld	a4,712(a5)
	.loc 1 1107 98
	lbu	a5,-33(s0)
	slli	a5,a5,3
	add	a5,a4,a5
	.loc 1 1107 20
	ld	a3,0(a5)
	lbu	a4,-138(s0)
	lbu	a5,-73(s0)
	mv	a2,a4
	mv	a1,a5
	ld	a0,-48(s0)
	call	XhcSetConfigCmd@plt
	sd	a0,-64(s0)
	.loc 1 1112 9
	j	.L158
.L156:
	.loc 1 1109 91
	lbu	a5,-73(s0)
	sext.w	a3,a5
	ld	a4,-48(s0)
	li	a5,328
	mul	a5,a3,a5
	add	a5,a4,a5
	ld	a4,712(a5)
	.loc 1 1109 100
	lbu	a5,-33(s0)
	slli	a5,a5,3
	add	a5,a4,a5
	.loc 1 1109 20
	ld	a3,0(a5)
	lbu	a4,-138(s0)
	lbu	a5,-73(s0)
	mv	a2,a4
	mv	a1,a5
	ld	a0,-48(s0)
	call	XhcSetConfigCmd64@plt
	sd	a0,-64(s0)
	.loc 1 1112 9
	j	.L158
.L155:
	.loc 1 1104 88 discriminator 2
	lbu	a5,-33(s0)
	addiw	a5,a5,1
	sb	a5,-33(s0)
.L154:
	.loc 1 1104 63 discriminator 1
	lbu	a5,-73(s0)
	sext.w	a3,a5
	ld	a4,-48(s0)
	li	a5,328
	mul	a5,a3,a5
	add	a5,a4,a5
	lbu	a4,705(a5)
	.loc 1 1104 27 discriminator 1
	lbu	a5,-33(s0)
	andi	a5,a5,0xff
	bltu	a5,a4,.L159
	.loc 1 1098 13
	j	.L129
.L158:
	j	.L129
.L153:
	.loc 1 1115 22
	ld	a5,-160(s0)
	lbu	a5,1(a5)
	.loc 1 1115 13
	mv	a4,a5
	li	a5,11
	bne	a4,a5,.L160
	.loc 1 1116 22
	ld	a5,-160(s0)
	lbu	a5,0(a5)
	.loc 1 1115 58 discriminator 1
	mv	a4,a5
	li	a5,1
	bne	a4,a5,.L160
	.loc 1 1123 35
	lbu	a5,-73(s0)
	sext.w	a3,a5
	ld	a4,-48(s0)
	li	a5,328
	mul	a5,a3,a5
	add	a5,a4,a5
	ld	a4,728(a5)
	.loc 1 1123 73
	ld	a5,-160(s0)
	lbu	a3,4(a5)
	lbu	a5,5(a5)
	slli	a5,a5,8
	or	a5,a5,a3
	slli	a5,a5,48
	srli	a5,a5,48
	.loc 1 1123 59
	andi	a5,a5,0xff
	.loc 1 1123 58
	add	a5,a4,a5
	lbu	a3,0(a5)
	.loc 1 1123 99
	ld	a5,-160(s0)
	lbu	a4,2(a5)
	lbu	a5,3(a5)
	slli	a5,a5,8
	or	a5,a5,a4
	slli	a5,a5,48
	srli	a5,a5,48
	.loc 1 1123 82
	andi	a5,a5,0xff
	.loc 1 1123 8
	mv	a4,a3
	beq	a4,a5,.L129
	.loc 1 1124 35
	ld	a5,-48(s0)
	lbu	a5,193(a5)
	andi	a5,a5,4
	andi	a5,a5,0xff
	.loc 1 1124 10
	bne	a5,zero,.L162
	.loc 1 1125 87
	lbu	a5,-73(s0)
	sext.w	a3,a5
	ld	a4,-48(s0)
	li	a5,328
	mul	a5,a3,a5
	add	a5,a4,a5
	ld	a4,712(a5)
	.loc 1 1125 123
	lbu	a5,-73(s0)
	sext.w	a2,a5
	ld	a3,-48(s0)
	li	a5,328
	mul	a5,a2,a5
	add	a5,a3,a5
	lbu	a5,720(a5)
	.loc 1 1125 96
	slli	a5,a5,3
	addi	a5,a5,-8
	add	a5,a4,a5
	.loc 1 1125 18
	ld	a3,0(a5)
	lbu	a2,-138(s0)
	lbu	a5,-73(s0)
	ld	a4,-160(s0)
	mv	a1,a5
	ld	a0,-48(s0)
	call	XhcSetInterface@plt
	sd	a0,-64(s0)
	.loc 1 1123 8
	j	.L129
.L162:
	.loc 1 1127 89
	lbu	a5,-73(s0)
	sext.w	a3,a5
	ld	a4,-48(s0)
	li	a5,328
	mul	a5,a3,a5
	add	a5,a4,a5
	ld	a4,712(a5)
	.loc 1 1127 125
	lbu	a5,-73(s0)
	sext.w	a2,a5
	ld	a3,-48(s0)
	li	a5,328
	mul	a5,a2,a5
	add	a5,a3,a5
	lbu	a5,720(a5)
	.loc 1 1127 98
	slli	a5,a5,3
	addi	a5,a5,-8
	add	a5,a4,a5
	.loc 1 1127 18
	ld	a3,0(a5)
	lbu	a2,-138(s0)
	lbu	a5,-73(s0)
	ld	a4,-160(s0)
	mv	a1,a5
	ld	a0,-48(s0)
	call	XhcSetInterface64@plt
	sd	a0,-64(s0)
	.loc 1 1123 8
	j	.L129
.L160:
	.loc 1 1130 22
	ld	a5,-160(s0)
	lbu	a5,1(a5)
	.loc 1 1130 13
	bne	a5,zero,.L180
	.loc 1 1131 22
	ld	a5,-160(s0)
	lbu	a5,0(a5)
	.loc 1 1130 55 discriminator 1
	mv	a4,a5
	li	a5,163
	bne	a4,a5,.L180
	.loc 1 1137 11
	ld	a5,-168(s0)
	lw	a5,0(a5)
	sw	a5,-96(s0)
	.loc 1 1138 27
	sh	zero,-112(s0)
	.loc 1 1139 33
	sh	zero,-110(s0)
	.loc 1 1141 8
	lbu	a5,-138(s0)
	andi	a4,a5,0xff
	li	a5,3
	bne	a4,a5,.L163
	.loc 1 1145 73
	lw	a5,-96(s0)
	mv	a4,a5
	li	a5,16384
	addi	a5,a5,-1024
	and	a5,a4,a5
	sext.w	a5,a5
	.loc 1 1145 10
	bne	a5,zero,.L164
	.loc 1 1146 19
	lhu	a4,-112(s0)
	.loc 1 1146 31
	li	a5,4096
	addi	a5,a5,-2048
	or	a5,a4,a5
	slli	a5,a5,48
	srli	a5,a5,48
	sh	a5,-112(s0)
	j	.L164
.L163:
	.loc 1 1152 31
	lw	a5,-96(s0)
	andi	a5,a5,512
	sext.w	a5,a5
	.loc 1 1152 10
	beq	a5,zero,.L165
	.loc 1 1153 19
	lhu	a5,-112(s0)
	.loc 1 1153 31
	ori	a5,a5,512
	slli	a5,a5,48
	srli	a5,a5,48
	sh	a5,-112(s0)
	j	.L164
.L165:
	.loc 1 1154 38
	lw	a5,-96(s0)
	andi	a5,a5,1024
	sext.w	a5,a5
	.loc 1 1154 17
	beq	a5,zero,.L164
	.loc 1 1155 19
	lhu	a5,-112(s0)
	.loc 1 1155 31
	ori	a5,a5,1024
	slli	a5,a5,48
	srli	a5,a5,48
	sh	a5,-112(s0)
.L164:
	.loc 1 1162 13
	li	a5,4
	sd	a5,-104(s0)
	.loc 1 1163 16
	sb	zero,-33(s0)
	.loc 1 1163 5
	j	.L166
.L168:
	.loc 1 1164 60
	lbu	a5,-33(s0)
	sext.w	a5,a5
	lla	a4,mUsbHubPortStateMap
	slli	a5,a5,3
	add	a5,a4,a5
	lw	a5,0(a5)
	.loc 1 1164 31
	lw	a4,-96(s0)
	and	a5,a4,a5
	sext.w	a4,a5
	.loc 1 1164 101
	lbu	a5,-33(s0)
	sext.w	a5,a5
	lla	a3,mUsbHubPortStateMap
	slli	a5,a5,3
	add	a5,a3,a5
	lw	a5,0(a5)
	.loc 1 1164 10
	bne	a4,a5,.L167
	.loc 1 1165 52
	lhu	a4,-112(s0)
	.loc 1 1165 92
	lbu	a5,-33(s0)
	sext.w	a5,a5
	lla	a3,mUsbHubPortStateMap
	slli	a5,a5,3
	add	a5,a3,a5
	lhu	a5,4(a5)
	.loc 1 1165 33
	or	a5,a4,a5
	slli	a5,a5,48
	srli	a5,a5,48
	.loc 1 1165 31
	sh	a5,-112(s0)
.L167:
	.loc 1 1163 43 discriminator 2
	lbu	a5,-33(s0)
	addiw	a5,a5,1
	sb	a5,-33(s0)
.L166:
	.loc 1 1163 27 discriminator 1
	lbu	a5,-33(s0)
	ld	a4,-104(s0)
	bgtu	a4,a5,.L168
	.loc 1 1169 13
	li	a5,4
	sd	a5,-104(s0)
	.loc 1 1170 16
	sb	zero,-33(s0)
	.loc 1 1170 5
	j	.L169
.L171:
	.loc 1 1171 61
	lbu	a5,-33(s0)
	sext.w	a5,a5
	lla	a4,mUsbHubPortChangeMap
	slli	a5,a5,3
	add	a5,a4,a5
	lw	a5,0(a5)
	.loc 1 1171 31
	lw	a4,-96(s0)
	and	a5,a4,a5
	sext.w	a4,a5
	.loc 1 1171 103
	lbu	a5,-33(s0)
	sext.w	a5,a5
	lla	a3,mUsbHubPortChangeMap
	slli	a5,a5,3
	add	a5,a3,a5
	lw	a5,0(a5)
	.loc 1 1171 10
	bne	a4,a5,.L170
	.loc 1 1172 58
	lhu	a4,-110(s0)
	.loc 1 1172 105
	lbu	a5,-33(s0)
	sext.w	a5,a5
	lla	a3,mUsbHubPortChangeMap
	slli	a5,a5,3
	add	a5,a3,a5
	lhu	a5,4(a5)
	.loc 1 1172 39
	or	a5,a4,a5
	slli	a5,a5,48
	srli	a5,a5,48
	.loc 1 1172 37
	sh	a5,-110(s0)
.L170:
	.loc 1 1170 43 discriminator 2
	lbu	a5,-33(s0)
	addiw	a5,a5,1
	sb	a5,-33(s0)
.L169:
	.loc 1 1170 27 discriminator 1
	lbu	a5,-33(s0)
	ld	a4,-104(s0)
	bgtu	a4,a5,.L171
	.loc 1 1176 13
	li	a5,5
	sd	a5,-104(s0)
	.loc 1 1178 16
	sb	zero,-33(s0)
	.loc 1 1178 5
	j	.L172
.L174:
	.loc 1 1179 66
	lbu	a5,-33(s0)
	sext.w	a5,a5
	lla	a4,mUsbHubClearPortChangeMap
	slli	a5,a5,3
	add	a5,a4,a5
	lw	a5,0(a5)
	.loc 1 1179 31
	lw	a4,-96(s0)
	and	a5,a4,a5
	sext.w	a4,a5
	.loc 1 1179 113
	lbu	a5,-33(s0)
	sext.w	a5,a5
	lla	a3,mUsbHubClearPortChangeMap
	slli	a5,a5,3
	add	a5,a3,a5
	lw	a5,0(a5)
	.loc 1 1179 10
	bne	a4,a5,.L173
	.loc 1 1180 9
	addi	a5,s0,-120
	li	a1,8
	mv	a0,a5
	call	ZeroMem@plt
	.loc 1 1181 38
	li	a5,35
	sb	a5,-120(s0)
	.loc 1 1182 34
	li	a5,1
	sb	a5,-119(s0)
	.loc 1 1183 66
	lbu	a5,-33(s0)
	sext.w	a5,a5
	lla	a4,mUsbHubClearPortChangeMap
	slli	a5,a5,3
	add	a5,a4,a5
	lhu	a5,4(a5)
	.loc 1 1183 32
	sh	a5,-118(s0)
	.loc 1 1184 41
	ld	a5,-160(s0)
	lbu	a4,4(a5)
	lbu	a5,5(a5)
	slli	a5,a5,8
	or	a5,a5,a4
	slli	a5,a5,48
	srli	a5,a5,48
	.loc 1 1184 32
	sh	a5,-116(s0)
	.loc 1 1185 33
	sh	zero,-114(s0)
	.loc 1 1187 9
	addi	a3,s0,-128
	addi	a4,s0,-120
	lbu	a2,-138(s0)
	lbu	a1,-137(s0)
	ld	a5,16(s0)
	sd	a5,16(sp)
	ld	a5,8(s0)
	sd	a5,8(sp)
	ld	a5,0(s0)
	sd	a5,0(sp)
	mv	a7,a3
	li	a6,0
	li	a5,2
	ld	a3,-152(s0)
	ld	a0,-136(s0)
	call	XhcControlTransfer
.L173:
	.loc 1 1178 43 discriminator 2
	lbu	a5,-33(s0)
	addiw	a5,a5,1
	sb	a5,-33(s0)
.L172:
	.loc 1 1178 27 discriminator 1
	lbu	a5,-33(s0)
	ld	a4,-104(s0)
	bgtu	a4,a5,.L174
	.loc 1 1203 5
	lbu	a5,-73(s0)
	sext.w	a3,a5
	.loc 1 1203 89
	ld	a5,-160(s0)
	lbu	a4,4(a5)
	lbu	a5,5(a5)
	slli	a5,a5,8
	or	a5,a5,a4
	slli	a5,a5,48
	srli	a5,a5,48
	.loc 1 1203 5
	andi	a2,a5,0xff
	addi	a1,s0,-112
	ld	a4,-48(s0)
	li	a5,328
	mul	a5,a3,a5
	add	a5,a4,a5
	mv	a3,a1
	lw	a5,412(a5)
	mv	a1,a5
	ld	a0,-48(s0)
	call	XhcPollPortStatusChange@plt
	.loc 1 1205 34
	addi	a5,s0,-112
	.loc 1 1205 23
	lw	a4,0(a5)
	.loc 1 1205 21
	ld	a5,-168(s0)
	sw	a4,0(a5)
	j	.L129
.L176:
	.loc 1 953 5
	nop
	j	.L129
.L177:
	.loc 1 961 5
	nop
	j	.L129
.L178:
	.loc 1 1023 5
	nop
	j	.L129
.L179:
	.loc 1 1036 8
	nop
	j	.L129
.L180:
	.loc 1 1208 1
	nop
.L129:
	.loc 1 1213 6
	la	a5,gBS
	ld	a5,0(a5)
	ld	a5,32(a5)
	.loc 1 1213 3
	ld	a0,-72(s0)
	jalr	a5
.LVL16:
	.loc 1 1215 10
	ld	a5,-64(s0)
.L175:
	.loc 1 1216 1
	mv	a0,a5
	ld	ra,200(sp)
	.cfi_restore 1
	ld	s0,192(sp)
	.cfi_restore 8
	.cfi_def_cfa 2, 208
	ld	s1,184(sp)
	.cfi_restore 9
	addi	sp,sp,208
	.cfi_def_cfa_offset 0
	jr	ra
	.cfi_endproc
.LFE8:
	.size	XhcControlTransfer, .-XhcControlTransfer
	.section	.text.XhcBulkTransfer,"ax",@progbits
	.align	1
	.globl	XhcBulkTransfer
	.type	XhcBulkTransfer, @function
XhcBulkTransfer:
.LFB9:
	.loc 1 1264 1
	.cfi_startproc
	addi	sp,sp,-144
	.cfi_def_cfa_offset 144
	sd	ra,136(sp)
	sd	s0,128(sp)
	.cfi_offset 1, -8
	.cfi_offset 8, -16
	addi	s0,sp,144
	.cfi_def_cfa 8, 0
	sd	a0,-72(s0)
	sd	a4,-88(s0)
	mv	a4,a5
	sd	a6,-96(s0)
	sd	a7,-104(s0)
	mv	a5,a1
	sb	a5,-73(s0)
	mv	a5,a2
	sb	a5,-74(s0)
	mv	a5,a3
	sb	a5,-75(s0)
	mv	a5,a4
	sb	a5,-76(s0)
	.loc 1 1274 6
	ld	a5,-104(s0)
	beq	a5,zero,.L182
	.loc 1 1274 40 discriminator 1
	ld	a5,-104(s0)
	ld	a5,0(a5)
	.loc 1 1274 36 discriminator 1
	beq	a5,zero,.L182
	.loc 1 1274 58 discriminator 2
	ld	a5,-96(s0)
	beq	a5,zero,.L182
	.loc 1 1275 38
	ld	a5,-96(s0)
	ld	a5,0(a5)
	.loc 1 1275 30
	beq	a5,zero,.L182
	.loc 1 1275 59 discriminator 1
	ld	a5,24(s0)
	bne	a5,zero,.L183
.L182:
	.loc 1 1277 12
	li	a5,-1
	slli	a5,a5,63
	addi	a5,a5,2
	j	.L184
.L183:
	.loc 1 1280 8
	ld	a5,0(s0)
	lbu	a5,0(a5)
	.loc 1 1280 6
	beq	a5,zero,.L185
	.loc 1 1280 30 discriminator 1
	ld	a5,0(s0)
	lbu	a5,0(a5)
	.loc 1 1280 26 discriminator 1
	mv	a4,a5
	li	a5,1
	beq	a4,a5,.L185
	.loc 1 1281 12
	li	a5,-1
	slli	a5,a5,63
	addi	a5,a5,2
	j	.L184
.L185:
	.loc 1 1284 6
	lbu	a5,-75(s0)
	andi	a4,a5,0xff
	li	a5,1
	beq	a4,a5,.L186
	.loc 1 1284 31 discriminator 1
	lbu	a5,-75(s0)
	andi	a5,a5,0xff
	bne	a5,zero,.L187
	.loc 1 1285 32
	ld	a4,-88(s0)
	li	a5,64
	bgtu	a4,a5,.L186
.L187:
	.loc 1 1285 63 discriminator 1
	lbu	a5,-75(s0)
	andi	a4,a5,0xff
	li	a5,2
	bne	a4,a5,.L188
	.loc 1 1286 32
	ld	a4,-88(s0)
	li	a5,512
	bgtu	a4,a5,.L186
.L188:
	.loc 1 1286 64 discriminator 1
	lbu	a5,-75(s0)
	andi	a4,a5,0xff
	li	a5,3
	bne	a4,a5,.L189
	.loc 1 1287 32
	ld	a4,-88(s0)
	li	a5,1024
	bleu	a4,a5,.L189
.L186:
	.loc 1 1289 12
	li	a5,-1
	slli	a5,a5,63
	addi	a5,a5,2
	j	.L184
.L189:
	.loc 1 1292 15
	la	a5,gBS
	ld	a5,0(a5)
	ld	a5,24(a5)
	.loc 1 1292 12
	li	a0,16
	jalr	a5
.LVL17:
	sd	a0,-40(s0)
	.loc 1 1294 11
	ld	a5,-72(s0)
	addi	a5,a5,-32
	.loc 1 1294 119
	lw	a4,0(a5)
	.loc 1 1294 204
	li	a5,1768124416
	addi	a5,a5,-1928
	bne	a4,a5,.L190
	.loc 1 1294 7 discriminator 1
	ld	a5,-72(s0)
	addi	a5,a5,-32
	sd	a5,-32(s0)
	j	.L191
.L190:
	.loc 1 1294 7 is_stmt 0 discriminator 2
	sd	zero,-32(s0)
.L191:
	.loc 1 1296 19 is_stmt 1
	ld	a5,24(s0)
	li	a4,256
	sw	a4,0(a5)
	.loc 1 1297 10
	li	a5,-1
	slli	a5,a5,63
	addi	a5,a5,7
	sd	a5,-24(s0)
	.loc 1 1299 7
	ld	a0,-32(s0)
	call	XhcIsHalt@plt
	mv	a5,a0
	.loc 1 1299 6 discriminator 1
	bne	a5,zero,.L198
	.loc 1 1299 26 discriminator 2
	ld	a0,-32(s0)
	call	XhcIsSysError@plt
	mv	a5,a0
	.loc 1 1299 23 discriminator 3
	bne	a5,zero,.L198
	.loc 1 1307 12
	lbu	a5,-73(s0)
	mv	a1,a5
	ld	a0,-32(s0)
	call	XhcBusDevAddrToSlotId@plt
	mv	a5,a0
	sb	a5,-41(s0)
	.loc 1 1308 6
	lbu	a5,-41(s0)
	andi	a5,a5,0xff
	beq	a5,zero,.L199
	.loc 1 1316 12
	ld	a5,-96(s0)
	ld	a4,0(a5)
	lbu	a3,-75(s0)
	lbu	a2,-74(s0)
	lbu	a1,-73(s0)
	ld	a5,24(s0)
	sd	a5,16(sp)
	ld	a5,8(s0)
	sd	a5,8(sp)
	ld	a5,-104(s0)
	sd	a5,0(sp)
	mv	a7,a4
	li	a6,0
	li	a5,2
	ld	a4,-88(s0)
	ld	a0,-32(s0)
	call	XhcTransfer
	sd	a0,-24(s0)
	j	.L194
.L198:
	.loc 1 1301 5
	nop
	j	.L194
.L199:
	.loc 1 1309 5
	nop
.L194:
	.loc 1 1331 34
	ld	a5,-24(s0)
	.loc 1 1331 6
	bge	a5,zero,.L196
	.loc 1 1332 8
	ld	a4,-24(s0)
	li	a5,-1
	slli	a5,a5,63
	addi	a5,a5,18
	bne	a4,a5,.L197
	.loc 1 1333 23
	li	a5,4194304
	sd	a5,-56(s0)
	j	.L196
.L197:
	.loc 1 1335 23
	li	a5,1
	slli	a5,a5,31
	sd	a5,-56(s0)
.L196:
	.loc 1 1341 6
	la	a5,gBS
	ld	a5,0(a5)
	ld	a5,32(a5)
	.loc 1 1341 3
	ld	a0,-40(s0)
	jalr	a5
.LVL18:
	.loc 1 1343 10
	ld	a5,-24(s0)
.L184:
	.loc 1 1344 1
	mv	a0,a5
	ld	ra,136(sp)
	.cfi_restore 1
	ld	s0,128(sp)
	.cfi_restore 8
	.cfi_def_cfa 2, 144
	addi	sp,sp,144
	.cfi_def_cfa_offset 0
	jr	ra
	.cfi_endproc
.LFE9:
	.size	XhcBulkTransfer, .-XhcBulkTransfer
	.section	.text.XhcAsyncInterruptTransfer,"ax",@progbits
	.align	1
	.globl	XhcAsyncInterruptTransfer
	.type	XhcAsyncInterruptTransfer, @function
XhcAsyncInterruptTransfer:
.LFB10:
	.loc 1 1391 1
	.cfi_startproc
	addi	sp,sp,-112
	.cfi_def_cfa_offset 112
	sd	ra,104(sp)
	sd	s0,96(sp)
	.cfi_offset 1, -8
	.cfi_offset 8, -16
	addi	s0,sp,112
	.cfi_def_cfa 8, 0
	sd	a0,-72(s0)
	sd	a4,-88(s0)
	mv	a4,a5
	sd	a6,-96(s0)
	sd	a7,-104(s0)
	mv	a5,a1
	sb	a5,-73(s0)
	mv	a5,a2
	sb	a5,-74(s0)
	mv	a5,a3
	sb	a5,-75(s0)
	mv	a5,a4
	sb	a5,-76(s0)
	.loc 1 1402 7
	lb	a5,-74(s0)
	.loc 1 1402 6
	blt	a5,zero,.L201
	.loc 1 1403 12
	li	a5,-1
	slli	a5,a5,63
	addi	a5,a5,2
	j	.L202
.L201:
	.loc 1 1406 6
	lbu	a5,-76(s0)
	andi	a5,a5,0xff
	beq	a5,zero,.L203
	.loc 1 1407 8
	ld	a5,0(s0)
	bne	a5,zero,.L204
	.loc 1 1408 14
	li	a5,-1
	slli	a5,a5,63
	addi	a5,a5,2
	j	.L202
.L204:
	.loc 1 1411 10
	ld	a5,-96(s0)
	lbu	a5,0(a5)
	.loc 1 1411 8
	mv	a4,a5
	li	a5,1
	beq	a4,a5,.L205
	.loc 1 1411 32 discriminator 1
	ld	a5,-96(s0)
	lbu	a5,0(a5)
	.loc 1 1411 28 discriminator 1
	beq	a5,zero,.L205
	.loc 1 1412 14
	li	a5,-1
	slli	a5,a5,63
	addi	a5,a5,2
	j	.L202
.L205:
	.loc 1 1415 8
	ld	a4,-104(s0)
	li	a5,255
	bgtu	a4,a5,.L206
	.loc 1 1415 33 discriminator 1
	ld	a5,-104(s0)
	bne	a5,zero,.L203
.L206:
	.loc 1 1416 14
	li	a5,-1
	slli	a5,a5,63
	addi	a5,a5,2
	j	.L202
.L203:
	.loc 1 1420 15
	la	a5,gBS
	ld	a5,0(a5)
	ld	a5,24(a5)
	.loc 1 1420 12
	li	a0,16
	jalr	a5
.LVL19:
	sd	a0,-48(s0)
	.loc 1 1422 11
	ld	a5,-72(s0)
	addi	a5,a5,-32
	.loc 1 1422 119
	lw	a4,0(a5)
	.loc 1 1422 204
	li	a5,1768124416
	addi	a5,a5,-1928
	bne	a4,a5,.L207
	.loc 1 1422 7 discriminator 1
	ld	a5,-72(s0)
	addi	a5,a5,-32
	sd	a5,-40(s0)
	j	.L208
.L207:
	.loc 1 1422 7 is_stmt 0 discriminator 2
	sd	zero,-40(s0)
.L208:
	.loc 1 1427 6 is_stmt 1
	lbu	a5,-76(s0)
	andi	a5,a5,0xff
	bne	a5,zero,.L209
	.loc 1 1431 16
	sb	zero,-17(s0)
	.loc 1 1431 5
	j	.L210
.L213:
	.loc 1 1432 36
	lbu	a5,-17(s0)
	sext.w	a5,a5
	addiw	a5,a5,1
	sext.w	a3,a5
	.loc 1 1432 40
	ld	a4,-40(s0)
	li	a5,328
	mul	a5,a3,a5
	add	a5,a4,a5
	lbu	a4,421(a5)
	.loc 1 1432 10
	lbu	a5,-73(s0)
	andi	a5,a5,0xff
	beq	a5,a4,.L220
	.loc 1 1431 39 discriminator 2
	lbu	a5,-17(s0)
	addiw	a5,a5,1
	sb	a5,-17(s0)
.L210:
	.loc 1 1431 27 discriminator 1
	lbu	a5,-17(s0)
	andi	a4,a5,0xff
	li	a5,255
	bne	a4,a5,.L213
	j	.L212
.L220:
	.loc 1 1433 9
	nop
.L212:
	.loc 1 1437 8
	lbu	a5,-17(s0)
	andi	a4,a5,0xff
	li	a5,255
	bne	a4,a5,.L214
	.loc 1 1438 14
	li	a5,-1
	slli	a5,a5,63
	addi	a5,a5,2
	sd	a5,-32(s0)
	.loc 1 1439 7
	j	.L215
.L214:
	.loc 1 1442 14
	lbu	a4,-74(s0)
	lbu	a5,-73(s0)
	mv	a2,a4
	mv	a1,a5
	ld	a0,-40(s0)
	call	XhciDelAsyncIntTransfer@plt
	sd	a0,-32(s0)
	.loc 1 1444 5
	j	.L215
.L209:
	.loc 1 1447 10
	sd	zero,-32(s0)
	.loc 1 1449 7
	ld	a0,-40(s0)
	call	XhcIsHalt@plt
	mv	a5,a0
	.loc 1 1449 6 discriminator 1
	bne	a5,zero,.L216
	.loc 1 1449 26 discriminator 2
	ld	a0,-40(s0)
	call	XhcIsSysError@plt
	mv	a5,a0
	.loc 1 1449 23 discriminator 3
	beq	a5,zero,.L217
.L216:
	.loc 1 1451 12
	li	a5,-1
	slli	a5,a5,63
	addi	a5,a5,7
	sd	a5,-32(s0)
	.loc 1 1452 5
	j	.L215
.L217:
	.loc 1 1458 12
	lbu	a5,-73(s0)
	mv	a1,a5
	ld	a0,-40(s0)
	call	XhcBusDevAddrToSlotId@plt
	mv	a5,a0
	sb	a5,-49(s0)
	.loc 1 1459 6
	lbu	a5,-49(s0)
	andi	a5,a5,0xff
	beq	a5,zero,.L221
	.loc 1 1463 9
	lbu	a3,-75(s0)
	lbu	a2,-74(s0)
	lbu	a1,-73(s0)
	ld	a7,24(s0)
	ld	a6,16(s0)
	ld	a5,0(s0)
	ld	a4,-88(s0)
	ld	a0,-40(s0)
	call	XhciInsertAsyncIntTransfer@plt
	sd	a0,-64(s0)
	.loc 1 1473 6
	ld	a5,-64(s0)
	bne	a5,zero,.L219
	.loc 1 1474 12
	li	a5,-1
	slli	a5,a5,63
	addi	a5,a5,9
	sd	a5,-32(s0)
	.loc 1 1475 5
	j	.L215
.L219:
	.loc 1 1481 12
	ld	a1,-64(s0)
	ld	a0,-40(s0)
	call	RingIntTransferDoorBell@plt
	sd	a0,-32(s0)
	j	.L215
.L221:
	.loc 1 1460 5
	nop
.L215:
	.loc 1 1484 6
	ld	a5,-40(s0)
	ld	a5,8(a5)
	.loc 1 1484 13
	ld	a5,104(a5)
	.loc 1 1484 3
	ld	a4,-40(s0)
	ld	a4,8(a4)
	mv	a0,a4
	jalr	a5
.LVL20:
	.loc 1 1485 6
	la	a5,gBS
	ld	a5,0(a5)
	ld	a5,32(a5)
	.loc 1 1485 3
	ld	a0,-48(s0)
	jalr	a5
.LVL21:
	.loc 1 1487 10
	ld	a5,-32(s0)
.L202:
	.loc 1 1488 1
	mv	a0,a5
	ld	ra,104(sp)
	.cfi_restore 1
	ld	s0,96(sp)
	.cfi_restore 8
	.cfi_def_cfa 2, 112
	addi	sp,sp,112
	.cfi_def_cfa_offset 0
	jr	ra
	.cfi_endproc
.LFE10:
	.size	XhcAsyncInterruptTransfer, .-XhcAsyncInterruptTransfer
	.section	.text.XhcSyncInterruptTransfer,"ax",@progbits
	.align	1
	.globl	XhcSyncInterruptTransfer
	.type	XhcSyncInterruptTransfer, @function
XhcSyncInterruptTransfer:
.LFB11:
	.loc 1 1532 1
	.cfi_startproc
	addi	sp,sp,-128
	.cfi_def_cfa_offset 128
	sd	ra,120(sp)
	sd	s0,112(sp)
	.cfi_offset 1, -8
	.cfi_offset 8, -16
	addi	s0,sp,128
	.cfi_def_cfa 8, 0
	sd	a0,-56(s0)
	sd	a4,-72(s0)
	sd	a5,-80(s0)
	sd	a6,-88(s0)
	sd	a7,-96(s0)
	mv	a5,a1
	sb	a5,-57(s0)
	mv	a5,a2
	sb	a5,-58(s0)
	mv	a5,a3
	sb	a5,-59(s0)
	.loc 1 1541 6
	ld	a5,-88(s0)
	beq	a5,zero,.L223
	.loc 1 1541 40 discriminator 1
	ld	a5,-88(s0)
	ld	a5,0(a5)
	.loc 1 1541 36 discriminator 1
	beq	a5,zero,.L223
	.loc 1 1541 58 discriminator 2
	ld	a5,-80(s0)
	beq	a5,zero,.L223
	.loc 1 1542 30
	ld	a5,16(s0)
	bne	a5,zero,.L224
.L223:
	.loc 1 1544 12
	li	a5,-1
	slli	a5,a5,63
	addi	a5,a5,2
	j	.L225
.L224:
	.loc 1 1547 8
	ld	a5,-96(s0)
	lbu	a5,0(a5)
	.loc 1 1547 6
	mv	a4,a5
	li	a5,1
	beq	a4,a5,.L226
	.loc 1 1547 30 discriminator 1
	ld	a5,-96(s0)
	lbu	a5,0(a5)
	.loc 1 1547 26 discriminator 1
	beq	a5,zero,.L226
	.loc 1 1548 12
	li	a5,-1
	slli	a5,a5,63
	addi	a5,a5,2
	j	.L225
.L226:
	.loc 1 1551 6
	lbu	a5,-59(s0)
	andi	a4,a5,0xff
	li	a5,1
	bne	a4,a5,.L227
	.loc 1 1551 32 discriminator 1
	ld	a4,-72(s0)
	li	a5,8
	bne	a4,a5,.L228
.L227:
	.loc 1 1551 63 discriminator 3
	lbu	a5,-59(s0)
	andi	a5,a5,0xff
	bne	a5,zero,.L229
	.loc 1 1552 32
	ld	a4,-72(s0)
	li	a5,64
	bgtu	a4,a5,.L228
.L229:
	.loc 1 1552 63 discriminator 1
	lbu	a5,-59(s0)
	andi	a4,a5,0xff
	li	a5,2
	bne	a4,a5,.L230
	.loc 1 1553 32
	ld	a4,-72(s0)
	li	a5,4096
	addi	a5,a5,-1024
	bleu	a4,a5,.L230
.L228:
	.loc 1 1555 12
	li	a5,-1
	slli	a5,a5,63
	addi	a5,a5,2
	j	.L225
.L230:
	.loc 1 1558 15
	la	a5,gBS
	ld	a5,0(a5)
	ld	a5,24(a5)
	.loc 1 1558 12
	li	a0,16
	jalr	a5
.LVL22:
	sd	a0,-40(s0)
	.loc 1 1560 11
	ld	a5,-56(s0)
	addi	a5,a5,-32
	.loc 1 1560 119
	lw	a4,0(a5)
	.loc 1 1560 204
	li	a5,1768124416
	addi	a5,a5,-1928
	bne	a4,a5,.L231
	.loc 1 1560 7 discriminator 1
	ld	a5,-56(s0)
	addi	a5,a5,-32
	sd	a5,-32(s0)
	j	.L232
.L231:
	.loc 1 1560 7 is_stmt 0 discriminator 2
	sd	zero,-32(s0)
.L232:
	.loc 1 1562 19 is_stmt 1
	ld	a5,16(s0)
	li	a4,256
	sw	a4,0(a5)
	.loc 1 1563 10
	li	a5,-1
	slli	a5,a5,63
	addi	a5,a5,7
	sd	a5,-24(s0)
	.loc 1 1565 7
	ld	a0,-32(s0)
	call	XhcIsHalt@plt
	mv	a5,a0
	.loc 1 1565 6 discriminator 1
	bne	a5,zero,.L237
	.loc 1 1565 26 discriminator 2
	ld	a0,-32(s0)
	call	XhcIsSysError@plt
	mv	a5,a0
	.loc 1 1565 23 discriminator 3
	bne	a5,zero,.L237
	.loc 1 1573 12
	lbu	a5,-57(s0)
	mv	a1,a5
	ld	a0,-32(s0)
	call	XhcBusDevAddrToSlotId@plt
	mv	a5,a0
	sb	a5,-41(s0)
	.loc 1 1574 6
	lbu	a5,-41(s0)
	andi	a5,a5,0xff
	beq	a5,zero,.L238
	.loc 1 1578 12
	lbu	a3,-59(s0)
	lbu	a2,-58(s0)
	lbu	a1,-57(s0)
	ld	a5,16(s0)
	sd	a5,16(sp)
	ld	a5,0(s0)
	sd	a5,8(sp)
	ld	a5,-88(s0)
	sd	a5,0(sp)
	ld	a7,-80(s0)
	li	a6,0
	li	a5,4
	ld	a4,-72(s0)
	ld	a0,-32(s0)
	call	XhcTransfer
	sd	a0,-24(s0)
	j	.L235
.L237:
	.loc 1 1567 5
	nop
	j	.L235
.L238:
	.loc 1 1575 5
	nop
.L235:
	.loc 1 1597 6
	la	a5,gBS
	ld	a5,0(a5)
	ld	a5,32(a5)
	.loc 1 1597 3
	ld	a0,-40(s0)
	jalr	a5
.LVL23:
	.loc 1 1599 10
	ld	a5,-24(s0)
.L225:
	.loc 1 1600 1
	mv	a0,a5
	ld	ra,120(sp)
	.cfi_restore 1
	ld	s0,112(sp)
	.cfi_restore 8
	.cfi_def_cfa 2, 128
	addi	sp,sp,128
	.cfi_def_cfa_offset 0
	jr	ra
	.cfi_endproc
.LFE11:
	.size	XhcSyncInterruptTransfer, .-XhcSyncInterruptTransfer
	.section	.text.XhcIsochronousTransfer,"ax",@progbits
	.align	1
	.globl	XhcIsochronousTransfer
	.type	XhcIsochronousTransfer, @function
XhcIsochronousTransfer:
.LFB12:
	.loc 1 1637 1
	.cfi_startproc
	addi	sp,sp,-64
	.cfi_def_cfa_offset 64
	sd	ra,56(sp)
	sd	s0,48(sp)
	.cfi_offset 1, -8
	.cfi_offset 8, -16
	addi	s0,sp,64
	.cfi_def_cfa 8, 0
	sd	a0,-24(s0)
	sd	a4,-40(s0)
	mv	a4,a5
	sd	a6,-48(s0)
	sd	a7,-56(s0)
	mv	a5,a1
	sb	a5,-25(s0)
	mv	a5,a2
	sb	a5,-26(s0)
	mv	a5,a3
	sb	a5,-27(s0)
	mv	a5,a4
	sb	a5,-28(s0)
	.loc 1 1638 10
	li	a5,-1
	slli	a5,a5,63
	addi	a5,a5,3
	.loc 1 1639 1
	mv	a0,a5
	ld	ra,56(sp)
	.cfi_restore 1
	ld	s0,48(sp)
	.cfi_restore 8
	.cfi_def_cfa 2, 64
	addi	sp,sp,64
	.cfi_def_cfa_offset 0
	jr	ra
	.cfi_endproc
.LFE12:
	.size	XhcIsochronousTransfer, .-XhcIsochronousTransfer
	.section	.text.XhcAsyncIsochronousTransfer,"ax",@progbits
	.align	1
	.globl	XhcAsyncIsochronousTransfer
	.type	XhcAsyncIsochronousTransfer, @function
XhcAsyncIsochronousTransfer:
.LFB13:
	.loc 1 1679 1
	.cfi_startproc
	addi	sp,sp,-64
	.cfi_def_cfa_offset 64
	sd	ra,56(sp)
	sd	s0,48(sp)
	.cfi_offset 1, -8
	.cfi_offset 8, -16
	addi	s0,sp,64
	.cfi_def_cfa 8, 0
	sd	a0,-24(s0)
	sd	a4,-40(s0)
	mv	a4,a5
	sd	a6,-48(s0)
	sd	a7,-56(s0)
	mv	a5,a1
	sb	a5,-25(s0)
	mv	a5,a2
	sb	a5,-26(s0)
	mv	a5,a3
	sb	a5,-27(s0)
	mv	a5,a4
	sb	a5,-28(s0)
	.loc 1 1680 10
	li	a5,-1
	slli	a5,a5,63
	addi	a5,a5,3
	.loc 1 1681 1
	mv	a0,a5
	ld	ra,56(sp)
	.cfi_restore 1
	ld	s0,48(sp)
	.cfi_restore 8
	.cfi_def_cfa 2, 64
	addi	sp,sp,64
	.cfi_def_cfa_offset 0
	jr	ra
	.cfi_endproc
.LFE13:
	.size	XhcAsyncIsochronousTransfer, .-XhcAsyncIsochronousTransfer
	.section	.text.XhcDriverEntryPoint,"ax",@progbits
	.align	1
	.globl	XhcDriverEntryPoint
	.type	XhcDriverEntryPoint, @function
XhcDriverEntryPoint:
.LFB14:
	.loc 1 1699 1
	.cfi_startproc
	addi	sp,sp,-32
	.cfi_def_cfa_offset 32
	sd	ra,24(sp)
	sd	s0,16(sp)
	.cfi_offset 1, -8
	.cfi_offset 8, -16
	addi	s0,sp,32
	.cfi_def_cfa 8, 0
	sd	a0,-24(s0)
	sd	a1,-32(s0)
	.loc 1 1700 10
	la	a5,gXhciComponentName2
	la	a4,gXhciComponentName
	ld	a3,-24(s0)
	lla	a2,gXhciDriverBinding
	ld	a1,-32(s0)
	ld	a0,-24(s0)
	call	EfiLibInstallDriverBindingComponentName2@plt
	mv	a5,a0
	.loc 1 1708 1
	mv	a0,a5
	ld	ra,24(sp)
	.cfi_restore 1
	ld	s0,16(sp)
	.cfi_restore 8
	.cfi_def_cfa 2, 32
	addi	sp,sp,32
	.cfi_def_cfa_offset 0
	jr	ra
	.cfi_endproc
.LFE14:
	.size	XhcDriverEntryPoint, .-XhcDriverEntryPoint
	.section	.text.XhcDriverBindingSupported,"ax",@progbits
	.align	1
	.globl	XhcDriverBindingSupported
	.type	XhcDriverBindingSupported, @function
XhcDriverBindingSupported:
.LFB15:
	.loc 1 1730 1
	.cfi_startproc
	addi	sp,sp,-80
	.cfi_def_cfa_offset 80
	sd	ra,72(sp)
	sd	s0,64(sp)
	.cfi_offset 1, -8
	.cfi_offset 8, -16
	addi	s0,sp,80
	.cfi_def_cfa 8, 0
	sd	a0,-56(s0)
	sd	a1,-64(s0)
	sd	a2,-72(s0)
	.loc 1 1738 15
	la	a5,gBS
	ld	a5,0(a5)
	ld	a6,280(a5)
	.loc 1 1738 12
	ld	a5,-56(s0)
	ld	a3,40(a5)
	addi	a2,s0,-32
	li	a5,16
	ld	a4,-64(s0)
	la	a1,gEfiPciIoProtocolGuid
	ld	a0,-64(s0)
	jalr	a6
.LVL24:
	sd	a0,-24(s0)
	.loc 1 1747 34
	ld	a5,-24(s0)
	.loc 1 1747 6
	bge	a5,zero,.L246
	.loc 1 1748 12
	li	a5,-1
	slli	a5,a5,63
	addi	a5,a5,3
	j	.L251
.L246:
	.loc 1 1751 17
	ld	a5,-32(s0)
	.loc 1 1751 22
	ld	a5,48(a5)
	.loc 1 1751 12
	ld	a0,-32(s0)
	addi	a4,s0,-40
	li	a3,3
	li	a2,9
	li	a1,0
	jalr	a5
.LVL25:
	sd	a0,-24(s0)
	.loc 1 1759 34
	ld	a5,-24(s0)
	.loc 1 1759 6
	bge	a5,zero,.L248
	.loc 1 1760 12
	li	a5,-1
	slli	a5,a5,63
	addi	a5,a5,3
	sd	a5,-24(s0)
	.loc 1 1761 5
	j	.L249
.L248:
	.loc 1 1767 20
	lbu	a5,-38(s0)
	.loc 1 1767 6
	mv	a4,a5
	li	a5,12
	bne	a4,a5,.L250
	.loc 1 1768 20
	lbu	a5,-39(s0)
	.loc 1 1767 39 discriminator 1
	mv	a4,a5
	li	a5,3
	bne	a4,a5,.L250
	.loc 1 1769 20
	lbu	a5,-40(s0)
	.loc 1 1768 43
	mv	a4,a5
	li	a5,48
	beq	a4,a5,.L252
.L250:
	.loc 1 1771 12
	li	a5,-1
	slli	a5,a5,63
	addi	a5,a5,3
	sd	a5,-24(s0)
	j	.L249
.L252:
	.loc 1 1774 1
	nop
.L249:
	.loc 1 1775 6
	la	a5,gBS
	ld	a5,0(a5)
	ld	a5,288(a5)
	.loc 1 1775 3
	ld	a4,-56(s0)
	ld	a4,40(a4)
	ld	a3,-64(s0)
	mv	a2,a4
	la	a1,gEfiPciIoProtocolGuid
	ld	a0,-64(s0)
	jalr	a5
.LVL26:
	.loc 1 1782 10
	ld	a5,-24(s0)
.L251:
	.loc 1 1783 1
	mv	a0,a5
	ld	ra,72(sp)
	.cfi_restore 1
	ld	s0,64(sp)
	.cfi_restore 8
	.cfi_def_cfa 2, 80
	addi	sp,sp,80
	.cfi_def_cfa_offset 0
	jr	ra
	.cfi_endproc
.LFE15:
	.size	XhcDriverBindingSupported, .-XhcDriverBindingSupported
	.section	.text.XhcCreateUsbHc,"ax",@progbits
	.align	1
	.globl	XhcCreateUsbHc
	.type	XhcCreateUsbHc, @function
XhcCreateUsbHc:
.LFB16:
	.loc 1 1802 1
	.cfi_startproc
	addi	sp,sp,-80
	.cfi_def_cfa_offset 80
	sd	ra,72(sp)
	sd	s0,64(sp)
	.cfi_offset 1, -8
	.cfi_offset 8, -16
	addi	s0,sp,80
	.cfi_def_cfa 8, 0
	sd	a0,-56(s0)
	sd	a1,-64(s0)
	sd	a2,-72(s0)
	.loc 1 1809 9
	li	a5,86016
	addi	a0,a5,-1632
	call	AllocateZeroPool@plt
	sd	a0,-32(s0)
	.loc 1 1811 6
	ld	a5,-32(s0)
	bne	a5,zero,.L254
	.loc 1 1812 12
	li	a5,0
	j	.L260
.L254:
	.loc 1 1818 18
	ld	a5,-32(s0)
	li	a4,1768124416
	addi	a4,a4,-1928
	sw	a4,0(a5)
	.loc 1 1819 14
	ld	a5,-32(s0)
	ld	a4,-56(s0)
	sd	a4,8(a5)
	.loc 1 1820 19
	ld	a5,-32(s0)
	ld	a4,-64(s0)
	sd	a4,144(a5)
	.loc 1 1821 30
	ld	a5,-32(s0)
	ld	a4,-72(s0)
	sd	a4,16(a5)
	.loc 1 1822 12
	ld	a5,-32(s0)
	addi	a5,a5,32
	.loc 1 1822 3
	li	a2,112
	lla	a1,gXhciUsb2HcTemplate
	mv	a0,a5
	call	CopyMem@plt
	.loc 1 1824 22
	ld	a5,-56(s0)
	ld	a5,48(a5)
	.loc 1 1824 12
	addi	a4,s0,-39
	li	a3,1
	li	a2,96
	li	a1,0
	ld	a0,-56(s0)
	jalr	a5
.LVL27:
	sd	a0,-24(s0)
	.loc 1 1832 7
	ld	a5,-24(s0)
	.loc 1 1832 6
	blt	a5,zero,.L256
	.loc 1 1833 56
	lbu	a5,-39(s0)
	srliw	a5,a5,4
	andi	a5,a5,0xff
	mv	a4,a5
	.loc 1 1833 31
	ld	a5,-32(s0)
	sh	a4,136(a5)
	.loc 1 1834 48
	lbu	a5,-39(s0)
	andi	a5,a5,15
	slli	a4,a5,48
	srli	a4,a4,48
	.loc 1 1834 31
	ld	a5,-32(s0)
	sh	a4,138(a5)
.L256:
	.loc 1 1837 3
	ld	a5,-32(s0)
	addi	a5,a5,168
	mv	a0,a5
	call	InitializeListHead@plt
	.loc 1 1842 20
	li	a1,0
	ld	a0,-32(s0)
	call	XhcReadCapReg8@plt
	mv	a5,a0
	mv	a4,a5
	.loc 1 1842 18 discriminator 1
	ld	a5,-32(s0)
	sb	a4,184(a5)
	.loc 1 1843 27
	li	a1,4
	ld	a0,-32(s0)
	call	XhcReadCapReg@plt
	mv	a5,a0
	mv	a4,a5
	.loc 1 1843 25 discriminator 1
	ld	a5,-32(s0)
	slli	a3,a4,32
	srli	a3,a3,32
	andi	a3,a3,255
	lbu	a2,185(a5)
	andi	a2,a2,0
	or	a3,a2,a3
	sb	a3,185(a5)
	srliw	a3,a4,8
	slli	a3,a3,32
	srli	a3,a3,32
	andi	a3,a3,255
	lbu	a2,186(a5)
	andi	a2,a2,0
	or	a3,a2,a3
	sb	a3,186(a5)
	srliw	a3,a4,16
	slli	a3,a3,32
	srli	a3,a3,32
	andi	a3,a3,255
	lbu	a2,187(a5)
	andi	a2,a2,0
	or	a3,a2,a3
	sb	a3,187(a5)
	srliw	a4,a4,24
	slli	a4,a4,32
	srli	a4,a4,32
	lbu	a3,188(a5)
	andi	a3,a3,0
	or	a4,a3,a4
	sb	a4,188(a5)
	.loc 1 1844 27
	li	a1,8
	ld	a0,-32(s0)
	call	XhcReadCapReg@plt
	mv	a5,a0
	mv	a4,a5
	.loc 1 1844 25 discriminator 1
	ld	a5,-32(s0)
	slli	a3,a4,32
	srli	a3,a3,32
	andi	a3,a3,255
	lbu	a2,189(a5)
	andi	a2,a2,0
	or	a3,a2,a3
	sb	a3,189(a5)
	srliw	a3,a4,8
	slli	a3,a3,32
	srli	a3,a3,32
	andi	a3,a3,255
	lbu	a2,190(a5)
	andi	a2,a2,0
	or	a3,a2,a3
	sb	a3,190(a5)
	srliw	a3,a4,16
	slli	a3,a3,32
	srli	a3,a3,32
	andi	a3,a3,255
	lbu	a2,191(a5)
	andi	a2,a2,0
	or	a3,a2,a3
	sb	a3,191(a5)
	srliw	a4,a4,24
	slli	a4,a4,32
	srli	a4,a4,32
	lbu	a3,192(a5)
	andi	a3,a3,0
	or	a4,a3,a4
	sb	a4,192(a5)
	.loc 1 1845 26
	li	a1,16
	ld	a0,-32(s0)
	call	XhcReadCapReg@plt
	mv	a5,a0
	mv	a4,a5
	.loc 1 1845 24 discriminator 1
	ld	a5,-32(s0)
	slli	a3,a4,32
	srli	a3,a3,32
	andi	a3,a3,255
	lbu	a2,193(a5)
	andi	a2,a2,0
	or	a3,a2,a3
	sb	a3,193(a5)
	srliw	a3,a4,8
	slli	a3,a3,32
	srli	a3,a3,32
	andi	a3,a3,255
	lbu	a2,194(a5)
	andi	a2,a2,0
	or	a3,a2,a3
	sb	a3,194(a5)
	srliw	a3,a4,16
	slli	a3,a3,32
	srli	a3,a3,32
	andi	a3,a3,255
	lbu	a2,195(a5)
	andi	a2,a2,0
	or	a3,a2,a3
	sb	a3,195(a5)
	srliw	a4,a4,24
	slli	a4,a4,32
	srli	a4,a4,32
	lbu	a3,196(a5)
	andi	a3,a3,0
	or	a4,a3,a4
	sb	a4,196(a5)
	.loc 1 1846 16
	li	a1,20
	ld	a0,-32(s0)
	call	XhcReadCapReg@plt
	mv	a5,a0
	mv	a4,a5
	.loc 1 1846 14 discriminator 1
	ld	a5,-32(s0)
	sw	a4,200(a5)
	.loc 1 1847 17
	li	a1,24
	ld	a0,-32(s0)
	call	XhcReadCapReg@plt
	mv	a5,a0
	mv	a4,a5
	.loc 1 1847 15 discriminator 1
	ld	a5,-32(s0)
	sw	a4,204(a5)
	.loc 1 1854 14
	li	a1,8
	ld	a0,-32(s0)
	call	XhcReadOpReg@plt
	mv	a5,a0
	sw	a5,-36(s0)
	.loc 1 1855 6
	lw	a5,-36(s0)
	sext.w	a4,a5
	li	a5,65536
	bgeu	a4,a5,.L261
	.loc 1 1860 12
	lw	a5,-36(s0)
	slli	a5,a5,48
	srli	a5,a5,48
	sw	a5,-36(s0)
	.loc 1 1861 25
	lw	a5,-36(s0)
	mv	a0,a5
	call	HighBitSet32@plt
	mv	a5,a0
	.loc 1 1861 49 discriminator 1
	sext.w	a5,a5
	addiw	a5,a5,12
	sext.w	a5,a5
	.loc 1 1861 21 discriminator 1
	li	a4,1
	sllw	a5,a4,a5
	sext.w	a5,a5
	mv	a4,a5
	.loc 1 1861 17 discriminator 1
	ld	a5,-32(s0)
	sw	a4,212(a5)
	.loc 1 1863 13
	ld	a5,-32(s0)
	ld	a5,192(a5)
	srli	a5,a5,24
	andi	a5,a5,-1
	sh	a5,-38(s0)
	.loc 1 1864 34
	lhu	a5,-38(s0)
	sext.w	a5,a5
	slliw	a5,a5,2
	sext.w	a4,a5
	.loc 1 1864 22
	ld	a5,-32(s0)
	sw	a4,256(a5)
	.loc 1 1865 26
	li	a1,1
	ld	a0,-32(s0)
	call	XhcGetCapabilityAddr@plt
	mv	a5,a0
	mv	a4,a5
	.loc 1 1865 24 discriminator 1
	ld	a5,-32(s0)
	sw	a4,260(a5)
	.loc 1 1866 28
	li	a1,10
	ld	a0,-32(s0)
	call	XhcGetCapabilityAddr@plt
	mv	a5,a0
	mv	a4,a5
	.loc 1 1866 26 discriminator 1
	ld	a5,-32(s0)
	sw	a4,264(a5)
	.loc 1 1867 24
	li	a1,2
	ld	a0,-32(s0)
	call	XhcGetSupportedProtocolCapabilityAddr@plt
	mv	a5,a0
	mv	a4,a5
	.loc 1 1867 22 discriminator 1
	ld	a5,-32(s0)
	sw	a4,268(a5)
	.loc 1 1868 24
	li	a1,3
	ld	a0,-32(s0)
	call	XhcGetSupportedProtocolCapabilityAddr@plt
	mv	a5,a0
	mv	a4,a5
	.loc 1 1868 22 discriminator 1
	ld	a5,-32(s0)
	sw	a4,272(a5)
	.loc 1 1884 15
	la	a5,gBS
	ld	a5,0(a5)
	ld	a5,80(a5)
	.loc 1 1884 12
	ld	a4,-32(s0)
	addi	a4,a4,160
	ld	a3,-32(s0)
	la	a2,XhcMonitorAsyncRequests
	li	a1,16
	li	a0,-2147483648
	addi	a0,a0,512
	jalr	a5
.LVL28:
	sd	a0,-24(s0)
	.loc 1 1892 34
	ld	a5,-24(s0)
	.loc 1 1892 6
	blt	a5,zero,.L262
	.loc 1 1896 10
	ld	a5,-32(s0)
	j	.L260
.L261:
	.loc 1 1857 5
	nop
	j	.L258
.L262:
	.loc 1 1893 5
	nop
.L258:
	.loc 1 1899 3
	ld	a0,-32(s0)
	call	FreePool@plt
	.loc 1 1900 10
	li	a5,0
.L260:
	.loc 1 1901 1
	mv	a0,a5
	ld	ra,72(sp)
	.cfi_restore 1
	ld	s0,64(sp)
	.cfi_restore 8
	.cfi_def_cfa 2, 80
	addi	sp,sp,80
	.cfi_def_cfa_offset 0
	jr	ra
	.cfi_endproc
.LFE16:
	.size	XhcCreateUsbHc, .-XhcCreateUsbHc
	.section	.text.XhcExitBootService,"ax",@progbits
	.align	1
	.globl	XhcExitBootService
	.type	XhcExitBootService, @function
XhcExitBootService:
.LFB17:
	.loc 1 1917 1
	.cfi_startproc
	addi	sp,sp,-48
	.cfi_def_cfa_offset 48
	sd	ra,40(sp)
	sd	s0,32(sp)
	.cfi_offset 1, -8
	.cfi_offset 8, -16
	addi	s0,sp,48
	.cfi_def_cfa 8, 0
	sd	a0,-40(s0)
	sd	a1,-48(s0)
	.loc 1 1921 7
	ld	a5,-48(s0)
	sd	a5,-24(s0)
	.loc 1 1922 9
	ld	a5,-24(s0)
	ld	a5,8(a5)
	sd	a5,-32(s0)
	.loc 1 1928 6
	la	a5,gBS
	ld	a5,0(a5)
	ld	a5,88(a5)
	.loc 1 1928 3
	ld	a4,-24(s0)
	ld	a4,160(a4)
	li	a2,0
	li	a1,0
	mv	a0,a4
	jalr	a5
.LVL29:
	.loc 1 1929 3
	li	a5,8192
	addi	a1,a5,1808
	ld	a0,-24(s0)
	call	XhcHaltHC@plt
	.loc 1 1931 10
	ld	a5,-24(s0)
	ld	a5,160(a5)
	.loc 1 1931 6
	beq	a5,zero,.L264
	.loc 1 1932 8
	la	a5,gBS
	ld	a5,0(a5)
	ld	a5,112(a5)
	.loc 1 1932 5
	ld	a4,-24(s0)
	ld	a4,160(a4)
	mv	a0,a4
	jalr	a5
.LVL30:
.L264:
	.loc 1 1935 3
	ld	a0,-24(s0)
	call	XhcClearBiosOwnership@plt
	.loc 1 1940 8
	ld	a5,-32(s0)
	ld	a5,120(a5)
	.loc 1 1940 3
	ld	a4,-24(s0)
	ld	a4,16(a4)
	li	a3,0
	mv	a2,a4
	li	a1,1
	ld	a0,-32(s0)
	jalr	a5
.LVL31:
	.loc 1 1946 1
	nop
	ld	ra,40(sp)
	.cfi_restore 1
	ld	s0,32(sp)
	.cfi_restore 8
	.cfi_def_cfa 2, 48
	addi	sp,sp,48
	.cfi_def_cfa_offset 0
	jr	ra
	.cfi_endproc
.LFE17:
	.size	XhcExitBootService, .-XhcExitBootService
	.section	.rodata
	.align	3
.LC0:
	.string	"e"
	.string	"X"
	.string	"t"
	.string	"e"
	.string	"n"
	.string	"s"
	.string	"i"
	.string	"b"
	.string	"l"
	.string	"e"
	.string	" "
	.string	"H"
	.string	"o"
	.string	"s"
	.string	"t"
	.string	" "
	.string	"C"
	.string	"o"
	.string	"n"
	.string	"t"
	.string	"r"
	.string	"o"
	.string	"l"
	.string	"l"
	.string	"e"
	.string	"r"
	.string	" "
	.string	"("
	.string	"U"
	.string	"S"
	.string	"B"
	.string	" "
	.string	"3"
	.string	"."
	.string	"0"
	.string	")"
	.zero	2
	.align	3
.LC1:
	.string	"eng"
	.align	3
.LC2:
	.string	"en"
	.section	.text.XhcDriverBindingStart,"ax",@progbits
	.align	1
	.globl	XhcDriverBindingStart
	.type	XhcDriverBindingStart, @function
XhcDriverBindingStart:
.LFB18:
	.loc 1 1968 1
	.cfi_startproc
	addi	sp,sp,-128
	.cfi_def_cfa_offset 128
	sd	ra,120(sp)
	sd	s0,112(sp)
	sd	s1,104(sp)
	sd	s2,96(sp)
	.cfi_offset 1, -8
	.cfi_offset 8, -16
	.cfi_offset 9, -24
	.cfi_offset 18, -32
	addi	s0,sp,128
	.cfi_def_cfa 8, 0
	sd	a0,-104(s0)
	sd	a1,-112(s0)
	sd	a2,-120(s0)
	.loc 1 1980 15
	la	a5,gBS
	ld	a5,0(a5)
	ld	a6,280(a5)
	.loc 1 1980 12
	ld	a0,-112(s0)
	ld	a5,-104(s0)
	ld	a3,40(a5)
	ld	a4,-112(s0)
	addi	a2,s0,-64
	li	a5,16
	la	a1,gEfiPciIoProtocolGuid
	jalr	a6
.LVL32:
	sd	a0,-48(s0)
	.loc 1 1989 34
	ld	a5,-48(s0)
	.loc 1 1989 6
	bge	a5,zero,.L266
	.loc 1 1990 12
	ld	a5,-48(s0)
	j	.L280
.L266:
	.loc 1 1996 16
	sd	zero,-88(s0)
	.loc 1 1997 15
	la	a5,gBS
	ld	a5,0(a5)
	ld	a6,280(a5)
	.loc 1 1997 12
	ld	a0,-112(s0)
	ld	a5,-104(s0)
	ld	a3,40(a5)
	ld	a4,-112(s0)
	addi	a2,s0,-88
	li	a5,2
	la	a1,gEfiDevicePathProtocolGuid
	jalr	a6
.LVL33:
	sd	a0,-48(s0)
	.loc 1 2006 22
	sb	zero,-33(s0)
	.loc 1 2010 17
	ld	a5,-64(s0)
	ld	a5,120(a5)
	.loc 1 2010 12
	ld	a4,-64(s0)
	addi	a3,s0,-80
	li	a2,0
	li	a1,0
	mv	a0,a4
	jalr	a5
.LVL34:
	sd	a0,-48(s0)
	.loc 1 2017 34
	ld	a5,-48(s0)
	.loc 1 2017 6
	blt	a5,zero,.L281
	.loc 1 2021 22
	li	a5,1
	sb	a5,-33(s0)
	.loc 1 2023 17
	ld	a5,-64(s0)
	ld	a5,120(a5)
	.loc 1 2023 12
	ld	a4,-64(s0)
	addi	a3,s0,-72
	li	a2,0
	li	a1,4
	mv	a0,a4
	jalr	a5
.LVL35:
	sd	a0,-48(s0)
	.loc 1 2029 7
	ld	a5,-48(s0)
	.loc 1 2029 6
	blt	a5,zero,.L270
	.loc 1 2030 14
	ld	a5,-72(s0)
	andi	a5,a5,1792
	sd	a5,-72(s0)
	.loc 1 2031 19
	ld	a5,-64(s0)
	ld	a5,120(a5)
	.loc 1 2031 14
	ld	a4,-64(s0)
	ld	a2,-72(s0)
	li	a3,0
	li	a1,2
	mv	a0,a4
	jalr	a5
.LVL36:
	sd	a0,-48(s0)
.L270:
	.loc 1 2039 34
	ld	a5,-48(s0)
	.loc 1 2039 6
	blt	a5,zero,.L282
	.loc 1 2047 9
	ld	a5,-64(s0)
	ld	a4,-88(s0)
	ld	a3,-80(s0)
	mv	a2,a3
	mv	a1,a4
	mv	a0,a5
	call	XhcCreateUsbHc
	sd	a0,-56(s0)
	.loc 1 2049 6
	ld	a5,-56(s0)
	bne	a5,zero,.L272
	.loc 1 2051 12
	li	a5,-1
	slli	a5,a5,63
	addi	a5,a5,9
	j	.L280
.L272:
	.loc 1 2058 32
	ld	a5,-56(s0)
	lbu	a5,193(a5)
	andi	a5,a5,1
	andi	a5,a5,0xff
	.loc 1 2058 6
	beq	a5,zero,.L273
	.loc 1 2059 19
	ld	a5,-64(s0)
	ld	a5,120(a5)
	.loc 1 2059 14
	ld	a4,-64(s0)
	li	a3,0
	li	a2,32768
	li	a1,2
	mv	a0,a4
	jalr	a5
.LVL37:
	sd	a0,-48(s0)
	.loc 1 2065 9
	ld	a5,-48(s0)
	.loc 1 2065 8
	blt	a5,zero,.L273
	.loc 1 2066 28
	ld	a4,-56(s0)
	li	a5,86016
	add	a5,a4,a5
	li	a4,1
	sb	a4,-1640(a5)
.L273:
	.loc 1 2078 3
	ld	a0,-56(s0)
	call	XhcSetBiosOwnership@plt
	.loc 1 2080 12
	li	a1,1000
	ld	a0,-56(s0)
	call	XhcResetHC@plt
	sd	a0,-48(s0)
	.loc 1 2081 34
	ld	a5,-48(s0)
	.loc 1 2081 6
	blt	a5,zero,.L283
	.loc 1 2097 3
	ld	a0,-56(s0)
	call	XhcInitSched@plt
	.loc 1 2102 3
	li	a5,8192
	addi	a1,a5,1808
	ld	a0,-56(s0)
	call	XhcRunHC@plt
	.loc 1 2107 15
	la	a5,gBS
	ld	a5,0(a5)
	ld	s1,88(a5)
	.loc 1 2107 12
	ld	a5,-56(s0)
	ld	s2,160(a5)
	li	a5,8192
	addi	a1,a5,1808
	li	a0,1
	call	MultU64x32@plt
	mv	a5,a0
	.loc 1 2107 12 is_stmt 0 discriminator 1
	mv	a2,a5
	li	a1,1
	mv	a0,s2
	jalr	s1
.LVL38:
	sd	a0,-48(s0)
	.loc 1 2108 34 is_stmt 1
	ld	a5,-48(s0)
	.loc 1 2108 6
	bge	a5,zero,.L276
	.loc 1 2110 5
	li	a5,8192
	addi	a1,a5,1808
	ld	a0,-56(s0)
	call	XhcHaltHC@plt
	.loc 1 2111 5
	j	.L275
.L276:
	.loc 1 2117 15
	la	a5,gBS
	ld	a5,0(a5)
	ld	a6,368(a5)
	.loc 1 2117 12
	ld	a5,-56(s0)
	addi	a5,a5,152
	la	a4,gEfiEventExitBootServicesGuid
	ld	a3,-56(s0)
	lla	a2,XhcExitBootService
	li	a1,16
	li	a0,512
	jalr	a6
.LVL39:
	sd	a0,-48(s0)
	.loc 1 2125 34
	ld	a5,-48(s0)
	.loc 1 2125 6
	blt	a5,zero,.L284
	.loc 1 2135 23
	la	a5,gXhciComponentName
	ld	a1,16(a5)
	.loc 1 2133 3
	ld	a5,-56(s0)
	addi	a5,a5,400
	li	a4,1
	lla	a3,.LC0
	mv	a2,a5
	lla	a0,.LC1
	call	AddUnicodeString2@plt
	.loc 1 2142 24
	la	a5,gXhciComponentName2
	ld	a1,16(a5)
	.loc 1 2140 3
	ld	a5,-56(s0)
	addi	a5,a5,400
	li	a4,0
	lla	a3,.LC0
	mv	a2,a5
	lla	a0,.LC2
	call	AddUnicodeString2@plt
	.loc 1 2148 15
	la	a5,gBS
	ld	a5,0(a5)
	ld	a5,128(a5)
	.loc 1 2152 19
	ld	a4,-56(s0)
	addi	a3,a4,32
	.loc 1 2148 12
	addi	a4,s0,-112
	li	a2,0
	la	a1,gEfiUsb2HcProtocolGuid
	mv	a0,a4
	jalr	a5
.LVL40:
	sd	a0,-48(s0)
	.loc 1 2154 34
	ld	a5,-48(s0)
	.loc 1 2154 6
	blt	a5,zero,.L285
	.loc 1 2160 10
	li	a5,0
	j	.L280
.L283:
	.loc 1 2083 5
	nop
	j	.L275
.L284:
	.loc 1 2126 5
	nop
	j	.L275
.L285:
	.loc 1 2156 5
	nop
.L275:
	.loc 1 2163 6
	la	a5,gBS
	ld	a5,0(a5)
	ld	a5,112(a5)
	.loc 1 2163 3
	ld	a4,-56(s0)
	ld	a4,160(a4)
	mv	a0,a4
	jalr	a5
.LVL41:
	.loc 1 2164 3
	ld	a0,-56(s0)
	call	XhcFreeSched@plt
	.loc 1 2165 3
	ld	a0,-56(s0)
	call	FreePool@plt
	j	.L269
.L281:
	.loc 1 2018 5
	nop
	j	.L269
.L282:
	.loc 1 2041 5
	nop
.L269:
	.loc 1 2168 6
	lbu	a5,-33(s0)
	andi	a5,a5,0xff
	beq	a5,zero,.L279
	.loc 1 2172 10
	ld	a5,-64(s0)
	ld	a5,120(a5)
	.loc 1 2172 5
	ld	a4,-64(s0)
	ld	a2,-80(s0)
	li	a3,0
	li	a1,1
	mv	a0,a4
	jalr	a5
.LVL42:
.L279:
	.loc 1 2180 6
	la	a5,gBS
	ld	a5,0(a5)
	ld	a5,288(a5)
	.loc 1 2180 3
	ld	a0,-112(s0)
	ld	a4,-104(s0)
	ld	a4,40(a4)
	ld	a3,-112(s0)
	mv	a2,a4
	la	a1,gEfiPciIoProtocolGuid
	jalr	a5
.LVL43:
	.loc 1 2187 10
	ld	a5,-48(s0)
.L280:
	.loc 1 2188 1
	mv	a0,a5
	ld	ra,120(sp)
	.cfi_restore 1
	ld	s0,112(sp)
	.cfi_restore 8
	.cfi_def_cfa 2, 128
	ld	s1,104(sp)
	.cfi_restore 9
	ld	s2,96(sp)
	.cfi_restore 18
	addi	sp,sp,128
	.cfi_def_cfa_offset 0
	jr	ra
	.cfi_endproc
.LFE18:
	.size	XhcDriverBindingStart, .-XhcDriverBindingStart
	.section	.text.XhcDriverBindingStop,"ax",@progbits
	.align	1
	.globl	XhcDriverBindingStop
	.type	XhcDriverBindingStop, @function
XhcDriverBindingStop:
.LFB19:
	.loc 1 2211 1
	.cfi_startproc
	addi	sp,sp,-96
	.cfi_def_cfa_offset 96
	sd	ra,88(sp)
	sd	s0,80(sp)
	.cfi_offset 1, -8
	.cfi_offset 8, -16
	addi	s0,sp,96
	.cfi_def_cfa 8, 0
	sd	a0,-72(s0)
	sd	a1,-80(s0)
	sd	a2,-88(s0)
	sd	a3,-96(s0)
	.loc 1 2223 15
	la	a5,gBS
	ld	a5,0(a5)
	ld	a6,280(a5)
	.loc 1 2223 12
	ld	a5,-72(s0)
	ld	a3,40(a5)
	addi	a2,s0,-56
	li	a5,2
	ld	a4,-80(s0)
	la	a1,gEfiUsb2HcProtocolGuid
	ld	a0,-80(s0)
	jalr	a6
.LVL44:
	sd	a0,-40(s0)
	.loc 1 2232 34
	ld	a5,-40(s0)
	.loc 1 2232 6
	bge	a5,zero,.L287
	.loc 1 2233 12
	ld	a5,-40(s0)
	j	.L301
.L287:
	.loc 1 2236 15
	la	a5,gBS
	ld	a5,0(a5)
	ld	a5,144(a5)
	.loc 1 2236 12
	ld	a4,-56(s0)
	mv	a2,a4
	la	a1,gEfiUsb2HcProtocolGuid
	ld	a0,-80(s0)
	jalr	a5
.LVL45:
	sd	a0,-40(s0)
	.loc 1 2242 34
	ld	a5,-40(s0)
	.loc 1 2242 6
	bge	a5,zero,.L289
	.loc 1 2243 12
	ld	a5,-40(s0)
	j	.L301
.L289:
	.loc 1 2246 33
	ld	a5,-56(s0)
	.loc 1 2246 11
	addi	a5,a5,-32
	.loc 1 2246 121
	lw	a4,0(a5)
	.loc 1 2246 206
	li	a5,1768124416
	addi	a5,a5,-1928
	bne	a4,a5,.L290
	.loc 1 2246 231 discriminator 1
	ld	a5,-56(s0)
	.loc 1 2246 7 discriminator 1
	addi	a5,a5,-32
	sd	a5,-24(s0)
	j	.L291
.L290:
	.loc 1 2246 7 is_stmt 0 discriminator 2
	sd	zero,-24(s0)
.L291:
	.loc 1 2247 9 is_stmt 1
	ld	a5,-24(s0)
	ld	a5,8(a5)
	sd	a5,-48(s0)
	.loc 1 2253 6
	la	a5,gBS
	ld	a5,0(a5)
	ld	a5,88(a5)
	.loc 1 2253 3
	ld	a4,-24(s0)
	ld	a4,160(a4)
	li	a2,0
	li	a1,0
	mv	a0,a4
	jalr	a5
.LVL46:
	.loc 1 2259 14
	sb	zero,-25(s0)
	.loc 1 2259 3
	j	.L292
.L297:
	.loc 1 2260 35
	lbu	a5,-25(s0)
	sext.w	a5,a5
	addiw	a5,a5,1
	sext.w	a3,a5
	.loc 1 2260 39
	ld	a4,-24(s0)
	li	a5,328
	mul	a5,a3,a5
	add	a5,a4,a5
	lbu	a5,408(a5)
	.loc 1 2260 8
	beq	a5,zero,.L302
	.loc 1 2261 35
	lbu	a5,-25(s0)
	sext.w	a5,a5
	addiw	a5,a5,1
	sext.w	a3,a5
	.loc 1 2261 39
	ld	a4,-24(s0)
	li	a5,328
	mul	a5,a3,a5
	add	a5,a4,a5
	lbu	a5,409(a5)
	.loc 1 2260 48 discriminator 2
	beq	a5,zero,.L302
	.loc 1 2266 33
	ld	a5,-24(s0)
	lbu	a5,193(a5)
	andi	a5,a5,4
	andi	a5,a5,0xff
	.loc 1 2266 8
	bne	a5,zero,.L296
	.loc 1 2267 56
	lbu	a5,-25(s0)
	sext.w	a5,a5
	addiw	a5,a5,1
	sext.w	a3,a5
	.loc 1 2267 7
	ld	a4,-24(s0)
	li	a5,328
	mul	a5,a3,a5
	add	a5,a4,a5
	lbu	a5,409(a5)
	mv	a1,a5
	ld	a0,-24(s0)
	call	XhcDisableSlotCmd@plt
	j	.L295
.L296:
	.loc 1 2269 58
	lbu	a5,-25(s0)
	sext.w	a5,a5
	addiw	a5,a5,1
	sext.w	a3,a5
	.loc 1 2269 7
	ld	a4,-24(s0)
	li	a5,328
	mul	a5,a3,a5
	add	a5,a4,a5
	lbu	a5,409(a5)
	mv	a1,a5
	ld	a0,-24(s0)
	call	XhcDisableSlotCmd64@plt
	j	.L295
.L302:
	.loc 1 2263 7
	nop
.L295:
	.loc 1 2259 37 discriminator 2
	lbu	a5,-25(s0)
	addiw	a5,a5,1
	sb	a5,-25(s0)
.L292:
	.loc 1 2259 25 discriminator 1
	lbu	a5,-25(s0)
	andi	a4,a5,0xff
	li	a5,255
	bne	a4,a5,.L297
	.loc 1 2273 10
	ld	a5,-24(s0)
	ld	a5,160(a5)
	.loc 1 2273 6
	beq	a5,zero,.L298
	.loc 1 2274 8
	la	a5,gBS
	ld	a5,0(a5)
	ld	a5,112(a5)
	.loc 1 2274 5
	ld	a4,-24(s0)
	ld	a4,160(a4)
	mv	a0,a4
	jalr	a5
.LVL47:
.L298:
	.loc 1 2277 10
	ld	a5,-24(s0)
	ld	a5,152(a5)
	.loc 1 2277 6
	beq	a5,zero,.L299
	.loc 1 2278 8
	la	a5,gBS
	ld	a5,0(a5)
	ld	a5,112(a5)
	.loc 1 2278 5
	ld	a4,-24(s0)
	ld	a4,152(a4)
	mv	a0,a4
	jalr	a5
.LVL48:
.L299:
	.loc 1 2281 3
	li	a5,8192
	addi	a1,a5,1808
	ld	a0,-24(s0)
	call	XhcHaltHC@plt
	.loc 1 2282 3
	ld	a0,-24(s0)
	call	XhcClearBiosOwnership@plt
	.loc 1 2283 3
	ld	a0,-24(s0)
	call	XhciDelAllAsyncIntTransfers@plt
	.loc 1 2284 3
	ld	a0,-24(s0)
	call	XhcFreeSched@plt
	.loc 1 2286 10
	ld	a5,-24(s0)
	ld	a5,400(a5)
	.loc 1 2286 6
	beq	a5,zero,.L300
	.loc 1 2287 5
	ld	a5,-24(s0)
	ld	a5,400(a5)
	mv	a0,a5
	call	FreeUnicodeStringTable@plt
.L300:
	.loc 1 2293 8
	ld	a5,-48(s0)
	ld	a5,120(a5)
	.loc 1 2293 3
	ld	a4,-24(s0)
	ld	a4,16(a4)
	li	a3,0
	mv	a2,a4
	li	a1,1
	ld	a0,-48(s0)
	jalr	a5
.LVL49:
	.loc 1 2300 6
	la	a5,gBS
	ld	a5,0(a5)
	ld	a5,288(a5)
	.loc 1 2300 3
	ld	a4,-72(s0)
	ld	a4,40(a4)
	ld	a3,-80(s0)
	mv	a2,a4
	la	a1,gEfiPciIoProtocolGuid
	ld	a0,-80(s0)
	jalr	a5
.LVL50:
	.loc 1 2307 3
	ld	a0,-24(s0)
	call	FreePool@plt
	.loc 1 2309 10
	li	a5,0
.L301:
	.loc 1 2310 1
	mv	a0,a5
	ld	ra,88(sp)
	.cfi_restore 1
	ld	s0,80(sp)
	.cfi_restore 8
	.cfi_def_cfa 2, 96
	addi	sp,sp,96
	.cfi_def_cfa_offset 0
	jr	ra
	.cfi_endproc
.LFE19:
	.size	XhcDriverBindingStop, .-XhcDriverBindingStop
	.section	.text.XhcConvertTimeToTicks,"ax",@progbits
	.align	1
	.globl	XhcConvertTimeToTicks
	.type	XhcConvertTimeToTicks, @function
XhcConvertTimeToTicks:
.LFB20:
	.loc 1 2322 1
	.cfi_startproc
	addi	sp,sp,-80
	.cfi_def_cfa_offset 80
	sd	ra,72(sp)
	sd	s0,64(sp)
	sd	s1,56(sp)
	.cfi_offset 1, -8
	.cfi_offset 8, -16
	.cfi_offset 9, -24
	addi	s0,sp,80
	.cfi_def_cfa 8, 0
	sd	a0,-72(s0)
	.loc 1 2329 7
	lla	a5,mXhciPerformanceCounterValuesCached
	lbu	a5,0(a5)
	.loc 1 2329 6
	bne	a5,zero,.L304
	.loc 1 2330 40
	lla	a1,mXhciPerformanceCounterEndValue
	lla	a0,mXhciPerformanceCounterStartValue
	call	GetPerformanceCounterProperties@plt
	mv	a4,a0
	.loc 1 2330 38 discriminator 1
	lla	a5,mXhciPerformanceCounterFrequency
	sd	a4,0(a5)
	.loc 1 2335 41
	lla	a5,mXhciPerformanceCounterValuesCached
	li	a4,1
	sb	a4,0(a5)
.L304:
	.loc 1 2339 9
	lla	a5,mXhciPerformanceCounterFrequency
	ld	a5,0(a5)
	.loc 1 2339 6
	bne	a5,zero,.L305
	.loc 1 2340 12
	ld	a5,-72(s0)
	j	.L309
.L305:
	.loc 1 2344 11
	li	a5,1000001536
	addi	a5,a5,-1536
	sd	a5,-48(s0)
	.loc 1 2351 11
	lla	a5,mXhciPerformanceCounterFrequency
	ld	a5,0(a5)
	addi	a4,s0,-64
	mv	a2,a4
	ld	a1,-48(s0)
	mv	a0,a5
	call	DivU64x64Remainder@plt
	mv	a5,a0
	.loc 1 2351 11 is_stmt 0 discriminator 1
	ld	a1,-72(s0)
	mv	a0,a5
	call	MultU64x64@plt
	sd	a0,-56(s0)
	.loc 1 2365 20 is_stmt 1
	ld	a5,-64(s0)
	mv	a0,a5
	call	HighBitSet64@plt
	mv	s1,a0
	.loc 1 2365 47 discriminator 1
	ld	a0,-72(s0)
	call	HighBitSet64@plt
	mv	a5,a0
	.loc 1 2365 45 discriminator 2
	add	a4,s1,a5
	.loc 1 2365 80 discriminator 2
	li	a5,61
	ble	a4,a5,.L307
	.loc 1 2365 83 discriminator 3
	ld	a5,-64(s0)
	mv	a0,a5
	call	HighBitSet64@plt
	mv	s1,a0
	.loc 1 2365 110 discriminator 5
	ld	a0,-72(s0)
	call	HighBitSet64@plt
	mv	a5,a0
	.loc 1 2365 108 discriminator 6
	add	a5,s1,a5
	.loc 1 2365 130 discriminator 6
	addi	a5,a5,-62
	.loc 1 2365 9 discriminator 6
	sd	a5,-40(s0)
	j	.L308
.L307:
	.loc 1 2365 9 is_stmt 0 discriminator 4
	sd	zero,-40(s0)
.L308:
	.loc 1 2366 15 is_stmt 1
	ld	a5,-64(s0)
	ld	a1,-40(s0)
	mv	a0,a5
	call	RShiftU64@plt
	mv	a5,a0
	.loc 1 2366 13 discriminator 1
	sd	a5,-64(s0)
	.loc 1 2367 13
	ld	a1,-40(s0)
	ld	a0,-48(s0)
	call	RShiftU64@plt
	sd	a0,-48(s0)
	.loc 1 2368 12
	ld	a5,-64(s0)
	ld	a1,-72(s0)
	mv	a0,a5
	call	MultU64x64@plt
	mv	a5,a0
	.loc 1 2368 12 is_stmt 0 discriminator 1
	li	a2,0
	ld	a1,-48(s0)
	mv	a0,a5
	call	DivU64x64Remainder@plt
	mv	a4,a0
	.loc 1 2368 9 is_stmt 1 discriminator 2
	ld	a5,-56(s0)
	add	a5,a5,a4
	sd	a5,-56(s0)
	.loc 1 2370 10
	ld	a5,-56(s0)
.L309:
	.loc 1 2371 1
	mv	a0,a5
	ld	ra,72(sp)
	.cfi_restore 1
	ld	s0,64(sp)
	.cfi_restore 8
	.cfi_def_cfa 2, 80
	ld	s1,56(sp)
	.cfi_restore 9
	addi	sp,sp,80
	.cfi_def_cfa_offset 0
	jr	ra
	.cfi_endproc
.LFE20:
	.size	XhcConvertTimeToTicks, .-XhcConvertTimeToTicks
	.section	.text.XhcGetElapsedTicks,"ax",@progbits
	.align	1
	.globl	XhcGetElapsedTicks
	.type	XhcGetElapsedTicks, @function
XhcGetElapsedTicks:
.LFB21:
	.loc 1 2386 1
	.cfi_startproc
	addi	sp,sp,-48
	.cfi_def_cfa_offset 48
	sd	ra,40(sp)
	sd	s0,32(sp)
	.cfi_offset 1, -8
	.cfi_offset 8, -16
	addi	s0,sp,48
	.cfi_def_cfa 8, 0
	sd	a0,-40(s0)
	.loc 1 2390 17
	call	GetPerformanceCounter@plt
	sd	a0,-32(s0)
	.loc 1 2395 41
	lla	a5,mXhciPerformanceCounterStartValue
	ld	a4,0(a5)
	lla	a5,mXhciPerformanceCounterEndValue
	ld	a5,0(a5)
	.loc 1 2395 6
	bgeu	a4,a5,.L311
	.loc 1 2399 9
	ld	a5,-40(s0)
	ld	a5,0(a5)
	.loc 1 2399 8
	ld	a4,-32(s0)
	bgeu	a4,a5,.L312
	.loc 1 2400 28
	lla	a5,mXhciPerformanceCounterStartValue
	ld	a5,0(a5)
	ld	a4,-32(s0)
	sub	a4,a4,a5
	.loc 1 2400 100
	lla	a5,mXhciPerformanceCounterEndValue
	ld	a3,0(a5)
	.loc 1 2400 102
	ld	a5,-40(s0)
	ld	a5,0(a5)
	.loc 1 2400 100
	sub	a5,a3,a5
	.loc 1 2400 13
	add	a5,a4,a5
	sd	a5,-24(s0)
	j	.L313
.L312:
	.loc 1 2402 29
	ld	a5,-40(s0)
	ld	a5,0(a5)
	.loc 1 2402 13
	ld	a4,-32(s0)
	sub	a5,a4,a5
	sd	a5,-24(s0)
	j	.L313
.L311:
	.loc 1 2408 9
	ld	a5,-40(s0)
	ld	a5,0(a5)
	.loc 1 2408 8
	ld	a4,-32(s0)
	bleu	a4,a5,.L314
	.loc 1 2409 50
	lla	a5,mXhciPerformanceCounterStartValue
	ld	a4,0(a5)
	ld	a5,-32(s0)
	sub	a4,a4,a5
	.loc 1 2409 68
	ld	a5,-40(s0)
	ld	a3,0(a5)
	.loc 1 2409 82
	lla	a5,mXhciPerformanceCounterEndValue
	ld	a5,0(a5)
	sub	a5,a3,a5
	.loc 1 2409 13
	add	a5,a4,a5
	sd	a5,-24(s0)
	j	.L313
.L314:
	.loc 1 2411 15
	ld	a5,-40(s0)
	ld	a4,0(a5)
	.loc 1 2411 13
	ld	a5,-32(s0)
	sub	a5,a4,a5
	sd	a5,-24(s0)
.L313:
	.loc 1 2418 17
	ld	a5,-40(s0)
	ld	a4,-32(s0)
	sd	a4,0(a5)
	.loc 1 2420 10
	ld	a5,-24(s0)
	.loc 1 2421 1
	mv	a0,a5
	ld	ra,40(sp)
	.cfi_restore 1
	ld	s0,32(sp)
	.cfi_restore 8
	.cfi_def_cfa 2, 48
	addi	sp,sp,48
	.cfi_def_cfa_offset 0
	jr	ra
	.cfi_endproc
.LFE21:
	.size	XhcGetElapsedTicks, .-XhcGetElapsedTicks
	.text
.Letext0:
	.file 2 "/home/kapoagaeming/Downloads/spacemit-image-builder/components/edk2/MdePkg/Include/RiscV64/ProcessorBind.h"
	.file 3 "/home/kapoagaeming/Downloads/spacemit-image-builder/components/edk2/MdePkg/Include/Base.h"
	.file 4 "/home/kapoagaeming/Downloads/spacemit-image-builder/components/edk2/MdePkg/Include/Uefi/UefiBaseType.h"
	.file 5 "/home/kapoagaeming/Downloads/spacemit-image-builder/components/edk2/MdePkg/Include/Uefi/UefiMultiPhase.h"
	.file 6 "/home/kapoagaeming/Downloads/spacemit-image-builder/components/edk2/MdePkg/Include/Protocol/DevicePath.h"
	.file 7 "/home/kapoagaeming/Downloads/spacemit-image-builder/components/edk2/MdePkg/Include/Protocol/SimpleTextIn.h"
	.file 8 "/home/kapoagaeming/Downloads/spacemit-image-builder/components/edk2/MdePkg/Include/Protocol/SimpleTextOut.h"
	.file 9 "/home/kapoagaeming/Downloads/spacemit-image-builder/components/edk2/MdePkg/Include/Uefi/UefiSpec.h"
	.file 10 "/home/kapoagaeming/Downloads/spacemit-image-builder/components/Build/Milk-V-Jupiter/RELEASE_GCC5/RISCV64/MdeModulePkg/Bus/Pci/XhciDxe/XhciDxe/DEBUG/AutoGen.h"
	.file 11 "/home/kapoagaeming/Downloads/spacemit-image-builder/components/edk2/MdePkg/Include/IndustryStandard/Usb.h"
	.file 12 "/home/kapoagaeming/Downloads/spacemit-image-builder/components/edk2/MdePkg/Include/Protocol/UsbIo.h"
	.file 13 "/home/kapoagaeming/Downloads/spacemit-image-builder/components/edk2/MdePkg/Include/Protocol/Usb2HostController.h"
	.file 14 "/home/kapoagaeming/Downloads/spacemit-image-builder/components/edk2/MdePkg/Include/Protocol/PciIo.h"
	.file 15 "/home/kapoagaeming/Downloads/spacemit-image-builder/components/edk2/MdePkg/Include/Protocol/DriverBinding.h"
	.file 16 "/home/kapoagaeming/Downloads/spacemit-image-builder/components/edk2/MdePkg/Include/Protocol/ComponentName.h"
	.file 17 "/home/kapoagaeming/Downloads/spacemit-image-builder/components/edk2/MdePkg/Include/Protocol/ComponentName2.h"
	.file 18 "/home/kapoagaeming/Downloads/spacemit-image-builder/components/edk2/MdePkg/Include/Library/UefiLib.h"
	.file 19 "/home/kapoagaeming/Downloads/spacemit-image-builder/components/edk2/MdePkg/Include/Pi/PiStatusCode.h"
	.file 20 "/home/kapoagaeming/Downloads/spacemit-image-builder/components/edk2/MdeModulePkg/Bus/Pci/XhciDxe/Xhci.h"
	.file 21 "/home/kapoagaeming/Downloads/spacemit-image-builder/components/edk2/MdeModulePkg/Bus/Pci/XhciDxe/XhciReg.h"
	.file 22 "/home/kapoagaeming/Downloads/spacemit-image-builder/components/edk2/MdeModulePkg/Bus/Pci/XhciDxe/XhciSched.h"
	.file 23 "/home/kapoagaeming/Downloads/spacemit-image-builder/components/edk2/MdeModulePkg/Bus/Pci/XhciDxe/UsbHcMem.h"
	.file 24 "/home/kapoagaeming/Downloads/spacemit-image-builder/components/edk2/MdePkg/Include/Library/BaseLib.h"
	.file 25 "/home/kapoagaeming/Downloads/spacemit-image-builder/components/edk2/MdePkg/Include/Library/TimerLib.h"
	.file 26 "/home/kapoagaeming/Downloads/spacemit-image-builder/components/edk2/MdePkg/Include/Library/MemoryAllocationLib.h"
	.file 27 "/home/kapoagaeming/Downloads/spacemit-image-builder/components/edk2/MdePkg/Include/Library/BaseMemoryLib.h"
	.file 28 "/home/kapoagaeming/Downloads/spacemit-image-builder/components/edk2/MdePkg/Include/Library/ReportStatusCodeLib.h"
	.file 29 "/home/kapoagaeming/Downloads/spacemit-image-builder/components/edk2/MdePkg/Include/Library/UefiBootServicesTableLib.h"
	.section	.note.GNU-stack,"",@progbits
