	.file	"AutoGen.c"
	.option pic
	.option norelax
	.attribute arch, "rv64i2p1_m2p0_a2p1_f2p2_d2p2_c2p0_zicsr2p0_zifencei2p0_zmmul1p0_zaamo1p0_zalrsc1p0_zca1p0_zcd1p0"
	.attribute unaligned_access, 0
	.attribute stack_align, 16
	.text
.Ltext0:
	.cfi_sections	.debug_frame
	.file 0 "/home/kapoagaeming/Downloads/spacemit-image-builder/components/Build/Milk-V-Jupiter/RELEASE_GCC5/RISCV64/MdeModulePkg/Universal/BdsDxe/BdsDxe" "/home/kapoagaeming/Downloads/spacemit-image-builder/components/Build/Milk-V-Jupiter/RELEASE_GCC5/RISCV64/MdeModulePkg/Universal/BdsDxe/BdsDxe/DEBUG/AutoGen.c"
	.globl	gEfiCallerIdGuid
	.section	.data.gEfiCallerIdGuid,"aw"
	.align	3
	.type	gEfiCallerIdGuid, @object
	.size	gEfiCallerIdGuid, 16
gEfiCallerIdGuid:
	.word	1832096842
	.half	-5003
	.half	18517
	.base64	"pU2AnHUkH2w="
	.globl	gEdkiiDscPlatformGuid
	.section	.data.gEdkiiDscPlatformGuid,"aw"
	.align	3
	.type	gEdkiiDscPlatformGuid, @object
	.size	gEdkiiDscPlatformGuid, 16
gEdkiiDscPlatformGuid:
	.word	-1093915514
	.half	809
	.half	18550
	.base64	"mLFXzDezPfM="
	.globl	gEfiCallerBaseName
	.section	.rodata
	.align	3
.LC0:
	.string	"BdsDxe"
	.section	.data.rel.local.gEfiCallerBaseName,"aw"
	.align	3
	.type	gEfiCallerBaseName, @object
	.size	gEfiCallerBaseName, 8
gEfiCallerBaseName:
	.dword	.LC0
	.globl	gEfiGlobalVariableGuid
	.section	.data.gEfiGlobalVariableGuid,"aw"
	.align	3
	.type	gEfiGlobalVariableGuid, @object
	.size	gEfiGlobalVariableGuid, 16
gEfiGlobalVariableGuid:
	.word	-1947934879
	.half	-27702
	.half	4562
	.base64	"qg0A4JgDK4w="
	.globl	gConnectConInEventGuid
	.section	.data.gConnectConInEventGuid,"aw"
	.align	3
	.type	gConnectConInEventGuid, @object
	.size	gConnectConInEventGuid, 16
gConnectConInEventGuid:
	.word	-615612079
	.half	22509
	.half	19437
	.base64	"iDNnUbXRqNc="
	.globl	gEdkiiStatusCodeDataTypeVariableGuid
	.section	.data.gEdkiiStatusCodeDataTypeVariableGuid,"aw"
	.align	3
	.type	gEdkiiStatusCodeDataTypeVariableGuid, @object
	.size	gEdkiiStatusCodeDataTypeVariableGuid, 16
gEdkiiStatusCodeDataTypeVariableGuid:
	.word	-152146501
	.half	-10625
	.half	20128
	.base64	"i5ZqcbGdhK0="
	.globl	gEfiEventReadyToBootGuid
	.section	.data.gEfiEventReadyToBootGuid,"aw"
	.align	3
	.type	gEfiEventReadyToBootGuid, @object
	.size	gEfiEventReadyToBootGuid, 16
gEfiEventReadyToBootGuid:
	.word	2095615923
	.half	19415
	.half	18041
	.base64	"h6io2N7lDSs="
	.globl	gEfiMdePkgTokenSpaceGuid
	.section	.data.gEfiMdePkgTokenSpaceGuid,"aw"
	.align	3
	.type	gEfiMdePkgTokenSpaceGuid, @object
	.size	gEfiMdePkgTokenSpaceGuid, 16
gEfiMdePkgTokenSpaceGuid:
	.word	-1857360921
	.half	17973
	.half	17819
	.base64	"qhwR4hmwOhA="
	.globl	gEfiMdeModulePkgTokenSpaceGuid
	.section	.data.gEfiMdeModulePkgTokenSpaceGuid,"aw"
	.align	3
	.type	gEfiMdeModulePkgTokenSpaceGuid, @object
	.size	gEfiMdeModulePkgTokenSpaceGuid, 16
gEfiMdeModulePkgTokenSpaceGuid:
	.word	-1582305207
	.half	-533
	.half	17450
	.base64	"syATq0y3K7w="
	.globl	gEfiEventAfterReadyToBootGuid
	.section	.data.gEfiEventAfterReadyToBootGuid,"aw"
	.align	3
	.type	gEfiEventAfterReadyToBootGuid, @object
	.size	gEfiEventAfterReadyToBootGuid, 16
gEfiEventAfterReadyToBootGuid:
	.word	975831213
	.half	-26439
	.half	19679
	.base64	"pHhwJ3fxwQs="
	.globl	gEfiEventLegacyBootGuid
	.section	.data.gEfiEventLegacyBootGuid,"aw"
	.align	3
	.type	gEfiEventLegacyBootGuid, @object
	.size	gEfiEventLegacyBootGuid, 16
gEfiEventLegacyBootGuid:
	.word	710349313
	.half	18790
	.half	18422
	.base64	"i4bzHkHzLxA="
	.globl	gEfiAcpi20TableGuid
	.section	.data.gEfiAcpi20TableGuid,"aw"
	.align	3
	.type	gEfiAcpi20TableGuid, @object
	.size	gEfiAcpi20TableGuid, 16
gEfiAcpi20TableGuid:
	.word	-2006390671
	.half	-6927
	.half	4563
	.base64	"vCIAgMc8iIE="
	.globl	gEfiAcpi10TableGuid
	.section	.data.gEfiAcpi10TableGuid,"aw"
	.align	3
	.type	gEfiAcpi10TableGuid, @object
	.size	gEfiAcpi10TableGuid, 16
gEfiAcpi10TableGuid:
	.word	-342020816
	.half	11656
	.half	4563
	.base64	"mhYAkCc/wU0="
	.globl	gEdkiiIfrBitVarstoreGuid
	.section	.data.gEdkiiIfrBitVarstoreGuid,"aw"
	.align	3
	.type	gEdkiiIfrBitVarstoreGuid, @object
	.size	gEdkiiIfrBitVarstoreGuid, 16
gEdkiiIfrBitVarstoreGuid:
	.word	-2099390837
	.half	-28317
	.half	16775
	.base64	"mycgqP1gpx0="
	.globl	gEfiFileInfoGuid
	.section	.data.gEfiFileInfoGuid,"aw"
	.align	3
	.type	gEfiFileInfoGuid, @object
	.size	gEfiFileInfoGuid, 16
gEfiFileInfoGuid:
	.word	156724882
	.half	27967
	.half	4562
	.base64	"jjkAoMlpcjs="
	.globl	gEfiDxeServicesTableGuid
	.section	.data.gEfiDxeServicesTableGuid,"aw"
	.align	3
	.type	gEfiDxeServicesTableGuid, @object
	.size	gEfiDxeServicesTableGuid, 16
gEfiDxeServicesTableGuid:
	.word	95237306
	.half	28418
	.half	16916
	.base64	"lS5NoDmOK7k="
	.globl	gEdkiiPerformanceMeasurementProtocolGuid
	.section	.data.gEdkiiPerformanceMeasurementProtocolGuid,"aw"
	.align	3
	.type	gEdkiiPerformanceMeasurementProtocolGuid, @object
	.size	gEdkiiPerformanceMeasurementProtocolGuid, 16
gEdkiiPerformanceMeasurementProtocolGuid:
	.word	-933427522
	.half	24437
	.half	18638
	.base64	"qA8SNro7h7E="
	.globl	gEfiHobListGuid
	.section	.data.gEfiHobListGuid,"aw"
	.align	3
	.type	gEfiHobListGuid, @object
	.size	gEfiHobListGuid, 16
gEfiHobListGuid:
	.word	2000286284
	.half	-27689
	.half	4564
	.base64	"mjoAkCc/wU0="
	.globl	gEfiStatusCodeSpecificDataGuid
	.section	.data.gEfiStatusCodeSpecificDataGuid,"aw"
	.align	3
	.type	gEfiStatusCodeSpecificDataGuid, @object
	.size	gEfiStatusCodeSpecificDataGuid, 16
gEfiStatusCodeSpecificDataGuid:
	.word	861504701
	.half	-6139
	.half	16538
	.base64	"uPjSfs5f96Y="
	.globl	gEfiStatusCodeDataTypeDebugGuid
	.section	.data.gEfiStatusCodeDataTypeDebugGuid,"aw"
	.align	3
	.type	gEfiStatusCodeDataTypeDebugGuid, @object
	.size	gEfiStatusCodeDataTypeDebugGuid, 16
gEfiStatusCodeDataTypeDebugGuid:
	.word	-1706126778
	.half	-10925
	.half	4565
	.base64	"h+IABilFw7k="
	.globl	gEfiMemoryTypeInformationGuid
	.section	.data.gEfiMemoryTypeInformationGuid,"aw"
	.align	3
	.type	gEfiMemoryTypeInformationGuid, @object
	.size	gEfiMemoryTypeInformationGuid, 16
gEfiMemoryTypeInformationGuid:
	.word	1276707999
	.half	16695
	.half	19923
	.base64	"nBCLl6g//fo="
	.globl	gEfiDiskInfoAhciInterfaceGuid
	.section	.data.gEfiDiskInfoAhciInterfaceGuid,"aw"
	.align	3
	.type	gEfiDiskInfoAhciInterfaceGuid, @object
	.size	gEfiDiskInfoAhciInterfaceGuid, 16
gEfiDiskInfoAhciInterfaceGuid:
	.word	-1639347918
	.half	19132
	.half	17839
	.base64	"o00CR3h758Y="
	.globl	gEfiDiskInfoIdeInterfaceGuid
	.section	.data.gEfiDiskInfoIdeInterfaceGuid,"aw"
	.align	3
	.type	gEfiDiskInfoIdeInterfaceGuid, @object
	.size	gEfiDiskInfoIdeInterfaceGuid, 16
gEfiDiskInfoIdeInterfaceGuid:
	.word	1586794467
	.half	9939
	.half	17077
	.base64	"rxdhAocYjew="
	.globl	gEfiDiskInfoScsiInterfaceGuid
	.section	.data.gEfiDiskInfoScsiInterfaceGuid,"aw"
	.align	3
	.type	gEfiDiskInfoScsiInterfaceGuid, @object
	.size	gEfiDiskInfoScsiInterfaceGuid, 16
gEfiDiskInfoScsiInterfaceGuid:
	.word	150424490
	.half	-5578
	.half	16857
	.base64	"lSEhpw+HgLw="
	.globl	gEfiDiskInfoSdMmcInterfaceGuid
	.section	.data.gEfiDiskInfoSdMmcInterfaceGuid,"aw"
	.align	3
	.type	gEfiDiskInfoSdMmcInterfaceGuid, @object
	.size	gEfiDiskInfoSdMmcInterfaceGuid, 16
gEfiDiskInfoSdMmcInterfaceGuid:
	.word	-1913730670
	.half	-11364
	.half	19036
	.base64	"q2uYbhQkK50="
	.globl	gEfiDiskInfoUfsInterfaceGuid
	.section	.data.gEfiDiskInfoUfsInterfaceGuid,"aw"
	.align	3
	.type	gEfiDiskInfoUfsInterfaceGuid, @object
	.size	gEfiDiskInfoUfsInterfaceGuid, 16
gEfiDiskInfoUfsInterfaceGuid:
	.word	1261447628
	.half	27544
	.half	18427
	.base64	"vJZ23LgEQfA="
	.globl	gEfiEndOfDxeEventGroupGuid
	.section	.data.gEfiEndOfDxeEventGroupGuid,"aw"
	.align	3
	.type	gEfiEndOfDxeEventGroupGuid, @object
	.size	gEfiEndOfDxeEventGroupGuid, 16
gEfiEndOfDxeEventGroupGuid:
	.word	47093370
	.half	-8834
	.half	20476
	.base64	"nueBDPBHCIA="
	.globl	gUefiShellFileGuid
	.section	.data.gUefiShellFileGuid,"aw"
	.align	3
	.type	gUefiShellFileGuid, @object
	.size	gUefiShellFileGuid, 16
gUefiShellFileGuid:
	.word	2080679299
	.half	-25026
	.half	20252
	.base64	"rWXgUmjQtNE="
	.globl	gSpacemitTokenSpaceGuid
	.section	.data.gSpacemitTokenSpaceGuid,"aw"
	.align	3
	.type	gSpacemitTokenSpaceGuid, @object
	.size	gSpacemitTokenSpaceGuid, 16
gSpacemitTokenSpaceGuid:
	.word	214524533
	.half	15414
	.half	18954
	.base64	"qDNTBN8K0EQ="
	.globl	gEfiBdsArchProtocolGuid
	.section	.data.gEfiBdsArchProtocolGuid,"aw"
	.align	3
	.type	gEfiBdsArchProtocolGuid, @object
	.size	gEfiBdsArchProtocolGuid, 16
gEfiBdsArchProtocolGuid:
	.word	1717452790
	.half	18124
	.half	4564
	.base64	"mjgAkCc/wU0="
	.globl	gEfiSimpleTextInputExProtocolGuid
	.section	.data.gEfiSimpleTextInputExProtocolGuid,"aw"
	.align	3
	.type	gEfiSimpleTextInputExProtocolGuid, @object
	.size	gEfiSimpleTextInputExProtocolGuid, 16
gEfiSimpleTextInputExProtocolGuid:
	.word	-576817868
	.half	30562
	.half	18072
	.base64	"jBT1hRemJao="
	.globl	gEdkiiVariablePolicyProtocolGuid
	.section	.data.gEdkiiVariablePolicyProtocolGuid,"aw"
	.align	3
	.type	gEdkiiVariablePolicyProtocolGuid, @object
	.size	gEdkiiVariablePolicyProtocolGuid, 16
gEdkiiVariablePolicyProtocolGuid:
	.word	-2116982948
	.half	-30986
	.half	18655
	.base64	"vZWabk8JJcM="
	.globl	gEfiDeferredImageLoadProtocolGuid
	.section	.data.gEfiDeferredImageLoadProtocolGuid,"aw"
	.align	3
	.type	gEfiDeferredImageLoadProtocolGuid, @object
	.size	gEfiDeferredImageLoadProtocolGuid, 16
gEfiDeferredImageLoadProtocolGuid:
	.word	361053564
	.half	15839
	.half	17376
	.base64	"ocvr+FuPhyw="
	.globl	gPcdProtocolGuid
	.section	.data.gPcdProtocolGuid,"aw"
	.align	3
	.type	gPcdProtocolGuid, @object
	.size	gPcdProtocolGuid, 16
gPcdProtocolGuid:
	.word	296960006
	.half	-10149
	.half	19722
	.base64	"opDVpXExDvc="
	.globl	gEfiPcdProtocolGuid
	.section	.data.gEfiPcdProtocolGuid,"aw"
	.align	3
	.type	gEfiPcdProtocolGuid, @object
	.size	gEfiPcdProtocolGuid, 16
gEfiPcdProtocolGuid:
	.word	329511158
	.half	9802
	.half	16112
	.base64	"8uDexRI0LzQ="
	.globl	gGetPcdInfoProtocolGuid
	.section	.data.gGetPcdInfoProtocolGuid,"aw"
	.align	3
	.type	gGetPcdInfoProtocolGuid, @object
	.size	gGetPcdInfoProtocolGuid, 16
gGetPcdInfoProtocolGuid:
	.word	1541672791
	.half	-1432
	.half	17936
	.base64	"u7/pxfza02U="
	.globl	gEfiGetPcdInfoProtocolGuid
	.section	.data.gEfiGetPcdInfoProtocolGuid,"aw"
	.align	3
	.type	gEfiGetPcdInfoProtocolGuid, @object
	.size	gEfiGetPcdInfoProtocolGuid, 16
gEfiGetPcdInfoProtocolGuid:
	.word	-49331080
	.half	3837
	.half	17949
	.base64	"ui3ljEX9X14="
	.globl	gEfiDevicePathProtocolGuid
	.section	.data.gEfiDevicePathProtocolGuid,"aw"
	.align	3
	.type	gEfiDevicePathProtocolGuid, @object
	.size	gEfiDevicePathProtocolGuid, 16
gEfiDevicePathProtocolGuid:
	.word	156724881
	.half	27967
	.half	4562
	.base64	"jjkAoMlpcjs="
	.globl	gEfiDevicePathUtilitiesProtocolGuid
	.section	.data.gEfiDevicePathUtilitiesProtocolGuid,"aw"
	.align	3
	.type	gEfiDevicePathUtilitiesProtocolGuid, @object
	.size	gEfiDevicePathUtilitiesProtocolGuid, 16
gEfiDevicePathUtilitiesProtocolGuid:
	.word	58310222
	.half	-10490
	.half	17277
	.base64	"sDftuC+3cqQ="
	.globl	gEfiDevicePathToTextProtocolGuid
	.section	.data.gEfiDevicePathToTextProtocolGuid,"aw"
	.align	3
	.type	gEfiDevicePathToTextProtocolGuid, @object
	.size	gEfiDevicePathToTextProtocolGuid, 16
gEfiDevicePathToTextProtocolGuid:
	.word	-1954267616
	.half	-32462
	.half	18514
	.base64	"kMxVGk5Kfxw="
	.globl	gEfiDevicePathFromTextProtocolGuid
	.section	.data.gEfiDevicePathFromTextProtocolGuid,"aw"
	.align	3
	.type	gEfiDevicePathFromTextProtocolGuid, @object
	.size	gEfiDevicePathFromTextProtocolGuid, 16
gEfiDevicePathFromTextProtocolGuid:
	.word	97098273
	.half	-14577
	.half	19154
	.base64	"il813zND9R4="
	.globl	gEfiHiiFontProtocolGuid
	.section	.data.gEfiHiiFontProtocolGuid,"aw"
	.align	3
	.type	gEfiHiiFontProtocolGuid, @object
	.size	gEfiHiiFontProtocolGuid, 16
gEfiHiiFontProtocolGuid:
	.word	-372619403
	.half	-31145
	.half	18428
	.base64	"l+d+1loIQyQ="
	.globl	gEfiHiiStringProtocolGuid
	.section	.data.gEfiHiiStringProtocolGuid,"aw"
	.align	3
	.type	gEfiHiiStringProtocolGuid, @object
	.size	gEfiHiiStringProtocolGuid, 16
gEfiHiiStringProtocolGuid:
	.word	265906548
	.half	9130
	.half	19676
	.base64	"ucuY0XdQMio="
	.globl	gEfiHiiImageProtocolGuid
	.section	.data.gEfiHiiImageProtocolGuid,"aw"
	.align	3
	.type	gEfiHiiImageProtocolGuid, @object
	.size	gEfiHiiImageProtocolGuid, 16
gEfiHiiImageProtocolGuid:
	.word	832979050
	.half	27615
	.half	20038
	.base64	"sqLrqonECSA="
	.globl	gEfiHiiDatabaseProtocolGuid
	.section	.data.gEfiHiiDatabaseProtocolGuid,"aw"
	.align	3
	.type	gEfiHiiDatabaseProtocolGuid, @object
	.size	gEfiHiiDatabaseProtocolGuid, 16
gEfiHiiDatabaseProtocolGuid:
	.word	-274742926
	.half	-24142
	.half	18067
	.base64	"sydtMvxBYEI="
	.globl	gEfiHiiConfigRoutingProtocolGuid
	.section	.data.gEfiHiiConfigRoutingProtocolGuid,"aw"
	.align	3
	.type	gEfiHiiConfigRoutingProtocolGuid, @object
	.size	gEfiHiiConfigRoutingProtocolGuid, 16
gEfiHiiConfigRoutingProtocolGuid:
	.word	1484681943
	.half	-13232
	.half	20345
	.base64	"ggnKKR/BoQ8="
	.globl	gEfiDriverBindingProtocolGuid
	.section	.data.gEfiDriverBindingProtocolGuid,"aw"
	.align	3
	.type	gEfiDriverBindingProtocolGuid, @object
	.size	gEfiDriverBindingProtocolGuid, 16
gEfiDriverBindingProtocolGuid:
	.word	413151659
	.half	-19389
	.half	19738
	.base64	"pcAMCSYen3E="
	.globl	gEfiSimpleTextOutProtocolGuid
	.section	.data.gEfiSimpleTextOutProtocolGuid,"aw"
	.align	3
	.type	gEfiSimpleTextOutProtocolGuid, @object
	.size	gEfiSimpleTextOutProtocolGuid, 16
gEfiSimpleTextOutProtocolGuid:
	.word	947156930
	.half	27079
	.half	4562
	.base64	"jjkAoMlpcjs="
	.globl	gEfiGraphicsOutputProtocolGuid
	.section	.data.gEfiGraphicsOutputProtocolGuid,"aw"
	.align	3
	.type	gEfiGraphicsOutputProtocolGuid, @object
	.size	gEfiGraphicsOutputProtocolGuid, 16
gEfiGraphicsOutputProtocolGuid:
	.word	-1874679330
	.half	9180
	.half	19000
	.base64	"lvt63tCAUWo="
	.globl	gEfiSimpleFileSystemProtocolGuid
	.section	.data.gEfiSimpleFileSystemProtocolGuid,"aw"
	.align	3
	.type	gEfiSimpleFileSystemProtocolGuid, @object
	.size	gEfiSimpleFileSystemProtocolGuid, 16
gEfiSimpleFileSystemProtocolGuid:
	.word	-1773249758
	.half	25689
	.half	4562
	.base64	"jjkAoMlpcjs="
	.globl	gEfiUgaDrawProtocolGuid
	.section	.data.gEfiUgaDrawProtocolGuid,"aw"
	.align	3
	.type	gEfiUgaDrawProtocolGuid, @object
	.size	gEfiUgaDrawProtocolGuid, 16
gEfiUgaDrawProtocolGuid:
	.word	-1741936245
	.half	-2822
	.half	16843
	.base64	"uDh3qmiPuDk="
	.globl	gEfiComponentNameProtocolGuid
	.section	.data.gEfiComponentNameProtocolGuid,"aw"
	.align	3
	.type	gEfiComponentNameProtocolGuid, @object
	.size	gEfiComponentNameProtocolGuid, 16
gEfiComponentNameProtocolGuid:
	.word	276461356
	.half	-10783
	.half	4564
	.base64	"mkYAkCc/wU0="
	.globl	gEfiComponentName2ProtocolGuid
	.section	.data.gEfiComponentName2ProtocolGuid,"aw"
	.align	3
	.type	gEfiComponentName2ProtocolGuid, @object
	.size	gEfiComponentName2ProtocolGuid, 16
gEfiComponentName2ProtocolGuid:
	.word	1786404095
	.half	-5927
	.half	20336
	.base64	"utp1qzAlzhQ="
	.globl	gEfiDriverConfigurationProtocolGuid
	.section	.data.gEfiDriverConfigurationProtocolGuid,"aw"
	.align	3
	.type	gEfiDriverConfigurationProtocolGuid, @object
	.size	gEfiDriverConfigurationProtocolGuid, 16
gEfiDriverConfigurationProtocolGuid:
	.word	276461355
	.half	-10783
	.half	4564
	.base64	"mkYAkCc/wU0="
	.globl	gEfiDriverConfiguration2ProtocolGuid
	.section	.data.gEfiDriverConfiguration2ProtocolGuid,"aw"
	.align	3
	.type	gEfiDriverConfiguration2ProtocolGuid, @object
	.size	gEfiDriverConfiguration2ProtocolGuid, 16
gEfiDriverConfiguration2ProtocolGuid:
	.word	-1076372451
	.half	9457
	.half	16601
	.base64	"gucuCbtrTr4="
	.globl	gEfiDriverDiagnosticsProtocolGuid
	.section	.data.gEfiDriverDiagnosticsProtocolGuid,"aw"
	.align	3
	.type	gEfiDriverDiagnosticsProtocolGuid, @object
	.size	gEfiDriverDiagnosticsProtocolGuid, 16
gEfiDriverDiagnosticsProtocolGuid:
	.word	126128719
	.half	-7530
	.half	4564
	.base64	"mkkAkCc/wU0="
	.globl	gEfiDriverDiagnostics2ProtocolGuid
	.section	.data.gEfiDriverDiagnostics2ProtocolGuid,"aw"
	.align	3
	.type	gEfiDriverDiagnostics2ProtocolGuid, @object
	.size	gEfiDriverDiagnostics2ProtocolGuid, 16
gEfiDriverDiagnostics2ProtocolGuid:
	.word	1295188769
	.half	607
	.half	19116
	.base64	"kNhe2QAXO2M="
	.globl	gEfiUnicodeCollation2ProtocolGuid
	.section	.data.gEfiUnicodeCollation2ProtocolGuid,"aw"
	.align	3
	.type	gEfiUnicodeCollation2ProtocolGuid, @object
	.size	gEfiUnicodeCollation2ProtocolGuid, 16
gEfiUnicodeCollation2ProtocolGuid:
	.word	-1530441220
	.half	9134
	.half	19518
	.base64	"kulJZM9j80k="
	.globl	gEfiFormBrowser2ProtocolGuid
	.section	.data.gEfiFormBrowser2ProtocolGuid,"aw"
	.align	3
	.type	gEfiFormBrowser2ProtocolGuid, @object
	.size	gEfiFormBrowser2ProtocolGuid, 16
gEfiFormBrowser2ProtocolGuid:
	.word	-1177238688
	.half	-17157
	.half	20379
	.base64	"kphTwTaYIlg="
	.globl	gEfiFirmwareVolume2ProtocolGuid
	.section	.data.gEfiFirmwareVolume2ProtocolGuid,"aw"
	.align	3
	.type	gEfiFirmwareVolume2ProtocolGuid, @object
	.size	gEfiFirmwareVolume2ProtocolGuid, 16
gEfiFirmwareVolume2ProtocolGuid:
	.word	571372470
	.half	27611
	.half	17427
	.base64	"hAW5dLEIYZo="
	.globl	gEfiLoadedImageProtocolGuid
	.section	.data.gEfiLoadedImageProtocolGuid,"aw"
	.align	3
	.type	gEfiLoadedImageProtocolGuid, @object
	.size	gEfiLoadedImageProtocolGuid, 16
gEfiLoadedImageProtocolGuid:
	.word	1528508833
	.half	-27294
	.half	4562
	.base64	"jj8AoMlpcjs="
	.globl	gEfiLoadFileProtocolGuid
	.section	.data.gEfiLoadFileProtocolGuid,"aw"
	.align	3
	.type	gEfiLoadFileProtocolGuid, @object
	.size	gEfiLoadFileProtocolGuid, 16
gEfiLoadFileProtocolGuid:
	.word	1458319505
	.half	-27316
	.half	4562
	.base64	"jj8AoMlpcjs="
	.globl	gEfiLoadFile2ProtocolGuid
	.section	.data.gEfiLoadFile2ProtocolGuid,"aw"
	.align	3
	.type	gEfiLoadFile2ProtocolGuid, @object
	.size	gEfiLoadFile2ProtocolGuid, 16
gEfiLoadFile2ProtocolGuid:
	.word	1074184385
	.half	-845
	.half	16446
	.base64	"mW1KbIck4G0="
	.globl	gEfiStatusCodeRuntimeProtocolGuid
	.section	.data.gEfiStatusCodeRuntimeProtocolGuid,"aw"
	.align	3
	.type	gEfiStatusCodeRuntimeProtocolGuid, @object
	.size	gEfiStatusCodeRuntimeProtocolGuid, 16
gEfiStatusCodeRuntimeProtocolGuid:
	.word	-760039384
	.half	2086
	.half	18599
	.base64	"s9+YPABgJPA="
	.globl	gEfiBootLogoProtocolGuid
	.section	.data.gEfiBootLogoProtocolGuid,"aw"
	.align	3
	.type	gEfiBootLogoProtocolGuid, @object
	.size	gEfiBootLogoProtocolGuid, 16
gEfiBootLogoProtocolGuid:
	.word	-840291373
	.half	-987
	.half	19484
	.base64	"uXyzEYYGSZA="
	.globl	gEdkiiBootLogo2ProtocolGuid
	.section	.data.gEdkiiBootLogo2ProtocolGuid,"aw"
	.align	3
	.type	gEdkiiBootLogo2ProtocolGuid, @object
	.size	gEdkiiBootLogo2ProtocolGuid, 16
gEdkiiBootLogo2ProtocolGuid:
	.word	1264435679
	.half	7850
	.half	18610
	.base64	"p+nqxImgC1w="
	.globl	gEfiUserManagerProtocolGuid
	.section	.data.gEfiUserManagerProtocolGuid,"aw"
	.align	3
	.type	gEfiUserManagerProtocolGuid, @object
	.size	gEfiUserManagerProtocolGuid, 16
gEfiUserManagerProtocolGuid:
	.word	1876275212
	.half	-11226
	.half	17027
	.base64	"mIds9c8csf4="
	.globl	gEdkiiPlatformLogoProtocolGuid
	.section	.data.gEdkiiPlatformLogoProtocolGuid,"aw"
	.align	3
	.type	gEdkiiPlatformLogoProtocolGuid, @object
	.size	gEdkiiPlatformLogoProtocolGuid, 16
gEdkiiPlatformLogoProtocolGuid:
	.word	1405954463
	.half	11201
	.half	16576
	.base64	"jAcj9k/bMOA="
	.globl	gEfiPciRootBridgeIoProtocolGuid
	.section	.data.gEfiPciRootBridgeIoProtocolGuid,"aw"
	.align	3
	.type	gEfiPciRootBridgeIoProtocolGuid, @object
	.size	gEfiPciRootBridgeIoProtocolGuid, 16
gEfiPciRootBridgeIoProtocolGuid:
	.word	795901627
	.half	18970
	.half	4564
	.base64	"mjgAkCc/wU0="
	.globl	gEfiPciIoProtocolGuid
	.section	.data.gEfiPciIoProtocolGuid,"aw"
	.align	3
	.type	gEfiPciIoProtocolGuid, @object
	.size	gEfiPciIoProtocolGuid, 16
gEfiPciIoProtocolGuid:
	.word	1291170304
	.half	26808
	.half	19621
	.base64	"nuyyPj9QApo="
	.globl	gEfiSimpleNetworkProtocolGuid
	.section	.data.gEfiSimpleNetworkProtocolGuid,"aw"
	.align	3
	.type	gEfiSimpleNetworkProtocolGuid, @object
	.size	gEfiSimpleNetworkProtocolGuid, 16
gEfiSimpleNetworkProtocolGuid:
	.word	-1583861063
	.half	-21467
	.half	4563
	.base64	"mi0AkCc/wU0="
	.globl	gEfiSimpleTextInProtocolGuid
	.section	.data.gEfiSimpleTextInProtocolGuid,"aw"
	.align	3
	.type	gEfiSimpleTextInProtocolGuid, @object
	.size	gEfiSimpleTextInProtocolGuid, 16
gEfiSimpleTextInProtocolGuid:
	.word	947156929
	.half	27079
	.half	4562
	.base64	"jjkAoMlpcjs="
	.globl	gEfiBlockIoProtocolGuid
	.section	.data.gEfiBlockIoProtocolGuid,"aw"
	.align	3
	.type	gEfiBlockIoProtocolGuid, @object
	.size	gEfiBlockIoProtocolGuid, 16
gEfiBlockIoProtocolGuid:
	.word	-1773249759
	.half	25689
	.half	4562
	.base64	"jjkAoMlpcjs="
	.globl	gEfiUsbIoProtocolGuid
	.section	.data.gEfiUsbIoProtocolGuid,"aw"
	.align	3
	.type	gEfiUsbIoProtocolGuid, @object
	.size	gEfiUsbIoProtocolGuid, 16
gEfiUsbIoProtocolGuid:
	.word	724527318
	.half	3282
	.half	17615
	.base64	"jou7ogsbW3U="
	.globl	gEfiNvmExpressPassThruProtocolGuid
	.section	.data.gEfiNvmExpressPassThruProtocolGuid,"aw"
	.align	3
	.type	gEfiNvmExpressPassThruProtocolGuid, @object
	.size	gEfiNvmExpressPassThruProtocolGuid, 16
gEfiNvmExpressPassThruProtocolGuid:
	.word	1388806930
	.half	-28964
	.half	16947
	.base64	"mPIaGqXjiKU="
	.globl	gEfiDiskInfoProtocolGuid
	.section	.data.gEfiDiskInfoProtocolGuid,"aw"
	.align	3
	.type	gEfiDiskInfoProtocolGuid, @object
	.size	gEfiDiskInfoProtocolGuid, 16
gEfiDiskInfoProtocolGuid:
	.word	-734878081
	.half	5340
	.half	18507
	.base64	"s7s/ApGEkyc="
	.globl	gEfiDriverHealthProtocolGuid
	.section	.data.gEfiDriverHealthProtocolGuid,"aw"
	.align	3
	.type	gEfiDriverHealthProtocolGuid, @object
	.size	gEfiDriverHealthProtocolGuid, 16
gEfiDriverHealthProtocolGuid:
	.word	710099472
	.half	-28032
	.half	16856
	.base64	"rnnK2gGisSc="
	.globl	gEfiRamDiskProtocolGuid
	.section	.data.gEfiRamDiskProtocolGuid,"aw"
	.align	3
	.type	gEfiRamDiskProtocolGuid, @object
	.size	gEfiRamDiskProtocolGuid, 16
gEfiRamDiskProtocolGuid:
	.word	-1422352161
	.half	26739
	.half	17577
	.base64	"h+bU61YUhEk="
	.globl	gEdkiiPlatformBootManagerProtocolGuid
	.section	.data.gEdkiiPlatformBootManagerProtocolGuid,"aw"
	.align	3
	.type	gEdkiiPlatformBootManagerProtocolGuid, @object
	.size	gEdkiiPlatformBootManagerProtocolGuid, 16
gEdkiiPlatformBootManagerProtocolGuid:
	.word	-1441288748
	.half	30060
	.half	17933
	.base64	"lLhDiNf7Plk="
	.globl	_gPcd_SkuId_Array
	.section	.bss._gPcd_SkuId_Array,"aw",@nobits
	.align	3
	.type	_gPcd_SkuId_Array, @object
	.size	_gPcd_SkuId_Array, 8
_gPcd_SkuId_Array:
	.zero	8
	.globl	_gPcd_FixedAtBuild_PcdUefiVariableDefaultLangDeprecate
	.section	.rodata._gPcd_FixedAtBuild_PcdUefiVariableDefaultLangDeprecate,"a"
	.type	_gPcd_FixedAtBuild_PcdUefiVariableDefaultLangDeprecate, @object
	.size	_gPcd_FixedAtBuild_PcdUefiVariableDefaultLangDeprecate, 1
_gPcd_FixedAtBuild_PcdUefiVariableDefaultLangDeprecate:
	.zero	1
	.globl	_gPcd_FixedAtBuild_PcdUefiVariableDefaultLangCodes
	.section	.rodata._gPcd_FixedAtBuild_PcdUefiVariableDefaultLangCodes,"a"
	.align	3
	.type	_gPcd_FixedAtBuild_PcdUefiVariableDefaultLangCodes, @object
	.size	_gPcd_FixedAtBuild_PcdUefiVariableDefaultLangCodes, 13
_gPcd_FixedAtBuild_PcdUefiVariableDefaultLangCodes:
	.string	"engfraengfra"
	.globl	_gPcd_FixedAtBuild_Size_PcdUefiVariableDefaultLangCodes
	.section	.rodata._gPcd_FixedAtBuild_Size_PcdUefiVariableDefaultLangCodes,"a"
	.align	3
	.type	_gPcd_FixedAtBuild_Size_PcdUefiVariableDefaultLangCodes, @object
	.size	_gPcd_FixedAtBuild_Size_PcdUefiVariableDefaultLangCodes, 8
_gPcd_FixedAtBuild_Size_PcdUefiVariableDefaultLangCodes:
	.dword	13
	.globl	_gPcd_FixedAtBuild_PcdUefiVariableDefaultLang
	.section	.rodata._gPcd_FixedAtBuild_PcdUefiVariableDefaultLang,"a"
	.align	3
	.type	_gPcd_FixedAtBuild_PcdUefiVariableDefaultLang, @object
	.size	_gPcd_FixedAtBuild_PcdUefiVariableDefaultLang, 4
_gPcd_FixedAtBuild_PcdUefiVariableDefaultLang:
	.string	"eng"
	.globl	_gPcd_FixedAtBuild_Size_PcdUefiVariableDefaultLang
	.section	.rodata._gPcd_FixedAtBuild_Size_PcdUefiVariableDefaultLang,"a"
	.align	3
	.type	_gPcd_FixedAtBuild_Size_PcdUefiVariableDefaultLang, @object
	.size	_gPcd_FixedAtBuild_Size_PcdUefiVariableDefaultLang, 8
_gPcd_FixedAtBuild_Size_PcdUefiVariableDefaultLang:
	.dword	4
	.globl	_gPcd_FixedAtBuild_PcdUefiVariableDefaultPlatformLangCodes
	.section	.rodata._gPcd_FixedAtBuild_PcdUefiVariableDefaultPlatformLangCodes,"a"
	.align	3
	.type	_gPcd_FixedAtBuild_PcdUefiVariableDefaultPlatformLangCodes, @object
	.size	_gPcd_FixedAtBuild_PcdUefiVariableDefaultPlatformLangCodes, 18
_gPcd_FixedAtBuild_PcdUefiVariableDefaultPlatformLangCodes:
	.string	"en;fr;en-US;fr-FR"
	.globl	_gPcd_FixedAtBuild_Size_PcdUefiVariableDefaultPlatformLangCodes
	.section	.rodata._gPcd_FixedAtBuild_Size_PcdUefiVariableDefaultPlatformLangCodes,"a"
	.align	3
	.type	_gPcd_FixedAtBuild_Size_PcdUefiVariableDefaultPlatformLangCodes, @object
	.size	_gPcd_FixedAtBuild_Size_PcdUefiVariableDefaultPlatformLangCodes, 8
_gPcd_FixedAtBuild_Size_PcdUefiVariableDefaultPlatformLangCodes:
	.dword	18
	.globl	_gPcd_FixedAtBuild_PcdUefiVariableDefaultPlatformLang
	.section	.rodata._gPcd_FixedAtBuild_PcdUefiVariableDefaultPlatformLang,"a"
	.align	3
	.type	_gPcd_FixedAtBuild_PcdUefiVariableDefaultPlatformLang, @object
	.size	_gPcd_FixedAtBuild_PcdUefiVariableDefaultPlatformLang, 6
_gPcd_FixedAtBuild_PcdUefiVariableDefaultPlatformLang:
	.string	"en-US"
	.globl	_gPcd_FixedAtBuild_Size_PcdUefiVariableDefaultPlatformLang
	.section	.rodata._gPcd_FixedAtBuild_Size_PcdUefiVariableDefaultPlatformLang,"a"
	.align	3
	.type	_gPcd_FixedAtBuild_Size_PcdUefiVariableDefaultPlatformLang, @object
	.size	_gPcd_FixedAtBuild_Size_PcdUefiVariableDefaultPlatformLang, 8
_gPcd_FixedAtBuild_Size_PcdUefiVariableDefaultPlatformLang:
	.dword	6
	.globl	_gPcd_FixedAtBuild_PcdHardwareErrorRecordLevel
	.section	.rodata._gPcd_FixedAtBuild_PcdHardwareErrorRecordLevel,"a"
	.align	1
	.type	_gPcd_FixedAtBuild_PcdHardwareErrorRecordLevel, @object
	.size	_gPcd_FixedAtBuild_PcdHardwareErrorRecordLevel, 2
_gPcd_FixedAtBuild_PcdHardwareErrorRecordLevel:
	.zero	2
	.globl	_gPcd_FixedAtBuild_PcdConInConnectOnDemand
	.section	.rodata._gPcd_FixedAtBuild_PcdConInConnectOnDemand,"a"
	.type	_gPcd_FixedAtBuild_PcdConInConnectOnDemand, @object
	.size	_gPcd_FixedAtBuild_PcdConInConnectOnDemand, 1
_gPcd_FixedAtBuild_PcdConInConnectOnDemand:
	.zero	1
	.globl	_gPcd_FixedAtBuild_PcdErrorCodeSetVariable
	.section	.rodata._gPcd_FixedAtBuild_PcdErrorCodeSetVariable,"a"
	.align	2
	.type	_gPcd_FixedAtBuild_PcdErrorCodeSetVariable, @object
	.size	_gPcd_FixedAtBuild_PcdErrorCodeSetVariable, 4
_gPcd_FixedAtBuild_PcdErrorCodeSetVariable:
	.word	50692098
	.globl	_gPcd_FixedAtBuild_PcdCapsuleOnDiskSupport
	.section	.rodata._gPcd_FixedAtBuild_PcdCapsuleOnDiskSupport,"a"
	.type	_gPcd_FixedAtBuild_PcdCapsuleOnDiskSupport, @object
	.size	_gPcd_FixedAtBuild_PcdCapsuleOnDiskSupport, 1
_gPcd_FixedAtBuild_PcdCapsuleOnDiskSupport:
	.zero	1
	.globl	_gPcd_FixedAtBuild_PcdPlatformRecoverySupport
	.section	.rodata._gPcd_FixedAtBuild_PcdPlatformRecoverySupport,"a"
	.type	_gPcd_FixedAtBuild_PcdPlatformRecoverySupport, @object
	.size	_gPcd_FixedAtBuild_PcdPlatformRecoverySupport, 1
_gPcd_FixedAtBuild_PcdPlatformRecoverySupport:
	.byte	1
	.globl	_gPcd_FixedAtBuild_PcdVerifyNodeInList
	.section	.rodata._gPcd_FixedAtBuild_PcdVerifyNodeInList,"a"
	.type	_gPcd_FixedAtBuild_PcdVerifyNodeInList, @object
	.size	_gPcd_FixedAtBuild_PcdVerifyNodeInList, 1
_gPcd_FixedAtBuild_PcdVerifyNodeInList:
	.zero	1
	.globl	_gPcd_FixedAtBuild_PcdMaximumLinkedListLength
	.section	.rodata._gPcd_FixedAtBuild_PcdMaximumLinkedListLength,"a"
	.align	2
	.type	_gPcd_FixedAtBuild_PcdMaximumLinkedListLength, @object
	.size	_gPcd_FixedAtBuild_PcdMaximumLinkedListLength, 4
_gPcd_FixedAtBuild_PcdMaximumLinkedListLength:
	.word	1000000
	.globl	_gPcd_FixedAtBuild_PcdMaximumAsciiStringLength
	.section	.rodata._gPcd_FixedAtBuild_PcdMaximumAsciiStringLength,"a"
	.align	2
	.type	_gPcd_FixedAtBuild_PcdMaximumAsciiStringLength, @object
	.size	_gPcd_FixedAtBuild_PcdMaximumAsciiStringLength, 4
_gPcd_FixedAtBuild_PcdMaximumAsciiStringLength:
	.word	1000000
	.globl	_gPcd_FixedAtBuild_PcdMaximumUnicodeStringLength
	.section	.rodata._gPcd_FixedAtBuild_PcdMaximumUnicodeStringLength,"a"
	.align	2
	.type	_gPcd_FixedAtBuild_PcdMaximumUnicodeStringLength, @object
	.size	_gPcd_FixedAtBuild_PcdMaximumUnicodeStringLength, 4
_gPcd_FixedAtBuild_PcdMaximumUnicodeStringLength:
	.word	1000000
	.globl	_gPcd_FixedAtBuild_PcdControlFlowEnforcementPropertyMask
	.section	.rodata._gPcd_FixedAtBuild_PcdControlFlowEnforcementPropertyMask,"a"
	.align	2
	.type	_gPcd_FixedAtBuild_PcdControlFlowEnforcementPropertyMask, @object
	.size	_gPcd_FixedAtBuild_PcdControlFlowEnforcementPropertyMask, 4
_gPcd_FixedAtBuild_PcdControlFlowEnforcementPropertyMask:
	.zero	4
	.globl	_gPcd_FixedAtBuild_PcdSpeculationBarrierType
	.section	.rodata._gPcd_FixedAtBuild_PcdSpeculationBarrierType,"a"
	.type	_gPcd_FixedAtBuild_PcdSpeculationBarrierType, @object
	.size	_gPcd_FixedAtBuild_PcdSpeculationBarrierType, 1
_gPcd_FixedAtBuild_PcdSpeculationBarrierType:
	.byte	1
	.globl	_gPcd_FixedAtBuild_PcdDebugPrintErrorLevel
	.section	.rodata._gPcd_FixedAtBuild_PcdDebugPrintErrorLevel,"a"
	.align	2
	.type	_gPcd_FixedAtBuild_PcdDebugPrintErrorLevel, @object
	.size	_gPcd_FixedAtBuild_PcdDebugPrintErrorLevel, 4
_gPcd_FixedAtBuild_PcdDebugPrintErrorLevel:
	.word	-2147483577
	.globl	_gPcd_FixedAtBuild_PcdDebugClearMemoryValue
	.section	.rodata._gPcd_FixedAtBuild_PcdDebugClearMemoryValue,"a"
	.type	_gPcd_FixedAtBuild_PcdDebugClearMemoryValue, @object
	.size	_gPcd_FixedAtBuild_PcdDebugClearMemoryValue, 1
_gPcd_FixedAtBuild_PcdDebugClearMemoryValue:
	.byte	-81
	.globl	_gPcd_FixedAtBuild_PcdDebugPropertyMask
	.section	.rodata._gPcd_FixedAtBuild_PcdDebugPropertyMask,"a"
	.type	_gPcd_FixedAtBuild_PcdDebugPropertyMask, @object
	.size	_gPcd_FixedAtBuild_PcdDebugPropertyMask, 1
_gPcd_FixedAtBuild_PcdDebugPropertyMask:
	.byte	47
	.globl	_gPcd_FixedAtBuild_PcdFixedDebugPrintErrorLevel
	.section	.rodata._gPcd_FixedAtBuild_PcdFixedDebugPrintErrorLevel,"a"
	.align	2
	.type	_gPcd_FixedAtBuild_PcdFixedDebugPrintErrorLevel, @object
	.size	_gPcd_FixedAtBuild_PcdFixedDebugPrintErrorLevel, 4
_gPcd_FixedAtBuild_PcdFixedDebugPrintErrorLevel:
	.word	-1
	.globl	_gPcd_FixedAtBuild_PcdMaximumDevicePathNodeCount
	.section	.rodata._gPcd_FixedAtBuild_PcdMaximumDevicePathNodeCount,"a"
	.align	2
	.type	_gPcd_FixedAtBuild_PcdMaximumDevicePathNodeCount, @object
	.size	_gPcd_FixedAtBuild_PcdMaximumDevicePathNodeCount, 4
_gPcd_FixedAtBuild_PcdMaximumDevicePathNodeCount:
	.zero	4
	.globl	_gPcd_FixedAtBuild_PcdDriverDiagnosticsDisable
	.section	.rodata._gPcd_FixedAtBuild_PcdDriverDiagnosticsDisable,"a"
	.type	_gPcd_FixedAtBuild_PcdDriverDiagnosticsDisable, @object
	.size	_gPcd_FixedAtBuild_PcdDriverDiagnosticsDisable, 1
_gPcd_FixedAtBuild_PcdDriverDiagnosticsDisable:
	.zero	1
	.globl	_gPcd_FixedAtBuild_PcdComponentNameDisable
	.section	.rodata._gPcd_FixedAtBuild_PcdComponentNameDisable,"a"
	.type	_gPcd_FixedAtBuild_PcdComponentNameDisable, @object
	.size	_gPcd_FixedAtBuild_PcdComponentNameDisable, 1
_gPcd_FixedAtBuild_PcdComponentNameDisable:
	.zero	1
	.globl	_gPcd_FixedAtBuild_PcdDriverDiagnostics2Disable
	.section	.rodata._gPcd_FixedAtBuild_PcdDriverDiagnostics2Disable,"a"
	.type	_gPcd_FixedAtBuild_PcdDriverDiagnostics2Disable, @object
	.size	_gPcd_FixedAtBuild_PcdDriverDiagnostics2Disable, 1
_gPcd_FixedAtBuild_PcdDriverDiagnostics2Disable:
	.zero	1
	.globl	_gPcd_FixedAtBuild_PcdComponentName2Disable
	.section	.rodata._gPcd_FixedAtBuild_PcdComponentName2Disable,"a"
	.type	_gPcd_FixedAtBuild_PcdComponentName2Disable, @object
	.size	_gPcd_FixedAtBuild_PcdComponentName2Disable, 1
_gPcd_FixedAtBuild_PcdComponentName2Disable:
	.zero	1
	.globl	_gPcd_FixedAtBuild_PcdUgaConsumeSupport
	.section	.rodata._gPcd_FixedAtBuild_PcdUgaConsumeSupport,"a"
	.type	_gPcd_FixedAtBuild_PcdUgaConsumeSupport, @object
	.size	_gPcd_FixedAtBuild_PcdUgaConsumeSupport, 1
_gPcd_FixedAtBuild_PcdUgaConsumeSupport:
	.byte	1
	.globl	_gPcd_FixedAtBuild_PcdUefiLibMaxPrintBufferSize
	.section	.rodata._gPcd_FixedAtBuild_PcdUefiLibMaxPrintBufferSize,"a"
	.align	2
	.type	_gPcd_FixedAtBuild_PcdUefiLibMaxPrintBufferSize, @object
	.size	_gPcd_FixedAtBuild_PcdUefiLibMaxPrintBufferSize, 4
_gPcd_FixedAtBuild_PcdUefiLibMaxPrintBufferSize:
	.word	320
	.globl	_gPcd_FixedAtBuild_PcdPerformanceLibraryPropertyMask
	.section	.rodata._gPcd_FixedAtBuild_PcdPerformanceLibraryPropertyMask,"a"
	.type	_gPcd_FixedAtBuild_PcdPerformanceLibraryPropertyMask, @object
	.size	_gPcd_FixedAtBuild_PcdPerformanceLibraryPropertyMask, 1
_gPcd_FixedAtBuild_PcdPerformanceLibraryPropertyMask:
	.zero	1
	.globl	_gPcd_FixedAtBuild_PcdReportStatusCodePropertyMask
	.section	.rodata._gPcd_FixedAtBuild_PcdReportStatusCodePropertyMask,"a"
	.type	_gPcd_FixedAtBuild_PcdReportStatusCodePropertyMask, @object
	.size	_gPcd_FixedAtBuild_PcdReportStatusCodePropertyMask, 1
_gPcd_FixedAtBuild_PcdReportStatusCodePropertyMask:
	.byte	7
	.globl	_gPcd_FixedAtBuild_PcdResetOnMemoryTypeInformationChange
	.section	.rodata._gPcd_FixedAtBuild_PcdResetOnMemoryTypeInformationChange,"a"
	.type	_gPcd_FixedAtBuild_PcdResetOnMemoryTypeInformationChange, @object
	.size	_gPcd_FixedAtBuild_PcdResetOnMemoryTypeInformationChange, 1
_gPcd_FixedAtBuild_PcdResetOnMemoryTypeInformationChange:
	.zero	1
	.globl	_gPcd_FixedAtBuild_PcdProgressCodeOsLoaderLoad
	.section	.rodata._gPcd_FixedAtBuild_PcdProgressCodeOsLoaderLoad,"a"
	.align	2
	.type	_gPcd_FixedAtBuild_PcdProgressCodeOsLoaderLoad, @object
	.size	_gPcd_FixedAtBuild_PcdProgressCodeOsLoaderLoad, 4
_gPcd_FixedAtBuild_PcdProgressCodeOsLoaderLoad:
	.word	50692096
	.globl	_gPcd_FixedAtBuild_PcdProgressCodeOsLoaderStart
	.section	.rodata._gPcd_FixedAtBuild_PcdProgressCodeOsLoaderStart,"a"
	.align	2
	.type	_gPcd_FixedAtBuild_PcdProgressCodeOsLoaderStart, @object
	.size	_gPcd_FixedAtBuild_PcdProgressCodeOsLoaderStart, 4
_gPcd_FixedAtBuild_PcdProgressCodeOsLoaderStart:
	.word	50692097
	.globl	_gPcd_FixedAtBuild_PcdBootManagerMenuFile
	.section	.rodata._gPcd_FixedAtBuild_PcdBootManagerMenuFile,"a"
	.align	3
	.type	_gPcd_FixedAtBuild_PcdBootManagerMenuFile, @object
	.size	_gPcd_FixedAtBuild_PcdBootManagerMenuFile, 16
_gPcd_FixedAtBuild_PcdBootManagerMenuFile:
	.base64	"IaosRhR2A0WDboq29GYjMQ=="
	.globl	_gPcd_FixedAtBuild_Size_PcdBootManagerMenuFile
	.section	.rodata._gPcd_FixedAtBuild_Size_PcdBootManagerMenuFile,"a"
	.align	3
	.type	_gPcd_FixedAtBuild_Size_PcdBootManagerMenuFile, @object
	.size	_gPcd_FixedAtBuild_Size_PcdBootManagerMenuFile, 8
_gPcd_FixedAtBuild_Size_PcdBootManagerMenuFile:
	.dword	16
	.globl	_gPcd_FixedAtBuild_PcdDriverHealthConfigureForm
	.section	.rodata._gPcd_FixedAtBuild_PcdDriverHealthConfigureForm,"a"
	.align	3
	.type	_gPcd_FixedAtBuild_PcdDriverHealthConfigureForm, @object
	.size	_gPcd_FixedAtBuild_PcdDriverHealthConfigureForm, 16
_gPcd_FixedAtBuild_PcdDriverHealthConfigureForm:
	.base64	"9NmWQvz23k2GhYzi152Q8A=="
	.globl	_gPcd_FixedAtBuild_Size_PcdDriverHealthConfigureForm
	.section	.rodata._gPcd_FixedAtBuild_Size_PcdDriverHealthConfigureForm,"a"
	.align	3
	.type	_gPcd_FixedAtBuild_Size_PcdDriverHealthConfigureForm, @object
	.size	_gPcd_FixedAtBuild_Size_PcdDriverHealthConfigureForm, 8
_gPcd_FixedAtBuild_Size_PcdDriverHealthConfigureForm:
	.dword	16
	.globl	_gPcd_FixedAtBuild_PcdMaxRepairCount
	.section	.rodata._gPcd_FixedAtBuild_PcdMaxRepairCount,"a"
	.align	2
	.type	_gPcd_FixedAtBuild_PcdMaxRepairCount, @object
	.size	_gPcd_FixedAtBuild_PcdMaxRepairCount, 4
_gPcd_FixedAtBuild_PcdMaxRepairCount:
	.zero	4
	.globl	_gPcd_FixedAtBuild_PcdEscEnterBootMenu
	.section	.rodata._gPcd_FixedAtBuild_PcdEscEnterBootMenu,"a"
	.type	_gPcd_FixedAtBuild_PcdEscEnterBootMenu, @object
	.size	_gPcd_FixedAtBuild_PcdEscEnterBootMenu, 1
_gPcd_FixedAtBuild_PcdEscEnterBootMenu:
	.zero	1
	.section	.text.ProcessLibraryConstructorList,"ax",@progbits
	.align	1
	.globl	ProcessLibraryConstructorList
	.type	ProcessLibraryConstructorList, @function
ProcessLibraryConstructorList:
.LFB0:
	.file 1 "/home/kapoagaeming/Downloads/spacemit-image-builder/components/Build/Milk-V-Jupiter/RELEASE_GCC5/RISCV64/MdeModulePkg/Universal/BdsDxe/BdsDxe/DEBUG/AutoGen.c"
	.loc 1 420 1
	.cfi_startproc
	addi	sp,sp,-48
	.cfi_def_cfa_offset 48
	sd	ra,40(sp)
	sd	s0,32(sp)
	.cfi_offset 1, -8
	.cfi_offset 8, -16
	addi	s0,sp,48
	.cfi_def_cfa 8, 0
	sd	a0,-40(s0)
	sd	a1,-48(s0)
	.loc 1 423 12
	call	BaseDebugLibSerialPortConstructor@plt
	sd	a0,-24(s0)
	.loc 1 426 12
	ld	a1,-48(s0)
	ld	a0,-40(s0)
	call	UefiBootServicesTableLibConstructor@plt
	sd	a0,-24(s0)
	.loc 1 429 12
	ld	a1,-48(s0)
	ld	a0,-40(s0)
	call	UefiRuntimeServicesTableLibConstructor@plt
	sd	a0,-24(s0)
	.loc 1 432 12
	ld	a1,-48(s0)
	ld	a0,-40(s0)
	call	DevicePathLibConstructor@plt
	sd	a0,-24(s0)
	.loc 1 435 12
	ld	a1,-48(s0)
	ld	a0,-40(s0)
	call	UefiHiiServicesLibConstructor@plt
	sd	a0,-24(s0)
	.loc 1 438 12
	ld	a1,-48(s0)
	ld	a0,-40(s0)
	call	UefiLibConstructor@plt
	sd	a0,-24(s0)
	.loc 1 441 12
	ld	a1,-48(s0)
	ld	a0,-40(s0)
	call	DxeServicesTableLibConstructor@plt
	sd	a0,-24(s0)
	.loc 1 444 12
	ld	a1,-48(s0)
	ld	a0,-40(s0)
	call	HobLibConstructor@plt
	sd	a0,-24(s0)
	.loc 1 447 1
	nop
	ld	ra,40(sp)
	.cfi_restore 1
	ld	s0,32(sp)
	.cfi_restore 8
	.cfi_def_cfa 2, 48
	addi	sp,sp,48
	.cfi_def_cfa_offset 0
	jr	ra
	.cfi_endproc
.LFE0:
	.size	ProcessLibraryConstructorList, .-ProcessLibraryConstructorList
	.section	.text.ProcessLibraryDestructorList,"ax",@progbits
	.align	1
	.globl	ProcessLibraryDestructorList
	.type	ProcessLibraryDestructorList, @function
ProcessLibraryDestructorList:
.LFB1:
	.loc 1 457 1
	.cfi_startproc
	addi	sp,sp,-32
	.cfi_def_cfa_offset 32
	sd	ra,24(sp)
	sd	s0,16(sp)
	.cfi_offset 1, -8
	.cfi_offset 8, -16
	addi	s0,sp,32
	.cfi_def_cfa 8, 0
	sd	a0,-24(s0)
	sd	a1,-32(s0)
	.loc 1 459 1
	nop
	ld	ra,24(sp)
	.cfi_restore 1
	ld	s0,16(sp)
	.cfi_restore 8
	.cfi_def_cfa 2, 32
	addi	sp,sp,32
	.cfi_def_cfa_offset 0
	jr	ra
	.cfi_endproc
.LFE1:
	.size	ProcessLibraryDestructorList, .-ProcessLibraryDestructorList
	.globl	_gUefiDriverRevision
	.section	.rodata._gUefiDriverRevision,"a"
	.align	2
	.type	_gUefiDriverRevision, @object
	.size	_gUefiDriverRevision, 4
_gUefiDriverRevision:
	.zero	4
	.globl	_gDxeRevision
	.section	.rodata._gDxeRevision,"a"
	.align	2
	.type	_gDxeRevision, @object
	.size	_gDxeRevision, 4
_gDxeRevision:
	.zero	4
	.section	.text.ProcessModuleEntryPointList,"ax",@progbits
	.align	1
	.globl	ProcessModuleEntryPointList
	.type	ProcessModuleEntryPointList, @function
ProcessModuleEntryPointList:
.LFB2:
	.loc 1 472 1
	.cfi_startproc
	addi	sp,sp,-32
	.cfi_def_cfa_offset 32
	sd	ra,24(sp)
	sd	s0,16(sp)
	.cfi_offset 1, -8
	.cfi_offset 8, -16
	addi	s0,sp,32
	.cfi_def_cfa 8, 0
	sd	a0,-24(s0)
	sd	a1,-32(s0)
	.loc 1 473 10
	ld	a1,-32(s0)
	ld	a0,-24(s0)
	call	BdsInitialize@plt
	mv	a5,a0
	.loc 1 474 1
	mv	a0,a5
	ld	ra,24(sp)
	.cfi_restore 1
	ld	s0,16(sp)
	.cfi_restore 8
	.cfi_def_cfa 2, 32
	addi	sp,sp,32
	.cfi_def_cfa_offset 0
	jr	ra
	.cfi_endproc
.LFE2:
	.size	ProcessModuleEntryPointList, .-ProcessModuleEntryPointList
	.section	.text.ExitDriver,"ax",@progbits
	.align	1
	.globl	ExitDriver
	.type	ExitDriver, @function
ExitDriver:
.LFB3:
	.loc 1 481 1
	.cfi_startproc
	addi	sp,sp,-32
	.cfi_def_cfa_offset 32
	sd	ra,24(sp)
	sd	s0,16(sp)
	.cfi_offset 1, -8
	.cfi_offset 8, -16
	addi	s0,sp,32
	.cfi_def_cfa 8, 0
	sd	a0,-24(s0)
	.loc 1 482 34
	ld	a5,-24(s0)
	.loc 1 482 6
	bge	a5,zero,.L6
	.loc 1 483 5
	la	a5,gImageHandle
	ld	a4,0(a5)
	la	a5,gST
	ld	a5,0(a5)
	mv	a1,a5
	mv	a0,a4
	call	ProcessLibraryDestructorList
.L6:
	.loc 1 485 6
	la	a5,gBS
	ld	a5,0(a5)
	ld	a5,216(a5)
	.loc 1 485 3
	la	a4,gImageHandle
	ld	a4,0(a4)
	li	a3,0
	li	a2,0
	ld	a1,-24(s0)
	mv	a0,a4
	jalr	a5
.LVL0:
	.loc 1 486 1
	nop
	ld	ra,24(sp)
	.cfi_restore 1
	ld	s0,16(sp)
	.cfi_restore 8
	.cfi_def_cfa 2, 32
	addi	sp,sp,32
	.cfi_def_cfa_offset 0
	jr	ra
	.cfi_endproc
.LFE3:
	.size	ExitDriver, .-ExitDriver
	.globl	_gDriverUnloadImageCount
	.section	.rodata._gDriverUnloadImageCount,"a"
	.type	_gDriverUnloadImageCount, @object
	.size	_gDriverUnloadImageCount, 1
_gDriverUnloadImageCount:
	.zero	1
	.section	.text.ProcessModuleUnloadList,"ax",@progbits
	.align	1
	.globl	ProcessModuleUnloadList
	.type	ProcessModuleUnloadList, @function
ProcessModuleUnloadList:
.LFB4:
	.loc 1 495 1
	.cfi_startproc
	addi	sp,sp,-32
	.cfi_def_cfa_offset 32
	sd	ra,24(sp)
	sd	s0,16(sp)
	.cfi_offset 1, -8
	.cfi_offset 8, -16
	addi	s0,sp,32
	.cfi_def_cfa 8, 0
	sd	a0,-24(s0)
	.loc 1 496 10
	li	a5,0
	.loc 1 497 1
	mv	a0,a5
	ld	ra,24(sp)
	.cfi_restore 1
	ld	s0,16(sp)
	.cfi_restore 8
	.cfi_def_cfa 2, 32
	addi	sp,sp,32
	.cfi_def_cfa_offset 0
	jr	ra
	.cfi_endproc
.LFE4:
	.size	ProcessModuleUnloadList, .-ProcessModuleUnloadList
	.text
.Letext0:
	.file 2 "/home/kapoagaeming/Downloads/spacemit-image-builder/components/edk2/MdePkg/Include/RiscV64/ProcessorBind.h"
	.file 3 "/home/kapoagaeming/Downloads/spacemit-image-builder/components/edk2/MdePkg/Include/Base.h"
	.file 4 "/home/kapoagaeming/Downloads/spacemit-image-builder/components/edk2/MdePkg/Include/Uefi/UefiBaseType.h"
	.file 5 "/home/kapoagaeming/Downloads/spacemit-image-builder/components/edk2/MdePkg/Include/Uefi/UefiMultiPhase.h"
	.file 6 "/home/kapoagaeming/Downloads/spacemit-image-builder/components/edk2/MdePkg/Include/Protocol/DevicePath.h"
	.file 7 "/home/kapoagaeming/Downloads/spacemit-image-builder/components/edk2/MdePkg/Include/Protocol/SimpleTextIn.h"
	.file 8 "/home/kapoagaeming/Downloads/spacemit-image-builder/components/edk2/MdePkg/Include/Protocol/SimpleTextInEx.h"
	.file 9 "/home/kapoagaeming/Downloads/spacemit-image-builder/components/edk2/MdePkg/Include/Protocol/SimpleTextOut.h"
	.file 10 "/home/kapoagaeming/Downloads/spacemit-image-builder/components/edk2/MdePkg/Include/Uefi/UefiSpec.h"
	.file 11 "/home/kapoagaeming/Downloads/spacemit-image-builder/components/Build/Milk-V-Jupiter/RELEASE_GCC5/RISCV64/MdeModulePkg/Universal/BdsDxe/BdsDxe/DEBUG/AutoGen.h"
	.file 12 "/home/kapoagaeming/Downloads/spacemit-image-builder/components/edk2/MdePkg/Include/Library/UefiBootServicesTableLib.h"
	.file 13 "/home/kapoagaeming/Downloads/spacemit-image-builder/components/edk2/MdePkg/Include/Library/UefiDriverEntryPoint.h"
	.section	.note.GNU-stack,"",@progbits
