	.file	"InputHandler.c"
	.option pic
	.option norelax
	.attribute arch, "rv64i2p1_m2p0_a2p1_f2p2_d2p2_c2p0_zicsr2p0_zifencei2p0_zmmul1p0_zaamo1p0_zalrsc1p0_zca1p0_zcd1p0"
	.attribute unaligned_access, 0
	.attribute stack_align, 16
	.text
.Ltext0:
	.cfi_sections	.debug_frame
	.file 0 "/home/kapoagaeming/spacemit-image-builder/components/Build/Milk-V-Jupiter/RELEASE_GCC5/RISCV64/MdeModulePkg/Universal/DisplayEngineDxe/DisplayEngineDxe" "/home/kapoagaeming/spacemit-image-builder/components/edk2/MdeModulePkg/Universal/DisplayEngineDxe/InputHandler.c"
	.section	.text.GetFieldFromOp,"ax",@progbits
	.align	1
	.globl	GetFieldFromOp
	.type	GetFieldFromOp, @function
GetFieldFromOp:
.LFB0:
	.file 1 "/home/kapoagaeming/spacemit-image-builder/components/edk2/MdeModulePkg/Universal/DisplayEngineDxe/InputHandler.c"
	.loc 1 26 1
	.cfi_startproc
	addi	sp,sp,-64
	.cfi_def_cfa_offset 64
	sd	ra,56(sp)
	sd	s0,48(sp)
	.cfi_offset 1, -8
	.cfi_offset 8, -16
	addi	s0,sp,64
	.cfi_def_cfa 8, 0
	sd	a0,-40(s0)
	sd	a1,-48(s0)
	sd	a2,-56(s0)
	.loc 1 30 13
	ld	a5,-40(s0)
	lbu	a5,0(a5)
	.loc 1 30 6
	mv	a4,a5
	li	a5,28
	bne	a4,a5,.L2
	.loc 1 31 14
	ld	a5,-40(s0)
	sd	a5,-32(s0)
	.loc 1 32 24
	ld	a5,-32(s0)
	lbu	a5,13(a5)
	mv	a4,a5
	.loc 1 32 14
	ld	a5,-48(s0)
	sd	a4,0(a5)
	.loc 1 33 24
	ld	a5,-32(s0)
	lbu	a5,14(a5)
	mv	a4,a5
	.loc 1 33 14
	ld	a5,-56(s0)
	sd	a4,0(a5)
	.loc 1 42 1
	j	.L5
.L2:
	.loc 1 34 20
	ld	a5,-40(s0)
	lbu	a5,0(a5)
	.loc 1 34 13
	mv	a4,a5
	li	a5,8
	bne	a4,a5,.L4
	.loc 1 35 16
	ld	a5,-40(s0)
	sd	a5,-24(s0)
	.loc 1 36 26
	ld	a5,-24(s0)
	lbu	a4,13(a5)
	lbu	a5,14(a5)
	slli	a5,a5,8
	or	a5,a5,a4
	slli	a5,a5,48
	srli	a5,a5,48
	mv	a4,a5
	.loc 1 36 14
	ld	a5,-48(s0)
	sd	a4,0(a5)
	.loc 1 37 26
	ld	a5,-24(s0)
	lbu	a4,15(a5)
	lbu	a5,16(a5)
	slli	a5,a5,8
	or	a5,a5,a4
	slli	a5,a5,48
	srli	a5,a5,48
	mv	a4,a5
	.loc 1 37 14
	ld	a5,-56(s0)
	sd	a4,0(a5)
	.loc 1 42 1
	j	.L5
.L4:
	.loc 1 39 14
	ld	a5,-48(s0)
	sd	zero,0(a5)
	.loc 1 40 14
	ld	a5,-56(s0)
	sd	zero,0(a5)
.L5:
	.loc 1 42 1
	nop
	ld	ra,56(sp)
	.cfi_restore 1
	ld	s0,48(sp)
	.cfi_restore 8
	.cfi_def_cfa 2, 64
	addi	sp,sp,64
	.cfi_def_cfa_offset 0
	jr	ra
	.cfi_endproc
.LFE0:
	.size	GetFieldFromOp, .-GetFieldFromOp
	.section	.text.ReadString,"ax",@progbits
	.align	1
	.globl	ReadString
	.type	ReadString, @function
ReadString:
.LFB1:
	.loc 1 61 1
	.cfi_startproc
	addi	sp,sp,-240
	.cfi_def_cfa_offset 240
	sd	ra,232(sp)
	sd	s0,224(sp)
	sd	s1,216(sp)
	sd	s2,208(sp)
	.cfi_offset 1, -8
	.cfi_offset 8, -16
	.cfi_offset 9, -24
	.cfi_offset 18, -32
	addi	s0,sp,240
	.cfi_def_cfa 8, 0
	sd	a0,-216(s0)
	sd	a1,-224(s0)
	sd	a2,-232(s0)
	.loc 1 85 41
	la	a5,gStatementDimensions
	ld	a4,8(a5)
	.loc 1 85 76
	la	a5,gStatementDimensions
	ld	a5,0(a5)
	.loc 1 85 19
	sub	a5,a4,a5
	sd	a5,-88(s0)
	.loc 1 86 42
	la	a5,gStatementDimensions
	ld	a4,24(a5)
	.loc 1 86 75
	la	a5,gStatementDimensions
	ld	a5,16(a5)
	.loc 1 86 20
	sub	a5,a4,a5
	sd	a5,-96(s0)
	.loc 1 88 17
	sh	zero,-170(s0)
	.loc 1 89 16
	ld	a0,-224(s0)
	call	GetStringWidth@plt
	mv	a5,a0
	.loc 1 89 14 discriminator 1
	srli	a5,a5,1
	sd	a5,-40(s0)
	.loc 1 90 12
	li	a5,32
	sh	a5,-176(s0)
	.loc 1 91 12
	sh	zero,-174(s0)
	.loc 1 93 12
	ld	a5,-216(s0)
	ld	a5,32(a5)
	sd	a5,-104(s0)
	.loc 1 94 3
	ld	a5,-104(s0)
	ld	a5,32(a5)
	addi	a3,s0,-200
	addi	a4,s0,-192
	mv	a2,a3
	mv	a1,a4
	mv	a0,a5
	call	GetFieldFromOp
	.loc 1 96 15
	ld	a5,-104(s0)
	ld	a5,32(a5)
	.loc 1 96 23
	lbu	a5,0(a5)
	.loc 1 96 6
	mv	a4,a5
	li	a5,8
	bne	a4,a5,.L7
	.loc 1 97 16
	li	a5,1
	sb	a5,-73(s0)
	j	.L8
.L7:
	.loc 1 99 16
	sb	zero,-73(s0)
.L8:
	.loc 1 102 20
	ld	a5,-200(s0)
	.loc 1 102 10
	addi	a5,a5,1
	sd	a5,-112(s0)
	.loc 1 103 41
	ld	a5,-112(s0)
	slli	a5,a5,1
	.loc 1 103 16
	mv	a0,a5
	call	AllocateZeroPool@plt
	sd	a0,-120(s0)
	.loc 1 106 29
	ld	a5,-200(s0)
	addi	a5,a5,1
	.loc 1 106 6
	ld	a4,-40(s0)
	bgeu	a4,a5,.L9
	.loc 1 107 26
	ld	a5,-200(s0)
	.loc 1 107 16
	addi	a5,a5,1
	sd	a5,-40(s0)
.L9:
	.loc 1 110 19
	ld	a5,-40(s0)
	addi	a5,a5,2
	.loc 1 110 6
	ld	a4,-88(s0)
	bgeu	a4,a5,.L10
	.loc 1 111 16
	ld	a5,-88(s0)
	addi	a5,a5,-2
	sd	a5,-40(s0)
.L10:
	.loc 1 114 20
	ld	a5,-40(s0)
	slli	a5,a5,1
	mv	a0,a5
	call	AllocateZeroPool@plt
	sd	a0,-128(s0)
	.loc 1 117 28
	ld	a4,-88(s0)
	ld	a5,-40(s0)
	sub	a5,a4,a5
	.loc 1 117 41
	addi	a5,a5,-2
	.loc 1 117 46
	srli	a4,a5,1
	.loc 1 117 72
	la	a5,gStatementDimensions
	ld	a5,0(a5)
	.loc 1 117 50
	add	a5,a4,a5
	.loc 1 117 9
	addi	a5,a5,1
	sd	a5,-136(s0)
	.loc 1 118 28
	ld	a5,-96(s0)
	addi	a5,a5,-6
	.loc 1 118 33
	srli	a4,a5,1
	.loc 1 118 60
	la	a5,gStatementDimensions
	ld	a5,16(a5)
	.loc 1 118 38
	add	a5,a4,a5
	.loc 1 118 7
	addi	a5,a5,-1
	sd	a5,-144(s0)
	.loc 1 124 3
	addi	a5,s0,-170
	addi	a4,s0,-176
	addi	a2,s0,-170
	ld	a3,-224(s0)
	li	a1,4
	ld	a0,-40(s0)
	call	CreateMultiStringPopUp@plt
	.loc 1 125 6
	la	a5,gST
	ld	a5,0(a5)
	ld	a5,64(a5)
	.loc 1 125 14
	ld	a5,40(a5)
	.loc 1 125 33
	la	a4,gST
	ld	a4,0(a4)
	.loc 1 125 3
	ld	a4,64(a4)
	li	a1,112
	mv	a0,a4
	jalr	a5
.LVL0:
	.loc 1 127 22
	la	a5,gST
	ld	a5,0(a5)
	ld	a5,64(a5)
	.loc 1 127 30
	ld	a5,72(a5)
	.loc 1 127 17
	lbu	a5,20(a5)
	sb	a5,-145(s0)
	.loc 1 128 6
	la	a5,gST
	ld	a5,0(a5)
	ld	a5,64(a5)
	.loc 1 128 14
	ld	a5,64(a5)
	.loc 1 128 33
	la	a4,gST
	ld	a4,0(a4)
	.loc 1 128 3
	ld	a4,64(a4)
	li	a1,1
	mv	a0,a4
	jalr	a5
.LVL1:
	.loc 1 130 19
	ld	a0,-232(s0)
	call	GetStringWidth@plt
	mv	a5,a0
	.loc 1 130 46 discriminator 1
	srli	a5,a5,1
	.loc 1 130 17 discriminator 1
	addi	a5,a5,-1
	sd	a5,-72(s0)
	.loc 1 131 6
	ld	a5,-72(s0)
	beq	a5,zero,.L56
	.loc 1 135 5
	ld	a5,-40(s0)
	addi	a5,a5,-1
	li	a2,32
	mv	a1,a5
	ld	a0,-128(s0)
	call	SetUnicodeMem@plt
	.loc 1 136 5
	ld	a5,-136(s0)
	addi	a4,a5,1
	ld	a5,-144(s0)
	addi	a5,a5,3
	ld	a2,-128(s0)
	mv	a1,a5
	mv	a0,a4
	call	PrintStringAt@plt
	.loc 1 138 10
	ld	a0,-232(s0)
	call	GetStringWidth@plt
	mv	a5,a0
	.loc 1 138 37 discriminator 1
	srli	a4,a5,1
	.loc 1 138 61 discriminator 1
	ld	a5,-88(s0)
	addi	a5,a5,-2
	.loc 1 138 8 discriminator 1
	bleu	a4,a5,.L12
	.loc 1 139 16
	ld	a0,-232(s0)
	call	GetStringWidth@plt
	mv	a5,a0
	.loc 1 139 43 discriminator 1
	srli	a4,a5,1
	.loc 1 139 48 discriminator 1
	ld	a5,-88(s0)
	sub	a5,a4,a5
	.loc 1 139 13 discriminator 1
	addi	a5,a5,2
	sd	a5,-48(s0)
	j	.L13
.L12:
	.loc 1 141 13
	sd	zero,-48(s0)
.L13:
	.loc 1 144 8
	lbu	a5,-73(s0)
	andi	a5,a5,0xff
	beq	a5,zero,.L14
	.loc 1 145 10
	la	a5,gST
	ld	a5,0(a5)
	ld	a5,64(a5)
	.loc 1 145 18
	ld	a5,56(a5)
	.loc 1 145 42
	la	a4,gST
	ld	a4,0(a4)
	.loc 1 145 7
	ld	a3,64(a4)
	ld	a4,-136(s0)
	addi	a1,a4,1
	ld	a4,-144(s0)
	addi	a4,a4,3
	mv	a2,a4
	mv	a0,a3
	jalr	a5
.LVL2:
.L14:
	.loc 1 148 16
	sd	zero,-64(s0)
	.loc 1 148 5
	j	.L15
.L17:
	.loc 1 149 40
	ld	a5,-48(s0)
	slli	a5,a5,1
	ld	a4,-232(s0)
	add	a4,a4,a5
	.loc 1 149 21
	ld	a5,-64(s0)
	slli	a5,a5,1
	ld	a3,-128(s0)
	add	a5,a3,a5
	.loc 1 149 40
	lhu	a4,0(a4)
	.loc 1 149 29
	sh	a4,0(a5)
	.loc 1 151 10
	lbu	a5,-73(s0)
	andi	a5,a5,0xff
	beq	a5,zero,.L16
	.loc 1 152 9
	li	a2,42
	li	a1,-1
	li	a0,-1
	call	PrintCharAt@plt
.L16:
	.loc 1 148 70 discriminator 2
	ld	a5,-48(s0)
	addi	a5,a5,1
	sd	a5,-48(s0)
	.loc 1 148 79 discriminator 2
	ld	a5,-64(s0)
	addi	a5,a5,1
	sd	a5,-64(s0)
.L15:
	.loc 1 148 27 discriminator 1
	ld	a5,-48(s0)
	addi	s1,a5,1
	.loc 1 148 33 discriminator 1
	ld	a0,-232(s0)
	call	GetStringWidth@plt
	mv	a5,a0
	.loc 1 148 60 discriminator 3
	srli	a5,a5,1
	.loc 1 148 31 discriminator 3
	bltu	s1,a5,.L17
	.loc 1 156 8
	lbu	a5,-73(s0)
	andi	a5,a5,0xff
	bne	a5,zero,.L18
	.loc 1 157 7
	ld	a5,-136(s0)
	addi	a4,a5,1
	ld	a5,-144(s0)
	addi	a5,a5,3
	ld	a2,-128(s0)
	mv	a1,a5
	mv	a0,a4
	call	PrintStringAt@plt
.L18:
	.loc 1 160 8
	la	a5,gST
	ld	a5,0(a5)
	ld	a5,64(a5)
	.loc 1 160 16
	ld	a5,40(a5)
	.loc 1 160 35
	la	a4,gST
	ld	a4,0(a4)
	.loc 1 160 5
	ld	a4,64(a4)
	li	a1,7
	mv	a0,a4
	jalr	a5
.LVL3:
	.loc 1 161 8
	la	a5,gST
	ld	a5,0(a5)
	ld	a5,64(a5)
	.loc 1 161 16
	ld	s1,56(a5)
	.loc 1 161 40
	la	a5,gST
	ld	a5,0(a5)
	.loc 1 161 5
	ld	s2,64(a5)
	.loc 1 161 58
	ld	a0,-232(s0)
	call	GetStringWidth@plt
	mv	a5,a0
	.loc 1 161 85 discriminator 1
	srli	a4,a5,1
	.loc 1 161 5 discriminator 1
	ld	a5,-136(s0)
	add	a4,a4,a5
	ld	a5,-144(s0)
	addi	a5,a5,3
	mv	a2,a5
	mv	a1,a4
	mv	a0,s2
	jalr	s1
.LVL4:
.L56:
	.loc 1 165 14
	addi	a5,s0,-168
	mv	a0,a5
	call	WaitForKeyStroke@plt
	sd	a0,-160(s0)
	.loc 1 168 8
	la	a5,gST
	ld	a5,0(a5)
	ld	a5,64(a5)
	.loc 1 168 16
	ld	a5,40(a5)
	.loc 1 168 35
	la	a4,gST
	ld	a4,0(a4)
	.loc 1 168 5
	ld	a4,64(a4)
	li	a1,112
	mv	a0,a4
	jalr	a5
.LVL5:
	.loc 1 169 16
	lhu	a5,-166(s0)
	sext.w	a5,a5
	.loc 1 169 5
	li	a4,13
	beq	a5,a4,.L19
	li	a4,13
	bgt	a5,a4,.L20
	beq	a5,zero,.L21
	li	a4,8
	beq	a5,a4,.L22
	j	.L20
.L21:
	.loc 1 171 20
	lhu	a5,-168(s0)
	sext.w	a5,a5
	.loc 1 171 9
	li	a4,23
	beq	a5,a4,.L23
	li	a4,23
	bgt	a5,a4,.L58
	li	a4,8
	beq	a5,a4,.L25
	li	a4,8
	bgt	a5,a4,.L58
	li	a4,3
	beq	a5,a4,.L26
	li	a4,4
	bne	a5,a4,.L58
	.loc 1 173 16
	ld	a5,-72(s0)
	beq	a5,zero,.L59
	.loc 1 174 28
	ld	a5,-72(s0)
	addi	a5,a5,-1
	sd	a5,-72(s0)
	.loc 1 177 13
	j	.L59
.L26:
	.loc 1 180 34
	ld	a0,-232(s0)
	call	GetStringWidth@plt
	mv	a5,a0
	.loc 1 180 61 discriminator 1
	srli	a5,a5,1
	.loc 1 180 65 discriminator 1
	addi	a5,a5,-1
	.loc 1 180 16 discriminator 1
	ld	a4,-72(s0)
	bgeu	a4,a5,.L60
	.loc 1 181 28
	ld	a5,-72(s0)
	addi	a5,a5,1
	sd	a5,-72(s0)
	.loc 1 184 13
	j	.L60
.L23:
	.loc 1 187 13
	ld	a0,-120(s0)
	call	FreePool@plt
	.loc 1 188 13
	ld	a0,-128(s0)
	call	FreePool@plt
	.loc 1 189 16
	la	a5,gST
	ld	a5,0(a5)
	ld	a5,64(a5)
	.loc 1 189 24
	ld	a5,40(a5)
	.loc 1 189 43
	la	a4,gST
	ld	a4,0(a4)
	.loc 1 189 13
	ld	a4,64(a4)
	li	a1,7
	mv	a0,a4
	jalr	a5
.LVL6:
	.loc 1 190 16
	la	a5,gST
	ld	a5,0(a5)
	ld	a5,64(a5)
	.loc 1 190 24
	ld	a5,64(a5)
	.loc 1 190 43
	la	a4,gST
	ld	a4,0(a4)
	.loc 1 190 13
	ld	a4,64(a4)
	lbu	a3,-145(s0)
	mv	a1,a3
	mv	a0,a4
	jalr	a5
.LVL7:
	.loc 1 191 20
	li	a5,-1
	slli	a5,a5,63
	addi	a5,a5,7
	j	.L57
.L25:
	.loc 1 194 24
	ld	a5,-72(s0)
	sd	a5,-48(s0)
	.loc 1 194 13
	j	.L31
.L35:
	.loc 1 195 43
	ld	a5,-48(s0)
	addi	a5,a5,1
	slli	a5,a5,1
	ld	a4,-232(s0)
	add	a4,a4,a5
	.loc 1 195 24
	ld	a5,-48(s0)
	slli	a5,a5,1
	ld	a3,-232(s0)
	add	a5,a3,a5
	.loc 1 195 43
	lhu	a4,0(a4)
	.loc 1 195 32
	sh	a4,0(a5)
	.loc 1 196 34
	ld	a4,-136(s0)
	ld	a5,-48(s0)
	add	a5,a4,a5
	.loc 1 196 15
	addi	a3,a5,1
	ld	a5,-144(s0)
	addi	a1,a5,3
	lbu	a5,-73(s0)
	andi	a5,a5,0xff
	beq	a5,zero,.L32
	.loc 1 196 79 discriminator 2
	ld	a5,-48(s0)
	slli	a5,a5,1
	ld	a4,-232(s0)
	add	a5,a4,a5
	lhu	a5,0(a5)
	.loc 1 196 67 discriminator 2
	bne	a5,zero,.L33
.L32:
	.loc 1 196 115 discriminator 3
	ld	a5,-48(s0)
	slli	a5,a5,1
	ld	a4,-232(s0)
	add	a5,a4,a5
	.loc 1 196 15 discriminator 3
	lhu	a5,0(a5)
	.loc 1 196 15 is_stmt 0
	j	.L34
.L33:
	.loc 1 196 15 discriminator 4
	li	a5,42
.L34:
	.loc 1 196 15 discriminator 6
	mv	a2,a5
	mv	a0,a3
	call	PrintCharAt@plt
	.loc 1 194 74 is_stmt 1 discriminator 2
	ld	a5,-48(s0)
	addi	a5,a5,1
	sd	a5,-48(s0)
.L31:
	.loc 1 194 50 discriminator 1
	ld	a5,-48(s0)
	slli	a5,a5,1
	ld	a4,-232(s0)
	add	a5,a4,a5
	lhu	a5,0(a5)
	.loc 1 194 58 discriminator 1
	bne	a5,zero,.L35
	.loc 1 199 13
	j	.L28
.L58:
	.loc 1 202 13
	nop
	j	.L36
.L59:
	.loc 1 177 13
	nop
	j	.L36
.L60:
	.loc 1 184 13
	nop
.L28:
	.loc 1 205 9
	j	.L36
.L19:
	.loc 1 208 13
	ld	a0,-232(s0)
	call	GetStringWidth@plt
	mv	a4,a0
	.loc 1 208 53 discriminator 1
	ld	a5,-192(s0)
	addi	a5,a5,1
	.loc 1 208 58 discriminator 1
	slli	a5,a5,1
	.loc 1 208 12 discriminator 1
	bltu	a4,a5,.L37
	.loc 1 209 11
	ld	a0,-120(s0)
	call	FreePool@plt
	.loc 1 210 11
	ld	a0,-128(s0)
	call	FreePool@plt
	.loc 1 211 14
	la	a5,gST
	ld	a5,0(a5)
	ld	a5,64(a5)
	.loc 1 211 22
	ld	a5,40(a5)
	.loc 1 211 41
	la	a4,gST
	ld	a4,0(a4)
	.loc 1 211 11
	ld	a4,64(a4)
	li	a1,7
	mv	a0,a4
	jalr	a5
.LVL8:
	.loc 1 212 14
	la	a5,gST
	ld	a5,0(a5)
	ld	a5,64(a5)
	.loc 1 212 22
	ld	a5,64(a5)
	.loc 1 212 41
	la	a4,gST
	ld	a4,0(a4)
	.loc 1 212 11
	ld	a4,64(a4)
	lbu	a3,-145(s0)
	mv	a1,a3
	mv	a0,a4
	jalr	a5
.LVL9:
	.loc 1 213 18
	li	a5,0
	j	.L57
.L37:
	.loc 1 220 13
	la	a5,gMiniString
	ld	a2,0(a5)
	la	a5,gPressEnter
	ld	a3,0(a5)
	addi	a4,s0,-170
	addi	a1,s0,-170
	addi	a0,s0,-168
	li	a5,0
	call	CreateDialog@plt
	.loc 1 221 23 discriminator 1
	lhu	a5,-166(s0)
	.loc 1 221 36 discriminator 1
	sext.w	a4,a5
	li	a5,13
	bne	a4,a5,.L37
	.loc 1 223 11
	ld	a0,-120(s0)
	call	FreePool@plt
	.loc 1 224 11
	ld	a0,-128(s0)
	call	FreePool@plt
	.loc 1 225 14
	la	a5,gST
	ld	a5,0(a5)
	ld	a5,64(a5)
	.loc 1 225 22
	ld	a5,40(a5)
	.loc 1 225 41
	la	a4,gST
	ld	a4,0(a4)
	.loc 1 225 11
	ld	a4,64(a4)
	li	a1,7
	mv	a0,a4
	jalr	a5
.LVL10:
	.loc 1 226 14
	la	a5,gST
	ld	a5,0(a5)
	ld	a5,64(a5)
	.loc 1 226 22
	ld	a5,64(a5)
	.loc 1 226 41
	la	a4,gST
	ld	a4,0(a4)
	.loc 1 226 11
	ld	a4,64(a4)
	lbu	a3,-145(s0)
	mv	a1,a3
	mv	a0,a4
	jalr	a5
.LVL11:
	.loc 1 227 18
	li	a5,-1
	slli	a5,a5,63
	addi	a5,a5,7
	j	.L57
.L22:
	.loc 1 231 23
	ld	a5,-232(s0)
	lhu	a5,0(a5)
	.loc 1 231 12
	beq	a5,zero,.L20
	.loc 1 231 38 discriminator 1
	ld	a5,-72(s0)
	beq	a5,zero,.L20
	.loc 1 232 22
	sd	zero,-48(s0)
	.loc 1 232 11
	j	.L38
.L39:
	.loc 1 233 42
	ld	a5,-48(s0)
	slli	a5,a5,1
	ld	a4,-232(s0)
	add	a4,a4,a5
	.loc 1 233 23
	ld	a5,-48(s0)
	slli	a5,a5,1
	ld	a3,-120(s0)
	add	a5,a3,a5
	.loc 1 233 42
	lhu	a4,0(a4)
	.loc 1 233 31
	sh	a4,0(a5)
	.loc 1 232 59 discriminator 3
	ld	a5,-48(s0)
	addi	a5,a5,1
	sd	a5,-48(s0)
.L38:
	.loc 1 232 49 discriminator 1
	ld	a5,-72(s0)
	addi	a5,a5,-1
	.loc 1 232 33 discriminator 1
	ld	a4,-48(s0)
	bltu	a4,a5,.L39
	.loc 1 236 19
	ld	a0,-232(s0)
	call	GetStringWidth@plt
	mv	a5,a0
	.loc 1 236 46 discriminator 1
	srli	a5,a5,1
	.loc 1 236 17 discriminator 1
	addi	a5,a5,-1
	sd	a5,-64(s0)
	.loc 1 237 14
	ld	a4,-64(s0)
	ld	a5,-72(s0)
	bltu	a4,a5,.L40
	.loc 1 238 24
	ld	a5,-72(s0)
	addi	a5,a5,-1
	sd	a5,-48(s0)
	.loc 1 238 52
	ld	a5,-72(s0)
	sd	a5,-56(s0)
	.loc 1 238 13
	j	.L41
.L42:
	.loc 1 239 44
	ld	a5,-56(s0)
	slli	a5,a5,1
	ld	a4,-232(s0)
	add	a4,a4,a5
	.loc 1 239 25
	ld	a5,-48(s0)
	slli	a5,a5,1
	ld	a3,-120(s0)
	add	a5,a3,a5
	.loc 1 239 44
	lhu	a4,0(a4)
	.loc 1 239 33
	sh	a4,0(a5)
	.loc 1 238 90 discriminator 3
	ld	a5,-48(s0)
	addi	a5,a5,1
	sd	a5,-48(s0)
	.loc 1 238 100 discriminator 3
	ld	a5,-56(s0)
	addi	a5,a5,1
	sd	a5,-56(s0)
.L41:
	.loc 1 238 76 discriminator 1
	ld	a4,-56(s0)
	ld	a5,-64(s0)
	bltu	a4,a5,.L42
	.loc 1 242 23
	ld	a5,-48(s0)
	slli	a5,a5,1
	ld	a4,-120(s0)
	add	a5,a4,a5
	.loc 1 242 31
	sh	zero,0(a5)
.L40:
	.loc 1 248 11
	ld	a2,-120(s0)
	ld	a1,-112(s0)
	ld	a0,-232(s0)
	call	StrCpyS@plt
	.loc 1 249 24
	ld	a5,-72(s0)
	addi	a5,a5,-1
	sd	a5,-72(s0)
.L20:
	.loc 1 256 23
	ld	a5,-232(s0)
	lhu	a5,0(a5)
	.loc 1 256 12
	bne	a5,zero,.L43
	.loc 1 256 45 discriminator 1
	lhu	a5,-166(s0)
	.loc 1 256 38 discriminator 1
	sext.w	a4,a5
	li	a5,8
	beq	a4,a5,.L43
	.loc 1 257 11
	addi	a5,s0,-168
	addi	a5,a5,2
	li	a3,1
	mv	a2,a5
	ld	a1,-112(s0)
	ld	a0,-232(s0)
	call	StrnCpyS@plt
	.loc 1 258 24
	ld	a5,-72(s0)
	addi	a5,a5,1
	sd	a5,-72(s0)
	j	.L44
.L43:
	.loc 1 259 21
	ld	a0,-232(s0)
	call	GetStringWidth@plt
	mv	a4,a0
	.loc 1 259 60 discriminator 1
	ld	a5,-200(s0)
	addi	a5,a5,1
	.loc 1 259 65 discriminator 1
	slli	a5,a5,1
	.loc 1 259 19 discriminator 1
	bgeu	a4,a5,.L44
	.loc 1 259 92 discriminator 2
	lhu	a5,-166(s0)
	.loc 1 259 85 discriminator 2
	sext.w	a4,a5
	li	a5,8
	beq	a4,a5,.L44
	.loc 1 260 26
	lhu	a5,-166(s0)
	.loc 1 260 21
	sh	a5,-184(s0)
	.loc 1 261 21
	sh	zero,-182(s0)
	.loc 1 262 19
	ld	a0,-232(s0)
	call	GetStringWidth@plt
	mv	a5,a0
	.loc 1 262 46 discriminator 1
	srli	a5,a5,1
	.loc 1 262 17 discriminator 1
	addi	a5,a5,-1
	sd	a5,-64(s0)
	.loc 1 263 14
	ld	a4,-72(s0)
	ld	a5,-64(s0)
	bgeu	a4,a5,.L45
	.loc 1 264 24
	sd	zero,-48(s0)
	.loc 1 264 13
	j	.L46
.L47:
	.loc 1 265 44
	ld	a5,-48(s0)
	slli	a5,a5,1
	ld	a4,-232(s0)
	add	a4,a4,a5
	.loc 1 265 25
	ld	a5,-48(s0)
	slli	a5,a5,1
	ld	a3,-120(s0)
	add	a5,a3,a5
	.loc 1 265 44
	lhu	a4,0(a4)
	.loc 1 265 33
	sh	a4,0(a5)
	.loc 1 264 57 discriminator 3
	ld	a5,-48(s0)
	addi	a5,a5,1
	sd	a5,-48(s0)
.L46:
	.loc 1 264 35 discriminator 1
	ld	a4,-48(s0)
	ld	a5,-72(s0)
	bltu	a4,a5,.L47
	.loc 1 268 23
	ld	a5,-48(s0)
	slli	a5,a5,1
	ld	a4,-120(s0)
	add	a5,a4,a5
	.loc 1 268 31
	sh	zero,0(a5)
	.loc 1 269 13
	addi	a5,s0,-184
	mv	a2,a5
	ld	a1,-112(s0)
	ld	a0,-120(s0)
	call	StrCatS@plt
	.loc 1 270 52
	ld	a5,-72(s0)
	slli	a5,a5,1
	ld	a4,-232(s0)
	add	a5,a4,a5
	.loc 1 270 13
	mv	a2,a5
	ld	a1,-112(s0)
	ld	a0,-120(s0)
	call	StrCatS@plt
	.loc 1 271 13
	ld	a2,-120(s0)
	ld	a1,-112(s0)
	ld	a0,-232(s0)
	call	StrCpyS@plt
	j	.L48
.L45:
	.loc 1 273 13
	addi	a5,s0,-184
	mv	a2,a5
	ld	a1,-112(s0)
	ld	a0,-232(s0)
	call	StrCatS@plt
.L48:
	.loc 1 276 24
	ld	a5,-72(s0)
	addi	a5,a5,1
	sd	a5,-72(s0)
.L44:
	.loc 1 283 9
	ld	a5,-40(s0)
	addi	a5,a5,-1
	li	a2,32
	mv	a1,a5
	ld	a0,-128(s0)
	call	SetUnicodeMem@plt
	.loc 1 284 9
	ld	a5,-136(s0)
	addi	a4,a5,1
	ld	a5,-144(s0)
	addi	a5,a5,3
	ld	a2,-128(s0)
	mv	a1,a5
	mv	a0,a4
	call	PrintStringAt@plt
	.loc 1 286 14
	ld	a0,-232(s0)
	call	GetStringWidth@plt
	mv	a5,a0
	.loc 1 286 41 discriminator 1
	srli	a4,a5,1
	.loc 1 286 65 discriminator 1
	ld	a5,-88(s0)
	addi	a5,a5,-2
	.loc 1 286 12 discriminator 1
	bleu	a4,a5,.L49
	.loc 1 287 20
	ld	a0,-232(s0)
	call	GetStringWidth@plt
	mv	a5,a0
	.loc 1 287 47 discriminator 1
	srli	a4,a5,1
	.loc 1 287 52 discriminator 1
	ld	a5,-88(s0)
	sub	a5,a4,a5
	.loc 1 287 17 discriminator 1
	addi	a5,a5,2
	sd	a5,-48(s0)
	j	.L50
.L49:
	.loc 1 289 17
	sd	zero,-48(s0)
.L50:
	.loc 1 292 12
	lbu	a5,-73(s0)
	andi	a5,a5,0xff
	beq	a5,zero,.L51
	.loc 1 293 14
	la	a5,gST
	ld	a5,0(a5)
	ld	a5,64(a5)
	.loc 1 293 22
	ld	a5,56(a5)
	.loc 1 293 46
	la	a4,gST
	ld	a4,0(a4)
	.loc 1 293 11
	ld	a3,64(a4)
	ld	a4,-136(s0)
	addi	a1,a4,1
	ld	a4,-144(s0)
	addi	a4,a4,3
	mv	a2,a4
	mv	a0,a3
	jalr	a5
.LVL12:
.L51:
	.loc 1 296 20
	sd	zero,-64(s0)
	.loc 1 296 9
	j	.L52
.L54:
	.loc 1 297 44
	ld	a5,-48(s0)
	slli	a5,a5,1
	ld	a4,-232(s0)
	add	a4,a4,a5
	.loc 1 297 25
	ld	a5,-64(s0)
	slli	a5,a5,1
	ld	a3,-128(s0)
	add	a5,a3,a5
	.loc 1 297 44
	lhu	a4,0(a4)
	.loc 1 297 33
	sh	a4,0(a5)
	.loc 1 299 14
	lbu	a5,-73(s0)
	andi	a5,a5,0xff
	beq	a5,zero,.L53
	.loc 1 300 13
	li	a2,42
	li	a1,-1
	li	a0,-1
	call	PrintCharAt@plt
.L53:
	.loc 1 296 74 discriminator 2
	ld	a5,-48(s0)
	addi	a5,a5,1
	sd	a5,-48(s0)
	.loc 1 296 83 discriminator 2
	ld	a5,-64(s0)
	addi	a5,a5,1
	sd	a5,-64(s0)
.L52:
	.loc 1 296 31 discriminator 1
	ld	a5,-48(s0)
	addi	s1,a5,1
	.loc 1 296 37 discriminator 1
	ld	a0,-232(s0)
	call	GetStringWidth@plt
	mv	a5,a0
	.loc 1 296 64 discriminator 3
	srli	a5,a5,1
	.loc 1 296 35 discriminator 3
	bltu	s1,a5,.L54
	.loc 1 304 12
	lbu	a5,-73(s0)
	andi	a5,a5,0xff
	bne	a5,zero,.L61
	.loc 1 305 11
	ld	a5,-136(s0)
	addi	a4,a5,1
	ld	a5,-144(s0)
	addi	a5,a5,3
	ld	a2,-128(s0)
	mv	a1,a5
	mv	a0,a4
	call	PrintStringAt@plt
.L61:
	.loc 1 308 9
	nop
.L36:
	.loc 1 311 8
	la	a5,gST
	ld	a5,0(a5)
	ld	a5,64(a5)
	.loc 1 311 16
	ld	a5,40(a5)
	.loc 1 311 35
	la	a4,gST
	ld	a4,0(a4)
	.loc 1 311 5
	ld	a4,64(a4)
	li	a1,7
	mv	a0,a4
	jalr	a5
.LVL13:
	.loc 1 312 8
	la	a5,gST
	ld	a5,0(a5)
	ld	a5,64(a5)
	.loc 1 312 16
	ld	a5,56(a5)
	.loc 1 312 40
	la	a4,gST
	ld	a4,0(a4)
	.loc 1 312 5
	ld	a0,64(a4)
	.loc 1 312 56
	ld	a3,-136(s0)
	ld	a4,-72(s0)
	add	a4,a3,a4
	.loc 1 312 5
	addi	a3,a4,1
	ld	a4,-144(s0)
	addi	a4,a4,3
	mv	a2,a4
	mv	a1,a3
	jalr	a5
.LVL14:
	.loc 1 165 12
	j	.L56
.L57:
	.loc 1 314 1
	mv	a0,a5
	ld	ra,232(sp)
	.cfi_restore 1
	ld	s0,224(sp)
	.cfi_restore 8
	.cfi_def_cfa 2, 240
	ld	s1,216(sp)
	.cfi_restore 9
	ld	s2,208(sp)
	.cfi_restore 18
	addi	sp,sp,240
	.cfi_def_cfa_offset 0
	jr	ra
	.cfi_endproc
.LFE1:
	.size	ReadString, .-ReadString
	.section	.text.AdjustQuestionValue,"ax",@progbits
	.align	1
	.globl	AdjustQuestionValue
	.type	AdjustQuestionValue, @function
AdjustQuestionValue:
.LFB2:
	.loc 1 329 1
	.cfi_startproc
	addi	sp,sp,-48
	.cfi_def_cfa_offset 48
	sd	ra,40(sp)
	sd	s0,32(sp)
	.cfi_offset 1, -8
	.cfi_offset 8, -16
	addi	s0,sp,48
	.cfi_def_cfa 8, 0
	sd	a0,-40(s0)
	mv	a5,a1
	sb	a5,-41(s0)
	.loc 1 335 9
	ld	a5,-40(s0)
	lbu	a5,20(a5)
	sb	a5,-18(s0)
	.loc 1 336 8
	ld	a5,-40(s0)
	lhu	a5,18(a5)
	sh	a5,-20(s0)
	.loc 1 337 11
	li	a5,1
	sb	a5,-21(s0)
	.loc 1 339 3
	lbu	a5,-18(s0)
	sext.w	a5,a5
	li	a4,11
	beq	a5,a4,.L63
	li	a4,11
	bgt	a5,a4,.L64
	li	a4,9
	beq	a5,a4,.L63
	li	a4,9
	bgt	a5,a4,.L64
	li	a4,6
	beq	a5,a4,.L63
	li	a4,6
	bgt	a5,a4,.L64
	li	a4,2
	beq	a5,a4,.L65
	li	a4,4
	beq	a5,a4,.L63
	j	.L64
.L65:
	.loc 1 341 23
	lhu	a5,-20(s0)
	andi	a5,a5,3
	slli	a5,a5,48
	srli	a5,a5,48
	.loc 1 341 10
	bne	a5,zero,.L66
	.loc 1 341 47 discriminator 1
	lhu	a5,-20(s0)
	slli	a3,a5,32
	srli	a3,a3,32
	li	a4,1374388224
	addi	a4,a4,1311
	mul	a4,a3,a4
	srli	a4,a4,32
	srliw	a4,a4,5
	mv	a3,a4
	li	a4,100
	mulw	a4,a3,a4
	subw	a5,a5,a4
	slli	a5,a5,48
	srli	a5,a5,48
	.loc 1 341 29 discriminator 1
	bne	a5,zero,.L67
	.loc 1 341 70 discriminator 2
	lhu	a5,-20(s0)
	slli	a3,a5,32
	srli	a3,a3,32
	li	a4,1374388224
	addi	a4,a4,1311
	mul	a4,a3,a4
	srli	a4,a4,32
	srliw	a4,a4,7
	mv	a3,a4
	li	a4,400
	mulw	a4,a3,a4
	subw	a5,a5,a4
	slli	a5,a5,48
	srli	a5,a5,48
	.loc 1 341 53 discriminator 2
	bne	a5,zero,.L66
.L67:
	.loc 1 342 17
	li	a5,29
	sb	a5,-17(s0)
	.loc 1 347 7
	j	.L69
.L66:
	.loc 1 344 17
	li	a5,28
	sb	a5,-17(s0)
	.loc 1 347 7
	j	.L69
.L63:
	.loc 1 352 15
	li	a5,30
	sb	a5,-17(s0)
	.loc 1 353 7
	j	.L69
.L64:
	.loc 1 355 15
	li	a5,31
	sb	a5,-17(s0)
	.loc 1 356 7
	nop
.L69:
	.loc 1 362 6
	lbu	a5,-41(s0)
	andi	a5,a5,0xff
	bne	a5,zero,.L70
	.loc 1 363 34
	ld	a5,-40(s0)
	lbu	a4,21(a5)
	.loc 1 363 8
	lbu	a5,-17(s0)
	andi	a5,a5,0xff
	bgeu	a5,a4,.L70
	.loc 1 364 37
	ld	a5,-40(s0)
	lbu	a4,-17(s0)
	sb	a4,21(a5)
.L70:
	.loc 1 371 6
	lbu	a5,-41(s0)
	andi	a4,a5,0xff
	li	a5,2
	bne	a4,a5,.L72
	.loc 1 372 34
	ld	a5,-40(s0)
	lbu	a4,21(a5)
	.loc 1 372 8
	lbu	a5,-17(s0)
	andi	a5,a5,0xff
	bgeu	a5,a4,.L72
	.loc 1 373 37
	ld	a5,-40(s0)
	lbu	a4,-21(s0)
	sb	a4,21(a5)
.L72:
	.loc 1 376 1
	nop
	ld	ra,40(sp)
	.cfi_restore 1
	ld	s0,32(sp)
	.cfi_restore 8
	.cfi_def_cfa 2, 48
	addi	sp,sp,48
	.cfi_def_cfa_offset 0
	jr	ra
	.cfi_endproc
.LFE2:
	.size	AdjustQuestionValue, .-AdjustQuestionValue
	.section	.text.GetValueFromNum,"ax",@progbits
	.align	1
	.globl	GetValueFromNum
	.type	GetValueFromNum, @function
GetValueFromNum:
.LFB3:
	.loc 1 402 1
	.cfi_startproc
	addi	sp,sp,-96
	.cfi_def_cfa_offset 96
	sd	ra,88(sp)
	sd	s0,80(sp)
	.cfi_offset 1, -8
	.cfi_offset 8, -16
	addi	s0,sp,96
	.cfi_def_cfa 8, 0
	sd	a0,-40(s0)
	sd	a2,-56(s0)
	sd	a3,-64(s0)
	sd	a4,-72(s0)
	sd	a5,-80(s0)
	sd	a6,-88(s0)
	sd	a7,-96(s0)
	mv	a5,a1
	sb	a5,-41(s0)
	.loc 1 405 13
	ld	a5,-40(s0)
	sd	a5,-24(s0)
	.loc 1 407 20
	ld	a5,-24(s0)
	lbu	a5,13(a5)
	.loc 1 407 28
	sext.w	a5,a5
	andi	a5,a5,3
	sext.w	a5,a5
	.loc 1 407 3
	li	a4,3
	beq	a5,a4,.L74
	li	a4,3
	bgt	a5,a4,.L89
	li	a4,2
	beq	a5,a4,.L76
	li	a4,2
	bgt	a5,a4,.L89
	beq	a5,zero,.L77
	li	a4,1
	beq	a5,a4,.L78
	.loc 1 469 7
	j	.L89
.L77:
	.loc 1 409 10
	lbu	a5,-41(s0)
	andi	a5,a5,0xff
	beq	a5,zero,.L79
	.loc 1 410 51
	ld	a5,-24(s0)
	lbu	a5,14(a5)
	.loc 1 410 27
	slliw	a5,a5,24
	sraiw	a5,a5,24
	.loc 1 410 20
	mv	a4,a5
	.loc 1 410 18
	ld	a5,-72(s0)
	sd	a4,0(a5)
	.loc 1 411 51
	ld	a5,-24(s0)
	lbu	a5,15(a5)
	.loc 1 411 27
	slliw	a5,a5,24
	sraiw	a5,a5,24
	.loc 1 411 20
	mv	a4,a5
	.loc 1 411 18
	ld	a5,-80(s0)
	sd	a4,0(a5)
	.loc 1 412 51
	ld	a5,-56(s0)
	lbu	a5,18(a5)
	.loc 1 412 25
	slliw	a5,a5,24
	sraiw	a5,a5,24
	.loc 1 412 18
	mv	a4,a5
	.loc 1 412 16
	ld	a5,-64(s0)
	sd	a4,0(a5)
	j	.L80
.L79:
	.loc 1 414 38
	ld	a5,-24(s0)
	lbu	a5,14(a5)
	mv	a4,a5
	.loc 1 414 18
	ld	a5,-72(s0)
	sd	a4,0(a5)
	.loc 1 415 38
	ld	a5,-24(s0)
	lbu	a5,15(a5)
	mv	a4,a5
	.loc 1 415 18
	ld	a5,-80(s0)
	sd	a4,0(a5)
	.loc 1 416 38
	ld	a5,-56(s0)
	lbu	a5,18(a5)
	mv	a4,a5
	.loc 1 416 16
	ld	a5,-64(s0)
	sd	a4,0(a5)
.L80:
	.loc 1 419 33
	ld	a5,-24(s0)
	lbu	a5,16(a5)
	mv	a4,a5
	.loc 1 419 13
	ld	a5,-88(s0)
	sd	a4,0(a5)
	.loc 1 420 21
	ld	a5,-96(s0)
	li	a4,1
	sh	a4,0(a5)
	.loc 1 421 7
	j	.L81
.L78:
	.loc 1 424 10
	lbu	a5,-41(s0)
	andi	a5,a5,0xff
	beq	a5,zero,.L82
	.loc 1 425 53
	ld	a5,-24(s0)
	lbu	a4,14(a5)
	lbu	a5,15(a5)
	slli	a5,a5,8
	or	a5,a5,a4
	slli	a5,a5,48
	srli	a5,a5,48
	.loc 1 425 27
	slliw	a5,a5,16
	sraiw	a5,a5,16
	.loc 1 425 20
	mv	a4,a5
	.loc 1 425 18
	ld	a5,-72(s0)
	sd	a4,0(a5)
	.loc 1 426 53
	ld	a5,-24(s0)
	lbu	a4,16(a5)
	lbu	a5,17(a5)
	slli	a5,a5,8
	or	a5,a5,a4
	slli	a5,a5,48
	srli	a5,a5,48
	.loc 1 426 27
	slliw	a5,a5,16
	sraiw	a5,a5,16
	.loc 1 426 20
	mv	a4,a5
	.loc 1 426 18
	ld	a5,-80(s0)
	sd	a4,0(a5)
	.loc 1 427 52
	ld	a5,-56(s0)
	lhu	a5,18(a5)
	.loc 1 427 25
	slliw	a5,a5,16
	sraiw	a5,a5,16
	.loc 1 427 18
	mv	a4,a5
	.loc 1 427 16
	ld	a5,-64(s0)
	sd	a4,0(a5)
	j	.L83
.L82:
	.loc 1 429 39
	ld	a5,-24(s0)
	lbu	a4,14(a5)
	lbu	a5,15(a5)
	slli	a5,a5,8
	or	a5,a5,a4
	slli	a5,a5,48
	srli	a5,a5,48
	mv	a4,a5
	.loc 1 429 18
	ld	a5,-72(s0)
	sd	a4,0(a5)
	.loc 1 430 39
	ld	a5,-24(s0)
	lbu	a4,16(a5)
	lbu	a5,17(a5)
	slli	a5,a5,8
	or	a5,a5,a4
	slli	a5,a5,48
	srli	a5,a5,48
	mv	a4,a5
	.loc 1 430 18
	ld	a5,-80(s0)
	sd	a4,0(a5)
	.loc 1 431 38
	ld	a5,-56(s0)
	lhu	a5,18(a5)
	mv	a4,a5
	.loc 1 431 16
	ld	a5,-64(s0)
	sd	a4,0(a5)
.L83:
	.loc 1 434 34
	ld	a5,-24(s0)
	lbu	a4,18(a5)
	lbu	a5,19(a5)
	slli	a5,a5,8
	or	a5,a5,a4
	slli	a5,a5,48
	srli	a5,a5,48
	mv	a4,a5
	.loc 1 434 13
	ld	a5,-88(s0)
	sd	a4,0(a5)
	.loc 1 435 21
	ld	a5,-96(s0)
	li	a4,2
	sh	a4,0(a5)
	.loc 1 436 7
	j	.L81
.L76:
	.loc 1 439 10
	lbu	a5,-41(s0)
	andi	a5,a5,0xff
	beq	a5,zero,.L84
	.loc 1 440 53
	ld	a5,-24(s0)
	lbu	a4,14(a5)
	lbu	a3,15(a5)
	slli	a3,a3,8
	or	a4,a3,a4
	lbu	a3,16(a5)
	slli	a3,a3,16
	or	a4,a3,a4
	lbu	a5,17(a5)
	slli	a5,a5,24
	or	a5,a5,a4
	sext.w	a5,a5
	.loc 1 440 20
	mv	a4,a5
	.loc 1 440 18
	ld	a5,-72(s0)
	sd	a4,0(a5)
	.loc 1 441 53
	ld	a5,-24(s0)
	lbu	a4,18(a5)
	lbu	a3,19(a5)
	slli	a3,a3,8
	or	a4,a3,a4
	lbu	a3,20(a5)
	slli	a3,a3,16
	or	a4,a3,a4
	lbu	a5,21(a5)
	slli	a5,a5,24
	or	a5,a5,a4
	sext.w	a5,a5
	.loc 1 441 20
	mv	a4,a5
	.loc 1 441 18
	ld	a5,-80(s0)
	sd	a4,0(a5)
	.loc 1 442 52
	ld	a5,-56(s0)
	ld	a5,16(a5)
	srli	a5,a5,16
	andi	a5,a5,-1
	sext.w	a5,a5
	.loc 1 442 18
	mv	a4,a5
	.loc 1 442 16
	ld	a5,-64(s0)
	sd	a4,0(a5)
	j	.L85
.L84:
	.loc 1 444 39
	ld	a5,-24(s0)
	lbu	a4,14(a5)
	lbu	a3,15(a5)
	slli	a3,a3,8
	or	a4,a3,a4
	lbu	a3,16(a5)
	slli	a3,a3,16
	or	a4,a3,a4
	lbu	a5,17(a5)
	slli	a5,a5,24
	or	a5,a5,a4
	sext.w	a5,a5
	slli	a4,a5,32
	srli	a4,a4,32
	.loc 1 444 18
	ld	a5,-72(s0)
	sd	a4,0(a5)
	.loc 1 445 39
	ld	a5,-24(s0)
	lbu	a4,18(a5)
	lbu	a3,19(a5)
	slli	a3,a3,8
	or	a4,a3,a4
	lbu	a3,20(a5)
	slli	a3,a3,16
	or	a4,a3,a4
	lbu	a5,21(a5)
	slli	a5,a5,24
	or	a5,a5,a4
	sext.w	a5,a5
	slli	a4,a5,32
	srli	a4,a4,32
	.loc 1 445 18
	ld	a5,-80(s0)
	sd	a4,0(a5)
	.loc 1 446 38
	ld	a5,-56(s0)
	ld	a5,16(a5)
	srli	a5,a5,16
	andi	a5,a5,-1
	sext.w	a5,a5
	slli	a4,a5,32
	srli	a4,a4,32
	.loc 1 446 16
	ld	a5,-64(s0)
	sd	a4,0(a5)
.L85:
	.loc 1 449 34
	ld	a5,-24(s0)
	lbu	a4,22(a5)
	lbu	a3,23(a5)
	slli	a3,a3,8
	or	a4,a3,a4
	lbu	a3,24(a5)
	slli	a3,a3,16
	or	a4,a3,a4
	lbu	a5,25(a5)
	slli	a5,a5,24
	or	a5,a5,a4
	sext.w	a5,a5
	slli	a4,a5,32
	srli	a4,a4,32
	.loc 1 449 13
	ld	a5,-88(s0)
	sd	a4,0(a5)
	.loc 1 450 21
	ld	a5,-96(s0)
	li	a4,4
	sh	a4,0(a5)
	.loc 1 451 7
	j	.L81
.L74:
	.loc 1 454 10
	lbu	a5,-41(s0)
	andi	a5,a5,0xff
	beq	a5,zero,.L86
	.loc 1 455 46
	ld	a5,-24(s0)
	lbu	a4,14(a5)
	lbu	a3,15(a5)
	slli	a3,a3,8
	or	a4,a3,a4
	lbu	a3,16(a5)
	slli	a3,a3,16
	or	a4,a3,a4
	lbu	a3,17(a5)
	slli	a3,a3,24
	or	a4,a3,a4
	lbu	a3,18(a5)
	slli	a3,a3,32
	or	a4,a3,a4
	lbu	a3,19(a5)
	slli	a3,a3,40
	or	a4,a3,a4
	lbu	a3,20(a5)
	slli	a3,a3,48
	or	a4,a3,a4
	lbu	a5,21(a5)
	slli	a5,a5,56
	or	a5,a5,a4
	mv	a4,a5
	.loc 1 455 18
	ld	a5,-72(s0)
	sd	a4,0(a5)
	.loc 1 456 46
	ld	a5,-24(s0)
	lbu	a4,22(a5)
	lbu	a3,23(a5)
	slli	a3,a3,8
	or	a4,a3,a4
	lbu	a3,24(a5)
	slli	a3,a3,16
	or	a4,a3,a4
	lbu	a3,25(a5)
	slli	a3,a3,24
	or	a4,a3,a4
	lbu	a3,26(a5)
	slli	a3,a3,32
	or	a4,a3,a4
	lbu	a3,27(a5)
	slli	a3,a3,40
	or	a4,a3,a4
	lbu	a3,28(a5)
	slli	a3,a3,48
	or	a4,a3,a4
	lbu	a5,29(a5)
	slli	a5,a5,56
	or	a5,a5,a4
	mv	a4,a5
	.loc 1 456 18
	ld	a5,-80(s0)
	sd	a4,0(a5)
	.loc 1 457 45
	ld	a5,-56(s0)
	ld	a4,16(a5)
	srli	a4,a4,16
	ld	a5,24(a5)
	slli	a5,a5,48
	srli	a5,a5,48
	slli	a5,a5,48
	or	a5,a5,a4
	mv	a4,a5
	.loc 1 457 16
	ld	a5,-64(s0)
	sd	a4,0(a5)
	j	.L87
.L86:
	.loc 1 459 39
	ld	a5,-24(s0)
	lbu	a4,14(a5)
	lbu	a3,15(a5)
	slli	a3,a3,8
	or	a4,a3,a4
	lbu	a3,16(a5)
	slli	a3,a3,16
	or	a4,a3,a4
	lbu	a3,17(a5)
	slli	a3,a3,24
	or	a4,a3,a4
	lbu	a3,18(a5)
	slli	a3,a3,32
	or	a4,a3,a4
	lbu	a3,19(a5)
	slli	a3,a3,40
	or	a4,a3,a4
	lbu	a3,20(a5)
	slli	a3,a3,48
	or	a4,a3,a4
	lbu	a5,21(a5)
	slli	a5,a5,56
	or	a5,a5,a4
	mv	a4,a5
	.loc 1 459 18
	ld	a5,-72(s0)
	sd	a4,0(a5)
	.loc 1 460 39
	ld	a5,-24(s0)
	lbu	a4,22(a5)
	lbu	a3,23(a5)
	slli	a3,a3,8
	or	a4,a3,a4
	lbu	a3,24(a5)
	slli	a3,a3,16
	or	a4,a3,a4
	lbu	a3,25(a5)
	slli	a3,a3,24
	or	a4,a3,a4
	lbu	a3,26(a5)
	slli	a3,a3,32
	or	a4,a3,a4
	lbu	a3,27(a5)
	slli	a3,a3,40
	or	a4,a3,a4
	lbu	a3,28(a5)
	slli	a3,a3,48
	or	a4,a3,a4
	lbu	a5,29(a5)
	slli	a5,a5,56
	or	a5,a5,a4
	mv	a4,a5
	.loc 1 460 18
	ld	a5,-80(s0)
	sd	a4,0(a5)
	.loc 1 461 38
	ld	a5,-56(s0)
	ld	a4,16(a5)
	srli	a4,a4,16
	ld	a5,24(a5)
	slli	a5,a5,48
	srli	a5,a5,48
	slli	a5,a5,48
	or	a5,a5,a4
	mv	a4,a5
	.loc 1 461 16
	ld	a5,-64(s0)
	sd	a4,0(a5)
.L87:
	.loc 1 464 34
	ld	a5,-24(s0)
	lbu	a4,30(a5)
	lbu	a3,31(a5)
	slli	a3,a3,8
	or	a4,a3,a4
	lbu	a3,32(a5)
	slli	a3,a3,16
	or	a4,a3,a4
	lbu	a3,33(a5)
	slli	a3,a3,24
	or	a4,a3,a4
	lbu	a3,34(a5)
	slli	a3,a3,32
	or	a4,a3,a4
	lbu	a3,35(a5)
	slli	a3,a3,40
	or	a4,a3,a4
	lbu	a3,36(a5)
	slli	a3,a3,48
	or	a4,a3,a4
	lbu	a5,37(a5)
	slli	a5,a5,56
	or	a5,a5,a4
	mv	a4,a5
	.loc 1 464 13
	ld	a5,-88(s0)
	sd	a4,0(a5)
	.loc 1 465 21
	ld	a5,-96(s0)
	li	a4,8
	sh	a4,0(a5)
	.loc 1 466 7
	j	.L81
.L89:
	.loc 1 469 7
	nop
.L81:
	.loc 1 472 7
	ld	a5,-80(s0)
	ld	a5,0(a5)
	.loc 1 472 6
	bne	a5,zero,.L90
	.loc 1 473 14
	ld	a5,-80(s0)
	li	a4,-1
	sd	a4,0(a5)
.L90:
	.loc 1 475 1
	nop
	ld	ra,88(sp)
	.cfi_restore 1
	ld	s0,80(sp)
	.cfi_restore 8
	.cfi_def_cfa 2, 96
	addi	sp,sp,96
	.cfi_def_cfa_offset 0
	jr	ra
	.cfi_endproc
.LFE3:
	.size	GetValueFromNum, .-GetValueFromNum
	.section	.rodata
	.align	3
.LC0:
	.string	"%"
	.string	"0"
	.string	"4"
	.string	"d"
	.zero	2
	.align	3
.LC1:
	.string	"%"
	.string	"0"
	.string	"2"
	.string	"d"
	.zero	2
	.align	3
.LC2:
	.string	" "
	.zero	2
	.section	.text.GetNumericInput,"ax",@progbits
	.align	1
	.globl	GetNumericInput
	.type	GetNumericInput, @function
GetNumericInput:
.LFB4:
	.loc 1 490 1
	.cfi_startproc
	addi	sp,sp,-448
	.cfi_def_cfa_offset 448
	sd	ra,440(sp)
	sd	s0,432(sp)
	sd	s1,424(sp)
	sd	s2,416(sp)
	.cfi_offset 1, -8
	.cfi_offset 8, -16
	.cfi_offset 9, -24
	.cfi_offset 18, -32
	addi	s0,sp,448
	.cfi_def_cfa 8, 0
	sd	a0,-440(s0)
	.loc 1 517 10
	ld	a5,-440(s0)
	ld	a5,64(a5)
	sd	a5,-40(s0)
	.loc 1 518 7
	ld	a5,-440(s0)
	ld	a5,48(a5)
	sd	a5,-104(s0)
	.loc 1 519 21
	sd	zero,-384(s0)
	.loc 1 520 9
	sd	zero,-48(s0)
	.loc 1 521 14
	sd	zero,-72(s0)
	.loc 1 522 11
	sb	zero,-81(s0)
	.loc 1 523 16
	sh	zero,-426(s0)
	.loc 1 524 11
	sd	zero,-408(s0)
	.loc 1 525 11
	sd	zero,-416(s0)
	.loc 1 526 13
	sd	zero,-96(s0)
	.loc 1 527 12
	sb	zero,-59(s0)
	.loc 1 528 12
	sb	zero,-58(s0)
	.loc 1 529 12
	sb	zero,-60(s0)
	.loc 1 530 16
	sb	zero,-61(s0)
	.loc 1 532 12
	ld	a5,-440(s0)
	ld	a5,32(a5)
	sd	a5,-112(s0)
	.loc 1 533 17
	ld	a5,-112(s0)
	addi	a5,a5,40
	sd	a5,-120(s0)
	.loc 1 534 3
	addi	a5,s0,-168
	li	a1,48
	mv	a0,a5
	call	ZeroMem@plt
	.loc 1 540 38
	la	a5,gDirection
	lhu	a5,0(a5)
	.loc 1 540 17
	bne	a5,zero,.L92
	.loc 1 540 15 discriminator 1
	li	a5,1
	sb	a5,-57(s0)
	j	.L93
.L92:
	.loc 1 540 15 is_stmt 0 discriminator 2
	sb	zero,-57(s0)
.L93:
	.loc 1 542 16 is_stmt 1
	ld	a5,-112(s0)
	ld	a5,32(a5)
	.loc 1 542 24
	lbu	a5,0(a5)
	.loc 1 542 6
	mv	a4,a5
	li	a5,26
	beq	a4,a5,.L94
	.loc 1 542 54 discriminator 1
	ld	a5,-112(s0)
	ld	a5,32(a5)
	.loc 1 542 62 discriminator 1
	lbu	a5,0(a5)
	.loc 1 542 42 discriminator 1
	mv	a4,a5
	li	a5,27
	bne	a4,a5,.L95
.L94:
	.loc 1 543 16
	li	a5,1
	sb	a5,-62(s0)
	j	.L96
.L95:
	.loc 1 545 16
	sb	zero,-62(s0)
.L96:
	.loc 1 551 12
	sd	zero,-80(s0)
	.loc 1 552 13
	sd	zero,-392(s0)
	.loc 1 553 15
	ld	a5,-112(s0)
	ld	a5,32(a5)
	.loc 1 553 23
	lbu	a5,0(a5)
	.loc 1 553 6
	mv	a4,a5
	li	a5,26
	bne	a4,a5,.L97
	.loc 1 554 10
	li	a5,1
	sd	a5,-400(s0)
	.loc 1 555 13
	li	a5,1
	sd	a5,-408(s0)
	.loc 1 557 23
	ld	a5,-440(s0)
	ld	a5,88(a5)
	.loc 1 557 5
	li	a4,2
	beq	a5,a4,.L98
	li	a4,2
	bgtu	a5,a4,.L229
	beq	a5,zero,.L100
	li	a4,1
	beq	a5,a4,.L101
	.loc 1 599 9
	j	.L229
.L100:
	.loc 1 559 17
	li	a5,12
	sd	a5,-416(s0)
	.loc 1 560 18
	li	a5,4
	sd	a5,-80(s0)
	.loc 1 561 46
	ld	a5,-120(s0)
	lbu	a5,20(a5)
	.loc 1 561 19
	sd	a5,-392(s0)
	.loc 1 562 9
	j	.L110
.L101:
	.loc 1 565 42
	ld	a5,-120(s0)
	lbu	a5,20(a5)
	sext.w	a5,a5
	.loc 1 565 9
	li	a4,11
	beq	a5,a4,.L103
	li	a4,11
	bgt	a5,a4,.L104
	li	a4,9
	beq	a5,a4,.L103
	li	a4,9
	bgt	a5,a4,.L104
	li	a4,6
	beq	a5,a4,.L103
	li	a4,6
	bgt	a5,a4,.L104
	li	a4,2
	beq	a5,a4,.L105
	li	a4,4
	beq	a5,a4,.L103
	j	.L104
.L105:
	.loc 1 567 44
	ld	a5,-120(s0)
	lhu	a5,18(a5)
	.loc 1 567 55
	andi	a5,a5,3
	slli	a5,a5,48
	srli	a5,a5,48
	.loc 1 567 16
	bne	a5,zero,.L106
	.loc 1 568 45
	ld	a5,-120(s0)
	lhu	a5,18(a5)
	.loc 1 568 58
	mv	a3,a5
	slli	a4,a3,32
	srli	a4,a4,32
	li	a5,1374388224
	addi	a5,a5,1311
	mul	a5,a4,a5
	srli	a5,a5,32
	srliw	a5,a5,5
	mv	a4,a5
	li	a5,100
	mulw	a5,a4,a5
	subw	a5,a3,a5
	slli	a5,a5,48
	srli	a5,a5,48
	.loc 1 567 61 discriminator 1
	bne	a5,zero,.L107
	.loc 1 569 45
	ld	a5,-120(s0)
	lhu	a5,18(a5)
	.loc 1 569 58
	mv	a3,a5
	slli	a4,a3,32
	srli	a4,a4,32
	li	a5,1374388224
	addi	a5,a5,1311
	mul	a5,a4,a5
	srli	a5,a5,32
	srliw	a5,a5,7
	mv	a4,a5
	li	a5,400
	mulw	a5,a4,a5
	subw	a5,a3,a5
	slli	a5,a5,48
	srli	a5,a5,48
	.loc 1 568 64
	bne	a5,zero,.L106
.L107:
	.loc 1 571 23
	li	a5,29
	sd	a5,-416(s0)
	.loc 1 576 13
	j	.L109
.L106:
	.loc 1 573 23
	li	a5,28
	sd	a5,-416(s0)
	.loc 1 576 13
	j	.L109
.L103:
	.loc 1 581 21
	li	a5,30
	sd	a5,-416(s0)
	.loc 1 582 13
	j	.L109
.L104:
	.loc 1 584 21
	li	a5,31
	sd	a5,-416(s0)
	.loc 1 585 13
	nop
.L109:
	.loc 1 588 18
	li	a5,3
	sd	a5,-80(s0)
	.loc 1 589 46
	ld	a5,-120(s0)
	lbu	a5,21(a5)
	.loc 1 589 19
	sd	a5,-392(s0)
	.loc 1 590 9
	j	.L110
.L98:
	.loc 1 593 17
	li	a5,65536
	addi	a5,a5,-1
	sd	a5,-416(s0)
	.loc 1 594 18
	li	a5,5
	sd	a5,-80(s0)
	.loc 1 595 46
	ld	a5,-120(s0)
	lhu	a5,18(a5)
	.loc 1 595 19
	sd	a5,-392(s0)
	.loc 1 596 9
	j	.L110
.L97:
	.loc 1 601 22
	ld	a5,-112(s0)
	ld	a5,32(a5)
	.loc 1 601 30
	lbu	a5,0(a5)
	.loc 1 601 13
	mv	a4,a5
	li	a5,27
	bne	a4,a5,.L111
	.loc 1 602 10
	li	a5,1
	sd	a5,-400(s0)
	.loc 1 603 13
	sd	zero,-408(s0)
	.loc 1 605 23
	ld	a5,-440(s0)
	ld	a5,88(a5)
	.loc 1 605 5
	li	a4,2
	beq	a5,a4,.L112
	li	a4,2
	bgtu	a5,a4,.L230
	beq	a5,zero,.L114
	li	a4,1
	beq	a5,a4,.L115
	.loc 1 625 9
	j	.L230
.L114:
	.loc 1 607 17
	li	a5,23
	sd	a5,-416(s0)
	.loc 1 608 18
	li	a5,4
	sd	a5,-80(s0)
	.loc 1 609 46
	ld	a5,-120(s0)
	lbu	a5,18(a5)
	.loc 1 609 19
	sd	a5,-392(s0)
	.loc 1 610 9
	j	.L110
.L115:
	.loc 1 613 17
	li	a5,59
	sd	a5,-416(s0)
	.loc 1 614 18
	li	a5,3
	sd	a5,-80(s0)
	.loc 1 615 46
	ld	a5,-120(s0)
	lbu	a5,19(a5)
	.loc 1 615 19
	sd	a5,-392(s0)
	.loc 1 616 9
	j	.L110
.L112:
	.loc 1 619 17
	li	a5,59
	sd	a5,-416(s0)
	.loc 1 620 18
	li	a5,3
	sd	a5,-80(s0)
	.loc 1 621 46
	ld	a5,-120(s0)
	lbu	a5,20(a5)
	.loc 1 621 19
	sd	a5,-392(s0)
	.loc 1 622 9
	j	.L110
.L111:
	.loc 1 629 15
	ld	a5,-112(s0)
	ld	a5,32(a5)
	sd	a5,-96(s0)
	.loc 1 630 5
	ld	a5,-112(s0)
	ld	a0,32(a5)
	.loc 1 630 50
	ld	a5,-96(s0)
	lbu	a5,13(a5)
	.loc 1 630 58
	sext.w	a5,a5
	andi	a5,a5,48
	sext.w	a5,a5
	.loc 1 630 5
	seqz	a5,a5
	andi	a5,a5,0xff
	mv	t1,a5
	addi	a1,s0,-426
	addi	a2,s0,-400
	addi	a5,s0,-416
	addi	a4,s0,-408
	addi	a3,s0,-392
	mv	a7,a1
	mv	a6,a2
	ld	a2,-120(s0)
	mv	a1,t1
	call	GetValueFromNum
	.loc 1 631 14
	la	a5,gOptionBlockWidth
	lhu	a5,0(a5)
	sd	a5,-80(s0)
	j	.L110
.L229:
	.loc 1 599 9
	nop
	j	.L110
.L230:
	.loc 1 625 9
	nop
.L110:
	.loc 1 634 16
	ld	a5,-112(s0)
	ld	a5,32(a5)
	.loc 1 634 24
	lbu	a5,0(a5)
	.loc 1 634 6
	mv	a4,a5
	li	a5,7
	bne	a4,a5,.L117
	.loc 1 634 42 discriminator 1
	ld	a5,-96(s0)
	beq	a5,zero,.L117
	.loc 1 635 19
	ld	a5,-96(s0)
	lbu	a5,13(a5)
	.loc 1 635 27
	sext.w	a5,a5
	andi	a5,a5,48
	sext.w	a4,a5
	.loc 1 635 8
	li	a5,32
	bne	a4,a5,.L118
	.loc 1 636 16
	li	a5,1
	sb	a5,-58(s0)
	j	.L117
.L118:
	.loc 1 637 26
	ld	a5,-96(s0)
	lbu	a5,13(a5)
	.loc 1 637 34
	sext.w	a5,a5
	andi	a5,a5,48
	sext.w	a5,a5
	.loc 1 637 15
	bne	a5,zero,.L117
	.loc 1 641 16
	li	a5,1
	sb	a5,-59(s0)
.L117:
	.loc 1 648 6
	lbu	a5,-57(s0)
	andi	a5,a5,0xff
	beq	a5,zero,.L226
	.loc 1 649 17
	ld	a5,-112(s0)
	ld	a5,32(a5)
	.loc 1 649 25
	lbu	a5,0(a5)
	.loc 1 649 8
	mv	a4,a5
	li	a5,7
	bne	a4,a5,.L120
	.loc 1 650 10
	lbu	a5,-58(s0)
	andi	a5,a5,0xff
	beq	a5,zero,.L121
	.loc 1 651 35
	lhu	a5,-426(s0)
	sext.w	a5,a5
	slliw	a5,a5,1
	sext.w	a5,a5
	.loc 1 651 20
	sd	a5,-72(s0)
	j	.L122
.L121:
	.loc 1 653 9
	lhu	a5,-426(s0)
	sext.w	a5,a5
	li	a4,8
	beq	a5,a4,.L123
	li	a4,8
	bgt	a5,a4,.L124
	li	a4,4
	beq	a5,a4,.L125
	li	a4,4
	bgt	a5,a4,.L124
	li	a4,1
	beq	a5,a4,.L126
	li	a4,2
	beq	a5,a4,.L127
	j	.L124
.L126:
	.loc 1 655 24
	li	a5,3
	sd	a5,-72(s0)
	.loc 1 656 13
	j	.L128
.L127:
	.loc 1 659 24
	li	a5,5
	sd	a5,-72(s0)
	.loc 1 660 13
	j	.L128
.L125:
	.loc 1 663 24
	li	a5,10
	sd	a5,-72(s0)
	.loc 1 664 13
	j	.L128
.L123:
	.loc 1 667 24
	li	a5,20
	sd	a5,-72(s0)
	.loc 1 668 13
	j	.L128
.L124:
	.loc 1 671 24
	sd	zero,-72(s0)
	.loc 1 672 13
	nop
.L128:
	.loc 1 675 12
	lbu	a5,-59(s0)
	andi	a5,a5,0xff
	beq	a5,zero,.L122
	.loc 1 679 22
	ld	a5,-72(s0)
	addi	a5,a5,1
	sd	a5,-72(s0)
.L122:
	.loc 1 683 20
	li	a5,91
	sh	a5,-168(s0)
	.loc 1 684 7
	addi	a5,s0,-168
	addi	a5,a5,2
	li	a2,32
	ld	a1,-72(s0)
	mv	a0,a5
	call	SetUnicodeMem@plt
	.loc 1 686 28
	ld	a5,-72(s0)
	addi	a4,a5,1
	.loc 1 686 33
	addi	a5,s0,-168
	slli	a4,a4,1
	add	a5,a4,a5
	li	a4,93
	sh	a4,0(a5)
	.loc 1 687 28
	ld	a5,-72(s0)
	addi	a4,a5,2
	.loc 1 687 33
	addi	a5,s0,-168
	slli	a4,a4,1
	add	a5,a4,a5
	sh	zero,0(a5)
	.loc 1 689 7
	addi	a5,s0,-168
	mv	a2,a5
	ld	a1,-104(s0)
	ld	a0,-40(s0)
	call	PrintStringAt@plt
	.loc 1 690 13
	ld	a5,-40(s0)
	addi	a5,a5,1
	sd	a5,-40(s0)
.L120:
	.loc 1 693 17
	ld	a5,-112(s0)
	ld	a5,32(a5)
	.loc 1 693 25
	lbu	a5,0(a5)
	.loc 1 693 8
	mv	a4,a5
	li	a5,26
	bne	a4,a5,.L129
	.loc 1 694 21
	ld	a5,-440(s0)
	ld	a4,88(a5)
	.loc 1 694 10
	li	a5,2
	bne	a4,a5,.L130
	.loc 1 695 20
	li	a5,4
	sd	a5,-72(s0)
	j	.L131
.L130:
	.loc 1 697 20
	li	a5,2
	sd	a5,-72(s0)
.L131:
	.loc 1 700 21
	ld	a5,-440(s0)
	ld	a5,88(a5)
	.loc 1 700 10
	bne	a5,zero,.L132
	.loc 1 701 22
	li	a5,91
	sh	a5,-168(s0)
	.loc 1 702 9
	addi	a5,s0,-168
	addi	a5,a5,2
	li	a2,32
	ld	a1,-72(s0)
	mv	a0,a5
	call	SetUnicodeMem@plt
	.loc 1 703 30
	ld	a5,-72(s0)
	addi	a4,a5,1
	.loc 1 703 35
	addi	a5,s0,-168
	slli	a4,a4,1
	add	a5,a4,a5
	li	a4,47
	sh	a4,0(a5)
	.loc 1 704 30
	ld	a5,-72(s0)
	addi	a4,a5,2
	.loc 1 704 35
	addi	a5,s0,-168
	slli	a4,a4,1
	add	a5,a4,a5
	sh	zero,0(a5)
	j	.L133
.L132:
	.loc 1 705 28
	ld	a5,-440(s0)
	ld	a4,88(a5)
	.loc 1 705 17
	li	a5,1
	bne	a4,a5,.L134
	.loc 1 706 9
	addi	a5,s0,-168
	li	a2,32
	ld	a1,-72(s0)
	mv	a0,a5
	call	SetUnicodeMem@plt
	.loc 1 707 31
	ld	a4,-72(s0)
	addi	a5,s0,-168
	slli	a4,a4,1
	add	a5,a4,a5
	li	a4,47
	sh	a4,0(a5)
	.loc 1 708 30
	ld	a5,-72(s0)
	addi	a4,a5,1
	.loc 1 708 35
	addi	a5,s0,-168
	slli	a4,a4,1
	add	a5,a4,a5
	sh	zero,0(a5)
	j	.L133
.L134:
	.loc 1 710 9
	addi	a5,s0,-168
	li	a2,32
	ld	a1,-72(s0)
	mv	a0,a5
	call	SetUnicodeMem@plt
	.loc 1 711 31
	ld	a4,-72(s0)
	addi	a5,s0,-168
	slli	a4,a4,1
	add	a5,a4,a5
	li	a4,93
	sh	a4,0(a5)
	.loc 1 712 30
	ld	a5,-72(s0)
	addi	a4,a5,1
	.loc 1 712 35
	addi	a5,s0,-168
	slli	a4,a4,1
	add	a5,a4,a5
	sh	zero,0(a5)
.L133:
	.loc 1 715 7
	addi	a5,s0,-168
	mv	a2,a5
	ld	a1,-104(s0)
	ld	a0,-40(s0)
	call	PrintStringAt@plt
	.loc 1 716 21
	ld	a5,-440(s0)
	ld	a5,88(a5)
	.loc 1 716 10
	bne	a5,zero,.L129
	.loc 1 717 15
	ld	a5,-40(s0)
	addi	a5,a5,1
	sd	a5,-40(s0)
.L129:
	.loc 1 721 17
	ld	a5,-112(s0)
	ld	a5,32(a5)
	.loc 1 721 25
	lbu	a5,0(a5)
	.loc 1 721 8
	mv	a4,a5
	li	a5,27
	bne	a4,a5,.L226
	.loc 1 722 18
	li	a5,2
	sd	a5,-72(s0)
	.loc 1 724 21
	ld	a5,-440(s0)
	ld	a5,88(a5)
	.loc 1 724 10
	bne	a5,zero,.L135
	.loc 1 725 22
	li	a5,91
	sh	a5,-168(s0)
	.loc 1 726 9
	addi	a5,s0,-168
	addi	a5,a5,2
	li	a2,32
	ld	a1,-72(s0)
	mv	a0,a5
	call	SetUnicodeMem@plt
	.loc 1 727 30
	ld	a5,-72(s0)
	addi	a4,a5,1
	.loc 1 727 35
	addi	a5,s0,-168
	slli	a4,a4,1
	add	a5,a4,a5
	li	a4,58
	sh	a4,0(a5)
	.loc 1 728 30
	ld	a5,-72(s0)
	addi	a4,a5,2
	.loc 1 728 35
	addi	a5,s0,-168
	slli	a4,a4,1
	add	a5,a4,a5
	sh	zero,0(a5)
	j	.L136
.L135:
	.loc 1 729 28
	ld	a5,-440(s0)
	ld	a4,88(a5)
	.loc 1 729 17
	li	a5,1
	bne	a4,a5,.L137
	.loc 1 730 9
	addi	a5,s0,-168
	li	a2,32
	ld	a1,-72(s0)
	mv	a0,a5
	call	SetUnicodeMem@plt
	.loc 1 731 31
	ld	a4,-72(s0)
	addi	a5,s0,-168
	slli	a4,a4,1
	add	a5,a4,a5
	li	a4,58
	sh	a4,0(a5)
	.loc 1 732 30
	ld	a5,-72(s0)
	addi	a4,a5,1
	.loc 1 732 35
	addi	a5,s0,-168
	slli	a4,a4,1
	add	a5,a4,a5
	sh	zero,0(a5)
	j	.L136
.L137:
	.loc 1 734 9
	addi	a5,s0,-168
	li	a2,32
	ld	a1,-72(s0)
	mv	a0,a5
	call	SetUnicodeMem@plt
	.loc 1 735 31
	ld	a4,-72(s0)
	addi	a5,s0,-168
	slli	a4,a4,1
	add	a5,a4,a5
	li	a4,93
	sh	a4,0(a5)
	.loc 1 736 30
	ld	a5,-72(s0)
	addi	a4,a5,1
	.loc 1 736 35
	addi	a5,s0,-168
	slli	a4,a4,1
	add	a5,a4,a5
	sh	zero,0(a5)
.L136:
	.loc 1 739 7
	addi	a5,s0,-168
	mv	a2,a5
	ld	a1,-104(s0)
	ld	a0,-40(s0)
	call	PrintStringAt@plt
	.loc 1 740 21
	ld	a5,-440(s0)
	ld	a5,88(a5)
	.loc 1 740 10
	bne	a5,zero,.L226
	.loc 1 741 15
	ld	a5,-40(s0)
	addi	a5,a5,1
	sd	a5,-40(s0)
.L226:
	.loc 1 751 21
	sh	zero,-422(s0)
	.loc 1 752 20
	la	a5,gDirection
	lhu	a5,0(a5)
	.loc 1 752 8
	beq	a5,zero,.L138
	.loc 1 753 20
	la	a5,gDirection
	lhu	a5,0(a5)
	sh	a5,-424(s0)
	.loc 1 754 18
	la	a5,gDirection
	sh	zero,0(a5)
	.loc 1 755 7
	j	.L152
.L138:
	.loc 1 758 5
	addi	a5,s0,-424
	mv	a0,a5
	call	WaitForKeyStroke@plt
.L139:
.L152:
	.loc 1 761 16
	lhu	a5,-422(s0)
	sext.w	a5,a5
	.loc 1 761 5
	li	a4,45
	beq	a5,a4,.L140
	li	a4,45
	bgt	a5,a4,.L141
	li	a4,43
	beq	a5,a4,.L140
	li	a4,43
	bgt	a5,a4,.L141
	li	a4,13
	beq	a5,a4,.L142
	li	a4,13
	bgt	a5,a4,.L141
	beq	a5,zero,.L143
	li	a4,8
	beq	a5,a4,.L144
	j	.L141
.L140:
	.loc 1 764 12
	lbu	a5,-57(s0)
	andi	a5,a5,0xff
	beq	a5,zero,.L145
	.loc 1 764 25 discriminator 1
	lbu	a5,-59(s0)
	andi	a5,a5,0xff
	beq	a5,zero,.L145
	.loc 1 768 18
	lhu	a5,-422(s0)
	.loc 1 768 14
	sext.w	a4,a5
	li	a5,45
	bne	a4,a5,.L149
	.loc 1 769 16
	lbu	a5,-60(s0)
	andi	a5,a5,0xff
	bne	a5,zero,.L231
	.loc 1 773 22
	li	a5,1
	sb	a5,-60(s0)
	.loc 1 774 13
	ld	a5,-40(s0)
	addi	a4,a5,1
	sd	a4,-40(s0)
	lhu	a4,-422(s0)
	mv	a2,a4
	ld	a1,-104(s0)
	mv	a0,a5
	call	PrintCharAt@plt
	.loc 1 768 14
	j	.L149
.L145:
	.loc 1 777 18
	lhu	a5,-422(s0)
	.loc 1 777 14
	sext.w	a4,a5
	li	a5,43
	bne	a4,a5,.L150
	.loc 1 778 26
	li	a5,3
	sh	a5,-424(s0)
	j	.L151
.L150:
	.loc 1 780 26
	li	a5,4
	sh	a5,-424(s0)
.L151:
	.loc 1 783 27
	sh	zero,-422(s0)
	.loc 1 784 11
	j	.L152
.L149:
	.loc 1 787 9
	j	.L148
.L143:
	.loc 1 790 20
	lhu	a5,-424(s0)
	sext.w	a5,a5
	.loc 1 790 9
	li	a4,23
	beq	a5,a4,.L153
	li	a4,23
	bgt	a5,a4,.L232
	li	a4,2
	bgt	a5,a4,.L155
	bgt	a5,zero,.L233
	.loc 1 907 13
	j	.L232
.L155:
	addiw	a5,a5,-3
	sext.w	a4,a5
	.loc 1 790 9
	li	a5,1
	bgtu	a4,a5,.L232
	.loc 1 793 16
	lbu	a5,-62(s0)
	andi	a5,a5,0xff
	beq	a5,zero,.L157
	.loc 1 793 28 discriminator 1
	lbu	a5,-57(s0)
	andi	a5,a5,0xff
	bne	a5,zero,.L157
	.loc 1 800 26
	la	a5,gDirection
	li	a4,2
	sh	a4,0(a5)
.L157:
	.loc 1 803 23
	ld	a5,-400(s0)
	.loc 1 803 16
	beq	a5,zero,.L234
	.loc 1 803 29 discriminator 1
	lbu	a5,-57(s0)
	andi	a5,a5,0xff
	bne	a5,zero,.L234
	.loc 1 804 22
	lhu	a5,-424(s0)
	.loc 1 804 18
	sext.w	a4,a5
	li	a5,4
	bne	a4,a5,.L159
	.loc 1 805 20
	lbu	a5,-59(s0)
	andi	a5,a5,0xff
	beq	a5,zero,.L160
	.loc 1 806 43
	ld	a5,-408(s0)
	mv	a4,a5
	.loc 1 806 60
	ld	a5,-400(s0)
	.loc 1 806 58
	add	a5,a4,a5
	.loc 1 806 23
	ld	a4,-392(s0)
	.loc 1 806 22
	bgt	a5,a4,.L161
	.loc 1 807 43
	ld	a4,-392(s0)
	ld	a5,-400(s0)
	sub	a5,a4,a5
	.loc 1 807 31
	sd	a5,-392(s0)
	j	.L162
.L161:
	.loc 1 808 30
	ld	a5,-392(s0)
	mv	a4,a5
	.loc 1 808 49
	ld	a5,-408(s0)
	.loc 1 808 29
	ble	a4,a5,.L163
	.loc 1 809 31
	ld	a5,-408(s0)
	sd	a5,-392(s0)
	j	.L162
.L163:
	.loc 1 811 31
	ld	a5,-416(s0)
	sd	a5,-392(s0)
	j	.L162
.L160:
	.loc 1 814 44
	ld	a4,-408(s0)
	ld	a5,-400(s0)
	add	a4,a4,a5
	.loc 1 814 33
	ld	a5,-392(s0)
	.loc 1 814 22
	bgtu	a4,a5,.L164
	.loc 1 815 43
	ld	a4,-392(s0)
	ld	a5,-400(s0)
	sub	a5,a4,a5
	.loc 1 815 31
	sd	a5,-392(s0)
	j	.L162
.L164:
	.loc 1 816 40
	ld	a4,-392(s0)
	ld	a5,-408(s0)
	.loc 1 816 29
	bleu	a4,a5,.L165
	.loc 1 817 31
	ld	a5,-408(s0)
	sd	a5,-392(s0)
	j	.L162
.L165:
	.loc 1 819 31
	ld	a5,-416(s0)
	sd	a5,-392(s0)
	j	.L162
.L159:
	.loc 1 822 29
	lhu	a5,-424(s0)
	.loc 1 822 25
	sext.w	a4,a5
	li	a5,3
	bne	a4,a5,.L162
	.loc 1 823 20
	lbu	a5,-59(s0)
	andi	a5,a5,0xff
	beq	a5,zero,.L166
	.loc 1 824 23
	ld	a5,-392(s0)
	mv	a4,a5
	.loc 1 824 42
	ld	a5,-400(s0)
	.loc 1 824 40
	add	a5,a4,a5
	.loc 1 824 57
	ld	a4,-416(s0)
	.loc 1 824 22
	bgt	a5,a4,.L167
	.loc 1 825 43
	ld	a4,-392(s0)
	ld	a5,-400(s0)
	add	a5,a4,a5
	.loc 1 825 31
	sd	a5,-392(s0)
	j	.L162
.L167:
	.loc 1 826 30
	ld	a5,-392(s0)
	mv	a4,a5
	.loc 1 826 49
	ld	a5,-416(s0)
	.loc 1 826 29
	bge	a4,a5,.L168
	.loc 1 827 31
	ld	a5,-416(s0)
	sd	a5,-392(s0)
	j	.L162
.L168:
	.loc 1 829 31
	ld	a5,-408(s0)
	sd	a5,-392(s0)
	j	.L162
.L166:
	.loc 1 832 33
	ld	a4,-392(s0)
	ld	a5,-400(s0)
	add	a4,a4,a5
	.loc 1 832 40
	ld	a5,-416(s0)
	.loc 1 832 22
	bgtu	a4,a5,.L169
	.loc 1 833 43
	ld	a4,-392(s0)
	ld	a5,-400(s0)
	add	a5,a4,a5
	.loc 1 833 31
	sd	a5,-392(s0)
	j	.L162
.L169:
	.loc 1 834 40
	ld	a4,-392(s0)
	ld	a5,-416(s0)
	.loc 1 834 29
	bgeu	a4,a5,.L170
	.loc 1 835 31
	ld	a5,-416(s0)
	sd	a5,-392(s0)
	j	.L162
.L170:
	.loc 1 837 31
	ld	a5,-408(s0)
	sd	a5,-392(s0)
.L162:
	.loc 1 842 15
	addi	a5,s0,-216
	li	a1,42
	mv	a0,a5
	call	ZeroMem@plt
	.loc 1 843 27
	ld	a5,-112(s0)
	ld	a5,32(a5)
	.loc 1 843 35
	lbu	a5,0(a5)
	.loc 1 843 18
	mv	a4,a5
	li	a5,26
	bne	a4,a5,.L171
	.loc 1 844 31
	ld	a5,-440(s0)
	ld	a4,88(a5)
	.loc 1 844 20
	li	a5,2
	bne	a4,a5,.L172
	.loc 1 848 82
	ld	a5,-392(s0)
	slli	a5,a5,48
	srli	a5,a5,48
	.loc 1 848 19
	sext.w	a4,a5
	addi	a5,s0,-216
	mv	a3,a4
	lla	a2,.LC0
	li	a1,42
	mv	a0,a5
	call	UnicodeSPrint@plt
	j	.L173
.L172:
	.loc 1 853 82
	ld	a5,-392(s0)
	andi	a5,a5,0xff
	.loc 1 853 19
	sext.w	a4,a5
	addi	a5,s0,-216
	mv	a3,a4
	lla	a2,.LC1
	li	a1,42
	mv	a0,a5
	call	UnicodeSPrint@plt
.L173:
	.loc 1 856 31
	ld	a5,-440(s0)
	ld	a5,88(a5)
	.loc 1 856 20
	bne	a5,zero,.L174
	.loc 1 858 44
	ld	a5,-80(s0)
	addi	a4,a5,-2
	.loc 1 858 49
	addi	a5,s0,-216
	slli	a4,a4,1
	add	a5,a4,a5
	li	a4,47
	sh	a4,0(a5)
	j	.L175
.L174:
	.loc 1 859 38
	ld	a5,-440(s0)
	ld	a4,88(a5)
	.loc 1 859 27
	li	a5,1
	bne	a4,a5,.L175
	.loc 1 861 44
	ld	a5,-80(s0)
	addi	a4,a5,-1
	.loc 1 861 49
	addi	a5,s0,-216
	slli	a4,a4,1
	add	a5,a4,a5
	li	a4,47
	sh	a4,0(a5)
	j	.L175
.L171:
	.loc 1 863 34
	ld	a5,-112(s0)
	ld	a5,32(a5)
	.loc 1 863 42
	lbu	a5,0(a5)
	.loc 1 863 25
	mv	a4,a5
	li	a5,27
	bne	a4,a5,.L176
	.loc 1 864 80
	ld	a5,-392(s0)
	andi	a5,a5,0xff
	.loc 1 864 17
	sext.w	a4,a5
	addi	a5,s0,-216
	mv	a3,a4
	lla	a2,.LC1
	li	a1,42
	mv	a0,a5
	call	UnicodeSPrint@plt
	.loc 1 866 31
	ld	a5,-440(s0)
	ld	a5,88(a5)
	.loc 1 866 20
	bne	a5,zero,.L177
	.loc 1 868 44
	ld	a5,-80(s0)
	addi	a4,a5,-2
	.loc 1 868 49
	addi	a5,s0,-216
	slli	a4,a4,1
	add	a5,a4,a5
	li	a4,58
	sh	a4,0(a5)
	j	.L175
.L177:
	.loc 1 869 38
	ld	a5,-440(s0)
	ld	a4,88(a5)
	.loc 1 869 27
	li	a5,1
	bne	a4,a5,.L175
	.loc 1 871 44
	ld	a5,-80(s0)
	addi	a4,a5,-1
	.loc 1 871 49
	addi	a5,s0,-216
	slli	a4,a4,1
	add	a5,a4,a5
	li	a4,58
	sh	a4,0(a5)
	j	.L175
.L176:
	.loc 1 874 42
	ld	a4,-392(s0)
	ld	a5,-120(s0)
	slli	a3,a4,48
	srli	a3,a3,48
	lhu	a2,18(a5)
	andi	a2,a2,0
	or	a3,a2,a3
	sh	a3,18(a5)
	srli	a3,a4,16
	slli	a3,a3,48
	srli	a3,a3,48
	lhu	a2,20(a5)
	andi	a2,a2,0
	or	a3,a2,a3
	sh	a3,20(a5)
	srli	a3,a4,32
	slli	a3,a3,48
	srli	a3,a3,48
	lhu	a2,22(a5)
	andi	a2,a2,0
	or	a3,a2,a3
	sh	a3,22(a5)
	srli	a4,a4,48
	lhu	a3,24(a5)
	andi	a3,a3,0
	or	a4,a3,a4
	sh	a4,24(a5)
	.loc 1 875 17
	addi	a5,s0,-216
	li	a2,42
	mv	a1,a5
	ld	a0,-112(s0)
	call	PrintFormattedNumber@plt
.L175:
	.loc 1 878 18
	la	a5,gST
	ld	a5,0(a5)
	ld	a5,64(a5)
	.loc 1 878 26
	ld	s1,40(a5)
	.loc 1 878 45
	la	a5,gST
	ld	a5,0(a5)
	.loc 1 878 15
	ld	s2,64(a5)
	.loc 1 878 55
	call	GetFieldTextColor@plt
	mv	a5,a0
	.loc 1 878 15 discriminator 1
	mv	a1,a5
	mv	a0,s2
	jalr	s1
.LVL15:
	.loc 1 879 25
	sd	zero,-56(s0)
	.loc 1 879 15
	j	.L178
.L179:
	.loc 1 880 42
	ld	a5,-440(s0)
	ld	a4,64(a5)
	.loc 1 880 17
	ld	a5,-56(s0)
	add	a4,a4,a5
	ld	a5,-440(s0)
	ld	a5,48(a5)
	lla	a2,.LC2
	mv	a1,a5
	mv	a0,a4
	call	PrintStringAt@plt
	.loc 1 879 51 discriminator 3
	ld	a5,-56(s0)
	addi	a5,a5,1
	sd	a5,-56(s0)
.L178:
	.loc 1 879 35 discriminator 1
	ld	a4,-56(s0)
	ld	a5,-80(s0)
	bltu	a4,a5,.L179
	.loc 1 883 18
	la	a5,gST
	ld	a5,0(a5)
	ld	a5,64(a5)
	.loc 1 883 26
	ld	s1,40(a5)
	.loc 1 883 45
	la	a5,gST
	ld	a5,0(a5)
	.loc 1 883 15
	ld	s2,64(a5)
	.loc 1 883 55
	call	GetHighlightTextColor@plt
	mv	a5,a0
	.loc 1 883 15 discriminator 1
	mv	a1,a5
	mv	a0,s2
	jalr	s1
.LVL16:
	.loc 1 885 29
	ld	a5,-440(s0)
	ld	a5,88(a5)
	.loc 1 885 18
	bne	a5,zero,.L180
	.loc 1 886 17
	ld	a5,-440(s0)
	ld	a5,64(a5)
	li	a2,91
	ld	a1,-104(s0)
	mv	a0,a5
	call	PrintCharAt@plt
	.loc 1 887 36
	ld	a5,-440(s0)
	ld	a5,64(a5)
	.loc 1 887 24
	addi	a5,a5,1
	sd	a5,-40(s0)
.L180:
	.loc 1 890 15
	addi	a5,s0,-216
	mv	a2,a5
	ld	a1,-104(s0)
	ld	a0,-40(s0)
	call	PrintStringAt@plt
	.loc 1 892 18
	lbu	a5,-62(s0)
	andi	a5,a5,0xff
	beq	a5,zero,.L181
	.loc 1 892 45 discriminator 1
	ld	a5,-440(s0)
	ld	a4,88(a5)
	.loc 1 892 31 discriminator 1
	li	a5,2
	bne	a4,a5,.L234
.L181:
	.loc 1 893 17
	li	a2,93
	li	a1,-1
	li	a0,-1
	call	PrintCharAt@plt
	.loc 1 897 13
	j	.L234
.L153:
	.loc 1 904 20
	li	a5,-1
	slli	a5,a5,63
	addi	a5,a5,7
	j	.L227
.L232:
	.loc 1 907 13
	nop
	.loc 1 910 9
	j	.L148
.L182:
.L233:
	.loc 1 901 13
	nop
	j	.L142
.L234:
	.loc 1 897 13
	nop
.L142:
	.loc 1 918 22
	sb	zero,-61(s0)
	.loc 1 919 12
	lbu	a5,-59(s0)
	andi	a5,a5,0xff
	beq	a5,zero,.L184
	.loc 1 925 14
	lbu	a5,-60(s0)
	andi	a5,a5,0xff
	beq	a5,zero,.L185
	.loc 1 926 28
	ld	a5,-392(s0)
	mv	a4,a5
	.loc 1 926 47
	ld	a5,-416(s0)
	.loc 1 926 82
	sgt	a5,a4,a5
	andi	a5,a5,0xff
	.loc 1 926 26
	sb	a5,-61(s0)
	j	.L186
.L185:
	.loc 1 928 28
	ld	a5,-392(s0)
	mv	a4,a5
	.loc 1 928 47
	ld	a5,-408(s0)
	.loc 1 928 82
	slt	a5,a4,a5
	andi	a5,a5,0xff
	.loc 1 928 26
	sb	a5,-61(s0)
.L186:
	.loc 1 931 14
	lbu	a5,-61(s0)
	andi	a5,a5,0xff
	beq	a5,zero,.L187
	.loc 1 932 13
	li	a1,1
	li	a0,1
	call	UpdateStatusBar@plt
	.loc 1 933 13
	j	.L148
.L184:
	.loc 1 935 30
	ld	a4,-392(s0)
	ld	a5,-408(s0)
	.loc 1 935 19
	bgeu	a4,a5,.L187
	.loc 1 936 11
	li	a1,1
	li	a0,1
	call	UpdateStatusBar@plt
	.loc 1 937 11
	j	.L148
.L187:
	.loc 1 940 9
	li	a1,0
	li	a0,1
	call	UpdateStatusBar@plt
	.loc 1 941 29
	la	a5,gUserInput
	ld	a5,0(a5)
	.loc 1 941 18
	addi	a4,a5,8
	.loc 1 941 43
	ld	a5,-112(s0)
	addi	a5,a5,40
	.loc 1 941 9
	li	a2,40
	mv	a1,a5
	mv	a0,a4
	call	CopyMem@plt
	.loc 1 942 36
	la	a5,gUserInput
	ld	a5,0(a5)
	.loc 1 942 23
	addi	a5,a5,8
	sd	a5,-120(s0)
	.loc 1 946 21
	ld	a5,-112(s0)
	ld	a5,32(a5)
	.loc 1 946 29
	lbu	a5,0(a5)
	.loc 1 946 12
	mv	a4,a5
	li	a5,26
	bne	a4,a5,.L188
	.loc 1 947 29
	ld	a5,-440(s0)
	ld	a5,88(a5)
	.loc 1 947 11
	li	a4,2
	beq	a5,a4,.L189
	li	a4,2
	bgtu	a5,a4,.L235
	beq	a5,zero,.L191
	li	a4,1
	beq	a5,a4,.L192
	.loc 1 961 15
	j	.L235
.L191:
	.loc 1 949 49
	ld	a5,-392(s0)
	andi	a4,a5,0xff
	.loc 1 949 47
	ld	a5,-120(s0)
	sb	a4,20(a5)
	.loc 1 950 15
	j	.L194
.L192:
	.loc 1 953 47
	ld	a5,-392(s0)
	andi	a4,a5,0xff
	.loc 1 953 45
	ld	a5,-120(s0)
	sb	a4,21(a5)
	.loc 1 954 15
	j	.L194
.L189:
	.loc 1 957 48
	ld	a5,-392(s0)
	slli	a4,a5,48
	srli	a4,a4,48
	.loc 1 957 46
	ld	a5,-120(s0)
	sh	a4,18(a5)
	.loc 1 958 15
	j	.L194
.L188:
	.loc 1 963 28
	ld	a5,-112(s0)
	ld	a5,32(a5)
	.loc 1 963 36
	lbu	a5,0(a5)
	.loc 1 963 19
	mv	a4,a5
	li	a5,27
	bne	a4,a5,.L195
	.loc 1 964 29
	ld	a5,-440(s0)
	ld	a5,88(a5)
	.loc 1 964 11
	li	a4,2
	beq	a5,a4,.L196
	li	a4,2
	bgtu	a5,a4,.L236
	beq	a5,zero,.L198
	li	a4,1
	beq	a5,a4,.L199
	.loc 1 978 15
	j	.L236
.L198:
	.loc 1 966 48
	ld	a5,-392(s0)
	andi	a4,a5,0xff
	.loc 1 966 46
	ld	a5,-120(s0)
	sb	a4,18(a5)
	.loc 1 967 15
	j	.L194
.L199:
	.loc 1 970 50
	ld	a5,-392(s0)
	andi	a4,a5,0xff
	.loc 1 970 48
	ld	a5,-120(s0)
	sb	a4,19(a5)
	.loc 1 971 15
	j	.L194
.L196:
	.loc 1 974 50
	ld	a5,-392(s0)
	andi	a4,a5,0xff
	.loc 1 974 48
	ld	a5,-120(s0)
	sb	a4,20(a5)
	.loc 1 975 15
	j	.L194
.L195:
	.loc 1 984 36
	ld	a4,-392(s0)
	ld	a5,-120(s0)
	slli	a3,a4,48
	srli	a3,a3,48
	lhu	a2,18(a5)
	andi	a2,a2,0
	or	a3,a2,a3
	sh	a3,18(a5)
	srli	a3,a4,16
	slli	a3,a3,48
	srli	a3,a3,48
	lhu	a2,20(a5)
	andi	a2,a2,0
	or	a3,a2,a3
	sh	a3,20(a5)
	srli	a3,a4,32
	slli	a3,a3,48
	srli	a3,a3,48
	lhu	a2,22(a5)
	andi	a2,a2,0
	or	a3,a2,a3
	sh	a3,22(a5)
	srli	a4,a4,48
	lhu	a3,24(a5)
	andi	a3,a3,0
	or	a4,a3,a4
	sh	a4,24(a5)
	j	.L194
.L235:
	.loc 1 961 15
	nop
	j	.L194
.L236:
	.loc 1 978 15
	nop
.L194:
	.loc 1 992 22
	ld	a5,-112(s0)
	ld	a5,32(a5)
	.loc 1 992 30
	lbu	a5,0(a5)
	.loc 1 992 12
	mv	a4,a5
	li	a5,26
	bne	a4,a5,.L201
	.loc 1 993 25
	ld	a5,-440(s0)
	ld	a5,88(a5)
	.loc 1 992 48 discriminator 1
	beq	a5,zero,.L202
	.loc 1 993 56
	ld	a5,-440(s0)
	ld	a4,88(a5)
	.loc 1 993 42
	li	a5,2
	bne	a4,a5,.L201
.L202:
	.loc 1 995 64
	ld	a5,-440(s0)
	ld	a5,88(a5)
	.loc 1 995 11
	andi	a5,a5,0xff
	mv	a1,a5
	ld	a0,-120(s0)
	call	AdjustQuestionValue
.L201:
	.loc 1 998 16
	li	a5,0
	j	.L227
.L144:
	.loc 1 1001 12
	lbu	a5,-57(s0)
	andi	a5,a5,0xff
	beq	a5,zero,.L237
	.loc 1 1002 14
	ld	a5,-48(s0)
	bne	a5,zero,.L204
	.loc 1 1003 16
	lbu	a5,-60(s0)
	andi	a5,a5,0xff
	beq	a5,zero,.L238
	.loc 1 1004 24
	sb	zero,-60(s0)
	.loc 1 1005 21
	ld	a5,-40(s0)
	addi	a5,a5,-1
	sd	a5,-40(s0)
	.loc 1 1006 15
	lla	a2,.LC2
	ld	a1,-104(s0)
	ld	a0,-40(s0)
	call	PrintStringAt@plt
	.loc 1 1009 13
	j	.L238
.L204:
	.loc 1 1015 44
	ld	a5,-48(s0)
	addi	a4,a5,-1
	.loc 1 1015 37
	addi	a5,s0,-384
	slli	a4,a4,3
	add	a5,a4,a5
	ld	a5,0(a5)
	.loc 1 1015 21
	sd	a5,-392(s0)
	.loc 1 1016 11
	li	a1,0
	li	a0,1
	call	UpdateStatusBar@plt
	.loc 1 1017 16
	ld	a5,-48(s0)
	addi	a5,a5,-1
	sd	a5,-48(s0)
	.loc 1 1018 17
	ld	a5,-40(s0)
	addi	a5,a5,-1
	sd	a5,-40(s0)
	.loc 1 1019 11
	lla	a2,.LC2
	ld	a1,-104(s0)
	ld	a0,-40(s0)
	call	PrintStringAt@plt
	.loc 1 1022 9
	j	.L237
.L141:
	.loc 1 1025 12
	lbu	a5,-57(s0)
	andi	a5,a5,0xff
	beq	a5,zero,.L239
	.loc 1 1026 14
	lbu	a5,-58(s0)
	andi	a5,a5,0xff
	beq	a5,zero,.L207
	.loc 1 1027 21
	lhu	a5,-422(s0)
	.loc 1 1027 16
	sext.w	a4,a5
	li	a5,47
	bleu	a4,a5,.L208
	.loc 1 1027 50 discriminator 1
	lhu	a5,-422(s0)
	.loc 1 1027 43 discriminator 1
	sext.w	a4,a5
	li	a5,57
	bgtu	a4,a5,.L208
	.loc 1 1028 36
	lhu	a5,-422(s0)
	.loc 1 1028 25
	andi	a5,a5,0xff
	.loc 1 1028 23
	addiw	a5,a5,-48
	sb	a5,-81(s0)
	j	.L212
.L208:
	.loc 1 1029 28
	lhu	a5,-422(s0)
	.loc 1 1029 23
	sext.w	a4,a5
	li	a5,64
	bleu	a4,a5,.L210
	.loc 1 1029 57 discriminator 1
	lhu	a5,-422(s0)
	.loc 1 1029 50 discriminator 1
	sext.w	a4,a5
	li	a5,70
	bgtu	a4,a5,.L210
	.loc 1 1030 36
	lhu	a5,-422(s0)
	.loc 1 1030 25
	andi	a5,a5,0xff
	.loc 1 1030 23
	addiw	a5,a5,-55
	sb	a5,-81(s0)
	j	.L212
.L210:
	.loc 1 1031 28
	lhu	a5,-422(s0)
	.loc 1 1031 23
	sext.w	a4,a5
	li	a5,96
	bleu	a4,a5,.L211
	.loc 1 1031 57 discriminator 1
	lhu	a5,-422(s0)
	.loc 1 1031 50 discriminator 1
	sext.w	a4,a5
	li	a5,102
	bgtu	a4,a5,.L211
	.loc 1 1032 36
	lhu	a5,-422(s0)
	.loc 1 1032 25
	andi	a5,a5,0xff
	.loc 1 1032 23
	addiw	a5,a5,-87
	sb	a5,-81(s0)
	j	.L212
.L211:
	.loc 1 1034 15
	li	a1,1
	li	a0,1
	call	UpdateStatusBar@plt
	.loc 1 1035 15
	j	.L148
.L207:
	.loc 1 1038 21
	lhu	a5,-422(s0)
	.loc 1 1038 16
	sext.w	a4,a5
	li	a5,57
	bgtu	a4,a5,.L213
	.loc 1 1038 49 discriminator 1
	lhu	a5,-422(s0)
	.loc 1 1038 42 discriminator 1
	sext.w	a4,a5
	li	a5,47
	bgtu	a4,a5,.L212
.L213:
	.loc 1 1039 15
	li	a1,1
	li	a0,1
	call	UpdateStatusBar@plt
	.loc 1 1040 15
	j	.L148
.L212:
	.loc 1 1047 14
	ld	a4,-48(s0)
	ld	a5,-72(s0)
	bgeu	a4,a5,.L240
	.loc 1 1054 14
	ld	a5,-48(s0)
	beq	a5,zero,.L215
	.loc 1 1055 16
	lbu	a5,-58(s0)
	andi	a5,a5,0xff
	beq	a5,zero,.L216
	.loc 1 1056 27
	ld	a5,-392(s0)
	li	a1,4
	mv	a0,a5
	call	LShiftU64@plt
	mv	a4,a0
	.loc 1 1056 52 discriminator 1
	lbu	a5,-81(s0)
	add	a5,a4,a5
	.loc 1 1056 25 discriminator 1
	sd	a5,-392(s0)
	j	.L219
.L216:
	.loc 1 1057 23
	lbu	a5,-59(s0)
	andi	a5,a5,0xff
	beq	a5,zero,.L218
	.loc 1 1057 33 discriminator 1
	lbu	a5,-60(s0)
	andi	a5,a5,0xff
	beq	a5,zero,.L218
	.loc 1 1061 29
	ld	a5,-392(s0)
	neg	a5,a5
	li	a1,10
	mv	a0,a5
	call	MultU64x32@plt
	mv	a4,a0
	.loc 1 1061 69 discriminator 1
	lhu	a5,-422(s0)
	sext.w	a5,a5
	.loc 1 1061 82 discriminator 1
	addiw	a5,a5,-48
	sext.w	a5,a5
	.loc 1 1061 63 discriminator 1
	add	a5,a4,a5
	.loc 1 1061 91 discriminator 1
	neg	a5,a5
	.loc 1 1061 25 discriminator 1
	sd	a5,-392(s0)
	.loc 1 1061 25 is_stmt 0
	j	.L219
.L218:
	.loc 1 1063 27 is_stmt 1
	ld	a5,-392(s0)
	li	a1,10
	mv	a0,a5
	call	MultU64x32@plt
	mv	a4,a0
	.loc 1 1063 60 discriminator 1
	lhu	a5,-422(s0)
	sext.w	a5,a5
	.loc 1 1063 73 discriminator 1
	addiw	a5,a5,-48
	sext.w	a5,a5
	.loc 1 1063 54 discriminator 1
	add	a5,a4,a5
	.loc 1 1063 25 discriminator 1
	sd	a5,-392(s0)
	j	.L219
.L215:
	.loc 1 1066 16
	lbu	a5,-58(s0)
	andi	a5,a5,0xff
	beq	a5,zero,.L220
	.loc 1 1067 25
	lbu	a5,-81(s0)
	sd	a5,-392(s0)
	j	.L219
.L220:
	.loc 1 1068 23
	lbu	a5,-59(s0)
	andi	a5,a5,0xff
	beq	a5,zero,.L221
	.loc 1 1068 33 discriminator 1
	lbu	a5,-60(s0)
	andi	a5,a5,0xff
	beq	a5,zero,.L221
	.loc 1 1072 32
	lhu	a5,-422(s0)
	sext.w	a5,a5
	.loc 1 1072 53
	li	a4,48
	subw	a5,a4,a5
	sext.w	a5,a5
	.loc 1 1072 25
	sd	a5,-392(s0)
	j	.L219
.L221:
	.loc 1 1074 30
	lhu	a5,-422(s0)
	sext.w	a5,a5
	.loc 1 1074 43
	addiw	a5,a5,-48
	sext.w	a5,a5
	.loc 1 1074 25
	sd	a5,-392(s0)
.L219:
	.loc 1 1078 14
	lbu	a5,-59(s0)
	andi	a5,a5,0xff
	beq	a5,zero,.L222
	.loc 1 1079 26
	sb	zero,-61(s0)
	.loc 1 1085 16
	lbu	a5,-60(s0)
	andi	a5,a5,0xff
	beq	a5,zero,.L223
	.loc 1 1086 30
	ld	a5,-392(s0)
	mv	a4,a5
	.loc 1 1086 49
	ld	a5,-408(s0)
	.loc 1 1086 84
	slt	a5,a4,a5
	andi	a5,a5,0xff
	.loc 1 1086 28
	sb	a5,-61(s0)
	j	.L224
.L223:
	.loc 1 1088 30
	ld	a5,-392(s0)
	mv	a4,a5
	.loc 1 1088 49
	ld	a5,-416(s0)
	.loc 1 1088 84
	sgt	a5,a4,a5
	andi	a5,a5,0xff
	.loc 1 1088 28
	sb	a5,-61(s0)
.L224:
	.loc 1 1091 16
	lbu	a5,-61(s0)
	andi	a5,a5,0xff
	beq	a5,zero,.L225
	.loc 1 1092 15
	li	a1,1
	li	a0,1
	call	UpdateStatusBar@plt
	.loc 1 1094 41
	ld	a4,-48(s0)
	addi	a5,s0,-384
	slli	a4,a4,3
	add	a5,a4,a5
	ld	a5,0(a5)
	.loc 1 1094 25
	sd	a5,-392(s0)
	.loc 1 1095 15
	j	.L148
.L222:
	.loc 1 1098 27
	ld	a4,-392(s0)
	ld	a5,-416(s0)
	.loc 1 1098 16
	bleu	a4,a5,.L225
	.loc 1 1099 15
	li	a1,1
	li	a0,1
	call	UpdateStatusBar@plt
	.loc 1 1101 41
	ld	a4,-48(s0)
	addi	a5,s0,-384
	slli	a4,a4,3
	add	a5,a4,a5
	ld	a5,0(a5)
	.loc 1 1101 25
	sd	a5,-392(s0)
	.loc 1 1102 15
	j	.L148
.L225:
	.loc 1 1106 11
	li	a1,0
	li	a0,1
	call	UpdateStatusBar@plt
	.loc 1 1108 16
	ld	a5,-48(s0)
	addi	a5,a5,1
	sd	a5,-48(s0)
	.loc 1 1110 33
	ld	a4,-392(s0)
	ld	a3,-48(s0)
	addi	a5,s0,-384
	slli	a3,a3,3
	add	a5,a3,a5
	sd	a4,0(a5)
	.loc 1 1112 14
	la	a5,gST
	ld	a5,0(a5)
	ld	a5,64(a5)
	.loc 1 1112 22
	ld	s1,40(a5)
	.loc 1 1112 41
	la	a5,gST
	ld	a5,0(a5)
	.loc 1 1112 11
	ld	s2,64(a5)
	.loc 1 1112 51
	call	GetHighlightTextColor@plt
	mv	a5,a0
	.loc 1 1112 11 discriminator 1
	mv	a1,a5
	mv	a0,s2
	jalr	s1
.LVL17:
	.loc 1 1113 11
	lhu	a5,-422(s0)
	mv	a2,a5
	ld	a1,-104(s0)
	ld	a0,-40(s0)
	call	PrintCharAt@plt
	.loc 1 1114 17
	ld	a5,-40(s0)
	addi	a5,a5,1
	sd	a5,-40(s0)
	.loc 1 1117 9
	j	.L239
.L231:
	.loc 1 770 15
	nop
	j	.L226
.L237:
	.loc 1 1022 9
	nop
	j	.L226
.L238:
	.loc 1 1009 13
	nop
	j	.L226
.L239:
	.loc 1 1117 9
	nop
	j	.L226
.L240:
	.loc 1 1048 13
	nop
.L148:
	.loc 1 751 21
	j	.L226
.L227:
	.loc 1 1120 1
	mv	a0,a5
	ld	ra,440(sp)
	.cfi_restore 1
	ld	s0,432(sp)
	.cfi_restore 8
	.cfi_def_cfa 2, 448
	ld	s1,424(sp)
	.cfi_restore 9
	ld	s2,416(sp)
	.cfi_restore 18
	addi	sp,sp,448
	.cfi_def_cfa_offset 0
	jr	ra
	.cfi_endproc
.LFE4:
	.size	GetNumericInput, .-GetNumericInput
	.section	.text.AdjustOptionOrder,"ax",@progbits
	.align	1
	.globl	AdjustOptionOrder
	.type	AdjustOptionOrder, @function
AdjustOptionOrder:
.LFB5:
	.loc 1 1137 1
	.cfi_startproc
	addi	sp,sp,-112
	.cfi_def_cfa_offset 112
	sd	ra,104(sp)
	sd	s0,96(sp)
	sd	s1,88(sp)
	.cfi_offset 1, -8
	.cfi_offset 8, -16
	.cfi_offset 9, -24
	addi	s0,sp,112
	.cfi_def_cfa 8, 0
	sd	a0,-104(s0)
	sd	a1,-112(s0)
	.loc 1 1146 24
	ld	a5,-104(s0)
	addi	a5,a5,104
	.loc 1 1146 10
	mv	a0,a5
	call	GetFirstNode@plt
	sd	a0,-56(s0)
	.loc 1 1147 19
	ld	a5,-56(s0)
	addi	a5,a5,-8
	.loc 1 1147 137
	ld	a4,0(a5)
	.loc 1 1147 222
	li	a5,1414549504
	addi	a5,a5,-175
	bne	a4,a5,.L242
	.loc 1 1147 15 discriminator 1
	ld	a5,-56(s0)
	addi	a5,a5,-8
	sd	a5,-48(s0)
	j	.L243
.L242:
	.loc 1 1147 15 is_stmt 0 discriminator 2
	sd	zero,-48(s0)
.L243:
	.loc 1 1148 14 is_stmt 1
	ld	a5,-104(s0)
	ld	a5,48(a5)
	sd	a5,-64(s0)
	.loc 1 1149 26
	ld	a5,-48(s0)
	ld	a5,24(a5)
	.loc 1 1149 13
	lbu	a5,5(a5)
	sb	a5,-65(s0)
	.loc 1 1150 13
	ld	a5,-104(s0)
	ld	a5,32(a5)
	sd	a5,-80(s0)
	.loc 1 1152 14
	sd	zero,-40(s0)
	.loc 1 1152 3
	j	.L244
.L247:
	.loc 1 1153 9
	lbu	a5,-65(s0)
	ld	a2,-40(s0)
	mv	a1,a5
	ld	a0,-64(s0)
	call	GetArrayData@plt
	mv	a5,a0
	.loc 1 1153 8 discriminator 1
	beq	a5,zero,.L254
	.loc 1 1152 58 discriminator 2
	ld	a5,-40(s0)
	addi	a5,a5,1
	sd	a5,-40(s0)
.L244:
	.loc 1 1152 36 discriminator 1
	ld	a5,-80(s0)
	lbu	a5,13(a5)
	mv	a4,a5
	.loc 1 1152 25 discriminator 1
	ld	a5,-40(s0)
	bltu	a5,a4,.L247
	j	.L246
.L254:
	.loc 1 1154 7
	nop
.L246:
	.loc 1 1158 19
	ld	a5,-112(s0)
	ld	a4,-40(s0)
	sd	a4,0(a5)
	.loc 1 1163 37
	ld	a5,-112(s0)
	ld	a4,0(a5)
	.loc 1 1163 53
	mv	a5,a4
	slli	a5,a5,2
	add	a5,a5,a4
	slli	a5,a5,3
	.loc 1 1163 19
	mv	a0,a5
	call	AllocateZeroPool@plt
	sd	a0,-88(s0)
	.loc 1 1166 14
	sd	zero,-40(s0)
	.loc 1 1166 3
	j	.L248
.L249:
	.loc 1 1167 18
	ld	a4,-40(s0)
	mv	a5,a4
	slli	a5,a5,2
	add	a5,a5,a4
	slli	a5,a5,3
	mv	a4,a5
	ld	a5,-88(s0)
	add	a5,a5,a4
	.loc 1 1167 31
	lbu	a4,-65(s0)
	sb	a4,0(a5)
	.loc 1 1168 18
	ld	a4,-40(s0)
	mv	a5,a4
	slli	a5,a5,2
	add	a5,a5,a4
	slli	a5,a5,3
	mv	a4,a5
	ld	a5,-88(s0)
	add	s1,a5,a4
	.loc 1 1168 38
	lbu	a5,-65(s0)
	ld	a2,-40(s0)
	mv	a1,a5
	ld	a0,-64(s0)
	call	GetArrayData@plt
	mv	a5,a0
	.loc 1 1168 36 discriminator 1
	slli	a4,a5,48
	srli	a4,a4,48
	lhu	a3,18(s1)
	andi	a3,a3,0
	or	a4,a3,a4
	sh	a4,18(s1)
	srli	a4,a5,16
	slli	a4,a4,48
	srli	a4,a4,48
	lhu	a3,20(s1)
	andi	a3,a3,0
	or	a4,a3,a4
	sh	a4,20(s1)
	srli	a4,a5,32
	slli	a4,a4,48
	srli	a4,a4,48
	lhu	a3,22(s1)
	andi	a3,a3,0
	or	a4,a3,a4
	sh	a4,22(s1)
	srli	a5,a5,48
	lhu	a4,24(s1)
	andi	a4,a4,0
	or	a5,a4,a5
	sh	a5,24(s1)
	.loc 1 1166 49 discriminator 3
	ld	a5,-40(s0)
	addi	a5,a5,1
	sd	a5,-40(s0)
.L248:
	.loc 1 1166 27 discriminator 1
	ld	a5,-112(s0)
	ld	a5,0(a5)
	.loc 1 1166 25 discriminator 1
	ld	a4,-40(s0)
	bltu	a4,a5,.L249
	.loc 1 1171 14
	sd	zero,-40(s0)
	.loc 1 1171 3
	j	.L250
.L253:
	.loc 1 1172 59
	ld	a5,-112(s0)
	ld	a4,0(a5)
	.loc 1 1172 75
	ld	a5,-40(s0)
	sub	a4,a4,a5
	.loc 1 1172 58
	mv	a5,a4
	slli	a5,a5,2
	add	a5,a5,a4
	slli	a5,a5,3
	addi	a5,a5,-40
	.loc 1 1172 19
	ld	a4,-88(s0)
	add	a5,a4,a5
	mv	a1,a5
	ld	a0,-104(s0)
	call	ValueToOption@plt
	sd	a0,-48(s0)
	.loc 1 1173 8
	ld	a5,-48(s0)
	bne	a5,zero,.L251
	.loc 1 1174 14
	li	a5,-1
	slli	a5,a5,63
	addi	a5,a5,14
	j	.L252
.L251:
	.loc 1 1177 22
	ld	a5,-48(s0)
	addi	a5,a5,8
	.loc 1 1177 5
	mv	a0,a5
	call	RemoveEntryList@plt
	.loc 1 1182 5
	ld	a5,-104(s0)
	addi	a4,a5,104
	ld	a5,-48(s0)
	addi	a5,a5,8
	mv	a1,a5
	mv	a0,a4
	call	InsertHeadList@plt
	.loc 1 1171 49 discriminator 2
	ld	a5,-40(s0)
	addi	a5,a5,1
	sd	a5,-40(s0)
.L250:
	.loc 1 1171 27 discriminator 1
	ld	a5,-112(s0)
	ld	a5,0(a5)
	.loc 1 1171 25 discriminator 1
	ld	a4,-40(s0)
	bltu	a4,a5,.L253
	.loc 1 1185 3
	ld	a0,-88(s0)
	call	FreePool@plt
	.loc 1 1187 10
	li	a5,0
.L252:
	.loc 1 1188 1
	mv	a0,a5
	ld	ra,104(sp)
	.cfi_restore 1
	ld	s0,96(sp)
	.cfi_restore 8
	.cfi_def_cfa 2, 112
	ld	s1,88(sp)
	.cfi_restore 9
	addi	sp,sp,112
	.cfi_def_cfa_offset 0
	jr	ra
	.cfi_endproc
.LFE5:
	.size	AdjustOptionOrder, .-AdjustOptionOrder
	.section	.text.IsValuesEqual,"ax",@progbits
	.align	1
	.globl	IsValuesEqual
	.type	IsValuesEqual, @function
IsValuesEqual:
.LFB6:
	.loc 1 1207 1
	.cfi_startproc
	addi	sp,sp,-48
	.cfi_def_cfa_offset 48
	sd	ra,40(sp)
	sd	s0,32(sp)
	.cfi_offset 1, -8
	.cfi_offset 8, -16
	addi	s0,sp,48
	.cfi_def_cfa 8, 0
	sd	a0,-24(s0)
	sd	a1,-32(s0)
	mv	a5,a2
	sb	a5,-33(s0)
	.loc 1 1208 3
	lbu	a5,-33(s0)
	sext.w	a5,a5
	li	a4,4
	beq	a5,a4,.L256
	li	a4,4
	bgt	a5,a4,.L257
	li	a4,3
	beq	a5,a4,.L258
	li	a4,3
	bgt	a5,a4,.L257
	li	a4,2
	beq	a5,a4,.L259
	li	a4,2
	bgt	a5,a4,.L257
	beq	a5,zero,.L256
	li	a4,1
	beq	a5,a4,.L260
	j	.L257
.L256:
	.loc 1 1211 30
	ld	a5,-24(s0)
	lbu	a4,0(a5)
	.loc 1 1211 44
	ld	a5,-32(s0)
	lbu	a5,0(a5)
	.loc 1 1211 14
	sext.w	a4,a4
	sext.w	a5,a5
	sub	a5,a4,a5
	seqz	a5,a5
	andi	a5,a5,0xff
	j	.L261
.L260:
	.loc 1 1214 30
	ld	a5,-24(s0)
	lbu	a4,0(a5)
	lbu	a5,1(a5)
	slli	a5,a5,8
	or	a5,a5,a4
	slli	a3,a5,48
	srli	a3,a3,48
	.loc 1 1214 45
	ld	a5,-32(s0)
	lbu	a4,0(a5)
	lbu	a5,1(a5)
	slli	a5,a5,8
	or	a5,a5,a4
	slli	a5,a5,48
	srli	a5,a5,48
	.loc 1 1214 14
	sext.w	a4,a3
	sext.w	a5,a5
	sub	a5,a4,a5
	seqz	a5,a5
	andi	a5,a5,0xff
	j	.L261
.L259:
	.loc 1 1217 30
	ld	a5,-24(s0)
	lbu	a4,0(a5)
	lbu	a3,1(a5)
	slli	a3,a3,8
	or	a4,a3,a4
	lbu	a3,2(a5)
	slli	a3,a3,16
	or	a4,a3,a4
	lbu	a5,3(a5)
	slli	a5,a5,24
	or	a5,a5,a4
	sext.w	a4,a5
	.loc 1 1217 45
	ld	a5,-32(s0)
	lbu	a3,0(a5)
	lbu	a2,1(a5)
	slli	a2,a2,8
	or	a3,a2,a3
	lbu	a2,2(a5)
	slli	a2,a2,16
	or	a3,a2,a3
	lbu	a5,3(a5)
	slli	a5,a5,24
	or	a5,a5,a3
	sext.w	a5,a5
	.loc 1 1217 14
	sub	a5,a4,a5
	seqz	a5,a5
	andi	a5,a5,0xff
	j	.L261
.L258:
	.loc 1 1220 30
	ld	a5,-24(s0)
	lbu	a4,0(a5)
	lbu	a3,1(a5)
	slli	a3,a3,8
	or	a4,a3,a4
	lbu	a3,2(a5)
	slli	a3,a3,16
	or	a4,a3,a4
	lbu	a3,3(a5)
	slli	a3,a3,24
	or	a4,a3,a4
	lbu	a3,4(a5)
	slli	a3,a3,32
	or	a4,a3,a4
	lbu	a3,5(a5)
	slli	a3,a3,40
	or	a4,a3,a4
	lbu	a3,6(a5)
	slli	a3,a3,48
	or	a4,a3,a4
	lbu	a5,7(a5)
	slli	a5,a5,56
	or	a5,a5,a4
	mv	a2,a5
	.loc 1 1220 45
	ld	a5,-32(s0)
	lbu	a4,0(a5)
	lbu	a3,1(a5)
	slli	a3,a3,8
	or	a4,a3,a4
	lbu	a3,2(a5)
	slli	a3,a3,16
	or	a4,a3,a4
	lbu	a3,3(a5)
	slli	a3,a3,24
	or	a4,a3,a4
	lbu	a3,4(a5)
	slli	a3,a3,32
	or	a4,a3,a4
	lbu	a3,5(a5)
	slli	a3,a3,40
	or	a4,a3,a4
	lbu	a3,6(a5)
	slli	a3,a3,48
	or	a4,a3,a4
	lbu	a5,7(a5)
	slli	a5,a5,56
	or	a5,a5,a4
	.loc 1 1220 14
	sub	a5,a2,a5
	seqz	a5,a5
	andi	a5,a5,0xff
	j	.L261
.L257:
	.loc 1 1224 14
	li	a5,0
.L261:
	.loc 1 1226 1
	mv	a0,a5
	ld	ra,40(sp)
	.cfi_restore 1
	ld	s0,32(sp)
	.cfi_restore 8
	.cfi_def_cfa 2, 48
	addi	sp,sp,48
	.cfi_def_cfa_offset 0
	jr	ra
	.cfi_endproc
.LFE6:
	.size	IsValuesEqual, .-IsValuesEqual
	.section	.text.SetValuesByType,"ax",@progbits
	.align	1
	.globl	SetValuesByType
	.type	SetValuesByType, @function
SetValuesByType:
.LFB7:
	.loc 1 1242 1
	.cfi_startproc
	addi	sp,sp,-48
	.cfi_def_cfa_offset 48
	sd	ra,40(sp)
	sd	s0,32(sp)
	.cfi_offset 1, -8
	.cfi_offset 8, -16
	addi	s0,sp,48
	.cfi_def_cfa 8, 0
	sd	a0,-24(s0)
	sd	a1,-32(s0)
	mv	a5,a2
	sb	a5,-33(s0)
	.loc 1 1243 3
	lbu	a5,-33(s0)
	sext.w	a5,a5
	li	a4,4
	beq	a5,a4,.L263
	li	a4,4
	bgt	a5,a4,.L270
	li	a4,3
	beq	a5,a4,.L265
	li	a4,3
	bgt	a5,a4,.L270
	li	a4,2
	beq	a5,a4,.L266
	li	a4,2
	bgt	a5,a4,.L270
	beq	a5,zero,.L267
	li	a4,1
	beq	a5,a4,.L268
	.loc 1 1266 7
	j	.L270
.L263:
	.loc 1 1245 23
	ld	a5,-32(s0)
	lbu	a4,0(a5)
	.loc 1 1245 15
	ld	a5,-24(s0)
	sb	a4,0(a5)
	.loc 1 1246 7
	j	.L269
.L267:
	.loc 1 1249 24
	ld	a5,-32(s0)
	lbu	a4,0(a5)
	.loc 1 1249 16
	ld	a5,-24(s0)
	sb	a4,0(a5)
	.loc 1 1250 7
	j	.L269
.L268:
	.loc 1 1253 25
	ld	a5,-32(s0)
	lbu	a4,0(a5)
	lbu	a5,1(a5)
	slli	a5,a5,8
	or	a5,a5,a4
	slli	a4,a5,48
	srli	a4,a4,48
	.loc 1 1253 17
	ld	a5,-24(s0)
	andi	a3,a4,255
	lbu	a2,0(a5)
	andi	a2,a2,0
	or	a3,a2,a3
	sb	a3,0(a5)
	srliw	a4,a4,8
	slli	a4,a4,48
	srli	a4,a4,48
	lbu	a3,1(a5)
	andi	a3,a3,0
	or	a4,a3,a4
	sb	a4,1(a5)
	.loc 1 1254 7
	j	.L269
.L266:
	.loc 1 1257 25
	ld	a5,-32(s0)
	lbu	a4,0(a5)
	lbu	a3,1(a5)
	slli	a3,a3,8
	or	a4,a3,a4
	lbu	a3,2(a5)
	slli	a3,a3,16
	or	a4,a3,a4
	lbu	a5,3(a5)
	slli	a5,a5,24
	or	a5,a5,a4
	sext.w	a4,a5
	.loc 1 1257 17
	ld	a5,-24(s0)
	slli	a3,a4,32
	srli	a3,a3,32
	andi	a3,a3,255
	lbu	a2,0(a5)
	andi	a2,a2,0
	or	a3,a2,a3
	sb	a3,0(a5)
	srliw	a3,a4,8
	slli	a3,a3,32
	srli	a3,a3,32
	andi	a3,a3,255
	lbu	a2,1(a5)
	andi	a2,a2,0
	or	a3,a2,a3
	sb	a3,1(a5)
	srliw	a3,a4,16
	slli	a3,a3,32
	srli	a3,a3,32
	andi	a3,a3,255
	lbu	a2,2(a5)
	andi	a2,a2,0
	or	a3,a2,a3
	sb	a3,2(a5)
	srliw	a4,a4,24
	slli	a4,a4,32
	srli	a4,a4,32
	lbu	a3,3(a5)
	andi	a3,a3,0
	or	a4,a3,a4
	sb	a4,3(a5)
	.loc 1 1258 7
	j	.L269
.L265:
	.loc 1 1261 25
	ld	a5,-32(s0)
	lbu	a4,0(a5)
	lbu	a3,1(a5)
	slli	a3,a3,8
	or	a4,a3,a4
	lbu	a3,2(a5)
	slli	a3,a3,16
	or	a4,a3,a4
	lbu	a3,3(a5)
	slli	a3,a3,24
	or	a4,a3,a4
	lbu	a3,4(a5)
	slli	a3,a3,32
	or	a4,a3,a4
	lbu	a3,5(a5)
	slli	a3,a3,40
	or	a4,a3,a4
	lbu	a3,6(a5)
	slli	a3,a3,48
	or	a4,a3,a4
	lbu	a5,7(a5)
	slli	a5,a5,56
	or	a5,a5,a4
	mv	a4,a5
	.loc 1 1261 17
	ld	a5,-24(s0)
	andi	a3,a4,255
	lbu	a2,0(a5)
	andi	a2,a2,0
	or	a3,a2,a3
	sb	a3,0(a5)
	srli	a3,a4,8
	andi	a3,a3,255
	lbu	a2,1(a5)
	andi	a2,a2,0
	or	a3,a2,a3
	sb	a3,1(a5)
	srli	a3,a4,16
	andi	a3,a3,255
	lbu	a2,2(a5)
	andi	a2,a2,0
	or	a3,a2,a3
	sb	a3,2(a5)
	srli	a3,a4,24
	andi	a3,a3,255
	lbu	a2,3(a5)
	andi	a2,a2,0
	or	a3,a2,a3
	sb	a3,3(a5)
	srli	a3,a4,32
	andi	a3,a3,255
	lbu	a2,4(a5)
	andi	a2,a2,0
	or	a3,a2,a3
	sb	a3,4(a5)
	srli	a3,a4,40
	andi	a3,a3,255
	lbu	a2,5(a5)
	andi	a2,a2,0
	or	a3,a2,a3
	sb	a3,5(a5)
	srli	a3,a4,48
	andi	a3,a3,255
	lbu	a2,6(a5)
	andi	a2,a2,0
	or	a3,a2,a3
	sb	a3,6(a5)
	srli	a4,a4,56
	lbu	a3,7(a5)
	andi	a3,a3,0
	or	a4,a3,a4
	sb	a4,7(a5)
	.loc 1 1262 7
	j	.L269
.L270:
	.loc 1 1266 7
	nop
.L269:
	.loc 1 1268 1
	nop
	ld	ra,40(sp)
	.cfi_restore 1
	ld	s0,32(sp)
	.cfi_restore 8
	.cfi_def_cfa 2, 48
	addi	sp,sp,48
	.cfi_def_cfa_offset 0
	jr	ra
	.cfi_endproc
.LFE7:
	.size	SetValuesByType, .-SetValuesByType
	.section	.rodata
	.align	3
.LC3:
	.string	"."
	.string	"."
	.string	"."
	.zero	2
	.section	.text.GetSelectionInputPopUp,"ax",@progbits
	.align	1
	.globl	GetSelectionInputPopUp
	.type	GetSelectionInputPopUp, @function
GetSelectionInputPopUp:
.LFB8:
	.loc 1 1283 1
	.cfi_startproc
	addi	sp,sp,-304
	.cfi_def_cfa_offset 304
	sd	ra,296(sp)
	sd	s0,288(sp)
	sd	s1,280(sp)
	sd	s2,272(sp)
	.cfi_offset 1, -8
	.cfi_offset 8, -16
	.cfi_offset 9, -24
	.cfi_offset 18, -32
	addi	s0,sp,304
	.cfi_def_cfa 8, 0
	sd	a0,-296(s0)
	.loc 1 1315 41
	la	a5,gStatementDimensions
	ld	a4,8(a5)
	.loc 1 1315 76
	la	a5,gStatementDimensions
	ld	a5,0(a5)
	.loc 1 1315 19
	sub	a5,a4,a5
	sd	a5,-168(s0)
	.loc 1 1317 14
	sd	zero,-128(s0)
	.loc 1 1318 13
	sb	zero,-129(s0)
	.loc 1 1319 17
	sd	zero,-152(s0)
	.loc 1 1320 17
	sb	zero,-99(s0)
	.loc 1 1321 15
	sb	zero,-100(s0)
	.loc 1 1323 3
	addi	a5,s0,-280
	li	a1,40
	mv	a0,a5
	call	ZeroMem@plt
	.loc 1 1325 12
	ld	a5,-296(s0)
	ld	a5,32(a5)
	sd	a5,-176(s0)
	.loc 1 1326 15
	ld	a5,-176(s0)
	ld	a5,32(a5)
	.loc 1 1326 23
	lbu	a5,0(a5)
	.loc 1 1326 6
	mv	a4,a5
	li	a5,35
	bne	a4,a5,.L272
	.loc 1 1327 26
	ld	a5,-176(s0)
	addi	a5,a5,104
	.loc 1 1327 12
	mv	a0,a5
	call	GetFirstNode@plt
	sd	a0,-112(s0)
	.loc 1 1328 21
	ld	a5,-112(s0)
	addi	a5,a5,-8
	.loc 1 1328 139
	ld	a4,0(a5)
	.loc 1 1328 224
	li	a5,1414549504
	addi	a5,a5,-175
	bne	a4,a5,.L273
	.loc 1 1328 17 discriminator 1
	ld	a5,-112(s0)
	addi	a5,a5,-8
	sd	a5,-144(s0)
	j	.L274
.L273:
	.loc 1 1328 17 is_stmt 0 discriminator 2
	sd	zero,-144(s0)
.L274:
	.loc 1 1329 16 is_stmt 1
	ld	a5,-176(s0)
	ld	a5,48(a5)
	sd	a5,-128(s0)
	.loc 1 1330 28
	ld	a5,-144(s0)
	ld	a5,24(a5)
	.loc 1 1330 15
	lbu	a5,5(a5)
	sb	a5,-129(s0)
	.loc 1 1331 17
	li	a5,1
	sb	a5,-113(s0)
	.loc 1 1332 15
	ld	a5,-176(s0)
	ld	a5,32(a5)
	sd	a5,-160(s0)
	j	.L275
.L272:
	.loc 1 1334 17
	sb	zero,-113(s0)
	.loc 1 1335 15
	sd	zero,-160(s0)
.L275:
	.loc 1 1341 18
	sd	zero,-240(s0)
	.loc 1 1342 6
	lbu	a5,-113(s0)
	andi	a5,a5,0xff
	beq	a5,zero,.L276
	.loc 1 1343 5
	addi	a5,s0,-240
	mv	a1,a5
	ld	a0,-176(s0)
	call	AdjustOptionOrder
	j	.L277
.L276:
	.loc 1 1345 26
	ld	a5,-176(s0)
	addi	a5,a5,104
	.loc 1 1345 12
	mv	a0,a5
	call	GetFirstNode@plt
	sd	a0,-112(s0)
	.loc 1 1346 11
	j	.L278
.L281:
	.loc 1 1347 23
	ld	a5,-112(s0)
	addi	a5,a5,-8
	.loc 1 1347 141
	ld	a4,0(a5)
	.loc 1 1347 226
	li	a5,1414549504
	addi	a5,a5,-175
	bne	a4,a5,.L279
	.loc 1 1347 19 discriminator 1
	ld	a5,-112(s0)
	addi	a5,a5,-8
	sd	a5,-144(s0)
	j	.L280
.L279:
	.loc 1 1347 19 is_stmt 0 discriminator 2
	sd	zero,-144(s0)
.L280:
	.loc 1 1348 21 is_stmt 1
	ld	a5,-240(s0)
	addi	a5,a5,1
	sd	a5,-240(s0)
	.loc 1 1349 27
	ld	a5,-176(s0)
	addi	a5,a5,104
	.loc 1 1349 14
	ld	a1,-112(s0)
	mv	a0,a5
	call	GetNextNode@plt
	sd	a0,-112(s0)
.L278:
	.loc 1 1346 21
	ld	a5,-176(s0)
	addi	a5,a5,104
	.loc 1 1346 13
	ld	a1,-112(s0)
	mv	a0,a5
	call	IsNull@plt
	mv	a5,a0
	.loc 1 1346 12 discriminator 1
	beq	a5,zero,.L281
.L277:
	.loc 1 1356 14
	sd	zero,-96(s0)
	.loc 1 1357 24
	sd	zero,-72(s0)
	.loc 1 1358 24
	ld	a5,-176(s0)
	addi	a5,a5,104
	.loc 1 1358 10
	mv	a0,a5
	call	GetFirstNode@plt
	sd	a0,-112(s0)
	.loc 1 1359 14
	sd	zero,-40(s0)
	.loc 1 1359 3
	j	.L282
.L287:
	.loc 1 1360 21
	ld	a5,-112(s0)
	addi	a5,a5,-8
	.loc 1 1360 139
	ld	a4,0(a5)
	.loc 1 1360 224
	li	a5,1414549504
	addi	a5,a5,-175
	bne	a4,a5,.L283
	.loc 1 1360 17 discriminator 1
	ld	a5,-112(s0)
	addi	a5,a5,-8
	sd	a5,-144(s0)
	j	.L284
.L283:
	.loc 1 1360 17 is_stmt 0 discriminator 2
	sd	zero,-144(s0)
.L284:
	.loc 1 1362 38 is_stmt 1
	ld	a5,-144(s0)
	ld	a5,24(a5)
	.loc 1 1362 17
	lbu	a4,2(a5)
	lbu	a5,3(a5)
	slli	a5,a5,8
	or	a5,a5,a4
	slli	a4,a5,48
	srli	a4,a4,48
	.loc 1 1362 71
	la	a5,gFormData
	ld	a5,0(a5)
	.loc 1 1362 17
	ld	a5,72(a5)
	mv	a1,a5
	mv	a0,a4
	call	GetToken@plt
	sd	a0,-48(s0)
	.loc 1 1363 9
	ld	a0,-48(s0)
	call	StrLen@plt
	mv	a4,a0
	.loc 1 1363 8 discriminator 1
	ld	a5,-96(s0)
	bgeu	a5,a4,.L285
	.loc 1 1364 20
	ld	a0,-48(s0)
	call	StrLen@plt
	sd	a0,-96(s0)
.L285:
	.loc 1 1367 5
	ld	a0,-48(s0)
	call	FreePool@plt
	.loc 1 1368 32
	ld	a5,-144(s0)
	ld	a5,24(a5)
	.loc 1 1368 46
	lbu	a5,5(a5)
	.loc 1 1368 19
	sb	a5,-280(s0)
	.loc 1 1369 51
	ld	a5,-144(s0)
	ld	a5,24(a5)
	.loc 1 1369 5
	addi	a4,a5,6
	lbu	a3,-280(s0)
	addi	a5,s0,-280
	addi	a5,a5,18
	mv	a2,a3
	mv	a1,a4
	mv	a0,a5
	call	SetValuesByType
	.loc 1 1370 8
	lbu	a5,-113(s0)
	andi	a5,a5,0xff
	bne	a5,zero,.L286
	.loc 1 1370 26 discriminator 1
	ld	a5,-176(s0)
	addi	a5,a5,40
	addi	a2,s0,-288
	addi	a4,s0,-280
	li	a3,0
	mv	a1,a4
	mv	a0,a5
	call	CompareHiiValue@plt
	mv	a5,a0
	.loc 1 1370 22 discriminator 2
	bne	a5,zero,.L286
	.loc 1 1370 136 discriminator 3
	ld	a5,-288(s0)
	.loc 1 1370 125 discriminator 3
	bne	a5,zero,.L286
	.loc 1 1374 28
	ld	a5,-40(s0)
	sd	a5,-72(s0)
.L286:
	.loc 1 1377 25
	ld	a5,-176(s0)
	addi	a5,a5,104
	.loc 1 1377 12
	ld	a1,-112(s0)
	mv	a0,a5
	call	GetNextNode@plt
	sd	a0,-112(s0)
	.loc 1 1359 48 discriminator 2
	ld	a5,-40(s0)
	addi	a5,a5,1
	sd	a5,-40(s0)
.L282:
	.loc 1 1359 25 discriminator 1
	ld	a5,-240(s0)
	ld	a4,-40(s0)
	bltu	a4,a5,.L287
	.loc 1 1383 14
	ld	a5,-96(s0)
	addi	a5,a5,5
	sd	a5,-96(s0)
	.loc 1 1385 23
	la	a5,gST
	ld	a5,0(a5)
	ld	a5,64(a5)
	.loc 1 1385 31
	ld	a5,72(a5)
	.loc 1 1385 18
	lw	a5,8(a5)
	sw	a5,-180(s0)
	.loc 1 1386 6
	la	a5,gST
	ld	a5,0(a5)
	ld	a5,64(a5)
	.loc 1 1386 14
	ld	s1,40(a5)
	.loc 1 1386 33
	la	a5,gST
	ld	a5,0(a5)
	.loc 1 1386 3
	ld	s2,64(a5)
	.loc 1 1386 43
	call	GetPopupColor@plt
	mv	a5,a0
	.loc 1 1386 3 discriminator 1
	mv	a1,a5
	mv	a0,s2
	jalr	s1
.LVL18:
	.loc 1 1388 19
	ld	a5,-96(s0)
	addi	a5,a5,2
	.loc 1 1388 6
	ld	a4,-168(s0)
	bgeu	a4,a5,.L288
	.loc 1 1389 16
	ld	a5,-168(s0)
	addi	a5,a5,-2
	sd	a5,-96(s0)
.L288:
	.loc 1 1392 28
	ld	a4,-168(s0)
	ld	a5,-96(s0)
	sub	a5,a4,a5
	.loc 1 1392 41
	addi	a5,a5,-2
	.loc 1 1392 46
	srli	a4,a5,1
	.loc 1 1392 72
	la	a5,gStatementDimensions
	ld	a5,0(a5)
	.loc 1 1392 9
	add	a5,a4,a5
	sd	a5,-192(s0)
	.loc 1 1393 15
	ld	a4,-192(s0)
	ld	a5,-96(s0)
	add	a5,a4,a5
	.loc 1 1393 7
	addi	a5,a5,2
	sd	a5,-200(s0)
	.loc 1 1394 7
	la	a5,gStatementDimensions
	ld	a5,16(a5)
	sd	a5,-80(s0)
	.loc 1 1395 32
	la	a5,gStatementDimensions
	ld	a5,24(a5)
	.loc 1 1395 10
	addi	a5,a5,-1
	sd	a5,-88(s0)
	.loc 1 1397 28
	ld	a4,-88(s0)
	ld	a5,-80(s0)
	sub	a5,a4,a5
	.loc 1 1397 19
	addi	a5,a5,-1
	sd	a5,-208(s0)
	.loc 1 1398 23
	ld	a5,-240(s0)
	.loc 1 1398 6
	ld	a4,-208(s0)
	bltu	a4,a5,.L289
	.loc 1 1399 34
	ld	a5,-240(s0)
	ld	a4,-208(s0)
	sub	a5,a4,a5
	.loc 1 1399 52
	srli	a5,a5,1
	.loc 1 1399 9
	ld	a4,-80(s0)
	add	a5,a4,a5
	sd	a5,-80(s0)
	.loc 1 1400 18
	ld	a4,-240(s0)
	ld	a5,-80(s0)
	add	a5,a4,a5
	.loc 1 1400 12
	addi	a5,a5,1
	sd	a5,-88(s0)
	j	.L290
.L289:
	.loc 1 1402 19
	li	a5,1
	sb	a5,-99(s0)
.L290:
	.loc 1 1405 47
	ld	a5,-208(s0)
	addi	a5,a5,-1
	.loc 1 1405 6
	ld	a4,-72(s0)
	bleu	a4,a5,.L291
	.loc 1 1406 43
	ld	a4,-72(s0)
	ld	a5,-208(s0)
	sub	a5,a4,a5
	.loc 1 1406 20
	addi	a5,a5,1
	sd	a5,-64(s0)
	j	.L362
.L291:
	.loc 1 1408 20
	sd	zero,-64(s0)
.L362:
	.loc 1 1415 42
	call	GetPopupColor@plt
	mv	a5,a0
	.loc 1 1415 5 discriminator 1
	mv	a4,a5
	ld	a3,-88(s0)
	ld	a2,-80(s0)
	ld	a1,-200(s0)
	ld	a0,-192(s0)
	call	ClearLines@plt
	.loc 1 1420 15
	li	a5,8192
	addi	a5,a5,1292
	sh	a5,-98(s0)
	.loc 1 1421 5
	lhu	a5,-98(s0)
	mv	a2,a5
	ld	a1,-80(s0)
	ld	a0,-192(s0)
	call	PrintCharAt@plt
	.loc 1 1422 16
	ld	a5,-192(s0)
	sd	a5,-40(s0)
	.loc 1 1422 5
	j	.L293
.L296:
	.loc 1 1423 10
	lbu	a5,-100(s0)
	andi	a5,a5,0xff
	beq	a5,zero,.L294
	.loc 1 1423 36 discriminator 1
	ld	a5,-40(s0)
	addi	a4,a5,1
	.loc 1 1423 51 discriminator 1
	ld	a3,-192(s0)
	ld	a5,-200(s0)
	add	a5,a3,a5
	.loc 1 1423 58 discriminator 1
	srli	a5,a5,1
	.loc 1 1423 25 discriminator 1
	bne	a4,a5,.L294
	.loc 1 1424 19
	li	a5,8192
	addi	a5,a5,1458
	sh	a5,-98(s0)
	j	.L295
.L294:
	.loc 1 1426 19
	li	a5,8192
	addi	a5,a5,1280
	sh	a5,-98(s0)
.L295:
	.loc 1 1429 7
	lhu	a5,-98(s0)
	mv	a2,a5
	li	a1,-1
	li	a0,-1
	call	PrintCharAt@plt
	.loc 1 1422 47 discriminator 2
	ld	a5,-40(s0)
	addi	a5,a5,1
	sd	a5,-40(s0)
.L293:
	.loc 1 1422 31 discriminator 1
	ld	a5,-40(s0)
	addi	a5,a5,2
	.loc 1 1422 35 discriminator 1
	ld	a4,-200(s0)
	bgtu	a4,a5,.L296
	.loc 1 1432 15
	li	a5,8192
	addi	a5,a5,1296
	sh	a5,-98(s0)
	.loc 1 1433 5
	lhu	a5,-98(s0)
	mv	a2,a5
	li	a1,-1
	li	a0,-1
	call	PrintCharAt@plt
	.loc 1 1434 15
	li	a5,8192
	addi	a5,a5,1282
	sh	a5,-98(s0)
	.loc 1 1435 16
	ld	a5,-80(s0)
	addi	a5,a5,1
	sd	a5,-40(s0)
	.loc 1 1435 5
	j	.L297
.L298:
	.loc 1 1436 7
	lhu	a5,-98(s0)
	mv	a2,a5
	ld	a1,-40(s0)
	ld	a0,-192(s0)
	call	PrintCharAt@plt
	.loc 1 1437 7
	ld	a5,-200(s0)
	addi	a5,a5,-1
	lhu	a4,-98(s0)
	mv	a2,a4
	ld	a1,-40(s0)
	mv	a0,a5
	call	PrintCharAt@plt
	.loc 1 1435 48 discriminator 3
	ld	a5,-40(s0)
	addi	a5,a5,1
	sd	a5,-40(s0)
.L297:
	.loc 1 1435 33 discriminator 1
	ld	a4,-40(s0)
	ld	a5,-88(s0)
	bltu	a4,a5,.L298
	.loc 1 1443 26
	ld	a5,-176(s0)
	addi	a5,a5,104
	.loc 1 1443 12
	mv	a0,a5
	call	GetFirstNode@plt
	sd	a0,-112(s0)
	.loc 1 1444 16
	sd	zero,-40(s0)
	.loc 1 1444 5
	j	.L299
.L300:
	.loc 1 1445 27
	ld	a5,-176(s0)
	addi	a5,a5,104
	.loc 1 1445 14
	ld	a1,-112(s0)
	mv	a0,a5
	call	GetNextNode@plt
	sd	a0,-112(s0)
	.loc 1 1444 50 discriminator 3
	ld	a5,-40(s0)
	addi	a5,a5,1
	sd	a5,-40(s0)
.L299:
	.loc 1 1444 27 discriminator 1
	ld	a4,-40(s0)
	ld	a5,-64(s0)
	bltu	a4,a5,.L300
	.loc 1 1451 12
	ld	a5,-80(s0)
	addi	a5,a5,1
	sd	a5,-56(s0)
	.loc 1 1452 16
	ld	a5,-64(s0)
	sd	a5,-40(s0)
	.loc 1 1452 5
	j	.L301
.L308:
	.loc 1 1453 23
	ld	a5,-112(s0)
	addi	a5,a5,-8
	.loc 1 1453 141
	ld	a4,0(a5)
	.loc 1 1453 226
	li	a5,1414549504
	addi	a5,a5,-175
	bne	a4,a5,.L302
	.loc 1 1453 19 discriminator 1
	ld	a5,-112(s0)
	addi	a5,a5,-8
	sd	a5,-144(s0)
	j	.L303
.L302:
	.loc 1 1453 19 is_stmt 0 discriminator 2
	sd	zero,-144(s0)
.L303:
	.loc 1 1454 27 is_stmt 1
	ld	a5,-176(s0)
	addi	a5,a5,104
	.loc 1 1454 14
	ld	a1,-112(s0)
	mv	a0,a5
	call	GetNextNode@plt
	sd	a0,-112(s0)
	.loc 1 1456 40
	ld	a5,-144(s0)
	ld	a5,24(a5)
	.loc 1 1456 19
	lbu	a4,2(a5)
	lbu	a5,3(a5)
	slli	a5,a5,8
	or	a5,a5,a4
	slli	a4,a5,48
	srli	a4,a4,48
	.loc 1 1456 73
	la	a5,gFormData
	ld	a5,0(a5)
	.loc 1 1456 19
	ld	a5,72(a5)
	mv	a1,a5
	mv	a0,a4
	call	GetToken@plt
	sd	a0,-48(s0)
	.loc 1 1462 11
	ld	a0,-48(s0)
	call	StrLen@plt
	mv	a4,a0
	.loc 1 1462 44 discriminator 1
	ld	a5,-96(s0)
	addi	a5,a5,-1
	.loc 1 1462 10 discriminator 1
	bleu	a4,a5,.L304
	.loc 1 1463 73
	ld	a5,-96(s0)
	addi	a5,a5,-1
	.loc 1 1463 59
	slli	a5,a5,1
	.loc 1 1463 25
	mv	a0,a5
	call	AllocateZeroPool@plt
	sd	a0,-216(s0)
	.loc 1 1465 75
	ld	a5,-96(s0)
	addi	a5,a5,-5
	.loc 1 1465 61
	slli	a5,a5,1
	.loc 1 1465 9
	mv	a2,a5
	ld	a1,-48(s0)
	ld	a0,-216(s0)
	call	CopyMem@plt
	.loc 1 1466 9
	ld	a0,-48(s0)
	call	FreePool@plt
	.loc 1 1467 19
	ld	a5,-216(s0)
	sd	a5,-48(s0)
	.loc 1 1468 9
	ld	a5,-96(s0)
	addi	a5,a5,-1
	lla	a2,.LC3
	mv	a1,a5
	ld	a0,-48(s0)
	call	StrCatS@plt
.L304:
	.loc 1 1471 10
	ld	a4,-40(s0)
	ld	a5,-72(s0)
	bne	a4,a5,.L305
	.loc 1 1475 23
	ld	a5,-144(s0)
	sd	a5,-152(s0)
	.loc 1 1477 12
	la	a5,gST
	ld	a5,0(a5)
	ld	a5,64(a5)
	.loc 1 1477 20
	ld	s1,40(a5)
	.loc 1 1477 39
	la	a5,gST
	ld	a5,0(a5)
	.loc 1 1477 9
	ld	s2,64(a5)
	.loc 1 1477 49
	call	GetPickListColor@plt
	mv	a5,a0
	.loc 1 1477 9 discriminator 1
	mv	a1,a5
	mv	a0,s2
	jalr	s1
.LVL19:
	.loc 1 1478 9
	ld	a5,-192(s0)
	addi	a5,a5,2
	ld	a2,-48(s0)
	ld	a1,-56(s0)
	mv	a0,a5
	call	PrintStringAt@plt
	.loc 1 1479 12
	la	a5,gST
	ld	a5,0(a5)
	ld	a5,64(a5)
	.loc 1 1479 20
	ld	s1,40(a5)
	.loc 1 1479 39
	la	a5,gST
	ld	a5,0(a5)
	.loc 1 1479 9
	ld	s2,64(a5)
	.loc 1 1479 49
	call	GetPopupColor@plt
	mv	a5,a0
	.loc 1 1479 9 discriminator 1
	mv	a1,a5
	mv	a0,s2
	jalr	s1
.LVL20:
	j	.L306
.L305:
	.loc 1 1481 12
	la	a5,gST
	ld	a5,0(a5)
	ld	a5,64(a5)
	.loc 1 1481 20
	ld	s1,40(a5)
	.loc 1 1481 39
	la	a5,gST
	ld	a5,0(a5)
	.loc 1 1481 9
	ld	s2,64(a5)
	.loc 1 1481 49
	call	GetPopupColor@plt
	mv	a5,a0
	.loc 1 1481 9 discriminator 1
	mv	a1,a5
	mv	a0,s2
	jalr	s1
.LVL21:
	.loc 1 1482 9
	ld	a5,-192(s0)
	addi	a5,a5,2
	ld	a2,-48(s0)
	ld	a1,-56(s0)
	mv	a0,a5
	call	PrintStringAt@plt
.L306:
	.loc 1 1485 13
	ld	a5,-56(s0)
	addi	a5,a5,1
	sd	a5,-56(s0)
	.loc 1 1486 7
	ld	a0,-48(s0)
	call	FreePool@plt
	.loc 1 1452 86 discriminator 2
	ld	a5,-40(s0)
	addi	a5,a5,1
	sd	a5,-40(s0)
.L301:
	.loc 1 1452 41 discriminator 1
	ld	a5,-240(s0)
	.loc 1 1452 59 discriminator 1
	ld	a4,-40(s0)
	bgeu	a4,a5,.L307
	.loc 1 1452 59 is_stmt 0 discriminator 3
	ld	a4,-56(s0)
	ld	a5,-88(s0)
	bltu	a4,a5,.L308
.L307:
	.loc 1 1489 15 is_stmt 1
	li	a5,8192
	addi	a5,a5,1300
	sh	a5,-98(s0)
	.loc 1 1490 5
	lhu	a5,-98(s0)
	mv	a2,a5
	ld	a1,-88(s0)
	ld	a0,-192(s0)
	call	PrintCharAt@plt
	.loc 1 1491 16
	ld	a5,-192(s0)
	sd	a5,-40(s0)
	.loc 1 1491 5
	j	.L309
.L312:
	.loc 1 1492 10
	lbu	a5,-99(s0)
	andi	a5,a5,0xff
	beq	a5,zero,.L310
	.loc 1 1492 38 discriminator 1
	ld	a5,-40(s0)
	addi	a4,a5,1
	.loc 1 1492 53 discriminator 1
	ld	a3,-192(s0)
	ld	a5,-200(s0)
	add	a5,a3,a5
	.loc 1 1492 60 discriminator 1
	srli	a5,a5,1
	.loc 1 1492 27 discriminator 1
	bne	a4,a5,.L310
	.loc 1 1493 19
	li	a5,8192
	addi	a5,a5,1468
	sh	a5,-98(s0)
	j	.L311
.L310:
	.loc 1 1495 19
	li	a5,8192
	addi	a5,a5,1280
	sh	a5,-98(s0)
.L311:
	.loc 1 1498 7
	lhu	a5,-98(s0)
	mv	a2,a5
	li	a1,-1
	li	a0,-1
	call	PrintCharAt@plt
	.loc 1 1491 47 discriminator 2
	ld	a5,-40(s0)
	addi	a5,a5,1
	sd	a5,-40(s0)
.L309:
	.loc 1 1491 31 discriminator 1
	ld	a5,-40(s0)
	addi	a5,a5,2
	.loc 1 1491 35 discriminator 1
	ld	a4,-200(s0)
	bgtu	a4,a5,.L312
	.loc 1 1501 15
	li	a5,8192
	addi	a5,a5,1304
	sh	a5,-98(s0)
	.loc 1 1502 5
	lhu	a5,-98(s0)
	mv	a2,a5
	li	a1,-1
	li	a0,-1
	call	PrintCharAt@plt
	.loc 1 1507 21
	sh	zero,-230(s0)
	.loc 1 1508 21
	la	a5,gDirection
	lhu	a5,0(a5)
	.loc 1 1508 8
	sext.w	a4,a5
	li	a5,1
	beq	a4,a5,.L313
	.loc 1 1508 47 discriminator 1
	la	a5,gDirection
	lhu	a5,0(a5)
	.loc 1 1508 32 discriminator 1
	sext.w	a4,a5
	li	a5,2
	bne	a4,a5,.L314
.L313:
	.loc 1 1509 20
	la	a5,gDirection
	lhu	a5,0(a5)
	sh	a5,-232(s0)
	.loc 1 1510 18
	la	a5,gDirection
	sh	zero,0(a5)
	.loc 1 1511 7
	j	.L315
.L314:
	.loc 1 1514 5
	addi	a5,s0,-232
	mv	a0,a5
	call	WaitForKeyStroke@plt
.L315:
	.loc 1 1517 16
	lhu	a5,-230(s0)
	sext.w	a5,a5
	.loc 1 1517 5
	li	a4,118
	beq	a5,a4,.L316
	li	a4,118
	bgt	a5,a4,.L364
	li	a4,94
	beq	a5,a4,.L318
	li	a4,94
	bgt	a5,a4,.L364
	li	a4,86
	beq	a5,a4,.L316
	li	a4,86
	bgt	a5,a4,.L364
	li	a4,45
	beq	a5,a4,.L319
	li	a4,45
	bgt	a5,a4,.L364
	li	a4,43
	beq	a5,a4,.L320
	li	a4,43
	bgt	a5,a4,.L364
	beq	a5,zero,.L321
	li	a4,13
	beq	a5,a4,.L322
	.loc 1 1731 9
	j	.L364
.L320:
	.loc 1 1519 12
	lbu	a5,-113(s0)
	andi	a5,a5,0xff
	beq	a5,zero,.L365
	.loc 1 1520 14
	ld	a5,-64(s0)
	beq	a5,zero,.L324
	.loc 1 1520 36 discriminator 1
	ld	a4,-64(s0)
	ld	a5,-72(s0)
	bne	a4,a5,.L324
	.loc 1 1524 27
	ld	a5,-64(s0)
	addi	a5,a5,-1
	sd	a5,-64(s0)
	.loc 1 1525 27
	li	a5,1
	sb	a5,-99(s0)
.L324:
	.loc 1 1528 14
	ld	a5,-64(s0)
	bne	a5,zero,.L325
	.loc 1 1529 25
	sb	zero,-100(s0)
.L325:
	.loc 1 1532 14
	ld	a5,-72(s0)
	beq	a5,zero,.L365
	.loc 1 1533 33
	ld	a5,-72(s0)
	addi	a5,a5,-1
	sd	a5,-72(s0)
	.loc 1 1536 13
	ld	a5,-152(s0)
	ld	a4,16(a5)
	ld	a5,-152(s0)
	addi	a5,a5,8
	mv	a1,a5
	mv	a0,a4
	call	SwapListEntries@plt
	.loc 1 1540 9
	j	.L365
.L319:
	.loc 1 1547 12
	lbu	a5,-113(s0)
	andi	a5,a5,0xff
	beq	a5,zero,.L366
	.loc 1 1548 32
	ld	a4,-64(s0)
	ld	a5,-208(s0)
	add	a4,a4,a5
	.loc 1 1548 51
	ld	a5,-240(s0)
	.loc 1 1548 14
	bgeu	a4,a5,.L328
	.loc 1 1549 56
	ld	a4,-64(s0)
	ld	a5,-208(s0)
	add	a5,a4,a5
	.loc 1 1549 74
	addi	a5,a5,-1
	.loc 1 1548 69 discriminator 1
	ld	a4,-72(s0)
	bne	a4,a5,.L328
	.loc 1 1554 27
	ld	a5,-64(s0)
	addi	a5,a5,1
	sd	a5,-64(s0)
	.loc 1 1555 25
	li	a5,1
	sb	a5,-100(s0)
.L328:
	.loc 1 1558 31
	ld	a4,-64(s0)
	ld	a5,-208(s0)
	add	a4,a4,a5
	.loc 1 1558 50
	ld	a5,-240(s0)
	.loc 1 1558 14
	bne	a4,a5,.L329
	.loc 1 1559 27
	sb	zero,-99(s0)
.L329:
	.loc 1 1562 54
	ld	a5,-240(s0)
	addi	a5,a5,-1
	.loc 1 1562 14
	ld	a4,-72(s0)
	bgeu	a4,a5,.L366
	.loc 1 1563 33
	ld	a5,-72(s0)
	addi	a5,a5,1
	sd	a5,-72(s0)
	.loc 1 1566 13
	ld	a5,-152(s0)
	addi	a4,a5,8
	ld	a5,-152(s0)
	ld	a5,8(a5)
	mv	a1,a5
	mv	a0,a4
	call	SwapListEntries@plt
	.loc 1 1570 9
	j	.L366
.L318:
	.loc 1 1573 12
	ld	a5,-64(s0)
	beq	a5,zero,.L330
	.loc 1 1573 34 discriminator 1
	ld	a4,-64(s0)
	ld	a5,-72(s0)
	bne	a4,a5,.L330
	.loc 1 1577 25
	ld	a5,-64(s0)
	addi	a5,a5,-1
	sd	a5,-64(s0)
	.loc 1 1578 25
	li	a5,1
	sb	a5,-99(s0)
.L330:
	.loc 1 1581 12
	ld	a5,-64(s0)
	bne	a5,zero,.L331
	.loc 1 1582 23
	sb	zero,-100(s0)
.L331:
	.loc 1 1585 12
	ld	a5,-72(s0)
	beq	a5,zero,.L367
	.loc 1 1586 31
	ld	a5,-72(s0)
	addi	a5,a5,-1
	sd	a5,-72(s0)
	.loc 1 1589 9
	j	.L367
.L316:
	.loc 1 1593 30
	ld	a4,-64(s0)
	ld	a5,-208(s0)
	add	a4,a4,a5
	.loc 1 1593 49
	ld	a5,-240(s0)
	.loc 1 1593 12
	bgeu	a4,a5,.L333
	.loc 1 1594 54
	ld	a4,-64(s0)
	ld	a5,-208(s0)
	add	a5,a4,a5
	.loc 1 1594 72
	addi	a5,a5,-1
	.loc 1 1593 67 discriminator 1
	ld	a4,-72(s0)
	bne	a4,a5,.L333
	.loc 1 1599 25
	ld	a5,-64(s0)
	addi	a5,a5,1
	sd	a5,-64(s0)
	.loc 1 1600 23
	li	a5,1
	sb	a5,-100(s0)
.L333:
	.loc 1 1603 29
	ld	a4,-64(s0)
	ld	a5,-208(s0)
	add	a4,a4,a5
	.loc 1 1603 48
	ld	a5,-240(s0)
	.loc 1 1603 12
	bne	a4,a5,.L334
	.loc 1 1604 25
	sb	zero,-99(s0)
.L334:
	.loc 1 1607 52
	ld	a5,-240(s0)
	addi	a5,a5,-1
	.loc 1 1607 12
	ld	a4,-72(s0)
	bgeu	a4,a5,.L368
	.loc 1 1608 31
	ld	a5,-72(s0)
	addi	a5,a5,1
	sd	a5,-72(s0)
	.loc 1 1611 9
	j	.L368
.L321:
	.loc 1 1614 20
	lhu	a5,-232(s0)
	sext.w	a5,a5
	.loc 1 1614 9
	li	a4,2
	bgt	a5,a4,.L336
	bgt	a5,zero,.L337
	.loc 1 1683 13
	j	.L346
.L336:
	.loc 1 1614 9
	li	a4,23
	beq	a5,a4,.L339
	.loc 1 1683 13
	j	.L346
.L337:
	.loc 1 1617 20
	lhu	a5,-232(s0)
	.loc 1 1617 16
	sext.w	a4,a5
	li	a5,1
	bne	a4,a5,.L340
	.loc 1 1618 18
	ld	a5,-64(s0)
	beq	a5,zero,.L341
	.loc 1 1618 40 discriminator 1
	ld	a4,-64(s0)
	ld	a5,-72(s0)
	bne	a4,a5,.L341
	.loc 1 1622 31
	ld	a5,-64(s0)
	addi	a5,a5,-1
	sd	a5,-64(s0)
	.loc 1 1623 31
	li	a5,1
	sb	a5,-99(s0)
.L341:
	.loc 1 1626 18
	ld	a5,-64(s0)
	bne	a5,zero,.L342
	.loc 1 1627 29
	sb	zero,-100(s0)
.L342:
	.loc 1 1630 18
	ld	a5,-72(s0)
	beq	a5,zero,.L369
	.loc 1 1631 37
	ld	a5,-72(s0)
	addi	a5,a5,-1
	sd	a5,-72(s0)
	.loc 1 1653 13
	j	.L369
.L340:
	.loc 1 1634 36
	ld	a4,-64(s0)
	ld	a5,-208(s0)
	add	a4,a4,a5
	.loc 1 1634 55
	ld	a5,-240(s0)
	.loc 1 1634 18
	bgeu	a4,a5,.L344
	.loc 1 1635 60
	ld	a4,-64(s0)
	ld	a5,-208(s0)
	add	a5,a4,a5
	.loc 1 1635 78
	addi	a5,a5,-1
	.loc 1 1634 73 discriminator 1
	ld	a4,-72(s0)
	bne	a4,a5,.L344
	.loc 1 1640 31
	ld	a5,-64(s0)
	addi	a5,a5,1
	sd	a5,-64(s0)
	.loc 1 1641 29
	li	a5,1
	sb	a5,-100(s0)
.L344:
	.loc 1 1644 35
	ld	a4,-64(s0)
	ld	a5,-208(s0)
	add	a4,a4,a5
	.loc 1 1644 54
	ld	a5,-240(s0)
	.loc 1 1644 18
	bne	a4,a5,.L345
	.loc 1 1645 31
	sb	zero,-99(s0)
.L345:
	.loc 1 1648 58
	ld	a5,-240(s0)
	addi	a5,a5,-1
	.loc 1 1648 18
	ld	a4,-72(s0)
	bgeu	a4,a5,.L369
	.loc 1 1649 37
	ld	a5,-72(s0)
	addi	a5,a5,1
	sd	a5,-72(s0)
	.loc 1 1653 13
	j	.L369
.L339:
	.loc 1 1656 16
	la	a5,gST
	ld	a5,0(a5)
	ld	a5,64(a5)
	.loc 1 1656 24
	ld	a5,40(a5)
	.loc 1 1656 43
	la	a4,gST
	ld	a4,0(a4)
	.loc 1 1656 13
	ld	a4,64(a4)
	lw	a3,-180(s0)
	mv	a1,a3
	mv	a0,a4
	jalr	a5
.LVL22:
	.loc 1 1661 16
	lbu	a5,-113(s0)
	andi	a5,a5,0xff
	beq	a5,zero,.L347
	.loc 1 1662 29
	lbu	a5,-129(s0)
	sb	a5,-280(s0)
	.loc 1 1663 34
	lhu	a5,-262(s0)
	andi	a5,a5,0
	sh	a5,-262(s0)
	lhu	a5,-260(s0)
	andi	a5,a5,0
	sh	a5,-260(s0)
	lhu	a5,-258(s0)
	andi	a5,a5,0
	sh	a5,-258(s0)
	lhu	a5,-256(s0)
	andi	a5,a5,0
	sh	a5,-256(s0)
	.loc 1 1664 26
	sd	zero,-40(s0)
	.loc 1 1664 15
	j	.L348
.L352:
	.loc 1 1665 38
	lbu	a5,-129(s0)
	ld	a2,-40(s0)
	mv	a1,a5
	ld	a0,-128(s0)
	call	GetArrayData@plt
	mv	a5,a0
	.loc 1 1665 36 discriminator 1
	slli	a4,a5,48
	srli	a4,a4,48
	lhu	a3,-262(s0)
	andi	a3,a3,0
	or	a4,a3,a4
	sh	a4,-262(s0)
	srli	a4,a5,16
	slli	a4,a4,48
	srli	a4,a4,48
	lhu	a3,-260(s0)
	andi	a3,a3,0
	or	a4,a3,a4
	sh	a4,-260(s0)
	srli	a4,a5,32
	slli	a4,a4,48
	srli	a4,a4,48
	lhu	a3,-258(s0)
	andi	a3,a3,0
	or	a4,a3,a4
	sh	a4,-258(s0)
	srli	a5,a5,48
	lhu	a4,-256(s0)
	andi	a4,a4,0
	or	a5,a4,a5
	sh	a5,-256(s0)
	.loc 1 1666 35
	ld	a5,-264(s0)
	srli	a5,a5,16
	ld	a4,-256(s0)
	slli	a4,a4,48
	srli	a4,a4,48
	slli	a4,a4,48
	or	a5,a4,a5
	.loc 1 1666 20
	beq	a5,zero,.L370
	.loc 1 1670 31
	addi	a5,s0,-280
	mv	a1,a5
	ld	a0,-176(s0)
	call	ValueToOption@plt
	sd	a0,-144(s0)
	.loc 1 1671 20
	ld	a5,-144(s0)
	bne	a5,zero,.L350
	.loc 1 1672 26
	li	a5,-1
	slli	a5,a5,63
	addi	a5,a5,14
	j	.L363
.L350:
	.loc 1 1675 34
	ld	a5,-144(s0)
	addi	a5,a5,8
	.loc 1 1675 17
	mv	a0,a5
	call	RemoveEntryList@plt
	.loc 1 1676 17
	ld	a5,-176(s0)
	addi	a4,a5,104
	ld	a5,-144(s0)
	addi	a5,a5,8
	mv	a1,a5
	mv	a0,a4
	call	InsertTailList@plt
	.loc 1 1664 70 discriminator 2
	ld	a5,-40(s0)
	addi	a5,a5,1
	sd	a5,-40(s0)
.L348:
	.loc 1 1664 48 discriminator 1
	ld	a5,-160(s0)
	lbu	a5,13(a5)
	mv	a4,a5
	.loc 1 1664 37 discriminator 1
	ld	a5,-40(s0)
	bltu	a5,a4,.L352
	j	.L347
.L370:
	.loc 1 1667 19
	nop
.L347:
	.loc 1 1680 20
	li	a5,-1
	slli	a5,a5,63
	addi	a5,a5,7
	j	.L363
.L369:
	.loc 1 1653 13
	nop
.L346:
	.loc 1 1686 9
	j	.L326
.L322:
	.loc 1 1692 12
	lbu	a5,-113(s0)
	andi	a5,a5,0xff
	beq	a5,zero,.L353
	.loc 1 1693 65
	ld	a5,-176(s0)
	lhu	a5,56(a5)
	.loc 1 1693 25
	mv	a0,a5
	call	AllocateZeroPool@plt
	sd	a0,-224(s0)
	.loc 1 1695 17
	sd	zero,-40(s0)
	.loc 1 1696 32
	ld	a5,-176(s0)
	addi	a5,a5,104
	.loc 1 1696 18
	mv	a0,a5
	call	GetFirstNode@plt
	sd	a0,-112(s0)
	.loc 1 1697 17
	j	.L354
.L358:
	.loc 1 1698 29
	ld	a5,-112(s0)
	addi	a5,a5,-8
	.loc 1 1698 147
	ld	a4,0(a5)
	.loc 1 1698 232
	li	a5,1414549504
	addi	a5,a5,-175
	bne	a4,a5,.L355
	.loc 1 1698 25 discriminator 1
	ld	a5,-112(s0)
	addi	a5,a5,-8
	sd	a5,-144(s0)
	j	.L356
.L355:
	.loc 1 1698 25 is_stmt 0 discriminator 2
	sd	zero,-144(s0)
.L356:
	.loc 1 1699 33 is_stmt 1
	ld	a5,-176(s0)
	addi	a5,a5,104
	.loc 1 1699 20
	ld	a1,-112(s0)
	mv	a0,a5
	call	GetNextNode@plt
	sd	a0,-112(s0)
	.loc 1 1701 69
	ld	a5,-144(s0)
	ld	a5,24(a5)
	.loc 1 1701 13
	lbu	a4,6(a5)
	lbu	a3,7(a5)
	slli	a3,a3,8
	or	a4,a3,a4
	lbu	a3,8(a5)
	slli	a3,a3,16
	or	a4,a3,a4
	lbu	a3,9(a5)
	slli	a3,a3,24
	or	a4,a3,a4
	lbu	a3,10(a5)
	slli	a3,a3,32
	or	a4,a3,a4
	lbu	a3,11(a5)
	slli	a3,a3,40
	or	a4,a3,a4
	lbu	a3,12(a5)
	slli	a3,a3,48
	or	a4,a3,a4
	lbu	a5,13(a5)
	slli	a5,a5,56
	or	a5,a5,a4
	mv	a4,a5
	lbu	a5,-129(s0)
	mv	a3,a4
	ld	a2,-40(s0)
	mv	a1,a5
	ld	a0,-224(s0)
	call	SetArrayData@plt
	.loc 1 1703 18
	ld	a5,-40(s0)
	addi	a5,a5,1
	sd	a5,-40(s0)
	.loc 1 1704 34
	ld	a5,-160(s0)
	lbu	a5,13(a5)
	mv	a4,a5
	.loc 1 1704 16
	ld	a5,-40(s0)
	bgtu	a5,a4,.L371
.L354:
	.loc 1 1697 27
	ld	a5,-176(s0)
	addi	a5,a5,104
	.loc 1 1697 19
	ld	a1,-112(s0)
	mv	a0,a5
	call	IsNull@plt
	mv	a5,a0
	.loc 1 1697 18 discriminator 1
	beq	a5,zero,.L358
	j	.L357
.L371:
	.loc 1 1705 15
	nop
.L357:
	.loc 1 1709 74
	ld	a5,-176(s0)
	lhu	a5,56(a5)
	.loc 1 1709 15
	mv	a2,a5
	ld	a1,-128(s0)
	ld	a0,-224(s0)
	call	CompareMem@plt
	mv	a5,a0
	.loc 1 1709 14 discriminator 1
	bne	a5,zero,.L359
	.loc 1 1710 13
	ld	a0,-224(s0)
	call	FreePool@plt
	.loc 1 1711 20
	li	a5,-1
	slli	a5,a5,63
	addi	a5,a5,7
	j	.L363
.L359:
	.loc 1 1713 23
	la	a5,gUserInput
	ld	a5,0(a5)
	.loc 1 1713 43
	ld	a4,-224(s0)
	sd	a4,16(a5)
	.loc 1 1714 23
	la	a5,gUserInput
	ld	a5,0(a5)
	.loc 1 1714 70
	ld	a4,-176(s0)
	lhu	a4,56(a4)
	.loc 1 1714 46
	sh	a4,24(a5)
	j	.L360
.L353:
	.loc 1 1718 54
	ld	a5,-152(s0)
	ld	a4,24(a5)
	.loc 1 1718 21
	la	a5,gUserInput
	ld	a5,0(a5)
	.loc 1 1718 68
	lbu	a4,5(a4)
	.loc 1 1718 39
	sb	a4,8(a5)
	.loc 1 1719 15
	ld	a5,-176(s0)
	addi	a4,a5,58
	.loc 1 1719 75
	ld	a5,-152(s0)
	ld	a5,24(a5)
	.loc 1 1719 15
	addi	a3,a5,6
	.loc 1 1719 108
	la	a5,gUserInput
	ld	a5,0(a5)
	.loc 1 1719 15
	lbu	a5,8(a5)
	mv	a2,a5
	mv	a1,a3
	mv	a0,a4
	call	IsValuesEqual
	mv	a5,a0
	.loc 1 1719 14 discriminator 1
	beq	a5,zero,.L361
	.loc 1 1720 20
	li	a5,-1
	slli	a5,a5,63
	addi	a5,a5,7
	j	.L363
.L361:
	.loc 1 1722 41
	la	a5,gUserInput
	ld	a5,0(a5)
	.loc 1 1722 13
	addi	a4,a5,26
	.loc 1 1722 75
	ld	a5,-152(s0)
	ld	a5,24(a5)
	.loc 1 1722 13
	addi	a3,a5,6
	.loc 1 1722 108
	la	a5,gUserInput
	ld	a5,0(a5)
	.loc 1 1722 13
	lbu	a5,8(a5)
	mv	a2,a5
	mv	a1,a3
	mv	a0,a4
	call	SetValuesByType
.L360:
	.loc 1 1726 12
	la	a5,gST
	ld	a5,0(a5)
	ld	a5,64(a5)
	.loc 1 1726 20
	ld	a5,40(a5)
	.loc 1 1726 39
	la	a4,gST
	ld	a4,0(a4)
	.loc 1 1726 9
	ld	a4,64(a4)
	lw	a3,-180(s0)
	mv	a1,a3
	mv	a0,a4
	jalr	a5
.LVL23:
	.loc 1 1728 16
	li	a5,0
	j	.L363
.L364:
	.loc 1 1731 9
	nop
	j	.L362
.L365:
	.loc 1 1540 9
	nop
	j	.L362
.L366:
	.loc 1 1570 9
	nop
	j	.L362
.L367:
	.loc 1 1589 9
	nop
	j	.L362
.L368:
	.loc 1 1611 9
	nop
.L326:
	.loc 1 1415 5
	j	.L362
.L363:
	.loc 1 1734 1
	mv	a0,a5
	ld	ra,296(sp)
	.cfi_restore 1
	ld	s0,288(sp)
	.cfi_restore 8
	.cfi_def_cfa 2, 304
	ld	s1,280(sp)
	.cfi_restore 9
	ld	s2,272(sp)
	.cfi_restore 18
	addi	sp,sp,304
	.cfi_def_cfa_offset 0
	jr	ra
	.cfi_endproc
.LFE8:
	.size	GetSelectionInputPopUp, .-GetSelectionInputPopUp
	.text
.Letext0:
	.file 2 "/home/kapoagaeming/spacemit-image-builder/components/edk2/MdePkg/Include/RiscV64/ProcessorBind.h"
	.file 3 "/home/kapoagaeming/spacemit-image-builder/components/edk2/MdePkg/Include/Base.h"
	.file 4 "/home/kapoagaeming/spacemit-image-builder/components/edk2/MdePkg/Include/Uefi/UefiBaseType.h"
	.file 5 "/home/kapoagaeming/spacemit-image-builder/components/edk2/MdePkg/Include/Uefi/UefiMultiPhase.h"
	.file 6 "/home/kapoagaeming/spacemit-image-builder/components/edk2/MdePkg/Include/Protocol/DevicePath.h"
	.file 7 "/home/kapoagaeming/spacemit-image-builder/components/edk2/MdePkg/Include/Protocol/SimpleTextIn.h"
	.file 8 "/home/kapoagaeming/spacemit-image-builder/components/edk2/MdePkg/Include/Protocol/SimpleTextOut.h"
	.file 9 "/home/kapoagaeming/spacemit-image-builder/components/edk2/MdePkg/Include/Uefi/UefiSpec.h"
	.file 10 "/home/kapoagaeming/spacemit-image-builder/components/edk2/MdePkg/Include/Uefi/UefiInternalFormRepresentation.h"
	.file 11 "/home/kapoagaeming/spacemit-image-builder/components/edk2/MdePkg/Include/Protocol/FormBrowser2.h"
	.file 12 "/home/kapoagaeming/spacemit-image-builder/components/edk2/MdeModulePkg/Include/Protocol/DisplayProtocol.h"
	.file 13 "/home/kapoagaeming/spacemit-image-builder/components/edk2/MdeModulePkg/Universal/DisplayEngineDxe/FormDisplay.h"
	.file 14 "/home/kapoagaeming/spacemit-image-builder/components/edk2/MdePkg/Include/Library/BaseMemoryLib.h"
	.file 15 "/home/kapoagaeming/spacemit-image-builder/components/edk2/MdePkg/Include/Library/BaseLib.h"
	.file 16 "/home/kapoagaeming/spacemit-image-builder/components/edk2/MdeModulePkg/Include/Library/CustomizedDisplayLib.h"
	.file 17 "/home/kapoagaeming/spacemit-image-builder/components/edk2/MdePkg/Include/Library/PrintLib.h"
	.file 18 "/home/kapoagaeming/spacemit-image-builder/components/edk2/MdePkg/Include/Library/MemoryAllocationLib.h"
	.file 19 "/home/kapoagaeming/spacemit-image-builder/components/edk2/MdePkg/Include/Library/UefiBootServicesTableLib.h"
	.section	.note.GNU-stack,"",@progbits
