	.file	"Popup.c"
	.option pic
	.option norelax
	.attribute arch, "rv64i2p1_m2p0_a2p1_f2p2_d2p2_c2p0_zicsr2p0_zifencei2p0_zmmul1p0_zaamo1p0_zalrsc1p0_zca1p0_zcd1p0"
	.attribute unaligned_access, 0
	.attribute stack_align, 16
	.text
.Ltext0:
	.cfi_sections	.debug_frame
	.file 0 "/home/kapoagaeming/spacemit-image-builder/components/Build/Milk-V-Jupiter/RELEASE_GCC5/RISCV64/MdeModulePkg/Universal/DisplayEngineDxe/DisplayEngineDxe" "/home/kapoagaeming/spacemit-image-builder/components/edk2/MdeModulePkg/Universal/DisplayEngineDxe/Popup.c"
	.globl	gPopupDimensions
	.section	.bss.gPopupDimensions,"aw",@nobits
	.align	3
	.type	gPopupDimensions, @object
	.size	gPopupDimensions, 32
gPopupDimensions:
	.zero	32
	.globl	gUserSelectableOptions
	.section	.bss.gUserSelectableOptions,"aw",@nobits
	.align	3
	.type	gUserSelectableOptions, @object
	.size	gUserSelectableOptions, 16
gUserSelectableOptions:
	.zero	16
	.globl	gMessageString
	.section	.bss.gMessageString,"aw",@nobits
	.align	3
	.type	gMessageString, @object
	.size	gMessageString, 8
gMessageString:
	.zero	8
	.globl	gMesStrLineNum
	.section	.bss.gMesStrLineNum,"aw",@nobits
	.align	3
	.type	gMesStrLineNum, @object
	.size	gMesStrLineNum, 8
gMesStrLineNum:
	.zero	8
	.globl	gMaxRowWidth
	.section	.bss.gMaxRowWidth,"aw",@nobits
	.align	3
	.type	gMaxRowWidth, @object
	.size	gMaxRowWidth, 8
gMaxRowWidth:
	.zero	8
	.section	.text.FreeSelectableOptions,"ax",@progbits
	.align	1
	.globl	FreeSelectableOptions
	.type	FreeSelectableOptions, @function
FreeSelectableOptions:
.LFB0:
	.file 1 "/home/kapoagaeming/spacemit-image-builder/components/edk2/MdeModulePkg/Universal/DisplayEngineDxe/Popup.c"
	.loc 1 27 1
	.cfi_startproc
	addi	sp,sp,-48
	.cfi_def_cfa_offset 48
	sd	ra,40(sp)
	sd	s0,32(sp)
	.cfi_offset 1, -8
	.cfi_offset 8, -16
	addi	s0,sp,48
	.cfi_def_cfa 8, 0
	sd	a0,-40(s0)
	.loc 1 31 9
	j	.L2
.L5:
	.loc 1 32 12
	ld	a0,-40(s0)
	call	GetFirstNode@plt
	sd	a0,-32(s0)
	.loc 1 33 26
	ld	a5,-32(s0)
	addi	a5,a5,-8
	.loc 1 33 142
	ld	a4,0(a5)
	.loc 1 33 227
	li	a5,1869836288
	addi	a5,a5,885
	bne	a4,a5,.L3
	.loc 1 33 22 discriminator 1
	ld	a5,-32(s0)
	addi	a5,a5,-8
	sd	a5,-24(s0)
	j	.L4
.L3:
	.loc 1 33 22 is_stmt 0 discriminator 2
	sd	zero,-24(s0)
.L4:
	.loc 1 34 22 is_stmt 1
	ld	a5,-24(s0)
	addi	a5,a5,8
	.loc 1 34 5
	mv	a0,a5
	call	RemoveEntryList@plt
	.loc 1 35 5
	ld	a0,-24(s0)
	call	FreePool@plt
.L2:
	.loc 1 31 11
	ld	a0,-40(s0)
	call	IsListEmpty@plt
	mv	a5,a0
	.loc 1 31 10 discriminator 1
	beq	a5,zero,.L5
	.loc 1 37 1
	nop
	nop
	ld	ra,40(sp)
	.cfi_restore 1
	ld	s0,32(sp)
	.cfi_restore 8
	.cfi_def_cfa 2, 48
	addi	sp,sp,48
	.cfi_def_cfa_offset 0
	jr	ra
	.cfi_endproc
.LFE0:
	.size	FreeSelectableOptions, .-FreeSelectableOptions
	.section	.text.DisplayOneSelectableOption,"ax",@progbits
	.align	1
	.globl	DisplayOneSelectableOption
	.type	DisplayOneSelectableOption, @function
DisplayOneSelectableOption:
.LFB1:
	.loc 1 51 1
	.cfi_startproc
	addi	sp,sp,-48
	.cfi_def_cfa_offset 48
	sd	ra,40(sp)
	sd	s0,32(sp)
	sd	s1,24(sp)
	sd	s2,16(sp)
	.cfi_offset 1, -8
	.cfi_offset 8, -16
	.cfi_offset 9, -24
	.cfi_offset 18, -32
	addi	s0,sp,48
	.cfi_def_cfa 8, 0
	sd	a0,-40(s0)
	mv	a5,a1
	sb	a5,-41(s0)
	.loc 1 52 6
	lbu	a5,-41(s0)
	andi	a5,a5,0xff
	beq	a5,zero,.L7
	.loc 1 53 8
	la	a5,gST
	ld	a5,0(a5)
	ld	a5,64(a5)
	.loc 1 53 16
	ld	s1,40(a5)
	.loc 1 53 35
	la	a5,gST
	ld	a5,0(a5)
	.loc 1 53 5
	ld	s2,64(a5)
	.loc 1 53 45
	call	GetHighlightTextColor@plt
	mv	a5,a0
	.loc 1 53 5 discriminator 1
	mv	a1,a5
	mv	a0,s2
	jalr	s1
.LVL0:
.L7:
	.loc 1 56 3
	ld	a5,-40(s0)
	ld	a4,56(a5)
	ld	a5,-40(s0)
	ld	a3,48(a5)
	ld	a5,-40(s0)
	ld	a5,32(a5)
	mv	a2,a5
	mv	a1,a3
	mv	a0,a4
	call	PrintStringAt@plt
	.loc 1 57 6
	la	a5,gST
	ld	a5,0(a5)
	ld	a5,64(a5)
	.loc 1 57 14
	ld	s1,40(a5)
	.loc 1 57 33
	la	a5,gST
	ld	a5,0(a5)
	.loc 1 57 3
	ld	s2,64(a5)
	.loc 1 57 43
	call	GetPopupColor@plt
	mv	a5,a0
	.loc 1 57 3 discriminator 1
	mv	a1,a5
	mv	a0,s2
	jalr	s1
.LVL1:
	.loc 1 58 1
	nop
	ld	ra,40(sp)
	.cfi_restore 1
	ld	s0,32(sp)
	.cfi_restore 8
	.cfi_def_cfa 2, 48
	ld	s1,24(sp)
	.cfi_restore 9
	ld	s2,16(sp)
	.cfi_restore 18
	addi	sp,sp,48
	.cfi_def_cfa_offset 0
	jr	ra
	.cfi_endproc
.LFE1:
	.size	DisplayOneSelectableOption, .-DisplayOneSelectableOption
	.section	.text.AddOneSelectableOption,"ax",@progbits
	.align	1
	.globl	AddOneSelectableOption
	.type	AddOneSelectableOption, @function
AddOneSelectableOption:
.LFB2:
	.loc 1 81 1
	.cfi_startproc
	addi	sp,sp,-64
	.cfi_def_cfa_offset 64
	sd	ra,56(sp)
	sd	s0,48(sp)
	.cfi_offset 1, -8
	.cfi_offset 8, -16
	addi	s0,sp,64
	.cfi_def_cfa 8, 0
	mv	a5,a0
	sd	a2,-48(s0)
	sd	a3,-56(s0)
	sd	a4,-64(s0)
	sw	a5,-36(s0)
	mv	a5,a1
	sw	a5,-40(s0)
	.loc 1 84 26
	li	a0,80
	call	AllocateZeroPool@plt
	sd	a0,-24(s0)
	.loc 1 85 6
	ld	a5,-24(s0)
	bne	a5,zero,.L9
	.loc 1 86 12
	li	a5,-1
	slli	a5,a5,63
	addi	a5,a5,9
	j	.L10
.L9:
	.loc 1 93 35
	ld	a5,-24(s0)
	li	a4,1869836288
	addi	a4,a4,885
	sd	a4,0(a5)
	.loc 1 94 38
	ld	a5,-24(s0)
	ld	a4,-48(s0)
	sd	a4,32(a5)
	.loc 1 95 36
	ld	a5,-24(s0)
	lw	a4,-40(s0)
	sw	a4,24(a5)
	.loc 1 96 35
	ld	a5,-24(s0)
	ld	a4,-56(s0)
	sd	a4,56(a5)
	.loc 1 97 35
	ld	a5,-24(s0)
	ld	a4,-64(s0)
	sd	a4,48(a5)
	.loc 1 98 37
	ld	a5,-24(s0)
	sd	zero,72(a5)
	.loc 1 100 3
	lw	a5,-36(s0)
	sext.w	a4,a5
	li	a5,3
	beq	a4,a5,.L11
	lw	a5,-36(s0)
	sext.w	a4,a5
	li	a5,3
	bgtu	a4,a5,.L24
	lw	a5,-36(s0)
	sext.w	a4,a5
	li	a5,2
	beq	a4,a5,.L13
	lw	a5,-36(s0)
	sext.w	a4,a5
	li	a5,2
	bgtu	a4,a5,.L24
	lw	a5,-36(s0)
	sext.w	a5,a5
	beq	a5,zero,.L14
	lw	a5,-36(s0)
	sext.w	a4,a5
	li	a5,1
	beq	a4,a5,.L15
	.loc 1 135 7
	j	.L24
.L14:
	.loc 1 102 41
	ld	a5,-24(s0)
	sd	zero,64(a5)
	.loc 1 103 38
	ld	a5,-24(s0)
	sd	zero,40(a5)
	.loc 1 104 7
	j	.L16
.L15:
	.loc 1 106 41
	ld	a5,-24(s0)
	li	a4,1
	sd	a4,64(a5)
	.loc 1 107 10
	lw	a5,-40(s0)
	sext.w	a5,a5
	bne	a5,zero,.L17
	.loc 1 108 40
	ld	a5,-24(s0)
	sd	zero,40(a5)
	.loc 1 113 7
	j	.L16
.L17:
	.loc 1 110 40
	ld	a5,-24(s0)
	li	a4,1
	sd	a4,40(a5)
	.loc 1 113 7
	j	.L16
.L13:
	.loc 1 115 41
	ld	a5,-24(s0)
	li	a4,1
	sd	a4,64(a5)
	.loc 1 116 10
	lw	a5,-40(s0)
	sext.w	a4,a5
	li	a5,2
	bne	a4,a5,.L19
	.loc 1 117 40
	ld	a5,-24(s0)
	sd	zero,40(a5)
	.loc 1 122 7
	j	.L16
.L19:
	.loc 1 119 40
	ld	a5,-24(s0)
	li	a4,1
	sd	a4,40(a5)
	.loc 1 122 7
	j	.L16
.L11:
	.loc 1 124 41
	ld	a5,-24(s0)
	li	a4,2
	sd	a4,64(a5)
	.loc 1 125 10
	lw	a5,-40(s0)
	sext.w	a4,a5
	li	a5,2
	bne	a4,a5,.L21
	.loc 1 126 40
	ld	a5,-24(s0)
	sd	zero,40(a5)
	.loc 1 133 7
	j	.L16
.L21:
	.loc 1 127 17
	lw	a5,-40(s0)
	sext.w	a4,a5
	li	a5,3
	bne	a4,a5,.L23
	.loc 1 128 40
	ld	a5,-24(s0)
	li	a4,1
	sd	a4,40(a5)
	.loc 1 133 7
	j	.L16
.L23:
	.loc 1 130 40
	ld	a5,-24(s0)
	li	a4,2
	sd	a4,40(a5)
	.loc 1 133 7
	j	.L16
.L24:
	.loc 1 135 7
	nop
.L16:
	.loc 1 138 3
	ld	a5,-24(s0)
	addi	a5,a5,8
	mv	a1,a5
	lla	a0,gUserSelectableOptions
	call	InsertTailList@plt
	.loc 1 140 10
	li	a5,0
.L10:
	.loc 1 141 1
	mv	a0,a5
	ld	ra,56(sp)
	.cfi_restore 1
	ld	s0,48(sp)
	.cfi_restore 8
	.cfi_def_cfa 2, 64
	addi	sp,sp,64
	.cfi_def_cfa_offset 0
	jr	ra
	.cfi_endproc
.LFE2:
	.size	AddOneSelectableOption, .-AddOneSelectableOption
	.section	.text.AddUserSelectableOptions,"ax",@progbits
	.align	1
	.globl	AddUserSelectableOptions
	.type	AddUserSelectableOptions, @function
AddUserSelectableOptions:
.LFB3:
	.loc 1 156 1
	.cfi_startproc
	addi	sp,sp,-96
	.cfi_def_cfa_offset 96
	sd	ra,88(sp)
	sd	s0,80(sp)
	sd	s1,72(sp)
	.cfi_offset 1, -8
	.cfi_offset 8, -16
	.cfi_offset 9, -24
	addi	s0,sp,96
	.cfi_def_cfa 8, 0
	mv	a5,a0
	sw	a5,-84(s0)
	.loc 1 164 10
	sd	zero,-40(s0)
	.loc 1 165 10
	lla	a5,gPopupDimensions
	ld	a5,8(a5)
	sd	a5,-48(s0)
	.loc 1 166 12
	lla	a5,gPopupDimensions
	ld	a5,0(a5)
	sd	a5,-56(s0)
	.loc 1 167 31
	lla	a5,gPopupDimensions
	ld	a5,24(a5)
	.loc 1 167 13
	addi	a5,a5,-1
	sd	a5,-64(s0)
	.loc 1 168 25
	ld	a4,-48(s0)
	ld	a5,-56(s0)
	sub	a5,a4,a5
	.loc 1 168 16
	addi	a5,a5,1
	sd	a5,-72(s0)
	.loc 1 170 3
	lla	a0,gUserSelectableOptions
	call	InitializeListHead@plt
	.loc 1 172 3
	lw	a5,-84(s0)
	sext.w	a4,a5
	li	a5,3
	beq	a4,a5,.L26
	lw	a5,-84(s0)
	sext.w	a4,a5
	li	a5,3
	bgtu	a4,a5,.L33
	lw	a5,-84(s0)
	sext.w	a4,a5
	li	a5,2
	beq	a4,a5,.L28
	lw	a5,-84(s0)
	sext.w	a4,a5
	li	a5,2
	bgtu	a4,a5,.L33
	lw	a5,-84(s0)
	sext.w	a5,a5
	beq	a5,zero,.L29
	lw	a5,-84(s0)
	sext.w	a4,a5
	li	a5,1
	beq	a4,a5,.L30
	.loc 1 210 7
	j	.L33
.L29:
	.loc 1 177 46
	la	a5,gOkOption
	ld	a5,0(a5)
	mv	a0,a5
	call	StrLen@plt
	mv	a4,a0
	.loc 1 177 44 discriminator 1
	ld	a5,-72(s0)
	sub	a5,a5,a4
	.loc 1 177 66 discriminator 1
	srli	a5,a5,1
	.loc 1 177 17 discriminator 1
	ld	a4,-56(s0)
	add	a5,a4,a5
	sd	a5,-80(s0)
	.loc 1 178 16
	la	a5,gOkOption
	ld	a2,0(a5)
	lw	a5,-84(s0)
	ld	a4,-64(s0)
	ld	a3,-80(s0)
	li	a1,0
	mv	a0,a5
	call	AddOneSelectableOption
	sd	a0,-40(s0)
	.loc 1 179 7
	j	.L31
.L30:
	.loc 1 184 47
	la	a5,gOkOption
	ld	a5,0(a5)
	mv	a0,a5
	call	StrLen@plt
	mv	s1,a0
	.loc 1 184 68 discriminator 1
	la	a5,gCancelOption
	ld	a5,0(a5)
	mv	a0,a5
	call	StrLen@plt
	mv	a5,a0
	.loc 1 184 66 discriminator 2
	add	a5,s1,a5
	.loc 1 184 44 discriminator 2
	ld	a4,-72(s0)
	sub	a4,a4,a5
	.loc 1 184 93 discriminator 2
	lla	a5,.LC0
	ld	a5,0(a5)
	mulhu	a5,a4,a5
	srli	a5,a5,1
	.loc 1 184 17 discriminator 2
	ld	a4,-56(s0)
	add	a5,a4,a5
	sd	a5,-80(s0)
	.loc 1 185 16
	la	a5,gOkOption
	ld	a2,0(a5)
	lw	a5,-84(s0)
	ld	a4,-64(s0)
	ld	a3,-80(s0)
	li	a1,0
	mv	a0,a5
	call	AddOneSelectableOption
	sd	a0,-40(s0)
	.loc 1 186 45
	la	a5,gOkOption
	ld	a5,0(a5)
	mv	a0,a5
	call	StrLen@plt
	mv	s1,a0
	.loc 1 186 66 discriminator 1
	la	a5,gCancelOption
	ld	a5,0(a5)
	mv	a0,a5
	call	StrLen@plt
	mv	a5,a0
	.loc 1 186 64 discriminator 2
	add	a5,s1,a5
	.loc 1 186 42 discriminator 2
	ld	a4,-72(s0)
	sub	a4,a4,a5
	.loc 1 186 91 discriminator 2
	lla	a5,.LC0
	ld	a5,0(a5)
	mulhu	a5,a4,a5
	srli	a5,a5,1
	.loc 1 186 26 discriminator 2
	ld	a4,-48(s0)
	sub	s1,a4,a5
	.loc 1 186 98 discriminator 2
	la	a5,gCancelOption
	ld	a5,0(a5)
	mv	a0,a5
	call	GetStringWidth@plt
	mv	a5,a0
	.loc 1 186 129 discriminator 3
	addi	a5,a5,-2
	.loc 1 186 133 discriminator 3
	srli	a5,a5,1
	.loc 1 186 95 discriminator 3
	sub	a5,s1,a5
	.loc 1 186 17 discriminator 3
	addi	a5,a5,1
	sd	a5,-80(s0)
	.loc 1 187 16
	la	a5,gCancelOption
	ld	a2,0(a5)
	lw	a5,-84(s0)
	ld	a4,-64(s0)
	ld	a3,-80(s0)
	li	a1,1
	mv	a0,a5
	call	AddOneSelectableOption
	sd	a0,-40(s0)
	.loc 1 188 7
	j	.L31
.L28:
	.loc 1 193 47
	la	a5,gYesOption
	ld	a5,0(a5)
	mv	a0,a5
	call	StrLen@plt
	mv	s1,a0
	.loc 1 193 69 discriminator 1
	la	a5,gNoOption
	ld	a5,0(a5)
	mv	a0,a5
	call	StrLen@plt
	mv	a5,a0
	.loc 1 193 67 discriminator 2
	add	a5,s1,a5
	.loc 1 193 44 discriminator 2
	ld	a4,-72(s0)
	sub	a4,a4,a5
	.loc 1 193 90 discriminator 2
	lla	a5,.LC0
	ld	a5,0(a5)
	mulhu	a5,a4,a5
	srli	a5,a5,1
	.loc 1 193 17 discriminator 2
	ld	a4,-56(s0)
	add	a5,a4,a5
	sd	a5,-80(s0)
	.loc 1 194 16
	la	a5,gYesOption
	ld	a2,0(a5)
	lw	a5,-84(s0)
	ld	a4,-64(s0)
	ld	a3,-80(s0)
	li	a1,2
	mv	a0,a5
	call	AddOneSelectableOption
	sd	a0,-40(s0)
	.loc 1 195 45
	la	a5,gYesOption
	ld	a5,0(a5)
	mv	a0,a5
	call	StrLen@plt
	mv	s1,a0
	.loc 1 195 67 discriminator 1
	la	a5,gNoOption
	ld	a5,0(a5)
	mv	a0,a5
	call	StrLen@plt
	mv	a5,a0
	.loc 1 195 65 discriminator 2
	add	a5,s1,a5
	.loc 1 195 42 discriminator 2
	ld	a4,-72(s0)
	sub	a4,a4,a5
	.loc 1 195 88 discriminator 2
	lla	a5,.LC0
	ld	a5,0(a5)
	mulhu	a5,a4,a5
	srli	a5,a5,1
	.loc 1 195 26 discriminator 2
	ld	a4,-48(s0)
	sub	s1,a4,a5
	.loc 1 195 95 discriminator 2
	la	a5,gNoOption
	ld	a5,0(a5)
	mv	a0,a5
	call	GetStringWidth@plt
	mv	a5,a0
	.loc 1 195 121 discriminator 3
	addi	a5,a5,-2
	.loc 1 195 126 discriminator 3
	srli	a5,a5,1
	.loc 1 195 92 discriminator 3
	sub	a5,s1,a5
	.loc 1 195 17 discriminator 3
	addi	a5,a5,1
	sd	a5,-80(s0)
	.loc 1 196 16
	la	a5,gNoOption
	ld	a2,0(a5)
	lw	a5,-84(s0)
	ld	a4,-64(s0)
	ld	a3,-80(s0)
	li	a1,3
	mv	a0,a5
	call	AddOneSelectableOption
	sd	a0,-40(s0)
	.loc 1 197 7
	j	.L31
.L26:
	.loc 1 202 47
	la	a5,gYesOption
	ld	a5,0(a5)
	mv	a0,a5
	call	StrLen@plt
	mv	s1,a0
	.loc 1 202 69 discriminator 1
	la	a5,gNoOption
	ld	a5,0(a5)
	mv	a0,a5
	call	StrLen@plt
	mv	a5,a0
	.loc 1 202 67 discriminator 2
	add	s1,s1,a5
	.loc 1 202 90 discriminator 2
	la	a5,gCancelOption
	ld	a5,0(a5)
	mv	a0,a5
	call	StrLen@plt
	mv	a5,a0
	.loc 1 202 88 discriminator 3
	add	a5,s1,a5
	.loc 1 202 44 discriminator 3
	ld	a4,-72(s0)
	sub	a5,a4,a5
	.loc 1 202 115 discriminator 3
	srli	a5,a5,2
	.loc 1 202 17 discriminator 3
	ld	a4,-56(s0)
	add	a5,a4,a5
	sd	a5,-80(s0)
	.loc 1 203 16
	la	a5,gYesOption
	ld	a2,0(a5)
	lw	a5,-84(s0)
	ld	a4,-64(s0)
	ld	a3,-80(s0)
	li	a1,2
	mv	a0,a5
	call	AddOneSelectableOption
	sd	a0,-40(s0)
	.loc 1 204 47
	la	a5,gNoOption
	ld	a5,0(a5)
	mv	a0,a5
	call	GetStringWidth@plt
	mv	a5,a0
	.loc 1 204 74 discriminator 1
	addi	a5,a5,-2
	.loc 1 204 78 discriminator 1
	srli	a5,a5,1
	.loc 1 204 44 discriminator 1
	ld	a4,-72(s0)
	sub	a5,a4,a5
	.loc 1 204 83 discriminator 1
	srli	a5,a5,1
	.loc 1 204 17 discriminator 1
	ld	a4,-56(s0)
	add	a5,a4,a5
	sd	a5,-80(s0)
	.loc 1 205 16
	la	a5,gNoOption
	ld	a2,0(a5)
	lw	a5,-84(s0)
	ld	a4,-64(s0)
	ld	a3,-80(s0)
	li	a1,3
	mv	a0,a5
	call	AddOneSelectableOption
	sd	a0,-40(s0)
	.loc 1 206 45
	la	a5,gYesOption
	ld	a5,0(a5)
	mv	a0,a5
	call	StrLen@plt
	mv	s1,a0
	.loc 1 206 67 discriminator 1
	la	a5,gNoOption
	ld	a5,0(a5)
	mv	a0,a5
	call	StrLen@plt
	mv	a5,a0
	.loc 1 206 65 discriminator 2
	add	s1,s1,a5
	.loc 1 206 88 discriminator 2
	la	a5,gCancelOption
	ld	a5,0(a5)
	mv	a0,a5
	call	StrLen@plt
	mv	a5,a0
	.loc 1 206 86 discriminator 3
	add	a5,s1,a5
	.loc 1 206 42 discriminator 3
	ld	a4,-72(s0)
	sub	a5,a4,a5
	.loc 1 206 113 discriminator 3
	srli	a5,a5,2
	.loc 1 206 26 discriminator 3
	ld	a4,-48(s0)
	sub	s1,a4,a5
	.loc 1 206 120 discriminator 3
	la	a5,gCancelOption
	ld	a5,0(a5)
	mv	a0,a5
	call	GetStringWidth@plt
	mv	a5,a0
	.loc 1 206 151 discriminator 4
	addi	a5,a5,-2
	.loc 1 206 156 discriminator 4
	srli	a5,a5,1
	.loc 1 206 117 discriminator 4
	sub	a5,s1,a5
	.loc 1 206 17 discriminator 4
	addi	a5,a5,1
	sd	a5,-80(s0)
	.loc 1 207 16
	la	a5,gCancelOption
	ld	a2,0(a5)
	lw	a5,-84(s0)
	ld	a4,-64(s0)
	ld	a3,-80(s0)
	li	a1,1
	mv	a0,a5
	call	AddOneSelectableOption
	sd	a0,-40(s0)
	.loc 1 208 7
	j	.L31
.L33:
	.loc 1 210 7
	nop
.L31:
	.loc 1 213 10
	ld	a5,-40(s0)
	.loc 1 214 1
	mv	a0,a5
	ld	ra,88(sp)
	.cfi_restore 1
	ld	s0,80(sp)
	.cfi_restore 8
	.cfi_def_cfa 2, 96
	ld	s1,72(sp)
	.cfi_restore 9
	addi	sp,sp,96
	.cfi_def_cfa_offset 0
	jr	ra
	.cfi_endproc
.LFE3:
	.size	AddUserSelectableOptions, .-AddUserSelectableOptions
	.section	.text.GetUserSelection,"ax",@progbits
	.align	1
	.globl	GetUserSelection
	.type	GetUserSelection, @function
GetUserSelection:
.LFB4:
	.loc 1 228 1
	.cfi_startproc
	addi	sp,sp,-80
	.cfi_def_cfa_offset 80
	sd	ra,72(sp)
	sd	s0,64(sp)
	.cfi_offset 1, -8
	.cfi_offset 8, -16
	addi	s0,sp,80
	.cfi_def_cfa 8, 0
	mv	a5,a0
	sd	a1,-80(s0)
	sw	a5,-68(s0)
	.loc 1 239 16
	lla	a5,gUserSelectableOptions
	ld	a5,0(a5)
	sd	a5,-24(s0)
.L63:
	.loc 1 241 15
	lla	a5,gUserSelectableOptions
	ld	a5,0(a5)
	sd	a5,-32(s0)
	.loc 1 241 5
	j	.L35
.L38:
	.loc 1 242 28
	ld	a5,-32(s0)
	addi	a5,a5,-8
	.loc 1 242 144
	ld	a4,0(a5)
	.loc 1 242 229
	li	a5,1869836288
	addi	a5,a5,885
	bne	a4,a5,.L36
	.loc 1 242 24 discriminator 1
	ld	a5,-32(s0)
	addi	a5,a5,-8
	sd	a5,-40(s0)
	j	.L37
.L36:
	.loc 1 242 24 is_stmt 0 discriminator 2
	sd	zero,-40(s0)
.L37:
	.loc 1 243 53 is_stmt 1
	ld	a4,-32(s0)
	ld	a5,-24(s0)
	sub	a5,a4,a5
	seqz	a5,a5
	andi	a5,a5,0xff
	.loc 1 243 7
	mv	a1,a5
	ld	a0,-40(s0)
	call	DisplayOneSelectableOption
	.loc 1 241 91 discriminator 2
	ld	a5,-32(s0)
	ld	a5,0(a5)
	sd	a5,-32(s0)
.L35:
	.loc 1 241 58 discriminator 1
	ld	a4,-32(s0)
	lla	a5,gUserSelectableOptions
	bne	a4,a5,.L38
	.loc 1 249 8
	ld	a5,-80(s0)
	beq	a5,zero,.L66
	.loc 1 253 14
	addi	a5,s0,-64
	mv	a0,a5
	call	WaitForKeyStroke@plt
	sd	a0,-56(s0)
	.loc 1 256 25
	ld	a5,-24(s0)
	addi	a5,a5,-8
	.loc 1 256 149
	ld	a4,0(a5)
	.loc 1 256 234
	li	a5,1869836288
	addi	a5,a5,885
	bne	a4,a5,.L41
	.loc 1 256 21 discriminator 1
	ld	a5,-24(s0)
	addi	a5,a5,-8
	sd	a5,-48(s0)
	j	.L42
.L41:
	.loc 1 256 21 is_stmt 0 discriminator 2
	sd	zero,-48(s0)
.L42:
	.loc 1 257 21 is_stmt 1
	lhu	a5,-62(s0)
	sext.w	a5,a5
	.loc 1 257 5
	beq	a5,zero,.L43
	li	a4,13
	beq	a5,a4,.L44
	j	.L65
.L43:
	.loc 1 259 25
	lhu	a5,-64(s0)
	sext.w	a5,a5
	.loc 1 259 9
	li	a4,3
	beq	a5,a4,.L46
	li	a4,4
	beq	a5,a4,.L47
	.loc 1 277 13
	j	.L51
.L46:
	.loc 1 261 32
	ld	a5,-48(s0)
	ld	a4,40(a5)
	.loc 1 261 60
	ld	a5,-48(s0)
	ld	a5,64(a5)
	.loc 1 261 16
	bgeu	a4,a5,.L49
	.loc 1 262 28
	ld	a5,-24(s0)
	ld	a5,0(a5)
	sd	a5,-24(s0)
	.loc 1 267 13
	j	.L51
.L49:
	.loc 1 264 28
	lla	a5,gUserSelectableOptions
	ld	a5,0(a5)
	sd	a5,-24(s0)
	.loc 1 267 13
	j	.L51
.L47:
	.loc 1 269 32
	ld	a5,-48(s0)
	ld	a4,40(a5)
	.loc 1 269 60
	ld	a5,-48(s0)
	ld	a5,72(a5)
	.loc 1 269 16
	bleu	a4,a5,.L52
	.loc 1 270 28
	ld	a5,-24(s0)
	ld	a5,8(a5)
	sd	a5,-24(s0)
	.loc 1 275 13
	j	.L67
.L52:
	.loc 1 272 28
	lla	a5,gUserSelectableOptions
	ld	a5,8(a5)
	sd	a5,-24(s0)
.L67:
	.loc 1 275 13
	nop
.L51:
	.loc 1 280 9
	j	.L54
.L44:
	.loc 1 283 41
	ld	a5,-48(s0)
	lw	a4,24(a5)
	.loc 1 283 24
	ld	a5,-80(s0)
	sw	a4,0(a5)
	.loc 1 284 9
	j	.L34
.L65:
	.loc 1 286 23
	lhu	a5,-62(s0)
	.loc 1 286 44
	ori	a5,a5,32
	slli	a4,a5,48
	srli	a4,a4,48
	.loc 1 286 48
	la	a5,gConfirmOptYes
	ld	a5,0(a5)
	lhu	a5,0(a5)
	.loc 1 286 44
	ori	a5,a5,32
	slli	a5,a5,48
	srli	a5,a5,48
	.loc 1 286 12
	sext.w	a4,a4
	sext.w	a5,a5
	bne	a4,a5,.L55
	.loc 1 286 73 discriminator 1
	lw	a5,-68(s0)
	sext.w	a4,a5
	li	a5,2
	beq	a4,a5,.L56
	.loc 1 287 50
	lw	a5,-68(s0)
	sext.w	a4,a5
	li	a5,3
	bne	a4,a5,.L55
.L56:
	.loc 1 289 26
	ld	a5,-80(s0)
	li	a4,2
	sw	a4,0(a5)
	.loc 1 290 11
	j	.L34
.L55:
	.loc 1 291 30
	lhu	a5,-62(s0)
	.loc 1 291 51
	ori	a5,a5,32
	slli	a4,a5,48
	srli	a4,a4,48
	.loc 1 291 55
	la	a5,gConfirmOptNo
	ld	a5,0(a5)
	lhu	a5,0(a5)
	.loc 1 291 51
	ori	a5,a5,32
	slli	a5,a5,48
	srli	a5,a5,48
	.loc 1 291 19
	sext.w	a4,a4
	sext.w	a5,a5
	bne	a4,a5,.L57
	.loc 1 291 78 discriminator 1
	lw	a5,-68(s0)
	sext.w	a4,a5
	li	a5,2
	beq	a4,a5,.L58
	.loc 1 292 57
	lw	a5,-68(s0)
	sext.w	a4,a5
	li	a5,3
	bne	a4,a5,.L57
.L58:
	.loc 1 294 26
	ld	a5,-80(s0)
	li	a4,3
	sw	a4,0(a5)
	.loc 1 295 11
	j	.L34
.L57:
	.loc 1 296 30
	lhu	a5,-62(s0)
	.loc 1 296 51
	ori	a5,a5,32
	slli	a4,a5,48
	srli	a4,a4,48
	.loc 1 296 55
	la	a5,gConfirmOptOk
	ld	a5,0(a5)
	lhu	a5,0(a5)
	.loc 1 296 51
	ori	a5,a5,32
	slli	a5,a5,48
	srli	a5,a5,48
	.loc 1 296 19
	sext.w	a4,a4
	sext.w	a5,a5
	bne	a4,a5,.L59
	.loc 1 296 79 discriminator 1
	lw	a5,-68(s0)
	sext.w	a5,a5
	beq	a5,zero,.L60
	.loc 1 297 54
	lw	a5,-68(s0)
	sext.w	a4,a5
	li	a5,1
	bne	a4,a5,.L59
.L60:
	.loc 1 299 26
	ld	a5,-80(s0)
	sw	zero,0(a5)
	.loc 1 300 11
	j	.L34
.L59:
	.loc 1 301 30
	lhu	a5,-62(s0)
	.loc 1 301 51
	ori	a5,a5,32
	slli	a4,a5,48
	srli	a4,a4,48
	.loc 1 301 55
	la	a5,gConfirmOptCancel
	ld	a5,0(a5)
	lhu	a5,0(a5)
	.loc 1 301 51
	ori	a5,a5,32
	slli	a5,a5,48
	srli	a5,a5,48
	.loc 1 301 19
	sext.w	a4,a4
	sext.w	a5,a5
	bne	a4,a5,.L68
	.loc 1 301 82 discriminator 1
	lw	a5,-68(s0)
	sext.w	a4,a5
	li	a5,1
	beq	a4,a5,.L62
	.loc 1 302 60
	lw	a5,-68(s0)
	sext.w	a4,a5
	li	a5,3
	bne	a4,a5,.L68
.L62:
	.loc 1 304 26
	ld	a5,-80(s0)
	li	a4,1
	sw	a4,0(a5)
	.loc 1 305 11
	j	.L34
.L68:
	.loc 1 308 9
	nop
.L54:
	.loc 1 241 15
	j	.L63
.L66:
	.loc 1 250 7
	nop
.L34:
	.loc 1 311 1
	ld	ra,72(sp)
	.cfi_restore 1
	ld	s0,64(sp)
	.cfi_restore 8
	.cfi_def_cfa 2, 80
	addi	sp,sp,80
	.cfi_def_cfa_offset 0
	jr	ra
	.cfi_endproc
.LFE4:
	.size	GetUserSelection, .-GetUserSelection
	.section	.text.GetStringOffsetWithWidth,"ax",@progbits
	.align	1
	.globl	GetStringOffsetWithWidth
	.type	GetStringOffsetWithWidth, @function
GetStringOffsetWithWidth:
.LFB5:
	.loc 1 330 1
	.cfi_startproc
	addi	sp,sp,-80
	.cfi_def_cfa_offset 80
	sd	ra,72(sp)
	sd	s0,64(sp)
	.cfi_offset 1, -8
	.cfi_offset 8, -16
	addi	s0,sp,80
	.cfi_def_cfa 8, 0
	sd	a0,-56(s0)
	sd	a1,-64(s0)
	sd	a2,-72(s0)
	.loc 1 335 15
	sd	zero,-24(s0)
	.loc 1 336 13
	li	a5,1
	sd	a5,-32(s0)
	.loc 1 338 18
	sd	zero,-40(s0)
	.loc 1 338 3
	j	.L70
.L76:
	.loc 1 339 19
	ld	a5,-40(s0)
	slli	a5,a5,1
	ld	a4,-56(s0)
	add	a5,a4,a5
	lhu	a5,0(a5)
	sext.w	a5,a5
	.loc 1 339 5
	li	a4,65536
	addi	a4,a4,-16
	beq	a5,a4,.L71
	li	a4,65536
	addi	a4,a4,-15
	beq	a5,a4,.L72
	j	.L77
.L71:
	.loc 1 341 19
	li	a5,1
	sd	a5,-32(s0)
	.loc 1 342 9
	j	.L74
.L72:
	.loc 1 344 19
	li	a5,2
	sd	a5,-32(s0)
	.loc 1 345 9
	j	.L74
.L77:
	.loc 1 347 21
	ld	a4,-24(s0)
	ld	a5,-32(s0)
	add	a5,a4,a5
	sd	a5,-24(s0)
	.loc 1 348 12
	ld	a4,-24(s0)
	ld	a5,-64(s0)
	bltu	a4,a5,.L74
	.loc 1 349 19
	ld	a5,-72(s0)
	ld	a4,-40(s0)
	sd	a4,0(a5)
	.loc 1 350 11
	j	.L69
.L74:
	.loc 1 338 61 discriminator 2
	ld	a5,-40(s0)
	addi	a5,a5,1
	sd	a5,-40(s0)
.L70:
	.loc 1 338 29 discriminator 1
	ld	a5,-40(s0)
	slli	a5,a5,1
	ld	a4,-56(s0)
	add	a5,a4,a5
	lhu	a5,0(a5)
	.loc 1 338 41 discriminator 1
	bne	a5,zero,.L76
	.loc 1 355 11
	ld	a5,-72(s0)
	ld	a4,-40(s0)
	sd	a4,0(a5)
.L69:
	.loc 1 356 1
	ld	ra,72(sp)
	.cfi_restore 1
	ld	s0,64(sp)
	.cfi_restore 8
	.cfi_def_cfa 2, 80
	addi	sp,sp,80
	.cfi_def_cfa_offset 0
	jr	ra
	.cfi_endproc
.LFE5:
	.size	GetStringOffsetWithWidth, .-GetStringOffsetWithWidth
	.section	.text.ParseMessageString,"ax",@progbits
	.align	1
	.globl	ParseMessageString
	.type	ParseMessageString, @function
ParseMessageString:
.LFB6:
	.loc 1 380 1
	.cfi_startproc
	addi	sp,sp,-64
	.cfi_def_cfa_offset 64
	sd	ra,56(sp)
	sd	s0,48(sp)
	.cfi_offset 1, -8
	.cfi_offset 8, -16
	addi	s0,sp,64
	.cfi_def_cfa 8, 0
	sd	a0,-40(s0)
	sd	a1,-48(s0)
	sd	a2,-56(s0)
	sd	a3,-64(s0)
	.loc 1 383 6
	ld	a5,-40(s0)
	beq	a5,zero,.L79
	.loc 1 383 37 discriminator 1
	ld	a5,-64(s0)
	beq	a5,zero,.L79
	.loc 1 383 64 discriminator 2
	ld	a5,-48(s0)
	bne	a5,zero,.L80
.L79:
	.loc 1 384 12
	li	a5,0
	j	.L81
.L80:
	.loc 1 387 19
	ld	a5,-56(s0)
	sd	zero,0(a5)
	.loc 1 392 18
	sd	zero,-24(s0)
	.loc 1 392 3
	j	.L82
.L84:
	.loc 1 394 17
	ld	a5,-24(s0)
	addi	a5,a5,1
	sd	a5,-24(s0)
.L82:
	.loc 1 393 20
	ld	a5,-64(s0)
	ld	a4,0(a5)
	.loc 1 393 27
	ld	a5,-24(s0)
	add	a5,a4,a5
	.loc 1 393 19
	slli	a5,a5,1
	ld	a4,-40(s0)
	add	a5,a4,a5
	lhu	a5,0(a5)
	.loc 1 393 95
	sext.w	a4,a5
	li	a5,13
	beq	a4,a5,.L83
	.loc 1 393 65 discriminator 1
	ld	a5,-64(s0)
	ld	a4,0(a5)
	.loc 1 393 72 discriminator 1
	ld	a5,-24(s0)
	add	a5,a4,a5
	.loc 1 393 64 discriminator 1
	slli	a5,a5,1
	ld	a4,-40(s0)
	add	a5,a4,a5
	lhu	a5,0(a5)
	.loc 1 393 50 discriminator 1
	sext.w	a4,a5
	li	a5,10
	beq	a4,a5,.L83
	.loc 1 393 110 discriminator 2
	ld	a5,-64(s0)
	ld	a4,0(a5)
	.loc 1 393 117 discriminator 2
	ld	a5,-24(s0)
	add	a5,a4,a5
	.loc 1 393 109 discriminator 2
	slli	a5,a5,1
	ld	a4,-40(s0)
	add	a5,a4,a5
	lhu	a5,0(a5)
	.loc 1 393 95 discriminator 2
	bne	a5,zero,.L84
.L83:
	.loc 1 402 6
	ld	a5,-24(s0)
	bne	a5,zero,.L85
	.loc 1 402 40 discriminator 1
	ld	a5,-64(s0)
	ld	a4,0(a5)
	.loc 1 402 47 discriminator 1
	ld	a5,-24(s0)
	add	a5,a4,a5
	.loc 1 402 39 discriminator 1
	slli	a5,a5,1
	ld	a4,-40(s0)
	add	a5,a4,a5
	lhu	a5,0(a5)
	.loc 1 402 24 discriminator 1
	bne	a5,zero,.L85
	.loc 1 403 12
	li	a5,0
	j	.L81
.L85:
	.loc 1 409 48
	ld	a5,-24(s0)
	addi	a5,a5,1
	.loc 1 409 53
	slli	a5,a5,1
	.loc 1 409 19
	mv	a0,a5
	call	AllocateZeroPool@plt
	mv	a4,a0
	.loc 1 409 17 discriminator 1
	ld	a5,-48(s0)
	sd	a4,0(a5)
	.loc 1 410 7
	ld	a5,-48(s0)
	ld	a5,0(a5)
	.loc 1 410 6
	bne	a5,zero,.L86
	.loc 1 411 12
	li	a5,0
	j	.L81
.L86:
	.loc 1 414 3
	ld	a5,-48(s0)
	ld	a3,0(a5)
	.loc 1 414 42
	ld	a5,-64(s0)
	ld	a5,0(a5)
	.loc 1 414 41
	slli	a5,a5,1
	.loc 1 414 29
	ld	a4,-40(s0)
	add	a4,a4,a5
	.loc 1 414 61
	ld	a5,-24(s0)
	slli	a5,a5,1
	.loc 1 414 3
	mv	a2,a5
	mv	a1,a4
	mv	a0,a3
	call	CopyMem@plt
	.loc 1 415 22
	ld	a5,-48(s0)
	ld	a5,0(a5)
	mv	a0,a5
	call	GetStringWidth@plt
	mv	a5,a0
	.loc 1 415 53 discriminator 1
	addi	a5,a5,-2
	.loc 1 415 57 discriminator 1
	srli	a4,a5,1
	.loc 1 415 19 discriminator 1
	ld	a5,-56(s0)
	sd	a4,0(a5)
	.loc 1 420 19
	ld	a5,-64(s0)
	ld	a4,0(a5)
	.loc 1 420 26
	ld	a5,-24(s0)
	add	a5,a4,a5
	.loc 1 420 18
	slli	a5,a5,1
	ld	a4,-40(s0)
	add	a5,a4,a5
	lhu	a5,0(a5)
	.loc 1 420 6
	sext.w	a4,a5
	li	a5,10
	bne	a4,a5,.L87
	.loc 1 424 21
	ld	a5,-64(s0)
	ld	a4,0(a5)
	.loc 1 424 28
	ld	a5,-24(s0)
	add	a5,a4,a5
	.loc 1 424 20
	addi	a5,a5,1
	slli	a5,a5,1
	ld	a4,-40(s0)
	add	a5,a4,a5
	lhu	a5,0(a5)
	.loc 1 424 8
	sext.w	a4,a5
	li	a5,13
	bne	a4,a5,.L88
	.loc 1 425 17
	ld	a5,-64(s0)
	ld	a4,0(a5)
	.loc 1 425 24
	ld	a5,-24(s0)
	add	a5,a4,a5
	.loc 1 425 36
	addi	a4,a5,2
	.loc 1 425 14
	ld	a5,-64(s0)
	sd	a4,0(a5)
	j	.L89
.L88:
	.loc 1 427 17
	ld	a5,-64(s0)
	ld	a4,0(a5)
	.loc 1 427 24
	ld	a5,-24(s0)
	add	a5,a4,a5
	.loc 1 427 36
	addi	a4,a5,1
	.loc 1 427 14
	ld	a5,-64(s0)
	sd	a4,0(a5)
	j	.L89
.L87:
	.loc 1 429 26
	ld	a5,-64(s0)
	ld	a4,0(a5)
	.loc 1 429 33
	ld	a5,-24(s0)
	add	a5,a4,a5
	.loc 1 429 25
	slli	a5,a5,1
	ld	a4,-40(s0)
	add	a5,a4,a5
	lhu	a5,0(a5)
	.loc 1 429 13
	sext.w	a4,a5
	li	a5,13
	bne	a4,a5,.L90
	.loc 1 433 21
	ld	a5,-64(s0)
	ld	a4,0(a5)
	.loc 1 433 28
	ld	a5,-24(s0)
	add	a5,a4,a5
	.loc 1 433 20
	addi	a5,a5,1
	slli	a5,a5,1
	ld	a4,-40(s0)
	add	a5,a4,a5
	lhu	a5,0(a5)
	.loc 1 433 8
	sext.w	a4,a5
	li	a5,10
	bne	a4,a5,.L91
	.loc 1 434 17
	ld	a5,-64(s0)
	ld	a4,0(a5)
	.loc 1 434 24
	ld	a5,-24(s0)
	add	a5,a4,a5
	.loc 1 434 36
	addi	a4,a5,2
	.loc 1 434 14
	ld	a5,-64(s0)
	sd	a4,0(a5)
	j	.L89
.L91:
	.loc 1 436 17
	ld	a5,-64(s0)
	ld	a4,0(a5)
	.loc 1 436 24
	ld	a5,-24(s0)
	add	a5,a4,a5
	.loc 1 436 36
	addi	a4,a5,1
	.loc 1 436 14
	ld	a5,-64(s0)
	sd	a4,0(a5)
	j	.L89
.L90:
	.loc 1 439 15
	ld	a5,-64(s0)
	ld	a4,0(a5)
	.loc 1 439 22
	ld	a5,-24(s0)
	add	a4,a4,a5
	.loc 1 439 12
	ld	a5,-64(s0)
	sd	a4,0(a5)
.L89:
	.loc 1 442 20
	ld	a5,-24(s0)
	addi	a5,a5,1
.L81:
	.loc 1 443 1
	mv	a0,a5
	ld	ra,56(sp)
	.cfi_restore 1
	ld	s0,48(sp)
	.cfi_restore 8
	.cfi_def_cfa 2, 64
	addi	sp,sp,64
	.cfi_def_cfa_offset 0
	jr	ra
	.cfi_endproc
.LFE6:
	.size	ParseMessageString, .-ParseMessageString
	.section	.text.CalculatePopupPosition,"ax",@progbits
	.align	1
	.globl	CalculatePopupPosition
	.type	CalculatePopupPosition, @function
CalculatePopupPosition:
.LFB7:
	.loc 1 457 1
	.cfi_startproc
	addi	sp,sp,-96
	.cfi_def_cfa_offset 96
	sd	ra,88(sp)
	sd	s0,80(sp)
	sd	s1,72(sp)
	.cfi_offset 1, -8
	.cfi_offset 8, -16
	.cfi_offset 9, -24
	addi	s0,sp,96
	.cfi_def_cfa 8, 0
	mv	a5,a0
	sd	a1,-96(s0)
	sw	a5,-84(s0)
	.loc 1 465 18
	sd	zero,-40(s0)
	.loc 1 470 20
	sd	zero,-56(s0)
	.loc 1 470 3
	j	.L93
.L95:
	.loc 1 471 19
	lla	a5,gMesStrLineNum
	ld	a5,0(a5)
	addi	a4,a5,1
	lla	a5,gMesStrLineNum
	sd	a4,0(a5)
	.loc 1 472 22
	lla	a5,gMaxRowWidth
	ld	a4,0(a5)
	ld	a5,-64(s0)
	.loc 1 472 8
	bgeu	a4,a5,.L94
	.loc 1 473 20
	ld	a4,-64(s0)
	lla	a5,gMaxRowWidth
	sd	a4,0(a5)
.L94:
	.loc 1 476 5
	ld	a5,-48(s0)
	mv	a0,a5
	call	FreePool@plt
.L93:
	.loc 1 470 25 discriminator 1
	lla	a5,gMessageString
	ld	a5,0(a5)
	addi	a3,s0,-56
	addi	a2,s0,-64
	addi	a4,s0,-48
	mv	a1,a4
	mv	a0,a5
	call	ParseMessageString
	mv	a5,a0
	.loc 1 470 107 discriminator 2
	bne	a5,zero,.L95
	.loc 1 482 6
	lw	a5,-84(s0)
	sext.w	a5,a5
	bne	a5,zero,.L96
	.loc 1 483 29
	la	a5,gOkOption
	ld	a5,0(a5)
	mv	a0,a5
	call	StrLen@plt
	mv	a5,a0
	.loc 1 483 20 discriminator 1
	addi	a5,a5,4
	sd	a5,-40(s0)
	j	.L97
.L96:
	.loc 1 484 13
	lw	a5,-84(s0)
	sext.w	a4,a5
	li	a5,1
	bne	a4,a5,.L98
	.loc 1 485 30
	la	a5,gOkOption
	ld	a5,0(a5)
	mv	a0,a5
	call	StrLen@plt
	mv	s1,a0
	.loc 1 485 51 discriminator 1
	la	a5,gCancelOption
	ld	a5,0(a5)
	mv	a0,a5
	call	StrLen@plt
	mv	a5,a0
	.loc 1 485 49 discriminator 2
	add	a5,s1,a5
	.loc 1 485 20 discriminator 2
	addi	a5,a5,6
	sd	a5,-40(s0)
	j	.L97
.L98:
	.loc 1 486 13
	lw	a5,-84(s0)
	sext.w	a4,a5
	li	a5,2
	bne	a4,a5,.L99
	.loc 1 487 30
	la	a5,gYesOption
	ld	a5,0(a5)
	mv	a0,a5
	call	StrLen@plt
	mv	s1,a0
	.loc 1 487 52 discriminator 1
	la	a5,gNoOption
	ld	a5,0(a5)
	mv	a0,a5
	call	StrLen@plt
	mv	a5,a0
	.loc 1 487 50 discriminator 2
	add	a5,s1,a5
	.loc 1 487 20 discriminator 2
	addi	a5,a5,6
	sd	a5,-40(s0)
	j	.L97
.L99:
	.loc 1 488 13
	lw	a5,-84(s0)
	sext.w	a4,a5
	li	a5,3
	bne	a4,a5,.L97
	.loc 1 489 30
	la	a5,gYesOption
	ld	a5,0(a5)
	mv	a0,a5
	call	StrLen@plt
	mv	s1,a0
	.loc 1 489 52 discriminator 1
	la	a5,gNoOption
	ld	a5,0(a5)
	mv	a0,a5
	call	StrLen@plt
	mv	a5,a0
	.loc 1 489 50 discriminator 2
	add	s1,s1,a5
	.loc 1 489 73 discriminator 2
	la	a5,gCancelOption
	ld	a5,0(a5)
	mv	a0,a5
	call	StrLen@plt
	mv	a5,a0
	.loc 1 489 71 discriminator 3
	add	a5,s1,a5
	.loc 1 489 20 discriminator 3
	addi	a5,a5,8
	sd	a5,-40(s0)
.L97:
	.loc 1 492 22
	lla	a5,gMaxRowWidth
	ld	a5,0(a5)
	.loc 1 492 6
	ld	a4,-40(s0)
	bleu	a4,a5,.L100
	.loc 1 493 18
	lla	a5,gMaxRowWidth
	ld	a4,-40(s0)
	sd	a4,0(a5)
.L100:
	.loc 1 504 6
	la	a5,gST
	ld	a5,0(a5)
	ld	a5,64(a5)
	.loc 1 504 14
	ld	a5,24(a5)
	.loc 1 504 30
	la	a4,gST
	ld	a4,0(a4)
	.loc 1 504 3
	ld	a0,64(a4)
	.loc 1 504 43
	la	a4,gST
	ld	a4,0(a4)
	ld	a4,64(a4)
	.loc 1 504 51
	ld	a4,72(a4)
	.loc 1 504 57
	lw	a4,4(a4)
	.loc 1 504 3
	mv	a1,a4
	addi	a3,s0,-80
	addi	a4,s0,-72
	mv	a2,a4
	jalr	a5
.LVL2:
	.loc 1 505 46
	ld	a5,-72(s0)
	addi	a3,a5,-2
	.loc 1 505 73
	lla	a5,gMaxRowWidth
	ld	a4,0(a5)
	mv	a5,a3
	bleu	a5,a4,.L101
	mv	a5,a4
.L101:
	.loc 1 505 16
	lla	a4,gMaxRowWidth
	sd	a5,0(a4)
	.loc 1 506 64
	ld	a5,-80(s0)
	addi	a3,a5,-7
	.loc 1 506 99
	lla	a5,gMesStrLineNum
	ld	a4,0(a5)
	mv	a5,a3
	bleu	a5,a4,.L102
	mv	a5,a4
.L102:
	.loc 1 506 18
	lla	a4,gMesStrLineNum
	sd	a5,0(a4)
	.loc 1 511 48
	ld	a4,-72(s0)
	lla	a5,gMaxRowWidth
	ld	a5,0(a5)
	sub	a5,a4,a5
	addi	a5,a5,-2
	.loc 1 511 64
	srli	a4,a5,1
	.loc 1 511 30
	ld	a5,-96(s0)
	sd	a4,0(a5)
	.loc 1 512 47
	ld	a5,-96(s0)
	ld	a4,0(a5)
	.loc 1 512 60
	lla	a5,gMaxRowWidth
	ld	a5,0(a5)
	add	a5,a4,a5
	.loc 1 512 83
	addi	a4,a5,1
	.loc 1 512 31
	ld	a5,-96(s0)
	sd	a4,8(a5)
	.loc 1 513 66
	ld	a4,-80(s0)
	lla	a5,gMesStrLineNum
	ld	a5,0(a5)
	sub	a5,a4,a5
	addi	a5,a5,-7
	.loc 1 513 84
	srli	a4,a5,1
	.loc 1 513 26
	ld	a5,-96(s0)
	sd	a4,16(a5)
	.loc 1 514 45
	ld	a5,-96(s0)
	ld	a4,16(a5)
	.loc 1 514 54
	lla	a5,gMesStrLineNum
	ld	a5,0(a5)
	add	a5,a4,a5
	.loc 1 514 99
	addi	a4,a5,5
	.loc 1 514 29
	ld	a5,-96(s0)
	sd	a4,24(a5)
	.loc 1 515 1
	nop
	ld	ra,88(sp)
	.cfi_restore 1
	ld	s0,80(sp)
	.cfi_restore 8
	.cfi_def_cfa 2, 96
	ld	s1,72(sp)
	.cfi_restore 9
	addi	sp,sp,96
	.cfi_def_cfa_offset 0
	jr	ra
	.cfi_endproc
.LFE7:
	.size	CalculatePopupPosition, .-CalculatePopupPosition
	.section	.rodata
	.align	3
.LC1:
	.string	"."
	.string	"."
	.string	"."
	.zero	2
	.align	3
.LC2:
	.string	"."
	.string	"."
	.string	"."
	.string	"."
	.string	"."
	.string	"."
	.zero	2
	.section	.text.DrawMessageBox,"ax",@progbits
	.align	1
	.globl	DrawMessageBox
	.type	DrawMessageBox, @function
DrawMessageBox:
.LFB8:
	.loc 1 534 1
	.cfi_startproc
	addi	sp,sp,-144
	.cfi_def_cfa_offset 144
	sd	ra,136(sp)
	sd	s0,128(sp)
	.cfi_offset 1, -8
	.cfi_offset 8, -16
	addi	s0,sp,144
	.cfi_def_cfa 8, 0
	mv	a5,a0
	sw	a5,-132(s0)
	.loc 1 550 10
	lla	a5,gPopupDimensions
	ld	a5,8(a5)
	sd	a5,-40(s0)
	.loc 1 551 10
	lla	a5,gPopupDimensions
	ld	a5,16(a5)
	sd	a5,-48(s0)
	.loc 1 552 12
	lla	a5,gPopupDimensions
	ld	a5,0(a5)
	sd	a5,-56(s0)
	.loc 1 553 13
	lla	a5,gPopupDimensions
	ld	a5,24(a5)
	sd	a5,-64(s0)
	.loc 1 554 25
	ld	a4,-40(s0)
	ld	a5,-56(s0)
	sub	a5,a4,a5
	.loc 1 554 16
	addi	a5,a5,1
	sd	a5,-72(s0)
	.loc 1 555 20
	sd	zero,-32(s0)
	.loc 1 560 13
	li	a5,8192
	addi	a5,a5,1292
	sh	a5,-74(s0)
	.loc 1 561 3
	lhu	a5,-74(s0)
	mv	a2,a5
	ld	a1,-48(s0)
	ld	a0,-56(s0)
	call	PrintCharAt@plt
	.loc 1 562 13
	li	a5,8192
	addi	a5,a5,1280
	sh	a5,-74(s0)
	.loc 1 563 14
	ld	a5,-56(s0)
	sd	a5,-24(s0)
	.loc 1 563 3
	j	.L104
.L105:
	.loc 1 564 5
	lhu	a5,-74(s0)
	mv	a2,a5
	li	a1,-1
	li	a0,-1
	call	PrintCharAt@plt
	.loc 1 563 51 discriminator 3
	ld	a5,-24(s0)
	addi	a5,a5,1
	sd	a5,-24(s0)
.L104:
	.loc 1 563 32 discriminator 1
	ld	a5,-24(s0)
	addi	a5,a5,1
	.loc 1 563 36 discriminator 1
	ld	a4,-40(s0)
	bgtu	a4,a5,.L105
	.loc 1 567 13
	li	a5,8192
	addi	a5,a5,1296
	sh	a5,-74(s0)
	.loc 1 568 3
	lhu	a5,-74(s0)
	mv	a2,a5
	li	a1,-1
	li	a0,-1
	call	PrintCharAt@plt
	.loc 1 573 13
	li	a5,8192
	addi	a5,a5,1282
	sh	a5,-74(s0)
	.loc 1 574 14
	ld	a5,-48(s0)
	addi	a5,a5,1
	sd	a5,-88(s0)
	.loc 1 575 57
	call	GetPopupColor@plt
	mv	a5,a0
	.loc 1 575 3 discriminator 1
	mv	a4,a5
	ld	a3,-88(s0)
	ld	a2,-88(s0)
	ld	a1,-40(s0)
	ld	a0,-56(s0)
	call	ClearLines@plt
	.loc 1 576 3
	lhu	a5,-74(s0)
	mv	a2,a5
	ld	a1,-88(s0)
	ld	a0,-56(s0)
	call	PrintCharAt@plt
	.loc 1 577 3
	lhu	a5,-74(s0)
	mv	a2,a5
	ld	a1,-88(s0)
	ld	a0,-40(s0)
	call	PrintCharAt@plt
	.loc 1 578 6
	lw	a5,-132(s0)
	sext.w	a4,a5
	li	a5,2
	bne	a4,a5,.L106
	.loc 1 579 37
	la	a5,gErrorPopup
	ld	a5,0(a5)
	mv	a0,a5
	call	GetStringWidth@plt
	mv	a5,a0
	.loc 1 579 66 discriminator 1
	addi	a5,a5,-2
	.loc 1 579 71 discriminator 1
	srli	a5,a5,1
	.loc 1 579 34 discriminator 1
	ld	a4,-72(s0)
	sub	a5,a4,a5
	.loc 1 579 76 discriminator 1
	srli	a4,a5,1
	.loc 1 579 5 discriminator 1
	ld	a5,-56(s0)
	add	a4,a4,a5
	la	a5,gErrorPopup
	ld	a5,0(a5)
	mv	a2,a5
	ld	a1,-88(s0)
	mv	a0,a4
	call	PrintStringAt@plt
	j	.L107
.L106:
	.loc 1 580 13
	lw	a5,-132(s0)
	sext.w	a4,a5
	li	a5,1
	bne	a4,a5,.L108
	.loc 1 581 37
	la	a5,gWarningPopup
	ld	a5,0(a5)
	mv	a0,a5
	call	GetStringWidth@plt
	mv	a5,a0
	.loc 1 581 68 discriminator 1
	addi	a5,a5,-2
	.loc 1 581 73 discriminator 1
	srli	a5,a5,1
	.loc 1 581 34 discriminator 1
	ld	a4,-72(s0)
	sub	a5,a4,a5
	.loc 1 581 78 discriminator 1
	srli	a4,a5,1
	.loc 1 581 5 discriminator 1
	ld	a5,-56(s0)
	add	a4,a4,a5
	la	a5,gWarningPopup
	ld	a5,0(a5)
	mv	a2,a5
	ld	a1,-88(s0)
	mv	a0,a4
	call	PrintStringAt@plt
	j	.L107
.L108:
	.loc 1 583 37
	la	a5,gInfoPopup
	ld	a5,0(a5)
	mv	a0,a5
	call	GetStringWidth@plt
	mv	a5,a0
	.loc 1 583 65 discriminator 1
	addi	a5,a5,-2
	.loc 1 583 70 discriminator 1
	srli	a5,a5,1
	.loc 1 583 34 discriminator 1
	ld	a4,-72(s0)
	sub	a5,a4,a5
	.loc 1 583 75 discriminator 1
	srli	a4,a5,1
	.loc 1 583 5 discriminator 1
	ld	a5,-56(s0)
	add	a4,a4,a5
	la	a5,gInfoPopup
	ld	a5,0(a5)
	mv	a2,a5
	ld	a1,-88(s0)
	mv	a0,a4
	call	PrintStringAt@plt
.L107:
	.loc 1 589 14
	ld	a5,-48(s0)
	addi	a5,a5,2
	sd	a5,-88(s0)
	.loc 1 590 57
	call	GetPopupColor@plt
	mv	a5,a0
	.loc 1 590 3 discriminator 1
	mv	a4,a5
	ld	a3,-88(s0)
	ld	a2,-88(s0)
	ld	a1,-40(s0)
	ld	a0,-56(s0)
	call	ClearLines@plt
	.loc 1 591 13
	li	a5,8192
	addi	a5,a5,1280
	sh	a5,-74(s0)
	.loc 1 592 14
	ld	a5,-56(s0)
	addi	a5,a5,1
	sd	a5,-24(s0)
	.loc 1 592 3
	j	.L109
.L110:
	.loc 1 593 5
	lhu	a5,-74(s0)
	mv	a2,a5
	ld	a1,-88(s0)
	ld	a0,-24(s0)
	call	PrintCharAt@plt
	.loc 1 592 51 discriminator 3
	ld	a5,-24(s0)
	addi	a5,a5,1
	sd	a5,-24(s0)
.L109:
	.loc 1 592 36 discriminator 1
	ld	a4,-24(s0)
	ld	a5,-40(s0)
	bltu	a4,a5,.L110
	.loc 1 596 13
	li	a5,8192
	addi	a5,a5,1282
	sh	a5,-74(s0)
	.loc 1 597 3
	lhu	a5,-74(s0)
	mv	a2,a5
	ld	a1,-88(s0)
	ld	a0,-56(s0)
	call	PrintCharAt@plt
	.loc 1 598 3
	lhu	a5,-74(s0)
	mv	a2,a5
	ld	a1,-88(s0)
	ld	a0,-40(s0)
	call	PrintCharAt@plt
	.loc 1 603 14
	ld	a5,-48(s0)
	addi	a5,a5,3
	sd	a5,-88(s0)
	.loc 1 604 14
	ld	a5,-88(s0)
	sd	a5,-24(s0)
	.loc 1 604 40
	sd	zero,-112(s0)
	.loc 1 604 3
	j	.L111
.L117:
	.loc 1 605 49
	call	GetPopupColor@plt
	mv	a5,a0
	.loc 1 605 5 discriminator 1
	mv	a4,a5
	ld	a3,-24(s0)
	ld	a2,-24(s0)
	ld	a1,-40(s0)
	ld	a0,-56(s0)
	call	ClearLines@plt
	.loc 1 606 5
	lhu	a5,-74(s0)
	mv	a2,a5
	ld	a1,-24(s0)
	ld	a0,-56(s0)
	call	PrintCharAt@plt
	.loc 1 607 5
	lhu	a5,-74(s0)
	mv	a2,a5
	ld	a1,-24(s0)
	ld	a0,-40(s0)
	call	PrintCharAt@plt
	.loc 1 608 24
	ld	a4,-128(s0)
	lla	a5,gMaxRowWidth
	ld	a5,0(a5)
	.loc 1 608 8
	bleu	a4,a5,.L112
	.loc 1 612 7
	ld	a4,-120(s0)
	lla	a5,gMaxRowWidth
	ld	a5,0(a5)
	addi	a3,s0,-104
	mv	a2,a3
	mv	a1,a5
	mv	a0,a4
	call	GetStringOffsetWithWidth
	.loc 1 613 46
	ld	a5,-104(s0)
	addi	a5,a5,1
	.loc 1 613 51
	slli	a5,a5,1
	.loc 1 613 20
	mv	a0,a5
	call	AllocateZeroPool@plt
	sd	a0,-96(s0)
	.loc 1 614 10
	ld	a5,-96(s0)
	bne	a5,zero,.L113
	.loc 1 615 9
	ld	a5,-120(s0)
	mv	a0,a5
	call	FreePool@plt
	.loc 1 616 16
	li	a5,-1
	slli	a5,a5,63
	addi	a5,a5,9
	j	.L121
.L113:
	.loc 1 619 7
	ld	a5,-104(s0)
	addi	a4,a5,1
	ld	a2,-120(s0)
	ld	a5,-104(s0)
	addi	a5,a5,-3
	mv	a3,a5
	mv	a1,a4
	ld	a0,-96(s0)
	call	StrnCpyS@plt
	.loc 1 620 7
	ld	a5,-104(s0)
	addi	a5,a5,1
	lla	a2,.LC1
	mv	a1,a5
	ld	a0,-96(s0)
	call	StrCatS@plt
	.loc 1 621 36
	lla	a5,gMaxRowWidth
	ld	a5,0(a5)
	ld	a4,-72(s0)
	sub	a5,a4,a5
	.loc 1 621 52
	srli	a4,a5,1
	.loc 1 621 7
	ld	a5,-56(s0)
	add	a5,a4,a5
	ld	a2,-96(s0)
	ld	a1,-24(s0)
	mv	a0,a5
	call	PrintStringAt@plt
	.loc 1 622 7
	ld	a0,-96(s0)
	call	FreePool@plt
	j	.L115
.L112:
	.loc 1 624 36
	ld	a5,-128(s0)
	ld	a4,-72(s0)
	sub	a5,a4,a5
	.loc 1 624 54
	srli	a4,a5,1
	.loc 1 624 7
	ld	a5,-56(s0)
	add	a5,a4,a5
	ld	a4,-120(s0)
	mv	a2,a4
	ld	a1,-24(s0)
	mv	a0,a5
	call	PrintStringAt@plt
.L115:
	.loc 1 627 10
	ld	a5,-24(s0)
	addi	a5,a5,1
	sd	a5,-24(s0)
	.loc 1 628 21
	ld	a5,-32(s0)
	addi	a5,a5,1
	sd	a5,-32(s0)
	.loc 1 629 5
	ld	a5,-120(s0)
	mv	a0,a5
	call	FreePool@plt
.L111:
	.loc 1 604 45 discriminator 1
	lla	a5,gMessageString
	ld	a5,0(a5)
	addi	a3,s0,-112
	addi	a2,s0,-128
	addi	a4,s0,-120
	mv	a1,a4
	mv	a0,a5
	call	ParseMessageString
	mv	a5,a0
	.loc 1 604 132 discriminator 2
	beq	a5,zero,.L116
	.loc 1 604 152 discriminator 3
	lla	a5,gMesStrLineNum
	ld	a5,0(a5)
	.loc 1 604 132 discriminator 3
	ld	a4,-32(s0)
	bltu	a4,a5,.L117
.L116:
	.loc 1 635 47
	call	GetPopupColor@plt
	mv	a5,a0
	.loc 1 635 3 discriminator 1
	mv	a4,a5
	ld	a3,-24(s0)
	ld	a2,-24(s0)
	ld	a1,-40(s0)
	ld	a0,-56(s0)
	call	ClearLines@plt
	.loc 1 636 3
	lhu	a5,-74(s0)
	mv	a2,a5
	ld	a1,-24(s0)
	ld	a0,-56(s0)
	call	PrintCharAt@plt
	.loc 1 637 3
	lhu	a5,-74(s0)
	mv	a2,a5
	ld	a1,-24(s0)
	ld	a0,-40(s0)
	call	PrintCharAt@plt
	.loc 1 641 23
	ld	a5,-128(s0)
	.loc 1 641 6
	beq	a5,zero,.L118
	.loc 1 641 49 discriminator 1
	lla	a5,gMesStrLineNum
	ld	a5,0(a5)
	.loc 1 641 28 discriminator 1
	ld	a4,-32(s0)
	bltu	a4,a5,.L118
	.loc 1 642 36
	lla	a0,.LC2
	call	StrLen@plt
	mv	a4,a0
	.loc 1 642 34 discriminator 1
	ld	a5,-72(s0)
	sub	a5,a5,a4
	.loc 1 642 56 discriminator 1
	srli	a4,a5,1
	.loc 1 642 5 discriminator 1
	ld	a5,-56(s0)
	add	a5,a4,a5
	lla	a2,.LC2
	ld	a1,-24(s0)
	mv	a0,a5
	call	PrintStringAt@plt
.L118:
	.loc 1 648 13
	li	a5,8192
	addi	a5,a5,1282
	sh	a5,-74(s0)
	.loc 1 649 14
	ld	a5,-64(s0)
	addi	a5,a5,-1
	sd	a5,-88(s0)
	.loc 1 650 57
	call	GetPopupColor@plt
	mv	a5,a0
	.loc 1 650 3 discriminator 1
	mv	a4,a5
	ld	a3,-88(s0)
	ld	a2,-88(s0)
	ld	a1,-40(s0)
	ld	a0,-56(s0)
	call	ClearLines@plt
	.loc 1 651 3
	lhu	a5,-74(s0)
	mv	a2,a5
	ld	a1,-88(s0)
	ld	a0,-56(s0)
	call	PrintCharAt@plt
	.loc 1 652 3
	lhu	a5,-74(s0)
	mv	a2,a5
	ld	a1,-88(s0)
	ld	a0,-40(s0)
	call	PrintCharAt@plt
	.loc 1 657 13
	li	a5,8192
	addi	a5,a5,1300
	sh	a5,-74(s0)
	.loc 1 658 3
	lhu	a5,-74(s0)
	mv	a2,a5
	ld	a1,-64(s0)
	ld	a0,-56(s0)
	call	PrintCharAt@plt
	.loc 1 659 13
	li	a5,8192
	addi	a5,a5,1280
	sh	a5,-74(s0)
	.loc 1 660 14
	ld	a5,-56(s0)
	sd	a5,-24(s0)
	.loc 1 660 3
	j	.L119
.L120:
	.loc 1 661 5
	lhu	a5,-74(s0)
	mv	a2,a5
	li	a1,-1
	li	a0,-1
	call	PrintCharAt@plt
	.loc 1 660 51 discriminator 3
	ld	a5,-24(s0)
	addi	a5,a5,1
	sd	a5,-24(s0)
.L119:
	.loc 1 660 32 discriminator 1
	ld	a5,-24(s0)
	addi	a5,a5,1
	.loc 1 660 36 discriminator 1
	ld	a4,-40(s0)
	bgtu	a4,a5,.L120
	.loc 1 664 13
	li	a5,8192
	addi	a5,a5,1304
	sh	a5,-74(s0)
	.loc 1 665 3
	lhu	a5,-74(s0)
	mv	a2,a5
	li	a1,-1
	li	a0,-1
	call	PrintCharAt@plt
	.loc 1 667 10
	li	a5,0
.L121:
	.loc 1 668 1
	mv	a0,a5
	ld	ra,136(sp)
	.cfi_restore 1
	ld	s0,128(sp)
	.cfi_restore 8
	.cfi_def_cfa 2, 144
	addi	sp,sp,144
	.cfi_def_cfa_offset 0
	jr	ra
	.cfi_endproc
.LFE8:
	.size	DrawMessageBox, .-DrawMessageBox
	.section	.text.CreatePopup,"ax",@progbits
	.align	1
	.globl	CreatePopup
	.type	CreatePopup, @function
CreatePopup:
.LFB9:
	.loc 1 696 1
	.cfi_startproc
	addi	sp,sp,-128
	.cfi_def_cfa_offset 128
	sd	ra,120(sp)
	sd	s0,112(sp)
	sd	s1,104(sp)
	.cfi_offset 1, -8
	.cfi_offset 8, -16
	.cfi_offset 9, -24
	addi	s0,sp,128
	.cfi_def_cfa 8, 0
	sd	a0,-88(s0)
	sd	a3,-104(s0)
	sd	a5,-120(s0)
	mv	a5,a1
	sw	a5,-92(s0)
	mv	a5,a2
	sw	a5,-96(s0)
	mv	a5,a4
	sh	a5,-106(s0)
	.loc 1 701 6
	lw	a5,-96(s0)
	sext.w	a4,a5
	li	a5,3
	bleu	a4,a5,.L123
	.loc 1 702 12
	li	a5,-1
	slli	a5,a5,63
	addi	a5,a5,2
	j	.L131
.L123:
	.loc 1 705 6
	ld	a5,-104(s0)
	beq	a5,zero,.L125
	.loc 1 705 35 discriminator 1
	lhu	a5,-106(s0)
	sext.w	a5,a5
	bne	a5,zero,.L126
.L125:
	.loc 1 706 12
	li	a5,-1
	slli	a5,a5,63
	addi	a5,a5,2
	j	.L131
.L126:
	.loc 1 709 20
	lhu	a5,-106(s0)
	li	a2,0
	mv	a1,a5
	ld	a0,-104(s0)
	call	HiiGetString@plt
	mv	a4,a0
	.loc 1 709 18 discriminator 1
	lla	a5,gMessageString
	sd	a4,0(a5)
	.loc 1 710 22
	lla	a5,gMessageString
	ld	a5,0(a5)
	.loc 1 710 6
	bne	a5,zero,.L127
	.loc 1 711 12
	li	a5,-1
	slli	a5,a5,63
	addi	a5,a5,2
	j	.L131
.L127:
	.loc 1 714 15
	la	a5,gST
	ld	a5,0(a5)
	.loc 1 714 10
	ld	a5,64(a5)
	sd	a5,-48(s0)
	.loc 1 715 16
	lla	a5,gMaxRowWidth
	sd	zero,0(a5)
	.loc 1 716 18
	lla	a5,gMesStrLineNum
	sd	zero,0(a5)
	.loc 1 718 37
	ld	a5,-48(s0)
	ld	a4,72(a5)
	.loc 1 718 3
	addi	a5,s0,-72
	li	a2,24
	mv	a1,a4
	mv	a0,a5
	call	CopyMem@plt
	.loc 1 719 9
	ld	a5,-48(s0)
	ld	a5,64(a5)
	.loc 1 719 3
	li	a1,0
	ld	a0,-48(s0)
	jalr	a5
.LVL3:
	.loc 1 720 9
	ld	a5,-48(s0)
	ld	s1,40(a5)
	.loc 1 720 33
	call	GetPopupColor@plt
	mv	a5,a0
	.loc 1 720 3 discriminator 1
	mv	a1,a5
	ld	a0,-48(s0)
	jalr	s1
.LVL4:
	.loc 1 722 3
	lw	a5,-96(s0)
	lla	a1,gPopupDimensions
	mv	a0,a5
	call	CalculatePopupPosition
	.loc 1 724 12
	lw	a5,-92(s0)
	mv	a0,a5
	call	DrawMessageBox
	sd	a0,-40(s0)
	.loc 1 725 34
	ld	a5,-40(s0)
	.loc 1 725 6
	blt	a5,zero,.L132
	.loc 1 732 12
	lw	a5,-96(s0)
	mv	a0,a5
	call	AddUserSelectableOptions
	sd	a0,-40(s0)
	.loc 1 733 34
	ld	a5,-40(s0)
	.loc 1 733 6
	blt	a5,zero,.L133
	.loc 1 737 3
	lw	a5,-96(s0)
	ld	a1,-120(s0)
	mv	a0,a5
	call	GetUserSelection
	j	.L129
.L132:
	.loc 1 726 5
	nop
	j	.L129
.L133:
	.loc 1 734 5
	nop
.L129:
	.loc 1 743 9
	ld	a5,-48(s0)
	ld	a5,64(a5)
	.loc 1 743 3
	lbu	a4,-52(s0)
	mv	a1,a4
	ld	a0,-48(s0)
	jalr	a5
.LVL5:
	.loc 1 744 9
	ld	a5,-48(s0)
	ld	a5,56(a5)
	.loc 1 744 54
	lw	a4,-60(s0)
	.loc 1 744 3
	mv	a3,a4
	.loc 1 744 85
	lw	a4,-56(s0)
	.loc 1 744 3
	mv	a2,a4
	mv	a1,a3
	ld	a0,-48(s0)
	jalr	a5
.LVL6:
	.loc 1 745 9
	ld	a5,-48(s0)
	ld	a5,40(a5)
	.loc 1 745 49
	lw	a4,-64(s0)
	.loc 1 745 3
	mv	a1,a4
	ld	a0,-48(s0)
	jalr	a5
.LVL7:
	.loc 1 746 3
	lla	a0,gUserSelectableOptions
	call	FreeSelectableOptions
	.loc 1 747 3
	lla	a5,gMessageString
	ld	a5,0(a5)
	mv	a0,a5
	call	FreePool@plt
	.loc 1 749 10
	ld	a5,-40(s0)
.L131:
	.loc 1 750 1
	mv	a0,a5
	ld	ra,120(sp)
	.cfi_restore 1
	ld	s0,112(sp)
	.cfi_restore 8
	.cfi_def_cfa 2, 128
	ld	s1,104(sp)
	.cfi_restore 9
	addi	sp,sp,128
	.cfi_def_cfa_offset 0
	jr	ra
	.cfi_endproc
.LFE9:
	.size	CreatePopup, .-CreatePopup
	.section	.rodata
	.align	3
.LC0:
	.dword	-6148914691236517205
	.text
.Letext0:
	.file 2 "/home/kapoagaeming/spacemit-image-builder/components/edk2/MdePkg/Include/RiscV64/ProcessorBind.h"
	.file 3 "/home/kapoagaeming/spacemit-image-builder/components/edk2/MdePkg/Include/Base.h"
	.file 4 "/home/kapoagaeming/spacemit-image-builder/components/edk2/MdePkg/Include/Uefi/UefiBaseType.h"
	.file 5 "/home/kapoagaeming/spacemit-image-builder/components/edk2/MdePkg/Include/Uefi/UefiMultiPhase.h"
	.file 6 "/home/kapoagaeming/spacemit-image-builder/components/edk2/MdePkg/Include/Protocol/DevicePath.h"
	.file 7 "/home/kapoagaeming/spacemit-image-builder/components/edk2/MdePkg/Include/Protocol/SimpleTextIn.h"
	.file 8 "/home/kapoagaeming/spacemit-image-builder/components/edk2/MdePkg/Include/Protocol/SimpleTextOut.h"
	.file 9 "/home/kapoagaeming/spacemit-image-builder/components/edk2/MdePkg/Include/Uefi/UefiSpec.h"
	.file 10 "/home/kapoagaeming/spacemit-image-builder/components/edk2/MdePkg/Include/Uefi/UefiInternalFormRepresentation.h"
	.file 11 "/home/kapoagaeming/spacemit-image-builder/components/edk2/MdePkg/Include/Protocol/FormBrowser2.h"
	.file 12 "/home/kapoagaeming/spacemit-image-builder/components/edk2/MdePkg/Include/Protocol/HiiPopup.h"
	.file 13 "/home/kapoagaeming/spacemit-image-builder/components/edk2/MdeModulePkg/Universal/DisplayEngineDxe/FormDisplay.h"
	.file 14 "/home/kapoagaeming/spacemit-image-builder/components/edk2/MdeModulePkg/Include/Library/HiiLib.h"
	.file 15 "/home/kapoagaeming/spacemit-image-builder/components/edk2/MdePkg/Include/Library/BaseLib.h"
	.file 16 "/home/kapoagaeming/spacemit-image-builder/components/edk2/MdeModulePkg/Include/Library/CustomizedDisplayLib.h"
	.file 17 "/home/kapoagaeming/spacemit-image-builder/components/edk2/MdePkg/Include/Library/BaseMemoryLib.h"
	.file 18 "/home/kapoagaeming/spacemit-image-builder/components/edk2/MdePkg/Include/Library/MemoryAllocationLib.h"
	.file 19 "/home/kapoagaeming/spacemit-image-builder/components/edk2/MdePkg/Include/Library/UefiBootServicesTableLib.h"
	.section	.note.GNU-stack,"",@progbits
