	.file	"ComponentName.c"
	.option pic
	.option norelax
	.attribute arch, "rv64i2p1_m2p0_a2p1_f2p2_d2p2_c2p0_zicsr2p0_zifencei2p0_zmmul1p0_zaamo1p0_zalrsc1p0_zca1p0_zcd1p0"
	.attribute unaligned_access, 0
	.attribute stack_align, 16
	.text
.Ltext0:
	.cfi_sections	.debug_frame
	.file 0 "/home/kapoagaeming/spacemit-image-builder/components/Build/Milk-V-Jupiter/RELEASE_GCC5/RISCV64/Silicon/Spacemit/Drivers/MmcDxe/MmcDxe" "/home/kapoagaeming/spacemit-image-builder/components/edk2-platforms/Silicon/Spacemit/Drivers/MmcDxe/ComponentName.c"
	.globl	gMmcComponentName
	.section	.rodata
	.align	3
.LC0:
	.string	"eng"
	.section	.data.rel.local.gMmcComponentName,"aw"
	.align	3
	.type	gMmcComponentName, @object
	.size	gMmcComponentName, 24
gMmcComponentName:
	.dword	MmcGetDriverName
	.dword	MmcGetControllerName
	.dword	.LC0
	.globl	gMmcComponentName2
	.section	.rodata
	.align	3
.LC1:
	.string	"en"
	.section	.data.rel.local.gMmcComponentName2,"aw"
	.align	3
	.type	gMmcComponentName2, @object
	.size	gMmcComponentName2, 24
gMmcComponentName2:
	.dword	MmcGetDriverName
	.dword	MmcGetControllerName
	.dword	.LC1
	.globl	mMmcDriverNameTable
	.section	.rodata
	.align	3
.LC2:
	.string	"eng;en"
	.align	3
.LC3:
	.string	"M"
	.string	"M"
	.string	"C"
	.string	"/"
	.string	"S"
	.string	"D"
	.string	" "
	.string	"C"
	.string	"a"
	.string	"r"
	.string	"d"
	.string	" "
	.string	"I"
	.string	"n"
	.string	"t"
	.string	"e"
	.string	"r"
	.string	"f"
	.string	"a"
	.string	"c"
	.string	"e"
	.string	" "
	.string	"D"
	.string	"r"
	.string	"i"
	.string	"v"
	.string	"e"
	.string	"r"
	.zero	2
	.section	.data.rel.local.mMmcDriverNameTable,"aw"
	.align	3
	.type	mMmcDriverNameTable, @object
	.size	mMmcDriverNameTable, 32
mMmcDriverNameTable:
	.dword	.LC2
	.dword	.LC3
	.dword	0
	.dword	0
	.globl	mMmcControllerNameTable
	.section	.rodata
	.align	3
.LC4:
	.string	"M"
	.string	"M"
	.string	"C"
	.string	"/"
	.string	"S"
	.string	"D"
	.string	" "
	.string	"C"
	.string	"a"
	.string	"r"
	.string	"d"
	.string	" "
	.string	"H"
	.string	"o"
	.string	"s"
	.string	"t"
	.string	" "
	.string	"C"
	.string	"o"
	.string	"n"
	.string	"t"
	.string	"r"
	.string	"o"
	.string	"l"
	.string	"l"
	.string	"e"
	.string	"r"
	.zero	2
	.section	.data.rel.local.mMmcControllerNameTable,"aw"
	.align	3
	.type	mMmcControllerNameTable, @object
	.size	mMmcControllerNameTable, 32
mMmcControllerNameTable:
	.dword	.LC2
	.dword	.LC4
	.dword	0
	.dword	0
	.section	.text.MmcGetDriverName,"ax",@progbits
	.align	1
	.globl	MmcGetDriverName
	.type	MmcGetDriverName, @function
MmcGetDriverName:
.LFB0:
	.file 1 "/home/kapoagaeming/spacemit-image-builder/components/edk2-platforms/Silicon/Spacemit/Drivers/MmcDxe/ComponentName.c"
	.loc 1 84 1
	.cfi_startproc
	addi	sp,sp,-48
	.cfi_def_cfa_offset 48
	sd	ra,40(sp)
	sd	s0,32(sp)
	.cfi_offset 1, -8
	.cfi_offset 8, -16
	addi	s0,sp,48
	.cfi_def_cfa 8, 0
	sd	a0,-24(s0)
	sd	a1,-32(s0)
	sd	a2,-40(s0)
	.loc 1 87 36
	ld	a5,-24(s0)
	ld	a1,16(a5)
	.loc 1 90 32
	ld	a4,-24(s0)
	lla	a5,gMmcComponentName
	sub	a5,a4,a5
	seqz	a5,a5
	andi	a5,a5,0xff
	.loc 1 85 10
	mv	a4,a5
	ld	a3,-40(s0)
	lla	a2,mMmcDriverNameTable
	ld	a0,-32(s0)
	call	LookupUnicodeString2@plt
	mv	a5,a0
	.loc 1 92 1
	mv	a0,a5
	ld	ra,40(sp)
	.cfi_restore 1
	ld	s0,32(sp)
	.cfi_restore 8
	.cfi_def_cfa 2, 48
	addi	sp,sp,48
	.cfi_def_cfa_offset 0
	jr	ra
	.cfi_endproc
.LFE0:
	.size	MmcGetDriverName, .-MmcGetDriverName
	.section	.text.MmcGetControllerName,"ax",@progbits
	.align	1
	.globl	MmcGetControllerName
	.type	MmcGetControllerName, @function
MmcGetControllerName:
.LFB1:
	.loc 1 161 1
	.cfi_startproc
	addi	sp,sp,-96
	.cfi_def_cfa_offset 96
	sd	ra,88(sp)
	sd	s0,80(sp)
	.cfi_offset 1, -8
	.cfi_offset 8, -16
	addi	s0,sp,96
	.cfi_def_cfa 8, 0
	sd	a0,-56(s0)
	sd	a1,-64(s0)
	sd	a2,-72(s0)
	sd	a3,-80(s0)
	sd	a4,-88(s0)
	.loc 1 172 51
	la	a5,gMmcDriverBinding
	ld	a5,40(a5)
	.loc 1 170 12
	la	a2,gEmbeddedMmcHostProtocolGuid
	mv	a1,a5
	ld	a0,-64(s0)
	call	EfiTestManagedDevice@plt
	sd	a0,-40(s0)
	.loc 1 176 34
	ld	a5,-40(s0)
	.loc 1 176 6
	bge	a5,zero,.L4
	.loc 1 177 12
	ld	a5,-40(s0)
	j	.L11
.L4:
	.loc 1 180 23
	lla	a5,mMmcControllerNameTable
	sd	a5,-32(s0)
	.loc 1 181 6
	ld	a5,-72(s0)
	beq	a5,zero,.L6
	.loc 1 182 14
	la	a2,gEmbeddedMmcHostProtocolGuid
	ld	a1,-72(s0)
	ld	a0,-64(s0)
	call	EfiTestChildHandle@plt
	sd	a0,-40(s0)
	.loc 1 188 36
	ld	a5,-40(s0)
	.loc 1 188 8
	bge	a5,zero,.L7
	.loc 1 189 14
	ld	a5,-40(s0)
	j	.L11
.L7:
	.loc 1 195 17
	la	a5,gBS
	ld	a5,0(a5)
	ld	a6,280(a5)
	.loc 1 195 14
	la	a5,gMmcDriverBinding
	ld	a3,40(a5)
	addi	a2,s0,-48
	li	a5,2
	ld	a4,-72(s0)
	la	a1,gEmbeddedMmcHostProtocolGuid
	ld	a0,-72(s0)
	jalr	a6
.LVL0:
	sd	a0,-40(s0)
	.loc 1 204 36
	ld	a5,-40(s0)
	.loc 1 204 8
	bge	a5,zero,.L8
	.loc 1 205 14
	li	a5,-1
	slli	a5,a5,63
	addi	a5,a5,3
	j	.L11
.L8:
	.loc 1 208 47
	ld	a5,-48(s0)
	.loc 1 208 25
	addi	a5,a5,-152
	.loc 1 208 137
	ld	a4,0(a5)
	.loc 1 208 222
	li	a5,1751347200
	addi	a5,a5,-659
	bne	a4,a5,.L9
	.loc 1 208 247 discriminator 1
	ld	a5,-48(s0)
	.loc 1 208 21 discriminator 1
	addi	a5,a5,-152
	sd	a5,-24(s0)
	j	.L10
.L9:
	.loc 1 208 21 is_stmt 0 discriminator 2
	sd	zero,-24(s0)
.L10:
	.loc 1 209 25 is_stmt 1
	ld	a5,-24(s0)
	ld	a5,160(a5)
	sd	a5,-32(s0)
.L6:
	.loc 1 214 36
	ld	a5,-56(s0)
	ld	a1,16(a5)
	.loc 1 217 32
	ld	a4,-56(s0)
	lla	a5,gMmcComponentName
	sub	a5,a4,a5
	seqz	a5,a5
	andi	a5,a5,0xff
	.loc 1 212 10
	mv	a4,a5
	ld	a3,-88(s0)
	ld	a2,-32(s0)
	ld	a0,-80(s0)
	call	LookupUnicodeString2@plt
	mv	a5,a0
.L11:
	.loc 1 219 1
	mv	a0,a5
	ld	ra,88(sp)
	.cfi_restore 1
	ld	s0,80(sp)
	.cfi_restore 8
	.cfi_def_cfa 2, 96
	addi	sp,sp,96
	.cfi_def_cfa_offset 0
	jr	ra
	.cfi_endproc
.LFE1:
	.size	MmcGetControllerName, .-MmcGetControllerName
	.text
.Letext0:
	.file 2 "/home/kapoagaeming/spacemit-image-builder/components/edk2/MdePkg/Include/RiscV64/ProcessorBind.h"
	.file 3 "/home/kapoagaeming/spacemit-image-builder/components/edk2/MdePkg/Include/Base.h"
	.file 4 "/home/kapoagaeming/spacemit-image-builder/components/edk2/MdePkg/Include/Uefi/UefiBaseType.h"
	.file 5 "/home/kapoagaeming/spacemit-image-builder/components/edk2/MdePkg/Include/Uefi/UefiMultiPhase.h"
	.file 6 "/home/kapoagaeming/spacemit-image-builder/components/edk2/MdePkg/Include/Protocol/DevicePath.h"
	.file 7 "/home/kapoagaeming/spacemit-image-builder/components/edk2/MdePkg/Include/Uefi/UefiSpec.h"
	.file 8 "/home/kapoagaeming/spacemit-image-builder/components/edk2/MdePkg/Include/Protocol/BlockIo.h"
	.file 9 "/home/kapoagaeming/spacemit-image-builder/components/edk2/EmbeddedPkg/Include/Protocol/MmcHost.h"
	.file 10 "/home/kapoagaeming/spacemit-image-builder/components/edk2/MdePkg/Include/Protocol/DiskInfo.h"
	.file 11 "/home/kapoagaeming/spacemit-image-builder/components/edk2/MdePkg/Include/Protocol/DriverBinding.h"
	.file 12 "/home/kapoagaeming/spacemit-image-builder/components/edk2/MdePkg/Include/Protocol/ComponentName.h"
	.file 13 "/home/kapoagaeming/spacemit-image-builder/components/edk2/MdePkg/Include/Protocol/ComponentName2.h"
	.file 14 "/home/kapoagaeming/spacemit-image-builder/components/edk2/MdePkg/Include/Library/UefiLib.h"
	.file 15 "/home/kapoagaeming/spacemit-image-builder/components/edk2/MdePkg/Include/IndustryStandard/Emmc.h"
	.file 16 "/home/kapoagaeming/spacemit-image-builder/components/edk2-platforms/Silicon/Spacemit/Drivers/MmcDxe/Mmc.h"
	.file 17 "/home/kapoagaeming/spacemit-image-builder/components/Build/Milk-V-Jupiter/RELEASE_GCC5/RISCV64/Silicon/Spacemit/Drivers/MmcDxe/MmcDxe/DEBUG/AutoGen.h"
	.file 18 "/home/kapoagaeming/spacemit-image-builder/components/edk2/MdePkg/Include/Library/UefiBootServicesTableLib.h"
	.section	.note.GNU-stack,"",@progbits
