	.file	"MmcIdentification.c"
	.option pic
	.option norelax
	.attribute arch, "rv64i2p1_m2p0_a2p1_f2p2_d2p2_c2p0_zicsr2p0_zifencei2p0_zmmul1p0_zaamo1p0_zalrsc1p0_zca1p0_zcd1p0"
	.attribute unaligned_access, 0
	.attribute stack_align, 16
	.text
.Ltext0:
	.cfi_sections	.debug_frame
	.file 0 "/home/kapoagaeming/Downloads/spacemit-image-builder/components/Build/Milk-V-Jupiter/RELEASE_GCC5/RISCV64/Silicon/Spacemit/Drivers/MmcDxe/MmcDxe" "/home/kapoagaeming/Downloads/spacemit-image-builder/components/edk2-platforms/Silicon/Spacemit/Drivers/MmcDxe/MmcIdentification.c"
	.globl	mEmmcRcaCount
	.section	.bss.mEmmcRcaCount,"aw",@nobits
	.align	2
	.type	mEmmcRcaCount, @object
	.size	mEmmcRcaCount, 4
mEmmcRcaCount:
	.zero	4
	.section	.text.EmmcGetDeviceState,"ax",@progbits
	.align	1
	.type	EmmcGetDeviceState, @function
EmmcGetDeviceState:
.LFB0:
	.file 1 "/home/kapoagaeming/Downloads/spacemit-image-builder/components/edk2-platforms/Silicon/Spacemit/Drivers/MmcDxe/MmcIdentification.c"
	.loc 1 72 1
	.cfi_startproc
	addi	sp,sp,-64
	.cfi_def_cfa_offset 64
	sd	ra,56(sp)
	sd	s0,48(sp)
	.cfi_offset 1, -8
	.cfi_offset 8, -16
	addi	s0,sp,64
	.cfi_def_cfa 8, 0
	sd	a0,-56(s0)
	sd	a1,-64(s0)
	.loc 1 77 6
	ld	a5,-64(s0)
	bne	a5,zero,.L2
	.loc 1 78 12
	li	a5,-1
	slli	a5,a5,63
	addi	a5,a5,2
	j	.L7
.L2:
	.loc 1 81 8
	ld	a5,-56(s0)
	ld	a5,152(a5)
	sd	a5,-24(s0)
	.loc 1 82 34
	ld	a5,-56(s0)
	lhu	a5,96(a5)
	.loc 1 82 39
	sext.w	a5,a5
	.loc 1 82 7
	slliw	a5,a5,16
	sw	a5,-28(s0)
	.loc 1 83 16
	ld	a5,-24(s0)
	ld	a5,40(a5)
	.loc 1 83 12
	lw	a4,-28(s0)
	mv	a2,a4
	li	a4,65536
	addi	a1,a4,13
	ld	a0,-24(s0)
	jalr	a5
.LVL0:
	sd	a0,-40(s0)
	.loc 1 84 34
	ld	a5,-40(s0)
	.loc 1 84 6
	bge	a5,zero,.L4
	.loc 1 86 12
	ld	a5,-40(s0)
	j	.L7
.L4:
	.loc 1 89 16
	ld	a5,-24(s0)
	ld	a5,48(a5)
	.loc 1 89 12
	addi	a4,s0,-44
	mv	a2,a4
	li	a1,0
	ld	a0,-24(s0)
	jalr	a5
.LVL1:
	sd	a0,-40(s0)
	.loc 1 90 34
	ld	a5,-40(s0)
	.loc 1 90 6
	bge	a5,zero,.L5
	.loc 1 92 12
	ld	a5,-40(s0)
	j	.L7
.L5:
	.loc 1 95 12
	lw	a5,-44(s0)
	andi	a5,a5,128
	sext.w	a5,a5
	.loc 1 95 6
	beq	a5,zero,.L6
	.loc 1 97 12
	li	a5,-1
	slli	a5,a5,63
	addi	a5,a5,7
	j	.L7
.L6:
	.loc 1 100 21
	lw	a5,-44(s0)
	srliw	a5,a5,9
	sext.w	a5,a5
	.loc 1 100 27
	andi	a5,a5,15
	sext.w	a4,a5
	.loc 1 100 10
	ld	a5,-64(s0)
	sw	a4,0(a5)
	.loc 1 101 10
	li	a5,0
.L7:
	.loc 1 102 1
	mv	a0,a5
	ld	ra,56(sp)
	.cfi_restore 1
	ld	s0,48(sp)
	.cfi_restore 8
	.cfi_def_cfa 2, 64
	addi	sp,sp,64
	.cfi_def_cfa_offset 0
	jr	ra
	.cfi_endproc
.LFE0:
	.size	EmmcGetDeviceState, .-EmmcGetDeviceState
	.section	.text.EmmcSetEXTCSD,"ax",@progbits
	.align	1
	.type	EmmcSetEXTCSD, @function
EmmcSetEXTCSD:
.LFB1:
	.loc 1 112 1
	.cfi_startproc
	addi	sp,sp,-64
	.cfi_def_cfa_offset 64
	sd	ra,56(sp)
	sd	s0,48(sp)
	.cfi_offset 1, -8
	.cfi_offset 8, -16
	addi	s0,sp,64
	.cfi_def_cfa 8, 0
	sd	a0,-56(s0)
	mv	a5,a1
	mv	a4,a2
	sw	a5,-60(s0)
	mv	a5,a4
	sw	a5,-64(s0)
	.loc 1 118 8
	ld	a5,-56(s0)
	ld	a5,152(a5)
	sd	a5,-24(s0)
	.loc 1 119 60
	lw	a5,-60(s0)
	slliw	a5,a5,16
	sext.w	a5,a5
	mv	a4,a5
	li	a5,16711680
	and	a5,a4,a5
	sext.w	a4,a5
	.loc 1 120 32
	lw	a5,-64(s0)
	slliw	a5,a5,8
	sext.w	a5,a5
	slli	a5,a5,48
	srli	a5,a5,48
	sext.w	a5,a5
	.loc 1 119 67
	or	a5,a4,a5
	sext.w	a5,a5
	.loc 1 119 12
	mv	a4,a5
	li	a5,50331648
	addi	a5,a5,1
	or	a5,a4,a5
	sw	a5,-28(s0)
	.loc 1 121 16
	ld	a5,-24(s0)
	ld	a5,40(a5)
	.loc 1 121 12
	lw	a4,-28(s0)
	mv	a2,a4
	li	a4,65536
	addi	a1,a4,6
	ld	a0,-24(s0)
	jalr	a5
.LVL2:
	sd	a0,-40(s0)
	.loc 1 122 34
	ld	a5,-40(s0)
	.loc 1 122 6
	bge	a5,zero,.L9
	.loc 1 124 12
	ld	a5,-40(s0)
	j	.L12
.L9:
	.loc 1 129 14
	addi	a5,s0,-44
	mv	a1,a5
	ld	a0,-56(s0)
	call	EmmcGetDeviceState
	sd	a0,-40(s0)
	.loc 1 130 36
	ld	a5,-40(s0)
	.loc 1 130 8
	bge	a5,zero,.L11
	.loc 1 132 14
	ld	a5,-40(s0)
	j	.L12
.L11:
	.loc 1 134 18
	lw	a4,-44(s0)
	li	a5,7
	beq	a4,a5,.L9
	.loc 1 136 10
	li	a5,0
.L12:
	.loc 1 137 1
	mv	a0,a5
	ld	ra,56(sp)
	.cfi_restore 1
	ld	s0,48(sp)
	.cfi_restore 8
	.cfi_def_cfa 2, 64
	addi	sp,sp,64
	.cfi_def_cfa_offset 0
	jr	ra
	.cfi_endproc
.LFE1:
	.size	EmmcSetEXTCSD, .-EmmcSetEXTCSD
	.section	.text.EmmcIdentificationMode,"ax",@progbits
	.align	1
	.type	EmmcIdentificationMode, @function
EmmcIdentificationMode:
.LFB2:
	.loc 1 146 1
	.cfi_startproc
	addi	sp,sp,-96
	.cfi_def_cfa_offset 96
	sd	ra,88(sp)
	sd	s0,80(sp)
	.cfi_offset 1, -8
	.cfi_offset 8, -16
	addi	s0,sp,96
	.cfi_def_cfa 8, 0
	sd	a0,-88(s0)
	sw	a1,-96(s0)
	.loc 1 156 8
	ld	a5,-88(s0)
	ld	a5,152(a5)
	sd	a5,-40(s0)
	.loc 1 157 9
	ld	a5,-88(s0)
	ld	a5,56(a5)
	sd	a5,-32(s0)
	.loc 1 158 7
	ld	a5,-88(s0)
	addi	a5,a5,108
	sd	a5,-24(s0)
	.loc 1 159 7
	ld	a5,-88(s0)
	addi	a5,a5,124
	sd	a5,-56(s0)
	.loc 1 162 16
	ld	a5,-40(s0)
	ld	a5,40(a5)
	.loc 1 162 12
	li	a2,0
	li	a4,196608
	addi	a1,a4,2
	ld	a0,-40(s0)
	jalr	a5
.LVL3:
	sd	a0,-48(s0)
	.loc 1 163 34
	ld	a5,-48(s0)
	.loc 1 163 6
	bge	a5,zero,.L14
	.loc 1 165 12
	ld	a5,-48(s0)
	j	.L27
.L14:
	.loc 1 168 16
	ld	a5,-40(s0)
	ld	a5,48(a5)
	.loc 1 168 12
	addi	a4,s0,-80
	mv	a2,a4
	li	a1,1
	ld	a0,-40(s0)
	jalr	a5
.LVL4:
	sd	a0,-48(s0)
	.loc 1 169 34
	ld	a5,-48(s0)
	.loc 1 169 6
	bge	a5,zero,.L16
	.loc 1 171 12
	ld	a5,-48(s0)
	j	.L27
.L16:
	.loc 1 174 3
	ld	a5,-24(s0)
	addi	a5,a5,1
	addi	a4,s0,-80
	li	a2,15
	mv	a1,a4
	mv	a0,a5
	call	CopyMem@plt
	.loc 1 175 3
	ld	a0,-24(s0)
	call	PrintEmmcCid@plt
	.loc 1 178 35
	lla	a5,mEmmcRcaCount
	lw	a5,0(a5)
	addiw	a5,a5,1
	sext.w	a4,a5
	.loc 1 178 33
	lla	a5,mEmmcRcaCount
	sw	a4,0(a5)
	.loc 1 178 35
	lla	a5,mEmmcRcaCount
	lw	a5,0(a5)
	.loc 1 178 33
	slli	a4,a5,48
	srli	a4,a4,48
	ld	a5,-88(s0)
	sh	a4,96(a5)
	.loc 1 179 34
	ld	a5,-88(s0)
	lhu	a5,96(a5)
	.loc 1 179 39
	sext.w	a5,a5
	.loc 1 179 7
	slliw	a5,a5,16
	sw	a5,-60(s0)
	.loc 1 180 16
	ld	a5,-40(s0)
	ld	a5,40(a5)
	.loc 1 180 12
	lw	a4,-60(s0)
	mv	a2,a4
	li	a4,65536
	addi	a1,a4,3
	ld	a0,-40(s0)
	jalr	a5
.LVL5:
	sd	a0,-48(s0)
	.loc 1 181 34
	ld	a5,-48(s0)
	.loc 1 181 6
	bge	a5,zero,.L17
	.loc 1 183 12
	ld	a5,-48(s0)
	j	.L27
.L17:
	.loc 1 187 16
	ld	a5,-40(s0)
	ld	a5,40(a5)
	.loc 1 187 12
	lw	a4,-60(s0)
	mv	a2,a4
	li	a4,196608
	addi	a1,a4,9
	ld	a0,-40(s0)
	jalr	a5
.LVL6:
	sd	a0,-48(s0)
	.loc 1 188 34
	ld	a5,-48(s0)
	.loc 1 188 6
	bge	a5,zero,.L18
	.loc 1 190 12
	ld	a5,-48(s0)
	j	.L27
.L18:
	.loc 1 193 16
	ld	a5,-40(s0)
	ld	a5,48(a5)
	.loc 1 193 12
	addi	a4,s0,-80
	mv	a2,a4
	li	a1,1
	ld	a0,-40(s0)
	jalr	a5
.LVL7:
	sd	a0,-48(s0)
	.loc 1 194 34
	ld	a5,-48(s0)
	.loc 1 194 6
	bge	a5,zero,.L19
	.loc 1 196 12
	ld	a5,-48(s0)
	j	.L27
.L19:
	.loc 1 199 3
	ld	a5,-56(s0)
	addi	a5,a5,1
	addi	a4,s0,-80
	li	a2,15
	mv	a1,a4
	mv	a0,a5
	call	CopyMem@plt
	.loc 1 200 3
	ld	a0,-56(s0)
	call	PrintEmmcCsd@plt
	.loc 1 203 16
	ld	a5,-40(s0)
	ld	a5,40(a5)
	.loc 1 203 12
	lw	a4,-60(s0)
	mv	a2,a4
	li	a4,65536
	addi	a1,a4,7
	ld	a0,-40(s0)
	jalr	a5
.LVL8:
	sd	a0,-48(s0)
	.loc 1 208 12
	ld	a5,-40(s0)
	lw	a4,0(a5)
	.loc 1 208 6
	li	a5,65536
	addi	a5,a5,1
	bleu	a4,a5,.L20
	.loc 1 208 44 discriminator 1
	ld	a5,-40(s0)
	ld	a5,72(a5)
	.loc 1 208 37 discriminator 1
	beq	a5,zero,.L20
	.loc 1 210 18
	ld	a5,-40(s0)
	ld	a5,72(a5)
	.loc 1 210 14
	li	a3,0
	li	a2,1
	li	a1,0
	ld	a0,-40(s0)
	jalr	a5
.LVL9:
	sd	a0,-48(s0)
	.loc 1 211 36
	ld	a5,-48(s0)
	.loc 1 211 8
	bge	a5,zero,.L21
	.loc 1 213 14
	ld	a5,-48(s0)
	j	.L27
.L21:
	.loc 1 217 14
	li	a2,0
	li	a1,183
	ld	a0,-88(s0)
	call	EmmcSetEXTCSD
	sd	a0,-48(s0)
	.loc 1 218 36
	ld	a5,-48(s0)
	.loc 1 218 8
	bge	a5,zero,.L20
	.loc 1 220 14
	ld	a5,-48(s0)
	j	.L27
.L20:
	.loc 1 225 38
	li	a0,1
	call	AllocatePages@plt
	mv	a4,a0
	.loc 1 225 36 discriminator 1
	ld	a5,-88(s0)
	sd	a4,144(a5)
	.loc 1 226 32
	ld	a5,-88(s0)
	ld	a5,144(a5)
	.loc 1 226 6
	bne	a5,zero,.L22
	.loc 1 227 12
	li	a5,-1
	slli	a5,a5,63
	addi	a5,a5,9
	j	.L27
.L22:
	.loc 1 230 16
	ld	a5,-40(s0)
	ld	a5,40(a5)
	.loc 1 230 12
	li	a2,0
	li	a4,65536
	addi	a1,a4,8
	ld	a0,-40(s0)
	jalr	a5
.LVL10:
	sd	a0,-48(s0)
	.loc 1 235 16
	ld	a5,-40(s0)
	ld	a5,56(a5)
	.loc 1 235 82
	ld	a4,-88(s0)
	ld	a4,144(a4)
	.loc 1 235 12
	mv	a3,a4
	li	a2,512
	li	a1,0
	ld	a0,-40(s0)
	jalr	a5
.LVL11:
	sd	a0,-48(s0)
	.loc 1 236 34
	ld	a5,-48(s0)
	.loc 1 236 6
	blt	a5,zero,.L28
	.loc 1 241 3
	ld	a5,-88(s0)
	ld	a5,144(a5)
	mv	a0,a5
	call	PrintEmmcExtCsd@plt
.L26:
	.loc 1 245 14
	addi	a5,s0,-64
	mv	a1,a5
	ld	a0,-88(s0)
	call	EmmcGetDeviceState
	sd	a0,-48(s0)
	.loc 1 246 36
	ld	a5,-48(s0)
	.loc 1 246 8
	blt	a5,zero,.L29
	.loc 1 250 18
	lw	a4,-64(s0)
	li	a5,5
	beq	a4,a5,.L26
	.loc 1 253 20
	ld	a5,-32(s0)
	li	a4,512
	sw	a4,12(a5)
	.loc 1 254 47
	ld	a5,-24(s0)
	addi	a5,a5,2
	.loc 1 254 20
	mv	a0,a5
	call	ReadUnaligned32@plt
	mv	a5,a0
	mv	a4,a5
	.loc 1 254 18 discriminator 1
	ld	a5,-32(s0)
	sw	a4,0(a5)
	.loc 1 255 24
	ld	a5,-56(s0)
	lbu	a5,1(a5)
	srliw	a5,a5,5
	andi	a5,a5,1
	andi	a5,a5,0xff
	mv	a4,a5
	.loc 1 255 19
	ld	a5,-32(s0)
	sb	a4,7(a5)
	.loc 1 256 40
	ld	a5,-32(s0)
	li	a4,1
	sw	a4,40(a5)
	.loc 1 257 18
	ld	a5,-32(s0)
	li	a4,4
	sw	a4,16(a5)
	.loc 1 259 74
	ld	a5,-88(s0)
	ld	a5,144(a5)
	.loc 1 259 49
	addi	a5,a5,212
	.loc 1 259 22
	mv	a0,a5
	call	ReadUnaligned32@plt
	mv	a5,a0
	.loc 1 259 93 discriminator 1
	addiw	a5,a5,-1
	sext.w	a5,a5
	slli	a4,a5,32
	srli	a4,a4,32
	.loc 1 259 20 discriminator 1
	ld	a5,-32(s0)
	sd	a4,24(a5)
	.loc 1 263 38
	ld	a5,-88(s0)
	li	a4,3
	sw	a4,100(a5)
	.loc 1 264 10
	li	a5,0
	j	.L27
.L28:
	.loc 1 238 5
	nop
	j	.L24
.L29:
	.loc 1 248 7
	nop
.L24:
	.loc 1 267 39
	ld	a5,-88(s0)
	ld	a5,144(a5)
	.loc 1 267 3
	li	a1,1
	mv	a0,a5
	call	FreePages@plt
	.loc 1 268 10
	ld	a5,-48(s0)
.L27:
	.loc 1 269 1
	mv	a0,a5
	ld	ra,88(sp)
	.cfi_restore 1
	ld	s0,80(sp)
	.cfi_restore 8
	.cfi_def_cfa 2, 96
	addi	sp,sp,96
	.cfi_def_cfa_offset 0
	jr	ra
	.cfi_endproc
.LFE2:
	.size	EmmcIdentificationMode, .-EmmcIdentificationMode
	.section	.rodata
	.align	3
.LC0:
	.word	8
	.word	4
	.word	2
	.word	1
	.section	.text.InitializeEmmcDevice,"ax",@progbits
	.align	1
	.type	InitializeEmmcDevice, @function
InitializeEmmcDevice:
.LFB3:
	.loc 1 276 1
	.cfi_startproc
	addi	sp,sp,-96
	.cfi_def_cfa_offset 96
	sd	ra,88(sp)
	sd	s0,80(sp)
	.cfi_offset 1, -8
	.cfi_offset 8, -16
	addi	s0,sp,96
	.cfi_def_cfa 8, 0
	sd	a0,-88(s0)
	.loc 1 278 14
	sd	zero,-32(s0)
	.loc 1 281 10
	lla	a5,.LC0
	ld	a4,0(a5)
	sd	a4,-72(s0)
	ld	a5,8(a5)
	sd	a5,-64(s0)
	.loc 1 283 8
	ld	a5,-88(s0)
	ld	a5,152(a5)
	sd	a5,-48(s0)
	.loc 1 284 10
	ld	a5,-88(s0)
	ld	a5,144(a5)
	sd	a5,-56(s0)
	.loc 1 285 13
	ld	a5,-56(s0)
	lbu	a5,196(a5)
	.loc 1 285 6
	bne	a5,zero,.L31
	.loc 1 286 12
	li	a5,0
	j	.L48
.L31:
	.loc 1 289 13
	ld	a5,-48(s0)
	lw	a4,0(a5)
	.loc 1 289 6
	li	a5,65536
	addi	a5,a5,1
	bleu	a4,a5,.L33
	.loc 1 289 45 discriminator 1
	ld	a5,-48(s0)
	ld	a5,72(a5)
	.loc 1 289 7 discriminator 1
	bne	a5,zero,.L34
.L33:
	.loc 1 290 12
	li	a5,0
	j	.L48
.L34:
	.loc 1 293 12
	li	a2,1
	li	a1,185
	ld	a0,-88(s0)
	call	EmmcSetEXTCSD
	sd	a0,-32(s0)
	.loc 1 294 34
	ld	a5,-32(s0)
	.loc 1 294 6
	bge	a5,zero,.L35
	.loc 1 296 12
	ld	a5,-32(s0)
	j	.L48
.L35:
	.loc 1 299 12
	sw	zero,-36(s0)
	.loc 1 299 3
	j	.L36
.L47:
	.loc 1 300 23
	lwu	a4,-36(s0)
	addi	a5,s0,-72
	slli	a4,a4,2
	add	a5,a4,a5
	lw	a5,0(a5)
	.loc 1 300 5
	li	a4,8
	beq	a5,a4,.L37
	li	a4,8
	bgtu	a5,a4,.L38
	li	a4,4
	beq	a5,a4,.L37
	li	a4,4
	bgtu	a5,a4,.L38
	li	a4,1
	beq	a5,a4,.L39
	li	a4,2
	bne	a5,a4,.L38
.L37:
	.loc 1 304 22
	li	a5,51998720
	addi	a5,a5,1280
	sw	a5,-20(s0)
	.loc 1 305 9
	j	.L40
.L39:
	.loc 1 307 22
	li	a5,26001408
	addi	a5,a5,-1408
	sw	a5,-20(s0)
	.loc 1 308 9
	j	.L40
.L38:
	.loc 1 310 16
	li	a5,-1
	slli	a5,a5,63
	addi	a5,a5,3
	j	.L48
.L40:
	.loc 1 313 18
	ld	a5,-48(s0)
	ld	a5,72(a5)
	.loc 1 313 14
	lwu	a3,-36(s0)
	addi	a4,s0,-72
	slli	a3,a3,2
	add	a4,a3,a4
	lw	a3,0(a4)
	lw	a4,-20(s0)
	li	a2,8
	mv	a1,a4
	ld	a0,-48(s0)
	jalr	a5
.LVL12:
	sd	a0,-32(s0)
	.loc 1 314 9
	ld	a5,-32(s0)
	.loc 1 314 8
	blt	a5,zero,.L41
	.loc 1 315 25
	lwu	a4,-36(s0)
	addi	a5,s0,-72
	slli	a4,a4,2
	add	a5,a4,a5
	lw	a5,0(a5)
	.loc 1 315 7
	li	a4,8
	beq	a5,a4,.L42
	li	a4,8
	bgtu	a5,a4,.L43
	li	a4,2
	bgtu	a5,a4,.L44
	bne	a5,zero,.L45
	j	.L43
.L44:
	li	a4,4
	bne	a5,a4,.L43
.L42:
	.loc 1 318 19
	li	a5,6
	sw	a5,-40(s0)
	.loc 1 319 11
	j	.L46
.L45:
	.loc 1 322 19
	li	a5,2
	sw	a5,-40(s0)
	.loc 1 323 11
	j	.L46
.L43:
	.loc 1 325 18
	li	a5,-1
	slli	a5,a5,63
	addi	a5,a5,3
	j	.L48
.L46:
	.loc 1 328 16
	lw	a5,-40(s0)
	mv	a2,a5
	li	a1,183
	ld	a0,-88(s0)
	call	EmmcSetEXTCSD
	sd	a0,-32(s0)
	.loc 1 333 14
	ld	a5,-32(s0)
	j	.L48
.L41:
	.loc 1 299 29 discriminator 2
	lw	a5,-36(s0)
	addiw	a5,a5,1
	sw	a5,-36(s0)
.L36:
	.loc 1 299 21 discriminator 1
	lw	a5,-36(s0)
	sext.w	a4,a5
	li	a5,3
	bleu	a4,a5,.L47
	.loc 1 337 10
	ld	a5,-32(s0)
.L48:
	.loc 1 338 1
	mv	a0,a5
	ld	ra,88(sp)
	.cfi_restore 1
	ld	s0,80(sp)
	.cfi_restore 8
	.cfi_def_cfa 2, 96
	addi	sp,sp,96
	.cfi_def_cfa_offset 0
	jr	ra
	.cfi_endproc
.LFE3:
	.size	InitializeEmmcDevice, .-InitializeEmmcDevice
	.section	.text.CreateSwitchCmdArgument,"ax",@progbits
	.align	1
	.globl	CreateSwitchCmdArgument
	.type	CreateSwitchCmdArgument, @function
CreateSwitchCmdArgument:
.LFB4:
	.loc 1 346 1
	.cfi_startproc
	addi	sp,sp,-48
	.cfi_def_cfa_offset 48
	sd	ra,40(sp)
	sd	s0,32(sp)
	.cfi_offset 1, -8
	.cfi_offset 8, -16
	addi	s0,sp,48
	.cfi_def_cfa 8, 0
	mv	a5,a0
	mv	a3,a1
	mv	a4,a2
	sw	a5,-36(s0)
	mv	a5,a3
	sb	a5,-37(s0)
	mv	a5,a4
	sb	a5,-38(s0)
	.loc 1 349 19
	lw	a5,-36(s0)
	slliw	a5,a5,31
	sext.w	a5,a5
	.loc 1 349 12
	mv	a4,a5
	li	a5,16777216
	addi	a5,a5,-1
	or	a5,a4,a5
	sw	a5,-20(s0)
	.loc 1 350 31
	lbu	a5,-37(s0)
	sext.w	a5,a5
	slliw	a5,a5,2
	sext.w	a5,a5
	.loc 1 350 21
	li	a4,15
	sllw	a5,a4,a5
	sext.w	a5,a5
	.loc 1 350 15
	not	a5,a5
	sext.w	a5,a5
	mv	a3,a5
	.loc 1 350 12
	lw	a5,-20(s0)
	mv	a4,a5
	mv	a5,a3
	and	a5,a4,a5
	sw	a5,-20(s0)
	.loc 1 351 21
	lbu	a5,-38(s0)
	sext.w	a4,a5
	.loc 1 351 31
	lbu	a5,-37(s0)
	sext.w	a5,a5
	slliw	a5,a5,2
	sext.w	a5,a5
	.loc 1 351 21
	sllw	a5,a4,a5
	sext.w	a5,a5
	mv	a3,a5
	.loc 1 351 12
	lw	a5,-20(s0)
	mv	a4,a5
	mv	a5,a3
	or	a5,a4,a5
	sw	a5,-20(s0)
	.loc 1 353 10
	lw	a5,-20(s0)
	.loc 1 354 1
	mv	a0,a5
	ld	ra,40(sp)
	.cfi_restore 1
	ld	s0,32(sp)
	.cfi_restore 8
	.cfi_def_cfa 2, 48
	addi	sp,sp,48
	.cfi_def_cfa_offset 0
	jr	ra
	.cfi_endproc
.LFE4:
	.size	CreateSwitchCmdArgument, .-CreateSwitchCmdArgument
	.section	.text.InitializeSdMmcDevice,"ax",@progbits
	.align	1
	.type	InitializeSdMmcDevice, @function
InitializeSdMmcDevice:
.LFB5:
	.loc 1 361 1
	.cfi_startproc
	addi	sp,sp,-688
	.cfi_def_cfa_offset 688
	sd	ra,680(sp)
	sd	s0,672(sp)
	sd	s1,664(sp)
	.cfi_offset 1, -8
	.cfi_offset 8, -16
	.cfi_offset 9, -24
	addi	s0,sp,688
	.cfi_def_cfa 8, 0
	sd	a0,-680(s0)
	.loc 1 376 9
	li	a5,25001984
	addi	a5,a5,-1984
	sw	a5,-68(s0)
	.loc 1 377 11
	ld	a5,-680(s0)
	ld	a5,152(a5)
	sd	a5,-64(s0)
	.loc 1 378 7
	ld	a5,-680(s0)
	addi	a5,a5,124
	sd	a5,-56(s0)
	.loc 1 381 37
	ld	a5,-680(s0)
	lhu	a5,96(a5)
	.loc 1 381 42
	sext.w	a5,a5
	.loc 1 381 10
	slliw	a5,a5,16
	sw	a5,-44(s0)
	.loc 1 382 19
	ld	a5,-64(s0)
	ld	a5,40(a5)
	.loc 1 382 12
	lw	a4,-44(s0)
	mv	a2,a4
	li	a4,196608
	addi	a1,a4,9
	ld	a0,-64(s0)
	jalr	a5
.LVL13:
	sd	a0,-40(s0)
	.loc 1 383 34
	ld	a5,-40(s0)
	.loc 1 383 6
	bge	a5,zero,.L52
	.loc 1 385 12
	ld	a5,-40(s0)
	j	.L72
.L52:
	.loc 1 389 19
	ld	a5,-64(s0)
	ld	a5,48(a5)
	.loc 1 389 12
	addi	a4,s0,-144
	mv	a2,a4
	li	a1,1
	ld	a0,-64(s0)
	jalr	a5
.LVL14:
	sd	a0,-40(s0)
	.loc 1 390 34
	ld	a5,-40(s0)
	.loc 1 390 6
	bge	a5,zero,.L54
	.loc 1 392 12
	ld	a5,-40(s0)
	j	.L72
.L54:
	.loc 1 395 3
	ld	a5,-56(s0)
	addi	a5,a5,1
	addi	a4,s0,-144
	li	a2,15
	mv	a1,a4
	mv	a0,a5
	call	CopyMem@plt
	.loc 1 396 3
	ld	a0,-56(s0)
	call	PrintSdCsd@plt
	.loc 1 397 10
	ld	a5,-56(s0)
	lbu	a4,10(a5)
	srliw	a4,a4,4
	andi	a4,a4,0xff
	lbu	a5,11(a5)
	slli	a5,a5,4
	or	a5,a5,a4
	slli	a5,a5,48
	srli	a5,a5,48
	sext.w	a5,a5
	.loc 1 397 16
	andi	a5,a5,1024
	sext.w	a5,a5
	.loc 1 397 6
	beq	a5,zero,.L55
	.loc 1 398 15
	li	a5,1
	sb	a5,-97(s0)
	j	.L56
.L55:
	.loc 1 400 15
	sb	zero,-97(s0)
.L56:
	.loc 1 403 9
	ld	a5,-56(s0)
	lbu	a5,15(a5)
	andi	a5,a5,-64
	andi	a5,a5,0xff
	.loc 1 403 6
	bne	a5,zero,.L57
	.loc 1 404 20
	ld	a5,-56(s0)
	lbu	a4,8(a5)
	lbu	a5,9(a5)
	andi	a5,a5,3
	slli	a5,a5,8
	or	a5,a5,a4
	slli	a5,a5,48
	srli	a5,a5,48
	sext.w	a5,a5
	.loc 1 404 32
	slliw	a5,a5,2
	sext.w	a4,a5
	.loc 1 404 42
	ld	a5,-56(s0)
	lbu	a5,7(a5)
	srliw	a5,a5,6
	andi	a5,a5,0xff
	sext.w	a5,a5
	.loc 1 404 37
	or	a5,a4,a5
	sext.w	a5,a5
	.loc 1 404 54
	addiw	a5,a5,1
	sext.w	a5,a5
	.loc 1 404 14
	sd	a5,-88(s0)
	.loc 1 405 26
	ld	a5,-56(s0)
	lbu	a4,5(a5)
	srliw	a4,a4,7
	andi	a4,a4,0xff
	lbu	a5,6(a5)
	andi	a5,a5,3
	slli	a5,a5,1
	or	a5,a5,a4
	andi	a5,a5,0xff
	sext.w	a5,a5
	.loc 1 405 37
	addiw	a5,a5,2
	sext.w	a5,a5
	.loc 1 405 19
	li	a4,1
	sllw	a5,a4,a5
	sext.w	a5,a5
	.loc 1 405 14
	sd	a5,-120(s0)
	.loc 1 406 27
	ld	a5,-56(s0)
	lbu	a5,10(a5)
	andi	a5,a5,15
	andi	a5,a5,0xff
	sext.w	a5,a5
	.loc 1 406 20
	li	a4,1
	sllw	a5,a4,a5
	sext.w	a5,a5
	.loc 1 406 15
	sd	a5,-128(s0)
	.loc 1 407 16
	ld	a5,-120(s0)
	sext.w	a5,a5
	mv	a1,a5
	ld	a0,-88(s0)
	call	MultU64x32@plt
	mv	a4,a0
	.loc 1 407 16 is_stmt 0 discriminator 1
	ld	a5,-128(s0)
	sext.w	a5,a5
	mv	a1,a5
	mv	a0,a4
	call	MultU64x32@plt
	sd	a0,-88(s0)
	j	.L58
.L57:
	.loc 1 409 10 is_stmt 1
	ld	a5,-56(s0)
	sd	a5,-112(s0)
	.loc 1 410 21
	ld	a5,-112(s0)
	lbu	a5,8(a5)
	andi	a5,a5,63
	andi	a5,a5,0xff
	sext.w	a5,a5
	.loc 1 410 33
	slliw	a5,a5,16
	sext.w	a4,a5
	.loc 1 410 45
	ld	a5,-112(s0)
	lbu	a3,6(a5)
	lbu	a5,7(a5)
	slli	a5,a5,8
	or	a5,a5,a3
	slli	a5,a5,48
	srli	a5,a5,48
	sext.w	a5,a5
	.loc 1 410 39
	or	a5,a4,a5
	sext.w	a5,a5
	.loc 1 410 57
	addiw	a5,a5,1
	sext.w	a5,a5
	.loc 1 410 14
	sd	a5,-88(s0)
	.loc 1 411 16
	li	a1,524288
	ld	a0,-88(s0)
	call	MultU64x32@plt
	sd	a0,-88(s0)
.L58:
	.loc 1 414 13
	li	a5,512
	sd	a5,-96(s0)
	.loc 1 415 13
	ld	a4,-88(s0)
	ld	a5,-96(s0)
	divu	a5,a4,a5
	sd	a5,-80(s0)
	.loc 1 418 6
	ld	a4,-96(s0)
	li	a5,512
	bleu	a4,a5,.L59
	.loc 1 419 50
	ld	a5,-96(s0)
	srli	a5,a5,9
	.loc 1 419 17
	sext.w	a5,a5
	mv	a1,a5
	ld	a0,-80(s0)
	call	MultU64x32@plt
	sd	a0,-80(s0)
	.loc 1 420 15
	li	a5,512
	sd	a5,-96(s0)
.L59:
	.loc 1 423 27
	ld	a5,-680(s0)
	ld	a5,56(a5)
	.loc 1 423 58
	ld	a4,-80(s0)
	addi	a4,a4,-1
	.loc 1 423 45
	sd	a4,24(a5)
	.loc 1 424 27
	ld	a5,-680(s0)
	ld	a5,56(a5)
	.loc 1 424 45
	ld	a4,-96(s0)
	sext.w	a4,a4
	sw	a4,12(a5)
	.loc 1 425 53
	ld	a5,-64(s0)
	ld	a5,16(a5)
	.loc 1 425 27
	ld	a4,-680(s0)
	ld	s1,56(a4)
	.loc 1 425 46
	ld	a0,-64(s0)
	jalr	a5
.LVL15:
	mv	a5,a0
	.loc 1 425 44 discriminator 1
	sb	a5,7(s1)
	.loc 1 426 27
	ld	a5,-680(s0)
	ld	a5,56(a5)
	.loc 1 426 48
	li	a4,1
	sb	a4,5(a5)
	.loc 1 427 27
	ld	a5,-680(s0)
	ld	a5,56(a5)
	.loc 1 427 33
	lw	a4,0(a5)
	.loc 1 427 42
	addiw	a4,a4,1
	sext.w	a4,a4
	sw	a4,0(a5)
	.loc 1 429 37
	ld	a5,-680(s0)
	lhu	a5,96(a5)
	.loc 1 429 42
	sext.w	a5,a5
	.loc 1 429 10
	slliw	a5,a5,16
	sw	a5,-44(s0)
	.loc 1 430 19
	ld	a5,-64(s0)
	ld	a5,40(a5)
	.loc 1 430 12
	lw	a4,-44(s0)
	mv	a2,a4
	li	a4,65536
	addi	a1,a4,7
	ld	a0,-64(s0)
	jalr	a5
.LVL16:
	sd	a0,-40(s0)
	.loc 1 431 34
	ld	a5,-40(s0)
	.loc 1 431 6
	bge	a5,zero,.L60
	.loc 1 433 12
	ld	a5,-40(s0)
	j	.L72
.L60:
	.loc 1 436 19
	ld	a5,-64(s0)
	ld	a5,40(a5)
	.loc 1 436 12
	lw	a4,-44(s0)
	mv	a2,a4
	li	a4,65536
	addi	a1,a4,55
	ld	a0,-64(s0)
	jalr	a5
.LVL17:
	sd	a0,-40(s0)
	.loc 1 437 34
	ld	a5,-40(s0)
	.loc 1 437 6
	bge	a5,zero,.L61
	.loc 1 439 12
	ld	a5,-40(s0)
	j	.L72
.L61:
	.loc 1 442 19
	ld	a5,-64(s0)
	ld	a5,48(a5)
	.loc 1 442 12
	addi	a4,s0,-144
	mv	a2,a4
	li	a1,0
	ld	a0,-64(s0)
	jalr	a5
.LVL18:
	sd	a0,-40(s0)
	.loc 1 443 34
	ld	a5,-40(s0)
	.loc 1 443 6
	bge	a5,zero,.L62
	.loc 1 445 12
	ld	a5,-40(s0)
	j	.L72
.L62:
	.loc 1 448 16
	lw	a5,-144(s0)
	.loc 1 448 20
	andi	a5,a5,32
	sext.w	a5,a5
	.loc 1 448 6
	bne	a5,zero,.L63
	.loc 1 449 12
	li	a5,0
	j	.L72
.L63:
	.loc 1 453 19
	ld	a5,-64(s0)
	ld	a5,40(a5)
	.loc 1 453 12
	li	a2,0
	li	a4,65536
	addi	a1,a4,51
	ld	a0,-64(s0)
	jalr	a5
.LVL19:
	sd	a0,-40(s0)
	.loc 1 454 34
	ld	a5,-40(s0)
	.loc 1 454 6
	bge	a5,zero,.L64
	.loc 1 456 12
	ld	a5,-40(s0)
	j	.L72
.L64:
	.loc 1 458 21
	ld	a5,-64(s0)
	ld	a5,56(a5)
	.loc 1 458 14
	addi	a4,s0,-656
	mv	a3,a4
	li	a2,8
	li	a1,0
	ld	a0,-64(s0)
	jalr	a5
.LVL20:
	sd	a0,-40(s0)
	.loc 1 459 36
	ld	a5,-40(s0)
	.loc 1 459 8
	bge	a5,zero,.L65
	.loc 1 461 14
	ld	a5,-40(s0)
	j	.L72
.L65:
	.loc 1 464 29
	lw	a5,-656(s0)
	.loc 1 464 22
	addi	s1,s0,-664
	addi	s1,s1,4
	.loc 1 464 29
	mv	a0,a5
	call	SwapBytes32@plt
	mv	a5,a0
	.loc 1 464 27 discriminator 1
	sw	a5,0(s1)
	.loc 1 465 20
	lbu	a5,-657(s0)
	andi	a5,a5,15
	andi	a5,a5,0xff
	.loc 1 465 8
	mv	a4,a5
	li	a5,2
	bne	a4,a5,.L66
	j	.L68
.L66:
	.loc 1 480 24
	lbu	a5,-659(s0)
	andi	a5,a5,-128
	andi	a5,a5,0xff
.L68:
	.loc 1 492 10
	ld	a5,-664(s0)
	srli	a5,a5,48
	andi	a5,a5,15
	andi	a5,a5,0xff
	sext.w	a5,a5
	.loc 1 492 23
	andi	a5,a5,4
	sext.w	a5,a5
	.loc 1 492 6
	beq	a5,zero,.L69
	.loc 1 493 39
	ld	a5,-680(s0)
	lhu	a5,96(a5)
	.loc 1 493 44
	sext.w	a5,a5
	.loc 1 493 12
	slliw	a5,a5,16
	sw	a5,-44(s0)
	.loc 1 494 21
	ld	a5,-64(s0)
	ld	a5,40(a5)
	.loc 1 494 14
	lw	a4,-44(s0)
	mv	a2,a4
	li	a4,65536
	addi	a1,a4,55
	ld	a0,-64(s0)
	jalr	a5
.LVL21:
	sd	a0,-40(s0)
	.loc 1 495 36
	ld	a5,-40(s0)
	.loc 1 495 8
	bge	a5,zero,.L70
	.loc 1 497 14
	ld	a5,-40(s0)
	j	.L72
.L70:
	.loc 1 501 21
	ld	a5,-64(s0)
	ld	a5,40(a5)
	.loc 1 501 14
	li	a2,2
	li	a4,65536
	addi	a1,a4,6
	ld	a0,-64(s0)
	jalr	a5
.LVL22:
	sd	a0,-40(s0)
	.loc 1 502 36
	ld	a5,-40(s0)
	.loc 1 502 8
	bge	a5,zero,.L69
	.loc 1 504 14
	ld	a5,-40(s0)
	j	.L72
.L69:
	.loc 1 508 15
	ld	a5,-64(s0)
	lw	a4,0(a5)
	.loc 1 508 6
	li	a5,65536
	addi	a5,a5,1
	bleu	a4,a5,.L71
	.loc 1 508 50 discriminator 1
	ld	a5,-64(s0)
	ld	a5,72(a5)
	.loc 1 508 40 discriminator 1
	beq	a5,zero,.L71
	.loc 1 509 21
	ld	a5,-64(s0)
	ld	a5,72(a5)
	.loc 1 509 14
	lw	a4,-68(s0)
	li	a3,0
	li	a2,4
	mv	a1,a4
	ld	a0,-64(s0)
	jalr	a5
.LVL23:
	sd	a0,-40(s0)
	.loc 1 510 36
	ld	a5,-40(s0)
	.loc 1 510 8
	bge	a5,zero,.L71
	.loc 1 512 14
	ld	a5,-40(s0)
	j	.L72
.L71:
	.loc 1 516 10
	li	a5,0
.L72:
	.loc 1 517 1
	mv	a0,a5
	ld	ra,680(sp)
	.cfi_restore 1
	ld	s0,672(sp)
	.cfi_restore 8
	.cfi_def_cfa 2, 688
	ld	s1,664(sp)
	.cfi_restore 9
	addi	sp,sp,688
	.cfi_def_cfa_offset 0
	jr	ra
	.cfi_endproc
.LFE5:
	.size	InitializeSdMmcDevice, .-InitializeSdMmcDevice
	.section	.text.MmcIdentificationMode,"ax",@progbits
	.align	1
	.type	MmcIdentificationMode, @function
MmcIdentificationMode:
.LFB6:
	.loc 1 525 1
	.cfi_startproc
	addi	sp,sp,-112
	.cfi_def_cfa_offset 112
	sd	ra,104(sp)
	sd	s0,96(sp)
	.cfi_offset 1, -8
	.cfi_offset 8, -16
	addi	s0,sp,112
	.cfi_def_cfa 8, 0
	sd	a0,-104(s0)
	.loc 1 536 11
	ld	a5,-104(s0)
	ld	a5,152(a5)
	sd	a5,-24(s0)
	.loc 1 537 10
	sd	zero,-48(s0)
	.loc 1 538 9
	sb	zero,-33(s0)
	.loc 1 540 6
	ld	a5,-24(s0)
	bne	a5,zero,.L74
	.loc 1 541 12
	li	a5,-1
	slli	a5,a5,63
	addi	a5,a5,2
	j	.L116
.L74:
	.loc 1 545 22
	ld	a5,-104(s0)
	lw	a4,40(a5)
	.loc 1 545 6
	li	a5,1
	bne	a4,a5,.L76
	.loc 1 547 14
	li	a1,1
	ld	a0,-104(s0)
	call	MmcNotifyState@plt
	sd	a0,-64(s0)
	.loc 1 548 36
	ld	a5,-64(s0)
	.loc 1 548 8
	bge	a5,zero,.L76
	.loc 1 550 14
	ld	a5,-64(s0)
	j	.L116
.L76:
	.loc 1 554 19
	ld	a5,-24(s0)
	ld	a5,40(a5)
	.loc 1 554 12
	li	a2,0
	li	a1,262144
	ld	a0,-24(s0)
	jalr	a5
.LVL24:
	sd	a0,-64(s0)
	.loc 1 555 34
	ld	a5,-64(s0)
	.loc 1 555 6
	bge	a5,zero,.L77
	.loc 1 557 12
	ld	a5,-64(s0)
	j	.L116
.L77:
	.loc 1 560 12
	li	a1,2
	ld	a0,-104(s0)
	call	MmcNotifyState@plt
	sd	a0,-64(s0)
	.loc 1 561 34
	ld	a5,-64(s0)
	.loc 1 561 6
	bge	a5,zero,.L78
	.loc 1 563 12
	ld	a5,-64(s0)
	j	.L116
.L78:
	.loc 1 568 11
	li	a5,100
	sd	a5,-56(s0)
.L82:
	.loc 1 570 21
	ld	a5,-24(s0)
	ld	a5,40(a5)
	.loc 1 570 14
	li	a4,1090486272
	addi	a2,a4,128
	li	a4,327680
	addi	a1,a4,1
	ld	a0,-24(s0)
	jalr	a5
.LVL25:
	sd	a0,-64(s0)
	.loc 1 571 36
	ld	a5,-64(s0)
	.loc 1 571 8
	blt	a5,zero,.L117
	.loc 1 575 21
	ld	a5,-24(s0)
	ld	a5,48(a5)
	.loc 1 575 14
	addi	a4,s0,-96
	mv	a2,a4
	li	a1,0
	ld	a0,-24(s0)
	jalr	a5
.LVL26:
	sd	a0,-64(s0)
	.loc 1 576 36
	ld	a5,-64(s0)
	.loc 1 576 8
	bge	a5,zero,.L81
	.loc 1 578 14
	ld	a5,-64(s0)
	j	.L116
.L81:
	.loc 1 581 12
	ld	a5,-56(s0)
	addi	a5,a5,-1
	sd	a5,-56(s0)
	.loc 1 582 12
	lw	a5,-96(s0)
	mv	a4,a5
	li	a5,-2147483648
	and	a5,a4,a5
	sext.w	a5,a5
	.loc 1 582 37
	bne	a5,zero,.L80
	.loc 1 582 37 is_stmt 0 discriminator 1
	ld	a5,-56(s0)
	bne	a5,zero,.L82
	j	.L80
.L117:
	.loc 1 572 7 is_stmt 1
	nop
.L80:
	.loc 1 584 6
	ld	a5,-64(s0)
	bne	a5,zero,.L83
	.loc 1 585 9
	lw	a5,-96(s0)
	mv	a4,a5
	li	a5,-2147483648
	and	a5,a4,a5
	sext.w	a5,a5
	.loc 1 585 8
	bne	a5,zero,.L84
	.loc 1 587 14
	li	a5,-1
	slli	a5,a5,63
	addi	a5,a5,7
	j	.L116
.L84:
	.loc 1 590 29
	lw	a5,-96(s0)
	mv	a4,a5
	li	a5,-2147483648
	xori	a5,a5,-1
	and	a5,a4,a5
	sw	a5,-96(s0)
	.loc 1 591 20
	lw	a4,-96(s0)
	.loc 1 591 8
	li	a5,1090486272
	addi	a5,a5,128
	bne	a4,a5,.L85
	.loc 1 592 52
	ld	a5,-104(s0)
	lw	a4,104(a5)
	mv	a3,a4
	li	a4,-1610612736
	addi	a4,a4,-1
	and	a4,a3,a4
	mv	a3,a4
	li	a4,1073741824
	or	a4,a3,a4
	sw	a4,104(a5)
	j	.L86
.L85:
	.loc 1 594 52
	ld	a5,-104(s0)
	lw	a4,104(a5)
	mv	a3,a4
	li	a4,-1610612736
	addi	a4,a4,-1
	and	a4,a3,a4
	sw	a4,104(a5)
.L86:
	.loc 1 598 21
	lw	a4,-96(s0)
	.loc 1 598 8
	li	a5,1090486272
	addi	a5,a5,128
	beq	a4,a5,.L87
	.loc 1 599 21
	lw	a4,-96(s0)
	.loc 1 598 41 discriminator 1
	li	a5,16744448
	addi	a5,a5,128
	bne	a4,a5,.L83
.L87:
	.loc 1 601 14
	lw	a5,-96(s0)
	mv	a1,a5
	ld	a0,-104(s0)
	call	EmmcIdentificationMode
	mv	a5,a0
	j	.L116
.L83:
	.loc 1 606 19
	ld	a5,-24(s0)
	ld	a5,40(a5)
	.loc 1 606 12
	li	a2,0
	li	a4,327680
	addi	a1,a4,5
	ld	a0,-24(s0)
	jalr	a5
.LVL27:
	sd	a0,-64(s0)
	.loc 1 607 6
	ld	a5,-64(s0)
	bne	a5,zero,.L88
	.loc 1 609 12
	li	a5,-1
	slli	a5,a5,63
	addi	a5,a5,3
	j	.L116
.L88:
	.loc 1 613 10
	li	a5,462
	sd	a5,-48(s0)
	.loc 1 614 19
	ld	a5,-24(s0)
	ld	a5,40(a5)
	.loc 1 614 12
	ld	a4,-48(s0)
	sext.w	a4,a4
	mv	a2,a4
	li	a4,65536
	addi	a1,a4,8
	ld	a0,-24(s0)
	jalr	a5
.LVL28:
	sd	a0,-64(s0)
	.loc 1 615 6
	ld	a5,-64(s0)
	bne	a5,zero,.L89
	.loc 1 617 11
	li	a5,1
	sb	a5,-33(s0)
	.loc 1 618 21
	ld	a5,-24(s0)
	ld	a5,48(a5)
	.loc 1 618 14
	addi	a4,s0,-88
	mv	a2,a4
	li	a1,0
	ld	a0,-24(s0)
	jalr	a5
.LVL29:
	sd	a0,-64(s0)
	.loc 1 619 36
	ld	a5,-64(s0)
	.loc 1 619 8
	bge	a5,zero,.L90
	.loc 1 621 14
	ld	a5,-64(s0)
	j	.L116
.L90:
	.loc 1 624 5
	lw	a5,-88(s0)
	mv	a0,a5
	call	PrintResponseR1@plt
	.loc 1 626 17
	lw	a5,-88(s0)
	slli	a5,a5,32
	srli	a5,a5,32
	.loc 1 626 8
	ld	a4,-48(s0)
	beq	a4,a5,.L89
	.loc 1 628 14
	li	a5,-1
	slli	a5,a5,63
	addi	a5,a5,3
	j	.L116
.L89:
	.loc 1 635 11
	li	a5,100
	sd	a5,-56(s0)
	.loc 1 636 23
	sd	zero,-32(s0)
	.loc 1 637 9
	j	.L91
.L105:
	.loc 1 639 21
	ld	a5,-24(s0)
	ld	a5,40(a5)
	.loc 1 639 14
	li	a2,0
	li	a4,65536
	addi	a1,a4,55
	ld	a0,-24(s0)
	jalr	a5
.LVL30:
	sd	a0,-64(s0)
	.loc 1 640 8
	ld	a5,-64(s0)
	bne	a5,zero,.L92
	.loc 1 642 10
	lbu	a5,-33(s0)
	andi	a5,a5,0xff
	beq	a5,zero,.L93
	.loc 1 643 44
	ld	a5,-104(s0)
	li	a4,5
	sw	a4,100(a5)
	j	.L94
.L93:
	.loc 1 645 44
	ld	a5,-104(s0)
	li	a4,4
	sw	a4,100(a5)
.L94:
	.loc 1 649 26
	ld	a5,-104(s0)
	addi	a5,a5,104
	.loc 1 649 14
	ld	a5,0(a5)
	sd	a5,-48(s0)
	.loc 1 650 10
	lbu	a5,-33(s0)
	andi	a5,a5,0xff
	beq	a5,zero,.L95
	.loc 1 651 16
	ld	a4,-48(s0)
	li	a5,1073741824
	or	a5,a4,a5
	sd	a5,-48(s0)
.L95:
	.loc 1 654 23
	ld	a5,-24(s0)
	ld	a5,40(a5)
	.loc 1 654 16
	ld	a4,-48(s0)
	sext.w	a4,a4
	mv	a2,a4
	li	a4,327680
	addi	a1,a4,41
	ld	a0,-24(s0)
	jalr	a5
.LVL31:
	sd	a0,-64(s0)
	.loc 1 655 11
	ld	a5,-64(s0)
	.loc 1 655 10
	blt	a5,zero,.L96
	.loc 1 656 25
	ld	a5,-24(s0)
	ld	a5,48(a5)
	.loc 1 656 18
	addi	a4,s0,-88
	mv	a2,a4
	li	a1,0
	ld	a0,-24(s0)
	jalr	a5
.LVL32:
	sd	a0,-64(s0)
	.loc 1 657 40
	ld	a5,-64(s0)
	.loc 1 657 12
	bge	a5,zero,.L97
	.loc 1 659 18
	ld	a5,-64(s0)
	j	.L116
.L97:
	.loc 1 662 20
	ld	a5,-104(s0)
	addi	a5,a5,104
	.loc 1 662 71
	lw	a4,-88(s0)
	.loc 1 662 61
	sw	a4,0(a5)
	j	.L96
.L92:
	.loc 1 666 42
	ld	a5,-104(s0)
	li	a4,1
	sw	a4,100(a5)
	.loc 1 668 23
	ld	a5,-24(s0)
	ld	a5,40(a5)
	.loc 1 668 16
	li	a2,8388608
	li	a4,327680
	addi	a1,a4,1
	ld	a0,-24(s0)
	jalr	a5
.LVL33:
	sd	a0,-64(s0)
	.loc 1 669 11
	ld	a5,-64(s0)
	.loc 1 669 10
	blt	a5,zero,.L96
	.loc 1 670 25
	ld	a5,-24(s0)
	ld	a5,48(a5)
	.loc 1 670 18
	addi	a4,s0,-88
	mv	a2,a4
	li	a1,0
	ld	a0,-24(s0)
	jalr	a5
.LVL34:
	sd	a0,-64(s0)
	.loc 1 671 40
	ld	a5,-64(s0)
	.loc 1 671 12
	bge	a5,zero,.L98
	.loc 1 673 18
	ld	a5,-64(s0)
	j	.L116
.L98:
	.loc 1 676 20
	ld	a5,-104(s0)
	addi	a5,a5,104
	.loc 1 676 71
	lw	a4,-88(s0)
	.loc 1 676 61
	sw	a4,0(a5)
.L96:
	.loc 1 680 9
	ld	a5,-64(s0)
	.loc 1 680 8
	blt	a5,zero,.L99
	.loc 1 681 27
	sd	zero,-32(s0)
	.loc 1 682 11
	ld	a5,-104(s0)
	lw	a5,104(a5)
	mv	a4,a5
	li	a5,-2147483648
	and	a5,a4,a5
	sext.w	a5,a5
	.loc 1 682 10
	bne	a5,zero,.L100
	.loc 1 683 12
	la	a5,gBS
	ld	a5,0(a5)
	ld	a5,248(a5)
	.loc 1 683 9
	li	a0,1
	jalr	a5
.LVL35:
	.loc 1 684 16
	ld	a5,-56(s0)
	addi	a5,a5,-1
	sd	a5,-56(s0)
	j	.L91
.L100:
	.loc 1 686 39
	ld	a5,-104(s0)
	lw	a4,100(a5)
	.loc 1 686 12
	li	a5,5
	bne	a4,a5,.L118
	.loc 1 686 100 discriminator 1
	ld	a5,-104(s0)
	ld	a5,104(a5)
	srli	a5,a5,29
	andi	a5,a5,3
	andi	a5,a5,0xff
	sext.w	a5,a5
	.loc 1 686 112 discriminator 1
	andi	a5,a5,2
	sext.w	a5,a5
	.loc 1 686 63 discriminator 1
	beq	a5,zero,.L118
	.loc 1 687 46
	ld	a5,-104(s0)
	li	a4,6
	sw	a4,100(a5)
	.loc 1 691 9
	j	.L118
.L99:
	.loc 1 694 26
	ld	a5,-32(s0)
	addi	a5,a5,1
	sd	a5,-32(s0)
	.loc 1 696 10
	ld	a4,-32(s0)
	li	a5,2
	bleu	a4,a5,.L104
	.loc 1 698 16
	li	a5,-1
	slli	a5,a5,63
	addi	a5,a5,12
	j	.L116
.L104:
	.loc 1 701 10
	la	a5,gBS
	ld	a5,0(a5)
	ld	a5,248(a5)
	.loc 1 701 7
	li	a0,1
	jalr	a5
.LVL36:
	.loc 1 702 14
	ld	a5,-56(s0)
	addi	a5,a5,-1
	sd	a5,-56(s0)
.L91:
	.loc 1 637 18
	ld	a5,-56(s0)
	bne	a5,zero,.L105
	j	.L103
.L118:
	.loc 1 691 9
	nop
.L103:
	.loc 1 706 6
	ld	a5,-56(s0)
	bne	a5,zero,.L106
	.loc 1 708 12
	li	a5,-1
	slli	a5,a5,63
	addi	a5,a5,12
	j	.L116
.L106:
	.loc 1 710 5
	lw	a5,-88(s0)
	mv	a0,a5
	call	PrintOCR@plt
	.loc 1 713 12
	li	a1,3
	ld	a0,-104(s0)
	call	MmcNotifyState@plt
	sd	a0,-64(s0)
	.loc 1 714 34
	ld	a5,-64(s0)
	.loc 1 714 6
	bge	a5,zero,.L107
	.loc 1 716 12
	ld	a5,-64(s0)
	j	.L116
.L107:
	.loc 1 719 19
	ld	a5,-24(s0)
	ld	a5,40(a5)
	.loc 1 719 12
	li	a2,0
	li	a4,196608
	addi	a1,a4,2
	ld	a0,-24(s0)
	jalr	a5
.LVL37:
	sd	a0,-64(s0)
	.loc 1 720 34
	ld	a5,-64(s0)
	.loc 1 720 6
	bge	a5,zero,.L108
	.loc 1 722 12
	ld	a5,-64(s0)
	j	.L116
.L108:
	.loc 1 725 19
	ld	a5,-24(s0)
	ld	a5,48(a5)
	.loc 1 725 12
	addi	a4,s0,-88
	mv	a2,a4
	li	a1,1
	ld	a0,-24(s0)
	jalr	a5
.LVL38:
	sd	a0,-64(s0)
	.loc 1 726 34
	ld	a5,-64(s0)
	.loc 1 726 6
	bge	a5,zero,.L109
	.loc 1 728 12
	ld	a5,-64(s0)
	j	.L116
.L109:
	.loc 1 731 7
	ld	a5,-104(s0)
	addi	a5,a5,108
	sd	a5,-72(s0)
	.loc 1 732 3
	ld	a5,-72(s0)
	addi	a5,a5,1
	addi	a4,s0,-88
	li	a2,15
	mv	a1,a4
	mv	a0,a5
	call	CopyMem@plt
	.loc 1 733 3
	ld	a0,-72(s0)
	call	PrintSdCid@plt
	.loc 1 735 19
	ld	a5,-24(s0)
	ld	a5,32(a5)
	.loc 1 735 12
	li	a1,4
	ld	a0,-24(s0)
	jalr	a5
.LVL39:
	sd	a0,-64(s0)
	.loc 1 736 34
	ld	a5,-64(s0)
	.loc 1 736 6
	bge	a5,zero,.L110
	.loc 1 738 12
	ld	a5,-64(s0)
	j	.L116
.L110:
	.loc 1 746 10
	li	a5,1
	sd	a5,-48(s0)
	.loc 1 747 19
	ld	a5,-24(s0)
	ld	a5,40(a5)
	.loc 1 747 12
	ld	a4,-48(s0)
	sext.w	a4,a4
	mv	a2,a4
	li	a4,65536
	addi	a1,a4,3
	ld	a0,-24(s0)
	jalr	a5
.LVL40:
	sd	a0,-64(s0)
	.loc 1 748 34
	ld	a5,-64(s0)
	.loc 1 748 6
	bge	a5,zero,.L111
	.loc 1 750 12
	ld	a5,-64(s0)
	j	.L116
.L111:
	.loc 1 753 19
	ld	a5,-24(s0)
	ld	a5,48(a5)
	.loc 1 753 12
	addi	a4,s0,-88
	mv	a2,a4
	li	a1,0
	ld	a0,-24(s0)
	jalr	a5
.LVL41:
	sd	a0,-64(s0)
	.loc 1 754 34
	ld	a5,-64(s0)
	.loc 1 754 6
	bge	a5,zero,.L112
	.loc 1 756 12
	ld	a5,-64(s0)
	j	.L116
.L112:
	.loc 1 759 3
	lw	a5,-88(s0)
	mv	a0,a5
	call	PrintRCA@plt
	.loc 1 762 32
	ld	a5,-104(s0)
	lw	a4,100(a5)
	.loc 1 762 6
	li	a5,1
	beq	a4,a5,.L113
	.loc 1 763 45
	lw	a5,-88(s0)
	.loc 1 763 49
	srliw	a5,a5,16
	sext.w	a5,a5
	.loc 1 763 35
	slli	a4,a5,48
	srli	a4,a4,48
	ld	a5,-104(s0)
	sh	a4,96(a5)
	j	.L114
.L113:
	.loc 1 765 35
	ld	a5,-48(s0)
	slli	a4,a5,48
	srli	a4,a4,48
	ld	a5,-104(s0)
	sh	a4,96(a5)
.L114:
	.loc 1 768 12
	li	a1,5
	ld	a0,-104(s0)
	call	MmcNotifyState@plt
	sd	a0,-64(s0)
	.loc 1 769 34
	ld	a5,-64(s0)
	.loc 1 769 6
	bge	a5,zero,.L115
	.loc 1 771 12
	ld	a5,-64(s0)
	j	.L116
.L115:
	.loc 1 774 10
	li	a5,0
.L116:
	.loc 1 775 1
	mv	a0,a5
	ld	ra,104(sp)
	.cfi_restore 1
	ld	s0,96(sp)
	.cfi_restore 8
	.cfi_def_cfa 2, 112
	addi	sp,sp,112
	.cfi_def_cfa_offset 0
	jr	ra
	.cfi_endproc
.LFE6:
	.size	MmcIdentificationMode, .-MmcIdentificationMode
	.section	.text.InitializeMmcDevice,"ax",@progbits
	.align	1
	.globl	InitializeMmcDevice
	.type	InitializeMmcDevice, @function
InitializeMmcDevice:
.LFB7:
	.loc 1 781 1
	.cfi_startproc
	addi	sp,sp,-64
	.cfi_def_cfa_offset 64
	sd	ra,56(sp)
	sd	s0,48(sp)
	.cfi_offset 1, -8
	.cfi_offset 8, -16
	addi	s0,sp,64
	.cfi_def_cfa 8, 0
	sd	a0,-56(s0)
	.loc 1 786 14
	li	a5,1
	sd	a5,-24(s0)
	.loc 1 787 11
	ld	a5,-56(s0)
	ld	a5,152(a5)
	sd	a5,-40(s0)
	.loc 1 789 12
	ld	a0,-56(s0)
	call	MmcIdentificationMode
	sd	a0,-32(s0)
	.loc 1 790 34
	ld	a5,-32(s0)
	.loc 1 790 6
	bge	a5,zero,.L120
	.loc 1 792 12
	ld	a5,-32(s0)
	j	.L121
.L120:
	.loc 1 795 12
	li	a1,6
	ld	a0,-56(s0)
	call	MmcNotifyState@plt
	sd	a0,-32(s0)
	.loc 1 796 34
	ld	a5,-32(s0)
	.loc 1 796 6
	bge	a5,zero,.L122
	.loc 1 798 12
	ld	a5,-32(s0)
	j	.L121
.L122:
	.loc 1 801 32
	ld	a5,-56(s0)
	lw	a4,100(a5)
	.loc 1 801 6
	li	a5,3
	beq	a4,a5,.L123
	.loc 1 802 14
	ld	a0,-56(s0)
	call	InitializeSdMmcDevice
	sd	a0,-32(s0)
	j	.L124
.L123:
	.loc 1 804 14
	ld	a0,-56(s0)
	call	InitializeEmmcDevice
	sd	a0,-32(s0)
.L124:
	.loc 1 807 34
	ld	a5,-32(s0)
	.loc 1 807 6
	bge	a5,zero,.L125
	.loc 1 808 12
	ld	a5,-32(s0)
	j	.L121
.L125:
	.loc 1 812 19
	ld	a5,-40(s0)
	ld	a5,40(a5)
	.loc 1 812 98
	ld	a4,-56(s0)
	ld	a4,56(a4)
	.loc 1 812 12
	lw	a4,12(a4)
	mv	a2,a4
	li	a4,65536
	addi	a1,a4,16
	ld	a0,-40(s0)
	jalr	a5
.LVL42:
	sd	a0,-32(s0)
	.loc 1 813 34
	ld	a5,-32(s0)
	.loc 1 813 6
	bge	a5,zero,.L126
	.loc 1 822 12
	ld	a5,-32(s0)
	j	.L121
.L126:
	.loc 1 826 32
	ld	a5,-56(s0)
	lw	a4,100(a5)
	.loc 1 826 6
	li	a5,1
	bne	a4,a5,.L127
	.loc 1 827 21
	ld	a5,-40(s0)
	ld	a5,40(a5)
	.loc 1 827 14
	ld	a4,-24(s0)
	sext.w	a4,a4
	mv	a2,a4
	li	a4,65536
	addi	a1,a4,23
	ld	a0,-40(s0)
	jalr	a5
.LVL43:
	sd	a0,-32(s0)
	.loc 1 828 36
	ld	a5,-32(s0)
	.loc 1 828 8
	bge	a5,zero,.L127
	.loc 1 830 14
	ld	a5,-32(s0)
	j	.L121
.L127:
	.loc 1 834 10
	li	a5,0
.L121:
	.loc 1 835 1
	mv	a0,a5
	ld	ra,56(sp)
	.cfi_restore 1
	ld	s0,48(sp)
	.cfi_restore 8
	.cfi_def_cfa 2, 64
	addi	sp,sp,64
	.cfi_def_cfa_offset 0
	jr	ra
	.cfi_endproc
.LFE7:
	.size	InitializeMmcDevice, .-InitializeMmcDevice
	.text
.Letext0:
	.file 2 "/home/kapoagaeming/Downloads/spacemit-image-builder/components/edk2/MdePkg/Include/RiscV64/ProcessorBind.h"
	.file 3 "/home/kapoagaeming/Downloads/spacemit-image-builder/components/edk2/MdePkg/Include/Base.h"
	.file 4 "/home/kapoagaeming/Downloads/spacemit-image-builder/components/edk2/MdePkg/Include/Uefi/UefiBaseType.h"
	.file 5 "/home/kapoagaeming/Downloads/spacemit-image-builder/components/edk2/MdePkg/Include/Uefi/UefiMultiPhase.h"
	.file 6 "/home/kapoagaeming/Downloads/spacemit-image-builder/components/edk2/MdePkg/Include/Protocol/DevicePath.h"
	.file 7 "/home/kapoagaeming/Downloads/spacemit-image-builder/components/edk2/MdePkg/Include/Uefi/UefiSpec.h"
	.file 8 "/home/kapoagaeming/Downloads/spacemit-image-builder/components/edk2/MdePkg/Include/Protocol/BlockIo.h"
	.file 9 "/home/kapoagaeming/Downloads/spacemit-image-builder/components/edk2/EmbeddedPkg/Include/Protocol/MmcHost.h"
	.file 10 "/home/kapoagaeming/Downloads/spacemit-image-builder/components/edk2/MdePkg/Include/Protocol/DiskInfo.h"
	.file 11 "/home/kapoagaeming/Downloads/spacemit-image-builder/components/edk2/MdePkg/Include/Library/UefiLib.h"
	.file 12 "/home/kapoagaeming/Downloads/spacemit-image-builder/components/edk2/MdePkg/Include/IndustryStandard/Sd.h"
	.file 13 "/home/kapoagaeming/Downloads/spacemit-image-builder/components/edk2/MdePkg/Include/IndustryStandard/Emmc.h"
	.file 14 "/home/kapoagaeming/Downloads/spacemit-image-builder/components/edk2-platforms/Silicon/Spacemit/Drivers/MmcDxe/Mmc.h"
	.file 15 "/home/kapoagaeming/Downloads/spacemit-image-builder/components/edk2/MdePkg/Include/Library/BaseLib.h"
	.file 16 "/home/kapoagaeming/Downloads/spacemit-image-builder/components/edk2/MdePkg/Include/Library/MemoryAllocationLib.h"
	.file 17 "/home/kapoagaeming/Downloads/spacemit-image-builder/components/edk2/MdePkg/Include/Library/BaseMemoryLib.h"
	.file 18 "/home/kapoagaeming/Downloads/spacemit-image-builder/components/edk2/MdePkg/Include/Library/UefiBootServicesTableLib.h"
	.section	.note.GNU-stack,"",@progbits
