	.file	"VariablePolicyHelperLib.c"
	.option pic
	.option norelax
	.attribute arch, "rv64i2p1_m2p0_a2p1_f2p2_d2p2_c2p0_zicsr2p0_zifencei2p0_zmmul1p0_zaamo1p0_zalrsc1p0_zca1p0_zcd1p0"
	.attribute unaligned_access, 0
	.attribute stack_align, 16
	.text
.Ltext0:
	.cfi_sections	.debug_frame
	.file 0 "/home/kapoagaeming/spacemit-image-builder/components/Build/Milk-V-Jupiter/RELEASE_GCC5/RISCV64/MdeModulePkg/Library/VariablePolicyHelperLib/VariablePolicyHelperLib" "/home/kapoagaeming/spacemit-image-builder/components/edk2/MdeModulePkg/Library/VariablePolicyHelperLib/VariablePolicyHelperLib.c"
	.section	.text.PopulateCommonData,"ax",@progbits
	.align	1
	.type	PopulateCommonData, @function
PopulateCommonData:
.LFB0:
	.file 1 "/home/kapoagaeming/spacemit-image-builder/components/edk2/MdeModulePkg/Library/VariablePolicyHelperLib/VariablePolicyHelperLib.c"
	.loc 1 47 1
	.cfi_startproc
	addi	sp,sp,-64
	.cfi_def_cfa_offset 64
	sd	ra,56(sp)
	sd	s0,48(sp)
	.cfi_offset 1, -8
	.cfi_offset 8, -16
	addi	s0,sp,64
	.cfi_def_cfa 8, 0
	sd	a0,-24(s0)
	sd	a1,-32(s0)
	mv	a0,a2
	mv	a1,a3
	mv	a2,a4
	mv	a3,a5
	mv	a4,a6
	mv	a5,a0
	sw	a5,-36(s0)
	mv	a5,a1
	sw	a5,-40(s0)
	mv	a5,a2
	sw	a5,-44(s0)
	mv	a5,a3
	sw	a5,-48(s0)
	mv	a5,a4
	sb	a5,-49(s0)
	.loc 1 48 19
	ld	a5,-24(s0)
	lbu	a4,0(a5)
	andi	a4,a4,0
	sb	a4,0(a5)
	lbu	a4,1(a5)
	andi	a4,a4,0
	sb	a4,1(a5)
	lbu	a4,2(a5)
	andi	a4,a4,0
	ori	a4,a4,1
	sb	a4,2(a5)
	lbu	a4,3(a5)
	andi	a4,a4,0
	sb	a4,3(a5)
	.loc 1 49 13
	ld	a5,-24(s0)
	addi	a5,a5,8
	.loc 1 49 3
	ld	a1,-32(s0)
	mv	a0,a5
	call	CopyGuid@plt
	.loc 1 50 19
	ld	a5,-24(s0)
	lwu	a4,-36(s0)
	andi	a4,a4,255
	lbu	a3,24(a5)
	andi	a3,a3,0
	or	a4,a3,a4
	sb	a4,24(a5)
	lw	a4,-36(s0)
	srliw	a4,a4,8
	slli	a4,a4,32
	srli	a4,a4,32
	andi	a4,a4,255
	lbu	a3,25(a5)
	andi	a3,a3,0
	or	a4,a3,a4
	sb	a4,25(a5)
	lw	a4,-36(s0)
	srliw	a4,a4,16
	slli	a4,a4,32
	srli	a4,a4,32
	andi	a4,a4,255
	lbu	a3,26(a5)
	andi	a3,a3,0
	or	a4,a3,a4
	sb	a4,26(a5)
	lw	a4,-36(s0)
	srliw	a4,a4,24
	slli	a4,a4,32
	srli	a4,a4,32
	lbu	a3,27(a5)
	andi	a3,a3,0
	or	a4,a3,a4
	sb	a4,27(a5)
	.loc 1 51 19
	ld	a5,-24(s0)
	lwu	a4,-40(s0)
	andi	a4,a4,255
	lbu	a3,28(a5)
	andi	a3,a3,0
	or	a4,a3,a4
	sb	a4,28(a5)
	lw	a4,-40(s0)
	srliw	a4,a4,8
	slli	a4,a4,32
	srli	a4,a4,32
	andi	a4,a4,255
	lbu	a3,29(a5)
	andi	a3,a3,0
	or	a4,a3,a4
	sb	a4,29(a5)
	lw	a4,-40(s0)
	srliw	a4,a4,16
	slli	a4,a4,32
	srli	a4,a4,32
	andi	a4,a4,255
	lbu	a3,30(a5)
	andi	a3,a3,0
	or	a4,a3,a4
	sb	a4,30(a5)
	lw	a4,-40(s0)
	srliw	a4,a4,24
	slli	a4,a4,32
	srli	a4,a4,32
	lbu	a3,31(a5)
	andi	a3,a3,0
	or	a4,a3,a4
	sb	a4,31(a5)
	.loc 1 52 30
	ld	a5,-24(s0)
	lwu	a4,-44(s0)
	andi	a4,a4,255
	lbu	a3,32(a5)
	andi	a3,a3,0
	or	a4,a3,a4
	sb	a4,32(a5)
	lw	a4,-44(s0)
	srliw	a4,a4,8
	slli	a4,a4,32
	srli	a4,a4,32
	andi	a4,a4,255
	lbu	a3,33(a5)
	andi	a3,a3,0
	or	a4,a3,a4
	sb	a4,33(a5)
	lw	a4,-44(s0)
	srliw	a4,a4,16
	slli	a4,a4,32
	srli	a4,a4,32
	andi	a4,a4,255
	lbu	a3,34(a5)
	andi	a3,a3,0
	or	a4,a3,a4
	sb	a4,34(a5)
	lw	a4,-44(s0)
	srliw	a4,a4,24
	slli	a4,a4,32
	srli	a4,a4,32
	lbu	a3,35(a5)
	andi	a3,a3,0
	or	a4,a3,a4
	sb	a4,35(a5)
	.loc 1 53 30
	ld	a5,-24(s0)
	lwu	a4,-48(s0)
	andi	a4,a4,255
	lbu	a3,36(a5)
	andi	a3,a3,0
	or	a4,a3,a4
	sb	a4,36(a5)
	lw	a4,-48(s0)
	srliw	a4,a4,8
	slli	a4,a4,32
	srli	a4,a4,32
	andi	a4,a4,255
	lbu	a3,37(a5)
	andi	a3,a3,0
	or	a4,a3,a4
	sb	a4,37(a5)
	lw	a4,-48(s0)
	srliw	a4,a4,16
	slli	a4,a4,32
	srli	a4,a4,32
	andi	a4,a4,255
	lbu	a3,38(a5)
	andi	a3,a3,0
	or	a4,a3,a4
	sb	a4,38(a5)
	lw	a4,-48(s0)
	srliw	a4,a4,24
	slli	a4,a4,32
	srli	a4,a4,32
	lbu	a3,39(a5)
	andi	a3,a3,0
	or	a4,a3,a4
	sb	a4,39(a5)
	.loc 1 54 26
	ld	a5,-24(s0)
	lbu	a4,-49(s0)
	sb	a4,40(a5)
	.loc 1 57 13
	ld	a5,-24(s0)
	lbu	a4,28(a5)
	lbu	a3,29(a5)
	slli	a3,a3,8
	or	a4,a3,a4
	lbu	a3,30(a5)
	slli	a3,a3,16
	or	a4,a3,a4
	lbu	a5,31(a5)
	slli	a5,a5,24
	or	a5,a5,a4
	sext.w	a5,a5
	.loc 1 57 6
	bne	a5,zero,.L4
	.loc 1 58 21
	ld	a5,-24(s0)
	lbu	a4,28(a5)
	ori	a4,a4,-1
	sb	a4,28(a5)
	lbu	a4,29(a5)
	ori	a4,a4,-1
	sb	a4,29(a5)
	lbu	a4,30(a5)
	ori	a4,a4,-1
	sb	a4,30(a5)
	lbu	a4,31(a5)
	ori	a4,a4,-1
	sb	a4,31(a5)
	.loc 1 61 3
	nop
.L4:
	nop
	.loc 1 62 1
	ld	ra,56(sp)
	.cfi_restore 1
	ld	s0,48(sp)
	.cfi_restore 8
	.cfi_def_cfa 2, 64
	addi	sp,sp,64
	.cfi_def_cfa_offset 0
	jr	ra
	.cfi_endproc
.LFE0:
	.size	PopulateCommonData, .-PopulateCommonData
	.section	.text.CreateBasicVariablePolicy,"ax",@progbits
	.align	1
	.globl	CreateBasicVariablePolicy
	.type	CreateBasicVariablePolicy, @function
CreateBasicVariablePolicy:
.LFB1:
	.loc 1 101 1
	.cfi_startproc
	addi	sp,sp,-96
	.cfi_def_cfa_offset 96
	sd	ra,88(sp)
	sd	s0,80(sp)
	.cfi_offset 1, -8
	.cfi_offset 8, -16
	addi	s0,sp,96
	.cfi_def_cfa 8, 0
	sd	a0,-56(s0)
	sd	a1,-64(s0)
	mv	a0,a2
	mv	a1,a3
	mv	a2,a4
	mv	a3,a5
	mv	a4,a6
	sd	a7,-96(s0)
	mv	a5,a0
	sw	a5,-68(s0)
	mv	a5,a1
	sw	a5,-72(s0)
	mv	a5,a2
	sw	a5,-76(s0)
	mv	a5,a3
	sw	a5,-80(s0)
	mv	a5,a4
	sb	a5,-81(s0)
	.loc 1 108 6
	ld	a5,-56(s0)
	beq	a5,zero,.L6
	.loc 1 108 35 discriminator 1
	ld	a5,-96(s0)
	bne	a5,zero,.L7
.L6:
	.loc 1 109 12
	li	a5,-1
	slli	a5,a5,63
	addi	a5,a5,2
	j	.L8
.L7:
	.loc 1 112 6
	lbu	a5,-81(s0)
	andi	a5,a5,0xff
	beq	a5,zero,.L9
	.loc 1 112 29 discriminator 1
	lbu	a5,-81(s0)
	andi	a4,a5,0xff
	li	a5,1
	beq	a4,a5,.L9
	.loc 1 113 29
	lbu	a5,-81(s0)
	andi	a4,a5,0xff
	li	a5,2
	beq	a4,a5,.L9
	.loc 1 116 12
	li	a5,-1
	slli	a5,a5,63
	addi	a5,a5,2
	j	.L8
.L9:
	.loc 1 122 12
	sd	zero,-32(s0)
	.loc 1 126 13
	li	a5,44
	sd	a5,-24(s0)
	.loc 1 127 6
	ld	a5,-64(s0)
	beq	a5,zero,.L10
	.loc 1 128 16
	li	a5,65536
	addi	a1,a5,-1
	ld	a0,-64(s0)
	call	StrnSizeS@plt
	sd	a0,-32(s0)
	.loc 1 129 15
	ld	a4,-24(s0)
	ld	a5,-32(s0)
	add	a5,a4,a5
	sd	a5,-24(s0)
.L10:
	.loc 1 134 6
	ld	a4,-24(s0)
	li	a5,65536
	bltu	a4,a5,.L11
	.loc 1 135 12
	li	a5,-1
	slli	a5,a5,63
	addi	a5,a5,5
	j	.L8
.L11:
	.loc 1 139 15
	ld	a0,-24(s0)
	call	AllocatePool@plt
	mv	a4,a0
	.loc 1 139 13 discriminator 1
	ld	a5,-96(s0)
	sd	a4,0(a5)
	.loc 1 140 7
	ld	a5,-96(s0)
	ld	a5,0(a5)
	.loc 1 140 6
	bne	a5,zero,.L12
	.loc 1 141 12
	li	a5,-1
	slli	a5,a5,63
	addi	a5,a5,9
	j	.L8
.L12:
	.loc 1 146 10
	ld	a5,-96(s0)
	ld	a5,0(a5)
	sd	a5,-40(s0)
	.loc 1 147 3
	lbu	a1,-81(s0)
	lw	a5,-80(s0)
	lw	a4,-76(s0)
	lw	a3,-72(s0)
	lw	a2,-68(s0)
	mv	a6,a1
	ld	a1,-56(s0)
	ld	a0,-40(s0)
	call	PopulateCommonData
	.loc 1 156 18
	ld	a5,-24(s0)
	slli	a4,a5,48
	srli	a4,a4,48
	.loc 1 156 16
	ld	a5,-40(s0)
	andi	a3,a4,255
	lbu	a2,4(a5)
	andi	a2,a2,0
	or	a3,a2,a3
	sb	a3,4(a5)
	srliw	a4,a4,8
	slli	a4,a4,48
	srli	a4,a4,48
	lbu	a3,5(a5)
	andi	a3,a3,0
	or	a4,a3,a4
	sb	a4,5(a5)
	.loc 1 157 24
	ld	a5,-40(s0)
	lbu	a4,6(a5)
	andi	a4,a4,0
	ori	a4,a4,44
	sb	a4,6(a5)
	lbu	a4,7(a5)
	andi	a4,a4,0
	sb	a4,7(a5)
	.loc 1 158 6
	ld	a5,-64(s0)
	beq	a5,zero,.L13
	.loc 1 159 51
	ld	a5,-40(s0)
	lbu	a4,6(a5)
	lbu	a5,7(a5)
	slli	a5,a5,8
	or	a5,a5,a4
	slli	a5,a5,48
	srli	a5,a5,48
	mv	a4,a5
	.loc 1 159 14
	ld	a5,-40(s0)
	add	a5,a5,a4
	sd	a5,-48(s0)
	.loc 1 160 5
	ld	a2,-32(s0)
	ld	a1,-64(s0)
	ld	a0,-48(s0)
	call	CopyMem@plt
.L13:
	.loc 1 163 10
	li	a5,0
.L8:
	.loc 1 164 1
	mv	a0,a5
	ld	ra,88(sp)
	.cfi_restore 1
	ld	s0,80(sp)
	.cfi_restore 8
	.cfi_def_cfa 2, 96
	addi	sp,sp,96
	.cfi_def_cfa_offset 0
	jr	ra
	.cfi_endproc
.LFE1:
	.size	CreateBasicVariablePolicy, .-CreateBasicVariablePolicy
	.section	.text.CreateVarStateVariablePolicy,"ax",@progbits
	.align	1
	.globl	CreateVarStateVariablePolicy
	.type	CreateVarStateVariablePolicy, @function
CreateVarStateVariablePolicy:
.LFB2:
	.loc 1 205 1
	.cfi_startproc
	addi	sp,sp,-112
	.cfi_def_cfa_offset 112
	sd	ra,104(sp)
	sd	s0,96(sp)
	.cfi_offset 1, -8
	.cfi_offset 8, -16
	addi	s0,sp,112
	.cfi_def_cfa 8, 0
	sd	a0,-72(s0)
	sd	a1,-80(s0)
	mv	a0,a2
	mv	a1,a3
	mv	a2,a4
	mv	a3,a5
	sd	a6,-104(s0)
	mv	a4,a7
	mv	a5,a0
	sw	a5,-84(s0)
	mv	a5,a1
	sw	a5,-88(s0)
	mv	a5,a2
	sw	a5,-92(s0)
	mv	a5,a3
	sw	a5,-96(s0)
	mv	a5,a4
	sb	a5,-105(s0)
	.loc 1 214 6
	ld	a5,-72(s0)
	beq	a5,zero,.L15
	.loc 1 214 35 discriminator 1
	ld	a5,-104(s0)
	beq	a5,zero,.L15
	.loc 1 214 74 discriminator 2
	ld	a5,0(s0)
	beq	a5,zero,.L15
	.loc 1 215 38
	ld	a5,8(s0)
	bne	a5,zero,.L16
.L15:
	.loc 1 217 12
	li	a5,-1
	slli	a5,a5,63
	addi	a5,a5,2
	j	.L17
.L16:
	.loc 1 222 22
	li	a5,65536
	addi	a1,a5,-1
	ld	a0,0(s0)
	call	StrnSizeS@plt
	sd	a0,-40(s0)
	.loc 1 223 13
	ld	a5,-40(s0)
	addi	a5,a5,62
	sd	a5,-24(s0)
	.loc 1 226 6
	ld	a5,-80(s0)
	beq	a5,zero,.L18
	.loc 1 227 16
	li	a5,65536
	addi	a1,a5,-1
	ld	a0,-80(s0)
	call	StrnSizeS@plt
	sd	a0,-32(s0)
	.loc 1 228 15
	ld	a4,-24(s0)
	ld	a5,-32(s0)
	add	a5,a4,a5
	sd	a5,-24(s0)
.L18:
	.loc 1 233 6
	ld	a4,-24(s0)
	li	a5,65536
	bltu	a4,a5,.L19
	.loc 1 234 12
	li	a5,-1
	slli	a5,a5,63
	addi	a5,a5,5
	j	.L17
.L19:
	.loc 1 238 15
	ld	a0,-24(s0)
	call	AllocatePool@plt
	mv	a4,a0
	.loc 1 238 13 discriminator 1
	ld	a5,8(s0)
	sd	a4,0(a5)
	.loc 1 239 7
	ld	a5,8(s0)
	ld	a5,0(a5)
	.loc 1 239 6
	bne	a5,zero,.L20
	.loc 1 240 12
	li	a5,-1
	slli	a5,a5,63
	addi	a5,a5,9
	j	.L17
.L20:
	.loc 1 245 10
	ld	a5,8(s0)
	ld	a5,0(a5)
	sd	a5,-48(s0)
	.loc 1 246 3
	lw	a5,-96(s0)
	lw	a4,-92(s0)
	lw	a3,-88(s0)
	lw	a2,-84(s0)
	li	a6,3
	ld	a1,-72(s0)
	ld	a0,-48(s0)
	call	PopulateCommonData
	.loc 1 255 18
	ld	a5,-24(s0)
	slli	a4,a5,48
	srli	a4,a4,48
	.loc 1 255 16
	ld	a5,-48(s0)
	andi	a3,a4,255
	lbu	a2,4(a5)
	andi	a2,a2,0
	or	a3,a2,a3
	sb	a3,4(a5)
	srliw	a4,a4,8
	slli	a4,a4,48
	srli	a4,a4,48
	lbu	a3,5(a5)
	andi	a3,a3,0
	or	a4,a3,a4
	sb	a4,5(a5)
	.loc 1 258 26
	ld	a5,-40(s0)
	slli	a5,a5,48
	srli	a5,a5,48
	.loc 1 257 69
	addiw	a5,a5,62
	slli	a4,a5,48
	srli	a4,a4,48
	.loc 1 256 24
	ld	a5,-48(s0)
	andi	a3,a4,255
	lbu	a2,6(a5)
	andi	a2,a2,0
	or	a3,a2,a3
	sb	a3,6(a5)
	srliw	a4,a4,8
	slli	a4,a4,48
	srli	a4,a4,48
	lbu	a3,7(a5)
	andi	a3,a3,0
	or	a4,a3,a4
	sb	a4,7(a5)
	.loc 1 260 14
	ld	a5,-48(s0)
	addi	a5,a5,44
	sd	a5,-56(s0)
	.loc 1 261 12
	ld	a5,-56(s0)
	addi	a5,a5,18
	sd	a5,-64(s0)
	.loc 1 262 13
	ld	a5,-56(s0)
	.loc 1 262 3
	ld	a1,-104(s0)
	mv	a0,a5
	call	CopyGuid@plt
	.loc 1 263 21
	ld	a5,-56(s0)
	lbu	a4,-105(s0)
	sb	a4,16(a5)
	.loc 1 264 3
	ld	a2,-40(s0)
	ld	a1,0(s0)
	ld	a0,-64(s0)
	call	CopyMem@plt
	.loc 1 266 6
	ld	a5,-80(s0)
	beq	a5,zero,.L21
	.loc 1 267 51
	ld	a5,-48(s0)
	lbu	a4,6(a5)
	lbu	a5,7(a5)
	slli	a5,a5,8
	or	a5,a5,a4
	slli	a5,a5,48
	srli	a5,a5,48
	mv	a4,a5
	.loc 1 267 14
	ld	a5,-48(s0)
	add	a5,a5,a4
	sd	a5,-64(s0)
	.loc 1 268 5
	ld	a2,-32(s0)
	ld	a1,-80(s0)
	ld	a0,-64(s0)
	call	CopyMem@plt
.L21:
	.loc 1 271 10
	li	a5,0
.L17:
	.loc 1 272 1
	mv	a0,a5
	ld	ra,104(sp)
	.cfi_restore 1
	ld	s0,96(sp)
	.cfi_restore 8
	.cfi_def_cfa 2, 112
	addi	sp,sp,112
	.cfi_def_cfa_offset 0
	jr	ra
	.cfi_endproc
.LFE2:
	.size	CreateVarStateVariablePolicy, .-CreateVarStateVariablePolicy
	.section	.text.RegisterBasicVariablePolicy,"ax",@progbits
	.align	1
	.globl	RegisterBasicVariablePolicy
	.type	RegisterBasicVariablePolicy, @function
RegisterBasicVariablePolicy:
.LFB3:
	.loc 1 305 1
	.cfi_startproc
	addi	sp,sp,-80
	.cfi_def_cfa_offset 80
	sd	ra,72(sp)
	sd	s0,64(sp)
	.cfi_offset 1, -8
	.cfi_offset 8, -16
	addi	s0,sp,80
	.cfi_def_cfa 8, 0
	sd	a0,-40(s0)
	sd	a1,-48(s0)
	sd	a2,-56(s0)
	mv	a0,a3
	mv	a1,a4
	mv	a2,a5
	mv	a3,a6
	mv	a4,a7
	mv	a5,a0
	sw	a5,-60(s0)
	mv	a5,a1
	sw	a5,-64(s0)
	mv	a5,a2
	sw	a5,-68(s0)
	mv	a5,a3
	sw	a5,-72(s0)
	mv	a5,a4
	sb	a5,-73(s0)
	.loc 1 310 6
	ld	a5,-40(s0)
	bne	a5,zero,.L23
	.loc 1 311 12
	li	a5,-1
	slli	a5,a5,63
	addi	a5,a5,2
	j	.L27
.L23:
	.loc 1 315 12
	sd	zero,-32(s0)
	.loc 1 316 12
	addi	a0,s0,-32
	lbu	a1,-73(s0)
	lw	a5,-72(s0)
	lw	a4,-68(s0)
	lw	a3,-64(s0)
	lw	a2,-60(s0)
	mv	a7,a0
	mv	a6,a1
	ld	a1,-56(s0)
	ld	a0,-48(s0)
	call	CreateBasicVariablePolicy
	sd	a0,-24(s0)
	.loc 1 328 7
	ld	a5,-24(s0)
	.loc 1 328 6
	blt	a5,zero,.L25
	.loc 1 329 28
	ld	a5,-40(s0)
	ld	a5,24(a5)
	.loc 1 329 14
	ld	a4,-32(s0)
	mv	a0,a4
	jalr	a5
.LVL0:
	sd	a0,-24(s0)
.L25:
	.loc 1 333 16
	ld	a5,-32(s0)
	.loc 1 333 6
	beq	a5,zero,.L26
	.loc 1 334 5
	ld	a5,-32(s0)
	mv	a0,a5
	call	FreePool@plt
.L26:
	.loc 1 337 10
	ld	a5,-24(s0)
.L27:
	.loc 1 338 1
	mv	a0,a5
	ld	ra,72(sp)
	.cfi_restore 1
	ld	s0,64(sp)
	.cfi_restore 8
	.cfi_def_cfa 2, 80
	addi	sp,sp,80
	.cfi_def_cfa_offset 0
	jr	ra
	.cfi_endproc
.LFE3:
	.size	RegisterBasicVariablePolicy, .-RegisterBasicVariablePolicy
	.section	.text.RegisterVarStateVariablePolicy,"ax",@progbits
	.align	1
	.globl	RegisterVarStateVariablePolicy
	.type	RegisterVarStateVariablePolicy, @function
RegisterVarStateVariablePolicy:
.LFB4:
	.loc 1 375 1
	.cfi_startproc
	addi	sp,sp,-96
	.cfi_def_cfa_offset 96
	sd	ra,88(sp)
	sd	s0,80(sp)
	.cfi_offset 1, -8
	.cfi_offset 8, -16
	addi	s0,sp,96
	.cfi_def_cfa 8, 0
	sd	a0,-40(s0)
	sd	a1,-48(s0)
	sd	a2,-56(s0)
	mv	a1,a3
	mv	a2,a4
	mv	a3,a5
	mv	a4,a6
	sd	a7,-80(s0)
	mv	a5,a1
	sw	a5,-60(s0)
	mv	a5,a2
	sw	a5,-64(s0)
	mv	a5,a3
	sw	a5,-68(s0)
	mv	a5,a4
	sw	a5,-72(s0)
	.loc 1 380 6
	ld	a5,-40(s0)
	bne	a5,zero,.L29
	.loc 1 381 12
	li	a5,-1
	slli	a5,a5,63
	addi	a5,a5,2
	j	.L33
.L29:
	.loc 1 385 12
	sd	zero,-32(s0)
	.loc 1 386 12
	lbu	a0,8(s0)
	lw	a1,-72(s0)
	lw	a4,-68(s0)
	lw	a3,-64(s0)
	lw	a2,-60(s0)
	addi	a5,s0,-32
	sd	a5,8(sp)
	ld	a5,0(s0)
	sd	a5,0(sp)
	mv	a7,a0
	ld	a6,-80(s0)
	mv	a5,a1
	ld	a1,-56(s0)
	ld	a0,-48(s0)
	call	CreateVarStateVariablePolicy
	sd	a0,-24(s0)
	.loc 1 400 7
	ld	a5,-24(s0)
	.loc 1 400 6
	blt	a5,zero,.L31
	.loc 1 401 28
	ld	a5,-40(s0)
	ld	a5,24(a5)
	.loc 1 401 14
	ld	a4,-32(s0)
	mv	a0,a4
	jalr	a5
.LVL1:
	sd	a0,-24(s0)
.L31:
	.loc 1 405 16
	ld	a5,-32(s0)
	.loc 1 405 6
	beq	a5,zero,.L32
	.loc 1 406 5
	ld	a5,-32(s0)
	mv	a0,a5
	call	FreePool@plt
.L32:
	.loc 1 409 10
	ld	a5,-24(s0)
.L33:
	.loc 1 410 1
	mv	a0,a5
	ld	ra,88(sp)
	.cfi_restore 1
	ld	s0,80(sp)
	.cfi_restore 8
	.cfi_def_cfa 2, 96
	addi	sp,sp,96
	.cfi_def_cfa_offset 0
	jr	ra
	.cfi_endproc
.LFE4:
	.size	RegisterVarStateVariablePolicy, .-RegisterVarStateVariablePolicy
	.text
.Letext0:
	.file 2 "/home/kapoagaeming/spacemit-image-builder/components/edk2/MdePkg/Include/RiscV64/ProcessorBind.h"
	.file 3 "/home/kapoagaeming/spacemit-image-builder/components/edk2/MdePkg/Include/Base.h"
	.file 4 "/home/kapoagaeming/spacemit-image-builder/components/edk2/MdePkg/Include/Uefi/UefiBaseType.h"
	.file 5 "/home/kapoagaeming/spacemit-image-builder/components/edk2/MdeModulePkg/Include/Protocol/VariablePolicy.h"
	.file 6 "/home/kapoagaeming/spacemit-image-builder/components/edk2/MdePkg/Include/Library/BaseMemoryLib.h"
	.file 7 "/home/kapoagaeming/spacemit-image-builder/components/edk2/MdePkg/Include/Library/MemoryAllocationLib.h"
	.file 8 "/home/kapoagaeming/spacemit-image-builder/components/edk2/MdePkg/Include/Library/BaseLib.h"
	.section	.note.GNU-stack,"",@progbits
