	.file	"LibSmbiosView.c"
	.option pic
	.option norelax
	.attribute arch, "rv64i2p1_m2p0_a2p1_f2p2_d2p2_c2p0_zicsr2p0_zifencei2p0_zmmul1p0_zaamo1p0_zalrsc1p0_zca1p0_zcd1p0"
	.attribute unaligned_access, 0
	.attribute stack_align, 16
	.text
.Ltext0:
	.cfi_sections	.debug_frame
	.file 0 "/home/kapoagaeming/spacemit-image-builder/components/Build/Milk-V-Jupiter/RELEASE_GCC5/RISCV64/ShellPkg/Library/UefiShellDebug1CommandsLib/UefiShellDebug1CommandsLib" "/home/kapoagaeming/spacemit-image-builder/components/edk2/ShellPkg/Library/UefiShellDebug1CommandsLib/SmbiosView/LibSmbiosView.c"
	.section	.bss.mInit,"aw",@nobits
	.type	mInit, @object
	.size	mInit, 1
mInit:
	.zero	1
	.section	.bss.m64Init,"aw",@nobits
	.type	m64Init, @object
	.size	m64Init, 1
m64Init:
	.zero	1
	.section	.bss.mSmbiosTable,"aw",@nobits
	.align	3
	.type	mSmbiosTable, @object
	.size	mSmbiosTable, 8
mSmbiosTable:
	.zero	8
	.section	.bss.mSmbios64BitTable,"aw",@nobits
	.align	3
	.type	mSmbios64BitTable, @object
	.size	mSmbios64BitTable, 8
mSmbios64BitTable:
	.zero	8
	.section	.bss.m_SmbiosStruct,"aw",@nobits
	.align	3
	.type	m_SmbiosStruct, @object
	.size	m_SmbiosStruct, 8
m_SmbiosStruct:
	.zero	8
	.section	.data.rel.local.mSmbiosStruct,"aw"
	.align	3
	.type	mSmbiosStruct, @object
	.size	mSmbiosStruct, 8
mSmbiosStruct:
	.dword	m_SmbiosStruct
	.section	.bss.m_Smbios64BitStruct,"aw",@nobits
	.align	3
	.type	m_Smbios64BitStruct, @object
	.size	m_Smbios64BitStruct, 8
m_Smbios64BitStruct:
	.zero	8
	.section	.data.rel.local.mSmbios64BitStruct,"aw"
	.align	3
	.type	mSmbios64BitStruct, @object
	.size	mSmbios64BitStruct, 8
mSmbios64BitStruct:
	.dword	m_Smbios64BitStruct
	.section	.text.LibSmbiosInit,"ax",@progbits
	.align	1
	.globl	LibSmbiosInit
	.type	LibSmbiosInit, @function
LibSmbiosInit:
.LFB0:
	.file 1 "/home/kapoagaeming/spacemit-image-builder/components/edk2/ShellPkg/Library/UefiShellDebug1CommandsLib/SmbiosView/LibSmbiosView.c"
	.loc 1 32 1
	.cfi_startproc
	addi	sp,sp,-32
	.cfi_def_cfa_offset 32
	sd	ra,24(sp)
	sd	s0,16(sp)
	.cfi_offset 1, -8
	.cfi_offset 8, -16
	addi	s0,sp,32
	.cfi_def_cfa 8, 0
	.loc 1 38 13
	lla	a5,mInit
	lbu	a5,0(a5)
	.loc 1 38 6
	mv	a4,a5
	li	a5,1
	bne	a4,a5,.L2
	.loc 1 39 12
	li	a5,0
	j	.L3
.L2:
	.loc 1 45 12
	lla	a1,mSmbiosTable
	la	a0,gEfiSmbiosTableGuid
	call	GetSystemConfigurationTable@plt
	sd	a0,-24(s0)
	.loc 1 47 20
	lla	a5,mSmbiosTable
	ld	a5,0(a5)
	.loc 1 47 6
	bne	a5,zero,.L4
	.loc 1 48 12
	li	a5,-1
	slli	a5,a5,63
	addi	a5,a5,14
	j	.L3
.L4:
	.loc 1 51 34
	ld	a5,-24(s0)
	.loc 1 51 6
	bge	a5,zero,.L5
	.loc 1 52 5
	la	a5,gShellDebug1HiiHandle
	ld	a4,0(a5)
	ld	a5,-24(s0)
	li	a3,123
	li	a2,0
	li	a1,-1
	li	a0,-1
	call	ShellPrintHiiEx@plt
	.loc 1 53 12
	ld	a5,-24(s0)
	j	.L3
.L5:
	.loc 1 59 53
	lla	a5,mSmbiosTable
	ld	a5,0(a5)
	lbu	a4,24(a5)
	lbu	a3,25(a5)
	slli	a3,a3,8
	or	a4,a3,a4
	lbu	a3,26(a5)
	slli	a3,a3,16
	or	a4,a3,a4
	lbu	a5,27(a5)
	slli	a5,a5,24
	or	a5,a5,a4
	sext.w	a5,a5
	.loc 1 59 33
	slli	a4,a5,32
	srli	a4,a4,32
	.loc 1 59 16
	lla	a5,mSmbiosStruct
	ld	a5,0(a5)
	.loc 1 59 22
	andi	a3,a4,255
	lbu	a2,0(a5)
	andi	a2,a2,0
	or	a3,a2,a3
	sb	a3,0(a5)
	srli	a3,a4,8
	andi	a3,a3,255
	lbu	a2,1(a5)
	andi	a2,a2,0
	or	a3,a2,a3
	sb	a3,1(a5)
	srli	a3,a4,16
	andi	a3,a3,255
	lbu	a2,2(a5)
	andi	a2,a2,0
	or	a3,a2,a3
	sb	a3,2(a5)
	srli	a3,a4,24
	andi	a3,a3,255
	lbu	a2,3(a5)
	andi	a2,a2,0
	or	a3,a2,a3
	sb	a3,3(a5)
	srli	a3,a4,32
	andi	a3,a3,255
	lbu	a2,4(a5)
	andi	a2,a2,0
	or	a3,a2,a3
	sb	a3,4(a5)
	srli	a3,a4,40
	andi	a3,a3,255
	lbu	a2,5(a5)
	andi	a2,a2,0
	or	a3,a2,a3
	sb	a3,5(a5)
	srli	a3,a4,48
	andi	a3,a3,255
	lbu	a2,6(a5)
	andi	a2,a2,0
	or	a3,a2,a3
	sb	a3,6(a5)
	srli	a4,a4,56
	lbu	a3,7(a5)
	andi	a3,a3,0
	or	a4,a3,a4
	sb	a4,7(a5)
	.loc 1 61 9
	lla	a5,mInit
	li	a4,1
	sb	a4,0(a5)
	.loc 1 62 10
	li	a5,0
.L3:
	.loc 1 63 1
	mv	a0,a5
	ld	ra,24(sp)
	.cfi_restore 1
	ld	s0,16(sp)
	.cfi_restore 8
	.cfi_def_cfa 2, 32
	addi	sp,sp,32
	.cfi_def_cfa_offset 0
	jr	ra
	.cfi_endproc
.LFE0:
	.size	LibSmbiosInit, .-LibSmbiosInit
	.section	.text.LibSmbios64BitInit,"ax",@progbits
	.align	1
	.globl	LibSmbios64BitInit
	.type	LibSmbios64BitInit, @function
LibSmbios64BitInit:
.LFB1:
	.loc 1 74 1
	.cfi_startproc
	addi	sp,sp,-32
	.cfi_def_cfa_offset 32
	sd	ra,24(sp)
	sd	s0,16(sp)
	.cfi_offset 1, -8
	.cfi_offset 8, -16
	addi	s0,sp,32
	.cfi_def_cfa 8, 0
	.loc 1 80 15
	lla	a5,m64Init
	lbu	a5,0(a5)
	.loc 1 80 6
	mv	a4,a5
	li	a5,1
	bne	a4,a5,.L7
	.loc 1 81 12
	li	a5,0
	j	.L8
.L7:
	.loc 1 87 12
	lla	a1,mSmbios64BitTable
	la	a0,gEfiSmbios3TableGuid
	call	GetSystemConfigurationTable@plt
	sd	a0,-24(s0)
	.loc 1 89 25
	lla	a5,mSmbios64BitTable
	ld	a5,0(a5)
	.loc 1 89 6
	bne	a5,zero,.L9
	.loc 1 90 12
	li	a5,-1
	slli	a5,a5,63
	addi	a5,a5,14
	j	.L8
.L9:
	.loc 1 93 34
	ld	a5,-24(s0)
	.loc 1 93 6
	bge	a5,zero,.L10
	.loc 1 94 5
	la	a5,gShellDebug1HiiHandle
	ld	a4,0(a5)
	ld	a5,-24(s0)
	li	a3,123
	li	a2,0
	li	a1,-1
	li	a0,-1
	call	ShellPrintHiiEx@plt
	.loc 1 95 12
	ld	a5,-24(s0)
	j	.L8
.L10:
	.loc 1 101 63
	lla	a5,mSmbios64BitTable
	ld	a5,0(a5)
	lbu	a4,16(a5)
	lbu	a3,17(a5)
	slli	a3,a3,8
	or	a4,a3,a4
	lbu	a3,18(a5)
	slli	a3,a3,16
	or	a4,a3,a4
	lbu	a3,19(a5)
	slli	a3,a3,24
	or	a4,a3,a4
	lbu	a3,20(a5)
	slli	a3,a3,32
	or	a4,a3,a4
	lbu	a3,21(a5)
	slli	a3,a3,40
	or	a4,a3,a4
	lbu	a3,22(a5)
	slli	a3,a3,48
	or	a4,a3,a4
	lbu	a5,23(a5)
	slli	a5,a5,56
	or	a5,a5,a4
	mv	a4,a5
	.loc 1 101 21
	lla	a5,mSmbios64BitStruct
	ld	a5,0(a5)
	.loc 1 101 27
	andi	a3,a4,255
	lbu	a2,0(a5)
	andi	a2,a2,0
	or	a3,a2,a3
	sb	a3,0(a5)
	srli	a3,a4,8
	andi	a3,a3,255
	lbu	a2,1(a5)
	andi	a2,a2,0
	or	a3,a2,a3
	sb	a3,1(a5)
	srli	a3,a4,16
	andi	a3,a3,255
	lbu	a2,2(a5)
	andi	a2,a2,0
	or	a3,a2,a3
	sb	a3,2(a5)
	srli	a3,a4,24
	andi	a3,a3,255
	lbu	a2,3(a5)
	andi	a2,a2,0
	or	a3,a2,a3
	sb	a3,3(a5)
	srli	a3,a4,32
	andi	a3,a3,255
	lbu	a2,4(a5)
	andi	a2,a2,0
	or	a3,a2,a3
	sb	a3,4(a5)
	srli	a3,a4,40
	andi	a3,a3,255
	lbu	a2,5(a5)
	andi	a2,a2,0
	or	a3,a2,a3
	sb	a3,5(a5)
	srli	a3,a4,48
	andi	a3,a3,255
	lbu	a2,6(a5)
	andi	a2,a2,0
	or	a3,a2,a3
	sb	a3,6(a5)
	srli	a4,a4,56
	lbu	a3,7(a5)
	andi	a3,a3,0
	or	a4,a3,a4
	sb	a4,7(a5)
	.loc 1 103 11
	lla	a5,m64Init
	li	a4,1
	sb	a4,0(a5)
	.loc 1 104 10
	li	a5,0
.L8:
	.loc 1 105 1
	mv	a0,a5
	ld	ra,24(sp)
	.cfi_restore 1
	ld	s0,16(sp)
	.cfi_restore 8
	.cfi_def_cfa 2, 32
	addi	sp,sp,32
	.cfi_def_cfa_offset 0
	jr	ra
	.cfi_endproc
.LFE1:
	.size	LibSmbios64BitInit, .-LibSmbios64BitInit
	.section	.text.LibSmbiosCleanup,"ax",@progbits
	.align	1
	.globl	LibSmbiosCleanup
	.type	LibSmbiosCleanup, @function
LibSmbiosCleanup:
.LFB2:
	.loc 1 114 1
	.cfi_startproc
	addi	sp,sp,-16
	.cfi_def_cfa_offset 16
	sd	ra,8(sp)
	sd	s0,0(sp)
	.cfi_offset 1, -8
	.cfi_offset 8, -16
	addi	s0,sp,16
	.cfi_def_cfa 8, 0
	.loc 1 118 20
	lla	a5,mSmbiosTable
	ld	a5,0(a5)
	.loc 1 118 6
	beq	a5,zero,.L12
	.loc 1 119 18
	lla	a5,mSmbiosTable
	sd	zero,0(a5)
.L12:
	.loc 1 122 9
	lla	a5,mInit
	sb	zero,0(a5)
	.loc 1 123 1
	nop
	ld	ra,8(sp)
	.cfi_restore 1
	ld	s0,0(sp)
	.cfi_restore 8
	.cfi_def_cfa 2, 16
	addi	sp,sp,16
	.cfi_def_cfa_offset 0
	jr	ra
	.cfi_endproc
.LFE2:
	.size	LibSmbiosCleanup, .-LibSmbiosCleanup
	.section	.text.LibSmbios64BitCleanup,"ax",@progbits
	.align	1
	.globl	LibSmbios64BitCleanup
	.type	LibSmbios64BitCleanup, @function
LibSmbios64BitCleanup:
.LFB3:
	.loc 1 132 1
	.cfi_startproc
	addi	sp,sp,-16
	.cfi_def_cfa_offset 16
	sd	ra,8(sp)
	sd	s0,0(sp)
	.cfi_offset 1, -8
	.cfi_offset 8, -16
	addi	s0,sp,16
	.cfi_def_cfa 8, 0
	.loc 1 136 25
	lla	a5,mSmbios64BitTable
	ld	a5,0(a5)
	.loc 1 136 6
	beq	a5,zero,.L14
	.loc 1 137 23
	lla	a5,mSmbios64BitTable
	sd	zero,0(a5)
.L14:
	.loc 1 140 11
	lla	a5,m64Init
	sb	zero,0(a5)
	.loc 1 141 1
	nop
	ld	ra,8(sp)
	.cfi_restore 1
	ld	s0,0(sp)
	.cfi_restore 8
	.cfi_def_cfa 2, 16
	addi	sp,sp,16
	.cfi_def_cfa_offset 0
	jr	ra
	.cfi_endproc
.LFE3:
	.size	LibSmbios64BitCleanup, .-LibSmbios64BitCleanup
	.section	.text.LibSmbiosGetEPS,"ax",@progbits
	.align	1
	.globl	LibSmbiosGetEPS
	.type	LibSmbiosGetEPS, @function
LibSmbiosGetEPS:
.LFB4:
	.loc 1 152 1
	.cfi_startproc
	addi	sp,sp,-32
	.cfi_def_cfa_offset 32
	sd	ra,24(sp)
	sd	s0,16(sp)
	.cfi_offset 1, -8
	.cfi_offset 8, -16
	addi	s0,sp,32
	.cfi_def_cfa 8, 0
	sd	a0,-24(s0)
	.loc 1 156 24
	lla	a5,mSmbiosTable
	ld	a4,0(a5)
	ld	a5,-24(s0)
	sd	a4,0(a5)
	.loc 1 157 1
	nop
	ld	ra,24(sp)
	.cfi_restore 1
	ld	s0,16(sp)
	.cfi_restore 8
	.cfi_def_cfa 2, 32
	addi	sp,sp,32
	.cfi_def_cfa_offset 0
	jr	ra
	.cfi_endproc
.LFE4:
	.size	LibSmbiosGetEPS, .-LibSmbiosGetEPS
	.section	.text.LibSmbios64BitGetEPS,"ax",@progbits
	.align	1
	.globl	LibSmbios64BitGetEPS
	.type	LibSmbios64BitGetEPS, @function
LibSmbios64BitGetEPS:
.LFB5:
	.loc 1 168 1
	.cfi_startproc
	addi	sp,sp,-32
	.cfi_def_cfa_offset 32
	sd	ra,24(sp)
	sd	s0,16(sp)
	.cfi_offset 1, -8
	.cfi_offset 8, -16
	addi	s0,sp,32
	.cfi_def_cfa 8, 0
	sd	a0,-24(s0)
	.loc 1 172 24
	lla	a5,mSmbios64BitTable
	ld	a4,0(a5)
	ld	a5,-24(s0)
	sd	a4,0(a5)
	.loc 1 173 1
	nop
	ld	ra,24(sp)
	.cfi_restore 1
	ld	s0,16(sp)
	.cfi_restore 8
	.cfi_def_cfa 2, 32
	addi	sp,sp,32
	.cfi_def_cfa_offset 0
	jr	ra
	.cfi_endproc
.LFE5:
	.size	LibSmbios64BitGetEPS, .-LibSmbios64BitGetEPS
	.section	.text.LibGetSmbiosString,"ax",@progbits
	.align	1
	.globl	LibGetSmbiosString
	.type	LibGetSmbiosString, @function
LibGetSmbiosString:
.LFB6:
	.loc 1 189 1
	.cfi_startproc
	addi	sp,sp,-48
	.cfi_def_cfa_offset 48
	sd	ra,40(sp)
	sd	s0,32(sp)
	.cfi_offset 1, -8
	.cfi_offset 8, -16
	addi	s0,sp,48
	.cfi_def_cfa 8, 0
	sd	a0,-40(s0)
	mv	a5,a1
	sh	a5,-42(s0)
	.loc 1 198 28
	ld	a5,-40(s0)
	lbu	a4,0(a5)
	lbu	a3,1(a5)
	slli	a3,a3,8
	or	a4,a3,a4
	lbu	a3,2(a5)
	slli	a3,a3,16
	or	a4,a3,a4
	lbu	a3,3(a5)
	slli	a3,a3,24
	or	a4,a3,a4
	lbu	a3,4(a5)
	slli	a3,a3,32
	or	a4,a3,a4
	lbu	a3,5(a5)
	slli	a3,a3,40
	or	a4,a3,a4
	lbu	a3,6(a5)
	slli	a3,a3,48
	or	a4,a3,a4
	lbu	a5,7(a5)
	slli	a5,a5,56
	or	a5,a5,a4
	mv	a2,a5
	.loc 1 198 42
	ld	a5,-40(s0)
	lbu	a4,0(a5)
	lbu	a3,1(a5)
	slli	a3,a3,8
	or	a4,a3,a4
	lbu	a3,2(a5)
	slli	a3,a3,16
	or	a4,a3,a4
	lbu	a3,3(a5)
	slli	a3,a3,24
	or	a4,a3,a4
	lbu	a3,4(a5)
	slli	a3,a3,32
	or	a4,a3,a4
	lbu	a3,5(a5)
	slli	a3,a3,40
	or	a4,a3,a4
	lbu	a3,6(a5)
	slli	a3,a3,48
	or	a4,a3,a4
	lbu	a5,7(a5)
	slli	a5,a5,56
	or	a5,a5,a4
	.loc 1 198 47
	lbu	a5,1(a5)
	.loc 1 198 10
	add	a5,a2,a5
	sd	a5,-32(s0)
	.loc 1 203 14
	li	a5,1
	sh	a5,-18(s0)
	.loc 1 203 3
	j	.L18
.L24:
	.loc 1 204 8
	lhu	a4,-42(s0)
	lhu	a5,-18(s0)
	sext.w	a4,a4
	sext.w	a5,a5
	bne	a4,a5,.L21
	.loc 1 205 14
	ld	a5,-32(s0)
	j	.L20
.L22:
	.loc 1 211 33 discriminator 2
	ld	a5,-32(s0)
	addi	a5,a5,1
	sd	a5,-32(s0)
.L21:
	.loc 1 211 13 discriminator 1
	ld	a5,-32(s0)
	lbu	a5,0(a5)
	.loc 1 211 21 discriminator 1
	bne	a5,zero,.L22
	.loc 1 214 11
	ld	a5,-32(s0)
	addi	a5,a5,1
	sd	a5,-32(s0)
	.loc 1 216 9
	ld	a5,-32(s0)
	lbu	a5,0(a5)
	.loc 1 216 8
	bne	a5,zero,.L23
	.loc 1 222 19
	ld	a5,-32(s0)
	addi	a5,a5,1
	sd	a5,-32(s0)
	ld	a5,-40(s0)
	ld	a4,-32(s0)
	andi	a4,a4,255
	lbu	a3,0(a5)
	andi	a3,a3,0
	or	a4,a3,a4
	sb	a4,0(a5)
	ld	a4,-32(s0)
	srli	a4,a4,8
	andi	a4,a4,255
	lbu	a3,1(a5)
	andi	a3,a3,0
	or	a4,a3,a4
	sb	a4,1(a5)
	ld	a4,-32(s0)
	srli	a4,a4,16
	andi	a4,a4,255
	lbu	a3,2(a5)
	andi	a3,a3,0
	or	a4,a3,a4
	sb	a4,2(a5)
	ld	a4,-32(s0)
	srli	a4,a4,24
	andi	a4,a4,255
	lbu	a3,3(a5)
	andi	a3,a3,0
	or	a4,a3,a4
	sb	a4,3(a5)
	ld	a4,-32(s0)
	srli	a4,a4,32
	andi	a4,a4,255
	lbu	a3,4(a5)
	andi	a3,a3,0
	or	a4,a3,a4
	sb	a4,4(a5)
	ld	a4,-32(s0)
	srli	a4,a4,40
	andi	a4,a4,255
	lbu	a3,5(a5)
	andi	a3,a3,0
	or	a4,a3,a4
	sb	a4,5(a5)
	ld	a4,-32(s0)
	srli	a4,a4,48
	andi	a4,a4,255
	lbu	a3,6(a5)
	andi	a3,a3,0
	or	a4,a3,a4
	sb	a4,6(a5)
	ld	a4,-32(s0)
	srli	a4,a4,56
	lbu	a3,7(a5)
	andi	a3,a3,0
	or	a4,a3,a4
	sb	a4,7(a5)
	.loc 1 223 14
	li	a5,0
	j	.L20
.L23:
	.loc 1 203 47 discriminator 2
	lhu	a5,-18(s0)
	addiw	a5,a5,1
	sh	a5,-18(s0)
.L18:
	.loc 1 203 25 discriminator 1
	lhu	a4,-18(s0)
	lhu	a5,-42(s0)
	sext.w	a4,a4
	sext.w	a5,a5
	bleu	a4,a5,.L24
	.loc 1 227 10
	li	a5,0
.L20:
	.loc 1 228 1
	mv	a0,a5
	ld	ra,40(sp)
	.cfi_restore 1
	ld	s0,32(sp)
	.cfi_restore 8
	.cfi_def_cfa 2, 48
	addi	sp,sp,48
	.cfi_def_cfa_offset 0
	jr	ra
	.cfi_endproc
.LFE6:
	.size	LibGetSmbiosString, .-LibGetSmbiosString
	.section	.text.LibGetSmbiosStructure,"ax",@progbits
	.align	1
	.globl	LibGetSmbiosStructure
	.type	LibGetSmbiosStructure, @function
LibGetSmbiosStructure:
.LFB7:
	.loc 1 252 1
	.cfi_startproc
	addi	sp,sp,-80
	.cfi_def_cfa_offset 80
	sd	ra,72(sp)
	sd	s0,64(sp)
	.cfi_offset 1, -8
	.cfi_offset 8, -16
	addi	s0,sp,80
	.cfi_def_cfa 8, 0
	sd	a0,-56(s0)
	sd	a1,-64(s0)
	sd	a2,-72(s0)
	.loc 1 257 7
	ld	a5,-56(s0)
	lhu	a5,0(a5)
	.loc 1 257 6
	sext.w	a4,a5
	li	a5,65536
	addi	a5,a5,-1
	bne	a4,a5,.L26
	.loc 1 258 28
	lla	a5,mSmbiosStruct
	ld	a5,0(a5)
	lbu	a4,0(a5)
	lbu	a3,1(a5)
	slli	a3,a3,8
	or	a4,a3,a4
	lbu	a3,2(a5)
	slli	a3,a3,16
	or	a4,a3,a4
	lbu	a3,3(a5)
	slli	a3,a3,24
	or	a4,a3,a4
	lbu	a3,4(a5)
	slli	a3,a3,32
	or	a4,a3,a4
	lbu	a3,5(a5)
	slli	a3,a3,40
	or	a4,a3,a4
	lbu	a3,6(a5)
	slli	a3,a3,48
	or	a4,a3,a4
	lbu	a5,7(a5)
	slli	a5,a5,56
	or	a5,a5,a4
	.loc 1 258 33
	lbu	a4,2(a5)
	lbu	a5,3(a5)
	slli	a5,a5,8
	or	a5,a5,a4
	slli	a4,a5,48
	srli	a4,a4,48
	.loc 1 258 13
	ld	a5,-56(s0)
	sh	a4,0(a5)
	.loc 1 259 12
	li	a5,131
	j	.L35
.L26:
	.loc 1 262 6
	ld	a5,-64(s0)
	beq	a5,zero,.L28
	.loc 1 262 32 discriminator 1
	ld	a5,-72(s0)
	bne	a5,zero,.L29
.L28:
	.loc 1 263 5
	la	a5,gShellDebug1HiiHandle
	ld	a5,0(a5)
	mv	a4,a5
	li	a3,124
	li	a2,0
	li	a1,-1
	li	a0,-1
	call	ShellPrintHiiEx@plt
	.loc 1 264 12
	li	a5,131
	j	.L35
.L29:
	.loc 1 267 11
	ld	a5,-72(s0)
	sh	zero,0(a5)
	.loc 1 268 29
	lla	a5,mSmbiosStruct
	ld	a5,0(a5)
	lbu	a4,0(a5)
	lbu	a3,1(a5)
	slli	a3,a3,8
	or	a4,a3,a4
	lbu	a3,2(a5)
	slli	a3,a3,16
	or	a4,a3,a4
	lbu	a3,3(a5)
	slli	a3,a3,24
	or	a4,a3,a4
	lbu	a3,4(a5)
	slli	a3,a3,32
	or	a4,a3,a4
	lbu	a3,5(a5)
	slli	a3,a3,40
	or	a4,a3,a4
	lbu	a3,6(a5)
	slli	a3,a3,48
	or	a4,a3,a4
	lbu	a5,7(a5)
	slli	a5,a5,56
	or	a5,a5,a4
	.loc 1 268 14
	sd	a5,-32(s0)
	.loc 1 269 25
	ld	a4,-32(s0)
	.loc 1 269 44
	lla	a5,mSmbiosTable
	ld	a5,0(a5)
	lbu	a3,22(a5)
	lbu	a5,23(a5)
	slli	a5,a5,8
	or	a5,a5,a3
	slli	a5,a5,48
	srli	a5,a5,48
	.loc 1 269 30
	add	a5,a4,a5
	.loc 1 269 17
	sd	a5,-40(s0)
	.loc 1 270 9
	j	.L30
.L34:
	.loc 1 271 15
	ld	a5,-32(s0)
	.loc 1 271 19
	lbu	a4,2(a5)
	lbu	a5,3(a5)
	slli	a5,a5,8
	or	a5,a5,a4
	slli	a4,a5,48
	srli	a4,a4,48
	.loc 1 271 28
	ld	a5,-56(s0)
	lhu	a5,0(a5)
	.loc 1 271 8
	sext.w	a4,a4
	sext.w	a5,a5
	bne	a4,a5,.L31
	.loc 1 272 11
	ld	a5,-32(s0)
	sd	a5,-24(s0)
	.loc 1 276 7
	addi	a4,s0,-32
	li	a5,65536
	addi	a1,a5,-1
	mv	a0,a4
	call	LibGetSmbiosString
	.loc 1 280 32
	ld	a4,-32(s0)
	.loc 1 280 37
	ld	a5,-24(s0)
	sub	a5,a4,a5
	.loc 1 280 17
	slli	a4,a5,48
	srli	a4,a4,48
	.loc 1 280 15
	ld	a5,-72(s0)
	sh	a4,0(a5)
	.loc 1 281 15
	ld	a5,-64(s0)
	ld	a4,-24(s0)
	sd	a4,0(a5)
	.loc 1 285 17
	ld	a4,-32(s0)
	.loc 1 285 33
	ld	a5,-40(s0)
	.loc 1 285 10
	bgeu	a4,a5,.L32
	.loc 1 286 25
	ld	a5,-32(s0)
	.loc 1 286 29
	lbu	a4,2(a5)
	lbu	a5,3(a5)
	slli	a5,a5,8
	or	a5,a5,a4
	slli	a4,a5,48
	srli	a4,a4,48
	.loc 1 286 17
	ld	a5,-56(s0)
	sh	a4,0(a5)
	j	.L33
.L32:
	.loc 1 288 17
	ld	a5,-56(s0)
	li	a4,-1
	sh	a4,0(a5)
.L33:
	.loc 1 291 14
	li	a5,0
	j	.L35
.L31:
	.loc 1 297 5
	addi	a4,s0,-32
	li	a5,65536
	addi	a1,a5,-1
	mv	a0,a4
	call	LibGetSmbiosString
.L30:
	.loc 1 270 16
	ld	a4,-32(s0)
	.loc 1 270 32
	ld	a5,-40(s0)
	.loc 1 270 21
	bltu	a4,a5,.L34
	.loc 1 300 11
	ld	a5,-56(s0)
	li	a4,-1
	sh	a4,0(a5)
	.loc 1 301 10
	li	a5,131
.L35:
	.loc 1 302 1
	mv	a0,a5
	ld	ra,72(sp)
	.cfi_restore 1
	ld	s0,64(sp)
	.cfi_restore 8
	.cfi_def_cfa 2, 80
	addi	sp,sp,80
	.cfi_def_cfa_offset 0
	jr	ra
	.cfi_endproc
.LFE7:
	.size	LibGetSmbiosStructure, .-LibGetSmbiosStructure
	.section	.text.LibGetSmbios64BitStructure,"ax",@progbits
	.align	1
	.globl	LibGetSmbios64BitStructure
	.type	LibGetSmbios64BitStructure, @function
LibGetSmbios64BitStructure:
.LFB8:
	.loc 1 326 1
	.cfi_startproc
	addi	sp,sp,-80
	.cfi_def_cfa_offset 80
	sd	ra,72(sp)
	sd	s0,64(sp)
	.cfi_offset 1, -8
	.cfi_offset 8, -16
	addi	s0,sp,80
	.cfi_def_cfa 8, 0
	sd	a0,-56(s0)
	sd	a1,-64(s0)
	sd	a2,-72(s0)
	.loc 1 331 7
	ld	a5,-56(s0)
	lhu	a5,0(a5)
	.loc 1 331 6
	sext.w	a4,a5
	li	a5,65536
	addi	a5,a5,-1
	bne	a4,a5,.L37
	.loc 1 332 33
	lla	a5,mSmbios64BitStruct
	ld	a5,0(a5)
	lbu	a4,0(a5)
	lbu	a3,1(a5)
	slli	a3,a3,8
	or	a4,a3,a4
	lbu	a3,2(a5)
	slli	a3,a3,16
	or	a4,a3,a4
	lbu	a3,3(a5)
	slli	a3,a3,24
	or	a4,a3,a4
	lbu	a3,4(a5)
	slli	a3,a3,32
	or	a4,a3,a4
	lbu	a3,5(a5)
	slli	a3,a3,40
	or	a4,a3,a4
	lbu	a3,6(a5)
	slli	a3,a3,48
	or	a4,a3,a4
	lbu	a5,7(a5)
	slli	a5,a5,56
	or	a5,a5,a4
	.loc 1 332 38
	lbu	a4,2(a5)
	lbu	a5,3(a5)
	slli	a5,a5,8
	or	a5,a5,a4
	slli	a4,a5,48
	srli	a4,a4,48
	.loc 1 332 13
	ld	a5,-56(s0)
	sh	a4,0(a5)
	.loc 1 333 12
	li	a5,131
	j	.L46
.L37:
	.loc 1 336 6
	ld	a5,-64(s0)
	beq	a5,zero,.L39
	.loc 1 336 32 discriminator 1
	ld	a5,-72(s0)
	bne	a5,zero,.L40
.L39:
	.loc 1 337 5
	la	a5,gShellDebug1HiiHandle
	ld	a5,0(a5)
	mv	a4,a5
	li	a3,124
	li	a2,0
	li	a1,-1
	li	a0,-1
	call	ShellPrintHiiEx@plt
	.loc 1 338 12
	li	a5,131
	j	.L46
.L40:
	.loc 1 341 11
	ld	a5,-72(s0)
	sh	zero,0(a5)
	.loc 1 342 34
	lla	a5,mSmbios64BitStruct
	ld	a5,0(a5)
	lbu	a4,0(a5)
	lbu	a3,1(a5)
	slli	a3,a3,8
	or	a4,a3,a4
	lbu	a3,2(a5)
	slli	a3,a3,16
	or	a4,a3,a4
	lbu	a3,3(a5)
	slli	a3,a3,24
	or	a4,a3,a4
	lbu	a3,4(a5)
	slli	a3,a3,32
	or	a4,a3,a4
	lbu	a3,5(a5)
	slli	a3,a3,40
	or	a4,a3,a4
	lbu	a3,6(a5)
	slli	a3,a3,48
	or	a4,a3,a4
	lbu	a5,7(a5)
	slli	a5,a5,56
	or	a5,a5,a4
	.loc 1 342 14
	sd	a5,-32(s0)
	.loc 1 344 25
	ld	a4,-32(s0)
	.loc 1 344 30
	la	a5,mSmbios64BitTableLength
	ld	a5,0(a5)
	add	a5,a4,a5
	.loc 1 344 17
	sd	a5,-40(s0)
	.loc 1 345 9
	j	.L41
.L45:
	.loc 1 346 15
	ld	a5,-32(s0)
	.loc 1 346 19
	lbu	a4,2(a5)
	lbu	a5,3(a5)
	slli	a5,a5,8
	or	a5,a5,a4
	slli	a4,a5,48
	srli	a4,a4,48
	.loc 1 346 28
	ld	a5,-56(s0)
	lhu	a5,0(a5)
	.loc 1 346 8
	sext.w	a4,a4
	sext.w	a5,a5
	bne	a4,a5,.L42
	.loc 1 347 11
	ld	a5,-32(s0)
	sd	a5,-24(s0)
	.loc 1 351 7
	addi	a4,s0,-32
	li	a5,65536
	addi	a1,a5,-1
	mv	a0,a4
	call	LibGetSmbiosString
	.loc 1 355 32
	ld	a4,-32(s0)
	.loc 1 355 37
	ld	a5,-24(s0)
	sub	a5,a4,a5
	.loc 1 355 17
	slli	a4,a5,48
	srli	a4,a4,48
	.loc 1 355 15
	ld	a5,-72(s0)
	sh	a4,0(a5)
	.loc 1 356 15
	ld	a5,-64(s0)
	ld	a4,-24(s0)
	sd	a4,0(a5)
	.loc 1 360 17
	ld	a4,-32(s0)
	.loc 1 360 33
	ld	a5,-40(s0)
	.loc 1 360 10
	bgeu	a4,a5,.L43
	.loc 1 361 25
	ld	a5,-32(s0)
	.loc 1 361 29
	lbu	a4,2(a5)
	lbu	a5,3(a5)
	slli	a5,a5,8
	or	a5,a5,a4
	slli	a4,a5,48
	srli	a4,a4,48
	.loc 1 361 17
	ld	a5,-56(s0)
	sh	a4,0(a5)
	j	.L44
.L43:
	.loc 1 363 17
	ld	a5,-56(s0)
	li	a4,-1
	sh	a4,0(a5)
.L44:
	.loc 1 366 14
	li	a5,0
	j	.L46
.L42:
	.loc 1 372 5
	addi	a4,s0,-32
	li	a5,65536
	addi	a1,a5,-1
	mv	a0,a4
	call	LibGetSmbiosString
.L41:
	.loc 1 345 16
	ld	a4,-32(s0)
	.loc 1 345 32
	ld	a5,-40(s0)
	.loc 1 345 21
	bltu	a4,a5,.L45
	.loc 1 375 11
	ld	a5,-56(s0)
	li	a4,-1
	sh	a4,0(a5)
	.loc 1 376 10
	li	a5,131
.L46:
	.loc 1 377 1
	mv	a0,a5
	ld	ra,72(sp)
	.cfi_restore 1
	ld	s0,64(sp)
	.cfi_restore 8
	.cfi_def_cfa 2, 80
	addi	sp,sp,80
	.cfi_def_cfa_offset 0
	jr	ra
	.cfi_endproc
.LFE8:
	.size	LibGetSmbios64BitStructure, .-LibGetSmbios64BitStructure
	.text
.Letext0:
	.file 2 "/home/kapoagaeming/spacemit-image-builder/components/edk2/MdePkg/Include/RiscV64/ProcessorBind.h"
	.file 3 "/home/kapoagaeming/spacemit-image-builder/components/edk2/MdePkg/Include/Base.h"
	.file 4 "/home/kapoagaeming/spacemit-image-builder/components/edk2/MdePkg/Include/Uefi/UefiBaseType.h"
	.file 5 "/home/kapoagaeming/spacemit-image-builder/components/edk2/MdePkg/Include/Uefi/UefiInternalFormRepresentation.h"
	.file 6 "/home/kapoagaeming/spacemit-image-builder/components/Build/Milk-V-Jupiter/RELEASE_GCC5/RISCV64/ShellPkg/Library/UefiShellDebug1CommandsLib/UefiShellDebug1CommandsLib/DEBUG/AutoGen.h"
	.file 7 "/home/kapoagaeming/spacemit-image-builder/components/edk2/ShellPkg/Library/UefiShellDebug1CommandsLib/UefiShellDebug1CommandsLib.h"
	.file 8 "/home/kapoagaeming/spacemit-image-builder/components/edk2/MdePkg/Include/IndustryStandard/SmBios.h"
	.file 9 "/home/kapoagaeming/spacemit-image-builder/components/edk2/ShellPkg/Library/UefiShellDebug1CommandsLib/SmbiosView/SmbiosView.h"
	.file 10 "/home/kapoagaeming/spacemit-image-builder/components/edk2/ShellPkg/Include/Library/ShellLib.h"
	.section	.note.GNU-stack,"",@progbits
