	.file	"PrintInfo.c"
	.option pic
	.option norelax
	.attribute arch, "rv64i2p1_m2p0_a2p1_f2p2_d2p2_c2p0_zicsr2p0_zifencei2p0_zmmul1p0_zaamo1p0_zalrsc1p0_zca1p0_zcd1p0"
	.attribute unaligned_access, 0
	.attribute stack_align, 16
	.text
.Ltext0:
	.cfi_sections	.debug_frame
	.file 0 "/home/kapoagaeming/spacemit-image-builder/components/Build/Milk-V-Jupiter/RELEASE_GCC5/RISCV64/ShellPkg/Library/UefiShellDebug1CommandsLib/UefiShellDebug1CommandsLib" "/home/kapoagaeming/spacemit-image-builder/components/edk2/ShellPkg/Library/UefiShellDebug1CommandsLib/SmbiosView/PrintInfo.c"
	.section	.text.MemToString,"ax",@progbits
	.align	1
	.globl	MemToString
	.type	MemToString, @function
MemToString:
.LFB0:
	.file 1 "/home/kapoagaeming/spacemit-image-builder/components/edk2/ShellPkg/Library/UefiShellDebug1CommandsLib/SmbiosView/PrintInfo.c"
	.loc 1 103 1
	.cfi_startproc
	addi	sp,sp,-64
	.cfi_def_cfa_offset 64
	sd	ra,56(sp)
	sd	s0,48(sp)
	.cfi_offset 1, -8
	.cfi_offset 8, -16
	addi	s0,sp,64
	.cfi_def_cfa 8, 0
	sd	a0,-40(s0)
	sd	a1,-48(s0)
	sd	a2,-56(s0)
	.loc 1 107 13
	ld	a5,-48(s0)
	sd	a5,-24(s0)
	.loc 1 108 14
	ld	a5,-40(s0)
	sd	a5,-32(s0)
	.loc 1 112 9
	j	.L2
.L3:
	.loc 1 113 31
	ld	a4,-24(s0)
	addi	a5,a4,1
	sd	a5,-24(s0)
	.loc 1 113 16
	ld	a5,-32(s0)
	addi	a3,a5,1
	sd	a3,-32(s0)
	.loc 1 113 21
	lbu	a4,0(a4)
	.loc 1 113 19
	sb	a4,0(a5)
.L2:
	.loc 1 112 17
	ld	a5,-56(s0)
	addi	a4,a5,-1
	sd	a4,-56(s0)
	.loc 1 112 21
	bne	a5,zero,.L3
	.loc 1 119 15
	ld	a5,-32(s0)
	sb	zero,0(a5)
	.loc 1 120 1
	nop
	ld	ra,56(sp)
	.cfi_restore 1
	ld	s0,48(sp)
	.cfi_restore 8
	.cfi_def_cfa 2, 64
	addi	sp,sp,64
	.cfi_def_cfa_offset 0
	jr	ra
	.cfi_endproc
.LFE0:
	.size	MemToString, .-MemToString
	.section	.rodata
	.align	3
.LC0:
	.string	"\n"
	.zero	2
	.section	.text.SmbiosPrintEPSInfo,"ax",@progbits
	.align	1
	.globl	SmbiosPrintEPSInfo
	.type	SmbiosPrintEPSInfo, @function
SmbiosPrintEPSInfo:
.LFB1:
	.loc 1 139 1
	.cfi_startproc
	addi	sp,sp,-48
	.cfi_def_cfa_offset 48
	sd	ra,40(sp)
	sd	s0,32(sp)
	.cfi_offset 1, -8
	.cfi_offset 8, -16
	addi	s0,sp,48
	.cfi_def_cfa 8, 0
	sd	a0,-40(s0)
	mv	a5,a1
	sb	a5,-41(s0)
	.loc 1 143 6
	ld	a5,-40(s0)
	bne	a5,zero,.L5
	.loc 1 144 5
	la	a5,gShellDebug1HiiHandle
	ld	a5,0(a5)
	mv	a4,a5
	li	a3,127
	li	a2,0
	li	a1,-1
	li	a0,-1
	call	ShellPrintHiiEx@plt
	.loc 1 145 5
	j	.L4
.L5:
	.loc 1 148 6
	lbu	a5,-41(s0)
	andi	a5,a5,0xff
	beq	a5,zero,.L11
	.loc 1 152 6
	lbu	a5,-41(s0)
	andi	a4,a5,0xff
	li	a5,1
	bleu	a4,a5,.L8
	.loc 1 153 5
	la	a5,gShellDebug1HiiHandle
	ld	a5,0(a5)
	mv	a4,a5
	li	a3,128
	li	a2,0
	li	a1,-1
	li	a0,-1
	call	ShellPrintHiiEx@plt
	.loc 1 154 37
	ld	a4,-40(s0)
	.loc 1 154 5
	addi	a5,s0,-24
	li	a2,4
	mv	a1,a4
	mv	a0,a5
	call	MemToString
	.loc 1 155 5
	la	a5,gShellDebug1HiiHandle
	ld	a4,0(a5)
	addi	a5,s0,-24
	li	a3,137
	li	a2,0
	li	a1,-1
	li	a0,-1
	call	ShellPrintHiiEx@plt
	.loc 1 156 5
	la	a5,gShellDebug1HiiHandle
	ld	a4,0(a5)
	.loc 1 162 18
	ld	a5,-40(s0)
	lbu	a5,4(a5)
	.loc 1 156 5
	sext.w	a5,a5
	li	a3,138
	li	a2,0
	li	a1,-1
	li	a0,-1
	call	ShellPrintHiiEx@plt
	.loc 1 164 5
	la	a5,gShellDebug1HiiHandle
	ld	a4,0(a5)
	.loc 1 164 86
	ld	a5,-40(s0)
	lbu	a5,5(a5)
	.loc 1 164 5
	sext.w	a5,a5
	li	a3,139
	li	a2,0
	li	a1,-1
	li	a0,-1
	call	ShellPrintHiiEx@plt
	.loc 1 165 5
	la	a5,gShellDebug1HiiHandle
	ld	a4,0(a5)
	.loc 1 171 18
	ld	a5,-40(s0)
	lbu	a5,6(a5)
	.loc 1 165 5
	sext.w	a3,a5
	.loc 1 172 18
	ld	a5,-40(s0)
	lbu	a5,7(a5)
	.loc 1 165 5
	sext.w	a5,a5
	mv	a6,a5
	mv	a5,a3
	li	a3,140
	li	a2,0
	li	a1,-1
	li	a0,-1
	call	ShellPrintHiiEx@plt
	.loc 1 174 5
	la	a5,gShellDebug1HiiHandle
	ld	a3,0(a5)
	.loc 1 180 18
	ld	a5,-40(s0)
	lbu	a4,28(a5)
	lbu	a5,29(a5)
	slli	a5,a5,8
	or	a5,a5,a4
	slli	a5,a5,48
	srli	a5,a5,48
	.loc 1 174 5
	sext.w	a5,a5
	mv	a4,a3
	li	a3,132
	li	a2,0
	li	a1,-1
	li	a0,-1
	call	ShellPrintHiiEx@plt
	.loc 1 182 5
	la	a5,gShellDebug1HiiHandle
	ld	a3,0(a5)
	.loc 1 182 86
	ld	a5,-40(s0)
	lbu	a4,8(a5)
	lbu	a5,9(a5)
	slli	a5,a5,8
	or	a5,a5,a4
	slli	a5,a5,48
	srli	a5,a5,48
	.loc 1 182 5
	sext.w	a5,a5
	mv	a4,a3
	li	a3,133
	li	a2,0
	li	a1,-1
	li	a0,-1
	call	ShellPrintHiiEx@plt
	.loc 1 183 5
	la	a5,gShellDebug1HiiHandle
	ld	a2,0(a5)
	ld	a5,-40(s0)
	lbu	a4,24(a5)
	lbu	a3,25(a5)
	slli	a3,a3,8
	or	a4,a3,a4
	lbu	a3,26(a5)
	slli	a3,a3,16
	or	a4,a3,a4
	lbu	a5,27(a5)
	slli	a5,a5,24
	or	a5,a5,a4
	sext.w	a5,a5
	mv	a4,a2
	li	a3,134
	li	a2,0
	li	a1,-1
	li	a0,-1
	call	ShellPrintHiiEx@plt
	.loc 1 184 5
	la	a5,gShellDebug1HiiHandle
	ld	a3,0(a5)
	.loc 1 184 86
	ld	a5,-40(s0)
	lbu	a4,22(a5)
	lbu	a5,23(a5)
	slli	a5,a5,8
	or	a5,a5,a4
	slli	a5,a5,48
	srli	a5,a5,48
	.loc 1 184 5
	sext.w	a5,a5
	mv	a4,a3
	li	a3,135
	li	a2,0
	li	a1,-1
	li	a0,-1
	call	ShellPrintHiiEx@plt
.L8:
	.loc 1 190 6
	lbu	a5,-41(s0)
	andi	a4,a5,0xff
	li	a5,2
	bleu	a4,a5,.L9
	.loc 1 191 5
	la	a5,gShellDebug1HiiHandle
	ld	a4,0(a5)
	.loc 1 197 18
	ld	a5,-40(s0)
	lbu	a5,10(a5)
	.loc 1 191 5
	sext.w	a5,a5
	li	a3,141
	li	a2,0
	li	a1,-1
	li	a0,-1
	call	ShellPrintHiiEx@plt
	.loc 1 199 5
	la	a5,gShellDebug1HiiHandle
	ld	a4,0(a5)
	.loc 1 199 86
	ld	a5,-40(s0)
	lbu	a5,30(a5)
	.loc 1 199 5
	sext.w	a5,a5
	li	a3,130
	li	a2,0
	li	a1,-1
	li	a0,-1
	call	ShellPrintHiiEx@plt
	.loc 1 203 39
	ld	a5,-40(s0)
	addi	a4,a5,16
	.loc 1 203 5
	addi	a5,s0,-32
	li	a2,5
	mv	a1,a4
	mv	a0,a5
	call	MemToString
	.loc 1 204 5
	la	a5,gShellDebug1HiiHandle
	ld	a4,0(a5)
	addi	a5,s0,-32
	li	a3,143
	li	a2,0
	li	a1,-1
	li	a0,-1
	call	ShellPrintHiiEx@plt
	.loc 1 205 5
	la	a5,gShellDebug1HiiHandle
	ld	a4,0(a5)
	.loc 1 205 86
	ld	a5,-40(s0)
	lbu	a5,21(a5)
	.loc 1 205 5
	sext.w	a5,a5
	li	a3,144
	li	a2,0
	li	a1,-1
	li	a0,-1
	call	ShellPrintHiiEx@plt
	.loc 1 206 5
	la	a5,gShellDebug1HiiHandle
	ld	a5,0(a5)
	mv	a4,a5
	li	a3,142
	li	a2,0
	li	a1,-1
	li	a0,-1
	call	ShellPrintHiiEx@plt
	.loc 1 207 34
	ld	a5,-40(s0)
	addi	a5,a5,11
	.loc 1 207 5
	mv	a3,a5
	li	a2,5
	li	a1,0
	li	a0,2
	call	DumpHex@plt
.L9:
	.loc 1 210 3
	lla	a0,.LC0
	call	Print@plt
	j	.L4
.L11:
	.loc 1 149 5
	nop
.L4:
	.loc 1 211 1
	ld	ra,40(sp)
	.cfi_restore 1
	ld	s0,32(sp)
	.cfi_restore 8
	.cfi_def_cfa 2, 48
	addi	sp,sp,48
	.cfi_def_cfa_offset 0
	jr	ra
	.cfi_endproc
.LFE1:
	.size	SmbiosPrintEPSInfo, .-SmbiosPrintEPSInfo
	.section	.text.Smbios64BitPrintEPSInfo,"ax",@progbits
	.align	1
	.globl	Smbios64BitPrintEPSInfo
	.type	Smbios64BitPrintEPSInfo, @function
Smbios64BitPrintEPSInfo:
.LFB2:
	.loc 1 224 1
	.cfi_startproc
	addi	sp,sp,-48
	.cfi_def_cfa_offset 48
	sd	ra,40(sp)
	sd	s0,32(sp)
	.cfi_offset 1, -8
	.cfi_offset 8, -16
	addi	s0,sp,48
	.cfi_def_cfa 8, 0
	sd	a0,-40(s0)
	mv	a5,a1
	sb	a5,-41(s0)
	.loc 1 227 6
	ld	a5,-40(s0)
	bne	a5,zero,.L13
	.loc 1 228 5
	la	a5,gShellDebug1HiiHandle
	ld	a5,0(a5)
	mv	a4,a5
	li	a3,127
	li	a2,0
	li	a1,-1
	li	a0,-1
	call	ShellPrintHiiEx@plt
	.loc 1 229 5
	j	.L12
.L13:
	.loc 1 232 6
	lbu	a5,-41(s0)
	andi	a5,a5,0xff
	beq	a5,zero,.L19
	.loc 1 236 6
	lbu	a5,-41(s0)
	andi	a4,a5,0xff
	li	a5,1
	bleu	a4,a5,.L16
	.loc 1 237 5
	la	a5,gShellDebug1HiiHandle
	ld	a5,0(a5)
	mv	a4,a5
	li	a3,129
	li	a2,0
	li	a1,-1
	li	a0,-1
	call	ShellPrintHiiEx@plt
	.loc 1 239 37
	ld	a4,-40(s0)
	.loc 1 239 5
	addi	a5,s0,-24
	li	a2,5
	mv	a1,a4
	mv	a0,a5
	call	MemToString
	.loc 1 240 5
	la	a5,gShellDebug1HiiHandle
	ld	a4,0(a5)
	addi	a5,s0,-24
	li	a3,137
	li	a2,0
	li	a1,-1
	li	a0,-1
	call	ShellPrintHiiEx@plt
	.loc 1 242 5
	la	a5,gShellDebug1HiiHandle
	ld	a4,0(a5)
	.loc 1 248 18
	ld	a5,-40(s0)
	lbu	a5,5(a5)
	.loc 1 242 5
	sext.w	a5,a5
	li	a3,138
	li	a2,0
	li	a1,-1
	li	a0,-1
	call	ShellPrintHiiEx@plt
	.loc 1 251 5
	la	a5,gShellDebug1HiiHandle
	ld	a4,0(a5)
	.loc 1 251 86
	ld	a5,-40(s0)
	lbu	a5,6(a5)
	.loc 1 251 5
	sext.w	a5,a5
	li	a3,139
	li	a2,0
	li	a1,-1
	li	a0,-1
	call	ShellPrintHiiEx@plt
	.loc 1 253 5
	la	a5,gShellDebug1HiiHandle
	ld	a4,0(a5)
	.loc 1 259 18
	ld	a5,-40(s0)
	lbu	a5,7(a5)
	.loc 1 253 5
	sext.w	a3,a5
	.loc 1 260 18
	ld	a5,-40(s0)
	lbu	a5,8(a5)
	.loc 1 253 5
	sext.w	a5,a5
	mv	a6,a5
	mv	a5,a3
	li	a3,140
	li	a2,0
	li	a1,-1
	li	a0,-1
	call	ShellPrintHiiEx@plt
	.loc 1 263 5
	la	a5,gShellDebug1HiiHandle
	ld	a4,0(a5)
	.loc 1 269 18
	ld	a5,-40(s0)
	lbu	a5,9(a5)
	.loc 1 263 5
	sext.w	a5,a5
	li	a3,131
	li	a2,0
	li	a1,-1
	li	a0,-1
	call	ShellPrintHiiEx@plt
	.loc 1 272 5
	la	a5,gShellDebug1HiiHandle
	ld	a2,0(a5)
	ld	a5,-40(s0)
	lbu	a4,12(a5)
	lbu	a3,13(a5)
	slli	a3,a3,8
	or	a4,a3,a4
	lbu	a3,14(a5)
	slli	a3,a3,16
	or	a4,a3,a4
	lbu	a5,15(a5)
	slli	a5,a5,24
	or	a5,a5,a4
	sext.w	a5,a5
	mv	a4,a2
	li	a3,136
	li	a2,0
	li	a1,-1
	li	a0,-1
	call	ShellPrintHiiEx@plt
	.loc 1 274 5
	la	a5,gShellDebug1HiiHandle
	ld	a2,0(a5)
	ld	a5,-40(s0)
	lbu	a4,16(a5)
	lbu	a3,17(a5)
	slli	a3,a3,8
	or	a4,a3,a4
	lbu	a3,18(a5)
	slli	a3,a3,16
	or	a4,a3,a4
	lbu	a3,19(a5)
	slli	a3,a3,24
	or	a4,a3,a4
	lbu	a3,20(a5)
	slli	a3,a3,32
	or	a4,a3,a4
	lbu	a3,21(a5)
	slli	a3,a3,40
	or	a4,a3,a4
	lbu	a3,22(a5)
	slli	a3,a3,48
	or	a4,a3,a4
	lbu	a5,23(a5)
	slli	a5,a5,56
	or	a5,a5,a4
	mv	a4,a2
	li	a3,134
	li	a2,0
	li	a1,-1
	li	a0,-1
	call	ShellPrintHiiEx@plt
.L16:
	.loc 1 280 6
	lbu	a5,-41(s0)
	andi	a4,a5,0xff
	li	a5,2
	bleu	a4,a5,.L17
	.loc 1 281 5
	la	a5,gShellDebug1HiiHandle
	ld	a4,0(a5)
	.loc 1 287 18
	ld	a5,-40(s0)
	lbu	a5,10(a5)
	.loc 1 281 5
	sext.w	a5,a5
	li	a3,141
	li	a2,0
	li	a1,-1
	li	a0,-1
	call	ShellPrintHiiEx@plt
.L17:
	.loc 1 291 3
	lla	a0,.LC0
	call	Print@plt
	j	.L12
.L19:
	.loc 1 233 5
	nop
.L12:
	.loc 1 292 1
	ld	ra,40(sp)
	.cfi_restore 1
	ld	s0,32(sp)
	.cfi_restore 8
	.cfi_def_cfa 2, 48
	addi	sp,sp,48
	.cfi_def_cfa_offset 0
	jr	ra
	.cfi_endproc
.LFE2:
	.size	Smbios64BitPrintEPSInfo, .-Smbios64BitPrintEPSInfo
	.section	.rodata
	.align	3
.LC1:
	.string	"V"
	.string	"e"
	.string	"n"
	.string	"d"
	.string	"o"
	.string	"r"
	.string	":"
	.string	" "
	.string	"%"
	.string	"a"
	.string	"\n"
	.zero	2
	.align	3
.LC2:
	.string	"B"
	.string	"I"
	.string	"O"
	.string	"S"
	.string	" "
	.string	"V"
	.string	"e"
	.string	"r"
	.string	"s"
	.string	"i"
	.string	"o"
	.string	"n"
	.string	":"
	.string	" "
	.string	"%"
	.string	"a"
	.string	"\n"
	.zero	2
	.align	3
.LC3:
	.string	"B"
	.string	"I"
	.string	"O"
	.string	"S"
	.string	" "
	.string	"S"
	.string	"t"
	.string	"a"
	.string	"r"
	.string	"t"
	.string	"i"
	.string	"n"
	.string	"g"
	.string	" "
	.string	"A"
	.string	"d"
	.string	"d"
	.string	"r"
	.string	"e"
	.string	"s"
	.string	"s"
	.string	" "
	.string	"S"
	.string	"e"
	.string	"g"
	.string	"m"
	.string	"e"
	.string	"n"
	.string	"t"
	.string	":"
	.string	" "
	.string	"0"
	.string	"x"
	.string	"%"
	.string	"x"
	.string	"\n"
	.zero	2
	.align	3
.LC4:
	.string	"B"
	.string	"I"
	.string	"O"
	.string	"S"
	.string	" "
	.string	"R"
	.string	"e"
	.string	"l"
	.string	"e"
	.string	"a"
	.string	"s"
	.string	"e"
	.string	" "
	.string	"D"
	.string	"a"
	.string	"t"
	.string	"e"
	.string	":"
	.string	" "
	.string	"%"
	.string	"a"
	.string	"\n"
	.zero	2
	.align	3
.LC5:
	.string	"S"
	.string	"y"
	.string	"s"
	.string	"t"
	.string	"e"
	.string	"m"
	.string	" "
	.string	"B"
	.string	"I"
	.string	"O"
	.string	"S"
	.string	" "
	.string	"M"
	.string	"a"
	.string	"j"
	.string	"o"
	.string	"r"
	.string	" "
	.string	"R"
	.string	"e"
	.string	"l"
	.string	"e"
	.string	"a"
	.string	"s"
	.string	"e"
	.string	":"
	.string	" "
	.string	"%"
	.string	"u"
	.string	"\n"
	.zero	2
	.align	3
.LC6:
	.string	"S"
	.string	"y"
	.string	"s"
	.string	"t"
	.string	"e"
	.string	"m"
	.string	" "
	.string	"B"
	.string	"I"
	.string	"O"
	.string	"S"
	.string	" "
	.string	"M"
	.string	"i"
	.string	"n"
	.string	"o"
	.string	"r"
	.string	" "
	.string	"R"
	.string	"e"
	.string	"l"
	.string	"e"
	.string	"a"
	.string	"s"
	.string	"e"
	.string	":"
	.string	" "
	.string	"%"
	.string	"u"
	.string	"\n"
	.zero	2
	.align	3
.LC7:
	.string	"E"
	.string	"m"
	.string	"b"
	.string	"e"
	.string	"d"
	.string	"d"
	.string	"e"
	.string	"d"
	.string	" "
	.string	"C"
	.string	"o"
	.string	"n"
	.string	"t"
	.string	"r"
	.string	"o"
	.string	"l"
	.string	"l"
	.string	"e"
	.string	"r"
	.string	" "
	.string	"F"
	.string	"i"
	.string	"r"
	.string	"m"
	.string	"w"
	.string	"a"
	.string	"r"
	.string	"e"
	.string	" "
	.string	"M"
	.string	"a"
	.string	"j"
	.string	"o"
	.string	"r"
	.string	" "
	.string	"R"
	.string	"e"
	.string	"l"
	.string	"e"
	.string	"a"
	.string	"s"
	.string	"e"
	.string	":"
	.string	" "
	.string	"%"
	.string	"u"
	.string	"\n"
	.zero	2
	.align	3
.LC8:
	.string	"E"
	.string	"m"
	.string	"b"
	.string	"e"
	.string	"d"
	.string	"d"
	.string	"e"
	.string	"d"
	.string	" "
	.string	"C"
	.string	"o"
	.string	"n"
	.string	"t"
	.string	"r"
	.string	"o"
	.string	"l"
	.string	"l"
	.string	"e"
	.string	"r"
	.string	" "
	.string	"F"
	.string	"i"
	.string	"r"
	.string	"m"
	.string	"w"
	.string	"a"
	.string	"r"
	.string	"e"
	.string	" "
	.string	"M"
	.string	"i"
	.string	"n"
	.string	"o"
	.string	"r"
	.string	" "
	.string	"R"
	.string	"e"
	.string	"l"
	.string	"e"
	.string	"a"
	.string	"s"
	.string	"e"
	.string	":"
	.string	" "
	.string	"%"
	.string	"u"
	.string	"\n"
	.zero	2
	.align	3
.LC9:
	.string	"M"
	.string	"B"
	.zero	2
	.align	3
.LC10:
	.string	"G"
	.string	"B"
	.zero	2
	.align	3
.LC11:
	.string	"Manufacturer"
	.align	3
.LC12:
	.string	"%"
	.string	"a"
	.zero	2
	.align	3
.LC13:
	.string	""
	.align	3
.LC14:
	.string	":"
	.string	" "
	.string	"%"
	.string	"a"
	.string	"\n"
	.zero	2
	.align	3
.LC15:
	.string	"ProductName"
	.align	3
.LC16:
	.string	"Version"
	.align	3
.LC17:
	.string	"SerialNumber"
	.align	3
.LC18:
	.string	"Uuid"
	.align	3
.LC19:
	.string	"SKUNumber"
	.align	3
.LC20:
	.string	"Family"
	.align	3
.LC21:
	.string	"AssetTag"
	.align	3
.LC22:
	.string	"LocationInChassis"
	.align	3
.LC23:
	.string	"ChassisHandle"
	.align	3
.LC24:
	.string	":"
	.string	" "
	.string	"0"
	.string	"x"
	.string	"%"
	.string	"x"
	.string	"\n"
	.zero	2
	.align	3
.LC25:
	.string	"Type"
	.align	3
.LC26:
	.string	":"
	.string	" "
	.string	"%"
	.string	"u"
	.string	"\n"
	.zero	2
	.align	3
.LC27:
	.string	"OemDefined"
	.align	3
.LC28:
	.string	"Height"
	.align	3
.LC29:
	.string	"NumberofPowerCords"
	.align	3
.LC30:
	.string	"ContainedElementCount"
	.align	3
.LC31:
	.string	"ContainedElementRecordLength"
	.align	3
.LC32:
	.string	"%"
	.string	"0"
	.string	"2"
	.string	"X"
	.string	" "
	.zero	2
	.align	3
.LC33:
	.string	"S"
	.string	"o"
	.string	"c"
	.string	"k"
	.string	"e"
	.string	"t"
	.string	" "
	.string	"D"
	.string	"e"
	.string	"s"
	.string	"i"
	.string	"g"
	.string	"n"
	.string	"a"
	.string	"t"
	.string	"i"
	.string	"o"
	.string	"n"
	.string	":"
	.string	" "
	.string	"%"
	.string	"a"
	.string	"\n"
	.zero	2
	.align	3
.LC34:
	.string	"P"
	.string	"r"
	.string	"o"
	.string	"c"
	.string	"e"
	.string	"s"
	.string	"s"
	.string	"o"
	.string	"r"
	.string	" "
	.string	"M"
	.string	"a"
	.string	"n"
	.string	"u"
	.string	"f"
	.string	"a"
	.string	"c"
	.string	"t"
	.string	"u"
	.string	"r"
	.string	"e"
	.string	"r"
	.string	":"
	.string	" "
	.string	"%"
	.string	"a"
	.string	"\n"
	.zero	2
	.align	3
.LC35:
	.string	"P"
	.string	"r"
	.string	"o"
	.string	"c"
	.string	"e"
	.string	"s"
	.string	"s"
	.string	"o"
	.string	"r"
	.string	" "
	.string	"V"
	.string	"e"
	.string	"r"
	.string	"s"
	.string	"i"
	.string	"o"
	.string	"n"
	.string	":"
	.string	" "
	.string	"%"
	.string	"a"
	.string	"\n"
	.zero	2
	.align	3
.LC36:
	.string	"E"
	.string	"x"
	.string	"t"
	.string	"e"
	.string	"r"
	.string	"n"
	.string	"a"
	.string	"l"
	.string	" "
	.string	"C"
	.string	"l"
	.string	"o"
	.string	"c"
	.string	"k"
	.string	":"
	.string	" "
	.string	"%"
	.string	"u"
	.string	"\n"
	.zero	2
	.align	3
.LC37:
	.string	"M"
	.string	"a"
	.string	"x"
	.string	" "
	.string	"S"
	.string	"p"
	.string	"e"
	.string	"e"
	.string	"d"
	.string	":"
	.string	" "
	.string	"%"
	.string	"u"
	.string	"\n"
	.zero	2
	.align	3
.LC38:
	.string	"C"
	.string	"u"
	.string	"r"
	.string	"r"
	.string	"e"
	.string	"n"
	.string	"t"
	.string	" "
	.string	"S"
	.string	"p"
	.string	"e"
	.string	"e"
	.string	"d"
	.string	":"
	.string	" "
	.string	"%"
	.string	"u"
	.string	"\n"
	.zero	2
	.align	3
.LC39:
	.string	"L"
	.string	"1"
	.string	" "
	.string	"C"
	.string	"a"
	.string	"c"
	.string	"h"
	.string	"e"
	.string	" "
	.string	"H"
	.string	"a"
	.string	"n"
	.string	"d"
	.string	"l"
	.string	"e"
	.string	":"
	.string	" "
	.string	"0"
	.string	"x"
	.string	"%"
	.string	"x"
	.string	"\n"
	.zero	2
	.align	3
.LC40:
	.string	"L"
	.string	"2"
	.string	" "
	.string	"C"
	.string	"a"
	.string	"c"
	.string	"h"
	.string	"e"
	.string	" "
	.string	"H"
	.string	"a"
	.string	"n"
	.string	"d"
	.string	"l"
	.string	"e"
	.string	":"
	.string	" "
	.string	"0"
	.string	"x"
	.string	"%"
	.string	"x"
	.string	"\n"
	.zero	2
	.align	3
.LC41:
	.string	"L"
	.string	"3"
	.string	" "
	.string	"C"
	.string	"a"
	.string	"c"
	.string	"h"
	.string	"e"
	.string	" "
	.string	"H"
	.string	"a"
	.string	"n"
	.string	"d"
	.string	"l"
	.string	"e"
	.string	":"
	.string	" "
	.string	"0"
	.string	"x"
	.string	"%"
	.string	"x"
	.string	"\n"
	.zero	2
	.align	3
.LC42:
	.string	"S"
	.string	"e"
	.string	"r"
	.string	"i"
	.string	"a"
	.string	"l"
	.string	" "
	.string	"N"
	.string	"u"
	.string	"m"
	.string	"b"
	.string	"e"
	.string	"r"
	.string	":"
	.string	" "
	.string	"%"
	.string	"a"
	.string	"\n"
	.zero	2
	.align	3
.LC43:
	.string	"A"
	.string	"s"
	.string	"s"
	.string	"e"
	.string	"t"
	.string	" "
	.string	"T"
	.string	"a"
	.string	"g"
	.string	":"
	.string	" "
	.string	"%"
	.string	"a"
	.string	"\n"
	.zero	2
	.align	3
.LC44:
	.string	"P"
	.string	"a"
	.string	"r"
	.string	"t"
	.string	" "
	.string	"N"
	.string	"u"
	.string	"m"
	.string	"b"
	.string	"e"
	.string	"r"
	.string	":"
	.string	" "
	.string	"%"
	.string	"a"
	.string	"\n"
	.zero	2
	.align	3
.LC45:
	.string	"C"
	.string	"o"
	.string	"r"
	.string	"e"
	.string	" "
	.string	"C"
	.string	"o"
	.string	"u"
	.string	"n"
	.string	"t"
	.string	":"
	.string	" "
	.string	"%"
	.string	"u"
	.string	"\n"
	.zero	2
	.align	3
.LC46:
	.string	"C"
	.string	"o"
	.string	"r"
	.string	"e"
	.string	" "
	.string	"E"
	.string	"n"
	.string	"a"
	.string	"b"
	.string	"l"
	.string	"e"
	.string	"d"
	.string	":"
	.string	" "
	.string	"%"
	.string	"u"
	.string	"\n"
	.zero	2
	.align	3
.LC47:
	.string	"T"
	.string	"h"
	.string	"r"
	.string	"e"
	.string	"a"
	.string	"d"
	.string	" "
	.string	"C"
	.string	"o"
	.string	"u"
	.string	"n"
	.string	"t"
	.string	":"
	.string	" "
	.string	"%"
	.string	"u"
	.string	"\n"
	.zero	2
	.align	3
.LC48:
	.string	"C"
	.string	"o"
	.string	"r"
	.string	"e"
	.string	" "
	.string	"C"
	.string	"o"
	.string	"u"
	.string	"n"
	.string	"t"
	.string	" "
	.string	"2"
	.string	":"
	.string	" "
	.string	"%"
	.string	"u"
	.string	"\n"
	.zero	2
	.align	3
.LC49:
	.string	"C"
	.string	"o"
	.string	"r"
	.string	"e"
	.string	" "
	.string	"E"
	.string	"n"
	.string	"a"
	.string	"b"
	.string	"l"
	.string	"e"
	.string	"d"
	.string	" "
	.string	"2"
	.string	":"
	.string	" "
	.string	"%"
	.string	"u"
	.string	"\n"
	.zero	2
	.align	3
.LC50:
	.string	"T"
	.string	"h"
	.string	"r"
	.string	"e"
	.string	"a"
	.string	"d"
	.string	" "
	.string	"C"
	.string	"o"
	.string	"u"
	.string	"n"
	.string	"t"
	.string	" "
	.string	"2"
	.string	":"
	.string	" "
	.string	"%"
	.string	"u"
	.string	"\n"
	.zero	2
	.align	3
.LC51:
	.string	"T"
	.string	"h"
	.string	"r"
	.string	"e"
	.string	"a"
	.string	"d"
	.string	" "
	.string	"E"
	.string	"n"
	.string	"a"
	.string	"b"
	.string	"l"
	.string	"e"
	.string	"d"
	.string	":"
	.string	" "
	.string	"%"
	.string	"u"
	.string	"\n"
	.zero	2
	.align	3
.LC52:
	.string	"S"
	.string	"o"
	.string	"c"
	.string	"k"
	.string	"e"
	.string	"t"
	.string	" "
	.string	"T"
	.string	"y"
	.string	"p"
	.string	"e"
	.string	":"
	.string	" "
	.string	"%"
	.string	"a"
	.string	"\n"
	.zero	2
	.align	3
.LC53:
	.string	"AssociatedMemorySlotNum"
	.align	3
.LC54:
	.string	"SocketDesignation"
	.align	3
.LC55:
	.string	"CurrentSpeed"
	.align	3
.LC56:
	.string	"MaximumCacheSize"
	.align	3
.LC57:
	.string	"InstalledSize"
	.align	3
.LC58:
	.string	"SupportedSRAMType"
	.align	3
.LC59:
	.string	"CurrentSRAMType"
	.align	3
.LC60:
	.string	"CacheSpeed"
	.align	3
.LC61:
	.string	"MaximumCacheSize2"
	.align	3
.LC62:
	.string	"InstalledSize2"
	.align	3
.LC63:
	.string	"InternalReferenceDesignator"
	.align	3
.LC64:
	.string	"I"
	.string	"n"
	.string	"t"
	.string	"e"
	.string	"r"
	.string	"n"
	.string	"a"
	.string	"l"
	.string	" "
	.zero	2
	.align	3
.LC65:
	.string	"ExternalReferenceDesignator"
	.align	3
.LC66:
	.string	"SlotDesignation"
	.align	3
.LC67:
	.string	"SegmentGroupNum"
	.align	3
.LC68:
	.string	"BusNum"
	.align	3
.LC69:
	.string	"DevFuncNum"
	.align	3
.LC70:
	.string	"DataBusWidth"
	.align	3
.LC71:
	.string	"PeerGroupingCount"
	.align	3
.LC72:
	.string	"D"
	.string	"e"
	.string	"v"
	.string	"i"
	.string	"c"
	.string	"e"
	.string	" "
	.string	"E"
	.string	"n"
	.string	"a"
	.string	"b"
	.string	"l"
	.string	"e"
	.string	"d"
	.string	"\n"
	.zero	2
	.align	3
.LC73:
	.string	"D"
	.string	"e"
	.string	"v"
	.string	"i"
	.string	"c"
	.string	"e"
	.string	" "
	.string	"D"
	.string	"i"
	.string	"s"
	.string	"a"
	.string	"b"
	.string	"l"
	.string	"e"
	.string	"d"
	.string	"\n"
	.zero	2
	.align	3
.LC74:
	.string	"%"
	.string	"a"
	.string	"\n"
	.zero	2
	.align	3
.LC75:
	.string	"StringCount"
	.align	3
.LC76:
	.string	"InstallableLanguages"
	.align	3
.LC77:
	.string	"Flags"
	.align	3
.LC78:
	.string	"Reserved"
	.align	3
.LC79:
	.string	"CurrentLanguages"
	.align	3
.LC80:
	.string	"GroupName"
	.align	3
.LC81:
	.string	"I"
	.string	"t"
	.string	"e"
	.string	"m"
	.string	"T"
	.string	"y"
	.string	"p"
	.string	"e"
	.string	" "
	.string	"%"
	.string	"u"
	.string	":"
	.string	" "
	.string	"%"
	.string	"u"
	.string	"\n"
	.zero	2
	.align	3
.LC82:
	.string	"I"
	.string	"t"
	.string	"e"
	.string	"m"
	.string	"H"
	.string	"a"
	.string	"n"
	.string	"d"
	.string	"l"
	.string	"e"
	.string	" "
	.string	"%"
	.string	"u"
	.string	":"
	.string	" "
	.string	"%"
	.string	"u"
	.string	"\n"
	.zero	2
	.align	3
.LC83:
	.string	"LogAreaLength"
	.align	3
.LC84:
	.string	"LogHeaderStartOffset"
	.align	3
.LC85:
	.string	"LogDataStartOffset"
	.align	3
.LC86:
	.string	"AccessMethodAddress"
	.align	3
.LC87:
	.string	"LogChangeToken"
	.align	3
.LC88:
	.string	"NumberOfSupportedLogTypeDescriptors"
	.align	3
.LC89:
	.string	"LengthOfLogTypeDescriptor"
	.align	3
.LC90:
	.string	"MaximumCapacity"
	.align	3
.LC91:
	.string	"MemoryErrorInformationHandle"
	.align	3
.LC92:
	.string	"NumberOfMemoryDevices"
	.align	3
.LC93:
	.string	"ExtendedMaximumCapacity"
	.align	3
.LC94:
	.string	":"
	.string	" "
	.string	"0"
	.string	"x"
	.string	"%"
	.string	"l"
	.string	"x"
	.string	"\n"
	.zero	2
	.align	3
.LC95:
	.string	"P"
	.string	"h"
	.string	"y"
	.string	"s"
	.string	"i"
	.string	"c"
	.string	"a"
	.string	"l"
	.string	" "
	.string	"M"
	.string	"e"
	.string	"m"
	.string	"o"
	.string	"r"
	.string	"y"
	.string	" "
	.string	"A"
	.string	"r"
	.string	"r"
	.string	"a"
	.string	"y"
	.string	" "
	.string	"H"
	.string	"a"
	.string	"n"
	.string	"d"
	.string	"l"
	.string	"e"
	.string	":"
	.string	" "
	.string	"0"
	.string	"x"
	.string	"%"
	.string	"x"
	.string	"\n"
	.zero	2
	.align	3
.LC96:
	.string	"M"
	.string	"e"
	.string	"m"
	.string	"o"
	.string	"r"
	.string	"y"
	.string	" "
	.string	"E"
	.string	"r"
	.string	"r"
	.string	"o"
	.string	"r"
	.string	" "
	.string	"I"
	.string	"n"
	.string	"f"
	.string	"o"
	.string	"r"
	.string	"m"
	.string	"a"
	.string	"t"
	.string	"i"
	.string	"o"
	.string	"n"
	.string	" "
	.string	"H"
	.string	"a"
	.string	"n"
	.string	"d"
	.string	"l"
	.string	"e"
	.string	":"
	.string	" "
	.string	"0"
	.string	"x"
	.string	"%"
	.string	"x"
	.string	"\n"
	.zero	2
	.align	3
.LC97:
	.string	"T"
	.string	"o"
	.string	"t"
	.string	"a"
	.string	"l"
	.string	" "
	.string	"W"
	.string	"i"
	.string	"d"
	.string	"t"
	.string	"h"
	.string	":"
	.string	" "
	.string	"0"
	.string	"x"
	.string	"%"
	.string	"x"
	.string	"\n"
	.zero	2
	.align	3
.LC98:
	.string	"D"
	.string	"a"
	.string	"t"
	.string	"a"
	.string	" "
	.string	"W"
	.string	"i"
	.string	"d"
	.string	"t"
	.string	"h"
	.string	":"
	.string	" "
	.string	"0"
	.string	"x"
	.string	"%"
	.string	"x"
	.string	"\n"
	.zero	2
	.align	3
.LC99:
	.string	"Size"
	.align	3
.LC100:
	.string	"D"
	.string	"e"
	.string	"v"
	.string	"i"
	.string	"c"
	.string	"e"
	.string	" "
	.string	"S"
	.string	"e"
	.string	"t"
	.string	":"
	.string	" "
	.string	"0"
	.string	"x"
	.string	"%"
	.string	"x"
	.string	"\n"
	.zero	2
	.align	3
.LC101:
	.string	"D"
	.string	"e"
	.string	"v"
	.string	"i"
	.string	"c"
	.string	"e"
	.string	" "
	.string	"L"
	.string	"o"
	.string	"c"
	.string	"a"
	.string	"t"
	.string	"o"
	.string	"r"
	.string	":"
	.string	" "
	.string	"%"
	.string	"a"
	.string	"\n"
	.zero	2
	.align	3
.LC102:
	.string	"B"
	.string	"a"
	.string	"n"
	.string	"k"
	.string	" "
	.string	"L"
	.string	"o"
	.string	"c"
	.string	"a"
	.string	"t"
	.string	"o"
	.string	"r"
	.string	":"
	.string	" "
	.string	"%"
	.string	"a"
	.string	"\n"
	.zero	2
	.align	3
.LC103:
	.string	"Speed"
	.align	3
.LC104:
	.string	"Attributes"
	.align	3
.LC105:
	.string	"E"
	.string	"x"
	.string	"t"
	.string	"e"
	.string	"n"
	.string	"d"
	.string	"e"
	.string	"d"
	.string	" "
	.string	"S"
	.string	"i"
	.string	"z"
	.string	"e"
	.string	":"
	.string	" "
	.string	"%"
	.string	"u"
	.string	"\n"
	.zero	2
	.align	3
.LC106:
	.string	"C"
	.string	"o"
	.string	"n"
	.string	"f"
	.string	"i"
	.string	"g"
	.string	"u"
	.string	"r"
	.string	"e"
	.string	"d"
	.string	" "
	.string	"M"
	.string	"e"
	.string	"m"
	.string	"o"
	.string	"r"
	.string	"y"
	.string	" "
	.string	"S"
	.string	"p"
	.string	"e"
	.string	"e"
	.string	"d"
	.string	":"
	.string	" "
	.string	"0"
	.string	"x"
	.string	"%"
	.string	"x"
	.string	"\n"
	.zero	2
	.align	3
.LC107:
	.string	"M"
	.string	"i"
	.string	"n"
	.string	"i"
	.string	"m"
	.string	"u"
	.string	"m"
	.string	" "
	.string	"v"
	.string	"o"
	.string	"l"
	.string	"t"
	.string	"a"
	.string	"g"
	.string	"e"
	.string	":"
	.string	" "
	.string	"%"
	.string	"u"
	.string	"\n"
	.zero	2
	.align	3
.LC108:
	.string	"M"
	.string	"a"
	.string	"x"
	.string	"i"
	.string	"m"
	.string	"u"
	.string	"m"
	.string	" "
	.string	"v"
	.string	"o"
	.string	"l"
	.string	"t"
	.string	"a"
	.string	"g"
	.string	"e"
	.string	":"
	.string	" "
	.string	"%"
	.string	"u"
	.string	"\n"
	.zero	2
	.align	3
.LC109:
	.string	"C"
	.string	"o"
	.string	"n"
	.string	"f"
	.string	"i"
	.string	"g"
	.string	"u"
	.string	"r"
	.string	"e"
	.string	"d"
	.string	" "
	.string	"v"
	.string	"o"
	.string	"l"
	.string	"t"
	.string	"a"
	.string	"g"
	.string	"e"
	.string	":"
	.string	" "
	.string	"%"
	.string	"u"
	.string	"\n"
	.zero	2
	.align	3
.LC110:
	.string	"F"
	.string	"i"
	.string	"r"
	.string	"m"
	.string	"w"
	.string	"a"
	.string	"r"
	.string	"e"
	.string	" "
	.string	"V"
	.string	"e"
	.string	"r"
	.string	"s"
	.string	"i"
	.string	"o"
	.string	"n"
	.string	":"
	.string	" "
	.string	"%"
	.string	"a"
	.string	"\n"
	.zero	2
	.align	3
.LC111:
	.string	"M"
	.string	"o"
	.string	"d"
	.string	"u"
	.string	"l"
	.string	"e"
	.string	" "
	.string	"M"
	.string	"a"
	.string	"n"
	.string	"u"
	.string	"f"
	.string	"a"
	.string	"c"
	.string	"t"
	.string	"u"
	.string	"r"
	.string	"e"
	.string	"r"
	.string	" "
	.string	"I"
	.string	"D"
	.string	":"
	.string	" "
	.string	"0"
	.string	"x"
	.string	"%"
	.string	"x"
	.string	"\n"
	.zero	2
	.align	3
.LC112:
	.string	"M"
	.string	"o"
	.string	"d"
	.string	"u"
	.string	"l"
	.string	"e"
	.string	" "
	.string	"P"
	.string	"r"
	.string	"o"
	.string	"d"
	.string	"u"
	.string	"c"
	.string	"t"
	.string	" "
	.string	"I"
	.string	"D"
	.string	":"
	.string	" "
	.string	"0"
	.string	"x"
	.string	"%"
	.string	"x"
	.string	"\n"
	.zero	2
	.align	3
.LC113:
	.string	"M"
	.string	"e"
	.string	"m"
	.string	"o"
	.string	"r"
	.string	"y"
	.string	" "
	.string	"S"
	.string	"u"
	.string	"b"
	.string	"s"
	.string	"y"
	.string	"s"
	.string	"t"
	.string	"e"
	.string	"m"
	.string	" "
	.string	"C"
	.string	"o"
	.string	"n"
	.string	"t"
	.string	"r"
	.string	"o"
	.string	"l"
	.string	"l"
	.string	"e"
	.string	"r"
	.string	" "
	.string	"M"
	.string	"a"
	.string	"n"
	.string	"u"
	.string	"f"
	.string	"a"
	.string	"c"
	.string	"t"
	.string	"u"
	.string	"r"
	.string	"e"
	.string	"r"
	.string	" "
	.string	"I"
	.string	"D"
	.string	":"
	.string	" "
	.string	"0"
	.string	"x"
	.string	"%"
	.string	"x"
	.string	"\n"
	.zero	2
	.align	3
.LC114:
	.string	"M"
	.string	"e"
	.string	"m"
	.string	"o"
	.string	"r"
	.string	"y"
	.string	" "
	.string	"S"
	.string	"u"
	.string	"b"
	.string	"s"
	.string	"y"
	.string	"s"
	.string	"t"
	.string	"e"
	.string	"m"
	.string	" "
	.string	"C"
	.string	"o"
	.string	"n"
	.string	"t"
	.string	"r"
	.string	"o"
	.string	"l"
	.string	"l"
	.string	"e"
	.string	"r"
	.string	" "
	.string	"P"
	.string	"r"
	.string	"o"
	.string	"d"
	.string	"u"
	.string	"c"
	.string	"t"
	.string	" "
	.string	"I"
	.string	"D"
	.string	":"
	.string	" "
	.string	"0"
	.string	"x"
	.string	"%"
	.string	"x"
	.string	"\n"
	.zero	2
	.align	3
.LC115:
	.string	"N"
	.string	"o"
	.string	"n"
	.string	"-"
	.string	"v"
	.string	"o"
	.string	"l"
	.string	"a"
	.string	"t"
	.string	"i"
	.string	"l"
	.string	"e"
	.string	" "
	.string	"S"
	.string	"i"
	.string	"z"
	.string	"e"
	.string	":"
	.string	" "
	.string	"0"
	.string	"x"
	.string	"%"
	.string	"l"
	.string	"x"
	.string	"\n"
	.zero	2
	.align	3
.LC116:
	.string	"V"
	.string	"o"
	.string	"l"
	.string	"a"
	.string	"t"
	.string	"i"
	.string	"l"
	.string	"e"
	.string	" "
	.string	"S"
	.string	"i"
	.string	"z"
	.string	"e"
	.string	":"
	.string	" "
	.string	"0"
	.string	"x"
	.string	"%"
	.string	"l"
	.string	"x"
	.string	"\n"
	.zero	2
	.align	3
.LC117:
	.string	"C"
	.string	"a"
	.string	"c"
	.string	"h"
	.string	"e"
	.string	" "
	.string	"S"
	.string	"i"
	.string	"z"
	.string	"e"
	.string	":"
	.string	" "
	.string	"0"
	.string	"x"
	.string	"%"
	.string	"l"
	.string	"x"
	.string	"\n"
	.zero	2
	.align	3
.LC118:
	.string	"L"
	.string	"o"
	.string	"g"
	.string	"i"
	.string	"c"
	.string	"a"
	.string	"l"
	.string	" "
	.string	"S"
	.string	"i"
	.string	"z"
	.string	"e"
	.string	":"
	.string	" "
	.string	"0"
	.string	"x"
	.string	"%"
	.string	"l"
	.string	"x"
	.string	"\n"
	.zero	2
	.align	3
.LC119:
	.string	"E"
	.string	"x"
	.string	"t"
	.string	"e"
	.string	"n"
	.string	"d"
	.string	"e"
	.string	"d"
	.string	" "
	.string	"S"
	.string	"p"
	.string	"e"
	.string	"e"
	.string	"d"
	.string	":"
	.string	" "
	.string	"0"
	.string	"x"
	.string	"%"
	.string	"x"
	.string	"\n"
	.zero	2
	.align	3
.LC120:
	.string	"E"
	.string	"x"
	.string	"t"
	.string	"e"
	.string	"n"
	.string	"d"
	.string	"e"
	.string	"d"
	.string	" "
	.string	"C"
	.string	"o"
	.string	"n"
	.string	"f"
	.string	"i"
	.string	"g"
	.string	"u"
	.string	"r"
	.string	"e"
	.string	"d"
	.string	" "
	.string	"M"
	.string	"e"
	.string	"m"
	.string	"o"
	.string	"r"
	.string	"y"
	.string	" "
	.string	"S"
	.string	"p"
	.string	"e"
	.string	"e"
	.string	"d"
	.string	":"
	.string	" "
	.string	"0"
	.string	"x"
	.string	"%"
	.string	"x"
	.string	"\n"
	.zero	2
	.align	3
.LC121:
	.string	"P"
	.string	"M"
	.string	"I"
	.string	"C"
	.string	"0"
	.string	" "
	.string	"M"
	.string	"a"
	.string	"n"
	.string	"u"
	.string	"f"
	.string	"a"
	.string	"c"
	.string	"t"
	.string	"u"
	.string	"r"
	.string	"e"
	.string	"r"
	.string	" "
	.string	"I"
	.string	"D"
	.string	":"
	.string	" "
	.string	"0"
	.string	"x"
	.string	"%"
	.string	"x"
	.string	"\n"
	.zero	2
	.align	3
.LC122:
	.string	"P"
	.string	"M"
	.string	"I"
	.string	"C"
	.string	"0"
	.string	" "
	.string	"R"
	.string	"e"
	.string	"v"
	.string	"i"
	.string	"s"
	.string	"i"
	.string	"o"
	.string	"n"
	.string	" "
	.string	"N"
	.string	"u"
	.string	"m"
	.string	"b"
	.string	"e"
	.string	"r"
	.string	":"
	.string	" "
	.string	"0"
	.string	"x"
	.string	"%"
	.string	"x"
	.string	"\n"
	.zero	2
	.align	3
.LC123:
	.string	"R"
	.string	"C"
	.string	"D"
	.string	" "
	.string	"M"
	.string	"a"
	.string	"n"
	.string	"u"
	.string	"f"
	.string	"a"
	.string	"c"
	.string	"t"
	.string	"u"
	.string	"r"
	.string	"e"
	.string	"r"
	.string	" "
	.string	"I"
	.string	"D"
	.string	":"
	.string	" "
	.string	"0"
	.string	"x"
	.string	"%"
	.string	"x"
	.string	"\n"
	.zero	2
	.align	3
.LC124:
	.string	"R"
	.string	"C"
	.string	"D"
	.string	" "
	.string	"R"
	.string	"e"
	.string	"v"
	.string	"i"
	.string	"s"
	.string	"i"
	.string	"o"
	.string	"n"
	.string	" "
	.string	"N"
	.string	"u"
	.string	"m"
	.string	"b"
	.string	"e"
	.string	"r"
	.string	":"
	.string	" "
	.string	"0"
	.string	"x"
	.string	"%"
	.string	"x"
	.string	"\n"
	.zero	2
	.align	3
.LC125:
	.string	"VendorSyndrome"
	.align	3
.LC126:
	.string	"MemoryArrayErrorAddress"
	.align	3
.LC127:
	.string	"DeviceErrorAddress"
	.align	3
.LC128:
	.string	"ErrorResolution"
	.align	3
.LC129:
	.string	"StartingAddress"
	.align	3
.LC130:
	.string	"EndingAddress"
	.align	3
.LC131:
	.string	"MemoryArrayHandle"
	.align	3
.LC132:
	.string	"PartitionWidth"
	.align	3
.LC133:
	.string	"ExtendedStartingAddress"
	.align	3
.LC134:
	.string	"ExtendedEndingAddress"
	.align	3
.LC135:
	.string	"MemoryDeviceHandle"
	.align	3
.LC136:
	.string	"MemoryArrayMappedAddressHandle"
	.align	3
.LC137:
	.string	"PartitionRowPosition"
	.align	3
.LC138:
	.string	"InterleavePosition"
	.align	3
.LC139:
	.string	"InterleavedDataDepth"
	.align	3
.LC140:
	.string	"NumberOfButtons"
	.align	3
.LC141:
	.string	"Location"
	.align	3
.LC142:
	.string	"ManufactureDate"
	.align	3
.LC143:
	.string	"DeviceName"
	.align	3
.LC144:
	.string	"DeviceCapacity"
	.align	3
.LC145:
	.string	"DesignVoltage"
	.align	3
.LC146:
	.string	"SBDSVersionNumber"
	.align	3
.LC147:
	.string	"MaximumErrorInBatteryData"
	.align	3
.LC148:
	.string	"SBDSSerialNumber"
	.align	3
.LC149:
	.string	"SBDSDeviceChemistry"
	.align	3
.LC150:
	.string	"DesignCapacityMultiplier"
	.align	3
.LC151:
	.string	"OEMSpecific"
	.align	3
.LC152:
	.string	"ResetCount"
	.align	3
.LC153:
	.string	"ResetLimit"
	.align	3
.LC154:
	.string	"TimerInterval"
	.align	3
.LC155:
	.string	"Timeout"
	.align	3
.LC156:
	.string	"NextScheduledPowerOnMonth"
	.align	3
.LC157:
	.string	"NextScheduledPowerOnDayOfMonth"
	.align	3
.LC158:
	.string	"NextScheduledPowerOnHour"
	.align	3
.LC159:
	.string	"NextScheduledPowerOnMinute"
	.align	3
.LC160:
	.string	"NextScheduledPowerOnSecond"
	.align	3
.LC161:
	.string	"Description"
	.align	3
.LC162:
	.string	"MaximumValue"
	.align	3
.LC163:
	.string	"MinimumValue"
	.align	3
.LC164:
	.string	"Resolution"
	.align	3
.LC165:
	.string	"Tolerance"
	.align	3
.LC166:
	.string	"Accuracy"
	.align	3
.LC167:
	.string	"OEMDefined"
	.align	3
.LC168:
	.string	"NominalValue"
	.align	3
.LC169:
	.string	"TemperatureProbeHandle"
	.align	3
.LC170:
	.string	"CoolingUnitGroup"
	.align	3
.LC171:
	.string	"NominalSpeed"
	.align	3
.LC172:
	.string	"ManufacturerName"
	.align	3
.LC173:
	.string	"Address"
	.align	3
.LC174:
	.string	"ManagementDeviceHandle"
	.align	3
.LC175:
	.string	"ComponentHandle"
	.align	3
.LC176:
	.string	"ThresholdHandle"
	.align	3
.LC177:
	.string	"LowerThresholdNonCritical"
	.align	3
.LC178:
	.string	"UpperThresholdNonCritical"
	.align	3
.LC179:
	.string	"LowerThresholdCritical"
	.align	3
.LC180:
	.string	"UpperThresholdCritical"
	.align	3
.LC181:
	.string	"LowerThresholdNonRecoverable"
	.align	3
.LC182:
	.string	"UpperThresholdNonRecoverable"
	.align	3
.LC183:
	.string	"MaximumChannelLoad"
	.align	3
.LC184:
	.string	"MemoryDeviceCount"
	.align	3
.LC185:
	.string	"I2CSlaveAddress"
	.align	3
.LC186:
	.string	"NVStorageDeviceAddress"
	.align	3
.LC187:
	.string	"BaseAddress"
	.align	3
.LC188:
	.string	"PowerUnitGroup"
	.align	3
.LC189:
	.string	"AssetTagNumber"
	.align	3
.LC190:
	.string	"ModelPartNumber"
	.align	3
.LC191:
	.string	"RevisionLevel"
	.align	3
.LC192:
	.string	"MaxPowerCapacity"
	.align	3
.LC193:
	.string	"InputVoltageProbeHandle"
	.align	3
.LC194:
	.string	"CoolingDeviceHandle"
	.align	3
.LC195:
	.string	"InputCurrentProbeHandle"
	.align	3
.LC196:
	.string	"NumberOfAdditionalInformationEntries"
	.align	3
.LC197:
	.string	"String"
	.align	3
.LC198:
	.string	"Value"
	.align	3
.LC199:
	.string	"R"
	.string	"e"
	.string	"f"
	.string	"e"
	.string	"r"
	.string	"e"
	.string	"n"
	.string	"c"
	.string	"e"
	.string	" "
	.string	"D"
	.string	"e"
	.string	"s"
	.string	"i"
	.string	"g"
	.string	"n"
	.string	"a"
	.string	"t"
	.string	"i"
	.string	"o"
	.string	"n"
	.string	":"
	.string	" "
	.string	"%"
	.string	"a"
	.string	"\n"
	.zero	2
	.align	3
.LC200:
	.string	"D"
	.string	"e"
	.string	"v"
	.string	"i"
	.string	"c"
	.string	"e"
	.string	" "
	.string	"T"
	.string	"y"
	.string	"p"
	.string	"e"
	.string	" "
	.string	"I"
	.string	"n"
	.string	"s"
	.string	"t"
	.string	"a"
	.string	"n"
	.string	"c"
	.string	"e"
	.string	":"
	.string	" "
	.string	"0"
	.string	"x"
	.string	"%"
	.string	"x"
	.string	"\n"
	.zero	2
	.align	3
.LC201:
	.string	"S"
	.string	"e"
	.string	"g"
	.string	"m"
	.string	"e"
	.string	"n"
	.string	"t"
	.string	" "
	.string	"G"
	.string	"r"
	.string	"o"
	.string	"u"
	.string	"p"
	.string	" "
	.string	"N"
	.string	"u"
	.string	"m"
	.string	"b"
	.string	"e"
	.string	"r"
	.string	":"
	.string	" "
	.string	"0"
	.string	"x"
	.string	"%"
	.string	"x"
	.string	"\n"
	.zero	2
	.align	3
.LC202:
	.string	"B"
	.string	"u"
	.string	"s"
	.string	" "
	.string	"N"
	.string	"u"
	.string	"m"
	.string	"b"
	.string	"e"
	.string	"r"
	.string	":"
	.string	" "
	.string	"0"
	.string	"x"
	.string	"%"
	.string	"x"
	.string	"\n"
	.zero	2
	.align	3
.LC203:
	.string	"D"
	.string	"e"
	.string	"v"
	.string	"i"
	.string	"c"
	.string	"e"
	.string	"/"
	.string	"F"
	.string	"u"
	.string	"n"
	.string	"c"
	.string	"t"
	.string	"i"
	.string	"o"
	.string	"n"
	.string	" "
	.string	"N"
	.string	"u"
	.string	"m"
	.string	"b"
	.string	"e"
	.string	"r"
	.string	":"
	.string	" "
	.string	"0"
	.string	"x"
	.string	"%"
	.string	"x"
	.string	"\n"
	.zero	2
	.align	3
.LC204:
	.string	"InterfaceTypeSpecificDataLength"
	.align	3
.LC205:
	.string	"InterfaceTypeSpecificData"
	.align	3
.LC206:
	.string	"VendorID"
	.align	3
.LC207:
	.string	"MajorSpecVersion"
	.align	3
.LC208:
	.string	"MinorSpecVersion"
	.align	3
.LC209:
	.string	"FirmwareVersion1"
	.align	3
.LC210:
	.string	"FirmwareVersion2"
	.align	3
.LC211:
	.string	"FirmwareComponentName"
	.align	3
.LC212:
	.string	"FirmwareVersion"
	.align	3
.LC213:
	.string	"F"
	.string	"r"
	.string	"e"
	.string	"e"
	.string	"-"
	.string	"f"
	.string	"o"
	.string	"r"
	.string	"m"
	.string	" "
	.string	"s"
	.string	"t"
	.string	"r"
	.string	"i"
	.string	"n"
	.string	"g"
	.zero	2
	.align	3
.LC214:
	.string	"M"
	.string	"A"
	.string	"J"
	.string	"O"
	.string	"R"
	.string	"."
	.string	"M"
	.string	"I"
	.string	"N"
	.string	"O"
	.string	"R"
	.zero	2
	.align	3
.LC215:
	.string	"3"
	.string	"2"
	.string	"-"
	.string	"b"
	.string	"i"
	.string	"t"
	.string	" "
	.string	"h"
	.string	"e"
	.string	"x"
	.string	"a"
	.string	"d"
	.string	"e"
	.string	"c"
	.string	"i"
	.string	"m"
	.string	"a"
	.string	"l"
	.string	" "
	.string	"s"
	.string	"t"
	.string	"r"
	.string	"i"
	.string	"n"
	.string	"g"
	.zero	2
	.align	3
.LC216:
	.string	"6"
	.string	"4"
	.string	"-"
	.string	"b"
	.string	"i"
	.string	"t"
	.string	" "
	.string	"h"
	.string	"e"
	.string	"x"
	.string	"a"
	.string	"d"
	.string	"e"
	.string	"c"
	.string	"i"
	.string	"m"
	.string	"a"
	.string	"l"
	.string	" "
	.string	"s"
	.string	"t"
	.string	"r"
	.string	"i"
	.string	"n"
	.string	"g"
	.zero	2
	.align	3
.LC217:
	.string	"B"
	.string	"I"
	.string	"O"
	.string	"S"
	.string	" "
	.string	"V"
	.string	"e"
	.string	"n"
	.string	"d"
	.string	"o"
	.string	"r"
	.string	"/"
	.string	"O"
	.string	"E"
	.string	"M"
	.string	"-"
	.string	"s"
	.string	"p"
	.string	"e"
	.string	"c"
	.string	"i"
	.string	"f"
	.string	"i"
	.string	"c"
	.zero	2
	.align	3
.LC218:
	.string	"R"
	.string	"e"
	.string	"s"
	.string	"e"
	.string	"r"
	.string	"v"
	.string	"e"
	.string	"d"
	.zero	2
	.align	3
.LC219:
	.string	"FirmwareId"
	.align	3
.LC220:
	.string	"R"
	.string	"F"
	.string	"C"
	.string	"4"
	.string	"1"
	.string	"2"
	.string	"2"
	.string	" "
	.string	"U"
	.string	"U"
	.string	"I"
	.string	"D"
	.string	" "
	.string	"s"
	.string	"t"
	.string	"r"
	.string	"i"
	.string	"n"
	.string	"g"
	.zero	2
	.align	3
.LC221:
	.string	"ReleaseDate"
	.align	3
.LC222:
	.string	"LowestSupportedVersion"
	.align	3
.LC223:
	.string	"ImageSize"
	.align	3
.LC224:
	.string	"AssociatedComponentCount"
	.align	3
.LC225:
	.string	" "
	.string	" "
	.string	" "
	.string	" "
	.string	"0"
	.string	"x"
	.string	"%"
	.string	"0"
	.string	"4"
	.string	"X"
	.string	" "
	.zero	2
	.align	3
.LC226:
	.string	"U"
	.string	"E"
	.string	"F"
	.string	"I"
	.string	" "
	.string	"d"
	.string	"e"
	.string	"v"
	.string	"i"
	.string	"c"
	.string	"e"
	.string	" "
	.string	"p"
	.string	"a"
	.string	"t"
	.string	"h"
	.zero	2
	.align	3
.LC227:
	.string	"B"
	.string	"I"
	.string	"O"
	.string	"S"
	.string	" "
	.string	"v"
	.string	"e"
	.string	"n"
	.string	"d"
	.string	"o"
	.string	"r"
	.string	" "
	.string	"d"
	.string	"e"
	.string	"f"
	.string	"i"
	.string	"n"
	.string	"e"
	.string	"d"
	.zero	2
	.align	3
.LC228:
	.string	"O"
	.string	"E"
	.string	"M"
	.string	" "
	.string	"d"
	.string	"e"
	.string	"f"
	.string	"i"
	.string	"n"
	.string	"e"
	.string	"d"
	.zero	2
	.align	3
.LC229:
	.string	"StringPropertyValue"
	.align	3
.LC230:
	.string	"ParentHandle"
	.section	.text.SmbiosPrintStructure,"ax",@progbits
	.align	1
	.globl	SmbiosPrintStructure
	.type	SmbiosPrintStructure, @function
SmbiosPrintStructure:
.LFB3:
	.loc 1 309 1
	.cfi_startproc
	addi	sp,sp,-624
	.cfi_def_cfa_offset 624
	sd	ra,616(sp)
	sd	s0,608(sp)
	sd	s1,600(sp)
	.cfi_offset 1, -8
	.cfi_offset 8, -16
	.cfi_offset 9, -24
	addi	s0,sp,624
	.cfi_def_cfa 8, 0
	sd	a0,-616(s0)
	mv	a5,a1
	sb	a5,-617(s0)
	.loc 1 315 6
	ld	a5,-616(s0)
	bne	a5,zero,.L21
	.loc 1 316 12
	li	a5,-1
	slli	a5,a5,63
	addi	a5,a5,2
	j	.L22
.L21:
	.loc 1 319 6
	lbu	a5,-617(s0)
	andi	a5,a5,0xff
	bne	a5,zero,.L23
	.loc 1 320 12
	li	a5,0
	j	.L22
.L23:
	.loc 1 323 10
	ld	a5,-616(s0)
	lbu	a4,0(a5)
	lbu	a3,1(a5)
	slli	a3,a3,8
	or	a4,a3,a4
	lbu	a3,2(a5)
	slli	a3,a3,16
	or	a4,a3,a4
	lbu	a3,3(a5)
	slli	a3,a3,24
	or	a4,a3,a4
	lbu	a3,4(a5)
	slli	a3,a3,32
	or	a4,a3,a4
	lbu	a3,5(a5)
	slli	a3,a3,40
	or	a4,a3,a4
	lbu	a3,6(a5)
	slli	a3,a3,48
	or	a4,a3,a4
	lbu	a5,7(a5)
	slli	a5,a5,56
	or	a5,a5,a4
	sd	a5,-72(s0)
	.loc 1 328 35
	ld	a5,-616(s0)
	lbu	a4,0(a5)
	lbu	a3,1(a5)
	slli	a3,a3,8
	or	a4,a3,a4
	lbu	a3,2(a5)
	slli	a3,a3,16
	or	a4,a3,a4
	lbu	a3,3(a5)
	slli	a3,a3,24
	or	a4,a3,a4
	lbu	a3,4(a5)
	slli	a3,a3,32
	or	a4,a3,a4
	lbu	a3,5(a5)
	slli	a3,a3,40
	or	a4,a3,a4
	lbu	a3,6(a5)
	slli	a3,a3,48
	or	a4,a3,a4
	lbu	a5,7(a5)
	slli	a5,a5,56
	or	a5,a5,a4
	.loc 1 328 40
	lbu	a5,0(a5)
	.loc 1 328 3
	li	a1,3
	mv	a0,a5
	call	DisplayStructureTypeInfo@plt
	.loc 1 329 3
	la	a5,gShellDebug1HiiHandle
	ld	a2,0(a5)
	.loc 1 329 79
	ld	a5,-616(s0)
	lbu	a4,0(a5)
	lbu	a3,1(a5)
	slli	a3,a3,8
	or	a4,a3,a4
	lbu	a3,2(a5)
	slli	a3,a3,16
	or	a4,a3,a4
	lbu	a3,3(a5)
	slli	a3,a3,24
	or	a4,a3,a4
	lbu	a3,4(a5)
	slli	a3,a3,32
	or	a4,a3,a4
	lbu	a3,5(a5)
	slli	a3,a3,40
	or	a4,a3,a4
	lbu	a3,6(a5)
	slli	a3,a3,48
	or	a4,a3,a4
	lbu	a5,7(a5)
	slli	a5,a5,56
	or	a5,a5,a4
	.loc 1 329 84
	lbu	a5,1(a5)
	.loc 1 329 3
	sext.w	a5,a5
	mv	a4,a2
	li	a3,145
	li	a2,0
	li	a1,-1
	li	a0,-1
	call	ShellPrintHiiEx@plt
	.loc 1 330 3
	la	a5,gShellDebug1HiiHandle
	ld	a2,0(a5)
	.loc 1 330 79
	ld	a5,-616(s0)
	lbu	a4,0(a5)
	lbu	a3,1(a5)
	slli	a3,a3,8
	or	a4,a3,a4
	lbu	a3,2(a5)
	slli	a3,a3,16
	or	a4,a3,a4
	lbu	a3,3(a5)
	slli	a3,a3,24
	or	a4,a3,a4
	lbu	a3,4(a5)
	slli	a3,a3,32
	or	a4,a3,a4
	lbu	a3,5(a5)
	slli	a3,a3,40
	or	a4,a3,a4
	lbu	a3,6(a5)
	slli	a3,a3,48
	or	a4,a3,a4
	lbu	a5,7(a5)
	slli	a5,a5,56
	or	a5,a5,a4
	.loc 1 330 84
	lbu	a4,2(a5)
	lbu	a5,3(a5)
	slli	a5,a5,8
	or	a5,a5,a4
	slli	a5,a5,48
	srli	a5,a5,48
	.loc 1 330 3
	sext.w	a5,a5
	mv	a4,a2
	li	a3,146
	li	a2,0
	li	a1,-1
	li	a0,-1
	call	ShellPrintHiiEx@plt
	.loc 1 332 6
	lbu	a5,-617(s0)
	andi	a4,a5,0xff
	li	a5,1
	bne	a4,a5,.L24
	.loc 1 333 12
	li	a5,0
	j	.L22
.L24:
	.loc 1 336 17
	ld	a5,-616(s0)
	lbu	a4,0(a5)
	lbu	a3,1(a5)
	slli	a3,a3,8
	or	a4,a3,a4
	lbu	a3,2(a5)
	slli	a3,a3,16
	or	a4,a3,a4
	lbu	a3,3(a5)
	slli	a3,a3,24
	or	a4,a3,a4
	lbu	a3,4(a5)
	slli	a3,a3,32
	or	a4,a3,a4
	lbu	a3,5(a5)
	slli	a3,a3,40
	or	a4,a3,a4
	lbu	a3,6(a5)
	slli	a3,a3,48
	or	a4,a3,a4
	lbu	a5,7(a5)
	slli	a5,a5,56
	or	a5,a5,a4
	.loc 1 336 22
	lbu	a5,0(a5)
	sext.w	a5,a5
	.loc 1 336 3
	li	a4,127
	beq	a5,a4,.L25
	li	a4,127
	bgt	a5,a4,.L26
	li	a4,126
	beq	a5,a4,.L27
	li	a4,126
	bgt	a5,a4,.L26
	li	a4,46
	beq	a5,a4,.L28
	li	a4,46
	bgt	a5,a4,.L26
	li	a4,45
	beq	a5,a4,.L29
	li	a4,45
	bgt	a5,a4,.L26
	li	a4,44
	beq	a5,a4,.L30
	li	a4,44
	bgt	a5,a4,.L26
	li	a4,43
	beq	a5,a4,.L31
	li	a4,43
	bgt	a5,a4,.L26
	li	a4,42
	beq	a5,a4,.L32
	li	a4,42
	bgt	a5,a4,.L26
	li	a4,41
	beq	a5,a4,.L33
	li	a4,41
	bgt	a5,a4,.L26
	li	a4,40
	beq	a5,a4,.L34
	li	a4,40
	bgt	a5,a4,.L26
	li	a4,39
	beq	a5,a4,.L35
	li	a4,39
	bgt	a5,a4,.L26
	li	a4,38
	beq	a5,a4,.L36
	li	a4,38
	bgt	a5,a4,.L26
	li	a4,37
	beq	a5,a4,.L37
	li	a4,37
	bgt	a5,a4,.L26
	li	a4,36
	beq	a5,a4,.L38
	li	a4,36
	bgt	a5,a4,.L26
	li	a4,35
	beq	a5,a4,.L39
	li	a4,35
	bgt	a5,a4,.L26
	li	a4,34
	beq	a5,a4,.L40
	li	a4,34
	bgt	a5,a4,.L26
	li	a4,33
	beq	a5,a4,.L41
	li	a4,33
	bgt	a5,a4,.L26
	li	a4,32
	beq	a5,a4,.L42
	li	a4,32
	bgt	a5,a4,.L26
	li	a4,31
	beq	a5,a4,.L43
	li	a4,31
	bgt	a5,a4,.L26
	li	a4,30
	beq	a5,a4,.L44
	li	a4,30
	bgt	a5,a4,.L26
	li	a4,29
	beq	a5,a4,.L45
	li	a4,29
	bgt	a5,a4,.L26
	li	a4,28
	beq	a5,a4,.L46
	li	a4,28
	bgt	a5,a4,.L26
	li	a4,27
	beq	a5,a4,.L47
	li	a4,27
	bgt	a5,a4,.L26
	li	a4,26
	beq	a5,a4,.L48
	li	a4,26
	bgt	a5,a4,.L26
	li	a4,25
	beq	a5,a4,.L49
	li	a4,25
	bgt	a5,a4,.L26
	li	a4,24
	beq	a5,a4,.L50
	li	a4,24
	bgt	a5,a4,.L26
	li	a4,23
	beq	a5,a4,.L51
	li	a4,23
	bgt	a5,a4,.L26
	li	a4,22
	beq	a5,a4,.L52
	li	a4,22
	bgt	a5,a4,.L26
	li	a4,21
	beq	a5,a4,.L53
	li	a4,21
	bgt	a5,a4,.L26
	li	a4,20
	beq	a5,a4,.L54
	li	a4,20
	bgt	a5,a4,.L26
	li	a4,19
	beq	a5,a4,.L55
	li	a4,19
	bgt	a5,a4,.L26
	li	a4,18
	beq	a5,a4,.L56
	li	a4,18
	bgt	a5,a4,.L26
	li	a4,17
	beq	a5,a4,.L57
	li	a4,17
	bgt	a5,a4,.L26
	li	a4,16
	beq	a5,a4,.L58
	li	a4,16
	bgt	a5,a4,.L26
	li	a4,15
	beq	a5,a4,.L59
	li	a4,15
	bgt	a5,a4,.L26
	li	a4,14
	beq	a5,a4,.L60
	li	a4,14
	bgt	a5,a4,.L26
	li	a4,13
	beq	a5,a4,.L61
	li	a4,13
	bgt	a5,a4,.L26
	li	a4,12
	beq	a5,a4,.L62
	li	a4,12
	bgt	a5,a4,.L26
	li	a4,11
	beq	a5,a4,.L63
	li	a4,11
	bgt	a5,a4,.L26
	li	a4,10
	beq	a5,a4,.L64
	li	a4,10
	bgt	a5,a4,.L26
	li	a4,9
	beq	a5,a4,.L65
	li	a4,9
	bgt	a5,a4,.L26
	li	a4,8
	beq	a5,a4,.L66
	li	a4,8
	bgt	a5,a4,.L26
	li	a4,7
	beq	a5,a4,.L67
	li	a4,7
	bgt	a5,a4,.L26
	li	a4,6
	beq	a5,a4,.L68
	li	a4,6
	bgt	a5,a4,.L26
	li	a4,5
	beq	a5,a4,.L69
	li	a4,5
	bgt	a5,a4,.L26
	li	a4,4
	beq	a5,a4,.L70
	li	a4,4
	bgt	a5,a4,.L26
	li	a4,3
	beq	a5,a4,.L71
	li	a4,3
	bgt	a5,a4,.L26
	li	a4,2
	beq	a5,a4,.L72
	li	a4,2
	bgt	a5,a4,.L26
	beq	a5,zero,.L73
	li	a4,1
	beq	a5,a4,.L74
	j	.L26
.L73:
	.loc 1 341 80
	ld	a5,-616(s0)
	lbu	a4,0(a5)
	lbu	a3,1(a5)
	slli	a3,a3,8
	or	a4,a3,a4
	lbu	a3,2(a5)
	slli	a3,a3,16
	or	a4,a3,a4
	lbu	a3,3(a5)
	slli	a3,a3,24
	or	a4,a3,a4
	lbu	a3,4(a5)
	slli	a3,a3,32
	or	a4,a3,a4
	lbu	a3,5(a5)
	slli	a3,a3,40
	or	a4,a3,a4
	lbu	a3,6(a5)
	slli	a3,a3,48
	or	a4,a3,a4
	lbu	a5,7(a5)
	slli	a5,a5,56
	or	a5,a5,a4
	.loc 1 341 87
	lbu	a5,4(a5)
	.loc 1 341 7
	mv	a1,a5
	ld	a0,-616(s0)
	call	LibGetSmbiosString@plt
	mv	a5,a0
	.loc 1 341 7 is_stmt 0 discriminator 1
	mv	a3,a5
	lla	a2,.LC1
	li	a1,-1
	li	a0,-1
	call	ShellPrintEx@plt
	.loc 1 342 86 is_stmt 1
	ld	a5,-616(s0)
	lbu	a4,0(a5)
	lbu	a3,1(a5)
	slli	a3,a3,8
	or	a4,a3,a4
	lbu	a3,2(a5)
	slli	a3,a3,16
	or	a4,a3,a4
	lbu	a3,3(a5)
	slli	a3,a3,24
	or	a4,a3,a4
	lbu	a3,4(a5)
	slli	a3,a3,32
	or	a4,a3,a4
	lbu	a3,5(a5)
	slli	a3,a3,40
	or	a4,a3,a4
	lbu	a3,6(a5)
	slli	a3,a3,48
	or	a4,a3,a4
	lbu	a5,7(a5)
	slli	a5,a5,56
	or	a5,a5,a4
	.loc 1 342 93
	lbu	a5,5(a5)
	.loc 1 342 7
	mv	a1,a5
	ld	a0,-616(s0)
	call	LibGetSmbiosString@plt
	mv	a5,a0
	.loc 1 342 7 is_stmt 0 discriminator 1
	mv	a3,a5
	lla	a2,.LC2
	li	a1,-1
	li	a0,-1
	call	ShellPrintEx@plt
	.loc 1 343 77 is_stmt 1
	ld	a5,-616(s0)
	lbu	a4,0(a5)
	lbu	a3,1(a5)
	slli	a3,a3,8
	or	a4,a3,a4
	lbu	a3,2(a5)
	slli	a3,a3,16
	or	a4,a3,a4
	lbu	a3,3(a5)
	slli	a3,a3,24
	or	a4,a3,a4
	lbu	a3,4(a5)
	slli	a3,a3,32
	or	a4,a3,a4
	lbu	a3,5(a5)
	slli	a3,a3,40
	or	a4,a3,a4
	lbu	a3,6(a5)
	slli	a3,a3,48
	or	a4,a3,a4
	lbu	a5,7(a5)
	slli	a5,a5,56
	or	a5,a5,a4
	.loc 1 343 84
	lbu	a4,6(a5)
	lbu	a5,7(a5)
	slli	a5,a5,8
	or	a5,a5,a4
	slli	a5,a5,48
	srli	a5,a5,48
	.loc 1 343 7
	sext.w	a5,a5
	mv	a3,a5
	lla	a2,.LC3
	li	a1,-1
	li	a0,-1
	call	ShellPrintEx@plt
	.loc 1 344 91
	ld	a5,-616(s0)
	lbu	a4,0(a5)
	lbu	a3,1(a5)
	slli	a3,a3,8
	or	a4,a3,a4
	lbu	a3,2(a5)
	slli	a3,a3,16
	or	a4,a3,a4
	lbu	a3,3(a5)
	slli	a3,a3,24
	or	a4,a3,a4
	lbu	a3,4(a5)
	slli	a3,a3,32
	or	a4,a3,a4
	lbu	a3,5(a5)
	slli	a3,a3,40
	or	a4,a3,a4
	lbu	a3,6(a5)
	slli	a3,a3,48
	or	a4,a3,a4
	lbu	a5,7(a5)
	slli	a5,a5,56
	or	a5,a5,a4
	.loc 1 344 98
	lbu	a5,8(a5)
	.loc 1 344 7
	mv	a1,a5
	ld	a0,-616(s0)
	call	LibGetSmbiosString@plt
	mv	a5,a0
	.loc 1 344 7 is_stmt 0 discriminator 1
	mv	a3,a5
	lla	a2,.LC4
	li	a1,-1
	li	a0,-1
	call	ShellPrintEx@plt
	.loc 1 345 18 is_stmt 1
	ld	a5,-616(s0)
	lbu	a4,0(a5)
	lbu	a3,1(a5)
	slli	a3,a3,8
	or	a4,a3,a4
	lbu	a3,2(a5)
	slli	a3,a3,16
	or	a4,a3,a4
	lbu	a3,3(a5)
	slli	a3,a3,24
	or	a4,a3,a4
	lbu	a3,4(a5)
	slli	a3,a3,32
	or	a4,a3,a4
	lbu	a3,5(a5)
	slli	a3,a3,40
	or	a4,a3,a4
	lbu	a3,6(a5)
	slli	a3,a3,48
	or	a4,a3,a4
	lbu	a5,7(a5)
	slli	a5,a5,56
	or	a5,a5,a4
	.loc 1 345 25
	lbu	a5,9(a5)
	.loc 1 345 10
	mv	a4,a5
	li	a5,255
	bne	a4,a5,.L75
	.loc 1 345 70 discriminator 1
	la	a5,SmbiosMajorVersion
	lbu	a5,0(a5)
	.loc 1 345 45 discriminator 1
	mv	a4,a5
	li	a5,3
	bgtu	a4,a5,.L76
	.loc 1 345 101 discriminator 2
	la	a5,SmbiosMajorVersion
	lbu	a5,0(a5)
	.loc 1 345 48 discriminator 2
	mv	a4,a5
	li	a5,3
	bne	a4,a5,.L75
	.loc 1 345 132 discriminator 3
	la	a5,SmbiosMinorVersion
	lbu	a5,0(a5)
	.loc 1 345 110 discriminator 3
	bne	a5,zero,.L76
.L75:
	.loc 1 346 9
	la	a5,gShellDebug1HiiHandle
	ld	a2,0(a5)
	.loc 1 346 91
	ld	a5,-616(s0)
	lbu	a4,0(a5)
	lbu	a3,1(a5)
	slli	a3,a3,8
	or	a4,a3,a4
	lbu	a3,2(a5)
	slli	a3,a3,16
	or	a4,a3,a4
	lbu	a3,3(a5)
	slli	a3,a3,24
	or	a4,a3,a4
	lbu	a3,4(a5)
	slli	a3,a3,32
	or	a4,a3,a4
	lbu	a3,5(a5)
	slli	a3,a3,40
	or	a4,a3,a4
	lbu	a3,6(a5)
	slli	a3,a3,48
	or	a4,a3,a4
	lbu	a5,7(a5)
	slli	a5,a5,56
	or	a5,a5,a4
	.loc 1 346 98
	lbu	a5,9(a5)
	sext.w	a5,a5
	.loc 1 346 109
	addiw	a5,a5,1
	sext.w	a5,a5
	.loc 1 346 9
	slliw	a5,a5,6
	sext.w	a5,a5
	mv	a4,a2
	li	a3,436
	li	a2,0
	li	a1,-1
	li	a0,-1
	call	ShellPrintHiiEx@plt
.L76:
	.loc 1 349 77
	ld	a5,-616(s0)
	lbu	a4,0(a5)
	lbu	a3,1(a5)
	slli	a3,a3,8
	or	a4,a3,a4
	lbu	a3,2(a5)
	slli	a3,a3,16
	or	a4,a3,a4
	lbu	a3,3(a5)
	slli	a3,a3,24
	or	a4,a3,a4
	lbu	a3,4(a5)
	slli	a3,a3,32
	or	a4,a3,a4
	lbu	a3,5(a5)
	slli	a3,a3,40
	or	a4,a3,a4
	lbu	a3,6(a5)
	slli	a3,a3,48
	or	a4,a3,a4
	lbu	a5,7(a5)
	slli	a5,a5,56
	or	a5,a5,a4
	.loc 1 349 69
	addi	a5,a5,10
	.loc 1 349 7
	mv	a0,a5
	call	ReadUnaligned64@plt
	mv	a4,a0
	.loc 1 349 7 is_stmt 0 discriminator 1
	lbu	a5,-617(s0)
	mv	a1,a5
	mv	a0,a4
	call	DisplayBiosCharacteristics
	.loc 1 351 17 is_stmt 1
	ld	a5,-616(s0)
	lbu	a4,0(a5)
	lbu	a3,1(a5)
	slli	a3,a3,8
	or	a4,a3,a4
	lbu	a3,2(a5)
	slli	a3,a3,16
	or	a4,a3,a4
	lbu	a3,3(a5)
	slli	a3,a3,24
	or	a4,a3,a4
	lbu	a3,4(a5)
	slli	a3,a3,32
	or	a4,a3,a4
	lbu	a3,5(a5)
	slli	a3,a3,40
	or	a4,a3,a4
	lbu	a3,6(a5)
	slli	a3,a3,48
	or	a4,a3,a4
	lbu	a5,7(a5)
	slli	a5,a5,56
	or	a5,a5,a4
	.loc 1 351 22
	lbu	a5,1(a5)
	.loc 1 351 10
	mv	a4,a5
	li	a5,18
	bleu	a4,a5,.L77
	.loc 1 352 47
	ld	a5,-616(s0)
	lbu	a4,0(a5)
	lbu	a3,1(a5)
	slli	a3,a3,8
	or	a4,a3,a4
	lbu	a3,2(a5)
	slli	a3,a3,16
	or	a4,a3,a4
	lbu	a3,3(a5)
	slli	a3,a3,24
	or	a4,a3,a4
	lbu	a3,4(a5)
	slli	a3,a3,32
	or	a4,a3,a4
	lbu	a3,5(a5)
	slli	a3,a3,40
	or	a4,a3,a4
	lbu	a3,6(a5)
	slli	a3,a3,48
	or	a4,a3,a4
	lbu	a5,7(a5)
	slli	a5,a5,56
	or	a5,a5,a4
	.loc 1 352 9
	lbu	a5,18(a5)
	lbu	a4,-617(s0)
	mv	a1,a4
	mv	a0,a5
	call	DisplayBiosCharacteristicsExt1
.L77:
	.loc 1 355 17
	ld	a5,-616(s0)
	lbu	a4,0(a5)
	lbu	a3,1(a5)
	slli	a3,a3,8
	or	a4,a3,a4
	lbu	a3,2(a5)
	slli	a3,a3,16
	or	a4,a3,a4
	lbu	a3,3(a5)
	slli	a3,a3,24
	or	a4,a3,a4
	lbu	a3,4(a5)
	slli	a3,a3,32
	or	a4,a3,a4
	lbu	a3,5(a5)
	slli	a3,a3,40
	or	a4,a3,a4
	lbu	a3,6(a5)
	slli	a3,a3,48
	or	a4,a3,a4
	lbu	a5,7(a5)
	slli	a5,a5,56
	or	a5,a5,a4
	.loc 1 355 22
	lbu	a5,1(a5)
	.loc 1 355 10
	mv	a4,a5
	li	a5,19
	bleu	a4,a5,.L78
	.loc 1 356 47
	ld	a5,-616(s0)
	lbu	a4,0(a5)
	lbu	a3,1(a5)
	slli	a3,a3,8
	or	a4,a3,a4
	lbu	a3,2(a5)
	slli	a3,a3,16
	or	a4,a3,a4
	lbu	a3,3(a5)
	slli	a3,a3,24
	or	a4,a3,a4
	lbu	a3,4(a5)
	slli	a3,a3,32
	or	a4,a3,a4
	lbu	a3,5(a5)
	slli	a3,a3,40
	or	a4,a3,a4
	lbu	a3,6(a5)
	slli	a3,a3,48
	or	a4,a3,a4
	lbu	a5,7(a5)
	slli	a5,a5,56
	or	a5,a5,a4
	.loc 1 356 9
	lbu	a5,19(a5)
	lbu	a4,-617(s0)
	mv	a1,a4
	mv	a0,a5
	call	DisplayBiosCharacteristicsExt2
.L78:
	.loc 1 359 31
	la	a5,SmbiosMajorVersion
	lbu	a5,0(a5)
	.loc 1 359 10
	mv	a4,a5
	li	a5,2
	bgtu	a4,a5,.L79
	.loc 1 359 62 discriminator 2
	la	a5,SmbiosMajorVersion
	lbu	a5,0(a5)
	.loc 1 359 39 discriminator 2
	mv	a4,a5
	li	a5,2
	bne	a4,a5,.L80
	.loc 1 359 93 discriminator 3
	la	a5,SmbiosMinorVersion
	lbu	a5,0(a5)
	.loc 1 359 71 discriminator 3
	mv	a4,a5
	li	a5,3
	bleu	a4,a5,.L80
.L79:
	.loc 1 359 114 discriminator 4
	ld	a5,-616(s0)
	lbu	a4,0(a5)
	lbu	a3,1(a5)
	slli	a3,a3,8
	or	a4,a3,a4
	lbu	a3,2(a5)
	slli	a3,a3,16
	or	a4,a3,a4
	lbu	a3,3(a5)
	slli	a3,a3,24
	or	a4,a3,a4
	lbu	a3,4(a5)
	slli	a3,a3,32
	or	a4,a3,a4
	lbu	a3,5(a5)
	slli	a3,a3,40
	or	a4,a3,a4
	lbu	a3,6(a5)
	slli	a3,a3,48
	or	a4,a3,a4
	lbu	a5,7(a5)
	slli	a5,a5,56
	or	a5,a5,a4
	.loc 1 359 119 discriminator 4
	lbu	a5,1(a5)
	.loc 1 359 104 discriminator 4
	mv	a4,a5
	li	a5,20
	bleu	a4,a5,.L80
	.loc 1 360 73
	ld	a5,-616(s0)
	lbu	a4,0(a5)
	lbu	a3,1(a5)
	slli	a3,a3,8
	or	a4,a3,a4
	lbu	a3,2(a5)
	slli	a3,a3,16
	or	a4,a3,a4
	lbu	a3,3(a5)
	slli	a3,a3,24
	or	a4,a3,a4
	lbu	a3,4(a5)
	slli	a3,a3,32
	or	a4,a3,a4
	lbu	a3,5(a5)
	slli	a3,a3,40
	or	a4,a3,a4
	lbu	a3,6(a5)
	slli	a3,a3,48
	or	a4,a3,a4
	lbu	a5,7(a5)
	slli	a5,a5,56
	or	a5,a5,a4
	.loc 1 360 80
	lbu	a5,20(a5)
	.loc 1 360 9
	sext.w	a5,a5
	mv	a3,a5
	lla	a2,.LC5
	li	a1,-1
	li	a0,-1
	call	ShellPrintEx@plt
	.loc 1 361 73
	ld	a5,-616(s0)
	lbu	a4,0(a5)
	lbu	a3,1(a5)
	slli	a3,a3,8
	or	a4,a3,a4
	lbu	a3,2(a5)
	slli	a3,a3,16
	or	a4,a3,a4
	lbu	a3,3(a5)
	slli	a3,a3,24
	or	a4,a3,a4
	lbu	a3,4(a5)
	slli	a3,a3,32
	or	a4,a3,a4
	lbu	a3,5(a5)
	slli	a3,a3,40
	or	a4,a3,a4
	lbu	a3,6(a5)
	slli	a3,a3,48
	or	a4,a3,a4
	lbu	a5,7(a5)
	slli	a5,a5,56
	or	a5,a5,a4
	.loc 1 361 80
	lbu	a5,21(a5)
	.loc 1 361 9
	sext.w	a5,a5
	mv	a3,a5
	lla	a2,.LC6
	li	a1,-1
	li	a0,-1
	call	ShellPrintEx@plt
	.loc 1 362 90
	ld	a5,-616(s0)
	lbu	a4,0(a5)
	lbu	a3,1(a5)
	slli	a3,a3,8
	or	a4,a3,a4
	lbu	a3,2(a5)
	slli	a3,a3,16
	or	a4,a3,a4
	lbu	a3,3(a5)
	slli	a3,a3,24
	or	a4,a3,a4
	lbu	a3,4(a5)
	slli	a3,a3,32
	or	a4,a3,a4
	lbu	a3,5(a5)
	slli	a3,a3,40
	or	a4,a3,a4
	lbu	a3,6(a5)
	slli	a3,a3,48
	or	a4,a3,a4
	lbu	a5,7(a5)
	slli	a5,a5,56
	or	a5,a5,a4
	.loc 1 362 97
	lbu	a5,22(a5)
	.loc 1 362 9
	sext.w	a5,a5
	mv	a3,a5
	lla	a2,.LC7
	li	a1,-1
	li	a0,-1
	call	ShellPrintEx@plt
	.loc 1 363 90
	ld	a5,-616(s0)
	lbu	a4,0(a5)
	lbu	a3,1(a5)
	slli	a3,a3,8
	or	a4,a3,a4
	lbu	a3,2(a5)
	slli	a3,a3,16
	or	a4,a3,a4
	lbu	a3,3(a5)
	slli	a3,a3,24
	or	a4,a3,a4
	lbu	a3,4(a5)
	slli	a3,a3,32
	or	a4,a3,a4
	lbu	a3,5(a5)
	slli	a3,a3,40
	or	a4,a3,a4
	lbu	a3,6(a5)
	slli	a3,a3,48
	or	a4,a3,a4
	lbu	a5,7(a5)
	slli	a5,a5,56
	or	a5,a5,a4
	.loc 1 363 97
	lbu	a5,23(a5)
	.loc 1 363 9
	sext.w	a5,a5
	mv	a3,a5
	lla	a2,.LC8
	li	a1,-1
	li	a0,-1
	call	ShellPrintEx@plt
.L80:
	.loc 1 366 31
	la	a5,SmbiosMajorVersion
	lbu	a5,0(a5)
	.loc 1 366 10
	mv	a4,a5
	li	a5,3
	bgtu	a4,a5,.L81
	.loc 1 366 62 discriminator 2
	la	a5,SmbiosMajorVersion
	lbu	a5,0(a5)
	.loc 1 366 39 discriminator 2
	mv	a4,a5
	li	a5,3
	bne	a4,a5,.L305
	.loc 1 366 93 discriminator 3
	la	a5,SmbiosMinorVersion
	lbu	a5,0(a5)
	.loc 1 366 71 discriminator 3
	beq	a5,zero,.L305
.L81:
	.loc 1 366 114 discriminator 4
	ld	a5,-616(s0)
	lbu	a4,0(a5)
	lbu	a3,1(a5)
	slli	a3,a3,8
	or	a4,a3,a4
	lbu	a3,2(a5)
	slli	a3,a3,16
	or	a4,a3,a4
	lbu	a3,3(a5)
	slli	a3,a3,24
	or	a4,a3,a4
	lbu	a3,4(a5)
	slli	a3,a3,32
	or	a4,a3,a4
	lbu	a3,5(a5)
	slli	a3,a3,40
	or	a4,a3,a4
	lbu	a3,6(a5)
	slli	a3,a3,48
	or	a4,a3,a4
	lbu	a5,7(a5)
	slli	a5,a5,56
	or	a5,a5,a4
	.loc 1 366 119 discriminator 4
	lbu	a5,1(a5)
	.loc 1 366 104 discriminator 4
	mv	a4,a5
	li	a5,24
	bleu	a4,a5,.L305
	.loc 1 367 9
	la	a5,gShellDebug1HiiHandle
	ld	a2,0(a5)
	.loc 1 373 17
	ld	a5,-616(s0)
	lbu	a4,0(a5)
	lbu	a3,1(a5)
	slli	a3,a3,8
	or	a4,a3,a4
	lbu	a3,2(a5)
	slli	a3,a3,16
	or	a4,a3,a4
	lbu	a3,3(a5)
	slli	a3,a3,24
	or	a4,a3,a4
	lbu	a3,4(a5)
	slli	a3,a3,32
	or	a4,a3,a4
	lbu	a3,5(a5)
	slli	a3,a3,40
	or	a4,a3,a4
	lbu	a3,6(a5)
	slli	a3,a3,48
	or	a4,a3,a4
	lbu	a5,7(a5)
	slli	a5,a5,56
	or	a5,a5,a4
	.loc 1 373 42
	lbu	a4,24(a5)
	lbu	a5,25(a5)
	andi	a5,a5,63
	slli	a5,a5,8
	or	a5,a5,a4
	slli	a5,a5,48
	srli	a5,a5,48
	.loc 1 367 9
	sext.w	a1,a5
	.loc 1 374 18
	ld	a5,-616(s0)
	lbu	a4,0(a5)
	lbu	a3,1(a5)
	slli	a3,a3,8
	or	a4,a3,a4
	lbu	a3,2(a5)
	slli	a3,a3,16
	or	a4,a3,a4
	lbu	a3,3(a5)
	slli	a3,a3,24
	or	a4,a3,a4
	lbu	a3,4(a5)
	slli	a3,a3,32
	or	a4,a3,a4
	lbu	a3,5(a5)
	slli	a3,a3,40
	or	a4,a3,a4
	lbu	a3,6(a5)
	slli	a3,a3,48
	or	a4,a3,a4
	lbu	a5,7(a5)
	slli	a5,a5,56
	or	a5,a5,a4
	.loc 1 374 49
	lbu	a5,25(a5)
	andi	a5,a5,-64
	andi	a5,a5,0xff
	.loc 1 367 9
	bne	a5,zero,.L83
	.loc 1 367 9 is_stmt 0 discriminator 1
	lla	a5,.LC9
	j	.L84
.L83:
	.loc 1 367 9 discriminator 2
	lla	a5,.LC10
.L84:
	.loc 1 367 9 discriminator 4
	mv	a6,a5
	mv	a5,a1
	mv	a4,a2
	li	a3,437
	li	a2,0
	li	a1,-1
	li	a0,-1
	call	ShellPrintHiiEx@plt
	.loc 1 378 7 is_stmt 1
	j	.L305
.L74:
.LBB2:
	.loc 1 384 79
	ld	a5,-616(s0)
	lbu	a4,0(a5)
	lbu	a3,1(a5)
	slli	a3,a3,8
	or	a4,a3,a4
	lbu	a3,2(a5)
	slli	a3,a3,16
	or	a4,a3,a4
	lbu	a3,3(a5)
	slli	a3,a3,24
	or	a4,a3,a4
	lbu	a3,4(a5)
	slli	a3,a3,32
	or	a4,a3,a4
	lbu	a3,5(a5)
	slli	a3,a3,40
	or	a4,a3,a4
	lbu	a3,6(a5)
	slli	a3,a3,48
	or	a4,a3,a4
	lbu	a5,7(a5)
	slli	a5,a5,56
	or	a5,a5,a4
	.loc 1 384 86
	lbu	a5,4(a5)
	.loc 1 384 42
	mv	a1,a5
	ld	a0,-616(s0)
	call	LibGetSmbiosString@plt
	sd	a0,-560(s0)
	.loc 1 384 104 discriminator 1
	lla	a3,.LC11
	lla	a2,.LC12
	li	a1,-1
	li	a0,-1
	call	ShellPrintEx@plt
	.loc 1 384 146 discriminator 2
	ld	a5,-560(s0)
	beq	a5,zero,.L86
	.loc 1 384 146 is_stmt 0 discriminator 3
	ld	a5,-560(s0)
	j	.L87
.L86:
	.loc 1 384 146 discriminator 4
	lla	a5,.LC13
.L87:
	.loc 1 384 146 discriminator 6
	mv	a3,a5
	lla	a2,.LC14
	li	a1,-1
	li	a0,-1
	call	ShellPrintEx@plt
.LBE2:
.LBB3:
	.loc 1 385 79 is_stmt 1
	ld	a5,-616(s0)
	lbu	a4,0(a5)
	lbu	a3,1(a5)
	slli	a3,a3,8
	or	a4,a3,a4
	lbu	a3,2(a5)
	slli	a3,a3,16
	or	a4,a3,a4
	lbu	a3,3(a5)
	slli	a3,a3,24
	or	a4,a3,a4
	lbu	a3,4(a5)
	slli	a3,a3,32
	or	a4,a3,a4
	lbu	a3,5(a5)
	slli	a3,a3,40
	or	a4,a3,a4
	lbu	a3,6(a5)
	slli	a3,a3,48
	or	a4,a3,a4
	lbu	a5,7(a5)
	slli	a5,a5,56
	or	a5,a5,a4
	.loc 1 385 86
	lbu	a5,5(a5)
	.loc 1 385 42
	mv	a1,a5
	ld	a0,-616(s0)
	call	LibGetSmbiosString@plt
	sd	a0,-568(s0)
	.loc 1 385 103 discriminator 1
	lla	a3,.LC15
	lla	a2,.LC12
	li	a1,-1
	li	a0,-1
	call	ShellPrintEx@plt
	.loc 1 385 144 discriminator 2
	ld	a5,-568(s0)
	beq	a5,zero,.L88
	.loc 1 385 144 is_stmt 0 discriminator 3
	ld	a5,-568(s0)
	j	.L89
.L88:
	.loc 1 385 144 discriminator 4
	lla	a5,.LC13
.L89:
	.loc 1 385 144 discriminator 6
	mv	a3,a5
	lla	a2,.LC14
	li	a1,-1
	li	a0,-1
	call	ShellPrintEx@plt
.LBE3:
.LBB4:
	.loc 1 386 79 is_stmt 1
	ld	a5,-616(s0)
	lbu	a4,0(a5)
	lbu	a3,1(a5)
	slli	a3,a3,8
	or	a4,a3,a4
	lbu	a3,2(a5)
	slli	a3,a3,16
	or	a4,a3,a4
	lbu	a3,3(a5)
	slli	a3,a3,24
	or	a4,a3,a4
	lbu	a3,4(a5)
	slli	a3,a3,32
	or	a4,a3,a4
	lbu	a3,5(a5)
	slli	a3,a3,40
	or	a4,a3,a4
	lbu	a3,6(a5)
	slli	a3,a3,48
	or	a4,a3,a4
	lbu	a5,7(a5)
	slli	a5,a5,56
	or	a5,a5,a4
	.loc 1 386 86
	lbu	a5,6(a5)
	.loc 1 386 42
	mv	a1,a5
	ld	a0,-616(s0)
	call	LibGetSmbiosString@plt
	sd	a0,-576(s0)
	.loc 1 386 99 discriminator 1
	lla	a3,.LC16
	lla	a2,.LC12
	li	a1,-1
	li	a0,-1
	call	ShellPrintEx@plt
	.loc 1 386 136 discriminator 2
	ld	a5,-576(s0)
	beq	a5,zero,.L90
	.loc 1 386 136 is_stmt 0 discriminator 3
	ld	a5,-576(s0)
	j	.L91
.L90:
	.loc 1 386 136 discriminator 4
	lla	a5,.LC13
.L91:
	.loc 1 386 136 discriminator 6
	mv	a3,a5
	lla	a2,.LC14
	li	a1,-1
	li	a0,-1
	call	ShellPrintEx@plt
.LBE4:
.LBB5:
	.loc 1 387 79 is_stmt 1
	ld	a5,-616(s0)
	lbu	a4,0(a5)
	lbu	a3,1(a5)
	slli	a3,a3,8
	or	a4,a3,a4
	lbu	a3,2(a5)
	slli	a3,a3,16
	or	a4,a3,a4
	lbu	a3,3(a5)
	slli	a3,a3,24
	or	a4,a3,a4
	lbu	a3,4(a5)
	slli	a3,a3,32
	or	a4,a3,a4
	lbu	a3,5(a5)
	slli	a3,a3,40
	or	a4,a3,a4
	lbu	a3,6(a5)
	slli	a3,a3,48
	or	a4,a3,a4
	lbu	a5,7(a5)
	slli	a5,a5,56
	or	a5,a5,a4
	.loc 1 387 86
	lbu	a5,7(a5)
	.loc 1 387 42
	mv	a1,a5
	ld	a0,-616(s0)
	call	LibGetSmbiosString@plt
	sd	a0,-584(s0)
	.loc 1 387 104 discriminator 1
	lla	a3,.LC17
	lla	a2,.LC12
	li	a1,-1
	li	a0,-1
	call	ShellPrintEx@plt
	.loc 1 387 146 discriminator 2
	ld	a5,-584(s0)
	beq	a5,zero,.L92
	.loc 1 387 146 is_stmt 0 discriminator 3
	ld	a5,-584(s0)
	j	.L93
.L92:
	.loc 1 387 146 discriminator 4
	lla	a5,.LC13
.L93:
	.loc 1 387 146 discriminator 6
	mv	a3,a5
	lla	a2,.LC14
	li	a1,-1
	li	a0,-1
	call	ShellPrintEx@plt
.LBE5:
	.loc 1 388 12 is_stmt 1
	la	a5,gShellDebug1HiiHandle
	ld	a5,0(a5)
	mv	a4,a5
	li	a3,125
	li	a2,0
	li	a1,-1
	li	a0,-1
	call	ShellPrintHiiEx@plt
	.loc 1 388 79 discriminator 1
	lla	a3,.LC18
	lla	a2,.LC12
	li	a1,-1
	li	a0,-1
	call	ShellPrintEx@plt
	.loc 1 388 113 discriminator 2
	la	a5,gShellDebug1HiiHandle
	ld	a4,0(a5)
	li	a5,16
	li	a3,126
	li	a2,0
	li	a1,-1
	li	a0,-1
	call	ShellPrintHiiEx@plt
	.loc 1 388 211 discriminator 3
	ld	a5,-616(s0)
	lbu	a4,0(a5)
	lbu	a3,1(a5)
	slli	a3,a3,8
	or	a4,a3,a4
	lbu	a3,2(a5)
	slli	a3,a3,16
	or	a4,a3,a4
	lbu	a3,3(a5)
	slli	a3,a3,24
	or	a4,a3,a4
	lbu	a3,4(a5)
	slli	a3,a3,32
	or	a4,a3,a4
	lbu	a3,5(a5)
	slli	a3,a3,40
	or	a4,a3,a4
	lbu	a3,6(a5)
	slli	a3,a3,48
	or	a4,a3,a4
	lbu	a5,7(a5)
	slli	a5,a5,56
	or	a5,a5,a4
	.loc 1 388 203 discriminator 3
	addi	a5,a5,8
	.loc 1 388 184 discriminator 3
	mv	a3,a5
	li	a2,16
	li	a1,0
	li	a0,0
	call	DumpHex@plt
	.loc 1 389 38
	ld	a5,-616(s0)
	lbu	a4,0(a5)
	lbu	a3,1(a5)
	slli	a3,a3,8
	or	a4,a3,a4
	lbu	a3,2(a5)
	slli	a3,a3,16
	or	a4,a3,a4
	lbu	a3,3(a5)
	slli	a3,a3,24
	or	a4,a3,a4
	lbu	a3,4(a5)
	slli	a3,a3,32
	or	a4,a3,a4
	lbu	a3,5(a5)
	slli	a3,a3,40
	or	a4,a3,a4
	lbu	a3,6(a5)
	slli	a3,a3,48
	or	a4,a3,a4
	lbu	a5,7(a5)
	slli	a5,a5,56
	or	a5,a5,a4
	.loc 1 389 7
	lbu	a5,24(a5)
	lbu	a4,-617(s0)
	mv	a1,a4
	mv	a0,a5
	call	DisplaySystemWakeupType@plt
	.loc 1 390 31
	la	a5,SmbiosMajorVersion
	lbu	a5,0(a5)
	.loc 1 390 10
	mv	a4,a5
	li	a5,2
	bgtu	a4,a5,.L94
	.loc 1 390 62 discriminator 2
	la	a5,SmbiosMajorVersion
	lbu	a5,0(a5)
	.loc 1 390 39 discriminator 2
	mv	a4,a5
	li	a5,2
	bne	a4,a5,.L306
	.loc 1 390 93 discriminator 3
	la	a5,SmbiosMinorVersion
	lbu	a5,0(a5)
	.loc 1 390 71 discriminator 3
	mv	a4,a5
	li	a5,3
	bleu	a4,a5,.L306
.L94:
	.loc 1 390 114 discriminator 4
	ld	a5,-616(s0)
	lbu	a4,0(a5)
	lbu	a3,1(a5)
	slli	a3,a3,8
	or	a4,a3,a4
	lbu	a3,2(a5)
	slli	a3,a3,16
	or	a4,a3,a4
	lbu	a3,3(a5)
	slli	a3,a3,24
	or	a4,a3,a4
	lbu	a3,4(a5)
	slli	a3,a3,32
	or	a4,a3,a4
	lbu	a3,5(a5)
	slli	a3,a3,40
	or	a4,a3,a4
	lbu	a3,6(a5)
	slli	a3,a3,48
	or	a4,a3,a4
	lbu	a5,7(a5)
	slli	a5,a5,56
	or	a5,a5,a4
	.loc 1 390 119 discriminator 4
	lbu	a5,1(a5)
	.loc 1 390 104 discriminator 4
	mv	a4,a5
	li	a5,25
	bleu	a4,a5,.L306
.LBB6:
	.loc 1 391 81
	ld	a5,-616(s0)
	lbu	a4,0(a5)
	lbu	a3,1(a5)
	slli	a3,a3,8
	or	a4,a3,a4
	lbu	a3,2(a5)
	slli	a3,a3,16
	or	a4,a3,a4
	lbu	a3,3(a5)
	slli	a3,a3,24
	or	a4,a3,a4
	lbu	a3,4(a5)
	slli	a3,a3,32
	or	a4,a3,a4
	lbu	a3,5(a5)
	slli	a3,a3,40
	or	a4,a3,a4
	lbu	a3,6(a5)
	slli	a3,a3,48
	or	a4,a3,a4
	lbu	a5,7(a5)
	slli	a5,a5,56
	or	a5,a5,a4
	.loc 1 391 88
	lbu	a5,25(a5)
	.loc 1 391 44
	mv	a1,a5
	ld	a0,-616(s0)
	call	LibGetSmbiosString@plt
	sd	a0,-592(s0)
	.loc 1 391 103 discriminator 1
	lla	a3,.LC19
	lla	a2,.LC12
	li	a1,-1
	li	a0,-1
	call	ShellPrintEx@plt
	.loc 1 391 142 discriminator 2
	ld	a5,-592(s0)
	beq	a5,zero,.L96
	.loc 1 391 142 is_stmt 0 discriminator 3
	ld	a5,-592(s0)
	j	.L97
.L96:
	.loc 1 391 142 discriminator 4
	lla	a5,.LC13
.L97:
	.loc 1 391 142 discriminator 6
	mv	a3,a5
	lla	a2,.LC14
	li	a1,-1
	li	a0,-1
	call	ShellPrintEx@plt
.LBE6:
.LBB7:
	.loc 1 392 81 is_stmt 1
	ld	a5,-616(s0)
	lbu	a4,0(a5)
	lbu	a3,1(a5)
	slli	a3,a3,8
	or	a4,a3,a4
	lbu	a3,2(a5)
	slli	a3,a3,16
	or	a4,a3,a4
	lbu	a3,3(a5)
	slli	a3,a3,24
	or	a4,a3,a4
	lbu	a3,4(a5)
	slli	a3,a3,32
	or	a4,a3,a4
	lbu	a3,5(a5)
	slli	a3,a3,40
	or	a4,a3,a4
	lbu	a3,6(a5)
	slli	a3,a3,48
	or	a4,a3,a4
	lbu	a5,7(a5)
	slli	a5,a5,56
	or	a5,a5,a4
	.loc 1 392 88
	lbu	a5,26(a5)
	.loc 1 392 44
	mv	a1,a5
	ld	a0,-616(s0)
	call	LibGetSmbiosString@plt
	sd	a0,-600(s0)
	.loc 1 392 100 discriminator 1
	lla	a3,.LC20
	lla	a2,.LC12
	li	a1,-1
	li	a0,-1
	call	ShellPrintEx@plt
	.loc 1 392 136 discriminator 2
	ld	a5,-600(s0)
	beq	a5,zero,.L98
	.loc 1 392 136 is_stmt 0 discriminator 3
	ld	a5,-600(s0)
	j	.L99
.L98:
	.loc 1 392 136 discriminator 4
	lla	a5,.LC13
.L99:
	.loc 1 392 136 discriminator 6
	mv	a3,a5
	lla	a2,.LC14
	li	a1,-1
	li	a0,-1
	call	ShellPrintEx@plt
.LBE7:
	.loc 1 395 7 is_stmt 1
	j	.L306
.L72:
.LBB8:
	.loc 1 401 79
	ld	a5,-616(s0)
	lbu	a4,0(a5)
	lbu	a3,1(a5)
	slli	a3,a3,8
	or	a4,a3,a4
	lbu	a3,2(a5)
	slli	a3,a3,16
	or	a4,a3,a4
	lbu	a3,3(a5)
	slli	a3,a3,24
	or	a4,a3,a4
	lbu	a3,4(a5)
	slli	a3,a3,32
	or	a4,a3,a4
	lbu	a3,5(a5)
	slli	a3,a3,40
	or	a4,a3,a4
	lbu	a3,6(a5)
	slli	a3,a3,48
	or	a4,a3,a4
	lbu	a5,7(a5)
	slli	a5,a5,56
	or	a5,a5,a4
	.loc 1 401 86
	lbu	a5,4(a5)
	.loc 1 401 42
	mv	a1,a5
	ld	a0,-616(s0)
	call	LibGetSmbiosString@plt
	sd	a0,-512(s0)
	.loc 1 401 104 discriminator 1
	lla	a3,.LC11
	lla	a2,.LC12
	li	a1,-1
	li	a0,-1
	call	ShellPrintEx@plt
	.loc 1 401 146 discriminator 2
	ld	a5,-512(s0)
	beq	a5,zero,.L100
	.loc 1 401 146 is_stmt 0 discriminator 3
	ld	a5,-512(s0)
	j	.L101
.L100:
	.loc 1 401 146 discriminator 4
	lla	a5,.LC13
.L101:
	.loc 1 401 146 discriminator 6
	mv	a3,a5
	lla	a2,.LC14
	li	a1,-1
	li	a0,-1
	call	ShellPrintEx@plt
.LBE8:
.LBB9:
	.loc 1 402 79 is_stmt 1
	ld	a5,-616(s0)
	lbu	a4,0(a5)
	lbu	a3,1(a5)
	slli	a3,a3,8
	or	a4,a3,a4
	lbu	a3,2(a5)
	slli	a3,a3,16
	or	a4,a3,a4
	lbu	a3,3(a5)
	slli	a3,a3,24
	or	a4,a3,a4
	lbu	a3,4(a5)
	slli	a3,a3,32
	or	a4,a3,a4
	lbu	a3,5(a5)
	slli	a3,a3,40
	or	a4,a3,a4
	lbu	a3,6(a5)
	slli	a3,a3,48
	or	a4,a3,a4
	lbu	a5,7(a5)
	slli	a5,a5,56
	or	a5,a5,a4
	.loc 1 402 86
	lbu	a5,5(a5)
	.loc 1 402 42
	mv	a1,a5
	ld	a0,-616(s0)
	call	LibGetSmbiosString@plt
	sd	a0,-520(s0)
	.loc 1 402 103 discriminator 1
	lla	a3,.LC15
	lla	a2,.LC12
	li	a1,-1
	li	a0,-1
	call	ShellPrintEx@plt
	.loc 1 402 144 discriminator 2
	ld	a5,-520(s0)
	beq	a5,zero,.L102
	.loc 1 402 144 is_stmt 0 discriminator 3
	ld	a5,-520(s0)
	j	.L103
.L102:
	.loc 1 402 144 discriminator 4
	lla	a5,.LC13
.L103:
	.loc 1 402 144 discriminator 6
	mv	a3,a5
	lla	a2,.LC14
	li	a1,-1
	li	a0,-1
	call	ShellPrintEx@plt
.LBE9:
.LBB10:
	.loc 1 403 79 is_stmt 1
	ld	a5,-616(s0)
	lbu	a4,0(a5)
	lbu	a3,1(a5)
	slli	a3,a3,8
	or	a4,a3,a4
	lbu	a3,2(a5)
	slli	a3,a3,16
	or	a4,a3,a4
	lbu	a3,3(a5)
	slli	a3,a3,24
	or	a4,a3,a4
	lbu	a3,4(a5)
	slli	a3,a3,32
	or	a4,a3,a4
	lbu	a3,5(a5)
	slli	a3,a3,40
	or	a4,a3,a4
	lbu	a3,6(a5)
	slli	a3,a3,48
	or	a4,a3,a4
	lbu	a5,7(a5)
	slli	a5,a5,56
	or	a5,a5,a4
	.loc 1 403 86
	lbu	a5,6(a5)
	.loc 1 403 42
	mv	a1,a5
	ld	a0,-616(s0)
	call	LibGetSmbiosString@plt
	sd	a0,-528(s0)
	.loc 1 403 99 discriminator 1
	lla	a3,.LC16
	lla	a2,.LC12
	li	a1,-1
	li	a0,-1
	call	ShellPrintEx@plt
	.loc 1 403 136 discriminator 2
	ld	a5,-528(s0)
	beq	a5,zero,.L104
	.loc 1 403 136 is_stmt 0 discriminator 3
	ld	a5,-528(s0)
	j	.L105
.L104:
	.loc 1 403 136 discriminator 4
	lla	a5,.LC13
.L105:
	.loc 1 403 136 discriminator 6
	mv	a3,a5
	lla	a2,.LC14
	li	a1,-1
	li	a0,-1
	call	ShellPrintEx@plt
.LBE10:
.LBB11:
	.loc 1 404 79 is_stmt 1
	ld	a5,-616(s0)
	lbu	a4,0(a5)
	lbu	a3,1(a5)
	slli	a3,a3,8
	or	a4,a3,a4
	lbu	a3,2(a5)
	slli	a3,a3,16
	or	a4,a3,a4
	lbu	a3,3(a5)
	slli	a3,a3,24
	or	a4,a3,a4
	lbu	a3,4(a5)
	slli	a3,a3,32
	or	a4,a3,a4
	lbu	a3,5(a5)
	slli	a3,a3,40
	or	a4,a3,a4
	lbu	a3,6(a5)
	slli	a3,a3,48
	or	a4,a3,a4
	lbu	a5,7(a5)
	slli	a5,a5,56
	or	a5,a5,a4
	.loc 1 404 86
	lbu	a5,7(a5)
	.loc 1 404 42
	mv	a1,a5
	ld	a0,-616(s0)
	call	LibGetSmbiosString@plt
	sd	a0,-536(s0)
	.loc 1 404 104 discriminator 1
	lla	a3,.LC17
	lla	a2,.LC12
	li	a1,-1
	li	a0,-1
	call	ShellPrintEx@plt
	.loc 1 404 146 discriminator 2
	ld	a5,-536(s0)
	beq	a5,zero,.L106
	.loc 1 404 146 is_stmt 0 discriminator 3
	ld	a5,-536(s0)
	j	.L107
.L106:
	.loc 1 404 146 discriminator 4
	lla	a5,.LC13
.L107:
	.loc 1 404 146 discriminator 6
	mv	a3,a5
	lla	a2,.LC14
	li	a1,-1
	li	a0,-1
	call	ShellPrintEx@plt
.LBE11:
	.loc 1 405 17 is_stmt 1
	ld	a5,-616(s0)
	lbu	a4,0(a5)
	lbu	a3,1(a5)
	slli	a3,a3,8
	or	a4,a3,a4
	lbu	a3,2(a5)
	slli	a3,a3,16
	or	a4,a3,a4
	lbu	a3,3(a5)
	slli	a3,a3,24
	or	a4,a3,a4
	lbu	a3,4(a5)
	slli	a3,a3,32
	or	a4,a3,a4
	lbu	a3,5(a5)
	slli	a3,a3,40
	or	a4,a3,a4
	lbu	a3,6(a5)
	slli	a3,a3,48
	or	a4,a3,a4
	lbu	a5,7(a5)
	slli	a5,a5,56
	or	a5,a5,a4
	.loc 1 405 22
	lbu	a5,1(a5)
	.loc 1 405 10
	mv	a4,a5
	li	a5,8
	bleu	a4,a5,.L307
.LBB12:
	.loc 1 406 81
	ld	a5,-616(s0)
	lbu	a4,0(a5)
	lbu	a3,1(a5)
	slli	a3,a3,8
	or	a4,a3,a4
	lbu	a3,2(a5)
	slli	a3,a3,16
	or	a4,a3,a4
	lbu	a3,3(a5)
	slli	a3,a3,24
	or	a4,a3,a4
	lbu	a3,4(a5)
	slli	a3,a3,32
	or	a4,a3,a4
	lbu	a3,5(a5)
	slli	a3,a3,40
	or	a4,a3,a4
	lbu	a3,6(a5)
	slli	a3,a3,48
	or	a4,a3,a4
	lbu	a5,7(a5)
	slli	a5,a5,56
	or	a5,a5,a4
	.loc 1 406 88
	lbu	a5,8(a5)
	.loc 1 406 44
	mv	a1,a5
	ld	a0,-616(s0)
	call	LibGetSmbiosString@plt
	sd	a0,-544(s0)
	.loc 1 406 102 discriminator 1
	lla	a3,.LC21
	lla	a2,.LC12
	li	a1,-1
	li	a0,-1
	call	ShellPrintEx@plt
	.loc 1 406 140 discriminator 2
	ld	a5,-544(s0)
	beq	a5,zero,.L109
	.loc 1 406 140 is_stmt 0 discriminator 3
	ld	a5,-544(s0)
	j	.L110
.L109:
	.loc 1 406 140 discriminator 4
	lla	a5,.LC13
.L110:
	.loc 1 406 140 discriminator 6
	mv	a3,a5
	lla	a2,.LC14
	li	a1,-1
	li	a0,-1
	call	ShellPrintEx@plt
.LBE12:
	.loc 1 407 56 is_stmt 1
	ld	a5,-616(s0)
	lbu	a4,0(a5)
	lbu	a3,1(a5)
	slli	a3,a3,8
	or	a4,a3,a4
	lbu	a3,2(a5)
	slli	a3,a3,16
	or	a4,a3,a4
	lbu	a3,3(a5)
	slli	a3,a3,24
	or	a4,a3,a4
	lbu	a3,4(a5)
	slli	a3,a3,32
	or	a4,a3,a4
	lbu	a3,5(a5)
	slli	a3,a3,40
	or	a4,a3,a4
	lbu	a3,6(a5)
	slli	a3,a3,48
	or	a4,a3,a4
	lbu	a5,7(a5)
	slli	a5,a5,56
	or	a5,a5,a4
	.loc 1 407 49
	addi	a5,a5,9
	.loc 1 407 9
	lbu	a5,0(a5)
	lbu	a4,-617(s0)
	mv	a1,a4
	mv	a0,a5
	call	DisplayBaseBoardFeatureFlags@plt
.LBB13:
	.loc 1 408 81
	ld	a5,-616(s0)
	lbu	a4,0(a5)
	lbu	a3,1(a5)
	slli	a3,a3,8
	or	a4,a3,a4
	lbu	a3,2(a5)
	slli	a3,a3,16
	or	a4,a3,a4
	lbu	a3,3(a5)
	slli	a3,a3,24
	or	a4,a3,a4
	lbu	a3,4(a5)
	slli	a3,a3,32
	or	a4,a3,a4
	lbu	a3,5(a5)
	slli	a3,a3,40
	or	a4,a3,a4
	lbu	a3,6(a5)
	slli	a3,a3,48
	or	a4,a3,a4
	lbu	a5,7(a5)
	slli	a5,a5,56
	or	a5,a5,a4
	.loc 1 408 88
	lbu	a5,10(a5)
	.loc 1 408 44
	mv	a1,a5
	ld	a0,-616(s0)
	call	LibGetSmbiosString@plt
	sd	a0,-552(s0)
	.loc 1 408 111 discriminator 1
	lla	a3,.LC22
	lla	a2,.LC12
	li	a1,-1
	li	a0,-1
	call	ShellPrintEx@plt
	.loc 1 408 158 discriminator 2
	ld	a5,-552(s0)
	beq	a5,zero,.L111
	.loc 1 408 158 is_stmt 0 discriminator 3
	ld	a5,-552(s0)
	j	.L112
.L111:
	.loc 1 408 158 discriminator 4
	lla	a5,.LC13
.L112:
	.loc 1 408 158 discriminator 6
	mv	a3,a5
	lla	a2,.LC14
	li	a1,-1
	li	a0,-1
	call	ShellPrintEx@plt
.LBE13:
	.loc 1 409 14 is_stmt 1
	lla	a3,.LC23
	lla	a2,.LC12
	li	a1,-1
	li	a0,-1
	call	ShellPrintEx@plt
	.loc 1 409 96 discriminator 1
	ld	a5,-616(s0)
	lbu	a4,0(a5)
	lbu	a3,1(a5)
	slli	a3,a3,8
	or	a4,a3,a4
	lbu	a3,2(a5)
	slli	a3,a3,16
	or	a4,a3,a4
	lbu	a3,3(a5)
	slli	a3,a3,24
	or	a4,a3,a4
	lbu	a3,4(a5)
	slli	a3,a3,32
	or	a4,a3,a4
	lbu	a3,5(a5)
	slli	a3,a3,40
	or	a4,a3,a4
	lbu	a3,6(a5)
	slli	a3,a3,48
	or	a4,a3,a4
	lbu	a5,7(a5)
	slli	a5,a5,56
	or	a5,a5,a4
	.loc 1 409 103 discriminator 1
	lbu	a4,11(a5)
	lbu	a5,12(a5)
	slli	a5,a5,8
	or	a5,a5,a4
	slli	a5,a5,48
	srli	a5,a5,48
	.loc 1 409 57 discriminator 1
	sext.w	a5,a5
	mv	a3,a5
	lla	a2,.LC24
	li	a1,-1
	li	a0,-1
	call	ShellPrintEx@plt
	.loc 1 410 42
	ld	a5,-616(s0)
	lbu	a4,0(a5)
	lbu	a3,1(a5)
	slli	a3,a3,8
	or	a4,a3,a4
	lbu	a3,2(a5)
	slli	a3,a3,16
	or	a4,a3,a4
	lbu	a3,3(a5)
	slli	a3,a3,24
	or	a4,a3,a4
	lbu	a3,4(a5)
	slli	a3,a3,32
	or	a4,a3,a4
	lbu	a3,5(a5)
	slli	a3,a3,40
	or	a4,a3,a4
	lbu	a3,6(a5)
	slli	a3,a3,48
	or	a4,a3,a4
	lbu	a5,7(a5)
	slli	a5,a5,56
	or	a5,a5,a4
	.loc 1 410 9
	lbu	a5,13(a5)
	lbu	a4,-617(s0)
	mv	a1,a4
	mv	a0,a5
	call	DisplayBaseBoardBoardType@plt
	.loc 1 413 7
	j	.L307
.L71:
.LBB14:
	.loc 1 419 79
	ld	a5,-616(s0)
	lbu	a4,0(a5)
	lbu	a3,1(a5)
	slli	a3,a3,8
	or	a4,a3,a4
	lbu	a3,2(a5)
	slli	a3,a3,16
	or	a4,a3,a4
	lbu	a3,3(a5)
	slli	a3,a3,24
	or	a4,a3,a4
	lbu	a3,4(a5)
	slli	a3,a3,32
	or	a4,a3,a4
	lbu	a3,5(a5)
	slli	a3,a3,40
	or	a4,a3,a4
	lbu	a3,6(a5)
	slli	a3,a3,48
	or	a4,a3,a4
	lbu	a5,7(a5)
	slli	a5,a5,56
	or	a5,a5,a4
	.loc 1 419 86
	lbu	a5,4(a5)
	.loc 1 419 42
	mv	a1,a5
	ld	a0,-616(s0)
	call	LibGetSmbiosString@plt
	sd	a0,-472(s0)
	.loc 1 419 104 discriminator 1
	lla	a3,.LC11
	lla	a2,.LC12
	li	a1,-1
	li	a0,-1
	call	ShellPrintEx@plt
	.loc 1 419 146 discriminator 2
	ld	a5,-472(s0)
	beq	a5,zero,.L113
	.loc 1 419 146 is_stmt 0 discriminator 3
	ld	a5,-472(s0)
	j	.L114
.L113:
	.loc 1 419 146 discriminator 4
	lla	a5,.LC13
.L114:
	.loc 1 419 146 discriminator 6
	mv	a3,a5
	lla	a2,.LC14
	li	a1,-1
	li	a0,-1
	call	ShellPrintEx@plt
.LBE14:
	.loc 1 420 12 is_stmt 1
	lla	a3,.LC25
	lla	a2,.LC12
	li	a1,-1
	li	a0,-1
	call	ShellPrintEx@plt
	.loc 1 420 83 discriminator 1
	ld	a5,-616(s0)
	lbu	a4,0(a5)
	lbu	a3,1(a5)
	slli	a3,a3,8
	or	a4,a3,a4
	lbu	a3,2(a5)
	slli	a3,a3,16
	or	a4,a3,a4
	lbu	a3,3(a5)
	slli	a3,a3,24
	or	a4,a3,a4
	lbu	a3,4(a5)
	slli	a3,a3,32
	or	a4,a3,a4
	lbu	a3,5(a5)
	slli	a3,a3,40
	or	a4,a3,a4
	lbu	a3,6(a5)
	slli	a3,a3,48
	or	a4,a3,a4
	lbu	a5,7(a5)
	slli	a5,a5,56
	or	a5,a5,a4
	.loc 1 420 90 discriminator 1
	lbu	a5,5(a5)
	.loc 1 420 46 discriminator 1
	sext.w	a5,a5
	mv	a3,a5
	lla	a2,.LC26
	li	a1,-1
	li	a0,-1
	call	ShellPrintEx@plt
	.loc 1 421 41
	ld	a5,-616(s0)
	lbu	a4,0(a5)
	lbu	a3,1(a5)
	slli	a3,a3,8
	or	a4,a3,a4
	lbu	a3,2(a5)
	slli	a3,a3,16
	or	a4,a3,a4
	lbu	a3,3(a5)
	slli	a3,a3,24
	or	a4,a3,a4
	lbu	a3,4(a5)
	slli	a3,a3,32
	or	a4,a3,a4
	lbu	a3,5(a5)
	slli	a3,a3,40
	or	a4,a3,a4
	lbu	a3,6(a5)
	slli	a3,a3,48
	or	a4,a3,a4
	lbu	a5,7(a5)
	slli	a5,a5,56
	or	a5,a5,a4
	.loc 1 421 7
	lbu	a5,5(a5)
	lbu	a4,-617(s0)
	mv	a1,a4
	mv	a0,a5
	call	DisplaySystemEnclosureType@plt
.LBB15:
	.loc 1 422 79
	ld	a5,-616(s0)
	lbu	a4,0(a5)
	lbu	a3,1(a5)
	slli	a3,a3,8
	or	a4,a3,a4
	lbu	a3,2(a5)
	slli	a3,a3,16
	or	a4,a3,a4
	lbu	a3,3(a5)
	slli	a3,a3,24
	or	a4,a3,a4
	lbu	a3,4(a5)
	slli	a3,a3,32
	or	a4,a3,a4
	lbu	a3,5(a5)
	slli	a3,a3,40
	or	a4,a3,a4
	lbu	a3,6(a5)
	slli	a3,a3,48
	or	a4,a3,a4
	lbu	a5,7(a5)
	slli	a5,a5,56
	or	a5,a5,a4
	.loc 1 422 86
	lbu	a5,6(a5)
	.loc 1 422 42
	mv	a1,a5
	ld	a0,-616(s0)
	call	LibGetSmbiosString@plt
	sd	a0,-480(s0)
	.loc 1 422 99 discriminator 1
	lla	a3,.LC16
	lla	a2,.LC12
	li	a1,-1
	li	a0,-1
	call	ShellPrintEx@plt
	.loc 1 422 136 discriminator 2
	ld	a5,-480(s0)
	beq	a5,zero,.L115
	.loc 1 422 136 is_stmt 0 discriminator 3
	ld	a5,-480(s0)
	j	.L116
.L115:
	.loc 1 422 136 discriminator 4
	lla	a5,.LC13
.L116:
	.loc 1 422 136 discriminator 6
	mv	a3,a5
	lla	a2,.LC14
	li	a1,-1
	li	a0,-1
	call	ShellPrintEx@plt
.LBE15:
.LBB16:
	.loc 1 423 79 is_stmt 1
	ld	a5,-616(s0)
	lbu	a4,0(a5)
	lbu	a3,1(a5)
	slli	a3,a3,8
	or	a4,a3,a4
	lbu	a3,2(a5)
	slli	a3,a3,16
	or	a4,a3,a4
	lbu	a3,3(a5)
	slli	a3,a3,24
	or	a4,a3,a4
	lbu	a3,4(a5)
	slli	a3,a3,32
	or	a4,a3,a4
	lbu	a3,5(a5)
	slli	a3,a3,40
	or	a4,a3,a4
	lbu	a3,6(a5)
	slli	a3,a3,48
	or	a4,a3,a4
	lbu	a5,7(a5)
	slli	a5,a5,56
	or	a5,a5,a4
	.loc 1 423 86
	lbu	a5,7(a5)
	.loc 1 423 42
	mv	a1,a5
	ld	a0,-616(s0)
	call	LibGetSmbiosString@plt
	sd	a0,-488(s0)
	.loc 1 423 104 discriminator 1
	lla	a3,.LC17
	lla	a2,.LC12
	li	a1,-1
	li	a0,-1
	call	ShellPrintEx@plt
	.loc 1 423 146 discriminator 2
	ld	a5,-488(s0)
	beq	a5,zero,.L117
	.loc 1 423 146 is_stmt 0 discriminator 3
	ld	a5,-488(s0)
	j	.L118
.L117:
	.loc 1 423 146 discriminator 4
	lla	a5,.LC13
.L118:
	.loc 1 423 146 discriminator 6
	mv	a3,a5
	lla	a2,.LC14
	li	a1,-1
	li	a0,-1
	call	ShellPrintEx@plt
.LBE16:
.LBB17:
	.loc 1 424 79 is_stmt 1
	ld	a5,-616(s0)
	lbu	a4,0(a5)
	lbu	a3,1(a5)
	slli	a3,a3,8
	or	a4,a3,a4
	lbu	a3,2(a5)
	slli	a3,a3,16
	or	a4,a3,a4
	lbu	a3,3(a5)
	slli	a3,a3,24
	or	a4,a3,a4
	lbu	a3,4(a5)
	slli	a3,a3,32
	or	a4,a3,a4
	lbu	a3,5(a5)
	slli	a3,a3,40
	or	a4,a3,a4
	lbu	a3,6(a5)
	slli	a3,a3,48
	or	a4,a3,a4
	lbu	a5,7(a5)
	slli	a5,a5,56
	or	a5,a5,a4
	.loc 1 424 86
	lbu	a5,8(a5)
	.loc 1 424 42
	mv	a1,a5
	ld	a0,-616(s0)
	call	LibGetSmbiosString@plt
	sd	a0,-496(s0)
	.loc 1 424 100 discriminator 1
	lla	a3,.LC21
	lla	a2,.LC12
	li	a1,-1
	li	a0,-1
	call	ShellPrintEx@plt
	.loc 1 424 138 discriminator 2
	ld	a5,-496(s0)
	beq	a5,zero,.L119
	.loc 1 424 138 is_stmt 0 discriminator 3
	ld	a5,-496(s0)
	j	.L120
.L119:
	.loc 1 424 138 discriminator 4
	lla	a5,.LC13
.L120:
	.loc 1 424 138 discriminator 6
	mv	a3,a5
	lla	a2,.LC14
	li	a1,-1
	li	a0,-1
	call	ShellPrintEx@plt
.LBE17:
	.loc 1 425 7 is_stmt 1
	la	a5,gShellDebug1HiiHandle
	ld	a5,0(a5)
	mv	a4,a5
	li	a3,147
	li	a2,0
	li	a1,-1
	li	a0,-1
	call	ShellPrintHiiEx@plt
	.loc 1 426 43
	ld	a5,-616(s0)
	lbu	a4,0(a5)
	lbu	a3,1(a5)
	slli	a3,a3,8
	or	a4,a3,a4
	lbu	a3,2(a5)
	slli	a3,a3,16
	or	a4,a3,a4
	lbu	a3,3(a5)
	slli	a3,a3,24
	or	a4,a3,a4
	lbu	a3,4(a5)
	slli	a3,a3,32
	or	a4,a3,a4
	lbu	a3,5(a5)
	slli	a3,a3,40
	or	a4,a3,a4
	lbu	a3,6(a5)
	slli	a3,a3,48
	or	a4,a3,a4
	lbu	a5,7(a5)
	slli	a5,a5,56
	or	a5,a5,a4
	.loc 1 426 7
	lbu	a5,9(a5)
	lbu	a4,-617(s0)
	mv	a1,a4
	mv	a0,a5
	call	DisplaySystemEnclosureStatus@plt
	.loc 1 427 7
	la	a5,gShellDebug1HiiHandle
	ld	a5,0(a5)
	mv	a4,a5
	li	a3,148
	li	a2,0
	li	a1,-1
	li	a0,-1
	call	ShellPrintHiiEx@plt
	.loc 1 428 43
	ld	a5,-616(s0)
	lbu	a4,0(a5)
	lbu	a3,1(a5)
	slli	a3,a3,8
	or	a4,a3,a4
	lbu	a3,2(a5)
	slli	a3,a3,16
	or	a4,a3,a4
	lbu	a3,3(a5)
	slli	a3,a3,24
	or	a4,a3,a4
	lbu	a3,4(a5)
	slli	a3,a3,32
	or	a4,a3,a4
	lbu	a3,5(a5)
	slli	a3,a3,40
	or	a4,a3,a4
	lbu	a3,6(a5)
	slli	a3,a3,48
	or	a4,a3,a4
	lbu	a5,7(a5)
	slli	a5,a5,56
	or	a5,a5,a4
	.loc 1 428 7
	lbu	a5,10(a5)
	lbu	a4,-617(s0)
	mv	a1,a4
	mv	a0,a5
	call	DisplaySystemEnclosureStatus@plt
	.loc 1 429 7
	la	a5,gShellDebug1HiiHandle
	ld	a5,0(a5)
	mv	a4,a5
	li	a3,149
	li	a2,0
	li	a1,-1
	li	a0,-1
	call	ShellPrintHiiEx@plt
	.loc 1 430 43
	ld	a5,-616(s0)
	lbu	a4,0(a5)
	lbu	a3,1(a5)
	slli	a3,a3,8
	or	a4,a3,a4
	lbu	a3,2(a5)
	slli	a3,a3,16
	or	a4,a3,a4
	lbu	a3,3(a5)
	slli	a3,a3,24
	or	a4,a3,a4
	lbu	a3,4(a5)
	slli	a3,a3,32
	or	a4,a3,a4
	lbu	a3,5(a5)
	slli	a3,a3,40
	or	a4,a3,a4
	lbu	a3,6(a5)
	slli	a3,a3,48
	or	a4,a3,a4
	lbu	a5,7(a5)
	slli	a5,a5,56
	or	a5,a5,a4
	.loc 1 430 7
	lbu	a5,11(a5)
	lbu	a4,-617(s0)
	mv	a1,a4
	mv	a0,a5
	call	DisplaySystemEnclosureStatus@plt
	.loc 1 431 7
	la	a5,gShellDebug1HiiHandle
	ld	a5,0(a5)
	mv	a4,a5
	li	a3,150
	li	a2,0
	li	a1,-1
	li	a0,-1
	call	ShellPrintHiiEx@plt
	.loc 1 432 38
	ld	a5,-616(s0)
	lbu	a4,0(a5)
	lbu	a3,1(a5)
	slli	a3,a3,8
	or	a4,a3,a4
	lbu	a3,2(a5)
	slli	a3,a3,16
	or	a4,a3,a4
	lbu	a3,3(a5)
	slli	a3,a3,24
	or	a4,a3,a4
	lbu	a3,4(a5)
	slli	a3,a3,32
	or	a4,a3,a4
	lbu	a3,5(a5)
	slli	a3,a3,40
	or	a4,a3,a4
	lbu	a3,6(a5)
	slli	a3,a3,48
	or	a4,a3,a4
	lbu	a5,7(a5)
	slli	a5,a5,56
	or	a5,a5,a4
	.loc 1 432 7
	lbu	a5,12(a5)
	lbu	a4,-617(s0)
	mv	a1,a4
	mv	a0,a5
	call	DisplaySESecurityStatus@plt
	.loc 1 433 31
	la	a5,SmbiosMajorVersion
	lbu	a5,0(a5)
	.loc 1 433 10
	mv	a4,a5
	li	a5,2
	bgtu	a4,a5,.L121
	.loc 1 433 62 discriminator 1
	la	a5,SmbiosMajorVersion
	lbu	a5,0(a5)
	.loc 1 433 39 discriminator 1
	mv	a4,a5
	li	a5,2
	bne	a4,a5,.L122
	.loc 1 433 93 discriminator 2
	la	a5,SmbiosMinorVersion
	lbu	a5,0(a5)
	.loc 1 433 71 discriminator 2
	mv	a4,a5
	li	a5,2
	bleu	a4,a5,.L122
.L121:
	.loc 1 434 19
	ld	a5,-616(s0)
	lbu	a4,0(a5)
	lbu	a3,1(a5)
	slli	a3,a3,8
	or	a4,a3,a4
	lbu	a3,2(a5)
	slli	a3,a3,16
	or	a4,a3,a4
	lbu	a3,3(a5)
	slli	a3,a3,24
	or	a4,a3,a4
	lbu	a3,4(a5)
	slli	a3,a3,32
	or	a4,a3,a4
	lbu	a3,5(a5)
	slli	a3,a3,40
	or	a4,a3,a4
	lbu	a3,6(a5)
	slli	a3,a3,48
	or	a4,a3,a4
	lbu	a5,7(a5)
	slli	a5,a5,56
	or	a5,a5,a4
	.loc 1 434 24
	lbu	a5,1(a5)
	.loc 1 434 12
	mv	a4,a5
	li	a5,13
	bleu	a4,a5,.L123
	.loc 1 435 16
	la	a5,gShellDebug1HiiHandle
	ld	a5,0(a5)
	mv	a4,a5
	li	a3,125
	li	a2,0
	li	a1,-1
	li	a0,-1
	call	ShellPrintHiiEx@plt
	.loc 1 435 83 discriminator 1
	lla	a3,.LC27
	lla	a2,.LC12
	li	a1,-1
	li	a0,-1
	call	ShellPrintEx@plt
	.loc 1 435 123 discriminator 2
	la	a5,gShellDebug1HiiHandle
	ld	a4,0(a5)
	li	a5,4
	li	a3,126
	li	a2,0
	li	a1,-1
	li	a0,-1
	call	ShellPrintHiiEx@plt
	.loc 1 435 219 discriminator 3
	ld	a5,-616(s0)
	lbu	a4,0(a5)
	lbu	a3,1(a5)
	slli	a3,a3,8
	or	a4,a3,a4
	lbu	a3,2(a5)
	slli	a3,a3,16
	or	a4,a3,a4
	lbu	a3,3(a5)
	slli	a3,a3,24
	or	a4,a3,a4
	lbu	a3,4(a5)
	slli	a3,a3,32
	or	a4,a3,a4
	lbu	a3,5(a5)
	slli	a3,a3,40
	or	a4,a3,a4
	lbu	a3,6(a5)
	slli	a3,a3,48
	or	a4,a3,a4
	lbu	a5,7(a5)
	slli	a5,a5,56
	or	a5,a5,a4
	.loc 1 435 211 discriminator 3
	addi	a5,a5,13
	.loc 1 435 193 discriminator 3
	mv	a3,a5
	li	a2,4
	li	a1,0
	li	a0,0
	call	DumpHex@plt
.L123:
	.loc 1 438 19
	ld	a5,-616(s0)
	lbu	a4,0(a5)
	lbu	a3,1(a5)
	slli	a3,a3,8
	or	a4,a3,a4
	lbu	a3,2(a5)
	slli	a3,a3,16
	or	a4,a3,a4
	lbu	a3,3(a5)
	slli	a3,a3,24
	or	a4,a3,a4
	lbu	a3,4(a5)
	slli	a3,a3,32
	or	a4,a3,a4
	lbu	a3,5(a5)
	slli	a3,a3,40
	or	a4,a3,a4
	lbu	a3,6(a5)
	slli	a3,a3,48
	or	a4,a3,a4
	lbu	a5,7(a5)
	slli	a5,a5,56
	or	a5,a5,a4
	.loc 1 438 24
	lbu	a5,1(a5)
	.loc 1 438 12
	mv	a4,a5
	li	a5,17
	bleu	a4,a5,.L124
	.loc 1 439 16
	lla	a3,.LC28
	lla	a2,.LC12
	li	a1,-1
	li	a0,-1
	call	ShellPrintEx@plt
	.loc 1 439 89 discriminator 1
	ld	a5,-616(s0)
	lbu	a4,0(a5)
	lbu	a3,1(a5)
	slli	a3,a3,8
	or	a4,a3,a4
	lbu	a3,2(a5)
	slli	a3,a3,16
	or	a4,a3,a4
	lbu	a3,3(a5)
	slli	a3,a3,24
	or	a4,a3,a4
	lbu	a3,4(a5)
	slli	a3,a3,32
	or	a4,a3,a4
	lbu	a3,5(a5)
	slli	a3,a3,40
	or	a4,a3,a4
	lbu	a3,6(a5)
	slli	a3,a3,48
	or	a4,a3,a4
	lbu	a5,7(a5)
	slli	a5,a5,56
	or	a5,a5,a4
	.loc 1 439 96 discriminator 1
	lbu	a5,17(a5)
	.loc 1 439 52 discriminator 1
	sext.w	a5,a5
	mv	a3,a5
	lla	a2,.LC26
	li	a1,-1
	li	a0,-1
	call	ShellPrintEx@plt
.L124:
	.loc 1 442 19
	ld	a5,-616(s0)
	lbu	a4,0(a5)
	lbu	a3,1(a5)
	slli	a3,a3,8
	or	a4,a3,a4
	lbu	a3,2(a5)
	slli	a3,a3,16
	or	a4,a3,a4
	lbu	a3,3(a5)
	slli	a3,a3,24
	or	a4,a3,a4
	lbu	a3,4(a5)
	slli	a3,a3,32
	or	a4,a3,a4
	lbu	a3,5(a5)
	slli	a3,a3,40
	or	a4,a3,a4
	lbu	a3,6(a5)
	slli	a3,a3,48
	or	a4,a3,a4
	lbu	a5,7(a5)
	slli	a5,a5,56
	or	a5,a5,a4
	.loc 1 442 24
	lbu	a5,1(a5)
	.loc 1 442 12
	mv	a4,a5
	li	a5,18
	bleu	a4,a5,.L125
	.loc 1 443 16
	lla	a3,.LC29
	lla	a2,.LC12
	li	a1,-1
	li	a0,-1
	call	ShellPrintEx@plt
	.loc 1 443 101 discriminator 1
	ld	a5,-616(s0)
	lbu	a4,0(a5)
	lbu	a3,1(a5)
	slli	a3,a3,8
	or	a4,a3,a4
	lbu	a3,2(a5)
	slli	a3,a3,16
	or	a4,a3,a4
	lbu	a3,3(a5)
	slli	a3,a3,24
	or	a4,a3,a4
	lbu	a3,4(a5)
	slli	a3,a3,32
	or	a4,a3,a4
	lbu	a3,5(a5)
	slli	a3,a3,40
	or	a4,a3,a4
	lbu	a3,6(a5)
	slli	a3,a3,48
	or	a4,a3,a4
	lbu	a5,7(a5)
	slli	a5,a5,56
	or	a5,a5,a4
	.loc 1 443 108 discriminator 1
	lbu	a5,18(a5)
	.loc 1 443 64 discriminator 1
	sext.w	a5,a5
	mv	a3,a5
	lla	a2,.LC26
	li	a1,-1
	li	a0,-1
	call	ShellPrintEx@plt
.L125:
	.loc 1 446 19
	ld	a5,-616(s0)
	lbu	a4,0(a5)
	lbu	a3,1(a5)
	slli	a3,a3,8
	or	a4,a3,a4
	lbu	a3,2(a5)
	slli	a3,a3,16
	or	a4,a3,a4
	lbu	a3,3(a5)
	slli	a3,a3,24
	or	a4,a3,a4
	lbu	a3,4(a5)
	slli	a3,a3,32
	or	a4,a3,a4
	lbu	a3,5(a5)
	slli	a3,a3,40
	or	a4,a3,a4
	lbu	a3,6(a5)
	slli	a3,a3,48
	or	a4,a3,a4
	lbu	a5,7(a5)
	slli	a5,a5,56
	or	a5,a5,a4
	.loc 1 446 24
	lbu	a5,1(a5)
	.loc 1 446 12
	mv	a4,a5
	li	a5,19
	bleu	a4,a5,.L126
	.loc 1 447 16
	lla	a3,.LC30
	lla	a2,.LC12
	li	a1,-1
	li	a0,-1
	call	ShellPrintEx@plt
	.loc 1 447 104 discriminator 1
	ld	a5,-616(s0)
	lbu	a4,0(a5)
	lbu	a3,1(a5)
	slli	a3,a3,8
	or	a4,a3,a4
	lbu	a3,2(a5)
	slli	a3,a3,16
	or	a4,a3,a4
	lbu	a3,3(a5)
	slli	a3,a3,24
	or	a4,a3,a4
	lbu	a3,4(a5)
	slli	a3,a3,32
	or	a4,a3,a4
	lbu	a3,5(a5)
	slli	a3,a3,40
	or	a4,a3,a4
	lbu	a3,6(a5)
	slli	a3,a3,48
	or	a4,a3,a4
	lbu	a5,7(a5)
	slli	a5,a5,56
	or	a5,a5,a4
	.loc 1 447 111 discriminator 1
	lbu	a5,19(a5)
	.loc 1 447 67 discriminator 1
	sext.w	a5,a5
	mv	a3,a5
	lla	a2,.LC26
	li	a1,-1
	li	a0,-1
	call	ShellPrintEx@plt
.L126:
	.loc 1 450 19
	ld	a5,-616(s0)
	lbu	a4,0(a5)
	lbu	a3,1(a5)
	slli	a3,a3,8
	or	a4,a3,a4
	lbu	a3,2(a5)
	slli	a3,a3,16
	or	a4,a3,a4
	lbu	a3,3(a5)
	slli	a3,a3,24
	or	a4,a3,a4
	lbu	a3,4(a5)
	slli	a3,a3,32
	or	a4,a3,a4
	lbu	a3,5(a5)
	slli	a3,a3,40
	or	a4,a3,a4
	lbu	a3,6(a5)
	slli	a3,a3,48
	or	a4,a3,a4
	lbu	a5,7(a5)
	slli	a5,a5,56
	or	a5,a5,a4
	.loc 1 450 24
	lbu	a5,1(a5)
	.loc 1 450 12
	mv	a4,a5
	li	a5,20
	bleu	a4,a5,.L127
	.loc 1 451 16
	lla	a3,.LC31
	lla	a2,.LC12
	li	a1,-1
	li	a0,-1
	call	ShellPrintEx@plt
	.loc 1 451 111 discriminator 1
	ld	a5,-616(s0)
	lbu	a4,0(a5)
	lbu	a3,1(a5)
	slli	a3,a3,8
	or	a4,a3,a4
	lbu	a3,2(a5)
	slli	a3,a3,16
	or	a4,a3,a4
	lbu	a3,3(a5)
	slli	a3,a3,24
	or	a4,a3,a4
	lbu	a3,4(a5)
	slli	a3,a3,32
	or	a4,a3,a4
	lbu	a3,5(a5)
	slli	a3,a3,40
	or	a4,a3,a4
	lbu	a3,6(a5)
	slli	a3,a3,48
	or	a4,a3,a4
	lbu	a5,7(a5)
	slli	a5,a5,56
	or	a5,a5,a4
	.loc 1 451 118 discriminator 1
	lbu	a5,20(a5)
	.loc 1 451 74 discriminator 1
	sext.w	a5,a5
	mv	a3,a5
	lla	a2,.LC26
	li	a1,-1
	li	a0,-1
	call	ShellPrintEx@plt
.L127:
	.loc 1 454 19
	ld	a5,-616(s0)
	lbu	a4,0(a5)
	lbu	a3,1(a5)
	slli	a3,a3,8
	or	a4,a3,a4
	lbu	a3,2(a5)
	slli	a3,a3,16
	or	a4,a3,a4
	lbu	a3,3(a5)
	slli	a3,a3,24
	or	a4,a3,a4
	lbu	a3,4(a5)
	slli	a3,a3,32
	or	a4,a3,a4
	lbu	a3,5(a5)
	slli	a3,a3,40
	or	a4,a3,a4
	lbu	a3,6(a5)
	slli	a3,a3,48
	or	a4,a3,a4
	lbu	a5,7(a5)
	slli	a5,a5,56
	or	a5,a5,a4
	.loc 1 454 24
	lbu	a5,1(a5)
	.loc 1 454 12
	mv	a4,a5
	li	a5,21
	bleu	a4,a5,.L122
	.loc 1 455 22
	sb	zero,-33(s0)
	.loc 1 455 11
	j	.L128
.L131:
	.loc 1 456 13
	la	a5,gShellDebug1HiiHandle
	ld	a4,0(a5)
	lbu	a5,-33(s0)
	sext.w	a5,a5
	addiw	a5,a5,1
	sext.w	a5,a5
	li	a3,151
	li	a2,0
	li	a1,-1
	li	a0,-1
	call	ShellPrintHiiEx@plt
	.loc 1 457 25
	sb	zero,-34(s0)
	.loc 1 457 13
	j	.L129
.L130:
	.loc 1 458 53
	lbu	a5,-33(s0)
	sext.w	a4,a5
	.loc 1 458 61
	ld	a5,-616(s0)
	lbu	a3,0(a5)
	lbu	a2,1(a5)
	slli	a2,a2,8
	or	a3,a2,a3
	lbu	a2,2(a5)
	slli	a2,a2,16
	or	a3,a2,a3
	lbu	a2,3(a5)
	slli	a2,a2,24
	or	a3,a2,a3
	lbu	a2,4(a5)
	slli	a2,a2,32
	or	a3,a2,a3
	lbu	a2,5(a5)
	slli	a2,a2,40
	or	a3,a2,a3
	lbu	a2,6(a5)
	slli	a2,a2,48
	or	a3,a2,a3
	lbu	a5,7(a5)
	slli	a5,a5,56
	or	a5,a5,a3
	.loc 1 458 68
	lbu	a5,20(a5)
	sext.w	a5,a5
	.loc 1 458 53
	mulw	a5,a4,a5
	sext.w	a5,a5
	.loc 1 458 44
	addiw	a5,a5,21
	sext.w	a4,a5
	.loc 1 458 100
	lbu	a5,-34(s0)
	sext.w	a5,a5
	addw	a5,a4,a5
	sext.w	a5,a5
	mv	a4,a5
	.loc 1 458 38
	ld	a5,-72(s0)
	add	a5,a5,a4
	lbu	a5,0(a5)
	.loc 1 458 15
	sext.w	a5,a5
	mv	a1,a5
	lla	a0,.LC32
	call	Print@plt
	.loc 1 457 90 discriminator 3
	lbu	a5,-34(s0)
	addiw	a5,a5,1
	sb	a5,-34(s0)
.L129:
	.loc 1 457 45 discriminator 1
	ld	a5,-616(s0)
	lbu	a4,0(a5)
	lbu	a3,1(a5)
	slli	a3,a3,8
	or	a4,a3,a4
	lbu	a3,2(a5)
	slli	a3,a3,16
	or	a4,a3,a4
	lbu	a3,3(a5)
	slli	a3,a3,24
	or	a4,a3,a4
	lbu	a3,4(a5)
	slli	a3,a3,32
	or	a4,a3,a4
	lbu	a3,5(a5)
	slli	a3,a3,40
	or	a4,a3,a4
	lbu	a3,6(a5)
	slli	a3,a3,48
	or	a4,a3,a4
	lbu	a5,7(a5)
	slli	a5,a5,56
	or	a5,a5,a4
	.loc 1 457 52 discriminator 1
	lbu	a4,20(a5)
	.loc 1 457 37 discriminator 1
	lbu	a5,-34(s0)
	andi	a5,a5,0xff
	bltu	a5,a4,.L130
	.loc 1 461 13
	lla	a0,.LC0
	call	Print@plt
	.loc 1 455 78 discriminator 2
	lbu	a5,-33(s0)
	addiw	a5,a5,1
	sb	a5,-33(s0)
.L128:
	.loc 1 455 41 discriminator 1
	ld	a5,-616(s0)
	lbu	a4,0(a5)
	lbu	a3,1(a5)
	slli	a3,a3,8
	or	a4,a3,a4
	lbu	a3,2(a5)
	slli	a3,a3,16
	or	a4,a3,a4
	lbu	a3,3(a5)
	slli	a3,a3,24
	or	a4,a3,a4
	lbu	a3,4(a5)
	slli	a3,a3,32
	or	a4,a3,a4
	lbu	a3,5(a5)
	slli	a3,a3,40
	or	a4,a3,a4
	lbu	a3,6(a5)
	slli	a3,a3,48
	or	a4,a3,a4
	lbu	a5,7(a5)
	slli	a5,a5,56
	or	a5,a5,a4
	.loc 1 455 48 discriminator 1
	lbu	a4,19(a5)
	.loc 1 455 33 discriminator 1
	lbu	a5,-33(s0)
	andi	a5,a5,0xff
	bltu	a5,a4,.L131
.L122:
	.loc 1 466 31
	la	a5,SmbiosMajorVersion
	lbu	a5,0(a5)
	.loc 1 466 10
	mv	a4,a5
	li	a5,2
	bgtu	a4,a5,.L132
	.loc 1 466 62 discriminator 2
	la	a5,SmbiosMajorVersion
	lbu	a5,0(a5)
	.loc 1 466 39 discriminator 2
	mv	a4,a5
	li	a5,2
	bne	a4,a5,.L308
	.loc 1 466 93 discriminator 3
	la	a5,SmbiosMinorVersion
	lbu	a5,0(a5)
	.loc 1 466 71 discriminator 3
	mv	a4,a5
	li	a5,6
	bleu	a4,a5,.L308
.L132:
	.loc 1 466 114 discriminator 4
	ld	a5,-616(s0)
	lbu	a4,0(a5)
	lbu	a3,1(a5)
	slli	a3,a3,8
	or	a4,a3,a4
	lbu	a3,2(a5)
	slli	a3,a3,16
	or	a4,a3,a4
	lbu	a3,3(a5)
	slli	a3,a3,24
	or	a4,a3,a4
	lbu	a3,4(a5)
	slli	a3,a3,32
	or	a4,a3,a4
	lbu	a3,5(a5)
	slli	a3,a3,40
	or	a4,a3,a4
	lbu	a3,6(a5)
	slli	a3,a3,48
	or	a4,a3,a4
	lbu	a5,7(a5)
	slli	a5,a5,56
	or	a5,a5,a4
	.loc 1 466 119 discriminator 4
	lbu	a5,1(a5)
	.loc 1 466 104 discriminator 4
	mv	a4,a5
	li	a5,19
	bleu	a4,a5,.L308
	.loc 1 467 19
	ld	a5,-616(s0)
	lbu	a4,0(a5)
	lbu	a3,1(a5)
	slli	a3,a3,8
	or	a4,a3,a4
	lbu	a3,2(a5)
	slli	a3,a3,16
	or	a4,a3,a4
	lbu	a3,3(a5)
	slli	a3,a3,24
	or	a4,a3,a4
	lbu	a3,4(a5)
	slli	a3,a3,32
	or	a4,a3,a4
	lbu	a3,5(a5)
	slli	a3,a3,40
	or	a4,a3,a4
	lbu	a3,6(a5)
	slli	a3,a3,48
	or	a4,a3,a4
	lbu	a5,7(a5)
	slli	a5,a5,56
	or	a5,a5,a4
	.loc 1 467 24
	lbu	a5,1(a5)
	sext.w	a4,a5
	.loc 1 467 50
	ld	a5,-616(s0)
	lbu	a3,0(a5)
	lbu	a2,1(a5)
	slli	a2,a2,8
	or	a3,a2,a3
	lbu	a2,2(a5)
	slli	a2,a2,16
	or	a3,a2,a3
	lbu	a2,3(a5)
	slli	a2,a2,24
	or	a3,a2,a3
	lbu	a2,4(a5)
	slli	a2,a2,32
	or	a3,a2,a3
	lbu	a2,5(a5)
	slli	a2,a2,40
	or	a3,a2,a3
	lbu	a2,6(a5)
	slli	a2,a2,48
	or	a3,a2,a3
	lbu	a5,7(a5)
	slli	a5,a5,56
	or	a5,a5,a3
	.loc 1 467 57
	lbu	a5,19(a5)
	sext.w	a3,a5
	.loc 1 467 89
	ld	a5,-616(s0)
	lbu	a2,0(a5)
	lbu	a1,1(a5)
	slli	a1,a1,8
	or	a2,a1,a2
	lbu	a1,2(a5)
	slli	a1,a1,16
	or	a2,a1,a2
	lbu	a1,3(a5)
	slli	a1,a1,24
	or	a2,a1,a2
	lbu	a1,4(a5)
	slli	a1,a1,32
	or	a2,a1,a2
	lbu	a1,5(a5)
	slli	a1,a1,40
	or	a2,a1,a2
	lbu	a1,6(a5)
	slli	a1,a1,48
	or	a2,a1,a2
	lbu	a5,7(a5)
	slli	a5,a5,56
	or	a5,a5,a2
	.loc 1 467 96
	lbu	a5,20(a5)
	sext.w	a5,a5
	.loc 1 467 81
	mulw	a5,a3,a5
	sext.w	a5,a5
	.loc 1 467 41
	addiw	a5,a5,21
	sext.w	a5,a5
	.loc 1 467 12
	ble	a4,a5,.L308
.LBB18:
	.loc 1 468 98
	ld	a5,-616(s0)
	lbu	a4,0(a5)
	lbu	a3,1(a5)
	slli	a3,a3,8
	or	a4,a3,a4
	lbu	a3,2(a5)
	slli	a3,a3,16
	or	a4,a3,a4
	lbu	a3,3(a5)
	slli	a3,a3,24
	or	a4,a3,a4
	lbu	a3,4(a5)
	slli	a3,a3,32
	or	a4,a3,a4
	lbu	a3,5(a5)
	slli	a3,a3,40
	or	a4,a3,a4
	lbu	a3,6(a5)
	slli	a3,a3,48
	or	a4,a3,a4
	lbu	a5,7(a5)
	slli	a5,a5,56
	or	a5,a5,a4
	.loc 1 468 105
	lbu	a5,19(a5)
	sext.w	a4,a5
	.loc 1 468 137
	ld	a5,-616(s0)
	lbu	a3,0(a5)
	lbu	a2,1(a5)
	slli	a2,a2,8
	or	a3,a2,a3
	lbu	a2,2(a5)
	slli	a2,a2,16
	or	a3,a2,a3
	lbu	a2,3(a5)
	slli	a2,a2,24
	or	a3,a2,a3
	lbu	a2,4(a5)
	slli	a2,a2,32
	or	a3,a2,a3
	lbu	a2,5(a5)
	slli	a2,a2,40
	or	a3,a2,a3
	lbu	a2,6(a5)
	slli	a2,a2,48
	or	a3,a2,a3
	lbu	a5,7(a5)
	slli	a5,a5,56
	or	a5,a5,a3
	.loc 1 468 144
	lbu	a5,20(a5)
	sext.w	a5,a5
	.loc 1 468 129
	mulw	a5,a4,a5
	sext.w	a5,a5
	.loc 1 468 89
	addiw	a5,a5,21
	sext.w	a5,a5
	mv	a4,a5
	.loc 1 468 83
	ld	a5,-72(s0)
	add	a5,a5,a4
	lbu	a5,0(a5)
	.loc 1 468 46
	mv	a1,a5
	ld	a0,-616(s0)
	call	LibGetSmbiosString@plt
	sd	a0,-504(s0)
	.loc 1 468 180 discriminator 1
	lla	a3,.LC19
	lla	a2,.LC12
	li	a1,-1
	li	a0,-1
	call	ShellPrintEx@plt
	.loc 1 468 219 discriminator 2
	ld	a5,-504(s0)
	beq	a5,zero,.L134
	.loc 1 468 219 is_stmt 0 discriminator 3
	ld	a5,-504(s0)
	j	.L135
.L134:
	.loc 1 468 219 discriminator 4
	lla	a5,.LC13
.L135:
	.loc 1 468 219 discriminator 6
	mv	a3,a5
	lla	a2,.LC14
	li	a1,-1
	li	a0,-1
	call	ShellPrintEx@plt
.LBE18:
	.loc 1 472 7 is_stmt 1
	j	.L308
.L70:
	.loc 1 478 92
	ld	a5,-616(s0)
	lbu	a4,0(a5)
	lbu	a3,1(a5)
	slli	a3,a3,8
	or	a4,a3,a4
	lbu	a3,2(a5)
	slli	a3,a3,16
	or	a4,a3,a4
	lbu	a3,3(a5)
	slli	a3,a3,24
	or	a4,a3,a4
	lbu	a3,4(a5)
	slli	a3,a3,32
	or	a4,a3,a4
	lbu	a3,5(a5)
	slli	a3,a3,40
	or	a4,a3,a4
	lbu	a3,6(a5)
	slli	a3,a3,48
	or	a4,a3,a4
	lbu	a5,7(a5)
	slli	a5,a5,56
	or	a5,a5,a4
	.loc 1 478 99
	lbu	a5,4(a5)
	.loc 1 478 7
	mv	a1,a5
	ld	a0,-616(s0)
	call	LibGetSmbiosString@plt
	mv	a5,a0
	.loc 1 478 7 is_stmt 0 discriminator 1
	mv	a3,a5
	lla	a2,.LC33
	li	a1,-1
	li	a0,-1
	call	ShellPrintEx@plt
	.loc 1 479 35 is_stmt 1
	ld	a5,-616(s0)
	lbu	a4,0(a5)
	lbu	a3,1(a5)
	slli	a3,a3,8
	or	a4,a3,a4
	lbu	a3,2(a5)
	slli	a3,a3,16
	or	a4,a3,a4
	lbu	a3,3(a5)
	slli	a3,a3,24
	or	a4,a3,a4
	lbu	a3,4(a5)
	slli	a3,a3,32
	or	a4,a3,a4
	lbu	a3,5(a5)
	slli	a3,a3,40
	or	a4,a3,a4
	lbu	a3,6(a5)
	slli	a3,a3,48
	or	a4,a3,a4
	lbu	a5,7(a5)
	slli	a5,a5,56
	or	a5,a5,a4
	.loc 1 479 7
	lbu	a5,5(a5)
	lbu	a4,-617(s0)
	mv	a1,a4
	mv	a0,a5
	call	DisplayProcessorType@plt
	.loc 1 480 7
	la	a5,gShellDebug1HiiHandle
	ld	a5,0(a5)
	mv	a4,a5
	li	a3,224
	li	a2,0
	li	a1,-1
	li	a0,-1
	call	ShellPrintHiiEx@plt
	.loc 1 481 37
	ld	a5,-616(s0)
	lbu	a4,0(a5)
	lbu	a3,1(a5)
	slli	a3,a3,8
	or	a4,a3,a4
	lbu	a3,2(a5)
	slli	a3,a3,16
	or	a4,a3,a4
	lbu	a3,3(a5)
	slli	a3,a3,24
	or	a4,a3,a4
	lbu	a3,4(a5)
	slli	a3,a3,32
	or	a4,a3,a4
	lbu	a3,5(a5)
	slli	a3,a3,40
	or	a4,a3,a4
	lbu	a3,6(a5)
	slli	a3,a3,48
	or	a4,a3,a4
	lbu	a5,7(a5)
	slli	a5,a5,56
	or	a5,a5,a4
	.loc 1 481 7
	lbu	a5,6(a5)
	lbu	a4,-617(s0)
	mv	a1,a4
	mv	a0,a5
	call	DisplayProcessorFamily
	.loc 1 482 96
	ld	a5,-616(s0)
	lbu	a4,0(a5)
	lbu	a3,1(a5)
	slli	a3,a3,8
	or	a4,a3,a4
	lbu	a3,2(a5)
	slli	a3,a3,16
	or	a4,a3,a4
	lbu	a3,3(a5)
	slli	a3,a3,24
	or	a4,a3,a4
	lbu	a3,4(a5)
	slli	a3,a3,32
	or	a4,a3,a4
	lbu	a3,5(a5)
	slli	a3,a3,40
	or	a4,a3,a4
	lbu	a3,6(a5)
	slli	a3,a3,48
	or	a4,a3,a4
	lbu	a5,7(a5)
	slli	a5,a5,56
	or	a5,a5,a4
	.loc 1 482 103
	lbu	a5,7(a5)
	.loc 1 482 7
	mv	a1,a5
	ld	a0,-616(s0)
	call	LibGetSmbiosString@plt
	mv	a5,a0
	.loc 1 482 7 is_stmt 0 discriminator 1
	mv	a3,a5
	lla	a2,.LC34
	li	a1,-1
	li	a0,-1
	call	ShellPrintEx@plt
	.loc 1 483 7 is_stmt 1
	la	a5,gShellDebug1HiiHandle
	ld	a4,0(a5)
	li	a5,8
	li	a3,225
	li	a2,0
	li	a1,-1
	li	a0,-1
	call	ShellPrintHiiEx@plt
	.loc 1 484 33
	ld	a5,-616(s0)
	lbu	a4,0(a5)
	lbu	a3,1(a5)
	slli	a3,a3,8
	or	a4,a3,a4
	lbu	a3,2(a5)
	slli	a3,a3,16
	or	a4,a3,a4
	lbu	a3,3(a5)
	slli	a3,a3,24
	or	a4,a3,a4
	lbu	a3,4(a5)
	slli	a3,a3,32
	or	a4,a3,a4
	lbu	a3,5(a5)
	slli	a3,a3,40
	or	a4,a3,a4
	lbu	a3,6(a5)
	slli	a3,a3,48
	or	a4,a3,a4
	lbu	a5,7(a5)
	slli	a5,a5,56
	or	a5,a5,a4
	.loc 1 484 25
	addi	a5,a5,8
	.loc 1 484 7
	mv	a3,a5
	li	a2,8
	li	a1,0
	li	a0,0
	call	DumpHex@plt
	.loc 1 485 91
	ld	a5,-616(s0)
	lbu	a4,0(a5)
	lbu	a3,1(a5)
	slli	a3,a3,8
	or	a4,a3,a4
	lbu	a3,2(a5)
	slli	a3,a3,16
	or	a4,a3,a4
	lbu	a3,3(a5)
	slli	a3,a3,24
	or	a4,a3,a4
	lbu	a3,4(a5)
	slli	a3,a3,32
	or	a4,a3,a4
	lbu	a3,5(a5)
	slli	a3,a3,40
	or	a4,a3,a4
	lbu	a3,6(a5)
	slli	a3,a3,48
	or	a4,a3,a4
	lbu	a5,7(a5)
	slli	a5,a5,56
	or	a5,a5,a4
	.loc 1 485 98
	lbu	a5,16(a5)
	.loc 1 485 7
	mv	a1,a5
	ld	a0,-616(s0)
	call	LibGetSmbiosString@plt
	mv	a5,a0
	.loc 1 485 7 is_stmt 0 discriminator 1
	mv	a3,a5
	lla	a2,.LC35
	li	a1,-1
	li	a0,-1
	call	ShellPrintEx@plt
	.loc 1 486 50 is_stmt 1
	ld	a5,-616(s0)
	lbu	a4,0(a5)
	lbu	a3,1(a5)
	slli	a3,a3,8
	or	a4,a3,a4
	lbu	a3,2(a5)
	slli	a3,a3,16
	or	a4,a3,a4
	lbu	a3,3(a5)
	slli	a3,a3,24
	or	a4,a3,a4
	lbu	a3,4(a5)
	slli	a3,a3,32
	or	a4,a3,a4
	lbu	a3,5(a5)
	slli	a3,a3,40
	or	a4,a3,a4
	lbu	a3,6(a5)
	slli	a3,a3,48
	or	a4,a3,a4
	lbu	a5,7(a5)
	slli	a5,a5,56
	or	a5,a5,a4
	.loc 1 486 42
	addi	a5,a5,17
	.loc 1 486 7
	lbu	a5,0(a5)
	lbu	a4,-617(s0)
	mv	a1,a4
	mv	a0,a5
	call	DisplayProcessorVoltage
	.loc 1 487 60
	ld	a5,-616(s0)
	lbu	a4,0(a5)
	lbu	a3,1(a5)
	slli	a3,a3,8
	or	a4,a3,a4
	lbu	a3,2(a5)
	slli	a3,a3,16
	or	a4,a3,a4
	lbu	a3,3(a5)
	slli	a3,a3,24
	or	a4,a3,a4
	lbu	a3,4(a5)
	slli	a3,a3,32
	or	a4,a3,a4
	lbu	a3,5(a5)
	slli	a3,a3,40
	or	a4,a3,a4
	lbu	a3,6(a5)
	slli	a3,a3,48
	or	a4,a3,a4
	lbu	a5,7(a5)
	slli	a5,a5,56
	or	a5,a5,a4
	.loc 1 487 67
	lbu	a4,18(a5)
	lbu	a5,19(a5)
	slli	a5,a5,8
	or	a5,a5,a4
	slli	a5,a5,48
	srli	a5,a5,48
	.loc 1 487 7
	sext.w	a5,a5
	mv	a3,a5
	lla	a2,.LC36
	li	a1,-1
	li	a0,-1
	call	ShellPrintEx@plt
	.loc 1 488 55
	ld	a5,-616(s0)
	lbu	a4,0(a5)
	lbu	a3,1(a5)
	slli	a3,a3,8
	or	a4,a3,a4
	lbu	a3,2(a5)
	slli	a3,a3,16
	or	a4,a3,a4
	lbu	a3,3(a5)
	slli	a3,a3,24
	or	a4,a3,a4
	lbu	a3,4(a5)
	slli	a3,a3,32
	or	a4,a3,a4
	lbu	a3,5(a5)
	slli	a3,a3,40
	or	a4,a3,a4
	lbu	a3,6(a5)
	slli	a3,a3,48
	or	a4,a3,a4
	lbu	a5,7(a5)
	slli	a5,a5,56
	or	a5,a5,a4
	.loc 1 488 62
	lbu	a4,20(a5)
	lbu	a5,21(a5)
	slli	a5,a5,8
	or	a5,a5,a4
	slli	a5,a5,48
	srli	a5,a5,48
	.loc 1 488 7
	sext.w	a5,a5
	mv	a3,a5
	lla	a2,.LC37
	li	a1,-1
	li	a0,-1
	call	ShellPrintEx@plt
	.loc 1 489 59
	ld	a5,-616(s0)
	lbu	a4,0(a5)
	lbu	a3,1(a5)
	slli	a3,a3,8
	or	a4,a3,a4
	lbu	a3,2(a5)
	slli	a3,a3,16
	or	a4,a3,a4
	lbu	a3,3(a5)
	slli	a3,a3,24
	or	a4,a3,a4
	lbu	a3,4(a5)
	slli	a3,a3,32
	or	a4,a3,a4
	lbu	a3,5(a5)
	slli	a3,a3,40
	or	a4,a3,a4
	lbu	a3,6(a5)
	slli	a3,a3,48
	or	a4,a3,a4
	lbu	a5,7(a5)
	slli	a5,a5,56
	or	a5,a5,a4
	.loc 1 489 66
	lbu	a4,22(a5)
	lbu	a5,23(a5)
	slli	a5,a5,8
	or	a5,a5,a4
	slli	a5,a5,48
	srli	a5,a5,48
	.loc 1 489 7
	sext.w	a5,a5
	mv	a3,a5
	lla	a2,.LC38
	li	a1,-1
	li	a0,-1
	call	ShellPrintEx@plt
	.loc 1 490 37
	ld	a5,-616(s0)
	lbu	a4,0(a5)
	lbu	a3,1(a5)
	slli	a3,a3,8
	or	a4,a3,a4
	lbu	a3,2(a5)
	slli	a3,a3,16
	or	a4,a3,a4
	lbu	a3,3(a5)
	slli	a3,a3,24
	or	a4,a3,a4
	lbu	a3,4(a5)
	slli	a3,a3,32
	or	a4,a3,a4
	lbu	a3,5(a5)
	slli	a3,a3,40
	or	a4,a3,a4
	lbu	a3,6(a5)
	slli	a3,a3,48
	or	a4,a3,a4
	lbu	a5,7(a5)
	slli	a5,a5,56
	or	a5,a5,a4
	.loc 1 490 7
	lbu	a5,24(a5)
	lbu	a4,-617(s0)
	mv	a1,a4
	mv	a0,a5
	call	DisplayProcessorStatus
	.loc 1 491 38
	ld	a5,-616(s0)
	lbu	a4,0(a5)
	lbu	a3,1(a5)
	slli	a3,a3,8
	or	a4,a3,a4
	lbu	a3,2(a5)
	slli	a3,a3,16
	or	a4,a3,a4
	lbu	a3,3(a5)
	slli	a3,a3,24
	or	a4,a3,a4
	lbu	a3,4(a5)
	slli	a3,a3,32
	or	a4,a3,a4
	lbu	a3,5(a5)
	slli	a3,a3,40
	or	a4,a3,a4
	lbu	a3,6(a5)
	slli	a3,a3,48
	or	a4,a3,a4
	lbu	a5,7(a5)
	slli	a5,a5,56
	or	a5,a5,a4
	.loc 1 491 7
	lbu	a5,25(a5)
	lbu	a4,-617(s0)
	mv	a1,a4
	mv	a0,a5
	call	DisplayProcessorUpgrade@plt
	.loc 1 492 63
	ld	a5,-616(s0)
	lbu	a4,0(a5)
	lbu	a3,1(a5)
	slli	a3,a3,8
	or	a4,a3,a4
	lbu	a3,2(a5)
	slli	a3,a3,16
	or	a4,a3,a4
	lbu	a3,3(a5)
	slli	a3,a3,24
	or	a4,a3,a4
	lbu	a3,4(a5)
	slli	a3,a3,32
	or	a4,a3,a4
	lbu	a3,5(a5)
	slli	a3,a3,40
	or	a4,a3,a4
	lbu	a3,6(a5)
	slli	a3,a3,48
	or	a4,a3,a4
	lbu	a5,7(a5)
	slli	a5,a5,56
	or	a5,a5,a4
	.loc 1 492 70
	lbu	a4,26(a5)
	lbu	a5,27(a5)
	slli	a5,a5,8
	or	a5,a5,a4
	slli	a5,a5,48
	srli	a5,a5,48
	.loc 1 492 7
	sext.w	a5,a5
	mv	a3,a5
	lla	a2,.LC39
	li	a1,-1
	li	a0,-1
	call	ShellPrintEx@plt
	.loc 1 493 63
	ld	a5,-616(s0)
	lbu	a4,0(a5)
	lbu	a3,1(a5)
	slli	a3,a3,8
	or	a4,a3,a4
	lbu	a3,2(a5)
	slli	a3,a3,16
	or	a4,a3,a4
	lbu	a3,3(a5)
	slli	a3,a3,24
	or	a4,a3,a4
	lbu	a3,4(a5)
	slli	a3,a3,32
	or	a4,a3,a4
	lbu	a3,5(a5)
	slli	a3,a3,40
	or	a4,a3,a4
	lbu	a3,6(a5)
	slli	a3,a3,48
	or	a4,a3,a4
	lbu	a5,7(a5)
	slli	a5,a5,56
	or	a5,a5,a4
	.loc 1 493 70
	lbu	a4,28(a5)
	lbu	a5,29(a5)
	slli	a5,a5,8
	or	a5,a5,a4
	slli	a5,a5,48
	srli	a5,a5,48
	.loc 1 493 7
	sext.w	a5,a5
	mv	a3,a5
	lla	a2,.LC40
	li	a1,-1
	li	a0,-1
	call	ShellPrintEx@plt
	.loc 1 494 63
	ld	a5,-616(s0)
	lbu	a4,0(a5)
	lbu	a3,1(a5)
	slli	a3,a3,8
	or	a4,a3,a4
	lbu	a3,2(a5)
	slli	a3,a3,16
	or	a4,a3,a4
	lbu	a3,3(a5)
	slli	a3,a3,24
	or	a4,a3,a4
	lbu	a3,4(a5)
	slli	a3,a3,32
	or	a4,a3,a4
	lbu	a3,5(a5)
	slli	a3,a3,40
	or	a4,a3,a4
	lbu	a3,6(a5)
	slli	a3,a3,48
	or	a4,a3,a4
	lbu	a5,7(a5)
	slli	a5,a5,56
	or	a5,a5,a4
	.loc 1 494 70
	lbu	a4,30(a5)
	lbu	a5,31(a5)
	slli	a5,a5,8
	or	a5,a5,a4
	slli	a5,a5,48
	srli	a5,a5,48
	.loc 1 494 7
	sext.w	a5,a5
	mv	a3,a5
	lla	a2,.LC41
	li	a1,-1
	li	a0,-1
	call	ShellPrintEx@plt
	.loc 1 495 31
	la	a5,SmbiosMajorVersion
	lbu	a5,0(a5)
	.loc 1 495 10
	mv	a4,a5
	li	a5,2
	bgtu	a4,a5,.L136
	.loc 1 495 62 discriminator 2
	la	a5,SmbiosMajorVersion
	lbu	a5,0(a5)
	.loc 1 495 39 discriminator 2
	mv	a4,a5
	li	a5,2
	bne	a4,a5,.L137
	.loc 1 495 93 discriminator 3
	la	a5,SmbiosMinorVersion
	lbu	a5,0(a5)
	.loc 1 495 71 discriminator 3
	mv	a4,a5
	li	a5,2
	bleu	a4,a5,.L137
.L136:
	.loc 1 495 114 discriminator 4
	ld	a5,-616(s0)
	lbu	a4,0(a5)
	lbu	a3,1(a5)
	slli	a3,a3,8
	or	a4,a3,a4
	lbu	a3,2(a5)
	slli	a3,a3,16
	or	a4,a3,a4
	lbu	a3,3(a5)
	slli	a3,a3,24
	or	a4,a3,a4
	lbu	a3,4(a5)
	slli	a3,a3,32
	or	a4,a3,a4
	lbu	a3,5(a5)
	slli	a3,a3,40
	or	a4,a3,a4
	lbu	a3,6(a5)
	slli	a3,a3,48
	or	a4,a3,a4
	lbu	a5,7(a5)
	slli	a5,a5,56
	or	a5,a5,a4
	.loc 1 495 119 discriminator 4
	lbu	a5,1(a5)
	.loc 1 495 104 discriminator 4
	mv	a4,a5
	li	a5,32
	bleu	a4,a5,.L137
	.loc 1 496 89
	ld	a5,-616(s0)
	lbu	a4,0(a5)
	lbu	a3,1(a5)
	slli	a3,a3,8
	or	a4,a3,a4
	lbu	a3,2(a5)
	slli	a3,a3,16
	or	a4,a3,a4
	lbu	a3,3(a5)
	slli	a3,a3,24
	or	a4,a3,a4
	lbu	a3,4(a5)
	slli	a3,a3,32
	or	a4,a3,a4
	lbu	a3,5(a5)
	slli	a3,a3,40
	or	a4,a3,a4
	lbu	a3,6(a5)
	slli	a3,a3,48
	or	a4,a3,a4
	lbu	a5,7(a5)
	slli	a5,a5,56
	or	a5,a5,a4
	.loc 1 496 96
	lbu	a5,32(a5)
	.loc 1 496 9
	mv	a1,a5
	ld	a0,-616(s0)
	call	LibGetSmbiosString@plt
	mv	a5,a0
	.loc 1 496 9 is_stmt 0 discriminator 1
	mv	a3,a5
	lla	a2,.LC42
	li	a1,-1
	li	a0,-1
	call	ShellPrintEx@plt
	.loc 1 497 85 is_stmt 1
	ld	a5,-616(s0)
	lbu	a4,0(a5)
	lbu	a3,1(a5)
	slli	a3,a3,8
	or	a4,a3,a4
	lbu	a3,2(a5)
	slli	a3,a3,16
	or	a4,a3,a4
	lbu	a3,3(a5)
	slli	a3,a3,24
	or	a4,a3,a4
	lbu	a3,4(a5)
	slli	a3,a3,32
	or	a4,a3,a4
	lbu	a3,5(a5)
	slli	a3,a3,40
	or	a4,a3,a4
	lbu	a3,6(a5)
	slli	a3,a3,48
	or	a4,a3,a4
	lbu	a5,7(a5)
	slli	a5,a5,56
	or	a5,a5,a4
	.loc 1 497 92
	lbu	a5,33(a5)
	.loc 1 497 9
	mv	a1,a5
	ld	a0,-616(s0)
	call	LibGetSmbiosString@plt
	mv	a5,a0
	.loc 1 497 9 is_stmt 0 discriminator 1
	mv	a3,a5
	lla	a2,.LC43
	li	a1,-1
	li	a0,-1
	call	ShellPrintEx@plt
	.loc 1 498 87 is_stmt 1
	ld	a5,-616(s0)
	lbu	a4,0(a5)
	lbu	a3,1(a5)
	slli	a3,a3,8
	or	a4,a3,a4
	lbu	a3,2(a5)
	slli	a3,a3,16
	or	a4,a3,a4
	lbu	a3,3(a5)
	slli	a3,a3,24
	or	a4,a3,a4
	lbu	a3,4(a5)
	slli	a3,a3,32
	or	a4,a3,a4
	lbu	a3,5(a5)
	slli	a3,a3,40
	or	a4,a3,a4
	lbu	a3,6(a5)
	slli	a3,a3,48
	or	a4,a3,a4
	lbu	a5,7(a5)
	slli	a5,a5,56
	or	a5,a5,a4
	.loc 1 498 94
	lbu	a5,34(a5)
	.loc 1 498 9
	mv	a1,a5
	ld	a0,-616(s0)
	call	LibGetSmbiosString@plt
	mv	a5,a0
	.loc 1 498 9 is_stmt 0 discriminator 1
	mv	a3,a5
	lla	a2,.LC44
	li	a1,-1
	li	a0,-1
	call	ShellPrintEx@plt
.L137:
	.loc 1 501 31 is_stmt 1
	la	a5,SmbiosMajorVersion
	lbu	a5,0(a5)
	.loc 1 501 10
	mv	a4,a5
	li	a5,2
	bgtu	a4,a5,.L138
	.loc 1 501 62 discriminator 2
	la	a5,SmbiosMajorVersion
	lbu	a5,0(a5)
	.loc 1 501 39 discriminator 2
	mv	a4,a5
	li	a5,2
	bne	a4,a5,.L139
	.loc 1 501 93 discriminator 3
	la	a5,SmbiosMinorVersion
	lbu	a5,0(a5)
	.loc 1 501 71 discriminator 3
	mv	a4,a5
	li	a5,4
	bleu	a4,a5,.L139
.L138:
	.loc 1 501 114 discriminator 4
	ld	a5,-616(s0)
	lbu	a4,0(a5)
	lbu	a3,1(a5)
	slli	a3,a3,8
	or	a4,a3,a4
	lbu	a3,2(a5)
	slli	a3,a3,16
	or	a4,a3,a4
	lbu	a3,3(a5)
	slli	a3,a3,24
	or	a4,a3,a4
	lbu	a3,4(a5)
	slli	a3,a3,32
	or	a4,a3,a4
	lbu	a3,5(a5)
	slli	a3,a3,40
	or	a4,a3,a4
	lbu	a3,6(a5)
	slli	a3,a3,48
	or	a4,a3,a4
	lbu	a5,7(a5)
	slli	a5,a5,56
	or	a5,a5,a4
	.loc 1 501 119 discriminator 4
	lbu	a5,1(a5)
	.loc 1 501 104 discriminator 4
	mv	a4,a5
	li	a5,35
	bleu	a4,a5,.L139
	.loc 1 502 58
	ld	a5,-616(s0)
	lbu	a4,0(a5)
	lbu	a3,1(a5)
	slli	a3,a3,8
	or	a4,a3,a4
	lbu	a3,2(a5)
	slli	a3,a3,16
	or	a4,a3,a4
	lbu	a3,3(a5)
	slli	a3,a3,24
	or	a4,a3,a4
	lbu	a3,4(a5)
	slli	a3,a3,32
	or	a4,a3,a4
	lbu	a3,5(a5)
	slli	a3,a3,40
	or	a4,a3,a4
	lbu	a3,6(a5)
	slli	a3,a3,48
	or	a4,a3,a4
	lbu	a5,7(a5)
	slli	a5,a5,56
	or	a5,a5,a4
	.loc 1 502 65
	lbu	a5,35(a5)
	.loc 1 502 9
	sext.w	a5,a5
	mv	a3,a5
	lla	a2,.LC45
	li	a1,-1
	li	a0,-1
	call	ShellPrintEx@plt
	.loc 1 503 60
	ld	a5,-616(s0)
	lbu	a4,0(a5)
	lbu	a3,1(a5)
	slli	a3,a3,8
	or	a4,a3,a4
	lbu	a3,2(a5)
	slli	a3,a3,16
	or	a4,a3,a4
	lbu	a3,3(a5)
	slli	a3,a3,24
	or	a4,a3,a4
	lbu	a3,4(a5)
	slli	a3,a3,32
	or	a4,a3,a4
	lbu	a3,5(a5)
	slli	a3,a3,40
	or	a4,a3,a4
	lbu	a3,6(a5)
	slli	a3,a3,48
	or	a4,a3,a4
	lbu	a5,7(a5)
	slli	a5,a5,56
	or	a5,a5,a4
	.loc 1 503 67
	lbu	a5,36(a5)
	.loc 1 503 9
	sext.w	a5,a5
	mv	a3,a5
	lla	a2,.LC46
	li	a1,-1
	li	a0,-1
	call	ShellPrintEx@plt
	.loc 1 504 60
	ld	a5,-616(s0)
	lbu	a4,0(a5)
	lbu	a3,1(a5)
	slli	a3,a3,8
	or	a4,a3,a4
	lbu	a3,2(a5)
	slli	a3,a3,16
	or	a4,a3,a4
	lbu	a3,3(a5)
	slli	a3,a3,24
	or	a4,a3,a4
	lbu	a3,4(a5)
	slli	a3,a3,32
	or	a4,a3,a4
	lbu	a3,5(a5)
	slli	a3,a3,40
	or	a4,a3,a4
	lbu	a3,6(a5)
	slli	a3,a3,48
	or	a4,a3,a4
	lbu	a5,7(a5)
	slli	a5,a5,56
	or	a5,a5,a4
	.loc 1 504 67
	lbu	a5,37(a5)
	.loc 1 504 9
	sext.w	a5,a5
	mv	a3,a5
	lla	a2,.LC47
	li	a1,-1
	li	a0,-1
	call	ShellPrintEx@plt
	.loc 1 505 48
	ld	a5,-616(s0)
	lbu	a4,0(a5)
	lbu	a3,1(a5)
	slli	a3,a3,8
	or	a4,a3,a4
	lbu	a3,2(a5)
	slli	a3,a3,16
	or	a4,a3,a4
	lbu	a3,3(a5)
	slli	a3,a3,24
	or	a4,a3,a4
	lbu	a3,4(a5)
	slli	a3,a3,32
	or	a4,a3,a4
	lbu	a3,5(a5)
	slli	a3,a3,40
	or	a4,a3,a4
	lbu	a3,6(a5)
	slli	a3,a3,48
	or	a4,a3,a4
	lbu	a5,7(a5)
	slli	a5,a5,56
	or	a5,a5,a4
	.loc 1 505 9
	lbu	a4,38(a5)
	lbu	a5,39(a5)
	slli	a5,a5,8
	or	a5,a5,a4
	slli	a5,a5,48
	srli	a5,a5,48
	lbu	a4,-617(s0)
	mv	a1,a4
	mv	a0,a5
	call	DisplayProcessorCharacteristics@plt
.L139:
	.loc 1 508 31
	la	a5,SmbiosMajorVersion
	lbu	a5,0(a5)
	.loc 1 508 10
	mv	a4,a5
	li	a5,2
	bgtu	a4,a5,.L140
	.loc 1 508 62 discriminator 2
	la	a5,SmbiosMajorVersion
	lbu	a5,0(a5)
	.loc 1 508 39 discriminator 2
	mv	a4,a5
	li	a5,2
	bne	a4,a5,.L141
	.loc 1 508 93 discriminator 3
	la	a5,SmbiosMinorVersion
	lbu	a5,0(a5)
	.loc 1 508 71 discriminator 3
	mv	a4,a5
	li	a5,5
	bleu	a4,a5,.L141
.L140:
	.loc 1 508 114 discriminator 4
	ld	a5,-616(s0)
	lbu	a4,0(a5)
	lbu	a3,1(a5)
	slli	a3,a3,8
	or	a4,a3,a4
	lbu	a3,2(a5)
	slli	a3,a3,16
	or	a4,a3,a4
	lbu	a3,3(a5)
	slli	a3,a3,24
	or	a4,a3,a4
	lbu	a3,4(a5)
	slli	a3,a3,32
	or	a4,a3,a4
	lbu	a3,5(a5)
	slli	a3,a3,40
	or	a4,a3,a4
	lbu	a3,6(a5)
	slli	a3,a3,48
	or	a4,a3,a4
	lbu	a5,7(a5)
	slli	a5,a5,56
	or	a5,a5,a4
	.loc 1 508 119 discriminator 4
	lbu	a5,1(a5)
	.loc 1 508 104 discriminator 4
	mv	a4,a5
	li	a5,40
	bleu	a4,a5,.L141
	.loc 1 509 9
	la	a5,gShellDebug1HiiHandle
	ld	a5,0(a5)
	mv	a4,a5
	li	a3,226
	li	a2,0
	li	a1,-1
	li	a0,-1
	call	ShellPrintHiiEx@plt
	.loc 1 510 19
	ld	a5,-616(s0)
	lbu	a4,0(a5)
	lbu	a3,1(a5)
	slli	a3,a3,8
	or	a4,a3,a4
	lbu	a3,2(a5)
	slli	a3,a3,16
	or	a4,a3,a4
	lbu	a3,3(a5)
	slli	a3,a3,24
	or	a4,a3,a4
	lbu	a3,4(a5)
	slli	a3,a3,32
	or	a4,a3,a4
	lbu	a3,5(a5)
	slli	a3,a3,40
	or	a4,a3,a4
	lbu	a3,6(a5)
	slli	a3,a3,48
	or	a4,a3,a4
	lbu	a5,7(a5)
	slli	a5,a5,56
	or	a5,a5,a4
	.loc 1 510 26
	lbu	a4,40(a5)
	lbu	a5,41(a5)
	slli	a5,a5,8
	or	a5,a5,a4
	slli	a5,a5,48
	srli	a5,a5,48
	.loc 1 510 12
	sext.w	a4,a5
	li	a5,255
	bleu	a4,a5,.L142
	.loc 1 511 42
	ld	a5,-616(s0)
	lbu	a4,0(a5)
	lbu	a3,1(a5)
	slli	a3,a3,8
	or	a4,a3,a4
	lbu	a3,2(a5)
	slli	a3,a3,16
	or	a4,a3,a4
	lbu	a3,3(a5)
	slli	a3,a3,24
	or	a4,a3,a4
	lbu	a3,4(a5)
	slli	a3,a3,32
	or	a4,a3,a4
	lbu	a3,5(a5)
	slli	a3,a3,40
	or	a4,a3,a4
	lbu	a3,6(a5)
	slli	a3,a3,48
	or	a4,a3,a4
	lbu	a5,7(a5)
	slli	a5,a5,56
	or	a5,a5,a4
	.loc 1 511 11
	lbu	a4,40(a5)
	lbu	a5,41(a5)
	slli	a5,a5,8
	or	a5,a5,a4
	slli	a5,a5,48
	srli	a5,a5,48
	lbu	a4,-617(s0)
	mv	a1,a4
	mv	a0,a5
	call	DisplayProcessorFamily2
	j	.L141
.L142:
	.loc 1 513 48
	ld	a5,-616(s0)
	lbu	a4,0(a5)
	lbu	a3,1(a5)
	slli	a3,a3,8
	or	a4,a3,a4
	lbu	a3,2(a5)
	slli	a3,a3,16
	or	a4,a3,a4
	lbu	a3,3(a5)
	slli	a3,a3,24
	or	a4,a3,a4
	lbu	a3,4(a5)
	slli	a3,a3,32
	or	a4,a3,a4
	lbu	a3,5(a5)
	slli	a3,a3,40
	or	a4,a3,a4
	lbu	a3,6(a5)
	slli	a3,a3,48
	or	a4,a3,a4
	lbu	a5,7(a5)
	slli	a5,a5,56
	or	a5,a5,a4
	.loc 1 513 55
	lbu	a4,40(a5)
	lbu	a5,41(a5)
	slli	a5,a5,8
	or	a5,a5,a4
	slli	a5,a5,48
	srli	a5,a5,48
	.loc 1 513 11
	andi	a5,a5,0xff
	lbu	a4,-617(s0)
	mv	a1,a4
	mv	a0,a5
	call	DisplayProcessorFamily
.L141:
	.loc 1 517 31
	la	a5,SmbiosMajorVersion
	lbu	a5,0(a5)
	.loc 1 517 10
	mv	a4,a5
	li	a5,2
	bleu	a4,a5,.L143
	.loc 1 517 49 discriminator 1
	ld	a5,-616(s0)
	lbu	a4,0(a5)
	lbu	a3,1(a5)
	slli	a3,a3,8
	or	a4,a3,a4
	lbu	a3,2(a5)
	slli	a3,a3,16
	or	a4,a3,a4
	lbu	a3,3(a5)
	slli	a3,a3,24
	or	a4,a3,a4
	lbu	a3,4(a5)
	slli	a3,a3,32
	or	a4,a3,a4
	lbu	a3,5(a5)
	slli	a3,a3,40
	or	a4,a3,a4
	lbu	a3,6(a5)
	slli	a3,a3,48
	or	a4,a3,a4
	lbu	a5,7(a5)
	slli	a5,a5,56
	or	a5,a5,a4
	.loc 1 517 54 discriminator 1
	lbu	a5,1(a5)
	.loc 1 517 39 discriminator 1
	mv	a4,a5
	li	a5,42
	bleu	a4,a5,.L143
	.loc 1 518 60
	ld	a5,-616(s0)
	lbu	a4,0(a5)
	lbu	a3,1(a5)
	slli	a3,a3,8
	or	a4,a3,a4
	lbu	a3,2(a5)
	slli	a3,a3,16
	or	a4,a3,a4
	lbu	a3,3(a5)
	slli	a3,a3,24
	or	a4,a3,a4
	lbu	a3,4(a5)
	slli	a3,a3,32
	or	a4,a3,a4
	lbu	a3,5(a5)
	slli	a3,a3,40
	or	a4,a3,a4
	lbu	a3,6(a5)
	slli	a3,a3,48
	or	a4,a3,a4
	lbu	a5,7(a5)
	slli	a5,a5,56
	or	a5,a5,a4
	.loc 1 518 67
	lbu	a4,42(a5)
	lbu	a5,43(a5)
	slli	a5,a5,8
	or	a5,a5,a4
	slli	a5,a5,48
	srli	a5,a5,48
	.loc 1 518 9
	sext.w	a5,a5
	mv	a3,a5
	lla	a2,.LC48
	li	a1,-1
	li	a0,-1
	call	ShellPrintEx@plt
	.loc 1 519 62
	ld	a5,-616(s0)
	lbu	a4,0(a5)
	lbu	a3,1(a5)
	slli	a3,a3,8
	or	a4,a3,a4
	lbu	a3,2(a5)
	slli	a3,a3,16
	or	a4,a3,a4
	lbu	a3,3(a5)
	slli	a3,a3,24
	or	a4,a3,a4
	lbu	a3,4(a5)
	slli	a3,a3,32
	or	a4,a3,a4
	lbu	a3,5(a5)
	slli	a3,a3,40
	or	a4,a3,a4
	lbu	a3,6(a5)
	slli	a3,a3,48
	or	a4,a3,a4
	lbu	a5,7(a5)
	slli	a5,a5,56
	or	a5,a5,a4
	.loc 1 519 69
	lbu	a4,44(a5)
	lbu	a5,45(a5)
	slli	a5,a5,8
	or	a5,a5,a4
	slli	a5,a5,48
	srli	a5,a5,48
	.loc 1 519 9
	sext.w	a5,a5
	mv	a3,a5
	lla	a2,.LC49
	li	a1,-1
	li	a0,-1
	call	ShellPrintEx@plt
	.loc 1 520 62
	ld	a5,-616(s0)
	lbu	a4,0(a5)
	lbu	a3,1(a5)
	slli	a3,a3,8
	or	a4,a3,a4
	lbu	a3,2(a5)
	slli	a3,a3,16
	or	a4,a3,a4
	lbu	a3,3(a5)
	slli	a3,a3,24
	or	a4,a3,a4
	lbu	a3,4(a5)
	slli	a3,a3,32
	or	a4,a3,a4
	lbu	a3,5(a5)
	slli	a3,a3,40
	or	a4,a3,a4
	lbu	a3,6(a5)
	slli	a3,a3,48
	or	a4,a3,a4
	lbu	a5,7(a5)
	slli	a5,a5,56
	or	a5,a5,a4
	.loc 1 520 69
	lbu	a4,46(a5)
	lbu	a5,47(a5)
	slli	a5,a5,8
	or	a5,a5,a4
	slli	a5,a5,48
	srli	a5,a5,48
	.loc 1 520 9
	sext.w	a5,a5
	mv	a3,a5
	lla	a2,.LC50
	li	a1,-1
	li	a0,-1
	call	ShellPrintEx@plt
.L143:
	.loc 1 523 31
	la	a5,SmbiosMajorVersion
	lbu	a5,0(a5)
	.loc 1 523 10
	mv	a4,a5
	li	a5,3
	bgtu	a4,a5,.L144
	.loc 1 523 62 discriminator 2
	la	a5,SmbiosMajorVersion
	lbu	a5,0(a5)
	.loc 1 523 39 discriminator 2
	mv	a4,a5
	li	a5,3
	bne	a4,a5,.L145
	.loc 1 523 93 discriminator 3
	la	a5,SmbiosMinorVersion
	lbu	a5,0(a5)
	.loc 1 523 71 discriminator 3
	mv	a4,a5
	li	a5,5
	bleu	a4,a5,.L145
.L144:
	.loc 1 523 114 discriminator 4
	ld	a5,-616(s0)
	lbu	a4,0(a5)
	lbu	a3,1(a5)
	slli	a3,a3,8
	or	a4,a3,a4
	lbu	a3,2(a5)
	slli	a3,a3,16
	or	a4,a3,a4
	lbu	a3,3(a5)
	slli	a3,a3,24
	or	a4,a3,a4
	lbu	a3,4(a5)
	slli	a3,a3,32
	or	a4,a3,a4
	lbu	a3,5(a5)
	slli	a3,a3,40
	or	a4,a3,a4
	lbu	a3,6(a5)
	slli	a3,a3,48
	or	a4,a3,a4
	lbu	a5,7(a5)
	slli	a5,a5,56
	or	a5,a5,a4
	.loc 1 523 119 discriminator 4
	lbu	a5,1(a5)
	.loc 1 523 104 discriminator 4
	mv	a4,a5
	li	a5,48
	bleu	a4,a5,.L145
	.loc 1 524 62
	ld	a5,-616(s0)
	lbu	a4,0(a5)
	lbu	a3,1(a5)
	slli	a3,a3,8
	or	a4,a3,a4
	lbu	a3,2(a5)
	slli	a3,a3,16
	or	a4,a3,a4
	lbu	a3,3(a5)
	slli	a3,a3,24
	or	a4,a3,a4
	lbu	a3,4(a5)
	slli	a3,a3,32
	or	a4,a3,a4
	lbu	a3,5(a5)
	slli	a3,a3,40
	or	a4,a3,a4
	lbu	a3,6(a5)
	slli	a3,a3,48
	or	a4,a3,a4
	lbu	a5,7(a5)
	slli	a5,a5,56
	or	a5,a5,a4
	.loc 1 524 69
	lbu	a4,48(a5)
	lbu	a5,49(a5)
	slli	a5,a5,8
	or	a5,a5,a4
	slli	a5,a5,48
	srli	a5,a5,48
	.loc 1 524 9
	sext.w	a5,a5
	mv	a3,a5
	lla	a2,.LC51
	li	a1,-1
	li	a0,-1
	call	ShellPrintEx@plt
.L145:
	.loc 1 527 31
	la	a5,SmbiosMajorVersion
	lbu	a5,0(a5)
	.loc 1 527 10
	mv	a4,a5
	li	a5,3
	bgtu	a4,a5,.L146
	.loc 1 527 62 discriminator 2
	la	a5,SmbiosMajorVersion
	lbu	a5,0(a5)
	.loc 1 527 39 discriminator 2
	mv	a4,a5
	li	a5,3
	bne	a4,a5,.L309
	.loc 1 527 93 discriminator 3
	la	a5,SmbiosMinorVersion
	lbu	a5,0(a5)
	.loc 1 527 71 discriminator 3
	mv	a4,a5
	li	a5,7
	bleu	a4,a5,.L309
.L146:
	.loc 1 527 114 discriminator 4
	ld	a5,-616(s0)
	lbu	a4,0(a5)
	lbu	a3,1(a5)
	slli	a3,a3,8
	or	a4,a3,a4
	lbu	a3,2(a5)
	slli	a3,a3,16
	or	a4,a3,a4
	lbu	a3,3(a5)
	slli	a3,a3,24
	or	a4,a3,a4
	lbu	a3,4(a5)
	slli	a3,a3,32
	or	a4,a3,a4
	lbu	a3,5(a5)
	slli	a3,a3,40
	or	a4,a3,a4
	lbu	a3,6(a5)
	slli	a3,a3,48
	or	a4,a3,a4
	lbu	a5,7(a5)
	slli	a5,a5,56
	or	a5,a5,a4
	.loc 1 527 119 discriminator 4
	lbu	a5,1(a5)
	.loc 1 527 104 discriminator 4
	mv	a4,a5
	li	a5,50
	bleu	a4,a5,.L309
	.loc 1 528 87
	ld	a5,-616(s0)
	lbu	a4,0(a5)
	lbu	a3,1(a5)
	slli	a3,a3,8
	or	a4,a3,a4
	lbu	a3,2(a5)
	slli	a3,a3,16
	or	a4,a3,a4
	lbu	a3,3(a5)
	slli	a3,a3,24
	or	a4,a3,a4
	lbu	a3,4(a5)
	slli	a3,a3,32
	or	a4,a3,a4
	lbu	a3,5(a5)
	slli	a3,a3,40
	or	a4,a3,a4
	lbu	a3,6(a5)
	slli	a3,a3,48
	or	a4,a3,a4
	lbu	a5,7(a5)
	slli	a5,a5,56
	or	a5,a5,a4
	.loc 1 528 94
	lbu	a5,50(a5)
	.loc 1 528 9
	mv	a1,a5
	ld	a0,-616(s0)
	call	LibGetSmbiosString@plt
	mv	a5,a0
	.loc 1 528 9 is_stmt 0 discriminator 1
	mv	a3,a5
	lla	a2,.LC52
	li	a1,-1
	li	a0,-1
	call	ShellPrintEx@plt
	.loc 1 531 7 is_stmt 1
	j	.L309
.L69:
.LBB19:
	.loc 1 539 23
	ld	a5,-616(s0)
	lbu	a4,0(a5)
	lbu	a3,1(a5)
	slli	a3,a3,8
	or	a4,a3,a4
	lbu	a3,2(a5)
	slli	a3,a3,16
	or	a4,a3,a4
	lbu	a3,3(a5)
	slli	a3,a3,24
	or	a4,a3,a4
	lbu	a3,4(a5)
	slli	a3,a3,32
	or	a4,a3,a4
	lbu	a3,5(a5)
	slli	a3,a3,40
	or	a4,a3,a4
	lbu	a3,6(a5)
	slli	a3,a3,48
	or	a4,a3,a4
	lbu	a5,7(a5)
	slli	a5,a5,56
	or	a5,a5,a4
	.loc 1 539 15
	lbu	a5,14(a5)
	sb	a5,-457(s0)
	.loc 1 541 41
	ld	a5,-616(s0)
	lbu	a4,0(a5)
	lbu	a3,1(a5)
	slli	a3,a3,8
	or	a4,a3,a4
	lbu	a3,2(a5)
	slli	a3,a3,16
	or	a4,a3,a4
	lbu	a3,3(a5)
	slli	a3,a3,24
	or	a4,a3,a4
	lbu	a3,4(a5)
	slli	a3,a3,32
	or	a4,a3,a4
	lbu	a3,5(a5)
	slli	a3,a3,40
	or	a4,a3,a4
	lbu	a3,6(a5)
	slli	a3,a3,48
	or	a4,a3,a4
	lbu	a5,7(a5)
	slli	a5,a5,56
	or	a5,a5,a4
	.loc 1 541 7
	lbu	a5,4(a5)
	lbu	a4,-617(s0)
	mv	a1,a4
	mv	a0,a5
	call	DisplayMcErrorDetectMethod@plt
	.loc 1 542 58
	ld	a5,-616(s0)
	lbu	a4,0(a5)
	lbu	a3,1(a5)
	slli	a3,a3,8
	or	a4,a3,a4
	lbu	a3,2(a5)
	slli	a3,a3,16
	or	a4,a3,a4
	lbu	a3,3(a5)
	slli	a3,a3,24
	or	a4,a3,a4
	lbu	a3,4(a5)
	slli	a3,a3,32
	or	a4,a3,a4
	lbu	a3,5(a5)
	slli	a3,a3,40
	or	a4,a3,a4
	lbu	a3,6(a5)
	slli	a3,a3,48
	or	a4,a3,a4
	lbu	a5,7(a5)
	slli	a5,a5,56
	or	a5,a5,a4
	.loc 1 542 50
	addi	a5,a5,5
	.loc 1 542 7
	lbu	a5,0(a5)
	lbu	a4,-617(s0)
	mv	a1,a4
	mv	a0,a5
	call	DisplayMcErrorCorrectCapability@plt
	.loc 1 543 7
	la	a5,gShellDebug1HiiHandle
	ld	a5,0(a5)
	mv	a4,a5
	li	a3,152
	li	a2,0
	li	a1,-1
	li	a0,-1
	call	ShellPrintHiiEx@plt
	.loc 1 544 41
	ld	a5,-616(s0)
	lbu	a4,0(a5)
	lbu	a3,1(a5)
	slli	a3,a3,8
	or	a4,a3,a4
	lbu	a3,2(a5)
	slli	a3,a3,16
	or	a4,a3,a4
	lbu	a3,3(a5)
	slli	a3,a3,24
	or	a4,a3,a4
	lbu	a3,4(a5)
	slli	a3,a3,32
	or	a4,a3,a4
	lbu	a3,5(a5)
	slli	a3,a3,40
	or	a4,a3,a4
	lbu	a3,6(a5)
	slli	a3,a3,48
	or	a4,a3,a4
	lbu	a5,7(a5)
	slli	a5,a5,56
	or	a5,a5,a4
	.loc 1 544 7
	lbu	a5,6(a5)
	lbu	a4,-617(s0)
	mv	a1,a4
	mv	a0,a5
	call	DisplayMcInterleaveSupport@plt
	.loc 1 545 7
	la	a5,gShellDebug1HiiHandle
	ld	a5,0(a5)
	mv	a4,a5
	li	a3,153
	li	a2,0
	li	a1,-1
	li	a0,-1
	call	ShellPrintHiiEx@plt
	.loc 1 546 41
	ld	a5,-616(s0)
	lbu	a4,0(a5)
	lbu	a3,1(a5)
	slli	a3,a3,8
	or	a4,a3,a4
	lbu	a3,2(a5)
	slli	a3,a3,16
	or	a4,a3,a4
	lbu	a3,3(a5)
	slli	a3,a3,24
	or	a4,a3,a4
	lbu	a3,4(a5)
	slli	a3,a3,32
	or	a4,a3,a4
	lbu	a3,5(a5)
	slli	a3,a3,40
	or	a4,a3,a4
	lbu	a3,6(a5)
	slli	a3,a3,48
	or	a4,a3,a4
	lbu	a5,7(a5)
	slli	a5,a5,56
	or	a5,a5,a4
	.loc 1 546 7
	lbu	a5,7(a5)
	lbu	a4,-617(s0)
	mv	a1,a4
	mv	a0,a5
	call	DisplayMcInterleaveSupport@plt
	.loc 1 547 41
	ld	a5,-616(s0)
	lbu	a4,0(a5)
	lbu	a3,1(a5)
	slli	a3,a3,8
	or	a4,a3,a4
	lbu	a3,2(a5)
	slli	a3,a3,16
	or	a4,a3,a4
	lbu	a3,3(a5)
	slli	a3,a3,24
	or	a4,a3,a4
	lbu	a3,4(a5)
	slli	a3,a3,32
	or	a4,a3,a4
	lbu	a3,5(a5)
	slli	a3,a3,40
	or	a4,a3,a4
	lbu	a3,6(a5)
	slli	a3,a3,48
	or	a4,a3,a4
	lbu	a5,7(a5)
	slli	a5,a5,56
	or	a5,a5,a4
	.loc 1 547 7
	lbu	a5,8(a5)
	lbu	a3,-617(s0)
	lbu	a4,-457(s0)
	mv	a2,a3
	mv	a1,a4
	mv	a0,a5
	call	DisplayMaxMemoryModuleSize
	.loc 1 548 49
	ld	a5,-616(s0)
	lbu	a4,0(a5)
	lbu	a3,1(a5)
	slli	a3,a3,8
	or	a4,a3,a4
	lbu	a3,2(a5)
	slli	a3,a3,16
	or	a4,a3,a4
	lbu	a3,3(a5)
	slli	a3,a3,24
	or	a4,a3,a4
	lbu	a3,4(a5)
	slli	a3,a3,32
	or	a4,a3,a4
	lbu	a3,5(a5)
	slli	a3,a3,40
	or	a4,a3,a4
	lbu	a3,6(a5)
	slli	a3,a3,48
	or	a4,a3,a4
	lbu	a5,7(a5)
	slli	a5,a5,56
	or	a5,a5,a4
	.loc 1 548 41
	addi	a5,a5,9
	.loc 1 548 7
	lhu	a5,0(a5)
	lbu	a4,-617(s0)
	mv	a1,a4
	mv	a0,a5
	call	DisplayMcMemorySpeeds@plt
	.loc 1 549 34
	ld	a5,-616(s0)
	lbu	a4,0(a5)
	lbu	a3,1(a5)
	slli	a3,a3,8
	or	a4,a3,a4
	lbu	a3,2(a5)
	slli	a3,a3,16
	or	a4,a3,a4
	lbu	a3,3(a5)
	slli	a3,a3,24
	or	a4,a3,a4
	lbu	a3,4(a5)
	slli	a3,a3,32
	or	a4,a3,a4
	lbu	a3,5(a5)
	slli	a3,a3,40
	or	a4,a3,a4
	lbu	a3,6(a5)
	slli	a3,a3,48
	or	a4,a3,a4
	lbu	a5,7(a5)
	slli	a5,a5,56
	or	a5,a5,a4
	.loc 1 549 7
	lbu	a4,11(a5)
	lbu	a5,12(a5)
	slli	a5,a5,8
	or	a5,a5,a4
	slli	a5,a5,48
	srli	a5,a5,48
	lbu	a4,-617(s0)
	mv	a1,a4
	mv	a0,a5
	call	DisplayMmMemoryType@plt
	.loc 1 550 41
	ld	a5,-616(s0)
	lbu	a4,0(a5)
	lbu	a3,1(a5)
	slli	a3,a3,8
	or	a4,a3,a4
	lbu	a3,2(a5)
	slli	a3,a3,16
	or	a4,a3,a4
	lbu	a3,3(a5)
	slli	a3,a3,24
	or	a4,a3,a4
	lbu	a3,4(a5)
	slli	a3,a3,32
	or	a4,a3,a4
	lbu	a3,5(a5)
	slli	a3,a3,40
	or	a4,a3,a4
	lbu	a3,6(a5)
	slli	a3,a3,48
	or	a4,a3,a4
	lbu	a5,7(a5)
	slli	a5,a5,56
	or	a5,a5,a4
	.loc 1 550 7
	lbu	a5,13(a5)
	lbu	a4,-617(s0)
	mv	a1,a4
	mv	a0,a5
	call	DisplayMemoryModuleVoltage@plt
	.loc 1 551 12
	lla	a3,.LC53
	lla	a2,.LC12
	li	a1,-1
	li	a0,-1
	call	ShellPrintEx@plt
	.loc 1 551 102 discriminator 1
	ld	a5,-616(s0)
	lbu	a4,0(a5)
	lbu	a3,1(a5)
	slli	a3,a3,8
	or	a4,a3,a4
	lbu	a3,2(a5)
	slli	a3,a3,16
	or	a4,a3,a4
	lbu	a3,3(a5)
	slli	a3,a3,24
	or	a4,a3,a4
	lbu	a3,4(a5)
	slli	a3,a3,32
	or	a4,a3,a4
	lbu	a3,5(a5)
	slli	a3,a3,40
	or	a4,a3,a4
	lbu	a3,6(a5)
	slli	a3,a3,48
	or	a4,a3,a4
	lbu	a5,7(a5)
	slli	a5,a5,56
	or	a5,a5,a4
	.loc 1 551 109 discriminator 1
	lbu	a5,14(a5)
	.loc 1 551 65 discriminator 1
	sext.w	a5,a5
	mv	a3,a5
	lla	a2,.LC26
	li	a1,-1
	li	a0,-1
	call	ShellPrintEx@plt
	.loc 1 555 52
	ld	a5,-72(s0)
	addi	a5,a5,15
	.loc 1 555 7
	lbu	a3,-617(s0)
	lbu	a4,-457(s0)
	mv	a2,a3
	mv	a1,a4
	mv	a0,a5
	call	DisplayMemoryModuleConfigHandles
	.loc 1 556 56
	lbu	a5,-457(s0)
	sext.w	a5,a5
	slliw	a5,a5,1
	sext.w	a5,a5
	.loc 1 556 52
	addiw	a5,a5,15
	sext.w	a5,a5
	mv	a4,a5
	.loc 1 556 46
	ld	a5,-72(s0)
	add	a5,a5,a4
	.loc 1 556 7
	lbu	a5,0(a5)
	lbu	a4,-617(s0)
	mv	a1,a4
	mv	a0,a5
	call	DisplayMcErrorCorrectCapability@plt
	.loc 1 557 7
	j	.L85
.L68:
.LBE19:
.LBB20:
	.loc 1 564 79
	ld	a5,-616(s0)
	lbu	a4,0(a5)
	lbu	a3,1(a5)
	slli	a3,a3,8
	or	a4,a3,a4
	lbu	a3,2(a5)
	slli	a3,a3,16
	or	a4,a3,a4
	lbu	a3,3(a5)
	slli	a3,a3,24
	or	a4,a3,a4
	lbu	a3,4(a5)
	slli	a3,a3,32
	or	a4,a3,a4
	lbu	a3,5(a5)
	slli	a3,a3,40
	or	a4,a3,a4
	lbu	a3,6(a5)
	slli	a3,a3,48
	or	a4,a3,a4
	lbu	a5,7(a5)
	slli	a5,a5,56
	or	a5,a5,a4
	.loc 1 564 86
	lbu	a5,4(a5)
	.loc 1 564 42
	mv	a1,a5
	ld	a0,-616(s0)
	call	LibGetSmbiosString@plt
	sd	a0,-456(s0)
	.loc 1 564 109 discriminator 1
	lla	a3,.LC54
	lla	a2,.LC12
	li	a1,-1
	li	a0,-1
	call	ShellPrintEx@plt
	.loc 1 564 156 discriminator 2
	ld	a5,-456(s0)
	beq	a5,zero,.L148
	.loc 1 564 156 is_stmt 0 discriminator 3
	ld	a5,-456(s0)
	j	.L149
.L148:
	.loc 1 564 156 discriminator 4
	lla	a5,.LC13
.L149:
	.loc 1 564 156 discriminator 6
	mv	a3,a5
	lla	a2,.LC14
	li	a1,-1
	li	a0,-1
	call	ShellPrintEx@plt
.LBE20:
	.loc 1 565 39 is_stmt 1
	ld	a5,-616(s0)
	lbu	a4,0(a5)
	lbu	a3,1(a5)
	slli	a3,a3,8
	or	a4,a3,a4
	lbu	a3,2(a5)
	slli	a3,a3,16
	or	a4,a3,a4
	lbu	a3,3(a5)
	slli	a3,a3,24
	or	a4,a3,a4
	lbu	a3,4(a5)
	slli	a3,a3,32
	or	a4,a3,a4
	lbu	a3,5(a5)
	slli	a3,a3,40
	or	a4,a3,a4
	lbu	a3,6(a5)
	slli	a3,a3,48
	or	a4,a3,a4
	lbu	a5,7(a5)
	slli	a5,a5,56
	or	a5,a5,a4
	.loc 1 565 7
	lbu	a5,5(a5)
	lbu	a4,-617(s0)
	mv	a1,a4
	mv	a0,a5
	call	DisplayMmBankConnections
	.loc 1 566 12
	lla	a3,.LC55
	lla	a2,.LC12
	li	a1,-1
	li	a0,-1
	call	ShellPrintEx@plt
	.loc 1 566 91 discriminator 1
	ld	a5,-616(s0)
	lbu	a4,0(a5)
	lbu	a3,1(a5)
	slli	a3,a3,8
	or	a4,a3,a4
	lbu	a3,2(a5)
	slli	a3,a3,16
	or	a4,a3,a4
	lbu	a3,3(a5)
	slli	a3,a3,24
	or	a4,a3,a4
	lbu	a3,4(a5)
	slli	a3,a3,32
	or	a4,a3,a4
	lbu	a3,5(a5)
	slli	a3,a3,40
	or	a4,a3,a4
	lbu	a3,6(a5)
	slli	a3,a3,48
	or	a4,a3,a4
	lbu	a5,7(a5)
	slli	a5,a5,56
	or	a5,a5,a4
	.loc 1 566 98 discriminator 1
	lbu	a5,6(a5)
	.loc 1 566 54 discriminator 1
	sext.w	a5,a5
	mv	a3,a5
	lla	a2,.LC26
	li	a1,-1
	li	a0,-1
	call	ShellPrintEx@plt
	.loc 1 567 47
	ld	a5,-616(s0)
	lbu	a4,0(a5)
	lbu	a3,1(a5)
	slli	a3,a3,8
	or	a4,a3,a4
	lbu	a3,2(a5)
	slli	a3,a3,16
	or	a4,a3,a4
	lbu	a3,3(a5)
	slli	a3,a3,24
	or	a4,a3,a4
	lbu	a3,4(a5)
	slli	a3,a3,32
	or	a4,a3,a4
	lbu	a3,5(a5)
	slli	a3,a3,40
	or	a4,a3,a4
	lbu	a3,6(a5)
	slli	a3,a3,48
	or	a4,a3,a4
	lbu	a5,7(a5)
	slli	a5,a5,56
	or	a5,a5,a4
	.loc 1 567 39
	addi	a5,a5,7
	.loc 1 567 7
	lhu	a5,0(a5)
	lbu	a4,-617(s0)
	mv	a1,a4
	mv	a0,a5
	call	DisplayMmMemoryType@plt
	.loc 1 568 7
	la	a5,gShellDebug1HiiHandle
	ld	a5,0(a5)
	mv	a4,a5
	li	a3,154
	li	a2,0
	li	a1,-1
	li	a0,-1
	call	ShellPrintHiiEx@plt
	.loc 1 569 46
	ld	a5,-616(s0)
	lbu	a4,0(a5)
	lbu	a3,1(a5)
	slli	a3,a3,8
	or	a4,a3,a4
	lbu	a3,2(a5)
	slli	a3,a3,16
	or	a4,a3,a4
	lbu	a3,3(a5)
	slli	a3,a3,24
	or	a4,a3,a4
	lbu	a3,4(a5)
	slli	a3,a3,32
	or	a4,a3,a4
	lbu	a3,5(a5)
	slli	a3,a3,40
	or	a4,a3,a4
	lbu	a3,6(a5)
	slli	a3,a3,48
	or	a4,a3,a4
	lbu	a5,7(a5)
	slli	a5,a5,56
	or	a5,a5,a4
	.loc 1 569 38
	addi	a5,a5,9
	.loc 1 569 7
	lbu	a5,0(a5)
	lbu	a4,-617(s0)
	mv	a1,a4
	mv	a0,a5
	call	DisplayMmMemorySize
	.loc 1 570 7
	la	a5,gShellDebug1HiiHandle
	ld	a5,0(a5)
	mv	a4,a5
	li	a3,155
	li	a2,0
	li	a1,-1
	li	a0,-1
	call	ShellPrintHiiEx@plt
	.loc 1 571 46
	ld	a5,-616(s0)
	lbu	a4,0(a5)
	lbu	a3,1(a5)
	slli	a3,a3,8
	or	a4,a3,a4
	lbu	a3,2(a5)
	slli	a3,a3,16
	or	a4,a3,a4
	lbu	a3,3(a5)
	slli	a3,a3,24
	or	a4,a3,a4
	lbu	a3,4(a5)
	slli	a3,a3,32
	or	a4,a3,a4
	lbu	a3,5(a5)
	slli	a3,a3,40
	or	a4,a3,a4
	lbu	a3,6(a5)
	slli	a3,a3,48
	or	a4,a3,a4
	lbu	a5,7(a5)
	slli	a5,a5,56
	or	a5,a5,a4
	.loc 1 571 38
	addi	a5,a5,10
	.loc 1 571 7
	lbu	a5,0(a5)
	lbu	a4,-617(s0)
	mv	a1,a4
	mv	a0,a5
	call	DisplayMmMemorySize
	.loc 1 572 35
	ld	a5,-616(s0)
	lbu	a4,0(a5)
	lbu	a3,1(a5)
	slli	a3,a3,8
	or	a4,a3,a4
	lbu	a3,2(a5)
	slli	a3,a3,16
	or	a4,a3,a4
	lbu	a3,3(a5)
	slli	a3,a3,24
	or	a4,a3,a4
	lbu	a3,4(a5)
	slli	a3,a3,32
	or	a4,a3,a4
	lbu	a3,5(a5)
	slli	a3,a3,40
	or	a4,a3,a4
	lbu	a3,6(a5)
	slli	a3,a3,48
	or	a4,a3,a4
	lbu	a5,7(a5)
	slli	a5,a5,56
	or	a5,a5,a4
	.loc 1 572 7
	lbu	a5,11(a5)
	lbu	a4,-617(s0)
	mv	a1,a4
	mv	a0,a5
	call	DisplayMmErrorStatus@plt
	.loc 1 573 7
	j	.L85
.L67:
.LBB21:
	.loc 1 579 79
	ld	a5,-616(s0)
	lbu	a4,0(a5)
	lbu	a3,1(a5)
	slli	a3,a3,8
	or	a4,a3,a4
	lbu	a3,2(a5)
	slli	a3,a3,16
	or	a4,a3,a4
	lbu	a3,3(a5)
	slli	a3,a3,24
	or	a4,a3,a4
	lbu	a3,4(a5)
	slli	a3,a3,32
	or	a4,a3,a4
	lbu	a3,5(a5)
	slli	a3,a3,40
	or	a4,a3,a4
	lbu	a3,6(a5)
	slli	a3,a3,48
	or	a4,a3,a4
	lbu	a5,7(a5)
	slli	a5,a5,56
	or	a5,a5,a4
	.loc 1 579 86
	lbu	a5,4(a5)
	.loc 1 579 42
	mv	a1,a5
	ld	a0,-616(s0)
	call	LibGetSmbiosString@plt
	sd	a0,-448(s0)
	.loc 1 579 109 discriminator 1
	lla	a3,.LC54
	lla	a2,.LC12
	li	a1,-1
	li	a0,-1
	call	ShellPrintEx@plt
	.loc 1 579 156 discriminator 2
	ld	a5,-448(s0)
	beq	a5,zero,.L150
	.loc 1 579 156 is_stmt 0 discriminator 3
	ld	a5,-448(s0)
	j	.L151
.L150:
	.loc 1 579 156 discriminator 4
	lla	a5,.LC13
.L151:
	.loc 1 579 156 discriminator 6
	mv	a3,a5
	lla	a2,.LC14
	li	a1,-1
	li	a0,-1
	call	ShellPrintEx@plt
.LBE21:
	.loc 1 580 40 is_stmt 1
	ld	a5,-616(s0)
	lbu	a4,0(a5)
	lbu	a3,1(a5)
	slli	a3,a3,8
	or	a4,a3,a4
	lbu	a3,2(a5)
	slli	a3,a3,16
	or	a4,a3,a4
	lbu	a3,3(a5)
	slli	a3,a3,24
	or	a4,a3,a4
	lbu	a3,4(a5)
	slli	a3,a3,32
	or	a4,a3,a4
	lbu	a3,5(a5)
	slli	a3,a3,40
	or	a4,a3,a4
	lbu	a3,6(a5)
	slli	a3,a3,48
	or	a4,a3,a4
	lbu	a5,7(a5)
	slli	a5,a5,56
	or	a5,a5,a4
	.loc 1 580 7
	lbu	a4,5(a5)
	lbu	a5,6(a5)
	slli	a5,a5,8
	or	a5,a5,a4
	slli	a5,a5,48
	srli	a5,a5,48
	lbu	a4,-617(s0)
	mv	a1,a4
	mv	a0,a5
	call	DisplayCacheConfiguration
	.loc 1 581 12
	lla	a3,.LC56
	lla	a2,.LC12
	li	a1,-1
	li	a0,-1
	call	ShellPrintEx@plt
	.loc 1 581 97 discriminator 1
	ld	a5,-616(s0)
	lbu	a4,0(a5)
	lbu	a3,1(a5)
	slli	a3,a3,8
	or	a4,a3,a4
	lbu	a3,2(a5)
	slli	a3,a3,16
	or	a4,a3,a4
	lbu	a3,3(a5)
	slli	a3,a3,24
	or	a4,a3,a4
	lbu	a3,4(a5)
	slli	a3,a3,32
	or	a4,a3,a4
	lbu	a3,5(a5)
	slli	a3,a3,40
	or	a4,a3,a4
	lbu	a3,6(a5)
	slli	a3,a3,48
	or	a4,a3,a4
	lbu	a5,7(a5)
	slli	a5,a5,56
	or	a5,a5,a4
	.loc 1 581 104 discriminator 1
	lbu	a4,7(a5)
	lbu	a5,8(a5)
	slli	a5,a5,8
	or	a5,a5,a4
	slli	a5,a5,48
	srli	a5,a5,48
	.loc 1 581 58 discriminator 1
	sext.w	a5,a5
	mv	a3,a5
	lla	a2,.LC24
	li	a1,-1
	li	a0,-1
	call	ShellPrintEx@plt
	.loc 1 582 12
	lla	a3,.LC57
	lla	a2,.LC12
	li	a1,-1
	li	a0,-1
	call	ShellPrintEx@plt
	.loc 1 582 94 discriminator 1
	ld	a5,-616(s0)
	lbu	a4,0(a5)
	lbu	a3,1(a5)
	slli	a3,a3,8
	or	a4,a3,a4
	lbu	a3,2(a5)
	slli	a3,a3,16
	or	a4,a3,a4
	lbu	a3,3(a5)
	slli	a3,a3,24
	or	a4,a3,a4
	lbu	a3,4(a5)
	slli	a3,a3,32
	or	a4,a3,a4
	lbu	a3,5(a5)
	slli	a3,a3,40
	or	a4,a3,a4
	lbu	a3,6(a5)
	slli	a3,a3,48
	or	a4,a3,a4
	lbu	a5,7(a5)
	slli	a5,a5,56
	or	a5,a5,a4
	.loc 1 582 101 discriminator 1
	lbu	a4,9(a5)
	lbu	a5,10(a5)
	slli	a5,a5,8
	or	a5,a5,a4
	slli	a5,a5,48
	srli	a5,a5,48
	.loc 1 582 55 discriminator 1
	sext.w	a5,a5
	mv	a3,a5
	lla	a2,.LC24
	li	a1,-1
	li	a0,-1
	call	ShellPrintEx@plt
	.loc 1 583 12
	lla	a3,.LC58
	lla	a2,.LC12
	li	a1,-1
	li	a0,-1
	call	ShellPrintEx@plt
	.loc 1 583 98 discriminator 1
	ld	a5,-616(s0)
	lbu	a4,0(a5)
	lbu	a3,1(a5)
	slli	a3,a3,8
	or	a4,a3,a4
	lbu	a3,2(a5)
	slli	a3,a3,16
	or	a4,a3,a4
	lbu	a3,3(a5)
	slli	a3,a3,24
	or	a4,a3,a4
	lbu	a3,4(a5)
	slli	a3,a3,32
	or	a4,a3,a4
	lbu	a3,5(a5)
	slli	a3,a3,40
	or	a4,a3,a4
	lbu	a3,6(a5)
	slli	a3,a3,48
	or	a4,a3,a4
	lbu	a5,7(a5)
	slli	a5,a5,56
	or	a5,a5,a4
	.loc 1 583 59 discriminator 1
	lbu	a4,11(a5)
	lbu	a5,12(a5)
	slli	a5,a5,8
	or	a4,a5,a4
	li	a5,0
	slli	a4,a4,48
	srli	a4,a4,48
	li	a3,-65536
	and	a5,a5,a3
	or	a5,a5,a4
	mv	a3,a5
	lla	a2,.LC24
	li	a1,-1
	li	a0,-1
	call	ShellPrintEx@plt
	.loc 1 584 12
	lla	a3,.LC59
	lla	a2,.LC12
	li	a1,-1
	li	a0,-1
	call	ShellPrintEx@plt
	.loc 1 584 96 discriminator 1
	ld	a5,-616(s0)
	lbu	a4,0(a5)
	lbu	a3,1(a5)
	slli	a3,a3,8
	or	a4,a3,a4
	lbu	a3,2(a5)
	slli	a3,a3,16
	or	a4,a3,a4
	lbu	a3,3(a5)
	slli	a3,a3,24
	or	a4,a3,a4
	lbu	a3,4(a5)
	slli	a3,a3,32
	or	a4,a3,a4
	lbu	a3,5(a5)
	slli	a3,a3,40
	or	a4,a3,a4
	lbu	a3,6(a5)
	slli	a3,a3,48
	or	a4,a3,a4
	lbu	a5,7(a5)
	slli	a5,a5,56
	or	a5,a5,a4
	.loc 1 584 57 discriminator 1
	lbu	a4,13(a5)
	lbu	a5,14(a5)
	slli	a5,a5,8
	or	a4,a5,a4
	li	a5,0
	slli	a4,a4,48
	srli	a4,a4,48
	li	a3,-65536
	and	a5,a5,a3
	or	a5,a5,a4
	mv	a3,a5
	lla	a2,.LC24
	li	a1,-1
	li	a0,-1
	call	ShellPrintEx@plt
	.loc 1 585 71
	ld	a5,-616(s0)
	lbu	a4,0(a5)
	lbu	a3,1(a5)
	slli	a3,a3,8
	or	a4,a3,a4
	lbu	a3,2(a5)
	slli	a3,a3,16
	or	a4,a3,a4
	lbu	a3,3(a5)
	slli	a3,a3,24
	or	a4,a3,a4
	lbu	a3,4(a5)
	slli	a3,a3,32
	or	a4,a3,a4
	lbu	a3,5(a5)
	slli	a3,a3,40
	or	a4,a3,a4
	lbu	a3,6(a5)
	slli	a3,a3,48
	or	a4,a3,a4
	lbu	a5,7(a5)
	slli	a5,a5,56
	or	a5,a5,a4
	.loc 1 585 63
	addi	a5,a5,13
	.loc 1 585 7
	mv	a0,a5
	call	ReadUnaligned16@plt
	mv	a5,a0
	mv	a4,a5
	.loc 1 585 7 is_stmt 0 discriminator 1
	lbu	a5,-617(s0)
	mv	a1,a5
	mv	a0,a4
	call	DisplayCacheSRAMType@plt
	.loc 1 586 12 is_stmt 1
	lla	a3,.LC60
	lla	a2,.LC12
	li	a1,-1
	li	a0,-1
	call	ShellPrintEx@plt
	.loc 1 586 91 discriminator 1
	ld	a5,-616(s0)
	lbu	a4,0(a5)
	lbu	a3,1(a5)
	slli	a3,a3,8
	or	a4,a3,a4
	lbu	a3,2(a5)
	slli	a3,a3,16
	or	a4,a3,a4
	lbu	a3,3(a5)
	slli	a3,a3,24
	or	a4,a3,a4
	lbu	a3,4(a5)
	slli	a3,a3,32
	or	a4,a3,a4
	lbu	a3,5(a5)
	slli	a3,a3,40
	or	a4,a3,a4
	lbu	a3,6(a5)
	slli	a3,a3,48
	or	a4,a3,a4
	lbu	a5,7(a5)
	slli	a5,a5,56
	or	a5,a5,a4
	.loc 1 586 98 discriminator 1
	lbu	a5,15(a5)
	.loc 1 586 52 discriminator 1
	sext.w	a5,a5
	mv	a3,a5
	lla	a2,.LC24
	li	a1,-1
	li	a0,-1
	call	ShellPrintEx@plt
	.loc 1 587 44
	ld	a5,-616(s0)
	lbu	a4,0(a5)
	lbu	a3,1(a5)
	slli	a3,a3,8
	or	a4,a3,a4
	lbu	a3,2(a5)
	slli	a3,a3,16
	or	a4,a3,a4
	lbu	a3,3(a5)
	slli	a3,a3,24
	or	a4,a3,a4
	lbu	a3,4(a5)
	slli	a3,a3,32
	or	a4,a3,a4
	lbu	a3,5(a5)
	slli	a3,a3,40
	or	a4,a3,a4
	lbu	a3,6(a5)
	slli	a3,a3,48
	or	a4,a3,a4
	lbu	a5,7(a5)
	slli	a5,a5,56
	or	a5,a5,a4
	.loc 1 587 7
	lbu	a5,16(a5)
	lbu	a4,-617(s0)
	mv	a1,a4
	mv	a0,a5
	call	DisplayCacheErrCorrectingType@plt
	.loc 1 588 42
	ld	a5,-616(s0)
	lbu	a4,0(a5)
	lbu	a3,1(a5)
	slli	a3,a3,8
	or	a4,a3,a4
	lbu	a3,2(a5)
	slli	a3,a3,16
	or	a4,a3,a4
	lbu	a3,3(a5)
	slli	a3,a3,24
	or	a4,a3,a4
	lbu	a3,4(a5)
	slli	a3,a3,32
	or	a4,a3,a4
	lbu	a3,5(a5)
	slli	a3,a3,40
	or	a4,a3,a4
	lbu	a3,6(a5)
	slli	a3,a3,48
	or	a4,a3,a4
	lbu	a5,7(a5)
	slli	a5,a5,56
	or	a5,a5,a4
	.loc 1 588 7
	lbu	a5,17(a5)
	lbu	a4,-617(s0)
	mv	a1,a4
	mv	a0,a5
	call	DisplayCacheSystemCacheType@plt
	.loc 1 589 40
	ld	a5,-616(s0)
	lbu	a4,0(a5)
	lbu	a3,1(a5)
	slli	a3,a3,8
	or	a4,a3,a4
	lbu	a3,2(a5)
	slli	a3,a3,16
	or	a4,a3,a4
	lbu	a3,3(a5)
	slli	a3,a3,24
	or	a4,a3,a4
	lbu	a3,4(a5)
	slli	a3,a3,32
	or	a4,a3,a4
	lbu	a3,5(a5)
	slli	a3,a3,40
	or	a4,a3,a4
	lbu	a3,6(a5)
	slli	a3,a3,48
	or	a4,a3,a4
	lbu	a5,7(a5)
	slli	a5,a5,56
	or	a5,a5,a4
	.loc 1 589 7
	lbu	a5,18(a5)
	lbu	a4,-617(s0)
	mv	a1,a4
	mv	a0,a5
	call	DisplayCacheAssociativity@plt
	.loc 1 590 31
	la	a5,SmbiosMajorVersion
	lbu	a5,0(a5)
	.loc 1 590 10
	mv	a4,a5
	li	a5,3
	bgtu	a4,a5,.L152
	.loc 1 590 62 discriminator 2
	la	a5,SmbiosMajorVersion
	lbu	a5,0(a5)
	.loc 1 590 39 discriminator 2
	mv	a4,a5
	li	a5,3
	bne	a4,a5,.L310
	.loc 1 590 93 discriminator 3
	la	a5,SmbiosMinorVersion
	lbu	a5,0(a5)
	.loc 1 590 71 discriminator 3
	beq	a5,zero,.L310
.L152:
	.loc 1 590 114 discriminator 4
	ld	a5,-616(s0)
	lbu	a4,0(a5)
	lbu	a3,1(a5)
	slli	a3,a3,8
	or	a4,a3,a4
	lbu	a3,2(a5)
	slli	a3,a3,16
	or	a4,a3,a4
	lbu	a3,3(a5)
	slli	a3,a3,24
	or	a4,a3,a4
	lbu	a3,4(a5)
	slli	a3,a3,32
	or	a4,a3,a4
	lbu	a3,5(a5)
	slli	a3,a3,40
	or	a4,a3,a4
	lbu	a3,6(a5)
	slli	a3,a3,48
	or	a4,a3,a4
	lbu	a5,7(a5)
	slli	a5,a5,56
	or	a5,a5,a4
	.loc 1 590 119 discriminator 4
	lbu	a5,1(a5)
	.loc 1 590 104 discriminator 4
	mv	a4,a5
	li	a5,19
	bleu	a4,a5,.L310
	.loc 1 591 14
	lla	a3,.LC61
	lla	a2,.LC12
	li	a1,-1
	li	a0,-1
	call	ShellPrintEx@plt
	.loc 1 591 100 discriminator 1
	ld	a5,-616(s0)
	lbu	a4,0(a5)
	lbu	a3,1(a5)
	slli	a3,a3,8
	or	a4,a3,a4
	lbu	a3,2(a5)
	slli	a3,a3,16
	or	a4,a3,a4
	lbu	a3,3(a5)
	slli	a3,a3,24
	or	a4,a3,a4
	lbu	a3,4(a5)
	slli	a3,a3,32
	or	a4,a3,a4
	lbu	a3,5(a5)
	slli	a3,a3,40
	or	a4,a3,a4
	lbu	a3,6(a5)
	slli	a3,a3,48
	or	a4,a3,a4
	lbu	a5,7(a5)
	slli	a5,a5,56
	or	a5,a5,a4
	.loc 1 591 61 discriminator 1
	lbu	a4,19(a5)
	lbu	a3,20(a5)
	slli	a3,a3,8
	or	a4,a3,a4
	lbu	a3,21(a5)
	slli	a3,a3,16
	or	a4,a3,a4
	lbu	a5,22(a5)
	slli	a5,a5,24
	or	a5,a5,a4
	sext.w	a5,a5
	mv	a3,a5
	lla	a2,.LC24
	li	a1,-1
	li	a0,-1
	call	ShellPrintEx@plt
	.loc 1 592 14
	lla	a3,.LC62
	lla	a2,.LC12
	li	a1,-1
	li	a0,-1
	call	ShellPrintEx@plt
	.loc 1 592 97 discriminator 1
	ld	a5,-616(s0)
	lbu	a4,0(a5)
	lbu	a3,1(a5)
	slli	a3,a3,8
	or	a4,a3,a4
	lbu	a3,2(a5)
	slli	a3,a3,16
	or	a4,a3,a4
	lbu	a3,3(a5)
	slli	a3,a3,24
	or	a4,a3,a4
	lbu	a3,4(a5)
	slli	a3,a3,32
	or	a4,a3,a4
	lbu	a3,5(a5)
	slli	a3,a3,40
	or	a4,a3,a4
	lbu	a3,6(a5)
	slli	a3,a3,48
	or	a4,a3,a4
	lbu	a5,7(a5)
	slli	a5,a5,56
	or	a5,a5,a4
	.loc 1 592 58 discriminator 1
	lbu	a4,23(a5)
	lbu	a3,24(a5)
	slli	a3,a3,8
	or	a4,a3,a4
	lbu	a3,25(a5)
	slli	a3,a3,16
	or	a4,a3,a4
	lbu	a5,26(a5)
	slli	a5,a5,24
	or	a5,a5,a4
	sext.w	a5,a5
	mv	a3,a5
	lla	a2,.LC24
	li	a1,-1
	li	a0,-1
	call	ShellPrintEx@plt
	.loc 1 595 7
	j	.L310
.L66:
.LBB22:
	.loc 1 601 79
	ld	a5,-616(s0)
	lbu	a4,0(a5)
	lbu	a3,1(a5)
	slli	a3,a3,8
	or	a4,a3,a4
	lbu	a3,2(a5)
	slli	a3,a3,16
	or	a4,a3,a4
	lbu	a3,3(a5)
	slli	a3,a3,24
	or	a4,a3,a4
	lbu	a3,4(a5)
	slli	a3,a3,32
	or	a4,a3,a4
	lbu	a3,5(a5)
	slli	a3,a3,40
	or	a4,a3,a4
	lbu	a3,6(a5)
	slli	a3,a3,48
	or	a4,a3,a4
	lbu	a5,7(a5)
	slli	a5,a5,56
	or	a5,a5,a4
	.loc 1 601 86
	lbu	a5,4(a5)
	.loc 1 601 42
	mv	a1,a5
	ld	a0,-616(s0)
	call	LibGetSmbiosString@plt
	sd	a0,-432(s0)
	.loc 1 601 119 discriminator 1
	lla	a3,.LC63
	lla	a2,.LC12
	li	a1,-1
	li	a0,-1
	call	ShellPrintEx@plt
	.loc 1 601 176 discriminator 2
	ld	a5,-432(s0)
	beq	a5,zero,.L154
	.loc 1 601 176 is_stmt 0 discriminator 3
	ld	a5,-432(s0)
	j	.L155
.L154:
	.loc 1 601 176 discriminator 4
	lla	a5,.LC13
.L155:
	.loc 1 601 176 discriminator 6
	mv	a3,a5
	lla	a2,.LC14
	li	a1,-1
	li	a0,-1
	call	ShellPrintEx@plt
.LBE22:
	.loc 1 602 7 is_stmt 1
	lla	a0,.LC64
	call	Print@plt
	.loc 1 603 39
	ld	a5,-616(s0)
	lbu	a4,0(a5)
	lbu	a3,1(a5)
	slli	a3,a3,8
	or	a4,a3,a4
	lbu	a3,2(a5)
	slli	a3,a3,16
	or	a4,a3,a4
	lbu	a3,3(a5)
	slli	a3,a3,24
	or	a4,a3,a4
	lbu	a3,4(a5)
	slli	a3,a3,32
	or	a4,a3,a4
	lbu	a3,5(a5)
	slli	a3,a3,40
	or	a4,a3,a4
	lbu	a3,6(a5)
	slli	a3,a3,48
	or	a4,a3,a4
	lbu	a5,7(a5)
	slli	a5,a5,56
	or	a5,a5,a4
	.loc 1 603 7
	lbu	a5,5(a5)
	lbu	a4,-617(s0)
	mv	a1,a4
	mv	a0,a5
	call	DisplayPortConnectorType@plt
.LBB23:
	.loc 1 604 79
	ld	a5,-616(s0)
	lbu	a4,0(a5)
	lbu	a3,1(a5)
	slli	a3,a3,8
	or	a4,a3,a4
	lbu	a3,2(a5)
	slli	a3,a3,16
	or	a4,a3,a4
	lbu	a3,3(a5)
	slli	a3,a3,24
	or	a4,a3,a4
	lbu	a3,4(a5)
	slli	a3,a3,32
	or	a4,a3,a4
	lbu	a3,5(a5)
	slli	a3,a3,40
	or	a4,a3,a4
	lbu	a3,6(a5)
	slli	a3,a3,48
	or	a4,a3,a4
	lbu	a5,7(a5)
	slli	a5,a5,56
	or	a5,a5,a4
	.loc 1 604 86
	lbu	a5,6(a5)
	.loc 1 604 42
	mv	a1,a5
	ld	a0,-616(s0)
	call	LibGetSmbiosString@plt
	sd	a0,-440(s0)
	.loc 1 604 119 discriminator 1
	lla	a3,.LC65
	lla	a2,.LC12
	li	a1,-1
	li	a0,-1
	call	ShellPrintEx@plt
	.loc 1 604 176 discriminator 2
	ld	a5,-440(s0)
	beq	a5,zero,.L156
	.loc 1 604 176 is_stmt 0 discriminator 3
	ld	a5,-440(s0)
	j	.L157
.L156:
	.loc 1 604 176 discriminator 4
	lla	a5,.LC13
.L157:
	.loc 1 604 176 discriminator 6
	mv	a3,a5
	lla	a2,.LC14
	li	a1,-1
	li	a0,-1
	call	ShellPrintEx@plt
.LBE23:
	.loc 1 605 7 is_stmt 1
	la	a5,gShellDebug1HiiHandle
	ld	a5,0(a5)
	mv	a4,a5
	li	a3,156
	li	a2,0
	li	a1,-1
	li	a0,-1
	call	ShellPrintHiiEx@plt
	.loc 1 606 39
	ld	a5,-616(s0)
	lbu	a4,0(a5)
	lbu	a3,1(a5)
	slli	a3,a3,8
	or	a4,a3,a4
	lbu	a3,2(a5)
	slli	a3,a3,16
	or	a4,a3,a4
	lbu	a3,3(a5)
	slli	a3,a3,24
	or	a4,a3,a4
	lbu	a3,4(a5)
	slli	a3,a3,32
	or	a4,a3,a4
	lbu	a3,5(a5)
	slli	a3,a3,40
	or	a4,a3,a4
	lbu	a3,6(a5)
	slli	a3,a3,48
	or	a4,a3,a4
	lbu	a5,7(a5)
	slli	a5,a5,56
	or	a5,a5,a4
	.loc 1 606 7
	lbu	a5,7(a5)
	lbu	a4,-617(s0)
	mv	a1,a4
	mv	a0,a5
	call	DisplayPortConnectorType@plt
	.loc 1 607 30
	ld	a5,-616(s0)
	lbu	a4,0(a5)
	lbu	a3,1(a5)
	slli	a3,a3,8
	or	a4,a3,a4
	lbu	a3,2(a5)
	slli	a3,a3,16
	or	a4,a3,a4
	lbu	a3,3(a5)
	slli	a3,a3,24
	or	a4,a3,a4
	lbu	a3,4(a5)
	slli	a3,a3,32
	or	a4,a3,a4
	lbu	a3,5(a5)
	slli	a3,a3,40
	or	a4,a3,a4
	lbu	a3,6(a5)
	slli	a3,a3,48
	or	a4,a3,a4
	lbu	a5,7(a5)
	slli	a5,a5,56
	or	a5,a5,a4
	.loc 1 607 7
	lbu	a5,8(a5)
	lbu	a4,-617(s0)
	mv	a1,a4
	mv	a0,a5
	call	DisplayPortType@plt
	.loc 1 608 7
	j	.L85
.L65:
.LBB24:
.LBB25:
	.loc 1 619 79
	ld	a5,-616(s0)
	lbu	a4,0(a5)
	lbu	a3,1(a5)
	slli	a3,a3,8
	or	a4,a3,a4
	lbu	a3,2(a5)
	slli	a3,a3,16
	or	a4,a3,a4
	lbu	a3,3(a5)
	slli	a3,a3,24
	or	a4,a3,a4
	lbu	a3,4(a5)
	slli	a3,a3,32
	or	a4,a3,a4
	lbu	a3,5(a5)
	slli	a3,a3,40
	or	a4,a3,a4
	lbu	a3,6(a5)
	slli	a3,a3,48
	or	a4,a3,a4
	lbu	a5,7(a5)
	slli	a5,a5,56
	or	a5,a5,a4
	.loc 1 619 86
	lbu	a5,4(a5)
	.loc 1 619 42
	mv	a1,a5
	ld	a0,-616(s0)
	call	LibGetSmbiosString@plt
	sd	a0,-400(s0)
	.loc 1 619 107 discriminator 1
	lla	a3,.LC66
	lla	a2,.LC12
	li	a1,-1
	li	a0,-1
	call	ShellPrintEx@plt
	.loc 1 619 152 discriminator 2
	ld	a5,-400(s0)
	beq	a5,zero,.L158
	.loc 1 619 152 is_stmt 0 discriminator 3
	ld	a5,-400(s0)
	j	.L159
.L158:
	.loc 1 619 152 discriminator 4
	lla	a5,.LC13
.L159:
	.loc 1 619 152 discriminator 6
	mv	a3,a5
	lla	a2,.LC14
	li	a1,-1
	li	a0,-1
	call	ShellPrintEx@plt
.LBE25:
	.loc 1 620 36 is_stmt 1
	ld	a5,-616(s0)
	lbu	a4,0(a5)
	lbu	a3,1(a5)
	slli	a3,a3,8
	or	a4,a3,a4
	lbu	a3,2(a5)
	slli	a3,a3,16
	or	a4,a3,a4
	lbu	a3,3(a5)
	slli	a3,a3,24
	or	a4,a3,a4
	lbu	a3,4(a5)
	slli	a3,a3,32
	or	a4,a3,a4
	lbu	a3,5(a5)
	slli	a3,a3,40
	or	a4,a3,a4
	lbu	a3,6(a5)
	slli	a3,a3,48
	or	a4,a3,a4
	lbu	a5,7(a5)
	slli	a5,a5,56
	or	a5,a5,a4
	.loc 1 620 7
	lbu	a5,5(a5)
	lbu	a4,-617(s0)
	mv	a1,a4
	mv	a0,a5
	call	DisplaySystemSlotType@plt
	.loc 1 621 44
	ld	a5,-616(s0)
	lbu	a4,0(a5)
	lbu	a3,1(a5)
	slli	a3,a3,8
	or	a4,a3,a4
	lbu	a3,2(a5)
	slli	a3,a3,16
	or	a4,a3,a4
	lbu	a3,3(a5)
	slli	a3,a3,24
	or	a4,a3,a4
	lbu	a3,4(a5)
	slli	a3,a3,32
	or	a4,a3,a4
	lbu	a3,5(a5)
	slli	a3,a3,40
	or	a4,a3,a4
	lbu	a3,6(a5)
	slli	a3,a3,48
	or	a4,a3,a4
	lbu	a5,7(a5)
	slli	a5,a5,56
	or	a5,a5,a4
	.loc 1 621 7
	lbu	a5,6(a5)
	lbu	a4,-617(s0)
	mv	a1,a4
	mv	a0,a5
	call	DisplaySystemSlotDataBusWidth@plt
	.loc 1 622 44
	ld	a5,-616(s0)
	lbu	a4,0(a5)
	lbu	a3,1(a5)
	slli	a3,a3,8
	or	a4,a3,a4
	lbu	a3,2(a5)
	slli	a3,a3,16
	or	a4,a3,a4
	lbu	a3,3(a5)
	slli	a3,a3,24
	or	a4,a3,a4
	lbu	a3,4(a5)
	slli	a3,a3,32
	or	a4,a3,a4
	lbu	a3,5(a5)
	slli	a3,a3,40
	or	a4,a3,a4
	lbu	a3,6(a5)
	slli	a3,a3,48
	or	a4,a3,a4
	lbu	a5,7(a5)
	slli	a5,a5,56
	or	a5,a5,a4
	.loc 1 622 7
	lbu	a5,7(a5)
	lbu	a4,-617(s0)
	mv	a1,a4
	mv	a0,a5
	call	DisplaySystemSlotCurrentUsage@plt
	.loc 1 623 38
	ld	a5,-616(s0)
	lbu	a4,0(a5)
	lbu	a3,1(a5)
	slli	a3,a3,8
	or	a4,a3,a4
	lbu	a3,2(a5)
	slli	a3,a3,16
	or	a4,a3,a4
	lbu	a3,3(a5)
	slli	a3,a3,24
	or	a4,a3,a4
	lbu	a3,4(a5)
	slli	a3,a3,32
	or	a4,a3,a4
	lbu	a3,5(a5)
	slli	a3,a3,40
	or	a4,a3,a4
	lbu	a3,6(a5)
	slli	a3,a3,48
	or	a4,a3,a4
	lbu	a5,7(a5)
	slli	a5,a5,56
	or	a5,a5,a4
	.loc 1 623 7
	lbu	a5,8(a5)
	lbu	a4,-617(s0)
	mv	a1,a4
	mv	a0,a5
	call	DisplaySystemSlotLength@plt
	.loc 1 625 15
	ld	a5,-616(s0)
	lbu	a4,0(a5)
	lbu	a3,1(a5)
	slli	a3,a3,8
	or	a4,a3,a4
	lbu	a3,2(a5)
	slli	a3,a3,16
	or	a4,a3,a4
	lbu	a3,3(a5)
	slli	a3,a3,24
	or	a4,a3,a4
	lbu	a3,4(a5)
	slli	a3,a3,32
	or	a4,a3,a4
	lbu	a3,5(a5)
	slli	a3,a3,40
	or	a4,a3,a4
	lbu	a3,6(a5)
	slli	a3,a3,48
	or	a4,a3,a4
	lbu	a5,7(a5)
	slli	a5,a5,56
	or	a5,a5,a4
	.loc 1 624 7
	lbu	a4,9(a5)
	lbu	a5,10(a5)
	slli	a5,a5,8
	or	a5,a5,a4
	slli	a0,a5,48
	srli	a0,a0,48
	.loc 1 626 15
	ld	a5,-616(s0)
	lbu	a4,0(a5)
	lbu	a3,1(a5)
	slli	a3,a3,8
	or	a4,a3,a4
	lbu	a3,2(a5)
	slli	a3,a3,16
	or	a4,a3,a4
	lbu	a3,3(a5)
	slli	a3,a3,24
	or	a4,a3,a4
	lbu	a3,4(a5)
	slli	a3,a3,32
	or	a4,a3,a4
	lbu	a3,5(a5)
	slli	a3,a3,40
	or	a4,a3,a4
	lbu	a3,6(a5)
	slli	a3,a3,48
	or	a4,a3,a4
	lbu	a5,7(a5)
	slli	a5,a5,56
	or	a5,a5,a4
	.loc 1 624 7
	lbu	a5,5(a5)
	lbu	a4,-617(s0)
	mv	a2,a4
	mv	a1,a5
	call	DisplaySystemSlotId
	.loc 1 629 54
	ld	a5,-616(s0)
	lbu	a4,0(a5)
	lbu	a3,1(a5)
	slli	a3,a3,8
	or	a4,a3,a4
	lbu	a3,2(a5)
	slli	a3,a3,16
	or	a4,a3,a4
	lbu	a3,3(a5)
	slli	a3,a3,24
	or	a4,a3,a4
	lbu	a3,4(a5)
	slli	a3,a3,32
	or	a4,a3,a4
	lbu	a3,5(a5)
	slli	a3,a3,40
	or	a4,a3,a4
	lbu	a3,6(a5)
	slli	a3,a3,48
	or	a4,a3,a4
	lbu	a5,7(a5)
	slli	a5,a5,56
	or	a5,a5,a4
	.loc 1 629 46
	addi	a5,a5,11
	.loc 1 629 7
	lbu	a5,0(a5)
	lbu	a4,-617(s0)
	mv	a1,a4
	mv	a0,a5
	call	DisplaySlotCharacteristics1@plt
	.loc 1 630 54
	ld	a5,-616(s0)
	lbu	a4,0(a5)
	lbu	a3,1(a5)
	slli	a3,a3,8
	or	a4,a3,a4
	lbu	a3,2(a5)
	slli	a3,a3,16
	or	a4,a3,a4
	lbu	a3,3(a5)
	slli	a3,a3,24
	or	a4,a3,a4
	lbu	a3,4(a5)
	slli	a3,a3,32
	or	a4,a3,a4
	lbu	a3,5(a5)
	slli	a3,a3,40
	or	a4,a3,a4
	lbu	a3,6(a5)
	slli	a3,a3,48
	or	a4,a3,a4
	lbu	a5,7(a5)
	slli	a5,a5,56
	or	a5,a5,a4
	.loc 1 630 46
	addi	a5,a5,12
	.loc 1 630 7
	lbu	a5,0(a5)
	lbu	a4,-617(s0)
	mv	a1,a4
	mv	a0,a5
	call	DisplaySlotCharacteristics2@plt
	.loc 1 631 31
	la	a5,SmbiosMajorVersion
	lbu	a5,0(a5)
	.loc 1 631 10
	mv	a4,a5
	li	a5,2
	bgtu	a4,a5,.L160
	.loc 1 631 62 discriminator 2
	la	a5,SmbiosMajorVersion
	lbu	a5,0(a5)
	.loc 1 631 39 discriminator 2
	mv	a4,a5
	li	a5,2
	bne	a4,a5,.L161
	.loc 1 631 93 discriminator 3
	la	a5,SmbiosMinorVersion
	lbu	a5,0(a5)
	.loc 1 631 71 discriminator 3
	mv	a4,a5
	li	a5,5
	bleu	a4,a5,.L161
.L160:
	.loc 1 631 114 discriminator 4
	ld	a5,-616(s0)
	lbu	a4,0(a5)
	lbu	a3,1(a5)
	slli	a3,a3,8
	or	a4,a3,a4
	lbu	a3,2(a5)
	slli	a3,a3,16
	or	a4,a3,a4
	lbu	a3,3(a5)
	slli	a3,a3,24
	or	a4,a3,a4
	lbu	a3,4(a5)
	slli	a3,a3,32
	or	a4,a3,a4
	lbu	a3,5(a5)
	slli	a3,a3,40
	or	a4,a3,a4
	lbu	a3,6(a5)
	slli	a3,a3,48
	or	a4,a3,a4
	lbu	a5,7(a5)
	slli	a5,a5,56
	or	a5,a5,a4
	.loc 1 631 119 discriminator 4
	lbu	a5,1(a5)
	.loc 1 631 104 discriminator 4
	mv	a4,a5
	li	a5,13
	bleu	a4,a5,.L161
	.loc 1 632 14
	lla	a3,.LC67
	lla	a2,.LC12
	li	a1,-1
	li	a0,-1
	call	ShellPrintEx@plt
	.loc 1 632 98 discriminator 1
	ld	a5,-616(s0)
	lbu	a4,0(a5)
	lbu	a3,1(a5)
	slli	a3,a3,8
	or	a4,a3,a4
	lbu	a3,2(a5)
	slli	a3,a3,16
	or	a4,a3,a4
	lbu	a3,3(a5)
	slli	a3,a3,24
	or	a4,a3,a4
	lbu	a3,4(a5)
	slli	a3,a3,32
	or	a4,a3,a4
	lbu	a3,5(a5)
	slli	a3,a3,40
	or	a4,a3,a4
	lbu	a3,6(a5)
	slli	a3,a3,48
	or	a4,a3,a4
	lbu	a5,7(a5)
	slli	a5,a5,56
	or	a5,a5,a4
	.loc 1 632 105 discriminator 1
	lbu	a4,13(a5)
	lbu	a5,14(a5)
	slli	a5,a5,8
	or	a5,a5,a4
	slli	a5,a5,48
	srli	a5,a5,48
	.loc 1 632 59 discriminator 1
	sext.w	a5,a5
	mv	a3,a5
	lla	a2,.LC24
	li	a1,-1
	li	a0,-1
	call	ShellPrintEx@plt
	.loc 1 633 14
	lla	a3,.LC68
	lla	a2,.LC12
	li	a1,-1
	li	a0,-1
	call	ShellPrintEx@plt
	.loc 1 633 89 discriminator 1
	ld	a5,-616(s0)
	lbu	a4,0(a5)
	lbu	a3,1(a5)
	slli	a3,a3,8
	or	a4,a3,a4
	lbu	a3,2(a5)
	slli	a3,a3,16
	or	a4,a3,a4
	lbu	a3,3(a5)
	slli	a3,a3,24
	or	a4,a3,a4
	lbu	a3,4(a5)
	slli	a3,a3,32
	or	a4,a3,a4
	lbu	a3,5(a5)
	slli	a3,a3,40
	or	a4,a3,a4
	lbu	a3,6(a5)
	slli	a3,a3,48
	or	a4,a3,a4
	lbu	a5,7(a5)
	slli	a5,a5,56
	or	a5,a5,a4
	.loc 1 633 96 discriminator 1
	lbu	a5,15(a5)
	.loc 1 633 50 discriminator 1
	sext.w	a5,a5
	mv	a3,a5
	lla	a2,.LC24
	li	a1,-1
	li	a0,-1
	call	ShellPrintEx@plt
	.loc 1 634 14
	lla	a3,.LC69
	lla	a2,.LC12
	li	a1,-1
	li	a0,-1
	call	ShellPrintEx@plt
	.loc 1 634 93 discriminator 1
	ld	a5,-616(s0)
	lbu	a4,0(a5)
	lbu	a3,1(a5)
	slli	a3,a3,8
	or	a4,a3,a4
	lbu	a3,2(a5)
	slli	a3,a3,16
	or	a4,a3,a4
	lbu	a3,3(a5)
	slli	a3,a3,24
	or	a4,a3,a4
	lbu	a3,4(a5)
	slli	a3,a3,32
	or	a4,a3,a4
	lbu	a3,5(a5)
	slli	a3,a3,40
	or	a4,a3,a4
	lbu	a3,6(a5)
	slli	a3,a3,48
	or	a4,a3,a4
	lbu	a5,7(a5)
	slli	a5,a5,56
	or	a5,a5,a4
	.loc 1 634 100 discriminator 1
	lbu	a5,16(a5)
	.loc 1 634 54 discriminator 1
	sext.w	a5,a5
	mv	a3,a5
	lla	a2,.LC24
	li	a1,-1
	li	a0,-1
	call	ShellPrintEx@plt
.L161:
	.loc 1 637 31
	la	a5,SmbiosMajorVersion
	lbu	a5,0(a5)
	.loc 1 637 10
	mv	a4,a5
	li	a5,3
	bgtu	a4,a5,.L162
	.loc 1 637 62 discriminator 1
	la	a5,SmbiosMajorVersion
	lbu	a5,0(a5)
	.loc 1 637 39 discriminator 1
	mv	a4,a5
	li	a5,3
	bne	a4,a5,.L311
	.loc 1 637 93 discriminator 2
	la	a5,SmbiosMinorVersion
	lbu	a5,0(a5)
	.loc 1 637 71 discriminator 2
	mv	a4,a5
	li	a5,1
	bleu	a4,a5,.L311
.L162:
	.loc 1 638 19
	ld	a5,-616(s0)
	lbu	a4,0(a5)
	lbu	a3,1(a5)
	slli	a3,a3,8
	or	a4,a3,a4
	lbu	a3,2(a5)
	slli	a3,a3,16
	or	a4,a3,a4
	lbu	a3,3(a5)
	slli	a3,a3,24
	or	a4,a3,a4
	lbu	a3,4(a5)
	slli	a3,a3,32
	or	a4,a3,a4
	lbu	a3,5(a5)
	slli	a3,a3,40
	or	a4,a3,a4
	lbu	a3,6(a5)
	slli	a3,a3,48
	or	a4,a3,a4
	lbu	a5,7(a5)
	slli	a5,a5,56
	or	a5,a5,a4
	.loc 1 638 24
	lbu	a5,1(a5)
	.loc 1 638 12
	mv	a4,a5
	li	a5,17
	bleu	a4,a5,.L164
	.loc 1 639 16
	lla	a3,.LC70
	lla	a2,.LC12
	li	a1,-1
	li	a0,-1
	call	ShellPrintEx@plt
	.loc 1 639 95 discriminator 1
	ld	a5,-616(s0)
	lbu	a4,0(a5)
	lbu	a3,1(a5)
	slli	a3,a3,8
	or	a4,a3,a4
	lbu	a3,2(a5)
	slli	a3,a3,16
	or	a4,a3,a4
	lbu	a3,3(a5)
	slli	a3,a3,24
	or	a4,a3,a4
	lbu	a3,4(a5)
	slli	a3,a3,32
	or	a4,a3,a4
	lbu	a3,5(a5)
	slli	a3,a3,40
	or	a4,a3,a4
	lbu	a3,6(a5)
	slli	a3,a3,48
	or	a4,a3,a4
	lbu	a5,7(a5)
	slli	a5,a5,56
	or	a5,a5,a4
	.loc 1 639 102 discriminator 1
	lbu	a5,17(a5)
	.loc 1 639 58 discriminator 1
	sext.w	a5,a5
	mv	a3,a5
	lla	a2,.LC26
	li	a1,-1
	li	a0,-1
	call	ShellPrintEx@plt
.L164:
	.loc 1 642 19
	ld	a5,-616(s0)
	lbu	a4,0(a5)
	lbu	a3,1(a5)
	slli	a3,a3,8
	or	a4,a3,a4
	lbu	a3,2(a5)
	slli	a3,a3,16
	or	a4,a3,a4
	lbu	a3,3(a5)
	slli	a3,a3,24
	or	a4,a3,a4
	lbu	a3,4(a5)
	slli	a3,a3,32
	or	a4,a3,a4
	lbu	a3,5(a5)
	slli	a3,a3,40
	or	a4,a3,a4
	lbu	a3,6(a5)
	slli	a3,a3,48
	or	a4,a3,a4
	lbu	a5,7(a5)
	slli	a5,a5,56
	or	a5,a5,a4
	.loc 1 642 24
	lbu	a5,1(a5)
	.loc 1 642 12
	mv	a4,a5
	li	a5,18
	bleu	a4,a5,.L311
	.loc 1 643 16
	lla	a3,.LC71
	lla	a2,.LC12
	li	a1,-1
	li	a0,-1
	call	ShellPrintEx@plt
	.loc 1 643 100 discriminator 1
	ld	a5,-616(s0)
	lbu	a4,0(a5)
	lbu	a3,1(a5)
	slli	a3,a3,8
	or	a4,a3,a4
	lbu	a3,2(a5)
	slli	a3,a3,16
	or	a4,a3,a4
	lbu	a3,3(a5)
	slli	a3,a3,24
	or	a4,a3,a4
	lbu	a3,4(a5)
	slli	a3,a3,32
	or	a4,a3,a4
	lbu	a3,5(a5)
	slli	a3,a3,40
	or	a4,a3,a4
	lbu	a3,6(a5)
	slli	a3,a3,48
	or	a4,a3,a4
	lbu	a5,7(a5)
	slli	a5,a5,56
	or	a5,a5,a4
	.loc 1 643 107 discriminator 1
	lbu	a5,18(a5)
	.loc 1 643 63 discriminator 1
	sext.w	a5,a5
	mv	a3,a5
	lla	a2,.LC26
	li	a1,-1
	li	a0,-1
	call	ShellPrintEx@plt
	.loc 1 645 34
	ld	a5,-616(s0)
	lbu	a4,0(a5)
	lbu	a3,1(a5)
	slli	a3,a3,8
	or	a4,a3,a4
	lbu	a3,2(a5)
	slli	a3,a3,16
	or	a4,a3,a4
	lbu	a3,3(a5)
	slli	a3,a3,24
	or	a4,a3,a4
	lbu	a3,4(a5)
	slli	a3,a3,32
	or	a4,a3,a4
	lbu	a3,5(a5)
	slli	a3,a3,40
	or	a4,a3,a4
	lbu	a3,6(a5)
	slli	a3,a3,48
	or	a4,a3,a4
	lbu	a5,7(a5)
	slli	a5,a5,56
	or	a5,a5,a4
	.loc 1 645 26
	lbu	a5,18(a5)
	sb	a5,-401(s0)
	.loc 1 646 32
	ld	a5,-616(s0)
	lbu	a4,0(a5)
	lbu	a3,1(a5)
	slli	a3,a3,8
	or	a4,a3,a4
	lbu	a3,2(a5)
	slli	a3,a3,16
	or	a4,a3,a4
	lbu	a3,3(a5)
	slli	a3,a3,24
	or	a4,a3,a4
	lbu	a3,4(a5)
	slli	a3,a3,32
	or	a4,a3,a4
	lbu	a3,5(a5)
	slli	a3,a3,40
	or	a4,a3,a4
	lbu	a3,6(a5)
	slli	a3,a3,48
	or	a4,a3,a4
	lbu	a5,7(a5)
	slli	a5,a5,56
	or	a5,a5,a4
	.loc 1 646 24
	addi	a5,a5,19
	sd	a5,-416(s0)
	.loc 1 647 22
	sb	zero,-33(s0)
	.loc 1 647 11
	j	.L165
.L166:
	.loc 1 648 13
	la	a5,gShellDebug1HiiHandle
	ld	a4,0(a5)
	lbu	a5,-33(s0)
	sext.w	a5,a5
	addiw	a5,a5,1
	sext.w	a5,a5
	li	a3,157
	li	a2,0
	li	a1,-1
	li	a0,-1
	call	ShellPrintHiiEx@plt
	.loc 1 649 13
	la	a5,gShellDebug1HiiHandle
	ld	a3,0(a5)
	.loc 1 649 95
	lbu	a4,-33(s0)
	mv	a5,a4
	slli	a5,a5,2
	add	a5,a5,a4
	ld	a4,-416(s0)
	add	a5,a4,a5
	.loc 1 649 102
	lbu	a4,0(a5)
	lbu	a5,1(a5)
	slli	a5,a5,8
	or	a5,a5,a4
	slli	a5,a5,48
	srli	a5,a5,48
	.loc 1 649 13
	sext.w	a5,a5
	mv	a4,a3
	li	a3,158
	li	a2,0
	li	a1,-1
	li	a0,-1
	call	ShellPrintHiiEx@plt
	.loc 1 650 13
	la	a5,gShellDebug1HiiHandle
	ld	a3,0(a5)
	.loc 1 650 95
	lbu	a4,-33(s0)
	mv	a5,a4
	slli	a5,a5,2
	add	a5,a5,a4
	ld	a4,-416(s0)
	add	a5,a4,a5
	.loc 1 650 102
	lbu	a5,2(a5)
	.loc 1 650 13
	sext.w	a5,a5
	mv	a4,a3
	li	a3,159
	li	a2,0
	li	a1,-1
	li	a0,-1
	call	ShellPrintHiiEx@plt
	.loc 1 651 13
	la	a5,gShellDebug1HiiHandle
	ld	a3,0(a5)
	.loc 1 651 95
	lbu	a4,-33(s0)
	mv	a5,a4
	slli	a5,a5,2
	add	a5,a5,a4
	ld	a4,-416(s0)
	add	a5,a4,a5
	.loc 1 651 102
	lbu	a5,3(a5)
	.loc 1 651 13
	sext.w	a5,a5
	mv	a4,a3
	li	a3,160
	li	a2,0
	li	a1,-1
	li	a0,-1
	call	ShellPrintHiiEx@plt
	.loc 1 652 13
	la	a5,gShellDebug1HiiHandle
	ld	a3,0(a5)
	.loc 1 652 95
	lbu	a4,-33(s0)
	mv	a5,a4
	slli	a5,a5,2
	add	a5,a5,a4
	ld	a4,-416(s0)
	add	a5,a4,a5
	.loc 1 652 102
	lbu	a5,4(a5)
	.loc 1 652 13
	sext.w	a5,a5
	mv	a4,a3
	li	a3,161
	li	a2,0
	li	a1,-1
	li	a0,-1
	call	ShellPrintHiiEx@plt
	.loc 1 647 56 discriminator 3
	lbu	a5,-33(s0)
	addiw	a5,a5,1
	sb	a5,-33(s0)
.L165:
	.loc 1 647 33 discriminator 1
	lbu	a5,-33(s0)
	mv	a4,a5
	lbu	a5,-401(s0)
	andi	a4,a4,0xff
	andi	a5,a5,0xff
	bltu	a4,a5,.L166
	.loc 1 655 35
	la	a5,SmbiosMajorVersion
	lbu	a5,0(a5)
	.loc 1 655 14
	mv	a4,a5
	li	a5,3
	bgtu	a4,a5,.L167
	.loc 1 655 66 discriminator 1
	la	a5,SmbiosMajorVersion
	lbu	a5,0(a5)
	.loc 1 655 43 discriminator 1
	mv	a4,a5
	li	a5,3
	bne	a4,a5,.L311
	.loc 1 655 97 discriminator 2
	la	a5,SmbiosMinorVersion
	lbu	a5,0(a5)
	.loc 1 655 75 discriminator 2
	mv	a4,a5
	li	a5,3
	bleu	a4,a5,.L311
.L167:
	.loc 1 658 107
	lbu	a4,-401(s0)
	mv	a5,a4
	slli	a5,a5,2
	add	a5,a5,a4
	.loc 1 658 33
	ld	a4,-416(s0)
	add	a5,a4,a5
	sd	a5,-424(s0)
	.loc 1 659 13
	ld	a5,-424(s0)
	lbu	a5,0(a5)
	lbu	a4,-617(s0)
	mv	a1,a4
	mv	a0,a5
	call	DisplaySystemSlotInformation@plt
	.loc 1 660 13
	ld	a5,-424(s0)
	lbu	a5,1(a5)
	lbu	a4,-617(s0)
	mv	a1,a4
	mv	a0,a5
	call	DisplaySystemSlotPhysicalWidth@plt
	.loc 1 661 13
	la	a5,gShellDebug1HiiHandle
	ld	a3,0(a5)
	.loc 1 661 102
	ld	a5,-424(s0)
	lbu	a4,2(a5)
	lbu	a5,3(a5)
	slli	a5,a5,8
	or	a5,a5,a4
	slli	a5,a5,48
	srli	a5,a5,48
	.loc 1 661 13
	sext.w	a5,a5
	mv	a4,a3
	li	a3,472
	li	a2,0
	li	a1,-1
	li	a0,-1
	call	ShellPrintHiiEx@plt
	.loc 1 662 37
	la	a5,SmbiosMajorVersion
	lbu	a5,0(a5)
	.loc 1 662 16
	mv	a4,a5
	li	a5,3
	bgtu	a4,a5,.L168
	.loc 1 662 68 discriminator 1
	la	a5,SmbiosMajorVersion
	lbu	a5,0(a5)
	.loc 1 662 45 discriminator 1
	mv	a4,a5
	li	a5,3
	bne	a4,a5,.L311
	.loc 1 662 99 discriminator 2
	la	a5,SmbiosMinorVersion
	lbu	a5,0(a5)
	.loc 1 662 77 discriminator 2
	mv	a4,a5
	li	a5,4
	bleu	a4,a5,.L311
.L168:
	.loc 1 663 15
	ld	a5,-424(s0)
	lbu	a5,4(a5)
	lbu	a4,-617(s0)
	mv	a1,a4
	mv	a0,a5
	call	DisplaySystemSlotHeight@plt
	.loc 1 669 7
	j	.L311
.L64:
.LBE24:
.LBB26:
	.loc 1 678 28
	ld	a5,-616(s0)
	lbu	a4,0(a5)
	lbu	a3,1(a5)
	slli	a3,a3,8
	or	a4,a3,a4
	lbu	a3,2(a5)
	slli	a3,a3,16
	or	a4,a3,a4
	lbu	a3,3(a5)
	slli	a3,a3,24
	or	a4,a3,a4
	lbu	a3,4(a5)
	slli	a3,a3,32
	or	a4,a3,a4
	lbu	a3,5(a5)
	slli	a3,a3,40
	or	a4,a3,a4
	lbu	a3,6(a5)
	slli	a3,a3,48
	or	a4,a3,a4
	lbu	a5,7(a5)
	slli	a5,a5,56
	or	a5,a5,a4
	.loc 1 678 41
	lbu	a5,1(a5)
	.loc 1 678 49
	addi	a5,a5,-4
	.loc 1 678 19
	srli	a5,a5,1
	sd	a5,-392(s0)
	.loc 1 679 18
	sb	zero,-33(s0)
	.loc 1 679 7
	j	.L169
.L172:
	.loc 1 680 40
	ld	a5,-616(s0)
	lbu	a4,0(a5)
	lbu	a3,1(a5)
	slli	a3,a3,8
	or	a4,a3,a4
	lbu	a3,2(a5)
	slli	a3,a3,16
	or	a4,a3,a4
	lbu	a3,3(a5)
	slli	a3,a3,24
	or	a4,a3,a4
	lbu	a3,4(a5)
	slli	a3,a3,32
	or	a4,a3,a4
	lbu	a3,5(a5)
	slli	a3,a3,40
	or	a4,a3,a4
	lbu	a3,6(a5)
	slli	a3,a3,48
	or	a4,a3,a4
	lbu	a5,7(a5)
	slli	a5,a5,56
	or	a5,a5,a4
	mv	a4,a5
	.loc 1 680 63
	lbu	a5,-33(s0)
	sext.w	a5,a5
	slli	a5,a5,1
	add	a5,a4,a5
	lbu	a5,4(a5)
	.loc 1 680 84
	slliw	a5,a5,24
	sraiw	a5,a5,24
	.loc 1 680 9
	bge	a5,zero,.L170
	.loc 1 680 9 is_stmt 0 discriminator 1
	lla	a5,.LC72
	j	.L171
.L170:
	.loc 1 680 9 discriminator 2
	lla	a5,.LC73
.L171:
	.loc 1 680 9 discriminator 4
	mv	a2,a5
	li	a1,-1
	li	a0,-1
	call	ShellPrintEx@plt
	.loc 1 681 43 is_stmt 1
	ld	a5,-616(s0)
	lbu	a4,0(a5)
	lbu	a3,1(a5)
	slli	a3,a3,8
	or	a4,a3,a4
	lbu	a3,2(a5)
	slli	a3,a3,16
	or	a4,a3,a4
	lbu	a3,3(a5)
	slli	a3,a3,24
	or	a4,a3,a4
	lbu	a3,4(a5)
	slli	a3,a3,32
	or	a4,a3,a4
	lbu	a3,5(a5)
	slli	a3,a3,40
	or	a4,a3,a4
	lbu	a3,6(a5)
	slli	a3,a3,48
	or	a4,a3,a4
	lbu	a5,7(a5)
	slli	a5,a5,56
	or	a5,a5,a4
	mv	a4,a5
	.loc 1 681 66
	lbu	a5,-33(s0)
	sext.w	a5,a5
	slli	a5,a5,1
	add	a5,a4,a5
	lbu	a5,4(a5)
	.loc 1 681 9
	andi	a5,a5,127
	andi	a5,a5,0xff
	lbu	a4,-617(s0)
	mv	a1,a4
	mv	a0,a5
	call	DisplayOnboardDeviceTypes@plt
	.loc 1 682 9
	la	a5,gShellDebug1HiiHandle
	ld	a5,0(a5)
	mv	a4,a5
	li	a3,162
	li	a2,0
	li	a1,-1
	li	a0,-1
	call	ShellPrintHiiEx@plt
	.loc 1 683 74
	ld	a5,-616(s0)
	lbu	a4,0(a5)
	lbu	a3,1(a5)
	slli	a3,a3,8
	or	a4,a3,a4
	lbu	a3,2(a5)
	slli	a3,a3,16
	or	a4,a3,a4
	lbu	a3,3(a5)
	slli	a3,a3,24
	or	a4,a3,a4
	lbu	a3,4(a5)
	slli	a3,a3,32
	or	a4,a3,a4
	lbu	a3,5(a5)
	slli	a3,a3,40
	or	a4,a3,a4
	lbu	a3,6(a5)
	slli	a3,a3,48
	or	a4,a3,a4
	lbu	a5,7(a5)
	slli	a5,a5,56
	or	a5,a5,a4
	mv	a4,a5
	.loc 1 683 97
	lbu	a5,-33(s0)
	sext.w	a5,a5
	slli	a5,a5,1
	add	a5,a4,a5
	lbu	a5,5(a5)
	.loc 1 683 9
	mv	a1,a5
	ld	a0,-616(s0)
	call	LibGetSmbiosString@plt
	mv	a5,a0
	.loc 1 683 9 is_stmt 0 discriminator 1
	mv	a3,a5
	lla	a2,.LC74
	li	a1,-1
	li	a0,-1
	call	ShellPrintEx@plt
	.loc 1 679 56 is_stmt 1 discriminator 2
	lbu	a5,-33(s0)
	addiw	a5,a5,1
	sb	a5,-33(s0)
.L169:
	.loc 1 679 23 discriminator 1
	lbu	a5,-33(s0)
	.loc 1 679 36 discriminator 1
	ld	a4,-392(s0)
	bgtu	a4,a5,.L172
	.loc 1 686 7
	j	.L85
.L63:
.LBE26:
	.loc 1 693 12
	lla	a3,.LC75
	lla	a2,.LC12
	li	a1,-1
	li	a0,-1
	call	ShellPrintEx@plt
	.loc 1 693 90 discriminator 1
	ld	a5,-616(s0)
	lbu	a4,0(a5)
	lbu	a3,1(a5)
	slli	a3,a3,8
	or	a4,a3,a4
	lbu	a3,2(a5)
	slli	a3,a3,16
	or	a4,a3,a4
	lbu	a3,3(a5)
	slli	a3,a3,24
	or	a4,a3,a4
	lbu	a3,4(a5)
	slli	a3,a3,32
	or	a4,a3,a4
	lbu	a3,5(a5)
	slli	a3,a3,40
	or	a4,a3,a4
	lbu	a3,6(a5)
	slli	a3,a3,48
	or	a4,a3,a4
	lbu	a5,7(a5)
	slli	a5,a5,56
	or	a5,a5,a4
	.loc 1 693 98 discriminator 1
	lbu	a5,4(a5)
	.loc 1 693 53 discriminator 1
	sext.w	a5,a5
	mv	a3,a5
	lla	a2,.LC26
	li	a1,-1
	li	a0,-1
	call	ShellPrintEx@plt
	.loc 1 694 18
	li	a5,1
	sb	a5,-33(s0)
	.loc 1 694 7
	j	.L173
.L174:
	.loc 1 695 9
	lbu	a5,-33(s0)
	slli	a5,a5,48
	srli	a5,a5,48
	mv	a1,a5
	ld	a0,-616(s0)
	call	LibGetSmbiosString@plt
	mv	a5,a0
	.loc 1 695 9 is_stmt 0 discriminator 1
	mv	a3,a5
	lla	a2,.LC74
	li	a1,-1
	li	a0,-1
	call	ShellPrintEx@plt
	.loc 1 694 66 is_stmt 1 discriminator 3
	lbu	a5,-33(s0)
	addiw	a5,a5,1
	sb	a5,-33(s0)
.L173:
	.loc 1 694 38 discriminator 1
	ld	a5,-616(s0)
	lbu	a4,0(a5)
	lbu	a3,1(a5)
	slli	a3,a3,8
	or	a4,a3,a4
	lbu	a3,2(a5)
	slli	a3,a3,16
	or	a4,a3,a4
	lbu	a3,3(a5)
	slli	a3,a3,24
	or	a4,a3,a4
	lbu	a3,4(a5)
	slli	a3,a3,32
	or	a4,a3,a4
	lbu	a3,5(a5)
	slli	a3,a3,40
	or	a4,a3,a4
	lbu	a3,6(a5)
	slli	a3,a3,48
	or	a4,a3,a4
	lbu	a5,7(a5)
	slli	a5,a5,56
	or	a5,a5,a4
	.loc 1 694 46 discriminator 1
	lbu	a4,4(a5)
	.loc 1 694 29 discriminator 1
	lbu	a5,-33(s0)
	andi	a5,a5,0xff
	bleu	a5,a4,.L174
	.loc 1 698 7
	j	.L85
.L62:
	.loc 1 704 12
	lla	a3,.LC75
	lla	a2,.LC12
	li	a1,-1
	li	a0,-1
	call	ShellPrintEx@plt
	.loc 1 704 90 discriminator 1
	ld	a5,-616(s0)
	lbu	a4,0(a5)
	lbu	a3,1(a5)
	slli	a3,a3,8
	or	a4,a3,a4
	lbu	a3,2(a5)
	slli	a3,a3,16
	or	a4,a3,a4
	lbu	a3,3(a5)
	slli	a3,a3,24
	or	a4,a3,a4
	lbu	a3,4(a5)
	slli	a3,a3,32
	or	a4,a3,a4
	lbu	a3,5(a5)
	slli	a3,a3,40
	or	a4,a3,a4
	lbu	a3,6(a5)
	slli	a3,a3,48
	or	a4,a3,a4
	lbu	a5,7(a5)
	slli	a5,a5,56
	or	a5,a5,a4
	.loc 1 704 98 discriminator 1
	lbu	a5,4(a5)
	.loc 1 704 53 discriminator 1
	sext.w	a5,a5
	mv	a3,a5
	lla	a2,.LC26
	li	a1,-1
	li	a0,-1
	call	ShellPrintEx@plt
	.loc 1 705 18
	li	a5,1
	sb	a5,-33(s0)
	.loc 1 705 7
	j	.L175
.L176:
	.loc 1 706 9
	lbu	a5,-33(s0)
	slli	a5,a5,48
	srli	a5,a5,48
	mv	a1,a5
	ld	a0,-616(s0)
	call	LibGetSmbiosString@plt
	mv	a5,a0
	.loc 1 706 9 is_stmt 0 discriminator 1
	mv	a3,a5
	lla	a2,.LC74
	li	a1,-1
	li	a0,-1
	call	ShellPrintEx@plt
	.loc 1 705 66 is_stmt 1 discriminator 3
	lbu	a5,-33(s0)
	addiw	a5,a5,1
	sb	a5,-33(s0)
.L175:
	.loc 1 705 38 discriminator 1
	ld	a5,-616(s0)
	lbu	a4,0(a5)
	lbu	a3,1(a5)
	slli	a3,a3,8
	or	a4,a3,a4
	lbu	a3,2(a5)
	slli	a3,a3,16
	or	a4,a3,a4
	lbu	a3,3(a5)
	slli	a3,a3,24
	or	a4,a3,a4
	lbu	a3,4(a5)
	slli	a3,a3,32
	or	a4,a3,a4
	lbu	a3,5(a5)
	slli	a3,a3,40
	or	a4,a3,a4
	lbu	a3,6(a5)
	slli	a3,a3,48
	or	a4,a3,a4
	lbu	a5,7(a5)
	slli	a5,a5,56
	or	a5,a5,a4
	.loc 1 705 46 discriminator 1
	lbu	a4,4(a5)
	.loc 1 705 29 discriminator 1
	lbu	a5,-33(s0)
	andi	a5,a5,0xff
	bleu	a5,a4,.L176
	.loc 1 709 7
	j	.L85
.L61:
	.loc 1 715 12
	lla	a3,.LC76
	lla	a2,.LC12
	li	a1,-1
	li	a0,-1
	call	ShellPrintEx@plt
	.loc 1 715 99 discriminator 1
	ld	a5,-616(s0)
	lbu	a4,0(a5)
	lbu	a3,1(a5)
	slli	a3,a3,8
	or	a4,a3,a4
	lbu	a3,2(a5)
	slli	a3,a3,16
	or	a4,a3,a4
	lbu	a3,3(a5)
	slli	a3,a3,24
	or	a4,a3,a4
	lbu	a3,4(a5)
	slli	a3,a3,32
	or	a4,a3,a4
	lbu	a3,5(a5)
	slli	a3,a3,40
	or	a4,a3,a4
	lbu	a3,6(a5)
	slli	a3,a3,48
	or	a4,a3,a4
	lbu	a5,7(a5)
	slli	a5,a5,56
	or	a5,a5,a4
	.loc 1 715 107 discriminator 1
	lbu	a5,4(a5)
	.loc 1 715 62 discriminator 1
	sext.w	a5,a5
	mv	a3,a5
	lla	a2,.LC26
	li	a1,-1
	li	a0,-1
	call	ShellPrintEx@plt
	.loc 1 716 12
	lla	a3,.LC77
	lla	a2,.LC12
	li	a1,-1
	li	a0,-1
	call	ShellPrintEx@plt
	.loc 1 716 84 discriminator 1
	ld	a5,-616(s0)
	lbu	a4,0(a5)
	lbu	a3,1(a5)
	slli	a3,a3,8
	or	a4,a3,a4
	lbu	a3,2(a5)
	slli	a3,a3,16
	or	a4,a3,a4
	lbu	a3,3(a5)
	slli	a3,a3,24
	or	a4,a3,a4
	lbu	a3,4(a5)
	slli	a3,a3,32
	or	a4,a3,a4
	lbu	a3,5(a5)
	slli	a3,a3,40
	or	a4,a3,a4
	lbu	a3,6(a5)
	slli	a3,a3,48
	or	a4,a3,a4
	lbu	a5,7(a5)
	slli	a5,a5,56
	or	a5,a5,a4
	.loc 1 716 92 discriminator 1
	lbu	a5,5(a5)
	.loc 1 716 47 discriminator 1
	sext.w	a5,a5
	mv	a3,a5
	lla	a2,.LC26
	li	a1,-1
	li	a0,-1
	call	ShellPrintEx@plt
	.loc 1 717 12
	la	a5,gShellDebug1HiiHandle
	ld	a5,0(a5)
	mv	a4,a5
	li	a3,125
	li	a2,0
	li	a1,-1
	li	a0,-1
	call	ShellPrintHiiEx@plt
	.loc 1 717 79 discriminator 1
	lla	a3,.LC78
	lla	a2,.LC12
	li	a1,-1
	li	a0,-1
	call	ShellPrintEx@plt
	.loc 1 717 117 discriminator 2
	la	a5,gShellDebug1HiiHandle
	ld	a4,0(a5)
	li	a5,15
	li	a3,126
	li	a2,0
	li	a1,-1
	li	a0,-1
	call	ShellPrintHiiEx@plt
	.loc 1 717 215 discriminator 3
	ld	a5,-616(s0)
	lbu	a4,0(a5)
	lbu	a3,1(a5)
	slli	a3,a3,8
	or	a4,a3,a4
	lbu	a3,2(a5)
	slli	a3,a3,16
	or	a4,a3,a4
	lbu	a3,3(a5)
	slli	a3,a3,24
	or	a4,a3,a4
	lbu	a3,4(a5)
	slli	a3,a3,32
	or	a4,a3,a4
	lbu	a3,5(a5)
	slli	a3,a3,40
	or	a4,a3,a4
	lbu	a3,6(a5)
	slli	a3,a3,48
	or	a4,a3,a4
	lbu	a5,7(a5)
	slli	a5,a5,56
	or	a5,a5,a4
	.loc 1 717 207 discriminator 3
	addi	a5,a5,6
	.loc 1 717 188 discriminator 3
	mv	a3,a5
	li	a2,15
	li	a1,0
	li	a0,0
	call	DumpHex@plt
.LBB27:
	.loc 1 718 79
	ld	a5,-616(s0)
	lbu	a4,0(a5)
	lbu	a3,1(a5)
	slli	a3,a3,8
	or	a4,a3,a4
	lbu	a3,2(a5)
	slli	a3,a3,16
	or	a4,a3,a4
	lbu	a3,3(a5)
	slli	a3,a3,24
	or	a4,a3,a4
	lbu	a3,4(a5)
	slli	a3,a3,32
	or	a4,a3,a4
	lbu	a3,5(a5)
	slli	a3,a3,40
	or	a4,a3,a4
	lbu	a3,6(a5)
	slli	a3,a3,48
	or	a4,a3,a4
	lbu	a5,7(a5)
	slli	a5,a5,56
	or	a5,a5,a4
	.loc 1 718 87
	lbu	a5,21(a5)
	.loc 1 718 42
	mv	a1,a5
	ld	a0,-616(s0)
	call	LibGetSmbiosString@plt
	sd	a0,-384(s0)
	.loc 1 718 109 discriminator 1
	lla	a3,.LC79
	lla	a2,.LC12
	li	a1,-1
	li	a0,-1
	call	ShellPrintEx@plt
	.loc 1 718 155 discriminator 2
	ld	a5,-384(s0)
	beq	a5,zero,.L177
	.loc 1 718 155 is_stmt 0 discriminator 3
	ld	a5,-384(s0)
	j	.L178
.L177:
	.loc 1 718 155 discriminator 4
	lla	a5,.LC13
.L178:
	.loc 1 718 155 discriminator 6
	mv	a3,a5
	lla	a2,.LC14
	li	a1,-1
	li	a0,-1
	call	ShellPrintEx@plt
.LBE27:
	.loc 1 719 7 is_stmt 1
	j	.L85
.L60:
.LBB28:
	.loc 1 727 26
	ld	a5,-616(s0)
	lbu	a4,0(a5)
	lbu	a3,1(a5)
	slli	a3,a3,8
	or	a4,a3,a4
	lbu	a3,2(a5)
	slli	a3,a3,16
	or	a4,a3,a4
	lbu	a3,3(a5)
	slli	a3,a3,24
	or	a4,a3,a4
	lbu	a3,4(a5)
	slli	a3,a3,32
	or	a4,a3,a4
	lbu	a3,5(a5)
	slli	a3,a3,40
	or	a4,a3,a4
	lbu	a3,6(a5)
	slli	a3,a3,48
	or	a4,a3,a4
	lbu	a5,7(a5)
	slli	a5,a5,56
	or	a5,a5,a4
	.loc 1 727 39
	lbu	a5,1(a5)
	sext.w	a5,a5
	.loc 1 727 47
	addiw	a5,a5,-5
	sext.w	a5,a5
	.loc 1 727 52
	mv	a3,a5
	sext.w	a4,a3
	li	a5,1431654400
	addi	a5,a5,1366
	mul	a5,a4,a5
	srli	a5,a5,32
	sraiw	a4,a3,31
	subw	a5,a5,a4
	sext.w	a5,a5
	.loc 1 727 17
	sb	a5,-361(s0)
.LBB29:
	.loc 1 728 79
	ld	a5,-616(s0)
	lbu	a4,0(a5)
	lbu	a3,1(a5)
	slli	a3,a3,8
	or	a4,a3,a4
	lbu	a3,2(a5)
	slli	a3,a3,16
	or	a4,a3,a4
	lbu	a3,3(a5)
	slli	a3,a3,24
	or	a4,a3,a4
	lbu	a3,4(a5)
	slli	a3,a3,32
	or	a4,a3,a4
	lbu	a3,5(a5)
	slli	a3,a3,40
	or	a4,a3,a4
	lbu	a3,6(a5)
	slli	a3,a3,48
	or	a4,a3,a4
	lbu	a5,7(a5)
	slli	a5,a5,56
	or	a5,a5,a4
	.loc 1 728 87
	lbu	a5,4(a5)
	.loc 1 728 42
	mv	a1,a5
	ld	a0,-616(s0)
	call	LibGetSmbiosString@plt
	sd	a0,-376(s0)
	.loc 1 728 102 discriminator 1
	lla	a3,.LC80
	lla	a2,.LC12
	li	a1,-1
	li	a0,-1
	call	ShellPrintEx@plt
	.loc 1 728 141 discriminator 2
	ld	a5,-376(s0)
	beq	a5,zero,.L179
	.loc 1 728 141 is_stmt 0 discriminator 3
	ld	a5,-376(s0)
	j	.L180
.L179:
	.loc 1 728 141 discriminator 4
	lla	a5,.LC13
.L180:
	.loc 1 728 141 discriminator 6
	mv	a3,a5
	lla	a2,.LC14
	li	a1,-1
	li	a0,-1
	call	ShellPrintEx@plt
.LBE29:
	.loc 1 729 18 is_stmt 1
	sb	zero,-33(s0)
	.loc 1 729 7
	j	.L181
.L182:
	.loc 1 730 9
	lbu	a5,-33(s0)
	sext.w	a5,a5
	addiw	a5,a5,1
	sext.w	a2,a5
	.loc 1 730 70
	ld	a5,-616(s0)
	lbu	a4,0(a5)
	lbu	a3,1(a5)
	slli	a3,a3,8
	or	a4,a3,a4
	lbu	a3,2(a5)
	slli	a3,a3,16
	or	a4,a3,a4
	lbu	a3,3(a5)
	slli	a3,a3,24
	or	a4,a3,a4
	lbu	a3,4(a5)
	slli	a3,a3,32
	or	a4,a3,a4
	lbu	a3,5(a5)
	slli	a3,a3,40
	or	a4,a3,a4
	lbu	a3,6(a5)
	slli	a3,a3,48
	or	a4,a3,a4
	lbu	a5,7(a5)
	slli	a5,a5,56
	or	a5,a5,a4
	mv	a3,a5
	.loc 1 730 92
	lbu	a5,-33(s0)
	sext.w	a4,a5
	mv	a5,a4
	slli	a5,a5,1
	add	a5,a5,a4
	add	a5,a3,a5
	lbu	a5,5(a5)
	.loc 1 730 9
	sext.w	a5,a5
	mv	a4,a5
	mv	a3,a2
	lla	a2,.LC81
	li	a1,-1
	li	a0,-1
	call	ShellPrintEx@plt
	.loc 1 731 9
	lbu	a5,-33(s0)
	sext.w	a5,a5
	addiw	a5,a5,1
	sext.w	a2,a5
	.loc 1 731 72
	ld	a5,-616(s0)
	lbu	a4,0(a5)
	lbu	a3,1(a5)
	slli	a3,a3,8
	or	a4,a3,a4
	lbu	a3,2(a5)
	slli	a3,a3,16
	or	a4,a3,a4
	lbu	a3,3(a5)
	slli	a3,a3,24
	or	a4,a3,a4
	lbu	a3,4(a5)
	slli	a3,a3,32
	or	a4,a3,a4
	lbu	a3,5(a5)
	slli	a3,a3,40
	or	a4,a3,a4
	lbu	a3,6(a5)
	slli	a3,a3,48
	or	a4,a3,a4
	lbu	a5,7(a5)
	slli	a5,a5,56
	or	a5,a5,a4
	mv	a3,a5
	.loc 1 731 94
	lbu	a5,-33(s0)
	sext.w	a4,a5
	mv	a5,a4
	slli	a5,a5,1
	add	a5,a5,a4
	add	a5,a3,a5
	lbu	a4,6(a5)
	lbu	a5,7(a5)
	slli	a5,a5,8
	or	a5,a5,a4
	slli	a5,a5,48
	srli	a5,a5,48
	.loc 1 731 9
	sext.w	a5,a5
	mv	a4,a5
	mv	a3,a2
	lla	a2,.LC82
	li	a1,-1
	li	a0,-1
	call	ShellPrintEx@plt
	.loc 1 729 47 discriminator 3
	lbu	a5,-33(s0)
	addiw	a5,a5,1
	sb	a5,-33(s0)
.L181:
	.loc 1 729 29 discriminator 1
	lbu	a5,-33(s0)
	mv	a4,a5
	lbu	a5,-361(s0)
	andi	a4,a4,0xff
	andi	a5,a5,0xff
	bltu	a4,a5,.L182
	.loc 1 734 7
	j	.L85
.L59:
.LBE28:
.LBB30:
	.loc 1 746 12
	lla	a3,.LC83
	lla	a2,.LC12
	li	a1,-1
	li	a0,-1
	call	ShellPrintEx@plt
	.loc 1 746 94 discriminator 1
	ld	a5,-616(s0)
	lbu	a4,0(a5)
	lbu	a3,1(a5)
	slli	a3,a3,8
	or	a4,a3,a4
	lbu	a3,2(a5)
	slli	a3,a3,16
	or	a4,a3,a4
	lbu	a3,3(a5)
	slli	a3,a3,24
	or	a4,a3,a4
	lbu	a3,4(a5)
	slli	a3,a3,32
	or	a4,a3,a4
	lbu	a3,5(a5)
	slli	a3,a3,40
	or	a4,a3,a4
	lbu	a3,6(a5)
	slli	a3,a3,48
	or	a4,a3,a4
	lbu	a5,7(a5)
	slli	a5,a5,56
	or	a5,a5,a4
	.loc 1 746 102 discriminator 1
	lbu	a4,4(a5)
	lbu	a5,5(a5)
	slli	a5,a5,8
	or	a5,a5,a4
	slli	a5,a5,48
	srli	a5,a5,48
	.loc 1 746 55 discriminator 1
	sext.w	a5,a5
	mv	a3,a5
	lla	a2,.LC24
	li	a1,-1
	li	a0,-1
	call	ShellPrintEx@plt
	.loc 1 747 12
	lla	a3,.LC84
	lla	a2,.LC12
	li	a1,-1
	li	a0,-1
	call	ShellPrintEx@plt
	.loc 1 747 101 discriminator 1
	ld	a5,-616(s0)
	lbu	a4,0(a5)
	lbu	a3,1(a5)
	slli	a3,a3,8
	or	a4,a3,a4
	lbu	a3,2(a5)
	slli	a3,a3,16
	or	a4,a3,a4
	lbu	a3,3(a5)
	slli	a3,a3,24
	or	a4,a3,a4
	lbu	a3,4(a5)
	slli	a3,a3,32
	or	a4,a3,a4
	lbu	a3,5(a5)
	slli	a3,a3,40
	or	a4,a3,a4
	lbu	a3,6(a5)
	slli	a3,a3,48
	or	a4,a3,a4
	lbu	a5,7(a5)
	slli	a5,a5,56
	or	a5,a5,a4
	.loc 1 747 109 discriminator 1
	lbu	a4,6(a5)
	lbu	a5,7(a5)
	slli	a5,a5,8
	or	a5,a5,a4
	slli	a5,a5,48
	srli	a5,a5,48
	.loc 1 747 62 discriminator 1
	sext.w	a5,a5
	mv	a3,a5
	lla	a2,.LC24
	li	a1,-1
	li	a0,-1
	call	ShellPrintEx@plt
	.loc 1 748 12
	lla	a3,.LC85
	lla	a2,.LC12
	li	a1,-1
	li	a0,-1
	call	ShellPrintEx@plt
	.loc 1 748 99 discriminator 1
	ld	a5,-616(s0)
	lbu	a4,0(a5)
	lbu	a3,1(a5)
	slli	a3,a3,8
	or	a4,a3,a4
	lbu	a3,2(a5)
	slli	a3,a3,16
	or	a4,a3,a4
	lbu	a3,3(a5)
	slli	a3,a3,24
	or	a4,a3,a4
	lbu	a3,4(a5)
	slli	a3,a3,32
	or	a4,a3,a4
	lbu	a3,5(a5)
	slli	a3,a3,40
	or	a4,a3,a4
	lbu	a3,6(a5)
	slli	a3,a3,48
	or	a4,a3,a4
	lbu	a5,7(a5)
	slli	a5,a5,56
	or	a5,a5,a4
	.loc 1 748 107 discriminator 1
	lbu	a4,8(a5)
	lbu	a5,9(a5)
	slli	a5,a5,8
	or	a5,a5,a4
	slli	a5,a5,48
	srli	a5,a5,48
	.loc 1 748 60 discriminator 1
	sext.w	a5,a5
	mv	a3,a5
	lla	a2,.LC24
	li	a1,-1
	li	a0,-1
	call	ShellPrintEx@plt
	.loc 1 749 37
	ld	a5,-616(s0)
	lbu	a4,0(a5)
	lbu	a3,1(a5)
	slli	a3,a3,8
	or	a4,a3,a4
	lbu	a3,2(a5)
	slli	a3,a3,16
	or	a4,a3,a4
	lbu	a3,3(a5)
	slli	a3,a3,24
	or	a4,a3,a4
	lbu	a3,4(a5)
	slli	a3,a3,32
	or	a4,a3,a4
	lbu	a3,5(a5)
	slli	a3,a3,40
	or	a4,a3,a4
	lbu	a3,6(a5)
	slli	a3,a3,48
	or	a4,a3,a4
	lbu	a5,7(a5)
	slli	a5,a5,56
	or	a5,a5,a4
	.loc 1 749 45
	lbu	a5,10(a5)
	.loc 1 749 7
	lbu	a4,-617(s0)
	mv	a1,a4
	mv	a0,a5
	call	DisplaySELAccessMethod@plt
	.loc 1 750 12
	lla	a3,.LC86
	lla	a2,.LC12
	li	a1,-1
	li	a0,-1
	call	ShellPrintEx@plt
	.loc 1 750 100 discriminator 1
	ld	a5,-616(s0)
	lbu	a4,0(a5)
	lbu	a3,1(a5)
	slli	a3,a3,8
	or	a4,a3,a4
	lbu	a3,2(a5)
	slli	a3,a3,16
	or	a4,a3,a4
	lbu	a3,3(a5)
	slli	a3,a3,24
	or	a4,a3,a4
	lbu	a3,4(a5)
	slli	a3,a3,32
	or	a4,a3,a4
	lbu	a3,5(a5)
	slli	a3,a3,40
	or	a4,a3,a4
	lbu	a3,6(a5)
	slli	a3,a3,48
	or	a4,a3,a4
	lbu	a5,7(a5)
	slli	a5,a5,56
	or	a5,a5,a4
	.loc 1 750 61 discriminator 1
	lbu	a4,16(a5)
	lbu	a3,17(a5)
	slli	a3,a3,8
	or	a4,a3,a4
	lbu	a3,18(a5)
	slli	a3,a3,16
	or	a4,a3,a4
	lbu	a5,19(a5)
	slli	a5,a5,24
	or	a5,a5,a4
	sext.w	a5,a5
	mv	a3,a5
	lla	a2,.LC24
	li	a1,-1
	li	a0,-1
	call	ShellPrintEx@plt
	.loc 1 751 34
	ld	a5,-616(s0)
	lbu	a4,0(a5)
	lbu	a3,1(a5)
	slli	a3,a3,8
	or	a4,a3,a4
	lbu	a3,2(a5)
	slli	a3,a3,16
	or	a4,a3,a4
	lbu	a3,3(a5)
	slli	a3,a3,24
	or	a4,a3,a4
	lbu	a3,4(a5)
	slli	a3,a3,32
	or	a4,a3,a4
	lbu	a3,5(a5)
	slli	a3,a3,40
	or	a4,a3,a4
	lbu	a3,6(a5)
	slli	a3,a3,48
	or	a4,a3,a4
	lbu	a5,7(a5)
	slli	a5,a5,56
	or	a5,a5,a4
	.loc 1 751 7
	lbu	a5,11(a5)
	lbu	a4,-617(s0)
	mv	a1,a4
	mv	a0,a5
	call	DisplaySELLogStatus@plt
	.loc 1 752 12
	lla	a3,.LC87
	lla	a2,.LC12
	li	a1,-1
	li	a0,-1
	call	ShellPrintEx@plt
	.loc 1 752 95 discriminator 1
	ld	a5,-616(s0)
	lbu	a4,0(a5)
	lbu	a3,1(a5)
	slli	a3,a3,8
	or	a4,a3,a4
	lbu	a3,2(a5)
	slli	a3,a3,16
	or	a4,a3,a4
	lbu	a3,3(a5)
	slli	a3,a3,24
	or	a4,a3,a4
	lbu	a3,4(a5)
	slli	a3,a3,32
	or	a4,a3,a4
	lbu	a3,5(a5)
	slli	a3,a3,40
	or	a4,a3,a4
	lbu	a3,6(a5)
	slli	a3,a3,48
	or	a4,a3,a4
	lbu	a5,7(a5)
	slli	a5,a5,56
	or	a5,a5,a4
	.loc 1 752 56 discriminator 1
	lbu	a4,12(a5)
	lbu	a3,13(a5)
	slli	a3,a3,8
	or	a4,a3,a4
	lbu	a3,14(a5)
	slli	a3,a3,16
	or	a4,a3,a4
	lbu	a5,15(a5)
	slli	a5,a5,24
	or	a5,a5,a4
	sext.w	a5,a5
	mv	a3,a5
	lla	a2,.LC24
	li	a1,-1
	li	a0,-1
	call	ShellPrintEx@plt
	.loc 1 753 45
	ld	a5,-616(s0)
	lbu	a4,0(a5)
	lbu	a3,1(a5)
	slli	a3,a3,8
	or	a4,a3,a4
	lbu	a3,2(a5)
	slli	a3,a3,16
	or	a4,a3,a4
	lbu	a3,3(a5)
	slli	a3,a3,24
	or	a4,a3,a4
	lbu	a3,4(a5)
	slli	a3,a3,32
	or	a4,a3,a4
	lbu	a3,5(a5)
	slli	a3,a3,40
	or	a4,a3,a4
	lbu	a3,6(a5)
	slli	a3,a3,48
	or	a4,a3,a4
	lbu	a5,7(a5)
	slli	a5,a5,56
	or	a5,a5,a4
	.loc 1 753 7
	lbu	a5,20(a5)
	lbu	a4,-617(s0)
	mv	a1,a4
	mv	a0,a5
	call	DisplaySysEventLogHeaderFormat@plt
	.loc 1 754 12
	lla	a3,.LC88
	lla	a2,.LC12
	li	a1,-1
	li	a0,-1
	call	ShellPrintEx@plt
	.loc 1 754 116 discriminator 1
	ld	a5,-616(s0)
	lbu	a4,0(a5)
	lbu	a3,1(a5)
	slli	a3,a3,8
	or	a4,a3,a4
	lbu	a3,2(a5)
	slli	a3,a3,16
	or	a4,a3,a4
	lbu	a3,3(a5)
	slli	a3,a3,24
	or	a4,a3,a4
	lbu	a3,4(a5)
	slli	a3,a3,32
	or	a4,a3,a4
	lbu	a3,5(a5)
	slli	a3,a3,40
	or	a4,a3,a4
	lbu	a3,6(a5)
	slli	a3,a3,48
	or	a4,a3,a4
	lbu	a5,7(a5)
	slli	a5,a5,56
	or	a5,a5,a4
	.loc 1 754 124 discriminator 1
	lbu	a5,21(a5)
	.loc 1 754 77 discriminator 1
	sext.w	a5,a5
	mv	a3,a5
	lla	a2,.LC24
	li	a1,-1
	li	a0,-1
	call	ShellPrintEx@plt
	.loc 1 755 12
	lla	a3,.LC89
	lla	a2,.LC12
	li	a1,-1
	li	a0,-1
	call	ShellPrintEx@plt
	.loc 1 755 106 discriminator 1
	ld	a5,-616(s0)
	lbu	a4,0(a5)
	lbu	a3,1(a5)
	slli	a3,a3,8
	or	a4,a3,a4
	lbu	a3,2(a5)
	slli	a3,a3,16
	or	a4,a3,a4
	lbu	a3,3(a5)
	slli	a3,a3,24
	or	a4,a3,a4
	lbu	a3,4(a5)
	slli	a3,a3,32
	or	a4,a3,a4
	lbu	a3,5(a5)
	slli	a3,a3,40
	or	a4,a3,a4
	lbu	a3,6(a5)
	slli	a3,a3,48
	or	a4,a3,a4
	lbu	a5,7(a5)
	slli	a5,a5,56
	or	a5,a5,a4
	.loc 1 755 114 discriminator 1
	lbu	a5,22(a5)
	.loc 1 755 67 discriminator 1
	sext.w	a5,a5
	mv	a3,a5
	lla	a2,.LC24
	li	a1,-1
	li	a0,-1
	call	ShellPrintEx@plt
	.loc 1 757 21
	ld	a5,-616(s0)
	lbu	a4,0(a5)
	lbu	a3,1(a5)
	slli	a3,a3,8
	or	a4,a3,a4
	lbu	a3,2(a5)
	slli	a3,a3,16
	or	a4,a3,a4
	lbu	a3,3(a5)
	slli	a3,a3,24
	or	a4,a3,a4
	lbu	a3,4(a5)
	slli	a3,a3,32
	or	a4,a3,a4
	lbu	a3,5(a5)
	slli	a3,a3,40
	or	a4,a3,a4
	lbu	a3,6(a5)
	slli	a3,a3,48
	or	a4,a3,a4
	lbu	a5,7(a5)
	slli	a5,a5,56
	or	a5,a5,a4
	.loc 1 757 13
	lbu	a5,21(a5)
	sb	a5,-345(s0)
	.loc 1 758 10
	lbu	a5,-345(s0)
	andi	a5,a5,0xff
	beq	a5,zero,.L312
	.loc 1 759 21
	ld	a5,-616(s0)
	lbu	a4,0(a5)
	lbu	a3,1(a5)
	slli	a3,a3,8
	or	a4,a3,a4
	lbu	a3,2(a5)
	slli	a3,a3,16
	or	a4,a3,a4
	lbu	a3,3(a5)
	slli	a3,a3,24
	or	a4,a3,a4
	lbu	a3,4(a5)
	slli	a3,a3,32
	or	a4,a3,a4
	lbu	a3,5(a5)
	slli	a3,a3,40
	or	a4,a3,a4
	lbu	a3,6(a5)
	slli	a3,a3,48
	or	a4,a3,a4
	lbu	a5,7(a5)
	slli	a5,a5,56
	or	a5,a5,a4
	.loc 1 759 13
	addi	a5,a5,23
	sd	a5,-56(s0)
	.loc 1 764 20
	sb	zero,-33(s0)
	.loc 1 764 9
	j	.L184
.L185:
	.loc 1 765 11
	la	a5,gShellDebug1HiiHandle
	ld	a4,0(a5)
	lbu	a5,-33(s0)
	sext.w	a5,a5
	addiw	a5,a5,1
	sext.w	a5,a5
	li	a3,163
	li	a2,0
	li	a1,-1
	li	a0,-1
	call	ShellPrintHiiEx@plt
	.loc 1 766 11
	ld	a5,-56(s0)
	lbu	a5,0(a5)
	lbu	a4,-617(s0)
	mv	a1,a4
	mv	a0,a5
	call	DisplaySELTypes@plt
	.loc 1 767 11
	ld	a5,-56(s0)
	lbu	a5,1(a5)
	lbu	a4,-617(s0)
	mv	a1,a4
	mv	a0,a5
	call	DisplaySELVarDataFormatType@plt
	.loc 1 764 45 discriminator 3
	lbu	a5,-33(s0)
	addiw	a5,a5,1
	sb	a5,-33(s0)
	.loc 1 764 52 discriminator 3
	ld	a5,-56(s0)
	addi	a5,a5,2
	sd	a5,-56(s0)
.L184:
	.loc 1 764 31 discriminator 1
	lbu	a5,-33(s0)
	mv	a4,a5
	lbu	a5,-345(s0)
	andi	a4,a4,0xff
	andi	a5,a5,0xff
	bltu	a4,a5,.L185
	.loc 1 770 12
	lbu	a5,-617(s0)
	andi	a4,a5,0xff
	li	a5,2
	bleu	a4,a5,.L312
	.loc 1 771 25
	ld	a5,-616(s0)
	lbu	a4,0(a5)
	lbu	a3,1(a5)
	slli	a3,a3,8
	or	a4,a3,a4
	lbu	a3,2(a5)
	slli	a3,a3,16
	or	a4,a3,a4
	lbu	a3,3(a5)
	slli	a3,a3,24
	or	a4,a3,a4
	lbu	a3,4(a5)
	slli	a3,a3,32
	or	a4,a3,a4
	lbu	a3,5(a5)
	slli	a3,a3,40
	or	a4,a3,a4
	lbu	a3,6(a5)
	slli	a3,a3,48
	or	a4,a3,a4
	lbu	a5,7(a5)
	slli	a5,a5,56
	or	a5,a5,a4
	.loc 1 771 33
	lbu	a5,10(a5)
	sext.w	a4,a5
	.loc 1 771 11
	li	a5,3
	bne	a4,a5,.L186
	.loc 1 773 60
	ld	a5,-616(s0)
	lbu	a4,0(a5)
	lbu	a3,1(a5)
	slli	a3,a3,8
	or	a4,a3,a4
	lbu	a3,2(a5)
	slli	a3,a3,16
	or	a4,a3,a4
	lbu	a3,3(a5)
	slli	a3,a3,24
	or	a4,a3,a4
	lbu	a3,4(a5)
	slli	a3,a3,32
	or	a4,a3,a4
	lbu	a3,5(a5)
	slli	a3,a3,40
	or	a4,a3,a4
	lbu	a3,6(a5)
	slli	a3,a3,48
	or	a4,a3,a4
	lbu	a5,7(a5)
	slli	a5,a5,56
	or	a5,a5,a4
	.loc 1 773 68
	lbu	a4,16(a5)
	lbu	a3,17(a5)
	slli	a3,a3,8
	or	a4,a3,a4
	lbu	a3,18(a5)
	slli	a3,a3,16
	or	a4,a3,a4
	lbu	a5,19(a5)
	slli	a5,a5,24
	or	a5,a5,a4
	sext.w	a5,a5
	.loc 1 773 46
	slli	a5,a5,32
	srli	a5,a5,32
	.loc 1 773 35
	sd	a5,-360(s0)
	.loc 1 774 15
	nop
	.loc 1 799 19
	ld	a5,-616(s0)
	lbu	a4,0(a5)
	lbu	a3,1(a5)
	slli	a3,a3,8
	or	a4,a3,a4
	lbu	a3,2(a5)
	slli	a3,a3,16
	or	a4,a3,a4
	lbu	a3,3(a5)
	slli	a3,a3,24
	or	a4,a3,a4
	lbu	a3,4(a5)
	slli	a3,a3,32
	or	a4,a3,a4
	lbu	a3,5(a5)
	slli	a3,a3,40
	or	a4,a3,a4
	lbu	a3,6(a5)
	slli	a3,a3,48
	or	a4,a3,a4
	lbu	a5,7(a5)
	slli	a5,a5,56
	or	a5,a5,a4
	.loc 1 798 11
	lbu	a2,20(a5)
	.loc 1 800 41
	ld	a5,-616(s0)
	lbu	a4,0(a5)
	lbu	a3,1(a5)
	slli	a3,a3,8
	or	a4,a3,a4
	lbu	a3,2(a5)
	slli	a3,a3,16
	or	a4,a3,a4
	lbu	a3,3(a5)
	slli	a3,a3,24
	or	a4,a3,a4
	lbu	a3,4(a5)
	slli	a3,a3,32
	or	a4,a3,a4
	lbu	a3,5(a5)
	slli	a3,a3,40
	or	a4,a3,a4
	lbu	a3,6(a5)
	slli	a3,a3,48
	or	a4,a3,a4
	lbu	a5,7(a5)
	slli	a5,a5,56
	or	a5,a5,a4
	.loc 1 800 49
	lbu	a4,6(a5)
	lbu	a5,7(a5)
	slli	a5,a5,8
	or	a5,a5,a4
	slli	a5,a5,48
	srli	a5,a5,48
	mv	a4,a5
	.loc 1 798 11
	ld	a5,-360(s0)
	add	a5,a5,a4
	mv	a1,a5
	mv	a0,a2
	call	DisplaySysEventLogHeader@plt
	.loc 1 810 41
	ld	a5,-616(s0)
	lbu	a4,0(a5)
	lbu	a3,1(a5)
	slli	a3,a3,8
	or	a4,a3,a4
	lbu	a3,2(a5)
	slli	a3,a3,16
	or	a4,a3,a4
	lbu	a3,3(a5)
	slli	a3,a3,24
	or	a4,a3,a4
	lbu	a3,4(a5)
	slli	a3,a3,32
	or	a4,a3,a4
	lbu	a3,5(a5)
	slli	a3,a3,40
	or	a4,a3,a4
	lbu	a3,6(a5)
	slli	a3,a3,48
	or	a4,a3,a4
	lbu	a5,7(a5)
	slli	a5,a5,56
	or	a5,a5,a4
	.loc 1 810 49
	lbu	a4,8(a5)
	lbu	a5,9(a5)
	slli	a5,a5,8
	or	a5,a5,a4
	slli	a5,a5,48
	srli	a5,a5,48
	mv	a4,a5
	.loc 1 809 11
	ld	a5,-360(s0)
	add	a0,a5,a4
	.loc 1 813 20
	ld	a5,-616(s0)
	lbu	a4,0(a5)
	lbu	a3,1(a5)
	slli	a3,a3,8
	or	a4,a3,a4
	lbu	a3,2(a5)
	slli	a3,a3,16
	or	a4,a3,a4
	lbu	a3,3(a5)
	slli	a3,a3,24
	or	a4,a3,a4
	lbu	a3,4(a5)
	slli	a3,a3,32
	or	a4,a3,a4
	lbu	a3,5(a5)
	slli	a3,a3,40
	or	a4,a3,a4
	lbu	a3,6(a5)
	slli	a3,a3,48
	or	a4,a3,a4
	lbu	a5,7(a5)
	slli	a5,a5,56
	or	a5,a5,a4
	.loc 1 813 28
	lbu	a4,4(a5)
	lbu	a5,5(a5)
	slli	a5,a5,8
	or	a5,a5,a4
	slli	a4,a5,48
	srli	a4,a4,48
	.loc 1 814 58
	ld	a5,-616(s0)
	lbu	a3,0(a5)
	lbu	a2,1(a5)
	slli	a2,a2,8
	or	a3,a2,a3
	lbu	a2,2(a5)
	slli	a2,a2,16
	or	a3,a2,a3
	lbu	a2,3(a5)
	slli	a2,a2,24
	or	a3,a2,a3
	lbu	a2,4(a5)
	slli	a2,a2,32
	or	a3,a2,a3
	lbu	a2,5(a5)
	slli	a2,a2,40
	or	a3,a2,a3
	lbu	a2,6(a5)
	slli	a2,a2,48
	or	a3,a2,a3
	lbu	a5,7(a5)
	slli	a5,a5,56
	or	a5,a5,a3
	.loc 1 814 66
	lbu	a3,6(a5)
	lbu	a5,7(a5)
	slli	a5,a5,8
	or	a5,a5,a3
	slli	a3,a5,48
	srli	a3,a3,48
	.loc 1 814 21
	ld	a5,-616(s0)
	lbu	a2,0(a5)
	lbu	a1,1(a5)
	slli	a1,a1,8
	or	a2,a1,a2
	lbu	a1,2(a5)
	slli	a1,a1,16
	or	a2,a1,a2
	lbu	a1,3(a5)
	slli	a1,a1,24
	or	a2,a1,a2
	lbu	a1,4(a5)
	slli	a1,a1,32
	or	a2,a1,a2
	lbu	a1,5(a5)
	slli	a1,a1,40
	or	a2,a1,a2
	lbu	a1,6(a5)
	slli	a1,a1,48
	or	a2,a1,a2
	lbu	a5,7(a5)
	slli	a5,a5,56
	or	a5,a5,a2
	.loc 1 814 29
	lbu	a2,8(a5)
	lbu	a5,9(a5)
	slli	a5,a5,8
	or	a5,a5,a2
	slli	a5,a5,48
	srli	a5,a5,48
	.loc 1 813 44
	subw	a5,a3,a5
	slli	a5,a5,48
	srli	a5,a5,48
	.loc 1 811 13
	addw	a5,a4,a5
	slli	a5,a5,48
	srli	a5,a5,48
	.loc 1 809 11
	mv	a1,a5
	call	DisplaySysEventLogData@plt
	.loc 1 820 7
	j	.L312
.L186:
	.loc 1 781 15
	la	a5,gShellDebug1HiiHandle
	ld	a2,0(a5)
	.loc 1 787 23
	ld	a5,-616(s0)
	lbu	a4,0(a5)
	lbu	a3,1(a5)
	slli	a3,a3,8
	or	a4,a3,a4
	lbu	a3,2(a5)
	slli	a3,a3,16
	or	a4,a3,a4
	lbu	a3,3(a5)
	slli	a3,a3,24
	or	a4,a3,a4
	lbu	a3,4(a5)
	slli	a3,a3,32
	or	a4,a3,a4
	lbu	a3,5(a5)
	slli	a3,a3,40
	or	a4,a3,a4
	lbu	a3,6(a5)
	slli	a3,a3,48
	or	a4,a3,a4
	lbu	a5,7(a5)
	slli	a5,a5,56
	or	a5,a5,a4
	.loc 1 787 31
	lbu	a5,10(a5)
	.loc 1 781 15
	sext.w	a5,a5
	mv	a4,a2
	li	a3,164
	li	a2,0
	li	a1,-1
	li	a0,-1
	call	ShellPrintHiiEx@plt
	.loc 1 789 22
	li	a5,-1
	slli	a5,a5,63
	addi	a5,a5,3
	j	.L22
.L58:
.LBE30:
	.loc 1 827 33
	ld	a5,-616(s0)
	lbu	a4,0(a5)
	lbu	a3,1(a5)
	slli	a3,a3,8
	or	a4,a3,a4
	lbu	a3,2(a5)
	slli	a3,a3,16
	or	a4,a3,a4
	lbu	a3,3(a5)
	slli	a3,a3,24
	or	a4,a3,a4
	lbu	a3,4(a5)
	slli	a3,a3,32
	or	a4,a3,a4
	lbu	a3,5(a5)
	slli	a3,a3,40
	or	a4,a3,a4
	lbu	a3,6(a5)
	slli	a3,a3,48
	or	a4,a3,a4
	lbu	a5,7(a5)
	slli	a5,a5,56
	or	a5,a5,a4
	.loc 1 827 7
	lbu	a5,4(a5)
	lbu	a4,-617(s0)
	mv	a1,a4
	mv	a0,a5
	call	DisplayPMALocation@plt
	.loc 1 828 28
	ld	a5,-616(s0)
	lbu	a4,0(a5)
	lbu	a3,1(a5)
	slli	a3,a3,8
	or	a4,a3,a4
	lbu	a3,2(a5)
	slli	a3,a3,16
	or	a4,a3,a4
	lbu	a3,3(a5)
	slli	a3,a3,24
	or	a4,a3,a4
	lbu	a3,4(a5)
	slli	a3,a3,32
	or	a4,a3,a4
	lbu	a3,5(a5)
	slli	a3,a3,40
	or	a4,a3,a4
	lbu	a3,6(a5)
	slli	a3,a3,48
	or	a4,a3,a4
	lbu	a5,7(a5)
	slli	a5,a5,56
	or	a5,a5,a4
	.loc 1 828 7
	lbu	a5,5(a5)
	lbu	a4,-617(s0)
	mv	a1,a4
	mv	a0,a5
	call	DisplayPMAUse@plt
	.loc 1 830 15
	ld	a5,-616(s0)
	lbu	a4,0(a5)
	lbu	a3,1(a5)
	slli	a3,a3,8
	or	a4,a3,a4
	lbu	a3,2(a5)
	slli	a3,a3,16
	or	a4,a3,a4
	lbu	a3,3(a5)
	slli	a3,a3,24
	or	a4,a3,a4
	lbu	a3,4(a5)
	slli	a3,a3,32
	or	a4,a3,a4
	lbu	a3,5(a5)
	slli	a3,a3,40
	or	a4,a3,a4
	lbu	a3,6(a5)
	slli	a3,a3,48
	or	a4,a3,a4
	lbu	a5,7(a5)
	slli	a5,a5,56
	or	a5,a5,a4
	.loc 1 829 7
	lbu	a5,6(a5)
	lbu	a4,-617(s0)
	mv	a1,a4
	mv	a0,a5
	call	DisplayPMAErrorCorrectionTypes@plt
	.loc 1 833 12
	lla	a3,.LC90
	lla	a2,.LC12
	li	a1,-1
	li	a0,-1
	call	ShellPrintEx@plt
	.loc 1 833 96 discriminator 1
	ld	a5,-616(s0)
	lbu	a4,0(a5)
	lbu	a3,1(a5)
	slli	a3,a3,8
	or	a4,a3,a4
	lbu	a3,2(a5)
	slli	a3,a3,16
	or	a4,a3,a4
	lbu	a3,3(a5)
	slli	a3,a3,24
	or	a4,a3,a4
	lbu	a3,4(a5)
	slli	a3,a3,32
	or	a4,a3,a4
	lbu	a3,5(a5)
	slli	a3,a3,40
	or	a4,a3,a4
	lbu	a3,6(a5)
	slli	a3,a3,48
	or	a4,a3,a4
	lbu	a5,7(a5)
	slli	a5,a5,56
	or	a5,a5,a4
	.loc 1 833 57 discriminator 1
	lbu	a4,7(a5)
	lbu	a3,8(a5)
	slli	a3,a3,8
	or	a4,a3,a4
	lbu	a3,9(a5)
	slli	a3,a3,16
	or	a4,a3,a4
	lbu	a5,10(a5)
	slli	a5,a5,24
	or	a5,a5,a4
	sext.w	a5,a5
	mv	a3,a5
	lla	a2,.LC24
	li	a1,-1
	li	a0,-1
	call	ShellPrintEx@plt
	.loc 1 834 12
	lla	a3,.LC91
	lla	a2,.LC12
	li	a1,-1
	li	a0,-1
	call	ShellPrintEx@plt
	.loc 1 834 109 discriminator 1
	ld	a5,-616(s0)
	lbu	a4,0(a5)
	lbu	a3,1(a5)
	slli	a3,a3,8
	or	a4,a3,a4
	lbu	a3,2(a5)
	slli	a3,a3,16
	or	a4,a3,a4
	lbu	a3,3(a5)
	slli	a3,a3,24
	or	a4,a3,a4
	lbu	a3,4(a5)
	slli	a3,a3,32
	or	a4,a3,a4
	lbu	a3,5(a5)
	slli	a3,a3,40
	or	a4,a3,a4
	lbu	a3,6(a5)
	slli	a3,a3,48
	or	a4,a3,a4
	lbu	a5,7(a5)
	slli	a5,a5,56
	or	a5,a5,a4
	.loc 1 834 117 discriminator 1
	lbu	a4,11(a5)
	lbu	a5,12(a5)
	slli	a5,a5,8
	or	a5,a5,a4
	slli	a5,a5,48
	srli	a5,a5,48
	.loc 1 834 70 discriminator 1
	sext.w	a5,a5
	mv	a3,a5
	lla	a2,.LC24
	li	a1,-1
	li	a0,-1
	call	ShellPrintEx@plt
	.loc 1 835 12
	lla	a3,.LC92
	lla	a2,.LC12
	li	a1,-1
	li	a0,-1
	call	ShellPrintEx@plt
	.loc 1 835 102 discriminator 1
	ld	a5,-616(s0)
	lbu	a4,0(a5)
	lbu	a3,1(a5)
	slli	a3,a3,8
	or	a4,a3,a4
	lbu	a3,2(a5)
	slli	a3,a3,16
	or	a4,a3,a4
	lbu	a3,3(a5)
	slli	a3,a3,24
	or	a4,a3,a4
	lbu	a3,4(a5)
	slli	a3,a3,32
	or	a4,a3,a4
	lbu	a3,5(a5)
	slli	a3,a3,40
	or	a4,a3,a4
	lbu	a3,6(a5)
	slli	a3,a3,48
	or	a4,a3,a4
	lbu	a5,7(a5)
	slli	a5,a5,56
	or	a5,a5,a4
	.loc 1 835 110 discriminator 1
	lbu	a4,13(a5)
	lbu	a5,14(a5)
	slli	a5,a5,8
	or	a5,a5,a4
	slli	a5,a5,48
	srli	a5,a5,48
	.loc 1 835 63 discriminator 1
	sext.w	a5,a5
	mv	a3,a5
	lla	a2,.LC24
	li	a1,-1
	li	a0,-1
	call	ShellPrintEx@plt
	.loc 1 836 31
	la	a5,SmbiosMajorVersion
	lbu	a5,0(a5)
	.loc 1 836 10
	mv	a4,a5
	li	a5,2
	bgtu	a4,a5,.L188
	.loc 1 836 62 discriminator 2
	la	a5,SmbiosMajorVersion
	lbu	a5,0(a5)
	.loc 1 836 39 discriminator 2
	mv	a4,a5
	li	a5,2
	bne	a4,a5,.L313
	.loc 1 836 93 discriminator 3
	la	a5,SmbiosMinorVersion
	lbu	a5,0(a5)
	.loc 1 836 71 discriminator 3
	mv	a4,a5
	li	a5,6
	bleu	a4,a5,.L313
.L188:
	.loc 1 836 114 discriminator 4
	ld	a5,-616(s0)
	lbu	a4,0(a5)
	lbu	a3,1(a5)
	slli	a3,a3,8
	or	a4,a3,a4
	lbu	a3,2(a5)
	slli	a3,a3,16
	or	a4,a3,a4
	lbu	a3,3(a5)
	slli	a3,a3,24
	or	a4,a3,a4
	lbu	a3,4(a5)
	slli	a3,a3,32
	or	a4,a3,a4
	lbu	a3,5(a5)
	slli	a3,a3,40
	or	a4,a3,a4
	lbu	a3,6(a5)
	slli	a3,a3,48
	or	a4,a3,a4
	lbu	a5,7(a5)
	slli	a5,a5,56
	or	a5,a5,a4
	.loc 1 836 119 discriminator 4
	lbu	a5,1(a5)
	.loc 1 836 104 discriminator 4
	mv	a4,a5
	li	a5,15
	bleu	a4,a5,.L313
	.loc 1 837 14
	lla	a3,.LC93
	lla	a2,.LC12
	li	a1,-1
	li	a0,-1
	call	ShellPrintEx@plt
	.loc 1 837 107 discriminator 1
	ld	a5,-616(s0)
	lbu	a4,0(a5)
	lbu	a3,1(a5)
	slli	a3,a3,8
	or	a4,a3,a4
	lbu	a3,2(a5)
	slli	a3,a3,16
	or	a4,a3,a4
	lbu	a3,3(a5)
	slli	a3,a3,24
	or	a4,a3,a4
	lbu	a3,4(a5)
	slli	a3,a3,32
	or	a4,a3,a4
	lbu	a3,5(a5)
	slli	a3,a3,40
	or	a4,a3,a4
	lbu	a3,6(a5)
	slli	a3,a3,48
	or	a4,a3,a4
	lbu	a5,7(a5)
	slli	a5,a5,56
	or	a5,a5,a4
	.loc 1 837 67 discriminator 1
	lbu	a4,15(a5)
	lbu	a3,16(a5)
	slli	a3,a3,8
	or	a4,a3,a4
	lbu	a3,17(a5)
	slli	a3,a3,16
	or	a4,a3,a4
	lbu	a3,18(a5)
	slli	a3,a3,24
	or	a4,a3,a4
	lbu	a3,19(a5)
	slli	a3,a3,32
	or	a4,a3,a4
	lbu	a3,20(a5)
	slli	a3,a3,40
	or	a4,a3,a4
	lbu	a3,21(a5)
	slli	a3,a3,48
	or	a4,a3,a4
	lbu	a5,22(a5)
	slli	a5,a5,56
	or	a5,a5,a4
	mv	a3,a5
	lla	a2,.LC94
	li	a1,-1
	li	a0,-1
	call	ShellPrintEx@plt
	.loc 1 840 7
	j	.L313
.L57:
	.loc 1 846 76
	ld	a5,-616(s0)
	lbu	a4,0(a5)
	lbu	a3,1(a5)
	slli	a3,a3,8
	or	a4,a3,a4
	lbu	a3,2(a5)
	slli	a3,a3,16
	or	a4,a3,a4
	lbu	a3,3(a5)
	slli	a3,a3,24
	or	a4,a3,a4
	lbu	a3,4(a5)
	slli	a3,a3,32
	or	a4,a3,a4
	lbu	a3,5(a5)
	slli	a3,a3,40
	or	a4,a3,a4
	lbu	a3,6(a5)
	slli	a3,a3,48
	or	a4,a3,a4
	lbu	a5,7(a5)
	slli	a5,a5,56
	or	a5,a5,a4
	.loc 1 846 84
	lbu	a4,4(a5)
	lbu	a5,5(a5)
	slli	a5,a5,8
	or	a5,a5,a4
	slli	a5,a5,48
	srli	a5,a5,48
	.loc 1 846 7
	sext.w	a5,a5
	mv	a3,a5
	lla	a2,.LC95
	li	a1,-1
	li	a0,-1
	call	ShellPrintEx@plt
	.loc 1 847 79
	ld	a5,-616(s0)
	lbu	a4,0(a5)
	lbu	a3,1(a5)
	slli	a3,a3,8
	or	a4,a3,a4
	lbu	a3,2(a5)
	slli	a3,a3,16
	or	a4,a3,a4
	lbu	a3,3(a5)
	slli	a3,a3,24
	or	a4,a3,a4
	lbu	a3,4(a5)
	slli	a3,a3,32
	or	a4,a3,a4
	lbu	a3,5(a5)
	slli	a3,a3,40
	or	a4,a3,a4
	lbu	a3,6(a5)
	slli	a3,a3,48
	or	a4,a3,a4
	lbu	a5,7(a5)
	slli	a5,a5,56
	or	a5,a5,a4
	.loc 1 847 87
	lbu	a4,6(a5)
	lbu	a5,7(a5)
	slli	a5,a5,8
	or	a5,a5,a4
	slli	a5,a5,48
	srli	a5,a5,48
	.loc 1 847 7
	sext.w	a5,a5
	mv	a3,a5
	lla	a2,.LC96
	li	a1,-1
	li	a0,-1
	call	ShellPrintEx@plt
	.loc 1 848 59
	ld	a5,-616(s0)
	lbu	a4,0(a5)
	lbu	a3,1(a5)
	slli	a3,a3,8
	or	a4,a3,a4
	lbu	a3,2(a5)
	slli	a3,a3,16
	or	a4,a3,a4
	lbu	a3,3(a5)
	slli	a3,a3,24
	or	a4,a3,a4
	lbu	a3,4(a5)
	slli	a3,a3,32
	or	a4,a3,a4
	lbu	a3,5(a5)
	slli	a3,a3,40
	or	a4,a3,a4
	lbu	a3,6(a5)
	slli	a3,a3,48
	or	a4,a3,a4
	lbu	a5,7(a5)
	slli	a5,a5,56
	or	a5,a5,a4
	.loc 1 848 67
	lbu	a4,8(a5)
	lbu	a5,9(a5)
	slli	a5,a5,8
	or	a5,a5,a4
	slli	a5,a5,48
	srli	a5,a5,48
	.loc 1 848 7
	sext.w	a5,a5
	mv	a3,a5
	lla	a2,.LC97
	li	a1,-1
	li	a0,-1
	call	ShellPrintEx@plt
	.loc 1 849 58
	ld	a5,-616(s0)
	lbu	a4,0(a5)
	lbu	a3,1(a5)
	slli	a3,a3,8
	or	a4,a3,a4
	lbu	a3,2(a5)
	slli	a3,a3,16
	or	a4,a3,a4
	lbu	a3,3(a5)
	slli	a3,a3,24
	or	a4,a3,a4
	lbu	a3,4(a5)
	slli	a3,a3,32
	or	a4,a3,a4
	lbu	a3,5(a5)
	slli	a3,a3,40
	or	a4,a3,a4
	lbu	a3,6(a5)
	slli	a3,a3,48
	or	a4,a3,a4
	lbu	a5,7(a5)
	slli	a5,a5,56
	or	a5,a5,a4
	.loc 1 849 66
	lbu	a4,10(a5)
	lbu	a5,11(a5)
	slli	a5,a5,8
	or	a5,a5,a4
	slli	a5,a5,48
	srli	a5,a5,48
	.loc 1 849 7
	sext.w	a5,a5
	mv	a3,a5
	lla	a2,.LC98
	li	a1,-1
	li	a0,-1
	call	ShellPrintEx@plt
	.loc 1 850 12
	lla	a3,.LC99
	lla	a2,.LC12
	li	a1,-1
	li	a0,-1
	call	ShellPrintEx@plt
	.loc 1 850 83 discriminator 1
	ld	a5,-616(s0)
	lbu	a4,0(a5)
	lbu	a3,1(a5)
	slli	a3,a3,8
	or	a4,a3,a4
	lbu	a3,2(a5)
	slli	a3,a3,16
	or	a4,a3,a4
	lbu	a3,3(a5)
	slli	a3,a3,24
	or	a4,a3,a4
	lbu	a3,4(a5)
	slli	a3,a3,32
	or	a4,a3,a4
	lbu	a3,5(a5)
	slli	a3,a3,40
	or	a4,a3,a4
	lbu	a3,6(a5)
	slli	a3,a3,48
	or	a4,a3,a4
	lbu	a5,7(a5)
	slli	a5,a5,56
	or	a5,a5,a4
	.loc 1 850 91 discriminator 1
	lbu	a4,12(a5)
	lbu	a5,13(a5)
	slli	a5,a5,8
	or	a5,a5,a4
	slli	a5,a5,48
	srli	a5,a5,48
	.loc 1 850 46 discriminator 1
	sext.w	a5,a5
	mv	a3,a5
	lla	a2,.LC26
	li	a1,-1
	li	a0,-1
	call	ShellPrintEx@plt
	.loc 1 851 44
	ld	a5,-616(s0)
	lbu	a4,0(a5)
	lbu	a3,1(a5)
	slli	a3,a3,8
	or	a4,a3,a4
	lbu	a3,2(a5)
	slli	a3,a3,16
	or	a4,a3,a4
	lbu	a3,3(a5)
	slli	a3,a3,24
	or	a4,a3,a4
	lbu	a3,4(a5)
	slli	a3,a3,32
	or	a4,a3,a4
	lbu	a3,5(a5)
	slli	a3,a3,40
	or	a4,a3,a4
	lbu	a3,6(a5)
	slli	a3,a3,48
	or	a4,a3,a4
	lbu	a5,7(a5)
	slli	a5,a5,56
	or	a5,a5,a4
	.loc 1 851 7
	lbu	a5,14(a5)
	lbu	a4,-617(s0)
	mv	a1,a4
	mv	a0,a5
	call	DisplayMemoryDeviceFormFactor@plt
	.loc 1 852 58
	ld	a5,-616(s0)
	lbu	a4,0(a5)
	lbu	a3,1(a5)
	slli	a3,a3,8
	or	a4,a3,a4
	lbu	a3,2(a5)
	slli	a3,a3,16
	or	a4,a3,a4
	lbu	a3,3(a5)
	slli	a3,a3,24
	or	a4,a3,a4
	lbu	a3,4(a5)
	slli	a3,a3,32
	or	a4,a3,a4
	lbu	a3,5(a5)
	slli	a3,a3,40
	or	a4,a3,a4
	lbu	a3,6(a5)
	slli	a3,a3,48
	or	a4,a3,a4
	lbu	a5,7(a5)
	slli	a5,a5,56
	or	a5,a5,a4
	.loc 1 852 66
	lbu	a5,15(a5)
	.loc 1 852 7
	sext.w	a5,a5
	mv	a3,a5
	lla	a2,.LC100
	li	a1,-1
	li	a0,-1
	call	ShellPrintEx@plt
	.loc 1 853 88
	ld	a5,-616(s0)
	lbu	a4,0(a5)
	lbu	a3,1(a5)
	slli	a3,a3,8
	or	a4,a3,a4
	lbu	a3,2(a5)
	slli	a3,a3,16
	or	a4,a3,a4
	lbu	a3,3(a5)
	slli	a3,a3,24
	or	a4,a3,a4
	lbu	a3,4(a5)
	slli	a3,a3,32
	or	a4,a3,a4
	lbu	a3,5(a5)
	slli	a3,a3,40
	or	a4,a3,a4
	lbu	a3,6(a5)
	slli	a3,a3,48
	or	a4,a3,a4
	lbu	a5,7(a5)
	slli	a5,a5,56
	or	a5,a5,a4
	.loc 1 853 96
	lbu	a5,16(a5)
	.loc 1 853 7
	mv	a1,a5
	ld	a0,-616(s0)
	call	LibGetSmbiosString@plt
	mv	a5,a0
	.loc 1 853 7 is_stmt 0 discriminator 1
	mv	a3,a5
	lla	a2,.LC101
	li	a1,-1
	li	a0,-1
	call	ShellPrintEx@plt
	.loc 1 854 86 is_stmt 1
	ld	a5,-616(s0)
	lbu	a4,0(a5)
	lbu	a3,1(a5)
	slli	a3,a3,8
	or	a4,a3,a4
	lbu	a3,2(a5)
	slli	a3,a3,16
	or	a4,a3,a4
	lbu	a3,3(a5)
	slli	a3,a3,24
	or	a4,a3,a4
	lbu	a3,4(a5)
	slli	a3,a3,32
	or	a4,a3,a4
	lbu	a3,5(a5)
	slli	a3,a3,40
	or	a4,a3,a4
	lbu	a3,6(a5)
	slli	a3,a3,48
	or	a4,a3,a4
	lbu	a5,7(a5)
	slli	a5,a5,56
	or	a5,a5,a4
	.loc 1 854 94
	lbu	a5,17(a5)
	.loc 1 854 7
	mv	a1,a5
	ld	a0,-616(s0)
	call	LibGetSmbiosString@plt
	mv	a5,a0
	.loc 1 854 7 is_stmt 0 discriminator 1
	mv	a3,a5
	lla	a2,.LC102
	li	a1,-1
	li	a0,-1
	call	ShellPrintEx@plt
	.loc 1 855 38 is_stmt 1
	ld	a5,-616(s0)
	lbu	a4,0(a5)
	lbu	a3,1(a5)
	slli	a3,a3,8
	or	a4,a3,a4
	lbu	a3,2(a5)
	slli	a3,a3,16
	or	a4,a3,a4
	lbu	a3,3(a5)
	slli	a3,a3,24
	or	a4,a3,a4
	lbu	a3,4(a5)
	slli	a3,a3,32
	or	a4,a3,a4
	lbu	a3,5(a5)
	slli	a3,a3,40
	or	a4,a3,a4
	lbu	a3,6(a5)
	slli	a3,a3,48
	or	a4,a3,a4
	lbu	a5,7(a5)
	slli	a5,a5,56
	or	a5,a5,a4
	.loc 1 855 7
	lbu	a5,18(a5)
	lbu	a4,-617(s0)
	mv	a1,a4
	mv	a0,a5
	call	DisplayMemoryDeviceType@plt
	.loc 1 856 80
	ld	a5,-616(s0)
	lbu	a4,0(a5)
	lbu	a3,1(a5)
	slli	a3,a3,8
	or	a4,a3,a4
	lbu	a3,2(a5)
	slli	a3,a3,16
	or	a4,a3,a4
	lbu	a3,3(a5)
	slli	a3,a3,24
	or	a4,a3,a4
	lbu	a3,4(a5)
	slli	a3,a3,32
	or	a4,a3,a4
	lbu	a3,5(a5)
	slli	a3,a3,40
	or	a4,a3,a4
	lbu	a3,6(a5)
	slli	a3,a3,48
	or	a4,a3,a4
	lbu	a5,7(a5)
	slli	a5,a5,56
	or	a5,a5,a4
	.loc 1 856 72
	addi	a5,a5,19
	.loc 1 856 7
	mv	a0,a5
	call	ReadUnaligned16@plt
	mv	a5,a0
	mv	a4,a5
	.loc 1 856 7 is_stmt 0 discriminator 1
	lbu	a5,-617(s0)
	mv	a1,a5
	mv	a0,a4
	call	DisplayMemoryDeviceTypeDetail@plt
	.loc 1 857 12 is_stmt 1
	lla	a3,.LC103
	lla	a2,.LC12
	li	a1,-1
	li	a0,-1
	call	ShellPrintEx@plt
	.loc 1 857 86 discriminator 1
	ld	a5,-616(s0)
	lbu	a4,0(a5)
	lbu	a3,1(a5)
	slli	a3,a3,8
	or	a4,a3,a4
	lbu	a3,2(a5)
	slli	a3,a3,16
	or	a4,a3,a4
	lbu	a3,3(a5)
	slli	a3,a3,24
	or	a4,a3,a4
	lbu	a3,4(a5)
	slli	a3,a3,32
	or	a4,a3,a4
	lbu	a3,5(a5)
	slli	a3,a3,40
	or	a4,a3,a4
	lbu	a3,6(a5)
	slli	a3,a3,48
	or	a4,a3,a4
	lbu	a5,7(a5)
	slli	a5,a5,56
	or	a5,a5,a4
	.loc 1 857 94 discriminator 1
	lbu	a4,21(a5)
	lbu	a5,22(a5)
	slli	a5,a5,8
	or	a5,a5,a4
	slli	a5,a5,48
	srli	a5,a5,48
	.loc 1 857 47 discriminator 1
	sext.w	a5,a5
	mv	a3,a5
	lla	a2,.LC24
	li	a1,-1
	li	a0,-1
	call	ShellPrintEx@plt
.LBB31:
	.loc 1 858 79
	ld	a5,-616(s0)
	lbu	a4,0(a5)
	lbu	a3,1(a5)
	slli	a3,a3,8
	or	a4,a3,a4
	lbu	a3,2(a5)
	slli	a3,a3,16
	or	a4,a3,a4
	lbu	a3,3(a5)
	slli	a3,a3,24
	or	a4,a3,a4
	lbu	a3,4(a5)
	slli	a3,a3,32
	or	a4,a3,a4
	lbu	a3,5(a5)
	slli	a3,a3,40
	or	a4,a3,a4
	lbu	a3,6(a5)
	slli	a3,a3,48
	or	a4,a3,a4
	lbu	a5,7(a5)
	slli	a5,a5,56
	or	a5,a5,a4
	.loc 1 858 87
	lbu	a5,23(a5)
	.loc 1 858 42
	mv	a1,a5
	ld	a0,-616(s0)
	call	LibGetSmbiosString@plt
	sd	a0,-344(s0)
	.loc 1 858 105 discriminator 1
	lla	a3,.LC11
	lla	a2,.LC12
	li	a1,-1
	li	a0,-1
	call	ShellPrintEx@plt
	.loc 1 858 147 discriminator 2
	ld	a5,-344(s0)
	beq	a5,zero,.L190
	.loc 1 858 147 is_stmt 0 discriminator 3
	ld	a5,-344(s0)
	j	.L191
.L190:
	.loc 1 858 147 discriminator 4
	lla	a5,.LC13
.L191:
	.loc 1 858 147 discriminator 6
	mv	a3,a5
	lla	a2,.LC14
	li	a1,-1
	li	a0,-1
	call	ShellPrintEx@plt
.LBE31:
	.loc 1 859 87 is_stmt 1
	ld	a5,-616(s0)
	lbu	a4,0(a5)
	lbu	a3,1(a5)
	slli	a3,a3,8
	or	a4,a3,a4
	lbu	a3,2(a5)
	slli	a3,a3,16
	or	a4,a3,a4
	lbu	a3,3(a5)
	slli	a3,a3,24
	or	a4,a3,a4
	lbu	a3,4(a5)
	slli	a3,a3,32
	or	a4,a3,a4
	lbu	a3,5(a5)
	slli	a3,a3,40
	or	a4,a3,a4
	lbu	a3,6(a5)
	slli	a3,a3,48
	or	a4,a3,a4
	lbu	a5,7(a5)
	slli	a5,a5,56
	or	a5,a5,a4
	.loc 1 859 95
	lbu	a5,24(a5)
	.loc 1 859 7
	mv	a1,a5
	ld	a0,-616(s0)
	call	LibGetSmbiosString@plt
	mv	a5,a0
	.loc 1 859 7 is_stmt 0 discriminator 1
	mv	a3,a5
	lla	a2,.LC42
	li	a1,-1
	li	a0,-1
	call	ShellPrintEx@plt
	.loc 1 860 83 is_stmt 1
	ld	a5,-616(s0)
	lbu	a4,0(a5)
	lbu	a3,1(a5)
	slli	a3,a3,8
	or	a4,a3,a4
	lbu	a3,2(a5)
	slli	a3,a3,16
	or	a4,a3,a4
	lbu	a3,3(a5)
	slli	a3,a3,24
	or	a4,a3,a4
	lbu	a3,4(a5)
	slli	a3,a3,32
	or	a4,a3,a4
	lbu	a3,5(a5)
	slli	a3,a3,40
	or	a4,a3,a4
	lbu	a3,6(a5)
	slli	a3,a3,48
	or	a4,a3,a4
	lbu	a5,7(a5)
	slli	a5,a5,56
	or	a5,a5,a4
	.loc 1 860 91
	lbu	a5,25(a5)
	.loc 1 860 7
	mv	a1,a5
	ld	a0,-616(s0)
	call	LibGetSmbiosString@plt
	mv	a5,a0
	.loc 1 860 7 is_stmt 0 discriminator 1
	mv	a3,a5
	lla	a2,.LC43
	li	a1,-1
	li	a0,-1
	call	ShellPrintEx@plt
	.loc 1 861 85 is_stmt 1
	ld	a5,-616(s0)
	lbu	a4,0(a5)
	lbu	a3,1(a5)
	slli	a3,a3,8
	or	a4,a3,a4
	lbu	a3,2(a5)
	slli	a3,a3,16
	or	a4,a3,a4
	lbu	a3,3(a5)
	slli	a3,a3,24
	or	a4,a3,a4
	lbu	a3,4(a5)
	slli	a3,a3,32
	or	a4,a3,a4
	lbu	a3,5(a5)
	slli	a3,a3,40
	or	a4,a3,a4
	lbu	a3,6(a5)
	slli	a3,a3,48
	or	a4,a3,a4
	lbu	a5,7(a5)
	slli	a5,a5,56
	or	a5,a5,a4
	.loc 1 861 93
	lbu	a5,26(a5)
	.loc 1 861 7
	mv	a1,a5
	ld	a0,-616(s0)
	call	LibGetSmbiosString@plt
	mv	a5,a0
	.loc 1 861 7 is_stmt 0 discriminator 1
	mv	a3,a5
	lla	a2,.LC44
	li	a1,-1
	li	a0,-1
	call	ShellPrintEx@plt
	.loc 1 862 31 is_stmt 1
	la	a5,SmbiosMajorVersion
	lbu	a5,0(a5)
	.loc 1 862 10
	mv	a4,a5
	li	a5,2
	bgtu	a4,a5,.L192
	.loc 1 862 62 discriminator 2
	la	a5,SmbiosMajorVersion
	lbu	a5,0(a5)
	.loc 1 862 39 discriminator 2
	mv	a4,a5
	li	a5,2
	bne	a4,a5,.L193
	.loc 1 862 93 discriminator 3
	la	a5,SmbiosMinorVersion
	lbu	a5,0(a5)
	.loc 1 862 71 discriminator 3
	mv	a4,a5
	li	a5,5
	bleu	a4,a5,.L193
.L192:
	.loc 1 862 114 discriminator 4
	ld	a5,-616(s0)
	lbu	a4,0(a5)
	lbu	a3,1(a5)
	slli	a3,a3,8
	or	a4,a3,a4
	lbu	a3,2(a5)
	slli	a3,a3,16
	or	a4,a3,a4
	lbu	a3,3(a5)
	slli	a3,a3,24
	or	a4,a3,a4
	lbu	a3,4(a5)
	slli	a3,a3,32
	or	a4,a3,a4
	lbu	a3,5(a5)
	slli	a3,a3,40
	or	a4,a3,a4
	lbu	a3,6(a5)
	slli	a3,a3,48
	or	a4,a3,a4
	lbu	a5,7(a5)
	slli	a5,a5,56
	or	a5,a5,a4
	.loc 1 862 119 discriminator 4
	lbu	a5,1(a5)
	.loc 1 862 104 discriminator 4
	mv	a4,a5
	li	a5,27
	bleu	a4,a5,.L193
	.loc 1 863 14
	lla	a3,.LC104
	lla	a2,.LC12
	li	a1,-1
	li	a0,-1
	call	ShellPrintEx@plt
	.loc 1 863 93 discriminator 1
	ld	a5,-616(s0)
	lbu	a4,0(a5)
	lbu	a3,1(a5)
	slli	a3,a3,8
	or	a4,a3,a4
	lbu	a3,2(a5)
	slli	a3,a3,16
	or	a4,a3,a4
	lbu	a3,3(a5)
	slli	a3,a3,24
	or	a4,a3,a4
	lbu	a3,4(a5)
	slli	a3,a3,32
	or	a4,a3,a4
	lbu	a3,5(a5)
	slli	a3,a3,40
	or	a4,a3,a4
	lbu	a3,6(a5)
	slli	a3,a3,48
	or	a4,a3,a4
	lbu	a5,7(a5)
	slli	a5,a5,56
	or	a5,a5,a4
	.loc 1 863 101 discriminator 1
	lbu	a5,27(a5)
	.loc 1 863 54 discriminator 1
	sext.w	a5,a5
	mv	a3,a5
	lla	a2,.LC24
	li	a1,-1
	li	a0,-1
	call	ShellPrintEx@plt
.L193:
	.loc 1 866 31
	la	a5,SmbiosMajorVersion
	lbu	a5,0(a5)
	.loc 1 866 10
	mv	a4,a5
	li	a5,2
	bgtu	a4,a5,.L194
	.loc 1 866 62 discriminator 2
	la	a5,SmbiosMajorVersion
	lbu	a5,0(a5)
	.loc 1 866 39 discriminator 2
	mv	a4,a5
	li	a5,2
	bne	a4,a5,.L195
	.loc 1 866 93 discriminator 3
	la	a5,SmbiosMinorVersion
	lbu	a5,0(a5)
	.loc 1 866 71 discriminator 3
	mv	a4,a5
	li	a5,6
	bleu	a4,a5,.L195
.L194:
	.loc 1 866 114 discriminator 4
	ld	a5,-616(s0)
	lbu	a4,0(a5)
	lbu	a3,1(a5)
	slli	a3,a3,8
	or	a4,a3,a4
	lbu	a3,2(a5)
	slli	a3,a3,16
	or	a4,a3,a4
	lbu	a3,3(a5)
	slli	a3,a3,24
	or	a4,a3,a4
	lbu	a3,4(a5)
	slli	a3,a3,32
	or	a4,a3,a4
	lbu	a3,5(a5)
	slli	a3,a3,40
	or	a4,a3,a4
	lbu	a3,6(a5)
	slli	a3,a3,48
	or	a4,a3,a4
	lbu	a5,7(a5)
	slli	a5,a5,56
	or	a5,a5,a4
	.loc 1 866 119 discriminator 4
	lbu	a5,1(a5)
	.loc 1 866 104 discriminator 4
	mv	a4,a5
	li	a5,28
	bleu	a4,a5,.L195
	.loc 1 867 61
	ld	a5,-616(s0)
	lbu	a4,0(a5)
	lbu	a3,1(a5)
	slli	a3,a3,8
	or	a4,a3,a4
	lbu	a3,2(a5)
	slli	a3,a3,16
	or	a4,a3,a4
	lbu	a3,3(a5)
	slli	a3,a3,24
	or	a4,a3,a4
	lbu	a3,4(a5)
	slli	a3,a3,32
	or	a4,a3,a4
	lbu	a3,5(a5)
	slli	a3,a3,40
	or	a4,a3,a4
	lbu	a3,6(a5)
	slli	a3,a3,48
	or	a4,a3,a4
	lbu	a5,7(a5)
	slli	a5,a5,56
	or	a5,a5,a4
	.loc 1 867 9
	lbu	a4,28(a5)
	lbu	a3,29(a5)
	slli	a3,a3,8
	or	a4,a3,a4
	lbu	a3,30(a5)
	slli	a3,a3,16
	or	a4,a3,a4
	lbu	a5,31(a5)
	slli	a5,a5,24
	or	a5,a5,a4
	sext.w	a5,a5
	mv	a3,a5
	lla	a2,.LC105
	li	a1,-1
	li	a0,-1
	call	ShellPrintEx@plt
	.loc 1 868 73
	ld	a5,-616(s0)
	lbu	a4,0(a5)
	lbu	a3,1(a5)
	slli	a3,a3,8
	or	a4,a3,a4
	lbu	a3,2(a5)
	slli	a3,a3,16
	or	a4,a3,a4
	lbu	a3,3(a5)
	slli	a3,a3,24
	or	a4,a3,a4
	lbu	a3,4(a5)
	slli	a3,a3,32
	or	a4,a3,a4
	lbu	a3,5(a5)
	slli	a3,a3,40
	or	a4,a3,a4
	lbu	a3,6(a5)
	slli	a3,a3,48
	or	a4,a3,a4
	lbu	a5,7(a5)
	slli	a5,a5,56
	or	a5,a5,a4
	.loc 1 868 81
	lbu	a4,32(a5)
	lbu	a5,33(a5)
	slli	a5,a5,8
	or	a5,a5,a4
	slli	a5,a5,48
	srli	a5,a5,48
	.loc 1 868 9
	sext.w	a5,a5
	mv	a3,a5
	lla	a2,.LC106
	li	a1,-1
	li	a0,-1
	call	ShellPrintEx@plt
.L195:
	.loc 1 871 31
	la	a5,SmbiosMajorVersion
	lbu	a5,0(a5)
	.loc 1 871 10
	mv	a4,a5
	li	a5,2
	bgtu	a4,a5,.L196
	.loc 1 871 62 discriminator 2
	la	a5,SmbiosMajorVersion
	lbu	a5,0(a5)
	.loc 1 871 39 discriminator 2
	mv	a4,a5
	li	a5,2
	bne	a4,a5,.L197
	.loc 1 871 93 discriminator 3
	la	a5,SmbiosMinorVersion
	lbu	a5,0(a5)
	.loc 1 871 71 discriminator 3
	mv	a4,a5
	li	a5,7
	bleu	a4,a5,.L197
.L196:
	.loc 1 871 114 discriminator 4
	ld	a5,-616(s0)
	lbu	a4,0(a5)
	lbu	a3,1(a5)
	slli	a3,a3,8
	or	a4,a3,a4
	lbu	a3,2(a5)
	slli	a3,a3,16
	or	a4,a3,a4
	lbu	a3,3(a5)
	slli	a3,a3,24
	or	a4,a3,a4
	lbu	a3,4(a5)
	slli	a3,a3,32
	or	a4,a3,a4
	lbu	a3,5(a5)
	slli	a3,a3,40
	or	a4,a3,a4
	lbu	a3,6(a5)
	slli	a3,a3,48
	or	a4,a3,a4
	lbu	a5,7(a5)
	slli	a5,a5,56
	or	a5,a5,a4
	.loc 1 871 119 discriminator 4
	lbu	a5,1(a5)
	.loc 1 871 104 discriminator 4
	mv	a4,a5
	li	a5,34
	bleu	a4,a5,.L197
	.loc 1 872 63
	ld	a5,-616(s0)
	lbu	a4,0(a5)
	lbu	a3,1(a5)
	slli	a3,a3,8
	or	a4,a3,a4
	lbu	a3,2(a5)
	slli	a3,a3,16
	or	a4,a3,a4
	lbu	a3,3(a5)
	slli	a3,a3,24
	or	a4,a3,a4
	lbu	a3,4(a5)
	slli	a3,a3,32
	or	a4,a3,a4
	lbu	a3,5(a5)
	slli	a3,a3,40
	or	a4,a3,a4
	lbu	a3,6(a5)
	slli	a3,a3,48
	or	a4,a3,a4
	lbu	a5,7(a5)
	slli	a5,a5,56
	or	a5,a5,a4
	.loc 1 872 71
	lbu	a4,34(a5)
	lbu	a5,35(a5)
	slli	a5,a5,8
	or	a5,a5,a4
	slli	a5,a5,48
	srli	a5,a5,48
	.loc 1 872 9
	sext.w	a5,a5
	mv	a3,a5
	lla	a2,.LC107
	li	a1,-1
	li	a0,-1
	call	ShellPrintEx@plt
	.loc 1 873 63
	ld	a5,-616(s0)
	lbu	a4,0(a5)
	lbu	a3,1(a5)
	slli	a3,a3,8
	or	a4,a3,a4
	lbu	a3,2(a5)
	slli	a3,a3,16
	or	a4,a3,a4
	lbu	a3,3(a5)
	slli	a3,a3,24
	or	a4,a3,a4
	lbu	a3,4(a5)
	slli	a3,a3,32
	or	a4,a3,a4
	lbu	a3,5(a5)
	slli	a3,a3,40
	or	a4,a3,a4
	lbu	a3,6(a5)
	slli	a3,a3,48
	or	a4,a3,a4
	lbu	a5,7(a5)
	slli	a5,a5,56
	or	a5,a5,a4
	.loc 1 873 71
	lbu	a4,36(a5)
	lbu	a5,37(a5)
	slli	a5,a5,8
	or	a5,a5,a4
	slli	a5,a5,48
	srli	a5,a5,48
	.loc 1 873 9
	sext.w	a5,a5
	mv	a3,a5
	lla	a2,.LC108
	li	a1,-1
	li	a0,-1
	call	ShellPrintEx@plt
	.loc 1 874 66
	ld	a5,-616(s0)
	lbu	a4,0(a5)
	lbu	a3,1(a5)
	slli	a3,a3,8
	or	a4,a3,a4
	lbu	a3,2(a5)
	slli	a3,a3,16
	or	a4,a3,a4
	lbu	a3,3(a5)
	slli	a3,a3,24
	or	a4,a3,a4
	lbu	a3,4(a5)
	slli	a3,a3,32
	or	a4,a3,a4
	lbu	a3,5(a5)
	slli	a3,a3,40
	or	a4,a3,a4
	lbu	a3,6(a5)
	slli	a3,a3,48
	or	a4,a3,a4
	lbu	a5,7(a5)
	slli	a5,a5,56
	or	a5,a5,a4
	.loc 1 874 74
	lbu	a4,38(a5)
	lbu	a5,39(a5)
	slli	a5,a5,8
	or	a5,a5,a4
	slli	a5,a5,48
	srli	a5,a5,48
	.loc 1 874 9
	sext.w	a5,a5
	mv	a3,a5
	lla	a2,.LC109
	li	a1,-1
	li	a0,-1
	call	ShellPrintEx@plt
.L197:
	.loc 1 877 31
	la	a5,SmbiosMajorVersion
	lbu	a5,0(a5)
	.loc 1 877 10
	mv	a4,a5
	li	a5,3
	bgtu	a4,a5,.L198
	.loc 1 877 62 discriminator 1
	la	a5,SmbiosMajorVersion
	lbu	a5,0(a5)
	.loc 1 877 39 discriminator 1
	mv	a4,a5
	li	a5,3
	bne	a4,a5,.L199
	.loc 1 877 93 discriminator 2
	la	a5,SmbiosMinorVersion
	lbu	a5,0(a5)
	.loc 1 877 71 discriminator 2
	mv	a4,a5
	li	a5,1
	bleu	a4,a5,.L199
.L198:
	.loc 1 878 19
	ld	a5,-616(s0)
	lbu	a4,0(a5)
	lbu	a3,1(a5)
	slli	a3,a3,8
	or	a4,a3,a4
	lbu	a3,2(a5)
	slli	a3,a3,16
	or	a4,a3,a4
	lbu	a3,3(a5)
	slli	a3,a3,24
	or	a4,a3,a4
	lbu	a3,4(a5)
	slli	a3,a3,32
	or	a4,a3,a4
	lbu	a3,5(a5)
	slli	a3,a3,40
	or	a4,a3,a4
	lbu	a3,6(a5)
	slli	a3,a3,48
	or	a4,a3,a4
	lbu	a5,7(a5)
	slli	a5,a5,56
	or	a5,a5,a4
	.loc 1 878 24
	lbu	a5,1(a5)
	.loc 1 878 12
	mv	a4,a5
	li	a5,40
	bleu	a4,a5,.L200
	.loc 1 879 54
	ld	a5,-616(s0)
	lbu	a4,0(a5)
	lbu	a3,1(a5)
	slli	a3,a3,8
	or	a4,a3,a4
	lbu	a3,2(a5)
	slli	a3,a3,16
	or	a4,a3,a4
	lbu	a3,3(a5)
	slli	a3,a3,24
	or	a4,a3,a4
	lbu	a3,4(a5)
	slli	a3,a3,32
	or	a4,a3,a4
	lbu	a3,5(a5)
	slli	a3,a3,40
	or	a4,a3,a4
	lbu	a3,6(a5)
	slli	a3,a3,48
	or	a4,a3,a4
	lbu	a5,7(a5)
	slli	a5,a5,56
	or	a5,a5,a4
	.loc 1 879 11
	lbu	a5,40(a5)
	lbu	a4,-617(s0)
	mv	a1,a4
	mv	a0,a5
	call	DisplayMemoryDeviceMemoryTechnology@plt
	.loc 1 880 67
	ld	a5,-616(s0)
	lbu	a4,0(a5)
	lbu	a3,1(a5)
	slli	a3,a3,8
	or	a4,a3,a4
	lbu	a3,2(a5)
	slli	a3,a3,16
	or	a4,a3,a4
	lbu	a3,3(a5)
	slli	a3,a3,24
	or	a4,a3,a4
	lbu	a3,4(a5)
	slli	a3,a3,32
	or	a4,a3,a4
	lbu	a3,5(a5)
	slli	a3,a3,40
	or	a4,a3,a4
	lbu	a3,6(a5)
	slli	a3,a3,48
	or	a4,a3,a4
	lbu	a5,7(a5)
	slli	a5,a5,56
	or	a5,a5,a4
	.loc 1 880 11
	lbu	a4,41(a5)
	lbu	a5,42(a5)
	slli	a5,a5,8
	or	a5,a5,a4
	slli	a5,a5,48
	srli	a5,a5,48
	lbu	a4,-617(s0)
	mv	a1,a4
	mv	a0,a5
	call	DisplayMemoryDeviceMemoryOperatingModeCapability@plt
	.loc 1 881 94
	ld	a5,-616(s0)
	lbu	a4,0(a5)
	lbu	a3,1(a5)
	slli	a3,a3,8
	or	a4,a3,a4
	lbu	a3,2(a5)
	slli	a3,a3,16
	or	a4,a3,a4
	lbu	a3,3(a5)
	slli	a3,a3,24
	or	a4,a3,a4
	lbu	a3,4(a5)
	slli	a3,a3,32
	or	a4,a3,a4
	lbu	a3,5(a5)
	slli	a3,a3,40
	or	a4,a3,a4
	lbu	a3,6(a5)
	slli	a3,a3,48
	or	a4,a3,a4
	lbu	a5,7(a5)
	slli	a5,a5,56
	or	a5,a5,a4
	.loc 1 881 102
	lbu	a5,43(a5)
	.loc 1 881 11
	mv	a1,a5
	ld	a0,-616(s0)
	call	LibGetSmbiosString@plt
	mv	a5,a0
	.loc 1 881 11 is_stmt 0 discriminator 1
	mv	a3,a5
	lla	a2,.LC110
	li	a1,-1
	li	a0,-1
	call	ShellPrintEx@plt
	.loc 1 882 74 is_stmt 1
	ld	a5,-616(s0)
	lbu	a4,0(a5)
	lbu	a3,1(a5)
	slli	a3,a3,8
	or	a4,a3,a4
	lbu	a3,2(a5)
	slli	a3,a3,16
	or	a4,a3,a4
	lbu	a3,3(a5)
	slli	a3,a3,24
	or	a4,a3,a4
	lbu	a3,4(a5)
	slli	a3,a3,32
	or	a4,a3,a4
	lbu	a3,5(a5)
	slli	a3,a3,40
	or	a4,a3,a4
	lbu	a3,6(a5)
	slli	a3,a3,48
	or	a4,a3,a4
	lbu	a5,7(a5)
	slli	a5,a5,56
	or	a5,a5,a4
	.loc 1 882 82
	lbu	a4,44(a5)
	lbu	a5,45(a5)
	slli	a5,a5,8
	or	a5,a5,a4
	slli	a5,a5,48
	srli	a5,a5,48
	.loc 1 882 11
	sext.w	a5,a5
	mv	a3,a5
	lla	a2,.LC111
	li	a1,-1
	li	a0,-1
	call	ShellPrintEx@plt
	.loc 1 883 69
	ld	a5,-616(s0)
	lbu	a4,0(a5)
	lbu	a3,1(a5)
	slli	a3,a3,8
	or	a4,a3,a4
	lbu	a3,2(a5)
	slli	a3,a3,16
	or	a4,a3,a4
	lbu	a3,3(a5)
	slli	a3,a3,24
	or	a4,a3,a4
	lbu	a3,4(a5)
	slli	a3,a3,32
	or	a4,a3,a4
	lbu	a3,5(a5)
	slli	a3,a3,40
	or	a4,a3,a4
	lbu	a3,6(a5)
	slli	a3,a3,48
	or	a4,a3,a4
	lbu	a5,7(a5)
	slli	a5,a5,56
	or	a5,a5,a4
	.loc 1 883 77
	lbu	a4,46(a5)
	lbu	a5,47(a5)
	slli	a5,a5,8
	or	a5,a5,a4
	slli	a5,a5,48
	srli	a5,a5,48
	.loc 1 883 11
	sext.w	a5,a5
	mv	a3,a5
	lla	a2,.LC112
	li	a1,-1
	li	a0,-1
	call	ShellPrintEx@plt
	.loc 1 884 95
	ld	a5,-616(s0)
	lbu	a4,0(a5)
	lbu	a3,1(a5)
	slli	a3,a3,8
	or	a4,a3,a4
	lbu	a3,2(a5)
	slli	a3,a3,16
	or	a4,a3,a4
	lbu	a3,3(a5)
	slli	a3,a3,24
	or	a4,a3,a4
	lbu	a3,4(a5)
	slli	a3,a3,32
	or	a4,a3,a4
	lbu	a3,5(a5)
	slli	a3,a3,40
	or	a4,a3,a4
	lbu	a3,6(a5)
	slli	a3,a3,48
	or	a4,a3,a4
	lbu	a5,7(a5)
	slli	a5,a5,56
	or	a5,a5,a4
	.loc 1 884 103
	lbu	a4,48(a5)
	lbu	a5,49(a5)
	slli	a5,a5,8
	or	a5,a5,a4
	slli	a5,a5,48
	srli	a5,a5,48
	.loc 1 884 11
	sext.w	a5,a5
	mv	a3,a5
	lla	a2,.LC113
	li	a1,-1
	li	a0,-1
	call	ShellPrintEx@plt
	.loc 1 885 90
	ld	a5,-616(s0)
	lbu	a4,0(a5)
	lbu	a3,1(a5)
	slli	a3,a3,8
	or	a4,a3,a4
	lbu	a3,2(a5)
	slli	a3,a3,16
	or	a4,a3,a4
	lbu	a3,3(a5)
	slli	a3,a3,24
	or	a4,a3,a4
	lbu	a3,4(a5)
	slli	a3,a3,32
	or	a4,a3,a4
	lbu	a3,5(a5)
	slli	a3,a3,40
	or	a4,a3,a4
	lbu	a3,6(a5)
	slli	a3,a3,48
	or	a4,a3,a4
	lbu	a5,7(a5)
	slli	a5,a5,56
	or	a5,a5,a4
	.loc 1 885 98
	lbu	a4,50(a5)
	lbu	a5,51(a5)
	slli	a5,a5,8
	or	a5,a5,a4
	slli	a5,a5,48
	srli	a5,a5,48
	.loc 1 885 11
	sext.w	a5,a5
	mv	a3,a5
	lla	a2,.LC114
	li	a1,-1
	li	a0,-1
	call	ShellPrintEx@plt
.L200:
	.loc 1 888 19
	ld	a5,-616(s0)
	lbu	a4,0(a5)
	lbu	a3,1(a5)
	slli	a3,a3,8
	or	a4,a3,a4
	lbu	a3,2(a5)
	slli	a3,a3,16
	or	a4,a3,a4
	lbu	a3,3(a5)
	slli	a3,a3,24
	or	a4,a3,a4
	lbu	a3,4(a5)
	slli	a3,a3,32
	or	a4,a3,a4
	lbu	a3,5(a5)
	slli	a3,a3,40
	or	a4,a3,a4
	lbu	a3,6(a5)
	slli	a3,a3,48
	or	a4,a3,a4
	lbu	a5,7(a5)
	slli	a5,a5,56
	or	a5,a5,a4
	.loc 1 888 24
	lbu	a5,1(a5)
	.loc 1 888 12
	mv	a4,a5
	li	a5,52
	bleu	a4,a5,.L201
	.loc 1 889 70
	ld	a5,-616(s0)
	lbu	a4,0(a5)
	lbu	a3,1(a5)
	slli	a3,a3,8
	or	a4,a3,a4
	lbu	a3,2(a5)
	slli	a3,a3,16
	or	a4,a3,a4
	lbu	a3,3(a5)
	slli	a3,a3,24
	or	a4,a3,a4
	lbu	a3,4(a5)
	slli	a3,a3,32
	or	a4,a3,a4
	lbu	a3,5(a5)
	slli	a3,a3,40
	or	a4,a3,a4
	lbu	a3,6(a5)
	slli	a3,a3,48
	or	a4,a3,a4
	lbu	a5,7(a5)
	slli	a5,a5,56
	or	a5,a5,a4
	.loc 1 889 11
	lbu	a4,52(a5)
	lbu	a3,53(a5)
	slli	a3,a3,8
	or	a4,a3,a4
	lbu	a3,54(a5)
	slli	a3,a3,16
	or	a4,a3,a4
	lbu	a3,55(a5)
	slli	a3,a3,24
	or	a4,a3,a4
	lbu	a3,56(a5)
	slli	a3,a3,32
	or	a4,a3,a4
	lbu	a3,57(a5)
	slli	a3,a3,40
	or	a4,a3,a4
	lbu	a3,58(a5)
	slli	a3,a3,48
	or	a4,a3,a4
	lbu	a5,59(a5)
	slli	a5,a5,56
	or	a5,a5,a4
	mv	a3,a5
	lla	a2,.LC115
	li	a1,-1
	li	a0,-1
	call	ShellPrintEx@plt
.L201:
	.loc 1 892 19
	ld	a5,-616(s0)
	lbu	a4,0(a5)
	lbu	a3,1(a5)
	slli	a3,a3,8
	or	a4,a3,a4
	lbu	a3,2(a5)
	slli	a3,a3,16
	or	a4,a3,a4
	lbu	a3,3(a5)
	slli	a3,a3,24
	or	a4,a3,a4
	lbu	a3,4(a5)
	slli	a3,a3,32
	or	a4,a3,a4
	lbu	a3,5(a5)
	slli	a3,a3,40
	or	a4,a3,a4
	lbu	a3,6(a5)
	slli	a3,a3,48
	or	a4,a3,a4
	lbu	a5,7(a5)
	slli	a5,a5,56
	or	a5,a5,a4
	.loc 1 892 24
	lbu	a5,1(a5)
	.loc 1 892 12
	mv	a4,a5
	li	a5,60
	bleu	a4,a5,.L202
	.loc 1 893 66
	ld	a5,-616(s0)
	lbu	a4,0(a5)
	lbu	a3,1(a5)
	slli	a3,a3,8
	or	a4,a3,a4
	lbu	a3,2(a5)
	slli	a3,a3,16
	or	a4,a3,a4
	lbu	a3,3(a5)
	slli	a3,a3,24
	or	a4,a3,a4
	lbu	a3,4(a5)
	slli	a3,a3,32
	or	a4,a3,a4
	lbu	a3,5(a5)
	slli	a3,a3,40
	or	a4,a3,a4
	lbu	a3,6(a5)
	slli	a3,a3,48
	or	a4,a3,a4
	lbu	a5,7(a5)
	slli	a5,a5,56
	or	a5,a5,a4
	.loc 1 893 11
	lbu	a4,60(a5)
	lbu	a3,61(a5)
	slli	a3,a3,8
	or	a4,a3,a4
	lbu	a3,62(a5)
	slli	a3,a3,16
	or	a4,a3,a4
	lbu	a3,63(a5)
	slli	a3,a3,24
	or	a4,a3,a4
	lbu	a3,64(a5)
	slli	a3,a3,32
	or	a4,a3,a4
	lbu	a3,65(a5)
	slli	a3,a3,40
	or	a4,a3,a4
	lbu	a3,66(a5)
	slli	a3,a3,48
	or	a4,a3,a4
	lbu	a5,67(a5)
	slli	a5,a5,56
	or	a5,a5,a4
	mv	a3,a5
	lla	a2,.LC116
	li	a1,-1
	li	a0,-1
	call	ShellPrintEx@plt
.L202:
	.loc 1 896 19
	ld	a5,-616(s0)
	lbu	a4,0(a5)
	lbu	a3,1(a5)
	slli	a3,a3,8
	or	a4,a3,a4
	lbu	a3,2(a5)
	slli	a3,a3,16
	or	a4,a3,a4
	lbu	a3,3(a5)
	slli	a3,a3,24
	or	a4,a3,a4
	lbu	a3,4(a5)
	slli	a3,a3,32
	or	a4,a3,a4
	lbu	a3,5(a5)
	slli	a3,a3,40
	or	a4,a3,a4
	lbu	a3,6(a5)
	slli	a3,a3,48
	or	a4,a3,a4
	lbu	a5,7(a5)
	slli	a5,a5,56
	or	a5,a5,a4
	.loc 1 896 24
	lbu	a5,1(a5)
	.loc 1 896 12
	mv	a4,a5
	li	a5,68
	bleu	a4,a5,.L203
	.loc 1 897 63
	ld	a5,-616(s0)
	lbu	a4,0(a5)
	lbu	a3,1(a5)
	slli	a3,a3,8
	or	a4,a3,a4
	lbu	a3,2(a5)
	slli	a3,a3,16
	or	a4,a3,a4
	lbu	a3,3(a5)
	slli	a3,a3,24
	or	a4,a3,a4
	lbu	a3,4(a5)
	slli	a3,a3,32
	or	a4,a3,a4
	lbu	a3,5(a5)
	slli	a3,a3,40
	or	a4,a3,a4
	lbu	a3,6(a5)
	slli	a3,a3,48
	or	a4,a3,a4
	lbu	a5,7(a5)
	slli	a5,a5,56
	or	a5,a5,a4
	.loc 1 897 11
	lbu	a4,68(a5)
	lbu	a3,69(a5)
	slli	a3,a3,8
	or	a4,a3,a4
	lbu	a3,70(a5)
	slli	a3,a3,16
	or	a4,a3,a4
	lbu	a3,71(a5)
	slli	a3,a3,24
	or	a4,a3,a4
	lbu	a3,72(a5)
	slli	a3,a3,32
	or	a4,a3,a4
	lbu	a3,73(a5)
	slli	a3,a3,40
	or	a4,a3,a4
	lbu	a3,74(a5)
	slli	a3,a3,48
	or	a4,a3,a4
	lbu	a5,75(a5)
	slli	a5,a5,56
	or	a5,a5,a4
	mv	a3,a5
	lla	a2,.LC117
	li	a1,-1
	li	a0,-1
	call	ShellPrintEx@plt
.L203:
	.loc 1 900 19
	ld	a5,-616(s0)
	lbu	a4,0(a5)
	lbu	a3,1(a5)
	slli	a3,a3,8
	or	a4,a3,a4
	lbu	a3,2(a5)
	slli	a3,a3,16
	or	a4,a3,a4
	lbu	a3,3(a5)
	slli	a3,a3,24
	or	a4,a3,a4
	lbu	a3,4(a5)
	slli	a3,a3,32
	or	a4,a3,a4
	lbu	a3,5(a5)
	slli	a3,a3,40
	or	a4,a3,a4
	lbu	a3,6(a5)
	slli	a3,a3,48
	or	a4,a3,a4
	lbu	a5,7(a5)
	slli	a5,a5,56
	or	a5,a5,a4
	.loc 1 900 24
	lbu	a5,1(a5)
	.loc 1 900 12
	mv	a4,a5
	li	a5,76
	bleu	a4,a5,.L199
	.loc 1 901 65
	ld	a5,-616(s0)
	lbu	a4,0(a5)
	lbu	a3,1(a5)
	slli	a3,a3,8
	or	a4,a3,a4
	lbu	a3,2(a5)
	slli	a3,a3,16
	or	a4,a3,a4
	lbu	a3,3(a5)
	slli	a3,a3,24
	or	a4,a3,a4
	lbu	a3,4(a5)
	slli	a3,a3,32
	or	a4,a3,a4
	lbu	a3,5(a5)
	slli	a3,a3,40
	or	a4,a3,a4
	lbu	a3,6(a5)
	slli	a3,a3,48
	or	a4,a3,a4
	lbu	a5,7(a5)
	slli	a5,a5,56
	or	a5,a5,a4
	.loc 1 901 11
	lbu	a4,76(a5)
	lbu	a3,77(a5)
	slli	a3,a3,8
	or	a4,a3,a4
	lbu	a3,78(a5)
	slli	a3,a3,16
	or	a4,a3,a4
	lbu	a3,79(a5)
	slli	a3,a3,24
	or	a4,a3,a4
	lbu	a3,80(a5)
	slli	a3,a3,32
	or	a4,a3,a4
	lbu	a3,81(a5)
	slli	a3,a3,40
	or	a4,a3,a4
	lbu	a3,82(a5)
	slli	a3,a3,48
	or	a4,a3,a4
	lbu	a5,83(a5)
	slli	a5,a5,56
	or	a5,a5,a4
	mv	a3,a5
	lla	a2,.LC118
	li	a1,-1
	li	a0,-1
	call	ShellPrintEx@plt
.L199:
	.loc 1 905 31
	la	a5,SmbiosMajorVersion
	lbu	a5,0(a5)
	.loc 1 905 10
	mv	a4,a5
	li	a5,3
	bgtu	a4,a5,.L204
	.loc 1 905 62 discriminator 2
	la	a5,SmbiosMajorVersion
	lbu	a5,0(a5)
	.loc 1 905 39 discriminator 2
	mv	a4,a5
	li	a5,3
	bne	a4,a5,.L205
	.loc 1 905 93 discriminator 3
	la	a5,SmbiosMinorVersion
	lbu	a5,0(a5)
	.loc 1 905 71 discriminator 3
	mv	a4,a5
	li	a5,2
	bleu	a4,a5,.L205
.L204:
	.loc 1 905 114 discriminator 4
	ld	a5,-616(s0)
	lbu	a4,0(a5)
	lbu	a3,1(a5)
	slli	a3,a3,8
	or	a4,a3,a4
	lbu	a3,2(a5)
	slli	a3,a3,16
	or	a4,a3,a4
	lbu	a3,3(a5)
	slli	a3,a3,24
	or	a4,a3,a4
	lbu	a3,4(a5)
	slli	a3,a3,32
	or	a4,a3,a4
	lbu	a3,5(a5)
	slli	a3,a3,40
	or	a4,a3,a4
	lbu	a3,6(a5)
	slli	a3,a3,48
	or	a4,a3,a4
	lbu	a5,7(a5)
	slli	a5,a5,56
	or	a5,a5,a4
	.loc 1 905 119 discriminator 4
	lbu	a5,1(a5)
	.loc 1 905 104 discriminator 4
	mv	a4,a5
	li	a5,84
	bleu	a4,a5,.L205
	.loc 1 906 64
	ld	a5,-616(s0)
	lbu	a4,0(a5)
	lbu	a3,1(a5)
	slli	a3,a3,8
	or	a4,a3,a4
	lbu	a3,2(a5)
	slli	a3,a3,16
	or	a4,a3,a4
	lbu	a3,3(a5)
	slli	a3,a3,24
	or	a4,a3,a4
	lbu	a3,4(a5)
	slli	a3,a3,32
	or	a4,a3,a4
	lbu	a3,5(a5)
	slli	a3,a3,40
	or	a4,a3,a4
	lbu	a3,6(a5)
	slli	a3,a3,48
	or	a4,a3,a4
	lbu	a5,7(a5)
	slli	a5,a5,56
	or	a5,a5,a4
	.loc 1 906 9
	lbu	a4,84(a5)
	lbu	a3,85(a5)
	slli	a3,a3,8
	or	a4,a3,a4
	lbu	a3,86(a5)
	slli	a3,a3,16
	or	a4,a3,a4
	lbu	a5,87(a5)
	slli	a5,a5,24
	or	a5,a5,a4
	sext.w	a5,a5
	mv	a3,a5
	lla	a2,.LC119
	li	a1,-1
	li	a0,-1
	call	ShellPrintEx@plt
	.loc 1 907 82
	ld	a5,-616(s0)
	lbu	a4,0(a5)
	lbu	a3,1(a5)
	slli	a3,a3,8
	or	a4,a3,a4
	lbu	a3,2(a5)
	slli	a3,a3,16
	or	a4,a3,a4
	lbu	a3,3(a5)
	slli	a3,a3,24
	or	a4,a3,a4
	lbu	a3,4(a5)
	slli	a3,a3,32
	or	a4,a3,a4
	lbu	a3,5(a5)
	slli	a3,a3,40
	or	a4,a3,a4
	lbu	a3,6(a5)
	slli	a3,a3,48
	or	a4,a3,a4
	lbu	a5,7(a5)
	slli	a5,a5,56
	or	a5,a5,a4
	.loc 1 907 9
	lbu	a4,88(a5)
	lbu	a3,89(a5)
	slli	a3,a3,8
	or	a4,a3,a4
	lbu	a3,90(a5)
	slli	a3,a3,16
	or	a4,a3,a4
	lbu	a5,91(a5)
	slli	a5,a5,24
	or	a5,a5,a4
	sext.w	a5,a5
	mv	a3,a5
	lla	a2,.LC120
	li	a1,-1
	li	a0,-1
	call	ShellPrintEx@plt
.L205:
	.loc 1 910 31
	la	a5,SmbiosMajorVersion
	lbu	a5,0(a5)
	.loc 1 910 10
	mv	a4,a5
	li	a5,3
	bgtu	a4,a5,.L206
	.loc 1 910 62 discriminator 2
	la	a5,SmbiosMajorVersion
	lbu	a5,0(a5)
	.loc 1 910 39 discriminator 2
	mv	a4,a5
	li	a5,3
	bne	a4,a5,.L314
	.loc 1 910 93 discriminator 3
	la	a5,SmbiosMinorVersion
	lbu	a5,0(a5)
	.loc 1 910 71 discriminator 3
	mv	a4,a5
	li	a5,6
	bleu	a4,a5,.L314
.L206:
	.loc 1 910 114 discriminator 4
	ld	a5,-616(s0)
	lbu	a4,0(a5)
	lbu	a3,1(a5)
	slli	a3,a3,8
	or	a4,a3,a4
	lbu	a3,2(a5)
	slli	a3,a3,16
	or	a4,a3,a4
	lbu	a3,3(a5)
	slli	a3,a3,24
	or	a4,a3,a4
	lbu	a3,4(a5)
	slli	a3,a3,32
	or	a4,a3,a4
	lbu	a3,5(a5)
	slli	a3,a3,40
	or	a4,a3,a4
	lbu	a3,6(a5)
	slli	a3,a3,48
	or	a4,a3,a4
	lbu	a5,7(a5)
	slli	a5,a5,56
	or	a5,a5,a4
	.loc 1 910 119 discriminator 4
	lbu	a5,1(a5)
	.loc 1 910 104 discriminator 4
	mv	a4,a5
	li	a5,92
	bleu	a4,a5,.L314
	.loc 1 911 71
	ld	a5,-616(s0)
	lbu	a4,0(a5)
	lbu	a3,1(a5)
	slli	a3,a3,8
	or	a4,a3,a4
	lbu	a3,2(a5)
	slli	a3,a3,16
	or	a4,a3,a4
	lbu	a3,3(a5)
	slli	a3,a3,24
	or	a4,a3,a4
	lbu	a3,4(a5)
	slli	a3,a3,32
	or	a4,a3,a4
	lbu	a3,5(a5)
	slli	a3,a3,40
	or	a4,a3,a4
	lbu	a3,6(a5)
	slli	a3,a3,48
	or	a4,a3,a4
	lbu	a5,7(a5)
	slli	a5,a5,56
	or	a5,a5,a4
	.loc 1 911 79
	lbu	a4,92(a5)
	lbu	a5,93(a5)
	slli	a5,a5,8
	or	a5,a5,a4
	slli	a5,a5,48
	srli	a5,a5,48
	.loc 1 911 9
	sext.w	a5,a5
	mv	a3,a5
	lla	a2,.LC121
	li	a1,-1
	li	a0,-1
	call	ShellPrintEx@plt
	.loc 1 912 71
	ld	a5,-616(s0)
	lbu	a4,0(a5)
	lbu	a3,1(a5)
	slli	a3,a3,8
	or	a4,a3,a4
	lbu	a3,2(a5)
	slli	a3,a3,16
	or	a4,a3,a4
	lbu	a3,3(a5)
	slli	a3,a3,24
	or	a4,a3,a4
	lbu	a3,4(a5)
	slli	a3,a3,32
	or	a4,a3,a4
	lbu	a3,5(a5)
	slli	a3,a3,40
	or	a4,a3,a4
	lbu	a3,6(a5)
	slli	a3,a3,48
	or	a4,a3,a4
	lbu	a5,7(a5)
	slli	a5,a5,56
	or	a5,a5,a4
	.loc 1 912 79
	lbu	a4,94(a5)
	lbu	a5,95(a5)
	slli	a5,a5,8
	or	a5,a5,a4
	slli	a5,a5,48
	srli	a5,a5,48
	.loc 1 912 9
	sext.w	a5,a5
	mv	a3,a5
	lla	a2,.LC122
	li	a1,-1
	li	a0,-1
	call	ShellPrintEx@plt
	.loc 1 913 69
	ld	a5,-616(s0)
	lbu	a4,0(a5)
	lbu	a3,1(a5)
	slli	a3,a3,8
	or	a4,a3,a4
	lbu	a3,2(a5)
	slli	a3,a3,16
	or	a4,a3,a4
	lbu	a3,3(a5)
	slli	a3,a3,24
	or	a4,a3,a4
	lbu	a3,4(a5)
	slli	a3,a3,32
	or	a4,a3,a4
	lbu	a3,5(a5)
	slli	a3,a3,40
	or	a4,a3,a4
	lbu	a3,6(a5)
	slli	a3,a3,48
	or	a4,a3,a4
	lbu	a5,7(a5)
	slli	a5,a5,56
	or	a5,a5,a4
	.loc 1 913 77
	lbu	a4,96(a5)
	lbu	a5,97(a5)
	slli	a5,a5,8
	or	a5,a5,a4
	slli	a5,a5,48
	srli	a5,a5,48
	.loc 1 913 9
	sext.w	a5,a5
	mv	a3,a5
	lla	a2,.LC123
	li	a1,-1
	li	a0,-1
	call	ShellPrintEx@plt
	.loc 1 914 69
	ld	a5,-616(s0)
	lbu	a4,0(a5)
	lbu	a3,1(a5)
	slli	a3,a3,8
	or	a4,a3,a4
	lbu	a3,2(a5)
	slli	a3,a3,16
	or	a4,a3,a4
	lbu	a3,3(a5)
	slli	a3,a3,24
	or	a4,a3,a4
	lbu	a3,4(a5)
	slli	a3,a3,32
	or	a4,a3,a4
	lbu	a3,5(a5)
	slli	a3,a3,40
	or	a4,a3,a4
	lbu	a3,6(a5)
	slli	a3,a3,48
	or	a4,a3,a4
	lbu	a5,7(a5)
	slli	a5,a5,56
	or	a5,a5,a4
	.loc 1 914 77
	lbu	a4,98(a5)
	lbu	a5,99(a5)
	slli	a5,a5,8
	or	a5,a5,a4
	slli	a5,a5,48
	srli	a5,a5,48
	.loc 1 914 9
	sext.w	a5,a5
	mv	a3,a5
	lla	a2,.LC124
	li	a1,-1
	li	a0,-1
	call	ShellPrintEx@plt
	.loc 1 917 7
	j	.L314
.L56:
	.loc 1 923 37
	ld	a5,-616(s0)
	lbu	a4,0(a5)
	lbu	a3,1(a5)
	slli	a3,a3,8
	or	a4,a3,a4
	lbu	a3,2(a5)
	slli	a3,a3,16
	or	a4,a3,a4
	lbu	a3,3(a5)
	slli	a3,a3,24
	or	a4,a3,a4
	lbu	a3,4(a5)
	slli	a3,a3,32
	or	a4,a3,a4
	lbu	a3,5(a5)
	slli	a3,a3,40
	or	a4,a3,a4
	lbu	a3,6(a5)
	slli	a3,a3,48
	or	a4,a3,a4
	lbu	a5,7(a5)
	slli	a5,a5,56
	or	a5,a5,a4
	.loc 1 923 7
	lbu	a5,4(a5)
	lbu	a4,-617(s0)
	mv	a1,a4
	mv	a0,a5
	call	DisplayMemoryErrorType@plt
	.loc 1 925 15
	ld	a5,-616(s0)
	lbu	a4,0(a5)
	lbu	a3,1(a5)
	slli	a3,a3,8
	or	a4,a3,a4
	lbu	a3,2(a5)
	slli	a3,a3,16
	or	a4,a3,a4
	lbu	a3,3(a5)
	slli	a3,a3,24
	or	a4,a3,a4
	lbu	a3,4(a5)
	slli	a3,a3,32
	or	a4,a3,a4
	lbu	a3,5(a5)
	slli	a3,a3,40
	or	a4,a3,a4
	lbu	a3,6(a5)
	slli	a3,a3,48
	or	a4,a3,a4
	lbu	a5,7(a5)
	slli	a5,a5,56
	or	a5,a5,a4
	.loc 1 924 7
	lbu	a5,5(a5)
	lbu	a4,-617(s0)
	mv	a1,a4
	mv	a0,a5
	call	DisplayMemoryErrorGranularity@plt
	.loc 1 928 42
	ld	a5,-616(s0)
	lbu	a4,0(a5)
	lbu	a3,1(a5)
	slli	a3,a3,8
	or	a4,a3,a4
	lbu	a3,2(a5)
	slli	a3,a3,16
	or	a4,a3,a4
	lbu	a3,3(a5)
	slli	a3,a3,24
	or	a4,a3,a4
	lbu	a3,4(a5)
	slli	a3,a3,32
	or	a4,a3,a4
	lbu	a3,5(a5)
	slli	a3,a3,40
	or	a4,a3,a4
	lbu	a3,6(a5)
	slli	a3,a3,48
	or	a4,a3,a4
	lbu	a5,7(a5)
	slli	a5,a5,56
	or	a5,a5,a4
	.loc 1 928 7
	lbu	a5,6(a5)
	lbu	a4,-617(s0)
	mv	a1,a4
	mv	a0,a5
	call	DisplayMemoryErrorOperation@plt
	.loc 1 929 12
	lla	a3,.LC125
	lla	a2,.LC12
	li	a1,-1
	li	a0,-1
	call	ShellPrintEx@plt
	.loc 1 929 95 discriminator 1
	ld	a5,-616(s0)
	lbu	a4,0(a5)
	lbu	a3,1(a5)
	slli	a3,a3,8
	or	a4,a3,a4
	lbu	a3,2(a5)
	slli	a3,a3,16
	or	a4,a3,a4
	lbu	a3,3(a5)
	slli	a3,a3,24
	or	a4,a3,a4
	lbu	a3,4(a5)
	slli	a3,a3,32
	or	a4,a3,a4
	lbu	a3,5(a5)
	slli	a3,a3,40
	or	a4,a3,a4
	lbu	a3,6(a5)
	slli	a3,a3,48
	or	a4,a3,a4
	lbu	a5,7(a5)
	slli	a5,a5,56
	or	a5,a5,a4
	.loc 1 929 56 discriminator 1
	lbu	a4,7(a5)
	lbu	a3,8(a5)
	slli	a3,a3,8
	or	a4,a3,a4
	lbu	a3,9(a5)
	slli	a3,a3,16
	or	a4,a3,a4
	lbu	a5,10(a5)
	slli	a5,a5,24
	or	a5,a5,a4
	sext.w	a5,a5
	mv	a3,a5
	lla	a2,.LC24
	li	a1,-1
	li	a0,-1
	call	ShellPrintEx@plt
	.loc 1 930 12
	lla	a3,.LC126
	lla	a2,.LC12
	li	a1,-1
	li	a0,-1
	call	ShellPrintEx@plt
	.loc 1 930 104 discriminator 1
	ld	a5,-616(s0)
	lbu	a4,0(a5)
	lbu	a3,1(a5)
	slli	a3,a3,8
	or	a4,a3,a4
	lbu	a3,2(a5)
	slli	a3,a3,16
	or	a4,a3,a4
	lbu	a3,3(a5)
	slli	a3,a3,24
	or	a4,a3,a4
	lbu	a3,4(a5)
	slli	a3,a3,32
	or	a4,a3,a4
	lbu	a3,5(a5)
	slli	a3,a3,40
	or	a4,a3,a4
	lbu	a3,6(a5)
	slli	a3,a3,48
	or	a4,a3,a4
	lbu	a5,7(a5)
	slli	a5,a5,56
	or	a5,a5,a4
	.loc 1 930 65 discriminator 1
	lbu	a4,11(a5)
	lbu	a3,12(a5)
	slli	a3,a3,8
	or	a4,a3,a4
	lbu	a3,13(a5)
	slli	a3,a3,16
	or	a4,a3,a4
	lbu	a5,14(a5)
	slli	a5,a5,24
	or	a5,a5,a4
	sext.w	a5,a5
	mv	a3,a5
	lla	a2,.LC24
	li	a1,-1
	li	a0,-1
	call	ShellPrintEx@plt
	.loc 1 931 12
	lla	a3,.LC127
	lla	a2,.LC12
	li	a1,-1
	li	a0,-1
	call	ShellPrintEx@plt
	.loc 1 931 99 discriminator 1
	ld	a5,-616(s0)
	lbu	a4,0(a5)
	lbu	a3,1(a5)
	slli	a3,a3,8
	or	a4,a3,a4
	lbu	a3,2(a5)
	slli	a3,a3,16
	or	a4,a3,a4
	lbu	a3,3(a5)
	slli	a3,a3,24
	or	a4,a3,a4
	lbu	a3,4(a5)
	slli	a3,a3,32
	or	a4,a3,a4
	lbu	a3,5(a5)
	slli	a3,a3,40
	or	a4,a3,a4
	lbu	a3,6(a5)
	slli	a3,a3,48
	or	a4,a3,a4
	lbu	a5,7(a5)
	slli	a5,a5,56
	or	a5,a5,a4
	.loc 1 931 60 discriminator 1
	lbu	a4,15(a5)
	lbu	a3,16(a5)
	slli	a3,a3,8
	or	a4,a3,a4
	lbu	a3,17(a5)
	slli	a3,a3,16
	or	a4,a3,a4
	lbu	a5,18(a5)
	slli	a5,a5,24
	or	a5,a5,a4
	sext.w	a5,a5
	mv	a3,a5
	lla	a2,.LC24
	li	a1,-1
	li	a0,-1
	call	ShellPrintEx@plt
	.loc 1 932 12
	lla	a3,.LC128
	lla	a2,.LC12
	li	a1,-1
	li	a0,-1
	call	ShellPrintEx@plt
	.loc 1 932 96 discriminator 1
	ld	a5,-616(s0)
	lbu	a4,0(a5)
	lbu	a3,1(a5)
	slli	a3,a3,8
	or	a4,a3,a4
	lbu	a3,2(a5)
	slli	a3,a3,16
	or	a4,a3,a4
	lbu	a3,3(a5)
	slli	a3,a3,24
	or	a4,a3,a4
	lbu	a3,4(a5)
	slli	a3,a3,32
	or	a4,a3,a4
	lbu	a3,5(a5)
	slli	a3,a3,40
	or	a4,a3,a4
	lbu	a3,6(a5)
	slli	a3,a3,48
	or	a4,a3,a4
	lbu	a5,7(a5)
	slli	a5,a5,56
	or	a5,a5,a4
	.loc 1 932 57 discriminator 1
	lbu	a4,19(a5)
	lbu	a3,20(a5)
	slli	a3,a3,8
	or	a4,a3,a4
	lbu	a3,21(a5)
	slli	a3,a3,16
	or	a4,a3,a4
	lbu	a5,22(a5)
	slli	a5,a5,24
	or	a5,a5,a4
	sext.w	a5,a5
	mv	a3,a5
	lla	a2,.LC24
	li	a1,-1
	li	a0,-1
	call	ShellPrintEx@plt
	.loc 1 933 7
	j	.L85
.L55:
	.loc 1 939 12
	lla	a3,.LC129
	lla	a2,.LC12
	li	a1,-1
	li	a0,-1
	call	ShellPrintEx@plt
	.loc 1 939 96 discriminator 1
	ld	a5,-616(s0)
	lbu	a4,0(a5)
	lbu	a3,1(a5)
	slli	a3,a3,8
	or	a4,a3,a4
	lbu	a3,2(a5)
	slli	a3,a3,16
	or	a4,a3,a4
	lbu	a3,3(a5)
	slli	a3,a3,24
	or	a4,a3,a4
	lbu	a3,4(a5)
	slli	a3,a3,32
	or	a4,a3,a4
	lbu	a3,5(a5)
	slli	a3,a3,40
	or	a4,a3,a4
	lbu	a3,6(a5)
	slli	a3,a3,48
	or	a4,a3,a4
	lbu	a5,7(a5)
	slli	a5,a5,56
	or	a5,a5,a4
	.loc 1 939 57 discriminator 1
	lbu	a4,4(a5)
	lbu	a3,5(a5)
	slli	a3,a3,8
	or	a4,a3,a4
	lbu	a3,6(a5)
	slli	a3,a3,16
	or	a4,a3,a4
	lbu	a5,7(a5)
	slli	a5,a5,24
	or	a5,a5,a4
	sext.w	a5,a5
	mv	a3,a5
	lla	a2,.LC24
	li	a1,-1
	li	a0,-1
	call	ShellPrintEx@plt
	.loc 1 940 12
	lla	a3,.LC130
	lla	a2,.LC12
	li	a1,-1
	li	a0,-1
	call	ShellPrintEx@plt
	.loc 1 940 94 discriminator 1
	ld	a5,-616(s0)
	lbu	a4,0(a5)
	lbu	a3,1(a5)
	slli	a3,a3,8
	or	a4,a3,a4
	lbu	a3,2(a5)
	slli	a3,a3,16
	or	a4,a3,a4
	lbu	a3,3(a5)
	slli	a3,a3,24
	or	a4,a3,a4
	lbu	a3,4(a5)
	slli	a3,a3,32
	or	a4,a3,a4
	lbu	a3,5(a5)
	slli	a3,a3,40
	or	a4,a3,a4
	lbu	a3,6(a5)
	slli	a3,a3,48
	or	a4,a3,a4
	lbu	a5,7(a5)
	slli	a5,a5,56
	or	a5,a5,a4
	.loc 1 940 55 discriminator 1
	lbu	a4,8(a5)
	lbu	a3,9(a5)
	slli	a3,a3,8
	or	a4,a3,a4
	lbu	a3,10(a5)
	slli	a3,a3,16
	or	a4,a3,a4
	lbu	a5,11(a5)
	slli	a5,a5,24
	or	a5,a5,a4
	sext.w	a5,a5
	mv	a3,a5
	lla	a2,.LC24
	li	a1,-1
	li	a0,-1
	call	ShellPrintEx@plt
	.loc 1 941 12
	lla	a3,.LC131
	lla	a2,.LC12
	li	a1,-1
	li	a0,-1
	call	ShellPrintEx@plt
	.loc 1 941 98 discriminator 1
	ld	a5,-616(s0)
	lbu	a4,0(a5)
	lbu	a3,1(a5)
	slli	a3,a3,8
	or	a4,a3,a4
	lbu	a3,2(a5)
	slli	a3,a3,16
	or	a4,a3,a4
	lbu	a3,3(a5)
	slli	a3,a3,24
	or	a4,a3,a4
	lbu	a3,4(a5)
	slli	a3,a3,32
	or	a4,a3,a4
	lbu	a3,5(a5)
	slli	a3,a3,40
	or	a4,a3,a4
	lbu	a3,6(a5)
	slli	a3,a3,48
	or	a4,a3,a4
	lbu	a5,7(a5)
	slli	a5,a5,56
	or	a5,a5,a4
	.loc 1 941 106 discriminator 1
	lbu	a4,12(a5)
	lbu	a5,13(a5)
	slli	a5,a5,8
	or	a5,a5,a4
	slli	a5,a5,48
	srli	a5,a5,48
	.loc 1 941 59 discriminator 1
	sext.w	a5,a5
	mv	a3,a5
	lla	a2,.LC24
	li	a1,-1
	li	a0,-1
	call	ShellPrintEx@plt
	.loc 1 942 12
	lla	a3,.LC132
	lla	a2,.LC12
	li	a1,-1
	li	a0,-1
	call	ShellPrintEx@plt
	.loc 1 942 95 discriminator 1
	ld	a5,-616(s0)
	lbu	a4,0(a5)
	lbu	a3,1(a5)
	slli	a3,a3,8
	or	a4,a3,a4
	lbu	a3,2(a5)
	slli	a3,a3,16
	or	a4,a3,a4
	lbu	a3,3(a5)
	slli	a3,a3,24
	or	a4,a3,a4
	lbu	a3,4(a5)
	slli	a3,a3,32
	or	a4,a3,a4
	lbu	a3,5(a5)
	slli	a3,a3,40
	or	a4,a3,a4
	lbu	a3,6(a5)
	slli	a3,a3,48
	or	a4,a3,a4
	lbu	a5,7(a5)
	slli	a5,a5,56
	or	a5,a5,a4
	.loc 1 942 103 discriminator 1
	lbu	a5,14(a5)
	.loc 1 942 56 discriminator 1
	sext.w	a5,a5
	mv	a3,a5
	lla	a2,.LC24
	li	a1,-1
	li	a0,-1
	call	ShellPrintEx@plt
	.loc 1 943 31
	la	a5,SmbiosMajorVersion
	lbu	a5,0(a5)
	.loc 1 943 10
	mv	a4,a5
	li	a5,2
	bgtu	a4,a5,.L208
	.loc 1 943 62 discriminator 2
	la	a5,SmbiosMajorVersion
	lbu	a5,0(a5)
	.loc 1 943 39 discriminator 2
	mv	a4,a5
	li	a5,2
	bne	a4,a5,.L315
	.loc 1 943 93 discriminator 3
	la	a5,SmbiosMinorVersion
	lbu	a5,0(a5)
	.loc 1 943 71 discriminator 3
	mv	a4,a5
	li	a5,6
	bleu	a4,a5,.L315
.L208:
	.loc 1 943 114 discriminator 4
	ld	a5,-616(s0)
	lbu	a4,0(a5)
	lbu	a3,1(a5)
	slli	a3,a3,8
	or	a4,a3,a4
	lbu	a3,2(a5)
	slli	a3,a3,16
	or	a4,a3,a4
	lbu	a3,3(a5)
	slli	a3,a3,24
	or	a4,a3,a4
	lbu	a3,4(a5)
	slli	a3,a3,32
	or	a4,a3,a4
	lbu	a3,5(a5)
	slli	a3,a3,40
	or	a4,a3,a4
	lbu	a3,6(a5)
	slli	a3,a3,48
	or	a4,a3,a4
	lbu	a5,7(a5)
	slli	a5,a5,56
	or	a5,a5,a4
	.loc 1 943 119 discriminator 4
	lbu	a5,1(a5)
	.loc 1 943 104 discriminator 4
	mv	a4,a5
	li	a5,15
	bleu	a4,a5,.L315
	.loc 1 944 14
	lla	a3,.LC133
	lla	a2,.LC12
	li	a1,-1
	li	a0,-1
	call	ShellPrintEx@plt
	.loc 1 944 107 discriminator 1
	ld	a5,-616(s0)
	lbu	a4,0(a5)
	lbu	a3,1(a5)
	slli	a3,a3,8
	or	a4,a3,a4
	lbu	a3,2(a5)
	slli	a3,a3,16
	or	a4,a3,a4
	lbu	a3,3(a5)
	slli	a3,a3,24
	or	a4,a3,a4
	lbu	a3,4(a5)
	slli	a3,a3,32
	or	a4,a3,a4
	lbu	a3,5(a5)
	slli	a3,a3,40
	or	a4,a3,a4
	lbu	a3,6(a5)
	slli	a3,a3,48
	or	a4,a3,a4
	lbu	a5,7(a5)
	slli	a5,a5,56
	or	a5,a5,a4
	.loc 1 944 67 discriminator 1
	lbu	a4,15(a5)
	lbu	a3,16(a5)
	slli	a3,a3,8
	or	a4,a3,a4
	lbu	a3,17(a5)
	slli	a3,a3,16
	or	a4,a3,a4
	lbu	a3,18(a5)
	slli	a3,a3,24
	or	a4,a3,a4
	lbu	a3,19(a5)
	slli	a3,a3,32
	or	a4,a3,a4
	lbu	a3,20(a5)
	slli	a3,a3,40
	or	a4,a3,a4
	lbu	a3,21(a5)
	slli	a3,a3,48
	or	a4,a3,a4
	lbu	a5,22(a5)
	slli	a5,a5,56
	or	a5,a5,a4
	mv	a3,a5
	lla	a2,.LC94
	li	a1,-1
	li	a0,-1
	call	ShellPrintEx@plt
	.loc 1 945 14
	lla	a3,.LC134
	lla	a2,.LC12
	li	a1,-1
	li	a0,-1
	call	ShellPrintEx@plt
	.loc 1 945 105 discriminator 1
	ld	a5,-616(s0)
	lbu	a4,0(a5)
	lbu	a3,1(a5)
	slli	a3,a3,8
	or	a4,a3,a4
	lbu	a3,2(a5)
	slli	a3,a3,16
	or	a4,a3,a4
	lbu	a3,3(a5)
	slli	a3,a3,24
	or	a4,a3,a4
	lbu	a3,4(a5)
	slli	a3,a3,32
	or	a4,a3,a4
	lbu	a3,5(a5)
	slli	a3,a3,40
	or	a4,a3,a4
	lbu	a3,6(a5)
	slli	a3,a3,48
	or	a4,a3,a4
	lbu	a5,7(a5)
	slli	a5,a5,56
	or	a5,a5,a4
	.loc 1 945 65 discriminator 1
	lbu	a4,23(a5)
	lbu	a3,24(a5)
	slli	a3,a3,8
	or	a4,a3,a4
	lbu	a3,25(a5)
	slli	a3,a3,16
	or	a4,a3,a4
	lbu	a3,26(a5)
	slli	a3,a3,24
	or	a4,a3,a4
	lbu	a3,27(a5)
	slli	a3,a3,32
	or	a4,a3,a4
	lbu	a3,28(a5)
	slli	a3,a3,40
	or	a4,a3,a4
	lbu	a3,29(a5)
	slli	a3,a3,48
	or	a4,a3,a4
	lbu	a5,30(a5)
	slli	a5,a5,56
	or	a5,a5,a4
	mv	a3,a5
	lla	a2,.LC94
	li	a1,-1
	li	a0,-1
	call	ShellPrintEx@plt
	.loc 1 948 7
	j	.L315
.L54:
	.loc 1 954 12
	lla	a3,.LC129
	lla	a2,.LC12
	li	a1,-1
	li	a0,-1
	call	ShellPrintEx@plt
	.loc 1 954 96 discriminator 1
	ld	a5,-616(s0)
	lbu	a4,0(a5)
	lbu	a3,1(a5)
	slli	a3,a3,8
	or	a4,a3,a4
	lbu	a3,2(a5)
	slli	a3,a3,16
	or	a4,a3,a4
	lbu	a3,3(a5)
	slli	a3,a3,24
	or	a4,a3,a4
	lbu	a3,4(a5)
	slli	a3,a3,32
	or	a4,a3,a4
	lbu	a3,5(a5)
	slli	a3,a3,40
	or	a4,a3,a4
	lbu	a3,6(a5)
	slli	a3,a3,48
	or	a4,a3,a4
	lbu	a5,7(a5)
	slli	a5,a5,56
	or	a5,a5,a4
	.loc 1 954 57 discriminator 1
	lbu	a4,4(a5)
	lbu	a3,5(a5)
	slli	a3,a3,8
	or	a4,a3,a4
	lbu	a3,6(a5)
	slli	a3,a3,16
	or	a4,a3,a4
	lbu	a5,7(a5)
	slli	a5,a5,24
	or	a5,a5,a4
	sext.w	a5,a5
	mv	a3,a5
	lla	a2,.LC24
	li	a1,-1
	li	a0,-1
	call	ShellPrintEx@plt
	.loc 1 955 12
	lla	a3,.LC130
	lla	a2,.LC12
	li	a1,-1
	li	a0,-1
	call	ShellPrintEx@plt
	.loc 1 955 94 discriminator 1
	ld	a5,-616(s0)
	lbu	a4,0(a5)
	lbu	a3,1(a5)
	slli	a3,a3,8
	or	a4,a3,a4
	lbu	a3,2(a5)
	slli	a3,a3,16
	or	a4,a3,a4
	lbu	a3,3(a5)
	slli	a3,a3,24
	or	a4,a3,a4
	lbu	a3,4(a5)
	slli	a3,a3,32
	or	a4,a3,a4
	lbu	a3,5(a5)
	slli	a3,a3,40
	or	a4,a3,a4
	lbu	a3,6(a5)
	slli	a3,a3,48
	or	a4,a3,a4
	lbu	a5,7(a5)
	slli	a5,a5,56
	or	a5,a5,a4
	.loc 1 955 55 discriminator 1
	lbu	a4,8(a5)
	lbu	a3,9(a5)
	slli	a3,a3,8
	or	a4,a3,a4
	lbu	a3,10(a5)
	slli	a3,a3,16
	or	a4,a3,a4
	lbu	a5,11(a5)
	slli	a5,a5,24
	or	a5,a5,a4
	sext.w	a5,a5
	mv	a3,a5
	lla	a2,.LC24
	li	a1,-1
	li	a0,-1
	call	ShellPrintEx@plt
	.loc 1 956 12
	lla	a3,.LC135
	lla	a2,.LC12
	li	a1,-1
	li	a0,-1
	call	ShellPrintEx@plt
	.loc 1 956 99 discriminator 1
	ld	a5,-616(s0)
	lbu	a4,0(a5)
	lbu	a3,1(a5)
	slli	a3,a3,8
	or	a4,a3,a4
	lbu	a3,2(a5)
	slli	a3,a3,16
	or	a4,a3,a4
	lbu	a3,3(a5)
	slli	a3,a3,24
	or	a4,a3,a4
	lbu	a3,4(a5)
	slli	a3,a3,32
	or	a4,a3,a4
	lbu	a3,5(a5)
	slli	a3,a3,40
	or	a4,a3,a4
	lbu	a3,6(a5)
	slli	a3,a3,48
	or	a4,a3,a4
	lbu	a5,7(a5)
	slli	a5,a5,56
	or	a5,a5,a4
	.loc 1 956 107 discriminator 1
	lbu	a4,12(a5)
	lbu	a5,13(a5)
	slli	a5,a5,8
	or	a5,a5,a4
	slli	a5,a5,48
	srli	a5,a5,48
	.loc 1 956 60 discriminator 1
	sext.w	a5,a5
	mv	a3,a5
	lla	a2,.LC24
	li	a1,-1
	li	a0,-1
	call	ShellPrintEx@plt
	.loc 1 957 12
	lla	a3,.LC136
	lla	a2,.LC12
	li	a1,-1
	li	a0,-1
	call	ShellPrintEx@plt
	.loc 1 957 111 discriminator 1
	ld	a5,-616(s0)
	lbu	a4,0(a5)
	lbu	a3,1(a5)
	slli	a3,a3,8
	or	a4,a3,a4
	lbu	a3,2(a5)
	slli	a3,a3,16
	or	a4,a3,a4
	lbu	a3,3(a5)
	slli	a3,a3,24
	or	a4,a3,a4
	lbu	a3,4(a5)
	slli	a3,a3,32
	or	a4,a3,a4
	lbu	a3,5(a5)
	slli	a3,a3,40
	or	a4,a3,a4
	lbu	a3,6(a5)
	slli	a3,a3,48
	or	a4,a3,a4
	lbu	a5,7(a5)
	slli	a5,a5,56
	or	a5,a5,a4
	.loc 1 957 119 discriminator 1
	lbu	a4,14(a5)
	lbu	a5,15(a5)
	slli	a5,a5,8
	or	a5,a5,a4
	slli	a5,a5,48
	srli	a5,a5,48
	.loc 1 957 72 discriminator 1
	sext.w	a5,a5
	mv	a3,a5
	lla	a2,.LC24
	li	a1,-1
	li	a0,-1
	call	ShellPrintEx@plt
	.loc 1 958 12
	lla	a3,.LC137
	lla	a2,.LC12
	li	a1,-1
	li	a0,-1
	call	ShellPrintEx@plt
	.loc 1 958 101 discriminator 1
	ld	a5,-616(s0)
	lbu	a4,0(a5)
	lbu	a3,1(a5)
	slli	a3,a3,8
	or	a4,a3,a4
	lbu	a3,2(a5)
	slli	a3,a3,16
	or	a4,a3,a4
	lbu	a3,3(a5)
	slli	a3,a3,24
	or	a4,a3,a4
	lbu	a3,4(a5)
	slli	a3,a3,32
	or	a4,a3,a4
	lbu	a3,5(a5)
	slli	a3,a3,40
	or	a4,a3,a4
	lbu	a3,6(a5)
	slli	a3,a3,48
	or	a4,a3,a4
	lbu	a5,7(a5)
	slli	a5,a5,56
	or	a5,a5,a4
	.loc 1 958 109 discriminator 1
	lbu	a5,16(a5)
	.loc 1 958 62 discriminator 1
	sext.w	a5,a5
	mv	a3,a5
	lla	a2,.LC24
	li	a1,-1
	li	a0,-1
	call	ShellPrintEx@plt
	.loc 1 959 12
	lla	a3,.LC138
	lla	a2,.LC12
	li	a1,-1
	li	a0,-1
	call	ShellPrintEx@plt
	.loc 1 959 99 discriminator 1
	ld	a5,-616(s0)
	lbu	a4,0(a5)
	lbu	a3,1(a5)
	slli	a3,a3,8
	or	a4,a3,a4
	lbu	a3,2(a5)
	slli	a3,a3,16
	or	a4,a3,a4
	lbu	a3,3(a5)
	slli	a3,a3,24
	or	a4,a3,a4
	lbu	a3,4(a5)
	slli	a3,a3,32
	or	a4,a3,a4
	lbu	a3,5(a5)
	slli	a3,a3,40
	or	a4,a3,a4
	lbu	a3,6(a5)
	slli	a3,a3,48
	or	a4,a3,a4
	lbu	a5,7(a5)
	slli	a5,a5,56
	or	a5,a5,a4
	.loc 1 959 107 discriminator 1
	lbu	a5,17(a5)
	.loc 1 959 60 discriminator 1
	sext.w	a5,a5
	mv	a3,a5
	lla	a2,.LC24
	li	a1,-1
	li	a0,-1
	call	ShellPrintEx@plt
	.loc 1 960 12
	lla	a3,.LC139
	lla	a2,.LC12
	li	a1,-1
	li	a0,-1
	call	ShellPrintEx@plt
	.loc 1 960 101 discriminator 1
	ld	a5,-616(s0)
	lbu	a4,0(a5)
	lbu	a3,1(a5)
	slli	a3,a3,8
	or	a4,a3,a4
	lbu	a3,2(a5)
	slli	a3,a3,16
	or	a4,a3,a4
	lbu	a3,3(a5)
	slli	a3,a3,24
	or	a4,a3,a4
	lbu	a3,4(a5)
	slli	a3,a3,32
	or	a4,a3,a4
	lbu	a3,5(a5)
	slli	a3,a3,40
	or	a4,a3,a4
	lbu	a3,6(a5)
	slli	a3,a3,48
	or	a4,a3,a4
	lbu	a5,7(a5)
	slli	a5,a5,56
	or	a5,a5,a4
	.loc 1 960 109 discriminator 1
	lbu	a5,18(a5)
	.loc 1 960 62 discriminator 1
	sext.w	a5,a5
	mv	a3,a5
	lla	a2,.LC24
	li	a1,-1
	li	a0,-1
	call	ShellPrintEx@plt
	.loc 1 961 31
	la	a5,SmbiosMajorVersion
	lbu	a5,0(a5)
	.loc 1 961 10
	mv	a4,a5
	li	a5,2
	bgtu	a4,a5,.L210
	.loc 1 961 62 discriminator 2
	la	a5,SmbiosMajorVersion
	lbu	a5,0(a5)
	.loc 1 961 39 discriminator 2
	mv	a4,a5
	li	a5,2
	bne	a4,a5,.L316
	.loc 1 961 93 discriminator 3
	la	a5,SmbiosMinorVersion
	lbu	a5,0(a5)
	.loc 1 961 71 discriminator 3
	mv	a4,a5
	li	a5,6
	bleu	a4,a5,.L316
.L210:
	.loc 1 961 114 discriminator 4
	ld	a5,-616(s0)
	lbu	a4,0(a5)
	lbu	a3,1(a5)
	slli	a3,a3,8
	or	a4,a3,a4
	lbu	a3,2(a5)
	slli	a3,a3,16
	or	a4,a3,a4
	lbu	a3,3(a5)
	slli	a3,a3,24
	or	a4,a3,a4
	lbu	a3,4(a5)
	slli	a3,a3,32
	or	a4,a3,a4
	lbu	a3,5(a5)
	slli	a3,a3,40
	or	a4,a3,a4
	lbu	a3,6(a5)
	slli	a3,a3,48
	or	a4,a3,a4
	lbu	a5,7(a5)
	slli	a5,a5,56
	or	a5,a5,a4
	.loc 1 961 119 discriminator 4
	lbu	a5,1(a5)
	.loc 1 961 104 discriminator 4
	mv	a4,a5
	li	a5,19
	bleu	a4,a5,.L316
	.loc 1 962 14
	lla	a3,.LC133
	lla	a2,.LC12
	li	a1,-1
	li	a0,-1
	call	ShellPrintEx@plt
	.loc 1 962 107 discriminator 1
	ld	a5,-616(s0)
	lbu	a4,0(a5)
	lbu	a3,1(a5)
	slli	a3,a3,8
	or	a4,a3,a4
	lbu	a3,2(a5)
	slli	a3,a3,16
	or	a4,a3,a4
	lbu	a3,3(a5)
	slli	a3,a3,24
	or	a4,a3,a4
	lbu	a3,4(a5)
	slli	a3,a3,32
	or	a4,a3,a4
	lbu	a3,5(a5)
	slli	a3,a3,40
	or	a4,a3,a4
	lbu	a3,6(a5)
	slli	a3,a3,48
	or	a4,a3,a4
	lbu	a5,7(a5)
	slli	a5,a5,56
	or	a5,a5,a4
	.loc 1 962 67 discriminator 1
	lbu	a4,15(a5)
	lbu	a3,16(a5)
	slli	a3,a3,8
	or	a4,a3,a4
	lbu	a3,17(a5)
	slli	a3,a3,16
	or	a4,a3,a4
	lbu	a3,18(a5)
	slli	a3,a3,24
	or	a4,a3,a4
	lbu	a3,19(a5)
	slli	a3,a3,32
	or	a4,a3,a4
	lbu	a3,20(a5)
	slli	a3,a3,40
	or	a4,a3,a4
	lbu	a3,21(a5)
	slli	a3,a3,48
	or	a4,a3,a4
	lbu	a5,22(a5)
	slli	a5,a5,56
	or	a5,a5,a4
	mv	a3,a5
	lla	a2,.LC94
	li	a1,-1
	li	a0,-1
	call	ShellPrintEx@plt
	.loc 1 963 14
	lla	a3,.LC134
	lla	a2,.LC12
	li	a1,-1
	li	a0,-1
	call	ShellPrintEx@plt
	.loc 1 963 105 discriminator 1
	ld	a5,-616(s0)
	lbu	a4,0(a5)
	lbu	a3,1(a5)
	slli	a3,a3,8
	or	a4,a3,a4
	lbu	a3,2(a5)
	slli	a3,a3,16
	or	a4,a3,a4
	lbu	a3,3(a5)
	slli	a3,a3,24
	or	a4,a3,a4
	lbu	a3,4(a5)
	slli	a3,a3,32
	or	a4,a3,a4
	lbu	a3,5(a5)
	slli	a3,a3,40
	or	a4,a3,a4
	lbu	a3,6(a5)
	slli	a3,a3,48
	or	a4,a3,a4
	lbu	a5,7(a5)
	slli	a5,a5,56
	or	a5,a5,a4
	.loc 1 963 65 discriminator 1
	lbu	a4,23(a5)
	lbu	a3,24(a5)
	slli	a3,a3,8
	or	a4,a3,a4
	lbu	a3,25(a5)
	slli	a3,a3,16
	or	a4,a3,a4
	lbu	a3,26(a5)
	slli	a3,a3,24
	or	a4,a3,a4
	lbu	a3,27(a5)
	slli	a3,a3,32
	or	a4,a3,a4
	lbu	a3,28(a5)
	slli	a3,a3,40
	or	a4,a3,a4
	lbu	a3,29(a5)
	slli	a3,a3,48
	or	a4,a3,a4
	lbu	a5,30(a5)
	slli	a5,a5,56
	or	a5,a5,a4
	mv	a3,a5
	lla	a2,.LC94
	li	a1,-1
	li	a0,-1
	call	ShellPrintEx@plt
	.loc 1 966 7
	j	.L316
.L53:
	.loc 1 972 40
	ld	a5,-616(s0)
	lbu	a4,0(a5)
	lbu	a3,1(a5)
	slli	a3,a3,8
	or	a4,a3,a4
	lbu	a3,2(a5)
	slli	a3,a3,16
	or	a4,a3,a4
	lbu	a3,3(a5)
	slli	a3,a3,24
	or	a4,a3,a4
	lbu	a3,4(a5)
	slli	a3,a3,32
	or	a4,a3,a4
	lbu	a3,5(a5)
	slli	a3,a3,40
	or	a4,a3,a4
	lbu	a3,6(a5)
	slli	a3,a3,48
	or	a4,a3,a4
	lbu	a5,7(a5)
	slli	a5,a5,56
	or	a5,a5,a4
	.loc 1 972 7
	lbu	a5,4(a5)
	lbu	a4,-617(s0)
	mv	a1,a4
	mv	a0,a5
	call	DisplayPointingDeviceType@plt
	.loc 1 973 45
	ld	a5,-616(s0)
	lbu	a4,0(a5)
	lbu	a3,1(a5)
	slli	a3,a3,8
	or	a4,a3,a4
	lbu	a3,2(a5)
	slli	a3,a3,16
	or	a4,a3,a4
	lbu	a3,3(a5)
	slli	a3,a3,24
	or	a4,a3,a4
	lbu	a3,4(a5)
	slli	a3,a3,32
	or	a4,a3,a4
	lbu	a3,5(a5)
	slli	a3,a3,40
	or	a4,a3,a4
	lbu	a3,6(a5)
	slli	a3,a3,48
	or	a4,a3,a4
	lbu	a5,7(a5)
	slli	a5,a5,56
	or	a5,a5,a4
	.loc 1 973 7
	lbu	a5,5(a5)
	lbu	a4,-617(s0)
	mv	a1,a4
	mv	a0,a5
	call	DisplayPointingDeviceInterface@plt
	.loc 1 974 12
	lla	a3,.LC140
	lla	a2,.LC12
	li	a1,-1
	li	a0,-1
	call	ShellPrintEx@plt
	.loc 1 974 94 discriminator 1
	ld	a5,-616(s0)
	lbu	a4,0(a5)
	lbu	a3,1(a5)
	slli	a3,a3,8
	or	a4,a3,a4
	lbu	a3,2(a5)
	slli	a3,a3,16
	or	a4,a3,a4
	lbu	a3,3(a5)
	slli	a3,a3,24
	or	a4,a3,a4
	lbu	a3,4(a5)
	slli	a3,a3,32
	or	a4,a3,a4
	lbu	a3,5(a5)
	slli	a3,a3,40
	or	a4,a3,a4
	lbu	a3,6(a5)
	slli	a3,a3,48
	or	a4,a3,a4
	lbu	a5,7(a5)
	slli	a5,a5,56
	or	a5,a5,a4
	.loc 1 974 102 discriminator 1
	lbu	a5,6(a5)
	.loc 1 974 57 discriminator 1
	sext.w	a5,a5
	mv	a3,a5
	lla	a2,.LC26
	li	a1,-1
	li	a0,-1
	call	ShellPrintEx@plt
	.loc 1 975 7
	j	.L85
.L52:
.LBB32:
	.loc 1 981 79
	ld	a5,-616(s0)
	lbu	a4,0(a5)
	lbu	a3,1(a5)
	slli	a3,a3,8
	or	a4,a3,a4
	lbu	a3,2(a5)
	slli	a3,a3,16
	or	a4,a3,a4
	lbu	a3,3(a5)
	slli	a3,a3,24
	or	a4,a3,a4
	lbu	a3,4(a5)
	slli	a3,a3,32
	or	a4,a3,a4
	lbu	a3,5(a5)
	slli	a3,a3,40
	or	a4,a3,a4
	lbu	a3,6(a5)
	slli	a3,a3,48
	or	a4,a3,a4
	lbu	a5,7(a5)
	slli	a5,a5,56
	or	a5,a5,a4
	.loc 1 981 87
	lbu	a5,4(a5)
	.loc 1 981 42
	mv	a1,a5
	ld	a0,-616(s0)
	call	LibGetSmbiosString@plt
	sd	a0,-288(s0)
	.loc 1 981 101 discriminator 1
	lla	a3,.LC141
	lla	a2,.LC12
	li	a1,-1
	li	a0,-1
	call	ShellPrintEx@plt
	.loc 1 981 139 discriminator 2
	ld	a5,-288(s0)
	beq	a5,zero,.L212
	.loc 1 981 139 is_stmt 0 discriminator 3
	ld	a5,-288(s0)
	j	.L213
.L212:
	.loc 1 981 139 discriminator 4
	lla	a5,.LC13
.L213:
	.loc 1 981 139 discriminator 6
	mv	a3,a5
	lla	a2,.LC14
	li	a1,-1
	li	a0,-1
	call	ShellPrintEx@plt
.LBE32:
.LBB33:
	.loc 1 982 79 is_stmt 1
	ld	a5,-616(s0)
	lbu	a4,0(a5)
	lbu	a3,1(a5)
	slli	a3,a3,8
	or	a4,a3,a4
	lbu	a3,2(a5)
	slli	a3,a3,16
	or	a4,a3,a4
	lbu	a3,3(a5)
	slli	a3,a3,24
	or	a4,a3,a4
	lbu	a3,4(a5)
	slli	a3,a3,32
	or	a4,a3,a4
	lbu	a3,5(a5)
	slli	a3,a3,40
	or	a4,a3,a4
	lbu	a3,6(a5)
	slli	a3,a3,48
	or	a4,a3,a4
	lbu	a5,7(a5)
	slli	a5,a5,56
	or	a5,a5,a4
	.loc 1 982 87
	lbu	a5,5(a5)
	.loc 1 982 42
	mv	a1,a5
	ld	a0,-616(s0)
	call	LibGetSmbiosString@plt
	sd	a0,-296(s0)
	.loc 1 982 105 discriminator 1
	lla	a3,.LC11
	lla	a2,.LC12
	li	a1,-1
	li	a0,-1
	call	ShellPrintEx@plt
	.loc 1 982 147 discriminator 2
	ld	a5,-296(s0)
	beq	a5,zero,.L214
	.loc 1 982 147 is_stmt 0 discriminator 3
	ld	a5,-296(s0)
	j	.L215
.L214:
	.loc 1 982 147 discriminator 4
	lla	a5,.LC13
.L215:
	.loc 1 982 147 discriminator 6
	mv	a3,a5
	lla	a2,.LC14
	li	a1,-1
	li	a0,-1
	call	ShellPrintEx@plt
.LBE33:
.LBB34:
	.loc 1 983 79 is_stmt 1
	ld	a5,-616(s0)
	lbu	a4,0(a5)
	lbu	a3,1(a5)
	slli	a3,a3,8
	or	a4,a3,a4
	lbu	a3,2(a5)
	slli	a3,a3,16
	or	a4,a3,a4
	lbu	a3,3(a5)
	slli	a3,a3,24
	or	a4,a3,a4
	lbu	a3,4(a5)
	slli	a3,a3,32
	or	a4,a3,a4
	lbu	a3,5(a5)
	slli	a3,a3,40
	or	a4,a3,a4
	lbu	a3,6(a5)
	slli	a3,a3,48
	or	a4,a3,a4
	lbu	a5,7(a5)
	slli	a5,a5,56
	or	a5,a5,a4
	.loc 1 983 87
	lbu	a5,6(a5)
	.loc 1 983 42
	mv	a1,a5
	ld	a0,-616(s0)
	call	LibGetSmbiosString@plt
	sd	a0,-304(s0)
	.loc 1 983 108 discriminator 1
	lla	a3,.LC142
	lla	a2,.LC12
	li	a1,-1
	li	a0,-1
	call	ShellPrintEx@plt
	.loc 1 983 153 discriminator 2
	ld	a5,-304(s0)
	beq	a5,zero,.L216
	.loc 1 983 153 is_stmt 0 discriminator 3
	ld	a5,-304(s0)
	j	.L217
.L216:
	.loc 1 983 153 discriminator 4
	lla	a5,.LC13
.L217:
	.loc 1 983 153 discriminator 6
	mv	a3,a5
	lla	a2,.LC14
	li	a1,-1
	li	a0,-1
	call	ShellPrintEx@plt
.LBE34:
.LBB35:
	.loc 1 984 79 is_stmt 1
	ld	a5,-616(s0)
	lbu	a4,0(a5)
	lbu	a3,1(a5)
	slli	a3,a3,8
	or	a4,a3,a4
	lbu	a3,2(a5)
	slli	a3,a3,16
	or	a4,a3,a4
	lbu	a3,3(a5)
	slli	a3,a3,24
	or	a4,a3,a4
	lbu	a3,4(a5)
	slli	a3,a3,32
	or	a4,a3,a4
	lbu	a3,5(a5)
	slli	a3,a3,40
	or	a4,a3,a4
	lbu	a3,6(a5)
	slli	a3,a3,48
	or	a4,a3,a4
	lbu	a5,7(a5)
	slli	a5,a5,56
	or	a5,a5,a4
	.loc 1 984 87
	lbu	a5,7(a5)
	.loc 1 984 42
	mv	a1,a5
	ld	a0,-616(s0)
	call	LibGetSmbiosString@plt
	sd	a0,-312(s0)
	.loc 1 984 105 discriminator 1
	lla	a3,.LC17
	lla	a2,.LC12
	li	a1,-1
	li	a0,-1
	call	ShellPrintEx@plt
	.loc 1 984 147 discriminator 2
	ld	a5,-312(s0)
	beq	a5,zero,.L218
	.loc 1 984 147 is_stmt 0 discriminator 3
	ld	a5,-312(s0)
	j	.L219
.L218:
	.loc 1 984 147 discriminator 4
	lla	a5,.LC13
.L219:
	.loc 1 984 147 discriminator 6
	mv	a3,a5
	lla	a2,.LC14
	li	a1,-1
	li	a0,-1
	call	ShellPrintEx@plt
.LBE35:
.LBB36:
	.loc 1 985 79 is_stmt 1
	ld	a5,-616(s0)
	lbu	a4,0(a5)
	lbu	a3,1(a5)
	slli	a3,a3,8
	or	a4,a3,a4
	lbu	a3,2(a5)
	slli	a3,a3,16
	or	a4,a3,a4
	lbu	a3,3(a5)
	slli	a3,a3,24
	or	a4,a3,a4
	lbu	a3,4(a5)
	slli	a3,a3,32
	or	a4,a3,a4
	lbu	a3,5(a5)
	slli	a3,a3,40
	or	a4,a3,a4
	lbu	a3,6(a5)
	slli	a3,a3,48
	or	a4,a3,a4
	lbu	a5,7(a5)
	slli	a5,a5,56
	or	a5,a5,a4
	.loc 1 985 87
	lbu	a5,8(a5)
	.loc 1 985 42
	mv	a1,a5
	ld	a0,-616(s0)
	call	LibGetSmbiosString@plt
	sd	a0,-320(s0)
	.loc 1 985 103 discriminator 1
	lla	a3,.LC143
	lla	a2,.LC12
	li	a1,-1
	li	a0,-1
	call	ShellPrintEx@plt
	.loc 1 985 143 discriminator 2
	ld	a5,-320(s0)
	beq	a5,zero,.L220
	.loc 1 985 143 is_stmt 0 discriminator 3
	ld	a5,-320(s0)
	j	.L221
.L220:
	.loc 1 985 143 discriminator 4
	lla	a5,.LC13
.L221:
	.loc 1 985 143 discriminator 6
	mv	a3,a5
	lla	a2,.LC14
	li	a1,-1
	li	a0,-1
	call	ShellPrintEx@plt
.LBE36:
	.loc 1 987 15 is_stmt 1
	ld	a5,-616(s0)
	lbu	a4,0(a5)
	lbu	a3,1(a5)
	slli	a3,a3,8
	or	a4,a3,a4
	lbu	a3,2(a5)
	slli	a3,a3,16
	or	a4,a3,a4
	lbu	a3,3(a5)
	slli	a3,a3,24
	or	a4,a3,a4
	lbu	a3,4(a5)
	slli	a3,a3,32
	or	a4,a3,a4
	lbu	a3,5(a5)
	slli	a3,a3,40
	or	a4,a3,a4
	lbu	a3,6(a5)
	slli	a3,a3,48
	or	a4,a3,a4
	lbu	a5,7(a5)
	slli	a5,a5,56
	or	a5,a5,a4
	.loc 1 986 7
	lbu	a5,9(a5)
	lbu	a4,-617(s0)
	mv	a1,a4
	mv	a0,a5
	call	DisplayPBDeviceChemistry@plt
	.loc 1 990 12
	lla	a3,.LC144
	lla	a2,.LC12
	li	a1,-1
	li	a0,-1
	call	ShellPrintEx@plt
	.loc 1 990 95 discriminator 1
	ld	a5,-616(s0)
	lbu	a4,0(a5)
	lbu	a3,1(a5)
	slli	a3,a3,8
	or	a4,a3,a4
	lbu	a3,2(a5)
	slli	a3,a3,16
	or	a4,a3,a4
	lbu	a3,3(a5)
	slli	a3,a3,24
	or	a4,a3,a4
	lbu	a3,4(a5)
	slli	a3,a3,32
	or	a4,a3,a4
	lbu	a3,5(a5)
	slli	a3,a3,40
	or	a4,a3,a4
	lbu	a3,6(a5)
	slli	a3,a3,48
	or	a4,a3,a4
	lbu	a5,7(a5)
	slli	a5,a5,56
	or	a5,a5,a4
	.loc 1 990 103 discriminator 1
	lbu	a4,10(a5)
	lbu	a5,11(a5)
	slli	a5,a5,8
	or	a5,a5,a4
	slli	a5,a5,48
	srli	a5,a5,48
	.loc 1 990 56 discriminator 1
	sext.w	a5,a5
	mv	a3,a5
	lla	a2,.LC24
	li	a1,-1
	li	a0,-1
	call	ShellPrintEx@plt
	.loc 1 991 12
	lla	a3,.LC145
	lla	a2,.LC12
	li	a1,-1
	li	a0,-1
	call	ShellPrintEx@plt
	.loc 1 991 94 discriminator 1
	ld	a5,-616(s0)
	lbu	a4,0(a5)
	lbu	a3,1(a5)
	slli	a3,a3,8
	or	a4,a3,a4
	lbu	a3,2(a5)
	slli	a3,a3,16
	or	a4,a3,a4
	lbu	a3,3(a5)
	slli	a3,a3,24
	or	a4,a3,a4
	lbu	a3,4(a5)
	slli	a3,a3,32
	or	a4,a3,a4
	lbu	a3,5(a5)
	slli	a3,a3,40
	or	a4,a3,a4
	lbu	a3,6(a5)
	slli	a3,a3,48
	or	a4,a3,a4
	lbu	a5,7(a5)
	slli	a5,a5,56
	or	a5,a5,a4
	.loc 1 991 102 discriminator 1
	lbu	a4,12(a5)
	lbu	a5,13(a5)
	slli	a5,a5,8
	or	a5,a5,a4
	slli	a5,a5,48
	srli	a5,a5,48
	.loc 1 991 55 discriminator 1
	sext.w	a5,a5
	mv	a3,a5
	lla	a2,.LC24
	li	a1,-1
	li	a0,-1
	call	ShellPrintEx@plt
.LBB37:
	.loc 1 992 79
	ld	a5,-616(s0)
	lbu	a4,0(a5)
	lbu	a3,1(a5)
	slli	a3,a3,8
	or	a4,a3,a4
	lbu	a3,2(a5)
	slli	a3,a3,16
	or	a4,a3,a4
	lbu	a3,3(a5)
	slli	a3,a3,24
	or	a4,a3,a4
	lbu	a3,4(a5)
	slli	a3,a3,32
	or	a4,a3,a4
	lbu	a3,5(a5)
	slli	a3,a3,40
	or	a4,a3,a4
	lbu	a3,6(a5)
	slli	a3,a3,48
	or	a4,a3,a4
	lbu	a5,7(a5)
	slli	a5,a5,56
	or	a5,a5,a4
	.loc 1 992 87
	lbu	a5,14(a5)
	.loc 1 992 42
	mv	a1,a5
	ld	a0,-616(s0)
	call	LibGetSmbiosString@plt
	sd	a0,-328(s0)
	.loc 1 992 110 discriminator 1
	lla	a3,.LC146
	lla	a2,.LC12
	li	a1,-1
	li	a0,-1
	call	ShellPrintEx@plt
	.loc 1 992 157 discriminator 2
	ld	a5,-328(s0)
	beq	a5,zero,.L222
	.loc 1 992 157 is_stmt 0 discriminator 3
	ld	a5,-328(s0)
	j	.L223
.L222:
	.loc 1 992 157 discriminator 4
	lla	a5,.LC13
.L223:
	.loc 1 992 157 discriminator 6
	mv	a3,a5
	lla	a2,.LC14
	li	a1,-1
	li	a0,-1
	call	ShellPrintEx@plt
.LBE37:
	.loc 1 993 12 is_stmt 1
	lla	a3,.LC147
	lla	a2,.LC12
	li	a1,-1
	li	a0,-1
	call	ShellPrintEx@plt
	.loc 1 993 106 discriminator 1
	ld	a5,-616(s0)
	lbu	a4,0(a5)
	lbu	a3,1(a5)
	slli	a3,a3,8
	or	a4,a3,a4
	lbu	a3,2(a5)
	slli	a3,a3,16
	or	a4,a3,a4
	lbu	a3,3(a5)
	slli	a3,a3,24
	or	a4,a3,a4
	lbu	a3,4(a5)
	slli	a3,a3,32
	or	a4,a3,a4
	lbu	a3,5(a5)
	slli	a3,a3,40
	or	a4,a3,a4
	lbu	a3,6(a5)
	slli	a3,a3,48
	or	a4,a3,a4
	lbu	a5,7(a5)
	slli	a5,a5,56
	or	a5,a5,a4
	.loc 1 993 114 discriminator 1
	lbu	a5,15(a5)
	.loc 1 993 67 discriminator 1
	sext.w	a5,a5
	mv	a3,a5
	lla	a2,.LC24
	li	a1,-1
	li	a0,-1
	call	ShellPrintEx@plt
	.loc 1 994 12
	lla	a3,.LC148
	lla	a2,.LC12
	li	a1,-1
	li	a0,-1
	call	ShellPrintEx@plt
	.loc 1 994 97 discriminator 1
	ld	a5,-616(s0)
	lbu	a4,0(a5)
	lbu	a3,1(a5)
	slli	a3,a3,8
	or	a4,a3,a4
	lbu	a3,2(a5)
	slli	a3,a3,16
	or	a4,a3,a4
	lbu	a3,3(a5)
	slli	a3,a3,24
	or	a4,a3,a4
	lbu	a3,4(a5)
	slli	a3,a3,32
	or	a4,a3,a4
	lbu	a3,5(a5)
	slli	a3,a3,40
	or	a4,a3,a4
	lbu	a3,6(a5)
	slli	a3,a3,48
	or	a4,a3,a4
	lbu	a5,7(a5)
	slli	a5,a5,56
	or	a5,a5,a4
	.loc 1 994 105 discriminator 1
	lbu	a4,16(a5)
	lbu	a5,17(a5)
	slli	a5,a5,8
	or	a5,a5,a4
	slli	a5,a5,48
	srli	a5,a5,48
	.loc 1 994 58 discriminator 1
	sext.w	a5,a5
	mv	a3,a5
	lla	a2,.LC24
	li	a1,-1
	li	a0,-1
	call	ShellPrintEx@plt
	.loc 1 996 15
	ld	a5,-616(s0)
	lbu	a4,0(a5)
	lbu	a3,1(a5)
	slli	a3,a3,8
	or	a4,a3,a4
	lbu	a3,2(a5)
	slli	a3,a3,16
	or	a4,a3,a4
	lbu	a3,3(a5)
	slli	a3,a3,24
	or	a4,a3,a4
	lbu	a3,4(a5)
	slli	a3,a3,32
	or	a4,a3,a4
	lbu	a3,5(a5)
	slli	a3,a3,40
	or	a4,a3,a4
	lbu	a3,6(a5)
	slli	a3,a3,48
	or	a4,a3,a4
	lbu	a5,7(a5)
	slli	a5,a5,56
	or	a5,a5,a4
	.loc 1 995 7
	lbu	a4,18(a5)
	lbu	a5,19(a5)
	slli	a5,a5,8
	or	a5,a5,a4
	slli	a5,a5,48
	srli	a5,a5,48
	lbu	a4,-617(s0)
	mv	a1,a4
	mv	a0,a5
	call	DisplaySBDSManufactureDate
.LBB38:
	.loc 1 999 79
	ld	a5,-616(s0)
	lbu	a4,0(a5)
	lbu	a3,1(a5)
	slli	a3,a3,8
	or	a4,a3,a4
	lbu	a3,2(a5)
	slli	a3,a3,16
	or	a4,a3,a4
	lbu	a3,3(a5)
	slli	a3,a3,24
	or	a4,a3,a4
	lbu	a3,4(a5)
	slli	a3,a3,32
	or	a4,a3,a4
	lbu	a3,5(a5)
	slli	a3,a3,40
	or	a4,a3,a4
	lbu	a3,6(a5)
	slli	a3,a3,48
	or	a4,a3,a4
	lbu	a5,7(a5)
	slli	a5,a5,56
	or	a5,a5,a4
	.loc 1 999 87
	lbu	a5,20(a5)
	.loc 1 999 42
	mv	a1,a5
	ld	a0,-616(s0)
	call	LibGetSmbiosString@plt
	sd	a0,-336(s0)
	.loc 1 999 112 discriminator 1
	lla	a3,.LC149
	lla	a2,.LC12
	li	a1,-1
	li	a0,-1
	call	ShellPrintEx@plt
	.loc 1 999 161 discriminator 2
	ld	a5,-336(s0)
	beq	a5,zero,.L224
	.loc 1 999 161 is_stmt 0 discriminator 3
	ld	a5,-336(s0)
	j	.L225
.L224:
	.loc 1 999 161 discriminator 4
	lla	a5,.LC13
.L225:
	.loc 1 999 161 discriminator 6
	mv	a3,a5
	lla	a2,.LC14
	li	a1,-1
	li	a0,-1
	call	ShellPrintEx@plt
.LBE38:
	.loc 1 1000 12 is_stmt 1
	lla	a3,.LC150
	lla	a2,.LC12
	li	a1,-1
	li	a0,-1
	call	ShellPrintEx@plt
	.loc 1 1000 105 discriminator 1
	ld	a5,-616(s0)
	lbu	a4,0(a5)
	lbu	a3,1(a5)
	slli	a3,a3,8
	or	a4,a3,a4
	lbu	a3,2(a5)
	slli	a3,a3,16
	or	a4,a3,a4
	lbu	a3,3(a5)
	slli	a3,a3,24
	or	a4,a3,a4
	lbu	a3,4(a5)
	slli	a3,a3,32
	or	a4,a3,a4
	lbu	a3,5(a5)
	slli	a3,a3,40
	or	a4,a3,a4
	lbu	a3,6(a5)
	slli	a3,a3,48
	or	a4,a3,a4
	lbu	a5,7(a5)
	slli	a5,a5,56
	or	a5,a5,a4
	.loc 1 1000 113 discriminator 1
	lbu	a5,21(a5)
	.loc 1 1000 66 discriminator 1
	sext.w	a5,a5
	mv	a3,a5
	lla	a2,.LC24
	li	a1,-1
	li	a0,-1
	call	ShellPrintEx@plt
	.loc 1 1001 12
	lla	a3,.LC151
	lla	a2,.LC12
	li	a1,-1
	li	a0,-1
	call	ShellPrintEx@plt
	.loc 1 1001 92 discriminator 1
	ld	a5,-616(s0)
	lbu	a4,0(a5)
	lbu	a3,1(a5)
	slli	a3,a3,8
	or	a4,a3,a4
	lbu	a3,2(a5)
	slli	a3,a3,16
	or	a4,a3,a4
	lbu	a3,3(a5)
	slli	a3,a3,24
	or	a4,a3,a4
	lbu	a3,4(a5)
	slli	a3,a3,32
	or	a4,a3,a4
	lbu	a3,5(a5)
	slli	a3,a3,40
	or	a4,a3,a4
	lbu	a3,6(a5)
	slli	a3,a3,48
	or	a4,a3,a4
	lbu	a5,7(a5)
	slli	a5,a5,56
	or	a5,a5,a4
	.loc 1 1001 53 discriminator 1
	lbu	a4,22(a5)
	lbu	a3,23(a5)
	slli	a3,a3,8
	or	a4,a3,a4
	lbu	a3,24(a5)
	slli	a3,a3,16
	or	a4,a3,a4
	lbu	a5,25(a5)
	slli	a5,a5,24
	or	a5,a5,a4
	sext.w	a5,a5
	mv	a3,a5
	lla	a2,.LC24
	li	a1,-1
	li	a0,-1
	call	ShellPrintEx@plt
	.loc 1 1002 7
	j	.L85
.L51:
	.loc 1 1009 15
	ld	a5,-616(s0)
	lbu	a4,0(a5)
	lbu	a3,1(a5)
	slli	a3,a3,8
	or	a4,a3,a4
	lbu	a3,2(a5)
	slli	a3,a3,16
	or	a4,a3,a4
	lbu	a3,3(a5)
	slli	a3,a3,24
	or	a4,a3,a4
	lbu	a3,4(a5)
	slli	a3,a3,32
	or	a4,a3,a4
	lbu	a3,5(a5)
	slli	a3,a3,40
	or	a4,a3,a4
	lbu	a3,6(a5)
	slli	a3,a3,48
	or	a4,a3,a4
	lbu	a5,7(a5)
	slli	a5,a5,56
	or	a5,a5,a4
	.loc 1 1008 7
	lbu	a5,4(a5)
	lbu	a4,-617(s0)
	mv	a1,a4
	mv	a0,a5
	call	DisplaySystemResetCapabilities
	.loc 1 1012 12
	lla	a3,.LC152
	lla	a2,.LC12
	li	a1,-1
	li	a0,-1
	call	ShellPrintEx@plt
	.loc 1 1012 91 discriminator 1
	ld	a5,-616(s0)
	lbu	a4,0(a5)
	lbu	a3,1(a5)
	slli	a3,a3,8
	or	a4,a3,a4
	lbu	a3,2(a5)
	slli	a3,a3,16
	or	a4,a3,a4
	lbu	a3,3(a5)
	slli	a3,a3,24
	or	a4,a3,a4
	lbu	a3,4(a5)
	slli	a3,a3,32
	or	a4,a3,a4
	lbu	a3,5(a5)
	slli	a3,a3,40
	or	a4,a3,a4
	lbu	a3,6(a5)
	slli	a3,a3,48
	or	a4,a3,a4
	lbu	a5,7(a5)
	slli	a5,a5,56
	or	a5,a5,a4
	.loc 1 1012 99 discriminator 1
	lbu	a4,5(a5)
	lbu	a5,6(a5)
	slli	a5,a5,8
	or	a5,a5,a4
	slli	a5,a5,48
	srli	a5,a5,48
	.loc 1 1012 52 discriminator 1
	sext.w	a5,a5
	mv	a3,a5
	lla	a2,.LC24
	li	a1,-1
	li	a0,-1
	call	ShellPrintEx@plt
	.loc 1 1013 12
	lla	a3,.LC153
	lla	a2,.LC12
	li	a1,-1
	li	a0,-1
	call	ShellPrintEx@plt
	.loc 1 1013 91 discriminator 1
	ld	a5,-616(s0)
	lbu	a4,0(a5)
	lbu	a3,1(a5)
	slli	a3,a3,8
	or	a4,a3,a4
	lbu	a3,2(a5)
	slli	a3,a3,16
	or	a4,a3,a4
	lbu	a3,3(a5)
	slli	a3,a3,24
	or	a4,a3,a4
	lbu	a3,4(a5)
	slli	a3,a3,32
	or	a4,a3,a4
	lbu	a3,5(a5)
	slli	a3,a3,40
	or	a4,a3,a4
	lbu	a3,6(a5)
	slli	a3,a3,48
	or	a4,a3,a4
	lbu	a5,7(a5)
	slli	a5,a5,56
	or	a5,a5,a4
	.loc 1 1013 99 discriminator 1
	lbu	a4,7(a5)
	lbu	a5,8(a5)
	slli	a5,a5,8
	or	a5,a5,a4
	slli	a5,a5,48
	srli	a5,a5,48
	.loc 1 1013 52 discriminator 1
	sext.w	a5,a5
	mv	a3,a5
	lla	a2,.LC24
	li	a1,-1
	li	a0,-1
	call	ShellPrintEx@plt
	.loc 1 1014 12
	lla	a3,.LC154
	lla	a2,.LC12
	li	a1,-1
	li	a0,-1
	call	ShellPrintEx@plt
	.loc 1 1014 94 discriminator 1
	ld	a5,-616(s0)
	lbu	a4,0(a5)
	lbu	a3,1(a5)
	slli	a3,a3,8
	or	a4,a3,a4
	lbu	a3,2(a5)
	slli	a3,a3,16
	or	a4,a3,a4
	lbu	a3,3(a5)
	slli	a3,a3,24
	or	a4,a3,a4
	lbu	a3,4(a5)
	slli	a3,a3,32
	or	a4,a3,a4
	lbu	a3,5(a5)
	slli	a3,a3,40
	or	a4,a3,a4
	lbu	a3,6(a5)
	slli	a3,a3,48
	or	a4,a3,a4
	lbu	a5,7(a5)
	slli	a5,a5,56
	or	a5,a5,a4
	.loc 1 1014 102 discriminator 1
	lbu	a4,9(a5)
	lbu	a5,10(a5)
	slli	a5,a5,8
	or	a5,a5,a4
	slli	a5,a5,48
	srli	a5,a5,48
	.loc 1 1014 55 discriminator 1
	sext.w	a5,a5
	mv	a3,a5
	lla	a2,.LC24
	li	a1,-1
	li	a0,-1
	call	ShellPrintEx@plt
	.loc 1 1015 12
	lla	a3,.LC155
	lla	a2,.LC12
	li	a1,-1
	li	a0,-1
	call	ShellPrintEx@plt
	.loc 1 1015 88 discriminator 1
	ld	a5,-616(s0)
	lbu	a4,0(a5)
	lbu	a3,1(a5)
	slli	a3,a3,8
	or	a4,a3,a4
	lbu	a3,2(a5)
	slli	a3,a3,16
	or	a4,a3,a4
	lbu	a3,3(a5)
	slli	a3,a3,24
	or	a4,a3,a4
	lbu	a3,4(a5)
	slli	a3,a3,32
	or	a4,a3,a4
	lbu	a3,5(a5)
	slli	a3,a3,40
	or	a4,a3,a4
	lbu	a3,6(a5)
	slli	a3,a3,48
	or	a4,a3,a4
	lbu	a5,7(a5)
	slli	a5,a5,56
	or	a5,a5,a4
	.loc 1 1015 96 discriminator 1
	lbu	a4,11(a5)
	lbu	a5,12(a5)
	slli	a5,a5,8
	or	a5,a5,a4
	slli	a5,a5,48
	srli	a5,a5,48
	.loc 1 1015 49 discriminator 1
	sext.w	a5,a5
	mv	a3,a5
	lla	a2,.LC24
	li	a1,-1
	li	a0,-1
	call	ShellPrintEx@plt
	.loc 1 1016 7
	j	.L85
.L50:
	.loc 1 1023 15
	ld	a5,-616(s0)
	lbu	a4,0(a5)
	lbu	a3,1(a5)
	slli	a3,a3,8
	or	a4,a3,a4
	lbu	a3,2(a5)
	slli	a3,a3,16
	or	a4,a3,a4
	lbu	a3,3(a5)
	slli	a3,a3,24
	or	a4,a3,a4
	lbu	a3,4(a5)
	slli	a3,a3,32
	or	a4,a3,a4
	lbu	a3,5(a5)
	slli	a3,a3,40
	or	a4,a3,a4
	lbu	a3,6(a5)
	slli	a3,a3,48
	or	a4,a3,a4
	lbu	a5,7(a5)
	slli	a5,a5,56
	or	a5,a5,a4
	.loc 1 1022 7
	lbu	a5,4(a5)
	lbu	a4,-617(s0)
	mv	a1,a4
	mv	a0,a5
	call	DisplayHardwareSecuritySettings
	.loc 1 1026 7
	j	.L85
.L49:
	.loc 1 1032 12
	lla	a3,.LC156
	lla	a2,.LC12
	li	a1,-1
	li	a0,-1
	call	ShellPrintEx@plt
	.loc 1 1032 106 discriminator 1
	ld	a5,-616(s0)
	lbu	a4,0(a5)
	lbu	a3,1(a5)
	slli	a3,a3,8
	or	a4,a3,a4
	lbu	a3,2(a5)
	slli	a3,a3,16
	or	a4,a3,a4
	lbu	a3,3(a5)
	slli	a3,a3,24
	or	a4,a3,a4
	lbu	a3,4(a5)
	slli	a3,a3,32
	or	a4,a3,a4
	lbu	a3,5(a5)
	slli	a3,a3,40
	or	a4,a3,a4
	lbu	a3,6(a5)
	slli	a3,a3,48
	or	a4,a3,a4
	lbu	a5,7(a5)
	slli	a5,a5,56
	or	a5,a5,a4
	.loc 1 1032 114 discriminator 1
	lbu	a5,4(a5)
	.loc 1 1032 67 discriminator 1
	sext.w	a5,a5
	mv	a3,a5
	lla	a2,.LC24
	li	a1,-1
	li	a0,-1
	call	ShellPrintEx@plt
	.loc 1 1033 12
	lla	a3,.LC157
	lla	a2,.LC12
	li	a1,-1
	li	a0,-1
	call	ShellPrintEx@plt
	.loc 1 1033 111 discriminator 1
	ld	a5,-616(s0)
	lbu	a4,0(a5)
	lbu	a3,1(a5)
	slli	a3,a3,8
	or	a4,a3,a4
	lbu	a3,2(a5)
	slli	a3,a3,16
	or	a4,a3,a4
	lbu	a3,3(a5)
	slli	a3,a3,24
	or	a4,a3,a4
	lbu	a3,4(a5)
	slli	a3,a3,32
	or	a4,a3,a4
	lbu	a3,5(a5)
	slli	a3,a3,40
	or	a4,a3,a4
	lbu	a3,6(a5)
	slli	a3,a3,48
	or	a4,a3,a4
	lbu	a5,7(a5)
	slli	a5,a5,56
	or	a5,a5,a4
	.loc 1 1033 119 discriminator 1
	lbu	a5,5(a5)
	.loc 1 1033 72 discriminator 1
	sext.w	a5,a5
	mv	a3,a5
	lla	a2,.LC24
	li	a1,-1
	li	a0,-1
	call	ShellPrintEx@plt
	.loc 1 1034 12
	lla	a3,.LC158
	lla	a2,.LC12
	li	a1,-1
	li	a0,-1
	call	ShellPrintEx@plt
	.loc 1 1034 105 discriminator 1
	ld	a5,-616(s0)
	lbu	a4,0(a5)
	lbu	a3,1(a5)
	slli	a3,a3,8
	or	a4,a3,a4
	lbu	a3,2(a5)
	slli	a3,a3,16
	or	a4,a3,a4
	lbu	a3,3(a5)
	slli	a3,a3,24
	or	a4,a3,a4
	lbu	a3,4(a5)
	slli	a3,a3,32
	or	a4,a3,a4
	lbu	a3,5(a5)
	slli	a3,a3,40
	or	a4,a3,a4
	lbu	a3,6(a5)
	slli	a3,a3,48
	or	a4,a3,a4
	lbu	a5,7(a5)
	slli	a5,a5,56
	or	a5,a5,a4
	.loc 1 1034 113 discriminator 1
	lbu	a5,6(a5)
	.loc 1 1034 66 discriminator 1
	sext.w	a5,a5
	mv	a3,a5
	lla	a2,.LC24
	li	a1,-1
	li	a0,-1
	call	ShellPrintEx@plt
	.loc 1 1035 12
	lla	a3,.LC159
	lla	a2,.LC12
	li	a1,-1
	li	a0,-1
	call	ShellPrintEx@plt
	.loc 1 1035 107 discriminator 1
	ld	a5,-616(s0)
	lbu	a4,0(a5)
	lbu	a3,1(a5)
	slli	a3,a3,8
	or	a4,a3,a4
	lbu	a3,2(a5)
	slli	a3,a3,16
	or	a4,a3,a4
	lbu	a3,3(a5)
	slli	a3,a3,24
	or	a4,a3,a4
	lbu	a3,4(a5)
	slli	a3,a3,32
	or	a4,a3,a4
	lbu	a3,5(a5)
	slli	a3,a3,40
	or	a4,a3,a4
	lbu	a3,6(a5)
	slli	a3,a3,48
	or	a4,a3,a4
	lbu	a5,7(a5)
	slli	a5,a5,56
	or	a5,a5,a4
	.loc 1 1035 115 discriminator 1
	lbu	a5,7(a5)
	.loc 1 1035 68 discriminator 1
	sext.w	a5,a5
	mv	a3,a5
	lla	a2,.LC24
	li	a1,-1
	li	a0,-1
	call	ShellPrintEx@plt
	.loc 1 1036 12
	lla	a3,.LC160
	lla	a2,.LC12
	li	a1,-1
	li	a0,-1
	call	ShellPrintEx@plt
	.loc 1 1036 107 discriminator 1
	ld	a5,-616(s0)
	lbu	a4,0(a5)
	lbu	a3,1(a5)
	slli	a3,a3,8
	or	a4,a3,a4
	lbu	a3,2(a5)
	slli	a3,a3,16
	or	a4,a3,a4
	lbu	a3,3(a5)
	slli	a3,a3,24
	or	a4,a3,a4
	lbu	a3,4(a5)
	slli	a3,a3,32
	or	a4,a3,a4
	lbu	a3,5(a5)
	slli	a3,a3,40
	or	a4,a3,a4
	lbu	a3,6(a5)
	slli	a3,a3,48
	or	a4,a3,a4
	lbu	a5,7(a5)
	slli	a5,a5,56
	or	a5,a5,a4
	.loc 1 1036 115 discriminator 1
	lbu	a5,8(a5)
	.loc 1 1036 68 discriminator 1
	sext.w	a5,a5
	mv	a3,a5
	lla	a2,.LC24
	li	a1,-1
	li	a0,-1
	call	ShellPrintEx@plt
	.loc 1 1037 7
	j	.L85
.L48:
.LBB39:
	.loc 1 1043 79
	ld	a5,-616(s0)
	lbu	a4,0(a5)
	lbu	a3,1(a5)
	slli	a3,a3,8
	or	a4,a3,a4
	lbu	a3,2(a5)
	slli	a3,a3,16
	or	a4,a3,a4
	lbu	a3,3(a5)
	slli	a3,a3,24
	or	a4,a3,a4
	lbu	a3,4(a5)
	slli	a3,a3,32
	or	a4,a3,a4
	lbu	a3,5(a5)
	slli	a3,a3,40
	or	a4,a3,a4
	lbu	a3,6(a5)
	slli	a3,a3,48
	or	a4,a3,a4
	lbu	a5,7(a5)
	slli	a5,a5,56
	or	a5,a5,a4
	.loc 1 1043 87
	lbu	a5,4(a5)
	.loc 1 1043 42
	mv	a1,a5
	ld	a0,-616(s0)
	call	LibGetSmbiosString@plt
	sd	a0,-280(s0)
	.loc 1 1043 104 discriminator 1
	lla	a3,.LC161
	lla	a2,.LC12
	li	a1,-1
	li	a0,-1
	call	ShellPrintEx@plt
	.loc 1 1043 145 discriminator 2
	ld	a5,-280(s0)
	beq	a5,zero,.L226
	.loc 1 1043 145 is_stmt 0 discriminator 3
	ld	a5,-280(s0)
	j	.L227
.L226:
	.loc 1 1043 145 discriminator 4
	lla	a5,.LC13
.L227:
	.loc 1 1043 145 discriminator 6
	mv	a3,a5
	lla	a2,.LC14
	li	a1,-1
	li	a0,-1
	call	ShellPrintEx@plt
.LBE39:
	.loc 1 1044 44 is_stmt 1
	ld	a5,-616(s0)
	lbu	a4,0(a5)
	lbu	a3,1(a5)
	slli	a3,a3,8
	or	a4,a3,a4
	lbu	a3,2(a5)
	slli	a3,a3,16
	or	a4,a3,a4
	lbu	a3,3(a5)
	slli	a3,a3,24
	or	a4,a3,a4
	lbu	a3,4(a5)
	slli	a3,a3,32
	or	a4,a3,a4
	lbu	a3,5(a5)
	slli	a3,a3,40
	or	a4,a3,a4
	lbu	a3,6(a5)
	slli	a3,a3,48
	or	a4,a3,a4
	lbu	a5,7(a5)
	slli	a5,a5,56
	or	a5,a5,a4
	.loc 1 1044 36
	addi	a5,a5,5
	.loc 1 1044 7
	lbu	a5,0(a5)
	lbu	a4,-617(s0)
	mv	a1,a4
	mv	a0,a5
	call	DisplayVPLocation@plt
	.loc 1 1045 42
	ld	a5,-616(s0)
	lbu	a4,0(a5)
	lbu	a3,1(a5)
	slli	a3,a3,8
	or	a4,a3,a4
	lbu	a3,2(a5)
	slli	a3,a3,16
	or	a4,a3,a4
	lbu	a3,3(a5)
	slli	a3,a3,24
	or	a4,a3,a4
	lbu	a3,4(a5)
	slli	a3,a3,32
	or	a4,a3,a4
	lbu	a3,5(a5)
	slli	a3,a3,40
	or	a4,a3,a4
	lbu	a3,6(a5)
	slli	a3,a3,48
	or	a4,a3,a4
	lbu	a5,7(a5)
	slli	a5,a5,56
	or	a5,a5,a4
	.loc 1 1045 34
	addi	a5,a5,5
	.loc 1 1045 7
	lbu	a5,0(a5)
	lbu	a4,-617(s0)
	mv	a1,a4
	mv	a0,a5
	call	DisplayVPStatus@plt
	.loc 1 1046 12
	lla	a3,.LC162
	lla	a2,.LC12
	li	a1,-1
	li	a0,-1
	call	ShellPrintEx@plt
	.loc 1 1046 93 discriminator 1
	ld	a5,-616(s0)
	lbu	a4,0(a5)
	lbu	a3,1(a5)
	slli	a3,a3,8
	or	a4,a3,a4
	lbu	a3,2(a5)
	slli	a3,a3,16
	or	a4,a3,a4
	lbu	a3,3(a5)
	slli	a3,a3,24
	or	a4,a3,a4
	lbu	a3,4(a5)
	slli	a3,a3,32
	or	a4,a3,a4
	lbu	a3,5(a5)
	slli	a3,a3,40
	or	a4,a3,a4
	lbu	a3,6(a5)
	slli	a3,a3,48
	or	a4,a3,a4
	lbu	a5,7(a5)
	slli	a5,a5,56
	or	a5,a5,a4
	.loc 1 1046 101 discriminator 1
	lbu	a4,6(a5)
	lbu	a5,7(a5)
	slli	a5,a5,8
	or	a5,a5,a4
	slli	a5,a5,48
	srli	a5,a5,48
	.loc 1 1046 54 discriminator 1
	sext.w	a5,a5
	mv	a3,a5
	lla	a2,.LC24
	li	a1,-1
	li	a0,-1
	call	ShellPrintEx@plt
	.loc 1 1047 12
	lla	a3,.LC163
	lla	a2,.LC12
	li	a1,-1
	li	a0,-1
	call	ShellPrintEx@plt
	.loc 1 1047 93 discriminator 1
	ld	a5,-616(s0)
	lbu	a4,0(a5)
	lbu	a3,1(a5)
	slli	a3,a3,8
	or	a4,a3,a4
	lbu	a3,2(a5)
	slli	a3,a3,16
	or	a4,a3,a4
	lbu	a3,3(a5)
	slli	a3,a3,24
	or	a4,a3,a4
	lbu	a3,4(a5)
	slli	a3,a3,32
	or	a4,a3,a4
	lbu	a3,5(a5)
	slli	a3,a3,40
	or	a4,a3,a4
	lbu	a3,6(a5)
	slli	a3,a3,48
	or	a4,a3,a4
	lbu	a5,7(a5)
	slli	a5,a5,56
	or	a5,a5,a4
	.loc 1 1047 101 discriminator 1
	lbu	a4,8(a5)
	lbu	a5,9(a5)
	slli	a5,a5,8
	or	a5,a5,a4
	slli	a5,a5,48
	srli	a5,a5,48
	.loc 1 1047 54 discriminator 1
	sext.w	a5,a5
	mv	a3,a5
	lla	a2,.LC24
	li	a1,-1
	li	a0,-1
	call	ShellPrintEx@plt
	.loc 1 1048 12
	lla	a3,.LC164
	lla	a2,.LC12
	li	a1,-1
	li	a0,-1
	call	ShellPrintEx@plt
	.loc 1 1048 91 discriminator 1
	ld	a5,-616(s0)
	lbu	a4,0(a5)
	lbu	a3,1(a5)
	slli	a3,a3,8
	or	a4,a3,a4
	lbu	a3,2(a5)
	slli	a3,a3,16
	or	a4,a3,a4
	lbu	a3,3(a5)
	slli	a3,a3,24
	or	a4,a3,a4
	lbu	a3,4(a5)
	slli	a3,a3,32
	or	a4,a3,a4
	lbu	a3,5(a5)
	slli	a3,a3,40
	or	a4,a3,a4
	lbu	a3,6(a5)
	slli	a3,a3,48
	or	a4,a3,a4
	lbu	a5,7(a5)
	slli	a5,a5,56
	or	a5,a5,a4
	.loc 1 1048 99 discriminator 1
	lbu	a4,10(a5)
	lbu	a5,11(a5)
	slli	a5,a5,8
	or	a5,a5,a4
	slli	a5,a5,48
	srli	a5,a5,48
	.loc 1 1048 52 discriminator 1
	sext.w	a5,a5
	mv	a3,a5
	lla	a2,.LC24
	li	a1,-1
	li	a0,-1
	call	ShellPrintEx@plt
	.loc 1 1049 12
	lla	a3,.LC165
	lla	a2,.LC12
	li	a1,-1
	li	a0,-1
	call	ShellPrintEx@plt
	.loc 1 1049 90 discriminator 1
	ld	a5,-616(s0)
	lbu	a4,0(a5)
	lbu	a3,1(a5)
	slli	a3,a3,8
	or	a4,a3,a4
	lbu	a3,2(a5)
	slli	a3,a3,16
	or	a4,a3,a4
	lbu	a3,3(a5)
	slli	a3,a3,24
	or	a4,a3,a4
	lbu	a3,4(a5)
	slli	a3,a3,32
	or	a4,a3,a4
	lbu	a3,5(a5)
	slli	a3,a3,40
	or	a4,a3,a4
	lbu	a3,6(a5)
	slli	a3,a3,48
	or	a4,a3,a4
	lbu	a5,7(a5)
	slli	a5,a5,56
	or	a5,a5,a4
	.loc 1 1049 98 discriminator 1
	lbu	a4,12(a5)
	lbu	a5,13(a5)
	slli	a5,a5,8
	or	a5,a5,a4
	slli	a5,a5,48
	srli	a5,a5,48
	.loc 1 1049 51 discriminator 1
	sext.w	a5,a5
	mv	a3,a5
	lla	a2,.LC24
	li	a1,-1
	li	a0,-1
	call	ShellPrintEx@plt
	.loc 1 1050 12
	lla	a3,.LC166
	lla	a2,.LC12
	li	a1,-1
	li	a0,-1
	call	ShellPrintEx@plt
	.loc 1 1050 89 discriminator 1
	ld	a5,-616(s0)
	lbu	a4,0(a5)
	lbu	a3,1(a5)
	slli	a3,a3,8
	or	a4,a3,a4
	lbu	a3,2(a5)
	slli	a3,a3,16
	or	a4,a3,a4
	lbu	a3,3(a5)
	slli	a3,a3,24
	or	a4,a3,a4
	lbu	a3,4(a5)
	slli	a3,a3,32
	or	a4,a3,a4
	lbu	a3,5(a5)
	slli	a3,a3,40
	or	a4,a3,a4
	lbu	a3,6(a5)
	slli	a3,a3,48
	or	a4,a3,a4
	lbu	a5,7(a5)
	slli	a5,a5,56
	or	a5,a5,a4
	.loc 1 1050 97 discriminator 1
	lbu	a4,14(a5)
	lbu	a5,15(a5)
	slli	a5,a5,8
	or	a5,a5,a4
	slli	a5,a5,48
	srli	a5,a5,48
	.loc 1 1050 50 discriminator 1
	sext.w	a5,a5
	mv	a3,a5
	lla	a2,.LC24
	li	a1,-1
	li	a0,-1
	call	ShellPrintEx@plt
	.loc 1 1051 12
	lla	a3,.LC167
	lla	a2,.LC12
	li	a1,-1
	li	a0,-1
	call	ShellPrintEx@plt
	.loc 1 1051 91 discriminator 1
	ld	a5,-616(s0)
	lbu	a4,0(a5)
	lbu	a3,1(a5)
	slli	a3,a3,8
	or	a4,a3,a4
	lbu	a3,2(a5)
	slli	a3,a3,16
	or	a4,a3,a4
	lbu	a3,3(a5)
	slli	a3,a3,24
	or	a4,a3,a4
	lbu	a3,4(a5)
	slli	a3,a3,32
	or	a4,a3,a4
	lbu	a3,5(a5)
	slli	a3,a3,40
	or	a4,a3,a4
	lbu	a3,6(a5)
	slli	a3,a3,48
	or	a4,a3,a4
	lbu	a5,7(a5)
	slli	a5,a5,56
	or	a5,a5,a4
	.loc 1 1051 52 discriminator 1
	lbu	a4,16(a5)
	lbu	a3,17(a5)
	slli	a3,a3,8
	or	a4,a3,a4
	lbu	a3,18(a5)
	slli	a3,a3,16
	or	a4,a3,a4
	lbu	a5,19(a5)
	slli	a5,a5,24
	or	a5,a5,a4
	sext.w	a5,a5
	mv	a3,a5
	lla	a2,.LC24
	li	a1,-1
	li	a0,-1
	call	ShellPrintEx@plt
	.loc 1 1052 12
	lla	a3,.LC168
	lla	a2,.LC12
	li	a1,-1
	li	a0,-1
	call	ShellPrintEx@plt
	.loc 1 1052 93 discriminator 1
	ld	a5,-616(s0)
	lbu	a4,0(a5)
	lbu	a3,1(a5)
	slli	a3,a3,8
	or	a4,a3,a4
	lbu	a3,2(a5)
	slli	a3,a3,16
	or	a4,a3,a4
	lbu	a3,3(a5)
	slli	a3,a3,24
	or	a4,a3,a4
	lbu	a3,4(a5)
	slli	a3,a3,32
	or	a4,a3,a4
	lbu	a3,5(a5)
	slli	a3,a3,40
	or	a4,a3,a4
	lbu	a3,6(a5)
	slli	a3,a3,48
	or	a4,a3,a4
	lbu	a5,7(a5)
	slli	a5,a5,56
	or	a5,a5,a4
	.loc 1 1052 101 discriminator 1
	lbu	a4,20(a5)
	lbu	a5,21(a5)
	slli	a5,a5,8
	or	a5,a5,a4
	slli	a5,a5,48
	srli	a5,a5,48
	.loc 1 1052 54 discriminator 1
	sext.w	a5,a5
	mv	a3,a5
	lla	a2,.LC24
	li	a1,-1
	li	a0,-1
	call	ShellPrintEx@plt
	.loc 1 1053 7
	j	.L85
.L47:
	.loc 1 1059 12
	lla	a3,.LC169
	lla	a2,.LC12
	li	a1,-1
	li	a0,-1
	call	ShellPrintEx@plt
	.loc 1 1059 103 discriminator 1
	ld	a5,-616(s0)
	lbu	a4,0(a5)
	lbu	a3,1(a5)
	slli	a3,a3,8
	or	a4,a3,a4
	lbu	a3,2(a5)
	slli	a3,a3,16
	or	a4,a3,a4
	lbu	a3,3(a5)
	slli	a3,a3,24
	or	a4,a3,a4
	lbu	a3,4(a5)
	slli	a3,a3,32
	or	a4,a3,a4
	lbu	a3,5(a5)
	slli	a3,a3,40
	or	a4,a3,a4
	lbu	a3,6(a5)
	slli	a3,a3,48
	or	a4,a3,a4
	lbu	a5,7(a5)
	slli	a5,a5,56
	or	a5,a5,a4
	.loc 1 1059 111 discriminator 1
	lbu	a4,4(a5)
	lbu	a5,5(a5)
	slli	a5,a5,8
	or	a5,a5,a4
	slli	a5,a5,48
	srli	a5,a5,48
	.loc 1 1059 64 discriminator 1
	sext.w	a5,a5
	mv	a3,a5
	lla	a2,.LC24
	li	a1,-1
	li	a0,-1
	call	ShellPrintEx@plt
	.loc 1 1060 53
	ld	a5,-616(s0)
	lbu	a4,0(a5)
	lbu	a3,1(a5)
	slli	a3,a3,8
	or	a4,a3,a4
	lbu	a3,2(a5)
	slli	a3,a3,16
	or	a4,a3,a4
	lbu	a3,3(a5)
	slli	a3,a3,24
	or	a4,a3,a4
	lbu	a3,4(a5)
	slli	a3,a3,32
	or	a4,a3,a4
	lbu	a3,5(a5)
	slli	a3,a3,40
	or	a4,a3,a4
	lbu	a3,6(a5)
	slli	a3,a3,48
	or	a4,a3,a4
	lbu	a5,7(a5)
	slli	a5,a5,56
	or	a5,a5,a4
	.loc 1 1060 45
	addi	a5,a5,6
	.loc 1 1060 7
	lbu	a5,0(a5)
	lbu	a4,-617(s0)
	mv	a1,a4
	mv	a0,a5
	call	DisplayCoolingDeviceStatus@plt
	.loc 1 1061 51
	ld	a5,-616(s0)
	lbu	a4,0(a5)
	lbu	a3,1(a5)
	slli	a3,a3,8
	or	a4,a3,a4
	lbu	a3,2(a5)
	slli	a3,a3,16
	or	a4,a3,a4
	lbu	a3,3(a5)
	slli	a3,a3,24
	or	a4,a3,a4
	lbu	a3,4(a5)
	slli	a3,a3,32
	or	a4,a3,a4
	lbu	a3,5(a5)
	slli	a3,a3,40
	or	a4,a3,a4
	lbu	a3,6(a5)
	slli	a3,a3,48
	or	a4,a3,a4
	lbu	a5,7(a5)
	slli	a5,a5,56
	or	a5,a5,a4
	.loc 1 1061 43
	addi	a5,a5,6
	.loc 1 1061 7
	lbu	a5,0(a5)
	lbu	a4,-617(s0)
	mv	a1,a4
	mv	a0,a5
	call	DisplayCoolingDeviceType@plt
	.loc 1 1062 12
	lla	a3,.LC170
	lla	a2,.LC12
	li	a1,-1
	li	a0,-1
	call	ShellPrintEx@plt
	.loc 1 1062 97 discriminator 1
	ld	a5,-616(s0)
	lbu	a4,0(a5)
	lbu	a3,1(a5)
	slli	a3,a3,8
	or	a4,a3,a4
	lbu	a3,2(a5)
	slli	a3,a3,16
	or	a4,a3,a4
	lbu	a3,3(a5)
	slli	a3,a3,24
	or	a4,a3,a4
	lbu	a3,4(a5)
	slli	a3,a3,32
	or	a4,a3,a4
	lbu	a3,5(a5)
	slli	a3,a3,40
	or	a4,a3,a4
	lbu	a3,6(a5)
	slli	a3,a3,48
	or	a4,a3,a4
	lbu	a5,7(a5)
	slli	a5,a5,56
	or	a5,a5,a4
	.loc 1 1062 105 discriminator 1
	lbu	a5,7(a5)
	.loc 1 1062 58 discriminator 1
	sext.w	a5,a5
	mv	a3,a5
	lla	a2,.LC24
	li	a1,-1
	li	a0,-1
	call	ShellPrintEx@plt
	.loc 1 1063 12
	lla	a3,.LC167
	lla	a2,.LC12
	li	a1,-1
	li	a0,-1
	call	ShellPrintEx@plt
	.loc 1 1063 91 discriminator 1
	ld	a5,-616(s0)
	lbu	a4,0(a5)
	lbu	a3,1(a5)
	slli	a3,a3,8
	or	a4,a3,a4
	lbu	a3,2(a5)
	slli	a3,a3,16
	or	a4,a3,a4
	lbu	a3,3(a5)
	slli	a3,a3,24
	or	a4,a3,a4
	lbu	a3,4(a5)
	slli	a3,a3,32
	or	a4,a3,a4
	lbu	a3,5(a5)
	slli	a3,a3,40
	or	a4,a3,a4
	lbu	a3,6(a5)
	slli	a3,a3,48
	or	a4,a3,a4
	lbu	a5,7(a5)
	slli	a5,a5,56
