	.file	"SmbiosView.c"
	.option pic
	.option norelax
	.attribute arch, "rv64i2p1_m2p0_a2p1_f2p2_d2p2_c2p0_zicsr2p0_zifencei2p0_zmmul1p0_zaamo1p0_zalrsc1p0_zca1p0_zcd1p0"
	.attribute unaligned_access, 0
	.attribute stack_align, 16
	.text
.Ltext0:
	.cfi_sections	.debug_frame
	.file 0 "/home/kapoagaeming/Downloads/spacemit-image-builder/components/Build/Milk-V-Jupiter/RELEASE_GCC5/RISCV64/ShellPkg/Library/UefiShellDebug1CommandsLib/UefiShellDebug1CommandsLib" "/home/kapoagaeming/Downloads/spacemit-image-builder/components/edk2/ShellPkg/Library/UefiShellDebug1CommandsLib/SmbiosView/SmbiosView.c"
	.globl	gShowType
	.section	.data.gShowType,"aw"
	.type	gShowType, @object
	.size	gShowType, 1
gShowType:
	.byte	3
	.section	.bss.mStatisticsTable,"aw",@nobits
	.align	3
	.type	mStatisticsTable, @object
	.size	mStatisticsTable, 8
mStatisticsTable:
	.zero	8
	.section	.bss.mSmbios64BitStatisticsTable,"aw",@nobits
	.align	3
	.type	mSmbios64BitStatisticsTable, @object
	.size	mSmbios64BitStatisticsTable, 8
mSmbios64BitStatisticsTable:
	.zero	8
	.globl	SmbiosMajorVersion
	.section	.bss.SmbiosMajorVersion,"aw",@nobits
	.type	SmbiosMajorVersion, @object
	.size	SmbiosMajorVersion, 1
SmbiosMajorVersion:
	.zero	1
	.globl	SmbiosMinorVersion
	.section	.bss.SmbiosMinorVersion,"aw",@nobits
	.type	SmbiosMinorVersion, @object
	.size	SmbiosMinorVersion, 1
SmbiosMinorVersion:
	.zero	1
	.globl	mNumberOfSmbios64BitStructures
	.section	.bss.mNumberOfSmbios64BitStructures,"aw",@nobits
	.align	3
	.type	mNumberOfSmbios64BitStructures, @object
	.size	mNumberOfSmbios64BitStructures, 8
mNumberOfSmbios64BitStructures:
	.zero	8
	.globl	mSmbios64BitTableLength
	.section	.bss.mSmbios64BitTableLength,"aw",@nobits
	.align	3
	.type	mSmbios64BitTableLength, @object
	.size	mSmbios64BitTableLength, 8
mSmbios64BitTableLength:
	.zero	8
	.section	.rodata
	.align	3
.LC0:
	.string	"-"
	.string	"t"
	.zero	2
	.align	3
.LC1:
	.string	"-"
	.string	"h"
	.zero	2
	.align	3
.LC2:
	.string	"-"
	.string	"s"
	.zero	2
	.align	3
.LC3:
	.string	"-"
	.string	"a"
	.zero	2
	.section	.data.rel.ro.local.ParamList,"aw"
	.align	3
	.type	ParamList, @object
	.size	ParamList, 80
ParamList:
	.dword	.LC0
	.word	1
	.zero	4
	.dword	.LC1
	.word	1
	.zero	4
	.dword	.LC2
	.word	0
	.zero	4
	.dword	.LC3
	.word	0
	.zero	4
	.dword	0
	.word	7
	.zero	4
	.section	.rodata
	.align	3
.LC4:
	.string	"s"
	.string	"m"
	.string	"b"
	.string	"i"
	.string	"o"
	.string	"s"
	.string	"v"
	.string	"i"
	.string	"e"
	.string	"w"
	.zero	2
	.section	.text.ShellCommandRunSmbiosView,"ax",@progbits
	.align	1
	.globl	ShellCommandRunSmbiosView
	.type	ShellCommandRunSmbiosView, @function
ShellCommandRunSmbiosView:
.LFB0:
	.file 1 "/home/kapoagaeming/Downloads/spacemit-image-builder/components/edk2/ShellPkg/Library/UefiShellDebug1CommandsLib/SmbiosView/SmbiosView.c"
	.loc 1 47 1
	.cfi_startproc
	addi	sp,sp,-96
	.cfi_def_cfa_offset 96
	sd	ra,88(sp)
	sd	s0,80(sp)
	.cfi_offset 1, -8
	.cfi_offset 8, -16
	addi	s0,sp,96
	.cfi_def_cfa 8, 0
	sd	a0,-88(s0)
	sd	a1,-96(s0)
	.loc 1 59 20
	lla	a5,mStatisticsTable
	sd	zero,0(a5)
	.loc 1 60 31
	lla	a5,mSmbios64BitStatisticsTable
	sd	zero,0(a5)
	.loc 1 61 11
	sd	zero,-72(s0)
	.loc 1 62 15
	sw	zero,-24(s0)
	.loc 1 64 12
	addi	a2,s0,-80
	addi	a5,s0,-72
	li	a4,0
	li	a3,1
	mv	a1,a5
	lla	a0,ParamList
	call	ShellCommandLineParseEx@plt
	sd	a0,-32(s0)
	.loc 1 65 34
	ld	a5,-32(s0)
	.loc 1 65 6
	bge	a5,zero,.L2
	.loc 1 66 8
	ld	a4,-32(s0)
	li	a5,-1
	slli	a5,a5,63
	addi	a5,a5,10
	bne	a4,a5,.L3
	.loc 1 66 86 discriminator 1
	ld	a5,-80(s0)
	.loc 1 66 69 discriminator 1
	beq	a5,zero,.L3
	.loc 1 67 7
	la	a5,gShellDebug1HiiHandle
	ld	a4,0(a5)
	ld	a5,-80(s0)
	mv	a6,a5
	lla	a5,.LC4
	li	a3,548
	li	a2,0
	li	a1,-1
	li	a0,-1
	call	ShellPrintHiiEx@plt
	.loc 1 68 7
	ld	a5,-80(s0)
	mv	a0,a5
	call	FreePool@plt
	.loc 1 69 19
	li	a5,2
	sw	a5,-24(s0)
	j	.L3
.L2:
	.loc 1 74 9
	ld	a5,-72(s0)
	mv	a0,a5
	call	ShellCommandLineGetCount@plt
	mv	a4,a0
	.loc 1 74 8 discriminator 1
	li	a5,1
	bleu	a4,a5,.L4
	.loc 1 75 7
	la	a5,gShellDebug1HiiHandle
	ld	a4,0(a5)
	lla	a5,.LC4
	li	a3,553
	li	a2,0
	li	a1,-1
	li	a0,-1
	call	ShellPrintHiiEx@plt
	.loc 1 76 19
	li	a5,2
	sw	a5,-24(s0)
	j	.L3
.L4:
	.loc 1 77 16
	ld	a5,-72(s0)
	lla	a1,.LC0
	mv	a0,a5
	call	ShellCommandLineGetFlag@plt
	mv	a5,a0
	.loc 1 77 15 discriminator 1
	beq	a5,zero,.L5
	.loc 1 77 61 discriminator 2
	ld	a5,-72(s0)
	lla	a1,.LC0
	mv	a0,a5
	call	ShellCommandLineGetValue@plt
	mv	a5,a0
	.loc 1 77 57 discriminator 3
	bne	a5,zero,.L5
	.loc 1 78 7
	la	a5,gShellDebug1HiiHandle
	ld	a4,0(a5)
	lla	a6,.LC0
	lla	a5,.LC4
	li	a3,551
	li	a2,0
	li	a1,-1
	li	a0,-1
	call	ShellPrintHiiEx@plt
	.loc 1 79 19
	li	a5,2
	sw	a5,-24(s0)
	j	.L3
.L5:
	.loc 1 80 16
	ld	a5,-72(s0)
	lla	a1,.LC1
	mv	a0,a5
	call	ShellCommandLineGetFlag@plt
	mv	a5,a0
	.loc 1 80 15 discriminator 1
	beq	a5,zero,.L6
	.loc 1 80 61 discriminator 2
	ld	a5,-72(s0)
	lla	a1,.LC1
	mv	a0,a5
	call	ShellCommandLineGetValue@plt
	mv	a5,a0
	.loc 1 80 57 discriminator 3
	bne	a5,zero,.L6
	.loc 1 81 7
	la	a5,gShellDebug1HiiHandle
	ld	a4,0(a5)
	lla	a6,.LC1
	lla	a5,.LC4
	li	a3,551
	li	a2,0
	li	a1,-1
	li	a0,-1
	call	ShellPrintHiiEx@plt
	.loc 1 82 19
	li	a5,2
	sw	a5,-24(s0)
	j	.L3
.L6:
	.loc 1 84 17
	ld	a5,-72(s0)
	lla	a1,.LC0
	mv	a0,a5
	call	ShellCommandLineGetFlag@plt
	mv	a5,a0
	.loc 1 83 15
	beq	a5,zero,.L7
	.loc 1 84 61
	ld	a5,-72(s0)
	lla	a1,.LC1
	mv	a0,a5
	call	ShellCommandLineGetFlag@plt
	mv	a5,a0
	.loc 1 84 58 discriminator 2
	bne	a5,zero,.L8
.L7:
	.loc 1 85 17
	ld	a5,-72(s0)
	lla	a1,.LC0
	mv	a0,a5
	call	ShellCommandLineGetFlag@plt
	mv	a5,a0
	.loc 1 84 103 discriminator 3
	beq	a5,zero,.L9
	.loc 1 85 61
	ld	a5,-72(s0)
	lla	a1,.LC2
	mv	a0,a5
	call	ShellCommandLineGetFlag@plt
	mv	a5,a0
	.loc 1 85 58 discriminator 2
	bne	a5,zero,.L8
.L9:
	.loc 1 86 17
	ld	a5,-72(s0)
	lla	a1,.LC0
	mv	a0,a5
	call	ShellCommandLineGetFlag@plt
	mv	a5,a0
	.loc 1 85 103 discriminator 3
	beq	a5,zero,.L10
	.loc 1 86 61
	ld	a5,-72(s0)
	lla	a1,.LC3
	mv	a0,a5
	call	ShellCommandLineGetFlag@plt
	mv	a5,a0
	.loc 1 86 58 discriminator 2
	bne	a5,zero,.L8
.L10:
	.loc 1 87 17
	ld	a5,-72(s0)
	lla	a1,.LC1
	mv	a0,a5
	call	ShellCommandLineGetFlag@plt
	mv	a5,a0
	.loc 1 86 103 discriminator 3
	beq	a5,zero,.L11
	.loc 1 87 61
	ld	a5,-72(s0)
	lla	a1,.LC2
	mv	a0,a5
	call	ShellCommandLineGetFlag@plt
	mv	a5,a0
	.loc 1 87 58 discriminator 2
	bne	a5,zero,.L8
.L11:
	.loc 1 88 17
	ld	a5,-72(s0)
	lla	a1,.LC1
	mv	a0,a5
	call	ShellCommandLineGetFlag@plt
	mv	a5,a0
	.loc 1 87 103 discriminator 3
	beq	a5,zero,.L12
	.loc 1 88 61
	ld	a5,-72(s0)
	lla	a1,.LC3
	mv	a0,a5
	call	ShellCommandLineGetFlag@plt
	mv	a5,a0
	.loc 1 88 58 discriminator 2
	bne	a5,zero,.L8
.L12:
	.loc 1 89 17
	ld	a5,-72(s0)
	lla	a1,.LC2
	mv	a0,a5
	call	ShellCommandLineGetFlag@plt
	mv	a5,a0
	.loc 1 88 103 discriminator 3
	beq	a5,zero,.L13
	.loc 1 89 61
	ld	a5,-72(s0)
	lla	a1,.LC3
	mv	a0,a5
	call	ShellCommandLineGetFlag@plt
	mv	a5,a0
	.loc 1 89 58 discriminator 2
	beq	a5,zero,.L13
.L8:
	.loc 1 92 7
	la	a5,gShellDebug1HiiHandle
	ld	a4,0(a5)
	lla	a5,.LC4
	li	a3,553
	li	a2,0
	li	a1,-1
	li	a0,-1
	call	ShellPrintHiiEx@plt
	.loc 1 93 19
	li	a5,2
	sw	a5,-24(s0)
	j	.L3
.L13:
	.loc 1 98 17
	call	LibSmbiosInit@plt
	sd	a0,-40(s0)
	.loc 1 99 17
	call	LibSmbios64BitInit@plt
	sd	a0,-48(s0)
	.loc 1 100 39
	ld	a5,-40(s0)
	.loc 1 100 10
	bge	a5,zero,.L14
	.loc 1 100 96 discriminator 1
	ld	a5,-48(s0)
	.loc 1 100 65 discriminator 1
	bge	a5,zero,.L14
	.loc 1 101 9
	la	a5,gShellDebug1HiiHandle
	ld	a5,0(a5)
	mv	a4,a5
	li	a3,122
	li	a2,0
	li	a1,-1
	li	a0,-1
	call	ShellPrintHiiEx@plt
	.loc 1 102 21
	li	a5,14
	sw	a5,-24(s0)
	.loc 1 103 9
	j	.L3
.L14:
	.loc 1 106 18
	li	a5,-2
	sb	a5,-17(s0)
	.loc 1 107 18
	li	a5,1
	sb	a5,-18(s0)
	.loc 1 109 14
	ld	a5,-72(s0)
	lla	a1,.LC0
	mv	a0,a5
	call	ShellCommandLineGetValue@plt
	sd	a0,-56(s0)
	.loc 1 110 10
	ld	a5,-56(s0)
	beq	a5,zero,.L15
	.loc 1 111 29
	ld	a0,-56(s0)
	call	ShellStrToUintn@plt
	mv	a5,a0
	.loc 1 111 20 discriminator 1
	sb	a5,-17(s0)
.L15:
	.loc 1 114 11
	ld	a5,-72(s0)
	lla	a1,.LC3
	mv	a0,a5
	call	ShellCommandLineGetFlag@plt
	mv	a5,a0
	.loc 1 114 10 discriminator 1
	beq	a5,zero,.L16
	.loc 1 115 19
	lla	a5,gShowType
	li	a4,4
	sb	a4,0(a5)
.L16:
	.loc 1 118 11
	ld	a5,-40(s0)
	.loc 1 118 10
	blt	a5,zero,.L30
	.loc 1 122 22
	li	a5,-1
	sh	a5,-58(s0)
	.loc 1 123 9
	addi	a5,s0,-58
	li	a2,0
	li	a1,0
	mv	a0,a5
	call	LibGetSmbiosStructure@plt
	.loc 1 125 16
	ld	a5,-72(s0)
	lla	a1,.LC1
	mv	a0,a5
	call	ShellCommandLineGetValue@plt
	sd	a0,-56(s0)
	.loc 1 126 12
	ld	a5,-56(s0)
	beq	a5,zero,.L18
	.loc 1 127 22
	sb	zero,-18(s0)
	.loc 1 128 34
	ld	a0,-56(s0)
	call	ShellStrToUintn@plt
	mv	a5,a0
	.loc 1 128 26 discriminator 1
	slli	a5,a5,48
	srli	a5,a5,48
	.loc 1 128 24 discriminator 1
	sh	a5,-58(s0)
.L18:
	.loc 1 134 18
	call	InitSmbiosTableStatistics
	sd	a0,-32(s0)
	.loc 1 135 40
	ld	a5,-32(s0)
	.loc 1 135 12
	bge	a5,zero,.L19
	.loc 1 136 23
	li	a5,14
	sw	a5,-24(s0)
	.loc 1 137 11
	j	.L3
.L19:
	.loc 1 140 13
	ld	a5,-72(s0)
	lla	a1,.LC2
	mv	a0,a5
	call	ShellCommandLineGetFlag@plt
	mv	a5,a0
	.loc 1 140 12 discriminator 1
	beq	a5,zero,.L20
	.loc 1 141 20
	li	a0,3
	call	DisplayStatisticsTable
	sd	a0,-32(s0)
	.loc 1 142 42
	ld	a5,-32(s0)
	.loc 1 142 14
	bge	a5,zero,.L31
	.loc 1 143 25
	li	a5,14
	sw	a5,-24(s0)
	.loc 1 146 11
	j	.L31
.L20:
	.loc 1 152 18
	lhu	a4,-58(s0)
	lla	a5,gShowType
	lbu	a2,0(a5)
	lbu	a3,-18(s0)
	lbu	a5,-17(s0)
	mv	a1,a4
	mv	a0,a5
	call	SMBiosView
	sd	a0,-32(s0)
	.loc 1 153 40
	ld	a5,-32(s0)
	.loc 1 153 12
	bge	a5,zero,.L30
	.loc 1 154 23
	li	a5,14
	sw	a5,-24(s0)
	.loc 1 155 11
	j	.L3
.L30:
	.loc 1 159 1
	nop
	j	.L17
.L31:
	.loc 1 146 11
	nop
.L17:
	.loc 1 160 11
	ld	a5,-48(s0)
	.loc 1 160 10
	blt	a5,zero,.L32
	.loc 1 164 18
	call	InitSmbios64BitTableStatistics
	sd	a0,-32(s0)
	.loc 1 165 40
	ld	a5,-32(s0)
	.loc 1 165 12
	bge	a5,zero,.L22
	.loc 1 166 23
	li	a5,14
	sw	a5,-24(s0)
	.loc 1 167 11
	j	.L3
.L22:
	.loc 1 173 22
	li	a5,-1
	sh	a5,-58(s0)
	.loc 1 174 9
	addi	a5,s0,-58
	li	a2,0
	li	a1,0
	mv	a0,a5
	call	LibGetSmbios64BitStructure@plt
	.loc 1 176 16
	ld	a5,-72(s0)
	lla	a1,.LC1
	mv	a0,a5
	call	ShellCommandLineGetValue@plt
	sd	a0,-56(s0)
	.loc 1 177 12
	ld	a5,-56(s0)
	beq	a5,zero,.L23
	.loc 1 178 22
	sb	zero,-18(s0)
	.loc 1 179 34
	ld	a0,-56(s0)
	call	ShellStrToUintn@plt
	mv	a5,a0
	.loc 1 179 26 discriminator 1
	slli	a5,a5,48
	srli	a5,a5,48
	.loc 1 179 24 discriminator 1
	sh	a5,-58(s0)
.L23:
	.loc 1 182 13
	ld	a5,-72(s0)
	lla	a1,.LC2
	mv	a0,a5
	call	ShellCommandLineGetFlag@plt
	mv	a5,a0
	.loc 1 182 12 discriminator 1
	beq	a5,zero,.L24
	.loc 1 183 20
	li	a0,3
	call	DisplaySmbios64BitStatisticsTable
	sd	a0,-32(s0)
	.loc 1 184 42
	ld	a5,-32(s0)
	.loc 1 184 14
	bge	a5,zero,.L33
	.loc 1 185 25
	li	a5,14
	sw	a5,-24(s0)
	.loc 1 188 11
	j	.L33
.L24:
	.loc 1 194 18
	lhu	a4,-58(s0)
	lla	a5,gShowType
	lbu	a2,0(a5)
	lbu	a3,-18(s0)
	lbu	a5,-17(s0)
	mv	a1,a4
	mv	a0,a5
	call	SMBios64View
	sd	a0,-32(s0)
	.loc 1 195 40
	ld	a5,-32(s0)
	.loc 1 195 12
	bge	a5,zero,.L32
	.loc 1 196 23
	li	a5,14
	sw	a5,-24(s0)
	j	.L3
.L32:
	.loc 1 202 1
	nop
	j	.L3
.L33:
	.loc 1 188 11
	nop
.L3:
	.loc 1 206 24
	lla	a5,mStatisticsTable
	ld	a5,0(a5)
	.loc 1 206 6
	beq	a5,zero,.L26
	.loc 1 210 5
	lla	a5,mStatisticsTable
	ld	a5,0(a5)
	mv	a0,a5
	call	FreePool@plt
	.loc 1 211 22
	lla	a5,mStatisticsTable
	sd	zero,0(a5)
.L26:
	.loc 1 214 35
	lla	a5,mSmbios64BitStatisticsTable
	ld	a5,0(a5)
	.loc 1 214 6
	beq	a5,zero,.L27
	.loc 1 218 5
	lla	a5,mSmbios64BitStatisticsTable
	ld	a5,0(a5)
	mv	a0,a5
	call	FreePool@plt
	.loc 1 219 33
	lla	a5,mSmbios64BitStatisticsTable
	sd	zero,0(a5)
.L27:
	.loc 1 222 15
	ld	a5,-72(s0)
	.loc 1 222 6
	beq	a5,zero,.L28
	.loc 1 223 5
	ld	a5,-72(s0)
	mv	a0,a5
	call	ShellCommandLineFreeVarList@plt
.L28:
	.loc 1 226 3
	call	LibSmbiosCleanup@plt
	.loc 1 227 3
	call	LibSmbios64BitCleanup@plt
	.loc 1 229 10
	lw	a5,-24(s0)
	.loc 1 230 1
	mv	a0,a5
	ld	ra,88(sp)
	.cfi_restore 1
	ld	s0,80(sp)
	.cfi_restore 8
	.cfi_def_cfa 2, 96
	addi	sp,sp,96
	.cfi_def_cfa_offset 0
	jr	ra
	.cfi_endproc
.LFE0:
	.size	ShellCommandRunSmbiosView, .-ShellCommandRunSmbiosView
	.section	.rodata
	.align	3
.LC5:
	.string	"_SM_"
	.align	3
.LC6:
	.string	"="
	.string	"="
	.string	"="
	.string	"="
	.string	"="
	.string	"="
	.string	"="
	.string	"="
	.string	"="
	.string	"="
	.string	"="
	.string	"="
	.string	"="
	.string	"="
	.string	"="
	.string	"="
	.string	"="
	.string	"="
	.string	"="
	.string	"="
	.string	"="
	.string	"="
	.string	"="
	.string	"="
	.string	"="
	.string	"="
	.string	"="
	.string	"="
	.string	"="
	.string	"="
	.string	"="
	.string	"="
	.string	"="
	.string	"="
	.string	"="
	.string	"="
	.string	"="
	.string	"="
	.string	"="
	.string	"="
	.string	"="
	.string	"="
	.string	"="
	.string	"="
	.string	"="
	.string	"="
	.string	"="
	.string	"="
	.string	"="
	.string	"="
	.string	"="
	.string	"="
	.string	"="
	.string	"="
	.string	"="
	.string	"="
	.string	"="
	.string	"\n"
	.zero	2
	.align	3
.LC7:
	.string	"\n"
	.string	"\n"
	.zero	2
	.align	3
.LC8:
	.string	"\n"
	.string	"="
	.string	"="
	.string	"="
	.string	"="
	.string	"="
	.string	"="
	.string	"="
	.string	"="
	.string	"="
	.string	"="
	.string	"="
	.string	"="
	.string	"="
	.string	"="
	.string	"="
	.string	"="
	.string	"="
	.string	"="
	.string	"="
	.string	"="
	.string	"="
	.string	"="
	.string	"="
	.string	"="
	.string	"="
	.string	"="
	.string	"="
	.string	"="
	.string	"="
	.string	"="
	.string	"="
	.string	"="
	.string	"="
	.string	"="
	.string	"="
	.string	"="
	.string	"="
	.string	"="
	.string	"="
	.string	"="
	.string	"="
	.string	"="
	.string	"="
	.string	"="
	.string	"="
	.string	"="
	.string	"="
	.string	"="
	.string	"="
	.string	"="
	.string	"="
	.string	"="
	.string	"="
	.string	"="
	.string	"="
	.string	"="
	.string	"="
	.string	"\n"
	.zero	2
	.align	3
.LC9:
	.string	"\n"
	.zero	2
	.section	.text.SMBiosView,"ax",@progbits
	.align	1
	.globl	SMBiosView
	.type	SMBiosView, @function
SMBiosView:
.LFB1:
	.loc 1 251 1
	.cfi_startproc
	addi	sp,sp,-80
	.cfi_def_cfa_offset 80
	sd	ra,72(sp)
	sd	s0,64(sp)
	.cfi_offset 1, -8
	.cfi_offset 8, -16
	addi	s0,sp,80
	.cfi_def_cfa 8, 0
	mv	a5,a0
	mv	a4,a3
	sb	a5,-65(s0)
	mv	a5,a1
	sh	a5,-68(s0)
	mv	a5,a2
	sb	a5,-66(s0)
	mv	a5,a4
	sb	a5,-69(s0)
	.loc 1 260 15
	sd	zero,-64(s0)
	.loc 1 261 3
	addi	a5,s0,-64
	mv	a0,a5
	call	LibSmbiosGetEPS@plt
	.loc 1 262 19
	ld	a5,-64(s0)
	.loc 1 262 6
	bne	a5,zero,.L35
	.loc 1 263 5
	la	a5,gShellDebug1HiiHandle
	ld	a5,0(a5)
	mv	a4,a5
	li	a3,528
	li	a2,0
	li	a1,-1
	li	a0,-1
	call	ShellPrintHiiEx@plt
	.loc 1 264 12
	li	a5,-1
	slli	a5,a5,63
	addi	a5,a5,4
	j	.L51
.L35:
	.loc 1 267 30
	ld	a5,-64(s0)
	.loc 1 267 7
	li	a2,4
	lla	a1,.LC5
	mv	a0,a5
	call	CompareMem@plt
	mv	a5,a0
	.loc 1 267 6 discriminator 1
	bne	a5,zero,.L37
	.loc 1 271 5
	ld	a5,-64(s0)
	lbu	a4,-66(s0)
	mv	a1,a4
	mv	a0,a5
	call	SmbiosPrintEPSInfo@plt
	.loc 1 273 37
	ld	a5,-64(s0)
	lbu	a4,6(a5)
	.loc 1 273 24
	lla	a5,SmbiosMajorVersion
	sb	a4,0(a5)
	.loc 1 274 37
	ld	a5,-64(s0)
	lbu	a4,7(a5)
	.loc 1 274 24
	lla	a5,SmbiosMinorVersion
	sb	a4,0(a5)
	.loc 1 276 5
	lla	a2,.LC6
	li	a1,-1
	li	a0,-1
	call	ShellPrintEx@plt
	.loc 1 277 5
	la	a5,gShellDebug1HiiHandle
	ld	a5,0(a5)
	mv	a4,a5
	li	a3,510
	li	a2,0
	li	a1,-1
	li	a0,-1
	call	ShellPrintHiiEx@plt
	.loc 1 279 8
	lbu	a5,-65(s0)
	andi	a4,a5,0xff
	li	a5,254
	bne	a4,a5,.L38
	.loc 1 280 7
	la	a5,gShellDebug1HiiHandle
	ld	a5,0(a5)
	mv	a4,a5
	li	a3,511
	li	a2,0
	li	a1,-1
	li	a0,-1
	call	ShellPrintHiiEx@plt
	j	.L39
.L38:
	.loc 1 282 7
	la	a5,gShellDebug1HiiHandle
	ld	a4,0(a5)
	lbu	a5,-65(s0)
	sext.w	a5,a5
	li	a3,512
	li	a2,0
	li	a1,-1
	li	a0,-1
	call	ShellPrintHiiEx@plt
.L39:
	.loc 1 285 8
	lbu	a5,-69(s0)
	andi	a5,a5,0xff
	beq	a5,zero,.L40
	.loc 1 286 7
	la	a5,gShellDebug1HiiHandle
	ld	a5,0(a5)
	mv	a4,a5
	li	a3,513
	li	a2,0
	li	a1,-1
	li	a0,-1
	call	ShellPrintHiiEx@plt
	j	.L41
.L40:
	.loc 1 288 7
	la	a5,gShellDebug1HiiHandle
	ld	a4,0(a5)
	lhu	a5,-68(s0)
	sext.w	a5,a5
	li	a3,514
	li	a2,0
	li	a1,-1
	li	a0,-1
	call	ShellPrintHiiEx@plt
.L41:
	.loc 1 291 5
	la	a5,gShellDebug1HiiHandle
	ld	a5,0(a5)
	mv	a4,a5
	li	a3,515
	li	a2,0
	li	a1,-1
	li	a0,-1
	call	ShellPrintHiiEx@plt
	.loc 1 292 5
	lla	a5,gShowType
	lbu	a5,0(a5)
	.loc 1 292 27
	mv	a0,a5
	call	GetShowTypeString
	mv	a5,a0
	.loc 1 292 5 discriminator 1
	mv	a2,a5
	li	a1,-1
	li	a0,-1
	call	ShellPrintEx@plt
	.loc 1 293 5
	lla	a2,.LC7
	li	a1,-1
	li	a0,-1
	call	ShellPrintEx@plt
	.loc 1 312 12
	lhu	a5,-68(s0)
	sh	a5,-26(s0)
	.loc 1 313 16
	sd	zero,-24(s0)
	.loc 1 313 5
	j	.L42
.L50:
	.loc 1 317 18
	lhu	a5,-26(s0)
	.loc 1 317 10
	sext.w	a4,a5
	li	a5,65536
	addi	a5,a5,-1
	beq	a4,a5,.L52
	.loc 1 324 11
	addi	a3,s0,-42
	addi	a4,s0,-40
	addi	a5,s0,-26
	mv	a2,a3
	mv	a1,a4
	mv	a0,a5
	call	LibGetSmbiosStructure@plt
	mv	a5,a0
	.loc 1 324 10 discriminator 1
	bne	a5,zero,.L53
	.loc 1 328 24
	ld	a5,-40(s0)
	sd	a5,-56(s0)
	.loc 1 335 10
	lbu	a5,-65(s0)
	andi	a4,a5,0xff
	li	a5,254
	beq	a4,a5,.L46
	.loc 1 335 55 discriminator 1
	ld	a5,-56(s0)
	.loc 1 335 59 discriminator 1
	lbu	a4,0(a5)
	.loc 1 335 39 discriminator 1
	lbu	a5,-65(s0)
	andi	a5,a5,0xff
	bne	a5,a4,.L54
.L46:
	.loc 1 339 7
	lla	a2,.LC8
	li	a1,-1
	li	a0,-1
	call	ShellPrintEx@plt
	.loc 1 340 7
	la	a5,gShellDebug1HiiHandle
	ld	a3,0(a5)
	.loc 1 346 21
	ld	a5,-56(s0)
	.loc 1 346 25
	lbu	a5,0(a5)
	.loc 1 340 7
	sext.w	a2,a5
	.loc 1 347 21
	ld	a5,-56(s0)
	.loc 1 347 25
	lbu	a4,2(a5)
	lbu	a5,3(a5)
	slli	a5,a5,8
	or	a5,a5,a4
	slli	a5,a5,48
	srli	a5,a5,48
	.loc 1 340 7
	sext.w	a5,a5
	mv	a6,a5
	mv	a5,a2
	mv	a4,a3
	li	a3,516
	li	a2,0
	li	a1,-1
	li	a0,-1
	call	ShellPrintHiiEx@plt
	.loc 1 349 7
	la	a5,gShellDebug1HiiHandle
	ld	a4,0(a5)
	lhu	a5,-42(s0)
	sext.w	a5,a5
	mv	a6,a5
	ld	a5,-24(s0)
	li	a3,517
	li	a2,0
	li	a1,-1
	li	a0,-1
	call	ShellPrintHiiEx@plt
	.loc 1 353 7
	la	a5,gShellDebug1HiiHandle
	ld	a4,0(a5)
	ld	a5,-40(s0)
	li	a3,518
	li	a2,0
	li	a1,-1
	li	a0,-1
	call	ShellPrintHiiEx@plt
	.loc 1 354 7
	lhu	a5,-42(s0)
	mv	a4,a5
	ld	a5,-40(s0)
	mv	a3,a5
	mv	a2,a4
	li	a1,0
	li	a0,0
	call	DumpHex@plt
	.loc 1 370 21
	lla	a5,gShowType
	lbu	a5,0(a5)
	.loc 1 370 10
	beq	a5,zero,.L48
	.loc 1 374 9
	lla	a5,gShowType
	lbu	a4,0(a5)
	addi	a5,s0,-56
	mv	a1,a4
	mv	a0,a5
	call	SmbiosPrintStructure@plt
	.loc 1 375 9
	lla	a2,.LC9
	li	a1,-1
	li	a0,-1
	call	ShellPrintEx@plt
.L48:
	.loc 1 392 10
	lbu	a5,-69(s0)
	andi	a5,a5,0xff
	beq	a5,zero,.L55
	.loc 1 399 11
	call	ShellGetExecutionBreakFlag@plt
	mv	a5,a0
	.loc 1 399 10 discriminator 1
	beq	a5,zero,.L47
	.loc 1 400 16
	li	a5,-1
	slli	a5,a5,63
	addi	a5,a5,21
	j	.L51
.L54:
	.loc 1 336 9
	nop
.L47:
	.loc 1 313 73 discriminator 2
	ld	a5,-24(s0)
	addi	a5,a5,1
	sd	a5,-24(s0)
.L42:
	.loc 1 313 40 discriminator 1
	ld	a5,-64(s0)
	lbu	a4,28(a5)
	lbu	a5,29(a5)
	slli	a5,a5,8
	or	a5,a5,a4
	slli	a5,a5,48
	srli	a5,a5,48
	mv	a4,a5
	.loc 1 313 27 discriminator 1
	ld	a5,-24(s0)
	bltu	a5,a4,.L50
	j	.L44
.L52:
	.loc 1 318 9
	nop
	j	.L44
.L53:
	.loc 1 325 9
	nop
	j	.L44
.L55:
	.loc 1 393 9
	nop
.L44:
	.loc 1 404 5
	lla	a2,.LC8
	li	a1,-1
	li	a0,-1
	call	ShellPrintEx@plt
	.loc 1 405 12
	li	a5,0
	j	.L51
.L37:
	.loc 1 408 10
	li	a5,-1
	slli	a5,a5,63
	addi	a5,a5,4
.L51:
	.loc 1 409 1
	mv	a0,a5
	ld	ra,72(sp)
	.cfi_restore 1
	ld	s0,64(sp)
	.cfi_restore 8
	.cfi_def_cfa 2, 80
	addi	sp,sp,80
	.cfi_def_cfa_offset 0
	jr	ra
	.cfi_endproc
.LFE1:
	.size	SMBiosView, .-SMBiosView
	.section	.rodata
	.align	3
.LC10:
	.string	"_SM3_"
	.section	.text.SMBios64View,"ax",@progbits
	.align	1
	.globl	SMBios64View
	.type	SMBios64View, @function
SMBios64View:
.LFB2:
	.loc 1 430 1
	.cfi_startproc
	addi	sp,sp,-80
	.cfi_def_cfa_offset 80
	sd	ra,72(sp)
	sd	s0,64(sp)
	.cfi_offset 1, -8
	.cfi_offset 8, -16
	addi	s0,sp,80
	.cfi_def_cfa 8, 0
	mv	a5,a0
	mv	a4,a3
	sb	a5,-65(s0)
	mv	a5,a1
	sh	a5,-68(s0)
	mv	a5,a2
	sb	a5,-66(s0)
	mv	a5,a4
	sb	a5,-69(s0)
	.loc 1 438 15
	sd	zero,-64(s0)
	.loc 1 439 3
	addi	a5,s0,-64
	mv	a0,a5
	call	LibSmbios64BitGetEPS@plt
	.loc 1 440 19
	ld	a5,-64(s0)
	.loc 1 440 6
	bne	a5,zero,.L57
	.loc 1 441 5
	la	a5,gShellDebug1HiiHandle
	ld	a5,0(a5)
	mv	a4,a5
	li	a3,528
	li	a2,0
	li	a1,-1
	li	a0,-1
	call	ShellPrintHiiEx@plt
	.loc 1 442 12
	li	a5,-1
	slli	a5,a5,63
	addi	a5,a5,4
	j	.L73
.L57:
	.loc 1 445 30
	ld	a5,-64(s0)
	.loc 1 445 7
	li	a2,5
	lla	a1,.LC10
	mv	a0,a5
	call	CompareMem@plt
	mv	a5,a0
	.loc 1 445 6 discriminator 1
	bne	a5,zero,.L59
	.loc 1 449 5
	ld	a5,-64(s0)
	lbu	a4,-66(s0)
	mv	a1,a4
	mv	a0,a5
	call	Smbios64BitPrintEPSInfo@plt
	.loc 1 451 37
	ld	a5,-64(s0)
	lbu	a4,7(a5)
	.loc 1 451 24
	lla	a5,SmbiosMajorVersion
	sb	a4,0(a5)
	.loc 1 452 37
	ld	a5,-64(s0)
	lbu	a4,8(a5)
	.loc 1 452 24
	lla	a5,SmbiosMinorVersion
	sb	a4,0(a5)
	.loc 1 454 5
	lla	a2,.LC6
	li	a1,-1
	li	a0,-1
	call	ShellPrintEx@plt
	.loc 1 455 5
	la	a5,gShellDebug1HiiHandle
	ld	a5,0(a5)
	mv	a4,a5
	li	a3,510
	li	a2,0
	li	a1,-1
	li	a0,-1
	call	ShellPrintHiiEx@plt
	.loc 1 457 8
	lbu	a5,-65(s0)
	andi	a4,a5,0xff
	li	a5,254
	bne	a4,a5,.L60
	.loc 1 458 7
	la	a5,gShellDebug1HiiHandle
	ld	a5,0(a5)
	mv	a4,a5
	li	a3,511
	li	a2,0
	li	a1,-1
	li	a0,-1
	call	ShellPrintHiiEx@plt
	j	.L61
.L60:
	.loc 1 460 7
	la	a5,gShellDebug1HiiHandle
	ld	a4,0(a5)
	lbu	a5,-65(s0)
	sext.w	a5,a5
	li	a3,512
	li	a2,0
	li	a1,-1
	li	a0,-1
	call	ShellPrintHiiEx@plt
.L61:
	.loc 1 463 8
	lbu	a5,-69(s0)
	andi	a5,a5,0xff
	beq	a5,zero,.L62
	.loc 1 464 7
	la	a5,gShellDebug1HiiHandle
	ld	a5,0(a5)
	mv	a4,a5
	li	a3,513
	li	a2,0
	li	a1,-1
	li	a0,-1
	call	ShellPrintHiiEx@plt
	j	.L63
.L62:
	.loc 1 466 7
	la	a5,gShellDebug1HiiHandle
	ld	a4,0(a5)
	lhu	a5,-68(s0)
	sext.w	a5,a5
	li	a3,514
	li	a2,0
	li	a1,-1
	li	a0,-1
	call	ShellPrintHiiEx@plt
.L63:
	.loc 1 469 5
	la	a5,gShellDebug1HiiHandle
	ld	a5,0(a5)
	mv	a4,a5
	li	a3,515
	li	a2,0
	li	a1,-1
	li	a0,-1
	call	ShellPrintHiiEx@plt
	.loc 1 470 5
	lla	a5,gShowType
	lbu	a5,0(a5)
	.loc 1 470 27
	mv	a0,a5
	call	GetShowTypeString
	mv	a5,a0
	.loc 1 470 5 discriminator 1
	mv	a2,a5
	li	a1,-1
	li	a0,-1
	call	ShellPrintEx@plt
	.loc 1 471 5
	lla	a2,.LC7
	li	a1,-1
	li	a0,-1
	call	ShellPrintEx@plt
	.loc 1 490 12
	lhu	a5,-68(s0)
	sh	a5,-26(s0)
	.loc 1 491 16
	sd	zero,-24(s0)
	.loc 1 491 5
	j	.L64
.L72:
	.loc 1 495 18
	lhu	a5,-26(s0)
	.loc 1 495 10
	sext.w	a4,a5
	li	a5,65536
	addi	a5,a5,-1
	beq	a4,a5,.L74
	.loc 1 502 11
	addi	a3,s0,-42
	addi	a4,s0,-40
	addi	a5,s0,-26
	mv	a2,a3
	mv	a1,a4
	mv	a0,a5
	call	LibGetSmbios64BitStructure@plt
	mv	a5,a0
	.loc 1 502 10 discriminator 1
	bne	a5,zero,.L75
	.loc 1 506 24
	ld	a5,-40(s0)
	sd	a5,-56(s0)
	.loc 1 513 10
	lbu	a5,-65(s0)
	andi	a4,a5,0xff
	li	a5,254
	beq	a4,a5,.L68
	.loc 1 513 55 discriminator 1
	ld	a5,-56(s0)
	.loc 1 513 59 discriminator 1
	lbu	a4,0(a5)
	.loc 1 513 39 discriminator 1
	lbu	a5,-65(s0)
	andi	a5,a5,0xff
	bne	a5,a4,.L76
.L68:
	.loc 1 517 7
	lla	a2,.LC8
	li	a1,-1
	li	a0,-1
	call	ShellPrintEx@plt
	.loc 1 518 7
	la	a5,gShellDebug1HiiHandle
	ld	a3,0(a5)
	.loc 1 524 21
	ld	a5,-56(s0)
	.loc 1 524 25
	lbu	a5,0(a5)
	.loc 1 518 7
	sext.w	a2,a5
	.loc 1 525 21
	ld	a5,-56(s0)
	.loc 1 525 25
	lbu	a4,2(a5)
	lbu	a5,3(a5)
	slli	a5,a5,8
	or	a5,a5,a4
	slli	a5,a5,48
	srli	a5,a5,48
	.loc 1 518 7
	sext.w	a5,a5
	mv	a6,a5
	mv	a5,a2
	mv	a4,a3
	li	a3,516
	li	a2,0
	li	a1,-1
	li	a0,-1
	call	ShellPrintHiiEx@plt
	.loc 1 527 7
	la	a5,gShellDebug1HiiHandle
	ld	a4,0(a5)
	lhu	a5,-42(s0)
	sext.w	a5,a5
	mv	a6,a5
	ld	a5,-24(s0)
	li	a3,517
	li	a2,0
	li	a1,-1
	li	a0,-1
	call	ShellPrintHiiEx@plt
	.loc 1 531 7
	la	a5,gShellDebug1HiiHandle
	ld	a4,0(a5)
	ld	a5,-40(s0)
	li	a3,518
	li	a2,0
	li	a1,-1
	li	a0,-1
	call	ShellPrintHiiEx@plt
	.loc 1 532 7
	lhu	a5,-42(s0)
	mv	a4,a5
	ld	a5,-40(s0)
	mv	a3,a5
	mv	a2,a4
	li	a1,0
	li	a0,0
	call	DumpHex@plt
	.loc 1 548 21
	lla	a5,gShowType
	lbu	a5,0(a5)
	.loc 1 548 10
	beq	a5,zero,.L70
	.loc 1 552 9
	lla	a5,gShowType
	lbu	a4,0(a5)
	addi	a5,s0,-56
	mv	a1,a4
	mv	a0,a5
	call	SmbiosPrintStructure@plt
	.loc 1 553 9
	lla	a2,.LC9
	li	a1,-1
	li	a0,-1
	call	ShellPrintEx@plt
.L70:
	.loc 1 570 10
	lbu	a5,-69(s0)
	andi	a5,a5,0xff
	beq	a5,zero,.L77
	.loc 1 577 11
	call	ShellGetExecutionBreakFlag@plt
	mv	a5,a0
	.loc 1 577 10 discriminator 1
	beq	a5,zero,.L69
	.loc 1 578 16
	li	a5,-1
	slli	a5,a5,63
	addi	a5,a5,21
	j	.L73
.L76:
	.loc 1 514 9
	nop
.L69:
	.loc 1 491 66 discriminator 2
	ld	a5,-24(s0)
	addi	a5,a5,1
	sd	a5,-24(s0)
.L64:
	.loc 1 491 27 discriminator 1
	lla	a5,mNumberOfSmbios64BitStructures
	ld	a5,0(a5)
	ld	a4,-24(s0)
	bltu	a4,a5,.L72
	j	.L66
.L74:
	.loc 1 496 9
	nop
	j	.L66
.L75:
	.loc 1 503 9
	nop
	j	.L66
.L77:
	.loc 1 571 9
	nop
.L66:
	.loc 1 582 5
	lla	a2,.LC8
	li	a1,-1
	li	a0,-1
	call	ShellPrintEx@plt
	.loc 1 583 12
	li	a5,0
	j	.L73
.L59:
	.loc 1 586 10
	li	a5,-1
	slli	a5,a5,63
	addi	a5,a5,4
.L73:
	.loc 1 587 1
	mv	a0,a5
	ld	ra,72(sp)
	.cfi_restore 1
	ld	s0,64(sp)
	.cfi_restore 8
	.cfi_def_cfa 2, 80
	addi	sp,sp,80
	.cfi_def_cfa_offset 0
	jr	ra
	.cfi_endproc
.LFE2:
	.size	SMBios64View, .-SMBios64View
	.section	.text.InitSmbiosTableStatistics,"ax",@progbits
	.align	1
	.globl	InitSmbiosTableStatistics
	.type	InitSmbiosTableStatistics, @function
InitSmbiosTableStatistics:
.LFB3:
	.loc 1 598 1
	.cfi_startproc
	addi	sp,sp,-80
	.cfi_def_cfa_offset 80
	sd	ra,72(sp)
	sd	s0,64(sp)
	.cfi_offset 1, -8
	.cfi_offset 8, -16
	addi	s0,sp,80
	.cfi_def_cfa 8, 0
	.loc 1 609 15
	sd	zero,-72(s0)
	.loc 1 610 3
	addi	a5,s0,-72
	mv	a0,a5
	call	LibSmbiosGetEPS@plt
	.loc 1 611 19
	ld	a5,-72(s0)
	.loc 1 611 6
	bne	a5,zero,.L79
	.loc 1 612 5
	la	a5,gShellDebug1HiiHandle
	ld	a5,0(a5)
	mv	a4,a5
	li	a3,528
	li	a2,0
	li	a1,-1
	li	a0,-1
	call	ShellPrintHiiEx@plt
	.loc 1 613 12
	li	a5,-1
	slli	a5,a5,63
	addi	a5,a5,14
	j	.L89
.L79:
	.loc 1 616 30
	ld	a5,-72(s0)
	.loc 1 616 7
	li	a2,4
	lla	a1,.LC5
	mv	a0,a5
	call	CompareMem@plt
	mv	a5,a0
	.loc 1 616 6 discriminator 1
	beq	a5,zero,.L81
	.loc 1 617 5
	la	a5,gShellDebug1HiiHandle
	ld	a5,0(a5)
	mv	a4,a5
	li	a3,529
	li	a2,0
	li	a1,-1
	li	a0,-1
	call	ShellPrintHiiEx@plt
	.loc 1 618 12
	li	a5,-1
	slli	a5,a5,63
	addi	a5,a5,2
	j	.L89
.L81:
	.loc 1 624 24
	lla	a5,mStatisticsTable
	ld	a5,0(a5)
	.loc 1 624 6
	beq	a5,zero,.L82
	.loc 1 625 5
	lla	a5,mStatisticsTable
	ld	a5,0(a5)
	mv	a0,a5
	call	FreePool@plt
	.loc 1 626 22
	lla	a5,mStatisticsTable
	sd	zero,0(a5)
.L82:
	.loc 1 629 75
	ld	a5,-72(s0)
	lbu	a4,28(a5)
	lbu	a5,29(a5)
	slli	a5,a5,8
	or	a5,a5,a4
	slli	a5,a5,48
	srli	a5,a5,48
	mv	a4,a5
	.loc 1 629 102
	mv	a5,a4
	slli	a5,a5,2
	add	a5,a5,a4
	slli	a5,a5,1
	.loc 1 629 46
	mv	a0,a5
	call	AllocateZeroPool@plt
	mv	a4,a0
	.loc 1 629 20 discriminator 1
	lla	a5,mStatisticsTable
	sd	a4,0(a5)
	.loc 1 631 24
	lla	a5,mStatisticsTable
	ld	a5,0(a5)
	.loc 1 631 6
	bne	a5,zero,.L83
	.loc 1 632 5
	la	a5,gShellDebug1HiiHandle
	ld	a5,0(a5)
	mv	a4,a5
	li	a3,530
	li	a2,0
	li	a1,-1
	li	a0,-1
	call	ShellPrintHiiEx@plt
	.loc 1 633 12
	li	a5,-1
	slli	a5,a5,63
	addi	a5,a5,9
	j	.L89
.L83:
	.loc 1 636 10
	sh	zero,-18(s0)
	.loc 1 637 21
	lla	a5,mStatisticsTable
	ld	a5,0(a5)
	sd	a5,-32(s0)
	.loc 1 642 10
	li	a5,-1
	sh	a5,-34(s0)
	.loc 1 643 3
	addi	a5,s0,-34
	li	a2,0
	li	a1,0
	mv	a0,a5
	call	LibGetSmbiosStructure@plt
	.loc 1 644 14
	li	a5,1
	sh	a5,-20(s0)
	.loc 1 644 3
	j	.L84
.L88:
	.loc 1 648 16
	lhu	a5,-34(s0)
	.loc 1 648 8
	sext.w	a4,a5
	li	a5,65536
	addi	a5,a5,-1
	beq	a4,a5,.L90
	.loc 1 655 9
	addi	a3,s0,-50
	addi	a4,s0,-48
	addi	a5,s0,-34
	mv	a2,a3
	mv	a1,a4
	mv	a0,a5
	call	LibGetSmbiosStructure@plt
	mv	a5,a0
	.loc 1 655 8 discriminator 1
	bne	a5,zero,.L91
	.loc 1 659 22
	ld	a5,-48(s0)
	sd	a5,-64(s0)
	.loc 1 664 30
	ld	a5,-32(s0)
	lhu	a4,-20(s0)
	sh	a4,0(a5)
	.loc 1 665 43
	ld	a5,-64(s0)
	.loc 1 665 47
	lbu	a4,0(a5)
	.loc 1 665 29
	ld	a5,-32(s0)
	sb	a4,2(a5)
	.loc 1 666 45
	ld	a5,-64(s0)
	.loc 1 666 49
	lbu	a4,2(a5)
	lbu	a5,3(a5)
	slli	a5,a5,8
	or	a5,a5,a4
	slli	a4,a5,48
	srli	a4,a4,48
	.loc 1 666 31
	ld	a5,-32(s0)
	sh	a4,4(a5)
	.loc 1 667 31
	lhu	a4,-50(s0)
	ld	a5,-32(s0)
	sh	a4,8(a5)
	.loc 1 668 29
	ld	a5,-32(s0)
	lhu	a4,-18(s0)
	sh	a4,6(a5)
	.loc 1 670 14
	lhu	a5,-50(s0)
	.loc 1 670 12
	lhu	a4,-18(s0)
	addw	a5,a4,a5
	sh	a5,-18(s0)
	.loc 1 672 25
	lla	a5,mStatisticsTable
	ld	a3,0(a5)
	.loc 1 672 42
	lhu	a4,-20(s0)
	mv	a5,a4
	slli	a5,a5,2
	add	a5,a5,a4
	slli	a5,a5,1
	.loc 1 672 23
	add	a5,a3,a5
	sd	a5,-32(s0)
	.loc 1 644 72 discriminator 2
	lhu	a5,-20(s0)
	addiw	a5,a5,1
	sh	a5,-20(s0)
.L84:
	.loc 1 644 39 discriminator 1
	ld	a5,-72(s0)
	lbu	a4,28(a5)
	lbu	a5,29(a5)
	slli	a5,a5,8
	or	a5,a5,a4
	slli	a5,a5,48
	srli	a5,a5,48
	.loc 1 644 25 discriminator 1
	lhu	a4,-20(s0)
	sext.w	a4,a4
	sext.w	a5,a5
	bleu	a4,a5,.L88
	j	.L86
.L90:
	.loc 1 649 7
	nop
	j	.L86
.L91:
	.loc 1 656 7
	nop
.L86:
	.loc 1 675 10
	li	a5,0
.L89:
	.loc 1 676 1
	mv	a0,a5
	ld	ra,72(sp)
	.cfi_restore 1
	ld	s0,64(sp)
	.cfi_restore 8
	.cfi_def_cfa 2, 80
	addi	sp,sp,80
	.cfi_def_cfa_offset 0
	jr	ra
	.cfi_endproc
.LFE3:
	.size	InitSmbiosTableStatistics, .-InitSmbiosTableStatistics
	.section	.text.CalculateSmbios64BitStructureCountAndLength,"ax",@progbits
	.align	1
	.globl	CalculateSmbios64BitStructureCountAndLength
	.type	CalculateSmbios64BitStructureCountAndLength, @function
CalculateSmbios64BitStructureCountAndLength:
.LFB4:
	.loc 1 691 1
	.cfi_startproc
	addi	sp,sp,-64
	.cfi_def_cfa_offset 64
	sd	ra,56(sp)
	sd	s0,48(sp)
	.cfi_offset 1, -8
	.cfi_offset 8, -16
	addi	s0,sp,64
	.cfi_def_cfa 8, 0
	sd	a0,-40(s0)
	sd	a1,-48(s0)
	sd	a2,-56(s0)
	.loc 1 695 24
	ld	a5,-56(s0)
	sd	zero,0(a5)
	.loc 1 696 31
	ld	a5,-48(s0)
	sd	zero,0(a5)
	.loc 1 698 51
	ld	a5,-40(s0)
	lbu	a4,16(a5)
	lbu	a3,17(a5)
	slli	a3,a3,8
	or	a4,a3,a4
	lbu	a3,18(a5)
	slli	a3,a3,16
	or	a4,a3,a4
	lbu	a3,19(a5)
	slli	a3,a3,24
	or	a4,a3,a4
	lbu	a3,20(a5)
	slli	a3,a3,32
	or	a4,a3,a4
	lbu	a3,21(a5)
	slli	a3,a3,40
	or	a4,a3,a4
	lbu	a3,22(a5)
	slli	a3,a3,48
	or	a4,a3,a4
	lbu	a5,23(a5)
	slli	a5,a5,56
	or	a5,a5,a4
	.loc 1 698 14
	sd	a5,-32(s0)
.L96:
	.loc 1 700 15
	ld	a5,-32(s0)
	.loc 1 700 19
	lbu	a5,0(a5)
	.loc 1 700 8
	mv	a4,a5
	li	a5,127
	bne	a4,a5,.L93
	.loc 1 704 8
	ld	a5,-48(s0)
	ld	a5,0(a5)
	.loc 1 704 36
	addi	a4,a5,1
	ld	a5,-48(s0)
	sd	a4,0(a5)
	.loc 1 705 8
	ld	a5,-56(s0)
	ld	a5,0(a5)
	.loc 1 705 30
	addi	a4,a5,4
	ld	a5,-56(s0)
	sd	a4,0(a5)
	.loc 1 706 14
	li	a5,0
	j	.L97
.L93:
	.loc 1 709 9
	ld	a5,-32(s0)
	sd	a5,-24(s0)
	.loc 1 713 5
	addi	a4,s0,-32
	li	a5,65536
	addi	a1,a5,-1
	mv	a0,a4
	call	LibGetSmbiosString@plt
	.loc 1 717 6
	ld	a5,-56(s0)
	ld	a4,0(a5)
	.loc 1 717 45
	ld	a5,-32(s0)
	.loc 1 717 32
	mv	a3,a5
	.loc 1 717 52
	ld	a5,-24(s0)
	.loc 1 717 50
	sub	a5,a3,a5
	.loc 1 717 28
	add	a4,a4,a5
	ld	a5,-56(s0)
	sd	a4,0(a5)
	.loc 1 718 10
	ld	a5,-56(s0)
	ld	a4,0(a5)
	.loc 1 718 52
	ld	a5,-40(s0)
	lbu	a3,12(a5)
	lbu	a2,13(a5)
	slli	a2,a2,8
	or	a3,a2,a3
	lbu	a2,14(a5)
	slli	a2,a2,16
	or	a3,a2,a3
	lbu	a5,15(a5)
	slli	a5,a5,24
	or	a5,a5,a3
	sext.w	a5,a5
	slli	a5,a5,32
	srli	a5,a5,32
	.loc 1 718 8
	bleu	a4,a5,.L95
	.loc 1 723 14
	li	a5,-1
	slli	a5,a5,63
	addi	a5,a5,2
	j	.L97
.L95:
	.loc 1 726 6
	ld	a5,-48(s0)
	ld	a5,0(a5)
	.loc 1 726 34
	addi	a4,a5,1
	ld	a5,-48(s0)
	sd	a4,0(a5)
	.loc 1 700 8
	j	.L96
.L97:
	.loc 1 728 1
	mv	a0,a5
	ld	ra,56(sp)
	.cfi_restore 1
	ld	s0,48(sp)
	.cfi_restore 8
	.cfi_def_cfa 2, 64
	addi	sp,sp,64
	.cfi_def_cfa_offset 0
	jr	ra
	.cfi_endproc
.LFE4:
	.size	CalculateSmbios64BitStructureCountAndLength, .-CalculateSmbios64BitStructureCountAndLength
	.section	.text.InitSmbios64BitTableStatistics,"ax",@progbits
	.align	1
	.globl	InitSmbios64BitTableStatistics
	.type	InitSmbios64BitTableStatistics, @function
InitSmbios64BitTableStatistics:
.LFB5:
	.loc 1 739 1
	.cfi_startproc
	addi	sp,sp,-80
	.cfi_def_cfa_offset 80
	sd	ra,72(sp)
	sd	s0,64(sp)
	.cfi_offset 1, -8
	.cfi_offset 8, -16
	addi	s0,sp,80
	.cfi_def_cfa 8, 0
	.loc 1 750 15
	sd	zero,-80(s0)
	.loc 1 751 3
	addi	a5,s0,-80
	mv	a0,a5
	call	LibSmbios64BitGetEPS@plt
	.loc 1 752 19
	ld	a5,-80(s0)
	.loc 1 752 6
	bne	a5,zero,.L99
	.loc 1 753 5
	la	a5,gShellDebug1HiiHandle
	ld	a5,0(a5)
	mv	a4,a5
	li	a3,528
	li	a2,0
	li	a1,-1
	li	a0,-1
	call	ShellPrintHiiEx@plt
	.loc 1 754 12
	li	a5,-1
	slli	a5,a5,63
	addi	a5,a5,14
	j	.L111
.L99:
	.loc 1 757 30
	ld	a5,-80(s0)
	.loc 1 757 7
	li	a2,5
	lla	a1,.LC10
	mv	a0,a5
	call	CompareMem@plt
	mv	a5,a0
	.loc 1 757 6 discriminator 1
	beq	a5,zero,.L101
	.loc 1 758 5
	la	a5,gShellDebug1HiiHandle
	ld	a5,0(a5)
	mv	a4,a5
	li	a3,529
	li	a2,0
	li	a1,-1
	li	a0,-1
	call	ShellPrintHiiEx@plt
	.loc 1 759 12
	li	a5,-1
	slli	a5,a5,63
	addi	a5,a5,2
	j	.L111
.L101:
	.loc 1 765 35
	lla	a5,mSmbios64BitStatisticsTable
	ld	a5,0(a5)
	.loc 1 765 6
	beq	a5,zero,.L102
	.loc 1 766 5
	lla	a5,mSmbios64BitStatisticsTable
	ld	a5,0(a5)
	mv	a0,a5
	call	FreePool@plt
	.loc 1 767 33
	lla	a5,mSmbios64BitStatisticsTable
	sd	zero,0(a5)
.L102:
	.loc 1 773 12
	ld	a5,-80(s0)
	lla	a2,mSmbios64BitTableLength
	lla	a1,mNumberOfSmbios64BitStructures
	mv	a0,a5
	call	CalculateSmbios64BitStructureCountAndLength
	sd	a0,-40(s0)
	.loc 1 774 35
	ld	a5,-40(s0)
	.loc 1 774 6
	blt	a5,zero,.L103
	.loc 1 774 103 discriminator 1
	ld	a5,-80(s0)
	lbu	a4,12(a5)
	lbu	a3,13(a5)
	slli	a3,a3,8
	or	a4,a3,a4
	lbu	a3,14(a5)
	slli	a3,a3,16
	or	a4,a3,a4
	lbu	a5,15(a5)
	slli	a5,a5,24
	or	a5,a5,a4
	sext.w	a5,a5
	slli	a4,a5,32
	srli	a4,a4,32
	.loc 1 774 90 discriminator 1
	lla	a5,mSmbios64BitTableLength
	ld	a5,0(a5)
	.loc 1 774 62 discriminator 1
	bgeu	a4,a5,.L104
.L103:
	.loc 1 775 12
	li	a5,-1
	slli	a5,a5,63
	addi	a5,a5,2
	j	.L111
.L104:
	.loc 1 778 57
	lla	a5,mNumberOfSmbios64BitStructures
	ld	a4,0(a5)
	.loc 1 778 106
	mv	a5,a4
	slli	a5,a5,2
	add	a5,a5,a4
	slli	a5,a5,1
	.loc 1 778 57
	mv	a0,a5
	call	AllocateZeroPool@plt
	mv	a4,a0
	.loc 1 778 31 discriminator 1
	lla	a5,mSmbios64BitStatisticsTable
	sd	a4,0(a5)
	.loc 1 780 35
	lla	a5,mSmbios64BitStatisticsTable
	ld	a5,0(a5)
	.loc 1 780 6
	bne	a5,zero,.L105
	.loc 1 781 5
	la	a5,gShellDebug1HiiHandle
	ld	a5,0(a5)
	mv	a4,a5
	li	a3,530
	li	a2,0
	li	a1,-1
	li	a0,-1
	call	ShellPrintHiiEx@plt
	.loc 1 782 12
	li	a5,-1
	slli	a5,a5,63
	addi	a5,a5,9
	j	.L111
.L105:
	.loc 1 785 10
	sh	zero,-18(s0)
	.loc 1 786 21
	lla	a5,mSmbios64BitStatisticsTable
	ld	a5,0(a5)
	sd	a5,-32(s0)
	.loc 1 791 10
	li	a5,-1
	sh	a5,-42(s0)
	.loc 1 792 3
	addi	a5,s0,-42
	li	a2,0
	li	a1,0
	mv	a0,a5
	call	LibGetSmbios64BitStructure@plt
	.loc 1 793 14
	li	a5,1
	sh	a5,-20(s0)
	.loc 1 793 3
	j	.L106
.L110:
	.loc 1 797 16
	lhu	a5,-42(s0)
	.loc 1 797 8
	sext.w	a4,a5
	li	a5,65536
	addi	a5,a5,-1
	beq	a4,a5,.L112
	.loc 1 804 9
	addi	a3,s0,-58
	addi	a4,s0,-56
	addi	a5,s0,-42
	mv	a2,a3
	mv	a1,a4
	mv	a0,a5
	call	LibGetSmbios64BitStructure@plt
	mv	a5,a0
	.loc 1 804 8 discriminator 1
	bne	a5,zero,.L113
	.loc 1 808 22
	ld	a5,-56(s0)
	sd	a5,-72(s0)
	.loc 1 813 30
	ld	a5,-32(s0)
	lhu	a4,-20(s0)
	sh	a4,0(a5)
	.loc 1 814 43
	ld	a5,-72(s0)
	.loc 1 814 47
	lbu	a4,0(a5)
	.loc 1 814 29
	ld	a5,-32(s0)
	sb	a4,2(a5)
	.loc 1 815 45
	ld	a5,-72(s0)
	.loc 1 815 49
	lbu	a4,2(a5)
	lbu	a5,3(a5)
	slli	a5,a5,8
	or	a5,a5,a4
	slli	a4,a5,48
	srli	a4,a4,48
	.loc 1 815 31
	ld	a5,-32(s0)
	sh	a4,4(a5)
	.loc 1 816 31
	lhu	a4,-58(s0)
	ld	a5,-32(s0)
	sh	a4,8(a5)
	.loc 1 817 29
	ld	a5,-32(s0)
	lhu	a4,-18(s0)
	sh	a4,6(a5)
	.loc 1 819 14
	lhu	a5,-58(s0)
	.loc 1 819 12
	lhu	a4,-18(s0)
	addw	a5,a4,a5
	sh	a5,-18(s0)
	.loc 1 821 25
	lla	a5,mSmbios64BitStatisticsTable
	ld	a3,0(a5)
	.loc 1 821 53
	lhu	a4,-20(s0)
	mv	a5,a4
	slli	a5,a5,2
	add	a5,a5,a4
	slli	a5,a5,1
	.loc 1 821 23
	add	a5,a3,a5
	sd	a5,-32(s0)
	.loc 1 793 72 discriminator 2
	lhu	a5,-20(s0)
	addiw	a5,a5,1
	sh	a5,-20(s0)
.L106:
	.loc 1 793 19 discriminator 1
	lhu	a4,-20(s0)
	.loc 1 793 32 discriminator 1
	lla	a5,mNumberOfSmbios64BitStructures
	ld	a5,0(a5)
	bleu	a4,a5,.L110
	j	.L108
.L112:
	.loc 1 798 7
	nop
	j	.L108
.L113:
	.loc 1 805 7
	nop
.L108:
	.loc 1 824 10
	li	a5,0
.L111:
	.loc 1 825 1
	mv	a0,a5
	ld	ra,72(sp)
	.cfi_restore 1
	ld	s0,64(sp)
	.cfi_restore 8
	.cfi_def_cfa 2, 80
	addi	sp,sp,80
	.cfi_def_cfa_offset 0
	jr	ra
	.cfi_endproc
.LFE5:
	.size	InitSmbios64BitTableStatistics, .-InitSmbios64BitTableStatistics
	.section	.rodata
	.align	3
.LC11:
	.string	"\n"
	.string	"="
	.string	"="
	.string	"="
	.string	"="
	.string	"="
	.string	"="
	.string	"="
	.string	"="
	.string	"="
	.string	"="
	.string	"="
	.string	"="
	.string	"="
	.string	"="
	.string	"="
	.string	"="
	.string	"="
	.string	"="
	.string	"="
	.string	"="
	.string	"="
	.string	"="
	.string	"="
	.string	"="
	.string	"="
	.string	"="
	.string	"="
	.string	"="
	.string	"="
	.string	"="
	.string	"="
	.string	"="
	.string	"="
	.string	"="
	.string	"="
	.string	"="
	.string	"="
	.string	"="
	.string	"="
	.string	"="
	.string	"="
	.string	"="
	.string	"="
	.string	"="
	.string	"="
	.string	"="
	.string	"="
	.string	"="
	.string	"="
	.string	"="
	.string	"="
	.string	"="
	.string	"="
	.string	"="
	.string	"="
	.string	"="
	.string	"="
	.string	"="
	.string	"="
	.string	"="
	.string	"\n"
	.zero	2
	.align	3
.LC12:
	.string	"="
	.string	"="
	.string	"="
	.string	"="
	.string	"="
	.string	"="
	.string	"="
	.string	"="
	.string	"="
	.string	"="
	.string	"="
	.string	"="
	.string	"="
	.string	"="
	.string	"="
	.string	"="
	.string	"="
	.string	"="
	.string	"="
	.string	"="
	.string	"="
	.string	"="
	.string	"="
	.string	"="
	.string	"="
	.string	"="
	.string	"="
	.string	"="
	.string	"="
	.string	"="
	.string	"="
	.string	"="
	.string	"="
	.string	"="
	.string	"="
	.string	"="
	.string	"="
	.string	"="
	.string	"="
	.string	"="
	.string	"="
	.string	"="
	.string	"="
	.string	"="
	.string	"="
	.string	"="
	.string	"="
	.string	"="
	.string	"="
	.string	"="
	.string	"="
	.string	"="
	.string	"="
	.string	"="
	.string	"="
	.string	"="
	.string	"="
	.string	"="
	.string	"="
	.string	"="
	.string	"\n"
	.zero	2
	.section	.text.DisplayStatisticsTable,"ax",@progbits
	.align	1
	.globl	DisplayStatisticsTable
	.type	DisplayStatisticsTable, @function
DisplayStatisticsTable:
.LFB6:
	.loc 1 838 1
	.cfi_startproc
	addi	sp,sp,-64
	.cfi_def_cfa_offset 64
	sd	ra,56(sp)
	sd	s0,48(sp)
	.cfi_offset 1, -8
	.cfi_offset 8, -16
	addi	s0,sp,64
	.cfi_def_cfa 8, 0
	mv	a5,a0
	sb	a5,-49(s0)
	.loc 1 844 15
	sd	zero,-48(s0)
	.loc 1 845 6
	lbu	a5,-49(s0)
	andi	a5,a5,0xff
	bne	a5,zero,.L115
	.loc 1 846 12
	li	a5,0
	j	.L123
.L115:
	.loc 1 852 3
	addi	a5,s0,-48
	mv	a0,a5
	call	LibSmbiosGetEPS@plt
	.loc 1 853 19
	ld	a5,-48(s0)
	.loc 1 853 6
	bne	a5,zero,.L117
	.loc 1 854 5
	la	a5,gShellDebug1HiiHandle
	ld	a5,0(a5)
	mv	a4,a5
	li	a3,528
	li	a2,0
	li	a1,-1
	li	a0,-1
	call	ShellPrintHiiEx@plt
	.loc 1 855 12
	li	a5,-1
	slli	a5,a5,63
	addi	a5,a5,3
	j	.L123
.L117:
	.loc 1 858 3
	lla	a2,.LC11
	li	a1,-1
	li	a0,-1
	call	ShellPrintEx@plt
	.loc 1 859 3
	ld	a5,-48(s0)
	lbu	a4,-49(s0)
	mv	a1,a4
	mv	a0,a5
	call	SmbiosPrintEPSInfo@plt
	.loc 1 861 6
	lbu	a5,-49(s0)
	andi	a4,a5,0xff
	li	a5,1
	bgtu	a4,a5,.L118
	.loc 1 862 12
	li	a5,0
	j	.L123
.L118:
	.loc 1 865 24
	lla	a5,mStatisticsTable
	ld	a5,0(a5)
	.loc 1 865 6
	bne	a5,zero,.L119
	.loc 1 866 5
	la	a5,gShellDebug1HiiHandle
	ld	a5,0(a5)
	mv	a4,a5
	li	a3,531
	li	a2,0
	li	a1,-1
	li	a0,-1
	call	ShellPrintHiiEx@plt
	.loc 1 867 12
	li	a5,-1
	slli	a5,a5,63
	addi	a5,a5,14
	j	.L123
.L119:
	.loc 1 870 3
	lla	a2,.LC12
	li	a1,-1
	li	a0,-1
	call	ShellPrintEx@plt
	.loc 1 871 21
	lla	a5,mStatisticsTable
	ld	a5,0(a5)
	sd	a5,-32(s0)
	.loc 1 872 20
	ld	a5,-48(s0)
	lbu	a4,28(a5)
	lbu	a5,29(a5)
	slli	a5,a5,8
	or	a5,a5,a4
	slli	a5,a5,48
	srli	a5,a5,48
	.loc 1 872 7
	sd	a5,-40(s0)
	.loc 1 876 14
	li	a5,1
	sd	a5,-24(s0)
	.loc 1 876 3
	j	.L120
.L122:
	.loc 1 877 5
	la	a5,gShellDebug1HiiHandle
	ld	a4,0(a5)
	.loc 1 877 92
	ld	a5,-32(s0)
	lhu	a5,0(a5)
	.loc 1 877 5
	sext.w	a5,a5
	li	a3,522
	li	a2,0
	li	a1,-1
	li	a0,-1
	call	ShellPrintHiiEx@plt
	.loc 1 878 5
	la	a5,gShellDebug1HiiHandle
	ld	a4,0(a5)
	.loc 1 878 92
	ld	a5,-32(s0)
	lbu	a5,2(a5)
	.loc 1 878 5
	sext.w	a5,a5
	li	a3,523
	li	a2,0
	li	a1,-1
	li	a0,-1
	call	ShellPrintHiiEx@plt
	.loc 1 879 5
	la	a5,gShellDebug1HiiHandle
	ld	a4,0(a5)
	.loc 1 879 92
	ld	a5,-32(s0)
	lhu	a5,4(a5)
	.loc 1 879 5
	sext.w	a5,a5
	li	a3,524
	li	a2,0
	li	a1,-1
	li	a0,-1
	call	ShellPrintHiiEx@plt
	.loc 1 880 8
	lbu	a5,-49(s0)
	andi	a4,a5,0xff
	li	a5,2
	bleu	a4,a5,.L121
	.loc 1 881 7
	la	a5,gShellDebug1HiiHandle
	ld	a4,0(a5)
	.loc 1 881 94
	ld	a5,-32(s0)
	lhu	a5,6(a5)
	.loc 1 881 7
	sext.w	a5,a5
	li	a3,525
	li	a2,0
	li	a1,-1
	li	a0,-1
	call	ShellPrintHiiEx@plt
	.loc 1 882 7
	la	a5,gShellDebug1HiiHandle
	ld	a4,0(a5)
	.loc 1 882 94
	ld	a5,-32(s0)
	lhu	a5,8(a5)
	.loc 1 882 7
	sext.w	a5,a5
	li	a3,526
	li	a2,0
	li	a1,-1
	li	a0,-1
	call	ShellPrintHiiEx@plt
.L121:
	.loc 1 885 5
	lla	a2,.LC9
	li	a1,-1
	li	a0,-1
	call	ShellPrintEx@plt
	.loc 1 886 25
	lla	a5,mStatisticsTable
	ld	a3,0(a5)
	.loc 1 886 42
	ld	a4,-24(s0)
	mv	a5,a4
	slli	a5,a5,2
	add	a5,a5,a4
	slli	a5,a5,1
	.loc 1 886 23
	add	a5,a3,a5
	sd	a5,-32(s0)
	.loc 1 876 38 discriminator 2
	ld	a5,-24(s0)
	addi	a5,a5,1
	sd	a5,-24(s0)
.L120:
	.loc 1 876 25 discriminator 1
	ld	a4,-24(s0)
	ld	a5,-40(s0)
	bleu	a4,a5,.L122
	.loc 1 906 10
	li	a5,0
.L123:
	.loc 1 907 1
	mv	a0,a5
	ld	ra,56(sp)
	.cfi_restore 1
	ld	s0,48(sp)
	.cfi_restore 8
	.cfi_def_cfa 2, 64
	addi	sp,sp,64
	.cfi_def_cfa_offset 0
	jr	ra
	.cfi_endproc
.LFE6:
	.size	DisplayStatisticsTable, .-DisplayStatisticsTable
	.section	.text.DisplaySmbios64BitStatisticsTable,"ax",@progbits
	.align	1
	.globl	DisplaySmbios64BitStatisticsTable
	.type	DisplaySmbios64BitStatisticsTable, @function
DisplaySmbios64BitStatisticsTable:
.LFB7:
	.loc 1 920 1
	.cfi_startproc
	addi	sp,sp,-64
	.cfi_def_cfa_offset 64
	sd	ra,56(sp)
	sd	s0,48(sp)
	.cfi_offset 1, -8
	.cfi_offset 8, -16
	addi	s0,sp,64
	.cfi_def_cfa 8, 0
	mv	a5,a0
	sb	a5,-49(s0)
	.loc 1 926 15
	sd	zero,-48(s0)
	.loc 1 927 6
	lbu	a5,-49(s0)
	andi	a5,a5,0xff
	bne	a5,zero,.L125
	.loc 1 928 12
	li	a5,0
	j	.L133
.L125:
	.loc 1 934 3
	addi	a5,s0,-48
	mv	a0,a5
	call	LibSmbios64BitGetEPS@plt
	.loc 1 935 19
	ld	a5,-48(s0)
	.loc 1 935 6
	bne	a5,zero,.L127
	.loc 1 936 5
	la	a5,gShellDebug1HiiHandle
	ld	a5,0(a5)
	mv	a4,a5
	li	a3,528
	li	a2,0
	li	a1,-1
	li	a0,-1
	call	ShellPrintHiiEx@plt
	.loc 1 937 12
	li	a5,-1
	slli	a5,a5,63
	addi	a5,a5,3
	j	.L133
.L127:
	.loc 1 940 3
	lla	a2,.LC11
	li	a1,-1
	li	a0,-1
	call	ShellPrintEx@plt
	.loc 1 941 3
	ld	a5,-48(s0)
	lbu	a4,-49(s0)
	mv	a1,a4
	mv	a0,a5
	call	Smbios64BitPrintEPSInfo@plt
	.loc 1 943 6
	lbu	a5,-49(s0)
	andi	a4,a5,0xff
	li	a5,1
	bgtu	a4,a5,.L128
	.loc 1 944 12
	li	a5,0
	j	.L133
.L128:
	.loc 1 947 35
	lla	a5,mSmbios64BitStatisticsTable
	ld	a5,0(a5)
	.loc 1 947 6
	bne	a5,zero,.L129
	.loc 1 948 5
	la	a5,gShellDebug1HiiHandle
	ld	a5,0(a5)
	mv	a4,a5
	li	a3,531
	li	a2,0
	li	a1,-1
	li	a0,-1
	call	ShellPrintHiiEx@plt
	.loc 1 949 12
	li	a5,-1
	slli	a5,a5,63
	addi	a5,a5,14
	j	.L133
.L129:
	.loc 1 952 3
	lla	a2,.LC12
	li	a1,-1
	li	a0,-1
	call	ShellPrintEx@plt
	.loc 1 953 21
	lla	a5,mSmbios64BitStatisticsTable
	ld	a5,0(a5)
	sd	a5,-32(s0)
	.loc 1 954 7
	lla	a5,mNumberOfSmbios64BitStructures
	ld	a5,0(a5)
	sd	a5,-40(s0)
	.loc 1 958 14
	li	a5,1
	sd	a5,-24(s0)
	.loc 1 958 3
	j	.L130
.L132:
	.loc 1 959 5
	la	a5,gShellDebug1HiiHandle
	ld	a4,0(a5)
	.loc 1 959 92
	ld	a5,-32(s0)
	lhu	a5,0(a5)
	.loc 1 959 5
	sext.w	a5,a5
	li	a3,522
	li	a2,0
	li	a1,-1
	li	a0,-1
	call	ShellPrintHiiEx@plt
	.loc 1 960 5
	la	a5,gShellDebug1HiiHandle
	ld	a4,0(a5)
	.loc 1 960 92
	ld	a5,-32(s0)
	lbu	a5,2(a5)
	.loc 1 960 5
	sext.w	a5,a5
	li	a3,523
	li	a2,0
	li	a1,-1
	li	a0,-1
	call	ShellPrintHiiEx@plt
	.loc 1 961 5
	la	a5,gShellDebug1HiiHandle
	ld	a4,0(a5)
	.loc 1 961 92
	ld	a5,-32(s0)
	lhu	a5,4(a5)
	.loc 1 961 5
	sext.w	a5,a5
	li	a3,524
	li	a2,0
	li	a1,-1
	li	a0,-1
	call	ShellPrintHiiEx@plt
	.loc 1 962 8
	lbu	a5,-49(s0)
	andi	a4,a5,0xff
	li	a5,2
	bleu	a4,a5,.L131
	.loc 1 963 7
	la	a5,gShellDebug1HiiHandle
	ld	a4,0(a5)
	.loc 1 963 94
	ld	a5,-32(s0)
	lhu	a5,6(a5)
	.loc 1 963 7
	sext.w	a5,a5
	li	a3,525
	li	a2,0
	li	a1,-1
	li	a0,-1
	call	ShellPrintHiiEx@plt
	.loc 1 964 7
	la	a5,gShellDebug1HiiHandle
	ld	a4,0(a5)
	.loc 1 964 94
	ld	a5,-32(s0)
	lhu	a5,8(a5)
	.loc 1 964 7
	sext.w	a5,a5
	li	a3,526
	li	a2,0
	li	a1,-1
	li	a0,-1
	call	ShellPrintHiiEx@plt
.L131:
	.loc 1 967 5
	lla	a2,.LC9
	li	a1,-1
	li	a0,-1
	call	ShellPrintEx@plt
	.loc 1 968 25
	lla	a5,mSmbios64BitStatisticsTable
	ld	a3,0(a5)
	.loc 1 968 53
	ld	a4,-24(s0)
	mv	a5,a4
	slli	a5,a5,2
	add	a5,a5,a4
	slli	a5,a5,1
	.loc 1 968 23
	add	a5,a3,a5
	sd	a5,-32(s0)
	.loc 1 958 38 discriminator 2
	ld	a5,-24(s0)
	addi	a5,a5,1
	sd	a5,-24(s0)
.L130:
	.loc 1 958 25 discriminator 1
	ld	a4,-24(s0)
	ld	a5,-40(s0)
	bleu	a4,a5,.L132
	.loc 1 988 10
	li	a5,0
.L133:
	.loc 1 989 1
	mv	a0,a5
	ld	ra,56(sp)
	.cfi_restore 1
	ld	s0,48(sp)
	.cfi_restore 8
	.cfi_def_cfa 2, 64
	addi	sp,sp,64
	.cfi_def_cfa_offset 0
	jr	ra
	.cfi_endproc
.LFE7:
	.size	DisplaySmbios64BitStatisticsTable, .-DisplaySmbios64BitStatisticsTable
	.section	.rodata
	.align	3
.LC13:
	.string	"S"
	.string	"H"
	.string	"O"
	.string	"W"
	.string	"_"
	.string	"N"
	.string	"O"
	.string	"N"
	.string	"E"
	.zero	2
	.align	3
.LC14:
	.string	"S"
	.string	"H"
	.string	"O"
	.string	"W"
	.string	"_"
	.string	"O"
	.string	"U"
	.string	"T"
	.string	"L"
	.string	"I"
	.string	"N"
	.string	"E"
	.zero	2
	.align	3
.LC15:
	.string	"S"
	.string	"H"
	.string	"O"
	.string	"W"
	.string	"_"
	.string	"N"
	.string	"O"
	.string	"R"
	.string	"M"
	.string	"A"
	.string	"L"
	.zero	2
	.align	3
.LC16:
	.string	"S"
	.string	"H"
	.string	"O"
	.string	"W"
	.string	"_"
	.string	"D"
	.string	"E"
	.string	"T"
	.string	"A"
	.string	"I"
	.string	"L"
	.zero	2
	.align	3
.LC17:
	.string	"S"
	.string	"H"
	.string	"O"
	.string	"W"
	.string	"_"
	.string	"A"
	.string	"L"
	.string	"L"
	.zero	2
	.align	3
.LC18:
	.string	"U"
	.string	"n"
	.string	"d"
	.string	"e"
	.string	"f"
	.string	"i"
	.string	"n"
	.string	"e"
	.string	"d"
	.string	" "
	.string	"t"
	.string	"y"
	.string	"p"
	.string	"e"
	.zero	2
	.section	.text.GetShowTypeString,"ax",@progbits
	.align	1
	.globl	GetShowTypeString
	.type	GetShowTypeString, @function
GetShowTypeString:
.LFB8:
	.loc 1 1002 1
	.cfi_startproc
	addi	sp,sp,-32
	.cfi_def_cfa_offset 32
	sd	ra,24(sp)
	sd	s0,16(sp)
	.cfi_offset 1, -8
	.cfi_offset 8, -16
	addi	s0,sp,32
	.cfi_def_cfa 8, 0
	mv	a5,a0
	sb	a5,-17(s0)
	.loc 1 1006 3
	lbu	a5,-17(s0)
	sext.w	a5,a5
	li	a4,4
	beq	a5,a4,.L135
	li	a4,4
	bgt	a5,a4,.L136
	li	a4,3
	beq	a5,a4,.L137
	li	a4,3
	bgt	a5,a4,.L136
	li	a4,2
	beq	a5,a4,.L138
	li	a4,2
	bgt	a5,a4,.L136
	beq	a5,zero,.L139
	li	a4,1
	beq	a5,a4,.L140
	j	.L136
.L139:
	.loc 1 1008 14
	lla	a5,.LC13
	j	.L141
.L140:
	.loc 1 1011 14
	lla	a5,.LC14
	j	.L141
.L138:
	.loc 1 1014 14
	lla	a5,.LC15
	j	.L141
.L137:
	.loc 1 1017 14
	lla	a5,.LC16
	j	.L141
.L135:
	.loc 1 1020 14
	lla	a5,.LC17
	j	.L141
.L136:
	.loc 1 1023 14
	lla	a5,.LC18
.L141:
	.loc 1 1025 1
	mv	a0,a5
	ld	ra,24(sp)
	.cfi_restore 1
	ld	s0,16(sp)
	.cfi_restore 8
	.cfi_def_cfa 2, 32
	addi	sp,sp,32
	.cfi_def_cfa_offset 0
	jr	ra
	.cfi_endproc
.LFE8:
	.size	GetShowTypeString, .-GetShowTypeString
	.text
.Letext0:
	.file 2 "/home/kapoagaeming/Downloads/spacemit-image-builder/components/edk2/MdePkg/Include/RiscV64/ProcessorBind.h"
	.file 3 "/home/kapoagaeming/Downloads/spacemit-image-builder/components/edk2/MdePkg/Include/Base.h"
	.file 4 "/home/kapoagaeming/Downloads/spacemit-image-builder/components/edk2/MdePkg/Include/Uefi/UefiBaseType.h"
	.file 5 "/home/kapoagaeming/Downloads/spacemit-image-builder/components/edk2/MdePkg/Include/Uefi/UefiMultiPhase.h"
	.file 6 "/home/kapoagaeming/Downloads/spacemit-image-builder/components/edk2/MdePkg/Include/Protocol/DevicePath.h"
	.file 7 "/home/kapoagaeming/Downloads/spacemit-image-builder/components/edk2/MdePkg/Include/Protocol/SimpleTextIn.h"
	.file 8 "/home/kapoagaeming/Downloads/spacemit-image-builder/components/edk2/MdePkg/Include/Protocol/SimpleTextOut.h"
	.file 9 "/home/kapoagaeming/Downloads/spacemit-image-builder/components/edk2/MdePkg/Include/Uefi/UefiSpec.h"
	.file 10 "/home/kapoagaeming/Downloads/spacemit-image-builder/components/edk2/MdePkg/Include/Uefi/UefiInternalFormRepresentation.h"
	.file 11 "/home/kapoagaeming/Downloads/spacemit-image-builder/components/edk2/MdePkg/Include/Protocol/Shell.h"
	.file 12 "/home/kapoagaeming/Downloads/spacemit-image-builder/components/edk2/ShellPkg/Include/Library/ShellLib.h"
	.file 13 "/home/kapoagaeming/Downloads/spacemit-image-builder/components/edk2/MdePkg/Include/IndustryStandard/SmBios.h"
	.file 14 "/home/kapoagaeming/Downloads/spacemit-image-builder/components/edk2/ShellPkg/Library/UefiShellDebug1CommandsLib/SmbiosView/SmbiosView.h"
	.file 15 "/home/kapoagaeming/Downloads/spacemit-image-builder/components/edk2/ShellPkg/Library/UefiShellDebug1CommandsLib/UefiShellDebug1CommandsLib.h"
	.file 16 "/home/kapoagaeming/Downloads/spacemit-image-builder/components/edk2/ShellPkg/Library/UefiShellDebug1CommandsLib/SmbiosView/PrintInfo.h"
	.file 17 "/home/kapoagaeming/Downloads/spacemit-image-builder/components/edk2/ShellPkg/Library/UefiShellDebug1CommandsLib/SmbiosView/LibSmbiosView.h"
	.file 18 "/home/kapoagaeming/Downloads/spacemit-image-builder/components/edk2/MdePkg/Include/Library/MemoryAllocationLib.h"
	.file 19 "/home/kapoagaeming/Downloads/spacemit-image-builder/components/edk2/ShellPkg/Include/Library/ShellCommandLib.h"
	.file 20 "/home/kapoagaeming/Downloads/spacemit-image-builder/components/edk2/MdePkg/Include/Library/BaseMemoryLib.h"
	.section	.note.GNU-stack,"",@progbits
