	.file	"BootMaintenance.c"
	.option pic
	.option norelax
	.attribute arch, "rv64i2p1_m2p0_a2p1_f2p2_d2p2_c2p0_zicsr2p0_zifencei2p0_zmmul1p0_zaamo1p0_zalrsc1p0_zca1p0_zcd1p0"
	.attribute unaligned_access, 0
	.attribute stack_align, 16
	.text
.Ltext0:
	.cfi_sections	.debug_frame
	.file 0 "/home/kapoagaeming/spacemit-image-builder/components/Build/Milk-V-Jupiter/RELEASE_GCC5/RISCV64/MdeModulePkg/Library/BootMaintenanceManagerUiLib/BootMaintenanceManagerUiLib" "/home/kapoagaeming/spacemit-image-builder/components/edk2/MdeModulePkg/Library/BootMaintenanceManagerUiLib/BootMaintenance.c"
	.globl	mBmmBootHorizontalResolution
	.section	.bss.mBmmBootHorizontalResolution,"aw",@nobits
	.align	2
	.type	mBmmBootHorizontalResolution, @object
	.size	mBmmBootHorizontalResolution, 4
mBmmBootHorizontalResolution:
	.zero	4
	.globl	mBmmBootVerticalResolution
	.section	.bss.mBmmBootVerticalResolution,"aw",@nobits
	.align	2
	.type	mBmmBootVerticalResolution, @object
	.size	mBmmBootVerticalResolution, 4
mBmmBootVerticalResolution:
	.zero	4
	.globl	mBmmBootTextModeColumn
	.section	.bss.mBmmBootTextModeColumn,"aw",@nobits
	.align	2
	.type	mBmmBootTextModeColumn, @object
	.size	mBmmBootTextModeColumn, 4
mBmmBootTextModeColumn:
	.zero	4
	.globl	mBmmBootTextModeRow
	.section	.bss.mBmmBootTextModeRow,"aw",@nobits
	.align	2
	.type	mBmmBootTextModeRow, @object
	.size	mBmmBootTextModeRow, 4
mBmmBootTextModeRow:
	.zero	4
	.globl	mBmmSetupTextModeColumn
	.section	.bss.mBmmSetupTextModeColumn,"aw",@nobits
	.align	2
	.type	mBmmSetupTextModeColumn, @object
	.size	mBmmSetupTextModeColumn, 4
mBmmSetupTextModeColumn:
	.zero	4
	.globl	mBmmSetupTextModeRow
	.section	.bss.mBmmSetupTextModeRow,"aw",@nobits
	.align	2
	.type	mBmmSetupTextModeRow, @object
	.size	mBmmSetupTextModeRow, 4
mBmmSetupTextModeRow:
	.zero	4
	.globl	mBmmSetupHorizontalResolution
	.section	.bss.mBmmSetupHorizontalResolution,"aw",@nobits
	.align	2
	.type	mBmmSetupHorizontalResolution, @object
	.size	mBmmSetupHorizontalResolution, 4
mBmmSetupHorizontalResolution:
	.zero	4
	.globl	mBmmSetupVerticalResolution
	.section	.bss.mBmmSetupVerticalResolution,"aw",@nobits
	.align	2
	.type	mBmmSetupVerticalResolution, @object
	.size	mBmmSetupVerticalResolution, 4
mBmmSetupVerticalResolution:
	.zero	4
	.globl	mBmmModeInitialized
	.section	.bss.mBmmModeInitialized,"aw",@nobits
	.type	mBmmModeInitialized, @object
	.size	mBmmModeInitialized, 1
mBmmModeInitialized:
	.zero	1
	.globl	EndDevicePath
	.section	.data.EndDevicePath,"aw"
	.align	3
	.type	EndDevicePath, @object
	.size	EndDevicePath, 4
EndDevicePath:
	.byte	127
	.byte	-1
	.string	"\004"
	.globl	mBmmHiiVendorDevicePath
	.section	.data.mBmmHiiVendorDevicePath,"aw"
	.align	3
	.type	mBmmHiiVendorDevicePath, @object
	.size	mBmmHiiVendorDevicePath, 24
mBmmHiiVendorDevicePath:
	.byte	1
	.byte	4
	.string	"\024"
	.word	374997647
	.half	2994
	.half	19295
	.base64	"h0d3WS4/ZJk="
	.byte	127
	.byte	-1
	.string	"\004"
	.globl	mBootMaintGuid
	.section	.data.mBootMaintGuid,"aw"
	.align	3
	.type	mBootMaintGuid, @object
	.size	mBootMaintGuid, 16
mBootMaintGuid:
	.word	1679964103
	.half	13780
	.half	18221
	.base64	"g2US4MzyeiI="
	.globl	mBootMaintStorageName
	.section	.data.mBootMaintStorageName,"aw"
	.align	3
	.type	mBootMaintStorageName, @object
	.size	mBootMaintStorageName, 16
mBootMaintStorageName:
	.string	"B"
	.string	"m"
	.string	"m"
	.string	"D"
	.string	"a"
	.string	"t"
	.string	"a"
	.zero	2
	.globl	gBootMaintenancePrivate
	.section	.data.rel.local.gBootMaintenancePrivate,"aw"
	.align	3
	.type	gBootMaintenancePrivate, @object
	.size	gBootMaintenancePrivate, 7264
gBootMaintenancePrivate:
	.dword	1801675331
	.dword	0
	.dword	0
	.dword	BootMaintExtractConfig
	.dword	BootMaintRouteConfig
	.dword	BootMaintCallback
	.zero	7216
	.globl	mBmmCallbackInfo
	.section	.data.rel.local.mBmmCallbackInfo,"aw"
	.align	3
	.type	mBmmCallbackInfo, @object
	.size	mBmmCallbackInfo, 8
mBmmCallbackInfo:
	.dword	gBootMaintenancePrivate
	.globl	mAllMenuInit
	.section	.bss.mAllMenuInit,"aw",@nobits
	.type	mAllMenuInit, @object
	.size	mAllMenuInit, 1
mAllMenuInit:
	.zero	1
	.globl	mFirstEnterBMMForm
	.section	.bss.mFirstEnterBMMForm,"aw",@nobits
	.type	mFirstEnterBMMForm, @object
	.size	mFirstEnterBMMForm, 1
mFirstEnterBMMForm:
	.zero	1
	.section	.text.BmmSetConsoleMode,"ax",@progbits
	.align	1
	.globl	BmmSetConsoleMode
	.type	BmmSetConsoleMode, @function
BmmSetConsoleMode:
.LFB0:
	.file 1 "/home/kapoagaeming/spacemit-image-builder/components/edk2/MdeModulePkg/Library/BootMaintenanceManagerUiLib/BootMaintenance.c"
	.loc 1 128 1
	.cfi_startproc
	addi	sp,sp,-144
	.cfi_def_cfa_offset 144
	sd	ra,136(sp)
	sd	s0,128(sp)
	.cfi_offset 1, -8
	.cfi_offset 8, -16
	addi	s0,sp,144
	.cfi_def_cfa 8, 0
	mv	a5,a0
	sb	a5,-129(s0)
	.loc 1 147 14
	sw	zero,-20(s0)
	.loc 1 148 15
	sw	zero,-24(s0)
	.loc 1 153 15
	la	a5,gBS
	ld	a5,0(a5)
	ld	a5,152(a5)
	.loc 1 154 22
	la	a4,gST
	ld	a4,0(a4)
	.loc 1 153 12
	ld	a4,56(a4)
	addi	a3,s0,-72
	mv	a2,a3
	la	a1,gEfiGraphicsOutputProtocolGuid
	mv	a0,a4
	jalr	a5
.LVL0:
	sd	a0,-64(s0)
	.loc 1 158 34
	ld	a5,-64(s0)
	.loc 1 158 6
	bge	a5,zero,.L2
	.loc 1 159 20
	sd	zero,-72(s0)
.L2:
	.loc 1 162 15
	la	a5,gBS
	ld	a5,0(a5)
	ld	a5,152(a5)
	.loc 1 163 22
	la	a4,gST
	ld	a4,0(a4)
	.loc 1 162 12
	ld	a4,56(a4)
	addi	a3,s0,-80
	mv	a2,a3
	la	a1,gEfiSimpleTextOutProtocolGuid
	mv	a0,a4
	jalr	a5
.LVL1:
	sd	a0,-64(s0)
	.loc 1 167 34
	ld	a5,-64(s0)
	.loc 1 167 6
	bge	a5,zero,.L3
	.loc 1 168 19
	sd	zero,-80(s0)
.L3:
	.loc 1 171 23
	ld	a5,-72(s0)
	.loc 1 171 6
	beq	a5,zero,.L4
	.loc 1 171 58 discriminator 1
	ld	a5,-80(s0)
	.loc 1 171 40 discriminator 1
	bne	a5,zero,.L5
.L4:
	.loc 1 172 12
	li	a5,-1
	slli	a5,a5,63
	addi	a5,a5,3
	j	.L28
.L5:
	.loc 1 175 6
	lbu	a5,-129(s0)
	andi	a5,a5,0xff
	beq	a5,zero,.L7
	.loc 1 179 29
	lla	a5,mBmmSetupHorizontalResolution
	lw	a5,0(a5)
	sw	a5,-32(s0)
	.loc 1 180 27
	lla	a5,mBmmSetupVerticalResolution
	lw	a5,0(a5)
	sw	a5,-36(s0)
	.loc 1 181 16
	lla	a5,mBmmSetupTextModeColumn
	lw	a5,0(a5)
	sw	a5,-40(s0)
	.loc 1 182 13
	lla	a5,mBmmSetupTextModeRow
	lw	a5,0(a5)
	sw	a5,-44(s0)
	j	.L8
.L7:
	.loc 1 187 29
	lla	a5,mBmmBootHorizontalResolution
	lw	a5,0(a5)
	sw	a5,-32(s0)
	.loc 1 188 27
	lla	a5,mBmmBootVerticalResolution
	lw	a5,0(a5)
	sw	a5,-36(s0)
	.loc 1 189 16
	lla	a5,mBmmBootTextModeColumn
	lw	a5,0(a5)
	sw	a5,-40(s0)
	.loc 1 190 13
	lla	a5,mBmmBootTextModeRow
	lw	a5,0(a5)
	sw	a5,-44(s0)
.L8:
	.loc 1 193 22
	ld	a5,-72(s0)
	.loc 1 193 6
	beq	a5,zero,.L9
	.loc 1 194 32
	ld	a5,-72(s0)
	ld	a5,24(a5)
	.loc 1 194 16
	lw	a5,0(a5)
	sw	a5,-20(s0)
.L9:
	.loc 1 197 21
	ld	a5,-80(s0)
	.loc 1 197 6
	beq	a5,zero,.L10
	.loc 1 198 32
	ld	a5,-80(s0)
	ld	a5,72(a5)
	.loc 1 198 38
	lw	a5,0(a5)
	.loc 1 198 17
	sw	a5,-24(s0)
.L10:
	.loc 1 208 19
	sw	zero,-28(s0)
	.loc 1 208 3
	j	.L11
.L21:
	.loc 1 209 28
	ld	a5,-72(s0)
	ld	a5,0(a5)
	.loc 1 209 14
	ld	a4,-72(s0)
	addi	a3,s0,-96
	addi	a2,s0,-88
	lw	a1,-28(s0)
	mv	a0,a4
	jalr	a5
.LVL2:
	sd	a0,-64(s0)
	.loc 1 215 9
	ld	a5,-64(s0)
	.loc 1 215 8
	blt	a5,zero,.L12
	.loc 1 216 16
	ld	a5,-96(s0)
	lw	a5,4(a5)
	.loc 1 216 10
	lw	a4,-32(s0)
	sext.w	a4,a4
	bne	a4,a5,.L13
	.loc 1 217 16
	ld	a5,-96(s0)
	lw	a5,8(a5)
	.loc 1 216 67 discriminator 1
	lw	a4,-36(s0)
	sext.w	a4,a4
	bne	a4,a5,.L13
	.loc 1 219 28
	ld	a5,-72(s0)
	ld	a5,24(a5)
	.loc 1 219 34
	ld	a5,8(a5)
	.loc 1 219 40
	lw	a5,4(a5)
	.loc 1 219 12
	lw	a4,-32(s0)
	sext.w	a4,a4
	bne	a4,a5,.L14
	.loc 1 220 28
	ld	a5,-72(s0)
	ld	a5,24(a5)
	.loc 1 220 34
	ld	a5,8(a5)
	.loc 1 220 40
	lw	a5,8(a5)
	.loc 1 219 91 discriminator 1
	lw	a4,-36(s0)
	sext.w	a4,a4
	bne	a4,a5,.L14
	.loc 1 225 33
	ld	a5,-80(s0)
	ld	a5,24(a5)
	.loc 1 225 20
	ld	a0,-80(s0)
	.loc 1 225 74
	ld	a4,-80(s0)
	ld	a4,72(a4)
	.loc 1 225 80
	lw	a4,4(a4)
	.loc 1 225 20
	mv	a1,a4
	addi	a3,s0,-128
	addi	a4,s0,-120
	mv	a2,a4
	jalr	a5
.LVL3:
	sd	a0,-64(s0)
	.loc 1 227 30
	lwu	a4,-40(s0)
	ld	a5,-120(s0)
	.loc 1 227 14
	bne	a4,a5,.L15
	.loc 1 227 60 discriminator 1
	lwu	a4,-44(s0)
	ld	a5,-128(s0)
	.loc 1 227 45 discriminator 1
	bne	a4,a5,.L15
	.loc 1 231 13
	ld	a5,-96(s0)
	mv	a0,a5
	call	FreePool@plt
	.loc 1 232 20
	li	a5,0
	j	.L28
.L15:
	.loc 1 237 24
	sd	zero,-56(s0)
	.loc 1 237 13
	j	.L16
.L18:
	.loc 1 238 37
	ld	a5,-80(s0)
	ld	a5,24(a5)
	.loc 1 238 24
	ld	a4,-80(s0)
	addi	a3,s0,-128
	addi	a2,s0,-120
	ld	a1,-56(s0)
	mv	a0,a4
	jalr	a5
.LVL4:
	sd	a0,-64(s0)
	.loc 1 239 19
	ld	a5,-64(s0)
	.loc 1 239 18
	blt	a5,zero,.L17
	.loc 1 240 36
	lwu	a4,-40(s0)
	ld	a5,-120(s0)
	.loc 1 240 20
	bne	a4,a5,.L17
	.loc 1 240 66 discriminator 1
	lwu	a4,-44(s0)
	ld	a5,-128(s0)
	.loc 1 240 51 discriminator 1
	bne	a4,a5,.L17
	.loc 1 244 41
	ld	a5,-80(s0)
	ld	a5,32(a5)
	.loc 1 244 28
	ld	a4,-80(s0)
	ld	a1,-56(s0)
	mv	a0,a4
	jalr	a5
.LVL5:
	sd	a0,-64(s0)
	.loc 1 249 28
	lla	a5,mBmmSetupTextModeColumn
	lw	a5,0(a5)
	mv	a1,a5
	li	a0,1
	call	LibPcdSet32S@plt
	sd	a0,-64(s0)
	.loc 1 251 28
	lla	a5,mBmmSetupTextModeRow
	lw	a5,0(a5)
	mv	a1,a5
	li	a0,2
	call	LibPcdSet32S@plt
	sd	a0,-64(s0)
	.loc 1 253 19
	ld	a5,-96(s0)
	mv	a0,a5
	call	FreePool@plt
	.loc 1 254 26
	li	a5,0
	j	.L28
.L17:
	.loc 1 237 55 discriminator 2
	ld	a5,-56(s0)
	addi	a5,a5,1
	sd	a5,-56(s0)
.L16:
	.loc 1 237 35 discriminator 1
	lwu	a5,-24(s0)
	ld	a4,-56(s0)
	bltu	a4,a5,.L18
	.loc 1 259 23
	lwu	a5,-24(s0)
	.loc 1 259 16
	ld	a4,-56(s0)
	bne	a4,a5,.L29
	.loc 1 263 15
	ld	a5,-96(s0)
	mv	a0,a5
	call	FreePool@plt
	.loc 1 264 22
	li	a5,-1
	slli	a5,a5,63
	addi	a5,a5,3
	j	.L28
.L14:
	.loc 1 272 34
	ld	a5,-72(s0)
	ld	a5,8(a5)
	.loc 1 272 20
	ld	a4,-72(s0)
	lw	a3,-28(s0)
	mv	a1,a3
	mv	a0,a4
	jalr	a5
.LVL6:
	sd	a0,-64(s0)
	.loc 1 273 15
	ld	a5,-64(s0)
	.loc 1 273 14
	blt	a5,zero,.L13
	.loc 1 274 13
	ld	a5,-96(s0)
	mv	a0,a5
	call	FreePool@plt
	.loc 1 275 13
	j	.L20
.L29:
	.loc 1 227 14
	nop
.L13:
	.loc 1 280 7
	ld	a5,-96(s0)
	mv	a0,a5
	call	FreePool@plt
.L12:
	.loc 1 208 59 discriminator 2
	lw	a5,-28(s0)
	addiw	a5,a5,1
	sw	a5,-28(s0)
.L11:
	.loc 1 208 35 discriminator 1
	lw	a5,-28(s0)
	mv	a4,a5
	lw	a5,-20(s0)
	sext.w	a4,a4
	sext.w	a5,a5
	bltu	a4,a5,.L21
.L20:
	.loc 1 284 6
	lw	a5,-28(s0)
	mv	a4,a5
	lw	a5,-20(s0)
	sext.w	a4,a4
	sext.w	a5,a5
	bne	a4,a5,.L22
	.loc 1 288 12
	li	a5,-1
	slli	a5,a5,63
	addi	a5,a5,3
	j	.L28
.L22:
	.loc 1 295 12
	lw	a5,-32(s0)
	mv	a1,a5
	li	a0,11
	call	LibPcdSet32S@plt
	sd	a0,-64(s0)
	.loc 1 297 12
	lw	a5,-36(s0)
	mv	a1,a5
	li	a0,12
	call	LibPcdSet32S@plt
	sd	a0,-64(s0)
	.loc 1 299 12
	lw	a5,-40(s0)
	mv	a1,a5
	li	a0,1
	call	LibPcdSet32S@plt
	sd	a0,-64(s0)
	.loc 1 301 12
	lw	a5,-44(s0)
	mv	a1,a5
	li	a0,2
	call	LibPcdSet32S@plt
	sd	a0,-64(s0)
	.loc 1 309 15
	la	a5,gBS
	ld	a5,0(a5)
	ld	a5,312(a5)
	.loc 1 309 12
	addi	a4,s0,-112
	addi	a3,s0,-104
	li	a2,0
	la	a1,gEfiSimpleTextOutProtocolGuid
	li	a0,2
	jalr	a5
.LVL7:
	sd	a0,-64(s0)
	.loc 1 316 7
	ld	a5,-64(s0)
	.loc 1 316 6
	blt	a5,zero,.L23
	.loc 1 317 16
	sd	zero,-56(s0)
	.loc 1 317 5
	j	.L24
.L25:
	.loc 1 318 10
	la	a5,gBS
	ld	a5,0(a5)
	ld	a5,272(a5)
	.loc 1 318 46
	ld	a3,-112(s0)
	ld	a4,-56(s0)
	slli	a4,a4,3
	add	a4,a3,a4
	.loc 1 318 7
	ld	a4,0(a4)
	li	a2,0
	li	a1,0
	mv	a0,a4
	jalr	a5
.LVL8:
	.loc 1 317 47 discriminator 3
	ld	a5,-56(s0)
	addi	a5,a5,1
	sd	a5,-56(s0)
.L24:
	.loc 1 317 27 discriminator 1
	ld	a5,-104(s0)
	ld	a4,-56(s0)
	bltu	a4,a5,.L25
	.loc 1 321 16
	sd	zero,-56(s0)
	.loc 1 321 5
	j	.L26
.L27:
	.loc 1 322 10
	la	a5,gBS
	ld	a5,0(a5)
	ld	a5,264(a5)
	.loc 1 322 43
	ld	a3,-112(s0)
	ld	a4,-56(s0)
	slli	a4,a4,3
	add	a4,a3,a4
	.loc 1 322 7
	ld	a4,0(a4)
	li	a3,1
	li	a2,0
	li	a1,0
	mv	a0,a4
	jalr	a5
.LVL9:
	.loc 1 321 47 discriminator 3
	ld	a5,-56(s0)
	addi	a5,a5,1
	sd	a5,-56(s0)
.L26:
	.loc 1 321 27 discriminator 1
	ld	a5,-104(s0)
	ld	a4,-56(s0)
	bltu	a4,a5,.L27
	.loc 1 325 22
	ld	a5,-112(s0)
	.loc 1 325 8
	beq	a5,zero,.L23
	.loc 1 326 7
	ld	a5,-112(s0)
	mv	a0,a5
	call	FreePool@plt
.L23:
	.loc 1 330 10
	li	a5,0
.L28:
	.loc 1 331 1
	mv	a0,a5
	ld	ra,136(sp)
	.cfi_restore 1
	ld	s0,128(sp)
	.cfi_restore 8
	.cfi_def_cfa 2, 144
	addi	sp,sp,144
	.cfi_def_cfa_offset 0
	jr	ra
	.cfi_endproc
.LFE0:
	.size	BmmSetConsoleMode, .-BmmSetConsoleMode
	.section	.text.UiDevicePathToStr,"ax",@progbits
	.align	1
	.globl	UiDevicePathToStr
	.type	UiDevicePathToStr, @function
UiDevicePathToStr:
.LFB1:
	.loc 1 345 1
	.cfi_startproc
	addi	sp,sp,-64
	.cfi_def_cfa_offset 64
	sd	ra,56(sp)
	sd	s0,48(sp)
	.cfi_offset 1, -8
	.cfi_offset 8, -16
	addi	s0,sp,64
	.cfi_def_cfa 8, 0
	sd	a0,-56(s0)
	.loc 1 350 6
	ld	a5,-56(s0)
	bne	a5,zero,.L31
	.loc 1 351 12
	li	a5,0
	j	.L33
.L31:
	.loc 1 354 15
	la	a5,gBS
	ld	a5,0(a5)
	ld	a5,320(a5)
	.loc 1 354 12
	addi	a4,s0,-40
	mv	a2,a4
	li	a1,0
	la	a0,gEfiDevicePathToTextProtocolGuid
	jalr	a5
.LVL10:
	sd	a0,-24(s0)
	.loc 1 360 25
	ld	a5,-40(s0)
	ld	a5,8(a5)
	.loc 1 360 12
	li	a2,1
	li	a1,0
	ld	a0,-56(s0)
	jalr	a5
.LVL11:
	sd	a0,-32(s0)
	.loc 1 366 10
	ld	a5,-32(s0)
.L33:
	.loc 1 367 1
	mv	a0,a5
	ld	ra,56(sp)
	.cfi_restore 1
	ld	s0,48(sp)
	.cfi_restore 8
	.cfi_def_cfa 2, 64
	addi	sp,sp,64
	.cfi_def_cfa_offset 0
	jr	ra
	.cfi_endproc
.LFE1:
	.size	UiDevicePathToStr, .-UiDevicePathToStr
	.section	.rodata
	.align	3
.LC0:
	.string	"\\"
	.zero	2
	.section	.text.ExtractFileNameFromDevicePath,"ax",@progbits
	.align	1
	.globl	ExtractFileNameFromDevicePath
	.type	ExtractFileNameFromDevicePath, @function
ExtractFileNameFromDevicePath:
.LFB2:
	.loc 1 382 1
	.cfi_startproc
	addi	sp,sp,-80
	.cfi_def_cfa_offset 80
	sd	ra,72(sp)
	sd	s0,64(sp)
	.cfi_offset 1, -8
	.cfi_offset 8, -16
	addi	s0,sp,80
	.cfi_def_cfa 8, 0
	sd	a0,-72(s0)
	.loc 1 391 12
	ld	a0,-72(s0)
	call	UiDevicePathToStr
	sd	a0,-40(s0)
	.loc 1 392 15
	ld	a5,-40(s0)
	sd	a5,-24(s0)
	.loc 1 393 13
	ld	a5,-40(s0)
	sd	a5,-32(s0)
	.loc 1 394 12
	sd	zero,-48(s0)
	.loc 1 396 9
	j	.L35
.L36:
	.loc 1 397 15
	ld	a5,-24(s0)
	addi	a5,a5,2
	sd	a5,-32(s0)
	.loc 1 398 19
	lla	a1,.LC0
	ld	a0,-32(s0)
	call	StrStr@plt
	sd	a0,-24(s0)
.L35:
	.loc 1 396 22
	ld	a5,-24(s0)
	bne	a5,zero,.L36
	.loc 1 401 12
	ld	a0,-32(s0)
	call	StrLen@plt
	sd	a0,-56(s0)
	.loc 1 402 40
	ld	a5,-56(s0)
	addi	a5,a5,1
	.loc 1 402 45
	slli	a5,a5,1
	.loc 1 402 14
	ld	a1,-32(s0)
	mv	a0,a5
	call	AllocateCopyPool@plt
	sd	a0,-48(s0)
	.loc 1 403 6
	ld	a5,-48(s0)
	beq	a5,zero,.L37
	.loc 1 404 16
	ld	a5,-56(s0)
	slli	a5,a5,1
	ld	a4,-48(s0)
	add	a5,a4,a5
	.loc 1 404 26
	sh	zero,0(a5)
.L37:
	.loc 1 407 3
	ld	a0,-40(s0)
	call	FreePool@plt
	.loc 1 409 10
	ld	a5,-48(s0)
	.loc 1 410 1
	mv	a0,a5
	ld	ra,72(sp)
	.cfi_restore 1
	ld	s0,64(sp)
	.cfi_restore 8
	.cfi_def_cfa 2, 80
	addi	sp,sp,80
	.cfi_def_cfa_offset 0
	jr	ra
	.cfi_endproc
.LFE2:
	.size	ExtractFileNameFromDevicePath, .-ExtractFileNameFromDevicePath
	.section	.text.BmmExtractDevicePathFromHiiHandle,"ax",@progbits
	.align	1
	.globl	BmmExtractDevicePathFromHiiHandle
	.type	BmmExtractDevicePathFromHiiHandle, @function
BmmExtractDevicePathFromHiiHandle:
.LFB3:
	.loc 1 425 1
	.cfi_startproc
	addi	sp,sp,-48
	.cfi_def_cfa_offset 48
	sd	ra,40(sp)
	sd	s0,32(sp)
	.cfi_offset 1, -8
	.cfi_offset 8, -16
	addi	s0,sp,48
	.cfi_def_cfa 8, 0
	sd	a0,-40(s0)
	.loc 1 431 6
	ld	a5,-40(s0)
	bne	a5,zero,.L40
	.loc 1 432 12
	li	a5,0
	j	.L43
.L40:
	.loc 1 435 24
	la	a5,gHiiDatabase
	ld	a5,0(a5)
	ld	a5,80(a5)
	.loc 1 435 12
	la	a4,gHiiDatabase
	ld	a4,0(a4)
	addi	a3,s0,-32
	mv	a2,a3
	ld	a1,-40(s0)
	mv	a0,a4
	jalr	a5
.LVL12:
	sd	a0,-24(s0)
	.loc 1 436 34
	ld	a5,-24(s0)
	.loc 1 436 6
	bge	a5,zero,.L42
	.loc 1 437 12
	li	a5,0
	j	.L43
.L42:
	.loc 1 443 10
	ld	a5,-32(s0)
	.loc 1 443 35
	mv	a0,a5
	call	DevicePathFromHandle@plt
	mv	a5,a0
	.loc 1 443 10 discriminator 1
	li	a2,0
	li	a1,0
	mv	a0,a5
	call	ConvertDevicePathToText@plt
	mv	a5,a0
.L43:
	.loc 1 444 1
	mv	a0,a5
	ld	ra,40(sp)
	.cfi_restore 1
	ld	s0,32(sp)
	.cfi_restore 8
	.cfi_def_cfa 2, 48
	addi	sp,sp,48
	.cfi_def_cfa_offset 0
	jr	ra
	.cfi_endproc
.LFE3:
	.size	BmmExtractDevicePathFromHiiHandle, .-BmmExtractDevicePathFromHiiHandle
	.section	.text.HiiToLower,"ax",@progbits
	.align	1
	.globl	HiiToLower
	.type	HiiToLower, @function
HiiToLower:
.LFB4:
	.loc 1 457 1
	.cfi_startproc
	addi	sp,sp,-48
	.cfi_def_cfa_offset 48
	sd	ra,40(sp)
	sd	s0,32(sp)
	.cfi_offset 1, -8
	.cfi_offset 8, -16
	addi	s0,sp,48
	.cfi_def_cfa 8, 0
	sd	a0,-40(s0)
	.loc 1 466 15
	ld	a5,-40(s0)
	sd	a5,-24(s0)
	.loc 1 466 37
	sb	zero,-25(s0)
	.loc 1 466 3
	j	.L45
.L49:
	.loc 1 467 9
	ld	a5,-24(s0)
	lhu	a5,0(a5)
	.loc 1 467 8
	sext.w	a4,a5
	li	a5,61
	bne	a4,a5,.L46
	.loc 1 468 13
	li	a5,1
	sb	a5,-25(s0)
	j	.L47
.L46:
	.loc 1 469 16
	ld	a5,-24(s0)
	lhu	a5,0(a5)
	.loc 1 469 15
	sext.w	a4,a5
	li	a5,38
	bne	a4,a5,.L48
	.loc 1 470 13
	sb	zero,-25(s0)
	j	.L47
.L48:
	.loc 1 471 15
	lbu	a5,-25(s0)
	andi	a5,a5,0xff
	beq	a5,zero,.L47
	.loc 1 471 26 discriminator 1
	ld	a5,-24(s0)
	lhu	a5,0(a5)
	.loc 1 471 22 discriminator 1
	sext.w	a4,a5
	li	a5,64
	bleu	a4,a5,.L47
	.loc 1 471 47 discriminator 2
	ld	a5,-24(s0)
	lhu	a5,0(a5)
	.loc 1 471 43 discriminator 2
	sext.w	a4,a5
	li	a5,70
	bgtu	a4,a5,.L47
	.loc 1 472 26
	ld	a5,-24(s0)
	lhu	a5,0(a5)
	.loc 1 472 17
	addiw	a5,a5,32
	slli	a4,a5,48
	srli	a4,a4,48
	.loc 1 472 15
	ld	a5,-24(s0)
	sh	a4,0(a5)
.L47:
	.loc 1 466 82 discriminator 2
	ld	a5,-24(s0)
	addi	a5,a5,2
	sd	a5,-24(s0)
.L45:
	.loc 1 466 58 discriminator 1
	ld	a5,-24(s0)
	lhu	a5,0(a5)
	.loc 1 466 66 discriminator 1
	bne	a5,zero,.L49
	.loc 1 475 1
	nop
	nop
	ld	ra,40(sp)
	.cfi_restore 1
	ld	s0,32(sp)
	.cfi_restore 8
	.cfi_def_cfa 2, 48
	addi	sp,sp,48
	.cfi_def_cfa_offset 0
	jr	ra
	.cfi_endproc
.LFE4:
	.size	HiiToLower, .-HiiToLower
	.section	.rodata
	.align	3
.LC1:
	.string	"&"
	.string	"O"
	.string	"F"
	.string	"F"
	.string	"S"
	.string	"E"
	.string	"T"
	.string	"="
	.zero	2
	.align	3
.LC2:
	.string	"&"
	.string	"O"
	.string	"F"
	.string	"F"
	.string	"S"
	.string	"E"
	.string	"T"
	.string	"="
	.string	"%"
	.string	"0"
	.string	"4"
	.string	"x"
	.zero	2
	.section	.text.UpdateProgress,"ax",@progbits
	.align	1
	.globl	UpdateProgress
	.type	UpdateProgress, @function
UpdateProgress:
.LFB5:
	.loc 1 489 1
	.cfi_startproc
	addi	sp,sp,-64
	.cfi_def_cfa_offset 64
	sd	ra,56(sp)
	sd	s0,48(sp)
	.cfi_offset 1, -8
	.cfi_offset 8, -16
	addi	s0,sp,64
	.cfi_def_cfa 8, 0
	sd	a0,-56(s0)
	sd	a1,-64(s0)
	.loc 1 494 13
	sd	zero,-32(s0)
	.loc 1 495 16
	sd	zero,-24(s0)
	.loc 1 501 12
	lla	a0,.LC1
	call	StrLen@plt
	mv	a5,a0
	.loc 1 501 10 discriminator 1
	addi	a5,a5,5
	sd	a5,-40(s0)
	.loc 1 503 40
	ld	a5,-40(s0)
	slli	a5,a5,1
	.loc 1 503 15
	mv	a0,a5
	call	AllocateZeroPool@plt
	sd	a0,-32(s0)
	.loc 1 505 6
	ld	a5,-32(s0)
	bne	a5,zero,.L51
	.loc 1 506 12
	li	a5,0
	j	.L52
.L51:
	.loc 1 509 3
	ld	a3,-56(s0)
	lla	a2,.LC2
	li	a1,26
	ld	a0,-32(s0)
	call	UnicodeSPrint@plt
	.loc 1 516 18
	ld	a1,-32(s0)
	ld	a0,-64(s0)
	call	StrStr@plt
	sd	a0,-24(s0)
	.loc 1 518 6
	ld	a5,-24(s0)
	bne	a5,zero,.L53
	.loc 1 522 5
	ld	a0,-32(s0)
	call	HiiToLower
	.loc 1 523 20
	ld	a1,-32(s0)
	ld	a0,-64(s0)
	call	StrStr@plt
	sd	a0,-24(s0)
.L53:
	.loc 1 526 3
	ld	a0,-32(s0)
	call	FreePool@plt
	.loc 1 528 10
	ld	a5,-24(s0)
.L52:
	.loc 1 529 1
	mv	a0,a5
	ld	ra,56(sp)
	.cfi_restore 1
	ld	s0,48(sp)
	.cfi_restore 8
	.cfi_def_cfa 2, 64
	addi	sp,sp,64
	.cfi_def_cfa_offset 0
	jr	ra
	.cfi_endproc
.LFE5:
	.size	UpdateProgress, .-UpdateProgress
	.section	.text.UpdateTerminalContent,"ax",@progbits
	.align	1
	.globl	UpdateTerminalContent
	.type	UpdateTerminalContent, @function
UpdateTerminalContent:
.LFB6:
	.loc 1 541 1
	.cfi_startproc
	addi	sp,sp,-64
	.cfi_def_cfa_offset 64
	sd	ra,56(sp)
	sd	s0,48(sp)
	.cfi_offset 1, -8
	.cfi_offset 8, -16
	addi	s0,sp,64
	.cfi_def_cfa 8, 0
	sd	a0,-56(s0)
	.loc 1 546 14
	sh	zero,-18(s0)
	.loc 1 546 3
	j	.L55
.L56:
	.loc 1 547 20
	lhu	a5,-18(s0)
	mv	a1,a5
	la	a0,TerminalMenu
	call	BOpt_GetMenuEntry@plt
	sd	a0,-32(s0)
	.loc 1 549 24
	ld	a5,-32(s0)
	ld	a5,64(a5)
	sd	a5,-40(s0)
	.loc 1 550 61
	lhu	a5,-18(s0)
	sext.w	a5,a5
	ld	a4,-56(s0)
	add	a5,a4,a5
	lbu	a4,2028(a5)
	.loc 1 550 39
	ld	a5,-40(s0)
	sb	a4,11(a5)
	.loc 1 552 69
	lhu	a5,-18(s0)
	sext.w	a5,a5
	ld	a4,-56(s0)
	add	a5,a4,a5
	lbu	a5,2028(a5)
	sext.w	a5,a5
	.loc 1 552 77
	la	a4,BaudRateList
	slli	a5,a5,4
	add	a5,a4,a5
	ld	a4,0(a5)
	.loc 1 552 34
	ld	a5,-40(s0)
	sd	a4,0(a5)
	.loc 1 553 61
	lhu	a5,-18(s0)
	sext.w	a5,a5
	ld	a4,-56(s0)
	add	a5,a4,a5
	li	a4,4096
	add	a5,a4,a5
	lbu	a4,-1968(a5)
	.loc 1 553 39
	ld	a5,-40(s0)
	sb	a4,12(a5)
	.loc 1 555 76
	lhu	a5,-18(s0)
	sext.w	a5,a5
	ld	a4,-56(s0)
	add	a5,a4,a5
	li	a4,4096
	add	a5,a4,a5
	lbu	a5,-1968(a5)
	sext.w	a5,a5
	.loc 1 555 84
	la	a4,DataBitsList
	slli	a5,a5,4
	add	a5,a4,a5
	ld	a5,0(a5)
	.loc 1 555 36
	andi	a4,a5,0xff
	.loc 1 555 34
	ld	a5,-40(s0)
	sb	a4,8(a5)
	.loc 1 556 61
	lhu	a5,-18(s0)
	sext.w	a5,a5
	ld	a4,-56(s0)
	add	a5,a4,a5
	li	a4,4096
	add	a5,a4,a5
	lbu	a4,-1868(a5)
	.loc 1 556 39
	ld	a5,-40(s0)
	sb	a4,14(a5)
	.loc 1 558 76
	lhu	a5,-18(s0)
	sext.w	a5,a5
	ld	a4,-56(s0)
	add	a5,a4,a5
	li	a4,4096
	add	a5,a4,a5
	lbu	a5,-1868(a5)
	sext.w	a5,a5
	.loc 1 558 84
	la	a4,StopBitsList
	slli	a5,a5,4
	add	a5,a4,a5
	ld	a5,0(a5)
	.loc 1 558 36
	andi	a4,a5,0xff
	.loc 1 558 34
	ld	a5,-40(s0)
	sb	a4,10(a5)
	.loc 1 559 57
	lhu	a5,-18(s0)
	sext.w	a5,a5
	ld	a4,-56(s0)
	add	a5,a4,a5
	li	a4,4096
	add	a5,a4,a5
	lbu	a4,-1768(a5)
	.loc 1 559 37
	ld	a5,-40(s0)
	sb	a4,13(a5)
	.loc 1 561 70
	lhu	a5,-18(s0)
	sext.w	a5,a5
	ld	a4,-56(s0)
	add	a5,a4,a5
	li	a4,4096
	add	a5,a4,a5
	lbu	a5,-1768(a5)
	sext.w	a5,a5
	.loc 1 561 78
	la	a4,ParityList
	slli	a5,a5,4
	add	a5,a4,a5
	ld	a5,0(a5)
	.loc 1 561 34
	andi	a4,a5,0xff
	.loc 1 561 32
	ld	a5,-40(s0)
	sb	a4,9(a5)
	.loc 1 562 64
	lhu	a5,-18(s0)
	sext.w	a5,a5
	ld	a4,-56(s0)
	add	a5,a4,a5
	li	a4,4096
	add	a5,a4,a5
	lbu	a4,-1668(a5)
	.loc 1 562 38
	ld	a5,-40(s0)
	sb	a4,19(a5)
	.loc 1 563 62
	lhu	a5,-18(s0)
	sext.w	a5,a5
	ld	a4,-56(s0)
	add	a5,a4,a5
	li	a4,4096
	add	a5,a4,a5
	lbu	a4,-1568(a5)
	.loc 1 563 37
	ld	a5,-40(s0)
	sb	a4,15(a5)
	.loc 1 564 5
	ld	a5,-40(s0)
	ld	a5,24(a5)
	li	a1,0
	mv	a0,a5
	call	ChangeTerminalDevicePath@plt
	.loc 1 546 57 discriminator 3
	lhu	a5,-18(s0)
	addiw	a5,a5,1
	sh	a5,-18(s0)
.L55:
	.loc 1 546 25 discriminator 1
	lhu	a4,-18(s0)
	.loc 1 546 39 discriminator 1
	la	a5,TerminalMenu
	ld	a5,24(a5)
	.loc 1 546 25 discriminator 1
	bltu	a4,a5,.L56
	.loc 1 569 1
	nop
	nop
	ld	ra,56(sp)
	.cfi_restore 1
	ld	s0,48(sp)
	.cfi_restore 8
	.cfi_def_cfa 2, 64
	addi	sp,sp,64
	.cfi_def_cfa_offset 0
	jr	ra
	.cfi_endproc
.LFE6:
	.size	UpdateTerminalContent, .-UpdateTerminalContent
	.section	.rodata
	.align	3
.LC3:
	.string	"C"
	.string	"o"
	.string	"n"
	.string	"I"
	.string	"n"
	.zero	2
	.align	3
.LC4:
	.string	"C"
	.string	"o"
	.string	"n"
	.string	"O"
	.string	"u"
	.string	"t"
	.zero	2
	.align	3
.LC5:
	.string	"E"
	.string	"r"
	.string	"r"
	.string	"O"
	.string	"u"
	.string	"t"
	.zero	2
	.section	.text.UpdateConsoleContent,"ax",@progbits
	.align	1
	.globl	UpdateConsoleContent
	.type	UpdateConsoleContent, @function
UpdateConsoleContent:
.LFB7:
	.loc 1 583 1
	.cfi_startproc
	addi	sp,sp,-64
	.cfi_def_cfa_offset 64
	sd	ra,56(sp)
	sd	s0,48(sp)
	.cfi_offset 1, -8
	.cfi_offset 8, -16
	addi	s0,sp,64
	.cfi_def_cfa 8, 0
	sd	a0,-56(s0)
	sd	a1,-64(s0)
	.loc 1 589 7
	lla	a1,.LC3
	ld	a0,-56(s0)
	call	StrCmp@plt
	mv	a5,a0
	.loc 1 589 6 discriminator 1
	bne	a5,zero,.L58
	.loc 1 590 16
	sh	zero,-18(s0)
	.loc 1 590 5
	j	.L59
.L60:
	.loc 1 591 22
	lhu	a5,-18(s0)
	mv	a1,a5
	la	a0,ConsoleInpMenu
	call	BOpt_GetMenuEntry@plt
	sd	a0,-32(s0)
	.loc 1 592 25
	ld	a5,-32(s0)
	ld	a5,64(a5)
	sd	a5,-48(s0)
	.loc 1 594 60
	lhu	a5,-18(s0)
	sext.w	a5,a5
	ld	a4,-64(s0)
	add	a5,a4,a5
	lbu	a4,526(a5)
	.loc 1 594 35
	ld	a5,-48(s0)
	sb	a4,0(a5)
	.loc 1 590 61 discriminator 3
	lhu	a5,-18(s0)
	addiw	a5,a5,1
	sh	a5,-18(s0)
.L59:
	.loc 1 590 27 discriminator 1
	lhu	a4,-18(s0)
	.loc 1 590 43 discriminator 1
	la	a5,ConsoleInpMenu
	ld	a5,24(a5)
	.loc 1 590 27 discriminator 1
	bltu	a4,a5,.L60
	.loc 1 597 16
	sh	zero,-18(s0)
	.loc 1 597 5
	j	.L61
.L62:
	.loc 1 598 22
	lhu	a5,-18(s0)
	mv	a1,a5
	la	a0,TerminalMenu
	call	BOpt_GetMenuEntry@plt
	sd	a0,-32(s0)
	.loc 1 599 26
	ld	a5,-32(s0)
	ld	a5,64(a5)
	sd	a5,-40(s0)
	.loc 1 601 67
	lhu	a4,-18(s0)
	.loc 1 601 83
	la	a5,ConsoleInpMenu
	ld	a5,24(a5)
	.loc 1 601 67
	add	a5,a4,a5
	.loc 1 601 60
	ld	a4,-64(s0)
	add	a5,a4,a5
	lbu	a4,526(a5)
	.loc 1 601 35
	ld	a5,-40(s0)
	sb	a4,16(a5)
	.loc 1 597 59 discriminator 3
	lhu	a5,-18(s0)
	addiw	a5,a5,1
	sh	a5,-18(s0)
.L61:
	.loc 1 597 27 discriminator 1
	lhu	a4,-18(s0)
	.loc 1 597 41 discriminator 1
	la	a5,TerminalMenu
	ld	a5,24(a5)
	.loc 1 597 27 discriminator 1
	bltu	a4,a5,.L62
.L58:
	.loc 1 605 7
	lla	a1,.LC4
	ld	a0,-56(s0)
	call	StrCmp@plt
	mv	a5,a0
	.loc 1 605 6 discriminator 1
	bne	a5,zero,.L63
	.loc 1 606 16
	sh	zero,-18(s0)
	.loc 1 606 5
	j	.L64
.L65:
	.loc 1 607 22
	lhu	a5,-18(s0)
	mv	a1,a5
	la	a0,ConsoleOutMenu
	call	BOpt_GetMenuEntry@plt
	sd	a0,-32(s0)
	.loc 1 608 25
	ld	a5,-32(s0)
	ld	a5,64(a5)
	sd	a5,-48(s0)
	.loc 1 610 61
	lhu	a5,-18(s0)
	sext.w	a5,a5
	ld	a4,-64(s0)
	add	a5,a4,a5
	lbu	a4,626(a5)
	.loc 1 610 35
	ld	a5,-48(s0)
	sb	a4,0(a5)
	.loc 1 606 61 discriminator 3
	lhu	a5,-18(s0)
	addiw	a5,a5,1
	sh	a5,-18(s0)
.L64:
	.loc 1 606 27 discriminator 1
	lhu	a4,-18(s0)
	.loc 1 606 43 discriminator 1
	la	a5,ConsoleOutMenu
	ld	a5,24(a5)
	.loc 1 606 27 discriminator 1
	bltu	a4,a5,.L65
	.loc 1 613 16
	sh	zero,-18(s0)
	.loc 1 613 5
	j	.L66
.L67:
	.loc 1 614 22
	lhu	a5,-18(s0)
	mv	a1,a5
	la	a0,TerminalMenu
	call	BOpt_GetMenuEntry@plt
	sd	a0,-32(s0)
	.loc 1 615 26
	ld	a5,-32(s0)
	ld	a5,64(a5)
	sd	a5,-40(s0)
	.loc 1 617 69
	lhu	a4,-18(s0)
	.loc 1 617 85
	la	a5,ConsoleOutMenu
	ld	a5,24(a5)
	.loc 1 617 69
	add	a5,a4,a5
	.loc 1 617 62
	ld	a4,-64(s0)
	add	a5,a4,a5
	lbu	a4,626(a5)
	.loc 1 617 36
	ld	a5,-40(s0)
	sb	a4,17(a5)
	.loc 1 613 59 discriminator 3
	lhu	a5,-18(s0)
	addiw	a5,a5,1
	sh	a5,-18(s0)
.L66:
	.loc 1 613 27 discriminator 1
	lhu	a4,-18(s0)
	.loc 1 613 41 discriminator 1
	la	a5,TerminalMenu
	ld	a5,24(a5)
	.loc 1 613 27 discriminator 1
	bltu	a4,a5,.L67
.L63:
	.loc 1 621 7
	lla	a1,.LC5
	ld	a0,-56(s0)
	call	StrCmp@plt
	mv	a5,a0
	.loc 1 621 6 discriminator 1
	bne	a5,zero,.L73
	.loc 1 622 16
	sh	zero,-18(s0)
	.loc 1 622 5
	j	.L69
.L70:
	.loc 1 623 22
	lhu	a5,-18(s0)
	mv	a1,a5
	la	a0,ConsoleErrMenu
	call	BOpt_GetMenuEntry@plt
	sd	a0,-32(s0)
	.loc 1 624 25
	ld	a5,-32(s0)
	ld	a5,64(a5)
	sd	a5,-48(s0)
	.loc 1 626 61
	lhu	a5,-18(s0)
	sext.w	a5,a5
	ld	a4,-64(s0)
	add	a5,a4,a5
	lbu	a4,726(a5)
	.loc 1 626 35
	ld	a5,-48(s0)
	sb	a4,0(a5)
	.loc 1 622 61 discriminator 3
	lhu	a5,-18(s0)
	addiw	a5,a5,1
	sh	a5,-18(s0)
.L69:
	.loc 1 622 27 discriminator 1
	lhu	a4,-18(s0)
	.loc 1 622 43 discriminator 1
	la	a5,ConsoleErrMenu
	ld	a5,24(a5)
	.loc 1 622 27 discriminator 1
	bltu	a4,a5,.L70
	.loc 1 629 16
	sh	zero,-18(s0)
	.loc 1 629 5
	j	.L71
.L72:
	.loc 1 630 22
	lhu	a5,-18(s0)
	mv	a1,a5
	la	a0,TerminalMenu
	call	BOpt_GetMenuEntry@plt
	sd	a0,-32(s0)
	.loc 1 631 26
	ld	a5,-32(s0)
	ld	a5,64(a5)
	sd	a5,-40(s0)
	.loc 1 633 69
	lhu	a4,-18(s0)
	.loc 1 633 85
	la	a5,ConsoleErrMenu
	ld	a5,24(a5)
	.loc 1 633 69
	add	a5,a4,a5
	.loc 1 633 62
	ld	a4,-64(s0)
	add	a5,a4,a5
	lbu	a4,726(a5)
	.loc 1 633 36
	ld	a5,-40(s0)
	sb	a4,18(a5)
	.loc 1 629 59 discriminator 3
	lhu	a5,-18(s0)
	addiw	a5,a5,1
	sh	a5,-18(s0)
.L71:
	.loc 1 629 27 discriminator 1
	lhu	a4,-18(s0)
	.loc 1 629 41 discriminator 1
	la	a5,TerminalMenu
	ld	a5,24(a5)
	.loc 1 629 27 discriminator 1
	bltu	a4,a5,.L72
.L73:
	.loc 1 636 1
	nop
	ld	ra,56(sp)
	.cfi_restore 1
	ld	s0,48(sp)
	.cfi_restore 8
	.cfi_def_cfa 2, 64
	addi	sp,sp,64
	.cfi_def_cfa_offset 0
	jr	ra
	.cfi_endproc
.LFE7:
	.size	UpdateConsoleContent, .-UpdateConsoleContent
	.section	.rodata
	.align	3
.LC6:
	.string	"O"
	.string	"F"
	.string	"F"
	.string	"S"
	.string	"E"
	.string	"T"
	.zero	2
	.align	3
.LC7:
	.string	"%"
	.string	"s"
	.string	"&"
	.string	"O"
	.string	"F"
	.string	"F"
	.string	"S"
	.string	"E"
	.string	"T"
	.string	"="
	.string	"0"
	.string	"&"
	.string	"W"
	.string	"I"
	.string	"D"
	.string	"T"
	.string	"H"
	.string	"="
	.string	"%"
	.string	"0"
	.string	"1"
	.string	"6"
	.string	"L"
	.string	"X"
	.zero	2
	.section	.text.BootMaintExtractConfig,"ax",@progbits
	.align	1
	.globl	BootMaintExtractConfig
	.type	BootMaintExtractConfig, @function
BootMaintExtractConfig:
.LFB8:
	.loc 1 667 1
	.cfi_startproc
	addi	sp,sp,-112
	.cfi_def_cfa_offset 112
	sd	ra,104(sp)
	sd	s0,96(sp)
	.cfi_offset 1, -8
	.cfi_offset 8, -16
	addi	s0,sp,112
	.cfi_def_cfa 8, 0
	sd	a0,-88(s0)
	sd	a1,-96(s0)
	sd	a2,-104(s0)
	sd	a3,-112(s0)
	.loc 1 676 6
	ld	a5,-104(s0)
	beq	a5,zero,.L75
	.loc 1 676 34 discriminator 1
	ld	a5,-112(s0)
	bne	a5,zero,.L76
.L75:
	.loc 1 677 12
	li	a5,-1
	slli	a5,a5,63
	addi	a5,a5,2
	j	.L77
.L76:
	.loc 1 680 13
	ld	a5,-104(s0)
	ld	a4,-96(s0)
	sd	a4,0(a5)
	.loc 1 681 6
	ld	a5,-96(s0)
	beq	a5,zero,.L78
	.loc 1 681 37 discriminator 1
	lla	a2,mBootMaintStorageName
	lla	a1,mBootMaintGuid
	ld	a0,-96(s0)
	call	HiiIsConfigHdrMatch@plt
	mv	a5,a0
	.loc 1 681 33 discriminator 2
	bne	a5,zero,.L78
	.loc 1 682 12
	li	a5,-1
	slli	a5,a5,63
	addi	a5,a5,14
	j	.L77
.L78:
	.loc 1 685 20
	sd	zero,-48(s0)
	.loc 1 686 17
	sd	zero,-32(s0)
	.loc 1 687 20
	sb	zero,-33(s0)
	.loc 1 688 8
	sd	zero,-56(s0)
	.loc 1 690 15
	ld	a5,-88(s0)
	addi	a5,a5,-24
	.loc 1 690 132
	ld	a4,0(a5)
	.loc 1 690 217
	li	a5,1801674752
	addi	a5,a5,579
	bne	a4,a5,.L79
	.loc 1 690 11 discriminator 1
	ld	a5,-88(s0)
	addi	a5,a5,-24
	sd	a5,-24(s0)
	j	.L80
.L79:
	.loc 1 690 11 is_stmt 0 discriminator 2
	sd	zero,-24(s0)
.L80:
	.loc 1 694 14 is_stmt 1
	li	a5,4096
	addi	a5,a5,-520
	sd	a5,-64(s0)
	.loc 1 695 17
	ld	a5,-96(s0)
	sd	a5,-32(s0)
	.loc 1 696 6
	ld	a5,-96(s0)
	beq	a5,zero,.L81
	.loc 1 696 37 discriminator 1
	lla	a1,.LC6
	ld	a0,-96(s0)
	call	StrStr@plt
	mv	a5,a0
	.loc 1 696 33 discriminator 2
	bne	a5,zero,.L82
.L81:
	.loc 1 702 24
	ld	a5,-24(s0)
	ld	a5,16(a5)
	mv	a2,a5
	lla	a1,mBootMaintStorageName
	lla	a0,mBootMaintGuid
	call	HiiConstructConfigHdr@plt
	sd	a0,-48(s0)
	.loc 1 703 13
	ld	a0,-48(s0)
	call	StrLen@plt
	mv	a5,a0
	.loc 1 703 44 discriminator 1
	addi	a5,a5,33
	.loc 1 703 10 discriminator 1
	slli	a5,a5,1
	sd	a5,-56(s0)
	.loc 1 704 21
	ld	a0,-56(s0)
	call	AllocateZeroPool@plt
	sd	a0,-32(s0)
	.loc 1 706 22
	li	a5,1
	sb	a5,-33(s0)
	.loc 1 707 5
	ld	a4,-64(s0)
	ld	a3,-48(s0)
	lla	a2,.LC7
	ld	a1,-56(s0)
	ld	a0,-32(s0)
	call	UnicodeSPrint@plt
	.loc 1 708 5
	ld	a0,-48(s0)
	call	FreePool@plt
.L82:
	.loc 1 711 29
	la	a5,gHiiConfigRouting
	ld	a5,0(a5)
	ld	a6,24(a5)
	.loc 1 711 12
	la	a5,gHiiConfigRouting
	ld	a0,0(a5)
	.loc 1 714 42
	ld	a5,-24(s0)
	addi	a2,a5,112
	.loc 1 711 12
	ld	a5,-104(s0)
	ld	a4,-112(s0)
	ld	a3,-64(s0)
	ld	a1,-32(s0)
	jalr	a6
.LVL13:
	sd	a0,-72(s0)
	.loc 1 722 6
	lbu	a5,-33(s0)
	andi	a5,a5,0xff
	beq	a5,zero,.L83
	.loc 1 723 5
	ld	a0,-32(s0)
	call	FreePool@plt
	.loc 1 724 19
	sd	zero,-32(s0)
.L83:
	.loc 1 730 6
	ld	a5,-96(s0)
	bne	a5,zero,.L84
	.loc 1 731 15
	ld	a5,-104(s0)
	sd	zero,0(a5)
	j	.L85
.L84:
	.loc 1 732 14
	lla	a1,.LC6
	ld	a0,-96(s0)
	call	StrStr@plt
	mv	a5,a0
	.loc 1 732 13 discriminator 1
	bne	a5,zero,.L85
	.loc 1 733 27
	ld	a0,-96(s0)
	call	StrLen@plt
	mv	a5,a0
	.loc 1 733 25 discriminator 1
	slli	a5,a5,1
	ld	a4,-96(s0)
	add	a4,a4,a5
	.loc 1 733 15 discriminator 1
	ld	a5,-104(s0)
	sd	a4,0(a5)
.L85:
	.loc 1 736 10
	ld	a5,-72(s0)
.L77:
	.loc 1 737 1
	mv	a0,a5
	ld	ra,104(sp)
	.cfi_restore 1
	ld	s0,96(sp)
	.cfi_restore 8
	.cfi_def_cfa 2, 112
	addi	sp,sp,112
	.cfi_def_cfa_offset 0
	jr	ra
	.cfi_endproc
.LFE8:
	.size	BootMaintExtractConfig, .-BootMaintExtractConfig
	.section	.rodata
	.align	3
.LC8:
	.string	"T"
	.string	"i"
	.string	"m"
	.string	"e"
	.string	"o"
	.string	"u"
	.string	"t"
	.zero	2
	.section	.text.BootMaintRouteConfig,"ax",@progbits
	.align	1
	.globl	BootMaintRouteConfig
	.type	BootMaintRouteConfig, @function
BootMaintRouteConfig:
.LFB9:
	.loc 1 779 1
	.cfi_startproc
	addi	sp,sp,-128
	.cfi_def_cfa_offset 128
	sd	ra,120(sp)
	sd	s0,112(sp)
	.cfi_offset 1, -8
	.cfi_offset 8, -16
	addi	s0,sp,128
	.cfi_def_cfa 8, 0
	sd	a0,-104(s0)
	sd	a1,-112(s0)
	sd	a2,-120(s0)
	.loc 1 792 6
	ld	a5,-120(s0)
	bne	a5,zero,.L87
	.loc 1 793 12
	li	a5,-1
	slli	a5,a5,63
	addi	a5,a5,2
	j	.L136
.L87:
	.loc 1 796 13
	ld	a5,-120(s0)
	ld	a4,-112(s0)
	sd	a4,0(a5)
	.loc 1 798 6
	ld	a5,-112(s0)
	bne	a5,zero,.L89
	.loc 1 799 12
	li	a5,-1
	slli	a5,a5,63
	addi	a5,a5,2
	j	.L136
.L89:
	.loc 1 806 8
	lla	a2,mBootMaintStorageName
	lla	a1,mBootMaintGuid
	ld	a0,-112(s0)
	call	HiiIsConfigHdrMatch@plt
	mv	a5,a0
	.loc 1 806 6 discriminator 1
	bne	a5,zero,.L90
	.loc 1 807 12
	li	a5,-1
	slli	a5,a5,63
	addi	a5,a5,14
	j	.L136
.L90:
	.loc 1 810 15
	la	a5,gBS
	ld	a5,0(a5)
	ld	a5,320(a5)
	.loc 1 810 12
	addi	a4,s0,-96
	mv	a2,a4
	li	a1,0
	la	a0,gEfiHiiConfigRoutingProtocolGuid
	jalr	a5
.LVL14:
	sd	a0,-24(s0)
	.loc 1 815 34
	ld	a5,-24(s0)
	.loc 1 815 6
	bge	a5,zero,.L91
	.loc 1 816 12
	ld	a5,-24(s0)
	j	.L136
.L91:
	.loc 1 819 15
	ld	a5,-104(s0)
	addi	a5,a5,-24
	.loc 1 819 132
	ld	a4,0(a5)
	.loc 1 819 217
	li	a5,1801674752
	addi	a5,a5,579
	bne	a4,a5,.L92
	.loc 1 819 11 discriminator 1
	ld	a5,-104(s0)
	addi	a5,a5,-24
	sd	a5,-40(s0)
	j	.L93
.L92:
	.loc 1 819 11 is_stmt 0 discriminator 2
	sd	zero,-40(s0)
.L93:
	.loc 1 823 14 is_stmt 1
	li	a5,4096
	addi	a5,a5,-520
	sd	a5,-88(s0)
	.loc 1 824 14
	ld	a4,-40(s0)
	li	a5,4096
	addi	a5,a5,-408
	add	a5,a4,a5
	sd	a5,-56(s0)
	.loc 1 825 14
	ld	a5,-40(s0)
	addi	a5,a5,112
	sd	a5,-64(s0)
	.loc 1 826 10
	sd	zero,-48(s0)
	.loc 1 830 25
	ld	a5,-96(s0)
	ld	a5,32(a5)
	.loc 1 830 12
	ld	a0,-96(s0)
	addi	a3,s0,-88
	ld	a4,-120(s0)
	ld	a2,-64(s0)
	ld	a1,-112(s0)
	jalr	a5
.LVL15:
	sd	a0,-24(s0)
	.loc 1 846 19
	ld	a5,-64(s0)
	addi	a4,a5,4
	.loc 1 846 42
	ld	a5,-56(s0)
	addi	a5,a5,4
	.loc 1 846 7
	li	a2,4
	mv	a1,a5
	mv	a0,a4
	call	CompareMem@plt
	mv	a5,a0
	.loc 1 846 6 discriminator 1
	beq	a5,zero,.L94
	.loc 1 847 14
	ld	a0,-40(s0)
	call	Var_UpdateBootNext@plt
	sd	a0,-24(s0)
	.loc 1 848 36
	ld	a5,-24(s0)
	.loc 1 848 8
	bge	a5,zero,.L94
	.loc 1 849 14
	li	a5,4
	sd	a5,-48(s0)
	.loc 1 850 7
	j	.L95
.L94:
	.loc 1 857 29
	ld	a5,-64(s0)
	addi	a4,a5,1628
	.loc 1 857 56
	ld	a5,-56(s0)
	addi	a5,a5,1628
	.loc 1 857 7
	li	a2,100
	mv	a1,a5
	mv	a0,a4
	call	CompareMem@plt
	mv	a5,a0
	.loc 1 857 6 discriminator 1
	beq	a5,zero,.L96
	.loc 1 858 16
	sh	zero,-26(s0)
	.loc 1 858 5
	j	.L97
.L99:
	.loc 1 862 22
	lhu	a5,-26(s0)
	mv	a1,a5
	la	a0,BootOptionMenu
	call	BOpt_GetMenuEntry@plt
	sd	a0,-72(s0)
	.loc 1 863 22
	ld	a5,-72(s0)
	ld	a5,64(a5)
	sd	a5,-80(s0)
	.loc 1 864 58
	lhu	a5,-26(s0)
	sext.w	a5,a5
	ld	a4,-64(s0)
	add	a5,a4,a5
	lbu	a4,1628(a5)
	.loc 1 864 31
	ld	a5,-80(s0)
	sb	a4,1(a5)
	.loc 1 865 32
	lhu	a5,-26(s0)
	sext.w	a5,a5
	.loc 1 865 40
	ld	a4,-64(s0)
	add	a5,a4,a5
	sb	zero,1628(a5)
	.loc 1 866 36
	lhu	a5,-26(s0)
	sext.w	a5,a5
	.loc 1 866 44
	ld	a4,-64(s0)
	add	a5,a4,a5
	sb	zero,1828(a5)
	.loc 1 860 15
	lhu	a5,-26(s0)
	addiw	a5,a5,1
	sh	a5,-26(s0)
.L97:
	.loc 1 859 18
	lhu	a4,-26(s0)
	.loc 1 859 34
	la	a5,BootOptionMenu
	ld	a5,24(a5)
	.loc 1 859 47
	bgeu	a4,a5,.L98
	.loc 1 859 47 is_stmt 0 discriminator 1
	lhu	a5,-26(s0)
	sext.w	a4,a5
	li	a5,99
	bleu	a4,a5,.L99
.L98:
	.loc 1 869 14 is_stmt 1
	call	Var_DelBootOption@plt
	sd	a0,-24(s0)
	.loc 1 870 36
	ld	a5,-24(s0)
	.loc 1 870 8
	bge	a5,zero,.L96
	.loc 1 871 14
	li	a5,1628
	sd	a5,-48(s0)
	.loc 1 872 7
	j	.L95
.L96:
	.loc 1 876 29
	ld	a5,-64(s0)
	addi	a4,a5,828
	.loc 1 876 58
	ld	a5,-56(s0)
	addi	a5,a5,828
	.loc 1 876 7
	li	a2,400
	mv	a1,a5
	mv	a0,a4
	call	CompareMem@plt
	mv	a5,a0
	.loc 1 876 6 discriminator 1
	beq	a5,zero,.L100
	.loc 1 877 14
	ld	a0,-40(s0)
	call	Var_UpdateBootOrder@plt
	sd	a0,-24(s0)
	.loc 1 878 36
	ld	a5,-24(s0)
	.loc 1 878 8
	bge	a5,zero,.L100
	.loc 1 879 14
	li	a5,828
	sd	a5,-48(s0)
	.loc 1 880 7
	j	.L95
.L100:
	.loc 1 884 19
	ld	a5,-64(s0)
	.loc 1 884 45
	ld	a4,-56(s0)
	.loc 1 884 7
	li	a2,2
	mv	a1,a4
	mv	a0,a5
	call	CompareMem@plt
	mv	a5,a0
	.loc 1 884 6 discriminator 1
	beq	a5,zero,.L101
	.loc 1 885 17
	la	a5,gRT
	ld	a5,0(a5)
	ld	a5,88(a5)
	.loc 1 890 21
	ld	a4,-64(s0)
	.loc 1 885 14
	li	a3,2
	li	a2,7
	la	a1,gEfiGlobalVariableGuid
	lla	a0,.LC8
	jalr	a5
.LVL16:
	sd	a0,-24(s0)
	.loc 1 892 36
	ld	a5,-24(s0)
	.loc 1 892 8
	bge	a5,zero,.L102
	.loc 1 893 14
	sd	zero,-48(s0)
	.loc 1 894 7
	j	.L95
.L102:
	.loc 1 897 55
	ld	a5,-64(s0)
	lhu	a4,0(a5)
	.loc 1 897 43
	ld	a3,-40(s0)
	li	a5,4096
	add	a5,a3,a5
	sh	a4,-408(a5)
.L101:
	.loc 1 903 29
	ld	a5,-64(s0)
	addi	a4,a5,1728
	.loc 1 903 58
	ld	a5,-56(s0)
	addi	a5,a5,1728
	.loc 1 903 7
	li	a2,100
	mv	a1,a5
	mv	a0,a4
	call	CompareMem@plt
	mv	a5,a0
	.loc 1 903 6 discriminator 1
	beq	a5,zero,.L103
	.loc 1 904 16
	sh	zero,-26(s0)
	.loc 1 904 5
	j	.L104
.L106:
	.loc 1 908 22
	lhu	a5,-26(s0)
	mv	a1,a5
	la	a0,DriverOptionMenu
	call	BOpt_GetMenuEntry@plt
	sd	a0,-72(s0)
	.loc 1 909 22
	ld	a5,-72(s0)
	ld	a5,64(a5)
	sd	a5,-80(s0)
	.loc 1 910 60
	lhu	a5,-26(s0)
	sext.w	a5,a5
	ld	a4,-64(s0)
	add	a5,a4,a5
	lbu	a4,1728(a5)
	.loc 1 910 31
	ld	a5,-80(s0)
	sb	a4,1(a5)
	.loc 1 911 34
	lhu	a5,-26(s0)
	sext.w	a5,a5
	.loc 1 911 42
	ld	a4,-64(s0)
	add	a5,a4,a5
	sb	zero,1728(a5)
	.loc 1 912 38
	lhu	a5,-26(s0)
	sext.w	a5,a5
	.loc 1 912 46
	ld	a4,-64(s0)
	add	a5,a4,a5
	sb	zero,1928(a5)
	.loc 1 906 15
	lhu	a5,-26(s0)
	addiw	a5,a5,1
	sh	a5,-26(s0)
.L104:
	.loc 1 905 18
	lhu	a4,-26(s0)
	.loc 1 905 36
	la	a5,DriverOptionMenu
	ld	a5,24(a5)
	.loc 1 905 49
	bgeu	a4,a5,.L105
	.loc 1 905 49 is_stmt 0 discriminator 1
	lhu	a5,-26(s0)
	sext.w	a4,a5
	li	a5,99
	bleu	a4,a5,.L106
.L105:
	.loc 1 915 14 is_stmt 1
	call	Var_DelDriverOption@plt
	sd	a0,-24(s0)
	.loc 1 916 36
	ld	a5,-24(s0)
	.loc 1 916 8
	bge	a5,zero,.L103
	.loc 1 917 14
	li	a5,1728
	sd	a5,-48(s0)
	.loc 1 918 7
	j	.L95
.L103:
	.loc 1 922 29
	ld	a5,-64(s0)
	addi	a4,a5,1228
	.loc 1 922 60
	ld	a5,-56(s0)
	addi	a5,a5,1228
	.loc 1 922 7
	li	a2,400
	mv	a1,a5
	mv	a0,a4
	call	CompareMem@plt
	mv	a5,a0
	.loc 1 922 6 discriminator 1
	beq	a5,zero,.L107
	.loc 1 923 14
	ld	a0,-40(s0)
	call	Var_UpdateDriverOrder@plt
	sd	a0,-24(s0)
	.loc 1 924 36
	ld	a5,-24(s0)
	.loc 1 924 8
	bge	a5,zero,.L107
	.loc 1 925 14
	li	a5,1228
	sd	a5,-48(s0)
	.loc 1 926 7
	j	.L95
.L107:
	.loc 1 930 19
	ld	a4,-64(s0)
	li	a5,4096
	addi	a5,a5,-1436
	add	a3,a4,a5
	.loc 1 930 48
	ld	a4,-56(s0)
	li	a5,4096
	addi	a5,a5,-1436
	add	a5,a4,a5
	.loc 1 930 7
	li	a2,2
	mv	a1,a5
	mv	a0,a3
	call	CompareMem@plt
	mv	a5,a0
	.loc 1 930 6 discriminator 1
	beq	a5,zero,.L108
	.loc 1 931 14
	ld	a0,-40(s0)
	call	Var_UpdateConMode@plt
	sd	a0,-24(s0)
	.loc 1 932 36
	ld	a5,-24(s0)
	.loc 1 932 8
	bge	a5,zero,.L108
	.loc 1 933 14
	li	a5,4096
	addi	a5,a5,-1436
	sd	a5,-48(s0)
	.loc 1 934 7
	j	.L95
.L108:
	.loc 1 938 21
	sb	zero,-27(s0)
	.loc 1 939 14
	sh	zero,-26(s0)
	.loc 1 939 3
	j	.L109
.L112:
	.loc 1 943 46
	lhu	a5,-26(s0)
	sext.w	a5,a5
	.loc 1 943 22
	addi	a5,a5,2016
	ld	a4,-64(s0)
	add	a5,a4,a5
	addi	a3,a5,12
	.loc 1 943 79
	lhu	a5,-26(s0)
	sext.w	a5,a5
	.loc 1 943 55
	addi	a5,a5,2016
	ld	a4,-56(s0)
	add	a5,a4,a5
	addi	a5,a5,12
	.loc 1 943 10
	li	a2,1
	mv	a1,a5
	mv	a0,a3
	call	CompareMem@plt
	mv	a5,a0
	.loc 1 943 8 discriminator 1
	bne	a5,zero,.L110
	.loc 1 944 46
	lhu	a5,-26(s0)
	sext.w	a4,a5
	.loc 1 944 22
	li	a5,4096
	addi	a5,a5,-1968
	add	a5,a4,a5
	ld	a4,-64(s0)
	add	a3,a4,a5
	.loc 1 944 79
	lhu	a5,-26(s0)
	sext.w	a4,a5
	.loc 1 944 55
	li	a5,4096
	addi	a5,a5,-1968
	add	a5,a4,a5
	ld	a4,-56(s0)
	add	a5,a4,a5
	.loc 1 944 10
	li	a2,1
	mv	a1,a5
	mv	a0,a3
	call	CompareMem@plt
	mv	a5,a0
	.loc 1 943 135 discriminator 2
	bne	a5,zero,.L110
	.loc 1 945 46
	lhu	a5,-26(s0)
	sext.w	a4,a5
	.loc 1 945 22
	li	a5,4096
	addi	a5,a5,-1872
	add	a5,a4,a5
	ld	a4,-64(s0)
	add	a5,a4,a5
	addi	a3,a5,4
	.loc 1 945 79
	lhu	a5,-26(s0)
	sext.w	a4,a5
	.loc 1 945 55
	li	a5,4096
	addi	a5,a5,-1872
	add	a5,a4,a5
	ld	a4,-56(s0)
	add	a5,a4,a5
	addi	a5,a5,4
	.loc 1 945 10
	li	a2,1
	mv	a1,a5
	mv	a0,a3
	call	CompareMem@plt
	mv	a5,a0
	.loc 1 944 135
	bne	a5,zero,.L110
	.loc 1 946 44
	lhu	a5,-26(s0)
	sext.w	a4,a5
	.loc 1 946 22
	li	a5,4096
	addi	a5,a5,-1776
	add	a5,a4,a5
	ld	a4,-64(s0)
	add	a5,a4,a5
	addi	a3,a5,8
	.loc 1 946 75
	lhu	a5,-26(s0)
	sext.w	a4,a5
	.loc 1 946 53
	li	a5,4096
	addi	a5,a5,-1776
	add	a5,a4,a5
	ld	a4,-56(s0)
	add	a5,a4,a5
	addi	a5,a5,8
	.loc 1 946 10
	li	a2,1
	mv	a1,a5
	mv	a0,a3
	call	CompareMem@plt
	mv	a5,a0
	.loc 1 945 135
	bne	a5,zero,.L110
	.loc 1 947 50
	lhu	a5,-26(s0)
	sext.w	a4,a5
	.loc 1 947 22
	li	a5,4096
	addi	a5,a5,-1680
	add	a5,a4,a5
	ld	a4,-64(s0)
	add	a5,a4,a5
	addi	a3,a5,12
	.loc 1 947 87
	lhu	a5,-26(s0)
	sext.w	a4,a5
	.loc 1 947 59
	li	a5,4096
	addi	a5,a5,-1680
	add	a5,a4,a5
	ld	a4,-56(s0)
	add	a5,a4,a5
	addi	a5,a5,12
	.loc 1 947 10
	li	a2,1
	mv	a1,a5
	mv	a0,a3
	call	CompareMem@plt
	mv	a5,a0
	.loc 1 946 129
	bne	a5,zero,.L110
	.loc 1 948 49
	lhu	a5,-26(s0)
	sext.w	a4,a5
	.loc 1 948 22
	li	a5,4096
	addi	a5,a5,-1568
	add	a5,a4,a5
	ld	a4,-64(s0)
	add	a3,a4,a5
	.loc 1 948 85
	lhu	a5,-26(s0)
	sext.w	a4,a5
	.loc 1 948 58
	li	a5,4096
	addi	a5,a5,-1568
	add	a5,a4,a5
	ld	a4,-56(s0)
	add	a5,a4,a5
	.loc 1 948 10
	li	a2,1
	mv	a1,a5
	mv	a0,a3
	call	CompareMem@plt
	mv	a5,a0
	.loc 1 947 147
	beq	a5,zero,.L137
.L110:
	.loc 1 953 23
	li	a5,1
	sb	a5,-27(s0)
	j	.L111
.L137:
	.loc 1 950 7
	nop
.L111:
	.loc 1 939 57 discriminator 2
	lhu	a5,-26(s0)
	addiw	a5,a5,1
	sh	a5,-26(s0)
.L109:
	.loc 1 939 25 discriminator 1
	lhu	a4,-26(s0)
	.loc 1 939 39 discriminator 1
	la	a5,TerminalMenu
	ld	a5,24(a5)
	.loc 1 939 25 discriminator 1
	bltu	a4,a5,.L112
	.loc 1 956 6
	lbu	a5,-27(s0)
	andi	a5,a5,0xff
	beq	a5,zero,.L113
	.loc 1 957 45
	lhu	a5,-26(s0)
	sext.w	a5,a5
	.loc 1 957 21
	addi	a5,a5,2016
	ld	a4,-64(s0)
	add	a5,a4,a5
	addi	a3,a5,12
	.loc 1 957 78
	lhu	a5,-26(s0)
	sext.w	a5,a5
	.loc 1 957 54
	addi	a5,a5,2016
	ld	a4,-56(s0)
	add	a5,a4,a5
	addi	a5,a5,12
	.loc 1 957 9
	li	a2,1
	mv	a1,a5
	mv	a0,a3
	call	CompareMem@plt
	mv	a5,a0
	.loc 1 957 8 discriminator 1
	beq	a5,zero,.L114
	.loc 1 958 14
	li	a5,2028
	sd	a5,-48(s0)
	j	.L115
.L114:
	.loc 1 959 52
	lhu	a5,-26(s0)
	sext.w	a4,a5
	.loc 1 959 28
	li	a5,4096
	addi	a5,a5,-1968
	add	a5,a4,a5
	ld	a4,-64(s0)
	add	a3,a4,a5
	.loc 1 959 85
	lhu	a5,-26(s0)
	sext.w	a4,a5
	.loc 1 959 61
	li	a5,4096
	addi	a5,a5,-1968
	add	a5,a4,a5
	ld	a4,-56(s0)
	add	a5,a4,a5
	.loc 1 959 16
	li	a2,1
	mv	a1,a5
	mv	a0,a3
	call	CompareMem@plt
	mv	a5,a0
	.loc 1 959 15 discriminator 1
	beq	a5,zero,.L116
	.loc 1 960 14
	li	a5,4096
	addi	a5,a5,-1968
	sd	a5,-48(s0)
	j	.L115
.L116:
	.loc 1 961 52
	lhu	a5,-26(s0)
	sext.w	a4,a5
	.loc 1 961 28
	li	a5,4096
	addi	a5,a5,-1872
	add	a5,a4,a5
	ld	a4,-64(s0)
	add	a5,a4,a5
	addi	a3,a5,4
	.loc 1 961 85
	lhu	a5,-26(s0)
	sext.w	a4,a5
	.loc 1 961 61
	li	a5,4096
	addi	a5,a5,-1872
	add	a5,a4,a5
	ld	a4,-56(s0)
	add	a5,a4,a5
	addi	a5,a5,4
	.loc 1 961 16
	li	a2,1
	mv	a1,a5
	mv	a0,a3
	call	CompareMem@plt
	mv	a5,a0
	.loc 1 961 15 discriminator 1
	beq	a5,zero,.L117
	.loc 1 962 14
	li	a5,4096
	addi	a5,a5,-1868
	sd	a5,-48(s0)
	j	.L115
.L117:
	.loc 1 963 50
	lhu	a5,-26(s0)
	sext.w	a4,a5
	.loc 1 963 28
	li	a5,4096
	addi	a5,a5,-1776
	add	a5,a4,a5
	ld	a4,-64(s0)
	add	a5,a4,a5
	addi	a3,a5,8
	.loc 1 963 81
	lhu	a5,-26(s0)
	sext.w	a4,a5
	.loc 1 963 59
	li	a5,4096
	addi	a5,a5,-1776
	add	a5,a4,a5
	ld	a4,-56(s0)
	add	a5,a4,a5
	addi	a5,a5,8
	.loc 1 963 16
	li	a2,1
	mv	a1,a5
	mv	a0,a3
	call	CompareMem@plt
	mv	a5,a0
	.loc 1 963 15 discriminator 1
	beq	a5,zero,.L118
	.loc 1 964 14
	li	a5,4096
	addi	a5,a5,-1768
	sd	a5,-48(s0)
	j	.L115
.L118:
	.loc 1 965 56
	lhu	a5,-26(s0)
	sext.w	a4,a5
	.loc 1 965 28
	li	a5,4096
	addi	a5,a5,-1680
	add	a5,a4,a5
	ld	a4,-64(s0)
	add	a5,a4,a5
	addi	a3,a5,12
	.loc 1 965 93
	lhu	a5,-26(s0)
	sext.w	a4,a5
	.loc 1 965 65
	li	a5,4096
	addi	a5,a5,-1680
	add	a5,a4,a5
	ld	a4,-56(s0)
	add	a5,a4,a5
	addi	a5,a5,12
	.loc 1 965 16
	li	a2,1
	mv	a1,a5
	mv	a0,a3
	call	CompareMem@plt
	mv	a5,a0
	.loc 1 965 15 discriminator 1
	beq	a5,zero,.L119
	.loc 1 966 14
	li	a5,4096
	addi	a5,a5,-1668
	sd	a5,-48(s0)
	j	.L115
.L119:
	.loc 1 967 55
	lhu	a5,-26(s0)
	sext.w	a4,a5
	.loc 1 967 28
	li	a5,4096
	addi	a5,a5,-1568
	add	a5,a4,a5
	ld	a4,-64(s0)
	add	a3,a4,a5
	.loc 1 967 91
	lhu	a5,-26(s0)
	sext.w	a4,a5
	.loc 1 967 64
	li	a5,4096
	addi	a5,a5,-1568
	add	a5,a4,a5
	ld	a4,-56(s0)
	add	a5,a4,a5
	.loc 1 967 16
	li	a2,1
	mv	a1,a5
	mv	a0,a3
	call	CompareMem@plt
	mv	a5,a0
	.loc 1 967 15 discriminator 1
	beq	a5,zero,.L115
	.loc 1 968 14
	li	a5,4096
	addi	a5,a5,-1568
	sd	a5,-48(s0)
.L115:
	.loc 1 971 14
	call	Var_UpdateConsoleInpOption@plt
	sd	a0,-24(s0)
	.loc 1 972 36
	ld	a5,-24(s0)
	.loc 1 972 8
	blt	a5,zero,.L138
	.loc 1 976 14
	call	Var_UpdateConsoleOutOption@plt
	sd	a0,-24(s0)
	.loc 1 977 36
	ld	a5,-24(s0)
	.loc 1 977 8
	blt	a5,zero,.L139
	.loc 1 981 14
	call	Var_UpdateErrorOutOption@plt
	sd	a0,-24(s0)
	.loc 1 982 36
	ld	a5,-24(s0)
	.loc 1 982 8
	blt	a5,zero,.L140
.L113:
	.loc 1 990 29
	ld	a5,-64(s0)
	addi	a4,a5,526
	.loc 1 990 57
	ld	a5,-56(s0)
	addi	a5,a5,526
	.loc 1 990 7
	li	a2,100
	mv	a1,a5
	mv	a0,a4
	call	CompareMem@plt
	mv	a5,a0
	.loc 1 990 6 discriminator 1
	beq	a5,zero,.L122
	.loc 1 991 14
	call	Var_UpdateConsoleInpOption@plt
	sd	a0,-24(s0)
	.loc 1 992 36
	ld	a5,-24(s0)
	.loc 1 992 8
	bge	a5,zero,.L122
	.loc 1 993 14
	li	a5,526
	sd	a5,-48(s0)
	.loc 1 994 7
	j	.L95
.L122:
	.loc 1 998 29
	ld	a5,-64(s0)
	addi	a4,a5,626
	.loc 1 998 58
	ld	a5,-56(s0)
	addi	a5,a5,626
	.loc 1 998 7
	li	a2,100
	mv	a1,a5
	mv	a0,a4
	call	CompareMem@plt
	mv	a5,a0
	.loc 1 998 6 discriminator 1
	beq	a5,zero,.L123
	.loc 1 999 14
	call	Var_UpdateConsoleOutOption@plt
	sd	a0,-24(s0)
	.loc 1 1000 36
	ld	a5,-24(s0)
	.loc 1 1000 8
	bge	a5,zero,.L123
	.loc 1 1001 14
	li	a5,626
	sd	a5,-48(s0)
	.loc 1 1002 7
	j	.L95
.L123:
	.loc 1 1006 29
	ld	a5,-64(s0)
	addi	a4,a5,726
	.loc 1 1006 58
	ld	a5,-56(s0)
	addi	a5,a5,726
	.loc 1 1006 7
	li	a2,100
	mv	a1,a5
	mv	a0,a4
	call	CompareMem@plt
	mv	a5,a0
	.loc 1 1006 6 discriminator 1
	beq	a5,zero,.L124
	.loc 1 1007 14
	call	Var_UpdateErrorOutOption@plt
	sd	a0,-24(s0)
	.loc 1 1008 36
	ld	a5,-24(s0)
	.loc 1 1008 8
	bge	a5,zero,.L124
	.loc 1 1009 14
	li	a5,726
	sd	a5,-48(s0)
	.loc 1 1010 7
	j	.L95
.L124:
	.loc 1 1014 30
	ld	a4,-64(s0)
	li	a5,4096
	addi	a5,a5,-1434
	add	a3,a4,a5
	.loc 1 1014 63
	ld	a4,-56(s0)
	li	a5,4096
	addi	a5,a5,-1434
	add	a5,a4,a5
	.loc 1 1014 8
	li	a2,200
	mv	a1,a5
	mv	a0,a3
	call	CompareMem@plt
	mv	a5,a0
	.loc 1 1014 6 discriminator 1
	bne	a5,zero,.L125
	.loc 1 1015 30
	ld	a4,-64(s0)
	li	a5,4096
	addi	a5,a5,-1234
	add	a3,a4,a5
	.loc 1 1015 60
	ld	a4,-56(s0)
	li	a5,4096
	addi	a5,a5,-1234
	add	a5,a4,a5
	.loc 1 1015 8
	li	a2,254
	mv	a1,a5
	mv	a0,a3
	call	CompareMem@plt
	mv	a5,a0
	.loc 1 1014 134 discriminator 2
	beq	a5,zero,.L126
.L125:
	.loc 1 1017 14
	ld	a0,-40(s0)
	call	Var_UpdateBootOption@plt
	sd	a0,-24(s0)
	.loc 1 1018 35
	ld	a4,-64(s0)
	li	a5,4096
	add	a5,a4,a5
	sb	zero,-526(a5)
	.loc 1 1019 36
	ld	a5,-24(s0)
	.loc 1 1019 8
	bge	a5,zero,.L127
	.loc 1 1020 33
	ld	a4,-64(s0)
	li	a5,4096
	addi	a5,a5,-1434
	add	a3,a4,a5
	.loc 1 1020 66
	ld	a4,-56(s0)
	li	a5,4096
	addi	a5,a5,-1434
	add	a5,a4,a5
	.loc 1 1020 11
	li	a2,200
	mv	a1,a5
	mv	a0,a3
	call	CompareMem@plt
	mv	a5,a0
	.loc 1 1020 10 discriminator 1
	beq	a5,zero,.L128
	.loc 1 1021 16
	li	a5,4096
	addi	a5,a5,-1434
	sd	a5,-48(s0)
	.loc 1 1026 7
	j	.L95
.L128:
	.loc 1 1023 16
	li	a5,4096
	addi	a5,a5,-1234
	sd	a5,-48(s0)
	.loc 1 1026 7
	j	.L95
.L127:
	.loc 1 1029 5
	ld	a0,-40(s0)
	call	BOpt_GetBootOptions@plt
.L126:
	.loc 1 1032 30
	ld	a4,-64(s0)
	li	a5,4096
	addi	a5,a5,-980
	add	a3,a4,a5
	.loc 1 1032 65
	ld	a4,-56(s0)
	li	a5,4096
	addi	a5,a5,-980
	add	a5,a4,a5
	.loc 1 1032 8
	li	a2,200
	mv	a1,a5
	mv	a0,a3
	call	CompareMem@plt
	mv	a5,a0
	.loc 1 1032 6 discriminator 1
	bne	a5,zero,.L130
	.loc 1 1033 30
	ld	a4,-64(s0)
	li	a5,4096
	addi	a5,a5,-780
	add	a3,a4,a5
	.loc 1 1033 62
	ld	a4,-56(s0)
	li	a5,4096
	addi	a5,a5,-780
	add	a5,a4,a5
	.loc 1 1033 8
	li	a2,254
	mv	a1,a5
	mv	a0,a3
	call	CompareMem@plt
	mv	a5,a0
	.loc 1 1032 140 discriminator 2
	beq	a5,zero,.L131
.L130:
	.loc 1 1035 14
	ld	a5,-40(s0)
	ld	a1,8(a5)
	.loc 1 1038 26
	ld	a4,-64(s0)
	li	a5,4096
	addi	a5,a5,-980
	add	a2,a4,a5
	.loc 1 1039 26
	ld	a4,-64(s0)
	li	a5,4096
	addi	a5,a5,-780
	add	a3,a4,a5
	.loc 1 1035 14
	ld	a4,-64(s0)
	li	a5,4096
	add	a5,a4,a5
	lbu	a5,-523(a5)
	mv	a4,a5
	ld	a0,-40(s0)
	call	Var_UpdateDriverOption@plt
	sd	a0,-24(s0)
	.loc 1 1042 37
	ld	a4,-64(s0)
	li	a5,4096
	add	a5,a4,a5
	sb	zero,-525(a5)
	.loc 1 1043 32
	ld	a4,-64(s0)
	li	a5,4096
	add	a5,a4,a5
	li	a4,1
	sb	a4,-523(a5)
	.loc 1 1044 36
	ld	a5,-24(s0)
	.loc 1 1044 8
	bge	a5,zero,.L132
	.loc 1 1045 33
	ld	a4,-64(s0)
	li	a5,4096
	addi	a5,a5,-980
	add	a3,a4,a5
	.loc 1 1045 68
	ld	a4,-56(s0)
	li	a5,4096
	addi	a5,a5,-980
	add	a5,a4,a5
	.loc 1 1045 11
	li	a2,200
	mv	a1,a5
	mv	a0,a3
	call	CompareMem@plt
	mv	a5,a0
	.loc 1 1045 10 discriminator 1
	beq	a5,zero,.L133
	.loc 1 1046 16
	li	a5,4096
	addi	a5,a5,-980
	sd	a5,-48(s0)
	.loc 1 1051 7
	j	.L95
.L133:
	.loc 1 1048 16
	li	a5,4096
	addi	a5,a5,-780
	sd	a5,-48(s0)
	.loc 1 1051 7
	j	.L95
.L132:
	.loc 1 1054 5
	ld	a0,-40(s0)
	call	BOpt_GetDriverOptions@plt
.L131:
	.loc 1 1060 3
	li	a5,4096
	addi	a2,a5,-520
	ld	a1,-64(s0)
	ld	a0,-56(s0)
	call	CopyMem@plt
	.loc 1 1062 10
	li	a5,0
	j	.L136
.L138:
	.loc 1 973 7
	nop
	j	.L95
.L139:
	.loc 1 978 7
	nop
	j	.L95
.L140:
	.loc 1 983 7
	nop
.L95:
	.loc 1 1068 15
	ld	a1,-112(s0)
	ld	a0,-48(s0)
	call	UpdateProgress
	mv	a4,a0
	.loc 1 1068 13 discriminator 1
	ld	a5,-120(s0)
	sd	a4,0(a5)
	.loc 1 1069 6
	ld	a4,-24(s0)
	li	a5,-1
	slli	a5,a5,63
	addi	a5,a5,9
	bne	a4,a5,.L135
	.loc 1 1070 12
	ld	a5,-24(s0)
	j	.L136
.L135:
	.loc 1 1072 12
	li	a5,-1
	slli	a5,a5,63
	addi	a5,a5,14
.L136:
	.loc 1 1074 1
	mv	a0,a5
	ld	ra,120(sp)
	.cfi_restore 1
	ld	s0,112(sp)
	.cfi_restore 8
	.cfi_def_cfa 2, 128
	addi	sp,sp,128
	.cfi_def_cfa_offset 0
	jr	ra
	.cfi_endproc
.LFE9:
	.size	BootMaintRouteConfig, .-BootMaintRouteConfig
	.section	.rodata
	.align	3
.LC9:
	.string	"."
	.string	"e"
	.string	"f"
	.string	"i"
	.zero	2
	.section	.text.BootMaintCallback,"ax",@progbits
	.align	1
	.globl	BootMaintCallback
	.type	BootMaintCallback, @function
BootMaintCallback:
.LFB10:
	.loc 1 1104 1
	.cfi_startproc
	addi	sp,sp,-112
	.cfi_def_cfa_offset 112
	sd	ra,104(sp)
	sd	s0,96(sp)
	.cfi_offset 1, -8
	.cfi_offset 8, -16
	addi	s0,sp,112
	.cfi_def_cfa 8, 0
	sd	a0,-72(s0)
	sd	a1,-80(s0)
	sd	a4,-96(s0)
	sd	a5,-104(s0)
	mv	a5,a2
	sh	a5,-82(s0)
	mv	a5,a3
	sb	a5,-83(s0)
	.loc 1 1112 6
	ld	a5,-80(s0)
	beq	a5,zero,.L142
	.loc 1 1112 21 discriminator 1
	ld	a4,-80(s0)
	li	a5,1
	beq	a4,a5,.L142
	.loc 1 1112 38 discriminator 2
	ld	a4,-80(s0)
	li	a5,3
	beq	a4,a5,.L142
	.loc 1 1116 12
	li	a5,-1
	slli	a5,a5,63
	addi	a5,a5,3
	j	.L191
.L142:
	.loc 1 1119 15
	ld	a5,-72(s0)
	addi	a5,a5,-24
	.loc 1 1119 132
	ld	a4,0(a5)
	.loc 1 1119 217
	li	a5,1801674752
	addi	a5,a5,579
	bne	a4,a5,.L144
	.loc 1 1119 11 discriminator 1
	ld	a5,-72(s0)
	addi	a5,a5,-24
	sd	a5,-24(s0)
	j	.L145
.L144:
	.loc 1 1119 11 is_stmt 0 discriminator 2
	sd	zero,-24(s0)
.L145:
	.loc 1 1121 6 is_stmt 1
	ld	a4,-80(s0)
	li	a5,3
	bne	a4,a5,.L146
	.loc 1 1122 8
	lhu	a5,-82(s0)
	sext.w	a4,a5
	li	a5,4096
	addi	a5,a5,279
	bne	a4,a5,.L146
	.loc 1 1123 11
	lla	a5,mFirstEnterBMMForm
	lbu	a5,0(a5)
	.loc 1 1123 10
	bne	a5,zero,.L146
	.loc 1 1133 9
	call	CustomizeMenus
	.loc 1 1134 9
	call	EfiBootManagerRefreshAllBootOption@plt
	.loc 1 1135 9
	ld	a0,-24(s0)
	call	BOpt_GetBootOptions@plt
	.loc 1 1136 28
	lla	a5,mFirstEnterBMMForm
	li	a4,1
	sb	a4,0(a5)
.L146:
	.loc 1 1144 20
	ld	a5,-24(s0)
	addi	a5,a5,112
	sd	a5,-32(s0)
	.loc 1 1145 16
	ld	a4,-24(s0)
	li	a5,4096
	addi	a5,a5,-408
	add	a5,a4,a5
	sd	a5,-40(s0)
	.loc 1 1146 3
	ld	a3,-32(s0)
	li	a5,4096
	addi	a2,a5,-520
	lla	a1,mBootMaintStorageName
	lla	a0,mBootMaintGuid
	call	HiiGetBrowserData@plt
	.loc 1 1148 6
	ld	a5,-80(s0)
	bne	a5,zero,.L147
	.loc 1 1149 8
	ld	a5,-96(s0)
	bne	a5,zero,.L148
	.loc 1 1150 14
	li	a5,-1
	slli	a5,a5,63
	addi	a5,a5,2
	j	.L191
.L148:
	.loc 1 1153 5
	lhu	a5,-82(s0)
	mv	a1,a5
	ld	a0,-24(s0)
	call	UpdatePageId@plt
	.loc 1 1155 20
	lh	a5,-82(s0)
	.loc 1 1155 8
	blt	a5,zero,.L149
	.loc 1 1156 10
	lhu	a5,-82(s0)
	sext.w	a4,a5
	li	a5,4096
	addi	a5,a5,511
	bgtu	a4,a5,.L150
	.loc 1 1157 9
	lhu	a5,-82(s0)
	sext.w	a5,a5
	li	a4,4096
	addi	a4,a4,33
	beq	a5,a4,.L151
	li	a4,4096
	addi	a4,a4,33
	bgt	a5,a4,.L192
	li	a4,4096
	addi	a4,a4,23
	beq	a5,a4,.L153
	li	a4,4096
	addi	a4,a4,23
	bgt	a5,a4,.L192
	li	a4,4096
	addi	a4,a4,15
	beq	a5,a4,.L154
	li	a4,4096
	addi	a4,a4,15
	bgt	a5,a4,.L192
	li	a4,4096
	addi	a4,a4,14
	beq	a5,a4,.L155
	li	a4,4096
	addi	a4,a4,14
	bgt	a5,a4,.L192
	li	a4,4096
	addi	a4,a4,11
	bgt	a5,a4,.L192
	li	a4,4096
	addi	a4,a4,9
	bge	a5,a4,.L156
	li	a4,4096
	addi	a4,a4,7
	beq	a5,a4,.L157
	li	a4,4096
	addi	a4,a4,7
	bgt	a5,a4,.L192
	li	a4,4096
	addi	a4,a4,6
	beq	a5,a4,.L158
	li	a4,4096
	addi	a4,a4,6
	bgt	a5,a4,.L192
	li	a4,4096
	addi	a4,a4,4
	beq	a5,a4,.L157
	li	a4,4096
	addi	a4,a4,4
	bgt	a5,a4,.L192
	li	a4,4096
	addi	a4,a4,2
	beq	a5,a4,.L159
	li	a4,4096
	addi	a4,a4,3
	beq	a5,a4,.L160
	.loc 1 1205 13
	j	.L192
.L159:
	.loc 1 1160 13
	addi	a5,s0,-64
	mv	a3,a5
	la	a2,CreateBootOptionFromFile
	lla	a1,.LC9
	li	a0,0
	call	ChooseFile@plt
	.loc 1 1161 13
	j	.L149
.L155:
	.loc 1 1165 13
	addi	a5,s0,-64
	mv	a3,a5
	la	a2,CreateDriverOptionFromFile
	lla	a1,.LC9
	li	a0,0
	call	ChooseFile@plt
	.loc 1 1166 13
	j	.L149
.L154:
	.loc 1 1169 13
	ld	a1,-24(s0)
	li	a5,4096
	addi	a0,a5,15
	call	CleanUpPage@plt
	.loc 1 1170 13
	ld	a0,-24(s0)
	call	UpdateDrvAddHandlePage@plt
	.loc 1 1171 13
	j	.L149
.L160:
	.loc 1 1174 13
	ld	a1,-24(s0)
	li	a5,4096
	addi	a0,a5,3
	call	CleanUpPage@plt
	.loc 1 1175 13
	ld	a0,-24(s0)
	call	UpdateBootDelPage@plt
	.loc 1 1176 13
	j	.L149
.L157:
	.loc 1 1180 13
	lhu	a5,-82(s0)
	ld	a1,-24(s0)
	mv	a0,a5
	call	UpdatePageBody@plt
	.loc 1 1181 13
	j	.L149
.L158:
	.loc 1 1184 13
	ld	a1,-24(s0)
	li	a5,4096
	addi	a0,a5,6
	call	CleanUpPage@plt
	.loc 1 1185 13
	ld	a0,-24(s0)
	call	UpdateDrvDelPage@plt
	.loc 1 1186 13
	j	.L149
.L156:
	.loc 1 1191 13
	lhu	a5,-82(s0)
	ld	a1,-24(s0)
	mv	a0,a5
	call	UpdatePageBody@plt
	.loc 1 1192 13
	j	.L149
.L151:
	.loc 1 1195 13
	ld	a1,-24(s0)
	li	a5,4096
	addi	a0,a5,33
	call	CleanUpPage@plt
	.loc 1 1196 13
	ld	a0,-24(s0)
	call	UpdateConModePage@plt
	.loc 1 1197 13
	j	.L149
.L153:
	.loc 1 1200 13
	ld	a1,-24(s0)
	li	a5,4096
	addi	a0,a5,23
	call	CleanUpPage@plt
	.loc 1 1201 13
	ld	a0,-24(s0)
	call	UpdateConCOMPage@plt
	.loc 1 1202 13
	j	.L149
.L150:
	.loc 1 1207 17
	lhu	a5,-82(s0)
	sext.w	a4,a5
	li	a5,20480
	bltu	a4,a5,.L162
	.loc 1 1207 41 discriminator 1
	lhu	a5,-82(s0)
	sext.w	a4,a5
	li	a5,24576
	bgeu	a4,a5,.L162
	.loc 1 1208 17
	lhu	a5,-82(s0)
	mv	a4,a5
	li	a5,-20480
	addw	a5,a4,a5
	slli	a5,a5,48
	srli	a5,a5,48
	.loc 1 1208 15
	sd	a5,-48(s0)
	.loc 1 1209 34
	ld	a5,-24(s0)
	ld	a4,-48(s0)
	sd	a4,96(a5)
	.loc 1 1211 9
	ld	a1,-24(s0)
	li	a5,4096
	addi	a0,a5,24
	call	CleanUpPage@plt
	.loc 1 1212 9
	ld	a0,-24(s0)
	call	UpdateTerminalPage@plt
	j	.L149
.L162:
	.loc 1 1213 17
	lhu	a5,-82(s0)
	sext.w	a4,a5
	li	a5,28672
	bltu	a4,a5,.L149
	.loc 1 1214 17
	lhu	a5,-82(s0)
	mv	a4,a5
	li	a5,-28672
	addw	a5,a4,a5
	slli	a5,a5,48
	srli	a5,a5,48
	.loc 1 1214 15
	sd	a5,-48(s0)
	.loc 1 1216 24
	ld	a1,-48(s0)
	la	a0,DriverMenu
	call	BOpt_GetMenuEntry@plt
	sd	a0,-56(s0)
	.loc 1 1218 67
	ld	a5,-56(s0)
	ld	a4,64(a5)
	.loc 1 1218 32
	ld	a5,-24(s0)
	sd	a4,64(a5)
	.loc 1 1220 9
	ld	a1,-24(s0)
	li	a5,4096
	addi	a0,a5,16
	call	CleanUpPage@plt
	.loc 1 1222 28
	ld	a5,-24(s0)
	ld	a4,-56(s0)
	sd	a4,56(a5)
	.loc 1 1223 53
	ld	a5,-24(s0)
	ld	a4,64(a5)
	.loc 1 1223 16
	ld	a5,-24(s0)
	ld	a5,80(a5)
	.loc 1 1223 68
	ld	a4,8(a4)
	.loc 1 1223 44
	sd	a4,24(a5)
	.loc 1 1225 9
	ld	a0,-24(s0)
	call	UpdateDriverAddHandleDescPage@plt
	j	.L149
.L192:
	.loc 1 1205 13
	nop
.L149:
	.loc 1 1229 8
	lhu	a5,-82(s0)
	sext.w	a4,a5
	li	a5,4096
	addi	a5,a5,269
	bne	a4,a5,.L163
	.loc 1 1231 7
	addi	a5,s0,-64
	mv	a3,a5
	la	a2,BootFromFile
	lla	a1,.LC9
	li	a0,0
	call	ChooseFile@plt
	j	.L163
.L147:
	.loc 1 1233 13
	ld	a4,-80(s0)
	li	a5,1
	bne	a4,a5,.L163
	.loc 1 1234 8
	ld	a5,-96(s0)
	beq	a5,zero,.L164
	.loc 1 1234 33 discriminator 1
	ld	a5,-104(s0)
	bne	a5,zero,.L165
.L164:
	.loc 1 1235 14
	li	a5,-1
	slli	a5,a5,63
	addi	a5,a5,2
	j	.L191
.L165:
	.loc 1 1238 8
	lhu	a5,-82(s0)
	sext.w	a4,a5
	li	a5,4096
	addi	a5,a5,275
	bne	a4,a5,.L166
	.loc 1 1239 7
	ld	a0,-24(s0)
	call	CleanUselessBeforeSubmit
	.loc 1 1240 43
	ld	a4,-32(s0)
	li	a5,4096
	add	a5,a4,a5
	sb	zero,-526(a5)
	.loc 1 1241 22
	ld	a5,-104(s0)
	li	a4,4
	sd	a4,0(a5)
	j	.L167
.L166:
	.loc 1 1242 15
	lhu	a5,-82(s0)
	sext.w	a4,a5
	li	a5,4096
	addi	a5,a5,277
	bne	a4,a5,.L168
	.loc 1 1243 7
	ld	a0,-24(s0)
	call	CleanUselessBeforeSubmit
	.loc 1 1244 45
	ld	a4,-32(s0)
	li	a5,4096
	add	a5,a4,a5
	sb	zero,-525(a5)
	.loc 1 1245 22
	ld	a5,-104(s0)
	li	a4,4
	sd	a4,0(a5)
	j	.L167
.L168:
	.loc 1 1246 15
	lhu	a5,-82(s0)
	sext.w	a4,a5
	li	a5,4096
	addi	a5,a5,278
	bne	a4,a5,.L169
	.loc 1 1250 32
	ld	a4,-32(s0)
	li	a5,4096
	addi	a5,a5,-780
	add	a5,a4,a5
	.loc 1 1250 7
	li	a1,254
	mv	a0,a5
	call	ZeroMem@plt
	.loc 1 1251 32
	ld	a4,-32(s0)
	li	a5,4096
	addi	a5,a5,-1434
	add	a5,a4,a5
	.loc 1 1251 7
	li	a1,200
	mv	a0,a5
	call	ZeroMem@plt
	.loc 1 1252 28
	ld	a4,-40(s0)
	li	a5,4096
	addi	a5,a5,-780
	add	a5,a4,a5
	.loc 1 1252 7
	li	a1,254
	mv	a0,a5
	call	ZeroMem@plt
	.loc 1 1253 28
	ld	a4,-40(s0)
	li	a5,4096
	addi	a5,a5,-980
	add	a5,a4,a5
	.loc 1 1253 7
	li	a1,200
	mv	a0,a5
	call	ZeroMem@plt
	.loc 1 1254 45
	ld	a4,-32(s0)
	li	a5,4096
	add	a5,a4,a5
	sb	zero,-525(a5)
	.loc 1 1255 40
	ld	a4,-32(s0)
	li	a5,4096
	add	a5,a4,a5
	li	a4,1
	sb	a4,-523(a5)
	.loc 1 1256 22
	ld	a5,-104(s0)
	li	a4,5
	sd	a4,0(a5)
	j	.L167
.L169:
	.loc 1 1257 15
	lhu	a5,-82(s0)
	sext.w	a4,a5
	li	a5,4096
	addi	a5,a5,276
	bne	a4,a5,.L170
	.loc 1 1261 32
	ld	a4,-32(s0)
	li	a5,4096
	addi	a5,a5,-1234
	add	a5,a4,a5
	.loc 1 1261 7
	li	a1,254
	mv	a0,a5
	call	ZeroMem@plt
	.loc 1 1262 32
	ld	a4,-32(s0)
	li	a5,4096
	addi	a5,a5,-1434
	add	a5,a4,a5
	.loc 1 1262 7
	li	a1,200
	mv	a0,a5
	call	ZeroMem@plt
	.loc 1 1263 28
	ld	a4,-40(s0)
	li	a5,4096
	addi	a5,a5,-1234
	add	a5,a4,a5
	.loc 1 1263 7
	li	a1,254
	mv	a0,a5
	call	ZeroMem@plt
	.loc 1 1264 28
	ld	a4,-40(s0)
	li	a5,4096
	addi	a5,a5,-1434
	add	a5,a4,a5
	.loc 1 1264 7
	li	a1,200
	mv	a0,a5
	call	ZeroMem@plt
	.loc 1 1265 43
	ld	a4,-32(s0)
	li	a5,4096
	add	a5,a4,a5
	sb	zero,-526(a5)
	.loc 1 1266 22
	ld	a5,-104(s0)
	li	a4,5
	sd	a4,0(a5)
	j	.L167
.L170:
	.loc 1 1267 15
	lhu	a5,-82(s0)
	sext.w	a4,a5
	li	a5,4096
	addi	a5,a5,271
	beq	a4,a5,.L171
	.loc 1 1267 39 discriminator 1
	lhu	a5,-82(s0)
	sext.w	a4,a5
	li	a5,4096
	addi	a5,a5,272
	bne	a4,a5,.L172
.L171:
	.loc 1 1268 43
	ld	a4,-32(s0)
	li	a5,4096
	add	a5,a4,a5
	li	a4,1
	sb	a4,-526(a5)
	j	.L167
.L172:
	.loc 1 1269 15
	lhu	a5,-82(s0)
	sext.w	a4,a5
	li	a5,4096
	addi	a5,a5,273
	beq	a4,a5,.L173
	.loc 1 1269 39 discriminator 1
	lhu	a5,-82(s0)
	sext.w	a4,a5
	li	a5,4096
	addi	a5,a5,274
	bne	a4,a5,.L167
.L173:
	.loc 1 1270 45
	ld	a4,-32(s0)
	li	a5,4096
	add	a5,a4,a5
	li	a4,1
	sb	a4,-525(a5)
.L167:
	.loc 1 1273 8
	lhu	a5,-82(s0)
	sext.w	a4,a5
	li	a5,8192
	addi	a5,a5,-1957
	bleu	a4,a5,.L174
	.loc 1 1273 100 discriminator 1
	lhu	a5,-82(s0)
	sext.w	a4,a5
	li	a5,8192
	addi	a5,a5,-1857
	bgtu	a4,a5,.L174
	.loc 1 1274 16
	ld	a5,-96(s0)
	lbu	a5,0(a5)
	.loc 1 1274 10
	beq	a5,zero,.L175
	.loc 1 1278 56
	lhu	a5,-82(s0)
	sext.w	a4,a5
	li	a5,-8192
	addiw	a5,a5,1956
	addw	a5,a4,a5
	sext.w	a5,a5
	.loc 1 1278 134
	ld	a4,-32(s0)
	add	a5,a4,a5
	li	a4,1
	sb	a4,1828(a5)
	.loc 1 1274 10
	j	.L177
.L175:
	.loc 1 1283 56
	lhu	a5,-82(s0)
	sext.w	a4,a5
	li	a5,-8192
	addiw	a5,a5,1956
	addw	a5,a4,a5
	sext.w	a5,a5
	.loc 1 1283 134
	ld	a4,-32(s0)
	add	a5,a4,a5
	sb	zero,1828(a5)
	.loc 1 1274 10
	j	.L177
.L174:
	.loc 1 1285 15
	lhu	a5,-82(s0)
	sext.w	a4,a5
	li	a5,8192
	addi	a5,a5,-1857
	bleu	a4,a5,.L178
	.loc 1 1285 109 discriminator 1
	lhu	a5,-82(s0)
	sext.w	a4,a5
	li	a5,8192
	addi	a5,a5,-1757
	bgtu	a4,a5,.L178
	.loc 1 1286 16
	ld	a5,-96(s0)
	lbu	a5,0(a5)
	.loc 1 1286 10
	beq	a5,zero,.L179
	.loc 1 1287 58
	lhu	a5,-82(s0)
	sext.w	a4,a5
	li	a5,-8192
	addiw	a5,a5,1856
	addw	a5,a4,a5
	sext.w	a5,a5
	.loc 1 1287 138
	ld	a4,-32(s0)
	add	a5,a4,a5
	li	a4,1
	sb	a4,1928(a5)
	.loc 1 1286 10
	j	.L177
.L179:
	.loc 1 1289 58
	lhu	a5,-82(s0)
	sext.w	a4,a5
	li	a5,-8192
	addiw	a5,a5,1856
	addw	a5,a4,a5
	sext.w	a5,a5
	.loc 1 1289 138
	ld	a4,-32(s0)
	add	a5,a4,a5
	sb	zero,1928(a5)
	.loc 1 1286 10
	j	.L177
.L178:
	.loc 1 1292 7
	lhu	a5,-82(s0)
	sext.w	a5,a5
	li	a4,4096
	addi	a4,a4,268
	bgt	a5,a4,.L181
	li	a4,4096
	addi	a4,a4,267
	bge	a5,a4,.L182
	.loc 1 1310 11
	j	.L177
.L181:
	.loc 1 1292 7
	li	a4,4096
	addi	a4,a4,270
	beq	a5,a4,.L184
	.loc 1 1310 11
	j	.L177
.L182:
	.loc 1 1295 14
	lhu	a5,-82(s0)
	sext.w	a4,a5
	li	a5,4096
	addi	a5,a5,267
	bne	a4,a5,.L185
	.loc 1 1296 13
	ld	a0,-24(s0)
	call	CleanUselessBeforeSubmit
	.loc 1 1297 28
	ld	a5,-104(s0)
	li	a4,4
	sd	a4,0(a5)
	.loc 1 1303 11
	j	.L193
.L185:
	.loc 1 1298 21
	lhu	a5,-82(s0)
	sext.w	a4,a5
	li	a5,4096
	addi	a5,a5,268
	bne	a4,a5,.L193
	.loc 1 1299 13
	ld	a1,-32(s0)
	ld	a0,-24(s0)
	call	DiscardChangeHandler
	.loc 1 1300 28
	ld	a5,-104(s0)
	li	a4,5
	sd	a4,0(a5)
	.loc 1 1303 11
	j	.L193
.L184:
	.loc 1 1306 14
	la	a5,gRT
	ld	a5,0(a5)
	ld	a5,104(a5)
	.loc 1 1306 11
	li	a3,0
	li	a2,0
	li	a1,0
	li	a0,0
	jalr	a5
.LVL17:
	.loc 1 1307 18
	li	a5,-1
	slli	a5,a5,63
	addi	a5,a5,3
	j	.L191
.L193:
	.loc 1 1303 11
	nop
.L177:
	.loc 1 1317 21
	lhu	a4,-82(s0)
	.loc 1 1317 106
	ld	a5,-24(s0)
	ld	a3,96(a5)
	.loc 1 1317 97
	li	a5,8192
	addi	a5,a5,-1556
	add	a5,a3,a5
	.loc 1 1317 8
	beq	a4,a5,.L187
	.loc 1 1317 140 discriminator 1
	lhu	a4,-82(s0)
	.loc 1 1317 225 discriminator 1
	ld	a5,-24(s0)
	ld	a3,96(a5)
	.loc 1 1317 216 discriminator 1
	li	a5,8192
	addi	a5,a5,-1456
	add	a5,a3,a5
	.loc 1 1317 125 discriminator 1
	beq	a4,a5,.L187
	.loc 1 1318 21
	lhu	a4,-82(s0)
	.loc 1 1318 104
	ld	a5,-24(s0)
	ld	a3,96(a5)
	.loc 1 1318 95
	li	a5,8192
	addi	a5,a5,-1256
	add	a5,a3,a5
	.loc 1 1317 244 discriminator 2
	beq	a4,a5,.L187
	.loc 1 1318 138
	lhu	a4,-82(s0)
	.loc 1 1318 223
	ld	a5,-24(s0)
	ld	a3,96(a5)
	.loc 1 1318 214
	li	a5,8192
	addi	a5,a5,-1356
	add	a5,a3,a5
	.loc 1 1318 123
	beq	a4,a5,.L187
	.loc 1 1319 21
	lhu	a4,-82(s0)
	.loc 1 1319 110
	ld	a5,-24(s0)
	ld	a3,96(a5)
	.loc 1 1319 101
	li	a5,8192
	addi	a5,a5,-1156
	add	a5,a3,a5
	.loc 1 1318 242 discriminator 1
	beq	a4,a5,.L187
	.loc 1 1319 144
	lhu	a4,-82(s0)
	.loc 1 1319 232
	ld	a5,-24(s0)
	ld	a3,96(a5)
	.loc 1 1319 223
	li	a5,8192
	addi	a5,a5,-1056
	add	a5,a3,a5
	.loc 1 1319 129
	bne	a4,a5,.L188
.L187:
	.loc 1 1322 7
	ld	a0,-32(s0)
	call	UpdateTerminalContent
.L188:
	.loc 1 1325 8
	lhu	a5,-82(s0)
	sext.w	a4,a5
	li	a5,4096
	addi	a5,a5,1037
	bleu	a4,a5,.L189
	.loc 1 1325 101 discriminator 1
	lhu	a5,-82(s0)
	sext.w	a4,a5
	li	a5,4096
	addi	a5,a5,1137
	bgtu	a4,a5,.L189
	.loc 1 1326 7
	ld	a1,-32(s0)
	lla	a0,.LC3
	call	UpdateConsoleContent
	j	.L163
.L189:
	.loc 1 1327 15
	lhu	a5,-82(s0)
	sext.w	a4,a5
	li	a5,4096
	addi	a5,a5,1137
	bleu	a4,a5,.L190
	.loc 1 1327 109 discriminator 1
	lhu	a5,-82(s0)
	sext.w	a4,a5
	li	a5,4096
	addi	a5,a5,1237
	bgtu	a4,a5,.L190
	.loc 1 1328 7
	ld	a1,-32(s0)
	lla	a0,.LC4
	call	UpdateConsoleContent
	j	.L163
.L190:
	.loc 1 1329 15
	lhu	a5,-82(s0)
	sext.w	a4,a5
	li	a5,4096
	addi	a5,a5,1237
	bleu	a4,a5,.L163
	.loc 1 1329 109 discriminator 1
	lhu	a5,-82(s0)
	sext.w	a4,a5
	li	a5,4096
	addi	a5,a5,1337
	bgtu	a4,a5,.L163
	.loc 1 1330 7
	ld	a1,-32(s0)
	lla	a0,.LC5
	call	UpdateConsoleContent
.L163:
	.loc 1 1337 3
	li	a4,0
	ld	a3,-32(s0)
	li	a5,4096
	addi	a2,a5,-520
	lla	a1,mBootMaintStorageName
	lla	a0,mBootMaintGuid
	call	HiiSetBrowserData@plt
	.loc 1 1339 10
	li	a5,0
.L191:
	.loc 1 1340 1
	mv	a0,a5
	ld	ra,104(sp)
	.cfi_restore 1
	ld	s0,96(sp)
	.cfi_restore 8
	.cfi_def_cfa 2, 112
	addi	sp,sp,112
	.cfi_def_cfa_offset 0
	jr	ra
	.cfi_endproc
.LFE10:
	.size	BootMaintCallback, .-BootMaintCallback
	.section	.text.DiscardChangeHandler,"ax",@progbits
	.align	1
	.globl	DiscardChangeHandler
	.type	DiscardChangeHandler, @function
DiscardChangeHandler:
.LFB11:
	.loc 1 1355 1
	.cfi_startproc
	addi	sp,sp,-48
	.cfi_def_cfa_offset 48
	sd	ra,40(sp)
	sd	s0,32(sp)
	.cfi_offset 1, -8
	.cfi_offset 8, -16
	addi	s0,sp,48
	.cfi_def_cfa 8, 0
	sd	a0,-40(s0)
	sd	a1,-48(s0)
	.loc 1 1358 18
	ld	a5,-40(s0)
	lhu	a5,108(a5)
	sext.w	a5,a5
	.loc 1 1358 3
	li	a4,4096
	addi	a4,a4,18
	beq	a5,a4,.L195
	li	a4,4096
	addi	a4,a4,18
	bgt	a5,a4,.L207
	li	a4,4096
	addi	a4,a4,17
	beq	a5,a4,.L197
	li	a4,4096
	addi	a4,a4,17
	bgt	a5,a4,.L207
	li	a4,4096
	addi	a4,a4,16
	bgt	a5,a4,.L207
	li	a4,4096
	addi	a4,a4,14
	bge	a5,a4,.L198
	li	a4,4096
	addi	a4,a4,7
	beq	a5,a4,.L199
	li	a4,4096
	addi	a4,a4,7
	bgt	a5,a4,.L207
	li	a4,4096
	addi	a4,a4,6
	beq	a5,a4,.L200
	li	a4,4096
	addi	a4,a4,6
	bgt	a5,a4,.L207
	li	a4,4096
	addi	a4,a4,3
	beq	a5,a4,.L201
	li	a4,4096
	addi	a4,a4,4
	bne	a5,a4,.L207
	.loc 1 1360 32
	ld	a5,-48(s0)
	addi	a3,a5,828
	.loc 1 1360 76
	ld	a4,-40(s0)
	li	a5,4096
	addi	a5,a5,420
	add	a5,a4,a5
	.loc 1 1360 7
	li	a2,400
	mv	a1,a5
	mv	a0,a3
	call	CopyMem@plt
	.loc 1 1361 7
	j	.L202
.L199:
	.loc 1 1364 32
	ld	a5,-48(s0)
	addi	a3,a5,1228
	.loc 1 1364 78
	ld	a4,-40(s0)
	li	a5,4096
	addi	a5,a5,820
	add	a5,a4,a5
	.loc 1 1364 7
	li	a2,400
	mv	a1,a5
	mv	a0,a3
	call	CopyMem@plt
	.loc 1 1365 7
	j	.L202
.L201:
	.loc 1 1369 18
	sh	zero,-18(s0)
	.loc 1 1369 7
	j	.L203
.L204:
	.loc 1 1370 40
	lhu	a5,-18(s0)
	sext.w	a5,a5
	.loc 1 1370 48
	ld	a4,-48(s0)
	add	a5,a4,a5
	sb	zero,1628(a5)
	.loc 1 1369 63 discriminator 3
	lhu	a5,-18(s0)
	addiw	a5,a5,1
	sh	a5,-18(s0)
.L203:
	.loc 1 1369 29 discriminator 1
	lhu	a4,-18(s0)
	.loc 1 1369 45 discriminator 1
	la	a5,BootOptionMenu
	ld	a5,24(a5)
	.loc 1 1369 29 discriminator 1
	bltu	a4,a5,.L204
	.loc 1 1373 7
	j	.L202
.L200:
	.loc 1 1377 18
	sh	zero,-18(s0)
	.loc 1 1377 7
	j	.L205
.L206:
	.loc 1 1378 42
	lhu	a5,-18(s0)
	sext.w	a5,a5
	.loc 1 1378 50
	ld	a4,-48(s0)
	add	a5,a4,a5
	sb	zero,1728(a5)
	.loc 1 1377 65 discriminator 3
	lhu	a5,-18(s0)
	addiw	a5,a5,1
	sh	a5,-18(s0)
.L205:
	.loc 1 1377 29 discriminator 1
	lhu	a4,-18(s0)
	.loc 1 1377 47 discriminator 1
	la	a5,DriverOptionMenu
	ld	a5,24(a5)
	.loc 1 1377 29 discriminator 1
	bltu	a4,a5,.L206
	.loc 1 1381 7
	j	.L202
.L197:
	.loc 1 1384 61
	ld	a4,-40(s0)
	li	a5,4096
	add	a5,a4,a5
	lw	a4,-404(a5)
	.loc 1 1384 34
	ld	a5,-48(s0)
	sw	a4,4(a5)
	.loc 1 1385 7
	j	.L202
.L195:
	.loc 1 1388 64
	ld	a4,-40(s0)
	li	a5,4096
	add	a5,a4,a5
	lhu	a4,-408(a5)
	.loc 1 1388 37
	ld	a5,-48(s0)
	sh	a4,0(a5)
	.loc 1 1389 7
	j	.L202
.L198:
	.loc 1 1394 48
	ld	a5,-48(s0)
	sh	zero,18(a5)
	.loc 1 1395 56
	ld	a5,-48(s0)
	sh	zero,218(a5)
	.loc 1 1396 7
	j	.L202
.L207:
	.loc 1 1399 7
	nop
.L202:
	.loc 1 1401 1
	nop
	ld	ra,40(sp)
	.cfi_restore 1
	ld	s0,32(sp)
	.cfi_restore 8
	.cfi_def_cfa 2, 48
	addi	sp,sp,48
	.cfi_def_cfa_offset 0
	jr	ra
	.cfi_endproc
.LFE11:
	.size	DiscardChangeHandler, .-DiscardChangeHandler
	.section	.text.CleanUselessBeforeSubmit,"ax",@progbits
	.align	1
	.globl	CleanUselessBeforeSubmit
	.type	CleanUselessBeforeSubmit, @function
CleanUselessBeforeSubmit:
.LFB12:
	.loc 1 1413 1
	.cfi_startproc
	addi	sp,sp,-48
	.cfi_def_cfa_offset 48
	sd	ra,40(sp)
	sd	s0,32(sp)
	.cfi_offset 1, -8
	.cfi_offset 8, -16
	addi	s0,sp,48
	.cfi_def_cfa 8, 0
	sd	a0,-40(s0)
	.loc 1 1416 14
	ld	a5,-40(s0)
	lhu	a5,108(a5)
	.loc 1 1416 6
	sext.w	a4,a5
	li	a5,4096
	addi	a5,a5,3
	beq	a4,a5,.L209
	.loc 1 1417 16
	sh	zero,-18(s0)
	.loc 1 1417 5
	j	.L210
.L212:
	.loc 1 1418 47
	lhu	a5,-18(s0)
	sext.w	a5,a5
	ld	a4,-40(s0)
	add	a5,a4,a5
	lbu	a5,1740(a5)
	.loc 1 1418 10
	beq	a5,zero,.L211
	.loc 1 1418 99 discriminator 1
	lhu	a5,-18(s0)
	sext.w	a5,a5
	ld	a4,-40(s0)
	add	a5,a4,a5
	lbu	a5,1940(a5)
	.loc 1 1418 55 discriminator 1
	bne	a5,zero,.L211
	.loc 1 1419 45
	lhu	a5,-18(s0)
	sext.w	a5,a5
	.loc 1 1419 53
	ld	a4,-40(s0)
	add	a5,a4,a5
	sb	zero,1740(a5)
	.loc 1 1420 48
	lhu	a5,-18(s0)
	sext.w	a5,a5
	.loc 1 1420 56
	ld	a4,-40(s0)
	add	a5,a4,a5
	li	a4,4096
	add	a5,a4,a5
	sb	zero,1220(a5)
.L211:
	.loc 1 1417 61 discriminator 2
	lhu	a5,-18(s0)
	addiw	a5,a5,1
	sh	a5,-18(s0)
.L210:
	.loc 1 1417 27 discriminator 1
	lhu	a4,-18(s0)
	.loc 1 1417 43 discriminator 1
	la	a5,BootOptionMenu
	ld	a5,24(a5)
	.loc 1 1417 27 discriminator 1
	bltu	a4,a5,.L212
.L209:
	.loc 1 1425 14
	ld	a5,-40(s0)
	lhu	a5,108(a5)
	.loc 1 1425 6
	sext.w	a4,a5
	li	a5,4096
	addi	a5,a5,6
	beq	a4,a5,.L217
	.loc 1 1426 16
	sh	zero,-18(s0)
	.loc 1 1426 5
	j	.L214
.L216:
	.loc 1 1427 49
	lhu	a5,-18(s0)
	sext.w	a5,a5
	ld	a4,-40(s0)
	add	a5,a4,a5
	lbu	a5,1840(a5)
	.loc 1 1427 10
	beq	a5,zero,.L215
	.loc 1 1427 103 discriminator 1
	lhu	a5,-18(s0)
	sext.w	a5,a5
	ld	a4,-40(s0)
	add	a5,a4,a5
	lbu	a5,2040(a5)
	.loc 1 1427 57 discriminator 1
	bne	a5,zero,.L215
	.loc 1 1428 47
	lhu	a5,-18(s0)
	sext.w	a5,a5
	.loc 1 1428 55
	ld	a4,-40(s0)
	add	a5,a4,a5
	sb	zero,1840(a5)
	.loc 1 1429 50
	lhu	a5,-18(s0)
	sext.w	a5,a5
	.loc 1 1429 58
	ld	a4,-40(s0)
	add	a5,a4,a5
	li	a4,4096
	add	a5,a4,a5
	sb	zero,1320(a5)
.L215:
	.loc 1 1426 63 discriminator 2
	lhu	a5,-18(s0)
	addiw	a5,a5,1
	sh	a5,-18(s0)
.L214:
	.loc 1 1426 27 discriminator 1
	lhu	a4,-18(s0)
	.loc 1 1426 45 discriminator 1
	la	a5,DriverOptionMenu
	ld	a5,24(a5)
	.loc 1 1426 27 discriminator 1
	bltu	a4,a5,.L216
.L217:
	.loc 1 1433 1
	nop
	ld	ra,40(sp)
	.cfi_restore 1
	ld	s0,32(sp)
	.cfi_restore 8
	.cfi_def_cfa 2, 48
	addi	sp,sp,48
	.cfi_def_cfa_offset 0
	jr	ra
	.cfi_endproc
.LFE12:
	.size	CleanUselessBeforeSubmit, .-CleanUselessBeforeSubmit
	.section	.text.CustomizeMenus,"ax",@progbits
	.align	1
	.globl	CustomizeMenus
	.type	CustomizeMenus, @function
CustomizeMenus:
.LFB13:
	.loc 1 1444 1
	.cfi_startproc
	addi	sp,sp,-48
	.cfi_def_cfa_offset 48
	sd	ra,40(sp)
	sd	s0,32(sp)
	.cfi_offset 1, -8
	.cfi_offset 8, -16
	addi	s0,sp,48
	.cfi_def_cfa 8, 0
	.loc 1 1453 23
	call	HiiAllocateOpCodeHandle@plt
	sd	a0,-24(s0)
	.loc 1 1456 21
	call	HiiAllocateOpCodeHandle@plt
	sd	a0,-32(s0)
	.loc 1 1461 42
	li	a3,21
	li	a2,0
	la	a1,gEfiIfrTianoGuid
	ld	a0,-24(s0)
	call	HiiCreateGuidOpCode@plt
	sd	a0,-40(s0)
	.loc 1 1462 32
	ld	a5,-40(s0)
	sb	zero,18(a5)
	.loc 1 1463 26
	ld	a5,-40(s0)
	lbu	a4,19(a5)
	andi	a4,a4,0
	ori	a4,a4,-4
	sb	a4,19(a5)
	lbu	a4,20(a5)
	ori	a4,a4,-1
	sb	a4,20(a5)
	.loc 1 1467 40
	li	a3,21
	li	a2,0
	la	a1,gEfiIfrTianoGuid
	ld	a0,-32(s0)
	call	HiiCreateGuidOpCode@plt
	sd	a0,-48(s0)
	.loc 1 1468 30
	ld	a5,-48(s0)
	sb	zero,18(a5)
	.loc 1 1469 24
	ld	a5,-48(s0)
	lbu	a4,19(a5)
	andi	a4,a4,0
	ori	a4,a4,-3
	sb	a4,19(a5)
	lbu	a4,20(a5)
	ori	a4,a4,-1
	sb	a4,20(a5)
	.loc 1 1475 21
	lla	a5,mBmmCallbackInfo
	ld	a5,0(a5)
	.loc 1 1474 3
	ld	a5,8(a5)
	ld	a1,-24(s0)
	mv	a0,a5
	call	UiCustomizeBMMPage@plt
	.loc 1 1480 21
	lla	a5,mBmmCallbackInfo
	ld	a5,0(a5)
	.loc 1 1479 3
	ld	a0,8(a5)
	ld	a4,-32(s0)
	ld	a3,-24(s0)
	li	a5,4096
	addi	a2,a5,1
	lla	a1,mBootMaintGuid
	call	HiiUpdateForm@plt
	.loc 1 1487 3
	ld	a0,-24(s0)
	call	HiiFreeOpCodeHandle@plt
	.loc 1 1488 3
	ld	a0,-32(s0)
	call	HiiFreeOpCodeHandle@plt
	.loc 1 1489 1
	nop
	ld	ra,40(sp)
	.cfi_restore 1
	ld	s0,32(sp)
	.cfi_restore 8
	.cfi_def_cfa 2, 48
	addi	sp,sp,48
	.cfi_def_cfa_offset 0
	jr	ra
	.cfi_endproc
.LFE13:
	.size	CustomizeMenus, .-CustomizeMenus
	.section	.text.InitializeBmmConfig,"ax",@progbits
	.align	1
	.globl	InitializeBmmConfig
	.type	InitializeBmmConfig, @function
InitializeBmmConfig:
.LFB14:
	.loc 1 1502 1
	.cfi_startproc
	addi	sp,sp,-64
	.cfi_def_cfa_offset 64
	sd	ra,56(sp)
	sd	s0,48(sp)
	.cfi_offset 1, -8
	.cfi_offset 8, -16
	addi	s0,sp,64
	.cfi_def_cfa 8, 0
	sd	a0,-56(s0)
	.loc 1 1512 40
	ld	a5,-56(s0)
	li	a4,65536
	sw	a4,116(a5)
	.loc 1 1513 14
	sh	zero,-18(s0)
	.loc 1 1513 3
	j	.L220
.L223:
	.loc 1 1514 20
	lhu	a5,-18(s0)
	mv	a1,a5
	la	a0,BootOptionMenu
	call	BOpt_GetMenuEntry@plt
	sd	a0,-32(s0)
	.loc 1 1515 20
	ld	a5,-32(s0)
	ld	a5,64(a5)
	sd	a5,-40(s0)
	.loc 1 1517 23
	ld	a5,-40(s0)
	lbu	a5,0(a5)
	.loc 1 1517 8
	beq	a5,zero,.L221
	.loc 1 1518 44
	lhu	a5,-18(s0)
	sext.w	a4,a5
	ld	a5,-56(s0)
	sw	a4,116(a5)
	.loc 1 1519 7
	j	.L222
.L221:
	.loc 1 1513 59 discriminator 2
	lhu	a5,-18(s0)
	addiw	a5,a5,1
	sh	a5,-18(s0)
.L220:
	.loc 1 1513 25 discriminator 1
	lhu	a4,-18(s0)
	.loc 1 1513 41 discriminator 1
	la	a5,BootOptionMenu
	ld	a5,24(a5)
	.loc 1 1513 25 discriminator 1
	bltu	a4,a5,.L223
.L222:
	.loc 1 1523 45
	li	a0,13
	call	LibPcdGet16@plt
	mv	a5,a0
	mv	a4,a5
	.loc 1 1523 43 discriminator 1
	ld	a5,-56(s0)
	sh	a4,112(a5)
	.loc 1 1528 3
	ld	a0,-56(s0)
	call	GetBootOrder@plt
	.loc 1 1533 3
	ld	a0,-56(s0)
	call	GetDriverOrder@plt
	.loc 1 1538 3
	ld	a0,-56(s0)
	call	GetConsoleOutMode@plt
	.loc 1 1539 3
	ld	a0,-56(s0)
	call	GetConsoleInCheck@plt
	.loc 1 1540 3
	ld	a0,-56(s0)
	call	GetConsoleOutCheck@plt
	.loc 1 1541 3
	ld	a0,-56(s0)
	call	GetConsoleErrCheck@plt
	.loc 1 1542 3
	ld	a0,-56(s0)
	call	GetTerminalAttribute@plt
	.loc 1 1544 46
	ld	a4,-56(s0)
	li	a5,4096
	add	a5,a4,a5
	li	a4,1
	sb	a4,-411(a5)
	.loc 1 1549 12
	ld	a4,-56(s0)
	li	a5,4096
	addi	a5,a5,-408
	add	a4,a4,a5
	.loc 1 1549 45
	ld	a5,-56(s0)
	addi	a3,a5,112
	.loc 1 1549 3
	li	a5,4096
	addi	a2,a5,-520
	mv	a1,a3
	mv	a0,a4
	call	CopyMem@plt
	.loc 1 1550 1
	nop
	ld	ra,56(sp)
	.cfi_restore 1
	ld	s0,48(sp)
	.cfi_restore 8
	.cfi_def_cfa 2, 64
	addi	sp,sp,64
	.cfi_def_cfa_offset 0
	jr	ra
	.cfi_endproc
.LFE14:
	.size	InitializeBmmConfig, .-InitializeBmmConfig
	.section	.text.InitAllMenu,"ax",@progbits
	.align	1
	.globl	InitAllMenu
	.type	InitAllMenu, @function
InitAllMenu:
.LFB15:
	.loc 1 1562 1
	.cfi_startproc
	addi	sp,sp,-32
	.cfi_def_cfa_offset 32
	sd	ra,24(sp)
	sd	s0,16(sp)
	.cfi_offset 1, -8
	.cfi_offset 8, -16
	addi	s0,sp,32
	.cfi_def_cfa 8, 0
	sd	a0,-24(s0)
	.loc 1 1563 3
	la	a5,BootOptionMenu
	addi	a0,a5,8
	call	InitializeListHead@plt
	.loc 1 1564 3
	la	a5,DriverOptionMenu
	addi	a0,a5,8
	call	InitializeListHead@plt
	.loc 1 1565 3
	ld	a0,-24(s0)
	call	BOpt_GetBootOptions@plt
	.loc 1 1566 3
	ld	a0,-24(s0)
	call	BOpt_GetDriverOptions@plt
	.loc 1 1567 3
	call	BOpt_FindDrivers@plt
	.loc 1 1568 3
	la	a5,ConsoleInpMenu
	addi	a0,a5,8
	call	InitializeListHead@plt
	.loc 1 1569 3
	la	a5,ConsoleOutMenu
	addi	a0,a5,8
	call	InitializeListHead@plt
	.loc 1 1570 3
	la	a5,ConsoleErrMenu
	addi	a0,a5,8
	call	InitializeListHead@plt
	.loc 1 1571 3
	la	a5,TerminalMenu
	addi	a0,a5,8
	call	InitializeListHead@plt
	.loc 1 1572 3
	call	LocateSerialIo@plt
	.loc 1 1573 3
	call	GetAllConsoles@plt
	.loc 1 1574 16
	lla	a5,mAllMenuInit
	li	a4,1
	sb	a4,0(a5)
	.loc 1 1575 1
	nop
	ld	ra,24(sp)
	.cfi_restore 1
	ld	s0,16(sp)
	.cfi_restore 8
	.cfi_def_cfa 2, 32
	addi	sp,sp,32
	.cfi_def_cfa_offset 0
	jr	ra
	.cfi_endproc
.LFE15:
	.size	InitAllMenu, .-InitAllMenu
	.section	.text.FreeAllMenu,"ax",@progbits
	.align	1
	.globl	FreeAllMenu
	.type	FreeAllMenu, @function
FreeAllMenu:
.LFB16:
	.loc 1 1585 1
	.cfi_startproc
	addi	sp,sp,-16
	.cfi_def_cfa_offset 16
	sd	ra,8(sp)
	sd	s0,0(sp)
	.cfi_offset 1, -8
	.cfi_offset 8, -16
	addi	s0,sp,16
	.cfi_def_cfa 8, 0
	.loc 1 1586 7
	lla	a5,mAllMenuInit
	lbu	a5,0(a5)
	.loc 1 1586 6
	beq	a5,zero,.L228
	.loc 1 1590 3
	la	a0,BootOptionMenu
	call	BOpt_FreeMenu@plt
	.loc 1 1591 3
	la	a0,DriverOptionMenu
	call	BOpt_FreeMenu@plt
	.loc 1 1592 3
	la	a0,DriverMenu
	call	BOpt_FreeMenu@plt
	.loc 1 1593 3
	call	FreeAllConsoles@plt
	.loc 1 1594 16
	lla	a5,mAllMenuInit
	sb	zero,0(a5)
	j	.L225
.L228:
	.loc 1 1587 5
	nop
.L225:
	.loc 1 1595 1
	ld	ra,8(sp)
	.cfi_restore 1
	ld	s0,0(sp)
	.cfi_restore 8
	.cfi_def_cfa 2, 16
	addi	sp,sp,16
	.cfi_def_cfa_offset 0
	jr	ra
	.cfi_endproc
.LFE16:
	.size	FreeAllMenu, .-FreeAllMenu
	.section	.text.BmmInitialBootModeInfo,"ax",@progbits
	.align	1
	.globl	BmmInitialBootModeInfo
	.type	BmmInitialBootModeInfo, @function
BmmInitialBootModeInfo:
.LFB17:
	.loc 1 1605 1
	.cfi_startproc
	addi	sp,sp,-64
	.cfi_def_cfa_offset 64
	sd	ra,56(sp)
	sd	s0,48(sp)
	.cfi_offset 1, -8
	.cfi_offset 8, -16
	addi	s0,sp,64
	.cfi_def_cfa 8, 0
	.loc 1 1612 7
	lla	a5,mBmmModeInitialized
	lbu	a5,0(a5)
	.loc 1 1612 6
	bne	a5,zero,.L236
	.loc 1 1620 15
	la	a5,gBS
	ld	a5,0(a5)
	ld	a5,152(a5)
	.loc 1 1621 22
	la	a4,gST
	ld	a4,0(a4)
	.loc 1 1620 12
	ld	a4,56(a4)
	addi	a3,s0,-32
	mv	a2,a3
	la	a1,gEfiGraphicsOutputProtocolGuid
	mv	a0,a4
	jalr	a5
.LVL18:
	sd	a0,-24(s0)
	.loc 1 1625 34
	ld	a5,-24(s0)
	.loc 1 1625 6
	bge	a5,zero,.L232
	.loc 1 1626 20
	sd	zero,-32(s0)
.L232:
	.loc 1 1629 15
	la	a5,gBS
	ld	a5,0(a5)
	ld	a5,152(a5)
	.loc 1 1630 22
	la	a4,gST
	ld	a4,0(a4)
	.loc 1 1629 12
	ld	a4,56(a4)
	addi	a3,s0,-40
	mv	a2,a3
	la	a1,gEfiSimpleTextOutProtocolGuid
	mv	a0,a4
	jalr	a5
.LVL19:
	sd	a0,-24(s0)
	.loc 1 1634 34
	ld	a5,-24(s0)
	.loc 1 1634 6
	bge	a5,zero,.L233
	.loc 1 1635 19
	sd	zero,-40(s0)
.L233:
	.loc 1 1638 22
	ld	a5,-32(s0)
	.loc 1 1638 6
	beq	a5,zero,.L234
	.loc 1 1642 50
	ld	a5,-32(s0)
	ld	a5,24(a5)
	.loc 1 1642 56
	ld	a5,8(a5)
	.loc 1 1642 62
	lw	a4,4(a5)
	.loc 1 1642 34
	lla	a5,mBmmBootHorizontalResolution
	sw	a4,0(a5)
	.loc 1 1643 48
	ld	a5,-32(s0)
	ld	a5,24(a5)
	.loc 1 1643 54
	ld	a5,8(a5)
	.loc 1 1643 60
	lw	a4,8(a5)
	.loc 1 1643 32
	lla	a5,mBmmBootVerticalResolution
	sw	a4,0(a5)
.L234:
	.loc 1 1646 21
	ld	a5,-40(s0)
	.loc 1 1646 6
	beq	a5,zero,.L235
	.loc 1 1647 27
	ld	a5,-40(s0)
	ld	a5,24(a5)
	.loc 1 1647 14
	ld	a0,-40(s0)
	.loc 1 1649 44
	ld	a4,-40(s0)
	ld	a4,72(a4)
	.loc 1 1649 50
	lw	a4,4(a4)
	.loc 1 1647 14
	mv	a1,a4
	addi	a3,s0,-56
	addi	a4,s0,-48
	mv	a2,a4
	jalr	a5
.LVL20:
	sd	a0,-24(s0)
	.loc 1 1653 30
	ld	a5,-48(s0)
	sext.w	a4,a5
	.loc 1 1653 28
	lla	a5,mBmmBootTextModeColumn
	sw	a4,0(a5)
	.loc 1 1654 27
	ld	a5,-56(s0)
	sext.w	a4,a5
	.loc 1 1654 25
	lla	a5,mBmmBootTextModeRow
	sw	a4,0(a5)
.L235:
	.loc 1 1660 33
	la	a5,_gPcd_BinaryPatch_PcdSetupVideoHorizontalResolution
	lw	a5,0(a5)
	sext.w	a4,a5
	lla	a5,mBmmSetupHorizontalResolution
	sw	a4,0(a5)
	.loc 1 1661 31
	la	a5,_gPcd_BinaryPatch_PcdSetupVideoVerticalResolution
	lw	a5,0(a5)
	sext.w	a4,a5
	lla	a5,mBmmSetupVerticalResolution
	sw	a4,0(a5)
	.loc 1 1662 27
	la	a5,_gPcd_BinaryPatch_PcdSetupConOutColumn
	lw	a5,0(a5)
	sext.w	a4,a5
	lla	a5,mBmmSetupTextModeColumn
	sw	a4,0(a5)
	.loc 1 1663 24
	la	a5,_gPcd_BinaryPatch_PcdSetupConOutRow
	lw	a5,0(a5)
	sext.w	a4,a5
	lla	a5,mBmmSetupTextModeRow
	sw	a4,0(a5)
	.loc 1 1665 23
	lla	a5,mBmmModeInitialized
	li	a4,1
	sb	a4,0(a5)
	j	.L229
.L236:
	.loc 1 1613 5 discriminator 1
	nop
.L229:
	.loc 1 1666 1
	ld	ra,56(sp)
	.cfi_restore 1
	ld	s0,48(sp)
	.cfi_restore 8
	.cfi_def_cfa 2, 64
	addi	sp,sp,64
	.cfi_def_cfa_offset 0
	jr	ra
	.cfi_endproc
.LFE17:
	.size	BmmInitialBootModeInfo, .-BmmInitialBootModeInfo
	.section	.text.BootMaintenanceManagerUiLibConstructor,"ax",@progbits
	.align	1
	.globl	BootMaintenanceManagerUiLibConstructor
	.type	BootMaintenanceManagerUiLibConstructor, @function
BootMaintenanceManagerUiLibConstructor:
.LFB18:
	.loc 1 1686 1
	.cfi_startproc
	addi	sp,sp,-64
	.cfi_def_cfa_offset 64
	sd	ra,56(sp)
	sd	s0,48(sp)
	sd	s1,40(sp)
	.cfi_offset 1, -8
	.cfi_offset 8, -16
	.cfi_offset 9, -24
	addi	s0,sp,64
	.cfi_def_cfa 8, 0
	sd	a0,-56(s0)
	sd	a1,-64(s0)
	.loc 1 1690 10
	sd	zero,-40(s0)
	.loc 1 1695 15
	la	a5,gBS
	ld	a5,0(a5)
	ld	a6,328(a5)
	.loc 1 1696 36
	lla	a5,mBmmCallbackInfo
	ld	a5,0(a5)
	.loc 1 1695 12
	addi	a0,a5,16
	.loc 1 1700 36
	lla	a5,mBmmCallbackInfo
	ld	a5,0(a5)
	.loc 1 1695 12
	addi	a4,a5,24
	li	a5,0
	la	a3,gEfiHiiConfigAccessProtocolGuid
	lla	a2,mBmmHiiVendorDevicePath
	la	a1,gEfiDevicePathProtocolGuid
	jalr	a6
.LVL21:
	sd	a0,-40(s0)
	.loc 1 1710 54
	lla	a5,mBmmCallbackInfo
	ld	a5,0(a5)
	.loc 1 1708 36
	ld	a1,16(a5)
	.loc 1 1708 19
	lla	a5,mBmmCallbackInfo
	ld	s1,0(a5)
	.loc 1 1708 36
	li	a4,0
	la	a3,BootMaintenanceManagerUiLibStrings
	la	a2,BootMaintenanceManagerBin
	lla	a0,mBootMaintGuid
	call	HiiAddPackages@plt
	mv	a5,a0
	.loc 1 1708 34 discriminator 1
	sd	a5,8(s1)
	.loc 1 1720 15
	la	a5,gBS
	ld	a5,0(a5)
	ld	a5,320(a5)
	.loc 1 1720 104
	lla	a4,mBmmCallbackInfo
	ld	a4,0(a4)
	.loc 1 1720 87
	addi	a4,a4,48
	.loc 1 1720 12
	mv	a2,a4
	li	a1,0
	la	a0,gEfiFormBrowser2ProtocolGuid
	jalr	a5
.LVL22:
	sd	a0,-40(s0)
	.loc 1 1726 9
	li	a0,176
	call	AllocateZeroPool@plt
	sd	a0,-48(s0)
	.loc 1 1732 19
	lla	a5,mBmmCallbackInfo
	ld	a5,0(a5)
	.loc 1 1732 33
	ld	a4,-48(s0)
	sd	a4,80(a5)
	.loc 1 1733 7
	ld	a5,-48(s0)
	addi	a5,a5,40
	sd	a5,-48(s0)
	.loc 1 1735 19
	lla	a5,mBmmCallbackInfo
	ld	a5,0(a5)
	.loc 1 1735 33
	ld	a4,-48(s0)
	sd	a4,72(a5)
	.loc 1 1736 7
	ld	a5,-48(s0)
	addi	a5,a5,48
	sd	a5,-48(s0)
	.loc 1 1738 19
	lla	a5,mBmmCallbackInfo
	ld	a5,0(a5)
	.loc 1 1738 35
	ld	a4,-48(s0)
	sd	a4,64(a5)
	.loc 1 1739 7
	ld	a5,-48(s0)
	addi	a5,a5,16
	sd	a5,-48(s0)
	.loc 1 1741 19
	lla	a5,mBmmCallbackInfo
	ld	a5,0(a5)
	.loc 1 1741 31
	ld	a4,-48(s0)
	sd	a4,56(a5)
	.loc 1 1743 19
	lla	a5,mBmmCallbackInfo
	ld	a5,0(a5)
	.loc 1 1743 39
	li	a4,4096
	addi	a4,a4,1
	sh	a4,108(a5)
	.loc 1 1744 19
	lla	a5,mBmmCallbackInfo
	ld	a5,0(a5)
	.loc 1 1744 38
	li	a4,4096
	addi	a4,a4,1
	sh	a4,106(a5)
	.loc 1 1746 3
	lla	a5,mBmmCallbackInfo
	ld	a5,0(a5)
	mv	a0,a5
	call	InitAllMenu
	.loc 1 1748 3
	call	CreateUpdateData@plt
	.loc 1 1752 3
	lla	a5,mBmmCallbackInfo
	ld	a5,0(a5)
	mv	a0,a5
	call	InitializeBmmConfig
	.loc 1 1754 3
	call	BmmInitialBootModeInfo
	.loc 1 1756 10
	li	a5,0
	.loc 1 1757 1
	mv	a0,a5
	ld	ra,56(sp)
	.cfi_restore 1
	ld	s0,48(sp)
	.cfi_restore 8
	.cfi_def_cfa 2, 64
	ld	s1,40(sp)
	.cfi_restore 9
	addi	sp,sp,64
	.cfi_def_cfa_offset 0
	jr	ra
	.cfi_endproc
.LFE18:
	.size	BootMaintenanceManagerUiLibConstructor, .-BootMaintenanceManagerUiLibConstructor
	.section	.text.BootMaintenanceManagerUiLibDestructor,"ax",@progbits
	.align	1
	.globl	BootMaintenanceManagerUiLibDestructor
	.type	BootMaintenanceManagerUiLibDestructor, @function
BootMaintenanceManagerUiLibDestructor:
.LFB19:
	.loc 1 1775 1
	.cfi_startproc
	addi	sp,sp,-32
	.cfi_def_cfa_offset 32
	sd	ra,24(sp)
	sd	s0,16(sp)
	.cfi_offset 1, -8
	.cfi_offset 8, -16
	addi	s0,sp,32
	.cfi_def_cfa 8, 0
	sd	a0,-24(s0)
	sd	a1,-32(s0)
	.loc 1 1776 26
	la	a5,mStartOpCodeHandle
	ld	a5,0(a5)
	.loc 1 1776 6
	beq	a5,zero,.L240
	.loc 1 1777 5
	la	a5,mStartOpCodeHandle
	ld	a5,0(a5)
	mv	a0,a5
	call	HiiFreeOpCodeHandle@plt
.L240:
	.loc 1 1780 24
	la	a5,mEndOpCodeHandle
	ld	a5,0(a5)
	.loc 1 1780 6
	beq	a5,zero,.L241
	.loc 1 1781 5
	la	a5,mEndOpCodeHandle
	ld	a5,0(a5)
	mv	a0,a5
	call	HiiFreeOpCodeHandle@plt
.L241:
	.loc 1 1784 3
	call	FreeAllMenu
	.loc 1 1789 38
	lla	a5,mBmmCallbackInfo
	ld	a5,0(a5)
	.loc 1 1789 3
	ld	a5,8(a5)
	mv	a0,a5
	call	HiiRemovePackages@plt
	.loc 1 1791 6
	la	a5,gBS
	ld	a5,0(a5)
	ld	a6,336(a5)
	.loc 1 1792 26
	lla	a5,mBmmCallbackInfo
	ld	a5,0(a5)
	.loc 1 1791 3
	ld	a0,16(a5)
	.loc 1 1796 27
	lla	a5,mBmmCallbackInfo
	ld	a5,0(a5)
	.loc 1 1791 3
	addi	a4,a5,24
	li	a5,0
	la	a3,gEfiHiiConfigAccessProtocolGuid
	lla	a2,mBmmHiiVendorDevicePath
	la	a1,gEfiDevicePathProtocolGuid
	jalr	a6
.LVL23:
	.loc 1 1800 29
	lla	a5,mBmmCallbackInfo
	ld	a5,0(a5)
	ld	a5,80(a5)
	.loc 1 1800 3
	mv	a0,a5
	call	FreePool@plt
	.loc 1 1801 19
	lla	a5,mBmmCallbackInfo
	ld	a5,0(a5)
	.loc 1 1801 37
	sd	zero,16(a5)
	.loc 1 1803 10
	li	a5,0
	.loc 1 1804 1
	mv	a0,a5
	ld	ra,24(sp)
	.cfi_restore 1
	ld	s0,16(sp)
	.cfi_restore 8
	.cfi_def_cfa 2, 32
	addi	sp,sp,32
	.cfi_def_cfa_offset 0
	jr	ra
	.cfi_endproc
.LFE19:
	.size	BootMaintenanceManagerUiLibDestructor, .-BootMaintenanceManagerUiLibDestructor
	.text
.Letext0:
	.file 2 "/home/kapoagaeming/spacemit-image-builder/components/edk2/MdePkg/Include/RiscV64/ProcessorBind.h"
	.file 3 "/home/kapoagaeming/spacemit-image-builder/components/edk2/MdePkg/Include/Base.h"
	.file 4 "/home/kapoagaeming/spacemit-image-builder/components/edk2/MdePkg/Include/Uefi/UefiBaseType.h"
	.file 5 "/home/kapoagaeming/spacemit-image-builder/components/edk2/MdePkg/Include/Uefi/UefiMultiPhase.h"
	.file 6 "/home/kapoagaeming/spacemit-image-builder/components/edk2/MdePkg/Include/Protocol/DevicePath.h"
	.file 7 "/home/kapoagaeming/spacemit-image-builder/components/edk2/MdePkg/Include/Protocol/SimpleTextIn.h"
	.file 8 "/home/kapoagaeming/spacemit-image-builder/components/edk2/MdePkg/Include/Protocol/SimpleTextOut.h"
	.file 9 "/home/kapoagaeming/spacemit-image-builder/components/edk2/MdePkg/Include/Uefi/UefiSpec.h"
	.file 10 "/home/kapoagaeming/spacemit-image-builder/components/edk2/MdePkg/Include/Uefi/UefiInternalFormRepresentation.h"
	.file 11 "/home/kapoagaeming/spacemit-image-builder/components/Build/Milk-V-Jupiter/RELEASE_GCC5/RISCV64/MdeModulePkg/Library/BootMaintenanceManagerUiLib/BootMaintenanceManagerUiLib/DEBUG/AutoGen.h"
	.file 12 "/home/kapoagaeming/spacemit-image-builder/components/Build/Milk-V-Jupiter/RELEASE_GCC5/RISCV64/MdeModulePkg/Library/BootMaintenanceManagerUiLib/BootMaintenanceManagerUiLib/DEBUG/BootMaintenanceManagerUiLibStrDefs.h"
	.file 13 "/home/kapoagaeming/spacemit-image-builder/components/edk2/MdeModulePkg/Library/BootMaintenanceManagerUiLib/FormGuid.h"
	.file 14 "/home/kapoagaeming/spacemit-image-builder/components/edk2/MdeModulePkg/Include/Guid/MdeModuleHii.h"
	.file 15 "/home/kapoagaeming/spacemit-image-builder/components/edk2/MdePkg/Include/Guid/FileSystemVolumeLabelInfo.h"
	.file 16 "/home/kapoagaeming/spacemit-image-builder/components/edk2/MdePkg/Include/Protocol/FormBrowser2.h"
	.file 17 "/home/kapoagaeming/spacemit-image-builder/components/edk2/MdePkg/Include/Protocol/HiiConfigAccess.h"
	.file 18 "/home/kapoagaeming/spacemit-image-builder/components/edk2/MdePkg/Include/Protocol/SimpleFileSystem.h"
	.file 19 "/home/kapoagaeming/spacemit-image-builder/components/edk2/MdePkg/Include/Protocol/DevicePathToText.h"
	.file 20 "/home/kapoagaeming/spacemit-image-builder/components/edk2/MdePkg/Include/Library/UefiBootServicesTableLib.h"
	.file 21 "/home/kapoagaeming/spacemit-image-builder/components/edk2/MdePkg/Include/Protocol/GraphicsOutput.h"
	.file 22 "/home/kapoagaeming/spacemit-image-builder/components/edk2/MdePkg/Include/Library/UefiRuntimeServicesTableLib.h"
	.file 23 "/home/kapoagaeming/spacemit-image-builder/components/edk2/MdePkg/Include/Protocol/HiiDatabase.h"
	.file 24 "/home/kapoagaeming/spacemit-image-builder/components/edk2/MdePkg/Include/Protocol/HiiConfigRouting.h"
	.file 25 "/home/kapoagaeming/spacemit-image-builder/components/edk2/MdeModulePkg/Include/Library/UefiHiiServicesLib.h"
	.file 26 "/home/kapoagaeming/spacemit-image-builder/components/edk2/MdeModulePkg/Include/Protocol/FileExplorer.h"
	.file 27 "/home/kapoagaeming/spacemit-image-builder/components/edk2/MdeModulePkg/Library/BootMaintenanceManagerUiLib/BootMaintenanceManager.h"
	.file 28 "/home/kapoagaeming/spacemit-image-builder/components/edk2/MdeModulePkg/Include/Library/HiiLib.h"
	.file 29 "/home/kapoagaeming/spacemit-image-builder/components/edk2/MdePkg/Include/Library/BaseLib.h"
	.file 30 "/home/kapoagaeming/spacemit-image-builder/components/edk2/MdePkg/Include/Library/PcdLib.h"
	.file 31 "/home/kapoagaeming/spacemit-image-builder/components/edk2/MdeModulePkg/Library/BootMaintenanceManagerUiLib/BootMaintenanceManagerCustomizedUi.h"
	.file 32 "/home/kapoagaeming/spacemit-image-builder/components/edk2/MdePkg/Include/Library/BaseMemoryLib.h"
	.file 33 "/home/kapoagaeming/spacemit-image-builder/components/edk2/MdeModulePkg/Include/Library/FileExplorerLib.h"
	.file 34 "/home/kapoagaeming/spacemit-image-builder/components/edk2/MdeModulePkg/Include/Library/UefiBootManagerLib.h"
	.file 35 "/home/kapoagaeming/spacemit-image-builder/components/edk2/MdePkg/Include/Library/PrintLib.h"
	.file 36 "/home/kapoagaeming/spacemit-image-builder/components/edk2/MdePkg/Include/Library/MemoryAllocationLib.h"
	.file 37 "/home/kapoagaeming/spacemit-image-builder/components/edk2/MdePkg/Include/Library/DevicePathLib.h"
	.section	.note.GNU-stack,"",@progbits
