	.file	"BootMaintenanceManagerCustomizedUiSupport.c"
	.option pic
	.option norelax
	.attribute arch, "rv64i2p1_m2p0_a2p1_f2p2_d2p2_c2p0_zicsr2p0_zifencei2p0_zmmul1p0_zaamo1p0_zalrsc1p0_zca1p0_zcd1p0"
	.attribute unaligned_access, 0
	.attribute stack_align, 16
	.text
.Ltext0:
	.cfi_sections	.debug_frame
	.file 0 "/home/kapoagaeming/Downloads/spacemit-image-builder/components/Build/Milk-V-Jupiter/RELEASE_GCC5/RISCV64/MdeModulePkg/Library/BootMaintenanceManagerUiLib/BootMaintenanceManagerUiLib" "/home/kapoagaeming/Downloads/spacemit-image-builder/components/edk2/MdeModulePkg/Library/BootMaintenanceManagerUiLib/BootMaintenanceManagerCustomizedUiSupport.c"
	.section	.bss.gHiiDriverList,"aw",@nobits
	.align	3
	.type	gHiiDriverList, @object
	.size	gHiiDriverList, 8
gHiiDriverList:
	.zero	8
	.section	.text.BmmCreateBootNextMenu,"ax",@progbits
	.align	1
	.globl	BmmCreateBootNextMenu
	.type	BmmCreateBootNextMenu, @function
BmmCreateBootNextMenu:
.LFB0:
	.file 1 "/home/kapoagaeming/Downloads/spacemit-image-builder/components/edk2/MdeModulePkg/Library/BootMaintenanceManagerUiLib/BootMaintenanceManagerCustomizedUiSupport.c"
	.loc 1 36 1
	.cfi_startproc
	addi	sp,sp,-80
	.cfi_def_cfa_offset 80
	sd	ra,72(sp)
	sd	s0,64(sp)
	.cfi_offset 1, -8
	.cfi_offset 8, -16
	addi	s0,sp,80
	.cfi_def_cfa 8, 0
	sd	a0,-56(s0)
	sd	a1,-64(s0)
	.loc 1 43 21
	la	a5,BootOptionMenu
	ld	a5,24(a5)
	.loc 1 43 6
	beq	a5,zero,.L10
	.loc 1 47 17
	li	a5,65536
	sw	a5,-24(s0)
	.loc 1 49 25
	call	HiiAllocateOpCodeHandle@plt
	sd	a0,-32(s0)
	.loc 1 52 14
	sh	zero,-18(s0)
	.loc 1 52 3
	j	.L4
.L7:
	.loc 1 53 20
	lhu	a5,-18(s0)
	mv	a1,a5
	la	a0,BootOptionMenu
	call	BOpt_GetMenuEntry@plt
	sd	a0,-40(s0)
	.loc 1 54 20
	ld	a5,-40(s0)
	ld	a5,64(a5)
	sd	a5,-48(s0)
	.loc 1 56 23
	ld	a5,-48(s0)
	lbu	a5,0(a5)
	.loc 1 56 8
	beq	a5,zero,.L5
	.loc 1 59 21
	ld	a5,-40(s0)
	lhu	a5,48(a5)
	.loc 1 57 7
	lhu	a4,-18(s0)
	li	a3,2
	li	a2,16
	mv	a1,a5
	ld	a0,-32(s0)
	call	HiiCreateOneOfOptionOpCode@plt
	.loc 1 64 21
	lhu	a5,-18(s0)
	sw	a5,-24(s0)
	j	.L6
.L5:
	.loc 1 68 21
	ld	a5,-40(s0)
	lhu	a5,48(a5)
	.loc 1 66 7
	lhu	a4,-18(s0)
	li	a3,2
	li	a2,0
	mv	a1,a5
	ld	a0,-32(s0)
	call	HiiCreateOneOfOptionOpCode@plt
.L6:
	.loc 1 52 59 discriminator 2
	lhu	a5,-18(s0)
	addiw	a5,a5,1
	sh	a5,-18(s0)
.L4:
	.loc 1 52 25 discriminator 1
	lhu	a4,-18(s0)
	.loc 1 52 41 discriminator 1
	la	a5,BootOptionMenu
	ld	a5,24(a5)
	.loc 1 52 25 discriminator 1
	bltu	a4,a5,.L7
	.loc 1 76 6
	lw	a5,-24(s0)
	sext.w	a4,a5
	li	a5,65536
	bne	a4,a5,.L8
	.loc 1 77 5
	li	a4,65536
	li	a3,2
	li	a2,16
	li	a1,3
	ld	a0,-32(s0)
	call	HiiCreateOneOfOptionOpCode@plt
	j	.L9
.L8:
	.loc 1 85 5
	li	a4,65536
	li	a3,2
	li	a2,0
	li	a1,3
	ld	a0,-32(s0)
	call	HiiCreateOneOfOptionOpCode@plt
.L9:
	.loc 1 94 3
	sd	zero,8(sp)
	ld	a5,-32(s0)
	sd	a5,0(sp)
	li	a7,2
	li	a6,0
	li	a5,40
	li	a4,39
	li	a3,4
	li	a2,4096
	li	a1,4096
	addi	a1,a1,516
	ld	a0,-64(s0)
	call	HiiCreateOneOfOpCode@plt
	.loc 1 107 3
	ld	a0,-32(s0)
	call	HiiFreeOpCodeHandle@plt
	j	.L1
.L10:
	.loc 1 44 5
	nop
.L1:
	.loc 1 108 1
	ld	ra,72(sp)
	.cfi_restore 1
	ld	s0,64(sp)
	.cfi_restore 8
	.cfi_def_cfa 2, 80
	addi	sp,sp,80
	.cfi_def_cfa_offset 0
	jr	ra
	.cfi_endproc
.LFE0:
	.size	BmmCreateBootNextMenu, .-BmmCreateBootNextMenu
	.section	.text.BmmCreateTimeOutMenu,"ax",@progbits
	.align	1
	.globl	BmmCreateTimeOutMenu
	.type	BmmCreateTimeOutMenu, @function
BmmCreateTimeOutMenu:
.LFB1:
	.loc 1 122 1
	.cfi_startproc
	addi	sp,sp,-64
	.cfi_def_cfa_offset 64
	sd	ra,56(sp)
	sd	s0,48(sp)
	.cfi_offset 1, -8
	.cfi_offset 8, -16
	addi	s0,sp,64
	.cfi_def_cfa 8, 0
	sd	a0,-24(s0)
	sd	a1,-32(s0)
	.loc 1 123 3
	sd	zero,24(sp)
	sd	zero,16(sp)
	li	a5,65536
	addi	a5,a5,-1
	sd	a5,8(sp)
	sd	zero,0(sp)
	li	a7,17
	li	a6,4
	li	a5,38
	li	a4,37
	li	a3,0
	li	a2,4096
	li	a1,4096
	addi	a1,a1,18
	ld	a0,-32(s0)
	call	HiiCreateNumericOpCode@plt
	.loc 1 137 1
	nop
	ld	ra,56(sp)
	.cfi_restore 1
	ld	s0,48(sp)
	.cfi_restore 8
	.cfi_def_cfa 2, 64
	addi	sp,sp,64
	.cfi_def_cfa_offset 0
	jr	ra
	.cfi_endproc
.LFE1:
	.size	BmmCreateTimeOutMenu, .-BmmCreateTimeOutMenu
	.section	.text.BmmCreateBootOptionMenu,"ax",@progbits
	.align	1
	.globl	BmmCreateBootOptionMenu
	.type	BmmCreateBootOptionMenu, @function
BmmCreateBootOptionMenu:
.LFB2:
	.loc 1 151 1
	.cfi_startproc
	addi	sp,sp,-32
	.cfi_def_cfa_offset 32
	sd	ra,24(sp)
	sd	s0,16(sp)
	.cfi_offset 1, -8
	.cfi_offset 8, -16
	addi	s0,sp,32
	.cfi_def_cfa 8, 0
	sd	a0,-24(s0)
	sd	a1,-32(s0)
	.loc 1 152 3
	li	a5,4096
	addi	a5,a5,20
	li	a4,4
	li	a3,8
	li	a2,6
	li	a1,4096
	addi	a1,a1,20
	ld	a0,-32(s0)
	call	HiiCreateGotoOpCode@plt
	.loc 1 160 1
	nop
	ld	ra,24(sp)
	.cfi_restore 1
	ld	s0,16(sp)
	.cfi_restore 8
	.cfi_def_cfa 2, 32
	addi	sp,sp,32
	.cfi_def_cfa_offset 0
	jr	ra
	.cfi_endproc
.LFE2:
	.size	BmmCreateBootOptionMenu, .-BmmCreateBootOptionMenu
	.section	.text.BmmCreateDriverOptionMenu,"ax",@progbits
	.align	1
	.globl	BmmCreateDriverOptionMenu
	.type	BmmCreateDriverOptionMenu, @function
BmmCreateDriverOptionMenu:
.LFB3:
	.loc 1 174 1
	.cfi_startproc
	addi	sp,sp,-32
	.cfi_def_cfa_offset 32
	sd	ra,24(sp)
	sd	s0,16(sp)
	.cfi_offset 1, -8
	.cfi_offset 8, -16
	addi	s0,sp,32
	.cfi_def_cfa 8, 0
	sd	a0,-24(s0)
	sd	a1,-32(s0)
	.loc 1 175 3
	li	a5,4096
	addi	a5,a5,21
	li	a4,4
	li	a3,10
	li	a2,9
	li	a1,4096
	addi	a1,a1,21
	ld	a0,-32(s0)
	call	HiiCreateGotoOpCode@plt
	.loc 1 183 1
	nop
	ld	ra,24(sp)
	.cfi_restore 1
	ld	s0,16(sp)
	.cfi_restore 8
	.cfi_def_cfa 2, 32
	addi	sp,sp,32
	.cfi_def_cfa_offset 0
	jr	ra
	.cfi_endproc
.LFE3:
	.size	BmmCreateDriverOptionMenu, .-BmmCreateDriverOptionMenu
	.section	.text.BmmCreateComOptionMenu,"ax",@progbits
	.align	1
	.globl	BmmCreateComOptionMenu
	.type	BmmCreateComOptionMenu, @function
BmmCreateComOptionMenu:
.LFB4:
	.loc 1 197 1
	.cfi_startproc
	addi	sp,sp,-32
	.cfi_def_cfa_offset 32
	sd	ra,24(sp)
	sd	s0,16(sp)
	.cfi_offset 1, -8
	.cfi_offset 8, -16
	addi	s0,sp,32
	.cfi_def_cfa 8, 0
	sd	a0,-24(s0)
	sd	a1,-32(s0)
	.loc 1 198 3
	li	a5,4096
	addi	a5,a5,8
	li	a4,4
	li	a3,22
	li	a2,21
	li	a1,4096
	addi	a1,a1,8
	ld	a0,-32(s0)
	call	HiiCreateGotoOpCode@plt
	.loc 1 206 1
	nop
	ld	ra,24(sp)
	.cfi_restore 1
	ld	s0,16(sp)
	.cfi_restore 8
	.cfi_def_cfa 2, 32
	addi	sp,sp,32
	.cfi_def_cfa_offset 0
	jr	ra
	.cfi_endproc
.LFE4:
	.size	BmmCreateComOptionMenu, .-BmmCreateComOptionMenu
	.section	.text.BmmCreateBootFromFileMenu,"ax",@progbits
	.align	1
	.globl	BmmCreateBootFromFileMenu
	.type	BmmCreateBootFromFileMenu, @function
BmmCreateBootFromFileMenu:
.LFB5:
	.loc 1 220 1
	.cfi_startproc
	addi	sp,sp,-32
	.cfi_def_cfa_offset 32
	sd	ra,24(sp)
	sd	s0,16(sp)
	.cfi_offset 1, -8
	.cfi_offset 8, -16
	addi	s0,sp,32
	.cfi_def_cfa 8, 0
	sd	a0,-24(s0)
	sd	a1,-32(s0)
	.loc 1 221 3
	li	a5,4096
	addi	a5,a5,269
	li	a4,4
	li	a3,95
	li	a2,94
	li	a1,4096
	addi	a1,a1,1
	ld	a0,-32(s0)
	call	HiiCreateGotoOpCode@plt
	.loc 1 229 1
	nop
	ld	ra,24(sp)
	.cfi_restore 1
	ld	s0,16(sp)
	.cfi_restore 8
	.cfi_def_cfa 2, 32
	addi	sp,sp,32
	.cfi_def_cfa_offset 0
	jr	ra
	.cfi_endproc
.LFE5:
	.size	BmmCreateBootFromFileMenu, .-BmmCreateBootFromFileMenu
	.section	.text.BmmCreateEmptyLine,"ax",@progbits
	.align	1
	.globl	BmmCreateEmptyLine
	.type	BmmCreateEmptyLine, @function
BmmCreateEmptyLine:
.LFB6:
	.loc 1 243 1
	.cfi_startproc
	addi	sp,sp,-32
	.cfi_def_cfa_offset 32
	sd	ra,24(sp)
	sd	s0,16(sp)
	.cfi_offset 1, -8
	.cfi_offset 8, -16
	addi	s0,sp,32
	.cfi_def_cfa 8, 0
	sd	a0,-24(s0)
	sd	a1,-32(s0)
	.loc 1 244 3
	li	a4,0
	li	a3,0
	li	a2,0
	li	a1,2
	ld	a0,-32(s0)
	call	HiiCreateSubTitleOpCode@plt
	.loc 1 245 1
	nop
	ld	ra,24(sp)
	.cfi_restore 1
	ld	s0,16(sp)
	.cfi_restore 8
	.cfi_def_cfa 2, 32
	addi	sp,sp,32
	.cfi_def_cfa_offset 0
	jr	ra
	.cfi_endproc
.LFE6:
	.size	BmmCreateEmptyLine, .-BmmCreateEmptyLine
	.section	.text.ExtractDevicePathFromHandle,"ax",@progbits
	.align	1
	.globl	ExtractDevicePathFromHandle
	.type	ExtractDevicePathFromHandle, @function
ExtractDevicePathFromHandle:
.LFB7:
	.loc 1 260 1
	.cfi_startproc
	addi	sp,sp,-48
	.cfi_def_cfa_offset 48
	sd	ra,40(sp)
	sd	s0,32(sp)
	.cfi_offset 1, -8
	.cfi_offset 8, -16
	addi	s0,sp,48
	.cfi_def_cfa 8, 0
	sd	a0,-40(s0)
	.loc 1 266 6
	ld	a5,-40(s0)
	bne	a5,zero,.L18
	.loc 1 267 12
	li	a5,0
	j	.L21
.L18:
	.loc 1 270 24
	la	a5,gHiiDatabase
	ld	a5,0(a5)
	ld	a5,80(a5)
	.loc 1 270 12
	la	a4,gHiiDatabase
	ld	a4,0(a4)
	addi	a3,s0,-32
	mv	a2,a3
	ld	a1,-40(s0)
	mv	a0,a4
	jalr	a5
.LVL0:
	sd	a0,-24(s0)
	.loc 1 271 34
	ld	a5,-24(s0)
	.loc 1 271 6
	bge	a5,zero,.L20
	.loc 1 272 12
	li	a5,0
	j	.L21
.L20:
	.loc 1 275 10
	ld	a5,-32(s0)
	.loc 1 275 35
	mv	a0,a5
	call	DevicePathFromHandle@plt
	mv	a5,a0
	.loc 1 275 10 discriminator 1
	li	a2,0
	li	a1,0
	mv	a0,a5
	call	ConvertDevicePathToText@plt
	mv	a5,a0
.L21:
	.loc 1 276 1
	mv	a0,a5
	ld	ra,40(sp)
	.cfi_restore 1
	ld	s0,32(sp)
	.cfi_restore 8
	.cfi_def_cfa 2, 48
	addi	sp,sp,48
	.cfi_def_cfa_offset 0
	jr	ra
	.cfi_endproc
.LFE7:
	.size	ExtractDevicePathFromHandle, .-ExtractDevicePathFromHandle
	.section	.text.IsRequiredDriver,"ax",@progbits
	.align	1
	.globl	IsRequiredDriver
	.type	IsRequiredDriver, @function
IsRequiredDriver:
.LFB8:
	.loc 1 298 1
	.cfi_startproc
	addi	sp,sp,-128
	.cfi_def_cfa_offset 128
	sd	ra,120(sp)
	sd	s0,112(sp)
	.cfi_offset 1, -8
	.cfi_offset 8, -16
	addi	s0,sp,128
	.cfi_def_cfa 8, 0
	sd	a0,-88(s0)
	sd	a1,-96(s0)
	sd	a2,-104(s0)
	sd	a3,-112(s0)
	sd	a4,-120(s0)
	.loc 1 308 12
	addi	a4,s0,-80
	addi	a5,s0,-72
	mv	a2,a4
	mv	a1,a5
	ld	a0,-88(s0)
	call	HiiGetFormSetFromHiiHandle@plt
	sd	a0,-64(s0)
	.loc 1 309 34
	ld	a5,-64(s0)
	.loc 1 309 6
	bge	a5,zero,.L23
	.loc 1 310 12
	li	a5,0
	j	.L33
.L23:
	.loc 1 313 10
	sb	zero,-49(s0)
	.loc 1 314 12
	sd	zero,-48(s0)
	.loc 1 315 7
	ld	a5,-72(s0)
	sd	a5,-40(s0)
	.loc 1 316 9
	j	.L25
.L32:
	.loc 1 317 43
	ld	a5,-40(s0)
	lbu	a5,1(a5)
	andi	a5,a5,127
	andi	a5,a5,0xff
	mv	a4,a5
	.loc 1 317 14
	ld	a5,-48(s0)
	add	a5,a5,a4
	sd	a5,-48(s0)
	.loc 1 319 35
	ld	a5,-40(s0)
	lbu	a5,1(a5)
	andi	a5,a5,127
	andi	a5,a5,0xff
	.loc 1 319 8
	mv	a4,a5
	li	a5,22
	bgtu	a4,a5,.L26
	.loc 1 320 40
	ld	a5,-40(s0)
	lbu	a5,1(a5)
	andi	a5,a5,127
	andi	a5,a5,0xff
	mv	a4,a5
	.loc 1 320 11
	ld	a5,-40(s0)
	add	a5,a5,a4
	sd	a5,-40(s0)
	.loc 1 321 7
	j	.L25
.L26:
	.loc 1 324 53
	ld	a5,-40(s0)
	lbu	a5,22(a5)
	.loc 1 324 18
	andi	a5,a5,3
	sb	a5,-17(s0)
	.loc 1 325 15
	ld	a5,-40(s0)
	addi	a5,a5,23
	sd	a5,-32(s0)
	.loc 1 326 11
	j	.L28
.L31:
	.loc 1 327 12
	ld	a1,-32(s0)
	ld	a0,-96(s0)
	call	CompareGuid@plt
	mv	a5,a0
	.loc 1 327 10 discriminator 1
	bne	a5,zero,.L29
	.loc 1 328 18
	ld	a5,-32(s0)
	addi	a5,a5,16
	sd	a5,-32(s0)
	.loc 1 329 9
	j	.L28
.L29:
	.loc 1 332 44
	ld	a5,-40(s0)
	lbu	a4,18(a5)
	lbu	a5,19(a5)
	slli	a5,a5,8
	or	a5,a5,a4
	slli	a4,a5,48
	srli	a4,a4,48
	.loc 1 332 17
	ld	a5,-104(s0)
	sh	a4,0(a5)
	.loc 1 333 42
	ld	a5,-40(s0)
	lbu	a4,20(a5)
	lbu	a5,21(a5)
	slli	a5,a5,8
	or	a5,a5,a4
	slli	a4,a5,48
	srli	a4,a4,48
	.loc 1 333 15
	ld	a5,-112(s0)
	sh	a4,0(a5)
	.loc 1 334 29
	ld	a5,-40(s0)
	addi	a5,a5,2
	.loc 1 334 7
	li	a2,16
	mv	a1,a5
	ld	a0,-120(s0)
	call	CopyMem@plt
	.loc 1 335 14
	li	a5,1
	sb	a5,-49(s0)
.L28:
	.loc 1 326 24
	lbu	a5,-17(s0)
	addiw	a4,a5,-1
	sb	a4,-17(s0)
	.loc 1 326 27
	bne	a5,zero,.L31
.L25:
	.loc 1 316 19
	ld	a5,-80(s0)
	ld	a4,-48(s0)
	bltu	a4,a5,.L32
	.loc 1 339 3
	ld	a5,-72(s0)
	mv	a0,a5
	call	FreePool@plt
	.loc 1 341 10
	lbu	a5,-49(s0)
.L33:
	.loc 1 342 1
	mv	a0,a5
	ld	ra,120(sp)
	.cfi_restore 1
	ld	s0,112(sp)
	.cfi_restore 8
	.cfi_def_cfa 2, 128
	addi	sp,sp,128
	.cfi_def_cfa_offset 0
	jr	ra
	.cfi_endproc
.LFE8:
	.size	IsRequiredDriver, .-IsRequiredDriver
	.section	.text.BmmListThirdPartyDrivers,"ax",@progbits
	.align	1
	.globl	BmmListThirdPartyDrivers
	.type	BmmListThirdPartyDrivers, @function
BmmListThirdPartyDrivers:
.LFB9:
	.loc 1 363 1
	.cfi_startproc
	addi	sp,sp,-160
	.cfi_def_cfa_offset 160
	sd	ra,152(sp)
	sd	s0,144(sp)
	sd	s1,136(sp)
	.cfi_offset 1, -8
	.cfi_offset 8, -16
	.cfi_offset 9, -24
	addi	s0,sp,160
	.cfi_def_cfa 8, 0
	sd	a0,-120(s0)
	sd	a1,-128(s0)
	sd	a2,-136(s0)
	sd	a3,-144(s0)
	.loc 1 376 22
	lla	a5,gHiiDriverList
	ld	a5,0(a5)
	.loc 1 376 6
	beq	a5,zero,.L35
	.loc 1 377 5
	lla	a5,gHiiDriverList
	ld	a5,0(a5)
	mv	a0,a5
	call	FreePool@plt
.L35:
	.loc 1 380 16
	li	a0,0
	call	HiiGetHiiHandles@plt
	sd	a0,-80(s0)
	.loc 1 383 20
	li	a0,224
	call	AllocateZeroPool@plt
	mv	a4,a0
	.loc 1 383 18 discriminator 1
	lla	a5,gHiiDriverList
	sd	a4,0(a5)
	.loc 1 385 17
	lla	a5,gHiiDriverList
	ld	a5,0(a5)
	sd	a5,-72(s0)
	.loc 1 386 15
	li	a5,8
	sd	a5,-64(s0)
	.loc 1 388 14
	sd	zero,-40(s0)
	.loc 1 388 25
	sd	zero,-56(s0)
	.loc 1 388 3
	j	.L36
.L44:
	.loc 1 389 38
	ld	a5,-40(s0)
	slli	a5,a5,3
	ld	a4,-80(s0)
	add	a5,a4,a5
	.loc 1 389 10
	ld	a0,0(a5)
	.loc 1 389 93
	lla	a5,gHiiDriverList
	ld	a3,0(a5)
	ld	a4,-56(s0)
	mv	a5,a4
	slli	a5,a5,3
	sub	a5,a5,a4
	slli	a5,a5,2
	add	a5,a3,a5
	.loc 1 389 78
	addi	a4,a5,8
	.loc 1 389 10
	addi	a3,s0,-92
	addi	a5,s0,-90
	mv	a2,a5
	ld	a1,-128(s0)
	call	IsRequiredDriver
	mv	a5,a0
	.loc 1 389 8 discriminator 1
	beq	a5,zero,.L49
	.loc 1 393 38
	ld	a5,-40(s0)
	slli	a5,a5,3
	ld	a4,-80(s0)
	add	a5,a4,a5
	.loc 1 393 14
	ld	a5,0(a5)
	lhu	a4,-90(s0)
	li	a2,0
	mv	a1,a4
	mv	a0,a5
	call	HiiGetString@plt
	sd	a0,-48(s0)
	.loc 1 394 8
	ld	a5,-48(s0)
	bne	a5,zero,.L39
	.loc 1 395 16
	li	a2,0
	li	a1,4
	ld	a0,-120(s0)
	call	HiiGetString@plt
	sd	a0,-48(s0)
	j	.L40
.L39:
	.loc 1 397 15
	ld	a5,-136(s0)
	beq	a5,zero,.L40
	.loc 1 401 22
	sb	zero,-105(s0)
	.loc 1 402 11
	addi	a3,s0,-105
	addi	a4,s0,-104
	ld	a5,-136(s0)
	mv	a2,a3
	mv	a1,a4
	ld	a0,-48(s0)
	jalr	a5
.LVL1:
	mv	a5,a0
	.loc 1 402 10 discriminator 1
	beq	a5,zero,.L40
	.loc 1 403 9
	ld	a0,-48(s0)
	call	FreePool@plt
	.loc 1 404 16
	ld	a5,-104(s0)
	sd	a5,-48(s0)
	.loc 1 405 22
	ld	a4,-56(s0)
	mv	a5,a4
	slli	a5,a5,3
	sub	a5,a5,a4
	slli	a5,a5,2
	mv	a4,a5
	ld	a5,-72(s0)
	add	a5,a5,a4
	.loc 1 405 45
	lbu	a4,-105(s0)
	sb	a4,24(a5)
.L40:
	.loc 1 409 18
	ld	a4,-56(s0)
	mv	a5,a4
	slli	a5,a5,3
	sub	a5,a5,a4
	slli	a5,a5,2
	mv	a4,a5
	ld	a5,-72(s0)
	add	s1,a5,a4
	.loc 1 409 37
	li	a3,0
	ld	a2,-48(s0)
	li	a1,0
	ld	a0,-120(s0)
	call	HiiSetString@plt
	mv	a5,a0
	.loc 1 409 35 discriminator 1
	sh	a5,0(s1)
	.loc 1 410 5
	ld	a0,-48(s0)
	call	FreePool@plt
	.loc 1 412 38
	ld	a5,-40(s0)
	slli	a5,a5,3
	ld	a4,-80(s0)
	add	a5,a4,a5
	.loc 1 412 14
	ld	a5,0(a5)
	lhu	a4,-92(s0)
	li	a2,0
	mv	a1,a4
	mv	a0,a5
	call	HiiGetString@plt
	sd	a0,-48(s0)
	.loc 1 413 8
	ld	a5,-48(s0)
	bne	a5,zero,.L41
	.loc 1 414 16
	li	a2,0
	li	a1,4
	ld	a0,-120(s0)
	call	HiiGetString@plt
	sd	a0,-48(s0)
.L41:
	.loc 1 418 18
	ld	a4,-56(s0)
	mv	a5,a4
	slli	a5,a5,3
	sub	a5,a5,a4
	slli	a5,a5,2
	mv	a4,a5
	ld	a5,-72(s0)
	add	s1,a5,a4
	.loc 1 418 35
	li	a3,0
	ld	a2,-48(s0)
	li	a1,0
	ld	a0,-120(s0)
	call	HiiSetString@plt
	mv	a5,a0
	.loc 1 418 33 discriminator 1
	sh	a5,2(s1)
	.loc 1 419 5
	ld	a0,-48(s0)
	call	FreePool@plt
	.loc 1 421 60
	ld	a5,-40(s0)
	slli	a5,a5,3
	ld	a4,-80(s0)
	add	a5,a4,a5
	.loc 1 421 21
	ld	a5,0(a5)
	mv	a0,a5
	call	ExtractDevicePathFromHandle
	sd	a0,-88(s0)
	.loc 1 422 8
	ld	a5,-88(s0)
	beq	a5,zero,.L42
	.loc 1 423 20
	ld	a4,-56(s0)
	mv	a5,a4
	slli	a5,a5,3
	sub	a5,a5,a4
	slli	a5,a5,2
	mv	a4,a5
	ld	a5,-72(s0)
	add	s1,a5,a4
	.loc 1 423 43
	li	a3,0
	ld	a2,-88(s0)
	li	a1,0
	ld	a0,-120(s0)
	call	HiiSetString@plt
	mv	a5,a0
	.loc 1 423 41 discriminator 1
	sh	a5,4(s1)
	.loc 1 424 7
	ld	a0,-88(s0)
	call	FreePool@plt
	j	.L43
.L42:
	.loc 1 426 20
	ld	a4,-56(s0)
	mv	a5,a4
	slli	a5,a5,3
	sub	a5,a5,a4
	slli	a5,a5,2
	mv	a4,a5
	ld	a5,-72(s0)
	add	a5,a5,a4
	.loc 1 426 41
	sh	zero,4(a5)
.L43:
	.loc 1 429 10
	ld	a5,-56(s0)
	addi	a5,a5,1
	sd	a5,-56(s0)
	.loc 1 430 8
	ld	a4,-56(s0)
	ld	a5,-64(s0)
	bltu	a4,a5,.L38
	.loc 1 432 37
	ld	a4,-64(s0)
	mv	a5,a4
	slli	a5,a5,3
	sub	a5,a5,a4
	slli	a5,a5,2
	mv	a3,a5
	.loc 1 431 23
	ld	a4,-56(s0)
	mv	a5,a4
	slli	a5,a5,3
	sub	a5,a5,a4
	slli	a5,a5,2
	addi	a4,a5,224
	lla	a5,gHiiDriverList
	ld	a5,0(a5)
	mv	a2,a5
	mv	a1,a4
	mv	a0,a3
	call	ReallocatePool@plt
	sd	a0,-72(s0)
	.loc 1 438 22
	lla	a5,gHiiDriverList
	ld	a4,-72(s0)
	sd	a4,0(a5)
	.loc 1 439 19
	ld	a5,-64(s0)
	addi	a5,a5,8
	sd	a5,-64(s0)
	j	.L38
.L49:
	.loc 1 390 7
	nop
.L38:
	.loc 1 388 70 discriminator 2
	ld	a5,-40(s0)
	addi	a5,a5,1
	sd	a5,-40(s0)
.L36:
	.loc 1 388 40 discriminator 1
	ld	a5,-40(s0)
	slli	a5,a5,3
	ld	a4,-80(s0)
	add	a5,a4,a5
	ld	a5,0(a5)
	.loc 1 388 48 discriminator 1
	bne	a5,zero,.L44
	.loc 1 443 3
	ld	a0,-80(s0)
	call	FreePool@plt
	.loc 1 445 9
	sd	zero,-40(s0)
	.loc 1 446 9
	j	.L45
.L47:
	.loc 1 450 21
	lla	a5,gHiiDriverList
	ld	a3,0(a5)
	ld	a4,-40(s0)
	mv	a5,a4
	slli	a5,a5,3
	sub	a5,a5,a4
	slli	a5,a5,2
	add	a5,a3,a5
	.loc 1 447 5
	lhu	a2,0(a5)
	.loc 1 451 21
	lla	a5,gHiiDriverList
	ld	a3,0(a5)
	ld	a4,-40(s0)
	mv	a5,a4
	slli	a5,a5,3
	sub	a5,a5,a4
	slli	a5,a5,2
	add	a5,a3,a5
	.loc 1 447 5
	lhu	a1,2(a5)
	.loc 1 455 22
	lla	a5,gHiiDriverList
	ld	a3,0(a5)
	ld	a4,-40(s0)
	mv	a5,a4
	slli	a5,a5,3
	sub	a5,a5,a4
	slli	a5,a5,2
	add	a5,a3,a5
	.loc 1 447 5
	addi	a0,a5,8
	.loc 1 456 21
	lla	a5,gHiiDriverList
	ld	a3,0(a5)
	ld	a4,-40(s0)
	mv	a5,a4
	slli	a5,a5,3
	sub	a5,a5,a4
	slli	a5,a5,2
	add	a5,a3,a5
	.loc 1 447 5
	lhu	a5,4(a5)
	sd	a5,0(sp)
	mv	a7,a0
	li	a6,0
	li	a5,0
	li	a4,0
	mv	a3,a1
	li	a1,0
	ld	a0,-144(s0)
	call	HiiCreateGotoExOpCode@plt
	.loc 1 459 23
	lla	a5,gHiiDriverList
	ld	a3,0(a5)
	ld	a4,-40(s0)
	mv	a5,a4
	slli	a5,a5,3
	sub	a5,a5,a4
	slli	a5,a5,2
	add	a5,a3,a5
	.loc 1 459 30
	lbu	a5,24(a5)
	.loc 1 459 8
	beq	a5,zero,.L46
	.loc 1 460 7
	ld	a1,-144(s0)
	ld	a0,-120(s0)
	call	BmmCreateEmptyLine
.L46:
	.loc 1 463 10
	ld	a5,-40(s0)
	addi	a5,a5,1
	sd	a5,-40(s0)
.L45:
	.loc 1 446 24
	lla	a5,gHiiDriverList
	ld	a3,0(a5)
	ld	a4,-40(s0)
	mv	a5,a4
	slli	a5,a5,3
	sub	a5,a5,a4
	slli	a5,a5,2
	add	a5,a3,a5
	.loc 1 446 31
	lhu	a5,0(a5)
	.loc 1 446 41
	bne	a5,zero,.L47
	.loc 1 466 10
	li	a5,0
	.loc 1 467 1
	mv	a0,a5
	ld	ra,152(sp)
	.cfi_restore 1
	ld	s0,144(sp)
	.cfi_restore 8
	.cfi_def_cfa 2, 160
	ld	s1,136(sp)
	.cfi_restore 9
	addi	sp,sp,160
	.cfi_def_cfa_offset 0
	jr	ra
	.cfi_endproc
.LFE9:
	.size	BmmListThirdPartyDrivers, .-BmmListThirdPartyDrivers
	.text
.Letext0:
	.file 2 "/home/kapoagaeming/Downloads/spacemit-image-builder/components/edk2/MdePkg/Include/RiscV64/ProcessorBind.h"
	.file 3 "/home/kapoagaeming/Downloads/spacemit-image-builder/components/edk2/MdePkg/Include/Base.h"
	.file 4 "/home/kapoagaeming/Downloads/spacemit-image-builder/components/edk2/MdePkg/Include/Uefi/UefiBaseType.h"
	.file 5 "/home/kapoagaeming/Downloads/spacemit-image-builder/components/edk2/MdePkg/Include/Protocol/DevicePath.h"
	.file 6 "/home/kapoagaeming/Downloads/spacemit-image-builder/components/edk2/MdePkg/Include/Uefi/UefiInternalFormRepresentation.h"
	.file 7 "/home/kapoagaeming/Downloads/spacemit-image-builder/components/edk2/MdeModulePkg/Library/BootMaintenanceManagerUiLib/FormGuid.h"
	.file 8 "/home/kapoagaeming/Downloads/spacemit-image-builder/components/edk2/MdePkg/Include/Protocol/HiiDatabase.h"
	.file 9 "/home/kapoagaeming/Downloads/spacemit-image-builder/components/edk2/MdeModulePkg/Library/BootMaintenanceManagerUiLib/BootMaintenanceManager.h"
	.file 10 "/home/kapoagaeming/Downloads/spacemit-image-builder/components/edk2/MdeModulePkg/Include/Library/UefiHiiServicesLib.h"
	.file 11 "/home/kapoagaeming/Downloads/spacemit-image-builder/components/edk2/MdeModulePkg/Library/BootMaintenanceManagerUiLib/BootMaintenanceManagerCustomizedUiSupport.h"
	.file 12 "/home/kapoagaeming/Downloads/spacemit-image-builder/components/edk2/MdeModulePkg/Include/Library/HiiLib.h"
	.file 13 "/home/kapoagaeming/Downloads/spacemit-image-builder/components/edk2/MdePkg/Include/Library/MemoryAllocationLib.h"
	.file 14 "/home/kapoagaeming/Downloads/spacemit-image-builder/components/edk2/MdePkg/Include/Library/BaseMemoryLib.h"
	.file 15 "/home/kapoagaeming/Downloads/spacemit-image-builder/components/edk2/MdePkg/Include/Library/DevicePathLib.h"
	.section	.note.GNU-stack,"",@progbits
