	.file	"BootMaintenanceManagerCustomizedUi.c"
	.option pic
	.option norelax
	.attribute arch, "rv64i2p1_m2p0_a2p1_f2p2_d2p2_c2p0_zicsr2p0_zifencei2p0_zmmul1p0_zaamo1p0_zalrsc1p0_zca1p0_zcd1p0"
	.attribute unaligned_access, 0
	.attribute stack_align, 16
	.text
.Ltext0:
	.cfi_sections	.debug_frame
	.file 0 "/home/kapoagaeming/Downloads/spacemit-image-builder/components/Build/Milk-V-Jupiter/RELEASE_GCC5/RISCV64/MdeModulePkg/Library/BootMaintenanceManagerUiLib/BootMaintenanceManagerUiLib" "/home/kapoagaeming/Downloads/spacemit-image-builder/components/edk2/MdeModulePkg/Library/BootMaintenanceManagerUiLib/BootMaintenanceManagerCustomizedUi.c"
	.section	.text.UiCustomizeBMMPage,"ax",@progbits
	.align	1
	.globl	UiCustomizeBMMPage
	.type	UiCustomizeBMMPage, @function
UiCustomizeBMMPage:
.LFB0:
	.file 1 "/home/kapoagaeming/Downloads/spacemit-image-builder/components/edk2/MdeModulePkg/Library/BootMaintenanceManagerUiLib/BootMaintenanceManagerCustomizedUi.c"
	.loc 1 26 1
	.cfi_startproc
	addi	sp,sp,-32
	.cfi_def_cfa_offset 32
	sd	ra,24(sp)
	sd	s0,16(sp)
	.cfi_offset 1, -8
	.cfi_offset 8, -16
	addi	s0,sp,32
	.cfi_def_cfa 8, 0
	sd	a0,-24(s0)
	sd	a1,-32(s0)
	.loc 1 30 3
	ld	a1,-32(s0)
	ld	a0,-24(s0)
	call	BmmCreateBootOptionMenu@plt
	.loc 1 34 3
	ld	a1,-32(s0)
	ld	a0,-24(s0)
	call	BmmCreateDriverOptionMenu@plt
	.loc 1 38 3
	ld	a1,-32(s0)
	ld	a0,-24(s0)
	call	BmmCreateComOptionMenu@plt
	.loc 1 42 3
	ld	a1,-32(s0)
	ld	a0,-24(s0)
	call	BmmCreateBootFromFileMenu@plt
	.loc 1 47 3
	ld	a3,-32(s0)
	li	a2,0
	la	a1,gEfiIfrBootMaintenanceGuid
	ld	a0,-24(s0)
	call	BmmListThirdPartyDrivers@plt
	.loc 1 52 3
	ld	a1,-32(s0)
	ld	a0,-24(s0)
	call	BmmCreateEmptyLine@plt
	.loc 1 57 3
	ld	a1,-32(s0)
	ld	a0,-24(s0)
	call	BmmCreateBootNextMenu@plt
	.loc 1 61 3
	ld	a1,-32(s0)
	ld	a0,-24(s0)
	call	BmmCreateTimeOutMenu@plt
	.loc 1 62 1
	nop
	ld	ra,24(sp)
	.cfi_restore 1
	ld	s0,16(sp)
	.cfi_restore 8
	.cfi_def_cfa 2, 32
	addi	sp,sp,32
	.cfi_def_cfa_offset 0
	jr	ra
	.cfi_endproc
.LFE0:
	.size	UiCustomizeBMMPage, .-UiCustomizeBMMPage
	.section	.text.UiBMMCallbackHandler,"ax",@progbits
	.align	1
	.globl	UiBMMCallbackHandler
	.type	UiBMMCallbackHandler, @function
UiBMMCallbackHandler:
.LFB1:
	.loc 1 91 1
	.cfi_startproc
	addi	sp,sp,-64
	.cfi_def_cfa_offset 64
	sd	ra,56(sp)
	sd	s0,48(sp)
	.cfi_offset 1, -8
	.cfi_offset 8, -16
	addi	s0,sp,64
	.cfi_def_cfa 8, 0
	sd	a0,-24(s0)
	sd	a1,-32(s0)
	sd	a4,-48(s0)
	sd	a5,-56(s0)
	mv	a5,a2
	sh	a5,-34(s0)
	mv	a5,a3
	sb	a5,-35(s0)
	.loc 1 92 10
	li	a5,-1
	slli	a5,a5,63
	addi	a5,a5,3
	.loc 1 93 1
	mv	a0,a5
	ld	ra,56(sp)
	.cfi_restore 1
	ld	s0,48(sp)
	.cfi_restore 8
	.cfi_def_cfa 2, 64
	addi	sp,sp,64
	.cfi_def_cfa_offset 0
	jr	ra
	.cfi_endproc
.LFE1:
	.size	UiBMMCallbackHandler, .-UiBMMCallbackHandler
	.text
.Letext0:
	.file 2 "/home/kapoagaeming/Downloads/spacemit-image-builder/components/edk2/MdePkg/Include/RiscV64/ProcessorBind.h"
	.file 3 "/home/kapoagaeming/Downloads/spacemit-image-builder/components/edk2/MdePkg/Include/Base.h"
	.file 4 "/home/kapoagaeming/Downloads/spacemit-image-builder/components/edk2/MdePkg/Include/Uefi/UefiBaseType.h"
	.file 5 "/home/kapoagaeming/Downloads/spacemit-image-builder/components/edk2/MdePkg/Include/Uefi/UefiInternalFormRepresentation.h"
	.file 6 "/home/kapoagaeming/Downloads/spacemit-image-builder/components/edk2/MdePkg/Include/Protocol/FormBrowser2.h"
	.file 7 "/home/kapoagaeming/Downloads/spacemit-image-builder/components/edk2/MdePkg/Include/Protocol/HiiConfigAccess.h"
	.file 8 "/home/kapoagaeming/Downloads/spacemit-image-builder/components/edk2/MdeModulePkg/Library/BootMaintenanceManagerUiLib/BootMaintenanceManagerCustomizedUiSupport.h"
	.file 9 "/home/kapoagaeming/Downloads/spacemit-image-builder/components/Build/Milk-V-Jupiter/RELEASE_GCC5/RISCV64/MdeModulePkg/Library/BootMaintenanceManagerUiLib/BootMaintenanceManagerUiLib/DEBUG/AutoGen.h"
	.section	.note.GNU-stack,"",@progbits
