	.file	"BootOption.c"
	.option pic
	.option norelax
	.attribute arch, "rv64i2p1_m2p0_a2p1_f2p2_d2p2_c2p0_zicsr2p0_zifencei2p0_zmmul1p0_zaamo1p0_zalrsc1p0_zca1p0_zcd1p0"
	.attribute unaligned_access, 0
	.attribute stack_align, 16
	.text
.Ltext0:
	.cfi_sections	.debug_frame
	.file 0 "/home/kapoagaeming/spacemit-image-builder/components/Build/Milk-V-Jupiter/RELEASE_GCC5/RISCV64/MdeModulePkg/Library/BootMaintenanceManagerUiLib/BootMaintenanceManagerUiLib" "/home/kapoagaeming/spacemit-image-builder/components/edk2/MdeModulePkg/Library/BootMaintenanceManagerUiLib/BootOption.c"
	.section	.rodata
	.align	3
.LC0:
	.string	"C"
	.string	"o"
	.string	"n"
	.string	"f"
	.string	"i"
	.string	"g"
	.string	"u"
	.string	"r"
	.string	"a"
	.string	"t"
	.string	"i"
	.string	"o"
	.string	"n"
	.string	" "
	.string	"c"
	.string	"h"
	.string	"a"
	.string	"n"
	.string	"g"
	.string	"e"
	.string	"d"
	.string	"."
	.string	" "
	.string	"R"
	.string	"e"
	.string	"s"
	.string	"e"
	.string	"t"
	.string	" "
	.string	"t"
	.string	"o"
	.string	" "
	.string	"a"
	.string	"p"
	.string	"p"
	.string	"l"
	.string	"y"
	.string	" "
	.string	"i"
	.string	"t"
	.string	" "
	.string	"N"
	.string	"o"
	.string	"w"
	.string	"."
	.zero	2
	.align	3
.LC1:
	.string	"P"
	.string	"r"
	.string	"e"
	.string	"s"
	.string	"s"
	.string	" "
	.string	"E"
	.string	"N"
	.string	"T"
	.string	"E"
	.string	"R"
	.string	" "
	.string	"t"
	.string	"o"
	.string	" "
	.string	"r"
	.string	"e"
	.string	"s"
	.string	"e"
	.string	"t"
	.zero	2
	.section	.text.BmmSetupResetReminder,"ax",@progbits
	.align	1
	.globl	BmmSetupResetReminder
	.type	BmmSetupResetReminder, @function
BmmSetupResetReminder:
.LFB0:
	.file 1 "/home/kapoagaeming/spacemit-image-builder/components/edk2/MdeModulePkg/Library/BootMaintenanceManagerUiLib/BootOption.c"
	.loc 1 29 1
	.cfi_startproc
	addi	sp,sp,-64
	.cfi_def_cfa_offset 64
	sd	ra,56(sp)
	sd	s0,48(sp)
	.cfi_offset 1, -8
	.cfi_offset 8, -16
	addi	s0,sp,64
	.cfi_def_cfa 8, 0
	.loc 1 39 15
	la	a5,gBS
	ld	a5,0(a5)
	ld	a5,320(a5)
	.loc 1 39 12
	addi	a4,s0,-56
	mv	a2,a4
	li	a1,0
	la	a0,gEdkiiFormBrowserEx2ProtocolGuid
	jalr	a5
.LVL0:
	sd	a0,-24(s0)
	.loc 1 44 7
	ld	a5,-24(s0)
	.loc 1 44 6
	blt	a5,zero,.L4
	.loc 1 44 78 discriminator 1
	ld	a5,-56(s0)
	ld	a5,80(a5)
	.loc 1 44 64 discriminator 1
	jalr	a5
.LVL1:
	mv	a5,a0
	.loc 1 44 61 discriminator 2
	beq	a5,zero,.L4
	.loc 1 45 21
	li	a0,960
	call	AllocateZeroPool@plt
	sd	a0,-32(s0)
	.loc 1 47 21
	li	a0,960
	call	AllocateZeroPool@plt
	sd	a0,-40(s0)
	.loc 1 49 5
	lla	a2,.LC0
	li	a1,480
	ld	a0,-32(s0)
	call	StrCpyS@plt
	.loc 1 50 5
	lla	a2,.LC1
	li	a1,480
	ld	a0,-40(s0)
	call	StrCpyS@plt
.L3:
	.loc 1 55 7
	addi	a5,s0,-48
	li	a4,0
	ld	a3,-40(s0)
	ld	a2,-32(s0)
	mv	a1,a5
	li	a0,23
	call	CreatePopUp@plt
	.loc 1 56 17 discriminator 1
	lhu	a5,-46(s0)
	.loc 1 56 30 discriminator 1
	sext.w	a4,a5
	li	a5,13
	bne	a4,a5,.L3
	.loc 1 58 5
	ld	a0,-32(s0)
	call	FreePool@plt
	.loc 1 59 5
	ld	a0,-40(s0)
	call	FreePool@plt
	.loc 1 61 8
	la	a5,gRT
	ld	a5,0(a5)
	ld	a5,104(a5)
	.loc 1 61 5
	li	a3,0
	li	a2,0
	li	a1,0
	li	a0,0
	jalr	a5
.LVL2:
.L4:
	.loc 1 63 1
	nop
	ld	ra,56(sp)
	.cfi_restore 1
	ld	s0,48(sp)
	.cfi_restore 8
	.cfi_def_cfa 2, 64
	addi	sp,sp,64
	.cfi_def_cfa_offset 0
	jr	ra
	.cfi_endproc
.LFE0:
	.size	BmmSetupResetReminder, .-BmmSetupResetReminder
	.section	.text.BOpt_CreateMenuEntry,"ax",@progbits
	.align	1
	.globl	BOpt_CreateMenuEntry
	.type	BOpt_CreateMenuEntry, @function
BOpt_CreateMenuEntry:
.LFB1:
	.loc 1 78 1
	.cfi_startproc
	addi	sp,sp,-48
	.cfi_def_cfa_offset 48
	sd	ra,40(sp)
	sd	s0,32(sp)
	.cfi_offset 1, -8
	.cfi_offset 8, -16
	addi	s0,sp,48
	.cfi_def_cfa 8, 0
	sd	a0,-40(s0)
	.loc 1 85 3
	ld	a4,-40(s0)
	li	a5,5
	beq	a4,a5,.L6
	ld	a4,-40(s0)
	li	a5,5
	bgtu	a4,a5,.L7
	ld	a4,-40(s0)
	li	a5,3
	beq	a4,a5,.L8
	ld	a4,-40(s0)
	li	a5,3
	bgtu	a4,a5,.L7
	ld	a4,-40(s0)
	li	a5,2
	beq	a4,a5,.L9
	ld	a4,-40(s0)
	li	a5,2
	bgtu	a4,a5,.L7
	ld	a5,-40(s0)
	beq	a5,zero,.L10
	ld	a4,-40(s0)
	li	a5,1
	beq	a4,a5,.L11
	j	.L7
.L10:
	.loc 1 87 19
	li	a5,40
	sd	a5,-24(s0)
	.loc 1 88 7
	j	.L12
.L9:
	.loc 1 91 19
	li	a5,48
	sd	a5,-24(s0)
	.loc 1 92 7
	j	.L12
.L11:
	.loc 1 95 19
	li	a5,16
	sd	a5,-24(s0)
	.loc 1 96 7
	j	.L12
.L6:
	.loc 1 99 19
	li	a5,32
	sd	a5,-24(s0)
	.loc 1 100 7
	j	.L12
.L8:
	.loc 1 103 19
	li	a5,16
	sd	a5,-24(s0)
	.loc 1 104 7
	j	.L12
.L7:
	.loc 1 107 19
	sd	zero,-24(s0)
	.loc 1 108 7
	nop
.L12:
	.loc 1 111 6
	ld	a5,-24(s0)
	bne	a5,zero,.L13
	.loc 1 112 12
	li	a5,0
	j	.L14
.L13:
	.loc 1 118 15
	li	a0,72
	call	AllocateZeroPool@plt
	sd	a0,-32(s0)
	.loc 1 119 6
	ld	a5,-32(s0)
	bne	a5,zero,.L15
	.loc 1 120 12
	li	a5,0
	j	.L14
.L15:
	.loc 1 123 32
	ld	a0,-24(s0)
	call	AllocateZeroPool@plt
	mv	a4,a0
	.loc 1 123 30 discriminator 1
	ld	a5,-32(s0)
	sd	a4,64(a5)
	.loc 1 124 16
	ld	a5,-32(s0)
	ld	a5,64(a5)
	.loc 1 124 6
	bne	a5,zero,.L16
	.loc 1 125 5
	ld	a0,-32(s0)
	call	FreePool@plt
	.loc 1 126 12
	li	a5,0
	j	.L14
.L16:
	.loc 1 129 24
	ld	a5,-32(s0)
	li	a4,1920233472
	addi	a4,a4,-411
	sd	a4,0(a5)
	.loc 1 130 31
	ld	a5,-32(s0)
	ld	a4,-40(s0)
	sd	a4,56(a5)
	.loc 1 131 10
	ld	a5,-32(s0)
.L14:
	.loc 1 132 1
	mv	a0,a5
	ld	ra,40(sp)
	.cfi_restore 1
	ld	s0,32(sp)
	.cfi_restore 8
	.cfi_def_cfa 2, 48
	addi	sp,sp,48
	.cfi_def_cfa_offset 0
	jr	ra
	.cfi_endproc
.LFE1:
	.size	BOpt_CreateMenuEntry, .-BOpt_CreateMenuEntry
	.section	.text.BOpt_DestroyMenuEntry,"ax",@progbits
	.align	1
	.globl	BOpt_DestroyMenuEntry
	.type	BOpt_DestroyMenuEntry, @function
BOpt_DestroyMenuEntry:
.LFB2:
	.loc 1 144 1
	.cfi_startproc
	addi	sp,sp,-80
	.cfi_def_cfa_offset 80
	sd	ra,72(sp)
	sd	s0,64(sp)
	.cfi_offset 1, -8
	.cfi_offset 8, -16
	addi	s0,sp,80
	.cfi_def_cfa 8, 0
	sd	a0,-72(s0)
	.loc 1 154 20
	ld	a5,-72(s0)
	ld	a5,56(a5)
	.loc 1 154 3
	li	a4,5
	beq	a5,a4,.L18
	li	a4,5
	bgtu	a5,a4,.L31
	li	a4,3
	beq	a5,a4,.L20
	li	a4,3
	bgtu	a5,a4,.L31
	li	a4,2
	beq	a5,a4,.L21
	li	a4,2
	bgtu	a5,a4,.L31
	beq	a5,zero,.L22
	li	a4,1
	beq	a5,a4,.L23
	.loc 1 205 7
	j	.L31
.L22:
	.loc 1 156 19
	ld	a5,-72(s0)
	ld	a5,64(a5)
	sd	a5,-56(s0)
	.loc 1 157 28
	ld	a5,-56(s0)
	ld	a5,24(a5)
	.loc 1 157 7
	mv	a0,a5
	call	FreePool@plt
	.loc 1 158 22
	ld	a5,-56(s0)
	ld	a5,32(a5)
	.loc 1 158 10
	beq	a5,zero,.L24
	.loc 1 159 30
	ld	a5,-56(s0)
	ld	a5,32(a5)
	.loc 1 159 9
	mv	a0,a5
	call	FreePool@plt
.L24:
	.loc 1 162 7
	ld	a0,-56(s0)
	call	FreePool@plt
	.loc 1 163 7
	j	.L25
.L21:
	.loc 1 166 19
	ld	a5,-72(s0)
	ld	a5,64(a5)
	sd	a5,-40(s0)
	.loc 1 168 23
	ld	a5,-40(s0)
	lbu	a5,40(a5)
	.loc 1 168 10
	bne	a5,zero,.L26
	.loc 1 169 30
	ld	a5,-40(s0)
	ld	a5,8(a5)
	.loc 1 169 9
	mv	a0,a5
	call	FreePool@plt
	j	.L27
.L26:
	.loc 1 171 24
	ld	a5,-40(s0)
	ld	a5,16(a5)
	.loc 1 171 12
	beq	a5,zero,.L27
	.loc 1 172 22
	ld	a5,-40(s0)
	ld	a5,16(a5)
	.loc 1 172 31
	ld	a5,16(a5)
	.loc 1 172 51
	ld	a4,-40(s0)
	ld	a4,16(a4)
	.loc 1 172 11
	mv	a0,a4
	jalr	a5
.LVL3:
.L27:
	.loc 1 176 22
	ld	a5,-40(s0)
	ld	a5,24(a5)
	.loc 1 176 10
	beq	a5,zero,.L28
	.loc 1 177 30
	ld	a5,-40(s0)
	ld	a5,24(a5)
	.loc 1 177 9
	mv	a0,a5
	call	FreePool@plt
.L28:
	.loc 1 180 22
	ld	a5,-40(s0)
	ld	a5,32(a5)
	.loc 1 180 10
	beq	a5,zero,.L29
	.loc 1 181 30
	ld	a5,-40(s0)
	ld	a5,32(a5)
	.loc 1 181 9
	mv	a0,a5
	call	FreePool@plt
.L29:
	.loc 1 184 7
	ld	a0,-40(s0)
	call	FreePool@plt
	.loc 1 185 7
	j	.L25
.L23:
	.loc 1 188 22
	ld	a5,-72(s0)
	ld	a5,64(a5)
	sd	a5,-48(s0)
	.loc 1 189 31
	ld	a5,-48(s0)
	ld	a5,8(a5)
	.loc 1 189 7
	mv	a0,a5
	call	FreePool@plt
	.loc 1 190 7
	ld	a0,-48(s0)
	call	FreePool@plt
	.loc 1 191 7
	j	.L25
.L18:
	.loc 1 194 23
	ld	a5,-72(s0)
	ld	a5,64(a5)
	sd	a5,-24(s0)
	.loc 1 195 32
	ld	a5,-24(s0)
	ld	a5,24(a5)
	.loc 1 195 7
	mv	a0,a5
	call	FreePool@plt
	.loc 1 196 7
	ld	a0,-24(s0)
	call	FreePool@plt
	.loc 1 197 7
	j	.L25
.L20:
	.loc 1 200 21
	ld	a5,-72(s0)
	ld	a5,64(a5)
	sd	a5,-32(s0)
	.loc 1 201 7
	ld	a0,-32(s0)
	call	FreePool@plt
	.loc 1 202 7
	j	.L25
.L31:
	.loc 1 205 7
	nop
.L25:
	.loc 1 208 22
	ld	a5,-72(s0)
	ld	a5,32(a5)
	.loc 1 208 3
	mv	a0,a5
	call	FreePool@plt
	.loc 1 209 16
	ld	a5,-72(s0)
	ld	a5,40(a5)
	.loc 1 209 6
	beq	a5,zero,.L30
	.loc 1 210 24
	ld	a5,-72(s0)
	ld	a5,40(a5)
	.loc 1 210 5
	mv	a0,a5
	call	FreePool@plt
.L30:
	.loc 1 213 3
	ld	a0,-72(s0)
	call	FreePool@plt
	.loc 1 214 1
	nop
	ld	ra,72(sp)
	.cfi_restore 1
	ld	s0,64(sp)
	.cfi_restore 8
	.cfi_def_cfa 2, 80
	addi	sp,sp,80
	.cfi_def_cfa_offset 0
	jr	ra
	.cfi_endproc
.LFE2:
	.size	BOpt_DestroyMenuEntry, .-BOpt_DestroyMenuEntry
	.section	.text.BOpt_GetMenuEntry,"ax",@progbits
	.align	1
	.globl	BOpt_GetMenuEntry
	.type	BOpt_GetMenuEntry, @function
BOpt_GetMenuEntry:
.LFB3:
	.loc 1 233 1
	.cfi_startproc
	addi	sp,sp,-64
	.cfi_def_cfa_offset 64
	sd	ra,56(sp)
	sd	s0,48(sp)
	.cfi_offset 1, -8
	.cfi_offset 8, -16
	addi	s0,sp,64
	.cfi_def_cfa 8, 0
	sd	a0,-56(s0)
	sd	a1,-64(s0)
	.loc 1 240 8
	ld	a5,-56(s0)
	ld	a5,8(a5)
	sd	a5,-40(s0)
	.loc 1 241 14
	sd	zero,-32(s0)
	.loc 1 241 3
	j	.L33
.L34:
	.loc 1 242 10
	ld	a5,-40(s0)
	ld	a5,0(a5)
	sd	a5,-40(s0)
	.loc 1 241 44 discriminator 3
	ld	a5,-32(s0)
	addi	a5,a5,1
	sd	a5,-32(s0)
.L33:
	.loc 1 241 25 discriminator 1
	ld	a4,-32(s0)
	ld	a5,-64(s0)
	bltu	a4,a5,.L34
	.loc 1 245 20
	ld	a5,-40(s0)
	addi	a5,a5,-8
	.loc 1 245 118
	ld	a4,0(a5)
	.loc 1 245 203
	li	a5,1920233472
	addi	a5,a5,-411
	bne	a4,a5,.L35
	.loc 1 245 16 discriminator 1
	ld	a5,-40(s0)
	addi	a5,a5,-8
	sd	a5,-24(s0)
	j	.L36
.L35:
	.loc 1 245 16 is_stmt 0 discriminator 2
	sd	zero,-24(s0)
.L36:
	.loc 1 247 10 is_stmt 1
	ld	a5,-24(s0)
	.loc 1 248 1
	mv	a0,a5
	ld	ra,56(sp)
	.cfi_restore 1
	ld	s0,48(sp)
	.cfi_restore 8
	.cfi_def_cfa 2, 64
	addi	sp,sp,64
	.cfi_def_cfa_offset 0
	jr	ra
	.cfi_endproc
.LFE3:
	.size	BOpt_GetMenuEntry, .-BOpt_GetMenuEntry
	.section	.text.BOpt_FreeMenu,"ax",@progbits
	.align	1
	.globl	BOpt_FreeMenu
	.type	BOpt_FreeMenu, @function
BOpt_FreeMenu:
.LFB4:
	.loc 1 259 1
	.cfi_startproc
	addi	sp,sp,-48
	.cfi_def_cfa_offset 48
	sd	ra,40(sp)
	sd	s0,32(sp)
	.cfi_offset 1, -8
	.cfi_offset 8, -16
	addi	s0,sp,48
	.cfi_def_cfa 8, 0
	sd	a0,-40(s0)
	.loc 1 262 9
	j	.L39
.L42:
	.loc 1 263 72
	ld	a5,-40(s0)
	ld	a5,8(a5)
	.loc 1 263 19
	addi	a5,a5,-8
	.loc 1 263 139
	ld	a4,0(a5)
	.loc 1 263 224
	li	a5,1920233472
	addi	a5,a5,-411
	bne	a4,a5,.L40
	.loc 1 263 280 discriminator 1
	ld	a5,-40(s0)
	ld	a5,8(a5)
	.loc 1 263 15 discriminator 1
	addi	a5,a5,-8
	sd	a5,-24(s0)
	j	.L41
.L40:
	.loc 1 263 15 is_stmt 0 discriminator 2
	sd	zero,-24(s0)
.L41:
	.loc 1 269 22 is_stmt 1
	ld	a5,-24(s0)
	addi	a5,a5,8
	.loc 1 269 5
	mv	a0,a5
	call	RemoveEntryList@plt
	.loc 1 270 5
	ld	a0,-24(s0)
	call	BOpt_DestroyMenuEntry
.L39:
	.loc 1 262 24
	ld	a5,-40(s0)
	addi	a5,a5,8
	.loc 1 262 11
	mv	a0,a5
	call	IsListEmpty@plt
	mv	a5,a0
	.loc 1 262 10 discriminator 1
	beq	a5,zero,.L42
	.loc 1 273 24
	ld	a5,-40(s0)
	sd	zero,24(a5)
	.loc 1 274 1
	nop
	ld	ra,40(sp)
	.cfi_restore 1
	ld	s0,32(sp)
	.cfi_restore 8
	.cfi_def_cfa 2, 48
	addi	sp,sp,48
	.cfi_def_cfa_offset 0
	jr	ra
	.cfi_endproc
.LFE4:
	.size	BOpt_FreeMenu, .-BOpt_FreeMenu
	.section	.rodata
	.align	3
.LC2:
	.string	"B"
	.string	"o"
	.string	"o"
	.string	"t"
	.string	"O"
	.string	"r"
	.string	"d"
	.string	"e"
	.string	"r"
	.zero	2
	.align	3
.LC3:
	.string	"B"
	.string	"o"
	.string	"o"
	.string	"t"
	.string	"N"
	.string	"e"
	.string	"x"
	.string	"t"
	.zero	2
	.align	3
.LC4:
	.string	"B"
	.string	"o"
	.string	"o"
	.string	"t"
	.string	"%"
	.string	"0"
	.string	"4"
	.string	"x"
	.zero	2
	.section	.text.BOpt_GetBootOptions,"ax",@progbits
	.align	1
	.globl	BOpt_GetBootOptions
	.type	BOpt_GetBootOptions, @function
BOpt_GetBootOptions:
.LFB5:
	.loc 1 291 1
	.cfi_startproc
	addi	sp,sp,-224
	.cfi_def_cfa_offset 224
	sd	ra,216(sp)
	sd	s0,208(sp)
	sd	s1,200(sp)
	.cfi_offset 1, -8
	.cfi_offset 8, -16
	.cfi_offset 9, -24
	addi	s0,sp,224
	.cfi_def_cfa 8, 0
	sd	a0,-216(s0)
	.loc 1 313 13
	sd	zero,-56(s0)
	.loc 1 314 21
	sd	zero,-184(s0)
	.loc 1 315 16
	sd	zero,-200(s0)
	.loc 1 316 17
	sd	zero,-176(s0)
	.loc 1 317 12
	sd	zero,-192(s0)
	.loc 1 318 21
	sd	zero,-160(s0)
	.loc 1 319 3
	la	a0,BootOptionMenu
	call	BOpt_FreeMenu
	.loc 1 320 3
	la	a5,BootOptionMenu
	addi	a0,a5,8
	call	InitializeListHead@plt
	.loc 1 325 3
	addi	a4,s0,-184
	addi	a5,s0,-176
	mv	a2,a4
	mv	a1,a5
	lla	a0,.LC2
	call	GetEfiGlobalVariable2@plt
	.loc 1 326 21
	ld	a5,-176(s0)
	.loc 1 326 6
	bne	a5,zero,.L44
	.loc 1 327 12
	li	a5,-1
	slli	a5,a5,63
	addi	a5,a5,14
	j	.L60
.L44:
	.loc 1 333 3
	addi	a4,s0,-200
	addi	a5,s0,-192
	mv	a2,a4
	mv	a1,a5
	lla	a0,.LC3
	call	GetEfiGlobalVariable2@plt
	.loc 1 334 16
	ld	a5,-192(s0)
	.loc 1 334 6
	beq	a5,zero,.L46
	.loc 1 335 22
	ld	a4,-200(s0)
	.loc 1 335 8
	li	a5,2
	beq	a4,a5,.L46
	.loc 1 336 7
	ld	a5,-192(s0)
	mv	a0,a5
	call	FreePool@plt
	.loc 1 337 16
	sd	zero,-192(s0)
.L46:
	.loc 1 341 16
	addi	a5,s0,-208
	li	a1,2
	mv	a0,a5
	call	EfiBootManagerGetLoadOptions@plt
	sd	a0,-64(s0)
	.loc 1 342 14
	sd	zero,-40(s0)
	.loc 1 342 3
	j	.L47
.L57:
	.loc 1 346 21
	ld	a4,-40(s0)
	li	a5,88
	mul	a5,a4,a5
	ld	a4,-64(s0)
	add	a5,a4,a5
	.loc 1 346 28
	lw	a5,12(a5)
	.loc 1 346 40
	andi	a5,a5,8
	sext.w	a5,a5
	.loc 1 346 8
	bne	a5,zero,.L61
	.loc 1 346 75 discriminator 2
	ld	a4,-40(s0)
	li	a5,88
	mul	a5,a4,a5
	ld	a4,-64(s0)
	add	a5,a4,a5
	.loc 1 346 82 discriminator 2
	lw	a5,12(a5)
	.loc 1 346 94 discriminator 2
	andi	a5,a5,1
	sext.w	a5,a5
	.loc 1 346 60 discriminator 2
	beq	a5,zero,.L61
	.loc 1 350 79
	ld	a4,-176(s0)
	ld	a5,-40(s0)
	slli	a5,a5,1
	add	a5,a4,a5
	lhu	a5,0(a5)
	.loc 1 350 5
	sext.w	a4,a5
	addi	a5,s0,-152
	mv	a3,a4
	lla	a2,.LC4
	li	a1,20
	mv	a0,a5
	call	UnicodeSPrint@plt
	.loc 1 354 5
	addi	a3,s0,-168
	addi	a4,s0,-160
	addi	a5,s0,-152
	mv	a2,a3
	mv	a1,a4
	mv	a0,a5
	call	GetEfiGlobalVariable2@plt
	.loc 1 355 27
	ld	a5,-160(s0)
	.loc 1 355 8
	beq	a5,zero,.L62
	.loc 1 359 18
	ld	a5,-192(s0)
	.loc 1 359 8
	beq	a5,zero,.L52
	.loc 1 360 32
	ld	a5,-192(s0)
	lhu	a3,0(a5)
	.loc 1 360 58
	ld	a4,-176(s0)
	ld	a5,-40(s0)
	slli	a5,a5,1
	add	a5,a4,a5
	lhu	a5,0(a5)
	.loc 1 360 22
	sext.w	a4,a3
	sext.w	a5,a5
	sub	a5,a4,a5
	seqz	a5,a5
	andi	a5,a5,0xff
	.loc 1 360 20
	sb	a5,-41(s0)
	j	.L53
.L52:
	.loc 1 362 20
	sb	zero,-41(s0)
.L53:
	.loc 1 365 20
	li	a0,0
	call	BOpt_CreateMenuEntry
	sd	a0,-72(s0)
	.loc 1 368 20
	ld	a5,-72(s0)
	ld	a5,64(a5)
	sd	a5,-80(s0)
	.loc 1 370 19
	ld	a5,-160(s0)
	sd	a5,-88(s0)
	.loc 1 371 39
	ld	a4,-160(s0)
	ld	a5,-168(s0)
	.loc 1 371 19
	add	a5,a4,a5
	sd	a5,-96(s0)
	.loc 1 373 47
	ld	a4,-176(s0)
	ld	a5,-40(s0)
	slli	a5,a5,1
	add	a5,a4,a5
	lhu	a5,0(a5)
	mv	a4,a5
	.loc 1 373 32
	ld	a5,-72(s0)
	sd	a4,24(a5)
	.loc 1 374 29
	ld	a5,-80(s0)
	sb	zero,1(a5)
	.loc 1 375 32
	ld	a5,-80(s0)
	lbu	a4,-41(s0)
	sb	a4,0(a5)
	.loc 1 380 9
	ld	a5,-160(s0)
	sd	a5,-104(s0)
	.loc 1 385 9
	ld	a5,-104(s0)
	addi	a5,a5,4
	sd	a5,-104(s0)
	.loc 1 390 9
	ld	a5,-104(s0)
	addi	a5,a5,2
	sd	a5,-104(s0)
	.loc 1 395 12
	ld	a0,-104(s0)
	call	StrSize@plt
	mv	a4,a0
	.loc 1 395 9 discriminator 1
	ld	a5,-104(s0)
	add	a5,a5,a4
	sd	a5,-104(s0)
	.loc 1 400 16
	ld	a5,-104(s0)
	sd	a5,-112(s0)
	.loc 1 401 28
	ld	a5,-112(s0)
	lbu	a5,0(a5)
	.loc 1 401 8
	mv	a4,a5
	li	a5,5
	bne	a4,a5,.L54
	.loc 1 401 58 discriminator 1
	ld	a5,-112(s0)
	lbu	a5,1(a5)
	.loc 1 401 36 discriminator 1
	mv	a4,a5
	li	a5,1
	bne	a4,a5,.L54
	.loc 1 402 32
	ld	a5,-80(s0)
	li	a4,1
	sb	a4,2(a5)
	j	.L55
.L54:
	.loc 1 404 32
	ld	a5,-80(s0)
	sb	zero,2(a5)
.L55:
	.loc 1 413 34
	ld	a5,-88(s0)
	lw	a4,0(a5)
	.loc 1 413 32
	ld	a5,-80(s0)
	sw	a4,4(a5)
	.loc 1 415 19
	ld	a5,-88(s0)
	addi	a5,a5,4
	sd	a5,-88(s0)
	.loc 1 417 42
	ld	a5,-88(s0)
	lhu	a4,0(a5)
	.loc 1 417 40
	ld	a5,-80(s0)
	sh	a4,8(a5)
	.loc 1 418 19
	ld	a5,-88(s0)
	addi	a5,a5,2
	sd	a5,-88(s0)
	.loc 1 420 18
	ld	a0,-88(s0)
	call	StrSize@plt
	sd	a0,-120(s0)
	.loc 1 422 35
	ld	a0,-88(s0)
	call	StrSize@plt
	mv	a5,a0
	.loc 1 422 35 is_stmt 0 discriminator 1
	mv	a0,a5
	call	AllocateZeroPool@plt
	mv	a4,a0
	.loc 1 422 33 is_stmt 1 discriminator 2
	ld	a5,-80(s0)
	sd	a4,16(a5)
	.loc 1 424 28
	ld	a5,-80(s0)
	ld	s1,16(a5)
	.loc 1 424 43
	ld	a0,-88(s0)
	call	StrSize@plt
	mv	a5,a0
	.loc 1 424 77 discriminator 1
	srli	a5,a5,1
	.loc 1 424 5 discriminator 1
	ld	a2,-88(s0)
	mv	a1,a5
	mv	a0,s1
	call	StrCpyS@plt
	.loc 1 427 49
	ld	a5,-80(s0)
	ld	a4,16(a5)
	.loc 1 427 33
	ld	a5,-72(s0)
	sd	a4,32(a5)
	.loc 1 428 40
	ld	a5,-216(s0)
	ld	a4,8(a5)
	.loc 1 428 97
	ld	a5,-72(s0)
	ld	a5,32(a5)
	.loc 1 428 40
	li	a3,0
	mv	a2,a5
	li	a1,0
	mv	a0,a4
	call	HiiSetString@plt
	mv	a5,a0
	mv	a4,a5
	.loc 1 428 38 discriminator 1
	ld	a5,-72(s0)
	sh	a4,48(a5)
	.loc 1 430 19
	ld	a4,-88(s0)
	ld	a5,-120(s0)
	add	a5,a4,a5
	sd	a5,-88(s0)
	.loc 1 432 68
	ld	a5,-80(s0)
	lhu	a5,8(a5)
	.loc 1 432 36
	mv	a0,a5
	call	AllocateZeroPool@plt
	mv	a4,a0
	.loc 1 432 34 discriminator 1
	ld	a5,-80(s0)
	sd	a4,24(a5)
	.loc 1 435 21
	ld	a5,-80(s0)
	ld	a4,24(a5)
	.loc 1 437 21
	ld	a5,-80(s0)
	lhu	a5,8(a5)
	.loc 1 434 5
	mv	a2,a5
	ld	a1,-88(s0)
	mv	a0,a4
	call	CopyMem@plt
	.loc 1 440 32
	ld	a5,-80(s0)
	ld	a5,24(a5)
	mv	a0,a5
	call	UiDevicePathToStr@plt
	mv	a4,a0
	.loc 1 440 30 discriminator 1
	ld	a5,-72(s0)
	sd	a4,40(a5)
	.loc 1 441 37
	ld	a5,-216(s0)
	ld	a4,8(a5)
	.loc 1 441 94
	ld	a5,-72(s0)
	ld	a5,40(a5)
	.loc 1 441 37
	li	a3,0
	mv	a2,a5
	li	a1,0
	mv	a0,a4
	call	HiiSetString@plt
	mv	a5,a0
	mv	a4,a5
	.loc 1 441 35 discriminator 1
	ld	a5,-72(s0)
	sh	a4,50(a5)
	.loc 1 443 36
	ld	a5,-80(s0)
	lhu	a5,8(a5)
	mv	a4,a5
	.loc 1 443 19
	ld	a5,-88(s0)
	add	a5,a5,a4
	sd	a5,-88(s0)
	.loc 1 445 8
	ld	a4,-88(s0)
	ld	a5,-96(s0)
	bgeu	a4,a5,.L56
	.loc 1 448 42
	ld	a4,-168(s0)
	ld	a5,-120(s0)
	sub	a5,a4,a5
	.loc 1 450 40
	ld	a4,-80(s0)
	lhu	a4,8(a4)
	.loc 1 449 37
	sub	a5,a5,a4
	.loc 1 446 24
	addi	a5,a5,-6
	sd	a5,-128(s0)
	.loc 1 452 38
	ld	a0,-128(s0)
	call	AllocateZeroPool@plt
	mv	a4,a0
	.loc 1 452 36 discriminator 1
	ld	a5,-80(s0)
	sd	a4,32(a5)
	.loc 1 455 23
	ld	a5,-80(s0)
	ld	a5,32(a5)
	.loc 1 454 7
	ld	a2,-128(s0)
	ld	a1,-88(s0)
	mv	a0,a5
	call	CopyMem@plt
.L56:
	.loc 1 461 5
	ld	a5,-72(s0)
	addi	a5,a5,8
	mv	a1,a5
	la	a5,BootOptionMenu
	addi	a0,a5,8
	call	InsertTailList@plt
	.loc 1 462 14
	ld	a5,-56(s0)
	addi	a5,a5,1
	sd	a5,-56(s0)
	.loc 1 463 5
	ld	a5,-160(s0)
	mv	a0,a5
	call	FreePool@plt
	j	.L50
.L61:
	.loc 1 347 7
	nop
	j	.L50
.L62:
	.loc 1 356 7
	nop
.L50:
	.loc 1 342 69 discriminator 2
	ld	a5,-40(s0)
	addi	a5,a5,1
	sd	a5,-40(s0)
.L47:
	.loc 1 342 45 discriminator 1
	ld	a5,-184(s0)
	srli	a5,a5,1
	.loc 1 342 25 discriminator 1
	ld	a4,-40(s0)
	bltu	a4,a5,.L57
	.loc 1 466 3
	ld	a5,-208(s0)
	mv	a1,a5
	ld	a0,-64(s0)
	call	EfiBootManagerFreeLoadOptions@plt
	.loc 1 468 16
	ld	a5,-192(s0)
	.loc 1 468 6
	beq	a5,zero,.L58
	.loc 1 469 5
	ld	a5,-192(s0)
	mv	a0,a5
	call	FreePool@plt
.L58:
	.loc 1 472 21
	ld	a5,-176(s0)
	.loc 1 472 6
	beq	a5,zero,.L59
	.loc 1 473 5
	ld	a5,-176(s0)
	mv	a0,a5
	call	FreePool@plt
.L59:
	.loc 1 476 29
	la	a5,BootOptionMenu
	ld	a4,-56(s0)
	sd	a4,24(a5)
	.loc 1 477 10
	li	a5,0
.L60:
	.loc 1 478 1
	mv	a0,a5
	ld	ra,216(sp)
	.cfi_restore 1
	ld	s0,208(sp)
	.cfi_restore 8
	.cfi_def_cfa 2, 224
	ld	s1,200(sp)
	.cfi_restore 9
	addi	sp,sp,224
	.cfi_def_cfa_offset 0
	jr	ra
	.cfi_endproc
.LFE5:
	.size	BOpt_GetBootOptions, .-BOpt_GetBootOptions
	.section	.text.BOpt_FindDrivers,"ax",@progbits
	.align	1
	.globl	BOpt_FindDrivers
	.type	BOpt_FindDrivers, @function
BOpt_FindDrivers:
.LFB6:
	.loc 1 495 1
	.cfi_startproc
	addi	sp,sp,-96
	.cfi_def_cfa_offset 96
	sd	ra,88(sp)
	sd	s0,80(sp)
	.cfi_offset 1, -8
	.cfi_offset 8, -16
	addi	s0,sp,96
	.cfi_def_cfa 8, 0
	.loc 1 507 12
	sd	zero,-88(s0)
	.loc 1 508 12
	sd	zero,-96(s0)
	.loc 1 510 3
	la	a5,DriverMenu
	addi	a0,a5,8
	call	InitializeListHead@plt
	.loc 1 517 15
	la	a5,gBS
	ld	a5,0(a5)
	ld	a5,312(a5)
	.loc 1 517 12
	addi	a4,s0,-80
	addi	a3,s0,-72
	li	a2,0
	la	a1,gEfiDevicePathProtocolGuid
	li	a0,2
	jalr	a5
.LVL4:
	sd	a0,-40(s0)
	.loc 1 524 34
	ld	a5,-40(s0)
	.loc 1 524 6
	bge	a5,zero,.L64
	.loc 1 525 12
	ld	a5,-40(s0)
	j	.L73
.L64:
	.loc 1 528 16
	sd	zero,-32(s0)
	.loc 1 529 14
	sd	zero,-24(s0)
	.loc 1 529 3
	j	.L66
.L71:
	.loc 1 530 33
	ld	a4,-80(s0)
	ld	a5,-24(s0)
	slli	a5,a5,3
	add	a5,a4,a5
	.loc 1 530 15
	ld	a5,0(a5)
	sd	a5,-48(s0)
	.loc 1 532 17
	la	a5,gBS
	ld	a5,0(a5)
	ld	a5,152(a5)
	.loc 1 532 14
	addi	a4,s0,-88
	mv	a2,a4
	la	a1,gEfiSimpleFileSystemProtocolGuid
	ld	a0,-48(s0)
	jalr	a5
.LVL5:
	sd	a0,-40(s0)
	.loc 1 537 8
	ld	a5,-40(s0)
	beq	a5,zero,.L74
	.loc 1 541 17
	la	a5,gBS
	ld	a5,0(a5)
	ld	a5,152(a5)
	.loc 1 541 14
	addi	a4,s0,-96
	mv	a2,a4
	la	a1,gEfiLoadFileProtocolGuid
	ld	a0,-48(s0)
	jalr	a5
.LVL6:
	sd	a0,-40(s0)
	.loc 1 546 8
	ld	a5,-40(s0)
	beq	a5,zero,.L75
	.loc 1 550 20
	li	a0,3
	call	BOpt_CreateMenuEntry
	sd	a0,-56(s0)
	.loc 1 551 8
	ld	a5,-56(s0)
	bne	a5,zero,.L70
	.loc 1 552 7
	ld	a5,-80(s0)
	mv	a0,a5
	call	FreePool@plt
	.loc 1 553 14
	li	a5,-1
	slli	a5,a5,63
	addi	a5,a5,9
	j	.L73
.L70:
	.loc 1 556 22
	ld	a5,-56(s0)
	ld	a5,64(a5)
	sd	a5,-64(s0)
	.loc 1 557 30
	ld	a5,-64(s0)
	ld	a4,-48(s0)
	sd	a4,0(a5)
	.loc 1 558 36
	ld	a0,-48(s0)
	call	DevicePathFromHandle@plt
	mv	a4,a0
	.loc 1 558 34 discriminator 1
	ld	a5,-64(s0)
	sd	a4,8(a5)
	.loc 1 559 35
	ld	a5,-64(s0)
	ld	a5,8(a5)
	mv	a0,a5
	call	UiDevicePathToStr@plt
	mv	a4,a0
	.loc 1 559 33 discriminator 1
	ld	a5,-56(s0)
	sd	a4,32(a5)
	.loc 1 560 70
	la	a5,mBmmCallbackInfo
	ld	a5,0(a5)
	.loc 1 560 40
	ld	a4,8(a5)
	.loc 1 560 101
	ld	a5,-56(s0)
	ld	a5,32(a5)
	.loc 1 560 40
	li	a3,0
	mv	a2,a5
	li	a1,0
	mv	a0,a4
	call	HiiSetString@plt
	mv	a5,a0
	mv	a4,a5
	.loc 1 560 38 discriminator 1
	ld	a5,-56(s0)
	sh	a4,48(a5)
	.loc 1 561 30
	ld	a5,-56(s0)
	sd	zero,40(a5)
	.loc 1 562 49
	ld	a5,-56(s0)
	lhu	a4,48(a5)
	.loc 1 562 35
	ld	a5,-56(s0)
	sh	a4,50(a5)
	.loc 1 563 32
	ld	a5,-56(s0)
	ld	a4,-32(s0)
	sd	a4,24(a5)
	.loc 1 564 17
	ld	a5,-32(s0)
	addi	a5,a5,1
	sd	a5,-32(s0)
	.loc 1 565 5
	ld	a5,-56(s0)
	addi	a5,a5,8
	mv	a1,a5
	la	a5,DriverMenu
	addi	a0,a5,8
	call	InsertTailList@plt
	j	.L68
.L74:
	.loc 1 538 7
	nop
	j	.L68
.L75:
	.loc 1 547 7
	nop
.L68:
	.loc 1 529 53 discriminator 2
	ld	a5,-24(s0)
	addi	a5,a5,1
	sd	a5,-24(s0)
.L66:
	.loc 1 529 25 discriminator 1
	ld	a5,-72(s0)
	ld	a4,-24(s0)
	bltu	a4,a5,.L71
	.loc 1 568 24
	ld	a5,-80(s0)
	.loc 1 568 6
	beq	a5,zero,.L72
	.loc 1 569 5
	ld	a5,-80(s0)
	mv	a0,a5
	call	FreePool@plt
.L72:
	.loc 1 572 25
	la	a5,DriverMenu
	ld	a4,-32(s0)
	sd	a4,24(a5)
	.loc 1 573 10
	li	a5,0
.L73:
	.loc 1 574 1
	mv	a0,a5
	ld	ra,88(sp)
	.cfi_restore 1
	ld	s0,80(sp)
	.cfi_restore 8
	.cfi_def_cfa 2, 96
	addi	sp,sp,96
	.cfi_def_cfa_offset 0
	jr	ra
	.cfi_endproc
.LFE6:
	.size	BOpt_FindDrivers, .-BOpt_FindDrivers
	.section	.rodata
	.align	3
.LC5:
	.string	"%"
	.string	"s"
	.string	"O"
	.string	"r"
	.string	"d"
	.string	"e"
	.string	"r"
	.zero	2
	.align	3
.LC6:
	.string	"%"
	.string	"s"
	.string	"%"
	.string	"0"
	.string	"4"
	.string	"x"
	.zero	2
	.section	.text.BOpt_GetOptionNumber,"ax",@progbits
	.align	1
	.globl	BOpt_GetOptionNumber
	.type	BOpt_GetOptionNumber, @function
BOpt_GetOptionNumber:
.LFB7:
	.loc 1 589 1
	.cfi_startproc
	addi	sp,sp,-128
	.cfi_def_cfa_offset 128
	sd	ra,120(sp)
	sd	s0,112(sp)
	.cfi_offset 1, -8
	.cfi_offset 8, -16
	addi	s0,sp,128
	.cfi_def_cfa 8, 0
	sd	a0,-120(s0)
	.loc 1 598 17
	sd	zero,-48(s0)
	.loc 1 599 13
	sd	zero,-40(s0)
	.loc 1 600 16
	sh	zero,-26(s0)
	.loc 1 601 9
	sd	zero,-24(s0)
	.loc 1 603 3
	addi	a5,s0,-88
	ld	a3,-120(s0)
	lla	a2,.LC5
	li	a1,40
	mv	a0,a5
	call	UnicodeSPrint@plt
	.loc 1 605 3
	addi	a3,s0,-48
	addi	a4,s0,-40
	addi	a5,s0,-88
	mv	a2,a3
	mv	a1,a4
	mv	a0,a5
	call	GetEfiGlobalVariable2@plt
	.loc 1 606 21
	sh	zero,-26(s0)
.L84:
	.loc 1 607 19
	ld	a5,-40(s0)
	.loc 1 607 8
	beq	a5,zero,.L77
	.loc 1 608 18
	sd	zero,-24(s0)
	.loc 1 608 7
	j	.L78
.L80:
	.loc 1 609 38
	ld	a4,-40(s0)
	ld	a5,-24(s0)
	slli	a5,a5,1
	add	a5,a4,a5
	lhu	a5,0(a5)
	.loc 1 609 12
	lhu	a4,-26(s0)
	sext.w	a4,a4
	sext.w	a5,a5
	beq	a4,a5,.L87
	.loc 1 608 69 discriminator 2
	ld	a5,-24(s0)
	addi	a5,a5,1
	sd	a5,-24(s0)
.L78:
	.loc 1 608 45 discriminator 1
	ld	a5,-48(s0)
	srli	a5,a5,1
	.loc 1 608 29 discriminator 1
	ld	a4,-24(s0)
	bltu	a4,a5,.L80
	j	.L77
.L87:
	.loc 1 610 11
	nop
.L77:
	.loc 1 615 31
	ld	a5,-48(s0)
	srli	a5,a5,1
	.loc 1 615 8
	ld	a4,-24(s0)
	bltu	a4,a5,.L88
	.loc 1 622 5
	lhu	a4,-26(s0)
	addi	a5,s0,-88
	ld	a3,-120(s0)
	lla	a2,.LC6
	li	a1,40
	mv	a0,a5
	call	UnicodeSPrint@plt
	.loc 1 624 5
	addi	a3,s0,-104
	addi	a4,s0,-96
	addi	a5,s0,-88
	mv	a2,a3
	mv	a1,a4
	mv	a0,a5
	call	GetEfiGlobalVariable2@plt
	.loc 1 625 22
	ld	a5,-96(s0)
	.loc 1 625 8
	beq	a5,zero,.L89
	j	.L82
.L88:
	.loc 1 619 7
	nop
.L82:
	.loc 1 606 40
	lhu	a5,-26(s0)
	addiw	a5,a5,1
	sh	a5,-26(s0)
	.loc 1 607 8
	j	.L84
.L89:
	.loc 1 629 7
	nop
	.loc 1 633 10
	lhu	a5,-26(s0)
	.loc 1 634 1
	mv	a0,a5
	ld	ra,120(sp)
	.cfi_restore 1
	ld	s0,112(sp)
	.cfi_restore 8
	.cfi_def_cfa 2, 128
	addi	sp,sp,128
	.cfi_def_cfa_offset 0
	jr	ra
	.cfi_endproc
.LFE7:
	.size	BOpt_GetOptionNumber, .-BOpt_GetOptionNumber
	.section	.rodata
	.align	3
.LC7:
	.string	"B"
	.string	"o"
	.string	"o"
	.string	"t"
	.zero	2
	.section	.text.BOpt_GetBootOptionNumber,"ax",@progbits
	.align	1
	.globl	BOpt_GetBootOptionNumber
	.type	BOpt_GetBootOptionNumber, @function
BOpt_GetBootOptionNumber:
.LFB8:
	.loc 1 647 1
	.cfi_startproc
	addi	sp,sp,-16
	.cfi_def_cfa_offset 16
	sd	ra,8(sp)
	sd	s0,0(sp)
	.cfi_offset 1, -8
	.cfi_offset 8, -16
	addi	s0,sp,16
	.cfi_def_cfa 8, 0
	.loc 1 648 10
	lla	a0,.LC7
	call	BOpt_GetOptionNumber
	mv	a5,a0
	.loc 1 649 1
	mv	a0,a5
	ld	ra,8(sp)
	.cfi_restore 1
	ld	s0,0(sp)
	.cfi_restore 8
	.cfi_def_cfa 2, 16
	addi	sp,sp,16
	.cfi_def_cfa_offset 0
	jr	ra
	.cfi_endproc
.LFE8:
	.size	BOpt_GetBootOptionNumber, .-BOpt_GetBootOptionNumber
	.section	.rodata
	.align	3
.LC8:
	.string	"D"
	.string	"r"
	.string	"i"
	.string	"v"
	.string	"e"
	.string	"r"
	.zero	2
	.section	.text.BOpt_GetDriverOptionNumber,"ax",@progbits
	.align	1
	.globl	BOpt_GetDriverOptionNumber
	.type	BOpt_GetDriverOptionNumber, @function
BOpt_GetDriverOptionNumber:
.LFB9:
	.loc 1 662 1
	.cfi_startproc
	addi	sp,sp,-16
	.cfi_def_cfa_offset 16
	sd	ra,8(sp)
	sd	s0,0(sp)
	.cfi_offset 1, -8
	.cfi_offset 8, -16
	addi	s0,sp,16
	.cfi_def_cfa 8, 0
	.loc 1 663 10
	lla	a0,.LC8
	call	BOpt_GetOptionNumber
	mv	a5,a0
	.loc 1 664 1
	mv	a0,a5
	ld	ra,8(sp)
	.cfi_restore 1
	ld	s0,0(sp)
	.cfi_restore 8
	.cfi_def_cfa 2, 16
	addi	sp,sp,16
	.cfi_def_cfa_offset 0
	jr	ra
	.cfi_endproc
.LFE9:
	.size	BOpt_GetDriverOptionNumber, .-BOpt_GetDriverOptionNumber
	.section	.rodata
	.align	3
.LC9:
	.string	"D"
	.string	"r"
	.string	"i"
	.string	"v"
	.string	"e"
	.string	"r"
	.string	"O"
	.string	"r"
	.string	"d"
	.string	"e"
	.string	"r"
	.zero	2
	.align	3
.LC10:
	.string	"D"
	.string	"r"
	.string	"i"
	.string	"v"
	.string	"e"
	.string	"r"
	.string	"%"
	.string	"0"
	.string	"4"
	.string	"x"
	.zero	2
	.section	.text.BOpt_GetDriverOptions,"ax",@progbits
	.align	1
	.globl	BOpt_GetDriverOptions
	.type	BOpt_GetDriverOptions, @function
BOpt_GetDriverOptions:
.LFB10:
	.loc 1 681 1
	.cfi_startproc
	addi	sp,sp,-144
	.cfi_def_cfa_offset 144
	sd	ra,136(sp)
	sd	s0,128(sp)
	.cfi_offset 1, -8
	.cfi_offset 8, -16
	addi	s0,sp,144
	.cfi_def_cfa 8, 0
	sd	a0,-136(s0)
	.loc 1 696 23
	sd	zero,-128(s0)
	.loc 1 697 19
	sd	zero,-120(s0)
	.loc 1 698 20
	sd	zero,-112(s0)
	.loc 1 699 21
	sd	zero,-104(s0)
	.loc 1 700 3
	la	a0,DriverOptionMenu
	call	BOpt_FreeMenu
	.loc 1 701 3
	la	a5,DriverOptionMenu
	addi	a0,a5,8
	call	InitializeListHead@plt
	.loc 1 705 3
	addi	a4,s0,-128
	addi	a5,s0,-120
	mv	a2,a4
	mv	a1,a5
	lla	a0,.LC9
	call	GetEfiGlobalVariable2@plt
	.loc 1 706 23
	ld	a5,-120(s0)
	.loc 1 706 6
	bne	a5,zero,.L95
	.loc 1 707 12
	li	a5,-1
	slli	a5,a5,63
	addi	a5,a5,14
	j	.L104
.L95:
	.loc 1 710 14
	sd	zero,-24(s0)
	.loc 1 710 3
	j	.L97
.L102:
	.loc 1 715 22
	ld	a4,-120(s0)
	ld	a5,-24(s0)
	slli	a5,a5,1
	add	a5,a4,a5
	lhu	a5,0(a5)
	.loc 1 711 5
	sext.w	a4,a5
	addi	a5,s0,-96
	mv	a3,a4
	lla	a2,.LC10
	li	a1,24
	mv	a0,a5
	call	UnicodeSPrint@plt
	.loc 1 720 5
	addi	a3,s0,-112
	addi	a4,s0,-104
	addi	a5,s0,-96
	mv	a2,a3
	mv	a1,a4
	mv	a0,a5
	call	GetEfiGlobalVariable2@plt
	.loc 1 721 27
	ld	a5,-104(s0)
	.loc 1 721 8
	beq	a5,zero,.L105
	.loc 1 725 20
	li	a0,0
	call	BOpt_CreateMenuEntry
	sd	a0,-32(s0)
	.loc 1 726 8
	ld	a5,-32(s0)
	bne	a5,zero,.L100
	.loc 1 727 14
	li	a5,-1
	slli	a5,a5,63
	addi	a5,a5,9
	j	.L104
.L100:
	.loc 1 730 20
	ld	a5,-32(s0)
	ld	a5,64(a5)
	sd	a5,-40(s0)
	.loc 1 731 19
	ld	a5,-104(s0)
	sd	a5,-48(s0)
	.loc 1 732 39
	ld	a4,-104(s0)
	ld	a5,-112(s0)
	.loc 1 732 19
	add	a5,a4,a5
	sd	a5,-56(s0)
	.loc 1 733 49
	ld	a4,-120(s0)
	ld	a5,-24(s0)
	slli	a5,a5,1
	add	a5,a4,a5
	lhu	a5,0(a5)
	mv	a4,a5
	.loc 1 733 32
	ld	a5,-32(s0)
	sd	a4,24(a5)
	.loc 1 734 29
	ld	a5,-40(s0)
	sb	zero,1(a5)
	.loc 1 735 30
	ld	a5,-40(s0)
	sb	zero,2(a5)
	.loc 1 743 34
	ld	a5,-48(s0)
	lw	a4,0(a5)
	.loc 1 743 32
	ld	a5,-40(s0)
	sw	a4,4(a5)
	.loc 1 745 19
	ld	a5,-48(s0)
	addi	a5,a5,4
	sd	a5,-48(s0)
	.loc 1 747 42
	ld	a5,-48(s0)
	lhu	a4,0(a5)
	.loc 1 747 40
	ld	a5,-40(s0)
	sh	a4,8(a5)
	.loc 1 748 19
	ld	a5,-48(s0)
	addi	a5,a5,2
	sd	a5,-48(s0)
	.loc 1 750 18
	ld	a0,-48(s0)
	call	StrSize@plt
	sd	a0,-64(s0)
	.loc 1 751 35
	ld	a0,-64(s0)
	call	AllocateZeroPool@plt
	mv	a4,a0
	.loc 1 751 33 discriminator 1
	ld	a5,-40(s0)
	sd	a4,16(a5)
	.loc 1 754 21
	ld	a5,-40(s0)
	ld	a5,16(a5)
	.loc 1 753 5
	ld	a2,-64(s0)
	ld	a1,-48(s0)
	mv	a0,a5
	call	CopyMem@plt
	.loc 1 758 49
	ld	a5,-40(s0)
	ld	a4,16(a5)
	.loc 1 758 33
	ld	a5,-32(s0)
	sd	a4,32(a5)
	.loc 1 759 40
	ld	a5,-136(s0)
	ld	a4,8(a5)
	.loc 1 759 97
	ld	a5,-32(s0)
	ld	a5,32(a5)
	.loc 1 759 40
	li	a3,0
	mv	a2,a5
	li	a1,0
	mv	a0,a4
	call	HiiSetString@plt
	mv	a5,a0
	mv	a4,a5
	.loc 1 759 38 discriminator 1
	ld	a5,-32(s0)
	sh	a4,48(a5)
	.loc 1 761 19
	ld	a4,-48(s0)
	ld	a5,-64(s0)
	add	a5,a4,a5
	sd	a5,-48(s0)
	.loc 1 763 68
	ld	a5,-40(s0)
	lhu	a5,8(a5)
	.loc 1 763 36
	mv	a0,a5
	call	AllocateZeroPool@plt
	mv	a4,a0
	.loc 1 763 34 discriminator 1
	ld	a5,-40(s0)
	sd	a4,24(a5)
	.loc 1 766 21
	ld	a5,-40(s0)
	ld	a4,24(a5)
	.loc 1 768 21
	ld	a5,-40(s0)
	lhu	a5,8(a5)
	.loc 1 765 5
	mv	a2,a5
	ld	a1,-48(s0)
	mv	a0,a4
	call	CopyMem@plt
	.loc 1 771 32
	ld	a5,-40(s0)
	ld	a5,24(a5)
	mv	a0,a5
	call	UiDevicePathToStr@plt
	mv	a4,a0
	.loc 1 771 30 discriminator 1
	ld	a5,-32(s0)
	sd	a4,40(a5)
	.loc 1 772 37
	ld	a5,-136(s0)
	ld	a4,8(a5)
	.loc 1 772 94
	ld	a5,-32(s0)
	ld	a5,40(a5)
	.loc 1 772 37
	li	a3,0
	mv	a2,a5
	li	a1,0
	mv	a0,a4
	call	HiiSetString@plt
	mv	a5,a0
	mv	a4,a5
	.loc 1 772 35 discriminator 1
	ld	a5,-32(s0)
	sh	a4,50(a5)
	.loc 1 774 36
	ld	a5,-40(s0)
	lhu	a5,8(a5)
	mv	a4,a5
	.loc 1 774 19
	ld	a5,-48(s0)
	add	a5,a5,a4
	sd	a5,-48(s0)
	.loc 1 776 8
	ld	a4,-48(s0)
	ld	a5,-56(s0)
	bgeu	a4,a5,.L101
	.loc 1 779 42
	ld	a4,-112(s0)
	ld	a5,-64(s0)
	sub	a5,a4,a5
	.loc 1 781 40
	ld	a4,-40(s0)
	lhu	a4,8(a4)
	.loc 1 780 37
	sub	a5,a5,a4
	.loc 1 777 24
	addi	a5,a5,-6
	sd	a5,-72(s0)
	.loc 1 783 38
	ld	a0,-72(s0)
	call	AllocateZeroPool@plt
	mv	a4,a0
	.loc 1 783 36 discriminator 1
	ld	a5,-40(s0)
	sd	a4,32(a5)
	.loc 1 786 23
	ld	a5,-40(s0)
	ld	a5,32(a5)
	.loc 1 785 7
	ld	a2,-72(s0)
	ld	a1,-48(s0)
	mv	a0,a5
	call	CopyMem@plt
.L101:
	.loc 1 792 5
	ld	a5,-32(s0)
	addi	a5,a5,8
	mv	a1,a5
	la	a5,DriverOptionMenu
	addi	a0,a5,8
	call	InsertTailList@plt
	.loc 1 793 5
	ld	a5,-104(s0)
	mv	a0,a5
	call	FreePool@plt
	j	.L99
.L105:
	.loc 1 722 7
	nop
.L99:
	.loc 1 710 71 discriminator 2
	ld	a5,-24(s0)
	addi	a5,a5,1
	sd	a5,-24(s0)
.L97:
	.loc 1 710 47 discriminator 1
	ld	a5,-128(s0)
	srli	a5,a5,1
	.loc 1 710 25 discriminator 1
	ld	a4,-24(s0)
	bltu	a4,a5,.L102
	.loc 1 796 23
	ld	a5,-120(s0)
	.loc 1 796 6
	beq	a5,zero,.L103
	.loc 1 797 5
	ld	a5,-120(s0)
	mv	a0,a5
	call	FreePool@plt
.L103:
	.loc 1 800 31
	la	a5,DriverOptionMenu
	ld	a4,-24(s0)
	sd	a4,24(a5)
	.loc 1 801 10
	li	a5,0
.L104:
	.loc 1 802 1
	mv	a0,a5
	ld	ra,136(sp)
	.cfi_restore 1
	ld	s0,128(sp)
	.cfi_restore 8
	.cfi_def_cfa 2, 144
	addi	sp,sp,144
	.cfi_def_cfa_offset 0
	jr	ra
	.cfi_endproc
.LFE10:
	.size	BOpt_GetDriverOptions, .-BOpt_GetDriverOptions
	.section	.text.GetBootOrder,"ax",@progbits
	.align	1
	.globl	GetBootOrder
	.type	GetBootOrder, @function
GetBootOrder:
.LFB11:
	.loc 1 814 1
	.cfi_startproc
	addi	sp,sp,-80
	.cfi_def_cfa_offset 80
	sd	ra,72(sp)
	sd	s0,64(sp)
	.cfi_offset 1, -8
	.cfi_offset 8, -16
	addi	s0,sp,80
	.cfi_def_cfa 8, 0
	sd	a0,-72(s0)
	.loc 1 824 14
	li	a5,-1
	sd	a5,-32(s0)
	.loc 1 825 13
	ld	a5,-72(s0)
	addi	a5,a5,112
	sd	a5,-40(s0)
	.loc 1 826 21
	ld	a5,-40(s0)
	addi	a5,a5,828
	.loc 1 826 3
	li	a1,400
	mv	a0,a5
	call	ZeroMem@plt
	.loc 1 828 14
	sh	zero,-18(s0)
	.loc 1 828 36
	sh	zero,-20(s0)
	.loc 1 828 3
	j	.L107
.L112:
	.loc 1 832 20
	lhu	a5,-18(s0)
	mv	a1,a5
	la	a0,BootOptionMenu
	call	BOpt_GetMenuEntry
	sd	a0,-48(s0)
	.loc 1 833 20
	ld	a5,-48(s0)
	ld	a5,64(a5)
	sd	a5,-56(s0)
	.loc 1 835 23
	ld	a5,-56(s0)
	lbu	a5,2(a5)
	.loc 1 835 8
	beq	a5,zero,.L108
	.loc 1 836 49
	ld	a5,-56(s0)
	ld	a5,24(a5)
	.loc 1 836 64
	lbu	a4,4(a5)
	lbu	a5,5(a5)
	slli	a5,a5,8
	or	a5,a5,a4
	slli	a5,a5,48
	srli	a5,a5,48
	mv	a4,a5
	.loc 1 836 10
	ld	a5,-32(s0)
	beq	a5,a4,.L113
	.loc 1 837 60
	ld	a5,-56(s0)
	ld	a5,24(a5)
	.loc 1 837 75
	lbu	a4,4(a5)
	lbu	a5,5(a5)
	slli	a5,a5,8
	or	a5,a5,a4
	slli	a5,a5,48
	srli	a5,a5,48
	.loc 1 837 20
	sd	a5,-32(s0)
.L108:
	.loc 1 847 75
	ld	a5,-48(s0)
	ld	a5,24(a5)
	.loc 1 847 54
	sext.w	a4,a5
	.loc 1 847 48
	lhu	a5,-20(s0)
	addiw	a3,a5,1
	sh	a3,-20(s0)
	sext.w	a5,a5
	.loc 1 847 54
	addiw	a4,a4,1
	sext.w	a4,a4
	.loc 1 847 52
	ld	a3,-40(s0)
	addi	a5,a5,204
	slli	a5,a5,2
	add	a5,a3,a5
	sw	a4,12(a5)
	j	.L110
.L113:
	.loc 1 843 9
	nop
.L110:
	.loc 1 830 13
	lhu	a5,-18(s0)
	addiw	a5,a5,1
	sh	a5,-18(s0)
.L107:
	.loc 1 828 49 discriminator 1
	lhu	a4,-18(s0)
	.loc 1 828 65 discriminator 1
	la	a5,BootOptionMenu
	ld	a5,24(a5)
	.loc 1 828 78 discriminator 1
	bgeu	a4,a5,.L114
	.loc 1 828 78 is_stmt 0 discriminator 2
	lhu	a5,-20(s0)
	sext.w	a4,a5
	li	a5,99
	bleu	a4,a5,.L112
.L114:
	.loc 1 849 1 is_stmt 1
	nop
	ld	ra,72(sp)
	.cfi_restore 1
	ld	s0,64(sp)
	.cfi_restore 8
	.cfi_def_cfa 2, 80
	addi	sp,sp,80
	.cfi_def_cfa_offset 0
	jr	ra
	.cfi_endproc
.LFE11:
	.size	GetBootOrder, .-GetBootOrder
	.section	.text.GetDriverOrder,"ax",@progbits
	.align	1
	.globl	GetDriverOrder
	.type	GetDriverOrder, @function
GetDriverOrder:
.LFB12:
	.loc 1 861 1
	.cfi_startproc
	addi	sp,sp,-80
	.cfi_def_cfa_offset 80
	sd	ra,72(sp)
	sd	s0,64(sp)
	.cfi_offset 1, -8
	.cfi_offset 8, -16
	addi	s0,sp,80
	.cfi_def_cfa 8, 0
	sd	a0,-72(s0)
	.loc 1 871 14
	li	a5,-1
	sd	a5,-32(s0)
	.loc 1 872 13
	ld	a5,-72(s0)
	addi	a5,a5,112
	sd	a5,-40(s0)
	.loc 1 873 21
	ld	a5,-40(s0)
	addi	a5,a5,1228
	.loc 1 873 3
	li	a1,400
	mv	a0,a5
	call	ZeroMem@plt
	.loc 1 875 14
	sh	zero,-18(s0)
	.loc 1 875 36
	sh	zero,-20(s0)
	.loc 1 875 3
	j	.L116
.L121:
	.loc 1 879 20
	lhu	a5,-18(s0)
	mv	a1,a5
	la	a0,DriverOptionMenu
	call	BOpt_GetMenuEntry
	sd	a0,-48(s0)
	.loc 1 880 20
	ld	a5,-48(s0)
	ld	a5,64(a5)
	sd	a5,-56(s0)
	.loc 1 882 23
	ld	a5,-56(s0)
	lbu	a5,2(a5)
	.loc 1 882 8
	beq	a5,zero,.L117
	.loc 1 883 49
	ld	a5,-56(s0)
	ld	a5,24(a5)
	.loc 1 883 64
	lbu	a4,4(a5)
	lbu	a5,5(a5)
	slli	a5,a5,8
	or	a5,a5,a4
	slli	a5,a5,48
	srli	a5,a5,48
	mv	a4,a5
	.loc 1 883 10
	ld	a5,-32(s0)
	beq	a5,a4,.L122
	.loc 1 884 60
	ld	a5,-56(s0)
	ld	a5,24(a5)
	.loc 1 884 75
	lbu	a4,4(a5)
	lbu	a5,5(a5)
	slli	a5,a5,8
	or	a5,a5,a4
	slli	a5,a5,48
	srli	a5,a5,48
	.loc 1 884 20
	sd	a5,-32(s0)
.L117:
	.loc 1 894 77
	ld	a5,-48(s0)
	ld	a5,24(a5)
	.loc 1 894 56
	sext.w	a4,a5
	.loc 1 894 50
	lhu	a5,-20(s0)
	addiw	a3,a5,1
	sh	a3,-20(s0)
	sext.w	a5,a5
	.loc 1 894 56
	addiw	a4,a4,1
	sext.w	a4,a4
	.loc 1 894 54
	ld	a3,-40(s0)
	addi	a5,a5,304
	slli	a5,a5,2
	add	a5,a3,a5
	sw	a4,12(a5)
	j	.L119
.L122:
	.loc 1 890 9
	nop
.L119:
	.loc 1 877 13
	lhu	a5,-18(s0)
	addiw	a5,a5,1
	sh	a5,-18(s0)
.L116:
	.loc 1 875 49 discriminator 1
	lhu	a4,-18(s0)
	.loc 1 875 67 discriminator 1
	la	a5,DriverOptionMenu
	ld	a5,24(a5)
	.loc 1 875 80 discriminator 1
	bgeu	a4,a5,.L123
	.loc 1 875 80 is_stmt 0 discriminator 2
	lhu	a5,-20(s0)
	sext.w	a4,a5
	li	a5,99
	bleu	a4,a5,.L121
.L123:
	.loc 1 896 1 is_stmt 1
	nop
	ld	ra,72(sp)
	.cfi_restore 1
	ld	s0,64(sp)
	.cfi_restore 8
	.cfi_def_cfa 2, 80
	addi	sp,sp,80
	.cfi_def_cfa_offset 0
	jr	ra
	.cfi_endproc
.LFE12:
	.size	GetDriverOrder, .-GetDriverOrder
	.section	.text.BootFromFile,"ax",@progbits
	.align	1
	.globl	BootFromFile
	.type	BootFromFile, @function
BootFromFile:
.LFB13:
	.loc 1 911 1
	.cfi_startproc
	addi	sp,sp,-144
	.cfi_def_cfa_offset 144
	sd	ra,136(sp)
	sd	s0,128(sp)
	.cfi_offset 1, -8
	.cfi_offset 8, -16
	addi	s0,sp,144
	.cfi_def_cfa 8, 0
	sd	a0,-136(s0)
	.loc 1 916 10
	li	a5,-1
	slli	a5,a5,63
	addi	a5,a5,19
	sd	a5,-24(s0)
	.loc 1 917 12
	sd	zero,-32(s0)
	.loc 1 919 14
	ld	a0,-136(s0)
	call	ExtractFileNameFromDevicePath@plt
	sd	a0,-32(s0)
	.loc 1 920 6
	ld	a5,-32(s0)
	beq	a5,zero,.L125
	.loc 1 921 14
	addi	a0,s0,-120
	li	a7,0
	li	a6,0
	ld	a5,-136(s0)
	ld	a4,-32(s0)
	li	a3,1
	li	a2,2
	li	a1,0
	call	EfiBootManagerInitializeLoadOption@plt
	sd	a0,-24(s0)
.L125:
	.loc 1 933 7
	ld	a5,-24(s0)
	.loc 1 933 6
	blt	a5,zero,.L126
	.loc 1 937 8
	la	a5,gST
	ld	a5,0(a5)
	ld	a5,64(a5)
	.loc 1 937 16
	ld	a5,48(a5)
	.loc 1 937 34
	la	a4,gST
	ld	a4,0(a4)
	.loc 1 937 5
	ld	a4,64(a4)
	mv	a0,a4
	jalr	a5
.LVL7:
	.loc 1 941 5
	call	BmmSetupResetReminder
	.loc 1 943 5
	li	a0,0
	call	BmmSetConsoleMode@plt
	.loc 1 944 5
	addi	a5,s0,-120
	mv	a0,a5
	call	EfiBootManagerBoot@plt
	.loc 1 945 5
	li	a0,1
	call	BmmSetConsoleMode@plt
	.loc 1 947 5
	ld	a0,-32(s0)
	call	FreePool@plt
	.loc 1 949 5
	addi	a5,s0,-120
	mv	a0,a5
	call	EfiBootManagerFreeLoadOption@plt
.L126:
	.loc 1 952 10
	li	a5,0
	.loc 1 953 1
	mv	a0,a5
	ld	ra,136(sp)
	.cfi_restore 1
	ld	s0,128(sp)
	.cfi_restore 8
	.cfi_def_cfa 2, 144
	addi	sp,sp,144
	.cfi_def_cfa_offset 0
	jr	ra
	.cfi_endproc
.LFE13:
	.size	BootFromFile, .-BootFromFile
	.section	.text.ReSendForm,"ax",@progbits
	.align	1
	.globl	ReSendForm
	.type	ReSendForm, @function
ReSendForm:
.LFB14:
	.loc 1 967 1
	.cfi_startproc
	addi	sp,sp,-32
	.cfi_def_cfa_offset 32
	sd	ra,24(sp)
	sd	s0,16(sp)
	.cfi_offset 1, -8
	.cfi_offset 8, -16
	addi	s0,sp,32
	.cfi_def_cfa 8, 0
	sd	a0,-24(s0)
	mv	a5,a1
	sh	a5,-26(s0)
	.loc 1 968 26
	la	a5,gBootMaintenancePrivate
	ld	a5,80(a5)
	.loc 1 968 53
	ld	a4,-24(s0)
	sd	a4,24(a5)
	.loc 1 970 3
	lhu	a5,-26(s0)
	ld	a2,-24(s0)
	mv	a1,a5
	la	a0,gBootMaintenancePrivate
	call	UpdateOptionPage@plt
	.loc 1 972 26
	la	a5,gBootMaintenancePrivate
	ld	a5,48(a5)
	.loc 1 972 39
	ld	a7,0(a5)
	.loc 1 973 66
	la	a5,gBootMaintenancePrivate
	ld	a0,48(a5)
	.loc 1 972 3
	lhu	a4,-26(s0)
	li	a6,0
	li	a5,0
	la	a3,mBootMaintGuid
	li	a2,1
	la	a1,gBootMaintenancePrivate
	addi	a1,a1,8
	jalr	a7
.LVL8:
	.loc 1 981 10
	li	a5,1
	.loc 1 982 1
	mv	a0,a5
	ld	ra,24(sp)
	.cfi_restore 1
	ld	s0,16(sp)
	.cfi_restore 8
	.cfi_def_cfa 2, 32
	addi	sp,sp,32
	.cfi_def_cfa_offset 0
	jr	ra
	.cfi_endproc
.LFE14:
	.size	ReSendForm, .-ReSendForm
	.section	.text.CreateBootOptionFromFile,"ax",@progbits
	.align	1
	.globl	CreateBootOptionFromFile
	.type	CreateBootOptionFromFile, @function
CreateBootOptionFromFile:
.LFB15:
	.loc 1 997 1
	.cfi_startproc
	addi	sp,sp,-32
	.cfi_def_cfa_offset 32
	sd	ra,24(sp)
	sd	s0,16(sp)
	.cfi_offset 1, -8
	.cfi_offset 8, -16
	addi	s0,sp,32
	.cfi_def_cfa 8, 0
	sd	a0,-24(s0)
	.loc 1 998 10
	li	a5,4096
	addi	a1,a5,2
	ld	a0,-24(s0)
	call	ReSendForm
	mv	a5,a0
	.loc 1 999 1
	mv	a0,a5
	ld	ra,24(sp)
	.cfi_restore 1
	ld	s0,16(sp)
	.cfi_restore 8
	.cfi_def_cfa 2, 32
	addi	sp,sp,32
	.cfi_def_cfa_offset 0
	jr	ra
	.cfi_endproc
.LFE15:
	.size	CreateBootOptionFromFile, .-CreateBootOptionFromFile
	.section	.text.CreateDriverOptionFromFile,"ax",@progbits
	.align	1
	.globl	CreateDriverOptionFromFile
	.type	CreateDriverOptionFromFile, @function
CreateDriverOptionFromFile:
.LFB16:
	.loc 1 1015 1
	.cfi_startproc
	addi	sp,sp,-32
	.cfi_def_cfa_offset 32
	sd	ra,24(sp)
	sd	s0,16(sp)
	.cfi_offset 1, -8
	.cfi_offset 8, -16
	addi	s0,sp,32
	.cfi_def_cfa 8, 0
	sd	a0,-24(s0)
	.loc 1 1016 10
	li	a5,4096
	addi	a1,a5,14
	ld	a0,-24(s0)
	call	ReSendForm
	mv	a5,a0
	.loc 1 1017 1
	mv	a0,a5
	ld	ra,24(sp)
	.cfi_restore 1
	ld	s0,16(sp)
	.cfi_restore 8
	.cfi_def_cfa 2, 32
	addi	sp,sp,32
	.cfi_def_cfa_offset 0
	jr	ra
	.cfi_endproc
.LFE16:
	.size	CreateDriverOptionFromFile, .-CreateDriverOptionFromFile
	.text
.Letext0:
	.file 2 "/home/kapoagaeming/spacemit-image-builder/components/edk2/MdePkg/Include/RiscV64/ProcessorBind.h"
	.file 3 "/home/kapoagaeming/spacemit-image-builder/components/edk2/MdePkg/Include/Base.h"
	.file 4 "/home/kapoagaeming/spacemit-image-builder/components/edk2/MdePkg/Include/Uefi/UefiBaseType.h"
	.file 5 "/home/kapoagaeming/spacemit-image-builder/components/edk2/MdePkg/Include/Uefi/UefiMultiPhase.h"
	.file 6 "/home/kapoagaeming/spacemit-image-builder/components/edk2/MdePkg/Include/Protocol/DevicePath.h"
	.file 7 "/home/kapoagaeming/spacemit-image-builder/components/edk2/MdePkg/Include/Protocol/SimpleTextIn.h"
	.file 8 "/home/kapoagaeming/spacemit-image-builder/components/edk2/MdePkg/Include/Protocol/SimpleTextOut.h"
	.file 9 "/home/kapoagaeming/spacemit-image-builder/components/edk2/MdePkg/Include/Uefi/UefiSpec.h"
	.file 10 "/home/kapoagaeming/spacemit-image-builder/components/edk2/MdePkg/Include/Uefi/UefiInternalFormRepresentation.h"
	.file 11 "/home/kapoagaeming/spacemit-image-builder/components/Build/Milk-V-Jupiter/RELEASE_GCC5/RISCV64/MdeModulePkg/Library/BootMaintenanceManagerUiLib/BootMaintenanceManagerUiLib/DEBUG/AutoGen.h"
	.file 12 "/home/kapoagaeming/spacemit-image-builder/components/edk2/MdeModulePkg/Library/BootMaintenanceManagerUiLib/FormGuid.h"
	.file 13 "/home/kapoagaeming/spacemit-image-builder/components/edk2/MdePkg/Include/Guid/FileSystemVolumeLabelInfo.h"
	.file 14 "/home/kapoagaeming/spacemit-image-builder/components/edk2/MdePkg/Include/Protocol/LoadFile.h"
	.file 15 "/home/kapoagaeming/spacemit-image-builder/components/edk2/MdePkg/Include/Protocol/FormBrowser2.h"
	.file 16 "/home/kapoagaeming/spacemit-image-builder/components/edk2/MdePkg/Include/Protocol/HiiConfigAccess.h"
	.file 17 "/home/kapoagaeming/spacemit-image-builder/components/edk2/MdePkg/Include/Protocol/SimpleFileSystem.h"
	.file 18 "/home/kapoagaeming/spacemit-image-builder/components/edk2/MdeModulePkg/Include/Protocol/FormBrowserEx.h"
	.file 19 "/home/kapoagaeming/spacemit-image-builder/components/edk2/MdeModulePkg/Include/Protocol/FormBrowserEx2.h"
	.file 20 "/home/kapoagaeming/spacemit-image-builder/components/edk2/MdePkg/Include/Library/UefiBootServicesTableLib.h"
	.file 21 "/home/kapoagaeming/spacemit-image-builder/components/edk2/MdePkg/Include/Library/UefiRuntimeServicesTableLib.h"
	.file 22 "/home/kapoagaeming/spacemit-image-builder/components/edk2/MdeModulePkg/Include/Library/UefiBootManagerLib.h"
	.file 23 "/home/kapoagaeming/spacemit-image-builder/components/edk2/MdeModulePkg/Library/BootMaintenanceManagerUiLib/BootMaintenanceManager.h"
	.file 24 "/home/kapoagaeming/spacemit-image-builder/components/edk2/MdePkg/Include/Library/BaseMemoryLib.h"
	.file 25 "/home/kapoagaeming/spacemit-image-builder/components/edk2/MdePkg/Include/Library/DevicePathLib.h"
	.file 26 "/home/kapoagaeming/spacemit-image-builder/components/edk2/MdePkg/Include/Library/BaseLib.h"
	.file 27 "/home/kapoagaeming/spacemit-image-builder/components/edk2/MdeModulePkg/Include/Library/HiiLib.h"
	.file 28 "/home/kapoagaeming/spacemit-image-builder/components/edk2/MdePkg/Include/Library/PrintLib.h"
	.file 29 "/home/kapoagaeming/spacemit-image-builder/components/edk2/MdePkg/Include/Library/UefiLib.h"
	.file 30 "/home/kapoagaeming/spacemit-image-builder/components/edk2/MdePkg/Include/Library/MemoryAllocationLib.h"
	.section	.note.GNU-stack,"",@progbits
