	.file	"ConsoleOption.c"
	.option pic
	.option norelax
	.attribute arch, "rv64i2p1_m2p0_a2p1_f2p2_d2p2_c2p0_zicsr2p0_zifencei2p0_zmmul1p0_zaamo1p0_zalrsc1p0_zca1p0_zcd1p0"
	.attribute unaligned_access, 0
	.attribute stack_align, 16
	.text
.Ltext0:
	.cfi_sections	.debug_frame
	.file 0 "/home/kapoagaeming/spacemit-image-builder/components/Build/Milk-V-Jupiter/RELEASE_GCC5/RISCV64/MdeModulePkg/Library/BootMaintenanceManagerUiLib/BootMaintenanceManagerUiLib" "/home/kapoagaeming/spacemit-image-builder/components/edk2/MdeModulePkg/Library/BootMaintenanceManagerUiLib/ConsoleOption.c"
	.section	.text.MatchDevicePaths,"ax",@progbits
	.align	1
	.globl	MatchDevicePaths
	.type	MatchDevicePaths, @function
MatchDevicePaths:
.LFB0:
	.file 1 "/home/kapoagaeming/spacemit-image-builder/components/edk2/MdeModulePkg/Library/BootMaintenanceManagerUiLib/ConsoleOption.c"
	.loc 1 29 1
	.cfi_startproc
	addi	sp,sp,-64
	.cfi_def_cfa_offset 64
	sd	ra,56(sp)
	sd	s0,48(sp)
	.cfi_offset 1, -8
	.cfi_offset 8, -16
	addi	s0,sp,64
	.cfi_def_cfa 8, 0
	sd	a0,-56(s0)
	sd	a1,-64(s0)
	.loc 1 34 6
	ld	a5,-56(s0)
	beq	a5,zero,.L2
	.loc 1 34 31 discriminator 1
	ld	a5,-64(s0)
	bne	a5,zero,.L3
.L2:
	.loc 1 35 12
	li	a5,0
	j	.L8
.L3:
	.loc 1 38 14
	ld	a5,-56(s0)
	sd	a5,-32(s0)
	.loc 1 39 20
	addi	a4,s0,-40
	addi	a5,s0,-32
	mv	a1,a4
	mv	a0,a5
	call	GetNextDevicePathInstance@plt
	sd	a0,-24(s0)
	.loc 1 44 9
	j	.L5
.L7:
	.loc 1 49 9
	ld	a5,-40(s0)
	mv	a2,a5
	ld	a1,-24(s0)
	ld	a0,-64(s0)
	call	CompareMem@plt
	mv	a5,a0
	.loc 1 49 8 discriminator 1
	bne	a5,zero,.L6
	.loc 1 50 7
	ld	a0,-24(s0)
	call	FreePool@plt
	.loc 1 51 14
	li	a5,1
	j	.L8
.L6:
	.loc 1 54 5
	ld	a0,-24(s0)
	call	FreePool@plt
	.loc 1 55 22
	addi	a4,s0,-40
	addi	a5,s0,-32
	mv	a1,a4
	mv	a0,a5
	call	GetNextDevicePathInstance@plt
	sd	a0,-24(s0)
.L5:
	.loc 1 44 25
	ld	a5,-24(s0)
	bne	a5,zero,.L7
	.loc 1 58 10
	li	a5,0
.L8:
	.loc 1 59 1
	mv	a0,a5
	ld	ra,56(sp)
	.cfi_restore 1
	ld	s0,48(sp)
	.cfi_restore 8
	.cfi_def_cfa 2, 64
	addi	sp,sp,64
	.cfi_def_cfa_offset 0
	jr	ra
	.cfi_endproc
.LFE0:
	.size	MatchDevicePaths, .-MatchDevicePaths
	.section	.text.IsIsaSerialNode,"ax",@progbits
	.align	1
	.globl	IsIsaSerialNode
	.type	IsIsaSerialNode, @function
IsIsaSerialNode:
.LFB1:
	.loc 1 74 1
	.cfi_startproc
	addi	sp,sp,-32
	.cfi_def_cfa_offset 32
	sd	ra,24(sp)
	sd	s0,16(sp)
	.cfi_offset 1, -8
	.cfi_offset 8, -16
	addi	s0,sp,32
	.cfi_def_cfa 8, 0
	sd	a0,-24(s0)
	.loc 1 76 21
	ld	a0,-24(s0)
	call	DevicePathType@plt
	mv	a5,a0
	.loc 1 77 55
	mv	a4,a5
	li	a5,2
	bne	a4,a5,.L10
	.loc 1 77 21 discriminator 1
	ld	a0,-24(s0)
	call	DevicePathSubType@plt
	mv	a5,a0
	.loc 1 76 52
	mv	a4,a5
	li	a5,1
	bne	a4,a5,.L10
	.loc 1 78 38
	ld	a5,-24(s0)
	addi	a5,a5,4
	.loc 1 78 21
	mv	a0,a5
	call	ReadUnaligned32@plt
	mv	a5,a0
	mv	a4,a5
	.loc 1 77 55 discriminator 5
	li	a5,83968000
	addi	a5,a5,464
	bne	a4,a5,.L10
	.loc 1 77 55 is_stmt 0 discriminator 4
	li	a5,1
	.loc 1 77 55
	j	.L11
.L10:
	.loc 1 77 55 discriminator 2
	li	a5,0
.L11:
	.loc 1 75 10 is_stmt 1
	andi	a5,a5,0xff
	.loc 1 80 1
	mv	a0,a5
	ld	ra,24(sp)
	.cfi_restore 1
	ld	s0,16(sp)
	.cfi_restore 8
	.cfi_def_cfa 2, 32
	addi	sp,sp,32
	.cfi_def_cfa_offset 0
	jr	ra
	.cfi_endproc
.LFE1:
	.size	IsIsaSerialNode, .-IsIsaSerialNode
	.section	.text.ChangeTerminalDevicePath,"ax",@progbits
	.align	1
	.globl	ChangeTerminalDevicePath
	.type	ChangeTerminalDevicePath, @function
ChangeTerminalDevicePath:
.LFB2:
	.loc 1 112 1
	.cfi_startproc
	addi	sp,sp,-96
	.cfi_def_cfa_offset 96
	sd	ra,88(sp)
	sd	s0,80(sp)
	.cfi_offset 1, -8
	.cfi_offset 8, -16
	addi	s0,sp,96
	.cfi_def_cfa 8, 0
	sd	a0,-88(s0)
	mv	a5,a1
	sb	a5,-89(s0)
	.loc 1 122 8
	ld	a5,-88(s0)
	sd	a5,-24(s0)
	.loc 1 123 10
	ld	a0,-24(s0)
	call	NextDevicePathNode@plt
	sd	a0,-24(s0)
	.loc 1 124 7
	sd	zero,-80(s0)
	.loc 1 125 9
	j	.L14
.L22:
	.loc 1 126 10
	ld	a5,-24(s0)
	sd	a5,-40(s0)
	.loc 1 127 9
	ld	a0,-40(s0)
	call	IsIsaSerialNode
	mv	a5,a0
	.loc 1 127 8 discriminator 1
	beq	a5,zero,.L15
	.loc 1 128 22
	ld	a5,-40(s0)
	addi	a4,a5,8
	.loc 1 128 7
	addi	a5,s0,-80
	li	a2,4
	mv	a1,a4
	mv	a0,a5
	call	CopyMem@plt
.L15:
	.loc 1 131 20
	ld	a5,-80(s0)
	mv	a1,a5
	la	a0,TerminalMenu
	call	BOpt_GetMenuEntry@plt
	sd	a0,-48(s0)
	.loc 1 133 24
	ld	a5,-48(s0)
	ld	a5,64(a5)
	sd	a5,-56(s0)
	.loc 1 134 10
	ld	a0,-24(s0)
	call	DevicePathType@plt
	mv	a5,a0
	.loc 1 134 8 discriminator 1
	mv	a4,a5
	li	a5,3
	bne	a4,a5,.L16
	.loc 1 134 45 discriminator 2
	ld	a0,-24(s0)
	call	DevicePathSubType@plt
	mv	a5,a0
	.loc 1 134 41 discriminator 3
	mv	a4,a5
	li	a5,14
	bne	a4,a5,.L16
	.loc 1 135 12
	ld	a5,-24(s0)
	sd	a5,-64(s0)
	.loc 1 137 9
	ld	a5,-64(s0)
	addi	a5,a5,8
	.loc 1 138 9
	ld	a4,-56(s0)
	.loc 1 136 7
	li	a2,8
	mv	a1,a4
	mv	a0,a5
	call	CopyMem@plt
	.loc 1 143 9
	ld	a5,-64(s0)
	addi	a4,a5,16
	.loc 1 144 9
	ld	a5,-56(s0)
	addi	a5,a5,8
	.loc 1 142 7
	li	a2,1
	mv	a1,a5
	mv	a0,a4
	call	CopyMem@plt
	.loc 1 149 9
	ld	a5,-64(s0)
	addi	a4,a5,17
	.loc 1 150 9
	ld	a5,-56(s0)
	addi	a5,a5,9
	.loc 1 148 7
	li	a2,1
	mv	a1,a5
	mv	a0,a4
	call	CopyMem@plt
	.loc 1 155 9
	ld	a5,-64(s0)
	addi	a4,a5,18
	.loc 1 156 9
	ld	a5,-56(s0)
	addi	a5,a5,10
	.loc 1 154 7
	li	a2,1
	mv	a1,a5
	mv	a0,a4
	call	CopyMem@plt
	.loc 1 162 10
	lbu	a5,-89(s0)
	andi	a5,a5,0xff
	beq	a5,zero,.L16
	.loc 1 163 15
	ld	a5,-56(s0)
	ld	a5,24(a5)
	sd	a5,-32(s0)
	.loc 1 164 17
	ld	a0,-32(s0)
	call	NextDevicePathNode@plt
	sd	a0,-32(s0)
	.loc 1 165 15
	j	.L17
.L20:
	.loc 1 166 16
	ld	a0,-32(s0)
	call	DevicePathType@plt
	mv	a5,a0
	.loc 1 166 14 discriminator 1
	mv	a4,a5
	li	a5,3
	bne	a4,a5,.L18
	.loc 1 166 52 discriminator 2
	ld	a0,-32(s0)
	call	DevicePathSubType@plt
	mv	a5,a0
	.loc 1 166 48 discriminator 3
	mv	a4,a5
	li	a5,14
	bne	a4,a5,.L18
	.loc 1 167 19
	ld	a5,-32(s0)
	sd	a5,-72(s0)
	.loc 1 169 15
	ld	a5,-72(s0)
	addi	a5,a5,8
	.loc 1 170 15
	ld	a4,-56(s0)
	.loc 1 168 13
	li	a2,8
	mv	a1,a4
	mv	a0,a5
	call	CopyMem@plt
	.loc 1 175 15
	ld	a5,-72(s0)
	addi	a4,a5,16
	.loc 1 176 15
	ld	a5,-56(s0)
	addi	a5,a5,8
	.loc 1 174 13
	li	a2,1
	mv	a1,a5
	mv	a0,a4
	call	CopyMem@plt
	.loc 1 181 15
	ld	a5,-72(s0)
	addi	a4,a5,17
	.loc 1 182 15
	ld	a5,-56(s0)
	addi	a5,a5,9
	.loc 1 180 13
	li	a2,1
	mv	a1,a5
	mv	a0,a4
	call	CopyMem@plt
	.loc 1 187 15
	ld	a5,-72(s0)
	addi	a4,a5,18
	.loc 1 188 15
	ld	a5,-56(s0)
	addi	a5,a5,10
	.loc 1 186 13
	li	a2,1
	mv	a1,a5
	mv	a0,a4
	call	CopyMem@plt
	.loc 1 191 13
	nop
	.loc 1 203 9
	j	.L21
.L18:
	.loc 1 197 19
	ld	a0,-32(s0)
	call	NextDevicePathNode@plt
	sd	a0,-32(s0)
.L17:
	.loc 1 165 17
	ld	a0,-32(s0)
	call	IsDevicePathEnd@plt
	mv	a5,a0
	.loc 1 165 16 discriminator 1
	beq	a5,zero,.L20
	.loc 1 203 9
	j	.L21
.L16:
	.loc 1 207 12
	ld	a0,-24(s0)
	call	NextDevicePathNode@plt
	sd	a0,-24(s0)
.L14:
	.loc 1 125 11
	ld	a0,-24(s0)
	call	IsDevicePathEnd@plt
	mv	a5,a0
	.loc 1 125 10 discriminator 1
	beq	a5,zero,.L22
.L21:
	.loc 1 210 10
	li	a5,0
	.loc 1 211 1
	mv	a0,a5
	ld	ra,88(sp)
	.cfi_restore 1
	ld	s0,80(sp)
	.cfi_restore 8
	.cfi_def_cfa 2, 96
	addi	sp,sp,96
	.cfi_def_cfa_offset 0
	jr	ra
	.cfi_endproc
.LFE2:
	.size	ChangeTerminalDevicePath, .-ChangeTerminalDevicePath
	.section	.text.ChangeVariableDevicePath,"ax",@progbits
	.align	1
	.globl	ChangeVariableDevicePath
	.type	ChangeVariableDevicePath, @function
ChangeVariableDevicePath:
.LFB3:
	.loc 1 225 1
	.cfi_startproc
	addi	sp,sp,-80
	.cfi_def_cfa_offset 80
	sd	ra,72(sp)
	sd	s0,64(sp)
	.cfi_offset 1, -8
	.cfi_offset 8, -16
	addi	s0,sp,80
	.cfi_def_cfa 8, 0
	sd	a0,-72(s0)
	.loc 1 233 8
	ld	a5,-72(s0)
	sd	a5,-24(s0)
	.loc 1 234 10
	ld	a0,-24(s0)
	call	NextDevicePathNode@plt
	sd	a0,-24(s0)
	.loc 1 235 7
	sd	zero,-64(s0)
	.loc 1 236 9
	j	.L25
.L28:
	.loc 1 237 10
	ld	a5,-24(s0)
	sd	a5,-32(s0)
	.loc 1 238 9
	ld	a0,-32(s0)
	call	IsIsaSerialNode
	mv	a5,a0
	.loc 1 238 8 discriminator 1
	beq	a5,zero,.L26
	.loc 1 239 22
	ld	a5,-32(s0)
	addi	a4,a5,8
	.loc 1 239 7
	addi	a5,s0,-64
	li	a2,4
	mv	a1,a4
	mv	a0,a5
	call	CopyMem@plt
.L26:
	.loc 1 242 10
	ld	a0,-24(s0)
	call	DevicePathType@plt
	mv	a5,a0
	.loc 1 242 8 discriminator 1
	mv	a4,a5
	li	a5,3
	bne	a4,a5,.L27
	.loc 1 242 45 discriminator 2
	ld	a0,-24(s0)
	call	DevicePathSubType@plt
	mv	a5,a0
	.loc 1 242 41 discriminator 3
	mv	a4,a5
	li	a5,14
	bne	a4,a5,.L27
	.loc 1 243 22
	ld	a5,-64(s0)
	mv	a1,a5
	la	a0,TerminalMenu
	call	BOpt_GetMenuEntry@plt
	sd	a0,-40(s0)
	.loc 1 248 26
	ld	a5,-40(s0)
	ld	a5,64(a5)
	sd	a5,-48(s0)
	.loc 1 249 12
	ld	a5,-24(s0)
	sd	a5,-56(s0)
	.loc 1 251 9
	ld	a5,-56(s0)
	addi	a5,a5,8
	.loc 1 252 9
	ld	a4,-48(s0)
	.loc 1 250 7
	li	a2,8
	mv	a1,a4
	mv	a0,a5
	call	CopyMem@plt
	.loc 1 257 9
	ld	a5,-56(s0)
	addi	a4,a5,16
	.loc 1 258 9
	ld	a5,-48(s0)
	addi	a5,a5,8
	.loc 1 256 7
	li	a2,1
	mv	a1,a5
	mv	a0,a4
	call	CopyMem@plt
	.loc 1 263 9
	ld	a5,-56(s0)
	addi	a4,a5,17
	.loc 1 264 9
	ld	a5,-48(s0)
	addi	a5,a5,9
	.loc 1 262 7
	li	a2,1
	mv	a1,a5
	mv	a0,a4
	call	CopyMem@plt
	.loc 1 269 9
	ld	a5,-56(s0)
	addi	a4,a5,18
	.loc 1 270 9
	ld	a5,-48(s0)
	addi	a5,a5,10
	.loc 1 268 7
	li	a2,1
	mv	a1,a5
	mv	a0,a4
	call	CopyMem@plt
.L27:
	.loc 1 275 12
	ld	a0,-24(s0)
	call	NextDevicePathNode@plt
	sd	a0,-24(s0)
.L25:
	.loc 1 236 11
	ld	a0,-24(s0)
	call	IsDevicePathEnd@plt
	mv	a5,a0
	.loc 1 236 10 discriminator 1
	beq	a5,zero,.L28
	.loc 1 277 1
	nop
	nop
	ld	ra,72(sp)
	.cfi_restore 1
	ld	s0,64(sp)
	.cfi_restore 8
	.cfi_def_cfa 2, 80
	addi	sp,sp,80
	.cfi_def_cfa_offset 0
	jr	ra
	.cfi_endproc
.LFE3:
	.size	ChangeVariableDevicePath, .-ChangeVariableDevicePath
	.section	.text.RetrieveUartUid,"ax",@progbits
	.align	1
	.globl	RetrieveUartUid
	.type	RetrieveUartUid, @function
RetrieveUartUid:
.LFB4:
	.loc 1 294 1
	.cfi_startproc
	addi	sp,sp,-64
	.cfi_def_cfa_offset 64
	sd	ra,56(sp)
	sd	s0,48(sp)
	.cfi_offset 1, -8
	.cfi_offset 8, -16
	addi	s0,sp,64
	.cfi_def_cfa 8, 0
	sd	a0,-56(s0)
	sd	a1,-64(s0)
	.loc 1 299 15
	la	a5,gBS
	ld	a5,0(a5)
	ld	a5,152(a5)
	.loc 1 299 12
	addi	a4,s0,-40
	mv	a2,a4
	la	a1,gEfiDevicePathProtocolGuid
	ld	a0,-56(s0)
	jalr	a5
.LVL0:
	sd	a0,-32(s0)
	.loc 1 304 34
	ld	a5,-32(s0)
	.loc 1 304 6
	bge	a5,zero,.L30
	.loc 1 305 12
	li	a5,0
	j	.L38
.L30:
	.loc 1 308 8
	sd	zero,-24(s0)
	.loc 1 309 3
	j	.L32
.L35:
	.loc 1 310 10
	ld	a5,-40(s0)
	mv	a0,a5
	call	DevicePathType@plt
	mv	a5,a0
	.loc 1 310 8 discriminator 1
	mv	a4,a5
	li	a5,3
	bne	a4,a5,.L33
	.loc 1 310 51 discriminator 2
	ld	a5,-40(s0)
	mv	a0,a5
	call	DevicePathSubType@plt
	mv	a5,a0
	.loc 1 310 47 discriminator 3
	mv	a4,a5
	li	a5,14
	beq	a4,a5,.L39
.L33:
	.loc 1 317 10
	ld	a5,-40(s0)
	sd	a5,-24(s0)
	.loc 1 309 55
	ld	a5,-40(s0)
	mv	a0,a5
	call	NextDevicePathNode@plt
	mv	a5,a0
	.loc 1 309 53 discriminator 1
	sd	a5,-40(s0)
.L32:
	.loc 1 309 12 discriminator 2
	ld	a5,-40(s0)
	mv	a0,a5
	call	IsDevicePathEnd@plt
	mv	a5,a0
	.loc 1 309 11 discriminator 3
	beq	a5,zero,.L35
	j	.L34
.L39:
	.loc 1 311 7
	nop
.L34:
	.loc 1 320 6
	ld	a5,-24(s0)
	beq	a5,zero,.L36
	.loc 1 320 33 discriminator 1
	ld	a0,-24(s0)
	call	IsIsaSerialNode
	mv	a5,a0
	.loc 1 320 30 discriminator 2
	beq	a5,zero,.L36
	.loc 1 321 8
	ld	a5,-64(s0)
	beq	a5,zero,.L37
	.loc 1 322 25
	ld	a5,-24(s0)
	addi	a5,a5,8
	.loc 1 322 7
	li	a2,4
	mv	a1,a5
	ld	a0,-64(s0)
	call	CopyMem@plt
.L37:
	.loc 1 325 12
	li	a5,1
	j	.L38
.L36:
	.loc 1 327 12
	li	a5,0
.L38:
	.loc 1 329 1
	mv	a0,a5
	ld	ra,56(sp)
	.cfi_restore 1
	ld	s0,48(sp)
	.cfi_restore 8
	.cfi_def_cfa 2, 64
	addi	sp,sp,64
	.cfi_def_cfa_offset 0
	jr	ra
	.cfi_endproc
.LFE4:
	.size	RetrieveUartUid, .-RetrieveUartUid
	.section	.text.SortedUartHandle,"ax",@progbits
	.align	1
	.globl	SortedUartHandle
	.type	SortedUartHandle, @function
SortedUartHandle:
.LFB5:
	.loc 1 342 1
	.cfi_startproc
	addi	sp,sp,-80
	.cfi_def_cfa_offset 80
	sd	ra,72(sp)
	sd	s0,64(sp)
	.cfi_offset 1, -8
	.cfi_offset 8, -16
	addi	s0,sp,80
	.cfi_def_cfa 8, 0
	sd	a0,-72(s0)
	sd	a1,-80(s0)
	.loc 1 351 15
	sd	zero,-24(s0)
	.loc 1 351 3
	j	.L41
.L48:
	.loc 1 352 34
	ld	a5,-24(s0)
	slli	a5,a5,3
	ld	a4,-72(s0)
	add	a5,a4,a5
	.loc 1 352 10
	ld	a5,0(a5)
	addi	a4,s0,-60
	mv	a1,a4
	mv	a0,a5
	call	RetrieveUartUid
	mv	a5,a0
	.loc 1 352 8 discriminator 1
	beq	a5,zero,.L49
	.loc 1 356 25
	ld	a5,-24(s0)
	slli	a5,a5,3
	ld	a4,-72(s0)
	add	a5,a4,a5
	.loc 1 356 16
	ld	a5,0(a5)
	sd	a5,-56(s0)
	.loc 1 357 14
	ld	a5,-24(s0)
	sd	a5,-40(s0)
	.loc 1 358 17
	lw	a5,-60(s0)
	sw	a5,-44(s0)
	.loc 1 360 17
	ld	a5,-24(s0)
	addi	a5,a5,1
	sd	a5,-32(s0)
	.loc 1 360 5
	j	.L44
.L47:
	.loc 1 361 36
	ld	a5,-32(s0)
	slli	a5,a5,3
	ld	a4,-72(s0)
	add	a5,a4,a5
	.loc 1 361 12
	ld	a5,0(a5)
	addi	a4,s0,-64
	mv	a1,a4
	mv	a0,a5
	call	RetrieveUartUid
	mv	a5,a0
	.loc 1 361 10 discriminator 1
	beq	a5,zero,.L50
	.loc 1 365 20
	lw	a5,-64(s0)
	.loc 1 365 10
	lw	a4,-44(s0)
	sext.w	a4,a4
	bleu	a4,a5,.L46
	.loc 1 366 21
	lw	a5,-64(s0)
	sw	a5,-44(s0)
	.loc 1 367 29
	ld	a5,-32(s0)
	slli	a5,a5,3
	ld	a4,-72(s0)
	add	a5,a4,a5
	.loc 1 367 20
	ld	a5,0(a5)
	sd	a5,-56(s0)
	.loc 1 368 18
	ld	a5,-32(s0)
	sd	a5,-40(s0)
	j	.L46
.L50:
	.loc 1 362 9
	nop
.L46:
	.loc 1 360 55 discriminator 2
	ld	a5,-32(s0)
	addi	a5,a5,1
	sd	a5,-32(s0)
.L44:
	.loc 1 360 36 discriminator 1
	ld	a4,-32(s0)
	ld	a5,-80(s0)
	bltu	a4,a5,.L47
	.loc 1 372 32
	ld	a5,-24(s0)
	slli	a5,a5,3
	ld	a4,-72(s0)
	add	a4,a4,a5
	.loc 1 372 12
	ld	a5,-40(s0)
	slli	a5,a5,3
	ld	a3,-72(s0)
	add	a5,a3,a5
	.loc 1 372 32
	ld	a4,0(a4)
	.loc 1 372 23
	sd	a4,0(a5)
	.loc 1 373 12
	ld	a5,-24(s0)
	slli	a5,a5,3
	ld	a4,-72(s0)
	add	a5,a4,a5
	.loc 1 373 21
	ld	a4,-56(s0)
	sd	a4,0(a5)
	j	.L43
.L49:
	.loc 1 353 7
	nop
.L43:
	.loc 1 351 48 discriminator 2
	ld	a5,-24(s0)
	addi	a5,a5,1
	sd	a5,-24(s0)
.L41:
	.loc 1 351 38 discriminator 1
	ld	a5,-80(s0)
	addi	a5,a5,-1
	.loc 1 351 27 discriminator 1
	ld	a4,-24(s0)
	bltu	a4,a5,.L48
	.loc 1 375 1
	nop
	nop
	ld	ra,72(sp)
	.cfi_restore 1
	ld	s0,64(sp)
	.cfi_restore 8
	.cfi_def_cfa 2, 80
	addi	sp,sp,80
	.cfi_def_cfa_offset 0
	jr	ra
	.cfi_endproc
.LFE5:
	.size	SortedUartHandle, .-SortedUartHandle
	.section	.rodata
	.align	3
.LC0:
	.string	"C"
	.string	"o"
	.string	"n"
	.string	"O"
	.string	"u"
	.string	"t"
	.zero	2
	.align	3
.LC1:
	.string	"C"
	.string	"o"
	.string	"n"
	.string	"I"
	.string	"n"
	.zero	2
	.align	3
.LC2:
	.string	"E"
	.string	"r"
	.string	"r"
	.string	"O"
	.string	"u"
	.string	"t"
	.zero	2
	.section	.text.LocateSerialIo,"ax",@progbits
	.align	1
	.globl	LocateSerialIo
	.type	LocateSerialIo, @function
LocateSerialIo:
.LFB6:
	.loc 1 408 1
	.cfi_startproc
	addi	sp,sp,-160
	.cfi_def_cfa_offset 160
	sd	ra,152(sp)
	sd	s0,144(sp)
	.cfi_offset 1, -8
	.cfi_offset 8, -16
	addi	s0,sp,160
	.cfi_def_cfa 8, 0
	.loc 1 429 3
	la	a5,TerminalMenu
	addi	a0,a5,8
	call	InitializeListHead@plt
	.loc 1 430 27
	la	a5,TerminalMenu
	sd	zero,24(a5)
	.loc 1 431 15
	la	a5,gBS
	ld	a5,0(a5)
	ld	a5,312(a5)
	.loc 1 431 12
	addi	a4,s0,-96
	addi	a3,s0,-88
	li	a2,0
	la	a1,gEfiSerialIoProtocolGuid
	li	a0,2
	jalr	a5
.LVL1:
	sd	a0,-56(s0)
	.loc 1 438 34
	ld	a5,-56(s0)
	.loc 1 438 6
	bge	a5,zero,.L52
	.loc 1 442 12
	li	a5,-1
	slli	a5,a5,63
	addi	a5,a5,3
	j	.L76
.L52:
	.loc 1 449 3
	ld	a5,-96(s0)
	ld	a4,-88(s0)
	mv	a1,a4
	mv	a0,a5
	call	SortedUartHandle
	.loc 1 451 14
	sd	zero,-24(s0)
	.loc 1 451 3
	j	.L54
.L62:
	.loc 1 455 8
	la	a5,gBS
	ld	a5,0(a5)
	ld	a5,152(a5)
	.loc 1 456 19
	ld	a3,-96(s0)
	ld	a4,-24(s0)
	slli	a4,a4,3
	add	a4,a3,a4
	.loc 1 455 5
	ld	a4,0(a4)
	addi	a3,s0,-104
	mv	a2,a3
	la	a1,gEfiDevicePathProtocolGuid
	mv	a0,a4
	jalr	a5
.LVL2:
	.loc 1 461 10
	sd	zero,-40(s0)
	.loc 1 462 15
	ld	a5,-104(s0)
	sd	a5,-48(s0)
	.loc 1 462 5
	j	.L55
.L58:
	.loc 1 463 12
	ld	a0,-48(s0)
	call	DevicePathType@plt
	mv	a5,a0
	.loc 1 463 10 discriminator 1
	mv	a4,a5
	li	a5,3
	bne	a4,a5,.L56
	.loc 1 463 47 discriminator 2
	ld	a0,-48(s0)
	call	DevicePathSubType@plt
	mv	a5,a0
	.loc 1 463 43 discriminator 3
	mv	a4,a5
	li	a5,14
	beq	a4,a5,.L77
.L56:
	.loc 1 470 12
	ld	a5,-48(s0)
	sd	a5,-40(s0)
	.loc 1 462 61 discriminator 3
	ld	a0,-48(s0)
	call	NextDevicePathNode@plt
	sd	a0,-48(s0)
.L55:
	.loc 1 462 30 discriminator 1
	ld	a0,-48(s0)
	call	IsDevicePathEnd@plt
	mv	a5,a0
	.loc 1 462 29 discriminator 4
	beq	a5,zero,.L58
	j	.L57
.L77:
	.loc 1 464 9
	nop
.L57:
	.loc 1 473 8
	ld	a5,-40(s0)
	beq	a5,zero,.L59
	.loc 1 473 35 discriminator 1
	ld	a0,-40(s0)
	call	IsIsaSerialNode
	mv	a5,a0
	.loc 1 473 32 discriminator 2
	beq	a5,zero,.L59
	.loc 1 474 22
	li	a0,5
	call	BOpt_CreateMenuEntry@plt
	sd	a0,-64(s0)
	.loc 1 475 10
	ld	a5,-64(s0)
	bne	a5,zero,.L60
	.loc 1 476 9
	ld	a5,-96(s0)
	mv	a0,a5
	call	FreePool@plt
	.loc 1 477 16
	li	a5,-1
	slli	a5,a5,63
	addi	a5,a5,9
	j	.L76
.L60:
	.loc 1 480 26
	ld	a5,-64(s0)
	ld	a5,64(a5)
	sd	a5,-72(s0)
	.loc 1 481 16
	ld	a5,-64(s0)
	addi	a4,a5,24
	.loc 1 481 45
	ld	a5,-40(s0)
	addi	a5,a5,8
	.loc 1 481 7
	li	a2,4
	mv	a1,a5
	mv	a0,a4
	call	CopyMem@plt
	.loc 1 482 40
	ld	a5,-104(s0)
	mv	a0,a5
	call	DuplicateDevicePath@plt
	mv	a4,a0
	.loc 1 482 38 discriminator 1
	ld	a5,-72(s0)
	sd	a4,24(a5)
	.loc 1 489 37
	ld	a5,-104(s0)
	mv	a0,a5
	call	EfiLibStrFromDatahub@plt
	mv	a4,a0
	.loc 1 489 35 discriminator 1
	ld	a5,-64(s0)
	sd	a4,32(a5)
	.loc 1 490 39
	ld	a5,-64(s0)
	ld	a5,32(a5)
	.loc 1 490 10
	bne	a5,zero,.L61
	.loc 1 491 39
	ld	a5,-104(s0)
	mv	a0,a5
	call	UiDevicePathToStr@plt
	mv	a4,a0
	.loc 1 491 37 discriminator 1
	ld	a5,-64(s0)
	sd	a4,32(a5)
.L61:
	.loc 1 494 32
	ld	a5,-64(s0)
	sd	zero,40(a5)
	.loc 1 496 72
	la	a5,mBmmCallbackInfo
	ld	a5,0(a5)
	.loc 1 496 42
	ld	a4,8(a5)
	.loc 1 496 103
	ld	a5,-64(s0)
	ld	a5,32(a5)
	.loc 1 496 42
	li	a3,0
	mv	a2,a5
	li	a1,0
	mv	a0,a4
	call	HiiSetString@plt
	mv	a5,a0
	mv	a4,a5
	.loc 1 496 40 discriminator 1
	ld	a5,-64(s0)
	sh	a4,48(a5)
	.loc 1 498 51
	ld	a5,-64(s0)
	lhu	a4,48(a5)
	.loc 1 498 37
	ld	a5,-64(s0)
	sh	a4,50(a5)
	.loc 1 500 10
	la	a5,gBS
	ld	a5,0(a5)
	ld	a5,152(a5)
	.loc 1 501 21
	ld	a3,-96(s0)
	ld	a4,-24(s0)
	slli	a4,a4,3
	add	a4,a3,a4
	.loc 1 500 7
	ld	a4,0(a4)
	addi	a3,s0,-112
	mv	a2,a3
	la	a1,gEfiSerialIoProtocolGuid
	mv	a0,a4
	jalr	a5
.LVL3:
	.loc 1 507 9
	ld	a4,-72(s0)
	.loc 1 508 18
	ld	a5,-112(s0)
	ld	a5,56(a5)
	.loc 1 508 9
	addi	a5,a5,8
	.loc 1 506 7
	li	a2,8
	mv	a1,a5
	mv	a0,a4
	call	CopyMem@plt
	.loc 1 513 9
	ld	a5,-72(s0)
	addi	a4,a5,8
	.loc 1 514 18
	ld	a5,-112(s0)
	ld	a5,56(a5)
	.loc 1 514 9
	addi	a5,a5,20
	.loc 1 512 7
	li	a2,1
	mv	a1,a5
	mv	a0,a4
	call	CopyMem@plt
	.loc 1 519 9
	ld	a5,-72(s0)
	addi	a4,a5,9
	.loc 1 520 18
	ld	a5,-112(s0)
	ld	a5,56(a5)
	.loc 1 520 9
	addi	a5,a5,24
	.loc 1 518 7
	li	a2,1
	mv	a1,a5
	mv	a0,a4
	call	CopyMem@plt
	.loc 1 525 9
	ld	a5,-72(s0)
	addi	a4,a5,10
	.loc 1 526 18
	ld	a5,-112(s0)
	ld	a5,56(a5)
	.loc 1 526 9
	addi	a5,a5,28
	.loc 1 524 7
	li	a2,1
	mv	a1,a5
	mv	a0,a4
	call	CopyMem@plt
	.loc 1 529 7
	ld	a5,-64(s0)
	addi	a5,a5,8
	mv	a1,a5
	la	a5,TerminalMenu
	addi	a0,a5,8
	call	InsertTailList@plt
	.loc 1 530 19
	la	a5,TerminalMenu
	ld	a5,24(a5)
	.loc 1 530 30
	addi	a4,a5,1
	la	a5,TerminalMenu
	sd	a4,24(a5)
.L59:
	.loc 1 451 43 discriminator 2
	ld	a5,-24(s0)
	addi	a5,a5,1
	sd	a5,-24(s0)
.L54:
	.loc 1 451 25 discriminator 1
	ld	a5,-88(s0)
	ld	a4,-24(s0)
	bltu	a4,a5,.L62
	.loc 1 534 15
	ld	a5,-96(s0)
	.loc 1 534 6
	beq	a5,zero,.L63
	.loc 1 535 5
	ld	a5,-96(s0)
	mv	a0,a5
	call	FreePool@plt
.L63:
	.loc 1 541 3
	addi	a5,s0,-120
	li	a2,0
	mv	a1,a5
	lla	a0,.LC0
	call	GetEfiGlobalVariable2@plt
	.loc 1 542 3
	addi	a5,s0,-128
	li	a2,0
	mv	a1,a5
	lla	a0,.LC1
	call	GetEfiGlobalVariable2@plt
	.loc 1 543 3
	addi	a5,s0,-136
	li	a2,0
	mv	a1,a5
	lla	a0,.LC2
	call	GetEfiGlobalVariable2@plt
	.loc 1 544 21
	ld	a5,-120(s0)
	.loc 1 544 6
	beq	a5,zero,.L64
	.loc 1 545 5
	ld	a5,-120(s0)
	mv	a0,a5
	call	UpdateComAttributeFromVariable
.L64:
	.loc 1 548 21
	ld	a5,-128(s0)
	.loc 1 548 6
	beq	a5,zero,.L65
	.loc 1 549 5
	ld	a5,-128(s0)
	mv	a0,a5
	call	UpdateComAttributeFromVariable
.L65:
	.loc 1 552 21
	ld	a5,-136(s0)
	.loc 1 552 6
	beq	a5,zero,.L66
	.loc 1 553 5
	ld	a5,-136(s0)
	mv	a0,a5
	call	UpdateComAttributeFromVariable
.L66:
	.loc 1 556 14
	sd	zero,-24(s0)
	.loc 1 556 3
	j	.L67
.L75:
	.loc 1 557 20
	ld	a1,-24(s0)
	la	a0,TerminalMenu
	call	BOpt_GetMenuEntry@plt
	sd	a0,-64(s0)
	.loc 1 558 8
	ld	a5,-64(s0)
	bne	a5,zero,.L68
	.loc 1 559 14
	li	a5,-1
	slli	a5,a5,63
	addi	a5,a5,14
	j	.L76
.L68:
	.loc 1 562 24
	ld	a5,-64(s0)
	ld	a5,64(a5)
	sd	a5,-72(s0)
	.loc 1 564 38
	ld	a5,-72(s0)
	sb	zero,19(a5)
	.loc 1 565 33
	ld	a5,-72(s0)
	sb	zero,16(a5)
	.loc 1 566 34
	ld	a5,-72(s0)
	sb	zero,17(a5)
	.loc 1 567 34
	ld	a5,-72(s0)
	sb	zero,18(a5)
	.loc 1 569 24
	li	a5,3
	sb	a5,-160(s0)
	.loc 1 570 27
	li	a5,10
	sb	a5,-159(s0)
	.loc 1 572 17
	sd	zero,-32(s0)
	.loc 1 572 5
	j	.L69
.L74:
	.loc 1 573 30
	ld	a5,-32(s0)
	slli	a4,a5,4
	la	a5,TerminalTypeGuid
	add	a4,a4,a5
	.loc 1 573 7
	addi	a5,s0,-160
	addi	a5,a5,4
	li	a2,16
	mv	a1,a4
	mv	a0,a5
	call	CopyMem@plt
	.loc 1 574 7
	addi	a5,s0,-160
	li	a1,20
	mv	a0,a5
	call	SetDevicePathNodeLength@plt
	.loc 1 576 43
	ld	a5,-72(s0)
	ld	a5,24(a5)
	.loc 1 575 23
	addi	a4,s0,-160
	mv	a1,a4
	mv	a0,a5
	call	AppendDevicePathNode@plt
	sd	a0,-80(s0)
	.loc 1 579 23
	ld	a5,-64(s0)
	ld	a5,40(a5)
	.loc 1 579 10
	beq	a5,zero,.L70
	.loc 1 580 31
	ld	a5,-64(s0)
	ld	a5,40(a5)
	.loc 1 580 9
	mv	a0,a5
	call	FreePool@plt
.L70:
	.loc 1 587 32
	ld	a5,-64(s0)
	sd	zero,40(a5)
	.loc 1 589 72
	la	a5,mBmmCallbackInfo
	ld	a5,0(a5)
	.loc 1 589 42
	ld	a4,8(a5)
	.loc 1 589 103
	ld	a5,-64(s0)
	ld	a5,32(a5)
	.loc 1 589 42
	li	a3,0
	mv	a2,a5
	li	a1,0
	mv	a0,a4
	call	HiiSetString@plt
	mv	a5,a0
	mv	a4,a5
	.loc 1 589 40 discriminator 1
	ld	a5,-64(s0)
	sh	a4,48(a5)
	.loc 1 591 51
	ld	a5,-64(s0)
	lhu	a4,48(a5)
	.loc 1 591 37
	ld	a5,-64(s0)
	sh	a4,50(a5)
	.loc 1 593 11
	ld	a5,-120(s0)
	ld	a1,-80(s0)
	mv	a0,a5
	call	MatchDevicePaths
	mv	a5,a0
	.loc 1 593 10 discriminator 1
	beq	a5,zero,.L71
	.loc 1 594 38
	ld	a5,-72(s0)
	li	a4,1
	sb	a4,17(a5)
	.loc 1 595 44
	ld	a5,-32(s0)
	andi	a4,a5,0xff
	.loc 1 595 42
	ld	a5,-72(s0)
	sb	a4,19(a5)
.L71:
	.loc 1 598 11
	ld	a5,-128(s0)
	ld	a1,-80(s0)
	mv	a0,a5
	call	MatchDevicePaths
	mv	a5,a0
	.loc 1 598 10 discriminator 1
	beq	a5,zero,.L72
	.loc 1 599 37
	ld	a5,-72(s0)
	li	a4,1
	sb	a4,16(a5)
	.loc 1 600 44
	ld	a5,-32(s0)
	andi	a4,a5,0xff
	.loc 1 600 42
	ld	a5,-72(s0)
	sb	a4,19(a5)
.L72:
	.loc 1 603 11
	ld	a5,-136(s0)
	ld	a1,-80(s0)
	mv	a0,a5
	call	MatchDevicePaths
	mv	a5,a0
	.loc 1 603 10 discriminator 1
	beq	a5,zero,.L73
	.loc 1 604 38
	ld	a5,-72(s0)
	li	a4,1
	sb	a4,18(a5)
	.loc 1 605 44
	ld	a5,-32(s0)
	andi	a4,a5,0xff
	.loc 1 605 42
	ld	a5,-72(s0)
	sb	a4,19(a5)
.L73:
	.loc 1 572 101 discriminator 2
	ld	a5,-32(s0)
	addi	a5,a5,1
	sd	a5,-32(s0)
.L69:
	.loc 1 572 29 discriminator 1
	ld	a4,-32(s0)
	li	a5,8
	bleu	a4,a5,.L74
	.loc 1 556 57 discriminator 2
	ld	a5,-24(s0)
	addi	a5,a5,1
	sd	a5,-24(s0)
.L67:
	.loc 1 556 39 discriminator 1
	la	a5,TerminalMenu
	ld	a5,24(a5)
	.loc 1 556 25 discriminator 1
	ld	a4,-24(s0)
	bltu	a4,a5,.L75
	.loc 1 610 10
	li	a5,0
.L76:
	.loc 1 611 1
	mv	a0,a5
	ld	ra,152(sp)
	.cfi_restore 1
	ld	s0,144(sp)
	.cfi_restore 8
	.cfi_def_cfa 2, 160
	addi	sp,sp,160
	.cfi_def_cfa_offset 0
	jr	ra
	.cfi_endproc
.LFE6:
	.size	LocateSerialIo, .-LocateSerialIo
	.section	.text.UpdateComAttributeFromVariable,"ax",@progbits
	.align	1
	.globl	UpdateComAttributeFromVariable
	.type	UpdateComAttributeFromVariable, @function
UpdateComAttributeFromVariable:
.LFB7:
	.loc 1 625 1
	.cfi_startproc
	addi	sp,sp,-112
	.cfi_def_cfa_offset 112
	sd	ra,104(sp)
	sd	s0,96(sp)
	.cfi_offset 1, -8
	.cfi_offset 8, -16
	addi	s0,sp,112
	.cfi_def_cfa 8, 0
	sd	a0,-104(s0)
	.loc 1 636 8
	ld	a5,-104(s0)
	sd	a5,-24(s0)
	.loc 1 637 10
	ld	a0,-24(s0)
	call	NextDevicePathNode@plt
	sd	a0,-24(s0)
	.loc 1 638 18
	sd	zero,-88(s0)
	.loc 1 639 14
	sd	zero,-40(s0)
	.loc 1 639 3
	j	.L79
.L88:
	.loc 1 641 12
	ld	a5,-24(s0)
	sd	a5,-48(s0)
	.loc 1 642 11
	ld	a0,-48(s0)
	call	IsIsaSerialNode
	mv	a5,a0
	.loc 1 642 10 discriminator 1
	beq	a5,zero,.L81
	.loc 1 643 35
	ld	a5,-48(s0)
	addi	a4,a5,8
	.loc 1 643 9
	addi	a5,s0,-88
	li	a2,4
	mv	a1,a4
	mv	a0,a5
	call	CopyMem@plt
.L81:
	.loc 1 646 12
	ld	a0,-24(s0)
	call	DevicePathType@plt
	mv	a5,a0
	.loc 1 646 10 discriminator 1
	mv	a4,a5
	li	a5,3
	bne	a4,a5,.L82
	.loc 1 646 47 discriminator 2
	ld	a0,-24(s0)
	call	DevicePathSubType@plt
	mv	a5,a0
	.loc 1 646 43 discriminator 3
	mv	a4,a5
	li	a5,14
	bne	a4,a5,.L82
	.loc 1 647 14
	ld	a5,-24(s0)
	sd	a5,-56(s0)
	.loc 1 648 24
	ld	a5,-88(s0)
	mv	a1,a5
	la	a0,TerminalMenu
	call	BOpt_GetMenuEntry@plt
	sd	a0,-64(s0)
	.loc 1 649 12
	ld	a5,-64(s0)
	bne	a5,zero,.L83
	.loc 1 650 18
	li	a5,-1
	slli	a5,a5,63
	addi	a5,a5,14
	j	.L90
.L83:
	.loc 1 653 28
	ld	a5,-64(s0)
	ld	a5,64(a5)
	sd	a5,-72(s0)
	.loc 1 655 11
	ld	a4,-72(s0)
	.loc 1 656 11
	ld	a5,-56(s0)
	addi	a5,a5,8
	.loc 1 654 9
	li	a2,8
	mv	a1,a5
	mv	a0,a4
	call	CopyMem@plt
	.loc 1 661 11
	ld	a5,-72(s0)
	addi	a4,a5,8
	.loc 1 662 11
	ld	a5,-56(s0)
	addi	a5,a5,16
	.loc 1 660 9
	li	a2,1
	mv	a1,a5
	mv	a0,a4
	call	CopyMem@plt
	.loc 1 667 11
	ld	a5,-72(s0)
	addi	a4,a5,9
	.loc 1 668 11
	ld	a5,-56(s0)
	addi	a5,a5,17
	.loc 1 666 9
	li	a2,1
	mv	a1,a5
	mv	a0,a4
	call	CopyMem@plt
	.loc 1 673 11
	ld	a5,-72(s0)
	addi	a4,a5,10
	.loc 1 674 11
	ld	a5,-56(s0)
	addi	a5,a5,18
	.loc 1 672 9
	li	a2,1
	mv	a1,a5
	mv	a0,a4
	call	CopyMem@plt
	.loc 1 678 20
	ld	a5,-72(s0)
	ld	a5,24(a5)
	sd	a5,-32(s0)
	.loc 1 679 22
	ld	a0,-32(s0)
	call	NextDevicePathNode@plt
	sd	a0,-32(s0)
	.loc 1 680 15
	j	.L85
.L87:
	.loc 1 681 16
	ld	a0,-32(s0)
	call	DevicePathType@plt
	mv	a5,a0
	.loc 1 681 14 discriminator 1
	mv	a4,a5
	li	a5,3
	bne	a4,a5,.L86
	.loc 1 681 57 discriminator 2
	ld	a0,-32(s0)
	call	DevicePathSubType@plt
	mv	a5,a0
	.loc 1 681 53 discriminator 3
	mv	a4,a5
	li	a5,14
	bne	a4,a5,.L86
	.loc 1 686 19
	ld	a5,-32(s0)
	sd	a5,-80(s0)
	.loc 1 688 15
	ld	a5,-80(s0)
	addi	a5,a5,8
	.loc 1 689 15
	ld	a4,-72(s0)
	.loc 1 687 13
	li	a2,8
	mv	a1,a4
	mv	a0,a5
	call	CopyMem@plt
	.loc 1 694 15
	ld	a5,-80(s0)
	addi	a4,a5,16
	.loc 1 695 15
	ld	a5,-72(s0)
	addi	a5,a5,8
	.loc 1 693 13
	li	a2,1
	mv	a1,a5
	mv	a0,a4
	call	CopyMem@plt
	.loc 1 699 15
	ld	a5,-80(s0)
	addi	a4,a5,17
	.loc 1 700 15
	ld	a5,-72(s0)
	addi	a5,a5,9
	.loc 1 698 13
	li	a2,1
	mv	a1,a5
	mv	a0,a4
	call	CopyMem@plt
	.loc 1 704 15
	ld	a5,-80(s0)
	addi	a4,a5,18
	.loc 1 705 15
	ld	a5,-72(s0)
	addi	a5,a5,10
	.loc 1 703 13
	li	a2,1
	mv	a1,a5
	mv	a0,a4
	call	CopyMem@plt
	.loc 1 709 13
	j	.L82
.L86:
	.loc 1 712 24
	ld	a0,-32(s0)
	call	NextDevicePathNode@plt
	sd	a0,-32(s0)
.L85:
	.loc 1 680 17
	ld	a0,-32(s0)
	call	IsDevicePathEnd@plt
	mv	a5,a0
	.loc 1 680 16 discriminator 1
	beq	a5,zero,.L87
.L82:
	.loc 1 720 14
	ld	a0,-24(s0)
	call	NextDevicePathNode@plt
	sd	a0,-24(s0)
.L80:
	.loc 1 640 13
	ld	a0,-24(s0)
	call	IsDevicePathEnd@plt
	mv	a5,a0
	.loc 1 640 12 discriminator 1
	beq	a5,zero,.L88
	.loc 1 639 57 discriminator 2
	ld	a5,-40(s0)
	addi	a5,a5,1
	sd	a5,-40(s0)
.L79:
	.loc 1 639 39 discriminator 1
	la	a5,TerminalMenu
	ld	a5,24(a5)
	.loc 1 639 25 discriminator 1
	ld	a4,-40(s0)
	bltu	a4,a5,.L80
	.loc 1 728 10
	li	a5,0
.L90:
	.loc 1 729 1
	mv	a0,a5
	ld	ra,104(sp)
	.cfi_restore 1
	ld	s0,96(sp)
	.cfi_restore 8
	.cfi_def_cfa 2, 112
	addi	sp,sp,112
	.cfi_def_cfa_offset 0
	jr	ra
	.cfi_endproc
.LFE7:
	.size	UpdateComAttributeFromVariable, .-UpdateComAttributeFromVariable
	.section	.rodata
	.align	3
.LC3:
	.string	"C"
	.string	"o"
	.string	"n"
	.string	"I"
	.string	"n"
	.string	"D"
	.string	"e"
	.string	"v"
	.zero	2
	.align	3
.LC4:
	.string	"C"
	.string	"o"
	.string	"n"
	.string	"O"
	.string	"u"
	.string	"t"
	.string	"D"
	.string	"e"
	.string	"v"
	.zero	2
	.align	3
.LC5:
	.string	"E"
	.string	"r"
	.string	"r"
	.string	"O"
	.string	"u"
	.string	"t"
	.string	"D"
	.string	"e"
	.string	"v"
	.zero	2
	.section	.text.GetConsoleMenu,"ax",@progbits
	.align	1
	.globl	GetConsoleMenu
	.type	GetConsoleMenu, @function
GetConsoleMenu:
.LFB8:
	.loc 1 750 1
	.cfi_startproc
	addi	sp,sp,-144
	.cfi_def_cfa_offset 144
	sd	ra,136(sp)
	sd	s0,128(sp)
	.cfi_offset 1, -8
	.cfi_offset 8, -16
	addi	s0,sp,144
	.cfi_def_cfa 8, 0
	sd	a0,-136(s0)
	.loc 1 765 14
	sd	zero,-80(s0)
	.loc 1 766 17
	sd	zero,-88(s0)
	.loc 1 767 12
	sd	zero,-48(s0)
	.loc 1 768 3
	ld	a4,-136(s0)
	li	a5,8
	beq	a4,a5,.L92
	ld	a4,-136(s0)
	li	a5,8
	bgtu	a4,a5,.L93
	ld	a4,-136(s0)
	li	a5,6
	beq	a4,a5,.L94
	ld	a4,-136(s0)
	li	a5,7
	beq	a4,a5,.L95
	j	.L93
.L94:
	.loc 1 770 19
	la	a5,ConsoleInpMenu
	sd	a5,-40(s0)
	.loc 1 771 7
	addi	a5,s0,-80
	li	a2,0
	mv	a1,a5
	lla	a0,.LC1
	call	GetEfiGlobalVariable2@plt
	.loc 1 772 7
	addi	a5,s0,-88
	li	a2,0
	mv	a1,a5
	lla	a0,.LC3
	call	GetEfiGlobalVariable2@plt
	.loc 1 773 7
	j	.L96
.L95:
	.loc 1 776 19
	la	a5,ConsoleOutMenu
	sd	a5,-40(s0)
	.loc 1 777 7
	addi	a5,s0,-80
	li	a2,0
	mv	a1,a5
	lla	a0,.LC0
	call	GetEfiGlobalVariable2@plt
	.loc 1 778 7
	addi	a5,s0,-88
	li	a2,0
	mv	a1,a5
	lla	a0,.LC4
	call	GetEfiGlobalVariable2@plt
	.loc 1 779 7
	j	.L96
.L92:
	.loc 1 782 19
	la	a5,ConsoleErrMenu
	sd	a5,-40(s0)
	.loc 1 783 7
	addi	a5,s0,-80
	li	a2,0
	mv	a1,a5
	lla	a0,.LC2
	call	GetEfiGlobalVariable2@plt
	.loc 1 784 7
	addi	a5,s0,-88
	li	a2,0
	mv	a1,a5
	lla	a0,.LC5
	call	GetEfiGlobalVariable2@plt
	.loc 1 785 7
	j	.L96
.L93:
	.loc 1 788 14
	li	a5,-1
	slli	a5,a5,63
	addi	a5,a5,3
	j	.L107
.L96:
	.loc 1 791 20
	ld	a5,-88(s0)
	.loc 1 791 6
	bne	a5,zero,.L98
	.loc 1 792 12
	li	a5,-1
	slli	a5,a5,63
	addi	a5,a5,14
	j	.L107
.L98:
	.loc 1 795 3
	ld	a5,-40(s0)
	addi	a5,a5,8
	mv	a0,a5
	call	InitializeListHead@plt
	.loc 1 797 14
	ld	a5,-88(s0)
	mv	a0,a5
	call	EfiDevicePathInstanceCount@plt
	sd	a0,-48(s0)
	.loc 1 798 27
	ld	a5,-40(s0)
	sd	zero,24(a5)
	.loc 1 802 19
	ld	a5,-88(s0)
	sd	a5,-96(s0)
	.loc 1 803 10
	sd	zero,-32(s0)
	.loc 1 804 14
	sd	zero,-24(s0)
	.loc 1 804 3
	j	.L99
.L106:
	.loc 1 805 22
	addi	a4,s0,-104
	addi	a5,s0,-96
	mv	a1,a4
	mv	a0,a5
	call	GetNextDevicePathInstance@plt
	sd	a0,-56(s0)
	.loc 1 807 20
	li	a0,1
	call	BOpt_CreateMenuEntry@plt
	sd	a0,-64(s0)
	.loc 1 808 8
	ld	a5,-64(s0)
	bne	a5,zero,.L100
	.loc 1 809 14
	li	a5,-1
	slli	a5,a5,63
	addi	a5,a5,9
	j	.L107
.L100:
	.loc 1 812 23
	ld	a5,-64(s0)
	ld	a5,64(a5)
	sd	a5,-72(s0)
	.loc 1 813 32
	ld	a5,-64(s0)
	ld	a4,-32(s0)
	sd	a4,24(a5)
	.loc 1 815 37
	ld	a0,-56(s0)
	call	DuplicateDevicePath@plt
	mv	a4,a0
	.loc 1 815 35 discriminator 1
	ld	a5,-72(s0)
	sd	a4,8(a5)
	.loc 1 817 35
	ld	a5,-72(s0)
	ld	a5,8(a5)
	mv	a0,a5
	call	EfiLibStrFromDatahub@plt
	mv	a4,a0
	.loc 1 817 33 discriminator 1
	ld	a5,-64(s0)
	sd	a4,32(a5)
	.loc 1 818 37
	ld	a5,-64(s0)
	ld	a5,32(a5)
	.loc 1 818 8
	bne	a5,zero,.L101
	.loc 1 819 37
	ld	a5,-72(s0)
	ld	a5,8(a5)
	mv	a0,a5
	call	UiDevicePathToStr@plt
	mv	a4,a0
	.loc 1 819 35 discriminator 1
	ld	a5,-64(s0)
	sd	a4,32(a5)
.L101:
	.loc 1 822 70
	la	a5,mBmmCallbackInfo
	ld	a5,0(a5)
	.loc 1 822 40
	ld	a4,8(a5)
	.loc 1 822 101
	ld	a5,-64(s0)
	ld	a5,32(a5)
	.loc 1 822 40
	li	a3,0
	mv	a2,a5
	li	a1,0
	mv	a0,a4
	call	HiiSetString@plt
	mv	a5,a0
	mv	a4,a5
	.loc 1 822 38 discriminator 1
	ld	a5,-64(s0)
	sh	a4,48(a5)
	.loc 1 824 37
	ld	a5,-64(s0)
	ld	a5,40(a5)
	.loc 1 824 8
	bne	a5,zero,.L102
	.loc 1 825 51
	ld	a5,-64(s0)
	lhu	a4,48(a5)
	.loc 1 825 37
	ld	a5,-64(s0)
	sh	a4,50(a5)
	j	.L103
.L102:
	.loc 1 827 69
	la	a5,mBmmCallbackInfo
	ld	a5,0(a5)
	.loc 1 827 39
	ld	a4,8(a5)
	.loc 1 827 100
	ld	a5,-64(s0)
	ld	a5,40(a5)
	.loc 1 827 39
	li	a3,0
	mv	a2,a5
	li	a1,0
	mv	a0,a4
	call	HiiSetString@plt
	mv	a5,a0
	mv	a4,a5
	.loc 1 827 37 discriminator 1
	ld	a5,-64(s0)
	sh	a4,50(a5)
.L103:
	.loc 1 830 37
	ld	a5,-72(s0)
	ld	a5,8(a5)
	addi	a3,s0,-120
	addi	a4,s0,-108
	mv	a2,a3
	mv	a1,a4
	mv	a0,a5
	call	IsTerminalDevicePath
	mv	a5,a0
	mv	a4,a5
	.loc 1 830 35 discriminator 1
	ld	a5,-72(s0)
	sb	a4,1(a5)
	.loc 1 836 35
	ld	a4,-80(s0)
	ld	a5,-72(s0)
	ld	a5,8(a5)
	mv	a1,a5
	mv	a0,a4
	call	MatchDevicePaths
	mv	a5,a0
	mv	a4,a5
	.loc 1 836 33 discriminator 1
	ld	a5,-72(s0)
	sb	a4,0(a5)
	.loc 1 841 26
	ld	a5,-72(s0)
	lbu	a5,1(a5)
	.loc 1 841 8
	beq	a5,zero,.L104
	.loc 1 842 7
	ld	a0,-64(s0)
	call	BOpt_DestroyMenuEntry@plt
	j	.L105
.L104:
	.loc 1 844 13
	ld	a5,-32(s0)
	addi	a5,a5,1
	sd	a5,-32(s0)
	.loc 1 845 18
	ld	a5,-40(s0)
	ld	a5,24(a5)
	.loc 1 845 30
	addi	a4,a5,1
	ld	a5,-40(s0)
	sd	a4,24(a5)
	.loc 1 846 7
	ld	a5,-40(s0)
	addi	a4,a5,8
	ld	a5,-64(s0)
	addi	a5,a5,8
	mv	a1,a5
	mv	a0,a4
	call	InsertTailList@plt
.L105:
	.loc 1 804 42 discriminator 2
	ld	a5,-24(s0)
	addi	a5,a5,1
	sd	a5,-24(s0)
.L99:
	.loc 1 804 25 discriminator 1
	ld	a4,-24(s0)
	ld	a5,-48(s0)
	bltu	a4,a5,.L106
	.loc 1 850 10
	li	a5,0
.L107:
	.loc 1 851 1
	mv	a0,a5
	ld	ra,136(sp)
	.cfi_restore 1
	ld	s0,128(sp)
	.cfi_restore 8
	.cfi_def_cfa 2, 144
	addi	sp,sp,144
	.cfi_def_cfa_offset 0
	jr	ra
	.cfi_endproc
.LFE8:
	.size	GetConsoleMenu, .-GetConsoleMenu
	.section	.text.GetAllConsoles,"ax",@progbits
	.align	1
	.globl	GetAllConsoles
	.type	GetAllConsoles, @function
GetAllConsoles:
.LFB9:
	.loc 1 863 1
	.cfi_startproc
	addi	sp,sp,-16
	.cfi_def_cfa_offset 16
	sd	ra,8(sp)
	sd	s0,0(sp)
	.cfi_offset 1, -8
	.cfi_offset 8, -16
	addi	s0,sp,16
	.cfi_def_cfa 8, 0
	.loc 1 864 3
	li	a0,6
	call	GetConsoleMenu
	.loc 1 865 3
	li	a0,7
	call	GetConsoleMenu
	.loc 1 866 3
	li	a0,8
	call	GetConsoleMenu
	.loc 1 867 10
	li	a5,0
	.loc 1 868 1
	mv	a0,a5
	ld	ra,8(sp)
	.cfi_restore 1
	ld	s0,0(sp)
	.cfi_restore 8
	.cfi_def_cfa 2, 16
	addi	sp,sp,16
	.cfi_def_cfa_offset 0
	jr	ra
	.cfi_endproc
.LFE9:
	.size	GetAllConsoles, .-GetAllConsoles
	.section	.text.FreeAllConsoles,"ax",@progbits
	.align	1
	.globl	FreeAllConsoles
	.type	FreeAllConsoles, @function
FreeAllConsoles:
.LFB10:
	.loc 1 879 1
	.cfi_startproc
	addi	sp,sp,-16
	.cfi_def_cfa_offset 16
	sd	ra,8(sp)
	sd	s0,0(sp)
	.cfi_offset 1, -8
	.cfi_offset 8, -16
	addi	s0,sp,16
	.cfi_def_cfa 8, 0
	.loc 1 880 3
	la	a0,ConsoleOutMenu
	call	BOpt_FreeMenu@plt
	.loc 1 881 3
	la	a0,ConsoleInpMenu
	call	BOpt_FreeMenu@plt
	.loc 1 882 3
	la	a0,ConsoleErrMenu
	call	BOpt_FreeMenu@plt
	.loc 1 883 3
	la	a0,TerminalMenu
	call	BOpt_FreeMenu@plt
	.loc 1 884 10
	li	a5,0
	.loc 1 885 1
	mv	a0,a5
	ld	ra,8(sp)
	.cfi_restore 1
	ld	s0,0(sp)
	.cfi_restore 8
	.cfi_def_cfa 2, 16
	addi	sp,sp,16
	.cfi_def_cfa_offset 0
	jr	ra
	.cfi_endproc
.LFE10:
	.size	FreeAllConsoles, .-FreeAllConsoles
	.section	.text.IsTerminalDevicePath,"ax",@progbits
	.align	1
	.globl	IsTerminalDevicePath
	.type	IsTerminalDevicePath, @function
IsTerminalDevicePath:
.LFB11:
	.loc 1 905 1
	.cfi_startproc
	addi	sp,sp,-96
	.cfi_def_cfa_offset 96
	sd	ra,88(sp)
	sd	s0,80(sp)
	.cfi_offset 1, -8
	.cfi_offset 8, -16
	addi	s0,sp,96
	.cfi_def_cfa 8, 0
	sd	a0,-72(s0)
	sd	a1,-80(s0)
	sd	a2,-88(s0)
	.loc 1 913 14
	sb	zero,-17(s0)
	.loc 1 915 8
	sd	zero,-48(s0)
	.loc 1 916 10
	sd	zero,-40(s0)
	.loc 1 917 8
	sd	zero,-56(s0)
	.loc 1 918 13
	ld	a5,-72(s0)
	sd	a5,-32(s0)
	.loc 1 918 3
	j	.L113
.L116:
	.loc 1 922 12
	ld	a5,-32(s0)
	sd	a5,-40(s0)
	.loc 1 924 10
	ld	a0,-32(s0)
	call	DevicePathType@plt
	mv	a5,a0
	.loc 1 924 8 discriminator 1
	mv	a4,a5
	li	a5,3
	bne	a4,a5,.L114
	.loc 1 924 45 discriminator 2
	ld	a0,-32(s0)
	call	DevicePathSubType@plt
	mv	a5,a0
	.loc 1 924 41 discriminator 3
	mv	a4,a5
	li	a5,14
	bne	a4,a5,.L114
	.loc 1 925 12
	ld	a5,-32(s0)
	sd	a5,-48(s0)
.L114:
	.loc 1 928 8
	ld	a5,-48(s0)
	bne	a5,zero,.L115
	.loc 1 932 12
	ld	a5,-32(s0)
	sd	a5,-56(s0)
.L115:
	.loc 1 918 59 discriminator 3
	ld	a0,-32(s0)
	call	NextDevicePathNode@plt
	sd	a0,-32(s0)
.L113:
	.loc 1 918 28 discriminator 1
	ld	a0,-32(s0)
	call	IsDevicePathEnd@plt
	mv	a5,a0
	.loc 1 918 27 discriminator 4
	beq	a5,zero,.L116
	.loc 1 936 6
	ld	a5,-40(s0)
	beq	a5,zero,.L117
	.loc 1 937 8
	ld	a0,-40(s0)
	call	DevicePathType@plt
	mv	a5,a0
	.loc 1 936 32 discriminator 1
	mv	a4,a5
	li	a5,3
	bne	a4,a5,.L117
	.loc 1 938 8
	ld	a0,-40(s0)
	call	DevicePathSubType@plt
	mv	a5,a0
	.loc 1 937 41
	mv	a4,a5
	li	a5,10
	bne	a4,a5,.L117
	.loc 1 938 44
	ld	a5,-48(s0)
	bne	a5,zero,.L118
.L117:
	.loc 1 941 12
	li	a5,0
	j	.L119
.L118:
	.loc 1 949 14
	sd	zero,-64(s0)
	.loc 1 949 3
	j	.L120
.L123:
	.loc 1 950 22
	ld	a5,-40(s0)
	addi	a3,a5,4
	.loc 1 950 37
	ld	a5,-64(s0)
	slli	a4,a5,4
	la	a5,TerminalTypeGuid
	add	a5,a4,a5
	.loc 1 950 9
	mv	a1,a5
	mv	a0,a3
	call	CompareGuid@plt
	mv	a5,a0
	.loc 1 950 8 discriminator 1
	beq	a5,zero,.L121
	.loc 1 951 14
	ld	a5,-64(s0)
	sext.w	a4,a5
	ld	a5,-80(s0)
	sw	a4,0(a5)
	.loc 1 952 18
	li	a5,1
	sb	a5,-17(s0)
	.loc 1 953 7
	j	.L122
.L121:
	.loc 1 949 94 discriminator 2
	ld	a5,-64(s0)
	addi	a5,a5,1
	sd	a5,-64(s0)
.L120:
	.loc 1 949 25 discriminator 1
	ld	a4,-64(s0)
	li	a5,8
	bleu	a4,a5,.L123
.L122:
	.loc 1 957 6
	ld	a4,-64(s0)
	li	a5,9
	bne	a4,a5,.L124
	.loc 1 958 16
	sb	zero,-17(s0)
.L124:
	.loc 1 961 6
	lbu	a5,-17(s0)
	andi	a5,a5,0xff
	bne	a5,zero,.L125
	.loc 1 962 12
	li	a5,0
	j	.L119
.L125:
	.loc 1 965 6
	ld	a5,-56(s0)
	beq	a5,zero,.L126
	.loc 1 965 33 discriminator 1
	ld	a0,-56(s0)
	call	IsIsaSerialNode
	mv	a5,a0
	.loc 1 965 30 discriminator 2
	beq	a5,zero,.L126
	.loc 1 966 19
	ld	a5,-56(s0)
	addi	a5,a5,8
	.loc 1 966 5
	li	a2,4
	mv	a1,a5
	ld	a0,-88(s0)
	call	CopyMem@plt
	.loc 1 971 10
	li	a5,1
	j	.L119
.L126:
	.loc 1 968 12
	li	a5,0
.L119:
	.loc 1 972 1
	mv	a0,a5
	ld	ra,88(sp)
	.cfi_restore 1
	ld	s0,80(sp)
	.cfi_restore 8
	.cfi_def_cfa 2, 96
	addi	sp,sp,96
	.cfi_def_cfa_offset 0
	jr	ra
	.cfi_endproc
.LFE11:
	.size	IsTerminalDevicePath, .-IsTerminalDevicePath
	.section	.text.GetConsoleOutMode,"ax",@progbits
	.align	1
	.globl	GetConsoleOutMode
	.type	GetConsoleOutMode, @function
GetConsoleOutMode:
.LFB12:
	.loc 1 983 1
	.cfi_startproc
	addi	sp,sp,-96
	.cfi_def_cfa_offset 96
	sd	ra,88(sp)
	sd	s0,80(sp)
	.cfi_offset 1, -8
	.cfi_offset 8, -16
	addi	s0,sp,96
	.cfi_def_cfa 8, 0
	sd	a0,-88(s0)
	.loc 1 993 15
	la	a5,gST
	ld	a5,0(a5)
	.loc 1 993 10
	ld	a5,64(a5)
	sd	a5,-32(s0)
	.loc 1 994 27
	ld	a5,-32(s0)
	ld	a5,72(a5)
	.loc 1 994 33
	lw	a5,0(a5)
	.loc 1 994 11
	sd	a5,-40(s0)
	.loc 1 996 14
	la	a5,_gPcd_BinaryPatch_PcdSetupConOutColumn
	lw	a5,0(a5)
	sext.w	a5,a5
	slli	a5,a5,32
	srli	a5,a5,32
	sd	a5,-48(s0)
	.loc 1 997 14
	la	a5,_gPcd_BinaryPatch_PcdSetupConOutRow
	lw	a5,0(a5)
	sext.w	a5,a5
	slli	a5,a5,32
	srli	a5,a5,32
	sd	a5,-56(s0)
	.loc 1 998 13
	sd	zero,-24(s0)
	.loc 1 998 3
	j	.L128
.L131:
	.loc 1 999 20
	ld	a5,-32(s0)
	ld	a5,24(a5)
	.loc 1 999 14
	addi	a3,s0,-80
	addi	a4,s0,-72
	mv	a2,a4
	ld	a1,-24(s0)
	ld	a0,-32(s0)
	jalr	a5
.LVL4:
	sd	a0,-64(s0)
	.loc 1 1000 9
	ld	a5,-64(s0)
	.loc 1 1000 8
	blt	a5,zero,.L129
	.loc 1 1001 23
	ld	a5,-72(s0)
	.loc 1 1001 10
	ld	a4,-48(s0)
	bne	a4,a5,.L129
	.loc 1 1001 46 discriminator 1
	ld	a5,-80(s0)
	.loc 1 1001 31 discriminator 1
	ld	a4,-56(s0)
	bne	a4,a5,.L129
	.loc 1 1002 54
	ld	a5,-24(s0)
	slli	a4,a5,48
	srli	a4,a4,48
	.loc 1 1002 52
	ld	a3,-88(s0)
	li	a5,4096
	add	a5,a3,a5
	sh	a4,-1324(a5)
	.loc 1 1003 9
	j	.L130
.L129:
	.loc 1 998 38 discriminator 2
	ld	a5,-24(s0)
	addi	a5,a5,1
	sd	a5,-24(s0)
.L128:
	.loc 1 998 23 discriminator 1
	ld	a4,-24(s0)
	ld	a5,-40(s0)
	bltu	a4,a5,.L131
	.loc 1 1007 1
	nop
.L130:
	nop
	ld	ra,88(sp)
	.cfi_restore 1
	ld	s0,80(sp)
	.cfi_restore 8
	.cfi_def_cfa 2, 96
	addi	sp,sp,96
	.cfi_def_cfa_offset 0
	jr	ra
	.cfi_endproc
.LFE12:
	.size	GetConsoleOutMode, .-GetConsoleOutMode
	.section	.text.GetConsoleInCheck,"ax",@progbits
	.align	1
	.globl	GetConsoleInCheck
	.type	GetConsoleInCheck, @function
GetConsoleInCheck:
.LFB13:
	.loc 1 1021 1
	.cfi_startproc
	addi	sp,sp,-80
	.cfi_def_cfa_offset 80
	sd	ra,72(sp)
	sd	s0,64(sp)
	.cfi_offset 1, -8
	.cfi_offset 8, -16
	addi	s0,sp,80
	.cfi_def_cfa 8, 0
	sd	a0,-72(s0)
	.loc 1 1030 14
	ld	a5,-72(s0)
	addi	a5,a5,638
	sd	a5,-32(s0)
	.loc 1 1031 14
	sh	zero,-18(s0)
	.loc 1 1031 3
	j	.L133
.L135:
	.loc 1 1034 20
	lhu	a5,-18(s0)
	mv	a1,a5
	la	a0,ConsoleInpMenu
	call	BOpt_GetMenuEntry@plt
	sd	a0,-40(s0)
	.loc 1 1035 23
	ld	a5,-40(s0)
	ld	a5,64(a5)
	sd	a5,-48(s0)
	.loc 1 1036 15
	lhu	a5,-18(s0)
	ld	a4,-32(s0)
	add	a5,a4,a5
	.loc 1 1036 42
	ld	a4,-48(s0)
	lbu	a4,0(a4)
	.loc 1 1036 23
	sb	a4,0(a5)
	.loc 1 1032 41
	lhu	a5,-18(s0)
	addiw	a5,a5,1
	sh	a5,-18(s0)
.L133:
	.loc 1 1031 27 discriminator 1
	lhu	a4,-18(s0)
	.loc 1 1031 43 discriminator 1
	la	a5,ConsoleInpMenu
	ld	a5,24(a5)
	.loc 1 1031 56 discriminator 1
	bgeu	a4,a5,.L134
	.loc 1 1031 56 is_stmt 0 discriminator 2
	lhu	a5,-18(s0)
	sext.w	a4,a5
	li	a5,99
	bleu	a4,a5,.L135
.L134:
	.loc 1 1039 14 is_stmt 1
	sh	zero,-18(s0)
	.loc 1 1039 3
	j	.L136
.L137:
	.loc 1 1040 20
	lhu	a5,-18(s0)
	mv	a1,a5
	la	a0,TerminalMenu
	call	BOpt_GetMenuEntry@plt
	sd	a0,-40(s0)
	.loc 1 1041 24
	ld	a5,-40(s0)
	ld	a5,64(a5)
	sd	a5,-56(s0)
	.loc 1 1043 22
	lhu	a4,-18(s0)
	.loc 1 1043 38
	la	a5,ConsoleInpMenu
	ld	a5,24(a5)
	.loc 1 1043 22
	add	a5,a4,a5
	.loc 1 1043 15
	ld	a4,-32(s0)
	add	a5,a4,a5
	.loc 1 1043 71
	ld	a4,-56(s0)
	lbu	a4,16(a4)
	.loc 1 1043 51
	sb	a4,0(a5)
	.loc 1 1039 57 discriminator 3
	lhu	a5,-18(s0)
	addiw	a5,a5,1
	sh	a5,-18(s0)
.L136:
	.loc 1 1039 25 discriminator 1
	lhu	a4,-18(s0)
	.loc 1 1039 39 discriminator 1
	la	a5,TerminalMenu
	ld	a5,24(a5)
	.loc 1 1039 25 discriminator 1
	bltu	a4,a5,.L137
	.loc 1 1045 1
	nop
	nop
	ld	ra,72(sp)
	.cfi_restore 1
	ld	s0,64(sp)
	.cfi_restore 8
	.cfi_def_cfa 2, 80
	addi	sp,sp,80
	.cfi_def_cfa_offset 0
	jr	ra
	.cfi_endproc
.LFE13:
	.size	GetConsoleInCheck, .-GetConsoleInCheck
	.section	.text.GetConsoleOutCheck,"ax",@progbits
	.align	1
	.globl	GetConsoleOutCheck
	.type	GetConsoleOutCheck, @function
GetConsoleOutCheck:
.LFB14:
	.loc 1 1059 1
	.cfi_startproc
	addi	sp,sp,-80
	.cfi_def_cfa_offset 80
	sd	ra,72(sp)
	sd	s0,64(sp)
	.cfi_offset 1, -8
	.cfi_offset 8, -16
	addi	s0,sp,80
	.cfi_def_cfa 8, 0
	sd	a0,-72(s0)
	.loc 1 1067 15
	ld	a5,-72(s0)
	addi	a5,a5,738
	sd	a5,-32(s0)
	.loc 1 1068 14
	sh	zero,-18(s0)
	.loc 1 1068 3
	j	.L139
.L141:
	.loc 1 1071 20
	lhu	a5,-18(s0)
	mv	a1,a5
	la	a0,ConsoleOutMenu
	call	BOpt_GetMenuEntry@plt
	sd	a0,-40(s0)
	.loc 1 1072 23
	ld	a5,-40(s0)
	ld	a5,64(a5)
	sd	a5,-48(s0)
	.loc 1 1073 16
	lhu	a5,-18(s0)
	ld	a4,-32(s0)
	add	a5,a4,a5
	.loc 1 1073 43
	ld	a4,-48(s0)
	lbu	a4,0(a4)
	.loc 1 1073 24
	sb	a4,0(a5)
	.loc 1 1069 41
	lhu	a5,-18(s0)
	addiw	a5,a5,1
	sh	a5,-18(s0)
.L139:
	.loc 1 1068 27 discriminator 1
	lhu	a4,-18(s0)
	.loc 1 1068 43 discriminator 1
	la	a5,ConsoleOutMenu
	ld	a5,24(a5)
	.loc 1 1068 56 discriminator 1
	bgeu	a4,a5,.L140
	.loc 1 1068 56 is_stmt 0 discriminator 2
	lhu	a5,-18(s0)
	sext.w	a4,a5
	li	a5,99
	bleu	a4,a5,.L141
.L140:
	.loc 1 1076 14 is_stmt 1
	sh	zero,-18(s0)
	.loc 1 1076 3
	j	.L142
.L143:
	.loc 1 1077 20
	lhu	a5,-18(s0)
	mv	a1,a5
	la	a0,TerminalMenu
	call	BOpt_GetMenuEntry@plt
	sd	a0,-40(s0)
	.loc 1 1078 24
	ld	a5,-40(s0)
	ld	a5,64(a5)
	sd	a5,-56(s0)
	.loc 1 1080 23
	lhu	a4,-18(s0)
	.loc 1 1080 39
	la	a5,ConsoleOutMenu
	ld	a5,24(a5)
	.loc 1 1080 23
	add	a5,a4,a5
	.loc 1 1080 16
	ld	a4,-32(s0)
	add	a5,a4,a5
	.loc 1 1080 72
	ld	a4,-56(s0)
	lbu	a4,17(a4)
	.loc 1 1080 52
	sb	a4,0(a5)
	.loc 1 1076 57 discriminator 3
	lhu	a5,-18(s0)
	addiw	a5,a5,1
	sh	a5,-18(s0)
.L142:
	.loc 1 1076 25 discriminator 1
	lhu	a4,-18(s0)
	.loc 1 1076 39 discriminator 1
	la	a5,TerminalMenu
	ld	a5,24(a5)
	.loc 1 1076 25 discriminator 1
	bltu	a4,a5,.L143
	.loc 1 1082 1
	nop
	nop
	ld	ra,72(sp)
	.cfi_restore 1
	ld	s0,64(sp)
	.cfi_restore 8
	.cfi_def_cfa 2, 80
	addi	sp,sp,80
	.cfi_def_cfa_offset 0
	jr	ra
	.cfi_endproc
.LFE14:
	.size	GetConsoleOutCheck, .-GetConsoleOutCheck
	.section	.text.GetConsoleErrCheck,"ax",@progbits
	.align	1
	.globl	GetConsoleErrCheck
	.type	GetConsoleErrCheck, @function
GetConsoleErrCheck:
.LFB15:
	.loc 1 1096 1
	.cfi_startproc
	addi	sp,sp,-80
	.cfi_def_cfa_offset 80
	sd	ra,72(sp)
	sd	s0,64(sp)
	.cfi_offset 1, -8
	.cfi_offset 8, -16
	addi	s0,sp,80
	.cfi_def_cfa 8, 0
	sd	a0,-72(s0)
	.loc 1 1104 15
	ld	a5,-72(s0)
	addi	a5,a5,838
	sd	a5,-32(s0)
	.loc 1 1105 14
	sh	zero,-18(s0)
	.loc 1 1105 3
	j	.L145
.L147:
	.loc 1 1108 20
	lhu	a5,-18(s0)
	mv	a1,a5
	la	a0,ConsoleErrMenu
	call	BOpt_GetMenuEntry@plt
	sd	a0,-40(s0)
	.loc 1 1109 23
	ld	a5,-40(s0)
	ld	a5,64(a5)
	sd	a5,-48(s0)
	.loc 1 1110 16
	lhu	a5,-18(s0)
	ld	a4,-32(s0)
	add	a5,a4,a5
	.loc 1 1110 43
	ld	a4,-48(s0)
	lbu	a4,0(a4)
	.loc 1 1110 24
	sb	a4,0(a5)
	.loc 1 1106 41
	lhu	a5,-18(s0)
	addiw	a5,a5,1
	sh	a5,-18(s0)
.L145:
	.loc 1 1105 27 discriminator 1
	lhu	a4,-18(s0)
	.loc 1 1105 43 discriminator 1
	la	a5,ConsoleErrMenu
	ld	a5,24(a5)
	.loc 1 1105 56 discriminator 1
	bgeu	a4,a5,.L146
	.loc 1 1105 56 is_stmt 0 discriminator 2
	lhu	a5,-18(s0)
	sext.w	a4,a5
	li	a5,99
	bleu	a4,a5,.L147
.L146:
	.loc 1 1113 14 is_stmt 1
	sh	zero,-18(s0)
	.loc 1 1113 3
	j	.L148
.L149:
	.loc 1 1114 20
	lhu	a5,-18(s0)
	mv	a1,a5
	la	a0,TerminalMenu
	call	BOpt_GetMenuEntry@plt
	sd	a0,-40(s0)
	.loc 1 1115 24
	ld	a5,-40(s0)
	ld	a5,64(a5)
	sd	a5,-56(s0)
	.loc 1 1117 23
	lhu	a4,-18(s0)
	.loc 1 1117 39
	la	a5,ConsoleErrMenu
	ld	a5,24(a5)
	.loc 1 1117 23
	add	a5,a4,a5
	.loc 1 1117 16
	ld	a4,-32(s0)
	add	a5,a4,a5
	.loc 1 1117 72
	ld	a4,-56(s0)
	lbu	a4,18(a4)
	.loc 1 1117 52
	sb	a4,0(a5)
	.loc 1 1113 57 discriminator 3
	lhu	a5,-18(s0)
	addiw	a5,a5,1
	sh	a5,-18(s0)
.L148:
	.loc 1 1113 25 discriminator 1
	lhu	a4,-18(s0)
	.loc 1 1113 39 discriminator 1
	la	a5,TerminalMenu
	ld	a5,24(a5)
	.loc 1 1113 25 discriminator 1
	bltu	a4,a5,.L149
	.loc 1 1119 1
	nop
	nop
	ld	ra,72(sp)
	.cfi_restore 1
	ld	s0,64(sp)
	.cfi_restore 8
	.cfi_def_cfa 2, 80
	addi	sp,sp,80
	.cfi_def_cfa_offset 0
	jr	ra
	.cfi_endproc
.LFE15:
	.size	GetConsoleErrCheck, .-GetConsoleErrCheck
	.section	.text.GetTerminalAttribute,"ax",@progbits
	.align	1
	.globl	GetTerminalAttribute
	.type	GetTerminalAttribute, @function
GetTerminalAttribute:
.LFB16:
	.loc 1 1133 1
	.cfi_startproc
	addi	sp,sp,-64
	.cfi_def_cfa_offset 64
	sd	ra,56(sp)
	sd	s0,48(sp)
	.cfi_offset 1, -8
	.cfi_offset 8, -16
	addi	s0,sp,64
	.cfi_def_cfa 8, 0
	sd	a0,-56(s0)
	.loc 1 1142 20
	ld	a5,-56(s0)
	addi	a5,a5,112
	sd	a5,-32(s0)
	.loc 1 1143 22
	sh	zero,-18(s0)
	.loc 1 1143 3
	j	.L151
.L169:
	.loc 1 1146 20
	lhu	a5,-18(s0)
	mv	a1,a5
	la	a0,TerminalMenu
	call	BOpt_GetMenuEntry@plt
	sd	a0,-40(s0)
	.loc 1 1147 24
	ld	a5,-40(s0)
	ld	a5,64(a5)
	sd	a5,-48(s0)
	.loc 1 1148 25
	sb	zero,-19(s0)
	.loc 1 1148 5
	j	.L152
.L155:
	.loc 1 1149 29
	ld	a5,-48(s0)
	ld	a4,0(a5)
	.loc 1 1149 40
	lbu	a5,-19(s0)
	sext.w	a5,a5
	.loc 1 1149 80
	la	a3,BaudRateList
	slli	a5,a5,4
	add	a5,a3,a5
	ld	a5,0(a5)
	.loc 1 1149 10
	bne	a4,a5,.L153
	.loc 1 1150 43
	ld	a5,-48(s0)
	lbu	a4,-19(s0)
	sb	a4,11(a5)
	.loc 1 1151 9
	j	.L154
.L153:
	.loc 1 1148 111 discriminator 2
	lbu	a5,-19(s0)
	addiw	a5,a5,1
	sb	a5,-19(s0)
.L152:
	.loc 1 1148 45 discriminator 1
	lbu	a5,-19(s0)
	andi	a4,a5,0xff
	li	a5,18
	bleu	a4,a5,.L155
.L154:
	.loc 1 1155 25
	sb	zero,-19(s0)
	.loc 1 1155 5
	j	.L156
.L159:
	.loc 1 1156 29
	ld	a5,-48(s0)
	lbu	a5,8(a5)
	mv	a3,a5
	.loc 1 1156 43
	lbu	a5,-19(s0)
	sext.w	a5,a5
	.loc 1 1156 80
	la	a4,DataBitsList
	slli	a5,a5,4
	add	a5,a4,a5
	ld	a5,0(a5)
	.loc 1 1156 10
	bne	a3,a5,.L157
	.loc 1 1157 43
	ld	a5,-48(s0)
	lbu	a4,-19(s0)
	sb	a4,12(a5)
	.loc 1 1158 9
	j	.L158
.L157:
	.loc 1 1155 115 discriminator 2
	lbu	a5,-19(s0)
	addiw	a5,a5,1
	sb	a5,-19(s0)
.L156:
	.loc 1 1155 45 discriminator 1
	lbu	a5,-19(s0)
	andi	a4,a5,0xff
	li	a5,3
	bleu	a4,a5,.L159
.L158:
	.loc 1 1162 25
	sb	zero,-19(s0)
	.loc 1 1162 5
	j	.L160
.L163:
	.loc 1 1163 29
	ld	a5,-48(s0)
	lbu	a5,9(a5)
	mv	a3,a5
	.loc 1 1163 41
	lbu	a5,-19(s0)
	sext.w	a5,a5
	.loc 1 1163 76
	la	a4,ParityList
	slli	a5,a5,4
	add	a5,a4,a5
	ld	a5,0(a5)
	.loc 1 1163 10
	bne	a3,a5,.L161
	.loc 1 1164 41
	ld	a5,-48(s0)
	lbu	a4,-19(s0)
	sb	a4,13(a5)
	.loc 1 1165 9
	j	.L162
.L161:
	.loc 1 1162 111 discriminator 2
	lbu	a5,-19(s0)
	addiw	a5,a5,1
	sb	a5,-19(s0)
.L160:
	.loc 1 1162 45 discriminator 1
	lbu	a5,-19(s0)
	andi	a4,a5,0xff
	li	a5,4
	bleu	a4,a5,.L163
.L162:
	.loc 1 1169 25
	sb	zero,-19(s0)
	.loc 1 1169 5
	j	.L164
.L167:
	.loc 1 1170 29
	ld	a5,-48(s0)
	lbu	a5,10(a5)
	mv	a3,a5
	.loc 1 1170 43
	lbu	a5,-19(s0)
	sext.w	a5,a5
	.loc 1 1170 80
	la	a4,StopBitsList
	slli	a5,a5,4
	add	a5,a4,a5
	ld	a5,0(a5)
	.loc 1 1170 10
	bne	a3,a5,.L165
	.loc 1 1171 43
	ld	a5,-48(s0)
	lbu	a4,-19(s0)
	sb	a4,14(a5)
	.loc 1 1172 9
	j	.L166
.L165:
	.loc 1 1169 115 discriminator 2
	lbu	a5,-19(s0)
	addiw	a5,a5,1
	sb	a5,-19(s0)
.L164:
	.loc 1 1169 45 discriminator 1
	lbu	a5,-19(s0)
	andi	a4,a5,0xff
	li	a5,2
	bleu	a4,a5,.L167
.L166:
	.loc 1 1176 34
	lhu	a5,-18(s0)
	sext.w	a5,a5
	.loc 1 1176 70
	ld	a4,-48(s0)
	lbu	a4,11(a4)
	.loc 1 1176 50
	ld	a3,-32(s0)
	add	a5,a3,a5
	sb	a4,2028(a5)
	.loc 1 1177 34
	lhu	a5,-18(s0)
	sext.w	a5,a5
	.loc 1 1177 70
	ld	a4,-48(s0)
	lbu	a4,12(a4)
	.loc 1 1177 50
	ld	a3,-32(s0)
	add	a5,a3,a5
	li	a3,4096
	add	a5,a3,a5
	sb	a4,-1968(a5)
	.loc 1 1178 34
	lhu	a5,-18(s0)
	sext.w	a5,a5
	.loc 1 1178 70
	ld	a4,-48(s0)
	lbu	a4,14(a4)
	.loc 1 1178 50
	ld	a3,-32(s0)
	add	a5,a3,a5
	li	a3,4096
	add	a5,a3,a5
	sb	a4,-1868(a5)
	.loc 1 1179 32
	lhu	a5,-18(s0)
	sext.w	a5,a5
	.loc 1 1179 68
	ld	a4,-48(s0)
	lbu	a4,13(a4)
	.loc 1 1179 48
	ld	a3,-32(s0)
	add	a5,a3,a5
	li	a3,4096
	add	a5,a3,a5
	sb	a4,-1768(a5)
	.loc 1 1180 38
	lhu	a5,-18(s0)
	sext.w	a5,a5
	.loc 1 1180 74
	ld	a4,-48(s0)
	lbu	a4,19(a4)
	.loc 1 1180 54
	ld	a3,-32(s0)
	add	a5,a3,a5
	li	a3,4096
	add	a5,a3,a5
	sb	a4,-1668(a5)
	.loc 1 1181 37
	lhu	a5,-18(s0)
	sext.w	a5,a5
	.loc 1 1181 73
	ld	a4,-48(s0)
	lbu	a4,15(a4)
	.loc 1 1181 53
	ld	a3,-32(s0)
	add	a5,a3,a5
	li	a3,4096
	add	a5,a3,a5
	sb	a4,-1568(a5)
	.loc 1 1144 65
	lhu	a5,-18(s0)
	addiw	a5,a5,1
	sh	a5,-18(s0)
.L151:
	.loc 1 1143 43 discriminator 1
	lhu	a4,-18(s0)
	.loc 1 1143 57 discriminator 1
	la	a5,TerminalMenu
	ld	a5,24(a5)
	.loc 1 1143 70 discriminator 1
	bgeu	a4,a5,.L170
	.loc 1 1143 70 is_stmt 0 discriminator 2
	lhu	a5,-18(s0)
	sext.w	a4,a5
	li	a5,99
	bleu	a4,a5,.L169
.L170:
	.loc 1 1183 1 is_stmt 1
	nop
	ld	ra,56(sp)
	.cfi_restore 1
	ld	s0,48(sp)
	.cfi_restore 8
	.cfi_def_cfa 2, 64
	addi	sp,sp,64
	.cfi_def_cfa_offset 0
	jr	ra
	.cfi_endproc
.LFE16:
	.size	GetTerminalAttribute, .-GetTerminalAttribute
	.text
.Letext0:
	.file 2 "/home/kapoagaeming/spacemit-image-builder/components/edk2/MdePkg/Include/RiscV64/ProcessorBind.h"
	.file 3 "/home/kapoagaeming/spacemit-image-builder/components/edk2/MdePkg/Include/Base.h"
	.file 4 "/home/kapoagaeming/spacemit-image-builder/components/edk2/MdePkg/Include/Uefi/UefiBaseType.h"
	.file 5 "/home/kapoagaeming/spacemit-image-builder/components/edk2/MdePkg/Include/Uefi/UefiMultiPhase.h"
	.file 6 "/home/kapoagaeming/spacemit-image-builder/components/edk2/MdePkg/Include/Protocol/DevicePath.h"
	.file 7 "/home/kapoagaeming/spacemit-image-builder/components/edk2/MdePkg/Include/Protocol/SimpleTextIn.h"
	.file 8 "/home/kapoagaeming/spacemit-image-builder/components/edk2/MdePkg/Include/Protocol/SimpleTextOut.h"
	.file 9 "/home/kapoagaeming/spacemit-image-builder/components/edk2/MdePkg/Include/Uefi/UefiSpec.h"
	.file 10 "/home/kapoagaeming/spacemit-image-builder/components/edk2/MdePkg/Include/Uefi/UefiInternalFormRepresentation.h"
	.file 11 "/home/kapoagaeming/spacemit-image-builder/components/Build/Milk-V-Jupiter/RELEASE_GCC5/RISCV64/MdeModulePkg/Library/BootMaintenanceManagerUiLib/BootMaintenanceManagerUiLib/DEBUG/AutoGen.h"
	.file 12 "/home/kapoagaeming/spacemit-image-builder/components/edk2/MdeModulePkg/Library/BootMaintenanceManagerUiLib/FormGuid.h"
	.file 13 "/home/kapoagaeming/spacemit-image-builder/components/edk2/MdePkg/Include/Guid/FileSystemVolumeLabelInfo.h"
	.file 14 "/home/kapoagaeming/spacemit-image-builder/components/edk2/MdePkg/Include/Protocol/FormBrowser2.h"
	.file 15 "/home/kapoagaeming/spacemit-image-builder/components/edk2/MdePkg/Include/Protocol/HiiConfigAccess.h"
	.file 16 "/home/kapoagaeming/spacemit-image-builder/components/edk2/MdePkg/Include/Protocol/SimpleFileSystem.h"
	.file 17 "/home/kapoagaeming/spacemit-image-builder/components/edk2/MdePkg/Include/Protocol/SerialIo.h"
	.file 18 "/home/kapoagaeming/spacemit-image-builder/components/edk2/MdePkg/Include/Library/UefiBootServicesTableLib.h"
	.file 19 "/home/kapoagaeming/spacemit-image-builder/components/edk2/MdeModulePkg/Library/BootMaintenanceManagerUiLib/BootMaintenanceManager.h"
	.file 20 "/home/kapoagaeming/spacemit-image-builder/components/edk2/MdePkg/Include/Library/BaseMemoryLib.h"
	.file 21 "/home/kapoagaeming/spacemit-image-builder/components/edk2/MdePkg/Include/Library/DevicePathLib.h"
	.file 22 "/home/kapoagaeming/spacemit-image-builder/components/edk2/MdePkg/Include/Library/UefiLib.h"
	.file 23 "/home/kapoagaeming/spacemit-image-builder/components/edk2/MdePkg/Include/Library/BaseLib.h"
	.file 24 "/home/kapoagaeming/spacemit-image-builder/components/edk2/MdeModulePkg/Include/Library/HiiLib.h"
	.file 25 "/home/kapoagaeming/spacemit-image-builder/components/edk2/MdePkg/Include/Library/MemoryAllocationLib.h"
	.section	.note.GNU-stack,"",@progbits
