	.file	"Variable.c"
	.option pic
	.option norelax
	.attribute arch, "rv64i2p1_m2p0_a2p1_f2p2_d2p2_c2p0_zicsr2p0_zifencei2p0_zmmul1p0_zaamo1p0_zalrsc1p0_zca1p0_zcd1p0"
	.attribute unaligned_access, 0
	.attribute stack_align, 16
	.text
.Ltext0:
	.cfi_sections	.debug_frame
	.file 0 "/home/kapoagaeming/Downloads/spacemit-image-builder/components/Build/Milk-V-Jupiter/RELEASE_GCC5/RISCV64/MdeModulePkg/Library/BootMaintenanceManagerUiLib/BootMaintenanceManagerUiLib" "/home/kapoagaeming/Downloads/spacemit-image-builder/components/edk2/MdeModulePkg/Library/BootMaintenanceManagerUiLib/Variable.c"
	.section	.rodata
	.align	3
.LC0:
	.string	"B"
	.string	"o"
	.string	"o"
	.string	"t"
	.string	"N"
	.string	"e"
	.string	"x"
	.string	"t"
	.zero	2
	.section	.text.Var_DelBootOption,"ax",@progbits
	.align	1
	.globl	Var_DelBootOption
	.type	Var_DelBootOption, @function
Var_DelBootOption:
.LFB0:
	.file 1 "/home/kapoagaeming/Downloads/spacemit-image-builder/components/edk2/MdeModulePkg/Library/BootMaintenanceManagerUiLib/Variable.c"
	.loc 1 24 1
	.cfi_startproc
	addi	sp,sp,-64
	.cfi_def_cfa_offset 64
	sd	ra,56(sp)
	sd	s0,48(sp)
	.cfi_offset 1, -8
	.cfi_offset 8, -16
	addi	s0,sp,64
	.cfi_def_cfa 8, 0
	.loc 1 31 10
	sd	zero,-32(s0)
	.loc 1 32 14
	sd	zero,-24(s0)
	.loc 1 32 3
	j	.L2
.L9:
	.loc 1 33 20
	ld	a4,-24(s0)
	ld	a5,-32(s0)
	sub	a5,a4,a5
	mv	a1,a5
	la	a0,BootOptionMenu
	call	BOpt_GetMenuEntry@plt
	sd	a0,-40(s0)
	.loc 1 34 8
	ld	a5,-40(s0)
	bne	a5,zero,.L3
	.loc 1 35 14
	li	a5,-1
	slli	a5,a5,63
	addi	a5,a5,14
	j	.L4
.L3:
	.loc 1 38 20
	ld	a5,-40(s0)
	ld	a5,64(a5)
	sd	a5,-48(s0)
	.loc 1 39 24
	ld	a5,-48(s0)
	lbu	a5,1(a5)
	.loc 1 39 8
	beq	a5,zero,.L10
	.loc 1 43 14
	ld	a5,-40(s0)
	ld	a5,24(a5)
	li	a1,2
	mv	a0,a5
	call	EfiBootManagerDeleteLoadOptionVariable@plt
	sd	a0,-56(s0)
	.loc 1 44 36
	ld	a5,-56(s0)
	.loc 1 44 8
	bge	a5,zero,.L7
	.loc 1 45 14
	ld	a5,-56(s0)
	j	.L4
.L7:
	.loc 1 48 11
	ld	a5,-32(s0)
	addi	a5,a5,1
	sd	a5,-32(s0)
	.loc 1 54 23
	ld	a5,-48(s0)
	lbu	a5,0(a5)
	.loc 1 54 8
	beq	a5,zero,.L8
	.loc 1 55 7
	la	a1,gEfiGlobalVariableGuid
	lla	a0,.LC0
	call	EfiLibDeleteVariable@plt
.L8:
	.loc 1 58 22
	ld	a5,-40(s0)
	addi	a5,a5,8
	.loc 1 58 5
	mv	a0,a5
	call	RemoveEntryList@plt
	.loc 1 59 5
	ld	a0,-40(s0)
	call	BOpt_DestroyMenuEntry@plt
	.loc 1 60 18
	sd	zero,-40(s0)
	j	.L6
.L10:
	.loc 1 40 7
	nop
.L6:
	.loc 1 32 59 discriminator 2
	ld	a5,-24(s0)
	addi	a5,a5,1
	sd	a5,-24(s0)
.L2:
	.loc 1 32 41 discriminator 1
	la	a5,BootOptionMenu
	ld	a5,24(a5)
	.loc 1 32 25 discriminator 1
	ld	a4,-24(s0)
	bltu	a4,a5,.L9
	.loc 1 63 17
	la	a5,BootOptionMenu
	ld	a4,24(a5)
	.loc 1 63 29
	ld	a5,-32(s0)
	sub	a4,a4,a5
	la	a5,BootOptionMenu
	sd	a4,24(a5)
	.loc 1 65 10
	li	a5,0
.L4:
	.loc 1 66 1
	mv	a0,a5
	ld	ra,56(sp)
	.cfi_restore 1
	ld	s0,48(sp)
	.cfi_restore 8
	.cfi_def_cfa 2, 64
	addi	sp,sp,64
	.cfi_def_cfa_offset 0
	jr	ra
	.cfi_endproc
.LFE0:
	.size	Var_DelBootOption, .-Var_DelBootOption
	.section	.text.Var_DelDriverOption,"ax",@progbits
	.align	1
	.globl	Var_DelDriverOption
	.type	Var_DelDriverOption, @function
Var_DelDriverOption:
.LFB1:
	.loc 1 81 1
	.cfi_startproc
	addi	sp,sp,-64
	.cfi_def_cfa_offset 64
	sd	ra,56(sp)
	sd	s0,48(sp)
	.cfi_offset 1, -8
	.cfi_offset 8, -16
	addi	s0,sp,64
	.cfi_def_cfa 8, 0
	.loc 1 88 10
	sd	zero,-32(s0)
	.loc 1 89 14
	sd	zero,-24(s0)
	.loc 1 89 3
	j	.L12
.L18:
	.loc 1 90 20
	ld	a4,-24(s0)
	ld	a5,-32(s0)
	sub	a5,a4,a5
	mv	a1,a5
	la	a0,DriverOptionMenu
	call	BOpt_GetMenuEntry@plt
	sd	a0,-40(s0)
	.loc 1 91 8
	ld	a5,-40(s0)
	bne	a5,zero,.L13
	.loc 1 92 14
	li	a5,-1
	slli	a5,a5,63
	addi	a5,a5,14
	j	.L14
.L13:
	.loc 1 95 20
	ld	a5,-40(s0)
	ld	a5,64(a5)
	sd	a5,-48(s0)
	.loc 1 96 24
	ld	a5,-48(s0)
	lbu	a5,1(a5)
	.loc 1 96 8
	beq	a5,zero,.L19
	.loc 1 100 14
	ld	a5,-40(s0)
	ld	a5,24(a5)
	li	a1,0
	mv	a0,a5
	call	EfiBootManagerDeleteLoadOptionVariable@plt
	sd	a0,-56(s0)
	.loc 1 101 36
	ld	a5,-56(s0)
	.loc 1 101 8
	bge	a5,zero,.L17
	.loc 1 102 14
	ld	a5,-56(s0)
	j	.L14
.L17:
	.loc 1 105 11
	ld	a5,-32(s0)
	addi	a5,a5,1
	sd	a5,-32(s0)
	.loc 1 107 22
	ld	a5,-40(s0)
	addi	a5,a5,8
	.loc 1 107 5
	mv	a0,a5
	call	RemoveEntryList@plt
	.loc 1 108 5
	ld	a0,-40(s0)
	call	BOpt_DestroyMenuEntry@plt
	.loc 1 109 18
	sd	zero,-40(s0)
	j	.L16
.L19:
	.loc 1 97 7
	nop
.L16:
	.loc 1 89 61 discriminator 2
	ld	a5,-24(s0)
	addi	a5,a5,1
	sd	a5,-24(s0)
.L12:
	.loc 1 89 43 discriminator 1
	la	a5,DriverOptionMenu
	ld	a5,24(a5)
	.loc 1 89 25 discriminator 1
	ld	a4,-24(s0)
	bltu	a4,a5,.L18
	.loc 1 112 19
	la	a5,DriverOptionMenu
	ld	a4,24(a5)
	.loc 1 112 31
	ld	a5,-32(s0)
	sub	a4,a4,a5
	la	a5,DriverOptionMenu
	sd	a4,24(a5)
	.loc 1 114 10
	li	a5,0
.L14:
	.loc 1 115 1
	mv	a0,a5
	ld	ra,56(sp)
	.cfi_restore 1
	ld	s0,48(sp)
	.cfi_restore 8
	.cfi_def_cfa 2, 64
	addi	sp,sp,64
	.cfi_def_cfa_offset 0
	jr	ra
	.cfi_endproc
.LFE1:
	.size	Var_DelDriverOption, .-Var_DelDriverOption
	.section	.text.Var_UpdateConsoleOption,"ax",@progbits
	.align	1
	.globl	Var_UpdateConsoleOption
	.type	Var_UpdateConsoleOption, @function
Var_UpdateConsoleOption:
.LFB2:
	.loc 1 145 1
	.cfi_startproc
	addi	sp,sp,-144
	.cfi_def_cfa_offset 144
	sd	ra,136(sp)
	sd	s0,128(sp)
	sd	s1,120(sp)
	.cfi_offset 1, -8
	.cfi_offset 8, -16
	.cfi_offset 9, -24
	addi	s0,sp,144
	.cfi_def_cfa 8, 0
	sd	a0,-120(s0)
	sd	a1,-128(s0)
	mv	a5,a2
	sh	a5,-130(s0)
	.loc 1 155 3
	addi	a5,s0,-88
	li	a2,0
	mv	a1,a5
	ld	a0,-120(s0)
	call	GetEfiGlobalVariable2@plt
	.loc 1 156 21
	ld	a5,-88(s0)
	.loc 1 156 6
	beq	a5,zero,.L21
	.loc 1 157 5
	la	a1,gEfiGlobalVariableGuid
	ld	a0,-120(s0)
	call	EfiLibDeleteVariable@plt
	.loc 1 158 5
	ld	a5,-88(s0)
	mv	a0,a5
	call	FreePool@plt
	.loc 1 159 19
	sd	zero,-88(s0)
.L21:
	.loc 1 165 14
	sd	zero,-40(s0)
	.loc 1 165 3
	j	.L22
.L24:
	.loc 1 166 20
	ld	a1,-40(s0)
	ld	a0,-128(s0)
	call	BOpt_GetMenuEntry@plt
	sd	a0,-56(s0)
	.loc 1 168 23
	ld	a5,-56(s0)
	ld	a5,64(a5)
	sd	a5,-80(s0)
	.loc 1 169 26
	ld	a5,-80(s0)
	lbu	a5,0(a5)
	.loc 1 169 8
	beq	a5,zero,.L23
	.loc 1 170 23
	ld	a4,-88(s0)
	.loc 1 172 42
	ld	a5,-80(s0)
	ld	a5,8(a5)
	.loc 1 170 23
	mv	a1,a5
	mv	a0,a4
	call	AppendDevicePathInstance@plt
	mv	a5,a0
	.loc 1 170 21 discriminator 1
	sd	a5,-88(s0)
.L23:
	.loc 1 165 57 discriminator 2
	ld	a5,-40(s0)
	addi	a5,a5,1
	sd	a5,-40(s0)
.L22:
	.loc 1 165 38 discriminator 1
	ld	a5,-128(s0)
	ld	a5,24(a5)
	.loc 1 165 25 discriminator 1
	ld	a4,-40(s0)
	bltu	a4,a5,.L24
	.loc 1 177 14
	sd	zero,-40(s0)
	.loc 1 177 3
	j	.L25
.L30:
	.loc 1 178 20
	ld	a1,-40(s0)
	la	a0,TerminalMenu
	call	BOpt_GetMenuEntry@plt
	sd	a0,-56(s0)
	.loc 1 180 24
	ld	a5,-56(s0)
	ld	a5,64(a5)
	sd	a5,-64(s0)
	.loc 1 181 29
	ld	a5,-64(s0)
	lbu	a5,16(a5)
	.loc 1 181 8
	beq	a5,zero,.L26
	.loc 1 181 45 discriminator 1
	lhu	a5,-130(s0)
	sext.w	a4,a5
	li	a5,4096
	addi	a5,a5,9
	beq	a4,a5,.L27
.L26:
	.loc 1 182 29
	ld	a5,-64(s0)
	lbu	a5,17(a5)
	.loc 1 181 74 discriminator 3
	beq	a5,zero,.L28
	.loc 1 182 46
	lhu	a5,-130(s0)
	sext.w	a4,a5
	li	a5,4096
	addi	a5,a5,10
	beq	a4,a5,.L27
.L28:
	.loc 1 183 29
	ld	a5,-64(s0)
	lbu	a5,18(a5)
	.loc 1 182 75 discriminator 1
	beq	a5,zero,.L29
	.loc 1 183 46
	lhu	a5,-130(s0)
	sext.w	a4,a5
	li	a5,4096
	addi	a5,a5,11
	bne	a4,a5,.L29
.L27:
	.loc 1 186 26
	li	a5,3
	sb	a5,-112(s0)
	.loc 1 187 29
	li	a5,10
	sb	a5,-111(s0)
	.loc 1 192 45
	ld	a5,-64(s0)
	lbu	a5,19(a5)
	sext.w	a5,a5
	.loc 1 192 9
	slli	a4,a5,4
	la	a5,TerminalTypeGuid
	add	a4,a4,a5
	.loc 1 190 7
	addi	a5,s0,-112
	addi	a5,a5,4
	li	a2,16
	mv	a1,a4
	mv	a0,a5
	call	CopyMem@plt
	.loc 1 195 7
	addi	a5,s0,-112
	li	a1,20
	mv	a0,a5
	call	SetDevicePathNodeLength@plt
	.loc 1 197 48
	ld	a5,-64(s0)
	ld	a5,24(a5)
	.loc 1 196 28
	addi	a4,s0,-112
	mv	a1,a4
	mv	a0,a5
	call	AppendDevicePathNode@plt
	sd	a0,-72(s0)
	.loc 1 201 7
	li	a1,1
	ld	a0,-72(s0)
	call	ChangeTerminalDevicePath@plt
	.loc 1 202 23
	ld	a5,-88(s0)
	ld	a1,-72(s0)
	mv	a0,a5
	call	AppendDevicePathInstance@plt
	mv	a5,a0
	.loc 1 202 21 discriminator 1
	sd	a5,-88(s0)
.L29:
	.loc 1 177 57 discriminator 2
	ld	a5,-40(s0)
	addi	a5,a5,1
	sd	a5,-40(s0)
.L25:
	.loc 1 177 39 discriminator 1
	la	a5,TerminalMenu
	ld	a5,24(a5)
	.loc 1 177 25 discriminator 1
	ld	a4,-40(s0)
	bltu	a4,a5,.L30
	.loc 1 209 21
	ld	a5,-88(s0)
	.loc 1 209 6
	beq	a5,zero,.L31
	.loc 1 210 17
	la	a5,gRT
	ld	a5,0(a5)
	ld	s1,88(a5)
	.loc 1 210 14
	ld	a5,-88(s0)
	mv	a0,a5
	call	GetDevicePathSize@plt
	mv	a3,a0
	.loc 1 210 14 is_stmt 0 discriminator 1
	ld	a5,-88(s0)
	mv	a4,a5
	li	a2,7
	la	a1,gEfiGlobalVariableGuid
	ld	a0,-120(s0)
	jalr	s1
.LVL0:
	sd	a0,-48(s0)
	.loc 1 217 36 is_stmt 1
	ld	a5,-48(s0)
	.loc 1 217 8
	bge	a5,zero,.L31
	.loc 1 218 14
	ld	a5,-48(s0)
	j	.L33
.L31:
	.loc 1 222 10
	li	a5,0
.L33:
	.loc 1 223 1
	mv	a0,a5
	ld	ra,136(sp)
	.cfi_restore 1
	ld	s0,128(sp)
	.cfi_restore 8
	.cfi_def_cfa 2, 144
	ld	s1,120(sp)
	.cfi_restore 9
	addi	sp,sp,144
	.cfi_def_cfa_offset 0
	jr	ra
	.cfi_endproc
.LFE2:
	.size	Var_UpdateConsoleOption, .-Var_UpdateConsoleOption
	.section	.rodata
	.align	3
.LC1:
	.string	"C"
	.string	"o"
	.string	"n"
	.string	"I"
	.string	"n"
	.zero	2
	.section	.text.Var_UpdateConsoleInpOption,"ax",@progbits
	.align	1
	.globl	Var_UpdateConsoleInpOption
	.type	Var_UpdateConsoleInpOption, @function
Var_UpdateConsoleInpOption:
.LFB3:
	.loc 1 236 1
	.cfi_startproc
	addi	sp,sp,-16
	.cfi_def_cfa_offset 16
	sd	ra,8(sp)
	sd	s0,0(sp)
	.cfi_offset 1, -8
	.cfi_offset 8, -16
	addi	s0,sp,16
	.cfi_def_cfa 8, 0
	.loc 1 237 10
	li	a5,4096
	addi	a2,a5,9
	la	a1,ConsoleInpMenu
	lla	a0,.LC1
	call	Var_UpdateConsoleOption
	mv	a5,a0
	.loc 1 238 1
	mv	a0,a5
	ld	ra,8(sp)
	.cfi_restore 1
	ld	s0,0(sp)
	.cfi_restore 8
	.cfi_def_cfa 2, 16
	addi	sp,sp,16
	.cfi_def_cfa_offset 0
	jr	ra
	.cfi_endproc
.LFE3:
	.size	Var_UpdateConsoleInpOption, .-Var_UpdateConsoleInpOption
	.section	.rodata
	.align	3
.LC2:
	.string	"C"
	.string	"o"
	.string	"n"
	.string	"O"
	.string	"u"
	.string	"t"
	.zero	2
	.section	.text.Var_UpdateConsoleOutOption,"ax",@progbits
	.align	1
	.globl	Var_UpdateConsoleOutOption
	.type	Var_UpdateConsoleOutOption, @function
Var_UpdateConsoleOutOption:
.LFB4:
	.loc 1 251 1
	.cfi_startproc
	addi	sp,sp,-16
	.cfi_def_cfa_offset 16
	sd	ra,8(sp)
	sd	s0,0(sp)
	.cfi_offset 1, -8
	.cfi_offset 8, -16
	addi	s0,sp,16
	.cfi_def_cfa 8, 0
	.loc 1 252 10
	li	a5,4096
	addi	a2,a5,10
	la	a1,ConsoleOutMenu
	lla	a0,.LC2
	call	Var_UpdateConsoleOption
	mv	a5,a0
	.loc 1 253 1
	mv	a0,a5
	ld	ra,8(sp)
	.cfi_restore 1
	ld	s0,0(sp)
	.cfi_restore 8
	.cfi_def_cfa 2, 16
	addi	sp,sp,16
	.cfi_def_cfa_offset 0
	jr	ra
	.cfi_endproc
.LFE4:
	.size	Var_UpdateConsoleOutOption, .-Var_UpdateConsoleOutOption
	.section	.rodata
	.align	3
.LC3:
	.string	"E"
	.string	"r"
	.string	"r"
	.string	"O"
	.string	"u"
	.string	"t"
	.zero	2
	.section	.text.Var_UpdateErrorOutOption,"ax",@progbits
	.align	1
	.globl	Var_UpdateErrorOutOption
	.type	Var_UpdateErrorOutOption, @function
Var_UpdateErrorOutOption:
.LFB5:
	.loc 1 266 1
	.cfi_startproc
	addi	sp,sp,-16
	.cfi_def_cfa_offset 16
	sd	ra,8(sp)
	sd	s0,0(sp)
	.cfi_offset 1, -8
	.cfi_offset 8, -16
	addi	s0,sp,16
	.cfi_def_cfa 8, 0
	.loc 1 267 10
	li	a5,4096
	addi	a2,a5,11
	la	a1,ConsoleErrMenu
	lla	a0,.LC3
	call	Var_UpdateConsoleOption
	mv	a5,a0
	.loc 1 268 1
	mv	a0,a5
	ld	ra,8(sp)
	.cfi_restore 1
	ld	s0,0(sp)
	.cfi_restore 8
	.cfi_def_cfa 2, 16
	addi	sp,sp,16
	.cfi_def_cfa_offset 0
	jr	ra
	.cfi_endproc
.LFE5:
	.size	Var_UpdateErrorOutOption, .-Var_UpdateErrorOutOption
	.section	.rodata
	.align	3
.LC4:
	.string	"D"
	.string	"r"
	.string	"i"
	.string	"v"
	.string	"e"
	.string	"r"
	.string	"%"
	.string	"0"
	.string	"4"
	.string	"x"
	.zero	2
	.section	.text.Var_UpdateDriverOption,"ax",@progbits
	.align	1
	.globl	Var_UpdateDriverOption
	.type	Var_UpdateDriverOption, @function
Var_UpdateDriverOption:
.LFB6:
	.loc 1 296 1
	.cfi_startproc
	addi	sp,sp,-240
	.cfi_def_cfa_offset 240
	sd	ra,232(sp)
	sd	s0,224(sp)
	sd	s1,216(sp)
	sd	s2,208(sp)
	.cfi_offset 1, -8
	.cfi_offset 8, -16
	.cfi_offset 9, -24
	.cfi_offset 18, -32
	addi	s0,sp,240
	.cfi_def_cfa 8, 0
	sd	a0,-200(s0)
	sd	a1,-208(s0)
	sd	a2,-216(s0)
	sd	a3,-224(s0)
	mv	a5,a4
	sb	a5,-225(s0)
	.loc 1 307 21
	sb	zero,-33(s0)
	.loc 1 308 19
	sd	zero,-48(s0)
	.loc 1 309 20
	sw	zero,-52(s0)
	.loc 1 311 11
	call	BOpt_GetDriverOptionNumber@plt
	mv	a5,a0
	sh	a5,-54(s0)
	.loc 1 312 3
	lhu	a5,-54(s0)
	sext.w	a4,a5
	addi	a5,s0,-104
	mv	a3,a4
	lla	a2,.LC4
	li	a1,24
	mv	a0,a5
	call	UnicodeSPrint@plt
	.loc 1 319 7
	ld	a5,-216(s0)
	lhu	a5,0(a5)
	.loc 1 319 6
	bne	a5,zero,.L41
	.loc 1 320 5
	addi	a5,s0,-104
	mv	a2,a5
	li	a1,100
	ld	a0,-216(s0)
	call	StrCpyS@plt
.L41:
	.loc 1 323 7
	ld	a5,-224(s0)
	lhu	a5,0(a5)
	.loc 1 323 6
	beq	a5,zero,.L42
	.loc 1 324 23
	li	a5,1
	sb	a5,-33(s0)
	.loc 1 325 21
	ld	a5,-224(s0)
	sd	a5,-48(s0)
	.loc 1 326 32
	ld	a0,-224(s0)
	call	StrSize@plt
	mv	a5,a0
	.loc 1 326 22 discriminator 1
	sw	a5,-52(s0)
.L42:
	.loc 1 329 18
	li	a0,0
	call	BOpt_CreateMenuEntry@plt
	sd	a0,-64(s0)
	.loc 1 330 6
	ld	a5,-64(s0)
	bne	a5,zero,.L43
	.loc 1 331 12
	li	a5,-1
	slli	a5,a5,63
	addi	a5,a5,9
	j	.L48
.L43:
	.loc 1 334 12
	lhu	a1,-54(s0)
	.loc 1 338 43
	lbu	a5,-225(s0)
	sext.w	a5,a5
	slliw	a5,a5,1
	sext.w	a5,a5
	.loc 1 338 25
	ori	a5,a5,1
	sext.w	a5,a5
	.loc 1 334 12
	mv	a3,a5
	.loc 1 340 26
	ld	a5,-200(s0)
	ld	a5,80(a5)
	.loc 1 334 12
	ld	a5,24(a5)
	lw	a4,-52(s0)
	addi	a0,s0,-192
	mv	a7,a4
	ld	a6,-48(s0)
	ld	a4,-216(s0)
	li	a2,0
	call	EfiBootManagerInitializeLoadOption@plt
	sd	a0,-72(s0)
	.loc 1 344 34
	ld	a5,-72(s0)
	.loc 1 344 6
	bge	a5,zero,.L45
	.loc 1 345 12
	ld	a5,-72(s0)
	j	.L48
.L45:
	.loc 1 348 12
	addi	a5,s0,-192
	li	a1,-1
	mv	a0,a5
	call	EfiBootManagerAddLoadOptionVariable@plt
	sd	a0,-72(s0)
	.loc 1 349 34
	ld	a5,-72(s0)
	.loc 1 349 6
	bge	a5,zero,.L46
	.loc 1 350 5
	addi	a5,s0,-192
	mv	a0,a5
	call	EfiBootManagerFreeLoadOption@plt
	.loc 1 351 12
	ld	a5,-72(s0)
	j	.L48
.L46:
	.loc 1 354 18
	ld	a5,-64(s0)
	ld	a5,64(a5)
	sd	a5,-80(s0)
	.loc 1 355 27
	ld	a5,-80(s0)
	sb	zero,1(a5)
	.loc 1 356 42
	lw	a4,-180(s0)
	.loc 1 356 30
	ld	a5,-80(s0)
	sw	a4,4(a5)
	.loc 1 357 77
	ld	a5,-168(s0)
	.loc 1 357 48
	mv	a0,a5
	call	GetDevicePathSize@plt
	mv	a5,a0
	.loc 1 357 40 discriminator 1
	slli	a4,a5,48
	srli	a4,a4,48
	.loc 1 357 38 discriminator 1
	ld	a5,-80(s0)
	sh	a4,8(a5)
	.loc 1 359 33
	ld	a0,-216(s0)
	call	StrSize@plt
	mv	a5,a0
	.loc 1 359 33 is_stmt 0 discriminator 1
	mv	a0,a5
	call	AllocateZeroPool@plt
	mv	a4,a0
	.loc 1 359 31 is_stmt 1 discriminator 2
	ld	a5,-80(s0)
	sd	a4,16(a5)
	.loc 1 361 47
	ld	a5,-80(s0)
	ld	a4,16(a5)
	.loc 1 361 31
	ld	a5,-64(s0)
	sd	a4,32(a5)
	.loc 1 363 19
	ld	a5,-80(s0)
	ld	s1,16(a5)
	.loc 1 364 15
	ld	s2,-176(s0)
	.loc 1 362 3
	ld	a0,-216(s0)
	call	StrSize@plt
	mv	a5,a0
	.loc 1 362 3 is_stmt 0 discriminator 1
	mv	a2,a5
	mv	a1,s2
	mv	a0,s1
	call	CopyMem@plt
	.loc 1 368 83 is_stmt 1
	ld	a5,-200(s0)
	ld	a5,80(a5)
	.loc 1 368 96
	ld	a5,24(a5)
	.loc 1 368 34
	mv	a0,a5
	call	GetDevicePathSize@plt
	mv	a5,a0
	.loc 1 368 34 is_stmt 0 discriminator 1
	mv	a0,a5
	call	AllocateZeroPool@plt
	mv	a4,a0
	.loc 1 368 32 is_stmt 1 discriminator 2
	ld	a5,-80(s0)
	sd	a4,24(a5)
	.loc 1 371 19
	ld	a5,-80(s0)
	ld	s1,24(a5)
	.loc 1 372 15
	ld	s2,-168(s0)
	.loc 1 373 36
	ld	a5,-200(s0)
	ld	a5,80(a5)
	.loc 1 373 49
	ld	a5,24(a5)
	.loc 1 370 3
	mv	a0,a5
	call	GetDevicePathSize@plt
	mv	a5,a0
	.loc 1 370 3 is_stmt 0 discriminator 1
	mv	a2,a5
	mv	a1,s2
	mv	a0,s1
	call	CopyMem@plt
	.loc 1 376 30 is_stmt 1
	ld	a5,-80(s0)
	ld	a5,24(a5)
	mv	a0,a5
	call	UiDevicePathToStr@plt
	mv	a4,a0
	.loc 1 376 28 discriminator 1
	ld	a5,-64(s0)
	sd	a4,40(a5)
	.loc 1 377 30
	lhu	a4,-54(s0)
	ld	a5,-64(s0)
	sd	a4,24(a5)
	.loc 1 378 78
	ld	a5,-64(s0)
	ld	a5,32(a5)
	.loc 1 378 38
	li	a3,0
	mv	a2,a5
	li	a1,0
	ld	a0,-208(s0)
	call	HiiSetString@plt
	mv	a5,a0
	mv	a4,a5
	.loc 1 378 36 discriminator 1
	ld	a5,-64(s0)
	sh	a4,48(a5)
	.loc 1 379 75
	ld	a5,-64(s0)
	ld	a5,40(a5)
	.loc 1 379 35
	li	a3,0
	mv	a2,a5
	li	a1,0
	ld	a0,-208(s0)
	call	HiiSetString@plt
	mv	a5,a0
	mv	a4,a5
	.loc 1 379 33 discriminator 1
	ld	a5,-64(s0)
	sh	a4,50(a5)
	.loc 1 381 6
	lbu	a5,-33(s0)
	andi	a5,a5,0xff
	beq	a5,zero,.L47
	.loc 1 382 64
	lw	a5,-152(s0)
	.loc 1 382 36
	slli	a5,a5,32
	srli	a5,a5,32
	mv	a0,a5
	call	AllocateZeroPool@plt
	mv	a4,a0
	.loc 1 382 34 discriminator 1
	ld	a5,-80(s0)
	sd	a4,32(a5)
	.loc 1 385 21
	ld	a5,-80(s0)
	ld	a5,32(a5)
	.loc 1 386 17
	ld	a4,-160(s0)
	.loc 1 387 17
	lw	a3,-152(s0)
	.loc 1 384 5
	slli	a3,a3,32
	srli	a3,a3,32
	mv	a2,a3
	mv	a1,a4
	mv	a0,a5
	call	CopyMem@plt
.L47:
	.loc 1 391 3
	ld	a5,-64(s0)
	addi	a5,a5,8
	mv	a1,a5
	la	a5,DriverOptionMenu
	addi	a0,a5,8
	call	InsertTailList@plt
	.loc 1 392 19
	la	a5,DriverOptionMenu
	ld	a5,24(a5)
	.loc 1 392 30
	addi	a4,a5,1
	la	a5,DriverOptionMenu
	sd	a4,24(a5)
	.loc 1 394 3
	addi	a5,s0,-192
	mv	a0,a5
	call	EfiBootManagerFreeLoadOption@plt
	.loc 1 396 10
	li	a5,0
.L48:
	.loc 1 397 1
	mv	a0,a5
	ld	ra,232(sp)
	.cfi_restore 1
	ld	s0,224(sp)
	.cfi_restore 8
	.cfi_def_cfa 2, 240
	ld	s1,216(sp)
	.cfi_restore 9
	ld	s2,208(sp)
	.cfi_restore 18
	addi	sp,sp,240
	.cfi_def_cfa_offset 0
	jr	ra
	.cfi_endproc
.LFE6:
	.size	Var_UpdateDriverOption, .-Var_UpdateDriverOption
	.section	.rodata
	.align	3
.LC5:
	.string	"B"
	.string	"o"
	.string	"o"
	.string	"t"
	.string	"%"
	.string	"0"
	.string	"4"
	.string	"x"
	.zero	2
	.section	.text.Var_UpdateBootOption,"ax",@progbits
	.align	1
	.globl	Var_UpdateBootOption
	.type	Var_UpdateBootOption, @function
Var_UpdateBootOption:
.LFB7:
	.loc 1 417 1
	.cfi_startproc
	addi	sp,sp,-224
	.cfi_def_cfa_offset 224
	sd	ra,216(sp)
	sd	s0,208(sp)
	sd	s1,200(sp)
	sd	s2,192(sp)
	.cfi_offset 1, -8
	.cfi_offset 8, -16
	.cfi_offset 9, -24
	.cfi_offset 18, -32
	addi	s0,sp,224
	.cfi_def_cfa 8, 0
	sd	a0,-216(s0)
	.loc 1 429 21
	sb	zero,-33(s0)
	.loc 1 430 12
	ld	a5,-216(s0)
	addi	a5,a5,112
	sd	a5,-64(s0)
	.loc 1 431 16
	sd	zero,-48(s0)
	.loc 1 432 20
	sw	zero,-52(s0)
	.loc 1 434 11
	call	BOpt_GetBootOptionNumber@plt
	mv	a5,a0
	sh	a5,-66(s0)
	.loc 1 435 3
	lhu	a5,-66(s0)
	sext.w	a4,a5
	addi	a5,s0,-120
	mv	a3,a4
	lla	a2,.LC5
	li	a1,20
	mv	a0,a5
	call	UnicodeSPrint@plt
	.loc 1 437 36
	ld	a4,-64(s0)
	li	a5,4096
	add	a5,a4,a5
	lhu	a5,-1434(a5)
	.loc 1 437 6
	bne	a5,zero,.L50
	.loc 1 438 22
	ld	a4,-64(s0)
	li	a5,4096
	addi	a5,a5,-1434
	add	a5,a4,a5
	.loc 1 438 5
	addi	a4,s0,-120
	mv	a2,a4
	li	a1,100
	mv	a0,a5
	call	StrCpyS@plt
.L50:
	.loc 1 441 33
	ld	a4,-64(s0)
	li	a5,4096
	add	a5,a4,a5
	lhu	a5,-1234(a5)
	.loc 1 441 6
	beq	a5,zero,.L51
	.loc 1 442 23
	li	a5,1
	sb	a5,-33(s0)
	.loc 1 443 18
	ld	a4,-64(s0)
	li	a5,4096
	addi	a5,a5,-1234
	add	a5,a4,a5
	sd	a5,-48(s0)
	.loc 1 444 49
	ld	a4,-64(s0)
	li	a5,4096
	addi	a5,a5,-1234
	add	a5,a4,a5
	.loc 1 444 32
	mv	a0,a5
	call	StrSize@plt
	mv	a5,a0
	.loc 1 444 22 discriminator 1
	sw	a5,-52(s0)
.L51:
	.loc 1 447 18
	li	a0,0
	call	BOpt_CreateMenuEntry@plt
	sd	a0,-80(s0)
	.loc 1 448 6
	ld	a5,-80(s0)
	bne	a5,zero,.L52
	.loc 1 449 12
	li	a5,-1
	slli	a5,a5,63
	addi	a5,a5,9
	j	.L57
.L52:
	.loc 1 452 12
	lhu	a1,-66(s0)
	.loc 1 457 22
	ld	a4,-64(s0)
	li	a5,4096
	addi	a5,a5,-1434
	add	a4,a4,a5
	.loc 1 458 26
	ld	a5,-216(s0)
	ld	a5,80(a5)
	.loc 1 452 12
	ld	a5,24(a5)
	lw	a3,-52(s0)
	addi	a0,s0,-208
	mv	a7,a3
	ld	a6,-48(s0)
	li	a3,1
	li	a2,2
	call	EfiBootManagerInitializeLoadOption@plt
	sd	a0,-88(s0)
	.loc 1 462 34
	ld	a5,-88(s0)
	.loc 1 462 6
	bge	a5,zero,.L54
	.loc 1 463 12
	ld	a5,-88(s0)
	j	.L57
.L54:
	.loc 1 466 12
	addi	a5,s0,-208
	li	a1,-1
	mv	a0,a5
	call	EfiBootManagerAddLoadOptionVariable@plt
	sd	a0,-88(s0)
	.loc 1 467 34
	ld	a5,-88(s0)
	.loc 1 467 6
	bge	a5,zero,.L55
	.loc 1 468 5
	addi	a5,s0,-208
	mv	a0,a5
	call	EfiBootManagerFreeLoadOption@plt
	.loc 1 469 12
	ld	a5,-88(s0)
	j	.L57
.L55:
	.loc 1 472 18
	ld	a5,-80(s0)
	ld	a5,64(a5)
	sd	a5,-96(s0)
	.loc 1 473 27
	ld	a5,-96(s0)
	sb	zero,1(a5)
	.loc 1 474 42
	lw	a4,-196(s0)
	.loc 1 474 30
	ld	a5,-96(s0)
	sw	a4,4(a5)
	.loc 1 475 77
	ld	a5,-184(s0)
	.loc 1 475 48
	mv	a0,a5
	call	GetDevicePathSize@plt
	mv	a5,a0
	.loc 1 475 40 discriminator 1
	slli	a4,a5,48
	srli	a4,a4,48
	.loc 1 475 38 discriminator 1
	ld	a5,-96(s0)
	sh	a4,8(a5)
	.loc 1 477 68
	ld	a4,-64(s0)
	li	a5,4096
	addi	a5,a5,-1434
	add	a5,a4,a5
	.loc 1 477 33
	mv	a0,a5
	call	StrSize@plt
	mv	a5,a0
	.loc 1 477 33 is_stmt 0 discriminator 1
	mv	a0,a5
	call	AllocateZeroPool@plt
	mv	a4,a0
	.loc 1 477 31 is_stmt 1 discriminator 2
	ld	a5,-96(s0)
	sd	a4,16(a5)
	.loc 1 480 47
	ld	a5,-96(s0)
	ld	a4,16(a5)
	.loc 1 480 31
	ld	a5,-80(s0)
	sd	a4,32(a5)
	.loc 1 483 19
	ld	a5,-96(s0)
	ld	s1,16(a5)
	.loc 1 484 15
	ld	s2,-192(s0)
	.loc 1 485 22
	ld	a4,-64(s0)
	li	a5,4096
	addi	a5,a5,-1434
	add	a5,a4,a5
	.loc 1 482 3
	mv	a0,a5
	call	StrSize@plt
	mv	a5,a0
	.loc 1 482 3 is_stmt 0 discriminator 1
	mv	a2,a5
	mv	a1,s2
	mv	a0,s1
	call	CopyMem@plt
	.loc 1 488 83 is_stmt 1
	ld	a5,-216(s0)
	ld	a5,80(a5)
	.loc 1 488 96
	ld	a5,24(a5)
	.loc 1 488 34
	mv	a0,a5
	call	GetDevicePathSize@plt
	mv	a5,a0
	.loc 1 488 34 is_stmt 0 discriminator 1
	mv	a0,a5
	call	AllocateZeroPool@plt
	mv	a4,a0
	.loc 1 488 32 is_stmt 1 discriminator 2
	ld	a5,-96(s0)
	sd	a4,24(a5)
	.loc 1 491 19
	ld	a5,-96(s0)
	ld	s1,24(a5)
	.loc 1 492 15
	ld	s2,-184(s0)
	.loc 1 493 36
	ld	a5,-216(s0)
	ld	a5,80(a5)
	.loc 1 493 49
	ld	a5,24(a5)
	.loc 1 490 3
	mv	a0,a5
	call	GetDevicePathSize@plt
	mv	a5,a0
	.loc 1 490 3 is_stmt 0 discriminator 1
	mv	a2,a5
	mv	a1,s2
	mv	a0,s1
	call	CopyMem@plt
	.loc 1 496 30 is_stmt 1
	ld	a5,-96(s0)
	ld	a5,24(a5)
	mv	a0,a5
	call	UiDevicePathToStr@plt
	mv	a4,a0
	.loc 1 496 28 discriminator 1
	ld	a5,-80(s0)
	sd	a4,40(a5)
	.loc 1 497 30
	lhu	a4,-66(s0)
	ld	a5,-80(s0)
	sd	a4,24(a5)
	.loc 1 498 38
	ld	a5,-216(s0)
	ld	a4,8(a5)
	.loc 1 498 95
	ld	a5,-80(s0)
	ld	a5,32(a5)
	.loc 1 498 38
	li	a3,0
	mv	a2,a5
	li	a1,0
	mv	a0,a4
	call	HiiSetString@plt
	mv	a5,a0
	mv	a4,a5
	.loc 1 498 36 discriminator 1
	ld	a5,-80(s0)
	sh	a4,48(a5)
	.loc 1 499 35
	ld	a5,-216(s0)
	ld	a4,8(a5)
	.loc 1 499 92
	ld	a5,-80(s0)
	ld	a5,40(a5)
	.loc 1 499 35
	li	a3,0
	mv	a2,a5
	li	a1,0
	mv	a0,a4
	call	HiiSetString@plt
	mv	a5,a0
	mv	a4,a5
	.loc 1 499 33 discriminator 1
	ld	a5,-80(s0)
	sh	a4,50(a5)
	.loc 1 501 6
	lbu	a5,-33(s0)
	andi	a5,a5,0xff
	beq	a5,zero,.L56
	.loc 1 502 64
	lw	a5,-168(s0)
	.loc 1 502 36
	slli	a5,a5,32
	srli	a5,a5,32
	mv	a0,a5
	call	AllocateZeroPool@plt
	mv	a4,a0
	.loc 1 502 34 discriminator 1
	ld	a5,-96(s0)
	sd	a4,32(a5)
	.loc 1 505 21
	ld	a5,-96(s0)
	ld	a5,32(a5)
	.loc 1 506 17
	ld	a4,-176(s0)
	.loc 1 507 17
	lw	a3,-168(s0)
	.loc 1 504 5
	slli	a3,a3,32
	srli	a3,a3,32
	mv	a2,a3
	mv	a1,a4
	mv	a0,a5
	call	CopyMem@plt
.L56:
	.loc 1 511 3
	ld	a5,-80(s0)
	addi	a5,a5,8
	mv	a1,a5
	la	a5,BootOptionMenu
	addi	a0,a5,8
	call	InsertTailList@plt
	.loc 1 512 17
	la	a5,BootOptionMenu
	ld	a5,24(a5)
	.loc 1 512 28
	addi	a4,a5,1
	la	a5,BootOptionMenu
	sd	a4,24(a5)
	.loc 1 514 3
	addi	a5,s0,-208
	mv	a0,a5
	call	EfiBootManagerFreeLoadOption@plt
	.loc 1 516 10
	li	a5,0
.L57:
	.loc 1 517 1
	mv	a0,a5
	ld	ra,216(sp)
	.cfi_restore 1
	ld	s0,208(sp)
	.cfi_restore 8
	.cfi_def_cfa 2, 224
	ld	s1,200(sp)
	.cfi_restore 9
	ld	s2,192(sp)
	.cfi_restore 18
	addi	sp,sp,224
	.cfi_def_cfa_offset 0
	jr	ra
	.cfi_endproc
.LFE7:
	.size	Var_UpdateBootOption, .-Var_UpdateBootOption
	.section	.text.Var_UpdateBootNext,"ax",@progbits
	.align	1
	.globl	Var_UpdateBootNext
	.type	Var_UpdateBootNext, @function
Var_UpdateBootNext:
.LFB8:
	.loc 1 536 1
	.cfi_startproc
	addi	sp,sp,-80
	.cfi_def_cfa_offset 80
	sd	ra,72(sp)
	sd	s0,64(sp)
	.cfi_offset 1, -8
	.cfi_offset 8, -16
	addi	s0,sp,80
	.cfi_def_cfa 8, 0
	sd	a0,-72(s0)
	.loc 1 543 10
	sd	zero,-32(s0)
	.loc 1 544 20
	ld	a5,-72(s0)
	addi	a5,a5,112
	sd	a5,-40(s0)
	.loc 1 545 14
	sh	zero,-18(s0)
	.loc 1 545 3
	j	.L59
.L60:
	.loc 1 546 20
	lhu	a5,-18(s0)
	mv	a1,a5
	la	a0,BootOptionMenu
	call	BOpt_GetMenuEntry@plt
	sd	a0,-48(s0)
	.loc 1 549 20
	ld	a5,-48(s0)
	ld	a5,64(a5)
	sd	a5,-56(s0)
	.loc 1 550 32
	ld	a5,-56(s0)
	sb	zero,0(a5)
	.loc 1 545 59 discriminator 3
	lhu	a5,-18(s0)
	addiw	a5,a5,1
	sh	a5,-18(s0)
.L59:
	.loc 1 545 25 discriminator 1
	lhu	a4,-18(s0)
	.loc 1 545 41 discriminator 1
	la	a5,BootOptionMenu
	ld	a5,24(a5)
	.loc 1 545 25 discriminator 1
	bltu	a4,a5,.L60
	.loc 1 553 23
	ld	a5,-40(s0)
	lw	a4,4(a5)
	.loc 1 553 6
	li	a5,65536
	bne	a4,a5,.L61
	.loc 1 554 5
	la	a1,gEfiGlobalVariableGuid
	lla	a0,.LC0
	call	EfiLibDeleteVariable@plt
	.loc 1 555 12
	li	a5,0
	j	.L62
.L61:
	.loc 1 560 36
	ld	a5,-40(s0)
	lw	a5,4(a5)
	.loc 1 558 18
	slli	a5,a5,32
	srli	a5,a5,32
	mv	a1,a5
	la	a0,BootOptionMenu
	call	BOpt_GetMenuEntry@plt
	sd	a0,-48(s0)
	.loc 1 564 18
	ld	a5,-48(s0)
	ld	a5,64(a5)
	sd	a5,-56(s0)
	.loc 1 565 15
	la	a5,gRT
	ld	a5,0(a5)
	ld	a5,88(a5)
	.loc 1 570 27
	ld	a4,-48(s0)
	addi	a4,a4,24
	.loc 1 565 12
	li	a3,2
	li	a2,7
	la	a1,gEfiGlobalVariableGuid
	lla	a0,.LC0
	jalr	a5
.LVL1:
	sd	a0,-32(s0)
	.loc 1 572 30
	ld	a5,-56(s0)
	li	a4,1
	sb	a4,0(a5)
	.loc 1 573 61
	ld	a5,-40(s0)
	lw	a4,4(a5)
	.loc 1 573 43
	ld	a3,-72(s0)
	li	a5,4096
	add	a5,a3,a5
	sw	a4,-404(a5)
	.loc 1 574 10
	ld	a5,-32(s0)
.L62:
	.loc 1 575 1
	mv	a0,a5
	ld	ra,72(sp)
	.cfi_restore 1
	ld	s0,64(sp)
	.cfi_restore 8
	.cfi_def_cfa 2, 80
	addi	sp,sp,80
	.cfi_def_cfa_offset 0
	jr	ra
	.cfi_endproc
.LFE8:
	.size	Var_UpdateBootNext, .-Var_UpdateBootNext
	.section	.rodata
	.align	3
.LC6:
	.string	"B"
	.string	"o"
	.string	"o"
	.string	"t"
	.string	"O"
	.string	"r"
	.string	"d"
	.string	"e"
	.string	"r"
	.zero	2
	.section	.text.Var_UpdateBootOrder,"ax",@progbits
	.align	1
	.globl	Var_UpdateBootOrder
	.type	Var_UpdateBootOrder, @function
Var_UpdateBootOrder:
.LFB9:
	.loc 1 593 1
	.cfi_startproc
	addi	sp,sp,-64
	.cfi_def_cfa_offset 64
	sd	ra,56(sp)
	sd	s0,48(sp)
	.cfi_offset 1, -8
	.cfi_offset 8, -16
	addi	s0,sp,64
	.cfi_def_cfa 8, 0
	sd	a0,-56(s0)
	.loc 1 604 3
	addi	a4,s0,-48
	addi	a5,s0,-40
	mv	a2,a4
	mv	a1,a5
	lla	a0,.LC6
	call	GetEfiGlobalVariable2@plt
	.loc 1 605 17
	ld	a5,-40(s0)
	.loc 1 605 6
	bne	a5,zero,.L64
	.loc 1 606 12
	li	a5,-1
	slli	a5,a5,63
	addi	a5,a5,9
	j	.L72
.L64:
	.loc 1 614 19
	sh	zero,-20(s0)
	.loc 1 614 3
	j	.L66
.L71:
	.loc 1 615 16
	lhu	a5,-20(s0)
	sh	a5,-18(s0)
	.loc 1 615 5
	j	.L67
.L69:
	.loc 1 616 21
	ld	a4,-40(s0)
	lhu	a5,-18(s0)
	slli	a5,a5,1
	add	a5,a4,a5
	lhu	a3,0(a5)
	.loc 1 616 84
	lhu	a5,-20(s0)
	sext.w	a5,a5
	ld	a4,-56(s0)
	addi	a5,a5,232
	slli	a5,a5,2
	add	a5,a4,a5
	lw	a5,12(a5)
	.loc 1 616 32
	slli	a5,a5,48
	srli	a5,a5,48
	addiw	a5,a5,-1
	slli	a5,a5,48
	srli	a5,a5,48
	.loc 1 616 10
	sext.w	a4,a3
	sext.w	a5,a5
	bne	a4,a5,.L68
	.loc 1 616 103 discriminator 1
	lhu	a4,-20(s0)
	lhu	a5,-18(s0)
	sext.w	a4,a4
	sext.w	a5,a5
	beq	a4,a5,.L68
	.loc 1 617 33
	ld	a4,-40(s0)
	lhu	a5,-18(s0)
	slli	a5,a5,1
	add	a5,a4,a5
	.loc 1 617 22
	lhu	a5,0(a5)
	sh	a5,-22(s0)
	.loc 1 618 9
	ld	a4,-40(s0)
	.loc 1 618 28
	lhu	a5,-20(s0)
	addi	a5,a5,1
	slli	a5,a5,1
	.loc 1 618 18
	add	a3,a4,a5
	.loc 1 618 9
	ld	a4,-40(s0)
	.loc 1 618 56
	lhu	a5,-20(s0)
	slli	a5,a5,1
	.loc 1 618 46
	add	a1,a4,a5
	.loc 1 618 77
	lhu	a5,-18(s0)
	sext.w	a4,a5
	lhu	a5,-20(s0)
	sext.w	a5,a5
	subw	a5,a4,a5
	sext.w	a5,a5
	.loc 1 618 91
	slli	a5,a5,1
	.loc 1 618 9
	mv	a2,a5
	mv	a0,a3
	call	CopyMem@plt
	.loc 1 619 18
	ld	a4,-40(s0)
	lhu	a5,-20(s0)
	slli	a5,a5,1
	add	a5,a4,a5
	.loc 1 619 31
	lhu	a4,-22(s0)
	sh	a4,0(a5)
.L68:
	.loc 1 615 76 discriminator 2
	lhu	a5,-18(s0)
	addiw	a5,a5,1
	sh	a5,-18(s0)
.L67:
	.loc 1 615 36 discriminator 1
	lhu	a4,-18(s0)
	.loc 1 615 52 discriminator 1
	ld	a5,-48(s0)
	srli	a5,a5,1
	.loc 1 615 36 discriminator 1
	bltu	a4,a5,.L69
	.loc 1 614 142 discriminator 2
	lhu	a5,-20(s0)
	addiw	a5,a5,1
	sh	a5,-20(s0)
.L66:
	.loc 1 614 36 discriminator 1
	lhu	a4,-20(s0)
	.loc 1 614 52 discriminator 1
	la	a5,BootOptionMenu
	ld	a5,24(a5)
	.loc 1 614 65 discriminator 1
	bgeu	a4,a5,.L70
	.loc 1 614 112 discriminator 3
	lhu	a5,-20(s0)
	sext.w	a5,a5
	ld	a4,-56(s0)
	addi	a5,a5,232
	slli	a5,a5,2
	add	a5,a4,a5
	lw	a5,12(a5)
	.loc 1 614 65 discriminator 3
	bne	a5,zero,.L71
.L70:
	.loc 1 624 15
	la	a5,gRT
	ld	a5,0(a5)
	ld	a5,88(a5)
	.loc 1 624 12
	ld	a3,-48(s0)
	ld	a4,-40(s0)
	li	a2,7
	la	a1,gEfiGlobalVariableGuid
	lla	a0,.LC6
	jalr	a5
.LVL2:
	sd	a0,-32(s0)
	.loc 1 631 3
	ld	a5,-40(s0)
	mv	a0,a5
	call	FreePool@plt
	.loc 1 633 3
	la	a0,BootOptionMenu
	call	BOpt_FreeMenu@plt
	.loc 1 634 3
	ld	a0,-56(s0)
	call	BOpt_GetBootOptions@plt
	.loc 1 636 10
	ld	a5,-32(s0)
.L72:
	.loc 1 637 1
	mv	a0,a5
	ld	ra,56(sp)
	.cfi_restore 1
	ld	s0,48(sp)
	.cfi_restore 8
	.cfi_def_cfa 2, 64
	addi	sp,sp,64
	.cfi_def_cfa_offset 0
	jr	ra
	.cfi_endproc
.LFE9:
	.size	Var_UpdateBootOrder, .-Var_UpdateBootOrder
	.section	.rodata
	.align	3
.LC7:
	.string	"D"
	.string	"r"
	.string	"i"
	.string	"v"
	.string	"e"
	.string	"r"
	.string	"O"
	.string	"r"
	.string	"d"
	.string	"e"
	.string	"r"
	.zero	2
	.section	.text.Var_UpdateDriverOrder,"ax",@progbits
	.align	1
	.globl	Var_UpdateDriverOrder
	.type	Var_UpdateDriverOrder, @function
Var_UpdateDriverOrder:
.LFB10:
	.loc 1 655 1
	.cfi_startproc
	addi	sp,sp,-80
	.cfi_def_cfa_offset 80
	sd	ra,72(sp)
	sd	s0,64(sp)
	.cfi_offset 1, -8
	.cfi_offset 8, -16
	addi	s0,sp,80
	.cfi_def_cfa 8, 0
	sd	a0,-72(s0)
	.loc 1 662 19
	sd	zero,-48(s0)
	.loc 1 663 23
	sd	zero,-56(s0)
	.loc 1 668 3
	addi	a4,s0,-56
	addi	a5,s0,-48
	mv	a2,a4
	mv	a1,a5
	lla	a0,.LC7
	call	GetEfiGlobalVariable2@plt
	.loc 1 669 24
	ld	a5,-56(s0)
	mv	a0,a5
	call	AllocateZeroPool@plt
	sd	a0,-32(s0)
	.loc 1 671 6
	ld	a5,-32(s0)
	bne	a5,zero,.L74
	.loc 1 672 12
	li	a5,-1
	slli	a5,a5,63
	addi	a5,a5,9
	j	.L80
.L74:
	.loc 1 678 23
	ld	a5,-48(s0)
	.loc 1 678 6
	beq	a5,zero,.L76
	.loc 1 679 5
	la	a1,gEfiGlobalVariableGuid
	lla	a0,.LC7
	call	EfiLibDeleteVariable@plt
	.loc 1 680 5
	ld	a5,-48(s0)
	mv	a0,a5
	call	FreePool@plt
.L76:
	.loc 1 684 14
	sh	zero,-18(s0)
	.loc 1 684 3
	j	.L77
.L78:
	.loc 1 685 87
	lhu	a5,-18(s0)
	sext.w	a5,a5
	ld	a4,-72(s0)
	addi	a5,a5,332
	slli	a5,a5,2
	add	a5,a4,a5
	lw	a5,12(a5)
	.loc 1 685 33
	slli	a4,a5,48
	srli	a4,a4,48
	.loc 1 685 23
	lhu	a5,-18(s0)
	slli	a5,a5,1
	ld	a3,-32(s0)
	add	a5,a3,a5
	.loc 1 685 33
	addiw	a4,a4,-1
	slli	a4,a4,48
	srli	a4,a4,48
	.loc 1 685 31
	sh	a4,0(a5)
	.loc 1 684 61 discriminator 3
	lhu	a5,-18(s0)
	addiw	a5,a5,1
	sh	a5,-18(s0)
.L77:
	.loc 1 684 25 discriminator 1
	lhu	a4,-18(s0)
	.loc 1 684 43 discriminator 1
	la	a5,DriverOptionMenu
	ld	a5,24(a5)
	.loc 1 684 25 discriminator 1
	bltu	a4,a5,.L78
	.loc 1 688 15
	la	a5,gRT
	ld	a5,0(a5)
	ld	a5,88(a5)
	.loc 1 688 12
	ld	a3,-56(s0)
	ld	a4,-32(s0)
	li	a2,7
	la	a1,gEfiGlobalVariableGuid
	lla	a0,.LC7
	jalr	a5
.LVL3:
	sd	a0,-40(s0)
	.loc 1 695 34
	ld	a5,-40(s0)
	.loc 1 695 6
	bge	a5,zero,.L79
	.loc 1 696 12
	ld	a5,-40(s0)
	j	.L80
.L79:
	.loc 1 699 3
	la	a0,DriverOptionMenu
	call	BOpt_FreeMenu@plt
	.loc 1 700 3
	ld	a0,-72(s0)
	call	BOpt_GetDriverOptions@plt
	.loc 1 701 10
	li	a5,0
.L80:
	.loc 1 702 1
	mv	a0,a5
	ld	ra,72(sp)
	.cfi_restore 1
	ld	s0,64(sp)
	.cfi_restore 8
	.cfi_def_cfa 2, 80
	addi	sp,sp,80
	.cfi_def_cfa_offset 0
	jr	ra
	.cfi_endproc
.LFE10:
	.size	Var_UpdateDriverOrder, .-Var_UpdateDriverOrder
	.section	.text.Var_UpdateConMode,"ax",@progbits
	.align	1
	.globl	Var_UpdateConMode
	.type	Var_UpdateConMode, @function
Var_UpdateConMode:
.LFB11:
	.loc 1 717 1
	.cfi_startproc
	addi	sp,sp,-64
	.cfi_def_cfa_offset 64
	sd	ra,56(sp)
	sd	s0,48(sp)
	.cfi_offset 1, -8
	.cfi_offset 8, -16
	addi	s0,sp,64
	.cfi_def_cfa 8, 0
	sd	a0,-56(s0)
	.loc 1 722 37
	ld	a4,-56(s0)
	li	a5,4096
	add	a5,a4,a5
	lhu	a5,-1324(a5)
	.loc 1 722 8
	sd	a5,-32(s0)
	.loc 1 724 15
	la	a5,gST
	ld	a5,0(a5)
	ld	a5,64(a5)
	.loc 1 724 23
	ld	a5,24(a5)
	.loc 1 724 39
	la	a4,gST
	ld	a4,0(a4)
	.loc 1 724 12
	ld	a0,64(a4)
	addi	a4,s0,-48
	addi	a3,a4,8
	addi	a4,s0,-48
	mv	a2,a4
	ld	a1,-32(s0)
	jalr	a5
.LVL4:
	sd	a0,-24(s0)
	.loc 1 725 7
	ld	a5,-24(s0)
	.loc 1 725 6
	blt	a5,zero,.L82
	.loc 1 726 75
	ld	a5,-48(s0)
	.loc 1 726 59
	sext.w	a4,a5
	.loc 1 726 55
	la	a5,_gPcd_BinaryPatch_PcdSetupConOutColumn
	sw	a4,0(a5)
	.loc 1 726 12
	sd	zero,-24(s0)
	.loc 1 727 9
	ld	a5,-24(s0)
	.loc 1 727 8
	blt	a5,zero,.L82
	.loc 1 728 74
	ld	a5,-40(s0)
	.loc 1 728 58
	sext.w	a4,a5
	.loc 1 728 54
	la	a5,_gPcd_BinaryPatch_PcdSetupConOutRow
	sw	a4,0(a5)
	.loc 1 728 14
	sd	zero,-24(s0)
.L82:
	.loc 1 732 10
	ld	a5,-24(s0)
	.loc 1 733 1
	mv	a0,a5
	ld	ra,56(sp)
	.cfi_restore 1
	ld	s0,48(sp)
	.cfi_restore 8
	.cfi_def_cfa 2, 64
	addi	sp,sp,64
	.cfi_def_cfa_offset 0
	jr	ra
	.cfi_endproc
.LFE11:
	.size	Var_UpdateConMode, .-Var_UpdateConMode
	.text
.Letext0:
	.file 2 "/home/kapoagaeming/Downloads/spacemit-image-builder/components/edk2/MdePkg/Include/RiscV64/ProcessorBind.h"
	.file 3 "/home/kapoagaeming/Downloads/spacemit-image-builder/components/edk2/MdePkg/Include/Base.h"
	.file 4 "/home/kapoagaeming/Downloads/spacemit-image-builder/components/edk2/MdePkg/Include/Uefi/UefiBaseType.h"
	.file 5 "/home/kapoagaeming/Downloads/spacemit-image-builder/components/edk2/MdePkg/Include/Uefi/UefiMultiPhase.h"
	.file 6 "/home/kapoagaeming/Downloads/spacemit-image-builder/components/edk2/MdePkg/Include/Protocol/DevicePath.h"
	.file 7 "/home/kapoagaeming/Downloads/spacemit-image-builder/components/edk2/MdePkg/Include/Protocol/SimpleTextIn.h"
	.file 8 "/home/kapoagaeming/Downloads/spacemit-image-builder/components/edk2/MdePkg/Include/Protocol/SimpleTextOut.h"
	.file 9 "/home/kapoagaeming/Downloads/spacemit-image-builder/components/edk2/MdePkg/Include/Uefi/UefiSpec.h"
	.file 10 "/home/kapoagaeming/Downloads/spacemit-image-builder/components/edk2/MdePkg/Include/Uefi/UefiInternalFormRepresentation.h"
	.file 11 "/home/kapoagaeming/Downloads/spacemit-image-builder/components/Build/Milk-V-Jupiter/RELEASE_GCC5/RISCV64/MdeModulePkg/Library/BootMaintenanceManagerUiLib/BootMaintenanceManagerUiLib/DEBUG/AutoGen.h"
	.file 12 "/home/kapoagaeming/Downloads/spacemit-image-builder/components/edk2/MdeModulePkg/Library/BootMaintenanceManagerUiLib/FormGuid.h"
	.file 13 "/home/kapoagaeming/Downloads/spacemit-image-builder/components/edk2/MdePkg/Include/Guid/FileSystemVolumeLabelInfo.h"
	.file 14 "/home/kapoagaeming/Downloads/spacemit-image-builder/components/edk2/MdePkg/Include/Protocol/FormBrowser2.h"
	.file 15 "/home/kapoagaeming/Downloads/spacemit-image-builder/components/edk2/MdePkg/Include/Protocol/HiiConfigAccess.h"
	.file 16 "/home/kapoagaeming/Downloads/spacemit-image-builder/components/edk2/MdePkg/Include/Protocol/SimpleFileSystem.h"
	.file 17 "/home/kapoagaeming/Downloads/spacemit-image-builder/components/edk2/MdePkg/Include/Library/UefiBootServicesTableLib.h"
	.file 18 "/home/kapoagaeming/Downloads/spacemit-image-builder/components/edk2/MdePkg/Include/Library/UefiRuntimeServicesTableLib.h"
	.file 19 "/home/kapoagaeming/Downloads/spacemit-image-builder/components/edk2/MdeModulePkg/Include/Library/UefiBootManagerLib.h"
	.file 20 "/home/kapoagaeming/Downloads/spacemit-image-builder/components/edk2/MdeModulePkg/Library/BootMaintenanceManagerUiLib/BootMaintenanceManager.h"
	.file 21 "/home/kapoagaeming/Downloads/spacemit-image-builder/components/edk2/MdePkg/Include/Library/BaseLib.h"
	.file 22 "/home/kapoagaeming/Downloads/spacemit-image-builder/components/edk2/MdeModulePkg/Include/Library/HiiLib.h"
	.file 23 "/home/kapoagaeming/Downloads/spacemit-image-builder/components/edk2/MdePkg/Include/Library/MemoryAllocationLib.h"
	.file 24 "/home/kapoagaeming/Downloads/spacemit-image-builder/components/edk2/MdePkg/Include/Library/PrintLib.h"
	.file 25 "/home/kapoagaeming/Downloads/spacemit-image-builder/components/edk2/MdePkg/Include/Library/DevicePathLib.h"
	.file 26 "/home/kapoagaeming/Downloads/spacemit-image-builder/components/edk2/MdePkg/Include/Library/BaseMemoryLib.h"
	.file 27 "/home/kapoagaeming/Downloads/spacemit-image-builder/components/edk2/MdePkg/Include/Library/UefiLib.h"
	.section	.note.GNU-stack,"",@progbits
