	.file	"Service.c"
	.option pic
	.option norelax
	.attribute arch, "rv64i2p1_m2p0_a2p1_f2p2_d2p2_c2p0_zicsr2p0_zifencei2p0_zmmul1p0_zaamo1p0_zalrsc1p0_zca1p0_zcd1p0"
	.attribute unaligned_access, 0
	.attribute stack_align, 16
	.text
.Ltext0:
	.cfi_sections	.debug_frame
	.file 0 "/home/kapoagaeming/spacemit-image-builder/components/Build/Milk-V-Jupiter/RELEASE_GCC5/RISCV64/MdeModulePkg/Universal/PCD/Dxe/Pcd" "/home/kapoagaeming/spacemit-image-builder/components/edk2/MdeModulePkg/Universal/PCD/Dxe/Service.c"
	.globl	mPcdDatabase
	.section	.bss.mPcdDatabase,"aw",@nobits
	.align	3
	.type	mPcdDatabase, @object
	.size	mPcdDatabase, 16
mPcdDatabase:
	.zero	16
	.globl	mPcdTotalTokenCount
	.section	.bss.mPcdTotalTokenCount,"aw",@nobits
	.align	2
	.type	mPcdTotalTokenCount, @object
	.size	mPcdTotalTokenCount, 4
mPcdTotalTokenCount:
	.zero	4
	.globl	mPeiLocalTokenCount
	.section	.bss.mPeiLocalTokenCount,"aw",@nobits
	.align	2
	.type	mPeiLocalTokenCount, @object
	.size	mPeiLocalTokenCount, 4
mPeiLocalTokenCount:
	.zero	4
	.globl	mDxeLocalTokenCount
	.section	.bss.mDxeLocalTokenCount,"aw",@nobits
	.align	2
	.type	mDxeLocalTokenCount, @object
	.size	mDxeLocalTokenCount, 4
mDxeLocalTokenCount:
	.zero	4
	.globl	mPeiNexTokenCount
	.section	.bss.mPeiNexTokenCount,"aw",@nobits
	.align	2
	.type	mPeiNexTokenCount, @object
	.size	mPeiNexTokenCount, 4
mPeiNexTokenCount:
	.zero	4
	.globl	mDxeNexTokenCount
	.section	.bss.mDxeNexTokenCount,"aw",@nobits
	.align	2
	.type	mDxeNexTokenCount, @object
	.size	mDxeNexTokenCount, 4
mDxeNexTokenCount:
	.zero	4
	.globl	mPeiExMapppingTableSize
	.section	.bss.mPeiExMapppingTableSize,"aw",@nobits
	.align	2
	.type	mPeiExMapppingTableSize, @object
	.size	mPeiExMapppingTableSize, 4
mPeiExMapppingTableSize:
	.zero	4
	.globl	mDxeExMapppingTableSize
	.section	.bss.mDxeExMapppingTableSize,"aw",@nobits
	.align	2
	.type	mDxeExMapppingTableSize, @object
	.size	mDxeExMapppingTableSize, 4
mDxeExMapppingTableSize:
	.zero	4
	.globl	mPeiGuidTableSize
	.section	.bss.mPeiGuidTableSize,"aw",@nobits
	.align	2
	.type	mPeiGuidTableSize, @object
	.size	mPeiGuidTableSize, 4
mPeiGuidTableSize:
	.zero	4
	.globl	mDxeGuidTableSize
	.section	.bss.mDxeGuidTableSize,"aw",@nobits
	.align	2
	.type	mDxeGuidTableSize, @object
	.size	mDxeGuidTableSize, 4
mDxeGuidTableSize:
	.zero	4
	.globl	mPeiExMapTableEmpty
	.section	.bss.mPeiExMapTableEmpty,"aw",@nobits
	.type	mPeiExMapTableEmpty, @object
	.size	mPeiExMapTableEmpty, 1
mPeiExMapTableEmpty:
	.zero	1
	.globl	mDxeExMapTableEmpty
	.section	.bss.mDxeExMapTableEmpty,"aw",@nobits
	.type	mDxeExMapTableEmpty, @object
	.size	mDxeExMapTableEmpty, 1
mDxeExMapTableEmpty:
	.zero	1
	.globl	mPeiDatabaseEmpty
	.section	.bss.mPeiDatabaseEmpty,"aw",@nobits
	.type	mPeiDatabaseEmpty, @object
	.size	mPeiDatabaseEmpty, 1
mPeiDatabaseEmpty:
	.zero	1
	.globl	mCallbackFnTable
	.section	.bss.mCallbackFnTable,"aw",@nobits
	.align	3
	.type	mCallbackFnTable, @object
	.size	mCallbackFnTable, 8
mCallbackFnTable:
	.zero	8
	.globl	TmpTokenSpaceBuffer
	.section	.bss.TmpTokenSpaceBuffer,"aw",@nobits
	.align	3
	.type	TmpTokenSpaceBuffer, @object
	.size	TmpTokenSpaceBuffer, 8
TmpTokenSpaceBuffer:
	.zero	8
	.globl	TmpTokenSpaceBufferCount
	.section	.bss.TmpTokenSpaceBufferCount,"aw",@nobits
	.align	3
	.type	TmpTokenSpaceBufferCount, @object
	.size	TmpTokenSpaceBufferCount, 8
TmpTokenSpaceBufferCount:
	.zero	8
	.globl	mPeiPcdDbSize
	.section	.bss.mPeiPcdDbSize,"aw",@nobits
	.align	3
	.type	mPeiPcdDbSize, @object
	.size	mPeiPcdDbSize, 8
mPeiPcdDbSize:
	.zero	8
	.globl	mPeiPcdDbBinary
	.section	.bss.mPeiPcdDbBinary,"aw",@nobits
	.align	3
	.type	mPeiPcdDbBinary, @object
	.size	mPeiPcdDbBinary, 8
mPeiPcdDbBinary:
	.zero	8
	.globl	mDxePcdDbSize
	.section	.bss.mDxePcdDbSize,"aw",@nobits
	.align	3
	.type	mDxePcdDbSize, @object
	.size	mDxePcdDbSize, 8
mDxePcdDbSize:
	.zero	8
	.globl	mDxePcdDbBinary
	.section	.bss.mDxePcdDbBinary,"aw",@nobits
	.align	3
	.type	mDxePcdDbBinary, @object
	.size	mDxePcdDbBinary, 8
mDxePcdDbBinary:
	.zero	8
	.section	.text.GetLocalTokenNumber,"ax",@progbits
	.align	1
	.globl	GetLocalTokenNumber
	.type	GetLocalTokenNumber, @function
GetLocalTokenNumber:
.LFB0:
	.file 1 "/home/kapoagaeming/spacemit-image-builder/components/edk2/MdeModulePkg/Universal/PCD/Dxe/Service.c"
	.loc 1 53 1
	.cfi_startproc
	addi	sp,sp,-48
	.cfi_def_cfa_offset 48
	sd	ra,40(sp)
	sd	s0,32(sp)
	.cfi_offset 1, -8
	.cfi_offset 8, -16
	addi	s0,sp,48
	.cfi_def_cfa 8, 0
	mv	a5,a0
	sd	a1,-48(s0)
	sb	a5,-33(s0)
	.loc 1 61 14
	ld	a5,-48(s0)
	addi	a5,a5,-1
	sd	a5,-48(s0)
	.loc 1 63 127
	lbu	a5,-33(s0)
	andi	a5,a5,0xff
	beq	a5,zero,.L2
	.loc 1 63 69 discriminator 1
	lla	a5,mPcdDatabase
	ld	a4,0(a5)
	.loc 1 63 90 discriminator 1
	lla	a5,mPcdDatabase
	ld	a5,0(a5)
	.loc 1 63 96 discriminator 1
	lw	a5,40(a5)
	slli	a5,a5,32
	srli	a5,a5,32
	.loc 1 63 25 discriminator 1
	add	a5,a4,a5
	sd	a5,-24(s0)
	j	.L3
.L2:
	.loc 1 64 59
	lla	a5,mPcdDatabase
	ld	a4,8(a5)
	.loc 1 64 80
	lla	a5,mPcdDatabase
	ld	a5,8(a5)
	.loc 1 64 86
	lw	a5,40(a5)
	slli	a5,a5,32
	srli	a5,a5,32
	.loc 1 63 25 discriminator 2
	add	a5,a4,a5
	sd	a5,-24(s0)
.L3:
	.loc 1 65 39
	lbu	a5,-33(s0)
	andi	a5,a5,0xff
	bne	a5,zero,.L5
	.loc 1 65 53 discriminator 1
	lla	a5,mPeiLocalTokenCount
	lw	a5,0(a5)
	slli	a5,a5,32
	srli	a5,a5,32
	.loc 1 65 15 discriminator 1
	ld	a4,-48(s0)
	sub	a5,a4,a5
	sd	a5,-48(s0)
.L5:
	.loc 1 67 31
	ld	a5,-48(s0)
	slli	a5,a5,2
	ld	a4,-24(s0)
	add	a5,a4,a5
	lw	a5,0(a5)
	.loc 1 68 1
	mv	a0,a5
	ld	ra,40(sp)
	.cfi_restore 1
	ld	s0,32(sp)
	.cfi_restore 8
	.cfi_def_cfa 2, 48
	addi	sp,sp,48
	.cfi_def_cfa_offset 0
	jr	ra
	.cfi_endproc
.LFE0:
	.size	GetLocalTokenNumber, .-GetLocalTokenNumber
	.section	.text.GetPcdType,"ax",@progbits
	.align	1
	.globl	GetPcdType
	.type	GetPcdType, @function
GetPcdType:
.LFB1:
	.loc 1 81 1
	.cfi_startproc
	addi	sp,sp,-32
	.cfi_def_cfa_offset 32
	sd	ra,24(sp)
	sd	s0,16(sp)
	.cfi_offset 1, -8
	.cfi_offset 8, -16
	addi	s0,sp,32
	.cfi_def_cfa 8, 0
	mv	a5,a0
	sw	a5,-20(s0)
	.loc 1 82 28
	lw	a5,-20(s0)
	mv	a4,a5
	li	a5,251658240
	and	a5,a4,a5
	sext.w	a5,a5
	.loc 1 82 3
	li	a4,134217728
	beq	a5,a4,.L8
	li	a4,134217728
	bgtu	a5,a4,.L9
	li	a4,67108864
	beq	a5,a4,.L10
	li	a4,67108864
	bgtu	a5,a4,.L9
	li	a4,33554432
	beq	a5,a4,.L11
	li	a4,33554432
	bgtu	a5,a4,.L9
	beq	a5,zero,.L12
	li	a4,16777216
	beq	a5,a4,.L13
	j	.L9
.L12:
	.loc 1 84 14
	li	a5,5
	j	.L14
.L13:
	.loc 1 86 29
	lw	a5,-20(s0)
	mv	a4,a5
	li	a5,1048576
	and	a5,a4,a5
	sext.w	a5,a5
	.loc 1 86 10
	beq	a5,zero,.L15
	.loc 1 87 16
	li	a5,4
	j	.L14
.L15:
	.loc 1 89 16
	li	a5,0
	j	.L14
.L11:
	.loc 1 93 14
	li	a5,1
	j	.L14
.L10:
	.loc 1 95 14
	li	a5,2
	j	.L14
.L8:
	.loc 1 97 14
	li	a5,3
	j	.L14
.L9:
	.loc 1 100 14
	li	a5,0
.L14:
	.loc 1 102 1
	mv	a0,a5
	ld	ra,24(sp)
	.cfi_restore 1
	ld	s0,16(sp)
	.cfi_restore 8
	.cfi_def_cfa 2, 32
	addi	sp,sp,32
	.cfi_def_cfa_offset 0
	jr	ra
	.cfi_endproc
.LFE1:
	.size	GetPcdType, .-GetPcdType
	.section	.text.GetPcdName,"ax",@progbits
	.align	1
	.globl	GetPcdName
	.type	GetPcdName, @function
GetPcdName:
.LFB2:
	.loc 1 121 1
	.cfi_startproc
	addi	sp,sp,-112
	.cfi_def_cfa_offset 112
	sd	ra,104(sp)
	sd	s0,96(sp)
	sd	s1,88(sp)
	.cfi_offset 1, -8
	.cfi_offset 8, -16
	.cfi_offset 9, -24
	addi	s0,sp,112
	.cfi_def_cfa 8, 0
	mv	a5,a0
	mv	a4,a1
	sd	a2,-112(s0)
	sb	a5,-97(s0)
	mv	a5,a4
	sb	a5,-98(s0)
	.loc 1 133 6
	lbu	a5,-98(s0)
	andi	a5,a5,0xff
	beq	a5,zero,.L17
	.loc 1 134 21
	lla	a5,mPcdDatabase
	ld	a5,0(a5)
	.loc 1 134 27
	lw	a5,64(a5)
	.loc 1 134 8
	bne	a5,zero,.L18
	.loc 1 135 14
	li	a5,0
	j	.L19
.L17:
	.loc 1 138 21
	lla	a5,mPcdDatabase
	ld	a5,8(a5)
	.loc 1 138 27
	lw	a5,64(a5)
	.loc 1 138 8
	bne	a5,zero,.L18
	.loc 1 139 14
	li	a5,0
	j	.L19
.L18:
	.loc 1 148 14
	ld	a5,-112(s0)
	addi	a5,a5,-1
	sd	a5,-112(s0)
	.loc 1 150 43
	lbu	a5,-98(s0)
	andi	a5,a5,0xff
	beq	a5,zero,.L20
	.loc 1 150 12 discriminator 1
	lla	a5,mPcdDatabase
	ld	a5,0(a5)
	sd	a5,-40(s0)
	j	.L21
.L20:
	.loc 1 150 12 is_stmt 0 discriminator 2
	lla	a5,mPcdDatabase
	ld	a5,8(a5)
	sd	a5,-40(s0)
.L21:
	.loc 1 151 39 is_stmt 1
	lbu	a5,-98(s0)
	andi	a5,a5,0xff
	bne	a5,zero,.L23
	.loc 1 151 53 discriminator 1
	lla	a5,mPeiLocalTokenCount
	lw	a5,0(a5)
	slli	a5,a5,32
	srli	a5,a5,32
	.loc 1 151 15 discriminator 1
	ld	a4,-112(s0)
	sub	a5,a4,a5
	sd	a5,-112(s0)
.L23:
	.loc 1 153 45
	ld	a5,-40(s0)
	lw	a5,52(a5)
	slli	a5,a5,32
	srli	a5,a5,32
	.loc 1 153 15
	ld	a4,-40(s0)
	add	a5,a4,a5
	sd	a5,-56(s0)
	.loc 1 158 65
	ld	a5,-40(s0)
	lw	a5,64(a5)
	slli	a4,a5,32
	srli	a4,a4,32
	.loc 1 158 87
	ld	a5,-112(s0)
	slli	a5,a5,3
	add	a5,a4,a5
	.loc 1 158 16
	ld	a4,-40(s0)
	add	a5,a4,a5
	sd	a5,-64(s0)
	.loc 1 159 54
	ld	a5,-64(s0)
	lw	a5,0(a5)
	slli	a5,a5,32
	srli	a5,a5,32
	.loc 1 159 18
	ld	a4,-56(s0)
	add	a5,a4,a5
	sd	a5,-72(s0)
	.loc 1 160 47
	ld	a5,-64(s0)
	lw	a5,4(a5)
	slli	a5,a5,32
	srli	a5,a5,32
	.loc 1 160 11
	ld	a4,-56(s0)
	add	a5,a4,a5
	sd	a5,-80(s0)
	.loc 1 162 6
	lbu	a5,-97(s0)
	andi	a5,a5,0xff
	beq	a5,zero,.L24
	.loc 1 166 12
	ld	a0,-72(s0)
	call	AsciiStrSize@plt
	mv	a5,a0
	.loc 1 166 12 is_stmt 0 discriminator 1
	ld	a1,-72(s0)
	mv	a0,a5
	call	AllocateCopyPool@plt
	sd	a0,-48(s0)
	j	.L25
.L24:
	.loc 1 171 16 is_stmt 1
	ld	a0,-72(s0)
	call	AsciiStrSize@plt
	mv	s1,a0
	.loc 1 171 48 discriminator 1
	ld	a0,-80(s0)
	call	AsciiStrSize@plt
	mv	a5,a0
	.loc 1 171 14 discriminator 2
	add	a5,s1,a5
	sd	a5,-88(s0)
	.loc 1 172 12
	ld	a0,-88(s0)
	call	AllocateZeroPool@plt
	sd	a0,-48(s0)
	.loc 1 177 5
	ld	a2,-72(s0)
	ld	a1,-88(s0)
	ld	a0,-48(s0)
	call	AsciiStrCatS@plt
	.loc 1 178 10
	ld	a0,-72(s0)
	call	AsciiStrSize@plt
	mv	a5,a0
	.loc 1 178 9 discriminator 1
	addi	a5,a5,-1
	ld	a4,-48(s0)
	add	a5,a4,a5
	.loc 1 178 58 discriminator 1
	li	a4,46
	sb	a4,0(a5)
	.loc 1 179 5
	ld	a2,-80(s0)
	ld	a1,-88(s0)
	ld	a0,-48(s0)
	call	AsciiStrCatS@plt
.L25:
	.loc 1 182 10
	ld	a5,-48(s0)
.L19:
	.loc 1 183 1
	mv	a0,a5
	ld	ra,104(sp)
	.cfi_restore 1
	ld	s0,96(sp)
	.cfi_restore 8
	.cfi_def_cfa 2, 112
	ld	s1,88(sp)
	.cfi_restore 9
	addi	sp,sp,112
	.cfi_def_cfa_offset 0
	jr	ra
	.cfi_endproc
.LFE2:
	.size	GetPcdName, .-GetPcdName
	.section	.text.ExGetPcdInfo,"ax",@progbits
	.align	1
	.globl	ExGetPcdInfo
	.type	ExGetPcdInfo, @function
ExGetPcdInfo:
.LFB3:
	.loc 1 208 1
	.cfi_startproc
	addi	sp,sp,-112
	.cfi_def_cfa_offset 112
	sd	ra,104(sp)
	sd	s0,96(sp)
	.cfi_offset 1, -8
	.cfi_offset 8, -16
	addi	s0,sp,112
	.cfi_def_cfa 8, 0
	mv	a5,a0
	sd	a1,-96(s0)
	sd	a2,-104(s0)
	sd	a3,-112(s0)
	sb	a5,-81(s0)
	.loc 1 217 43
	lbu	a5,-81(s0)
	andi	a5,a5,0xff
	beq	a5,zero,.L27
	.loc 1 217 12 discriminator 1
	lla	a5,mPcdDatabase
	ld	a5,0(a5)
	sd	a5,-24(s0)
	j	.L28
.L27:
	.loc 1 217 12 is_stmt 0 discriminator 2
	lla	a5,mPcdDatabase
	ld	a5,8(a5)
	sd	a5,-24(s0)
.L28:
	.loc 1 219 56 is_stmt 1
	ld	a5,-24(s0)
	lw	a5,48(a5)
	slli	a5,a5,32
	srli	a5,a5,32
	.loc 1 219 13
	ld	a4,-24(s0)
	add	a5,a4,a5
	sd	a5,-40(s0)
	.loc 1 220 44
	ld	a5,-24(s0)
	lhu	a5,72(a5)
	.loc 1 220 61
	slli	a5,a5,4
	.loc 1 220 15
	ld	a2,-96(s0)
	mv	a1,a5
	ld	a0,-40(s0)
	call	ScanGuid@plt
	sd	a0,-48(s0)
	.loc 1 222 6
	ld	a5,-48(s0)
	bne	a5,zero,.L29
	.loc 1 223 12
	li	a5,-1
	slli	a5,a5,63
	addi	a5,a5,14
	j	.L30
.L29:
	.loc 1 226 28
	ld	a4,-48(s0)
	ld	a5,-40(s0)
	sub	a5,a4,a5
	srai	a5,a5,4
	.loc 1 226 16
	sd	a5,-56(s0)
	.loc 1 228 66
	ld	a5,-24(s0)
	lw	a5,44(a5)
	slli	a5,a5,32
	srli	a5,a5,32
	.loc 1 228 14
	ld	a4,-24(s0)
	add	a5,a4,a5
	sd	a5,-64(s0)
	.loc 1 233 14
	sd	zero,-32(s0)
	.loc 1 233 3
	j	.L31
.L34:
	.loc 1 234 19
	ld	a5,-32(s0)
	slli	a5,a5,3
	ld	a4,-64(s0)
	add	a5,a4,a5
	.loc 1 234 26
	lhu	a5,6(a5)
	mv	a4,a5
	.loc 1 234 8
	ld	a5,-56(s0)
	bne	a5,a4,.L32
	.loc 1 235 10
	ld	a5,-104(s0)
	bne	a5,zero,.L33
	.loc 1 241 26
	ld	a5,-112(s0)
	sw	zero,0(a5)
	.loc 1 242 26
	ld	a5,-112(s0)
	sd	zero,8(a5)
	.loc 1 246 78
	ld	a5,-32(s0)
	slli	a5,a5,3
	ld	a4,-64(s0)
	add	a5,a4,a5
	.loc 1 246 85
	lhu	a5,4(a5)
	.loc 1 246 28
	mv	a4,a5
	lbu	a5,-81(s0)
	mv	a2,a4
	mv	a1,a5
	li	a0,1
	call	GetPcdName
	mv	a4,a0
	.loc 1 246 26 discriminator 1
	ld	a5,-112(s0)
	sd	a4,16(a5)
	.loc 1 247 16
	li	a5,0
	j	.L30
.L33:
	.loc 1 248 28
	ld	a5,-32(s0)
	slli	a5,a5,3
	ld	a4,-64(s0)
	add	a5,a4,a5
	.loc 1 248 35
	lw	a5,0(a5)
	slli	a5,a5,32
	srli	a5,a5,32
	.loc 1 248 17
	ld	a4,-104(s0)
	bne	a4,a5,.L32
	.loc 1 249 53
	ld	a5,-32(s0)
	slli	a5,a5,3
	ld	a4,-64(s0)
	add	a5,a4,a5
	.loc 1 249 60
	lhu	a5,4(a5)
	.loc 1 249 28
	mv	a0,a5
	call	DxePcdGetSize@plt
	mv	a4,a0
	.loc 1 249 26 discriminator 1
	ld	a5,-112(s0)
	sd	a4,8(a5)
	.loc 1 250 68
	ld	a5,-32(s0)
	slli	a5,a5,3
	ld	a4,-64(s0)
	add	a5,a4,a5
	.loc 1 250 75
	lhu	a5,4(a5)
	.loc 1 250 28
	mv	a4,a5
	lbu	a5,-81(s0)
	mv	a1,a4
	mv	a0,a5
	call	GetLocalTokenNumber
	mv	a5,a0
	sw	a5,-68(s0)
	.loc 1 251 28
	lw	a5,-68(s0)
	mv	a0,a5
	call	GetPcdType
	mv	a5,a0
	mv	a4,a5
	.loc 1 251 26 discriminator 1
	ld	a5,-112(s0)
	sw	a4,0(a5)
	.loc 1 252 78
	ld	a5,-32(s0)
	slli	a5,a5,3
	ld	a4,-64(s0)
	add	a5,a4,a5
	.loc 1 252 85
	lhu	a5,4(a5)
	.loc 1 252 28
	mv	a4,a5
	lbu	a5,-81(s0)
	mv	a2,a4
	mv	a1,a5
	li	a0,0
	call	GetPcdName
	mv	a4,a0
	.loc 1 252 26 discriminator 1
	ld	a5,-112(s0)
	sd	a4,16(a5)
	.loc 1 253 16
	li	a5,0
	j	.L30
.L32:
	.loc 1 233 56 discriminator 2
	ld	a5,-32(s0)
	addi	a5,a5,1
	sd	a5,-32(s0)
.L31:
	.loc 1 233 35 discriminator 1
	ld	a5,-24(s0)
	lhu	a5,70(a5)
	mv	a4,a5
	.loc 1 233 25 discriminator 1
	ld	a5,-32(s0)
	bltu	a5,a4,.L34
	.loc 1 258 10
	li	a5,-1
	slli	a5,a5,63
	addi	a5,a5,14
.L30:
	.loc 1 259 1
	mv	a0,a5
	ld	ra,104(sp)
	.cfi_restore 1
	ld	s0,96(sp)
	.cfi_restore 8
	.cfi_def_cfa 2, 112
	addi	sp,sp,112
	.cfi_def_cfa_offset 0
	jr	ra
	.cfi_endproc
.LFE3:
	.size	ExGetPcdInfo, .-ExGetPcdInfo
	.section	.text.DxeGetPcdInfo,"ax",@progbits
	.align	1
	.globl	DxeGetPcdInfo
	.type	DxeGetPcdInfo, @function
DxeGetPcdInfo:
.LFB4:
	.loc 1 281 1
	.cfi_startproc
	addi	sp,sp,-64
	.cfi_def_cfa_offset 64
	sd	ra,56(sp)
	sd	s0,48(sp)
	.cfi_offset 1, -8
	.cfi_offset 8, -16
	addi	s0,sp,64
	.cfi_def_cfa 8, 0
	sd	a0,-40(s0)
	sd	a1,-48(s0)
	sd	a2,-56(s0)
	.loc 1 290 10
	li	a5,-1
	slli	a5,a5,63
	addi	a5,a5,14
	sd	a5,-24(s0)
	.loc 1 291 22
	lla	a5,mPeiExMapTableEmpty
	lbu	a5,0(a5)
	sb	a5,-26(s0)
	.loc 1 292 22
	lla	a5,mDxeExMapTableEmpty
	lbu	a5,0(a5)
	sb	a5,-27(s0)
	.loc 1 294 6
	ld	a5,-40(s0)
	bne	a5,zero,.L36
	.loc 1 295 23
	ld	a5,-48(s0)
	addi	a4,a5,1
	.loc 1 295 47
	lla	a5,mPeiNexTokenCount
	lw	a5,0(a5)
	addiw	a5,a5,1
	sext.w	a5,a5
	slli	a5,a5,32
	srli	a5,a5,32
	.loc 1 295 8
	bleu	a4,a5,.L37
	.loc 1 295 68 discriminator 1
	ld	a5,-48(s0)
	addi	a4,a5,1
	.loc 1 295 95 discriminator 1
	lla	a5,mPeiLocalTokenCount
	lw	a5,0(a5)
	addiw	a5,a5,1
	sext.w	a5,a5
	slli	a5,a5,32
	srli	a5,a5,32
	.loc 1 295 52 discriminator 1
	bleu	a4,a5,.L38
.L37:
	.loc 1 296 23
	ld	a5,-48(s0)
	addi	a4,a5,1
	.loc 1 296 50
	lla	a5,mPeiLocalTokenCount
	lw	a3,0(a5)
	lla	a5,mDxeNexTokenCount
	lw	a5,0(a5)
	addw	a5,a3,a5
	sext.w	a5,a5
	.loc 1 296 70
	addiw	a5,a5,1
	sext.w	a5,a5
	slli	a5,a5,32
	srli	a5,a5,32
	.loc 1 295 101 discriminator 3
	bleu	a4,a5,.L39
.L38:
	.loc 1 298 14
	li	a5,-1
	slli	a5,a5,63
	addi	a5,a5,14
	j	.L40
.L39:
	.loc 1 299 15
	ld	a5,-48(s0)
	bne	a5,zero,.L41
	.loc 1 304 24
	ld	a5,-56(s0)
	sw	zero,0(a5)
	.loc 1 305 24
	ld	a5,-56(s0)
	sd	zero,8(a5)
	.loc 1 306 24
	ld	a5,-56(s0)
	sd	zero,16(a5)
	j	.L42
.L41:
	.loc 1 308 26
	ld	a0,-48(s0)
	call	DxePcdGetSize@plt
	mv	a4,a0
	.loc 1 308 24 discriminator 1
	ld	a5,-56(s0)
	sd	a4,8(a5)
	.loc 1 309 15
	sb	zero,-25(s0)
	.loc 1 310 24
	ld	a5,-48(s0)
	addi	a4,a5,1
	.loc 1 310 49
	lla	a5,mPeiNexTokenCount
	lw	a5,0(a5)
	addiw	a5,a5,1
	sext.w	a5,a5
	slli	a5,a5,32
	srli	a5,a5,32
	.loc 1 310 10
	bgtu	a4,a5,.L43
	.loc 1 311 17
	li	a5,1
	sb	a5,-25(s0)
.L43:
	.loc 1 314 26
	lbu	a5,-25(s0)
	ld	a1,-48(s0)
	mv	a0,a5
	call	GetLocalTokenNumber
	mv	a5,a0
	sw	a5,-32(s0)
	.loc 1 315 26
	lw	a5,-32(s0)
	mv	a0,a5
	call	GetPcdType
	mv	a5,a0
	mv	a4,a5
	.loc 1 315 24 discriminator 1
	ld	a5,-56(s0)
	sw	a4,0(a5)
	.loc 1 316 26
	lbu	a5,-25(s0)
	ld	a2,-48(s0)
	mv	a1,a5
	li	a0,0
	call	GetPcdName
	mv	a4,a0
	.loc 1 316 24 discriminator 1
	ld	a5,-56(s0)
	sd	a4,16(a5)
.L42:
	.loc 1 319 12
	li	a5,0
	j	.L40
.L36:
	.loc 1 322 6
	lbu	a5,-26(s0)
	andi	a5,a5,0xff
	beq	a5,zero,.L44
	.loc 1 322 26 discriminator 1
	lbu	a5,-27(s0)
	andi	a5,a5,0xff
	beq	a5,zero,.L44
	.loc 1 323 12
	li	a5,-1
	slli	a5,a5,63
	addi	a5,a5,14
	j	.L40
.L44:
	.loc 1 326 6
	lbu	a5,-26(s0)
	andi	a5,a5,0xff
	bne	a5,zero,.L45
	.loc 1 327 14
	ld	a3,-56(s0)
	ld	a2,-48(s0)
	ld	a1,-40(s0)
	li	a0,1
	call	ExGetPcdInfo
	sd	a0,-24(s0)
.L45:
	.loc 1 335 6
	ld	a5,-24(s0)
	bne	a5,zero,.L46
	.loc 1 336 12
	ld	a5,-24(s0)
	j	.L40
.L46:
	.loc 1 339 6
	lbu	a5,-27(s0)
	andi	a5,a5,0xff
	bne	a5,zero,.L47
	.loc 1 340 14
	ld	a3,-56(s0)
	ld	a2,-48(s0)
	ld	a1,-40(s0)
	li	a0,0
	call	ExGetPcdInfo
	sd	a0,-24(s0)
.L47:
	.loc 1 348 10
	ld	a5,-24(s0)
.L40:
	.loc 1 349 1
	mv	a0,a5
	ld	ra,56(sp)
	.cfi_restore 1
	ld	s0,48(sp)
	.cfi_restore 8
	.cfi_def_cfa 2, 64
	addi	sp,sp,64
	.cfi_def_cfa_offset 0
	jr	ra
	.cfi_endproc
.LFE4:
	.size	DxeGetPcdInfo, .-DxeGetPcdInfo
	.section	.text.GetWorker,"ax",@progbits
	.align	1
	.globl	GetWorker
	.type	GetWorker, @function
GetWorker:
.LFB5:
	.loc 1 370 1
	.cfi_startproc
	addi	sp,sp,-160
	.cfi_def_cfa_offset 160
	sd	ra,152(sp)
	sd	s0,144(sp)
	.cfi_offset 1, -8
	.cfi_offset 8, -16
	addi	s0,sp,160
	.cfi_def_cfa 8, 0
	sd	a0,-152(s0)
	sd	a1,-160(s0)
	.loc 1 392 3
	la	a0,mPcdDatabaseLock
	call	EfiAcquireLock@plt
	.loc 1 394 10
	sd	zero,-56(s0)
	.loc 1 402 14
	ld	a5,-152(s0)
	addi	a5,a5,-1
	sd	a5,-152(s0)
	.loc 1 404 18
	ld	a5,-152(s0)
	sd	a5,-72(s0)
	.loc 1 418 36
	ld	a5,-152(s0)
	addi	a4,a5,1
	.loc 1 418 62
	lla	a5,mPeiLocalTokenCount
	lw	a5,0(a5)
	addiw	a5,a5,1
	sext.w	a5,a5
	slli	a5,a5,32
	srli	a5,a5,32
	.loc 1 418 13
	bgeu	a4,a5,.L49
	.loc 1 418 11 discriminator 1
	li	a5,1
	sb	a5,-57(s0)
	j	.L50
.L49:
	.loc 1 418 11 is_stmt 0 discriminator 2
	sb	zero,-57(s0)
.L50:
	.loc 1 420 22 is_stmt 1
	ld	a5,-152(s0)
	addi	a4,a5,1
	lbu	a5,-57(s0)
	mv	a1,a4
	mv	a0,a5
	call	GetLocalTokenNumber
	mv	a5,a0
	sw	a5,-76(s0)
	.loc 1 422 51
	lbu	a5,-57(s0)
	andi	a5,a5,0xff
	beq	a5,zero,.L51
	.loc 1 422 9 discriminator 1
	lla	a5,mPcdDatabase
	ld	a5,0(a5)
	sd	a5,-40(s0)
	j	.L52
.L51:
	.loc 1 422 9 is_stmt 0 discriminator 2
	lla	a5,mPcdDatabase
	ld	a5,8(a5)
	sd	a5,-40(s0)
.L52:
	.loc 1 424 6 is_stmt 1
	lbu	a5,-57(s0)
	andi	a5,a5,0xff
	beq	a5,zero,.L53
	.loc 1 425 50
	lla	a5,mPcdDatabase
	ld	a4,0(a5)
	.loc 1 425 71
	lla	a5,mPcdDatabase
	ld	a5,0(a5)
	.loc 1 425 77
	lw	a5,52(a5)
	slli	a5,a5,32
	srli	a5,a5,32
	.loc 1 425 17
	add	a5,a4,a5
	sd	a5,-24(s0)
	j	.L54
.L53:
	.loc 1 427 50
	lla	a5,mPcdDatabase
	ld	a4,8(a5)
	.loc 1 427 71
	lla	a5,mPcdDatabase
	ld	a5,8(a5)
	.loc 1 427 77
	lw	a5,52(a5)
	slli	a5,a5,32
	srli	a5,a5,32
	.loc 1 427 17
	add	a5,a4,a5
	sd	a5,-24(s0)
.L54:
	.loc 1 430 10
	lw	a5,-76(s0)
	mv	a4,a5
	li	a5,552599552
	addi	a5,a5,-1
	and	a5,a4,a5
	sw	a5,-80(s0)
	.loc 1 432 28
	lw	a5,-76(s0)
	mv	a4,a5
	li	a5,-805306368
	and	a5,a4,a5
	sext.w	a5,a5
	.loc 1 432 3
	li	a4,-1879048192
	beq	a5,a4,.L55
	li	a4,-1879048192
	bgtu	a5,a4,.L69
	li	a4,-2147483648
	beq	a5,a4,.L55
	li	a4,-2147483648
	bgtu	a5,a4,.L69
	li	a4,1073741824
	beq	a5,a4,.L57
	li	a4,1073741824
	bgtu	a5,a4,.L69
	beq	a5,zero,.L58
	li	a4,268435456
	beq	a5,a4,.L59
	.loc 1 505 7
	j	.L69
.L57:
	.loc 1 434 45
	lwu	a5,-80(s0)
	.loc 1 434 15
	ld	a4,-40(s0)
	add	a5,a4,a5
	sd	a5,-128(s0)
	.loc 1 436 50
	ld	a5,-128(s0)
	lw	a5,0(a5)
	slli	a4,a5,32
	srli	a4,a4,32
	.loc 1 436 41
	la	a5,mVpdBaseAddress
	ld	a5,0(a5)
	add	a5,a4,a5
	.loc 1 436 14
	sd	a5,-56(s0)
	.loc 1 438 7
	j	.L60
.L55:
	.loc 1 442 10
	lbu	a5,-57(s0)
	andi	a5,a5,0xff
	beq	a5,zero,.L61
	.loc 1 443 55
	lla	a5,mPcdDatabase
	ld	a4,0(a5)
	.loc 1 443 76
	lla	a5,mPcdDatabase
	ld	a5,0(a5)
	.loc 1 443 82
	lw	a5,48(a5)
	slli	a5,a5,32
	srli	a5,a5,32
	.loc 1 443 19
	add	a5,a4,a5
	sd	a5,-48(s0)
	j	.L62
.L61:
	.loc 1 445 55
	lla	a5,mPcdDatabase
	ld	a4,8(a5)
	.loc 1 445 76
	lla	a5,mPcdDatabase
	ld	a5,8(a5)
	.loc 1 445 82
	lw	a5,48(a5)
	slli	a5,a5,32
	srli	a5,a5,32
	.loc 1 445 19
	add	a5,a4,a5
	sd	a5,-48(s0)
.L62:
	.loc 1 448 46
	lwu	a5,-80(s0)
	.loc 1 448 20
	ld	a4,-40(s0)
	add	a5,a4,a5
	sd	a5,-88(s0)
	.loc 1 449 38
	ld	a5,-88(s0)
	lhu	a5,8(a5)
	.loc 1 449 24
	slli	a5,a5,4
	.loc 1 449 12
	ld	a4,-48(s0)
	add	a5,a4,a5
	sd	a5,-96(s0)
	.loc 1 450 51
	ld	a5,-88(s0)
	lw	a5,0(a5)
	slli	a5,a5,32
	srli	a5,a5,32
	.loc 1 450 12
	ld	a4,-24(s0)
	add	a5,a4,a5
	sd	a5,-104(s0)
	.loc 1 452 29
	lw	a5,-76(s0)
	mv	a4,a5
	li	a5,-805306368
	and	a5,a4,a5
	sext.w	a4,a5
	.loc 1 452 10
	li	a5,-1879048192
	bne	a4,a5,.L63
	.loc 1 457 72
	ld	a5,-88(s0)
	lw	a5,4(a5)
	slli	a5,a5,32
	srli	a5,a5,32
	.loc 1 457 58
	ld	a4,-40(s0)
	add	a5,a4,a5
	.loc 1 457 24
	lw	a5,0(a5)
	sw	a5,-108(s0)
	.loc 1 458 34
	lwu	a5,-108(s0)
	.loc 1 458 32
	ld	a4,-24(s0)
	add	a5,a4,a5
	sd	a5,-32(s0)
	j	.L64
.L63:
	.loc 1 460 63
	ld	a5,-88(s0)
	lw	a5,4(a5)
	slli	a5,a5,32
	srli	a5,a5,32
	.loc 1 460 32
	ld	a4,-40(s0)
	add	a5,a4,a5
	sd	a5,-32(s0)
.L64:
	.loc 1 463 16
	addi	a4,s0,-144
	addi	a5,s0,-136
	mv	a3,a4
	mv	a2,a5
	ld	a1,-104(s0)
	ld	a0,-96(s0)
	call	GetHiiVariable
	sd	a0,-120(s0)
	.loc 1 464 10
	ld	a5,-120(s0)
	bne	a5,zero,.L65
	.loc 1 465 38
	ld	a5,-88(s0)
	lhu	a5,10(a5)
	mv	a4,a5
	.loc 1 465 47
	ld	a5,-160(s0)
	add	a4,a4,a5
	.loc 1 465 22
	ld	a5,-144(s0)
	.loc 1 465 12
	bgtu	a4,a5,.L66
	.loc 1 466 23
	ld	a5,-160(s0)
	.loc 1 466 14
	bne	a5,zero,.L67
	.loc 1 471 13
	addi	a5,s0,-160
	mv	a1,a5
	ld	a0,-72(s0)
	call	GetPtrTypeSize
	.loc 1 472 37
	ld	a5,-144(s0)
	.loc 1 472 51
	ld	a4,-88(s0)
	lhu	a4,10(a4)
	.loc 1 472 37
	sub	a4,a5,a4
	.loc 1 472 25
	ld	a5,-160(s0)
	.loc 1 472 16
	bgeu	a4,a5,.L67
	.loc 1 476 34
	ld	a5,-144(s0)
	.loc 1 476 48
	ld	a4,-88(s0)
	lhu	a4,10(a4)
	.loc 1 476 34
	sub	a5,a5,a4
	.loc 1 476 23
	sd	a5,-160(s0)
.L67:
	.loc 1 485 11
	ld	a5,-136(s0)
	.loc 1 485 63
	ld	a4,-88(s0)
	lhu	a4,10(a4)
	.loc 1 485 49
	add	a5,a5,a4
	.loc 1 485 11
	ld	a4,-160(s0)
	mv	a2,a4
	mv	a1,a5
	ld	a0,-32(s0)
	call	CopyMem@plt
.L66:
	.loc 1 488 9
	ld	a5,-136(s0)
	mv	a0,a5
	call	FreePool@plt
.L65:
	.loc 1 491 14
	ld	a5,-32(s0)
	sd	a5,-56(s0)
	.loc 1 492 7
	j	.L60
.L59:
	.loc 1 495 25
	lwu	a5,-80(s0)
	.loc 1 495 56
	ld	a4,-40(s0)
	add	a5,a4,a5
	.loc 1 495 22
	lw	a5,0(a5)
	sw	a5,-108(s0)
	.loc 1 496 37
	lwu	a5,-108(s0)
	.loc 1 496 14
	ld	a4,-24(s0)
	add	a5,a4,a5
	sd	a5,-56(s0)
	.loc 1 497 7
	j	.L60
.L58:
	.loc 1 500 40
	lwu	a5,-80(s0)
	.loc 1 500 14
	ld	a4,-40(s0)
	add	a5,a4,a5
	sd	a5,-56(s0)
	.loc 1 501 7
	j	.L60
.L69:
	.loc 1 505 7
	nop
.L60:
	.loc 1 508 3
	la	a0,mPcdDatabaseLock
	call	EfiReleaseLock@plt
	.loc 1 510 10
	ld	a5,-56(s0)
	.loc 1 511 1
	mv	a0,a5
	ld	ra,152(sp)
	.cfi_restore 1
	ld	s0,144(sp)
	.cfi_restore 8
	.cfi_def_cfa 2, 160
	addi	sp,sp,160
	.cfi_def_cfa_offset 0
	jr	ra
	.cfi_endproc
.LFE5:
	.size	GetWorker, .-GetWorker
	.section	.text.DxeRegisterCallBackWorker,"ax",@progbits
	.align	1
	.globl	DxeRegisterCallBackWorker
	.type	DxeRegisterCallBackWorker, @function
DxeRegisterCallBackWorker:
.LFB6:
	.loc 1 533 1
	.cfi_startproc
	addi	sp,sp,-80
	.cfi_def_cfa_offset 80
	sd	ra,72(sp)
	sd	s0,64(sp)
	.cfi_offset 1, -8
	.cfi_offset 8, -16
	addi	s0,sp,80
	.cfi_def_cfa 8, 0
	sd	a0,-56(s0)
	sd	a1,-64(s0)
	sd	a2,-72(s0)
	.loc 1 538 6
	ld	a5,-64(s0)
	beq	a5,zero,.L71
	.loc 1 539 19
	ld	a5,-56(s0)
	sext.w	a5,a5
	mv	a1,a5
	ld	a0,-64(s0)
	call	GetExPcdTokenNumber
	sd	a0,-56(s0)
.L71:
	.loc 1 547 14
	lla	a5,mCallbackFnTable
	ld	a4,0(a5)
	.loc 1 547 31
	ld	a5,-56(s0)
	slli	a5,a5,4
	addi	a5,a5,-16
	.loc 1 547 12
	add	a5,a4,a5
	sd	a5,-32(s0)
	.loc 1 548 14
	ld	a0,-32(s0)
	call	GetFirstNode@plt
	sd	a0,-24(s0)
	.loc 1 550 9
	j	.L72
.L75:
	.loc 1 551 18
	ld	a5,-24(s0)
	sd	a5,-40(s0)
	.loc 1 553 21
	ld	a5,-40(s0)
	ld	a5,16(a5)
	.loc 1 553 8
	ld	a4,-72(s0)
	bne	a4,a5,.L73
	.loc 1 558 14
	li	a5,0
	j	.L74
.L73:
	.loc 1 561 16
	ld	a1,-24(s0)
	ld	a0,-32(s0)
	call	GetNextNode@plt
	sd	a0,-24(s0)
.L72:
	.loc 1 550 19
	ld	a4,-24(s0)
	ld	a5,-32(s0)
	bne	a4,a5,.L75
	.loc 1 564 18
	li	a0,24
	call	AllocatePool@plt
	sd	a0,-40(s0)
	.loc 1 567 28
	ld	a5,-40(s0)
	ld	a4,-72(s0)
	sd	a4,16(a5)
	.loc 1 568 3
	ld	a5,-40(s0)
	mv	a1,a5
	ld	a0,-32(s0)
	call	InsertTailList@plt
	.loc 1 570 10
	li	a5,0
.L74:
	.loc 1 571 1
	mv	a0,a5
	ld	ra,72(sp)
	.cfi_restore 1
	ld	s0,64(sp)
	.cfi_restore 8
	.cfi_def_cfa 2, 80
	addi	sp,sp,80
	.cfi_def_cfa_offset 0
	jr	ra
	.cfi_endproc
.LFE6:
	.size	DxeRegisterCallBackWorker, .-DxeRegisterCallBackWorker
	.section	.text.DxeUnRegisterCallBackWorker,"ax",@progbits
	.align	1
	.globl	DxeUnRegisterCallBackWorker
	.type	DxeUnRegisterCallBackWorker, @function
DxeUnRegisterCallBackWorker:
.LFB7:
	.loc 1 593 1
	.cfi_startproc
	addi	sp,sp,-80
	.cfi_def_cfa_offset 80
	sd	ra,72(sp)
	sd	s0,64(sp)
	.cfi_offset 1, -8
	.cfi_offset 8, -16
	addi	s0,sp,80
	.cfi_def_cfa 8, 0
	sd	a0,-56(s0)
	sd	a1,-64(s0)
	sd	a2,-72(s0)
	.loc 1 598 6
	ld	a5,-64(s0)
	beq	a5,zero,.L77
	.loc 1 599 19
	ld	a5,-56(s0)
	sext.w	a5,a5
	mv	a1,a5
	ld	a0,-64(s0)
	call	GetExPcdTokenNumber
	sd	a0,-56(s0)
.L77:
	.loc 1 607 14
	lla	a5,mCallbackFnTable
	ld	a4,0(a5)
	.loc 1 607 31
	ld	a5,-56(s0)
	slli	a5,a5,4
	addi	a5,a5,-16
	.loc 1 607 12
	add	a5,a4,a5
	sd	a5,-32(s0)
	.loc 1 608 14
	ld	a0,-32(s0)
	call	GetFirstNode@plt
	sd	a0,-24(s0)
	.loc 1 610 9
	j	.L78
.L81:
	.loc 1 611 18
	ld	a5,-24(s0)
	sd	a5,-40(s0)
	.loc 1 613 21
	ld	a5,-40(s0)
	ld	a5,16(a5)
	.loc 1 613 8
	ld	a4,-72(s0)
	bne	a4,a5,.L79
	.loc 1 619 7
	ld	a0,-24(s0)
	call	RemoveEntryList@plt
	.loc 1 620 7
	ld	a0,-40(s0)
	call	FreePool@plt
	.loc 1 622 14
	li	a5,0
	j	.L80
.L79:
	.loc 1 625 16
	ld	a1,-24(s0)
	ld	a0,-32(s0)
	call	GetNextNode@plt
	sd	a0,-24(s0)
.L78:
	.loc 1 610 19
	ld	a4,-24(s0)
	ld	a5,-32(s0)
	bne	a4,a5,.L81
	.loc 1 628 10
	li	a5,-1
	slli	a5,a5,63
	addi	a5,a5,2
.L80:
	.loc 1 629 1
	mv	a0,a5
	ld	ra,72(sp)
	.cfi_restore 1
	ld	s0,64(sp)
	.cfi_restore 8
	.cfi_def_cfa 2, 80
	addi	sp,sp,80
	.cfi_def_cfa_offset 0
	jr	ra
	.cfi_endproc
.LFE7:
	.size	DxeUnRegisterCallBackWorker, .-DxeUnRegisterCallBackWorker
	.section	.text.ExGetNextTokeNumber,"ax",@progbits
	.align	1
	.globl	ExGetNextTokeNumber
	.type	ExGetNextTokeNumber, @function
ExGetNextTokeNumber:
.LFB8:
	.loc 1 665 1
	.cfi_startproc
	addi	sp,sp,-112
	.cfi_def_cfa_offset 112
	sd	ra,104(sp)
	sd	s0,96(sp)
	.cfi_offset 1, -8
	.cfi_offset 8, -16
	addi	s0,sp,112
	.cfi_def_cfa 8, 0
	sd	a0,-72(s0)
	sd	a1,-80(s0)
	sd	a2,-88(s0)
	sd	a3,-96(s0)
	sd	a4,-104(s0)
	sd	a5,-112(s0)
	.loc 1 675 15
	ld	a2,-72(s0)
	ld	a1,-96(s0)
	ld	a0,-88(s0)
	call	ScanGuid@plt
	sd	a0,-40(s0)
	.loc 1 676 6
	ld	a5,-40(s0)
	bne	a5,zero,.L83
	.loc 1 677 12
	li	a5,-1
	slli	a5,a5,63
	addi	a5,a5,14
	j	.L84
.L83:
	.loc 1 683 9
	sb	zero,-25(s0)
	.loc 1 684 28
	ld	a4,-40(s0)
	ld	a5,-88(s0)
	sub	a5,a4,a5
	srai	a5,a5,4
	.loc 1 684 16
	sd	a5,-48(s0)
	.loc 1 685 19
	ld	a5,-112(s0)
	srli	a5,a5,3
	sd	a5,-56(s0)
	.loc 1 686 14
	sd	zero,-24(s0)
	.loc 1 686 3
	j	.L85
.L88:
	.loc 1 687 19
	ld	a5,-24(s0)
	slli	a5,a5,3
	ld	a4,-104(s0)
	add	a5,a4,a5
	.loc 1 687 26
	lhu	a5,6(a5)
	mv	a4,a5
	.loc 1 687 8
	ld	a5,-48(s0)
	bne	a5,a4,.L86
	.loc 1 688 13
	li	a5,1
	sb	a5,-25(s0)
	.loc 1 689 7
	j	.L87
.L86:
	.loc 1 686 49 discriminator 2
	ld	a5,-24(s0)
	addi	a5,a5,1
	sd	a5,-24(s0)
.L85:
	.loc 1 686 25 discriminator 1
	ld	a4,-24(s0)
	ld	a5,-56(s0)
	bltu	a4,a5,.L88
.L87:
	.loc 1 693 6
	lbu	a5,-25(s0)
	andi	a5,a5,0xff
	beq	a5,zero,.L89
	.loc 1 698 9
	ld	a5,-80(s0)
	ld	a5,0(a5)
	.loc 1 698 8
	bne	a5,zero,.L91
	.loc 1 699 32
	ld	a5,-24(s0)
	slli	a5,a5,3
	ld	a4,-104(s0)
	add	a5,a4,a5
	.loc 1 699 39
	lw	a5,0(a5)
	slli	a4,a5,32
	srli	a4,a4,32
	.loc 1 699 20
	ld	a5,-80(s0)
	sd	a4,0(a5)
	.loc 1 700 14
	li	a5,0
	j	.L84
.L94:
	.loc 1 704 22
	ld	a5,-24(s0)
	slli	a5,a5,3
	ld	a4,-104(s0)
	add	a5,a4,a5
	.loc 1 704 29
	lw	a5,0(a5)
	slli	a4,a5,32
	srli	a4,a4,32
	.loc 1 704 47
	ld	a5,-80(s0)
	ld	a5,0(a5)
	.loc 1 704 10
	bne	a4,a5,.L92
	.loc 1 704 75 discriminator 1
	ld	a5,-24(s0)
	slli	a5,a5,3
	ld	a4,-104(s0)
	add	a5,a4,a5
	.loc 1 704 82 discriminator 1
	lhu	a5,6(a5)
	mv	a4,a5
	.loc 1 704 61 discriminator 1
	ld	a5,-48(s0)
	beq	a5,a4,.L98
.L92:
	.loc 1 703 43
	ld	a5,-24(s0)
	addi	a5,a5,1
	sd	a5,-24(s0)
.L91:
	.loc 1 703 19 discriminator 1
	ld	a4,-24(s0)
	ld	a5,-56(s0)
	bltu	a4,a5,.L94
	j	.L95
.L98:
	.loc 1 705 9
	nop
	.loc 1 709 11
	j	.L95
.L97:
	.loc 1 710 12
	ld	a5,-24(s0)
	addi	a5,a5,1
	sd	a5,-24(s0)
	.loc 1 711 10
	ld	a4,-24(s0)
	ld	a5,-56(s0)
	bne	a4,a5,.L96
	.loc 1 715 22
	ld	a5,-80(s0)
	sd	zero,0(a5)
	.loc 1 716 16
	li	a5,-1
	slli	a5,a5,63
	addi	a5,a5,14
	j	.L84
.L96:
	.loc 1 717 28
	ld	a5,-24(s0)
	slli	a5,a5,3
	ld	a4,-104(s0)
	add	a5,a4,a5
	.loc 1 717 35
	lhu	a5,6(a5)
	mv	a4,a5
	.loc 1 717 17
	ld	a5,-48(s0)
	bne	a5,a4,.L95
	.loc 1 721 34
	ld	a5,-24(s0)
	slli	a5,a5,3
	ld	a4,-104(s0)
	add	a5,a4,a5
	.loc 1 721 41
	lw	a5,0(a5)
	slli	a4,a5,32
	srli	a4,a4,32
	.loc 1 721 22
	ld	a5,-80(s0)
	sd	a4,0(a5)
	.loc 1 722 16
	li	a5,0
	j	.L84
.L95:
	.loc 1 709 18
	ld	a4,-24(s0)
	ld	a5,-56(s0)
	bltu	a4,a5,.L97
.L89:
	.loc 1 727 10
	li	a5,-1
	slli	a5,a5,63
	addi	a5,a5,14
.L84:
	.loc 1 728 1
	mv	a0,a5
	ld	ra,104(sp)
	.cfi_restore 1
	ld	s0,96(sp)
	.cfi_restore 8
	.cfi_def_cfa 2, 112
	addi	sp,sp,112
	.cfi_def_cfa_offset 0
	jr	ra
	.cfi_endproc
.LFE8:
	.size	ExGetNextTokeNumber, .-ExGetNextTokeNumber
	.section	.text.LocateExPcdBinary,"ax",@progbits
	.align	1
	.globl	LocateExPcdBinary
	.type	LocateExPcdBinary, @function
LocateExPcdBinary:
.LFB9:
	.loc 1 740 1
	.cfi_startproc
	addi	sp,sp,-32
	.cfi_def_cfa_offset 32
	sd	ra,24(sp)
	sd	s0,16(sp)
	.cfi_offset 1, -8
	.cfi_offset 8, -16
	addi	s0,sp,32
	.cfi_def_cfa 8, 0
	.loc 1 747 12
	lla	a3,mDxePcdDbSize
	lla	a2,mDxePcdDbBinary
	li	a1,0
	li	a0,25
	call	GetSectionFromFfs@plt
	sd	a0,-24(s0)
	.loc 1 758 8
	lla	a5,mDxePcdDbBinary
	ld	a5,0(a5)
	la	a1,gPcdDataBaseSignatureGuid
	mv	a0,a5
	call	CompareGuid@plt
	.loc 1 764 10
	lla	a5,mDxePcdDbBinary
	ld	a5,0(a5)
	.loc 1 765 1
	mv	a0,a5
	ld	ra,24(sp)
	.cfi_restore 1
	ld	s0,16(sp)
	.cfi_restore 8
	.cfi_def_cfa 2, 32
	addi	sp,sp,32
	.cfi_def_cfa_offset 0
	jr	ra
	.cfi_endproc
.LFE9:
	.size	LocateExPcdBinary, .-LocateExPcdBinary
	.section	.text.UpdatePcdDatabase,"ax",@progbits
	.align	1
	.globl	UpdatePcdDatabase
	.type	UpdatePcdDatabase, @function
UpdatePcdDatabase:
.LFB10:
	.loc 1 781 1
	.cfi_startproc
	addi	sp,sp,-64
	.cfi_def_cfa_offset 64
	sd	ra,56(sp)
	sd	s0,48(sp)
	.cfi_offset 1, -8
	.cfi_offset 8, -16
	addi	s0,sp,64
	.cfi_def_cfa 8, 0
	sd	a0,-56(s0)
	mv	a5,a1
	sb	a5,-57(s0)
	.loc 1 786 6
	lbu	a5,-57(s0)
	andi	a5,a5,0xff
	beq	a5,zero,.L103
	.loc 1 786 35 discriminator 1
	lla	a5,mPeiPcdDbBinary
	ld	a5,0(a5)
	.loc 1 786 15 discriminator 1
	beq	a5,zero,.L103
	.loc 1 790 26
	lla	a5,mPcdDatabase
	ld	a5,0(a5)
	.loc 1 790 32
	lw	a5,20(a5)
	.loc 1 790 41
	addiw	a5,a5,7
	sext.w	a5,a5
	.loc 1 790 46
	slli	a4,a5,32
	srli	a4,a4,32
	.loc 1 790 11
	li	a5,1
	slli	a5,a5,32
	addi	a5,a5,-8
	and	a5,a4,a5
	sd	a5,-24(s0)
	.loc 1 791 14
	sd	zero,-32(s0)
	.loc 1 792 11
	j	.L104
.L107:
	.loc 1 793 70
	lla	a5,mPeiPcdDbBinary
	ld	a4,0(a5)
	.loc 1 793 16
	ld	a5,-24(s0)
	add	a5,a4,a5
	sd	a5,-32(s0)
	.loc 1 794 20
	ld	a5,-32(s0)
	lbu	a4,0(a5)
	lbu	a3,1(a5)
	slli	a3,a3,8
	or	a4,a3,a4
	lbu	a3,2(a5)
	slli	a3,a3,16
	or	a4,a3,a4
	lbu	a3,3(a5)
	slli	a3,a3,24
	or	a4,a3,a4
	lbu	a3,4(a5)
	slli	a3,a3,32
	or	a4,a3,a4
	lbu	a3,5(a5)
	slli	a3,a3,40
	or	a4,a3,a4
	lbu	a3,6(a5)
	slli	a3,a3,48
	or	a4,a3,a4
	lbu	a5,7(a5)
	slli	a5,a5,56
	or	a5,a5,a4
	mv	a4,a5
	.loc 1 794 10
	ld	a5,-56(s0)
	bne	a5,a4,.L105
	.loc 1 794 50 discriminator 1
	ld	a5,-32(s0)
	lbu	a4,8(a5)
	lbu	a3,9(a5)
	slli	a3,a3,8
	or	a4,a3,a4
	lbu	a3,10(a5)
	slli	a3,a3,16
	or	a4,a3,a4
	lbu	a3,11(a5)
	slli	a3,a3,24
	or	a4,a3,a4
	lbu	a3,12(a5)
	slli	a3,a3,32
	or	a4,a3,a4
	lbu	a3,13(a5)
	slli	a3,a3,40
	or	a4,a3,a4
	lbu	a3,14(a5)
	slli	a3,a3,48
	or	a4,a3,a4
	lbu	a5,15(a5)
	slli	a5,a5,56
	or	a5,a5,a4
	.loc 1 794 38 discriminator 1
	beq	a5,zero,.L120
.L105:
	.loc 1 798 32
	ld	a5,-32(s0)
	lbu	a4,16(a5)
	lbu	a3,17(a5)
	slli	a3,a3,8
	or	a4,a3,a4
	lbu	a3,18(a5)
	slli	a3,a3,16
	or	a4,a3,a4
	lbu	a5,19(a5)
	slli	a5,a5,24
	or	a5,a5,a4
	sext.w	a5,a5
	slli	a4,a5,32
	srli	a4,a4,32
	.loc 1 798 22
	ld	a5,-24(s0)
	add	a5,a4,a5
	.loc 1 798 41
	addi	a5,a5,7
	.loc 1 798 13
	andi	a5,a5,-8
	sd	a5,-24(s0)
.L104:
	.loc 1 792 18
	lla	a5,mPeiPcdDbSize
	ld	a5,0(a5)
	ld	a4,-24(s0)
	bltu	a4,a5,.L107
	j	.L106
.L120:
	.loc 1 795 9
	nop
.L106:
	.loc 1 804 16
	lla	a5,mPeiPcdDbSize
	ld	a5,0(a5)
	.loc 1 804 8
	ld	a4,-24(s0)
	bgeu	a4,a5,.L108
	.loc 1 804 33 discriminator 1
	ld	a5,-32(s0)
	beq	a5,zero,.L108
	.loc 1 805 20
	ld	a5,-32(s0)
	addi	a5,a5,20
	sd	a5,-40(s0)
	.loc 1 806 13
	j	.L109
.L110:
	.loc 1 807 32
	lla	a5,mPcdDatabase
	ld	a4,0(a5)
	.loc 1 807 53
	ld	a5,-40(s0)
	lw	a5,0(a5)
	mv	a3,a5
	li	a5,16777216
	addi	a5,a5,-1
	and	a5,a3,a5
	sext.w	a5,a5
	slli	a5,a5,32
	srli	a5,a5,32
	.loc 1 807 39
	add	a5,a4,a5
	.loc 1 807 65
	ld	a4,-40(s0)
	lbu	a4,3(a4)
	.loc 1 807 63
	sb	a4,0(a5)
	.loc 1 808 21
	ld	a5,-40(s0)
	addi	a5,a5,4
	sd	a5,-40(s0)
.L109:
	.loc 1 806 66
	ld	a5,-32(s0)
	lbu	a4,16(a5)
	lbu	a3,17(a5)
	slli	a3,a3,8
	or	a4,a3,a4
	lbu	a3,18(a5)
	slli	a3,a3,16
	or	a4,a3,a4
	lbu	a5,19(a5)
	slli	a5,a5,24
	or	a5,a5,a4
	sext.w	a5,a5
	slli	a5,a5,32
	srli	a5,a5,32
	.loc 1 806 56
	ld	a4,-32(s0)
	add	a5,a4,a5
	.loc 1 806 36
	ld	a4,-40(s0)
	bltu	a4,a5,.L110
	.loc 1 804 8
	j	.L103
.L108:
	.loc 1 811 14
	li	a5,-1
	slli	a5,a5,63
	addi	a5,a5,14
	j	.L111
.L103:
	.loc 1 818 24
	lla	a5,mPcdDatabase
	ld	a5,8(a5)
	.loc 1 818 30
	lw	a5,20(a5)
	.loc 1 818 39
	addiw	a5,a5,7
	sext.w	a5,a5
	.loc 1 818 44
	slli	a4,a5,32
	srli	a4,a4,32
	.loc 1 818 9
	li	a5,1
	slli	a5,a5,32
	addi	a5,a5,-8
	and	a5,a4,a5
	sd	a5,-24(s0)
	.loc 1 819 12
	sd	zero,-32(s0)
	.loc 1 821 13
	lla	a5,mDxePcdDbSize
	ld	a5,0(a5)
	.loc 1 821 6
	ld	a4,-24(s0)
	bne	a4,a5,.L113
	.loc 1 822 12
	li	a5,0
	j	.L111
.L116:
	.loc 1 826 68
	lla	a5,mDxePcdDbBinary
	ld	a4,0(a5)
	.loc 1 826 14
	ld	a5,-24(s0)
	add	a5,a4,a5
	sd	a5,-32(s0)
	.loc 1 827 18
	ld	a5,-32(s0)
	lbu	a4,0(a5)
	lbu	a3,1(a5)
	slli	a3,a3,8
	or	a4,a3,a4
	lbu	a3,2(a5)
	slli	a3,a3,16
	or	a4,a3,a4
	lbu	a3,3(a5)
	slli	a3,a3,24
	or	a4,a3,a4
	lbu	a3,4(a5)
	slli	a3,a3,32
	or	a4,a3,a4
	lbu	a3,5(a5)
	slli	a3,a3,40
	or	a4,a3,a4
	lbu	a3,6(a5)
	slli	a3,a3,48
	or	a4,a3,a4
	lbu	a5,7(a5)
	slli	a5,a5,56
	or	a5,a5,a4
	mv	a4,a5
	.loc 1 827 8
	ld	a5,-56(s0)
	bne	a5,a4,.L114
	.loc 1 827 48 discriminator 1
	ld	a5,-32(s0)
	lbu	a4,8(a5)
	lbu	a3,9(a5)
	slli	a3,a3,8
	or	a4,a3,a4
	lbu	a3,10(a5)
	slli	a3,a3,16
	or	a4,a3,a4
	lbu	a3,11(a5)
	slli	a3,a3,24
	or	a4,a3,a4
	lbu	a3,12(a5)
	slli	a3,a3,32
	or	a4,a3,a4
	lbu	a3,13(a5)
	slli	a3,a3,40
	or	a4,a3,a4
	lbu	a3,14(a5)
	slli	a3,a3,48
	or	a4,a3,a4
	lbu	a5,15(a5)
	slli	a5,a5,56
	or	a5,a5,a4
	.loc 1 827 36 discriminator 1
	beq	a5,zero,.L121
.L114:
	.loc 1 831 30
	ld	a5,-32(s0)
	lbu	a4,16(a5)
	lbu	a3,17(a5)
	slli	a3,a3,8
	or	a4,a3,a4
	lbu	a3,18(a5)
	slli	a3,a3,16
	or	a4,a3,a4
	lbu	a5,19(a5)
	slli	a5,a5,24
	or	a5,a5,a4
	sext.w	a5,a5
	slli	a4,a5,32
	srli	a4,a4,32
	.loc 1 831 20
	ld	a5,-24(s0)
	add	a5,a4,a5
	.loc 1 831 39
	addi	a5,a5,7
	.loc 1 831 11
	andi	a5,a5,-8
	sd	a5,-24(s0)
.L113:
	.loc 1 825 16
	lla	a5,mDxePcdDbSize
	ld	a5,0(a5)
	ld	a4,-24(s0)
	bltu	a4,a5,.L116
	j	.L115
.L121:
	.loc 1 828 7
	nop
.L115:
	.loc 1 837 14
	lla	a5,mDxePcdDbSize
	ld	a5,0(a5)
	.loc 1 837 6
	ld	a4,-24(s0)
	bgeu	a4,a5,.L117
	.loc 1 837 31 discriminator 1
	ld	a5,-32(s0)
	beq	a5,zero,.L117
	.loc 1 838 18
	ld	a5,-32(s0)
	addi	a5,a5,20
	sd	a5,-40(s0)
	.loc 1 839 11
	j	.L118
.L119:
	.loc 1 840 30
	lla	a5,mPcdDatabase
	ld	a4,8(a5)
	.loc 1 840 51
	ld	a5,-40(s0)
	lw	a5,0(a5)
	mv	a3,a5
	li	a5,16777216
	addi	a5,a5,-1
	and	a5,a3,a5
	sext.w	a5,a5
	slli	a5,a5,32
	srli	a5,a5,32
	.loc 1 840 37
	add	a5,a4,a5
	.loc 1 840 63
	ld	a4,-40(s0)
	lbu	a4,3(a4)
	.loc 1 840 61
	sb	a4,0(a5)
	.loc 1 841 19
	ld	a5,-40(s0)
	addi	a5,a5,4
	sd	a5,-40(s0)
.L118:
	.loc 1 839 64
	ld	a5,-32(s0)
	lbu	a4,16(a5)
	lbu	a3,17(a5)
	slli	a3,a3,8
	or	a4,a3,a4
	lbu	a3,18(a5)
	slli	a3,a3,16
	or	a4,a3,a4
	lbu	a5,19(a5)
	slli	a5,a5,24
	or	a5,a5,a4
	sext.w	a5,a5
	slli	a5,a5,32
	srli	a5,a5,32
	.loc 1 839 54
	ld	a4,-32(s0)
	add	a5,a4,a5
	.loc 1 839 34
	ld	a4,-40(s0)
	bltu	a4,a5,.L119
	.loc 1 844 12
	li	a5,0
	j	.L111
.L117:
	.loc 1 847 10
	li	a5,-1
	slli	a5,a5,63
	addi	a5,a5,14
.L111:
	.loc 1 848 1
	mv	a0,a5
	ld	ra,56(sp)
	.cfi_restore 1
	ld	s0,48(sp)
	.cfi_restore 8
	.cfi_def_cfa 2, 64
	addi	sp,sp,64
	.cfi_def_cfa_offset 0
	jr	ra
	.cfi_endproc
.LFE10:
	.size	UpdatePcdDatabase, .-UpdatePcdDatabase
	.section	.text.BuildPcdDxeDataBase,"ax",@progbits
	.align	1
	.globl	BuildPcdDxeDataBase
	.type	BuildPcdDxeDataBase, @function
BuildPcdDxeDataBase:
.LFB11:
	.loc 1 861 1
	.cfi_startproc
	addi	sp,sp,-64
	.cfi_def_cfa_offset 64
	sd	ra,56(sp)
	sd	s0,48(sp)
	.cfi_offset 1, -8
	.cfi_offset 8, -16
	addi	s0,sp,64
	.cfi_def_cfa 8, 0
	.loc 1 872 24
	call	LocateExPcdBinary
	mv	a4,a0
	.loc 1 872 22 discriminator 1
	lla	a5,mPcdDatabase
	sd	a4,8(a5)
	.loc 1 874 29
	lla	a5,mPcdDatabase
	ld	a5,8(a5)
	.loc 1 874 35
	lw	a4,20(a5)
	.loc 1 874 58
	lla	a5,mPcdDatabase
	ld	a5,8(a5)
	.loc 1 874 64
	lw	a5,36(a5)
	.loc 1 874 15
	addw	a5,a4,a5
	sw	a5,-28(s0)
	.loc 1 875 14
	lwu	a5,-28(s0)
	mv	a0,a5
	call	AllocateZeroPool@plt
	sd	a0,-40(s0)
	.loc 1 877 34
	lla	a5,mPcdDatabase
	ld	a4,8(a5)
	.loc 1 877 54
	lla	a5,mPcdDatabase
	ld	a5,8(a5)
	.loc 1 877 60
	lw	a5,20(a5)
	.loc 1 877 3
	slli	a5,a5,32
	srli	a5,a5,32
	mv	a2,a5
	mv	a1,a4
	ld	a0,-40(s0)
	call	CopyMem@plt
	.loc 1 878 22
	lla	a5,mPcdDatabase
	ld	a4,-40(s0)
	sd	a4,8(a5)
	.loc 1 880 13
	la	a0,gPcdDataBaseHobGuid
	call	GetFirstGuidHob@plt
	mv	a5,a0
	.loc 1 880 11 discriminator 1
	sd	a5,-64(s0)
	.loc 1 881 15
	ld	a5,-64(s0)
	.loc 1 881 6
	beq	a5,zero,.L123
	.loc 1 888 59
	addi	a5,s0,-64
	.loc 1 888 48
	ld	a5,0(a5)
	.loc 1 888 17
	addi	a5,a5,24
	sd	a5,-48(s0)
	.loc 1 893 73
	addi	a5,s0,-64
	.loc 1 893 62
	ld	a5,0(a5)
	.loc 1 893 116
	addi	a4,s0,-64
	.loc 1 893 88
	ld	a4,0(a4)
	.loc 1 893 127
	lhu	a4,2(a4)
	.loc 1 893 84
	add	a5,a5,a4
	.loc 1 893 15
	mv	a1,a5
	la	a0,gPcdDataBaseHobGuid
	call	GetNextGuidHob@plt
	mv	a5,a0
	.loc 1 893 13 discriminator 1
	sd	a5,-64(s0)
	.loc 1 894 17
	ld	a5,-64(s0)
	.loc 1 894 8
	beq	a5,zero,.L124
	.loc 1 895 65
	addi	a5,s0,-64
	.loc 1 895 54
	ld	a5,0(a5)
	.loc 1 895 76
	addi	a4,a5,24
	.loc 1 895 23
	lla	a5,mPeiPcdDbBinary
	sd	a4,0(a5)
	.loc 1 896 69
	addi	a5,s0,-64
	.loc 1 896 41
	ld	a5,0(a5)
	.loc 1 896 80
	lhu	a5,2(a5)
	.loc 1 896 30
	addiw	a5,a5,-24
	slli	a5,a5,48
	srli	a5,a5,48
	.loc 1 896 23
	mv	a4,a5
	.loc 1 896 21
	lla	a5,mPeiPcdDbSize
	sd	a4,0(a5)
.L124:
	.loc 1 902 24
	lla	a5,mPcdDatabase
	ld	a4,-48(s0)
	sd	a4,0(a5)
	.loc 1 906 21
	lla	a5,mPcdDatabase
	ld	a5,0(a5)
	.loc 1 906 27
	ld	a5,24(a5)
	.loc 1 906 8
	beq	a5,zero,.L125
	.loc 1 907 47
	lla	a5,mPcdDatabase
	ld	a5,0(a5)
	.loc 1 907 16
	ld	a5,24(a5)
	li	a1,0
	mv	a0,a5
	call	UpdatePcdDatabase
	sd	a0,-56(s0)
.L125:
	.loc 1 911 51
	lla	a5,mPcdDatabase
	ld	a4,0(a5)
	.loc 1 911 17
	lla	a5,mPcdDatabase
	ld	a5,8(a5)
	.loc 1 911 57
	ld	a4,24(a4)
	.loc 1 911 37
	sd	a4,24(a5)
	j	.L126
.L123:
	.loc 1 913 26
	li	a0,80
	call	AllocateZeroPool@plt
	mv	a4,a0
	.loc 1 913 24 discriminator 1
	lla	a5,mPcdDatabase
	sd	a4,0(a5)
.L126:
	.loc 1 920 37
	lla	a5,mPcdDatabase
	ld	a5,0(a5)
	.loc 1 920 43
	lhu	a5,68(a5)
	sext.w	a4,a5
	.loc 1 920 23
	lla	a5,mPeiLocalTokenCount
	sw	a4,0(a5)
	.loc 1 921 37
	lla	a5,mPcdDatabase
	ld	a5,8(a5)
	.loc 1 921 43
	lhu	a5,68(a5)
	sext.w	a4,a5
	.loc 1 921 23
	lla	a5,mDxeLocalTokenCount
	sw	a4,0(a5)
	.loc 1 923 41
	lla	a5,mPcdDatabase
	ld	a5,0(a5)
	.loc 1 923 47
	lhu	a5,70(a5)
	sext.w	a5,a5
	.loc 1 923 62
	slliw	a5,a5,3
	sext.w	a4,a5
	.loc 1 923 27
	lla	a5,mPeiExMapppingTableSize
	sw	a4,0(a5)
	.loc 1 924 41
	lla	a5,mPcdDatabase
	ld	a5,8(a5)
	.loc 1 924 47
	lhu	a5,70(a5)
	sext.w	a5,a5
	.loc 1 924 62
	slliw	a5,a5,3
	sext.w	a4,a5
	.loc 1 924 27
	lla	a5,mDxeExMapppingTableSize
	sw	a4,0(a5)
	.loc 1 925 35
	lla	a5,mPcdDatabase
	ld	a5,0(a5)
	.loc 1 925 41
	lhu	a5,72(a5)
	sext.w	a5,a5
	.loc 1 925 58
	slliw	a5,a5,4
	sext.w	a4,a5
	.loc 1 925 21
	lla	a5,mPeiGuidTableSize
	sw	a4,0(a5)
	.loc 1 926 35
	lla	a5,mPcdDatabase
	ld	a5,8(a5)
	.loc 1 926 41
	lhu	a5,72(a5)
	sext.w	a5,a5
	.loc 1 926 58
	slliw	a5,a5,4
	sext.w	a4,a5
	.loc 1 926 21
	lla	a5,mDxeGuidTableSize
	sw	a4,0(a5)
	.loc 1 928 45
	lla	a5,mPeiLocalTokenCount
	lw	a4,0(a5)
	lla	a5,mDxeLocalTokenCount
	lw	a5,0(a5)
	addw	a5,a4,a5
	sext.w	a4,a5
	.loc 1 928 23
	lla	a5,mPcdTotalTokenCount
	sw	a4,0(a5)
	.loc 1 929 43
	lla	a5,mPeiLocalTokenCount
	lw	a4,0(a5)
	.loc 1 929 57
	lla	a5,mPcdDatabase
	ld	a5,0(a5)
	.loc 1 929 63
	lhu	a5,70(a5)
	sext.w	a5,a5
	.loc 1 929 43
	subw	a5,a4,a5
	sext.w	a4,a5
	.loc 1 929 21
	lla	a5,mPeiNexTokenCount
	sw	a4,0(a5)
	.loc 1 930 43
	lla	a5,mDxeLocalTokenCount
	lw	a4,0(a5)
	.loc 1 930 57
	lla	a5,mPcdDatabase
	ld	a5,8(a5)
	.loc 1 930 63
	lhu	a5,70(a5)
	sext.w	a5,a5
	.loc 1 930 43
	subw	a5,a4,a5
	sext.w	a4,a5
	.loc 1 930 21
	lla	a5,mDxeNexTokenCount
	sw	a4,0(a5)
	.loc 1 932 38
	lla	a5,mPcdDatabase
	ld	a5,0(a5)
	.loc 1 932 44
	lhu	a5,70(a5)
	.loc 1 932 85
	sext.w	a5,a5
	seqz	a5,a5
	andi	a5,a5,0xff
	mv	a4,a5
	.loc 1 932 23
	lla	a5,mPeiExMapTableEmpty
	sb	a4,0(a5)
	.loc 1 933 38
	lla	a5,mPcdDatabase
	ld	a5,8(a5)
	.loc 1 933 44
	lhu	a5,70(a5)
	.loc 1 933 85
	sext.w	a5,a5
	seqz	a5,a5
	andi	a5,a5,0xff
	mv	a4,a5
	.loc 1 933 23
	lla	a5,mDxeExMapTableEmpty
	sb	a4,0(a5)
	.loc 1 934 70
	lla	a5,mPeiLocalTokenCount
	lw	a5,0(a5)
	seqz	a5,a5
	andi	a5,a5,0xff
	mv	a4,a5
	.loc 1 934 21
	lla	a5,mPeiDatabaseEmpty
	sb	a4,0(a5)
	.loc 1 936 42
	lla	a5,mPcdDatabase
	ld	a5,0(a5)
	.loc 1 936 48
	lhu	a5,70(a5)
	sext.w	a4,a5
	.loc 1 936 77
	lla	a5,mPcdDatabase
	ld	a5,8(a5)
	.loc 1 936 83
	lhu	a5,70(a5)
	sext.w	a5,a5
	.loc 1 936 63
	addw	a5,a4,a5
	sext.w	a5,a5
	mv	a4,a5
	.loc 1 936 28
	lla	a5,TmpTokenSpaceBufferCount
	sd	a4,0(a5)
	.loc 1 937 38
	lla	a5,TmpTokenSpaceBufferCount
	ld	a5,0(a5)
	.loc 1 937 81
	slli	a5,a5,3
	.loc 1 937 38
	mv	a0,a5
	call	AllocateZeroPool@plt
	mv	a4,a0
	.loc 1 937 23 discriminator 1
	lla	a5,TmpTokenSpaceBuffer
	sd	a4,0(a5)
	.loc 1 942 22
	lla	a5,mPcdTotalTokenCount
	lw	a5,0(a5)
	slli	a5,a5,32
	srli	a5,a5,32
	.loc 1 942 60
	slli	a5,a5,4
	.loc 1 942 22
	mv	a0,a5
	call	AllocateZeroPool@plt
	mv	a4,a0
	.loc 1 942 20 discriminator 1
	lla	a5,mCallbackFnTable
	sd	a4,0(a5)
	.loc 1 950 14
	sd	zero,-24(s0)
	.loc 1 950 3
	j	.L127
.L128:
	.loc 1 951 5
	lla	a5,mCallbackFnTable
	ld	a4,0(a5)
	.loc 1 951 42
	ld	a5,-24(s0)
	slli	a5,a5,4
	.loc 1 951 5
	add	a5,a4,a5
	mv	a0,a5
	call	InitializeListHead@plt
	.loc 1 950 61 discriminator 3
	ld	a5,-24(s0)
	addi	a5,a5,1
	sd	a5,-24(s0)
.L127:
	.loc 1 950 25 discriminator 1
	ld	a5,-24(s0)
	addi	a4,a5,1
	.loc 1 950 51 discriminator 1
	lla	a5,mPcdTotalTokenCount
	lw	a5,0(a5)
	addiw	a5,a5,1
	sext.w	a5,a5
	slli	a5,a5,32
	srli	a5,a5,32
	.loc 1 950 29 discriminator 1
	bltu	a4,a5,.L128
	.loc 1 953 1
	nop
	nop
	ld	ra,56(sp)
	.cfi_restore 1
	ld	s0,48(sp)
	.cfi_restore 8
	.cfi_def_cfa 2, 64
	addi	sp,sp,64
	.cfi_def_cfa_offset 0
	jr	ra
	.cfi_endproc
.LFE11:
	.size	BuildPcdDxeDataBase, .-BuildPcdDxeDataBase
	.section	.text.GetHiiVariable,"ax",@progbits
	.align	1
	.globl	GetHiiVariable
	.type	GetHiiVariable, @function
GetHiiVariable:
.LFB12:
	.loc 1 972 1
	.cfi_startproc
	addi	sp,sp,-80
	.cfi_def_cfa_offset 80
	sd	ra,72(sp)
	sd	s0,64(sp)
	.cfi_offset 1, -8
	.cfi_offset 8, -16
	addi	s0,sp,80
	.cfi_def_cfa 8, 0
	sd	a0,-56(s0)
	sd	a1,-64(s0)
	sd	a2,-72(s0)
	sd	a3,-80(s0)
	.loc 1 977 8
	sd	zero,-40(s0)
	.loc 1 978 10
	sd	zero,-32(s0)
	.loc 1 983 15
	la	a5,gRT
	ld	a5,0(a5)
	ld	a5,72(a5)
	.loc 1 983 12
	addi	a3,s0,-40
	ld	a4,-32(s0)
	li	a2,0
	ld	a1,-56(s0)
	ld	a0,-64(s0)
	jalr	a5
.LVL0:
	sd	a0,-24(s0)
	.loc 1 994 6
	ld	a4,-24(s0)
	li	a5,-1
	slli	a5,a5,63
	addi	a5,a5,5
	bne	a4,a5,.L130
	.loc 1 995 23
	ld	a5,-40(s0)
	mv	a0,a5
	call	AllocatePool@plt
	sd	a0,-32(s0)
	.loc 1 999 17
	la	a5,gRT
	ld	a5,0(a5)
	ld	a5,72(a5)
	.loc 1 999 14
	addi	a3,s0,-40
	ld	a4,-32(s0)
	li	a2,0
	ld	a1,-56(s0)
	ld	a0,-64(s0)
	jalr	a5
.LVL1:
	sd	a0,-24(s0)
	.loc 1 1008 19
	ld	a5,-72(s0)
	ld	a4,-32(s0)
	sd	a4,0(a5)
	.loc 1 1009 19
	ld	a4,-40(s0)
	ld	a5,-80(s0)
	sd	a4,0(a5)
.L130:
	.loc 1 1018 10
	ld	a5,-24(s0)
	.loc 1 1019 1
	mv	a0,a5
	ld	ra,72(sp)
	.cfi_restore 1
	ld	s0,64(sp)
	.cfi_restore 8
	.cfi_def_cfa 2, 80
	addi	sp,sp,80
	.cfi_def_cfa_offset 0
	jr	ra
	.cfi_endproc
.LFE12:
	.size	GetHiiVariable, .-GetHiiVariable
	.section	.text.InvokeCallbackOnSet,"ax",@progbits
	.align	1
	.globl	InvokeCallbackOnSet
	.type	InvokeCallbackOnSet, @function
InvokeCallbackOnSet:
.LFB13:
	.loc 1 1042 1
	.cfi_startproc
	addi	sp,sp,-96
	.cfi_def_cfa_offset 96
	sd	ra,88(sp)
	sd	s0,80(sp)
	.cfi_offset 1, -8
	.cfi_offset 8, -16
	addi	s0,sp,96
	.cfi_def_cfa 8, 0
	mv	a5,a0
	sd	a1,-64(s0)
	sd	a2,-72(s0)
	sd	a3,-80(s0)
	sd	a4,-88(s0)
	sw	a5,-52(s0)
	.loc 1 1052 14
	lla	a5,mCallbackFnTable
	ld	a4,0(a5)
	.loc 1 1052 31
	ld	a5,-72(s0)
	slli	a5,a5,4
	addi	a5,a5,-16
	.loc 1 1052 12
	add	a5,a4,a5
	sd	a5,-32(s0)
	.loc 1 1053 14
	ld	a0,-32(s0)
	call	GetFirstNode@plt
	sd	a0,-24(s0)
	.loc 1 1055 9
	j	.L133
.L136:
	.loc 1 1056 18
	ld	a5,-24(s0)
	sd	a5,-40(s0)
	.loc 1 1058 17
	ld	a5,-40(s0)
	ld	a4,16(a5)
	.loc 1 1058 5
	ld	a5,-64(s0)
	beq	a5,zero,.L134
	.loc 1 1058 5 is_stmt 0 discriminator 1
	lwu	a5,-52(s0)
	j	.L135
.L134:
	.loc 1 1058 5 discriminator 2
	ld	a5,-72(s0)
.L135:
	.loc 1 1058 5 discriminator 4
	ld	a3,-88(s0)
	ld	a2,-80(s0)
	mv	a1,a5
	ld	a0,-64(s0)
	jalr	a4
.LVL2:
	.loc 1 1065 16 is_stmt 1
	ld	a1,-24(s0)
	ld	a0,-32(s0)
	call	GetNextNode@plt
	sd	a0,-24(s0)
.L133:
	.loc 1 1055 19
	ld	a4,-24(s0)
	ld	a5,-32(s0)
	bne	a4,a5,.L136
	.loc 1 1068 3
	nop
	.loc 1 1069 1
	ld	ra,88(sp)
	.cfi_restore 1
	ld	s0,80(sp)
	.cfi_restore 8
	.cfi_def_cfa 2, 96
	addi	sp,sp,96
	.cfi_def_cfa_offset 0
	jr	ra
	.cfi_endproc
.LFE13:
	.size	InvokeCallbackOnSet, .-InvokeCallbackOnSet
	.section	.text.SetValueWorker,"ax",@progbits
	.align	1
	.globl	SetValueWorker
	.type	SetValueWorker, @function
SetValueWorker:
.LFB14:
	.loc 1 1087 1
	.cfi_startproc
	addi	sp,sp,-48
	.cfi_def_cfa_offset 48
	sd	ra,40(sp)
	sd	s0,32(sp)
	.cfi_offset 1, -8
	.cfi_offset 8, -16
	addi	s0,sp,48
	.cfi_def_cfa 8, 0
	sd	a0,-24(s0)
	sd	a1,-32(s0)
	sd	a2,-40(s0)
	.loc 1 1088 10
	addi	a5,s0,-40
	li	a3,0
	mv	a2,a5
	ld	a1,-32(s0)
	ld	a0,-24(s0)
	call	SetWorker
	mv	a5,a0
	.loc 1 1089 1
	mv	a0,a5
	ld	ra,40(sp)
	.cfi_restore 1
	ld	s0,32(sp)
	.cfi_restore 8
	.cfi_def_cfa 2, 48
	addi	sp,sp,48
	.cfi_def_cfa_offset 0
	jr	ra
	.cfi_endproc
.LFE14:
	.size	SetValueWorker, .-SetValueWorker
	.section	.text.SetWorker,"ax",@progbits
	.align	1
	.globl	SetWorker
	.type	SetWorker, @function
SetWorker:
.LFB15:
	.loc 1 1114 1
	.cfi_startproc
	addi	sp,sp,-192
	.cfi_def_cfa_offset 192
	sd	ra,184(sp)
	sd	s0,176(sp)
	sd	s1,168(sp)
	.cfi_offset 1, -8
	.cfi_offset 8, -16
	.cfi_offset 9, -24
	addi	s0,sp,192
	.cfi_def_cfa 8, 0
	sd	a0,-168(s0)
	sd	a1,-176(s0)
	sd	a2,-184(s0)
	mv	a5,a3
	sb	a5,-185(s0)
	.loc 1 1136 14
	ld	a5,-168(s0)
	addi	a5,a5,-1
	sd	a5,-168(s0)
	.loc 1 1138 18
	ld	a5,-168(s0)
	sd	a5,-80(s0)
	.loc 1 1147 6
	lbu	a5,-185(s0)
	andi	a5,a5,0xff
	beq	a5,zero,.L141
	.loc 1 1151 5
	addi	a5,s0,-152
	mv	a1,a5
	ld	a0,-168(s0)
	call	GetPtrTypeSize
	.loc 1 1152 9
	ld	a5,-184(s0)
	ld	a4,0(a5)
	.loc 1 1152 15
	ld	a5,-152(s0)
	.loc 1 1152 8
	bleu	a4,a5,.L142
	.loc 1 1153 13
	ld	a4,-152(s0)
	ld	a5,-184(s0)
	sd	a4,0(a5)
	.loc 1 1154 14
	li	a5,-1
	slli	a5,a5,63
	addi	a5,a5,2
	j	.L172
.L141:
	.loc 1 1157 9
	ld	a5,-184(s0)
	ld	s1,0(a5)
	.loc 1 1157 18
	ld	a5,-168(s0)
	addi	a5,a5,1
	mv	a0,a5
	call	DxePcdGetSize@plt
	mv	a5,a0
	.loc 1 1157 8 discriminator 1
	beq	s1,a5,.L142
	.loc 1 1158 14
	li	a5,-1
	slli	a5,a5,63
	addi	a5,a5,2
	j	.L172
.L142:
	.loc 1 1167 20
	ld	a5,-168(s0)
	addi	a4,a5,1
	.loc 1 1167 44
	lla	a5,mPeiNexTokenCount
	lw	a5,0(a5)
	addiw	a5,a5,1
	sext.w	a5,a5
	slli	a5,a5,32
	srli	a5,a5,32
	.loc 1 1167 6
	bltu	a4,a5,.L144
	.loc 1 1168 21
	ld	a5,-168(s0)
	addi	a4,a5,1
	.loc 1 1168 48
	lla	a5,mPeiLocalTokenCount
	lw	a5,0(a5)
	addiw	a5,a5,1
	sext.w	a5,a5
	slli	a5,a5,32
	srli	a5,a5,32
	.loc 1 1167 49 discriminator 1
	bltu	a4,a5,.L145
	.loc 1 1168 69
	ld	a5,-168(s0)
	addi	a4,a5,1
	.loc 1 1168 96
	lla	a5,mPeiLocalTokenCount
	lw	a3,0(a5)
	lla	a5,mDxeNexTokenCount
	lw	a5,0(a5)
	addw	a5,a3,a5
	sext.w	a5,a5
	.loc 1 1168 116
	addiw	a5,a5,1
	sext.w	a5,a5
	slli	a5,a5,32
	srli	a5,a5,32
	.loc 1 1168 53
	bgeu	a4,a5,.L145
.L144:
	.loc 1 1170 5
	ld	a5,-168(s0)
	addi	a2,a5,1
	ld	a5,-184(s0)
	ld	a5,0(a5)
	mv	a4,a5
	ld	a3,-176(s0)
	li	a1,0
	li	a0,0
	call	InvokeCallbackOnSet
.L145:
	.loc 1 1176 3
	la	a0,mPcdDatabaseLock
	call	EfiAcquireLock@plt
	.loc 1 1183 36
	ld	a5,-168(s0)
	addi	a4,a5,1
	.loc 1 1183 62
	lla	a5,mPeiLocalTokenCount
	lw	a5,0(a5)
	addiw	a5,a5,1
	sext.w	a5,a5
	slli	a5,a5,32
	srli	a5,a5,32
	.loc 1 1183 13
	bgeu	a4,a5,.L146
	.loc 1 1183 11 discriminator 1
	li	a5,1
	sb	a5,-33(s0)
	j	.L147
.L146:
	.loc 1 1183 11 is_stmt 0 discriminator 2
	sb	zero,-33(s0)
.L147:
	.loc 1 1185 22 is_stmt 1
	ld	a5,-168(s0)
	addi	a4,a5,1
	lbu	a5,-33(s0)
	mv	a1,a4
	mv	a0,a5
	call	GetLocalTokenNumber
	mv	a5,a0
	sw	a5,-84(s0)
	.loc 1 1187 29
	lwu	a4,-84(s0)
	.loc 1 1187 10
	li	a5,552599552
	addi	a5,a5,-1
	and	a5,a4,a5
	sd	a5,-96(s0)
	.loc 1 1189 51
	lbu	a5,-33(s0)
	andi	a5,a5,0xff
	beq	a5,zero,.L148
	.loc 1 1189 9 discriminator 1
	lla	a5,mPcdDatabase
	ld	a5,0(a5)
	sd	a5,-64(s0)
	j	.L149
.L148:
	.loc 1 1189 9 is_stmt 0 discriminator 2
	lla	a5,mPcdDatabase
	ld	a5,8(a5)
	sd	a5,-64(s0)
.L149:
	.loc 1 1191 6 is_stmt 1
	lbu	a5,-33(s0)
	andi	a5,a5,0xff
	beq	a5,zero,.L150
	.loc 1 1192 50
	lla	a5,mPcdDatabase
	ld	a4,0(a5)
	.loc 1 1192 71
	lla	a5,mPcdDatabase
	ld	a5,0(a5)
	.loc 1 1192 77
	lw	a5,52(a5)
	slli	a5,a5,32
	srli	a5,a5,32
	.loc 1 1192 17
	add	a5,a4,a5
	sd	a5,-56(s0)
	j	.L151
.L150:
	.loc 1 1194 50
	lla	a5,mPcdDatabase
	ld	a4,8(a5)
	.loc 1 1194 71
	lla	a5,mPcdDatabase
	ld	a5,8(a5)
	.loc 1 1194 77
	lw	a5,52(a5)
	slli	a5,a5,32
	srli	a5,a5,32
	.loc 1 1194 17
	add	a5,a4,a5
	sd	a5,-56(s0)
.L151:
	.loc 1 1197 16
	ld	a4,-64(s0)
	ld	a5,-96(s0)
	add	a5,a4,a5
	sd	a5,-104(s0)
	.loc 1 1199 28
	lw	a5,-84(s0)
	mv	a4,a5
	li	a5,-805306368
	and	a5,a4,a5
	sext.w	a5,a5
	.loc 1 1199 3
	li	a4,-1879048192
	beq	a5,a4,.L152
	li	a4,-1879048192
	bgtu	a5,a4,.L153
	li	a4,-2147483648
	beq	a5,a4,.L152
	li	a4,-2147483648
	bgtu	a5,a4,.L153
	li	a4,1073741824
	beq	a5,a4,.L154
	li	a4,1073741824
	bgtu	a5,a4,.L153
	beq	a5,zero,.L155
	li	a4,268435456
	beq	a5,a4,.L156
	j	.L153
.L154:
	.loc 1 1202 14
	li	a5,-1
	slli	a5,a5,63
	addi	a5,a5,2
	sd	a5,-72(s0)
	.loc 1 1203 7
	j	.L157
.L156:
	.loc 1 1206 11
	ld	a1,-184(s0)
	ld	a0,-80(s0)
	call	SetPtrTypeSize
	mv	a5,a0
	.loc 1 1206 10 discriminator 1
	beq	a5,zero,.L158
	.loc 1 1207 32
	ld	a5,-104(s0)
	lw	a5,0(a5)
	slli	a5,a5,32
	srli	a5,a5,32
	.loc 1 1207 30
	ld	a4,-56(s0)
	add	a4,a4,a5
	.loc 1 1207 9
	ld	a5,-184(s0)
	ld	a5,0(a5)
	mv	a2,a5
	ld	a1,-176(s0)
	mv	a0,a4
	call	CopyMem@plt
	.loc 1 1208 16
	sd	zero,-72(s0)
	.loc 1 1213 7
	j	.L157
.L158:
	.loc 1 1210 16
	li	a5,-1
	slli	a5,a5,63
	addi	a5,a5,2
	sd	a5,-72(s0)
	.loc 1 1213 7
	j	.L157
.L152:
	.loc 1 1217 10
	lbu	a5,-185(s0)
	andi	a5,a5,0xff
	beq	a5,zero,.L160
	.loc 1 1218 14
	ld	a1,-184(s0)
	ld	a0,-80(s0)
	call	SetPtrTypeSize
	mv	a5,a0
	.loc 1 1218 12 discriminator 1
	bne	a5,zero,.L160
	.loc 1 1219 18
	li	a5,-1
	slli	a5,a5,63
	addi	a5,a5,2
	sd	a5,-72(s0)
	.loc 1 1220 11
	j	.L157
.L160:
	.loc 1 1224 10
	lbu	a5,-33(s0)
	andi	a5,a5,0xff
	beq	a5,zero,.L161
	.loc 1 1225 55
	lla	a5,mPcdDatabase
	ld	a4,0(a5)
	.loc 1 1225 76
	lla	a5,mPcdDatabase
	ld	a5,0(a5)
	.loc 1 1225 82
	lw	a5,48(a5)
	slli	a5,a5,32
	srli	a5,a5,32
	.loc 1 1225 19
	add	a5,a4,a5
	sd	a5,-48(s0)
	j	.L162
.L161:
	.loc 1 1227 55
	lla	a5,mPcdDatabase
	ld	a4,8(a5)
	.loc 1 1227 76
	lla	a5,mPcdDatabase
	ld	a5,8(a5)
	.loc 1 1227 82
	lw	a5,48(a5)
	slli	a5,a5,32
	srli	a5,a5,32
	.loc 1 1227 19
	add	a5,a4,a5
	sd	a5,-48(s0)
.L162:
	.loc 1 1230 20
	ld	a4,-64(s0)
	ld	a5,-96(s0)
	add	a5,a4,a5
	sd	a5,-112(s0)
	.loc 1 1232 38
	ld	a5,-112(s0)
	lhu	a5,8(a5)
	.loc 1 1232 24
	slli	a5,a5,4
	.loc 1 1232 12
	ld	a4,-48(s0)
	add	a5,a4,a5
	sd	a5,-120(s0)
	.loc 1 1233 51
	ld	a5,-112(s0)
	lw	a5,0(a5)
	slli	a5,a5,32
	srli	a5,a5,32
	.loc 1 1233 12
	ld	a4,-56(s0)
	add	a5,a4,a5
	sd	a5,-128(s0)
	.loc 1 1234 36
	ld	a5,-112(s0)
	lhu	a5,10(a5)
	.loc 1 1234 22
	sd	a5,-136(s0)
	.loc 1 1235 18
	ld	a5,-112(s0)
	lw	a5,12(a5)
	sw	a5,-140(s0)
	.loc 1 1236 16
	ld	a5,-184(s0)
	ld	a4,0(a5)
	lw	a2,-140(s0)
	ld	a5,-136(s0)
	ld	a3,-176(s0)
	ld	a1,-128(s0)
	ld	a0,-120(s0)
	call	SetHiiVariable
	sd	a0,-72(s0)
	.loc 1 1237 7
	j	.L157
.L155:
	.loc 1 1240 10
	lbu	a5,-185(s0)
	andi	a5,a5,0xff
	beq	a5,zero,.L163
	.loc 1 1241 13
	ld	a1,-184(s0)
	ld	a0,-80(s0)
	call	SetPtrTypeSize
	mv	a5,a0
	.loc 1 1241 12 discriminator 1
	beq	a5,zero,.L164
	.loc 1 1242 11
	ld	a5,-184(s0)
	ld	a5,0(a5)
	mv	a2,a5
	ld	a1,-176(s0)
	ld	a0,-104(s0)
	call	CopyMem@plt
	.loc 1 1243 18
	sd	zero,-72(s0)
	.loc 1 1248 9
	j	.L157
.L164:
	.loc 1 1245 18
	li	a5,-1
	slli	a5,a5,63
	addi	a5,a5,2
	sd	a5,-72(s0)
	.loc 1 1248 9
	j	.L157
.L163:
	.loc 1 1251 14
	sd	zero,-72(s0)
	.loc 1 1252 15
	ld	a5,-184(s0)
	ld	a5,0(a5)
	.loc 1 1252 7
	li	a4,8
	beq	a5,a4,.L166
	li	a4,8
	bgtu	a5,a4,.L167
	li	a4,4
	beq	a5,a4,.L168
	li	a4,4
	bgtu	a5,a4,.L167
	li	a4,1
	beq	a5,a4,.L169
	li	a4,2
	beq	a5,a4,.L170
	j	.L167
.L169:
	.loc 1 1254 38
	ld	a5,-176(s0)
	lbu	a4,0(a5)
	.loc 1 1254 36
	ld	a5,-104(s0)
	sb	a4,0(a5)
	.loc 1 1255 11
	j	.L171
.L170:
	.loc 1 1258 39
	ld	a5,-176(s0)
	lhu	a4,0(a5)
	.loc 1 1258 37
	ld	a5,-104(s0)
	sh	a4,0(a5)
	.loc 1 1259 11
	j	.L171
.L168:
	.loc 1 1262 39
	ld	a5,-176(s0)
	lw	a4,0(a5)
	.loc 1 1262 37
	ld	a5,-104(s0)
	sw	a4,0(a5)
	.loc 1 1263 11
	j	.L171
.L166:
	.loc 1 1266 39
	ld	a5,-176(s0)
	ld	a4,0(a5)
	.loc 1 1266 37
	ld	a5,-104(s0)
	sd	a4,0(a5)
	.loc 1 1267 11
	j	.L171
.L167:
	.loc 1 1271 18
	li	a5,-1
	slli	a5,a5,63
	addi	a5,a5,14
	sd	a5,-72(s0)
	.loc 1 1272 11
	nop
.L171:
	.loc 1 1275 7
	j	.L157
.L153:
	.loc 1 1279 14
	li	a5,-1
	slli	a5,a5,63
	addi	a5,a5,14
	sd	a5,-72(s0)
	.loc 1 1280 7
	nop
.L157:
	.loc 1 1283 3
	la	a0,mPcdDatabaseLock
	call	EfiReleaseLock@plt
	.loc 1 1285 10
	ld	a5,-72(s0)
.L172:
	.loc 1 1286 1
	mv	a0,a5
	ld	ra,184(sp)
	.cfi_restore 1
	ld	s0,176(sp)
	.cfi_restore 8
	.cfi_def_cfa 2, 192
	ld	s1,168(sp)
	.cfi_restore 9
	addi	sp,sp,192
	.cfi_def_cfa_offset 0
	jr	ra
	.cfi_endproc
.LFE15:
	.size	SetWorker, .-SetWorker
	.section	.text.ExGetWorker,"ax",@progbits
	.align	1
	.globl	ExGetWorker
	.type	ExGetWorker, @function
ExGetWorker:
.LFB16:
	.loc 1 1304 1
	.cfi_startproc
	addi	sp,sp,-48
	.cfi_def_cfa_offset 48
	sd	ra,40(sp)
	sd	s0,32(sp)
	.cfi_offset 1, -8
	.cfi_offset 8, -16
	addi	s0,sp,48
	.cfi_def_cfa 8, 0
	sd	a0,-24(s0)
	sd	a1,-32(s0)
	sd	a2,-40(s0)
	.loc 1 1305 10
	ld	a5,-32(s0)
	sext.w	a5,a5
	mv	a1,a5
	ld	a0,-24(s0)
	call	GetExPcdTokenNumber
	mv	a5,a0
	.loc 1 1305 10 is_stmt 0 discriminator 1
	ld	a1,-40(s0)
	mv	a0,a5
	call	GetWorker
	mv	a5,a0
	.loc 1 1306 1 is_stmt 1
	mv	a0,a5
	ld	ra,40(sp)
	.cfi_restore 1
	ld	s0,32(sp)
	.cfi_restore 8
	.cfi_def_cfa 2, 48
	addi	sp,sp,48
	.cfi_def_cfa_offset 0
	jr	ra
	.cfi_endproc
.LFE16:
	.size	ExGetWorker, .-ExGetWorker
	.section	.text.ExSetValueWorker,"ax",@progbits
	.align	1
	.globl	ExSetValueWorker
	.type	ExSetValueWorker, @function
ExSetValueWorker:
.LFB17:
	.loc 1 1326 1
	.cfi_startproc
	addi	sp,sp,-48
	.cfi_def_cfa_offset 48
	sd	ra,40(sp)
	sd	s0,32(sp)
	.cfi_offset 1, -8
	.cfi_offset 8, -16
	addi	s0,sp,48
	.cfi_def_cfa 8, 0
	sd	a0,-24(s0)
	sd	a1,-32(s0)
	sd	a2,-40(s0)
	sd	a3,-48(s0)
	.loc 1 1327 10
	addi	a5,s0,-48
	li	a4,0
	mv	a3,a5
	ld	a2,-40(s0)
	ld	a1,-32(s0)
	ld	a0,-24(s0)
	call	ExSetWorker
	mv	a5,a0
	.loc 1 1328 1
	mv	a0,a5
	ld	ra,40(sp)
	.cfi_restore 1
	ld	s0,32(sp)
	.cfi_restore 8
	.cfi_def_cfa 2, 48
	addi	sp,sp,48
	.cfi_def_cfa_offset 0
	jr	ra
	.cfi_endproc
.LFE17:
	.size	ExSetValueWorker, .-ExSetValueWorker
	.section	.text.ExSetWorker,"ax",@progbits
	.align	1
	.globl	ExSetWorker
	.type	ExSetWorker, @function
ExSetWorker:
.LFB18:
	.loc 1 1356 1
	.cfi_startproc
	addi	sp,sp,-80
	.cfi_def_cfa_offset 80
	sd	ra,72(sp)
	sd	s0,64(sp)
	.cfi_offset 1, -8
	.cfi_offset 8, -16
	addi	s0,sp,80
	.cfi_def_cfa 8, 0
	sd	a0,-40(s0)
	sd	a1,-48(s0)
	sd	a2,-56(s0)
	sd	a3,-64(s0)
	mv	a5,a4
	sb	a5,-65(s0)
	.loc 1 1359 17
	ld	a5,-40(s0)
	sext.w	a5,a5
	mv	a1,a5
	ld	a0,-48(s0)
	call	GetExPcdTokenNumber
	sd	a0,-24(s0)
	.loc 1 1361 3
	ld	a5,-40(s0)
	sext.w	a0,a5
	ld	a5,-64(s0)
	ld	a5,0(a5)
	mv	a4,a5
	ld	a3,-56(s0)
	ld	a2,-24(s0)
	ld	a1,-48(s0)
	call	InvokeCallbackOnSet
	.loc 1 1363 10
	lbu	a5,-65(s0)
	mv	a3,a5
	ld	a2,-64(s0)
	ld	a1,-56(s0)
	ld	a0,-24(s0)
	call	SetWorker
	mv	a5,a0
	.loc 1 1364 1
	mv	a0,a5
	ld	ra,72(sp)
	.cfi_restore 1
	ld	s0,64(sp)
	.cfi_restore 8
	.cfi_def_cfa 2, 80
	addi	sp,sp,80
	.cfi_def_cfa_offset 0
	jr	ra
	.cfi_endproc
.LFE18:
	.size	ExSetWorker, .-ExSetWorker
	.section	.text.GetVariableSizeAndDataFromHiiPcd,"ax",@progbits
	.align	1
	.globl	GetVariableSizeAndDataFromHiiPcd
	.type	GetVariableSizeAndDataFromHiiPcd, @function
GetVariableSizeAndDataFromHiiPcd:
.LFB19:
	.loc 1 1382 1
	.cfi_startproc
	addi	sp,sp,-160
	.cfi_def_cfa_offset 160
	sd	ra,152(sp)
	sd	s0,144(sp)
	.cfi_offset 1, -8
	.cfi_offset 8, -16
	addi	s0,sp,160
	.cfi_def_cfa 8, 0
	sd	a0,-136(s0)
	sd	a1,-144(s0)
	sd	a2,-152(s0)
	sd	a3,-160(s0)
	.loc 1 1398 17
	ld	a5,-152(s0)
	sd	zero,0(a5)
	.loc 1 1403 20
	li	a5,1
	sd	a5,-40(s0)
	.loc 1 1403 3
	j	.L180
.L189:
	.loc 1 1404 38
	ld	a5,-40(s0)
	addi	a4,a5,1
	.loc 1 1404 64
	lla	a5,mPeiLocalTokenCount
	lw	a5,0(a5)
	addiw	a5,a5,1
	sext.w	a5,a5
	slli	a5,a5,32
	srli	a5,a5,32
	.loc 1 1404 15
	bgeu	a4,a5,.L181
	.loc 1 1404 13 discriminator 1
	li	a5,1
	sb	a5,-17(s0)
	j	.L182
.L181:
	.loc 1 1404 13 is_stmt 0 discriminator 2
	sb	zero,-17(s0)
.L182:
	.loc 1 1405 45 is_stmt 1
	lbu	a5,-17(s0)
	andi	a5,a5,0xff
	beq	a5,zero,.L183
	.loc 1 1405 14 discriminator 1
	lla	a5,mPcdDatabase
	ld	a5,0(a5)
	sd	a5,-32(s0)
	j	.L184
.L183:
	.loc 1 1405 14 is_stmt 0 discriminator 2
	lla	a5,mPcdDatabase
	ld	a5,8(a5)
	sd	a5,-32(s0)
.L184:
	.loc 1 1406 24 is_stmt 1
	lbu	a5,-17(s0)
	ld	a1,-40(s0)
	mv	a0,a5
	call	GetLocalTokenNumber
	mv	a5,a0
	sw	a5,-52(s0)
	.loc 1 1407 43
	lw	a5,-52(s0)
	.loc 1 1407 8
	bge	a5,zero,.L185
	.loc 1 1411 33
	lwu	a4,-52(s0)
	.loc 1 1411 14
	li	a5,552599552
	addi	a5,a5,-1
	and	a5,a4,a5
	sd	a5,-64(s0)
	.loc 1 1412 20
	ld	a4,-32(s0)
	ld	a5,-64(s0)
	add	a5,a4,a5
	sd	a5,-72(s0)
	.loc 1 1413 59
	ld	a5,-32(s0)
	lw	a5,52(a5)
	slli	a5,a5,32
	srli	a5,a5,32
	.loc 1 1413 19
	ld	a4,-32(s0)
	add	a5,a4,a5
	sd	a5,-80(s0)
	.loc 1 1414 60
	ld	a5,-32(s0)
	lw	a5,48(a5)
	slli	a5,a5,32
	srli	a5,a5,32
	.loc 1 1414 17
	ld	a4,-32(s0)
	add	a5,a4,a5
	sd	a5,-88(s0)
	.loc 1 1415 38
	ld	a5,-72(s0)
	lhu	a5,8(a5)
	.loc 1 1415 24
	slli	a5,a5,4
	.loc 1 1415 12
	ld	a4,-88(s0)
	add	a5,a4,a5
	sd	a5,-96(s0)
	.loc 1 1416 51
	ld	a5,-72(s0)
	lw	a5,0(a5)
	slli	a5,a5,32
	srli	a5,a5,32
	.loc 1 1416 12
	ld	a4,-80(s0)
	add	a5,a4,a5
	sd	a5,-104(s0)
	.loc 1 1417 11
	ld	a1,-96(s0)
	ld	a0,-136(s0)
	call	CompareGuid@plt
	mv	a5,a0
	.loc 1 1417 10 discriminator 1
	beq	a5,zero,.L185
	.loc 1 1417 48 discriminator 2
	ld	a1,-104(s0)
	ld	a0,-144(s0)
	call	StrCmp@plt
	mv	a5,a0
	.loc 1 1417 44 discriminator 3
	bne	a5,zero,.L185
	.loc 1 1421 23
	ld	a0,-40(s0)
	call	DxePcdGetSize@plt
	sd	a0,-112(s0)
	.loc 1 1422 28
	ld	a5,-72(s0)
	lhu	a5,10(a5)
	mv	a4,a5
	.loc 1 1422 14
	ld	a5,-112(s0)
	add	a5,a5,a4
	sd	a5,-120(s0)
	.loc 1 1423 20
	ld	a5,-152(s0)
	ld	a5,0(a5)
	.loc 1 1423 12
	ld	a4,-120(s0)
	bleu	a4,a5,.L186
	.loc 1 1424 25
	ld	a5,-152(s0)
	ld	a4,-120(s0)
	sd	a4,0(a5)
.L186:
	.loc 1 1427 12
	ld	a5,-160(s0)
	beq	a5,zero,.L185
	.loc 1 1428 33
	lw	a5,-52(s0)
	mv	a4,a5
	li	a5,-805306368
	and	a5,a4,a5
	sext.w	a4,a5
	.loc 1 1428 14
	li	a5,-1879048192
	bne	a4,a5,.L187
	.loc 1 1433 79
	ld	a5,-72(s0)
	lw	a5,4(a5)
	slli	a5,a5,32
	srli	a5,a5,32
	.loc 1 1433 31
	ld	a4,-32(s0)
	add	a5,a4,a5
	.loc 1 1433 28
	lw	a5,0(a5)
	sw	a5,-124(s0)
	.loc 1 1434 38
	lwu	a5,-124(s0)
	.loc 1 1434 36
	ld	a4,-80(s0)
	add	a5,a4,a5
	sd	a5,-48(s0)
	j	.L188
.L187:
	.loc 1 1436 70
	ld	a5,-72(s0)
	lw	a5,4(a5)
	slli	a5,a5,32
	srli	a5,a5,32
	.loc 1 1436 36
	ld	a4,-32(s0)
	add	a5,a4,a5
	sd	a5,-48(s0)
.L188:
	.loc 1 1439 56
	ld	a5,-72(s0)
	lhu	a5,10(a5)
	mv	a4,a5
	.loc 1 1439 11
	ld	a5,-160(s0)
	add	a5,a5,a4
	ld	a2,-112(s0)
	ld	a1,-48(s0)
	mv	a0,a5
	call	CopyMem@plt
.L185:
	.loc 1 1403 72 discriminator 2
	ld	a5,-40(s0)
	addi	a5,a5,1
	sd	a5,-40(s0)
.L180:
	.loc 1 1403 37 discriminator 1
	lla	a5,mPcdTotalTokenCount
	lw	a5,0(a5)
	slli	a5,a5,32
	srli	a5,a5,32
	ld	a4,-40(s0)
	bleu	a4,a5,.L189
	.loc 1 1444 1
	nop
	nop
	ld	ra,152(sp)
	.cfi_restore 1
	ld	s0,144(sp)
	.cfi_restore 8
	.cfi_def_cfa 2, 160
	addi	sp,sp,160
	.cfi_def_cfa_offset 0
	jr	ra
	.cfi_endproc
.LFE19:
	.size	GetVariableSizeAndDataFromHiiPcd, .-GetVariableSizeAndDataFromHiiPcd
	.section	.text.SetHiiVariable,"ax",@progbits
	.align	1
	.globl	SetHiiVariable
	.type	SetHiiVariable, @function
SetHiiVariable:
.LFB20:
	.loc 1 1471 1
	.cfi_startproc
	addi	sp,sp,-112
	.cfi_def_cfa_offset 112
	sd	ra,104(sp)
	sd	s0,96(sp)
	.cfi_offset 1, -8
	.cfi_offset 8, -16
	addi	s0,sp,112
	.cfi_def_cfa 8, 0
	sd	a0,-72(s0)
	sd	a1,-80(s0)
	sd	a3,-96(s0)
	sd	a4,-104(s0)
	sd	a5,-112(s0)
	mv	a5,a2
	sw	a5,-84(s0)
	.loc 1 1478 8
	sd	zero,-48(s0)
	.loc 1 1479 11
	sd	zero,-24(s0)
	.loc 1 1484 15
	la	a5,gRT
	ld	a5,0(a5)
	ld	a5,72(a5)
	.loc 1 1484 12
	addi	a3,s0,-48
	li	a4,0
	li	a2,0
	ld	a1,-72(s0)
	ld	a0,-80(s0)
	jalr	a5
.LVL3:
	sd	a0,-32(s0)
	.loc 1 1492 6
	ld	a4,-32(s0)
	li	a5,-1
	slli	a5,a5,63
	addi	a5,a5,5
	bne	a4,a5,.L191
	.loc 1 1496 27
	ld	a4,-104(s0)
	ld	a5,-112(s0)
	add	a4,a4,a5
	.loc 1 1496 14
	ld	a5,-48(s0)
	.loc 1 1496 8
	bgtu	a4,a5,.L192
	.loc 1 1497 15
	ld	a5,-48(s0)
	sd	a5,-24(s0)
	j	.L193
.L192:
	.loc 1 1499 15
	ld	a4,-104(s0)
	ld	a5,-112(s0)
	add	a5,a4,a5
	sd	a5,-24(s0)
.L193:
	.loc 1 1502 14
	ld	a0,-24(s0)
	call	AllocatePool@plt
	sd	a0,-40(s0)
	.loc 1 1505 17
	la	a5,gRT
	ld	a5,0(a5)
	ld	a5,72(a5)
	.loc 1 1505 14
	addi	a3,s0,-48
	addi	a2,s0,-52
	ld	a4,-40(s0)
	ld	a1,-72(s0)
	ld	a0,-80(s0)
	jalr	a5
.LVL4:
	sd	a0,-32(s0)
	.loc 1 1515 5
	ld	a4,-40(s0)
	ld	a5,-112(s0)
	add	a5,a4,a5
	ld	a2,-104(s0)
	ld	a1,-96(s0)
	mv	a0,a5
	call	CopyMem@plt
	.loc 1 1517 8
	lw	a5,-84(s0)
	sext.w	a5,a5
	bne	a5,zero,.L194
	.loc 1 1518 21
	lw	a5,-52(s0)
	sw	a5,-84(s0)
.L194:
	.loc 1 1521 17
	la	a5,gRT
	ld	a5,0(a5)
	ld	a5,88(a5)
	.loc 1 1521 14
	lw	a2,-84(s0)
	ld	a4,-40(s0)
	ld	a3,-24(s0)
	ld	a1,-72(s0)
	ld	a0,-80(s0)
	jalr	a5
.LVL5:
	sd	a0,-32(s0)
	.loc 1 1529 5
	ld	a0,-40(s0)
	call	FreePool@plt
	.loc 1 1530 12
	ld	a5,-32(s0)
	j	.L198
.L191:
	.loc 1 1531 13
	ld	a4,-32(s0)
	li	a5,-1
	slli	a5,a5,63
	addi	a5,a5,14
	bne	a4,a5,.L196
	.loc 1 1539 5
	addi	a5,s0,-48
	li	a3,0
	mv	a2,a5
	ld	a1,-80(s0)
	ld	a0,-72(s0)
	call	GetVariableSizeAndDataFromHiiPcd
	.loc 1 1540 14
	ld	a5,-48(s0)
	mv	a0,a5
	call	AllocateZeroPool@plt
	sd	a0,-40(s0)
	.loc 1 1542 5
	addi	a5,s0,-48
	ld	a3,-40(s0)
	mv	a2,a5
	ld	a1,-80(s0)
	ld	a0,-72(s0)
	call	GetVariableSizeAndDataFromHiiPcd
	.loc 1 1547 5
	ld	a4,-40(s0)
	ld	a5,-112(s0)
	add	a5,a4,a5
	ld	a2,-104(s0)
	ld	a1,-96(s0)
	mv	a0,a5
	call	CopyMem@plt
	.loc 1 1549 8
	lw	a5,-84(s0)
	sext.w	a5,a5
	bne	a5,zero,.L197
	.loc 1 1550 21
	li	a5,7
	sw	a5,-84(s0)
.L197:
	.loc 1 1553 17
	la	a5,gRT
	ld	a5,0(a5)
	ld	a5,88(a5)
	.loc 1 1553 14
	ld	a3,-48(s0)
	lw	a2,-84(s0)
	ld	a4,-40(s0)
	ld	a1,-72(s0)
	ld	a0,-80(s0)
	jalr	a5
.LVL6:
	sd	a0,-32(s0)
	.loc 1 1561 5
	ld	a0,-40(s0)
	call	FreePool@plt
	.loc 1 1562 12
	ld	a5,-32(s0)
	j	.L198
.L196:
	.loc 1 1568 10
	ld	a5,-32(s0)
.L198:
	.loc 1 1569 1
	mv	a0,a5
	ld	ra,104(sp)
	.cfi_restore 1
	ld	s0,96(sp)
	.cfi_restore 8
	.cfi_def_cfa 2, 112
	addi	sp,sp,112
	.cfi_def_cfa_offset 0
	jr	ra
	.cfi_endproc
.LFE20:
	.size	SetHiiVariable, .-SetHiiVariable
	.section	.text.GetExPcdTokenNumber,"ax",@progbits
	.align	1
	.globl	GetExPcdTokenNumber
	.type	GetExPcdTokenNumber, @function
GetExPcdTokenNumber:
.LFB21:
	.loc 1 1589 1
	.cfi_startproc
	addi	sp,sp,-80
	.cfi_def_cfa_offset 80
	sd	ra,72(sp)
	sd	s0,64(sp)
	.cfi_offset 1, -8
	.cfi_offset 8, -16
	addi	s0,sp,80
	.cfi_def_cfa 8, 0
	sd	a0,-72(s0)
	mv	a5,a1
	sw	a5,-76(s0)
	.loc 1 1596 7
	lla	a5,mPeiDatabaseEmpty
	lbu	a5,0(a5)
	.loc 1 1596 6
	bne	a5,zero,.L200
	.loc 1 1597 56
	lla	a5,mPcdDatabase
	ld	a4,0(a5)
	.loc 1 1597 77
	lla	a5,mPcdDatabase
	ld	a5,0(a5)
	.loc 1 1597 83
	lw	a5,44(a5)
	slli	a5,a5,32
	srli	a5,a5,32
	.loc 1 1597 11
	add	a5,a4,a5
	sd	a5,-32(s0)
	.loc 1 1598 51
	lla	a5,mPcdDatabase
	ld	a4,0(a5)
	.loc 1 1598 72
	lla	a5,mPcdDatabase
	ld	a5,0(a5)
	.loc 1 1598 78
	lw	a5,48(a5)
	slli	a5,a5,32
	srli	a5,a5,32
	.loc 1 1598 15
	add	a5,a4,a5
	sd	a5,-40(s0)
	.loc 1 1600 17
	lla	a5,mPeiGuidTableSize
	lw	a5,0(a5)
	slli	a5,a5,32
	srli	a5,a5,32
	ld	a2,-72(s0)
	mv	a1,a5
	ld	a0,-40(s0)
	call	ScanGuid@plt
	sd	a0,-48(s0)
	.loc 1 1602 8
	ld	a5,-48(s0)
	beq	a5,zero,.L200
	.loc 1 1603 32
	ld	a4,-48(s0)
	ld	a5,-40(s0)
	sub	a5,a4,a5
	srai	a5,a5,4
	.loc 1 1603 20
	sd	a5,-56(s0)
	.loc 1 1605 18
	sw	zero,-20(s0)
	.loc 1 1605 7
	j	.L201
.L204:
	.loc 1 1606 36
	lwu	a5,-20(s0)
	slli	a5,a5,3
	ld	a4,-32(s0)
	add	a5,a4,a5
	.loc 1 1606 43
	lw	a5,0(a5)
	.loc 1 1606 12
	lw	a4,-76(s0)
	sext.w	a4,a4
	bne	a4,a5,.L202
	.loc 1 1607 35
	lwu	a5,-20(s0)
	slli	a5,a5,3
	ld	a4,-32(s0)
	add	a5,a4,a5
	.loc 1 1607 42
	lhu	a5,6(a5)
	mv	a4,a5
	.loc 1 1606 59 discriminator 1
	ld	a5,-56(s0)
	bne	a5,a4,.L202
	.loc 1 1609 23
	lwu	a5,-20(s0)
	slli	a5,a5,3
	ld	a4,-32(s0)
	add	a5,a4,a5
	.loc 1 1609 30
	lhu	a5,4(a5)
	j	.L203
.L202:
	.loc 1 1605 70 discriminator 2
	lw	a5,-20(s0)
	addiw	a5,a5,1
	sw	a5,-20(s0)
.L201:
	.loc 1 1605 43 discriminator 1
	lla	a5,mPcdDatabase
	ld	a5,0(a5)
	.loc 1 1605 49 discriminator 1
	lhu	a5,70(a5)
	sext.w	a5,a5
	.loc 1 1605 29 discriminator 1
	lw	a4,-20(s0)
	sext.w	a4,a4
	bltu	a4,a5,.L204
.L200:
	.loc 1 1615 54
	lla	a5,mPcdDatabase
	ld	a4,8(a5)
	.loc 1 1615 75
	lla	a5,mPcdDatabase
	ld	a5,8(a5)
	.loc 1 1615 81
	lw	a5,44(a5)
	slli	a5,a5,32
	srli	a5,a5,32
	.loc 1 1615 9
	add	a5,a4,a5
	sd	a5,-32(s0)
	.loc 1 1616 49
	lla	a5,mPcdDatabase
	ld	a4,8(a5)
	.loc 1 1616 70
	lla	a5,mPcdDatabase
	ld	a5,8(a5)
	.loc 1 1616 76
	lw	a5,48(a5)
	slli	a5,a5,32
	srli	a5,a5,32
	.loc 1 1616 13
	add	a5,a4,a5
	sd	a5,-40(s0)
	.loc 1 1618 15
	lla	a5,mDxeGuidTableSize
	lw	a5,0(a5)
	slli	a5,a5,32
	srli	a5,a5,32
	ld	a2,-72(s0)
	mv	a1,a5
	ld	a0,-40(s0)
	call	ScanGuid@plt
	sd	a0,-48(s0)
	.loc 1 1625 28
	ld	a4,-48(s0)
	ld	a5,-40(s0)
	sub	a5,a4,a5
	srai	a5,a5,4
	.loc 1 1625 16
	sd	a5,-56(s0)
	.loc 1 1627 14
	sw	zero,-20(s0)
	.loc 1 1627 3
	j	.L205
.L207:
	.loc 1 1628 32
	lwu	a5,-20(s0)
	slli	a5,a5,3
	ld	a4,-32(s0)
	add	a5,a4,a5
	.loc 1 1628 39
	lw	a5,0(a5)
	.loc 1 1628 8
	lw	a4,-76(s0)
	sext.w	a4,a4
	bne	a4,a5,.L206
	.loc 1 1629 31
	lwu	a5,-20(s0)
	slli	a5,a5,3
	ld	a4,-32(s0)
	add	a5,a4,a5
	.loc 1 1629 38
	lhu	a5,6(a5)
	mv	a4,a5
	.loc 1 1628 55 discriminator 1
	ld	a5,-56(s0)
	bne	a5,a4,.L206
	.loc 1 1631 19
	lwu	a5,-20(s0)
	slli	a5,a5,3
	ld	a4,-32(s0)
	add	a5,a4,a5
	.loc 1 1631 26
	lhu	a5,4(a5)
	j	.L203
.L206:
	.loc 1 1627 66 discriminator 2
	lw	a5,-20(s0)
	addiw	a5,a5,1
	sw	a5,-20(s0)
.L205:
	.loc 1 1627 39 discriminator 1
	lla	a5,mPcdDatabase
	ld	a5,8(a5)
	.loc 1 1627 45 discriminator 1
	lhu	a5,70(a5)
	sext.w	a5,a5
	.loc 1 1627 25 discriminator 1
	lw	a4,-20(s0)
	sext.w	a4,a4
	bltu	a4,a5,.L207
	.loc 1 1638 10
	li	a5,0
.L203:
	.loc 1 1639 1
	mv	a0,a5
	ld	ra,72(sp)
	.cfi_restore 1
	ld	s0,64(sp)
	.cfi_restore 8
	.cfi_def_cfa 2, 80
	addi	sp,sp,80
	.cfi_def_cfa_offset 0
	jr	ra
	.cfi_endproc
.LFE21:
	.size	GetExPcdTokenNumber, .-GetExPcdTokenNumber
	.section	.text.GetSizeTableIndex,"ax",@progbits
	.align	1
	.globl	GetSizeTableIndex
	.type	GetSizeTableIndex, @function
GetSizeTableIndex:
.LFB22:
	.loc 1 1655 1
	.cfi_startproc
	addi	sp,sp,-64
	.cfi_def_cfa_offset 64
	sd	ra,56(sp)
	sd	s0,48(sp)
	.cfi_offset 1, -8
	.cfi_offset 8, -16
	addi	s0,sp,64
	.cfi_def_cfa 8, 0
	sd	a0,-56(s0)
	mv	a5,a1
	sb	a5,-57(s0)
	.loc 1 1661 6
	lbu	a5,-57(s0)
	andi	a5,a5,0xff
	beq	a5,zero,.L209
	.loc 1 1662 61
	lla	a5,mPcdDatabase
	ld	a4,0(a5)
	.loc 1 1662 82
	lla	a5,mPcdDatabase
	ld	a5,0(a5)
	.loc 1 1662 88
	lw	a5,40(a5)
	slli	a5,a5,32
	srli	a5,a5,32
	.loc 1 1662 27
	add	a5,a4,a5
	sd	a5,-24(s0)
	j	.L210
.L209:
	.loc 1 1664 61
	lla	a5,mPcdDatabase
	ld	a4,8(a5)
	.loc 1 1664 82
	lla	a5,mPcdDatabase
	ld	a5,8(a5)
	.loc 1 1664 88
	lw	a5,40(a5)
	slli	a5,a5,32
	srli	a5,a5,32
	.loc 1 1664 27
	add	a5,a4,a5
	sd	a5,-24(s0)
.L210:
	.loc 1 1667 16
	sd	zero,-40(s0)
	.loc 1 1669 14
	sd	zero,-32(s0)
	.loc 1 1669 3
	j	.L211
.L214:
	.loc 1 1670 45
	ld	a5,-32(s0)
	slli	a5,a5,2
	ld	a4,-24(s0)
	add	a5,a4,a5
	lw	a5,0(a5)
	.loc 1 1670 22
	slli	a5,a5,32
	srli	a5,a5,32
	sd	a5,-48(s0)
	.loc 1 1672 27
	ld	a4,-48(s0)
	li	a5,251658240
	and	a5,a4,a5
	.loc 1 1672 8
	bne	a5,zero,.L212
	.loc 1 1677 29
	ld	a4,-48(s0)
	li	a5,1073741824
	and	a5,a4,a5
	.loc 1 1677 10
	beq	a5,zero,.L213
	.loc 1 1684 22
	ld	a5,-40(s0)
	addi	a5,a5,2
	sd	a5,-40(s0)
	j	.L212
.L213:
	.loc 1 1691 22
	ld	a5,-40(s0)
	addi	a5,a5,2
	sd	a5,-40(s0)
.L212:
	.loc 1 1669 58 discriminator 2
	ld	a5,-32(s0)
	addi	a5,a5,1
	sd	a5,-32(s0)
.L211:
	.loc 1 1669 25 discriminator 1
	ld	a4,-32(s0)
	ld	a5,-56(s0)
	bltu	a4,a5,.L214
	.loc 1 1696 10
	ld	a5,-40(s0)
	.loc 1 1697 1
	mv	a0,a5
	ld	ra,56(sp)
	.cfi_restore 1
	ld	s0,48(sp)
	.cfi_restore 8
	.cfi_def_cfa 2, 64
	addi	sp,sp,64
	.cfi_def_cfa_offset 0
	jr	ra
	.cfi_endproc
.LFE22:
	.size	GetSizeTableIndex, .-GetSizeTableIndex
	.section	.text.GetPtrTypeSize,"ax",@progbits
	.align	1
	.globl	GetPtrTypeSize
	.type	GetPtrTypeSize, @function
GetPtrTypeSize:
.LFB23:
	.loc 1 1713 1
	.cfi_startproc
	addi	sp,sp,-80
	.cfi_def_cfa_offset 80
	sd	ra,72(sp)
	sd	s0,64(sp)
	.cfi_offset 1, -8
	.cfi_offset 8, -16
	addi	s0,sp,80
	.cfi_def_cfa 8, 0
	sd	a0,-72(s0)
	sd	a1,-80(s0)
	.loc 1 1723 48
	ld	a5,-72(s0)
	addi	a4,a5,1
	.loc 1 1723 74
	lla	a5,mPeiLocalTokenCount
	lw	a5,0(a5)
	addiw	a5,a5,1
	sext.w	a5,a5
	slli	a5,a5,32
	srli	a5,a5,32
	.loc 1 1723 13
	sltu	a5,a4,a5
	andi	a5,a5,0xff
	.loc 1 1723 11
	sb	a5,-33(s0)
	.loc 1 1725 6
	lbu	a5,-33(s0)
	andi	a5,a5,0xff
	beq	a5,zero,.L217
	.loc 1 1726 61
	lla	a5,mPcdDatabase
	ld	a4,0(a5)
	.loc 1 1726 82
	lla	a5,mPcdDatabase
	ld	a5,0(a5)
	.loc 1 1726 88
	lw	a5,40(a5)
	slli	a5,a5,32
	srli	a5,a5,32
	.loc 1 1726 27
	add	a5,a4,a5
	sd	a5,-32(s0)
	.loc 1 1727 52
	lla	a5,mPcdDatabase
	ld	a4,0(a5)
	.loc 1 1727 73
	lla	a5,mPcdDatabase
	ld	a5,0(a5)
	.loc 1 1727 79
	lw	a5,56(a5)
	slli	a5,a5,32
	srli	a5,a5,32
	.loc 1 1727 15
	add	a5,a4,a5
	sd	a5,-24(s0)
	j	.L218
.L217:
	.loc 1 1729 30
	lla	a5,mPeiLocalTokenCount
	lw	a5,0(a5)
	slli	a5,a5,32
	srli	a5,a5,32
	ld	a4,-72(s0)
	sub	a5,a4,a5
	sd	a5,-72(s0)
	.loc 1 1730 61
	lla	a5,mPcdDatabase
	ld	a4,8(a5)
	.loc 1 1730 82
	lla	a5,mPcdDatabase
	ld	a5,8(a5)
	.loc 1 1730 88
	lw	a5,40(a5)
	slli	a5,a5,32
	srli	a5,a5,32
	.loc 1 1730 27
	add	a5,a4,a5
	sd	a5,-32(s0)
	.loc 1 1731 52
	lla	a5,mPcdDatabase
	ld	a4,8(a5)
	.loc 1 1731 73
	lla	a5,mPcdDatabase
	ld	a5,8(a5)
	.loc 1 1731 79
	lw	a5,56(a5)
	slli	a5,a5,32
	srli	a5,a5,32
	.loc 1 1731 15
	add	a5,a4,a5
	sd	a5,-24(s0)
.L218:
	.loc 1 1734 43
	ld	a5,-72(s0)
	slli	a5,a5,2
	ld	a4,-32(s0)
	add	a5,a4,a5
	lw	a5,0(a5)
	.loc 1 1734 20
	slli	a5,a5,32
	srli	a5,a5,32
	sd	a5,-48(s0)
	.loc 1 1738 18
	lbu	a5,-33(s0)
	mv	a1,a5
	ld	a0,-72(s0)
	call	GetSizeTableIndex
	mv	a5,a0
	.loc 1 1738 16 discriminator 1
	sd	a5,-56(s0)
	.loc 1 1740 23
	ld	a5,-56(s0)
	slli	a5,a5,1
	ld	a4,-24(s0)
	add	a5,a4,a5
	lhu	a5,0(a5)
	mv	a4,a5
	.loc 1 1740 12
	ld	a5,-80(s0)
	sd	a4,0(a5)
	.loc 1 1745 25
	ld	a4,-48(s0)
	li	a5,1073741824
	and	a5,a4,a5
	.loc 1 1745 6
	beq	a5,zero,.L219
	.loc 1 1752 12
	ld	a5,-80(s0)
	ld	a5,0(a5)
	j	.L220
.L219:
	.loc 1 1759 21
	ld	a5,-56(s0)
	addi	a5,a5,1
	slli	a5,a5,1
	ld	a4,-24(s0)
	add	a5,a4,a5
	lhu	a5,0(a5)
.L220:
	.loc 1 1761 1
	mv	a0,a5
	ld	ra,72(sp)
	.cfi_restore 1
	ld	s0,64(sp)
	.cfi_restore 8
	.cfi_def_cfa 2, 80
	addi	sp,sp,80
	.cfi_def_cfa_offset 0
	jr	ra
	.cfi_endproc
.LFE23:
	.size	GetPtrTypeSize, .-GetPtrTypeSize
	.section	.text.SetPtrTypeSize,"ax",@progbits
	.align	1
	.globl	SetPtrTypeSize
	.type	SetPtrTypeSize, @function
SetPtrTypeSize:
.LFB24:
	.loc 1 1778 1
	.cfi_startproc
	addi	sp,sp,-80
	.cfi_def_cfa_offset 80
	sd	ra,72(sp)
	sd	s0,64(sp)
	.cfi_offset 1, -8
	.cfi_offset 8, -16
	addi	s0,sp,80
	.cfi_def_cfa 8, 0
	sd	a0,-72(s0)
	sd	a1,-80(s0)
	.loc 1 1791 48
	ld	a5,-72(s0)
	addi	a4,a5,1
	.loc 1 1791 74
	lla	a5,mPeiLocalTokenCount
	lw	a5,0(a5)
	addiw	a5,a5,1
	sext.w	a5,a5
	slli	a5,a5,32
	srli	a5,a5,32
	.loc 1 1791 13
	sltu	a5,a4,a5
	andi	a5,a5,0xff
	.loc 1 1791 11
	sb	a5,-33(s0)
	.loc 1 1793 6
	lbu	a5,-33(s0)
	andi	a5,a5,0xff
	beq	a5,zero,.L222
	.loc 1 1794 61
	lla	a5,mPcdDatabase
	ld	a4,0(a5)
	.loc 1 1794 82
	lla	a5,mPcdDatabase
	ld	a5,0(a5)
	.loc 1 1794 88
	lw	a5,40(a5)
	slli	a5,a5,32
	srli	a5,a5,32
	.loc 1 1794 27
	add	a5,a4,a5
	sd	a5,-32(s0)
	.loc 1 1795 52
	lla	a5,mPcdDatabase
	ld	a4,0(a5)
	.loc 1 1795 73
	lla	a5,mPcdDatabase
	ld	a5,0(a5)
	.loc 1 1795 79
	lw	a5,56(a5)
	slli	a5,a5,32
	srli	a5,a5,32
	.loc 1 1795 15
	add	a5,a4,a5
	sd	a5,-24(s0)
	j	.L223
.L222:
	.loc 1 1797 30
	lla	a5,mPeiLocalTokenCount
	lw	a5,0(a5)
	slli	a5,a5,32
	srli	a5,a5,32
	ld	a4,-72(s0)
	sub	a5,a4,a5
	sd	a5,-72(s0)
	.loc 1 1798 61
	lla	a5,mPcdDatabase
	ld	a4,8(a5)
	.loc 1 1798 82
	lla	a5,mPcdDatabase
	ld	a5,8(a5)
	.loc 1 1798 88
	lw	a5,40(a5)
	slli	a5,a5,32
	srli	a5,a5,32
	.loc 1 1798 27
	add	a5,a4,a5
	sd	a5,-32(s0)
	.loc 1 1799 52
	lla	a5,mPcdDatabase
	ld	a4,8(a5)
	.loc 1 1799 73
	lla	a5,mPcdDatabase
	ld	a5,8(a5)
	.loc 1 1799 79
	lw	a5,56(a5)
	slli	a5,a5,32
	srli	a5,a5,32
	.loc 1 1799 15
	add	a5,a4,a5
	sd	a5,-24(s0)
.L223:
	.loc 1 1802 43
	ld	a5,-72(s0)
	slli	a5,a5,2
	ld	a4,-32(s0)
	add	a5,a4,a5
	lw	a5,0(a5)
	.loc 1 1802 20
	slli	a5,a5,32
	srli	a5,a5,32
	sd	a5,-48(s0)
	.loc 1 1806 18
	lbu	a5,-33(s0)
	mv	a1,a5
	ld	a0,-72(s0)
	call	GetSizeTableIndex
	mv	a5,a0
	.loc 1 1806 16 discriminator 1
	sd	a5,-56(s0)
	.loc 1 1808 22
	ld	a5,-56(s0)
	slli	a5,a5,1
	ld	a4,-24(s0)
	add	a5,a4,a5
	lhu	a5,0(a5)
	.loc 1 1808 11
	sd	a5,-64(s0)
	.loc 1 1813 25
	ld	a4,-48(s0)
	li	a5,1073741824
	and	a5,a4,a5
	.loc 1 1813 6
	beq	a5,zero,.L224
	.loc 1 1818 12
	li	a5,0
	j	.L225
.L224:
	.loc 1 1820 10
	ld	a5,-80(s0)
	ld	a5,0(a5)
	.loc 1 1820 8
	ld	a4,-64(s0)
	bltu	a4,a5,.L226
	.loc 1 1821 10
	ld	a5,-80(s0)
	ld	a4,0(a5)
	.loc 1 1820 34 discriminator 1
	li	a5,-1
	bne	a4,a5,.L227
.L226:
	.loc 1 1823 20
	ld	a5,-80(s0)
	ld	a4,-64(s0)
	sd	a4,0(a5)
	.loc 1 1824 14
	li	a5,0
	j	.L225
.L227:
	.loc 1 1832 46
	ld	a5,-80(s0)
	ld	a3,0(a5)
	.loc 1 1832 14
	ld	a5,-56(s0)
	addi	a5,a5,1
	slli	a5,a5,1
	ld	a4,-24(s0)
	add	a5,a4,a5
	.loc 1 1832 35
	slli	a4,a3,48
	srli	a4,a4,48
	.loc 1 1832 33
	sh	a4,0(a5)
	.loc 1 1833 12
	li	a5,1
.L225:
	.loc 1 1835 1
	mv	a0,a5
	ld	ra,72(sp)
	.cfi_restore 1
	ld	s0,64(sp)
	.cfi_restore 8
	.cfi_def_cfa 2, 80
	addi	sp,sp,80
	.cfi_def_cfa_offset 0
	jr	ra
	.cfi_endproc
.LFE24:
	.size	SetPtrTypeSize, .-SetPtrTypeSize
	.section	.text.VariableLockDynamicHiiPcd,"ax",@progbits
	.align	1
	.globl	VariableLockDynamicHiiPcd
	.type	VariableLockDynamicHiiPcd, @function
VariableLockDynamicHiiPcd:
.LFB25:
	.loc 1 1850 1
	.cfi_startproc
	addi	sp,sp,-128
	.cfi_def_cfa_offset 128
	sd	ra,120(sp)
	sd	s0,112(sp)
	.cfi_offset 1, -8
	.cfi_offset 8, -16
	addi	s0,sp,128
	.cfi_def_cfa 8, 0
	mv	a5,a0
	sd	a1,-128(s0)
	sb	a5,-113(s0)
	.loc 1 1863 43
	lbu	a5,-113(s0)
	andi	a5,a5,0xff
	beq	a5,zero,.L229
	.loc 1 1863 12 discriminator 1
	lla	a5,mPcdDatabase
	ld	a5,0(a5)
	sd	a5,-24(s0)
	j	.L230
.L229:
	.loc 1 1863 12 is_stmt 0 discriminator 2
	lla	a5,mPcdDatabase
	ld	a5,8(a5)
	sd	a5,-24(s0)
.L230:
	.loc 1 1864 51 is_stmt 1
	lbu	a5,-113(s0)
	andi	a5,a5,0xff
	beq	a5,zero,.L231
	.loc 1 1864 19 discriminator 1
	lla	a5,mPeiLocalTokenCount
	lw	a5,0(a5)
	sw	a5,-28(s0)
	j	.L232
.L231:
	.loc 1 1864 19 is_stmt 0 discriminator 2
	lla	a5,mDxeLocalTokenCount
	lw	a5,0(a5)
	sw	a5,-28(s0)
.L232:
	.loc 1 1869 20 is_stmt 1
	li	a5,1
	sd	a5,-40(s0)
	.loc 1 1869 3
	j	.L233
.L237:
	.loc 1 1870 8
	lbu	a5,-113(s0)
	andi	a5,a5,0xff
	beq	a5,zero,.L234
	.loc 1 1871 26
	ld	a1,-40(s0)
	li	a0,1
	call	GetLocalTokenNumber
	mv	a5,a0
	sw	a5,-44(s0)
	j	.L235
.L234:
	.loc 1 1873 26
	lla	a5,mPeiLocalTokenCount
	lw	a5,0(a5)
	slli	a4,a5,32
	srli	a4,a4,32
	ld	a5,-40(s0)
	add	a5,a4,a5
	mv	a1,a5
	li	a0,0
	call	GetLocalTokenNumber
	mv	a5,a0
	sw	a5,-44(s0)
.L235:
	.loc 1 1876 43
	lw	a5,-44(s0)
	.loc 1 1876 8
	bge	a5,zero,.L236
	.loc 1 1877 33
	lwu	a4,-44(s0)
	.loc 1 1877 14
	li	a5,552599552
	addi	a5,a5,-1
	and	a5,a4,a5
	sd	a5,-56(s0)
	.loc 1 1878 20
	ld	a4,-24(s0)
	ld	a5,-56(s0)
	add	a5,a4,a5
	sd	a5,-64(s0)
	.loc 1 1885 24
	ld	a5,-64(s0)
	lhu	a5,16(a5)
	.loc 1 1885 35
	sext.w	a5,a5
	andi	a5,a5,1
	sext.w	a5,a5
	.loc 1 1885 10
	beq	a5,zero,.L236
	.loc 1 1889 61
	ld	a5,-24(s0)
	lw	a5,52(a5)
	slli	a5,a5,32
	srli	a5,a5,32
	.loc 1 1889 21
	ld	a4,-24(s0)
	add	a5,a4,a5
	sd	a5,-72(s0)
	.loc 1 1890 62
	ld	a5,-24(s0)
	lw	a5,48(a5)
	slli	a5,a5,32
	srli	a5,a5,32
	.loc 1 1890 19
	ld	a4,-24(s0)
	add	a5,a4,a5
	sd	a5,-80(s0)
	.loc 1 1891 40
	ld	a5,-64(s0)
	lhu	a5,8(a5)
	.loc 1 1891 26
	slli	a5,a5,4
	.loc 1 1891 14
	ld	a4,-80(s0)
	add	a5,a4,a5
	sd	a5,-88(s0)
	.loc 1 1892 53
	ld	a5,-64(s0)
	lw	a5,0(a5)
	slli	a5,a5,32
	srli	a5,a5,32
	.loc 1 1892 14
	ld	a4,-72(s0)
	add	a5,a4,a5
	sd	a5,-96(s0)
	.loc 1 1893 30
	ld	a5,-128(s0)
	ld	a5,0(a5)
	.loc 1 1893 18
	ld	a2,-88(s0)
	ld	a1,-96(s0)
	ld	a0,-128(s0)
	jalr	a5
.LVL7:
	sd	a0,-104(s0)
.L236:
	.loc 1 1869 68 discriminator 2
	ld	a5,-40(s0)
	addi	a5,a5,1
	sd	a5,-40(s0)
.L233:
	.loc 1 1869 37 discriminator 1
	lwu	a5,-28(s0)
	ld	a4,-40(s0)
	bleu	a4,a5,.L237
	.loc 1 1898 1
	nop
	nop
	ld	ra,120(sp)
	.cfi_restore 1
	ld	s0,112(sp)
	.cfi_restore 8
	.cfi_def_cfa 2, 128
	addi	sp,sp,128
	.cfi_def_cfa_offset 0
	jr	ra
	.cfi_endproc
.LFE25:
	.size	VariableLockDynamicHiiPcd, .-VariableLockDynamicHiiPcd
	.section	.text.VariableLockCallBack,"ax",@progbits
	.align	1
	.globl	VariableLockCallBack
	.type	VariableLockCallBack, @function
VariableLockCallBack:
.LFB26:
	.loc 1 1914 1
	.cfi_startproc
	addi	sp,sp,-48
	.cfi_def_cfa_offset 48
	sd	ra,40(sp)
	sd	s0,32(sp)
	.cfi_offset 1, -8
	.cfi_offset 8, -16
	addi	s0,sp,48
	.cfi_def_cfa 8, 0
	sd	a0,-40(s0)
	sd	a1,-48(s0)
	.loc 1 1918 15
	la	a5,gBS
	ld	a5,0(a5)
	ld	a5,320(a5)
	.loc 1 1918 12
	addi	a4,s0,-32
	mv	a2,a4
	li	a1,0
	la	a0,gEdkiiVariableLockProtocolGuid
	jalr	a5
.LVL8:
	sd	a0,-24(s0)
	.loc 1 1919 7
	ld	a5,-24(s0)
	.loc 1 1919 6
	blt	a5,zero,.L240
	.loc 1 1920 5
	ld	a5,-32(s0)
	mv	a1,a5
	li	a0,1
	call	VariableLockDynamicHiiPcd
	.loc 1 1921 5
	ld	a5,-32(s0)
	mv	a1,a5
	li	a0,0
	call	VariableLockDynamicHiiPcd
.L240:
	.loc 1 1923 1
	nop
	ld	ra,40(sp)
	.cfi_restore 1
	ld	s0,32(sp)
	.cfi_restore 8
	.cfi_def_cfa 2, 48
	addi	sp,sp,48
	.cfi_def_cfa_offset 0
	jr	ra
	.cfi_endproc
.LFE26:
	.size	VariableLockCallBack, .-VariableLockCallBack
	.text
.Letext0:
	.file 2 "/home/kapoagaeming/spacemit-image-builder/components/edk2/MdePkg/Include/RiscV64/ProcessorBind.h"
	.file 3 "/home/kapoagaeming/spacemit-image-builder/components/edk2/MdePkg/Include/Base.h"
	.file 4 "/home/kapoagaeming/spacemit-image-builder/components/edk2/MdePkg/Include/Uefi/UefiBaseType.h"
	.file 5 "/home/kapoagaeming/spacemit-image-builder/components/edk2/MdePkg/Include/Uefi/UefiMultiPhase.h"
	.file 6 "/home/kapoagaeming/spacemit-image-builder/components/edk2/MdePkg/Include/Protocol/DevicePath.h"
	.file 7 "/home/kapoagaeming/spacemit-image-builder/components/edk2/MdePkg/Include/Uefi/UefiSpec.h"
	.file 8 "/home/kapoagaeming/spacemit-image-builder/components/edk2/MdePkg/Include/Pi/PiFirmwareFile.h"
	.file 9 "/home/kapoagaeming/spacemit-image-builder/components/edk2/MdePkg/Include/Pi/PiHob.h"
	.file 10 "/home/kapoagaeming/spacemit-image-builder/components/edk2/MdePkg/Include/Pi/PiMultiPhase.h"
	.file 11 "/home/kapoagaeming/spacemit-image-builder/components/Build/Milk-V-Jupiter/RELEASE_GCC5/RISCV64/MdeModulePkg/Universal/PCD/Dxe/Pcd/DEBUG/AutoGen.h"
	.file 12 "/home/kapoagaeming/spacemit-image-builder/components/edk2/MdeModulePkg/Include/Guid/PcdDataBaseSignatureGuid.h"
	.file 13 "/home/kapoagaeming/spacemit-image-builder/components/edk2/MdePkg/Include/Protocol/Pcd.h"
	.file 14 "/home/kapoagaeming/spacemit-image-builder/components/edk2/MdeModulePkg/Include/Protocol/VariableLock.h"
	.file 15 "/home/kapoagaeming/spacemit-image-builder/components/edk2/MdePkg/Include/Library/UefiLib.h"
	.file 16 "/home/kapoagaeming/spacemit-image-builder/components/edk2/MdePkg/Include/Library/UefiBootServicesTableLib.h"
	.file 17 "/home/kapoagaeming/spacemit-image-builder/components/edk2/MdePkg/Include/Library/UefiRuntimeServicesTableLib.h"
	.file 18 "/home/kapoagaeming/spacemit-image-builder/components/edk2/MdeModulePkg/Universal/PCD/Dxe/Service.h"
	.file 19 "/home/kapoagaeming/spacemit-image-builder/components/edk2/MdePkg/Include/Library/BaseLib.h"
	.file 20 "/home/kapoagaeming/spacemit-image-builder/components/edk2/MdePkg/Include/Library/HobLib.h"
	.file 21 "/home/kapoagaeming/spacemit-image-builder/components/edk2/MdePkg/Include/Library/BaseMemoryLib.h"
	.file 22 "/home/kapoagaeming/spacemit-image-builder/components/edk2/MdePkg/Include/Library/DxeServicesLib.h"
	.file 23 "/home/kapoagaeming/spacemit-image-builder/components/edk2/MdePkg/Include/Library/MemoryAllocationLib.h"
	.section	.note.GNU-stack,"",@progbits
