	.file	"Notify.c"
	.option pic
	.option norelax
	.attribute arch, "rv64i2p1_m2p0_a2p1_f2p2_d2p2_c2p0_zicsr2p0_zifencei2p0_zmmul1p0_zaamo1p0_zalrsc1p0_zca1p0_zcd1p0"
	.attribute unaligned_access, 0
	.attribute stack_align, 16
	.text
.Ltext0:
	.cfi_sections	.debug_frame
	.file 0 "/home/kapoagaeming/Downloads/spacemit-image-builder/components/Build/Milk-V-Jupiter/RELEASE_GCC5/RISCV64/MdeModulePkg/Core/Dxe/DxeMain" "/home/kapoagaeming/Downloads/spacemit-image-builder/components/edk2/MdeModulePkg/Core/Dxe/Hand/Notify.c"
	.section	.text.CoreNotifyProtocolEntry,"ax",@progbits
	.align	1
	.globl	CoreNotifyProtocolEntry
	.type	CoreNotifyProtocolEntry, @function
CoreNotifyProtocolEntry:
.LFB0:
	.file 1 "/home/kapoagaeming/Downloads/spacemit-image-builder/components/edk2/MdeModulePkg/Core/Dxe/Hand/Notify.c"
	.loc 1 24 1
	.cfi_startproc
	addi	sp,sp,-48
	.cfi_def_cfa_offset 48
	sd	ra,40(sp)
	sd	s0,32(sp)
	.cfi_offset 1, -8
	.cfi_offset 8, -16
	addi	s0,sp,48
	.cfi_def_cfa 8, 0
	sd	a0,-40(s0)
	.loc 1 30 13
	ld	a5,-40(s0)
	ld	a5,56(a5)
	sd	a5,-32(s0)
	.loc 1 30 3
	j	.L2
.L5:
	.loc 1 31 20
	ld	a5,-32(s0)
	addi	a5,a5,-16
	.loc 1 31 122
	ld	a4,0(a5)
	.loc 1 31 207
	li	a5,1853124608
	addi	a5,a5,624
	bne	a4,a5,.L3
	.loc 1 31 16 discriminator 1
	ld	a5,-32(s0)
	addi	a5,a5,-16
	sd	a5,-24(s0)
	j	.L4
.L3:
	.loc 1 31 16 is_stmt 0 discriminator 2
	sd	zero,-24(s0)
.L4:
	.loc 1 32 5 is_stmt 1
	ld	a5,-24(s0)
	ld	a5,32(a5)
	mv	a0,a5
	call	CoreSignalEvent@plt
	.loc 1 30 79 discriminator 2
	ld	a5,-32(s0)
	ld	a5,0(a5)
	sd	a5,-32(s0)
.L2:
	.loc 1 30 54 discriminator 1
	ld	a5,-40(s0)
	addi	a5,a5,56
	.loc 1 30 51 discriminator 1
	ld	a4,-32(s0)
	bne	a4,a5,.L5
	.loc 1 34 1
	nop
	nop
	ld	ra,40(sp)
	.cfi_restore 1
	ld	s0,32(sp)
	.cfi_restore 8
	.cfi_def_cfa 2, 48
	addi	sp,sp,48
	.cfi_def_cfa_offset 0
	jr	ra
	.cfi_endproc
.LFE0:
	.size	CoreNotifyProtocolEntry, .-CoreNotifyProtocolEntry
	.section	.text.CoreRemoveInterfaceFromProtocol,"ax",@progbits
	.align	1
	.globl	CoreRemoveInterfaceFromProtocol
	.type	CoreRemoveInterfaceFromProtocol, @function
CoreRemoveInterfaceFromProtocol:
.LFB1:
	.loc 1 52 1
	.cfi_startproc
	addi	sp,sp,-80
	.cfi_def_cfa_offset 80
	sd	ra,72(sp)
	sd	s0,64(sp)
	.cfi_offset 1, -8
	.cfi_offset 8, -16
	addi	s0,sp,80
	.cfi_def_cfa 8, 0
	sd	a0,-56(s0)
	sd	a1,-64(s0)
	sd	a2,-72(s0)
	.loc 1 60 10
	ld	a2,-72(s0)
	ld	a1,-64(s0)
	ld	a0,-56(s0)
	call	CoreFindProtocolInterface@plt
	sd	a0,-40(s0)
	.loc 1 61 6
	ld	a5,-40(s0)
	beq	a5,zero,.L7
	.loc 1 62 15
	ld	a5,-40(s0)
	ld	a5,48(a5)
	sd	a5,-48(s0)
	.loc 1 67 15
	ld	a5,-48(s0)
	ld	a5,56(a5)
	sd	a5,-32(s0)
	.loc 1 67 5
	j	.L8
.L12:
	.loc 1 68 22
	ld	a5,-32(s0)
	addi	a5,a5,-16
	.loc 1 68 124
	ld	a4,0(a5)
	.loc 1 68 209
	li	a5,1853124608
	addi	a5,a5,624
	bne	a4,a5,.L9
	.loc 1 68 18 discriminator 1
	ld	a5,-32(s0)
	addi	a5,a5,-16
	sd	a5,-24(s0)
	j	.L10
.L9:
	.loc 1 68 18 is_stmt 0 discriminator 2
	sd	zero,-24(s0)
.L10:
	.loc 1 70 21 is_stmt 1
	ld	a5,-24(s0)
	ld	a4,40(a5)
	.loc 1 70 35
	ld	a5,-40(s0)
	addi	a5,a5,32
	.loc 1 70 10
	bne	a4,a5,.L11
	.loc 1 71 48
	ld	a5,-40(s0)
	ld	a4,40(a5)
	.loc 1 71 30
	ld	a5,-24(s0)
	sd	a4,40(a5)
.L11:
	.loc 1 67 81 discriminator 2
	ld	a5,-32(s0)
	ld	a5,0(a5)
	sd	a5,-32(s0)
.L8:
	.loc 1 67 56 discriminator 1
	ld	a5,-48(s0)
	addi	a5,a5,56
	.loc 1 67 53 discriminator 1
	ld	a4,-32(s0)
	bne	a4,a5,.L12
	.loc 1 78 22
	ld	a5,-40(s0)
	addi	a5,a5,32
	.loc 1 78 5
	mv	a0,a5
	call	RemoveEntryList@plt
.L7:
	.loc 1 81 10
	ld	a5,-40(s0)
	.loc 1 82 1
	mv	a0,a5
	ld	ra,72(sp)
	.cfi_restore 1
	ld	s0,64(sp)
	.cfi_restore 8
	.cfi_def_cfa 2, 80
	addi	sp,sp,80
	.cfi_def_cfa_offset 0
	jr	ra
	.cfi_endproc
.LFE1:
	.size	CoreRemoveInterfaceFromProtocol, .-CoreRemoveInterfaceFromProtocol
	.section	.text.CoreRegisterProtocolNotify,"ax",@progbits
	.align	1
	.globl	CoreRegisterProtocolNotify
	.type	CoreRegisterProtocolNotify, @function
CoreRegisterProtocolNotify:
.LFB2:
	.loc 1 104 1
	.cfi_startproc
	addi	sp,sp,-80
	.cfi_def_cfa_offset 80
	sd	ra,72(sp)
	sd	s0,64(sp)
	.cfi_offset 1, -8
	.cfi_offset 8, -16
	addi	s0,sp,80
	.cfi_def_cfa 8, 0
	sd	a0,-56(s0)
	sd	a1,-64(s0)
	sd	a2,-72(s0)
	.loc 1 109 6
	ld	a5,-56(s0)
	beq	a5,zero,.L15
	.loc 1 109 34 discriminator 1
	ld	a5,-64(s0)
	beq	a5,zero,.L15
	.loc 1 109 61 discriminator 2
	ld	a5,-72(s0)
	bne	a5,zero,.L16
.L15:
	.loc 1 110 12
	li	a5,-1
	slli	a5,a5,63
	addi	a5,a5,2
	j	.L17
.L16:
	.loc 1 113 3
	call	CoreAcquireProtocolLock@plt
	.loc 1 115 14
	sd	zero,-24(s0)
	.loc 1 121 15
	li	a1,1
	ld	a0,-56(s0)
	call	CoreFindProtocolEntry@plt
	sd	a0,-40(s0)
	.loc 1 122 6
	ld	a5,-40(s0)
	beq	a5,zero,.L18
	.loc 1 126 18
	li	a0,48
	call	AllocatePool@plt
	sd	a0,-24(s0)
	.loc 1 127 8
	ld	a5,-24(s0)
	beq	a5,zero,.L18
	.loc 1 128 24
	ld	a5,-64(s0)
	lbu	a5,88(a5)
	.loc 1 128 33
	ori	a5,a5,2
	andi	a4,a5,0xff
	ld	a5,-64(s0)
	sb	a4,88(a5)
	.loc 1 129 29
	ld	a5,-24(s0)
	li	a4,1853124608
	addi	a4,a4,624
	sd	a4,0(a5)
	.loc 1 130 28
	ld	a5,-24(s0)
	ld	a4,-40(s0)
	sd	a4,8(a5)
	.loc 1 131 25
	ld	a5,-24(s0)
	ld	a4,-64(s0)
	sd	a4,32(a5)
	.loc 1 135 30
	ld	a5,-40(s0)
	addi	a4,a5,40
	.loc 1 135 28
	ld	a5,-24(s0)
	sd	a4,40(a5)
	.loc 1 137 7
	ld	a5,-40(s0)
	addi	a4,a5,56
	ld	a5,-24(s0)
	addi	a5,a5,16
	mv	a1,a5
	mv	a0,a4
	call	InsertTailList@plt
.L18:
	.loc 1 141 3
	call	CoreReleaseProtocolLock@plt
	.loc 1 148 10
	li	a5,-1
	slli	a5,a5,63
	addi	a5,a5,9
	sd	a5,-32(s0)
	.loc 1 149 6
	ld	a5,-24(s0)
	beq	a5,zero,.L19
	.loc 1 150 19
	ld	a5,-72(s0)
	ld	a4,-24(s0)
	sd	a4,0(a5)
	.loc 1 151 12
	sd	zero,-32(s0)
.L19:
	.loc 1 154 10
	ld	a5,-32(s0)
.L17:
	.loc 1 155 1
	mv	a0,a5
	ld	ra,72(sp)
	.cfi_restore 1
	ld	s0,64(sp)
	.cfi_restore 8
	.cfi_def_cfa 2, 80
	addi	sp,sp,80
	.cfi_def_cfa_offset 0
	jr	ra
	.cfi_endproc
.LFE2:
	.size	CoreRegisterProtocolNotify, .-CoreRegisterProtocolNotify
	.section	.text.CoreReinstallProtocolInterface,"ax",@progbits
	.align	1
	.globl	CoreReinstallProtocolInterface
	.type	CoreReinstallProtocolInterface, @function
CoreReinstallProtocolInterface:
.LFB3:
	.loc 1 179 1
	.cfi_startproc
	addi	sp,sp,-80
	.cfi_def_cfa_offset 80
	sd	ra,72(sp)
	sd	s0,64(sp)
	.cfi_offset 1, -8
	.cfi_offset 8, -16
	addi	s0,sp,80
	.cfi_def_cfa 8, 0
	sd	a0,-56(s0)
	sd	a1,-64(s0)
	sd	a2,-72(s0)
	sd	a3,-80(s0)
	.loc 1 185 6
	ld	a5,-64(s0)
	bne	a5,zero,.L21
	.loc 1 186 12
	li	a5,-1
	slli	a5,a5,63
	addi	a5,a5,2
	j	.L22
.L21:
	.loc 1 192 3
	call	CoreAcquireProtocolLock@plt
	.loc 1 194 12
	ld	a0,-56(s0)
	call	CoreValidateHandle@plt
	sd	a0,-24(s0)
	.loc 1 195 34
	ld	a5,-24(s0)
	.loc 1 195 6
	blt	a5,zero,.L28
	.loc 1 199 10
	ld	a5,-56(s0)
	sd	a5,-32(s0)
	.loc 1 203 10
	ld	a2,-72(s0)
	ld	a1,-64(s0)
	ld	a0,-56(s0)
	call	CoreFindProtocolInterface@plt
	sd	a0,-40(s0)
	.loc 1 204 6
	ld	a5,-40(s0)
	bne	a5,zero,.L25
	.loc 1 205 12
	li	a5,-1
	slli	a5,a5,63
	addi	a5,a5,14
	sd	a5,-24(s0)
	.loc 1 206 5
	j	.L24
.L25:
	.loc 1 212 12
	ld	a1,-40(s0)
	ld	a0,-56(s0)
	call	CoreDisconnectControllersUsingProtocolInterface@plt
	sd	a0,-24(s0)
	.loc 1 216 34
	ld	a5,-24(s0)
	.loc 1 216 6
	blt	a5,zero,.L29
	.loc 1 226 10
	ld	a2,-72(s0)
	ld	a1,-64(s0)
	ld	a0,-32(s0)
	call	CoreRemoveInterfaceFromProtocol
	sd	a0,-40(s0)
	.loc 1 228 6
	ld	a5,-40(s0)
	bne	a5,zero,.L27
	.loc 1 229 12
	li	a5,-1
	slli	a5,a5,63
	addi	a5,a5,14
	sd	a5,-24(s0)
	.loc 1 230 5
	j	.L24
.L27:
	.loc 1 233 13
	ld	a5,-40(s0)
	ld	a5,48(a5)
	sd	a5,-48(s0)
	.loc 1 238 19
	ld	a5,-40(s0)
	ld	a4,-80(s0)
	sd	a4,56(a5)
	.loc 1 244 3
	ld	a5,-48(s0)
	addi	a4,a5,40
	ld	a5,-40(s0)
	addi	a5,a5,32
	mv	a1,a5
	mv	a0,a4
	call	InsertTailList@plt
	.loc 1 249 21
	la	a5,gHandleDatabaseKey
	ld	a5,0(a5)
	addi	a4,a5,1
	la	a5,gHandleDatabaseKey
	sd	a4,0(a5)
	.loc 1 250 15
	la	a5,gHandleDatabaseKey
	ld	a4,0(a5)
	ld	a5,-32(s0)
	sd	a4,48(a5)
	.loc 1 255 3
	call	CoreReleaseProtocolLock@plt
	.loc 1 259 3
	li	a3,1
	li	a2,0
	li	a1,0
	ld	a0,-56(s0)
	call	CoreConnectController@plt
	.loc 1 265 3
	call	CoreAcquireProtocolLock@plt
	.loc 1 270 3
	ld	a0,-48(s0)
	call	CoreNotifyProtocolEntry
	.loc 1 272 10
	sd	zero,-24(s0)
	j	.L24
.L28:
	.loc 1 196 5
	nop
	j	.L24
.L29:
	.loc 1 220 5
	nop
.L24:
	.loc 1 275 3
	call	CoreReleaseProtocolLock@plt
	.loc 1 277 10
	ld	a5,-24(s0)
.L22:
	.loc 1 278 1
	mv	a0,a5
	ld	ra,72(sp)
	.cfi_restore 1
	ld	s0,64(sp)
	.cfi_restore 8
	.cfi_def_cfa 2, 80
	addi	sp,sp,80
	.cfi_def_cfa_offset 0
	jr	ra
	.cfi_endproc
.LFE3:
	.size	CoreReinstallProtocolInterface, .-CoreReinstallProtocolInterface
	.text
.Letext0:
	.file 2 "/home/kapoagaeming/Downloads/spacemit-image-builder/components/edk2/MdePkg/Include/RiscV64/ProcessorBind.h"
	.file 3 "/home/kapoagaeming/Downloads/spacemit-image-builder/components/edk2/MdePkg/Include/Base.h"
	.file 4 "/home/kapoagaeming/Downloads/spacemit-image-builder/components/edk2/MdePkg/Include/Uefi/UefiBaseType.h"
	.file 5 "/home/kapoagaeming/Downloads/spacemit-image-builder/components/edk2/MdePkg/Include/Protocol/DevicePath.h"
	.file 6 "/home/kapoagaeming/Downloads/spacemit-image-builder/components/edk2/MdePkg/Include/Uefi/UefiSpec.h"
	.file 7 "/home/kapoagaeming/Downloads/spacemit-image-builder/components/edk2/MdePkg/Include/Protocol/Runtime.h"
	.file 8 "/home/kapoagaeming/Downloads/spacemit-image-builder/components/edk2/MdeModulePkg/Core/Dxe/Hand/Handle.h"
	.file 9 "/home/kapoagaeming/Downloads/spacemit-image-builder/components/edk2/MdeModulePkg/Core/Dxe/Event/Event.h"
	.file 10 "/home/kapoagaeming/Downloads/spacemit-image-builder/components/edk2/MdeModulePkg/Core/Dxe/DxeMain.h"
	.file 11 "/home/kapoagaeming/Downloads/spacemit-image-builder/components/edk2/MdePkg/Include/Library/BaseLib.h"
	.file 12 "/home/kapoagaeming/Downloads/spacemit-image-builder/components/edk2/MdePkg/Include/Library/MemoryAllocationLib.h"
	.section	.note.GNU-stack,"",@progbits
