	.file	"PlatformSmbiosDxe.c"
	.option pic
	.option norelax
	.attribute arch, "rv64i2p1_m2p0_a2p1_f2p2_d2p2_c2p0_zicsr2p0_zifencei2p0_zmmul1p0_zaamo1p0_zalrsc1p0_zca1p0_zcd1p0"
	.attribute unaligned_access, 0
	.attribute stack_align, 16
	.text
.Ltext0:
	.cfi_sections	.debug_frame
	.file 0 "/home/kapoagaeming/Downloads/spacemit-image-builder/components/Build/Milk-V-Jupiter/RELEASE_GCC5/RISCV64/Silicon/Spacemit/K1/Drivers/PlatformSmbiosDxe/PlatformSmbiosDxe" "/home/kapoagaeming/Downloads/spacemit-image-builder/components/edk2-platforms/Silicon/Spacemit/K1/Drivers/PlatformSmbiosDxe/PlatformSmbiosDxe.c"
	.section	.bss.mPlatformInfoProtocol,"aw",@nobits
	.align	3
	.type	mPlatformInfoProtocol, @object
	.size	mPlatformInfoProtocol, 8
mPlatformInfoProtocol:
	.zero	8
	.globl	mProcessorInfoType4
	.section	.data.mProcessorInfoType4,"aw"
	.align	3
	.type	mProcessorInfoType4, @object
	.size	mProcessorInfoType4, 51
mProcessorInfoType4:
	.byte	4
	.byte	51
	.half	0
	.byte	0
	.byte	3
	.byte	-2
	.byte	1
	.byte	0
	.byte	0
	.zero	2
	.byte	0
	.zero	3
	.byte	2
	.byte	4
	.half	0
	.half	0
	.half	0
	.byte	65
	.byte	6
	.half	-1
	.half	-1
	.half	-1
	.byte	0
	.byte	0
	.byte	0
	.byte	4
	.byte	4
	.byte	4
	.half	108
	.half	513
	.half	0
	.half	0
	.half	0
	.zero	3
	.globl	mProcessorInfoType4Strings
	.section	.rodata
	.align	3
.LC0:
	.string	"Spacemit"
	.align	3
.LC1:
	.string	"X60"
	.section	.data.rel.local.mProcessorInfoType4Strings,"aw"
	.align	3
	.type	mProcessorInfoType4Strings, @object
	.size	mProcessorInfoType4Strings, 24
mProcessorInfoType4Strings:
	.dword	.LC0
	.dword	.LC1
	.dword	0
	.globl	mCacheInfoType7_L1I
	.section	.data.mCacheInfoType7_L1I,"aw"
	.align	3
	.type	mCacheInfoType7_L1I, @object
	.size	mCacheInfoType7_L1I, 27
mCacheInfoType7_L1I:
	.byte	7
	.byte	27
	.half	0
	.byte	1
	.2byte	896
	.2byte	32
	.2byte	32
	.byte	40
	.byte	0
	.byte	40
	.byte	0
	.byte	0
	.byte	3
	.byte	3
	.byte	5
	.4byte	32
	.4byte	32
	.globl	mCacheInfoType7Strings_L1I
	.section	.rodata
	.align	3
.LC2:
	.string	"L1 Instruction"
	.section	.data.rel.local.mCacheInfoType7Strings_L1I,"aw"
	.align	3
	.type	mCacheInfoType7Strings_L1I, @object
	.size	mCacheInfoType7Strings_L1I, 16
mCacheInfoType7Strings_L1I:
	.dword	.LC2
	.dword	0
	.globl	mCacheInfoType7_L1D
	.section	.data.mCacheInfoType7_L1D,"aw"
	.align	3
	.type	mCacheInfoType7_L1D, @object
	.size	mCacheInfoType7_L1D, 27
mCacheInfoType7_L1D:
	.byte	7
	.byte	27
	.half	0
	.byte	1
	.2byte	384
	.2byte	32
	.2byte	32
	.byte	40
	.byte	0
	.byte	40
	.byte	0
	.byte	0
	.byte	3
	.byte	4
	.byte	5
	.4byte	32
	.4byte	32
	.globl	mCacheInfoType7Strings_L1D
	.section	.rodata
	.align	3
.LC3:
	.string	"L1 Data"
	.section	.data.rel.local.mCacheInfoType7Strings_L1D,"aw"
	.align	3
	.type	mCacheInfoType7Strings_L1D, @object
	.size	mCacheInfoType7Strings_L1D, 16
mCacheInfoType7Strings_L1D:
	.dword	.LC3
	.dword	0
	.globl	mCacheInfoType7_L2
	.section	.data.mCacheInfoType7_L2,"aw"
	.align	3
	.type	mCacheInfoType7_L2, @object
	.size	mCacheInfoType7_L2, 27
mCacheInfoType7_L2:
	.byte	7
	.byte	27
	.half	0
	.byte	1
	.2byte	385
	.2byte	512
	.2byte	512
	.byte	40
	.byte	0
	.byte	40
	.byte	0
	.byte	0
	.byte	3
	.byte	5
	.byte	8
	.4byte	512
	.4byte	512
	.globl	mCacheInfoType7Strings_L2
	.section	.rodata
	.align	3
.LC4:
	.string	"L2"
	.section	.data.rel.local.mCacheInfoType7Strings_L2,"aw"
	.align	3
	.type	mCacheInfoType7Strings_L2, @object
	.size	mCacheInfoType7Strings_L2, 16
mCacheInfoType7Strings_L2:
	.dword	.LC4
	.dword	0
	.globl	mPhyMemArrayInfoType16
	.section	.data.mPhyMemArrayInfoType16,"aw"
	.align	3
	.type	mPhyMemArrayInfoType16, @object
	.size	mPhyMemArrayInfoType16, 23
mPhyMemArrayInfoType16:
	.byte	16
	.byte	23
	.half	0
	.byte	3
	.byte	3
	.byte	3
	.4byte	0
	.2byte	-2
	.2byte	1
	.8byte	0
	.globl	mPhyMemArrayInfoType16Strings
	.section	.bss.mPhyMemArrayInfoType16Strings,"aw",@nobits
	.align	3
	.type	mPhyMemArrayInfoType16Strings, @object
	.size	mPhyMemArrayInfoType16Strings, 8
mPhyMemArrayInfoType16Strings:
	.zero	8
	.globl	mMemDevInfoType17
	.section	.data.mMemDevInfoType17,"aw"
	.align	3
	.type	mMemDevInfoType17, @object
	.size	mMemDevInfoType17, 100
mMemDevInfoType17:
	.byte	17
	.byte	100
	.half	0
	.half	0
	.half	-2
	.half	-1
	.half	-1
	.half	-1
	.byte	5
	.byte	0
	.byte	1
	.byte	0
	.byte	30
	.byte	4
	.byte	0
	.2byte	0
	.byte	2
	.byte	0
	.byte	0
	.byte	0
	.byte	0
	.word	0
	.half	0
	.half	0
	.half	0
	.half	0
	.byte	3
	.byte	8
	.byte	0
	.byte	0
	.half	0
	.half	0
	.half	0
	.half	0
	.8byte	0
	.8byte	-1
	.8byte	0
	.8byte	0
	.word	0
	.word	0
	.zero	8
	.globl	mMemDevInfoType17Strings
	.section	.rodata
	.align	3
.LC5:
	.string	"SDRAM"
	.align	3
.LC6:
	.string	"Unknown"
	.section	.data.rel.local.mMemDevInfoType17Strings,"aw"
	.align	3
	.type	mMemDevInfoType17Strings, @object
	.size	mMemDevInfoType17Strings, 24
mMemDevInfoType17Strings:
	.dword	.LC5
	.dword	.LC6
	.dword	0
	.globl	mMemArrMapInfoType19
	.section	.data.mMemArrMapInfoType19,"aw"
	.align	3
	.type	mMemArrMapInfoType19, @object
	.size	mMemArrMapInfoType19, 31
mMemArrMapInfoType19:
	.byte	19
	.byte	31
	.half	0
	.word	0
	.word	0
	.half	0
	.byte	1
	.8byte	0
	.8byte	0
	.globl	mMemArrMapInfoType19Strings
	.section	.bss.mMemArrMapInfoType19Strings,"aw",@nobits
	.align	3
	.type	mMemArrMapInfoType19Strings, @object
	.size	mMemArrMapInfoType19Strings, 8
mMemArrMapInfoType19Strings:
	.zero	8
	.section	.text.LogSmbiosData,"ax",@progbits
	.align	1
	.globl	LogSmbiosData
	.type	LogSmbiosData, @function
LogSmbiosData:
.LFB0:
	.file 1 "/home/kapoagaeming/Downloads/spacemit-image-builder/components/edk2-platforms/Silicon/Spacemit/K1/Drivers/PlatformSmbiosDxe/PlatformSmbiosDxe.c"
	.loc 1 399 1
	.cfi_startproc
	addi	sp,sp,-112
	.cfi_def_cfa_offset 112
	sd	ra,104(sp)
	sd	s0,96(sp)
	.cfi_offset 1, -8
	.cfi_offset 8, -16
	addi	s0,sp,112
	.cfi_def_cfa 8, 0
	sd	a0,-88(s0)
	sd	a1,-96(s0)
	sd	a2,-104(s0)
	.loc 1 412 15
	la	a5,gBS
	ld	a5,0(a5)
	ld	a5,320(a5)
	.loc 1 412 12
	addi	a4,s0,-72
	mv	a2,a4
	li	a1,0
	la	a0,gEfiSmbiosProtocolGuid
	jalr	a5
.LVL0:
	sd	a0,-48(s0)
	.loc 1 413 34
	ld	a5,-48(s0)
	.loc 1 413 6
	bge	a5,zero,.L2
	.loc 1 414 12
	ld	a5,-48(s0)
	j	.L13
.L2:
	.loc 1 418 18
	ld	a5,-88(s0)
	lbu	a5,1(a5)
	.loc 1 418 8
	sd	a5,-32(s0)
	.loc 1 419 6
	ld	a5,-96(s0)
	bne	a5,zero,.L4
	.loc 1 421 10
	ld	a5,-32(s0)
	addi	a5,a5,2
	sd	a5,-32(s0)
	j	.L5
.L4:
	.loc 1 423 16
	sd	zero,-24(s0)
	.loc 1 423 5
	j	.L6
.L7:
	.loc 1 424 44
	ld	a5,-24(s0)
	slli	a5,a5,3
	ld	a4,-96(s0)
	add	a5,a4,a5
	.loc 1 424 20
	ld	a5,0(a5)
	mv	a0,a5
	call	AsciiStrSize@plt
	sd	a0,-56(s0)
	.loc 1 425 12
	ld	a4,-32(s0)
	ld	a5,-56(s0)
	add	a5,a4,a5
	sd	a5,-32(s0)
	.loc 1 423 61 discriminator 3
	ld	a5,-24(s0)
	addi	a5,a5,1
	sd	a5,-24(s0)
.L6:
	.loc 1 423 31 discriminator 1
	ld	a5,-24(s0)
	slli	a5,a5,3
	ld	a4,-96(s0)
	add	a5,a4,a5
	ld	a5,0(a5)
	.loc 1 423 39 discriminator 1
	bne	a5,zero,.L7
	.loc 1 428 19
	ld	a5,-96(s0)
	ld	a5,0(a5)
	.loc 1 428 8
	bne	a5,zero,.L8
	.loc 1 430 12
	ld	a5,-32(s0)
	addi	a5,a5,1
	sd	a5,-32(s0)
.L8:
	.loc 1 434 10
	ld	a5,-32(s0)
	addi	a5,a5,1
	sd	a5,-32(s0)
.L5:
	.loc 1 438 39
	ld	a0,-32(s0)
	call	AllocateZeroPool@plt
	sd	a0,-64(s0)
	.loc 1 439 6
	ld	a5,-64(s0)
	bne	a5,zero,.L9
	.loc 1 440 12
	li	a5,-1
	slli	a5,a5,63
	addi	a5,a5,9
	j	.L13
.L9:
	.loc 1 443 38
	ld	a5,-88(s0)
	lbu	a5,1(a5)
	.loc 1 443 3
	mv	a2,a5
	ld	a1,-88(s0)
	ld	a0,-64(s0)
	call	CopyMem@plt
	.loc 1 446 35
	ld	a5,-64(s0)
	lbu	a5,1(a5)
	mv	a4,a5
	.loc 1 446 7
	ld	a5,-64(s0)
	add	a5,a5,a4
	sd	a5,-40(s0)
	.loc 1 448 14
	sd	zero,-24(s0)
	.loc 1 448 3
	j	.L10
.L11:
	.loc 1 449 42
	ld	a5,-24(s0)
	slli	a5,a5,3
	ld	a4,-96(s0)
	add	a5,a4,a5
	.loc 1 449 18
	ld	a5,0(a5)
	mv	a0,a5
	call	AsciiStrSize@plt
	sd	a0,-56(s0)
	.loc 1 450 29
	ld	a5,-24(s0)
	slli	a5,a5,3
	ld	a4,-96(s0)
	add	a5,a4,a5
	.loc 1 450 5
	ld	a5,0(a5)
	ld	a2,-56(s0)
	mv	a1,a5
	ld	a0,-40(s0)
	call	CopyMem@plt
	.loc 1 451 9
	ld	a4,-40(s0)
	ld	a5,-56(s0)
	add	a5,a4,a5
	sd	a5,-40(s0)
	.loc 1 448 59 discriminator 3
	ld	a5,-24(s0)
	addi	a5,a5,1
	sd	a5,-24(s0)
.L10:
	.loc 1 448 29 discriminator 1
	ld	a5,-24(s0)
	slli	a5,a5,3
	ld	a4,-96(s0)
	add	a5,a4,a5
	ld	a5,0(a5)
	.loc 1 448 37 discriminator 1
	bne	a5,zero,.L11
	.loc 1 454 8
	ld	a5,-40(s0)
	sb	zero,0(a5)
	.loc 1 455 16
	li	a5,-2
	sh	a5,-74(s0)
	.loc 1 456 18
	ld	a5,-72(s0)
	ld	a5,0(a5)
	.loc 1 456 12
	ld	a0,-72(s0)
	la	a4,gImageHandle
	ld	a4,0(a4)
	addi	a2,s0,-74
	ld	a3,-64(s0)
	mv	a1,a4
	jalr	a5
.LVL1:
	sd	a0,-48(s0)
	.loc 1 463 6
	ld	a5,-48(s0)
	bne	a5,zero,.L12
	.loc 1 463 38 discriminator 1
	ld	a5,-104(s0)
	beq	a5,zero,.L12
	.loc 1 464 23
	lhu	a4,-74(s0)
	ld	a5,-104(s0)
	sh	a4,0(a5)
.L12:
	.loc 1 468 3
	ld	a0,-64(s0)
	call	FreePool@plt
	.loc 1 469 10
	ld	a5,-48(s0)
.L13:
	.loc 1 470 1
	mv	a0,a5
	ld	ra,104(sp)
	.cfi_restore 1
	ld	s0,96(sp)
	.cfi_restore 8
	.cfi_def_cfa 2, 112
	addi	sp,sp,112
	.cfi_def_cfa_offset 0
	jr	ra
	.cfi_endproc
.LFE0:
	.size	LogSmbiosData, .-LogSmbiosData
	.section	.text.ProcessorInfoUpdateSmbiosType4,"ax",@progbits
	.align	1
	.globl	ProcessorInfoUpdateSmbiosType4
	.type	ProcessorInfoUpdateSmbiosType4, @function
ProcessorInfoUpdateSmbiosType4:
.LFB1:
	.loc 1 479 1
	.cfi_startproc
	addi	sp,sp,-48
	.cfi_def_cfa_offset 48
	sd	ra,40(sp)
	sd	s0,32(sp)
	.cfi_offset 1, -8
	.cfi_offset 8, -16
	addi	s0,sp,48
	.cfi_def_cfa 8, 0
	sd	a0,-40(s0)
	.loc 1 485 35
	ld	a5,-40(s0)
	andi	a4,a5,0xff
	.loc 1 485 33
	lla	a5,mProcessorInfoType4
	sb	a4,35(a5)
	.loc 1 486 36
	ld	a5,-40(s0)
	andi	a5,a5,0xff
	mv	a4,a5
	.loc 1 486 34
	lla	a5,mProcessorInfoType4
	sh	a4,42(a5)
	.loc 1 487 42
	ld	a5,-40(s0)
	andi	a4,a5,0xff
	.loc 1 487 40
	lla	a5,mProcessorInfoType4
	sb	a4,36(a5)
	.loc 1 488 43
	ld	a5,-40(s0)
	andi	a5,a5,0xff
	mv	a4,a5
	.loc 1 488 41
	lla	a5,mProcessorInfoType4
	sh	a4,44(a5)
	.loc 1 489 37
	ld	a5,-40(s0)
	andi	a4,a5,0xff
	.loc 1 489 35
	lla	a5,mProcessorInfoType4
	sb	a4,37(a5)
	.loc 1 490 38
	ld	a5,-40(s0)
	andi	a5,a5,0xff
	mv	a4,a5
	.loc 1 490 36
	lla	a5,mProcessorInfoType4
	sh	a4,46(a5)
	.loc 1 492 8
	li	a5,1799999488
	addi	a5,a5,512
	sw	a5,-20(s0)
	.loc 1 493 39
	lw	a5,-20(s0)
	slli	a4,a5,32
	srli	a4,a4,32
	li	a5,1125900288
	addi	a5,a5,-381
	mul	a5,a4,a5
	srli	a5,a5,32
	srliw	a5,a5,18
	sext.w	a5,a5
	.loc 1 493 32
	slli	a4,a5,48
	srli	a4,a4,48
	lla	a5,mProcessorInfoType4
	sh	a4,20(a5)
	.loc 1 496 8
	li	a5,1600000000
	sw	a5,-20(s0)
	.loc 1 497 43
	lw	a5,-20(s0)
	slli	a4,a5,32
	srli	a4,a4,32
	li	a5,1125900288
	addi	a5,a5,-381
	mul	a5,a4,a5
	srli	a5,a5,32
	srliw	a5,a5,18
	sext.w	a5,a5
	.loc 1 497 36
	slli	a4,a5,48
	srli	a4,a4,48
	lla	a5,mProcessorInfoType4
	sh	a4,22(a5)
	.loc 1 504 3
	li	a2,0
	lla	a1,mProcessorInfoType4Strings
	lla	a0,mProcessorInfoType4
	call	LogSmbiosData
	.loc 1 505 1
	nop
	ld	ra,40(sp)
	.cfi_restore 1
	ld	s0,32(sp)
	.cfi_restore 8
	.cfi_def_cfa 2, 48
	addi	sp,sp,48
	.cfi_def_cfa_offset 0
	jr	ra
	.cfi_endproc
.LFE1:
	.size	ProcessorInfoUpdateSmbiosType4, .-ProcessorInfoUpdateSmbiosType4
	.section	.text.CacheInfoUpdateSmbiosType7,"ax",@progbits
	.align	1
	.globl	CacheInfoUpdateSmbiosType7
	.type	CacheInfoUpdateSmbiosType7, @function
CacheInfoUpdateSmbiosType7:
.LFB2:
	.loc 1 514 1
	.cfi_startproc
	addi	sp,sp,-32
	.cfi_def_cfa_offset 32
	sd	ra,24(sp)
	sd	s0,16(sp)
	.cfi_offset 1, -8
	.cfi_offset 8, -16
	addi	s0,sp,32
	.cfi_def_cfa 8, 0
	.loc 1 517 3
	li	a2,0
	lla	a1,mCacheInfoType7Strings_L1I
	lla	a0,mCacheInfoType7_L1I
	call	LogSmbiosData
	.loc 1 519 3
	addi	a5,s0,-18
	mv	a2,a5
	lla	a1,mCacheInfoType7Strings_L1D
	lla	a0,mCacheInfoType7_L1D
	call	LogSmbiosData
	.loc 1 521 37
	lhu	a4,-18(s0)
	lla	a5,mProcessorInfoType4
	sh	a4,26(a5)
	.loc 1 523 3
	addi	a5,s0,-18
	mv	a2,a5
	lla	a1,mCacheInfoType7Strings_L2
	lla	a0,mCacheInfoType7_L2
	call	LogSmbiosData
	.loc 1 525 37
	lhu	a4,-18(s0)
	lla	a5,mProcessorInfoType4
	sh	a4,28(a5)
	.loc 1 526 1
	nop
	ld	ra,24(sp)
	.cfi_restore 1
	ld	s0,16(sp)
	.cfi_restore 8
	.cfi_def_cfa 2, 32
	addi	sp,sp,32
	.cfi_def_cfa_offset 0
	jr	ra
	.cfi_endproc
.LFE2:
	.size	CacheInfoUpdateSmbiosType7, .-CacheInfoUpdateSmbiosType7
	.section	.rodata
	.align	3
.LC7:
	.string	"mem_layout"
	.section	.text.PhyMemArrayInfoUpdateSmbiosType16,"ax",@progbits
	.align	1
	.globl	PhyMemArrayInfoUpdateSmbiosType16
	.type	PhyMemArrayInfoUpdateSmbiosType16, @function
PhyMemArrayInfoUpdateSmbiosType16:
.LFB3:
	.loc 1 535 1
	.cfi_startproc
	addi	sp,sp,-176
	.cfi_def_cfa_offset 176
	sd	ra,168(sp)
	sd	s0,160(sp)
	.cfi_offset 1, -8
	.cfi_offset 8, -16
	addi	s0,sp,176
	.cfi_def_cfa 8, 0
	.loc 1 548 33
	lla	a5,mPlatformInfoProtocol
	ld	a5,0(a5)
	ld	a5,8(a5)
	.loc 1 548 12
	lla	a4,mPlatformInfoProtocol
	ld	a4,0(a4)
	addi	a2,s0,-176
	li	a3,8
	lla	a1,.LC7
	mv	a0,a4
	jalr	a5
.LVL2:
	sd	a0,-40(s0)
	.loc 1 554 34
	ld	a5,-40(s0)
	.loc 1 554 6
	bge	a5,zero,.L17
	.loc 1 557 28
	lla	a5,mMemDevInfoType17
	li	a4,512
	sh	a4,12(a5)
	j	.L18
.L17:
	.loc 1 559 12
	sd	zero,-24(s0)
	.loc 1 559 25
	sd	zero,-32(s0)
	.loc 1 559 5
	j	.L19
.L20:
	.loc 1 560 30
	ld	a5,-24(s0)
	slli	a5,a5,4
	addi	a5,a5,-16
	add	a5,a5,s0
	ld	a5,-152(a5)
	.loc 1 560 15
	ld	a4,-32(s0)
	add	a5,a4,a5
	sd	a5,-32(s0)
	.loc 1 559 63 discriminator 3
	ld	a5,-24(s0)
	addi	a5,a5,1
	sd	a5,-24(s0)
.L19:
	.loc 1 559 42 discriminator 1
	ld	a5,-24(s0)
	slli	a5,a5,4
	addi	a5,a5,-16
	add	a5,a5,s0
	ld	a5,-152(a5)
	.loc 1 559 56 discriminator 1
	bne	a5,zero,.L20
	.loc 1 563 38
	ld	a5,-32(s0)
	srli	a5,a5,20
	.loc 1 563 28
	slli	a4,a5,48
	srli	a4,a4,48
	lla	a5,mMemDevInfoType17
	sh	a4,12(a5)
.L18:
	.loc 1 566 61
	lla	a5,mMemDevInfoType17
	lhu	a5,12(a5)
	sext.w	a5,a5
	.loc 1 566 67
	slliw	a5,a5,10
	sext.w	a5,a5
	mv	a4,a5
	.loc 1 566 42
	lla	a5,mPhyMemArrayInfoType16
	slli	a3,a4,32
	srli	a3,a3,32
	andi	a3,a3,255
	lbu	a2,7(a5)
	andi	a2,a2,0
	or	a3,a2,a3
	sb	a3,7(a5)
	srliw	a3,a4,8
	slli	a3,a3,32
	srli	a3,a3,32
	andi	a3,a3,255
	lbu	a2,8(a5)
	andi	a2,a2,0
	or	a3,a2,a3
	sb	a3,8(a5)
	srliw	a3,a4,16
	slli	a3,a3,32
	srli	a3,a3,32
	andi	a3,a3,255
	lbu	a2,9(a5)
	andi	a2,a2,0
	or	a3,a2,a3
	sb	a3,9(a5)
	srliw	a4,a4,24
	slli	a4,a4,32
	srli	a4,a4,32
	lbu	a3,10(a5)
	andi	a3,a3,0
	or	a4,a3,a4
	sb	a4,10(a5)
	.loc 1 567 65
	lla	a5,mMemDevInfoType17
	lhu	a5,12(a5)
	.loc 1 567 36
	li	a1,1048576
	mv	a0,a5
	call	MultU64x32@plt
	mv	a4,a0
	.loc 1 567 34 discriminator 1
	lla	a5,mMemDevInfoType17
	slli	a3,a4,32
	srli	a3,a3,32
	lw	a2,60(a5)
	andi	a2,a2,0
	or	a3,a2,a3
	sw	a3,60(a5)
	srli	a4,a4,32
	lw	a3,64(a5)
	andi	a3,a3,0
	or	a4,a3,a4
	sw	a4,64(a5)
	.loc 1 569 3
	addi	a5,s0,-42
	mv	a2,a5
	lla	a1,mPhyMemArrayInfoType16Strings
	lla	a0,mPhyMemArrayInfoType16
	call	LogSmbiosData
	.loc 1 574 39
	lhu	a4,-42(s0)
	lla	a5,mMemDevInfoType17
	sh	a4,4(a5)
	.loc 1 575 42
	lhu	a4,-42(s0)
	lla	a5,mMemArrMapInfoType19
	sh	a4,12(a5)
	.loc 1 576 1
	nop
	ld	ra,168(sp)
	.cfi_restore 1
	ld	s0,160(sp)
	.cfi_restore 8
	.cfi_def_cfa 2, 176
	addi	sp,sp,176
	.cfi_def_cfa_offset 0
	jr	ra
	.cfi_endproc
.LFE3:
	.size	PhyMemArrayInfoUpdateSmbiosType16, .-PhyMemArrayInfoUpdateSmbiosType16
	.section	.text.MemDevInfoUpdateSmbiosType17,"ax",@progbits
	.align	1
	.globl	MemDevInfoUpdateSmbiosType17
	.type	MemDevInfoUpdateSmbiosType17, @function
MemDevInfoUpdateSmbiosType17:
.LFB4:
	.loc 1 585 1
	.cfi_startproc
	addi	sp,sp,-16
	.cfi_def_cfa_offset 16
	sd	ra,8(sp)
	sd	s0,0(sp)
	.cfi_offset 1, -8
	.cfi_offset 8, -16
	addi	s0,sp,16
	.cfi_def_cfa 8, 0
	.loc 1 586 3
	li	a2,0
	lla	a1,mMemDevInfoType17Strings
	lla	a0,mMemDevInfoType17
	call	LogSmbiosData
	.loc 1 587 1
	nop
	ld	ra,8(sp)
	.cfi_restore 1
	ld	s0,0(sp)
	.cfi_restore 8
	.cfi_def_cfa 2, 16
	addi	sp,sp,16
	.cfi_def_cfa_offset 0
	jr	ra
	.cfi_endproc
.LFE4:
	.size	MemDevInfoUpdateSmbiosType17, .-MemDevInfoUpdateSmbiosType17
	.section	.text.MemArrMapInfoUpdateSmbiosType19,"ax",@progbits
	.align	1
	.globl	MemArrMapInfoUpdateSmbiosType19
	.type	MemArrMapInfoUpdateSmbiosType19, @function
MemArrMapInfoUpdateSmbiosType19:
.LFB5:
	.loc 1 596 1
	.cfi_startproc
	addi	sp,sp,-176
	.cfi_def_cfa_offset 176
	sd	ra,168(sp)
	sd	s0,160(sp)
	.cfi_offset 1, -8
	.cfi_offset 8, -16
	addi	s0,sp,176
	.cfi_def_cfa 8, 0
	.loc 1 601 33
	lla	a5,mPlatformInfoProtocol
	ld	a5,0(a5)
	ld	a5,8(a5)
	.loc 1 601 12
	lla	a4,mPlatformInfoProtocol
	ld	a4,0(a4)
	addi	a2,s0,-168
	li	a3,8
	lla	a1,.LC7
	mv	a0,a4
	jalr	a5
.LVL3:
	sd	a0,-32(s0)
	.loc 1 607 34
	ld	a5,-32(s0)
	.loc 1 607 6
	bge	a5,zero,.L23
	.loc 1 610 34
	sd	zero,-168(s0)
	.loc 1 612 31
	li	a5,536870912
	sd	a5,-160(s0)
	.loc 1 614 34
	sd	zero,-152(s0)
	.loc 1 615 31
	sd	zero,-144(s0)
.L23:
	.loc 1 618 10
	sd	zero,-24(s0)
	.loc 1 618 3
	j	.L24
.L25:
	.loc 1 620 56
	ld	a5,-24(s0)
	slli	a5,a5,4
	addi	a5,a5,-16
	add	a5,a5,s0
	ld	a5,-152(a5)
	.loc 1 620 73
	srli	a5,a5,10
	.loc 1 620 42
	sext.w	a4,a5
	lla	a5,mMemArrMapInfoType19
	sw	a4,4(a5)
	.loc 1 621 27
	ld	a5,-24(s0)
	slli	a5,a5,4
	addi	a5,a5,-16
	add	a5,a5,s0
	ld	a5,-144(a5)
	.loc 1 621 13
	srli	a5,a5,10
	sd	a5,-40(s0)
	.loc 1 622 62
	lla	a5,mMemArrMapInfoType19
	lw	a4,4(a5)
	.loc 1 622 79
	ld	a5,-40(s0)
	sext.w	a5,a5
	addw	a5,a4,a5
	sext.w	a5,a5
	.loc 1 622 89
	addiw	a5,a5,-1
	sext.w	a4,a5
	.loc 1 622 40
	lla	a5,mMemArrMapInfoType19
	sw	a4,8(a5)
	.loc 1 623 5
	li	a2,0
	lla	a1,mMemArrMapInfoType19Strings
	lla	a0,mMemArrMapInfoType19
	call	LogSmbiosData
	.loc 1 618 48 discriminator 3
	ld	a5,-24(s0)
	addi	a5,a5,1
	sd	a5,-24(s0)
.L24:
	.loc 1 618 27 discriminator 1
	ld	a5,-24(s0)
	slli	a5,a5,4
	addi	a5,a5,-16
	add	a5,a5,s0
	ld	a5,-144(a5)
	.loc 1 618 41 discriminator 1
	bne	a5,zero,.L25
	.loc 1 625 1
	nop
	nop
	ld	ra,168(sp)
	.cfi_restore 1
	ld	s0,160(sp)
	.cfi_restore 8
	.cfi_def_cfa 2, 176
	addi	sp,sp,176
	.cfi_def_cfa_offset 0
	jr	ra
	.cfi_endproc
.LFE5:
	.size	MemArrMapInfoUpdateSmbiosType19, .-MemArrMapInfoUpdateSmbiosType19
	.section	.text.PlatformSmbiosDriverEntryPoint,"ax",@progbits
	.align	1
	.globl	PlatformSmbiosDriverEntryPoint
	.type	PlatformSmbiosDriverEntryPoint, @function
PlatformSmbiosDriverEntryPoint:
.LFB6:
	.loc 1 636 1
	.cfi_startproc
	addi	sp,sp,-48
	.cfi_def_cfa_offset 48
	sd	ra,40(sp)
	sd	s0,32(sp)
	.cfi_offset 1, -8
	.cfi_offset 8, -16
	addi	s0,sp,48
	.cfi_def_cfa 8, 0
	sd	a0,-40(s0)
	sd	a1,-48(s0)
	.loc 1 639 15
	la	a5,gBS
	ld	a5,0(a5)
	ld	a5,320(a5)
	.loc 1 639 12
	lla	a2,mPlatformInfoProtocol
	li	a1,0
	la	a0,gSpacemitPlatformInfoProtocolGuid
	jalr	a5
.LVL4:
	sd	a0,-24(s0)
	.loc 1 644 34
	ld	a5,-24(s0)
	.loc 1 644 6
	bge	a5,zero,.L27
	.loc 1 646 12
	ld	a5,-24(s0)
	j	.L28
.L27:
	.loc 1 649 3
	call	CacheInfoUpdateSmbiosType7
	.loc 1 650 3
	li	a0,8
	call	ProcessorInfoUpdateSmbiosType4
	.loc 1 652 3
	call	PhyMemArrayInfoUpdateSmbiosType16
	.loc 1 653 3
	call	MemDevInfoUpdateSmbiosType17
	.loc 1 654 3
	call	MemArrMapInfoUpdateSmbiosType19
	.loc 1 656 10
	li	a5,0
.L28:
	.loc 1 657 1
	mv	a0,a5
	ld	ra,40(sp)
	.cfi_restore 1
	ld	s0,32(sp)
	.cfi_restore 8
	.cfi_def_cfa 2, 48
	addi	sp,sp,48
	.cfi_def_cfa_offset 0
	jr	ra
	.cfi_endproc
.LFE6:
	.size	PlatformSmbiosDriverEntryPoint, .-PlatformSmbiosDriverEntryPoint
	.text
.Letext0:
	.file 2 "/home/kapoagaeming/Downloads/spacemit-image-builder/components/edk2/MdePkg/Include/RiscV64/ProcessorBind.h"
	.file 3 "/home/kapoagaeming/Downloads/spacemit-image-builder/components/edk2/MdePkg/Include/Base.h"
	.file 4 "/home/kapoagaeming/Downloads/spacemit-image-builder/components/edk2/MdePkg/Include/Uefi/UefiBaseType.h"
	.file 5 "/home/kapoagaeming/Downloads/spacemit-image-builder/components/edk2/MdePkg/Include/Uefi/UefiMultiPhase.h"
	.file 6 "/home/kapoagaeming/Downloads/spacemit-image-builder/components/edk2/MdePkg/Include/Protocol/DevicePath.h"
	.file 7 "/home/kapoagaeming/Downloads/spacemit-image-builder/components/edk2/MdePkg/Include/Protocol/SimpleTextIn.h"
	.file 8 "/home/kapoagaeming/Downloads/spacemit-image-builder/components/edk2/MdePkg/Include/Protocol/SimpleTextOut.h"
	.file 9 "/home/kapoagaeming/Downloads/spacemit-image-builder/components/edk2/MdePkg/Include/Uefi/UefiSpec.h"
	.file 10 "/home/kapoagaeming/Downloads/spacemit-image-builder/components/Build/Milk-V-Jupiter/RELEASE_GCC5/RISCV64/Silicon/Spacemit/K1/Drivers/PlatformSmbiosDxe/PlatformSmbiosDxe/DEBUG/AutoGen.h"
	.file 11 "/home/kapoagaeming/Downloads/spacemit-image-builder/components/edk2/MdePkg/Include/IndustryStandard/SmBios.h"
	.file 12 "/home/kapoagaeming/Downloads/spacemit-image-builder/components/edk2/MdePkg/Include/Protocol/Smbios.h"
	.file 13 "/home/kapoagaeming/Downloads/spacemit-image-builder/components/edk2/MdePkg/Include/Library/UefiBootServicesTableLib.h"
	.file 14 "/home/kapoagaeming/Downloads/spacemit-image-builder/components/edk2-platforms/Silicon/Spacemit/Include/Protocol/PlatformInfo.h"
	.file 15 "/home/kapoagaeming/Downloads/spacemit-image-builder/components/edk2/MdePkg/Include/Library/BaseLib.h"
	.file 16 "/home/kapoagaeming/Downloads/spacemit-image-builder/components/edk2/MdePkg/Include/Library/BaseMemoryLib.h"
	.file 17 "/home/kapoagaeming/Downloads/spacemit-image-builder/components/edk2/MdePkg/Include/Library/MemoryAllocationLib.h"
	.section	.note.GNU-stack,"",@progbits
