	.file	"MemoryAllocationLib.c"
	.option pic
	.option norelax
	.attribute arch, "rv64i2p1_m2p0_a2p1_f2p2_d2p2_c2p0_zicsr2p0_zifencei2p0_zmmul1p0_zaamo1p0_zalrsc1p0_zca1p0_zcd1p0"
	.attribute unaligned_access, 0
	.attribute stack_align, 16
	.text
.Ltext0:
	.cfi_sections	.debug_frame
	.file 0 "/home/kapoagaeming/Downloads/spacemit-image-builder/components/Build/Milk-V-Jupiter/RELEASE_GCC5/RISCV64/EmbeddedPkg/Library/PrePiMemoryAllocationLib/PrePiMemoryAllocationLib" "/home/kapoagaeming/Downloads/spacemit-image-builder/components/edk2/EmbeddedPkg/Library/PrePiMemoryAllocationLib/MemoryAllocationLib.c"
	.section	.text.InternalAllocatePages,"ax",@progbits
	.align	1
	.type	InternalAllocatePages, @function
InternalAllocatePages:
.LFB0:
	.file 1 "/home/kapoagaeming/Downloads/spacemit-image-builder/components/edk2/EmbeddedPkg/Library/PrePiMemoryAllocationLib/MemoryAllocationLib.c"
	.loc 1 24 1
	.cfi_startproc
	addi	sp,sp,-48
	.cfi_def_cfa_offset 48
	sd	ra,40(sp)
	sd	s0,32(sp)
	.cfi_offset 1, -8
	.cfi_offset 8, -16
	addi	s0,sp,48
	.cfi_def_cfa 8, 0
	sd	a0,-40(s0)
	mv	a5,a1
	sw	a5,-44(s0)
	.loc 1 28 13
	call	GetHobList@plt
	mv	a5,a0
	.loc 1 28 11 discriminator 1
	sd	a5,-32(s0)
	.loc 1 30 15
	ld	a5,-32(s0)
	.loc 1 30 39
	ld	a4,32(a5)
	.loc 1 30 10
	li	a5,-4096
	and	a5,a4,a5
	sd	a5,-24(s0)
	.loc 1 31 19
	ld	a5,-40(s0)
	slli	a5,a5,12
	.loc 1 31 10
	ld	a4,-24(s0)
	sub	a5,a4,a5
	sd	a5,-24(s0)
	.loc 1 36 20
	ld	a5,-32(s0)
	.loc 1 36 44
	ld	a5,40(a5)
	.loc 1 36 66
	addi	a5,a5,48
	.loc 1 36 6
	ld	a4,-24(s0)
	bgeu	a4,a5,.L2
	.loc 1 37 12
	li	a5,0
	j	.L4
.L2:
	.loc 1 43 6
	ld	a5,-32(s0)
	.loc 1 43 49
	ld	a4,-24(s0)
	sd	a4,32(a5)
	.loc 1 49 8
	ld	a5,-32(s0)
	.loc 1 48 3
	ld	a4,32(a5)
	.loc 1 50 11
	ld	a5,-40(s0)
	slli	a5,a5,12
	.loc 1 48 3
	lw	a3,-44(s0)
	mv	a2,a3
	mv	a1,a5
	mv	a0,a4
	call	BuildMemoryAllocationHob@plt
	.loc 1 54 28
	ld	a5,-32(s0)
	.loc 1 54 52
	ld	a5,32(a5)
.L4:
	.loc 1 55 1
	mv	a0,a5
	ld	ra,40(sp)
	.cfi_restore 1
	ld	s0,32(sp)
	.cfi_restore 8
	.cfi_def_cfa 2, 48
	addi	sp,sp,48
	.cfi_def_cfa_offset 0
	jr	ra
	.cfi_endproc
.LFE0:
	.size	InternalAllocatePages, .-InternalAllocatePages
	.section	.text.AllocatePages,"ax",@progbits
	.align	1
	.globl	AllocatePages
	.type	AllocatePages, @function
AllocatePages:
.LFB1:
	.loc 1 75 1
	.cfi_startproc
	addi	sp,sp,-32
	.cfi_def_cfa_offset 32
	sd	ra,24(sp)
	sd	s0,16(sp)
	.cfi_offset 1, -8
	.cfi_offset 8, -16
	addi	s0,sp,32
	.cfi_def_cfa 8, 0
	sd	a0,-24(s0)
	.loc 1 76 10
	li	a1,4
	ld	a0,-24(s0)
	call	InternalAllocatePages
	mv	a5,a0
	.loc 1 77 1
	mv	a0,a5
	ld	ra,24(sp)
	.cfi_restore 1
	ld	s0,16(sp)
	.cfi_restore 8
	.cfi_def_cfa 2, 32
	addi	sp,sp,32
	.cfi_def_cfa_offset 0
	jr	ra
	.cfi_endproc
.LFE1:
	.size	AllocatePages, .-AllocatePages
	.section	.text.AllocateRuntimePages,"ax",@progbits
	.align	1
	.globl	AllocateRuntimePages
	.type	AllocateRuntimePages, @function
AllocateRuntimePages:
.LFB2:
	.loc 1 97 1
	.cfi_startproc
	addi	sp,sp,-32
	.cfi_def_cfa_offset 32
	sd	ra,24(sp)
	sd	s0,16(sp)
	.cfi_offset 1, -8
	.cfi_offset 8, -16
	addi	s0,sp,32
	.cfi_def_cfa 8, 0
	sd	a0,-24(s0)
	.loc 1 98 10
	li	a1,6
	ld	a0,-24(s0)
	call	InternalAllocatePages
	mv	a5,a0
	.loc 1 99 1
	mv	a0,a5
	ld	ra,24(sp)
	.cfi_restore 1
	ld	s0,16(sp)
	.cfi_restore 8
	.cfi_def_cfa 2, 32
	addi	sp,sp,32
	.cfi_def_cfa_offset 0
	jr	ra
	.cfi_endproc
.LFE2:
	.size	AllocateRuntimePages, .-AllocateRuntimePages
	.section	.text.AllocateAlignedPages,"ax",@progbits
	.align	1
	.globl	AllocateAlignedPages
	.type	AllocateAlignedPages, @function
AllocateAlignedPages:
.LFB3:
	.loc 1 123 1
	.cfi_startproc
	addi	sp,sp,-48
	.cfi_def_cfa_offset 48
	sd	ra,40(sp)
	sd	s0,32(sp)
	.cfi_offset 1, -8
	.cfi_offset 8, -16
	addi	s0,sp,48
	.cfi_def_cfa 8, 0
	sd	a0,-40(s0)
	sd	a1,-48(s0)
	.loc 1 132 6
	ld	a5,-40(s0)
	bne	a5,zero,.L10
	.loc 1 133 12
	li	a5,0
	j	.L11
.L10:
	.loc 1 143 64
	ld	a5,-48(s0)
	srli	a4,a5,12
	.loc 1 143 87
	ld	a3,-48(s0)
	li	a5,4096
	addi	a5,a5,-1
	and	a5,a3,a5
	.loc 1 143 100
	beq	a5,zero,.L12
	.loc 1 143 100 is_stmt 0 discriminator 1
	li	a5,1
	j	.L13
.L12:
	.loc 1 143 100 discriminator 2
	li	a5,0
.L13:
	.loc 1 143 71 is_stmt 1 discriminator 4
	add	a4,a5,a4
	.loc 1 143 12 discriminator 4
	ld	a5,-40(s0)
	add	a5,a4,a5
	mv	a0,a5
	call	AllocatePages
	sd	a0,-32(s0)
	.loc 1 144 6
	ld	a5,-48(s0)
	bne	a5,zero,.L14
	.loc 1 145 19
	ld	a5,-48(s0)
	sd	a5,-24(s0)
	j	.L15
.L14:
	.loc 1 147 19
	ld	a5,-48(s0)
	addi	a5,a5,-1
	sd	a5,-24(s0)
.L15:
	.loc 1 150 27
	ld	a4,-32(s0)
	.loc 1 150 41
	ld	a5,-24(s0)
	add	a4,a4,a5
	.loc 1 150 60
	ld	a5,-24(s0)
	not	a5,a5
	.loc 1 150 18
	and	a5,a4,a5
.L11:
	.loc 1 151 1
	mv	a0,a5
	ld	ra,40(sp)
	.cfi_restore 1
	ld	s0,32(sp)
	.cfi_restore 8
	.cfi_def_cfa 2, 48
	addi	sp,sp,48
	.cfi_def_cfa_offset 0
	jr	ra
	.cfi_endproc
.LFE3:
	.size	AllocateAlignedPages, .-AllocateAlignedPages
	.section	.text.FreePages,"ax",@progbits
	.align	1
	.globl	FreePages
	.type	FreePages, @function
FreePages:
.LFB4:
	.loc 1 176 1
	.cfi_startproc
	addi	sp,sp,-32
	.cfi_def_cfa_offset 32
	sd	ra,24(sp)
	sd	s0,16(sp)
	.cfi_offset 1, -8
	.cfi_offset 8, -16
	addi	s0,sp,32
	.cfi_def_cfa 8, 0
	sd	a0,-24(s0)
	sd	a1,-32(s0)
	.loc 1 179 1
	nop
	ld	ra,24(sp)
	.cfi_restore 1
	ld	s0,16(sp)
	.cfi_restore 8
	.cfi_def_cfa 2, 32
	addi	sp,sp,32
	.cfi_def_cfa_offset 0
	jr	ra
	.cfi_endproc
.LFE4:
	.size	FreePages, .-FreePages
	.section	.text.AllocatePool,"ax",@progbits
	.align	1
	.globl	AllocatePool
	.type	AllocatePool, @function
AllocatePool:
.LFB5:
	.loc 1 198 1
	.cfi_startproc
	addi	sp,sp,-48
	.cfi_def_cfa_offset 48
	sd	ra,40(sp)
	sd	s0,32(sp)
	.cfi_offset 1, -8
	.cfi_offset 8, -16
	addi	s0,sp,48
	.cfi_def_cfa 8, 0
	sd	a0,-40(s0)
	.loc 1 201 9
	call	GetHobList@plt
	sd	a0,-24(s0)
	.loc 1 206 6
	ld	a4,-40(s0)
	li	a5,65536
	bleu	a4,a5,.L18
	.loc 1 208 12
	li	a5,0
	j	.L19
.L18:
	.loc 1 210 34
	ld	a5,-40(s0)
	slli	a5,a5,48
	srli	a5,a5,48
	.loc 1 212 36
	addiw	a5,a5,8
	slli	a5,a5,48
	srli	a5,a5,48
	.loc 1 210 34
	mv	a1,a5
	li	a0,7
	call	CreateHob@plt
	sd	a0,-24(s0)
	.loc 1 215 12
	ld	a5,-24(s0)
	addi	a5,a5,8
.L19:
	.loc 1 217 1
	mv	a0,a5
	ld	ra,40(sp)
	.cfi_restore 1
	ld	s0,32(sp)
	.cfi_restore 8
	.cfi_def_cfa 2, 48
	addi	sp,sp,48
	.cfi_def_cfa_offset 0
	jr	ra
	.cfi_endproc
.LFE5:
	.size	AllocatePool, .-AllocatePool
	.section	.text.AllocateZeroPool,"ax",@progbits
	.align	1
	.globl	AllocateZeroPool
	.type	AllocateZeroPool, @function
AllocateZeroPool:
.LFB6:
	.loc 1 237 1
	.cfi_startproc
	addi	sp,sp,-48
	.cfi_def_cfa_offset 48
	sd	ra,40(sp)
	sd	s0,32(sp)
	.cfi_offset 1, -8
	.cfi_offset 8, -16
	addi	s0,sp,48
	.cfi_def_cfa 8, 0
	sd	a0,-40(s0)
	.loc 1 240 12
	ld	a0,-40(s0)
	call	AllocatePool
	sd	a0,-24(s0)
	.loc 1 241 6
	ld	a5,-24(s0)
	bne	a5,zero,.L21
	.loc 1 242 12
	li	a5,0
	j	.L22
.L21:
	.loc 1 245 3
	ld	a1,-40(s0)
	ld	a0,-24(s0)
	call	ZeroMem@plt
	.loc 1 247 10
	ld	a5,-24(s0)
.L22:
	.loc 1 248 1
	mv	a0,a5
	ld	ra,40(sp)
	.cfi_restore 1
	ld	s0,32(sp)
	.cfi_restore 8
	.cfi_def_cfa 2, 48
	addi	sp,sp,48
	.cfi_def_cfa_offset 0
	jr	ra
	.cfi_endproc
.LFE6:
	.size	AllocateZeroPool, .-AllocateZeroPool
	.section	.text.FreePool,"ax",@progbits
	.align	1
	.globl	FreePool
	.type	FreePool, @function
FreePool:
.LFB7:
	.loc 1 269 1
	.cfi_startproc
	addi	sp,sp,-32
	.cfi_def_cfa_offset 32
	sd	ra,24(sp)
	sd	s0,16(sp)
	.cfi_offset 1, -8
	.cfi_offset 8, -16
	addi	s0,sp,32
	.cfi_def_cfa 8, 0
	sd	a0,-24(s0)
	.loc 1 271 1
	nop
	ld	ra,24(sp)
	.cfi_restore 1
	ld	s0,16(sp)
	.cfi_restore 8
	.cfi_def_cfa 2, 32
	addi	sp,sp,32
	.cfi_def_cfa_offset 0
	jr	ra
	.cfi_endproc
.LFE7:
	.size	FreePool, .-FreePool
	.section	.text.ReallocatePool,"ax",@progbits
	.align	1
	.globl	ReallocatePool
	.type	ReallocatePool, @function
ReallocatePool:
.LFB8:
	.loc 1 301 1
	.cfi_startproc
	addi	sp,sp,-64
	.cfi_def_cfa_offset 64
	sd	ra,56(sp)
	sd	s0,48(sp)
	.cfi_offset 1, -8
	.cfi_offset 8, -16
	addi	s0,sp,64
	.cfi_def_cfa 8, 0
	sd	a0,-40(s0)
	sd	a1,-48(s0)
	sd	a2,-56(s0)
	.loc 1 305 12
	call	DebugCodeEnabled@plt
	mv	a5,a0
	.loc 1 305 11 discriminator 1
	beq	a5,zero,.L25
.LBB2:
	.loc 1 308 6
	ld	a5,-56(s0)
	beq	a5,zero,.L25
	.loc 1 309 18
	call	GetHobList@plt
	sd	a0,-24(s0)
.L25:
.LBE2:
	.loc 1 317 6
	ld	a5,-56(s0)
	beq	a5,zero,.L26
	.loc 1 317 35 discriminator 1
	ld	a4,-40(s0)
	ld	a5,-48(s0)
	bltu	a4,a5,.L26
	.loc 1 318 12
	ld	a5,-56(s0)
	j	.L27
.L26:
	.loc 1 321 15
	ld	a0,-48(s0)
	call	AllocateZeroPool
	sd	a0,-32(s0)
	.loc 1 322 6
	ld	a5,-32(s0)
	beq	a5,zero,.L28
	.loc 1 322 35 discriminator 1
	ld	a5,-56(s0)
	beq	a5,zero,.L28
	.loc 1 323 5
	ld	a4,-40(s0)
	ld	a5,-48(s0)
	bleu	a5,a4,.L29
	mv	a5,a4
.L29:
	mv	a2,a5
	ld	a1,-56(s0)
	ld	a0,-32(s0)
	call	CopyMem@plt
	.loc 1 324 5
	ld	a0,-56(s0)
	call	FreePool
.L28:
	.loc 1 327 10
	ld	a5,-32(s0)
.L27:
	.loc 1 328 1
	mv	a0,a5
	ld	ra,56(sp)
	.cfi_restore 1
	ld	s0,48(sp)
	.cfi_restore 8
	.cfi_def_cfa 2, 64
	addi	sp,sp,64
	.cfi_def_cfa_offset 0
	jr	ra
	.cfi_endproc
.LFE8:
	.size	ReallocatePool, .-ReallocatePool
	.text
.Letext0:
	.file 2 "/home/kapoagaeming/Downloads/spacemit-image-builder/components/edk2/MdePkg/Include/RiscV64/ProcessorBind.h"
	.file 3 "/home/kapoagaeming/Downloads/spacemit-image-builder/components/edk2/MdePkg/Include/Base.h"
	.file 4 "/home/kapoagaeming/Downloads/spacemit-image-builder/components/edk2/MdePkg/Include/Uefi/UefiBaseType.h"
	.file 5 "/home/kapoagaeming/Downloads/spacemit-image-builder/components/edk2/MdePkg/Include/Uefi/UefiMultiPhase.h"
	.file 6 "/home/kapoagaeming/Downloads/spacemit-image-builder/components/edk2/MdePkg/Include/Pi/PiBootMode.h"
	.file 7 "/home/kapoagaeming/Downloads/spacemit-image-builder/components/edk2/MdePkg/Include/Pi/PiHob.h"
	.file 8 "/home/kapoagaeming/Downloads/spacemit-image-builder/components/edk2/MdePkg/Include/Library/BaseMemoryLib.h"
	.file 9 "/home/kapoagaeming/Downloads/spacemit-image-builder/components/edk2/EmbeddedPkg/Include/Library/PrePiLib.h"
	.file 10 "/home/kapoagaeming/Downloads/spacemit-image-builder/components/edk2/MdePkg/Include/Library/DebugLib.h"
	.section	.note.GNU-stack,"",@progbits
