	.file	"I2cMaster.c"
	.option pic
	.option norelax
	.attribute arch, "rv64i2p1_m2p0_a2p1_f2p2_d2p2_c2p0_zicsr2p0_zifencei2p0_zmmul1p0_zaamo1p0_zalrsc1p0_zca1p0_zcd1p0"
	.attribute unaligned_access, 0
	.attribute stack_align, 16
	.text
.Ltext0:
	.cfi_sections	.debug_frame
	.file 0 "/home/kapoagaeming/Downloads/spacemit-image-builder/components/Build/Milk-V-Jupiter/RELEASE_GCC5/RISCV64/Silicon/Spacemit/Drivers/I2CMaster/I2CMaster/I2cMaster" "/home/kapoagaeming/Downloads/spacemit-image-builder/components/edk2-platforms/Silicon/Spacemit/Drivers/I2CMaster/I2CMaster/I2cMaster.c"
	.globl	gEfiI2cDeviceGuid
	.section	.data.gEfiI2cDeviceGuid,"aw"
	.align	3
	.type	gEfiI2cDeviceGuid, @object
	.size	gEfiI2cDeviceGuid, 16
gEfiI2cDeviceGuid:
	.word	-1403147618
	.half	19835
	.half	19510
	.base64	"njdIx5rFMS0="
	.section	.data.SpI2cDevicePathProtocol,"aw"
	.align	3
	.type	SpI2cDevicePathProtocol, @object
	.size	SpI2cDevicePathProtocol, 28
SpI2cDevicePathProtocol:
	.byte	1
	.byte	4
	.string	"\030"
	.word	-1935628602
	.half	27453
	.half	19468
	.base64	"odGF8F2KfJI="
	.word	0
	.byte	127
	.byte	-1
	.string	"\004"
	.globl	mI2cEnumerateProtocol
	.section	.data.rel.local.mI2cEnumerateProtocol,"aw"
	.align	3
	.type	mI2cEnumerateProtocol, @object
	.size	mI2cEnumerateProtocol, 16
mI2cEnumerateProtocol:
	.dword	I2cEnumerate
	.zero	8
	.globl	mI2cBusConfigProtocol
	.section	.data.rel.local.mI2cBusConfigProtocol,"aw"
	.align	3
	.type	mI2cBusConfigProtocol, @object
	.size	mI2cBusConfigProtocol, 8
mI2cBusConfigProtocol:
	.dword	I2cBusConfiguration
	.section	.text.I2cTransfer,"ax",@progbits
	.align	1
	.type	I2cTransfer, @function
I2cTransfer:
.LFB0:
	.file 1 "/home/kapoagaeming/Downloads/spacemit-image-builder/components/edk2-platforms/Silicon/Spacemit/Drivers/I2CMaster/I2CMaster/I2cMaster.c"
	.loc 1 80 1
	.cfi_startproc
	addi	sp,sp,-64
	.cfi_def_cfa_offset 64
	sd	ra,56(sp)
	sd	s0,48(sp)
	.cfi_offset 1, -8
	.cfi_offset 8, -16
	addi	s0,sp,64
	.cfi_def_cfa 8, 0
	sd	a0,-56(s0)
	sd	a1,-64(s0)
	.loc 1 86 14
	ld	a5,-56(s0)
	ld	a5,40(a5)
	mv	a0,a5
	call	MmioRead32@plt
	mv	a5,a0
	sw	a5,-20(s0)
	.loc 1 89 23
	ld	a5,-56(s0)
	ld	a5,40(a5)
	.loc 1 89 3
	addi	a5,a5,4
	li	a1,-1
	mv	a0,a5
	call	MmioWrite32@plt
	.loc 1 92 30
	ld	a5,-56(s0)
	ld	a5,40(a5)
	.loc 1 92 11
	addi	a5,a5,4
	mv	a0,a5
	call	MmioRead32@plt
	mv	a5,a0
	sw	a5,-36(s0)
	.loc 1 93 13
	lw	a5,-36(s0)
	mv	a4,a5
	li	a5,65536
	and	a5,a4,a5
	sext.w	a5,a5
	.loc 1 93 6
	beq	a5,zero,.L2
	.loc 1 95 14
	lw	a5,-20(s0)
	mv	a4,a5
	li	a5,-4096
	addi	a5,a5,-16
	and	a5,a4,a5
	sw	a5,-20(s0)
	.loc 1 96 5
	ld	a5,-56(s0)
	ld	a5,40(a5)
	lw	a4,-20(s0)
	mv	a1,a4
	mv	a0,a5
	call	MmioWrite32@plt
	.loc 1 99 14
	lw	a5,-20(s0)
	ori	a5,a5,2
	sw	a5,-20(s0)
	.loc 1 100 5
	ld	a5,-56(s0)
	ld	a5,40(a5)
	lw	a4,-20(s0)
	mv	a1,a4
	mv	a0,a5
	call	MmioWrite32@plt
	.loc 1 103 13
	li	a5,98304
	addi	a5,a5,1696
	sd	a5,-32(s0)
	.loc 1 104 11
	j	.L3
.L6:
	.loc 1 105 34
	ld	a5,-56(s0)
	ld	a5,40(a5)
	.loc 1 105 15
	addi	a5,a5,4
	mv	a0,a5
	call	MmioRead32@plt
	mv	a5,a0
	sw	a5,-36(s0)
	.loc 1 106 19
	lw	a5,-36(s0)
	mv	a4,a5
	li	a5,65536
	and	a5,a4,a5
	sext.w	a5,a5
	.loc 1 106 10
	beq	a5,zero,.L18
	.loc 1 110 7
	li	a0,10
	call	MicroSecondDelay@plt
	.loc 1 111 15
	ld	a5,-32(s0)
	addi	a5,a5,-10
	sd	a5,-32(s0)
.L3:
	.loc 1 104 20
	ld	a5,-32(s0)
	bne	a5,zero,.L6
	j	.L5
.L18:
	.loc 1 107 9
	nop
.L5:
	.loc 1 114 8
	ld	a5,-32(s0)
	bne	a5,zero,.L2
	.loc 1 115 14
	li	a5,-1
	slli	a5,a5,63
	addi	a5,a5,18
	j	.L7
.L2:
	.loc 1 120 12
	lw	a5,-20(s0)
	andi	a5,a5,-8
	sw	a5,-20(s0)
	.loc 1 123 10
	ld	a5,-64(s0)
	lbu	a5,0(a5)
	.loc 1 123 6
	mv	a4,a5
	li	a5,1
	bne	a4,a5,.L8
	.loc 1 124 14
	lw	a5,-20(s0)
	ori	a5,a5,1
	sw	a5,-20(s0)
.L8:
	.loc 1 128 10
	ld	a5,-64(s0)
	lbu	a5,0(a5)
	.loc 1 128 6
	mv	a4,a5
	li	a5,2
	bne	a4,a5,.L9
	.loc 1 129 14
	lw	a5,-20(s0)
	ori	a5,a5,2
	sw	a5,-20(s0)
.L9:
	.loc 1 133 10
	ld	a5,-64(s0)
	lbu	a5,3(a5)
	.loc 1 133 6
	mv	a4,a5
	li	a5,4
	bne	a4,a5,.L10
	.loc 1 134 14
	lw	a5,-20(s0)
	ori	a5,a5,4
	sw	a5,-20(s0)
.L10:
	.loc 1 138 23
	ld	a5,-56(s0)
	ld	a5,40(a5)
	.loc 1 138 3
	addi	a4,a5,12
	.loc 1 138 48
	ld	a5,-64(s0)
	lbu	a5,2(a5)
	.loc 1 138 3
	sext.w	a5,a5
	mv	a1,a5
	mv	a0,a4
	call	MmioWrite32@plt
	.loc 1 141 12
	lw	a5,-20(s0)
	ori	a5,a5,8
	sw	a5,-20(s0)
	.loc 1 142 3
	ld	a5,-56(s0)
	ld	a5,40(a5)
	lw	a4,-20(s0)
	mv	a1,a4
	mv	a0,a5
	call	MmioWrite32@plt
	.loc 1 145 11
	li	a5,98304
	addi	a5,a5,1696
	sd	a5,-32(s0)
	.loc 1 146 9
	j	.L11
.L17:
	.loc 1 147 32
	ld	a5,-56(s0)
	ld	a5,40(a5)
	.loc 1 147 13
	addi	a5,a5,4
	mv	a0,a5
	call	MmioRead32@plt
	mv	a5,a0
	sw	a5,-36(s0)
	.loc 1 150 15
	lw	a5,-36(s0)
	mv	a4,a5
	li	a5,4456448
	and	a5,a4,a5
	sext.w	a5,a5
	.loc 1 150 8
	beq	a5,zero,.L12
	.loc 1 152 27
	ld	a5,-56(s0)
	ld	a5,40(a5)
	.loc 1 152 7
	addi	a5,a5,4
	lw	a4,-36(s0)
	mv	a1,a4
	mv	a0,a5
	call	MmioWrite32@plt
	.loc 1 153 14
	li	a5,-1
	slli	a5,a5,63
	addi	a5,a5,7
	j	.L7
.L12:
	.loc 1 157 12
	ld	a5,-64(s0)
	lbu	a5,1(a5)
	.loc 1 157 8
	bne	a5,zero,.L13
	.loc 1 158 17
	lw	a5,-36(s0)
	mv	a4,a5
	li	a5,524288
	and	a5,a4,a5
	sext.w	a5,a5
	.loc 1 158 10
	beq	a5,zero,.L14
	.loc 1 160 29
	ld	a5,-56(s0)
	ld	a5,40(a5)
	.loc 1 160 9
	addi	a5,a5,4
	li	a1,524288
	mv	a0,a5
	call	MmioWrite32@plt
	.loc 1 163 17
	ld	a5,-64(s0)
	lbu	a5,3(a5)
	.loc 1 163 12
	mv	a4,a5
	li	a5,1
	bne	a4,a5,.L15
	.loc 1 163 43 discriminator 1
	lw	a5,-36(s0)
	mv	a4,a5
	li	a5,16384
	and	a5,a4,a5
	sext.w	a5,a5
	.loc 1 163 33 discriminator 1
	beq	a5,zero,.L15
	.loc 1 164 18
	li	a5,-1
	slli	a5,a5,63
	addi	a5,a5,16
	j	.L7
.L15:
	.loc 1 167 16
	li	a5,0
	j	.L7
.L13:
	.loc 1 171 18
	lw	a5,-36(s0)
	mv	a4,a5
	li	a5,1048576
	and	a5,a4,a5
	sext.w	a5,a5
	.loc 1 171 10
	bne	a5,zero,.L16
	.loc 1 171 42 discriminator 1
	lw	a5,-36(s0)
	mv	a4,a5
	li	a5,524288
	and	a5,a4,a5
	sext.w	a5,a5
	.loc 1 171 32 discriminator 1
	beq	a5,zero,.L14
.L16:
	.loc 1 173 40
	ld	a5,-56(s0)
	ld	a5,40(a5)
	.loc 1 173 21
	addi	a5,a5,12
	mv	a0,a5
	call	MmioRead32@plt
	mv	a5,a0
	.loc 1 173 19 discriminator 1
	andi	a4,a5,0xff
	ld	a5,-64(s0)
	sb	a4,2(a5)
	.loc 1 175 29
	ld	a5,-56(s0)
	ld	a5,40(a5)
	.loc 1 175 9
	addi	a4,a5,4
	lw	a5,-36(s0)
	mv	a3,a5
	li	a5,1572864
	and	a5,a3,a5
	sext.w	a5,a5
	mv	a1,a5
	mv	a0,a4
	call	MmioWrite32@plt
	.loc 1 176 16
	li	a5,0
	j	.L7
.L14:
	.loc 1 180 5
	li	a0,10
	call	MicroSecondDelay@plt
	.loc 1 181 13
	ld	a5,-32(s0)
	addi	a5,a5,-10
	sd	a5,-32(s0)
.L11:
	.loc 1 146 18
	ld	a5,-32(s0)
	bne	a5,zero,.L17
	.loc 1 184 10
	li	a5,-1
	slli	a5,a5,63
	addi	a5,a5,18
.L7:
	.loc 1 185 1
	mv	a0,a5
	ld	ra,56(sp)
	.cfi_restore 1
	ld	s0,48(sp)
	.cfi_restore 8
	.cfi_def_cfa 2, 64
	addi	sp,sp,64
	.cfi_def_cfa_offset 0
	jr	ra
	.cfi_endproc
.LFE0:
	.size	I2cTransfer, .-I2cTransfer
	.section	.text.I2cMasterSetBusFrequency,"ax",@progbits
	.align	1
	.globl	I2cMasterSetBusFrequency
	.type	I2cMasterSetBusFrequency, @function
I2cMasterSetBusFrequency:
.LFB1:
	.loc 1 202 1
	.cfi_startproc
	addi	sp,sp,-48
	.cfi_def_cfa_offset 48
	sd	ra,40(sp)
	sd	s0,32(sp)
	.cfi_offset 1, -8
	.cfi_offset 8, -16
	addi	s0,sp,48
	.cfi_def_cfa 8, 0
	sd	a0,-40(s0)
	sd	a1,-48(s0)
	.loc 1 205 15
	ld	a5,-40(s0)
	addi	a5,a5,-64
	.loc 1 205 128
	lw	a4,0(a5)
	.loc 1 205 213
	li	a5,1296248832
	addi	a5,a5,585
	bne	a4,a5,.L20
	.loc 1 205 11 discriminator 1
	ld	a5,-40(s0)
	addi	a5,a5,-64
	sd	a5,-24(s0)
	j	.L21
.L20:
	.loc 1 205 11 is_stmt 0 discriminator 2
	sd	zero,-24(s0)
.L21:
	.loc 1 206 10 is_stmt 1
	ld	a5,-48(s0)
	ld	a5,0(a5)
	mv	a1,a5
	ld	a0,-24(s0)
	call	I2cSetSpeed
	mv	a5,a0
	.loc 1 207 1
	mv	a0,a5
	ld	ra,40(sp)
	.cfi_restore 1
	ld	s0,32(sp)
	.cfi_restore 8
	.cfi_def_cfa 2, 48
	addi	sp,sp,48
	.cfi_def_cfa_offset 0
	jr	ra
	.cfi_endproc
.LFE1:
	.size	I2cMasterSetBusFrequency, .-I2cMasterSetBusFrequency
	.section	.text.I2cGetBusFrequency,"ax",@progbits
	.align	1
	.globl	I2cGetBusFrequency
	.type	I2cGetBusFrequency, @function
I2cGetBusFrequency:
.LFB2:
	.loc 1 226 1
	.cfi_startproc
	addi	sp,sp,-64
	.cfi_def_cfa_offset 64
	sd	ra,56(sp)
	sd	s0,48(sp)
	.cfi_offset 1, -8
	.cfi_offset 8, -16
	addi	s0,sp,64
	.cfi_def_cfa 8, 0
	sd	a0,-40(s0)
	sd	a1,-48(s0)
	sd	a2,-56(s0)
	.loc 1 229 6
	ld	a5,-56(s0)
	bne	a5,zero,.L24
	.loc 1 230 12
	li	a5,-1
	slli	a5,a5,63
	addi	a5,a5,2
	j	.L25
.L24:
	.loc 1 233 18
	ld	a5,-40(s0)
	addi	a5,a5,-96
	.loc 1 233 134
	lw	a4,0(a5)
	.loc 1 233 219
	li	a5,1296248832
	addi	a5,a5,585
	bne	a4,a5,.L26
	.loc 1 233 14 discriminator 1
	ld	a5,-40(s0)
	addi	a5,a5,-96
	sd	a5,-24(s0)
	j	.L27
.L26:
	.loc 1 233 14 is_stmt 0 discriminator 2
	sd	zero,-24(s0)
.L27:
	.loc 1 235 30 is_stmt 1
	ld	a5,-24(s0)
	lw	a5,48(a5)
	slli	a4,a5,32
	srli	a4,a4,32
	.loc 1 235 18
	ld	a5,-56(s0)
	sd	a4,0(a5)
	.loc 1 237 10
	li	a5,0
.L25:
	.loc 1 238 1
	mv	a0,a5
	ld	ra,56(sp)
	.cfi_restore 1
	ld	s0,48(sp)
	.cfi_restore 8
	.cfi_def_cfa 2, 64
	addi	sp,sp,64
	.cfi_def_cfa_offset 0
	jr	ra
	.cfi_endproc
.LFE2:
	.size	I2cGetBusFrequency, .-I2cGetBusFrequency
	.section	.text.I2cMasterReset,"ax",@progbits
	.align	1
	.globl	I2cMasterReset
	.type	I2cMasterReset, @function
I2cMasterReset:
.LFB3:
	.loc 1 253 1
	.cfi_startproc
	addi	sp,sp,-48
	.cfi_def_cfa_offset 48
	sd	ra,40(sp)
	sd	s0,32(sp)
	.cfi_offset 1, -8
	.cfi_offset 8, -16
	addi	s0,sp,48
	.cfi_def_cfa 8, 0
	sd	a0,-40(s0)
	.loc 1 258 15
	ld	a5,-40(s0)
	addi	a5,a5,-64
	.loc 1 258 128
	lw	a4,0(a5)
	.loc 1 258 213
	li	a5,1296248832
	addi	a5,a5,585
	bne	a4,a5,.L29
	.loc 1 258 11 discriminator 1
	ld	a5,-40(s0)
	addi	a5,a5,-64
	sd	a5,-24(s0)
	j	.L30
.L29:
	.loc 1 258 11 is_stmt 0 discriminator 2
	sd	zero,-24(s0)
.L30:
	.loc 1 261 11 is_stmt 1
	ld	a5,-24(s0)
	ld	a5,40(a5)
	mv	a0,a5
	call	MmioRead32@plt
	mv	a5,a0
	sw	a5,-28(s0)
	.loc 1 262 11
	lw	a5,-28(s0)
	andi	a5,a5,768
	sw	a5,-32(s0)
	.loc 1 265 3
	ld	a5,-24(s0)
	ld	a4,40(a5)
	li	a5,-16384
	addi	a1,a5,-1
	mv	a0,a4
	call	MmioAnd32@plt
	.loc 1 268 3
	ld	a5,-24(s0)
	ld	a5,40(a5)
	li	a1,1024
	mv	a0,a5
	call	MmioOr32@plt
	.loc 1 269 3
	li	a0,100
	call	MicroSecondDelay@plt
	.loc 1 272 23
	ld	a5,-24(s0)
	ld	a5,40(a5)
	.loc 1 272 3
	addi	a5,a5,8
	li	a1,0
	mv	a0,a5
	call	MmioWrite32@plt
	.loc 1 273 3
	ld	a5,-24(s0)
	ld	a4,40(a5)
	lw	a5,-32(s0)
	mv	a3,a5
	li	a5,7872512
	or	a5,a3,a5
	sext.w	a5,a5
	mv	a1,a5
	mv	a0,a4
	call	MmioWrite32@plt
	.loc 1 274 23
	ld	a5,-24(s0)
	ld	a5,40(a5)
	.loc 1 274 3
	addi	a5,a5,4
	li	a1,33415168
	mv	a0,a5
	call	MmioWrite32@plt
	.loc 1 277 3
	ld	a5,-24(s0)
	ld	a5,40(a5)
	li	a1,16384
	mv	a0,a5
	call	MmioOr32@plt
	.loc 1 278 3
	li	a0,100
	call	MicroSecondDelay@plt
	.loc 1 280 10
	li	a5,0
	.loc 1 281 1
	mv	a0,a5
	ld	ra,40(sp)
	.cfi_restore 1
	ld	s0,32(sp)
	.cfi_restore 8
	.cfi_def_cfa 2, 48
	addi	sp,sp,48
	.cfi_def_cfa_offset 0
	jr	ra
	.cfi_endproc
.LFE3:
	.size	I2cMasterReset, .-I2cMasterReset
	.section	.text.I2cMasterStartRequest,"ax",@progbits
	.align	1
	.globl	I2cMasterStartRequest
	.type	I2cMasterStartRequest, @function
I2cMasterStartRequest:
.LFB4:
	.loc 1 304 1
	.cfi_startproc
	addi	sp,sp,-128
	.cfi_def_cfa_offset 128
	sd	ra,120(sp)
	sd	s0,112(sp)
	.cfi_offset 1, -8
	.cfi_offset 8, -16
	addi	s0,sp,128
	.cfi_def_cfa 8, 0
	sd	a0,-88(s0)
	sd	a1,-96(s0)
	sd	a2,-104(s0)
	sd	a3,-112(s0)
	sd	a4,-120(s0)
	.loc 1 312 6
	ld	a5,-104(s0)
	bne	a5,zero,.L33
	.loc 1 313 12
	li	a5,-1
	slli	a5,a5,63
	addi	a5,a5,2
	j	.L61
.L33:
	.loc 1 316 15
	ld	a5,-88(s0)
	addi	a5,a5,-64
	.loc 1 316 128
	lw	a4,0(a5)
	.loc 1 316 213
	li	a5,1296248832
	addi	a5,a5,585
	bne	a4,a5,.L35
	.loc 1 316 11 discriminator 1
	ld	a5,-88(s0)
	addi	a5,a5,-64
	sd	a5,-24(s0)
	j	.L36
.L35:
	.loc 1 316 11 is_stmt 0 discriminator 2
	sd	zero,-24(s0)
.L36:
	.loc 1 317 10 is_stmt 1
	sd	zero,-32(s0)
	.loc 1 319 14
	sd	zero,-40(s0)
	.loc 1 319 3
	j	.L37
.L58:
	.loc 1 320 15
	ld	a5,-40(s0)
	slli	a5,a5,4
	ld	a4,-104(s0)
	add	a5,a4,a5
	addi	a5,a5,8
	sd	a5,-64(s0)
	.loc 1 321 25
	ld	a5,-64(s0)
	lw	a5,0(a5)
	.loc 1 321 33
	slli	a5,a5,32
	srli	a5,a5,32
	.loc 1 321 14
	andi	a5,a5,1
	sd	a5,-72(s0)
	.loc 1 324 8
	ld	a5,-40(s0)
	bne	a5,zero,.L38
	.loc 1 326 21
	li	a5,1
	sb	a5,-80(s0)
	.loc 1 327 21
	sb	zero,-79(s0)
	.loc 1 328 40
	ld	a5,-96(s0)
	andi	a5,a5,0xff
	slliw	a5,a5,1
	andi	a4,a5,0xff
	.loc 1 328 18
	ld	a5,-72(s0)
	beq	a5,zero,.L39
	.loc 1 328 18 is_stmt 0 discriminator 1
	li	a5,1
	j	.L40
.L39:
	.loc 1 328 18 discriminator 2
	li	a5,0
.L40:
	.loc 1 328 18 discriminator 4
	or	a5,a5,a4
	andi	a5,a5,0xff
	.loc 1 328 16 is_stmt 1 discriminator 4
	sb	a5,-78(s0)
	.loc 1 329 19
	li	a5,1
	sb	a5,-77(s0)
	.loc 1 331 16
	addi	a5,s0,-80
	mv	a1,a5
	ld	a0,-24(s0)
	call	I2cTransfer
	sd	a0,-32(s0)
	.loc 1 332 38
	ld	a5,-32(s0)
	.loc 1 332 10
	bge	a5,zero,.L41
	.loc 1 333 9
	j	.L42
.L38:
	.loc 1 335 27
	ld	a5,-64(s0)
	lw	a5,0(a5)
	.loc 1 335 35
	andi	a5,a5,2
	sext.w	a5,a5
	.loc 1 335 15
	bne	a5,zero,.L41
	.loc 1 337 10
	ld	a5,-72(s0)
	beq	a5,zero,.L41
	.loc 1 339 23
	li	a5,1
	sb	a5,-80(s0)
	.loc 1 340 23
	li	a5,1
	sb	a5,-79(s0)
	.loc 1 341 42
	ld	a5,-96(s0)
	andi	a5,a5,0xff
	slliw	a5,a5,1
	andi	a5,a5,0xff
	.loc 1 341 20
	ori	a5,a5,1
	andi	a5,a5,0xff
	.loc 1 341 18
	sb	a5,-78(s0)
	.loc 1 342 21
	li	a5,1
	sb	a5,-77(s0)
	.loc 1 344 18
	addi	a5,s0,-80
	mv	a1,a5
	ld	a0,-24(s0)
	call	I2cTransfer
	sd	a0,-32(s0)
	.loc 1 345 40
	ld	a5,-32(s0)
	.loc 1 345 12
	blt	a5,zero,.L62
.L41:
	.loc 1 353 8
	ld	a5,-72(s0)
	beq	a5,zero,.L43
.LBB2:
	.loc 1 355 18
	sd	zero,-48(s0)
	.loc 1 355 7
	j	.L44
.L49:
	.loc 1 356 23
	sb	zero,-80(s0)
	.loc 1 357 23
	li	a5,1
	sb	a5,-79(s0)
	.loc 1 360 27
	ld	a5,-64(s0)
	lw	a5,4(a5)
	.loc 1 360 43
	addiw	a5,a5,-1
	sext.w	a5,a5
	slli	a5,a5,32
	srli	a5,a5,32
	.loc 1 360 12
	ld	a4,-48(s0)
	bne	a4,a5,.L45
	.loc 1 361 23
	li	a5,4
	sb	a5,-77(s0)
	.loc 1 363 37
	ld	a5,-104(s0)
	ld	a5,0(a5)
	.loc 1 363 54
	addi	a5,a5,-1
	.loc 1 363 14
	ld	a4,-40(s0)
	bne	a4,a5,.L46
	.loc 1 364 27
	li	a5,2
	sb	a5,-80(s0)
	j	.L46
.L45:
	.loc 1 367 23
	li	a5,1
	sb	a5,-77(s0)
.L46:
	.loc 1 370 18
	addi	a5,s0,-80
	mv	a1,a5
	ld	a0,-24(s0)
	call	I2cTransfer
	sd	a0,-32(s0)
	.loc 1 371 40
	ld	a5,-32(s0)
	.loc 1 371 12
	bge	a5,zero,.L47
	.loc 1 372 14
	ld	a4,-32(s0)
	li	a5,-1
	slli	a5,a5,63
	addi	a5,a5,16
	bne	a4,a5,.L63
	.loc 1 373 30
	ld	a5,-64(s0)
	lw	a5,4(a5)
	.loc 1 373 46
	addiw	a5,a5,-1
	sext.w	a5,a5
	slli	a5,a5,32
	srli	a5,a5,32
	.loc 1 372 75 discriminator 1
	ld	a4,-48(s0)
	bne	a4,a5,.L63
	.loc 1 374 38
	ld	a5,-104(s0)
	ld	a5,0(a5)
	.loc 1 374 55
	addi	a5,a5,-1
	.loc 1 373 51
	ld	a4,-40(s0)
	bne	a4,a5,.L63
	.loc 1 376 20
	sd	zero,-32(s0)
.L47:
	.loc 1 382 18
	ld	a5,-64(s0)
	ld	a4,8(a5)
	.loc 1 382 26
	ld	a5,-48(s0)
	add	a5,a4,a5
	.loc 1 382 35
	lbu	a4,-78(s0)
	.loc 1 382 30
	sb	a4,0(a5)
	.loc 1 355 56 discriminator 2
	ld	a5,-48(s0)
	addi	a5,a5,1
	sd	a5,-48(s0)
.L44:
	.loc 1 355 38 discriminator 1
	ld	a5,-64(s0)
	lw	a5,4(a5)
	slli	a5,a5,32
	srli	a5,a5,32
	.loc 1 355 27 discriminator 1
	ld	a4,-48(s0)
	bltu	a4,a5,.L49
	j	.L50
.L43:
.LBE2:
.LBB3:
	.loc 1 386 18
	sd	zero,-56(s0)
	.loc 1 386 7
	j	.L51
.L57:
	.loc 1 387 23
	sb	zero,-79(s0)
	.loc 1 388 29
	ld	a5,-64(s0)
	ld	a4,8(a5)
	.loc 1 388 37
	ld	a5,-56(s0)
	add	a5,a4,a5
	lbu	a5,0(a5)
	.loc 1 388 18
	sb	a5,-78(s0)
	.loc 1 391 12
	ld	a5,-40(s0)
	bne	a5,zero,.L52
	.loc 1 391 26 discriminator 1
	ld	a5,-56(s0)
	bne	a5,zero,.L52
	.loc 1 392 25
	li	a5,1
	sb	a5,-80(s0)
	.loc 1 393 36
	ld	a5,-96(s0)
	andi	a5,a5,0xff
	slliw	a5,a5,1
	andi	a5,a5,0xff
	.loc 1 393 20
	sb	a5,-78(s0)
	.loc 1 394 23
	li	a5,1
	sb	a5,-77(s0)
	.loc 1 395 20
	addi	a5,s0,-80
	mv	a1,a5
	ld	a0,-24(s0)
	call	I2cTransfer
	sd	a0,-32(s0)
	.loc 1 396 42
	ld	a5,-32(s0)
	.loc 1 396 14
	blt	a5,zero,.L64
	.loc 1 401 25
	sb	zero,-80(s0)
	.loc 1 402 31
	ld	a5,-64(s0)
	ld	a4,8(a5)
	.loc 1 402 39
	ld	a5,-56(s0)
	add	a5,a4,a5
	lbu	a5,0(a5)
	.loc 1 402 20
	sb	a5,-78(s0)
	j	.L54
.L52:
	.loc 1 405 33
	ld	a5,-64(s0)
	lw	a5,4(a5)
	.loc 1 405 49
	addiw	a5,a5,-1
	sext.w	a5,a5
	slli	a5,a5,32
	srli	a5,a5,32
	.loc 1 405 17
	ld	a4,-56(s0)
	bne	a4,a5,.L55
	.loc 1 405 80 discriminator 1
	ld	a5,-104(s0)
	ld	a5,0(a5)
	.loc 1 405 97 discriminator 1
	addi	a5,a5,-1
	.loc 1 405 54 discriminator 1
	ld	a4,-40(s0)
	bne	a4,a5,.L55
	.loc 1 406 25
	li	a5,2
	sb	a5,-80(s0)
	j	.L54
.L55:
	.loc 1 408 25
	sb	zero,-80(s0)
.L54:
	.loc 1 411 21
	li	a5,1
	sb	a5,-77(s0)
	.loc 1 413 18
	addi	a5,s0,-80
	mv	a1,a5
	ld	a0,-24(s0)
	call	I2cTransfer
	sd	a0,-32(s0)
	.loc 1 414 40
	ld	a5,-32(s0)
	.loc 1 414 12
	blt	a5,zero,.L65
	.loc 1 386 56 discriminator 2
	ld	a5,-56(s0)
	addi	a5,a5,1
	sd	a5,-56(s0)
.L51:
	.loc 1 386 38 discriminator 1
	ld	a5,-64(s0)
	lw	a5,4(a5)
	slli	a5,a5,32
	srli	a5,a5,32
	.loc 1 386 27 discriminator 1
	ld	a4,-56(s0)
	bltu	a4,a5,.L57
.L50:
.LBE3:
	.loc 1 319 63 discriminator 2
	ld	a5,-40(s0)
	addi	a5,a5,1
	sd	a5,-40(s0)
.L37:
	.loc 1 319 40 discriminator 1
	ld	a5,-104(s0)
	ld	a5,0(a5)
	.loc 1 319 25 discriminator 1
	ld	a4,-40(s0)
	bltu	a4,a5,.L58
	.loc 1 422 1
	j	.L42
.L62:
	.loc 1 346 11
	nop
	j	.L42
.L63:
.LBB4:
	.loc 1 378 13
	nop
	j	.L42
.L64:
.LBE4:
.LBB5:
	.loc 1 397 13
	nop
	j	.L42
.L65:
	.loc 1 416 11
	nop
.L42:
.LBE5:
	.loc 1 423 6
	ld	a5,-120(s0)
	beq	a5,zero,.L59
	.loc 1 424 16
	ld	a5,-120(s0)
	ld	a4,-32(s0)
	sd	a4,0(a5)
.L59:
	.loc 1 427 6
	ld	a5,-112(s0)
	beq	a5,zero,.L60
	.loc 1 428 8
	la	a5,gBS
	ld	a5,0(a5)
	ld	a5,104(a5)
	.loc 1 428 5
	ld	a0,-112(s0)
	jalr	a5
.LVL0:
.L60:
	.loc 1 431 10
	ld	a5,-32(s0)
.L61:
	.loc 1 432 1
	mv	a0,a5
	ld	ra,120(sp)
	.cfi_restore 1
	ld	s0,112(sp)
	.cfi_restore 8
	.cfi_def_cfa 2, 128
	addi	sp,sp,128
	.cfi_def_cfa_offset 0
	jr	ra
	.cfi_endproc
.LFE4:
	.size	I2cMasterStartRequest, .-I2cMasterStartRequest
	.section	.text.I2cMmioRemap,"ax",@progbits
	.align	1
	.type	I2cMmioRemap, @function
I2cMmioRemap:
.LFB5:
	.loc 1 444 1
	.cfi_startproc
	addi	sp,sp,-32
	.cfi_def_cfa_offset 32
	sd	ra,24(sp)
	sd	s0,16(sp)
	.cfi_offset 1, -8
	.cfi_offset 8, -16
	addi	s0,sp,32
	.cfi_def_cfa 8, 0
	sd	a0,-24(s0)
	.loc 1 446 32
	ld	a5,-24(s0)
	ld	a4,40(a5)
	.loc 1 446 3
	li	a5,4096
	addi	a1,a5,-2048
	mv	a0,a4
	call	MapRegToGcdMmioSpace@plt
	.loc 1 447 1
	nop
	ld	ra,24(sp)
	.cfi_restore 1
	ld	s0,16(sp)
	.cfi_restore 8
	.cfi_def_cfa 2, 32
	addi	sp,sp,32
	.cfi_def_cfa_offset 0
	jr	ra
	.cfi_endproc
.LFE5:
	.size	I2cMmioRemap, .-I2cMmioRemap
	.section	.text.SpacemitI2cInitController,"ax",@progbits
	.align	1
	.type	SpacemitI2cInitController, @function
SpacemitI2cInitController:
.LFB6:
	.loc 1 466 1
	.cfi_startproc
	addi	sp,sp,-80
	.cfi_def_cfa_offset 80
	sd	ra,72(sp)
	sd	s0,64(sp)
	.cfi_offset 1, -8
	.cfi_offset 8, -16
	addi	s0,sp,80
	.cfi_def_cfa 8, 0
	sd	a0,-56(s0)
	mv	a5,a1
	sd	a2,-72(s0)
	sw	a5,-60(s0)
	.loc 1 473 16
	li	a0,128
	call	AllocateZeroPool@plt
	sd	a0,-32(s0)
	.loc 1 474 6
	ld	a5,-32(s0)
	bne	a5,zero,.L68
	.loc 1 476 12
	li	a5,-1
	slli	a5,a5,63
	addi	a5,a5,9
	j	.L73
.L68:
	.loc 1 480 25
	ld	a5,-32(s0)
	li	a4,1296248832
	addi	a4,a4,585
	sw	a4,0(a5)
	.loc 1 481 27
	ld	a5,-32(s0)
	ld	a4,-56(s0)
	sd	a4,40(a5)
	.loc 1 482 25
	ld	a5,-32(s0)
	lw	a4,-60(s0)
	sw	a4,48(a5)
	.loc 1 483 32
	ld	a5,-32(s0)
	ld	a4,-72(s0)
	sd	a4,8(a5)
	.loc 1 484 36
	ld	a5,-32(s0)
	sd	zero,120(a5)
	.loc 1 487 3
	ld	a0,-32(s0)
	call	I2cMmioRemap
	.loc 1 490 28
	ld	a5,-32(s0)
	addi	a5,a5,64
	.loc 1 490 12
	mv	a0,a5
	call	I2cMasterReset
	sd	a0,-24(s0)
	.loc 1 491 34
	ld	a5,-24(s0)
	.loc 1 491 6
	blt	a5,zero,.L75
	.loc 1 497 37
	ld	a5,-32(s0)
	lw	a5,48(a5)
	.loc 1 497 20
	slli	a5,a5,32
	srli	a5,a5,32
	.loc 1 497 9
	sd	a5,-40(s0)
	.loc 1 498 38
	ld	a5,-32(s0)
	addi	a5,a5,64
	.loc 1 498 12
	addi	a4,s0,-40
	mv	a1,a4
	mv	a0,a5
	call	I2cMasterSetBusFrequency
	sd	a0,-24(s0)
	.loc 1 499 34
	ld	a5,-24(s0)
	.loc 1 499 6
	blt	a5,zero,.L76
	.loc 1 504 10
	li	a5,0
	j	.L73
.L71:
.L75:
	.loc 1 493 5
	nop
	j	.L74
.L76:
	.loc 1 501 5
	nop
.L74:
	.loc 1 508 6
	la	a5,gBS
	ld	a5,0(a5)
	ld	a5,336(a5)
	.loc 1 508 3
	ld	a4,-32(s0)
	addi	a4,a4,64
	li	a3,0
	mv	a2,a4
	la	a1,gEfiI2cMasterProtocolGuid
	ld	a0,-72(s0)
	jalr	a5
.LVL1:
	.loc 1 514 3
	ld	a0,-32(s0)
	call	FreePool@plt
	.loc 1 515 10
	ld	a5,-24(s0)
.L73:
	.loc 1 516 1
	mv	a0,a5
	ld	ra,72(sp)
	.cfi_restore 1
	ld	s0,64(sp)
	.cfi_restore 8
	.cfi_def_cfa 2, 80
	addi	sp,sp,80
	.cfi_def_cfa_offset 0
	jr	ra
	.cfi_endproc
.LFE6:
	.size	SpacemitI2cInitController, .-SpacemitI2cInitController
	.section	.text.AllocateI2cDevice,"ax",@progbits
	.align	1
	.globl	AllocateI2cDevice
	.type	AllocateI2cDevice, @function
AllocateI2cDevice:
.LFB7:
	.loc 1 533 1
	.cfi_startproc
	addi	sp,sp,-48
	.cfi_def_cfa_offset 48
	sd	ra,40(sp)
	sd	s0,32(sp)
	.cfi_offset 1, -8
	.cfi_offset 8, -16
	addi	s0,sp,48
	.cfi_def_cfa 8, 0
	mv	a5,a0
	sd	a1,-48(s0)
	sb	a5,-33(s0)
	.loc 1 538 6
	ld	a5,-48(s0)
	bne	a5,zero,.L78
	.loc 1 539 12
	li	a5,-1
	slli	a5,a5,63
	addi	a5,a5,2
	j	.L79
.L78:
	.loc 1 543 15
	li	a0,32
	call	AllocateZeroPool@plt
	sd	a0,-24(s0)
	.loc 1 544 6
	ld	a5,-24(s0)
	bne	a5,zero,.L80
	.loc 1 546 12
	li	a5,-1
	slli	a5,a5,63
	addi	a5,a5,9
	j	.L79
.L80:
	.loc 1 550 23
	li	a0,4
	call	AllocatePool@plt
	sd	a0,-32(s0)
	.loc 1 551 6
	ld	a5,-32(s0)
	bne	a5,zero,.L81
	.loc 1 553 5
	ld	a0,-24(s0)
	call	FreePool@plt
	.loc 1 554 12
	li	a5,-1
	slli	a5,a5,63
	addi	a5,a5,9
	j	.L79
.L81:
	.loc 1 558 24
	lbu	a5,-33(s0)
	sext.w	a4,a5
	ld	a5,-32(s0)
	sw	a4,0(a5)
	.loc 1 559 25
	ld	a5,-24(s0)
	lla	a4,gEfiI2cDeviceGuid
	sd	a4,0(a5)
	.loc 1 560 26
	lbu	a5,-33(s0)
	sext.w	a4,a5
	ld	a5,-24(s0)
	sw	a4,8(a5)
	.loc 1 561 31
	ld	a5,-24(s0)
	sw	zero,12(a5)
	.loc 1 562 34
	ld	a5,-24(s0)
	sw	zero,16(a5)
	.loc 1 563 32
	ld	a5,-24(s0)
	li	a4,1
	sw	a4,20(a5)
	.loc 1 564 32
	ld	a5,-24(s0)
	ld	a4,-32(s0)
	sd	a4,24(a5)
	.loc 1 567 11
	ld	a5,-48(s0)
	ld	a4,-24(s0)
	sd	a4,0(a5)
	.loc 1 568 10
	li	a5,0
.L79:
	.loc 1 569 1
	mv	a0,a5
	ld	ra,40(sp)
	.cfi_restore 1
	ld	s0,32(sp)
	.cfi_restore 8
	.cfi_def_cfa 2, 48
	addi	sp,sp,48
	.cfi_def_cfa_offset 0
	jr	ra
	.cfi_endproc
.LFE7:
	.size	AllocateI2cDevice, .-AllocateI2cDevice
	.section	.text.I2cEnumerate,"ax",@progbits
	.align	1
	.globl	I2cEnumerate
	.type	I2cEnumerate, @function
I2cEnumerate:
.LFB8:
	.loc 1 586 1
	.cfi_startproc
	addi	sp,sp,-80
	.cfi_def_cfa_offset 80
	sd	ra,72(sp)
	sd	s0,64(sp)
	.cfi_offset 1, -8
	.cfi_offset 8, -16
	addi	s0,sp,80
	.cfi_def_cfa 8, 0
	sd	a0,-72(s0)
	sd	a1,-80(s0)
	.loc 1 592 9
	li	a5,1
	sd	a5,-48(s0)
	.loc 1 595 6
	ld	a5,-72(s0)
	beq	a5,zero,.L83
	.loc 1 595 30 discriminator 1
	ld	a5,-80(s0)
	bne	a5,zero,.L84
.L83:
	.loc 1 596 12
	li	a5,-1
	slli	a5,a5,63
	addi	a5,a5,2
	j	.L85
.L84:
	.loc 1 599 18
	ld	a5,-72(s0)
	addi	a5,a5,-96
	.loc 1 599 134
	lw	a4,0(a5)
	.loc 1 599 219
	li	a5,1296248832
	addi	a5,a5,585
	bne	a4,a5,.L86
	.loc 1 599 14 discriminator 1
	ld	a5,-72(s0)
	addi	a5,a5,-96
	sd	a5,-24(s0)
	j	.L87
.L86:
	.loc 1 599 14 is_stmt 0 discriminator 2
	sd	zero,-24(s0)
.L87:
	.loc 1 600 17 is_stmt 1
	ld	a5,-24(s0)
	lw	a4,0(a5)
	.loc 1 600 6
	li	a5,1296248832
	addi	a5,a5,585
	beq	a4,a5,.L88
	.loc 1 602 12
	li	a5,-1
	slli	a5,a5,63
	addi	a5,a5,2
	j	.L85
.L88:
	.loc 1 607 16
	la	a5,_gPcd_FixedAtBuild_PcdI2cSlaveConfig
	sd	a5,-56(s0)
	.loc 1 608 26
	ld	a5,-56(s0)
	lhu	a5,0(a5)
	.loc 1 608 12
	sd	a5,-48(s0)
	.loc 1 610 7
	ld	a5,-80(s0)
	ld	a5,0(a5)
	.loc 1 610 6
	bne	a5,zero,.L89
	.loc 1 612 16
	sd	zero,-32(s0)
	.loc 1 612 5
	j	.L90
.L93:
	.loc 1 613 15
	ld	a4,-56(s0)
	ld	a5,-32(s0)
	slli	a5,a5,1
	add	a5,a4,a5
	lbu	a5,2(a5)
	sb	a5,-57(s0)
	.loc 1 614 25
	ld	a4,-56(s0)
	ld	a5,-32(s0)
	slli	a5,a5,1
	add	a5,a4,a5
	lbu	a5,3(a5)
	sb	a5,-58(s0)
	.loc 1 617 32
	ld	a5,-24(s0)
	lbu	a4,52(a5)
	.loc 1 617 10
	lbu	a5,-57(s0)
	andi	a5,a5,0xff
	bne	a5,a4,.L106
	.loc 1 622 14
	lbu	a5,-58(s0)
	ld	a1,-80(s0)
	mv	a0,a5
	call	AllocateI2cDevice
	mv	a5,a0
	j	.L85
.L106:
	.loc 1 618 9
	nop
	.loc 1 612 44 discriminator 2
	ld	a5,-32(s0)
	addi	a5,a5,1
	sd	a5,-32(s0)
.L90:
	.loc 1 612 27 discriminator 1
	ld	a4,-32(s0)
	ld	a5,-48(s0)
	bltu	a4,a5,.L93
	j	.L94
.L89:
	.loc 1 626 16
	sd	zero,-32(s0)
	.loc 1 626 5
	j	.L95
.L103:
	.loc 1 627 15
	ld	a4,-56(s0)
	ld	a5,-32(s0)
	slli	a5,a5,1
	add	a5,a4,a5
	lbu	a5,2(a5)
	sb	a5,-57(s0)
	.loc 1 628 25
	ld	a4,-56(s0)
	ld	a5,-32(s0)
	slli	a5,a5,1
	add	a5,a4,a5
	lbu	a5,3(a5)
	sb	a5,-58(s0)
	.loc 1 630 32
	ld	a5,-24(s0)
	lbu	a4,52(a5)
	.loc 1 630 10
	lbu	a5,-57(s0)
	andi	a5,a5,0xff
	bne	a5,a4,.L107
	.loc 1 635 29
	lbu	a5,-58(s0)
	sext.w	a4,a5
	.loc 1 635 33
	ld	a5,-80(s0)
	ld	a5,0(a5)
	.loc 1 635 41
	lw	a5,8(a5)
	.loc 1 635 10
	bne	a4,a5,.L97
	.loc 1 637 24
	ld	a5,-32(s0)
	addi	a5,a5,1
	sd	a5,-40(s0)
	.loc 1 637 9
	j	.L98
.L101:
	.loc 1 638 19
	ld	a4,-56(s0)
	ld	a5,-40(s0)
	slli	a5,a5,1
	add	a5,a4,a5
	lbu	a5,2(a5)
	sb	a5,-57(s0)
	.loc 1 639 36
	ld	a5,-24(s0)
	lbu	a4,52(a5)
	.loc 1 639 14
	lbu	a5,-57(s0)
	andi	a5,a5,0xff
	bne	a5,a4,.L108
	.loc 1 643 29
	ld	a4,-56(s0)
	ld	a5,-40(s0)
	slli	a5,a5,1
	add	a5,a4,a5
	lbu	a5,3(a5)
	sb	a5,-58(s0)
	.loc 1 644 18
	lbu	a5,-58(s0)
	ld	a1,-80(s0)
	mv	a0,a5
	call	AllocateI2cDevice
	mv	a5,a0
	j	.L85
.L108:
	.loc 1 640 13
	nop
	.loc 1 637 68 discriminator 2
	ld	a5,-40(s0)
	addi	a5,a5,1
	sd	a5,-40(s0)
.L98:
	.loc 1 637 47 discriminator 1
	ld	a4,-40(s0)
	ld	a5,-48(s0)
	bltu	a4,a5,.L101
	.loc 1 647 9
	j	.L102
.L107:
	.loc 1 631 9
	nop
.L97:
	.loc 1 626 44 discriminator 2
	ld	a5,-32(s0)
	addi	a5,a5,1
	sd	a5,-32(s0)
.L95:
	.loc 1 626 27 discriminator 1
	ld	a4,-32(s0)
	ld	a5,-48(s0)
	bltu	a4,a5,.L103
.L102:
	.loc 1 652 13
	ld	a5,-80(s0)
	sd	zero,0(a5)
.L94:
	.loc 1 655 10
	li	a5,0
.L85:
	.loc 1 656 1
	mv	a0,a5
	ld	ra,72(sp)
	.cfi_restore 1
	ld	s0,64(sp)
	.cfi_restore 8
	.cfi_def_cfa 2, 80
	addi	sp,sp,80
	.cfi_def_cfa_offset 0
	jr	ra
	.cfi_endproc
.LFE8:
	.size	I2cEnumerate, .-I2cEnumerate
	.section	.text.I2cBusConfiguration,"ax",@progbits
	.align	1
	.globl	I2cBusConfiguration
	.type	I2cBusConfiguration, @function
I2cBusConfiguration:
.LFB9:
	.loc 1 678 1
	.cfi_startproc
	addi	sp,sp,-64
	.cfi_def_cfa_offset 64
	sd	ra,56(sp)
	sd	s0,48(sp)
	.cfi_offset 1, -8
	.cfi_offset 8, -16
	addi	s0,sp,64
	.cfi_def_cfa 8, 0
	sd	a0,-40(s0)
	sd	a1,-48(s0)
	sd	a2,-56(s0)
	sd	a3,-64(s0)
	.loc 1 682 6
	ld	a5,-64(s0)
	bne	a5,zero,.L110
	.loc 1 683 12
	li	a5,-1
	slli	a5,a5,63
	addi	a5,a5,2
	j	.L111
.L110:
	.loc 1 686 15
	ld	a5,-40(s0)
	addi	a5,a5,-112
	.loc 1 686 131
	lw	a4,0(a5)
	.loc 1 686 216
	li	a5,1296248832
	addi	a5,a5,585
	bne	a4,a5,.L112
	.loc 1 686 11 discriminator 1
	ld	a5,-40(s0)
	addi	a5,a5,-112
	sd	a5,-24(s0)
	j	.L113
.L112:
	.loc 1 686 11 is_stmt 0 discriminator 2
	sd	zero,-24(s0)
.L113:
	.loc 1 689 14 is_stmt 1
	ld	a5,-24(s0)
	ld	a5,120(a5)
	.loc 1 689 6
	ld	a4,-48(s0)
	bne	a4,a5,.L114
	.loc 1 690 26
	ld	a5,-64(s0)
	sd	zero,0(a5)
	.loc 1 691 12
	sd	zero,-32(s0)
	.loc 1 692 5
	j	.L115
.L114:
	.loc 1 696 3
	ld	a4,-48(s0)
	li	a5,3
	beq	a4,a5,.L116
	ld	a4,-48(s0)
	li	a5,3
	bgtu	a4,a5,.L117
	ld	a4,-48(s0)
	li	a5,2
	beq	a4,a5,.L118
	ld	a4,-48(s0)
	li	a5,2
	bgtu	a4,a5,.L117
	ld	a5,-48(s0)
	beq	a5,zero,.L119
	ld	a4,-48(s0)
	li	a5,1
	beq	a4,a5,.L120
	j	.L117
.L119:
	.loc 1 698 16
	li	a5,98304
	addi	a1,a5,1696
	ld	a0,-24(s0)
	call	I2cSetSpeed
	sd	a0,-32(s0)
	.loc 1 699 7
	j	.L121
.L120:
	.loc 1 702 16
	li	a5,401408
	addi	a1,a5,-1408
	ld	a0,-24(s0)
	call	I2cSetSpeed
	sd	a0,-32(s0)
	.loc 1 703 7
	j	.L121
.L118:
	.loc 1 706 16
	li	a5,999424
	addi	a1,a5,576
	ld	a0,-24(s0)
	call	I2cSetSpeed
	sd	a0,-32(s0)
	.loc 1 707 7
	j	.L121
.L116:
	.loc 1 710 16
	li	a5,3399680
	addi	a1,a5,320
	ld	a0,-24(s0)
	call	I2cSetSpeed
	sd	a0,-32(s0)
	.loc 1 711 7
	j	.L121
.L117:
	.loc 1 714 14
	li	a5,-1
	slli	a5,a5,63
	addi	a5,a5,3
	sd	a5,-32(s0)
	.loc 1 715 7
	nop
.L121:
	.loc 1 718 24
	ld	a5,-64(s0)
	ld	a4,-32(s0)
	sd	a4,0(a5)
	.loc 1 720 7
	ld	a5,-32(s0)
	.loc 1 720 6
	blt	a5,zero,.L123
	.loc 1 721 35
	ld	a5,-24(s0)
	ld	a4,-48(s0)
	sd	a4,120(a5)
	j	.L115
.L123:
	.loc 1 724 1
	nop
.L115:
	.loc 1 725 6
	ld	a5,-56(s0)
	beq	a5,zero,.L122
	.loc 1 726 8
	la	a5,gBS
	ld	a5,0(a5)
	ld	a5,104(a5)
	.loc 1 726 5
	ld	a0,-56(s0)
	jalr	a5
.LVL2:
.L122:
	.loc 1 729 10
	ld	a5,-32(s0)
.L111:
	.loc 1 730 1
	mv	a0,a5
	ld	ra,56(sp)
	.cfi_restore 1
	ld	s0,48(sp)
	.cfi_restore 8
	.cfi_def_cfa 2, 64
	addi	sp,sp,64
	.cfi_def_cfa_offset 0
	jr	ra
	.cfi_endproc
.LFE9:
	.size	I2cBusConfiguration, .-I2cBusConfiguration
	.section	.text.TestI2cProtocols,"ax",@progbits
	.align	1
	.globl	TestI2cProtocols
	.type	TestI2cProtocols, @function
TestI2cProtocols:
.LFB10:
	.loc 1 742 1
	.cfi_startproc
	addi	sp,sp,-80
	.cfi_def_cfa_offset 80
	sd	ra,72(sp)
	sd	s0,64(sp)
	.cfi_offset 1, -8
	.cfi_offset 8, -16
	addi	s0,sp,80
	.cfi_def_cfa 8, 0
	.loc 1 748 25
	sd	zero,-72(s0)
	.loc 1 752 15
	la	a5,gBS
	ld	a5,0(a5)
	ld	a5,312(a5)
	.loc 1 752 12
	addi	a4,s0,-48
	addi	a3,s0,-40
	li	a2,0
	la	a1,gEfiI2cEnumerateProtocolGuid
	li	a0,2
	jalr	a5
.LVL3:
	sd	a0,-32(s0)
	.loc 1 759 34
	ld	a5,-32(s0)
	.loc 1 759 6
	blt	a5,zero,.L131
	.loc 1 764 14
	sd	zero,-24(s0)
	.loc 1 764 3
	j	.L127
.L130:
	.loc 1 766 17
	la	a5,gBS
	ld	a5,0(a5)
	ld	a6,280(a5)
	.loc 1 767 45
	ld	a4,-48(s0)
	ld	a5,-24(s0)
	slli	a5,a5,3
	add	a5,a4,a5
	.loc 1 766 14
	ld	a0,0(a5)
	la	a5,gImageHandle
	ld	a3,0(a5)
	.loc 1 771 45
	ld	a4,-48(s0)
	ld	a5,-24(s0)
	slli	a5,a5,3
	add	a5,a4,a5
	.loc 1 766 14
	ld	a4,0(a5)
	addi	a2,s0,-56
	li	a5,2
	la	a1,gEfiI2cEnumerateProtocolGuid
	jalr	a6
.LVL4:
	sd	a0,-32(s0)
	.loc 1 774 9
	ld	a5,-32(s0)
	.loc 1 774 8
	blt	a5,zero,.L128
	.loc 1 775 28
	ld	a5,-56(s0)
	ld	a5,0(a5)
	.loc 1 775 16
	ld	a4,-56(s0)
	addi	a3,s0,-72
	mv	a1,a3
	mv	a0,a4
	jalr	a5
.LVL5:
	sd	a0,-32(s0)
.L128:
	.loc 1 785 17
	la	a5,gBS
	ld	a5,0(a5)
	ld	a6,280(a5)
	.loc 1 786 45
	ld	a4,-48(s0)
	ld	a5,-24(s0)
	slli	a5,a5,3
	add	a5,a4,a5
	.loc 1 785 14
	ld	a0,0(a5)
	la	a5,gImageHandle
	ld	a3,0(a5)
	.loc 1 790 45
	ld	a4,-48(s0)
	ld	a5,-24(s0)
	slli	a5,a5,3
	add	a5,a4,a5
	.loc 1 785 14
	ld	a4,0(a5)
	addi	a2,s0,-64
	li	a5,2
	la	a1,gEfiI2cBusConfigurationManagementProtocolGuid
	jalr	a6
.LVL6:
	sd	a0,-32(s0)
	.loc 1 793 9
	ld	a5,-32(s0)
	.loc 1 793 8
	blt	a5,zero,.L129
	.loc 1 794 28
	ld	a5,-64(s0)
	ld	a5,0(a5)
	.loc 1 794 16
	ld	a4,-64(s0)
	addi	a3,s0,-80
	li	a2,0
	li	a1,0
	mv	a0,a4
	jalr	a5
.LVL7:
	sd	a0,-32(s0)
.L129:
	.loc 1 764 45 discriminator 2
	ld	a5,-24(s0)
	addi	a5,a5,1
	sd	a5,-24(s0)
.L127:
	.loc 1 764 25 discriminator 1
	ld	a5,-40(s0)
	ld	a4,-24(s0)
	bltu	a4,a5,.L130
	.loc 1 803 3
	ld	a5,-48(s0)
	mv	a0,a5
	call	FreePool@plt
	j	.L124
.L131:
	.loc 1 761 5 discriminator 1
	nop
.L124:
	.loc 1 804 1
	ld	ra,72(sp)
	.cfi_restore 1
	ld	s0,64(sp)
	.cfi_restore 8
	.cfi_def_cfa 2, 80
	addi	sp,sp,80
	.cfi_def_cfa_offset 0
	jr	ra
	.cfi_endproc
.LFE10:
	.size	TestI2cProtocols, .-TestI2cProtocols
	.section	.text.I2cSetSpeed,"ax",@progbits
	.align	1
	.globl	I2cSetSpeed
	.type	I2cSetSpeed, @function
I2cSetSpeed:
.LFB11:
	.loc 1 820 1
	.cfi_startproc
	addi	sp,sp,-48
	.cfi_def_cfa_offset 48
	sd	ra,40(sp)
	sd	s0,32(sp)
	.cfi_offset 1, -8
	.cfi_offset 8, -16
	addi	s0,sp,48
	.cfi_def_cfa 8, 0
	sd	a0,-40(s0)
	sd	a1,-48(s0)
	.loc 1 824 11
	ld	a5,-40(s0)
	ld	a5,40(a5)
	mv	a0,a5
	call	MmioRead32@plt
	mv	a5,a0
	sw	a5,-20(s0)
	.loc 1 825 3
	ld	a5,-40(s0)
	ld	a4,40(a5)
	lw	a5,-20(s0)
	mv	a3,a5
	li	a5,-16384
	addi	a5,a5,-1
	and	a5,a3,a5
	sext.w	a5,a5
	mv	a1,a5
	mv	a0,a4
	call	MmioWrite32@plt
	.loc 1 826 3
	li	a0,100
	call	MicroSecondDelay@plt
	.loc 1 829 6
	ld	a4,-48(s0)
	li	a5,98304
	addi	a5,a5,1696
	bleu	a4,a5,.L133
	.loc 1 830 20
	lw	a5,-20(s0)
	andi	a5,a5,-769
	sext.w	a5,a5
	.loc 1 830 11
	ori	a5,a5,256
	sw	a5,-20(s0)
	j	.L134
.L133:
	.loc 1 832 11
	lw	a5,-20(s0)
	andi	a5,a5,-769
	sw	a5,-20(s0)
.L134:
	.loc 1 836 3
	ld	a5,-40(s0)
	ld	a4,40(a5)
	lw	a5,-20(s0)
	mv	a3,a5
	li	a5,16384
	or	a5,a3,a5
	sext.w	a5,a5
	mv	a1,a5
	mv	a0,a4
	call	MmioWrite32@plt
	.loc 1 837 3
	li	a0,100
	call	MicroSecondDelay@plt
	.loc 1 840 22
	ld	a5,-48(s0)
	sext.w	a4,a5
	ld	a5,-40(s0)
	sw	a4,48(a5)
	.loc 1 842 10
	li	a5,0
	.loc 1 843 1
	mv	a0,a5
	ld	ra,40(sp)
	.cfi_restore 1
	ld	s0,32(sp)
	.cfi_restore 8
	.cfi_def_cfa 2, 48
	addi	sp,sp,48
	.cfi_def_cfa_offset 0
	jr	ra
	.cfi_endproc
.LFE11:
	.size	I2cSetSpeed, .-I2cSetSpeed
	.section	.text.I2cMasterEntryPoint,"ax",@progbits
	.align	1
	.globl	I2cMasterEntryPoint
	.type	I2cMasterEntryPoint, @function
I2cMasterEntryPoint:
.LFB12:
	.loc 1 851 1
	.cfi_startproc
	addi	sp,sp,-144
	.cfi_def_cfa_offset 144
	sd	ra,136(sp)
	sd	s0,128(sp)
	.cfi_offset 1, -8
	.cfi_offset 8, -16
	addi	s0,sp,144
	.cfi_def_cfa 8, 0
	sd	a0,-120(s0)
	sd	a1,-128(s0)
	.loc 1 858 14
	sd	zero,-56(s0)
	.loc 1 864 21
	la	a5,_gPcd_FixedAtBuild_PcdI2cControllerConfigs
	sd	a5,-48(s0)
	.loc 1 865 37
	ld	a5,-48(s0)
	lhu	a5,0(a5)
	.loc 1 865 18
	sd	a5,-40(s0)
	.loc 1 869 14
	sd	zero,-32(s0)
	.loc 1 869 3
	j	.L137
.L145:
.LBB6:
	.loc 1 870 11
	ld	a3,-48(s0)
	ld	a4,-32(s0)
	mv	a5,a4
	slli	a5,a5,1
	add	a5,a5,a4
	slli	a5,a5,3
	add	a5,a3,a5
	lbu	a5,8(a5)
	sb	a5,-17(s0)
	.loc 1 871 12
	ld	a3,-48(s0)
	ld	a4,-32(s0)
	mv	a5,a4
	slli	a5,a5,1
	add	a5,a5,a4
	slli	a5,a5,3
	add	a5,a3,a5
	ld	a5,16(a5)
	sd	a5,-64(s0)
	.loc 1 872 12
	ld	a3,-48(s0)
	ld	a4,-32(s0)
	mv	a5,a4
	slli	a5,a5,1
	add	a5,a5,a4
	slli	a5,a5,3
	add	a5,a3,a5
	lw	a5,24(a5)
	sw	a5,-68(s0)
	.loc 1 873 13
	ld	a3,-48(s0)
	ld	a4,-32(s0)
	mv	a5,a4
	slli	a5,a5,1
	add	a5,a5,a4
	slli	a5,a5,3
	add	a5,a3,a5
	lbu	a5,28(a5)
	sb	a5,-69(s0)
	.loc 1 874 16
	sd	zero,-104(s0)
	.loc 1 876 8
	lbu	a5,-69(s0)
	andi	a5,a5,0xff
	beq	a5,zero,.L147
	.loc 1 886 18
	li	a0,128
	call	AllocateZeroPool@plt
	sd	a0,-80(s0)
	.loc 1 887 8
	ld	a5,-80(s0)
	beq	a5,zero,.L148
	.loc 1 893 18
	lla	a1,SpI2cDevicePathProtocol
	li	a0,28
	call	AllocateCopyPool@plt
	sd	a0,-88(s0)
	.loc 1 894 8
	ld	a5,-88(s0)
	bne	a5,zero,.L141
	.loc 1 896 7
	ld	a0,-80(s0)
	call	FreePool@plt
	.loc 1 897 7
	j	.L144
.L141:
	.loc 1 900 26
	lla	a5,Bus.0
	ld	a5,0(a5)
	sext.w	a4,a5
	ld	a5,-88(s0)
	sw	a4,20(a5)
	.loc 1 903 27
	ld	a5,-80(s0)
	li	a4,1296248832
	addi	a4,a4,585
	sw	a4,0(a5)
	.loc 1 904 29
	ld	a5,-80(s0)
	ld	a4,-64(s0)
	sd	a4,40(a5)
	.loc 1 905 27
	ld	a5,-80(s0)
	lw	a4,-68(s0)
	sw	a4,48(a5)
	.loc 1 906 30
	ld	a5,-80(s0)
	lbu	a4,-17(s0)
	sb	a4,52(a5)
	.loc 1 907 38
	ld	a5,-80(s0)
	sd	zero,120(a5)
	.loc 1 910 33
	ld	a5,-80(s0)
	lla	a4,I2cMasterReset
	sd	a4,72(a5)
	.loc 1 911 40
	ld	a5,-80(s0)
	lla	a4,I2cMasterStartRequest
	sd	a4,80(a5)
	.loc 1 912 43
	ld	a5,-80(s0)
	lla	a4,I2cMasterSetBusFrequency
	sd	a4,64(a5)
	.loc 1 915 40
	ld	a5,-80(s0)
	lla	a4,I2cEnumerate
	sd	a4,96(a5)
	.loc 1 916 46
	ld	a5,-80(s0)
	lla	a4,I2cGetBusFrequency
	sd	a4,104(a5)
	.loc 1 919 56
	ld	a5,-80(s0)
	lla	a4,I2cBusConfiguration
	sd	a4,112(a5)
	.loc 1 922 17
	la	a5,gBS
	ld	a5,0(a5)
	ld	t1,328(a5)
	.loc 1 922 14
	ld	a5,-80(s0)
	addi	a2,a5,64
	ld	a5,-80(s0)
	addi	a4,a5,96
	ld	a5,-80(s0)
	addi	a3,a5,112
	addi	a0,s0,-104
	sd	zero,8(sp)
	ld	a5,-88(s0)
	sd	a5,0(sp)
	la	a7,gEfiDevicePathProtocolGuid
	mv	a6,a3
	la	a5,gEfiI2cBusConfigurationManagementProtocolGuid
	la	a3,gEfiI2cEnumerateProtocolGuid
	la	a1,gEfiI2cMasterProtocolGuid
	jalr	t1
.LVL8:
	sd	a0,-96(s0)
	.loc 1 935 36
	ld	a5,-96(s0)
	.loc 1 935 8
	bge	a5,zero,.L142
	.loc 1 937 7
	ld	a0,-88(s0)
	call	FreePool@plt
	.loc 1 938 7
	ld	a0,-80(s0)
	call	FreePool@plt
	.loc 1 939 7
	j	.L144
.L142:
	.loc 1 943 34
	ld	a4,-104(s0)
	ld	a5,-80(s0)
	sd	a4,8(a5)
	.loc 1 944 16
	ld	a5,-104(s0)
	sd	a5,-56(s0)
	.loc 1 947 14
	ld	a4,-104(s0)
	lw	a5,-68(s0)
	mv	a2,a4
	mv	a1,a5
	ld	a0,-64(s0)
	call	SpacemitI2cInitController
	sd	a0,-96(s0)
	.loc 1 948 36
	ld	a5,-96(s0)
	.loc 1 948 8
	bge	a5,zero,.L143
	.loc 1 950 10
	la	a5,gBS
	ld	a5,0(a5)
	ld	t1,336(a5)
	.loc 1 950 7
	ld	a0,-104(s0)
	ld	a5,-80(s0)
	addi	a2,a5,64
	ld	a5,-80(s0)
	addi	a4,a5,96
	ld	a5,-80(s0)
	addi	a3,a5,112
	sd	zero,8(sp)
	ld	a5,-88(s0)
	sd	a5,0(sp)
	la	a7,gEfiDevicePathProtocolGuid
	mv	a6,a3
	la	a5,gEfiI2cBusConfigurationManagementProtocolGuid
	la	a3,gEfiI2cEnumerateProtocolGuid
	la	a1,gEfiI2cMasterProtocolGuid
	jalr	t1
.LVL9:
	.loc 1 962 7
	ld	a0,-88(s0)
	call	FreePool@plt
	.loc 1 963 7
	ld	a0,-80(s0)
	call	FreePool@plt
	.loc 1 964 7
	j	.L144
.L143:
	.loc 1 968 8
	lla	a5,Bus.0
	ld	a5,0(a5)
	addi	a4,a5,1
	lla	a5,Bus.0
	sd	a4,0(a5)
	j	.L144
.L147:
	.loc 1 877 7
	nop
	j	.L144
.L148:
	.loc 1 889 7
	nop
.L144:
.LBE6:
	.loc 1 869 48 discriminator 2
	ld	a5,-32(s0)
	addi	a5,a5,1
	sd	a5,-32(s0)
.L137:
	.loc 1 869 25 discriminator 1
	ld	a4,-32(s0)
	ld	a5,-40(s0)
	bltu	a4,a5,.L145
	.loc 1 971 10
	li	a5,0
	.loc 1 972 1
	mv	a0,a5
	ld	ra,136(sp)
	.cfi_restore 1
	ld	s0,128(sp)
	.cfi_restore 8
	.cfi_def_cfa 2, 144
	addi	sp,sp,144
	.cfi_def_cfa_offset 0
	jr	ra
	.cfi_endproc
.LFE12:
	.size	I2cMasterEntryPoint, .-I2cMasterEntryPoint
	.section	.bss.Bus.0,"aw",@nobits
	.align	3
	.type	Bus.0, @object
	.size	Bus.0, 8
Bus.0:
	.zero	8
	.text
.Letext0:
	.file 2 "/home/kapoagaeming/Downloads/spacemit-image-builder/components/edk2/MdePkg/Include/RiscV64/ProcessorBind.h"
	.file 3 "/home/kapoagaeming/Downloads/spacemit-image-builder/components/edk2/MdePkg/Include/Base.h"
	.file 4 "/home/kapoagaeming/Downloads/spacemit-image-builder/components/edk2/MdePkg/Include/Uefi/UefiBaseType.h"
	.file 5 "/home/kapoagaeming/Downloads/spacemit-image-builder/components/edk2/MdePkg/Include/Uefi/UefiMultiPhase.h"
	.file 6 "/home/kapoagaeming/Downloads/spacemit-image-builder/components/edk2/MdePkg/Include/Protocol/DevicePath.h"
	.file 7 "/home/kapoagaeming/Downloads/spacemit-image-builder/components/edk2/MdePkg/Include/Protocol/SimpleTextIn.h"
	.file 8 "/home/kapoagaeming/Downloads/spacemit-image-builder/components/edk2/MdePkg/Include/Protocol/SimpleTextOut.h"
	.file 9 "/home/kapoagaeming/Downloads/spacemit-image-builder/components/edk2/MdePkg/Include/Uefi/UefiSpec.h"
	.file 10 "/home/kapoagaeming/Downloads/spacemit-image-builder/components/Build/Milk-V-Jupiter/RELEASE_GCC5/RISCV64/Silicon/Spacemit/Drivers/I2CMaster/I2CMaster/I2cMaster/DEBUG/AutoGen.h"
	.file 11 "/home/kapoagaeming/Downloads/spacemit-image-builder/components/edk2/MdePkg/Include/Library/UefiLib.h"
	.file 12 "/home/kapoagaeming/Downloads/spacemit-image-builder/components/edk2/MdePkg/Include/Library/UefiBootServicesTableLib.h"
	.file 13 "/home/kapoagaeming/Downloads/spacemit-image-builder/components/edk2/MdePkg/Include/Pi/PiI2c.h"
	.file 14 "/home/kapoagaeming/Downloads/spacemit-image-builder/components/edk2/MdePkg/Include/Protocol/I2cEnumerate.h"
	.file 15 "/home/kapoagaeming/Downloads/spacemit-image-builder/components/edk2/MdePkg/Include/Protocol/I2cBusConfigurationManagement.h"
	.file 16 "/home/kapoagaeming/Downloads/spacemit-image-builder/components/edk2/MdePkg/Include/Protocol/I2cMaster.h"
	.file 17 "/home/kapoagaeming/Downloads/spacemit-image-builder/components/edk2-platforms/Silicon/Spacemit/Drivers/I2CMaster/I2CMaster/I2cPcdConfig.h"
	.file 18 "/home/kapoagaeming/Downloads/spacemit-image-builder/components/edk2-platforms/Silicon/Spacemit/Drivers/I2CMaster/I2CMaster/I2cMaster.h"
	.file 19 "/home/kapoagaeming/Downloads/spacemit-image-builder/components/edk2/MdePkg/Include/Library/MemoryAllocationLib.h"
	.file 20 "/home/kapoagaeming/Downloads/spacemit-image-builder/components/edk2-platforms/Silicon/Spacemit/Include/Library/MemoryManagementLib.h"
	.file 21 "/home/kapoagaeming/Downloads/spacemit-image-builder/components/edk2/MdePkg/Include/Library/IoLib.h"
	.file 22 "/home/kapoagaeming/Downloads/spacemit-image-builder/components/edk2/MdePkg/Include/Library/TimerLib.h"
	.section	.note.GNU-stack,"",@progbits
