	.file	"Hob.c"
	.option pic
	.option norelax
	.attribute arch, "rv64i2p1_m2p0_a2p1_f2p2_d2p2_c2p0_zicsr2p0_zifencei2p0_zmmul1p0_zaamo1p0_zalrsc1p0_zca1p0_zcd1p0"
	.attribute unaligned_access, 0
	.attribute stack_align, 16
	.text
.Ltext0:
	.cfi_sections	.debug_frame
	.file 0 "/home/kapoagaeming/Downloads/spacemit-image-builder/components/Build/Milk-V-Jupiter/RELEASE_GCC5/RISCV64/EmbeddedPkg/Library/PrePiHobLib/PrePiHobLib" "/home/kapoagaeming/Downloads/spacemit-image-builder/components/edk2/EmbeddedPkg/Library/PrePiHobLib/Hob.c"
	.section	.text.GetHobList,"ax",@progbits
	.align	1
	.globl	GetHobList
	.type	GetHobList, @function
GetHobList:
.LFB0:
	.file 1 "/home/kapoagaeming/Downloads/spacemit-image-builder/components/edk2/EmbeddedPkg/Library/PrePiHobLib/Hob.c"
	.loc 1 43 1
	.cfi_startproc
	addi	sp,sp,-16
	.cfi_def_cfa_offset 16
	sd	ra,8(sp)
	sd	s0,0(sp)
	.cfi_offset 1, -8
	.cfi_offset 8, -16
	addi	s0,sp,16
	.cfi_def_cfa 8, 0
	.loc 1 44 10
	call	PrePeiGetHobList@plt
	mv	a5,a0
	.loc 1 45 1
	mv	a0,a5
	ld	ra,8(sp)
	.cfi_restore 1
	ld	s0,0(sp)
	.cfi_restore 8
	.cfi_def_cfa 2, 16
	addi	sp,sp,16
	.cfi_def_cfa_offset 0
	jr	ra
	.cfi_endproc
.LFE0:
	.size	GetHobList, .-GetHobList
	.section	.text.SetHobList,"ax",@progbits
	.align	1
	.globl	SetHobList
	.type	SetHobList, @function
SetHobList:
.LFB1:
	.loc 1 58 1
	.cfi_startproc
	addi	sp,sp,-32
	.cfi_def_cfa_offset 32
	sd	ra,24(sp)
	sd	s0,16(sp)
	.cfi_offset 1, -8
	.cfi_offset 8, -16
	addi	s0,sp,32
	.cfi_def_cfa 8, 0
	sd	a0,-24(s0)
	.loc 1 59 10
	ld	a0,-24(s0)
	call	PrePeiSetHobList@plt
	mv	a5,a0
	.loc 1 60 1
	mv	a0,a5
	ld	ra,24(sp)
	.cfi_restore 1
	ld	s0,16(sp)
	.cfi_restore 8
	.cfi_def_cfa 2, 32
	addi	sp,sp,32
	.cfi_def_cfa_offset 0
	jr	ra
	.cfi_endproc
.LFE1:
	.size	SetHobList, .-SetHobList
	.section	.text.HobConstructor,"ax",@progbits
	.align	1
	.globl	HobConstructor
	.type	HobConstructor, @function
HobConstructor:
.LFB2:
	.loc 1 73 1
	.cfi_startproc
	addi	sp,sp,-64
	.cfi_def_cfa_offset 64
	sd	ra,56(sp)
	sd	s0,48(sp)
	.cfi_offset 1, -8
	.cfi_offset 8, -16
	addi	s0,sp,64
	.cfi_def_cfa 8, 0
	sd	a0,-40(s0)
	sd	a1,-48(s0)
	sd	a2,-56(s0)
	sd	a3,-64(s0)
	.loc 1 77 7
	ld	a5,-56(s0)
	sd	a5,-24(s0)
	.loc 1 78 10
	ld	a5,-24(s0)
	addi	a5,a5,56
	sd	a5,-32(s0)
	.loc 1 80 23
	ld	a5,-24(s0)
	li	a4,1
	sh	a4,0(a5)
	.loc 1 81 25
	ld	a5,-24(s0)
	li	a4,56
	sh	a4,2(a5)
	.loc 1 82 24
	ld	a5,-24(s0)
	sw	zero,4(a5)
	.loc 1 84 19
	ld	a5,-32(s0)
	li	a4,-1
	sh	a4,0(a5)
	.loc 1 85 21
	ld	a5,-32(s0)
	li	a4,8
	sh	a4,2(a5)
	.loc 1 86 20
	ld	a5,-32(s0)
	sw	zero,4(a5)
	.loc 1 88 16
	ld	a5,-24(s0)
	li	a4,9
	sw	a4,8(a5)
	.loc 1 89 17
	ld	a5,-24(s0)
	sw	zero,12(a5)
	.loc 1 91 23
	ld	a4,-40(s0)
	.loc 1 91 45
	ld	a5,-48(s0)
	add	a4,a4,a5
	.loc 1 91 21
	ld	a5,-24(s0)
	sd	a4,16(a5)
	.loc 1 92 26
	ld	a4,-40(s0)
	.loc 1 92 24
	ld	a5,-24(s0)
	sd	a4,24(a5)
	.loc 1 93 27
	ld	a4,-64(s0)
	.loc 1 93 25
	ld	a5,-24(s0)
	sd	a4,32(a5)
	.loc 1 94 66
	ld	a5,-32(s0)
	addi	a5,a5,8
	.loc 1 94 30
	mv	a4,a5
	.loc 1 94 28
	ld	a5,-24(s0)
	sd	a4,40(a5)
	.loc 1 95 26
	ld	a4,-32(s0)
	.loc 1 95 24
	ld	a5,-24(s0)
	sd	a4,48(a5)
	.loc 1 97 10
	ld	a5,-24(s0)
	.loc 1 98 1
	mv	a0,a5
	ld	ra,56(sp)
	.cfi_restore 1
	ld	s0,48(sp)
	.cfi_restore 8
	.cfi_def_cfa 2, 64
	addi	sp,sp,64
	.cfi_def_cfa_offset 0
	jr	ra
	.cfi_endproc
.LFE2:
	.size	HobConstructor, .-HobConstructor
	.section	.text.CreateHob,"ax",@progbits
	.align	1
	.globl	CreateHob
	.type	CreateHob, @function
CreateHob:
.LFB3:
	.loc 1 105 1
	.cfi_startproc
	addi	sp,sp,-64
	.cfi_def_cfa_offset 64
	sd	ra,56(sp)
	sd	s0,48(sp)
	.cfi_offset 1, -8
	.cfi_offset 8, -16
	addi	s0,sp,64
	.cfi_def_cfa 8, 0
	mv	a5,a0
	mv	a4,a1
	sh	a5,-50(s0)
	mv	a5,a4
	sh	a5,-52(s0)
	.loc 1 111 16
	call	GetHobList
	sd	a0,-24(s0)
	.loc 1 116 6
	lhu	a5,-52(s0)
	sext.w	a4,a5
	li	a5,65536
	addi	a5,a5,-8
	bleu	a4,a5,.L8
	.loc 1 117 12
	li	a5,0
	j	.L9
.L8:
	.loc 1 120 35
	lhu	a5,-52(s0)
	addiw	a5,a5,7
	slli	a5,a5,48
	srli	a5,a5,48
	.loc 1 120 13
	andi	a5,a5,-8
	sh	a5,-52(s0)
	.loc 1 122 26
	ld	a5,-24(s0)
	ld	a4,32(a5)
	.loc 1 122 57
	ld	a5,-24(s0)
	ld	a5,40(a5)
	.loc 1 122 14
	sub	a5,a4,a5
	sd	a5,-32(s0)
	.loc 1 124 18
	lhu	a5,-52(s0)
	.loc 1 124 6
	ld	a4,-32(s0)
	bgeu	a4,a5,.L10
	.loc 1 125 12
	li	a5,0
	j	.L9
.L10:
	.loc 1 128 34
	ld	a5,-24(s0)
	ld	a5,48(a5)
	.loc 1 128 7
	sd	a5,-40(s0)
	.loc 1 129 44
	ld	a5,-40(s0)
	lhu	a4,-50(s0)
	sh	a4,0(a5)
	.loc 1 130 46
	ld	a5,-40(s0)
	lhu	a4,-52(s0)
	sh	a4,2(a5)
	.loc 1 131 45
	ld	a5,-40(s0)
	sw	zero,4(a5)
	.loc 1 133 50
	lhu	a4,-52(s0)
	.loc 1 133 39
	ld	a5,-40(s0)
	.loc 1 133 50
	add	a5,a4,a5
	.loc 1 133 10
	sd	a5,-48(s0)
	.loc 1 134 33
	ld	a4,-48(s0)
	.loc 1 134 31
	ld	a5,-24(s0)
	sd	a4,48(a5)
	.loc 1 136 19
	ld	a5,-48(s0)
	li	a4,-1
	sh	a4,0(a5)
	.loc 1 137 21
	ld	a5,-48(s0)
	li	a4,8
	sh	a4,2(a5)
	.loc 1 138 20
	ld	a5,-48(s0)
	sw	zero,4(a5)
	.loc 1 139 9
	ld	a5,-48(s0)
	addi	a5,a5,8
	sd	a5,-48(s0)
	.loc 1 140 37
	ld	a4,-48(s0)
	.loc 1 140 35
	ld	a5,-24(s0)
	sd	a4,40(a5)
	.loc 1 142 10
	ld	a5,-40(s0)
.L9:
	.loc 1 143 1
	mv	a0,a5
	ld	ra,56(sp)
	.cfi_restore 1
	ld	s0,48(sp)
	.cfi_restore 8
	.cfi_def_cfa 2, 64
	addi	sp,sp,64
	.cfi_def_cfa_offset 0
	jr	ra
	.cfi_endproc
.LFE3:
	.size	CreateHob, .-CreateHob
	.section	.text.BuildResourceDescriptorHob,"ax",@progbits
	.align	1
	.globl	BuildResourceDescriptorHob
	.type	BuildResourceDescriptorHob, @function
BuildResourceDescriptorHob:
.LFB4:
	.loc 1 165 1
	.cfi_startproc
	addi	sp,sp,-64
	.cfi_def_cfa_offset 64
	sd	ra,56(sp)
	sd	s0,48(sp)
	.cfi_offset 1, -8
	.cfi_offset 8, -16
	addi	s0,sp,64
	.cfi_def_cfa 8, 0
	mv	a5,a0
	mv	a4,a1
	sd	a2,-48(s0)
	sd	a3,-56(s0)
	sw	a5,-36(s0)
	mv	a5,a4
	sw	a5,-40(s0)
	.loc 1 168 9
	li	a1,48
	li	a0,3
	call	CreateHob
	sd	a0,-24(s0)
	.loc 1 170 6
	ld	a5,-24(s0)
	beq	a5,zero,.L14
	.loc 1 174 21
	ld	a5,-24(s0)
	lw	a4,-36(s0)
	sw	a4,24(a5)
	.loc 1 175 26
	ld	a5,-24(s0)
	lw	a4,-40(s0)
	sw	a4,28(a5)
	.loc 1 176 22
	ld	a5,-24(s0)
	ld	a4,-48(s0)
	sd	a4,32(a5)
	.loc 1 177 23
	ld	a5,-24(s0)
	ld	a4,-56(s0)
	sd	a4,40(a5)
	j	.L11
.L14:
	.loc 1 171 5
	nop
.L11:
	.loc 1 178 1
	ld	ra,56(sp)
	.cfi_restore 1
	ld	s0,48(sp)
	.cfi_restore 8
	.cfi_def_cfa 2, 64
	addi	sp,sp,64
	.cfi_def_cfa_offset 0
	jr	ra
	.cfi_endproc
.LFE4:
	.size	BuildResourceDescriptorHob, .-BuildResourceDescriptorHob
	.section	.text.BuildFvHobs,"ax",@progbits
	.align	1
	.globl	BuildFvHobs
	.type	BuildFvHobs, @function
BuildFvHobs:
.LFB5:
	.loc 1 187 1
	.cfi_startproc
	addi	sp,sp,-64
	.cfi_def_cfa_offset 64
	sd	ra,56(sp)
	sd	s0,48(sp)
	.cfi_offset 1, -8
	.cfi_offset 8, -16
	addi	s0,sp,64
	.cfi_def_cfa 8, 0
	sd	a0,-40(s0)
	sd	a1,-48(s0)
	sd	a2,-56(s0)
	.loc 1 190 3
	ld	a1,-48(s0)
	ld	a0,-40(s0)
	call	BuildFvHob
	.loc 1 192 6
	ld	a5,-56(s0)
	bne	a5,zero,.L16
	.loc 1 193 14
	li	a5,8192
	addi	a5,a5,7
	sw	a5,-20(s0)
	j	.L17
.L16:
	.loc 1 198 14
	ld	a5,-56(s0)
	lw	a5,0(a5)
	sw	a5,-20(s0)
.L17:
	.loc 1 201 3
	lw	a5,-20(s0)
	ld	a3,-48(s0)
	ld	a2,-40(s0)
	mv	a1,a5
	li	a0,3
	call	BuildResourceDescriptorHob
	.loc 1 202 1
	nop
	ld	ra,56(sp)
	.cfi_restore 1
	ld	s0,48(sp)
	.cfi_restore 8
	.cfi_def_cfa 2, 64
	addi	sp,sp,64
	.cfi_def_cfa_offset 0
	jr	ra
	.cfi_endproc
.LFE5:
	.size	BuildFvHobs, .-BuildFvHobs
	.section	.text.GetNextHob,"ax",@progbits
	.align	1
	.globl	GetNextHob
	.type	GetNextHob, @function
GetNextHob:
.LFB6:
	.loc 1 226 1
	.cfi_startproc
	addi	sp,sp,-48
	.cfi_def_cfa_offset 48
	sd	ra,40(sp)
	sd	s0,32(sp)
	.cfi_offset 1, -8
	.cfi_offset 8, -16
	addi	s0,sp,48
	.cfi_def_cfa 8, 0
	mv	a5,a0
	sd	a1,-48(s0)
	sh	a5,-34(s0)
	.loc 1 231 11
	ld	a5,-48(s0)
	sd	a5,-24(s0)
	.loc 1 235 9
	j	.L19
.L22:
	.loc 1 236 12
	ld	a5,-24(s0)
	.loc 1 236 19
	lhu	a5,0(a5)
	.loc 1 236 8
	lhu	a4,-34(s0)
	sext.w	a4,a4
	sext.w	a5,a5
	bne	a4,a5,.L20
	.loc 1 237 17
	ld	a5,-24(s0)
	j	.L23
.L20:
	.loc 1 240 35
	addi	a5,s0,-24
	.loc 1 240 24
	ld	a5,0(a5)
	.loc 1 240 74
	addi	a4,s0,-24
	.loc 1 240 46
	ld	a4,0(a4)
	.loc 1 240 81
	lhu	a4,2(a4)
	.loc 1 240 42
	add	a5,a5,a4
	.loc 1 240 13
	sd	a5,-24(s0)
.L19:
	.loc 1 235 42
	addi	a5,s0,-24
	.loc 1 235 14
	ld	a5,0(a5)
	.loc 1 235 49
	lhu	a5,0(a5)
	.loc 1 235 10
	sext.w	a4,a5
	li	a5,65536
	addi	a5,a5,-1
	bne	a4,a5,.L22
	.loc 1 243 10
	li	a5,0
.L23:
	.loc 1 244 1
	mv	a0,a5
	ld	ra,40(sp)
	.cfi_restore 1
	ld	s0,32(sp)
	.cfi_restore 8
	.cfi_def_cfa 2, 48
	addi	sp,sp,48
	.cfi_def_cfa_offset 0
	jr	ra
	.cfi_endproc
.LFE6:
	.size	GetNextHob, .-GetNextHob
	.section	.text.GetFirstHob,"ax",@progbits
	.align	1
	.globl	GetFirstHob
	.type	GetFirstHob, @function
GetFirstHob:
.LFB7:
	.loc 1 262 1
	.cfi_startproc
	addi	sp,sp,-48
	.cfi_def_cfa_offset 48
	sd	ra,40(sp)
	sd	s0,32(sp)
	.cfi_offset 1, -8
	.cfi_offset 8, -16
	addi	s0,sp,48
	.cfi_def_cfa 8, 0
	mv	a5,a0
	sh	a5,-34(s0)
	.loc 1 265 13
	call	GetHobList
	sd	a0,-24(s0)
	.loc 1 266 10
	lhu	a5,-34(s0)
	ld	a1,-24(s0)
	mv	a0,a5
	call	GetNextHob
	mv	a5,a0
	.loc 1 267 1
	mv	a0,a5
	ld	ra,40(sp)
	.cfi_restore 1
	ld	s0,32(sp)
	.cfi_restore 8
	.cfi_def_cfa 2, 48
	addi	sp,sp,48
	.cfi_def_cfa_offset 0
	jr	ra
	.cfi_endproc
.LFE7:
	.size	GetFirstHob, .-GetFirstHob
	.section	.text.GetNextGuidHob,"ax",@progbits
	.align	1
	.globl	GetNextGuidHob
	.type	GetNextGuidHob, @function
GetNextGuidHob:
.LFB8:
	.loc 1 294 1
	.cfi_startproc
	addi	sp,sp,-48
	.cfi_def_cfa_offset 48
	sd	ra,40(sp)
	sd	s0,32(sp)
	.cfi_offset 1, -8
	.cfi_offset 8, -16
	addi	s0,sp,48
	.cfi_def_cfa 8, 0
	sd	a0,-40(s0)
	sd	a1,-48(s0)
	.loc 1 297 15
	ld	a5,-48(s0)
	sd	a5,-24(s0)
	.loc 1 298 9
	j	.L27
.L30:
	.loc 1 299 36
	ld	a5,-24(s0)
	.loc 1 299 28
	addi	a5,a5,8
	.loc 1 299 9
	mv	a1,a5
	ld	a0,-40(s0)
	call	CompareGuid@plt
	mv	a5,a0
	.loc 1 299 8 discriminator 1
	bne	a5,zero,.L32
	.loc 1 303 39
	addi	a5,s0,-24
	.loc 1 303 28
	ld	a5,0(a5)
	.loc 1 303 82
	addi	a4,s0,-24
	.loc 1 303 54
	ld	a4,0(a4)
	.loc 1 303 93
	lhu	a4,2(a4)
	.loc 1 303 50
	add	a5,a5,a4
	.loc 1 303 17
	sd	a5,-24(s0)
.L27:
	.loc 1 298 52
	ld	a5,-24(s0)
	.loc 1 298 25
	mv	a1,a5
	li	a0,4
	call	GetNextHob
	mv	a5,a0
	.loc 1 298 23 discriminator 1
	sd	a5,-24(s0)
	.loc 1 298 18 discriminator 1
	ld	a5,-24(s0)
	.loc 1 298 59 discriminator 1
	bne	a5,zero,.L30
	j	.L29
.L32:
	.loc 1 300 7
	nop
.L29:
	.loc 1 306 17
	ld	a5,-24(s0)
	.loc 1 307 1
	mv	a0,a5
	ld	ra,40(sp)
	.cfi_restore 1
	ld	s0,32(sp)
	.cfi_restore 8
	.cfi_def_cfa 2, 48
	addi	sp,sp,48
	.cfi_def_cfa_offset 0
	jr	ra
	.cfi_endproc
.LFE8:
	.size	GetNextGuidHob, .-GetNextGuidHob
	.section	.text.GetFirstGuidHob,"ax",@progbits
	.align	1
	.globl	GetFirstGuidHob
	.type	GetFirstGuidHob, @function
GetFirstGuidHob:
.LFB9:
	.loc 1 328 1
	.cfi_startproc
	addi	sp,sp,-48
	.cfi_def_cfa_offset 48
	sd	ra,40(sp)
	sd	s0,32(sp)
	.cfi_offset 1, -8
	.cfi_offset 8, -16
	addi	s0,sp,48
	.cfi_def_cfa 8, 0
	sd	a0,-40(s0)
	.loc 1 331 13
	call	GetHobList
	sd	a0,-24(s0)
	.loc 1 332 10
	ld	a1,-24(s0)
	ld	a0,-40(s0)
	call	GetNextGuidHob
	mv	a5,a0
	.loc 1 333 1
	mv	a0,a5
	ld	ra,40(sp)
	.cfi_restore 1
	ld	s0,32(sp)
	.cfi_restore 8
	.cfi_def_cfa 2, 48
	addi	sp,sp,48
	.cfi_def_cfa_offset 0
	jr	ra
	.cfi_endproc
.LFE9:
	.size	GetFirstGuidHob, .-GetFirstGuidHob
	.section	.text.GetBootMode,"ax",@progbits
	.align	1
	.globl	GetBootMode
	.type	GetBootMode, @function
GetBootMode:
.LFB10:
	.loc 1 347 1
	.cfi_startproc
	addi	sp,sp,-32
	.cfi_def_cfa_offset 32
	sd	ra,24(sp)
	sd	s0,16(sp)
	.cfi_offset 1, -8
	.cfi_offset 8, -16
	addi	s0,sp,32
	.cfi_def_cfa 8, 0
	.loc 1 350 13
	call	GetHobList
	mv	a5,a0
	.loc 1 350 11 discriminator 1
	sd	a5,-24(s0)
	.loc 1 351 13
	ld	a5,-24(s0)
	.loc 1 351 37
	lw	a5,12(a5)
	.loc 1 352 1
	mv	a0,a5
	ld	ra,24(sp)
	.cfi_restore 1
	ld	s0,16(sp)
	.cfi_restore 8
	.cfi_def_cfa 2, 32
	addi	sp,sp,32
	.cfi_def_cfa_offset 0
	jr	ra
	.cfi_endproc
.LFE10:
	.size	GetBootMode, .-GetBootMode
	.section	.text.SetBootMode,"ax",@progbits
	.align	1
	.globl	SetBootMode
	.type	SetBootMode, @function
SetBootMode:
.LFB11:
	.loc 1 367 1
	.cfi_startproc
	addi	sp,sp,-48
	.cfi_def_cfa_offset 48
	sd	ra,40(sp)
	sd	s0,32(sp)
	.cfi_offset 1, -8
	.cfi_offset 8, -16
	addi	s0,sp,48
	.cfi_def_cfa 8, 0
	mv	a5,a0
	sw	a5,-36(s0)
	.loc 1 370 13
	call	GetHobList
	mv	a5,a0
	.loc 1 370 11 discriminator 1
	sd	a5,-24(s0)
	.loc 1 371 6
	ld	a5,-24(s0)
	.loc 1 371 41
	lw	a4,-36(s0)
	sw	a4,12(a5)
	.loc 1 372 10
	li	a5,0
	.loc 1 373 1
	mv	a0,a5
	ld	ra,40(sp)
	.cfi_restore 1
	ld	s0,32(sp)
	.cfi_restore 8
	.cfi_def_cfa 2, 48
	addi	sp,sp,48
	.cfi_def_cfa_offset 0
	jr	ra
	.cfi_endproc
.LFE11:
	.size	SetBootMode, .-SetBootMode
	.section	.text.BuildModuleHob,"ax",@progbits
	.align	1
	.globl	BuildModuleHob
	.type	BuildModuleHob, @function
BuildModuleHob:
.LFB12:
	.loc 1 398 1
	.cfi_startproc
	addi	sp,sp,-64
	.cfi_def_cfa_offset 64
	sd	ra,56(sp)
	sd	s0,48(sp)
	.cfi_offset 1, -8
	.cfi_offset 8, -16
	addi	s0,sp,64
	.cfi_def_cfa 8, 0
	sd	a0,-40(s0)
	sd	a1,-48(s0)
	sd	a2,-56(s0)
	sd	a3,-64(s0)
	.loc 1 406 9
	li	a1,72
	li	a0,2
	call	CreateHob
	sd	a0,-24(s0)
	.loc 1 408 6
	ld	a5,-24(s0)
	beq	a5,zero,.L42
	.loc 1 412 13
	ld	a5,-24(s0)
	addi	a5,a5,8
	.loc 1 412 3
	la	a1,gEfiHobMemoryAllocModuleGuid
	mv	a0,a5
	call	CopyGuid@plt
	.loc 1 413 49
	ld	a5,-24(s0)
	ld	a4,-48(s0)
	sd	a4,24(a5)
	.loc 1 414 44
	ld	a5,-24(s0)
	ld	a4,-56(s0)
	sd	a4,32(a5)
	.loc 1 415 42
	ld	a5,-24(s0)
	li	a4,3
	sw	a4,40(a5)
	.loc 1 420 39
	ld	a5,-24(s0)
	addi	a5,a5,44
	.loc 1 420 3
	li	a1,4
	mv	a0,a5
	call	ZeroMem@plt
	.loc 1 422 13
	ld	a5,-24(s0)
	addi	a5,a5,48
	.loc 1 422 3
	ld	a1,-40(s0)
	mv	a0,a5
	call	CopyGuid@plt
	.loc 1 423 19
	ld	a5,-24(s0)
	ld	a4,-64(s0)
	sd	a4,64(a5)
	j	.L39
.L42:
	.loc 1 409 5
	nop
.L39:
	.loc 1 424 1
	ld	ra,56(sp)
	.cfi_restore 1
	ld	s0,48(sp)
	.cfi_restore 8
	.cfi_def_cfa 2, 64
	addi	sp,sp,64
	.cfi_def_cfa_offset 0
	jr	ra
	.cfi_endproc
.LFE12:
	.size	BuildModuleHob, .-BuildModuleHob
	.section	.text.BuildGuidHob,"ax",@progbits
	.align	1
	.globl	BuildGuidHob
	.type	BuildGuidHob, @function
BuildGuidHob:
.LFB13:
	.loc 1 450 1
	.cfi_startproc
	addi	sp,sp,-48
	.cfi_def_cfa_offset 48
	sd	ra,40(sp)
	sd	s0,32(sp)
	.cfi_offset 1, -8
	.cfi_offset 8, -16
	addi	s0,sp,48
	.cfi_def_cfa 8, 0
	sd	a0,-40(s0)
	sd	a1,-48(s0)
	.loc 1 458 9
	ld	a5,-48(s0)
	slli	a5,a5,48
	srli	a5,a5,48
	.loc 1 458 28
	addiw	a5,a5,24
	slli	a5,a5,48
	srli	a5,a5,48
	.loc 1 458 9
	mv	a1,a5
	li	a0,4
	call	CreateHob
	sd	a0,-24(s0)
	.loc 1 460 6
	ld	a5,-24(s0)
	bne	a5,zero,.L44
	.loc 1 461 12
	li	a5,0
	j	.L45
.L44:
	.loc 1 464 13
	ld	a5,-24(s0)
	addi	a5,a5,8
	.loc 1 464 3
	ld	a1,-40(s0)
	mv	a0,a5
	call	CopyGuid@plt
	.loc 1 465 14
	ld	a5,-24(s0)
	addi	a5,a5,24
.L45:
	.loc 1 466 1
	mv	a0,a5
	ld	ra,40(sp)
	.cfi_restore 1
	ld	s0,32(sp)
	.cfi_restore 8
	.cfi_def_cfa 2, 48
	addi	sp,sp,48
	.cfi_def_cfa_offset 0
	jr	ra
	.cfi_endproc
.LFE13:
	.size	BuildGuidHob, .-BuildGuidHob
	.section	.text.BuildGuidDataHob,"ax",@progbits
	.align	1
	.globl	BuildGuidDataHob
	.type	BuildGuidDataHob, @function
BuildGuidDataHob:
.LFB14:
	.loc 1 495 1
	.cfi_startproc
	addi	sp,sp,-64
	.cfi_def_cfa_offset 64
	sd	ra,56(sp)
	sd	s0,48(sp)
	.cfi_offset 1, -8
	.cfi_offset 8, -16
	addi	s0,sp,64
	.cfi_def_cfa 8, 0
	sd	a0,-40(s0)
	sd	a1,-48(s0)
	sd	a2,-56(s0)
	.loc 1 500 13
	ld	a1,-56(s0)
	ld	a0,-40(s0)
	call	BuildGuidHob
	sd	a0,-24(s0)
	.loc 1 501 6
	ld	a5,-24(s0)
	bne	a5,zero,.L47
	.loc 1 502 12
	li	a5,0
	j	.L48
.L47:
	.loc 1 505 10
	ld	a2,-56(s0)
	ld	a1,-48(s0)
	ld	a0,-24(s0)
	call	CopyMem@plt
	mv	a5,a0
.L48:
	.loc 1 506 1
	mv	a0,a5
	ld	ra,56(sp)
	.cfi_restore 1
	ld	s0,48(sp)
	.cfi_restore 8
	.cfi_def_cfa 2, 64
	addi	sp,sp,64
	.cfi_def_cfa_offset 0
	jr	ra
	.cfi_endproc
.LFE14:
	.size	BuildGuidDataHob, .-BuildGuidDataHob
	.section	.text.BuildFvHob,"ax",@progbits
	.align	1
	.globl	BuildFvHob
	.type	BuildFvHob, @function
BuildFvHob:
.LFB15:
	.loc 1 526 1
	.cfi_startproc
	addi	sp,sp,-48
	.cfi_def_cfa_offset 48
	sd	ra,40(sp)
	sd	s0,32(sp)
	.cfi_offset 1, -8
	.cfi_offset 8, -16
	addi	s0,sp,48
	.cfi_def_cfa 8, 0
	sd	a0,-40(s0)
	sd	a1,-48(s0)
	.loc 1 529 9
	li	a1,24
	li	a0,5
	call	CreateHob
	sd	a0,-24(s0)
	.loc 1 531 6
	ld	a5,-24(s0)
	beq	a5,zero,.L52
	.loc 1 535 20
	ld	a5,-24(s0)
	ld	a4,-40(s0)
	sd	a4,8(a5)
	.loc 1 536 15
	ld	a5,-24(s0)
	ld	a4,-48(s0)
	sd	a4,16(a5)
	j	.L49
.L52:
	.loc 1 532 5
	nop
.L49:
	.loc 1 537 1
	ld	ra,40(sp)
	.cfi_restore 1
	ld	s0,32(sp)
	.cfi_restore 8
	.cfi_def_cfa 2, 48
	addi	sp,sp,48
	.cfi_def_cfa_offset 0
	jr	ra
	.cfi_endproc
.LFE15:
	.size	BuildFvHob, .-BuildFvHob
	.section	.text.BuildFv2Hob,"ax",@progbits
	.align	1
	.globl	BuildFv2Hob
	.type	BuildFv2Hob, @function
BuildFv2Hob:
.LFB16:
	.loc 1 561 1
	.cfi_startproc
	addi	sp,sp,-64
	.cfi_def_cfa_offset 64
	sd	ra,56(sp)
	sd	s0,48(sp)
	.cfi_offset 1, -8
	.cfi_offset 8, -16
	addi	s0,sp,64
	.cfi_def_cfa 8, 0
	sd	a0,-40(s0)
	sd	a1,-48(s0)
	sd	a2,-56(s0)
	sd	a3,-64(s0)
	.loc 1 564 9
	li	a1,56
	li	a0,9
	call	CreateHob
	sd	a0,-24(s0)
	.loc 1 566 6
	ld	a5,-24(s0)
	beq	a5,zero,.L56
	.loc 1 570 20
	ld	a5,-24(s0)
	ld	a4,-40(s0)
	sd	a4,8(a5)
	.loc 1 571 15
	ld	a5,-24(s0)
	ld	a4,-48(s0)
	sd	a4,16(a5)
	.loc 1 572 13
	ld	a5,-24(s0)
	addi	a5,a5,24
	.loc 1 572 3
	ld	a1,-56(s0)
	mv	a0,a5
	call	CopyGuid@plt
	.loc 1 573 13
	ld	a5,-24(s0)
	addi	a5,a5,40
	.loc 1 573 3
	ld	a1,-64(s0)
	mv	a0,a5
	call	CopyGuid@plt
	j	.L53
.L56:
	.loc 1 567 5
	nop
.L53:
	.loc 1 574 1
	ld	ra,56(sp)
	.cfi_restore 1
	ld	s0,48(sp)
	.cfi_restore 8
	.cfi_def_cfa 2, 64
	addi	sp,sp,64
	.cfi_def_cfa_offset 0
	jr	ra
	.cfi_endproc
.LFE16:
	.size	BuildFv2Hob, .-BuildFv2Hob
	.section	.text.BuildFv3Hob,"ax",@progbits
	.align	1
	.globl	BuildFv3Hob
	.type	BuildFv3Hob, @function
BuildFv3Hob:
.LFB17:
	.loc 1 606 1
	.cfi_startproc
	addi	sp,sp,-80
	.cfi_def_cfa_offset 80
	sd	ra,72(sp)
	sd	s0,64(sp)
	.cfi_offset 1, -8
	.cfi_offset 8, -16
	addi	s0,sp,80
	.cfi_def_cfa 8, 0
	sd	a0,-40(s0)
	sd	a1,-48(s0)
	sd	a4,-64(s0)
	sd	a5,-72(s0)
	mv	a5,a2
	sw	a5,-52(s0)
	mv	a5,a3
	sb	a5,-53(s0)
	.loc 1 609 9
	li	a1,64
	li	a0,12
	call	CreateHob
	sd	a0,-24(s0)
	.loc 1 611 6
	ld	a5,-24(s0)
	beq	a5,zero,.L60
	.loc 1 615 20
	ld	a5,-24(s0)
	ld	a4,-40(s0)
	sd	a4,8(a5)
	.loc 1 616 15
	ld	a5,-24(s0)
	ld	a4,-48(s0)
	sd	a4,16(a5)
	.loc 1 617 29
	ld	a5,-24(s0)
	lw	a4,-52(s0)
	sw	a4,24(a5)
	.loc 1 618 20
	ld	a5,-24(s0)
	lbu	a4,-53(s0)
	sb	a4,28(a5)
	.loc 1 619 6
	lbu	a5,-53(s0)
	andi	a5,a5,0xff
	beq	a5,zero,.L57
	.loc 1 620 15
	ld	a5,-24(s0)
	addi	a5,a5,32
	.loc 1 620 5
	ld	a1,-64(s0)
	mv	a0,a5
	call	CopyGuid@plt
	.loc 1 621 15
	ld	a5,-24(s0)
	addi	a5,a5,48
	.loc 1 621 5
	ld	a1,-72(s0)
	mv	a0,a5
	call	CopyGuid@plt
	j	.L57
.L60:
	.loc 1 612 5
	nop
.L57:
	.loc 1 623 1
	ld	ra,72(sp)
	.cfi_restore 1
	ld	s0,64(sp)
	.cfi_restore 8
	.cfi_def_cfa 2, 80
	addi	sp,sp,80
	.cfi_def_cfa_offset 0
	jr	ra
	.cfi_endproc
.LFE17:
	.size	BuildFv3Hob, .-BuildFv3Hob
	.section	.text.BuildCvHob,"ax",@progbits
	.align	1
	.globl	BuildCvHob
	.type	BuildCvHob, @function
BuildCvHob:
.LFB18:
	.loc 1 643 1
	.cfi_startproc
	addi	sp,sp,-32
	.cfi_def_cfa_offset 32
	sd	ra,24(sp)
	sd	s0,16(sp)
	.cfi_offset 1, -8
	.cfi_offset 8, -16
	addi	s0,sp,32
	.cfi_def_cfa 8, 0
	sd	a0,-24(s0)
	sd	a1,-32(s0)
	.loc 1 645 1
	nop
	ld	ra,24(sp)
	.cfi_restore 1
	ld	s0,16(sp)
	.cfi_restore 8
	.cfi_def_cfa 2, 32
	addi	sp,sp,32
	.cfi_def_cfa_offset 0
	jr	ra
	.cfi_endproc
.LFE18:
	.size	BuildCvHob, .-BuildCvHob
	.section	.text.BuildCpuHob,"ax",@progbits
	.align	1
	.globl	BuildCpuHob
	.type	BuildCpuHob, @function
BuildCpuHob:
.LFB19:
	.loc 1 665 1
	.cfi_startproc
	addi	sp,sp,-48
	.cfi_def_cfa_offset 48
	sd	ra,40(sp)
	sd	s0,32(sp)
	.cfi_offset 1, -8
	.cfi_offset 8, -16
	addi	s0,sp,48
	.cfi_def_cfa 8, 0
	mv	a5,a0
	mv	a4,a1
	sb	a5,-33(s0)
	mv	a5,a4
	sb	a5,-34(s0)
	.loc 1 668 9
	li	a1,16
	li	a0,6
	call	CreateHob
	sd	a0,-24(s0)
	.loc 1 670 6
	ld	a5,-24(s0)
	beq	a5,zero,.L65
	.loc 1 674 26
	ld	a5,-24(s0)
	lbu	a4,-33(s0)
	sb	a4,8(a5)
	.loc 1 675 22
	ld	a5,-24(s0)
	lbu	a4,-34(s0)
	sb	a4,9(a5)
	.loc 1 680 15
	ld	a5,-24(s0)
	addi	a5,a5,10
	.loc 1 680 3
	li	a1,6
	mv	a0,a5
	call	ZeroMem@plt
	j	.L62
.L65:
	.loc 1 671 5
	nop
.L62:
	.loc 1 681 1
	ld	ra,40(sp)
	.cfi_restore 1
	ld	s0,32(sp)
	.cfi_restore 8
	.cfi_def_cfa 2, 48
	addi	sp,sp,48
	.cfi_def_cfa_offset 0
	jr	ra
	.cfi_endproc
.LFE19:
	.size	BuildCpuHob, .-BuildCpuHob
	.section	.text.BuildStackHob,"ax",@progbits
	.align	1
	.globl	BuildStackHob
	.type	BuildStackHob, @function
BuildStackHob:
.LFB20:
	.loc 1 701 1
	.cfi_startproc
	addi	sp,sp,-48
	.cfi_def_cfa_offset 48
	sd	ra,40(sp)
	sd	s0,32(sp)
	.cfi_offset 1, -8
	.cfi_offset 8, -16
	addi	s0,sp,48
	.cfi_def_cfa 8, 0
	sd	a0,-40(s0)
	sd	a1,-48(s0)
	.loc 1 709 9
	li	a1,48
	li	a0,2
	call	CreateHob
	sd	a0,-24(s0)
	.loc 1 711 6
	ld	a5,-24(s0)
	beq	a5,zero,.L69
	.loc 1 715 13
	ld	a5,-24(s0)
	addi	a5,a5,8
	.loc 1 715 3
	la	a1,gEfiHobMemoryAllocStackGuid
	mv	a0,a5
	call	CopyGuid@plt
	.loc 1 716 42
	ld	a5,-24(s0)
	ld	a4,-40(s0)
	sd	a4,24(a5)
	.loc 1 717 37
	ld	a5,-24(s0)
	ld	a4,-48(s0)
	sd	a4,32(a5)
	.loc 1 718 35
	ld	a5,-24(s0)
	li	a4,4
	sw	a4,40(a5)
	.loc 1 723 32
	ld	a5,-24(s0)
	addi	a5,a5,44
	.loc 1 723 3
	li	a1,4
	mv	a0,a5
	call	ZeroMem@plt
	j	.L66
.L69:
	.loc 1 712 5
	nop
.L66:
	.loc 1 724 1
	ld	ra,40(sp)
	.cfi_restore 1
	ld	s0,32(sp)
	.cfi_restore 8
	.cfi_def_cfa 2, 48
	addi	sp,sp,48
	.cfi_def_cfa_offset 0
	jr	ra
	.cfi_endproc
.LFE20:
	.size	BuildStackHob, .-BuildStackHob
	.section	.text.UpdateStackHob,"ax",@progbits
	.align	1
	.globl	UpdateStackHob
	.type	UpdateStackHob, @function
UpdateStackHob:
.LFB21:
	.loc 1 738 1
	.cfi_startproc
	addi	sp,sp,-48
	.cfi_def_cfa_offset 48
	sd	ra,40(sp)
	sd	s0,32(sp)
	.cfi_offset 1, -8
	.cfi_offset 8, -16
	addi	s0,sp,48
	.cfi_def_cfa 8, 0
	sd	a0,-40(s0)
	sd	a1,-48(s0)
	.loc 1 741 13
	call	GetHobList
	mv	a5,a0
	.loc 1 741 11 discriminator 1
	sd	a5,-24(s0)
	.loc 1 742 9
	j	.L71
.L74:
	.loc 1 743 57
	ld	a5,-24(s0)
	.loc 1 743 52
	addi	a5,a5,8
	.loc 1 743 9
	mv	a1,a5
	la	a0,gEfiHobMemoryAllocStackGuid
	call	CompareGuid@plt
	mv	a5,a0
	.loc 1 743 8 discriminator 1
	beq	a5,zero,.L72
	.loc 1 749 12
	ld	a5,-24(s0)
	.loc 1 748 7
	ld	a4,24(a5)
	.loc 1 750 12
	ld	a5,-24(s0)
	.loc 1 748 7
	ld	a5,32(a5)
	li	a2,7
	mv	a1,a5
	mv	a0,a4
	call	BuildMemoryAllocationHob
	.loc 1 756 10
	ld	a5,-24(s0)
	.loc 1 756 68
	ld	a4,-40(s0)
	sd	a4,24(a5)
	.loc 1 757 10
	ld	a5,-24(s0)
	.loc 1 757 63
	ld	a4,-48(s0)
	sd	a4,32(a5)
	.loc 1 758 7
	j	.L73
.L72:
	.loc 1 761 35
	addi	a5,s0,-24
	.loc 1 761 24
	ld	a5,0(a5)
	.loc 1 761 74
	addi	a4,s0,-24
	.loc 1 761 46
	ld	a4,0(a4)
	.loc 1 761 81
	lhu	a4,2(a4)
	.loc 1 761 42
	add	a5,a5,a4
	.loc 1 761 13
	sd	a5,-24(s0)
.L71:
	.loc 1 742 44
	ld	a5,-24(s0)
	.loc 1 742 21
	mv	a1,a5
	li	a0,2
	call	GetNextHob
	mv	a5,a0
	.loc 1 742 19 discriminator 1
	sd	a5,-24(s0)
	.loc 1 742 14 discriminator 1
	ld	a5,-24(s0)
	.loc 1 742 51 discriminator 1
	bne	a5,zero,.L74
	.loc 1 763 1
	nop
.L73:
	nop
	ld	ra,40(sp)
	.cfi_restore 1
	ld	s0,32(sp)
	.cfi_restore 8
	.cfi_def_cfa 2, 48
	addi	sp,sp,48
	.cfi_def_cfa_offset 0
	jr	ra
	.cfi_endproc
.LFE21:
	.size	UpdateStackHob, .-UpdateStackHob
	.section	.text.BuildMemoryAllocationHob,"ax",@progbits
	.align	1
	.globl	BuildMemoryAllocationHob
	.type	BuildMemoryAllocationHob, @function
BuildMemoryAllocationHob:
.LFB22:
	.loc 1 785 1
	.cfi_startproc
	addi	sp,sp,-64
	.cfi_def_cfa_offset 64
	sd	ra,56(sp)
	sd	s0,48(sp)
	.cfi_offset 1, -8
	.cfi_offset 8, -16
	addi	s0,sp,64
	.cfi_def_cfa 8, 0
	sd	a0,-40(s0)
	sd	a1,-48(s0)
	mv	a5,a2
	sw	a5,-52(s0)
	.loc 1 793 9
	li	a1,48
	li	a0,2
	call	CreateHob
	sd	a0,-24(s0)
	.loc 1 795 6
	ld	a5,-24(s0)
	beq	a5,zero,.L78
	.loc 1 799 12
	ld	a5,-24(s0)
	addi	a5,a5,8
	.loc 1 799 3
	li	a1,16
	mv	a0,a5
	call	ZeroMem@plt
	.loc 1 800 42
	ld	a5,-24(s0)
	ld	a4,-40(s0)
	sd	a4,24(a5)
	.loc 1 801 37
	ld	a5,-24(s0)
	ld	a4,-48(s0)
	sd	a4,32(a5)
	.loc 1 802 35
	ld	a5,-24(s0)
	lw	a4,-52(s0)
	sw	a4,40(a5)
	.loc 1 806 32
	ld	a5,-24(s0)
	addi	a5,a5,44
	.loc 1 806 3
	li	a1,4
	mv	a0,a5
	call	ZeroMem@plt
	j	.L75
.L78:
	.loc 1 796 5
	nop
.L75:
	.loc 1 807 1
	ld	ra,56(sp)
	.cfi_restore 1
	ld	s0,48(sp)
	.cfi_restore 8
	.cfi_def_cfa 2, 64
	addi	sp,sp,64
	.cfi_def_cfa_offset 0
	jr	ra
	.cfi_endproc
.LFE22:
	.size	BuildMemoryAllocationHob, .-BuildMemoryAllocationHob
	.section	.text.BuildExtractSectionHob,"ax",@progbits
	.align	1
	.globl	BuildExtractSectionHob
	.type	BuildExtractSectionHob, @function
BuildExtractSectionHob:
.LFB23:
	.loc 1 816 1
	.cfi_startproc
	addi	sp,sp,-64
	.cfi_def_cfa_offset 64
	sd	ra,56(sp)
	sd	s0,48(sp)
	.cfi_offset 1, -8
	.cfi_offset 8, -16
	addi	s0,sp,64
	.cfi_def_cfa 8, 0
	sd	a0,-40(s0)
	sd	a1,-48(s0)
	sd	a2,-56(s0)
	.loc 1 819 23
	ld	a5,-48(s0)
	sd	a5,-32(s0)
	.loc 1 820 26
	ld	a5,-56(s0)
	sd	a5,-24(s0)
	.loc 1 821 3
	addi	a5,s0,-32
	li	a2,16
	mv	a1,a5
	ld	a0,-40(s0)
	call	BuildGuidDataHob
	.loc 1 822 1
	nop
	ld	ra,56(sp)
	.cfi_restore 1
	ld	s0,48(sp)
	.cfi_restore 8
	.cfi_def_cfa 2, 64
	addi	sp,sp,64
	.cfi_def_cfa_offset 0
	jr	ra
	.cfi_endproc
.LFE23:
	.size	BuildExtractSectionHob, .-BuildExtractSectionHob
	.globl	gPeCoffProtocol
	.section	.data.rel.gPeCoffProtocol,"aw"
	.align	3
	.type	gPeCoffProtocol, @object
	.size	gPeCoffProtocol, 48
gPeCoffProtocol:
	.dword	PeCoffLoaderGetImageInfo
	.dword	PeCoffLoaderLoadImage
	.dword	PeCoffLoaderRelocateImage
	.dword	PeCoffLoaderImageReadFromMemory
	.dword	PeCoffLoaderRelocateImageForRuntime
	.dword	PeCoffLoaderUnloadImage
	.section	.text.BuildPeCoffLoaderHob,"ax",@progbits
	.align	1
	.globl	BuildPeCoffLoaderHob
	.type	BuildPeCoffLoaderHob, @function
BuildPeCoffLoaderHob:
.LFB24:
	.loc 1 838 1
	.cfi_startproc
	addi	sp,sp,-32
	.cfi_def_cfa_offset 32
	sd	ra,24(sp)
	sd	s0,16(sp)
	.cfi_offset 1, -8
	.cfi_offset 8, -16
	addi	s0,sp,32
	.cfi_def_cfa 8, 0
	.loc 1 841 7
	lla	a5,gPeCoffProtocol
	sd	a5,-24(s0)
	.loc 1 842 3
	addi	a5,s0,-24
	li	a2,8
	mv	a1,a5
	la	a0,gPeCoffLoaderProtocolGuid
	call	BuildGuidDataHob
	.loc 1 843 1
	nop
	ld	ra,24(sp)
	.cfi_restore 1
	ld	s0,16(sp)
	.cfi_restore 8
	.cfi_def_cfa 2, 32
	addi	sp,sp,32
	.cfi_def_cfa_offset 0
	jr	ra
	.cfi_endproc
.LFE24:
	.size	BuildPeCoffLoaderHob, .-BuildPeCoffLoaderHob
	.section	.text.BuildMemoryTypeInformationHob,"ax",@progbits
	.align	1
	.globl	BuildMemoryTypeInformationHob
	.type	BuildMemoryTypeInformationHob, @function
BuildMemoryTypeInformationHob:
.LFB25:
	.loc 1 850 1
	.cfi_startproc
	addi	sp,sp,-64
	.cfi_def_cfa_offset 64
	sd	ra,56(sp)
	sd	s0,48(sp)
	.cfi_offset 1, -8
	.cfi_offset 8, -16
	addi	s0,sp,64
	.cfi_def_cfa 8, 0
	.loc 1 853 16
	li	a5,9
	sw	a5,-64(s0)
	.loc 1 854 25
	la	a5,_gPcd_FixedAtBuild_PcdMemoryTypeEfiACPIReclaimMemory
	lw	a5,0(a5)
	sw	a5,-60(s0)
	.loc 1 855 16
	li	a5,10
	sw	a5,-56(s0)
	.loc 1 856 25
	la	a5,_gPcd_FixedAtBuild_PcdMemoryTypeEfiACPIMemoryNVS
	lw	a5,0(a5)
	sw	a5,-52(s0)
	.loc 1 857 16
	sw	zero,-48(s0)
	.loc 1 858 25
	la	a5,_gPcd_FixedAtBuild_PcdMemoryTypeEfiReservedMemoryType
	lw	a5,0(a5)
	sw	a5,-44(s0)
	.loc 1 859 16
	li	a5,6
	sw	a5,-40(s0)
	.loc 1 860 25
	la	a5,_gPcd_FixedAtBuild_PcdMemoryTypeEfiRuntimeServicesData
	lw	a5,0(a5)
	sw	a5,-36(s0)
	.loc 1 861 16
	li	a5,5
	sw	a5,-32(s0)
	.loc 1 862 25
	la	a5,_gPcd_FixedAtBuild_PcdMemoryTypeEfiRuntimeServicesCode
	lw	a5,0(a5)
	sw	a5,-28(s0)
	.loc 1 864 16
	li	a5,16
	sw	a5,-24(s0)
	.loc 1 865 25
	sw	zero,-20(s0)
	.loc 1 867 3
	addi	a5,s0,-64
	li	a2,48
	mv	a1,a5
	la	a0,gEfiMemoryTypeInformationGuid
	call	BuildGuidDataHob
	.loc 1 868 1
	nop
	ld	ra,56(sp)
	.cfi_restore 1
	ld	s0,48(sp)
	.cfi_restore 8
	.cfi_def_cfa 2, 64
	addi	sp,sp,64
	.cfi_def_cfa_offset 0
	jr	ra
	.cfi_endproc
.LFE25:
	.size	BuildMemoryTypeInformationHob, .-BuildMemoryTypeInformationHob
	.text
.Letext0:
	.file 2 "/home/kapoagaeming/Downloads/spacemit-image-builder/components/edk2/MdePkg/Include/RiscV64/ProcessorBind.h"
	.file 3 "/home/kapoagaeming/Downloads/spacemit-image-builder/components/edk2/MdePkg/Include/Base.h"
	.file 4 "/home/kapoagaeming/Downloads/spacemit-image-builder/components/Build/Milk-V-Jupiter/RELEASE_GCC5/RISCV64/EmbeddedPkg/Library/PrePiHobLib/PrePiHobLib/DEBUG/AutoGen.h"
	.file 5 "/home/kapoagaeming/Downloads/spacemit-image-builder/components/edk2/MdePkg/Include/Uefi/UefiBaseType.h"
	.file 6 "/home/kapoagaeming/Downloads/spacemit-image-builder/components/edk2/MdePkg/Include/Uefi/UefiMultiPhase.h"
	.file 7 "/home/kapoagaeming/Downloads/spacemit-image-builder/components/edk2/MdePkg/Include/Pi/PiBootMode.h"
	.file 8 "/home/kapoagaeming/Downloads/spacemit-image-builder/components/edk2/MdePkg/Include/Pi/PiHob.h"
	.file 9 "/home/kapoagaeming/Downloads/spacemit-image-builder/components/edk2/MdePkg/Include/Library/PeCoffLib.h"
	.file 10 "/home/kapoagaeming/Downloads/spacemit-image-builder/components/edk2/EmbeddedPkg/Include/Protocol/PeCoffLoader.h"
	.file 11 "/home/kapoagaeming/Downloads/spacemit-image-builder/components/edk2/MdePkg/Include/Library/ExtractGuidedSectionLib.h"
	.file 12 "/home/kapoagaeming/Downloads/spacemit-image-builder/components/edk2/EmbeddedPkg/Include/Guid/ExtractSection.h"
	.file 13 "/home/kapoagaeming/Downloads/spacemit-image-builder/components/edk2/MdeModulePkg/Include/Guid/MemoryTypeInformation.h"
	.file 14 "/home/kapoagaeming/Downloads/spacemit-image-builder/components/edk2/MdePkg/Include/Library/BaseMemoryLib.h"
	.file 15 "/home/kapoagaeming/Downloads/spacemit-image-builder/components/edk2/EmbeddedPkg/Include/Library/PrePiHobListPointerLib.h"
	.section	.note.GNU-stack,"",@progbits
