	.file	"ConsoleWrappers.c"
	.option pic
	.option norelax
	.attribute arch, "rv64i2p1_m2p0_a2p1_f2p2_d2p2_c2p0_zicsr2p0_zifencei2p0_zmmul1p0_zaamo1p0_zalrsc1p0_zca1p0_zcd1p0"
	.attribute unaligned_access, 0
	.attribute stack_align, 16
	.text
.Ltext0:
	.cfi_sections	.debug_frame
	.file 0 "/home/kapoagaeming/spacemit-image-builder/components/Build/Milk-V-Jupiter/RELEASE_GCC5/RISCV64/ShellPkg/Application/Shell/Shell" "/home/kapoagaeming/spacemit-image-builder/components/edk2/ShellPkg/Application/Shell/ConsoleWrappers.c"
	.section	.text.ConInWaitForKey,"ax",@progbits
	.align	1
	.globl	ConInWaitForKey
	.type	ConInWaitForKey, @function
ConInWaitForKey:
.LFB0:
	.file 1 "/home/kapoagaeming/spacemit-image-builder/components/edk2/ShellPkg/Application/Shell/ConsoleWrappers.c"
	.loc 1 42 1
	.cfi_startproc
	addi	sp,sp,-32
	.cfi_def_cfa_offset 32
	sd	ra,24(sp)
	sd	s0,16(sp)
	.cfi_offset 1, -8
	.cfi_offset 8, -16
	addi	s0,sp,32
	.cfi_def_cfa 8, 0
	sd	a0,-24(s0)
	sd	a1,-32(s0)
	.loc 1 43 6
	la	a5,gBS
	ld	a5,0(a5)
	ld	a5,104(a5)
	.loc 1 43 3
	ld	a0,-24(s0)
	jalr	a5
.LVL0:
	.loc 1 44 1
	nop
	ld	ra,24(sp)
	.cfi_restore 1
	ld	s0,16(sp)
	.cfi_restore 8
	.cfi_def_cfa 2, 32
	addi	sp,sp,32
	.cfi_def_cfa_offset 0
	jr	ra
	.cfi_endproc
.LFE0:
	.size	ConInWaitForKey, .-ConInWaitForKey
	.section	.text.FileBasedSimpleTextInReset,"ax",@progbits
	.align	1
	.globl	FileBasedSimpleTextInReset
	.type	FileBasedSimpleTextInReset, @function
FileBasedSimpleTextInReset:
.LFB1:
	.loc 1 60 1
	.cfi_startproc
	addi	sp,sp,-32
	.cfi_def_cfa_offset 32
	sd	ra,24(sp)
	sd	s0,16(sp)
	.cfi_offset 1, -8
	.cfi_offset 8, -16
	addi	s0,sp,32
	.cfi_def_cfa 8, 0
	sd	a0,-24(s0)
	mv	a5,a1
	sb	a5,-25(s0)
	.loc 1 61 10
	li	a5,0
	.loc 1 62 1
	mv	a0,a5
	ld	ra,24(sp)
	.cfi_restore 1
	ld	s0,16(sp)
	.cfi_restore 8
	.cfi_def_cfa 2, 32
	addi	sp,sp,32
	.cfi_def_cfa_offset 0
	jr	ra
	.cfi_endproc
.LFE1:
	.size	FileBasedSimpleTextInReset, .-FileBasedSimpleTextInReset
	.section	.text.FileBasedSimpleTextInReadKeyStroke,"ax",@progbits
	.align	1
	.globl	FileBasedSimpleTextInReadKeyStroke
	.type	FileBasedSimpleTextInReadKeyStroke, @function
FileBasedSimpleTextInReadKeyStroke:
.LFB2:
	.loc 1 80 1
	.cfi_startproc
	addi	sp,sp,-48
	.cfi_def_cfa_offset 48
	sd	ra,40(sp)
	sd	s0,32(sp)
	.cfi_offset 1, -8
	.cfi_offset 8, -16
	addi	s0,sp,48
	.cfi_def_cfa 8, 0
	sd	a0,-40(s0)
	sd	a1,-48(s0)
	.loc 1 87 6
	ld	a5,-48(s0)
	beq	a5,zero,.L5
	.loc 1 87 29 discriminator 1
	ld	a5,-40(s0)
	bne	a5,zero,.L6
.L5:
	.loc 1 88 12
	li	a5,-1
	slli	a5,a5,63
	addi	a5,a5,2
	j	.L13
.L6:
	.loc 1 94 53
	ld	a5,-40(s0)
	ld	a5,40(a5)
	.loc 1 94 6
	bne	a5,zero,.L8
	.loc 1 95 12
	li	a5,-1
	slli	a5,a5,63
	addi	a5,a5,6
	j	.L13
.L8:
	.loc 1 98 8
	li	a5,2
	sd	a5,-32(s0)
	.loc 1 100 7
	la	a5,AsciiRedirection
	lbu	a5,0(a5)
	.loc 1 100 6
	bne	a5,zero,.L9
	.loc 1 101 14
	li	a5,2
	sd	a5,-24(s0)
	j	.L10
.L9:
	.loc 1 103 14
	li	a5,1
	sd	a5,-24(s0)
.L10:
	.loc 1 109 53
	ld	a5,-40(s0)
	ld	a5,40(a5)
	.loc 1 109 6
	ld	a4,-24(s0)
	bgeu	a4,a5,.L11
	.loc 1 110 51
	ld	a5,-40(s0)
	ld	a4,40(a5)
	.loc 1 110 79
	ld	a5,-24(s0)
	sub	a4,a4,a5
	ld	a5,-40(s0)
	sd	a4,40(a5)
	j	.L12
.L11:
	.loc 1 112 79
	ld	a5,-40(s0)
	sd	zero,40(a5)
.L12:
	.loc 1 115 17
	ld	a5,-48(s0)
	sh	zero,0(a5)
	.loc 1 116 26
	la	a5,ShellInfoObject
	ld	a5,8(a5)
	.loc 1 116 46
	ld	a5,216(a5)
	.loc 1 116 11
	ld	a4,-40(s0)
	ld	a3,24(a4)
	.loc 1 119 50
	ld	a4,-48(s0)
	addi	a2,a4,2
	.loc 1 116 11
	addi	a4,s0,-32
	mv	a1,a4
	mv	a0,a3
	jalr	a5
.LVL1:
	mv	a5,a0
.L13:
	.loc 1 121 1
	mv	a0,a5
	ld	ra,40(sp)
	.cfi_restore 1
	ld	s0,32(sp)
	.cfi_restore 8
	.cfi_def_cfa 2, 48
	addi	sp,sp,48
	.cfi_def_cfa_offset 0
	jr	ra
	.cfi_endproc
.LFE2:
	.size	FileBasedSimpleTextInReadKeyStroke, .-FileBasedSimpleTextInReadKeyStroke
	.section	.text.CreateSimpleTextInOnFile,"ax",@progbits
	.align	1
	.globl	CreateSimpleTextInOnFile
	.type	CreateSimpleTextInOnFile, @function
CreateSimpleTextInOnFile:
.LFB3:
	.loc 1 138 1
	.cfi_startproc
	addi	sp,sp,-64
	.cfi_def_cfa_offset 64
	sd	ra,56(sp)
	sd	s0,48(sp)
	.cfi_offset 1, -8
	.cfi_offset 8, -16
	addi	s0,sp,64
	.cfi_def_cfa 8, 0
	sd	a0,-56(s0)
	sd	a1,-64(s0)
	.loc 1 144 6
	ld	a5,-64(s0)
	beq	a5,zero,.L15
	.loc 1 144 40 discriminator 1
	ld	a5,-56(s0)
	bne	a5,zero,.L16
.L15:
	.loc 1 145 12
	li	a5,0
	j	.L21
.L16:
	.loc 1 148 22
	li	a0,48
	call	AllocateZeroPool@plt
	sd	a0,-24(s0)
	.loc 1 149 6
	ld	a5,-24(s0)
	bne	a5,zero,.L18
	.loc 1 150 12
	li	a5,0
	j	.L21
.L18:
	.loc 1 153 3
	addi	a5,s0,-48
	mv	a1,a5
	ld	a0,-56(s0)
	call	ShellGetFileSize@plt
	.loc 1 154 3
	addi	a5,s0,-40
	mv	a1,a5
	ld	a0,-56(s0)
	call	ShellGetFilePosition@plt
	.loc 1 159 58
	ld	a4,-48(s0)
	ld	a5,-40(s0)
	sub	a4,a4,a5
	.loc 1 159 47
	ld	a5,-24(s0)
	sd	a4,40(a5)
	.loc 1 160 32
	ld	a5,-24(s0)
	ld	a4,-56(s0)
	sd	a4,24(a5)
	.loc 1 161 40
	ld	a5,-24(s0)
	lla	a4,FileBasedSimpleTextInReset
	sd	a4,0(a5)
	.loc 1 162 48
	ld	a5,-24(s0)
	lla	a4,FileBasedSimpleTextInReadKeyStroke
	sd	a4,8(a5)
	.loc 1 164 15
	la	a5,gBS
	ld	a5,0(a5)
	ld	a5,80(a5)
	.loc 1 168 19
	ld	a3,-24(s0)
	.loc 1 164 12
	ld	a4,-24(s0)
	addi	a4,a4,16
	lla	a2,ConInWaitForKey
	li	a1,16
	li	a0,256
	jalr	a5
.LVL2:
	sd	a0,-32(s0)
	.loc 1 172 34
	ld	a5,-32(s0)
	.loc 1 172 6
	bge	a5,zero,.L19
	.loc 1 173 5
	ld	a0,-24(s0)
	call	FreePool@plt
	.loc 1 174 12
	li	a5,0
	j	.L21
.L19:
	.loc 1 178 15
	la	a5,gBS
	ld	a5,0(a5)
	ld	a5,128(a5)
	.loc 1 178 12
	ld	a4,-24(s0)
	addi	a4,a4,32
	.loc 1 182 19
	ld	a3,-24(s0)
	.loc 1 178 12
	li	a2,0
	la	a1,gEfiSimpleTextInProtocolGuid
	mv	a0,a4
	jalr	a5
.LVL3:
	sd	a0,-32(s0)
	.loc 1 184 7
	ld	a5,-32(s0)
	.loc 1 184 6
	blt	a5,zero,.L20
	.loc 1 185 39
	ld	a5,-24(s0)
	ld	a4,32(a5)
	.loc 1 185 21
	ld	a5,-64(s0)
	sd	a4,0(a5)
	.loc 1 186 13
	ld	a5,-24(s0)
	j	.L21
.L20:
	.loc 1 188 5
	ld	a0,-24(s0)
	call	FreePool@plt
	.loc 1 189 12
	li	a5,0
.L21:
	.loc 1 191 1
	mv	a0,a5
	ld	ra,56(sp)
	.cfi_restore 1
	ld	s0,48(sp)
	.cfi_restore 8
	.cfi_def_cfa 2, 64
	addi	sp,sp,64
	.cfi_def_cfa_offset 0
	jr	ra
	.cfi_endproc
.LFE3:
	.size	CreateSimpleTextInOnFile, .-CreateSimpleTextInOnFile
	.section	.text.CloseSimpleTextInOnFile,"ax",@progbits
	.align	1
	.globl	CloseSimpleTextInOnFile
	.type	CloseSimpleTextInOnFile, @function
CloseSimpleTextInOnFile:
.LFB4:
	.loc 1 205 1
	.cfi_startproc
	addi	sp,sp,-48
	.cfi_def_cfa_offset 48
	sd	ra,40(sp)
	sd	s0,32(sp)
	.cfi_offset 1, -8
	.cfi_offset 8, -16
	addi	s0,sp,48
	.cfi_def_cfa 8, 0
	sd	a0,-40(s0)
	.loc 1 209 6
	ld	a5,-40(s0)
	bne	a5,zero,.L23
	.loc 1 210 12
	li	a5,-1
	slli	a5,a5,63
	addi	a5,a5,2
	j	.L24
.L23:
	.loc 1 213 15
	la	a5,gBS
	ld	a5,0(a5)
	ld	a5,112(a5)
	.loc 1 213 12
	ld	a4,-40(s0)
	ld	a4,16(a4)
	mv	a0,a4
	jalr	a5
.LVL4:
	sd	a0,-24(s0)
	.loc 1 215 16
	la	a5,gBS
	ld	a5,0(a5)
	ld	a5,144(a5)
	.loc 1 215 13
	ld	a4,-40(s0)
	ld	a4,32(a4)
	.loc 1 218 20
	ld	a3,-40(s0)
	.loc 1 215 13
	mv	a2,a3
	la	a1,gEfiSimpleTextInProtocolGuid
	mv	a0,a4
	jalr	a5
.LVL5:
	sd	a0,-32(s0)
	.loc 1 221 3
	ld	a0,-40(s0)
	call	FreePool@plt
	.loc 1 222 7
	ld	a5,-24(s0)
	.loc 1 222 6
	blt	a5,zero,.L25
	.loc 1 223 12
	ld	a5,-32(s0)
	j	.L24
.L25:
	.loc 1 225 12
	ld	a5,-24(s0)
.L24:
	.loc 1 227 1
	mv	a0,a5
	ld	ra,40(sp)
	.cfi_restore 1
	ld	s0,32(sp)
	.cfi_restore 8
	.cfi_def_cfa 2, 48
	addi	sp,sp,48
	.cfi_def_cfa_offset 0
	jr	ra
	.cfi_endproc
.LFE4:
	.size	CloseSimpleTextInOnFile, .-CloseSimpleTextInOnFile
	.section	.text.FileBasedSimpleTextOutReset,"ax",@progbits
	.align	1
	.globl	FileBasedSimpleTextOutReset
	.type	FileBasedSimpleTextOutReset, @function
FileBasedSimpleTextOutReset:
.LFB5:
	.loc 1 243 1
	.cfi_startproc
	addi	sp,sp,-32
	.cfi_def_cfa_offset 32
	sd	ra,24(sp)
	sd	s0,16(sp)
	.cfi_offset 1, -8
	.cfi_offset 8, -16
	addi	s0,sp,32
	.cfi_def_cfa 8, 0
	sd	a0,-24(s0)
	mv	a5,a1
	sb	a5,-25(s0)
	.loc 1 244 10
	li	a5,0
	.loc 1 245 1
	mv	a0,a5
	ld	ra,24(sp)
	.cfi_restore 1
	ld	s0,16(sp)
	.cfi_restore 8
	.cfi_def_cfa 2, 32
	addi	sp,sp,32
	.cfi_def_cfa_offset 0
	jr	ra
	.cfi_endproc
.LFE5:
	.size	FileBasedSimpleTextOutReset, .-FileBasedSimpleTextOutReset
	.section	.text.FileBasedSimpleTextOutTestString,"ax",@progbits
	.align	1
	.globl	FileBasedSimpleTextOutTestString
	.type	FileBasedSimpleTextOutTestString, @function
FileBasedSimpleTextOutTestString:
.LFB6:
	.loc 1 262 1
	.cfi_startproc
	addi	sp,sp,-32
	.cfi_def_cfa_offset 32
	sd	ra,24(sp)
	sd	s0,16(sp)
	.cfi_offset 1, -8
	.cfi_offset 8, -16
	addi	s0,sp,32
	.cfi_def_cfa 8, 0
	sd	a0,-24(s0)
	sd	a1,-32(s0)
	.loc 1 263 10
	li	a5,0
	.loc 1 264 1
	mv	a0,a5
	ld	ra,24(sp)
	.cfi_restore 1
	ld	s0,16(sp)
	.cfi_restore 8
	.cfi_def_cfa 2, 32
	addi	sp,sp,32
	.cfi_def_cfa_offset 0
	jr	ra
	.cfi_endproc
.LFE6:
	.size	FileBasedSimpleTextOutTestString, .-FileBasedSimpleTextOutTestString
	.section	.text.FileBasedSimpleTextOutQueryMode,"ax",@progbits
	.align	1
	.globl	FileBasedSimpleTextOutQueryMode
	.type	FileBasedSimpleTextOutQueryMode, @function
FileBasedSimpleTextOutQueryMode:
.LFB7:
	.loc 1 285 1
	.cfi_startproc
	addi	sp,sp,-64
	.cfi_def_cfa_offset 64
	sd	ra,56(sp)
	sd	s0,48(sp)
	.cfi_offset 1, -8
	.cfi_offset 8, -16
	addi	s0,sp,64
	.cfi_def_cfa 8, 0
	sd	a0,-40(s0)
	sd	a1,-48(s0)
	sd	a2,-56(s0)
	sd	a3,-64(s0)
	.loc 1 288 20
	ld	a5,-40(s0)
	ld	a5,96(a5)
	sd	a5,-24(s0)
	.loc 1 291 27
	ld	a5,-24(s0)
	ld	a5,24(a5)
	.loc 1 291 11
	ld	a3,-64(s0)
	ld	a2,-56(s0)
	ld	a1,-48(s0)
	ld	a0,-24(s0)
	jalr	a5
.LVL6:
	mv	a5,a0
	.loc 1 297 1
	mv	a0,a5
	ld	ra,56(sp)
	.cfi_restore 1
	ld	s0,48(sp)
	.cfi_restore 8
	.cfi_def_cfa 2, 64
	addi	sp,sp,64
	.cfi_def_cfa_offset 0
	jr	ra
	.cfi_endproc
.LFE7:
	.size	FileBasedSimpleTextOutQueryMode, .-FileBasedSimpleTextOutQueryMode
	.section	.text.FileBasedSimpleTextOutSetMode,"ax",@progbits
	.align	1
	.globl	FileBasedSimpleTextOutSetMode
	.type	FileBasedSimpleTextOutSetMode, @function
FileBasedSimpleTextOutSetMode:
.LFB8:
	.loc 1 313 1
	.cfi_startproc
	addi	sp,sp,-32
	.cfi_def_cfa_offset 32
	sd	ra,24(sp)
	sd	s0,16(sp)
	.cfi_offset 1, -8
	.cfi_offset 8, -16
	addi	s0,sp,32
	.cfi_def_cfa 8, 0
	sd	a0,-24(s0)
	sd	a1,-32(s0)
	.loc 1 314 10
	li	a5,-1
	slli	a5,a5,63
	addi	a5,a5,3
	.loc 1 315 1
	mv	a0,a5
	ld	ra,24(sp)
	.cfi_restore 1
	ld	s0,16(sp)
	.cfi_restore 8
	.cfi_def_cfa 2, 32
	addi	sp,sp,32
	.cfi_def_cfa_offset 0
	jr	ra
	.cfi_endproc
.LFE8:
	.size	FileBasedSimpleTextOutSetMode, .-FileBasedSimpleTextOutSetMode
	.section	.text.FileBasedSimpleTextOutSetAttribute,"ax",@progbits
	.align	1
	.globl	FileBasedSimpleTextOutSetAttribute
	.type	FileBasedSimpleTextOutSetAttribute, @function
FileBasedSimpleTextOutSetAttribute:
.LFB9:
	.loc 1 334 1
	.cfi_startproc
	addi	sp,sp,-32
	.cfi_def_cfa_offset 32
	sd	ra,24(sp)
	sd	s0,16(sp)
	.cfi_offset 1, -8
	.cfi_offset 8, -16
	addi	s0,sp,32
	.cfi_def_cfa 8, 0
	sd	a0,-24(s0)
	sd	a1,-32(s0)
	.loc 1 335 10
	li	a5,0
	.loc 1 336 1
	mv	a0,a5
	ld	ra,24(sp)
	.cfi_restore 1
	ld	s0,16(sp)
	.cfi_restore 8
	.cfi_def_cfa 2, 32
	addi	sp,sp,32
	.cfi_def_cfa_offset 0
	jr	ra
	.cfi_endproc
.LFE9:
	.size	FileBasedSimpleTextOutSetAttribute, .-FileBasedSimpleTextOutSetAttribute
	.section	.text.FileBasedSimpleTextOutClearScreen,"ax",@progbits
	.align	1
	.globl	FileBasedSimpleTextOutClearScreen
	.type	FileBasedSimpleTextOutClearScreen, @function
FileBasedSimpleTextOutClearScreen:
.LFB10:
	.loc 1 351 1
	.cfi_startproc
	addi	sp,sp,-32
	.cfi_def_cfa_offset 32
	sd	ra,24(sp)
	sd	s0,16(sp)
	.cfi_offset 1, -8
	.cfi_offset 8, -16
	addi	s0,sp,32
	.cfi_def_cfa 8, 0
	sd	a0,-24(s0)
	.loc 1 352 10
	li	a5,0
	.loc 1 353 1
	mv	a0,a5
	ld	ra,24(sp)
	.cfi_restore 1
	ld	s0,16(sp)
	.cfi_restore 8
	.cfi_def_cfa 2, 32
	addi	sp,sp,32
	.cfi_def_cfa_offset 0
	jr	ra
	.cfi_endproc
.LFE10:
	.size	FileBasedSimpleTextOutClearScreen, .-FileBasedSimpleTextOutClearScreen
	.section	.text.FileBasedSimpleTextOutSetCursorPosition,"ax",@progbits
	.align	1
	.globl	FileBasedSimpleTextOutSetCursorPosition
	.type	FileBasedSimpleTextOutSetCursorPosition, @function
FileBasedSimpleTextOutSetCursorPosition:
.LFB11:
	.loc 1 371 1
	.cfi_startproc
	addi	sp,sp,-48
	.cfi_def_cfa_offset 48
	sd	ra,40(sp)
	sd	s0,32(sp)
	.cfi_offset 1, -8
	.cfi_offset 8, -16
	addi	s0,sp,48
	.cfi_def_cfa 8, 0
	sd	a0,-24(s0)
	sd	a1,-32(s0)
	sd	a2,-40(s0)
	.loc 1 372 10
	li	a5,0
	.loc 1 373 1
	mv	a0,a5
	ld	ra,40(sp)
	.cfi_restore 1
	ld	s0,32(sp)
	.cfi_restore 8
	.cfi_def_cfa 2, 48
	addi	sp,sp,48
	.cfi_def_cfa_offset 0
	jr	ra
	.cfi_endproc
.LFE11:
	.size	FileBasedSimpleTextOutSetCursorPosition, .-FileBasedSimpleTextOutSetCursorPosition
	.section	.text.FileBasedSimpleTextOutEnableCursor,"ax",@progbits
	.align	1
	.globl	FileBasedSimpleTextOutEnableCursor
	.type	FileBasedSimpleTextOutEnableCursor, @function
FileBasedSimpleTextOutEnableCursor:
.LFB12:
	.loc 1 390 1
	.cfi_startproc
	addi	sp,sp,-32
	.cfi_def_cfa_offset 32
	sd	ra,24(sp)
	sd	s0,16(sp)
	.cfi_offset 1, -8
	.cfi_offset 8, -16
	addi	s0,sp,32
	.cfi_def_cfa 8, 0
	sd	a0,-24(s0)
	mv	a5,a1
	sb	a5,-25(s0)
	.loc 1 391 10
	li	a5,0
	.loc 1 392 1
	mv	a0,a5
	ld	ra,24(sp)
	.cfi_restore 1
	ld	s0,16(sp)
	.cfi_restore 8
	.cfi_def_cfa 2, 32
	addi	sp,sp,32
	.cfi_def_cfa_offset 0
	jr	ra
	.cfi_endproc
.LFE12:
	.size	FileBasedSimpleTextOutEnableCursor, .-FileBasedSimpleTextOutEnableCursor
	.section	.text.FileBasedSimpleTextOutOutputString,"ax",@progbits
	.align	1
	.globl	FileBasedSimpleTextOutOutputString
	.type	FileBasedSimpleTextOutOutputString, @function
FileBasedSimpleTextOutOutputString:
.LFB13:
	.loc 1 416 1
	.cfi_startproc
	addi	sp,sp,-48
	.cfi_def_cfa_offset 48
	sd	ra,40(sp)
	sd	s0,32(sp)
	.cfi_offset 1, -8
	.cfi_offset 8, -16
	addi	s0,sp,48
	.cfi_def_cfa 8, 0
	sd	a0,-40(s0)
	sd	a1,-48(s0)
	.loc 1 419 10
	ld	a0,-48(s0)
	call	StrLen@plt
	mv	a5,a0
	.loc 1 419 27 discriminator 1
	slli	a5,a5,1
	.loc 1 419 8 discriminator 1
	sd	a5,-24(s0)
	.loc 1 420 26
	la	a5,ShellInfoObject
	ld	a5,8(a5)
	.loc 1 420 46
	ld	a5,224(a5)
	.loc 1 420 11
	ld	a4,-40(s0)
	ld	a4,80(a4)
	addi	a3,s0,-24
	ld	a2,-48(s0)
	mv	a1,a3
	mv	a0,a4
	jalr	a5
.LVL7:
	mv	a5,a0
	.loc 1 425 1
	mv	a0,a5
	ld	ra,40(sp)
	.cfi_restore 1
	ld	s0,32(sp)
	.cfi_restore 8
	.cfi_def_cfa 2, 48
	addi	sp,sp,48
	.cfi_def_cfa_offset 0
	jr	ra
	.cfi_endproc
.LFE13:
	.size	FileBasedSimpleTextOutOutputString, .-FileBasedSimpleTextOutOutputString
	.section	.text.CreateSimpleTextOutOnFile,"ax",@progbits
	.align	1
	.globl	CreateSimpleTextOutOnFile
	.type	CreateSimpleTextOutOnFile, @function
CreateSimpleTextOutOnFile:
.LFB14:
	.loc 1 444 1
	.cfi_startproc
	addi	sp,sp,-64
	.cfi_def_cfa_offset 64
	sd	ra,56(sp)
	sd	s0,48(sp)
	.cfi_offset 1, -8
	.cfi_offset 8, -16
	addi	s0,sp,64
	.cfi_def_cfa 8, 0
	sd	a0,-40(s0)
	sd	a1,-48(s0)
	sd	a2,-56(s0)
	.loc 1 448 6
	ld	a5,-48(s0)
	beq	a5,zero,.L45
	.loc 1 448 40 discriminator 1
	ld	a5,-40(s0)
	bne	a5,zero,.L46
.L45:
	.loc 1 449 12
	li	a5,0
	j	.L47
.L46:
	.loc 1 452 22
	li	a0,104
	call	AllocateZeroPool@plt
	sd	a0,-24(s0)
	.loc 1 453 6
	ld	a5,-24(s0)
	bne	a5,zero,.L48
	.loc 1 454 12
	li	a5,0
	j	.L47
.L48:
	.loc 1 457 32
	ld	a5,-24(s0)
	ld	a4,-40(s0)
	sd	a4,80(a5)
	.loc 1 458 43
	ld	a5,-24(s0)
	ld	a4,-56(s0)
	sd	a4,96(a5)
	.loc 1 459 41
	ld	a5,-24(s0)
	lla	a4,FileBasedSimpleTextOutReset
	sd	a4,0(a5)
	.loc 1 460 46
	ld	a5,-24(s0)
	lla	a4,FileBasedSimpleTextOutTestString
	sd	a4,16(a5)
	.loc 1 461 45
	ld	a5,-24(s0)
	lla	a4,FileBasedSimpleTextOutQueryMode
	sd	a4,24(a5)
	.loc 1 462 43
	ld	a5,-24(s0)
	lla	a4,FileBasedSimpleTextOutSetMode
	sd	a4,32(a5)
	.loc 1 463 48
	ld	a5,-24(s0)
	lla	a4,FileBasedSimpleTextOutSetAttribute
	sd	a4,40(a5)
	.loc 1 464 47
	ld	a5,-24(s0)
	lla	a4,FileBasedSimpleTextOutClearScreen
	sd	a4,48(a5)
	.loc 1 465 53
	ld	a5,-24(s0)
	lla	a4,FileBasedSimpleTextOutSetCursorPosition
	sd	a4,56(a5)
	.loc 1 466 48
	ld	a5,-24(s0)
	lla	a4,FileBasedSimpleTextOutEnableCursor
	sd	a4,64(a5)
	.loc 1 467 48
	ld	a5,-24(s0)
	lla	a4,FileBasedSimpleTextOutOutputString
	sd	a4,8(a5)
	.loc 1 468 42
	li	a0,24
	call	AllocateZeroPool@plt
	mv	a4,a0
	.loc 1 468 40 discriminator 1
	ld	a5,-24(s0)
	sd	a4,72(a5)
	.loc 1 469 38
	ld	a5,-24(s0)
	ld	a5,72(a5)
	.loc 1 469 6
	bne	a5,zero,.L49
	.loc 1 470 5
	ld	a0,-24(s0)
	call	FreePool@plt
	.loc 1 471 12
	li	a5,0
	j	.L47
.L49:
	.loc 1 474 67
	ld	a5,-56(s0)
	ld	a4,72(a5)
	.loc 1 474 34
	ld	a5,-24(s0)
	ld	a5,72(a5)
	.loc 1 474 73
	lw	a4,0(a4)
	.loc 1 474 49
	sw	a4,0(a5)
	.loc 1 475 64
	ld	a5,-56(s0)
	ld	a4,72(a5)
	.loc 1 475 34
	ld	a5,-24(s0)
	ld	a5,72(a5)
	.loc 1 475 70
	lw	a4,4(a4)
	.loc 1 475 46
	sw	a4,4(a5)
	.loc 1 476 69
	ld	a5,-56(s0)
	ld	a4,72(a5)
	.loc 1 476 34
	ld	a5,-24(s0)
	ld	a5,72(a5)
	.loc 1 476 75
	lw	a4,8(a4)
	.loc 1 476 51
	sw	a4,8(a5)
	.loc 1 477 72
	ld	a5,-56(s0)
	ld	a4,72(a5)
	.loc 1 477 34
	ld	a5,-24(s0)
	ld	a5,72(a5)
	.loc 1 477 78
	lw	a4,12(a4)
	.loc 1 477 54
	sw	a4,12(a5)
	.loc 1 478 69
	ld	a5,-56(s0)
	ld	a4,72(a5)
	.loc 1 478 34
	ld	a5,-24(s0)
	ld	a5,72(a5)
	.loc 1 478 75
	lw	a4,16(a4)
	.loc 1 478 51
	sw	a4,16(a5)
	.loc 1 479 73
	ld	a5,-56(s0)
	ld	a4,72(a5)
	.loc 1 479 34
	ld	a5,-24(s0)
	ld	a5,72(a5)
	.loc 1 479 79
	lbu	a4,20(a4)
	.loc 1 479 55
	sb	a4,20(a5)
	.loc 1 481 15
	la	a5,gBS
	ld	a5,0(a5)
	ld	a5,128(a5)
	.loc 1 481 12
	ld	a4,-24(s0)
	addi	a4,a4,88
	.loc 1 485 19
	ld	a3,-24(s0)
	.loc 1 481 12
	li	a2,0
	la	a1,gEfiSimpleTextOutProtocolGuid
	mv	a0,a4
	jalr	a5
.LVL8:
	sd	a0,-32(s0)
	.loc 1 487 7
	ld	a5,-32(s0)
	.loc 1 487 6
	blt	a5,zero,.L50
	.loc 1 488 39
	ld	a5,-24(s0)
	ld	a4,88(a5)
	.loc 1 488 21
	ld	a5,-48(s0)
	sd	a4,0(a5)
	.loc 1 489 13
	ld	a5,-24(s0)
	j	.L47
.L50:
	.loc 1 491 46
	ld	a5,-24(s0)
	ld	a5,72(a5)
	.loc 1 491 13
	beq	a5,zero,.L51
	.loc 1 491 113 discriminator 1
	ld	a5,-24(s0)
	ld	a5,72(a5)
	.loc 1 491 72 discriminator 1
	mv	a0,a5
	call	FreePool@plt
	.loc 1 491 161 discriminator 2
	ld	a5,-24(s0)
	sd	zero,72(a5)
.L51:
	.loc 1 492 13
	ld	a5,-24(s0)
	beq	a5,zero,.L52
	.loc 1 492 52 discriminator 1
	ld	a0,-24(s0)
	call	FreePool@plt
	.loc 1 492 101 discriminator 2
	sd	zero,-24(s0)
.L52:
	.loc 1 493 12
	li	a5,0
.L47:
	.loc 1 495 1
	mv	a0,a5
	ld	ra,56(sp)
	.cfi_restore 1
	ld	s0,48(sp)
	.cfi_restore 8
	.cfi_def_cfa 2, 64
	addi	sp,sp,64
	.cfi_def_cfa_offset 0
	jr	ra
	.cfi_endproc
.LFE14:
	.size	CreateSimpleTextOutOnFile, .-CreateSimpleTextOutOnFile
	.section	.text.CloseSimpleTextOutOnFile,"ax",@progbits
	.align	1
	.globl	CloseSimpleTextOutOnFile
	.type	CloseSimpleTextOutOnFile, @function
CloseSimpleTextOutOnFile:
.LFB15:
	.loc 1 509 1
	.cfi_startproc
	addi	sp,sp,-48
	.cfi_def_cfa_offset 48
	sd	ra,40(sp)
	sd	s0,32(sp)
	.cfi_offset 1, -8
	.cfi_offset 8, -16
	addi	s0,sp,48
	.cfi_def_cfa 8, 0
	sd	a0,-40(s0)
	.loc 1 512 6
	ld	a5,-40(s0)
	bne	a5,zero,.L54
	.loc 1 513 12
	li	a5,-1
	slli	a5,a5,63
	addi	a5,a5,2
	j	.L55
.L54:
	.loc 1 516 15
	la	a5,gBS
	ld	a5,0(a5)
	ld	a5,144(a5)
	.loc 1 516 12
	ld	a4,-40(s0)
	ld	a4,88(a4)
	.loc 1 519 19
	ld	a3,-40(s0)
	.loc 1 516 12
	mv	a2,a3
	la	a1,gEfiSimpleTextOutProtocolGuid
	mv	a0,a4
	jalr	a5
.LVL9:
	sd	a0,-24(s0)
	.loc 1 521 26
	ld	a5,-40(s0)
	ld	a5,72(a5)
	.loc 1 521 3
	mv	a0,a5
	call	FreePool@plt
	.loc 1 522 3
	ld	a0,-40(s0)
	call	FreePool@plt
	.loc 1 523 10
	ld	a5,-24(s0)
.L55:
	.loc 1 524 1
	mv	a0,a5
	ld	ra,40(sp)
	.cfi_restore 1
	ld	s0,32(sp)
	.cfi_restore 8
	.cfi_def_cfa 2, 48
	addi	sp,sp,48
	.cfi_def_cfa_offset 0
	jr	ra
	.cfi_endproc
.LFE15:
	.size	CloseSimpleTextOutOnFile, .-CloseSimpleTextOutOnFile
	.text
.Letext0:
	.file 2 "/home/kapoagaeming/spacemit-image-builder/components/edk2/MdePkg/Include/RiscV64/ProcessorBind.h"
	.file 3 "/home/kapoagaeming/spacemit-image-builder/components/edk2/MdePkg/Include/Base.h"
	.file 4 "/home/kapoagaeming/spacemit-image-builder/components/edk2/MdePkg/Include/Uefi/UefiBaseType.h"
	.file 5 "/home/kapoagaeming/spacemit-image-builder/components/edk2/MdePkg/Include/Uefi/UefiMultiPhase.h"
	.file 6 "/home/kapoagaeming/spacemit-image-builder/components/edk2/MdePkg/Include/Protocol/DevicePath.h"
	.file 7 "/home/kapoagaeming/spacemit-image-builder/components/edk2/MdePkg/Include/Protocol/SimpleTextIn.h"
	.file 8 "/home/kapoagaeming/spacemit-image-builder/components/edk2/MdePkg/Include/Protocol/SimpleTextOut.h"
	.file 9 "/home/kapoagaeming/spacemit-image-builder/components/edk2/MdePkg/Include/Uefi/UefiSpec.h"
	.file 10 "/home/kapoagaeming/spacemit-image-builder/components/edk2/MdePkg/Include/Uefi/UefiInternalFormRepresentation.h"
	.file 11 "/home/kapoagaeming/spacemit-image-builder/components/edk2/MdePkg/Include/Guid/FileInfo.h"
	.file 12 "/home/kapoagaeming/spacemit-image-builder/components/edk2/MdePkg/Include/Protocol/Shell.h"
	.file 13 "/home/kapoagaeming/spacemit-image-builder/components/edk2/MdePkg/Include/Protocol/ShellParameters.h"
	.file 14 "/home/kapoagaeming/spacemit-image-builder/components/edk2/ShellPkg/Include/Library/ShellCommandLib.h"
	.file 15 "/home/kapoagaeming/spacemit-image-builder/components/edk2/ShellPkg/Application/Shell/ShellProtocol.h"
	.file 16 "/home/kapoagaeming/spacemit-image-builder/components/edk2/ShellPkg/Application/Shell/ConsoleLogger.h"
	.file 17 "/home/kapoagaeming/spacemit-image-builder/components/edk2/ShellPkg/Application/Shell/Shell.h"
	.file 18 "/home/kapoagaeming/spacemit-image-builder/components/edk2/MdePkg/Include/Library/BaseLib.h"
	.file 19 "/home/kapoagaeming/spacemit-image-builder/components/edk2/ShellPkg/Include/Library/ShellLib.h"
	.file 20 "/home/kapoagaeming/spacemit-image-builder/components/edk2/MdePkg/Include/Library/MemoryAllocationLib.h"
	.file 21 "/home/kapoagaeming/spacemit-image-builder/components/edk2/MdePkg/Include/Library/UefiBootServicesTableLib.h"
	.section	.note.GNU-stack,"",@progbits
