	.file	"FileHandleWrappers.c"
	.option pic
	.option norelax
	.attribute arch, "rv64i2p1_m2p0_a2p1_f2p2_d2p2_c2p0_zicsr2p0_zifencei2p0_zmmul1p0_zaamo1p0_zalrsc1p0_zca1p0_zcd1p0"
	.attribute unaligned_access, 0
	.attribute stack_align, 16
	.text
.Ltext0:
	.cfi_sections	.debug_frame
	.file 0 "/home/kapoagaeming/Downloads/spacemit-image-builder/components/Build/Milk-V-Jupiter/RELEASE_GCC5/RISCV64/ShellPkg/Application/Shell/Shell" "/home/kapoagaeming/Downloads/spacemit-image-builder/components/edk2/ShellPkg/Application/Shell/FileHandleWrappers.c"
	.section	.text.FileInterfaceOpenNotFound,"ax",@progbits
	.align	1
	.globl	FileInterfaceOpenNotFound
	.type	FileInterfaceOpenNotFound, @function
FileInterfaceOpenNotFound:
.LFB0:
	.file 1 "/home/kapoagaeming/Downloads/spacemit-image-builder/components/edk2/ShellPkg/Application/Shell/FileHandleWrappers.c"
	.loc 1 37 1
	.cfi_startproc
	addi	sp,sp,-64
	.cfi_def_cfa_offset 64
	sd	ra,56(sp)
	sd	s0,48(sp)
	.cfi_offset 1, -8
	.cfi_offset 8, -16
	addi	s0,sp,64
	.cfi_def_cfa 8, 0
	sd	a0,-24(s0)
	sd	a1,-32(s0)
	sd	a2,-40(s0)
	sd	a3,-48(s0)
	sd	a4,-56(s0)
	.loc 1 38 10
	li	a5,-1
	slli	a5,a5,63
	addi	a5,a5,14
	.loc 1 39 1
	mv	a0,a5
	ld	ra,56(sp)
	.cfi_restore 1
	ld	s0,48(sp)
	.cfi_restore 8
	.cfi_def_cfa 2, 64
	addi	sp,sp,64
	.cfi_def_cfa_offset 0
	jr	ra
	.cfi_endproc
.LFE0:
	.size	FileInterfaceOpenNotFound, .-FileInterfaceOpenNotFound
	.section	.text.FileInterfaceNopGeneric,"ax",@progbits
	.align	1
	.globl	FileInterfaceNopGeneric
	.type	FileInterfaceNopGeneric, @function
FileInterfaceNopGeneric:
.LFB1:
	.loc 1 53 1
	.cfi_startproc
	addi	sp,sp,-32
	.cfi_def_cfa_offset 32
	sd	ra,24(sp)
	sd	s0,16(sp)
	.cfi_offset 1, -8
	.cfi_offset 8, -16
	addi	s0,sp,32
	.cfi_def_cfa 8, 0
	sd	a0,-24(s0)
	.loc 1 54 10
	li	a5,0
	.loc 1 55 1
	mv	a0,a5
	ld	ra,24(sp)
	.cfi_restore 1
	ld	s0,16(sp)
	.cfi_restore 8
	.cfi_def_cfa 2, 32
	addi	sp,sp,32
	.cfi_def_cfa_offset 0
	jr	ra
	.cfi_endproc
.LFE1:
	.size	FileInterfaceNopGeneric, .-FileInterfaceNopGeneric
	.section	.text.FileInterfaceNopGetPosition,"ax",@progbits
	.align	1
	.globl	FileInterfaceNopGetPosition
	.type	FileInterfaceNopGetPosition, @function
FileInterfaceNopGetPosition:
.LFB2:
	.loc 1 71 1
	.cfi_startproc
	addi	sp,sp,-32
	.cfi_def_cfa_offset 32
	sd	ra,24(sp)
	sd	s0,16(sp)
	.cfi_offset 1, -8
	.cfi_offset 8, -16
	addi	s0,sp,32
	.cfi_def_cfa 8, 0
	sd	a0,-24(s0)
	sd	a1,-32(s0)
	.loc 1 72 10
	li	a5,-1
	slli	a5,a5,63
	addi	a5,a5,3
	.loc 1 73 1
	mv	a0,a5
	ld	ra,24(sp)
	.cfi_restore 1
	ld	s0,16(sp)
	.cfi_restore 8
	.cfi_def_cfa 2, 32
	addi	sp,sp,32
	.cfi_def_cfa_offset 0
	jr	ra
	.cfi_endproc
.LFE2:
	.size	FileInterfaceNopGetPosition, .-FileInterfaceNopGetPosition
	.section	.text.FileInterfaceNopSetPosition,"ax",@progbits
	.align	1
	.globl	FileInterfaceNopSetPosition
	.type	FileInterfaceNopSetPosition, @function
FileInterfaceNopSetPosition:
.LFB3:
	.loc 1 89 1
	.cfi_startproc
	addi	sp,sp,-32
	.cfi_def_cfa_offset 32
	sd	ra,24(sp)
	sd	s0,16(sp)
	.cfi_offset 1, -8
	.cfi_offset 8, -16
	addi	s0,sp,32
	.cfi_def_cfa 8, 0
	sd	a0,-24(s0)
	sd	a1,-32(s0)
	.loc 1 90 10
	li	a5,-1
	slli	a5,a5,63
	addi	a5,a5,3
	.loc 1 91 1
	mv	a0,a5
	ld	ra,24(sp)
	.cfi_restore 1
	ld	s0,16(sp)
	.cfi_restore 8
	.cfi_def_cfa 2, 32
	addi	sp,sp,32
	.cfi_def_cfa_offset 0
	jr	ra
	.cfi_endproc
.LFE3:
	.size	FileInterfaceNopSetPosition, .-FileInterfaceNopSetPosition
	.section	.text.FileInterfaceNopGetInfo,"ax",@progbits
	.align	1
	.globl	FileInterfaceNopGetInfo
	.type	FileInterfaceNopGetInfo, @function
FileInterfaceNopGetInfo:
.LFB4:
	.loc 1 111 1
	.cfi_startproc
	addi	sp,sp,-48
	.cfi_def_cfa_offset 48
	sd	ra,40(sp)
	sd	s0,32(sp)
	.cfi_offset 1, -8
	.cfi_offset 8, -16
	addi	s0,sp,48
	.cfi_def_cfa 8, 0
	sd	a0,-24(s0)
	sd	a1,-32(s0)
	sd	a2,-40(s0)
	sd	a3,-48(s0)
	.loc 1 112 10
	li	a5,-1
	slli	a5,a5,63
	addi	a5,a5,3
	.loc 1 113 1
	mv	a0,a5
	ld	ra,40(sp)
	.cfi_restore 1
	ld	s0,32(sp)
	.cfi_restore 8
	.cfi_def_cfa 2, 48
	addi	sp,sp,48
	.cfi_def_cfa_offset 0
	jr	ra
	.cfi_endproc
.LFE4:
	.size	FileInterfaceNopGetInfo, .-FileInterfaceNopGetInfo
	.section	.text.FileInterfaceNopSetInfo,"ax",@progbits
	.align	1
	.globl	FileInterfaceNopSetInfo
	.type	FileInterfaceNopSetInfo, @function
FileInterfaceNopSetInfo:
.LFB5:
	.loc 1 133 1
	.cfi_startproc
	addi	sp,sp,-48
	.cfi_def_cfa_offset 48
	sd	ra,40(sp)
	sd	s0,32(sp)
	.cfi_offset 1, -8
	.cfi_offset 8, -16
	addi	s0,sp,48
	.cfi_def_cfa 8, 0
	sd	a0,-24(s0)
	sd	a1,-32(s0)
	sd	a2,-40(s0)
	sd	a3,-48(s0)
	.loc 1 134 10
	li	a5,-1
	slli	a5,a5,63
	addi	a5,a5,3
	.loc 1 135 1
	mv	a0,a5
	ld	ra,40(sp)
	.cfi_restore 1
	ld	s0,32(sp)
	.cfi_restore 8
	.cfi_def_cfa 2, 48
	addi	sp,sp,48
	.cfi_def_cfa_offset 0
	jr	ra
	.cfi_endproc
.LFE5:
	.size	FileInterfaceNopSetInfo, .-FileInterfaceNopSetInfo
	.section	.text.FileInterfaceStdOutWrite,"ax",@progbits
	.align	1
	.globl	FileInterfaceStdOutWrite
	.type	FileInterfaceStdOutWrite, @function
FileInterfaceStdOutWrite:
.LFB6:
	.loc 1 156 1
	.cfi_startproc
	addi	sp,sp,-48
	.cfi_def_cfa_offset 48
	sd	ra,40(sp)
	sd	s0,32(sp)
	.cfi_offset 1, -8
	.cfi_offset 8, -16
	addi	s0,sp,48
	.cfi_def_cfa 8, 0
	sd	a0,-24(s0)
	sd	a1,-32(s0)
	sd	a2,-40(s0)
	.loc 1 157 7
	la	a5,ShellInfoObject
	lw	a5,24(a5)
	andi	a5,a5,4
	sext.w	a5,a5
	.loc 1 157 6
	beq	a5,zero,.L14
	.loc 1 158 12
	li	a5,-1
	slli	a5,a5,63
	addi	a5,a5,3
	j	.L15
.L14:
	.loc 1 161 7
	ld	a5,-40(s0)
	lhu	a4,0(a5)
	.loc 1 161 27
	la	a5,gUnicodeFileTag
	lhu	a5,0(a5)
	.loc 1 161 6
	sext.w	a4,a4
	sext.w	a5,a5
	bne	a4,a5,.L16
	.loc 1 162 16
	la	a5,gST
	ld	a5,0(a5)
	ld	a5,64(a5)
	.loc 1 162 24
	ld	a5,8(a5)
	.loc 1 162 43
	la	a4,gST
	ld	a4,0(a4)
	.loc 1 162 13
	ld	a3,64(a4)
	ld	a4,-40(s0)
	addi	a4,a4,2
	mv	a1,a4
	mv	a0,a3
	jalr	a5
.LVL0:
	mv	a5,a0
	j	.L15
.L16:
	.loc 1 165 14
	la	a5,gST
	ld	a5,0(a5)
	ld	a5,64(a5)
	.loc 1 165 22
	ld	a5,8(a5)
	.loc 1 165 41
	la	a4,gST
	ld	a4,0(a4)
	.loc 1 165 11
	ld	a4,64(a4)
	ld	a1,-40(s0)
	mv	a0,a4
	jalr	a5
.LVL1:
	mv	a5,a0
.L15:
	.loc 1 166 1
	mv	a0,a5
	ld	ra,40(sp)
	.cfi_restore 1
	ld	s0,32(sp)
	.cfi_restore 8
	.cfi_def_cfa 2, 48
	addi	sp,sp,48
	.cfi_def_cfa_offset 0
	jr	ra
	.cfi_endproc
.LFE6:
	.size	FileInterfaceStdOutWrite, .-FileInterfaceStdOutWrite
	.section	.text.FileInterfaceStdInWrite,"ax",@progbits
	.align	1
	.globl	FileInterfaceStdInWrite
	.type	FileInterfaceStdInWrite, @function
FileInterfaceStdInWrite:
.LFB7:
	.loc 1 184 1
	.cfi_startproc
	addi	sp,sp,-48
	.cfi_def_cfa_offset 48
	sd	ra,40(sp)
	sd	s0,32(sp)
	.cfi_offset 1, -8
	.cfi_offset 8, -16
	addi	s0,sp,48
	.cfi_def_cfa 8, 0
	sd	a0,-24(s0)
	sd	a1,-32(s0)
	sd	a2,-40(s0)
	.loc 1 185 10
	li	a5,-1
	slli	a5,a5,63
	addi	a5,a5,3
	.loc 1 186 1
	mv	a0,a5
	ld	ra,40(sp)
	.cfi_restore 1
	ld	s0,32(sp)
	.cfi_restore 8
	.cfi_def_cfa 2, 48
	addi	sp,sp,48
	.cfi_def_cfa_offset 0
	jr	ra
	.cfi_endproc
.LFE7:
	.size	FileInterfaceStdInWrite, .-FileInterfaceStdInWrite
	.section	.text.FileInterfaceStdErrWrite,"ax",@progbits
	.align	1
	.globl	FileInterfaceStdErrWrite
	.type	FileInterfaceStdErrWrite, @function
FileInterfaceStdErrWrite:
.LFB8:
	.loc 1 206 1
	.cfi_startproc
	addi	sp,sp,-48
	.cfi_def_cfa_offset 48
	sd	ra,40(sp)
	sd	s0,32(sp)
	.cfi_offset 1, -8
	.cfi_offset 8, -16
	addi	s0,sp,48
	.cfi_def_cfa 8, 0
	sd	a0,-24(s0)
	sd	a1,-32(s0)
	sd	a2,-40(s0)
	.loc 1 207 14
	la	a5,gST
	ld	a5,0(a5)
	ld	a5,80(a5)
	.loc 1 207 22
	ld	a5,8(a5)
	.loc 1 207 41
	la	a4,gST
	ld	a4,0(a4)
	.loc 1 207 11
	ld	a4,80(a4)
	ld	a1,-40(s0)
	mv	a0,a4
	jalr	a5
.LVL2:
	mv	a5,a0
	.loc 1 208 1
	mv	a0,a5
	ld	ra,40(sp)
	.cfi_restore 1
	ld	s0,32(sp)
	.cfi_restore 8
	.cfi_def_cfa 2, 48
	addi	sp,sp,48
	.cfi_def_cfa_offset 0
	jr	ra
	.cfi_endproc
.LFE8:
	.size	FileInterfaceStdErrWrite, .-FileInterfaceStdErrWrite
	.section	.text.FileInterfaceStdOutRead,"ax",@progbits
	.align	1
	.globl	FileInterfaceStdOutRead
	.type	FileInterfaceStdOutRead, @function
FileInterfaceStdOutRead:
.LFB9:
	.loc 1 226 1
	.cfi_startproc
	addi	sp,sp,-48
	.cfi_def_cfa_offset 48
	sd	ra,40(sp)
	sd	s0,32(sp)
	.cfi_offset 1, -8
	.cfi_offset 8, -16
	addi	s0,sp,48
	.cfi_def_cfa 8, 0
	sd	a0,-24(s0)
	sd	a1,-32(s0)
	sd	a2,-40(s0)
	.loc 1 227 10
	li	a5,-1
	slli	a5,a5,63
	addi	a5,a5,3
	.loc 1 228 1
	mv	a0,a5
	ld	ra,40(sp)
	.cfi_restore 1
	ld	s0,32(sp)
	.cfi_restore 8
	.cfi_def_cfa 2, 48
	addi	sp,sp,48
	.cfi_def_cfa_offset 0
	jr	ra
	.cfi_endproc
.LFE9:
	.size	FileInterfaceStdOutRead, .-FileInterfaceStdOutRead
	.section	.text.FileInterfaceStdErrRead,"ax",@progbits
	.align	1
	.globl	FileInterfaceStdErrRead
	.type	FileInterfaceStdErrRead, @function
FileInterfaceStdErrRead:
.LFB10:
	.loc 1 246 1
	.cfi_startproc
	addi	sp,sp,-48
	.cfi_def_cfa_offset 48
	sd	ra,40(sp)
	sd	s0,32(sp)
	.cfi_offset 1, -8
	.cfi_offset 8, -16
	addi	s0,sp,48
	.cfi_def_cfa 8, 0
	sd	a0,-24(s0)
	sd	a1,-32(s0)
	sd	a2,-40(s0)
	.loc 1 247 10
	li	a5,-1
	slli	a5,a5,63
	addi	a5,a5,3
	.loc 1 248 1
	mv	a0,a5
	ld	ra,40(sp)
	.cfi_restore 1
	ld	s0,32(sp)
	.cfi_restore 8
	.cfi_def_cfa 2, 48
	addi	sp,sp,48
	.cfi_def_cfa_offset 0
	jr	ra
	.cfi_endproc
.LFE10:
	.size	FileInterfaceStdErrRead, .-FileInterfaceStdErrRead
	.section	.text.FileInterfaceNulRead,"ax",@progbits
	.align	1
	.globl	FileInterfaceNulRead
	.type	FileInterfaceNulRead, @function
FileInterfaceNulRead:
.LFB11:
	.loc 1 266 1
	.cfi_startproc
	addi	sp,sp,-48
	.cfi_def_cfa_offset 48
	sd	ra,40(sp)
	sd	s0,32(sp)
	.cfi_offset 1, -8
	.cfi_offset 8, -16
	addi	s0,sp,48
	.cfi_def_cfa 8, 0
	sd	a0,-24(s0)
	sd	a1,-32(s0)
	sd	a2,-40(s0)
	.loc 1 267 15
	ld	a5,-32(s0)
	sd	zero,0(a5)
	.loc 1 268 10
	li	a5,0
	.loc 1 269 1
	mv	a0,a5
	ld	ra,40(sp)
	.cfi_restore 1
	ld	s0,32(sp)
	.cfi_restore 8
	.cfi_def_cfa 2, 48
	addi	sp,sp,48
	.cfi_def_cfa_offset 0
	jr	ra
	.cfi_endproc
.LFE11:
	.size	FileInterfaceNulRead, .-FileInterfaceNulRead
	.section	.text.FileInterfaceNulWrite,"ax",@progbits
	.align	1
	.globl	FileInterfaceNulWrite
	.type	FileInterfaceNulWrite, @function
FileInterfaceNulWrite:
.LFB12:
	.loc 1 287 1
	.cfi_startproc
	addi	sp,sp,-48
	.cfi_def_cfa_offset 48
	sd	ra,40(sp)
	sd	s0,32(sp)
	.cfi_offset 1, -8
	.cfi_offset 8, -16
	addi	s0,sp,48
	.cfi_def_cfa 8, 0
	sd	a0,-24(s0)
	sd	a1,-32(s0)
	sd	a2,-40(s0)
	.loc 1 288 10
	li	a5,0
	.loc 1 289 1
	mv	a0,a5
	ld	ra,40(sp)
	.cfi_restore 1
	ld	s0,32(sp)
	.cfi_restore 8
	.cfi_def_cfa 2, 48
	addi	sp,sp,48
	.cfi_def_cfa_offset 0
	jr	ra
	.cfi_endproc
.LFE12:
	.size	FileInterfaceNulWrite, .-FileInterfaceNulWrite
	.section	.rodata
	.align	3
.LC0:
	.string	":"
	.zero	2
	.align	3
.LC1:
	.string	"\\"
	.zero	2
	.align	3
.LC2:
	.string	"*"
	.zero	2
	.align	3
.LC3:
	.string	"."
	.zero	2
	.align	3
.LC4:
	.string	"."
	.string	"."
	.zero	2
	.section	.text.CreateTabCompletionList,"ax",@progbits
	.align	1
	.globl	CreateTabCompletionList
	.type	CreateTabCompletionList, @function
CreateTabCompletionList:
.LFB13:
	.loc 1 308 1
	.cfi_startproc
	addi	sp,sp,-160
	.cfi_def_cfa_offset 160
	sd	ra,152(sp)
	sd	s0,144(sp)
	sd	s1,136(sp)
	sd	s2,128(sp)
	.cfi_offset 1, -8
	.cfi_offset 8, -16
	.cfi_offset 9, -24
	.cfi_offset 18, -32
	addi	s0,sp,160
	.cfi_def_cfa 8, 0
	sd	a0,-120(s0)
	sd	a1,-128(s0)
	sd	a2,-136(s0)
	sd	a3,-144(s0)
	sd	a4,-152(s0)
	.loc 1 322 12
	ld	a0,-136(s0)
	call	AllocateZeroPool@plt
	sd	a0,-80(s0)
	.loc 1 323 6
	ld	a5,-80(s0)
	bne	a5,zero,.L30
	.loc 1 324 12
	li	a5,-1
	slli	a5,a5,63
	addi	a5,a5,9
	j	.L53
.L30:
	.loc 1 333 10
	sd	zero,-48(s0)
	.loc 1 334 17
	ld	a5,-152(s0)
	sd	zero,0(a5)
	.loc 1 335 12
	sd	zero,-104(s0)
	.loc 1 336 15
	sb	zero,-33(s0)
	.loc 1 337 14
	sd	zero,-56(s0)
	.loc 1 337 3
	j	.L32
.L38:
	.loc 1 338 24
	ld	a5,-56(s0)
	slli	a5,a5,1
	ld	a4,-120(s0)
	add	a5,a4,a5
	lhu	a5,0(a5)
	sext.w	a5,a5
	.loc 1 338 5
	li	a4,92
	beq	a5,a4,.L33
	li	a4,92
	bgt	a5,a4,.L54
	li	a4,58
	beq	a5,a4,.L33
	li	a4,58
	bgt	a5,a4,.L54
	li	a4,32
	beq	a5,a4,.L35
	li	a4,34
	bne	a5,a4,.L54
	.loc 1 340 23
	lbu	a5,-33(s0)
	sext.w	a5,a5
	seqz	a5,a5
	andi	a5,a5,0xff
	.loc 1 340 21
	sb	a5,-33(s0)
	.loc 1 341 9
	j	.L36
.L35:
	.loc 1 344 12
	lbu	a5,-33(s0)
	andi	a5,a5,0xff
	bne	a5,zero,.L55
	.loc 1 345 18
	ld	a5,-56(s0)
	addi	a5,a5,1
	sd	a5,-48(s0)
	.loc 1 346 25
	ld	a5,-152(s0)
	ld	a4,-48(s0)
	sd	a4,0(a5)
	.loc 1 349 9
	j	.L55
.L33:
	.loc 1 357 31
	ld	a5,-56(s0)
	addi	a4,a5,1
	.loc 1 357 23
	ld	a5,-152(s0)
	sd	a4,0(a5)
	.loc 1 358 9
	j	.L36
.L54:
	.loc 1 361 9
	nop
	j	.L36
.L55:
	.loc 1 349 9
	nop
.L36:
	.loc 1 337 43 discriminator 2
	ld	a5,-56(s0)
	addi	a5,a5,1
	sd	a5,-56(s0)
.L32:
	.loc 1 337 25 discriminator 1
	ld	a4,-56(s0)
	ld	a5,-128(s0)
	bltu	a4,a5,.L38
	.loc 1 365 27
	ld	a5,-48(s0)
	slli	a5,a5,1
	.loc 1 365 7
	ld	a4,-120(s0)
	add	a5,a4,a5
	lla	a1,.LC0
	mv	a0,a5
	call	StrStr@plt
	mv	a5,a0
	.loc 1 365 6 discriminator 1
	bne	a5,zero,.L39
	.loc 1 369 26
	la	a5,ShellInfoObject
	ld	a5,8(a5)
	.loc 1 369 46
	ld	a5,88(a5)
	.loc 1 369 11
	li	a0,0
	jalr	a5
.LVL3:
	sd	a0,-88(s0)
	.loc 1 370 8
	ld	a5,-88(s0)
	beq	a5,zero,.L39
	.loc 1 371 22
	ld	a5,-48(s0)
	slli	a5,a5,1
	ld	a4,-120(s0)
	add	a5,a4,a5
	lhu	a5,0(a5)
	.loc 1 371 10
	sext.w	a4,a5
	li	a5,92
	beq	a4,a5,.L40
	.loc 1 376 38
	ld	a5,-136(s0)
	srli	a4,a5,1
	.loc 1 376 75
	ld	a5,-136(s0)
	srli	a5,a5,1
	.loc 1 376 93
	addi	a5,a5,-1
	.loc 1 376 9
	mv	a3,a5
	ld	a2,-88(s0)
	mv	a1,a4
	ld	a0,-80(s0)
	call	StrnCpyS@plt
	.loc 1 377 39
	ld	a5,-136(s0)
	srli	a5,a5,1
	.loc 1 377 9
	lla	a2,.LC1
	mv	a1,a5
	ld	a0,-80(s0)
	call	StrCatS@plt
	j	.L39
.L40:
	.loc 1 383 17
	lla	a1,.LC0
	ld	a0,-88(s0)
	call	StrStr@plt
	mv	a4,a0
	.loc 1 383 36 discriminator 1
	ld	a5,-88(s0)
	sub	a5,a4,a5
	srai	a5,a5,1
	.loc 1 383 42 discriminator 1
	addi	a5,a5,1
	.loc 1 383 15 discriminator 1
	sd	a5,-56(s0)
	.loc 1 384 38
	ld	a5,-136(s0)
	srli	a5,a5,1
	.loc 1 384 9
	ld	a3,-56(s0)
	ld	a2,-88(s0)
	mv	a1,a5
	ld	a0,-80(s0)
	call	StrnCpyS@plt
.L39:
	.loc 1 389 34
	ld	a5,-136(s0)
	srli	a1,a5,1
	.loc 1 389 65
	ld	a5,-48(s0)
	slli	a5,a5,1
	.loc 1 389 3
	ld	a4,-120(s0)
	add	a2,a4,a5
	ld	a4,-128(s0)
	ld	a5,-48(s0)
	sub	a5,a4,a5
	mv	a3,a5
	ld	a0,-80(s0)
	call	StrnCatS@plt
	.loc 1 390 34
	ld	a5,-136(s0)
	srli	s2,a5,1
	.loc 1 390 72
	ld	a5,-136(s0)
	srli	s1,a5,1
	.loc 1 390 96
	ld	a0,-80(s0)
	call	StrLen@plt
	mv	a5,a0
	.loc 1 390 94 discriminator 1
	sub	a5,s1,a5
	addi	a5,a5,-1
	.loc 1 390 3 discriminator 1
	mv	a3,a5
	lla	a2,.LC2
	mv	a1,s2
	ld	a0,-80(s0)
	call	StrnCatS@plt
	.loc 1 391 27
	la	a5,ShellInfoObject
	ld	a5,8(a5)
	.loc 1 391 47
	ld	a5,272(a5)
	.loc 1 391 12
	addi	a4,s0,-104
	mv	a1,a4
	ld	a0,-80(s0)
	jalr	a5
.LVL4:
	sd	a0,-64(s0)
	.loc 1 397 7
	ld	a5,-64(s0)
	.loc 1 397 6
	blt	a5,zero,.L41
	.loc 1 397 74 discriminator 1
	ld	a5,-104(s0)
	.loc 1 397 61 discriminator 1
	beq	a5,zero,.L41
	.loc 1 401 11
	j	.L42
.L43:
	.loc 1 402 18
	ld	a5,-120(s0)
	addi	a5,a5,2
	sd	a5,-120(s0)
.L42:
	.loc 1 401 12
	ld	a5,-120(s0)
	lhu	a5,0(a5)
	.loc 1 401 25
	sext.w	a4,a5
	li	a5,32
	beq	a4,a5,.L43
	.loc 1 405 67
	ld	a5,-104(s0)
	.loc 1 405 44
	mv	a0,a5
	call	GetFirstNode@plt
	sd	a0,-72(s0)
	.loc 1 405 5
	j	.L44
.L50:
	.loc 1 406 13
	ld	a5,-72(s0)
	ld	a5,32(a5)
	lla	a1,.LC3
	mv	a0,a5
	call	StrCmp@plt
	mv	a5,a0
	.loc 1 406 10 discriminator 1
	beq	a5,zero,.L45
	.loc 1 406 57 discriminator 2
	ld	a5,-72(s0)
	ld	a5,32(a5)
	lla	a1,.LC4
	mv	a0,a5
	call	StrCmp@plt
	mv	a5,a0
	.loc 1 406 53 discriminator 3
	beq	a5,zero,.L45
	.loc 1 407 26
	ld	a5,-120(s0)
	lhu	a5,0(a5)
	.loc 1 406 99 discriminator 4
	sext.w	a4,a5
	li	a5,99
	beq	a4,a5,.L46
	.loc 1 407 54
	ld	a5,-120(s0)
	lhu	a5,0(a5)
	.loc 1 407 39
	sext.w	a4,a5
	li	a5,67
	bne	a4,a5,.L47
.L46:
	.loc 1 407 84 discriminator 1
	ld	a5,-120(s0)
	addi	a5,a5,2
	lhu	a5,0(a5)
	.loc 1 407 68 discriminator 1
	sext.w	a4,a5
	li	a5,100
	beq	a4,a5,.L48
	.loc 1 407 112 discriminator 3
	ld	a5,-120(s0)
	addi	a5,a5,2
	lhu	a5,0(a5)
	.loc 1 407 97 discriminator 3
	sext.w	a4,a5
	li	a5,68
	bne	a4,a5,.L47
.L48:
	.loc 1 408 13
	ld	a5,-72(s0)
	ld	a5,24(a5)
	mv	a0,a5
	call	ShellIsDirectory@plt
	mv	a5,a0
	.loc 1 407 127 discriminator 4
	beq	a5,zero,.L47
.L45:
	.loc 1 410 22
	ld	a5,-72(s0)
	sd	a5,-96(s0)
	.loc 1 411 60
	ld	a5,-72(s0)
	.loc 1 411 43
	mv	a0,a5
	call	RemoveEntryList@plt
	sd	a0,-72(s0)
	.loc 1 412 9
	ld	a0,-96(s0)
	call	InternalFreeShellFileInfoNode@plt
	j	.L44
.L47:
	.loc 1 414 65
	ld	a5,-104(s0)
	.loc 1 414 56
	mv	a4,a5
	.loc 1 414 73
	ld	a5,-72(s0)
	.loc 1 414 43
	mv	a1,a5
	mv	a0,a4
	call	GetNextNode@plt
	sd	a0,-72(s0)
.L44:
	.loc 1 405 94 discriminator 2
	ld	a5,-104(s0)
	.loc 1 405 85 discriminator 2
	mv	a4,a5
	.loc 1 405 102 discriminator 2
	ld	a5,-72(s0)
	.loc 1 405 77 discriminator 2
	mv	a1,a5
	mv	a0,a4
	call	IsNull@plt
	mv	a5,a0
	.loc 1 405 76 discriminator 3
	beq	a5,zero,.L50
.L41:
	.loc 1 419 17
	ld	a5,-104(s0)
	.loc 1 419 6
	beq	a5,zero,.L51
	.loc 1 419 60 discriminator 1
	ld	a5,-104(s0)
	.loc 1 419 38 discriminator 1
	mv	a0,a5
	call	IsListEmpty@plt
	mv	a5,a0
	.loc 1 419 34 discriminator 2
	bne	a5,zero,.L51
	.loc 1 420 12
	sd	zero,-64(s0)
	j	.L52
.L51:
	.loc 1 422 20
	la	a5,ShellInfoObject
	ld	a5,8(a5)
	.loc 1 422 40
	ld	a5,112(a5)
	.loc 1 422 5
	addi	a4,s0,-104
	mv	a0,a4
	jalr	a5
.LVL5:
	.loc 1 423 12
	li	a5,-1
	slli	a5,a5,63
	addi	a5,a5,14
	sd	a5,-64(s0)
.L52:
	.loc 1 426 3
	ld	a0,-80(s0)
	call	FreePool@plt
	.loc 1 428 22
	ld	a4,-104(s0)
	ld	a5,-144(s0)
	sd	a4,0(a5)
	.loc 1 429 10
	ld	a5,-64(s0)
.L53:
	.loc 1 430 1
	mv	a0,a5
	ld	ra,152(sp)
	.cfi_restore 1
	ld	s0,144(sp)
	.cfi_restore 8
	.cfi_def_cfa 2, 160
	ld	s1,136(sp)
	.cfi_restore 9
	ld	s2,128(sp)
	.cfi_restore 18
	addi	sp,sp,160
	.cfi_def_cfa_offset 0
	jr	ra
	.cfi_endproc
.LFE13:
	.size	CreateTabCompletionList, .-CreateTabCompletionList
	.section	.rodata
	.align	3
.LC5:
	.string	"%"
	.string	"N"
	.string	"\n"
	.zero	2
	.align	3
.LC6:
	.string	" "
	.zero	2
	.align	3
.LC7:
	.zero	2
	.align	3
.LC8:
	.string	"%"
	.string	"s"
	.string	"%"
	.string	"."
	.string	"*"
	.string	"s"
	.zero	2
	.section	.text.FileInterfaceStdInRead,"ax",@progbits
	.align	1
	.globl	FileInterfaceStdInRead
	.type	FileInterfaceStdInRead, @function
FileInterfaceStdInRead:
.LFB14:
	.loc 1 463 1
	.cfi_startproc
	addi	sp,sp,-272
	.cfi_def_cfa_offset 272
	sd	ra,264(sp)
	sd	s0,256(sp)
	.cfi_offset 1, -8
	.cfi_offset 8, -16
	addi	s0,sp,272
	.cfi_def_cfa 8, 0
	sd	a0,-248(s0)
	sd	a1,-256(s0)
	sd	a2,-264(s0)
	.loc 1 496 7
	ld	a5,-256(s0)
	ld	a4,0(a5)
	.loc 1 496 6
	li	a5,3
	bgtu	a4,a5,.L57
	.loc 1 497 17
	ld	a5,-256(s0)
	li	a4,4
	sd	a4,0(a5)
	.loc 1 498 12
	li	a5,-1
	slli	a5,a5,63
	addi	a5,a5,5
	j	.L122
.L57:
	.loc 1 501 8
	sb	zero,-17(s0)
	.loc 1 502 17
	ld	a5,-264(s0)
	sd	a5,-136(s0)
	.loc 1 503 13
	sd	zero,-48(s0)
	.loc 1 504 16
	sd	zero,-56(s0)
	.loc 1 505 16
	sd	zero,-72(s0)
	.loc 1 506 10
	sd	zero,-32(s0)
	.loc 1 507 10
	sd	zero,-40(s0)
	.loc 1 508 20
	la	a5,ShellInfoObject
	addi	a5,a5,80
	sd	a5,-88(s0)
	.loc 1 508 11
	ld	a5,-88(s0)
	sd	a5,-80(s0)
	.loc 1 509 15
	sb	zero,-89(s0)
	.loc 1 510 18
	sb	zero,-105(s0)
	.loc 1 511 10
	sd	zero,-104(s0)
	.loc 1 512 16
	sd	zero,-128(s0)
	.loc 1 513 16
	sd	zero,-176(s0)
	.loc 1 514 19
	sd	zero,-224(s0)
	.loc 1 515 14
	sd	zero,-120(s0)
	.loc 1 520 29
	la	a5,gST
	ld	a5,0(a5)
	ld	a5,64(a5)
	.loc 1 520 37
	ld	a5,72(a5)
	.loc 1 520 43
	lw	a5,12(a5)
	.loc 1 520 24
	sd	a5,-144(s0)
	.loc 1 520 10
	ld	a5,-144(s0)
	sd	a5,-184(s0)
	.loc 1 521 12
	la	a5,gST
	ld	a5,0(a5)
	ld	a5,64(a5)
	.loc 1 521 20
	ld	a5,72(a5)
	.loc 1 521 26
	lw	a5,16(a5)
	.loc 1 521 7
	sd	a5,-192(s0)
	.loc 1 522 6
	la	a5,gST
	ld	a5,0(a5)
	ld	a5,64(a5)
	.loc 1 522 14
	ld	a5,24(a5)
	.loc 1 522 30
	la	a4,gST
	ld	a4,0(a4)
	.loc 1 522 3
	ld	a0,64(a4)
	.loc 1 522 43
	la	a4,gST
	ld	a4,0(a4)
	ld	a4,64(a4)
	.loc 1 522 51
	ld	a4,72(a4)
	.loc 1 522 57
	lw	a4,4(a4)
	.loc 1 522 3
	mv	a1,a4
	addi	a3,s0,-208
	addi	a4,s0,-200
	mv	a2,a4
	jalr	a5
.LVL6:
	.loc 1 528 36
	ld	a5,-208(s0)
	addi	a4,a5,-1
	.loc 1 528 24
	ld	a5,-200(s0)
	mul	a4,a4,a5
	.loc 1 528 10
	ld	a5,-144(s0)
	sub	a5,a4,a5
	sd	a5,-64(s0)
	.loc 1 529 16
	ld	a5,-256(s0)
	ld	a5,0(a5)
	.loc 1 529 28
	srli	a5,a5,1
	.loc 1 529 6
	ld	a4,-64(s0)
	bleu	a4,a5,.L59
	.loc 1 530 14
	ld	a5,-256(s0)
	ld	a5,0(a5)
	.loc 1 530 12
	srli	a5,a5,1
	sd	a5,-64(s0)
.L59:
	.loc 1 533 34
	ld	a5,-64(s0)
	slli	a5,a5,1
	.loc 1 533 3
	mv	a1,a5
	ld	a0,-136(s0)
	call	ZeroMem@plt
.L119:
	.loc 1 538 8
	la	a5,gBS
	ld	a5,0(a5)
	ld	a5,96(a5)
	.loc 1 538 31
	la	a4,gST
	ld	a4,0(a4)
	ld	a4,48(a4)
	.loc 1 538 5
	addi	a4,a4,16
	addi	a3,s0,-232
	mv	a2,a3
	mv	a1,a4
	li	a0,1
	jalr	a5
.LVL7:
	.loc 1 539 17
	la	a5,gST
	ld	a5,0(a5)
	ld	a5,48(a5)
	.loc 1 539 24
	ld	a5,8(a5)
	.loc 1 539 44
	la	a4,gST
	ld	a4,0(a4)
	.loc 1 539 14
	ld	a4,48(a4)
	addi	a3,s0,-216
	mv	a1,a3
	mv	a0,a4
	jalr	a5
.LVL8:
	sd	a0,-104(s0)
	.loc 1 540 36
	ld	a5,-104(s0)
	.loc 1 540 8
	bge	a5,zero,.L60
	.loc 1 541 10
	ld	a4,-104(s0)
	li	a5,-1
	slli	a5,a5,63
	addi	a5,a5,6
	beq	a4,a5,.L123
	.loc 1 545 38
	ld	a5,-64(s0)
	slli	a5,a5,1
	.loc 1 545 7
	mv	a1,a5
	ld	a0,-136(s0)
	call	ZeroMem@plt
	.loc 1 546 17
	sd	zero,-48(s0)
	.loc 1 547 7
	j	.L63
.L60:
	.loc 1 554 13
	lhu	a5,-214(s0)
	.loc 1 554 8
	bne	a5,zero,.L64
	.loc 1 554 40 discriminator 1
	lhu	a5,-216(s0)
	.loc 1 554 32 discriminator 1
	sext.w	a4,a5
	li	a5,9
	beq	a4,a5,.L65
	.loc 1 554 68 discriminator 2
	lhu	a5,-216(s0)
	.loc 1 554 61 discriminator 2
	sext.w	a4,a5
	li	a5,10
	bne	a4,a5,.L64
.L65:
	.loc 1 555 14
	lhu	a5,-216(s0)
	.loc 1 555 10
	sext.w	a4,a5
	li	a5,9
	bne	a4,a5,.L66
	.loc 1 556 9
	la	a5,ShellInfoObject
	ld	a5,168(a5)
	mv	a2,a5
	li	a1,0
	li	a0,0
	call	ConsoleLoggerDisplayHistory@plt
	j	.L67
.L66:
	.loc 1 557 21
	lhu	a5,-216(s0)
	.loc 1 557 17
	sext.w	a4,a5
	li	a5,10
	bne	a4,a5,.L67
	.loc 1 558 9
	la	a5,ShellInfoObject
	ld	a5,168(a5)
	mv	a2,a5
	li	a1,0
	li	a0,1
	call	ConsoleLoggerDisplayHistory@plt
.L67:
	.loc 1 561 19
	li	a5,1
	sb	a5,-89(s0)
	j	.L68
.L64:
	.loc 1 563 10
	lbu	a5,-89(s0)
	andi	a5,a5,0xff
	beq	a5,zero,.L68
	.loc 1 564 9
	la	a5,ShellInfoObject
	ld	a5,168(a5)
	mv	a0,a5
	call	ConsoleLoggerStopHistory@plt
	.loc 1 565 21
	sb	zero,-89(s0)
.L68:
	.loc 1 572 8
	lbu	a5,-105(s0)
	andi	a5,a5,0xff
	beq	a5,zero,.L69
	.loc 1 572 31 discriminator 1
	lhu	a5,-214(s0)
	.loc 1 572 24 discriminator 1
	sext.w	a4,a5
	li	a5,9
	beq	a4,a5,.L69
	.loc 1 573 27
	ld	a5,-224(s0)
	.loc 1 573 10
	beq	a5,zero,.L70
	.loc 1 574 24
	la	a5,ShellInfoObject
	ld	a5,8(a5)
	.loc 1 574 44
	ld	a5,112(a5)
	.loc 1 574 9
	addi	a4,s0,-224
	mv	a0,a4
	jalr	a5
.LVL9:
	.loc 1 575 18
	call	DebugCodeEnabled@plt
	mv	a5,a0
	.loc 1 575 17 discriminator 1
	beq	a5,zero,.L70
	.loc 1 575 91 discriminator 2
	sd	zero,-224(s0)
.L70:
	.loc 1 580 22
	sb	zero,-105(s0)
.L69:
	.loc 1 583 16
	lhu	a5,-214(s0)
	sext.w	a5,a5
	.loc 1 583 5
	li	a4,13
	beq	a5,a4,.L71
	li	a4,13
	bgt	a5,a4,.L72
	li	a4,9
	beq	a5,a4,.L73
	li	a4,9
	bgt	a5,a4,.L72
	beq	a5,zero,.L74
	li	a4,8
	beq	a5,a4,.L75
	j	.L72
.L71:
	.loc 1 588 36
	ld	a4,-48(s0)
	ld	a5,-56(s0)
	sub	a4,a4,a5
	.loc 1 588 51
	ld	a5,-184(s0)
	add	a4,a4,a5
	.loc 1 588 61
	ld	a5,-200(s0)
	divu	a4,a4,a5
	.loc 1 588 23
	ld	a5,-192(s0)
	.loc 1 588 17
	add	a5,a4,a5
	sd	a5,-152(s0)
	.loc 1 589 33
	ld	a4,-48(s0)
	ld	a5,-56(s0)
	sub	a4,a4,a5
	.loc 1 589 48
	ld	a5,-184(s0)
	add	a4,a4,a5
	.loc 1 589 58
	ld	a5,-200(s0)
	.loc 1 589 20
	remu	a5,a4,a5
	sd	a5,-160(s0)
	.loc 1 590 9
	ld	a5,-160(s0)
	sext.w	a5,a5
	ld	a4,-152(s0)
	sext.w	a4,a4
	lla	a2,.LC5
	mv	a1,a4
	mv	a0,a5
	call	ShellPrintEx@plt
	.loc 1 591 14
	li	a5,1
	sb	a5,-17(s0)
	.loc 1 592 9
	j	.L76
.L75:
	.loc 1 595 12
	ld	a5,-56(s0)
	beq	a5,zero,.L124
	.loc 1 600 23
	ld	a5,-56(s0)
	addi	a5,a5,-1
	sd	a5,-56(s0)
	.loc 1 601 18
	ld	a5,-56(s0)
	sd	a5,-32(s0)
	.loc 1 602 18
	li	a5,1
	sd	a5,-40(s0)
	.loc 1 603 34
	ld	a5,-56(s0)
	slli	a5,a5,1
	ld	a4,-136(s0)
	add	a3,a4,a5
	.loc 1 603 79
	ld	a5,-56(s0)
	addi	a5,a5,1
	slli	a5,a5,1
	ld	a4,-136(s0)
	add	a1,a4,a5
	.loc 1 603 113
	ld	a4,-48(s0)
	ld	a5,-56(s0)
	sub	a5,a4,a5
	.loc 1 603 100
	slli	a5,a5,1
	.loc 1 603 11
	mv	a2,a5
	mv	a0,a3
	call	CopyMem@plt
	.loc 1 608 11
	ld	a5,-200(s0)
	addi	a3,s0,-192
	addi	a4,s0,-184
	mv	a2,a3
	mv	a1,a4
	mv	a0,a5
	call	MoveCursorBackward
	.loc 1 611 9
	j	.L124
.L73:
	.loc 1 614 12
	lbu	a5,-105(s0)
	andi	a5,a5,0xff
	bne	a5,zero,.L78
	.loc 1 615 22
	sd	zero,-120(s0)
	.loc 1 619 20
	ld	a5,-256(s0)
	ld	a5,0(a5)
	addi	a4,s0,-176
	addi	a3,s0,-224
	mv	a2,a5
	ld	a1,-48(s0)
	ld	a0,-136(s0)
	call	CreateTabCompletionList
	sd	a0,-104(s0)
	.loc 1 620 15
	ld	a5,-104(s0)
	.loc 1 620 14
	blt	a5,zero,.L78
	.loc 1 621 28
	li	a5,1
	sb	a5,-105(s0)
.L78:
	.loc 1 630 12
	lbu	a5,-105(s0)
	andi	a5,a5,0xff
	beq	a5,zero,.L125
	.loc 1 636 14
	ld	a5,-120(s0)
	bne	a5,zero,.L80
	.loc 1 637 79
	ld	a5,-224(s0)
	.loc 1 637 49
	mv	a0,a5
	call	GetFirstNode@plt
	sd	a0,-120(s0)
	j	.L81
.L80:
	.loc 1 639 78
	ld	a5,-224(s0)
	.loc 1 639 62
	mv	a4,a5
	.loc 1 639 86
	ld	a5,-120(s0)
	.loc 1 639 49
	mv	a1,a5
	mv	a0,a4
	call	GetNextNode@plt
	sd	a0,-120(s0)
.L81:
	.loc 1 645 39
	ld	a5,-224(s0)
	.loc 1 645 23
	mv	a4,a5
	.loc 1 645 47
	ld	a5,-120(s0)
	.loc 1 645 15
	mv	a1,a5
	mv	a0,a4
	call	IsNull@plt
	mv	a5,a0
	.loc 1 645 14 discriminator 1
	beq	a5,zero,.L125
	.loc 1 646 78
	ld	a5,-224(s0)
	.loc 1 646 62
	mv	a4,a5
	.loc 1 646 86
	ld	a5,-120(s0)
	.loc 1 646 49
	mv	a1,a5
	mv	a0,a4
	call	GetNextNode@plt
	sd	a0,-120(s0)
	.loc 1 650 9
	j	.L125
.L72:
	.loc 1 653 16
	lhu	a5,-214(s0)
	.loc 1 653 12
	sext.w	a4,a5
	li	a5,31
	bleu	a4,a5,.L126
	.loc 1 657 36
	ld	a5,-64(s0)
	addi	a5,a5,-1
	.loc 1 657 14
	ld	a4,-48(s0)
	bne	a4,a5,.L83
	.loc 1 657 76 discriminator 1
	la	a5,ShellInfoObject
	lbu	a5,120(a5)
	.loc 1 657 41 discriminator 1
	bne	a5,zero,.L76
	.loc 1 657 88 discriminator 2
	ld	a4,-56(s0)
	ld	a5,-48(s0)
	beq	a4,a5,.L76
.L83:
	.loc 1 665 46
	la	a5,ShellInfoObject
	lbu	a5,120(a5)
	.loc 1 665 14
	beq	a5,zero,.L84
	.loc 1 666 51
	ld	a5,-56(s0)
	addi	a5,a5,1
	slli	a5,a5,1
	ld	a4,-136(s0)
	add	a3,a4,a5
	.loc 1 666 70
	ld	a5,-56(s0)
	slli	a5,a5,1
	ld	a4,-136(s0)
	add	a1,a4,a5
	.loc 1 666 97
	ld	a4,-48(s0)
	ld	a5,-56(s0)
	sub	a5,a4,a5
	.loc 1 666 112
	slli	a5,a5,1
	.loc 1 666 13
	mv	a2,a5
	mv	a0,a3
	call	CopyMem@plt
.L84:
	.loc 1 669 24
	ld	a5,-56(s0)
	slli	a5,a5,1
	ld	a4,-136(s0)
	add	a5,a4,a5
	.loc 1 669 44
	lhu	a4,-214(s0)
	.loc 1 669 39
	sh	a4,0(a5)
	.loc 1 670 18
	ld	a5,-56(s0)
	sd	a5,-32(s0)
	.loc 1 672 24
	ld	a5,-56(s0)
	addi	a5,a5,1
	sd	a5,-56(s0)
	.loc 1 673 24
	li	a5,1
	sd	a5,-72(s0)
	.loc 1 676 9
	j	.L126
.L74:
	.loc 1 679 20
	lhu	a5,-216(s0)
	sext.w	a5,a5
	.loc 1 679 9
	li	a4,23
	beq	a5,a4,.L85
	li	a4,23
	bgt	a5,a4,.L76
	li	a4,17
	beq	a5,a4,.L86
	li	a4,17
	bgt	a5,a4,.L76
	li	a4,8
	beq	a5,a4,.L87
	li	a4,8
	bgt	a5,a4,.L76
	li	a4,7
	beq	a5,a4,.L88
	li	a4,7
	bgt	a5,a4,.L76
	li	a4,6
	beq	a5,a4,.L89
	li	a4,6
	bgt	a5,a4,.L76
	li	a4,5
	beq	a5,a4,.L90
	li	a4,5
	bgt	a5,a4,.L76
	li	a4,4
	beq	a5,a4,.L91
	li	a4,4
	bgt	a5,a4,.L76
	li	a4,3
	beq	a5,a4,.L92
	li	a4,3
	bgt	a5,a4,.L76
	li	a4,1
	beq	a5,a4,.L93
	li	a4,2
	beq	a5,a4,.L94
	j	.L76
.L87:
	.loc 1 684 16
	ld	a5,-48(s0)
	beq	a5,zero,.L127
	.loc 1 685 22
	ld	a5,-56(s0)
	sd	a5,-32(s0)
	.loc 1 686 22
	li	a5,1
	sd	a5,-40(s0)
	.loc 1 687 38
	ld	a5,-56(s0)
	slli	a5,a5,1
	ld	a4,-136(s0)
	add	a3,a4,a5
	.loc 1 687 83
	ld	a5,-56(s0)
	addi	a5,a5,1
	slli	a5,a5,1
	ld	a4,-136(s0)
	add	a1,a4,a5
	.loc 1 687 117
	ld	a4,-48(s0)
	ld	a5,-56(s0)
	sub	a5,a4,a5
	.loc 1 687 104
	slli	a5,a5,1
	.loc 1 687 15
	mv	a2,a5
	mv	a0,a3
	call	CopyMem@plt
	.loc 1 690 13
	j	.L127
.L93:
	.loc 1 696 108
	ld	a5,-80(s0)
	.loc 1 696 37
	mv	a1,a5
	la	a5,ShellInfoObject
	addi	a0,a5,80
	call	GetPreviousNode@plt
	sd	a0,-88(s0)
	.loc 1 697 79
	ld	a5,-80(s0)
	.loc 1 697 17
	mv	a1,a5
	la	a5,ShellInfoObject
	addi	a0,a5,80
	call	IsNull@plt
	mv	a5,a0
	.loc 1 697 16 discriminator 1
	beq	a5,zero,.L128
	.loc 1 698 110
	ld	a5,-80(s0)
	.loc 1 698 39
	mv	a1,a5
	la	a5,ShellInfoObject
	addi	a0,a5,80
	call	GetPreviousNode@plt
	sd	a0,-88(s0)
	.loc 1 701 13
	j	.L128
.L94:
	.loc 1 707 104
	ld	a5,-80(s0)
	.loc 1 707 37
	mv	a1,a5
	la	a5,ShellInfoObject
	addi	a0,a5,80
	call	GetNextNode@plt
	sd	a0,-88(s0)
	.loc 1 708 16
	ld	a4,-88(s0)
	la	a5,ShellInfoObject
	addi	a5,a5,80
	bne	a4,a5,.L129
	.loc 1 709 106
	ld	a5,-80(s0)
	.loc 1 709 39
	mv	a1,a5
	la	a5,ShellInfoObject
	addi	a0,a5,80
	call	GetNextNode@plt
	sd	a0,-88(s0)
	.loc 1 712 13
	j	.L129
.L91:
	.loc 1 718 16
	ld	a5,-56(s0)
	beq	a5,zero,.L130
	.loc 1 719 15
	ld	a5,-56(s0)
	addi	a5,a5,-1
	sd	a5,-56(s0)
	.loc 1 720 15
	ld	a5,-200(s0)
	addi	a3,s0,-192
	addi	a4,s0,-184
	mv	a2,a3
	mv	a1,a4
	mv	a0,a5
	call	MoveCursorBackward
	.loc 1 723 13
	j	.L130
.L92:
	.loc 1 729 16
	ld	a4,-56(s0)
	ld	a5,-48(s0)
	bgeu	a4,a5,.L131
	.loc 1 730 15
	ld	a5,-56(s0)
	addi	a5,a5,1
	sd	a5,-56(s0)
	.loc 1 731 15
	ld	a5,-200(s0)
	ld	a4,-208(s0)
	addi	a3,s0,-192
	addi	a2,s0,-184
	mv	a1,a4
	mv	a0,a5
	call	MoveCursorForward
	.loc 1 734 13
	j	.L131
.L90:
	.loc 1 740 17
	ld	a4,-192(s0)
	.loc 1 740 34
	ld	a3,-56(s0)
	ld	a5,-144(s0)
	add	a3,a3,a5
	.loc 1 740 49
	ld	a5,-200(s0)
	divu	a5,a3,a5
	.loc 1 740 17
	sub	a5,a4,a5
	sd	a5,-192(s0)
	.loc 1 741 20
	ld	a5,-144(s0)
	sd	a5,-184(s0)
	.loc 1 742 26
	sd	zero,-56(s0)
	.loc 1 743 13
	j	.L76
.L89:
	.loc 1 749 40
	ld	a4,-48(s0)
	ld	a5,-56(s0)
	sub	a4,a4,a5
	.loc 1 749 55
	ld	a5,-184(s0)
	add	a4,a4,a5
	.loc 1 749 65
	ld	a5,-200(s0)
	divu	a4,a4,a5
	.loc 1 749 27
	ld	a5,-192(s0)
	.loc 1 749 21
	add	a5,a4,a5
	sd	a5,-152(s0)
	.loc 1 750 37
	ld	a4,-48(s0)
	ld	a5,-56(s0)
	sub	a4,a4,a5
	.loc 1 750 52
	ld	a5,-184(s0)
	add	a4,a4,a5
	.loc 1 750 62
	ld	a5,-200(s0)
	.loc 1 750 24
	remu	a5,a4,a5
	sd	a5,-160(s0)
	.loc 1 751 17
	ld	a5,-152(s0)
	sd	a5,-192(s0)
	.loc 1 752 20
	ld	a5,-160(s0)
	sd	a5,-184(s0)
	.loc 1 753 26
	ld	a5,-48(s0)
	sd	a5,-56(s0)
	.loc 1 754 13
	j	.L76
.L85:
	.loc 1 760 30
	ld	a5,-136(s0)
	sh	zero,0(a5)
	.loc 1 761 20
	sd	zero,-32(s0)
	.loc 1 762 20
	ld	a5,-48(s0)
	sd	a5,-40(s0)
	.loc 1 763 17
	ld	a4,-192(s0)
	.loc 1 763 34
	ld	a3,-56(s0)
	ld	a5,-144(s0)
	add	a3,a3,a5
	.loc 1 763 49
	ld	a5,-200(s0)
	divu	a5,a3,a5
	.loc 1 763 17
	sub	a5,a4,a5
	sd	a5,-192(s0)
	.loc 1 764 20
	ld	a5,-144(s0)
	sd	a5,-184(s0)
	.loc 1 765 26
	sd	zero,-72(s0)
	.loc 1 766 13
	j	.L76
.L88:
	.loc 1 772 100
	la	a5,ShellInfoObject
	lbu	a5,120(a5)
	.loc 1 772 58
	sext.w	a5,a5
	seqz	a5,a5
	andi	a5,a5,0xff
	mv	a4,a5
	.loc 1 772 56
	la	a5,ShellInfoObject
	sb	a4,120(a5)
	.loc 1 773 13
	j	.L76
.L86:
	.loc 1 779 13
	ld	a5,-200(s0)
	ld	a4,-208(s0)
	li	a2,4
	mv	a1,a4
	mv	a0,a5
	call	PrintCommandHistory
	.loc 1 780 28
	ld	a5,-136(s0)
	sh	zero,0(a5)
	.loc 1 781 18
	li	a5,1
	sb	a5,-17(s0)
	.loc 1 782 13
	j	.L76
.L124:
	.loc 1 611 9
	nop
	j	.L76
.L125:
	.loc 1 650 9
	nop
	j	.L76
.L126:
	.loc 1 676 9
	nop
	j	.L76
.L127:
	.loc 1 690 13
	nop
	j	.L76
.L128:
	.loc 1 701 13
	nop
	j	.L76
.L129:
	.loc 1 712 13
	nop
	j	.L76
.L130:
	.loc 1 723 13
	nop
	j	.L76
.L131:
	.loc 1 734 13
	nop
.L76:
	.loc 1 786 8
	lbu	a5,-17(s0)
	andi	a5,a5,0xff
	bne	a5,zero,.L132
	.loc 1 794 8
	lbu	a5,-105(s0)
	andi	a5,a5,0xff
	beq	a5,zero,.L101
	.loc 1 795 22
	ld	a5,-256(s0)
	ld	a5,0(a5)
	mv	a0,a5
	call	AllocateZeroPool@plt
	sd	a0,-128(s0)
	.loc 1 796 10
	ld	a5,-128(s0)
	bne	a5,zero,.L101
	.loc 1 797 16
	li	a5,-1
	slli	a5,a5,63
	addi	a5,a5,9
	sd	a5,-104(s0)
.L101:
	.loc 1 801 8
	lbu	a5,-105(s0)
	andi	a5,a5,0xff
	beq	a5,zero,.L102
	.loc 1 801 24 discriminator 1
	ld	a5,-128(s0)
	beq	a5,zero,.L102
	.loc 1 805 29
	ld	a4,-176(s0)
	ld	a5,-144(s0)
	add	a4,a4,a5
	.loc 1 805 45
	ld	a5,-200(s0)
	remu	a5,a4,a5
	.loc 1 805 14
	sd	a5,-184(s0)
	.loc 1 806 72
	ld	a4,-176(s0)
	ld	a5,-144(s0)
	add	a4,a4,a5
	.loc 1 806 88
	ld	a5,-200(s0)
	divu	a4,a4,a5
	.loc 1 806 27
	ld	a3,-144(s0)
	ld	a5,-56(s0)
	add	a3,a3,a5
	.loc 1 806 43
	ld	a5,-200(s0)
	divu	a5,a3,a5
	.loc 1 806 11
	sub	a4,a4,a5
	ld	a5,-192(s0)
	add	a5,a4,a5
	sd	a5,-192(s0)
	.loc 1 807 22
	ld	a5,-120(s0)
	ld	a5,32(a5)
	mv	a0,a5
	call	StrLen@plt
	sd	a0,-72(s0)
	.loc 1 812 11
	ld	a5,-120(s0)
	ld	a5,32(a5)
	lla	a1,.LC6
	mv	a0,a5
	call	StrStr@plt
	mv	a5,a0
	.loc 1 812 10 discriminator 1
	beq	a5,zero,.L103
	.loc 1 813 25
	ld	a5,-128(s0)
	li	a4,34
	sh	a4,0(a5)
	.loc 1 814 31
	ld	a5,-128(s0)
	addi	a4,a5,2
	.loc 1 814 46
	ld	a5,-120(s0)
	ld	a3,32(a5)
	.loc 1 814 71
	ld	a5,-72(s0)
	slli	a5,a5,1
	.loc 1 814 9
	mv	a2,a5
	mv	a1,a3
	mv	a0,a4
	call	CopyMem@plt
	.loc 1 815 21
	ld	a5,-72(s0)
	addi	a5,a5,1
	slli	a5,a5,1
	ld	a4,-128(s0)
	add	a5,a4,a5
	.loc 1 815 40
	li	a4,34
	sh	a4,0(a5)
	.loc 1 816 21
	ld	a5,-72(s0)
	addi	a5,a5,2
	slli	a5,a5,1
	ld	a4,-128(s0)
	add	a5,a4,a5
	.loc 1 816 40
	sh	zero,0(a5)
	j	.L104
.L103:
	.loc 1 818 42
	ld	a5,-120(s0)
	ld	a4,32(a5)
	.loc 1 818 67
	ld	a5,-72(s0)
	slli	a5,a5,1
	.loc 1 818 9
	mv	a2,a5
	mv	a1,a4
	ld	a0,-128(s0)
	call	CopyMem@plt
	.loc 1 819 21
	ld	a5,-72(s0)
	slli	a5,a5,1
	ld	a4,-128(s0)
	add	a5,a4,a5
	.loc 1 819 36
	sh	zero,0(a5)
.L104:
	.loc 1 822 22
	ld	a0,-128(s0)
	call	StrLen@plt
	mv	a4,a0
	.loc 1 822 53 discriminator 1
	ld	a5,-64(s0)
	addi	a5,a5,-1
	.loc 1 822 81 discriminator 1
	bgeu	a4,a5,.L105
	.loc 1 822 59 discriminator 2
	ld	a0,-128(s0)
	call	StrLen@plt
	sd	a0,-72(s0)
	j	.L106
.L105:
	.loc 1 822 20 discriminator 3
	ld	a5,-64(s0)
	addi	a5,a5,-1
	sd	a5,-72(s0)
.L106:
	.loc 1 823 30
	ld	a5,-176(s0)
	slli	a5,a5,1
	ld	a4,-136(s0)
	add	a4,a4,a5
	.loc 1 823 73
	ld	a5,-72(s0)
	slli	a5,a5,1
	.loc 1 823 7
	mv	a2,a5
	ld	a1,-128(s0)
	mv	a0,a4
	call	CopyMem@plt
	.loc 1 824 34
	ld	a4,-176(s0)
	ld	a5,-72(s0)
	add	a5,a4,a5
	.loc 1 824 20
	slli	a5,a5,1
	ld	a4,-136(s0)
	add	a5,a4,a5
	.loc 1 824 50
	sh	zero,0(a5)
	.loc 1 825 35
	ld	a5,-176(s0)
	.loc 1 825 20
	ld	a4,-72(s0)
	add	a5,a4,a5
	sd	a5,-56(s0)
	.loc 1 826 14
	ld	a5,-176(s0)
	sd	a5,-32(s0)
	.loc 1 827 36
	ld	a4,-176(s0)
	ld	a5,-72(s0)
	add	a5,a4,a5
	.loc 1 827 10
	ld	a4,-48(s0)
	bleu	a4,a5,.L107
	.loc 1 828 28
	ld	a5,-176(s0)
	ld	a4,-48(s0)
	sub	a4,a4,a5
	.loc 1 828 16
	ld	a5,-72(s0)
	sub	a5,a4,a5
	sd	a5,-40(s0)
.L107:
	.loc 1 831 7
	ld	a0,-128(s0)
	call	FreePool@plt
.L102:
	.loc 1 838 8
	ld	a4,-88(s0)
	la	a5,ShellInfoObject
	addi	a5,a5,80
	beq	a4,a5,.L108
	.loc 1 839 14
	ld	a5,-144(s0)
	sd	a5,-184(s0)
	.loc 1 840 11
	ld	a4,-192(s0)
	.loc 1 840 28
	ld	a3,-56(s0)
	ld	a5,-144(s0)
	add	a3,a3,a5
	.loc 1 840 43
	ld	a5,-200(s0)
	divu	a5,a3,a5
	.loc 1 840 11
	sub	a5,a4,a5
	sd	a5,-192(s0)
	.loc 1 842 15
	ld	a5,-88(s0)
	sd	a5,-80(s0)
	.loc 1 843 14
	la	a5,ShellInfoObject
	addi	a5,a5,80
	sd	a5,-88(s0)
	.loc 1 845 37
	ld	a5,-80(s0)
	ld	a5,16(a5)
	.loc 1 845 22
	mv	a0,a5
	call	StrLen@plt
	mv	a4,a0
	.loc 1 845 56 discriminator 1
	ld	a5,-64(s0)
	addi	a5,a5,-1
	.loc 1 845 87 discriminator 1
	bgeu	a4,a5,.L109
	.loc 1 845 77 discriminator 2
	ld	a5,-80(s0)
	ld	a5,16(a5)
	.loc 1 845 62 discriminator 2
	mv	a0,a5
	call	StrLen@plt
	sd	a0,-72(s0)
	j	.L110
.L109:
	.loc 1 845 20 discriminator 3
	ld	a5,-64(s0)
	addi	a5,a5,-1
	sd	a5,-72(s0)
.L110:
	.loc 1 846 38
	ld	a5,-80(s0)
	ld	a4,16(a5)
	.loc 1 846 61
	ld	a5,-72(s0)
	slli	a5,a5,1
	.loc 1 846 7
	mv	a2,a5
	mv	a1,a4
	ld	a0,-136(s0)
	call	CopyMem@plt
	.loc 1 847 20
	ld	a5,-72(s0)
	slli	a5,a5,1
	ld	a4,-136(s0)
	add	a5,a4,a5
	.loc 1 847 35
	sh	zero,0(a5)
	.loc 1 849 20
	ld	a5,-72(s0)
	sd	a5,-56(s0)
	.loc 1 854 14
	sd	zero,-32(s0)
	.loc 1 855 10
	ld	a4,-48(s0)
	ld	a5,-72(s0)
	bleu	a4,a5,.L108
	.loc 1 859 16
	ld	a4,-48(s0)
	ld	a5,-72(s0)
	sub	a5,a4,a5
	sd	a5,-40(s0)
.L108:
	.loc 1 866 8
	ld	a4,-32(s0)
	li	a5,-1
	beq	a4,a5,.L111
	.loc 1 867 7
	ld	a5,-184(s0)
	sext.w	a0,a5
	ld	a5,-192(s0)
	sext.w	a1,a5
	.loc 1 867 73
	ld	a5,-32(s0)
	slli	a5,a5,1
	.loc 1 867 7
	ld	a4,-136(s0)
	add	a3,a4,a5
	lla	a5,.LC7
	ld	a4,-40(s0)
	lla	a2,.LC8
	call	ShellPrintEx@plt
	.loc 1 868 19
	ld	a0,-136(s0)
	call	StrLen@plt
	sd	a0,-48(s0)
	.loc 1 870 10
	ld	a5,-40(s0)
	beq	a5,zero,.L112
	.loc 1 871 31
	ld	a5,-48(s0)
	slli	a5,a5,1
	ld	a4,-136(s0)
	add	a4,a4,a5
	.loc 1 871 51
	ld	a5,-40(s0)
	slli	a5,a5,1
	.loc 1 871 9
	li	a2,0
	mv	a1,a5
	mv	a0,a4
	call	SetMem@plt
.L112:
	.loc 1 874 10
	ld	a4,-56(s0)
	ld	a5,-48(s0)
	bleu	a4,a5,.L113
	.loc 1 875 22
	ld	a5,-48(s0)
	sd	a5,-56(s0)
.L113:
	.loc 1 878 14
	li	a5,-1
	sd	a5,-32(s0)
	.loc 1 885 15
	lhu	a5,-214(s0)
	.loc 1 885 10
	sext.w	a4,a5
	li	a5,8
	beq	a4,a5,.L114
	.loc 1 885 48 discriminator 1
	lhu	a5,-214(s0)
	.loc 1 885 39 discriminator 1
	bne	a5,zero,.L115
	.loc 1 885 74 discriminator 2
	lhu	a5,-216(s0)
	.loc 1 885 42 discriminator 2
	sext.w	a4,a5
	li	a5,8
	beq	a4,a5,.L114
.L115:
	.loc 1 889 36
	ld	a4,-48(s0)
	ld	a5,-56(s0)
	sub	a4,a4,a5
	.loc 1 889 51
	ld	a5,-184(s0)
	add	a4,a4,a5
	.loc 1 889 60
	ld	a5,-72(s0)
	add	a4,a4,a5
	.loc 1 889 76
	ld	a5,-200(s0)
	divu	a4,a4,a5
	.loc 1 889 23
	ld	a5,-192(s0)
	.loc 1 889 17
	add	a5,a4,a5
	sd	a5,-152(s0)
	.loc 1 890 33
	ld	a4,-48(s0)
	ld	a5,-56(s0)
	sub	a4,a4,a5
	.loc 1 890 48
	ld	a5,-184(s0)
	add	a4,a4,a5
	.loc 1 890 57
	ld	a5,-72(s0)
	add	a4,a4,a5
	.loc 1 890 73
	ld	a5,-200(s0)
	.loc 1 890 20
	remu	a5,a4,a5
	sd	a5,-160(s0)
	.loc 1 899 12
	ld	a5,-160(s0)
	bne	a5,zero,.L116
	.loc 1 899 43 discriminator 1
	ld	a5,-208(s0)
	.loc 1 899 31 discriminator 1
	ld	a4,-152(s0)
	bltu	a4,a5,.L116
	.loc 1 899 64 discriminator 2
	ld	a5,-192(s0)
	.loc 1 899 56 discriminator 2
	ld	a4,-152(s0)
	beq	a4,a5,.L116
	.loc 1 900 14
	ld	a5,-192(s0)
	addi	a5,a5,-1
	sd	a5,-192(s0)
.L116:
	.loc 1 908 20
	ld	a4,-184(s0)
	ld	a5,-72(s0)
	add	a4,a4,a5
	.loc 1 908 35
	ld	a5,-200(s0)
	.loc 1 908 12
	bltu	a4,a5,.L117
	.loc 1 909 37
	ld	a4,-184(s0)
	ld	a5,-200(s0)
	sub	a5,a4,a5
	.loc 1 909 22
	ld	a4,-72(s0)
	add	a5,a4,a5
	sd	a5,-168(s0)
	.loc 1 911 29
	ld	a5,-200(s0)
	ld	a4,-168(s0)
	divu	a4,a4,a5
	.loc 1 911 15
	ld	a5,-192(s0)
	add	a5,a4,a5
	addi	a5,a5,1
	sd	a5,-192(s0)
	.loc 1 912 30
	ld	a5,-208(s0)
	addi	a4,a5,-1
	.loc 1 912 19
	ld	a5,-192(s0)
	.loc 1 912 14
	bgeu	a4,a5,.L118
	.loc 1 913 28
	ld	a5,-208(s0)
	addi	a5,a5,-1
	.loc 1 913 17
	sd	a5,-192(s0)
.L118:
	.loc 1 916 31
	ld	a5,-200(s0)
	ld	a4,-168(s0)
	remu	a5,a4,a5
	.loc 1 916 18
	sd	a5,-184(s0)
	j	.L114
.L117:
	.loc 1 918 18
	ld	a4,-184(s0)
	ld	a5,-72(s0)
	add	a5,a4,a5
	sd	a5,-184(s0)
.L114:
	.loc 1 922 14
	sd	zero,-40(s0)
.L111:
	.loc 1 928 8
	la	a5,gST
	ld	a5,0(a5)
	ld	a5,64(a5)
	.loc 1 928 16
	ld	a5,56(a5)
	.loc 1 928 40
	la	a4,gST
	ld	a4,0(a4)
	.loc 1 928 5
	ld	a4,64(a4)
	ld	a3,-184(s0)
	ld	a2,-192(s0)
	mv	a1,a3
	mv	a0,a4
	jalr	a5
.LVL10:
	j	.L62
.L123:
	.loc 1 542 9
	nop
.L62:
	.loc 1 929 12
	lbu	a5,-17(s0)
	andi	a5,a5,0xff
	beq	a5,zero,.L119
	j	.L63
.L132:
	.loc 1 787 7
	nop
.L63:
	.loc 1 931 6
	ld	a5,-136(s0)
	beq	a5,zero,.L120
	.loc 1 931 43 discriminator 1
	ld	a0,-136(s0)
	call	StrLen@plt
	mv	a5,a0
	.loc 1 931 39 discriminator 2
	beq	a5,zero,.L120
	.loc 1 935 5
	ld	a0,-136(s0)
	call	AddLineToCommandHistory@plt
.L120:
	.loc 1 941 27
	ld	a5,-48(s0)
	slli	a4,a5,1
	.loc 1 941 15
	ld	a5,-256(s0)
	sd	a4,0(a5)
	.loc 1 947 23
	ld	a5,-224(s0)
	.loc 1 947 6
	beq	a5,zero,.L121
	.loc 1 948 20
	la	a5,ShellInfoObject
	ld	a5,8(a5)
	.loc 1 948 40
	ld	a5,112(a5)
	.loc 1 948 5
	addi	a4,s0,-224
	mv	a0,a4
	jalr	a5
.LVL11:
.L121:
	.loc 1 953 10
	ld	a5,-104(s0)
.L122:
	.loc 1 954 1
	mv	a0,a5
	ld	ra,264(sp)
	.cfi_restore 1
	ld	s0,256(sp)
	.cfi_restore 8
	.cfi_def_cfa 2, 272
	addi	sp,sp,272
	.cfi_def_cfa_offset 0
	jr	ra
	.cfi_endproc
.LFE14:
	.size	FileInterfaceStdInRead, .-FileInterfaceStdInRead
	.globl	FileInterfaceStdIn
	.section	.data.rel.local.FileInterfaceStdIn,"aw"
	.align	3
	.type	FileInterfaceStdIn, @object
	.size	FileInterfaceStdIn, 120
FileInterfaceStdIn:
	.dword	65536
	.dword	FileInterfaceOpenNotFound
	.dword	FileInterfaceNopGeneric
	.dword	FileInterfaceNopGeneric
	.dword	FileInterfaceStdInRead
	.dword	FileInterfaceStdInWrite
	.dword	FileInterfaceNopGetPosition
	.dword	FileInterfaceNopSetPosition
	.dword	FileInterfaceNopGetInfo
	.dword	FileInterfaceNopSetInfo
	.dword	FileInterfaceNopGeneric
	.zero	32
	.globl	FileInterfaceStdOut
	.section	.data.rel.local.FileInterfaceStdOut,"aw"
	.align	3
	.type	FileInterfaceStdOut, @object
	.size	FileInterfaceStdOut, 120
FileInterfaceStdOut:
	.dword	65536
	.dword	FileInterfaceOpenNotFound
	.dword	FileInterfaceNopGeneric
	.dword	FileInterfaceNopGeneric
	.dword	FileInterfaceStdOutRead
	.dword	FileInterfaceStdOutWrite
	.dword	FileInterfaceNopGetPosition
	.dword	FileInterfaceNopSetPosition
	.dword	FileInterfaceNopGetInfo
	.dword	FileInterfaceNopSetInfo
	.dword	FileInterfaceNopGeneric
	.zero	32
	.globl	FileInterfaceStdErr
	.section	.data.rel.local.FileInterfaceStdErr,"aw"
	.align	3
	.type	FileInterfaceStdErr, @object
	.size	FileInterfaceStdErr, 120
FileInterfaceStdErr:
	.dword	65536
	.dword	FileInterfaceOpenNotFound
	.dword	FileInterfaceNopGeneric
	.dword	FileInterfaceNopGeneric
	.dword	FileInterfaceStdErrRead
	.dword	FileInterfaceStdErrWrite
	.dword	FileInterfaceNopGetPosition
	.dword	FileInterfaceNopSetPosition
	.dword	FileInterfaceNopGetInfo
	.dword	FileInterfaceNopSetInfo
	.dword	FileInterfaceNopGeneric
	.zero	32
	.globl	FileInterfaceNulFile
	.section	.data.rel.local.FileInterfaceNulFile,"aw"
	.align	3
	.type	FileInterfaceNulFile, @object
	.size	FileInterfaceNulFile, 120
FileInterfaceNulFile:
	.dword	65536
	.dword	FileInterfaceOpenNotFound
	.dword	FileInterfaceNopGeneric
	.dword	FileInterfaceNopGeneric
	.dword	FileInterfaceNulRead
	.dword	FileInterfaceNulWrite
	.dword	FileInterfaceNopGetPosition
	.dword	FileInterfaceNopSetPosition
	.dword	FileInterfaceNopGetInfo
	.dword	FileInterfaceNopSetInfo
	.dword	FileInterfaceNopGeneric
	.zero	32
	.section	.text.FileInterfaceEnvClose,"ax",@progbits
	.align	1
	.globl	FileInterfaceEnvClose
	.type	FileInterfaceEnvClose, @function
FileInterfaceEnvClose:
.LFB15:
	.loc 1 1051 1
	.cfi_startproc
	addi	sp,sp,-80
	.cfi_def_cfa_offset 80
	sd	ra,72(sp)
	sd	s0,64(sp)
	.cfi_offset 1, -8
	.cfi_offset 8, -16
	addi	s0,sp,80
	.cfi_def_cfa 8, 0
	sd	a0,-72(s0)
	.loc 1 1064 13
	sd	zero,-24(s0)
	.loc 1 1065 11
	sd	zero,-48(s0)
	.loc 1 1066 13
	sd	zero,-40(s0)
	.loc 1 1068 66
	ld	a5,-72(s0)
	addi	a5,a5,88
	.loc 1 1068 12
	addi	a4,s0,-49
	mv	a1,a4
	mv	a0,a5
	call	IsVolatileEnv@plt
	sd	a0,-32(s0)
	.loc 1 1069 34
	ld	a5,-32(s0)
	.loc 1 1069 6
	bge	a5,zero,.L134
	.loc 1 1070 12
	ld	a5,-32(s0)
	j	.L142
.L134:
	.loc 1 1073 16
	la	a5,gRT
	ld	a5,0(a5)
	ld	a5,72(a5)
	.loc 1 1073 39
	ld	a4,-72(s0)
	addi	a0,a4,88
	.loc 1 1073 13
	addi	a3,s0,-48
	ld	a4,-24(s0)
	li	a2,0
	la	a1,gShellVariableGuid
	jalr	a5
.LVL12:
	sd	a0,-32(s0)
	.loc 1 1074 6
	ld	a4,-32(s0)
	li	a5,-1
	slli	a5,a5,63
	addi	a5,a5,5
	bne	a4,a5,.L136
	.loc 1 1075 25
	ld	a5,-48(s0)
	.loc 1 1075 15
	addi	a5,a5,2
	sd	a5,-40(s0)
	.loc 1 1076 17
	ld	a0,-40(s0)
	call	AllocateZeroPool@plt
	sd	a0,-24(s0)
	.loc 1 1077 8
	ld	a5,-24(s0)
	bne	a5,zero,.L137
	.loc 1 1078 14
	li	a5,-1
	slli	a5,a5,63
	addi	a5,a5,9
	j	.L142
.L137:
	.loc 1 1081 18
	la	a5,gRT
	ld	a5,0(a5)
	ld	a5,72(a5)
	.loc 1 1081 41
	ld	a4,-72(s0)
	addi	a0,a4,88
	.loc 1 1081 15
	addi	a3,s0,-48
	ld	a4,-24(s0)
	li	a2,0
	la	a1,gShellVariableGuid
	jalr	a5
.LVL13:
	sd	a0,-32(s0)
.L136:
	.loc 1 1084 7
	ld	a5,-32(s0)
	.loc 1 1084 6
	blt	a5,zero,.L138
	.loc 1 1084 61 discriminator 1
	ld	a5,-24(s0)
	beq	a5,zero,.L138
	.loc 1 1085 8
	ld	a4,-40(s0)
	li	a5,5
	bleu	a4,a5,.L138
	.loc 1 1086 33
	ld	a5,-40(s0)
	andi	a5,a5,-2
	addi	a5,a5,-4
	ld	a4,-24(s0)
	add	a5,a4,a5
	lhu	a5,0(a5)
	.loc 1 1086 10
	sext.w	a4,a5
	li	a5,10
	bne	a4,a5,.L139
	.loc 1 1087 33
	ld	a5,-40(s0)
	andi	a5,a5,-2
	addi	a5,a5,-6
	ld	a4,-24(s0)
	add	a5,a4,a5
	lhu	a5,0(a5)
	.loc 1 1086 78 discriminator 1
	sext.w	a4,a5
	li	a5,13
	bne	a4,a5,.L139
	.loc 1 1090 30
	ld	a5,-40(s0)
	andi	a5,a5,-2
	addi	a5,a5,-6
	ld	a4,-24(s0)
	add	a5,a4,a5
	.loc 1 1090 64
	sh	zero,0(a5)
	.loc 1 1094 19
	ld	a5,-40(s0)
	addi	a5,a5,-4
	sd	a5,-40(s0)
.L139:
	.loc 1 1097 11
	lbu	a5,-49(s0)
	.loc 1 1097 10
	beq	a5,zero,.L140
	.loc 1 1098 22
	la	a5,gRT
	ld	a5,0(a5)
	ld	a5,88(a5)
	.loc 1 1098 45
	ld	a4,-72(s0)
	addi	a0,a4,88
	.loc 1 1098 135
	ld	a4,-40(s0)
	addi	a3,a4,-2
	.loc 1 1098 19
	ld	a4,-24(s0)
	li	a2,2
	la	a1,gShellVariableGuid
	jalr	a5
.LVL14:
	sd	a0,-32(s0)
	.loc 1 1104 13
	ld	a5,-32(s0)
	.loc 1 1104 12
	blt	a5,zero,.L138
	.loc 1 1106 61
	ld	a5,-72(s0)
	addi	a5,a5,88
	.loc 1 1105 20
	li	a3,2
	ld	a2,-40(s0)
	ld	a1,-24(s0)
	mv	a0,a5
	call	ShellAddEnvVarToList@plt
	sd	a0,-32(s0)
	j	.L138
.L140:
	.loc 1 1113 22
	la	a5,gRT
	ld	a5,0(a5)
	ld	a5,88(a5)
	.loc 1 1113 45
	ld	a4,-72(s0)
	addi	a0,a4,88
	.loc 1 1113 146
	ld	a4,-40(s0)
	addi	a3,a4,-2
	.loc 1 1113 19
	ld	a4,-24(s0)
	li	a2,3
	la	a1,gShellVariableGuid
	jalr	a5
.LVL15:
	sd	a0,-32(s0)
	.loc 1 1119 13
	ld	a5,-32(s0)
	.loc 1 1119 12
	blt	a5,zero,.L138
	.loc 1 1121 61
	ld	a5,-72(s0)
	addi	a5,a5,88
	.loc 1 1120 20
	li	a3,3
	ld	a2,-40(s0)
	ld	a1,-24(s0)
	mv	a0,a5
	call	ShellAddEnvVarToList@plt
	sd	a0,-32(s0)
.L138:
	.loc 1 1131 11
	ld	a5,-24(s0)
	beq	a5,zero,.L141
	.loc 1 1131 43 discriminator 1
	ld	a0,-24(s0)
	call	FreePool@plt
	.loc 1 1131 78 discriminator 2
	sd	zero,-24(s0)
.L141:
	.loc 1 1132 3
	ld	a0,-72(s0)
	call	FreePool@plt
	.loc 1 1133 10
	ld	a5,-32(s0)
.L142:
	.loc 1 1134 1
	mv	a0,a5
	ld	ra,72(sp)
	.cfi_restore 1
	ld	s0,64(sp)
	.cfi_restore 8
	.cfi_def_cfa 2, 80
	addi	sp,sp,80
	.cfi_def_cfa_offset 0
	jr	ra
	.cfi_endproc
.LFE15:
	.size	FileInterfaceEnvClose, .-FileInterfaceEnvClose
	.section	.text.FileInterfaceEnvDelete,"ax",@progbits
	.align	1
	.globl	FileInterfaceEnvDelete
	.type	FileInterfaceEnvDelete, @function
FileInterfaceEnvDelete:
.LFB16:
	.loc 1 1148 1
	.cfi_startproc
	addi	sp,sp,-32
	.cfi_def_cfa_offset 32
	sd	ra,24(sp)
	sd	s0,16(sp)
	.cfi_offset 1, -8
	.cfi_offset 8, -16
	addi	s0,sp,32
	.cfi_def_cfa 8, 0
	sd	a0,-24(s0)
	.loc 1 1149 7
	la	a5,gRT
	ld	a5,0(a5)
	ld	a5,88(a5)
	.loc 1 1149 30
	ld	a4,-24(s0)
	addi	a0,a4,88
	.loc 1 1149 4
	li	a4,0
	li	a3,0
	li	a2,0
	la	a1,gShellVariableGuid
	jalr	a5
.LVL16:
	.loc 1 1150 11
	ld	a0,-24(s0)
	call	FileInterfaceEnvClose
	mv	a5,a0
	.loc 1 1151 1
	mv	a0,a5
	ld	ra,24(sp)
	.cfi_restore 1
	ld	s0,16(sp)
	.cfi_restore 8
	.cfi_def_cfa 2, 32
	addi	sp,sp,32
	.cfi_def_cfa_offset 0
	jr	ra
	.cfi_endproc
.LFE16:
	.size	FileInterfaceEnvDelete, .-FileInterfaceEnvDelete
	.section	.text.FileInterfaceEnvRead,"ax",@progbits
	.align	1
	.globl	FileInterfaceEnvRead
	.type	FileInterfaceEnvRead, @function
FileInterfaceEnvRead:
.LFB17:
	.loc 1 1169 1
	.cfi_startproc
	addi	sp,sp,-64
	.cfi_def_cfa_offset 64
	sd	ra,56(sp)
	sd	s0,48(sp)
	.cfi_offset 1, -8
	.cfi_offset 8, -16
	addi	s0,sp,64
	.cfi_def_cfa 8, 0
	sd	a0,-40(s0)
	sd	a1,-48(s0)
	sd	a2,-56(s0)
	.loc 1 1172 17
	ld	a5,-48(s0)
	ld	a5,0(a5)
	.loc 1 1172 47
	andi	a4,a5,-2
	.loc 1 1172 15
	ld	a5,-48(s0)
	sd	a4,0(a5)
	.loc 1 1173 7
	ld	a5,-48(s0)
	ld	a5,0(a5)
	.loc 1 1173 6
	beq	a5,zero,.L146
	.loc 1 1177 23
	la	a5,gUnicodeFileTag
	lhu	a4,0(a5)
	ld	a5,-56(s0)
	sh	a4,0(a5)
	.loc 1 1178 12
	ld	a5,-56(s0)
	addi	a5,a5,2
	sd	a5,-56(s0)
	.loc 1 1179 5
	ld	a5,-48(s0)
	ld	a5,0(a5)
	.loc 1 1179 17
	addi	a4,a5,-2
	ld	a5,-48(s0)
	sd	a4,0(a5)
.L146:
	.loc 1 1182 16
	la	a5,gRT
	ld	a5,0(a5)
	ld	a5,72(a5)
	.loc 1 1182 39
	ld	a4,-40(s0)
	addi	a0,a4,88
	.loc 1 1182 13
	ld	a4,-56(s0)
	ld	a3,-48(s0)
	li	a2,0
	la	a1,gShellVariableGuid
	jalr	a5
.LVL17:
	sd	a0,-24(s0)
	.loc 1 1187 7
	ld	a5,-24(s0)
	.loc 1 1187 6
	bge	a5,zero,.L147
	.loc 1 1187 61 discriminator 1
	ld	a4,-24(s0)
	li	a5,-1
	slli	a5,a5,63
	addi	a5,a5,5
	bne	a4,a5,.L148
.L147:
	.loc 1 1191 5
	ld	a5,-48(s0)
	ld	a5,0(a5)
	.loc 1 1191 17
	addi	a4,a5,2
	ld	a5,-48(s0)
	sd	a4,0(a5)
.L148:
	.loc 1 1194 10
	ld	a5,-24(s0)
	.loc 1 1195 1
	mv	a0,a5
	ld	ra,56(sp)
	.cfi_restore 1
	ld	s0,48(sp)
	.cfi_restore 8
	.cfi_def_cfa 2, 64
	addi	sp,sp,64
	.cfi_def_cfa_offset 0
	jr	ra
	.cfi_endproc
.LFE17:
	.size	FileInterfaceEnvRead, .-FileInterfaceEnvRead
	.section	.text.FileInterfaceEnvVolWrite,"ax",@progbits
	.align	1
	.globl	FileInterfaceEnvVolWrite
	.type	FileInterfaceEnvVolWrite, @function
FileInterfaceEnvVolWrite:
.LFB18:
	.loc 1 1215 1
	.cfi_startproc
	addi	sp,sp,-80
	.cfi_def_cfa_offset 80
	sd	ra,72(sp)
	sd	s0,64(sp)
	.cfi_offset 1, -8
	.cfi_offset 8, -16
	addi	s0,sp,80
	.cfi_def_cfa 8, 0
	sd	a0,-56(s0)
	sd	a1,-64(s0)
	sd	a2,-72(s0)
	.loc 1 1221 13
	sd	zero,-40(s0)
	.loc 1 1222 11
	sd	zero,-48(s0)
	.loc 1 1223 13
	sd	zero,-32(s0)
	.loc 1 1225 16
	la	a5,gRT
	ld	a5,0(a5)
	ld	a5,72(a5)
	.loc 1 1225 39
	ld	a4,-56(s0)
	addi	a0,a4,88
	.loc 1 1225 13
	addi	a3,s0,-48
	ld	a4,-40(s0)
	li	a2,0
	la	a1,gShellVariableGuid
	jalr	a5
.LVL18:
	sd	a0,-24(s0)
	.loc 1 1226 6
	ld	a4,-24(s0)
	li	a5,-1
	slli	a5,a5,63
	addi	a5,a5,5
	bne	a4,a5,.L151
	.loc 1 1227 27
	ld	a5,-64(s0)
	ld	a4,0(a5)
	.loc 1 1227 25
	ld	a5,-48(s0)
	add	a5,a4,a5
	.loc 1 1227 15
	addi	a5,a5,2
	sd	a5,-32(s0)
	j	.L152
.L151:
	.loc 1 1228 13
	ld	a4,-24(s0)
	li	a5,-1
	slli	a5,a5,63
	addi	a5,a5,14
	bne	a4,a5,.L153
	.loc 1 1229 17
	ld	a5,-64(s0)
	ld	a5,0(a5)
	.loc 1 1229 15
	addi	a5,a5,2
	sd	a5,-32(s0)
	j	.L152
.L153:
	.loc 1 1231 12
	ld	a5,-24(s0)
	j	.L160
.L152:
	.loc 1 1234 15
	ld	a0,-32(s0)
	call	AllocateZeroPool@plt
	sd	a0,-40(s0)
	.loc 1 1235 6
	ld	a5,-40(s0)
	bne	a5,zero,.L155
	.loc 1 1236 12
	li	a5,-1
	slli	a5,a5,63
	addi	a5,a5,9
	j	.L160
.L155:
	.loc 1 1239 6
	ld	a4,-24(s0)
	li	a5,-1
	slli	a5,a5,63
	addi	a5,a5,5
	bne	a4,a5,.L156
	.loc 1 1240 18
	la	a5,gRT
	ld	a5,0(a5)
	ld	a5,72(a5)
	.loc 1 1240 41
	ld	a4,-56(s0)
	addi	a0,a4,88
	.loc 1 1240 15
	addi	a3,s0,-48
	ld	a4,-40(s0)
	li	a2,0
	la	a1,gShellVariableGuid
	jalr	a5
.LVL19:
	sd	a0,-24(s0)
.L156:
	.loc 1 1243 34
	ld	a5,-24(s0)
	.loc 1 1243 6
	bge	a5,zero,.L157
	.loc 1 1243 60 discriminator 1
	ld	a4,-24(s0)
	li	a5,-1
	slli	a5,a5,63
	addi	a5,a5,14
	beq	a4,a5,.L157
	.loc 1 1244 5
	ld	a0,-40(s0)
	call	FreePool@plt
	.loc 1 1245 12
	ld	a5,-24(s0)
	j	.L160
.L157:
	.loc 1 1248 3
	ld	a5,-48(s0)
	ld	a4,-40(s0)
	add	a4,a4,a5
	ld	a5,-64(s0)
	ld	a5,0(a5)
	mv	a2,a5
	ld	a1,-72(s0)
	mv	a0,a4
	call	CopyMem@plt
	.loc 1 1250 53
	ld	a5,-56(s0)
	addi	a5,a5,88
	.loc 1 1249 12
	li	a3,2
	ld	a2,-32(s0)
	ld	a1,-40(s0)
	mv	a0,a5
	call	ShellAddEnvVarToList@plt
	sd	a0,-24(s0)
	.loc 1 1255 34
	ld	a5,-24(s0)
	.loc 1 1255 6
	bge	a5,zero,.L158
	.loc 1 1256 5
	ld	a0,-40(s0)
	call	FreePool@plt
	.loc 1 1257 12
	ld	a5,-24(s0)
	j	.L160
.L158:
	.loc 1 1260 16
	la	a5,gRT
	ld	a5,0(a5)
	ld	a5,88(a5)
	.loc 1 1260 39
	ld	a4,-56(s0)
	addi	a0,a4,88
	.loc 1 1260 129
	ld	a4,-32(s0)
	addi	a3,a4,-2
	.loc 1 1260 13
	ld	a4,-40(s0)
	li	a2,2
	la	a1,gShellVariableGuid
	jalr	a5
.LVL20:
	sd	a0,-24(s0)
	.loc 1 1265 34
	ld	a5,-24(s0)
	.loc 1 1265 6
	bge	a5,zero,.L159
	.loc 1 1266 71
	ld	a5,-56(s0)
	addi	a5,a5,88
	.loc 1 1266 5
	mv	a0,a5
	call	ShellRemvoeEnvVarFromList@plt
.L159:
	.loc 1 1269 3
	ld	a0,-40(s0)
	call	FreePool@plt
	.loc 1 1270 10
	ld	a5,-24(s0)
.L160:
	.loc 1 1271 1
	mv	a0,a5
	ld	ra,72(sp)
	.cfi_restore 1
	ld	s0,64(sp)
	.cfi_restore 8
	.cfi_def_cfa 2, 80
	addi	sp,sp,80
	.cfi_def_cfa_offset 0
	jr	ra
	.cfi_endproc
.LFE18:
	.size	FileInterfaceEnvVolWrite, .-FileInterfaceEnvVolWrite
	.section	.text.FileInterfaceEnvNonVolWrite,"ax",@progbits
	.align	1
	.globl	FileInterfaceEnvNonVolWrite
	.type	FileInterfaceEnvNonVolWrite, @function
FileInterfaceEnvNonVolWrite:
.LFB19:
	.loc 1 1291 1
	.cfi_startproc
	addi	sp,sp,-80
	.cfi_def_cfa_offset 80
	sd	ra,72(sp)
	sd	s0,64(sp)
	.cfi_offset 1, -8
	.cfi_offset 8, -16
	addi	s0,sp,80
	.cfi_def_cfa 8, 0
	sd	a0,-56(s0)
	sd	a1,-64(s0)
	sd	a2,-72(s0)
	.loc 1 1297 13
	sd	zero,-40(s0)
	.loc 1 1298 11
	sd	zero,-48(s0)
	.loc 1 1299 13
	sd	zero,-32(s0)
	.loc 1 1301 16
	la	a5,gRT
	ld	a5,0(a5)
	ld	a5,72(a5)
	.loc 1 1301 39
	ld	a4,-56(s0)
	addi	a0,a4,88
	.loc 1 1301 13
	addi	a3,s0,-48
	ld	a4,-40(s0)
	li	a2,0
	la	a1,gShellVariableGuid
	jalr	a5
.LVL21:
	sd	a0,-24(s0)
	.loc 1 1302 6
	ld	a4,-24(s0)
	li	a5,-1
	slli	a5,a5,63
	addi	a5,a5,5
	bne	a4,a5,.L162
	.loc 1 1303 27
	ld	a5,-64(s0)
	ld	a4,0(a5)
	.loc 1 1303 25
	ld	a5,-48(s0)
	add	a5,a4,a5
	.loc 1 1303 15
	addi	a5,a5,2
	sd	a5,-32(s0)
	j	.L163
.L162:
	.loc 1 1304 13
	ld	a4,-24(s0)
	li	a5,-1
	slli	a5,a5,63
	addi	a5,a5,14
	bne	a4,a5,.L164
	.loc 1 1305 17
	ld	a5,-64(s0)
	ld	a5,0(a5)
	.loc 1 1305 15
	addi	a5,a5,2
	sd	a5,-32(s0)
	j	.L163
.L164:
	.loc 1 1307 12
	ld	a5,-24(s0)
	j	.L171
.L163:
	.loc 1 1310 15
	ld	a0,-32(s0)
	call	AllocateZeroPool@plt
	sd	a0,-40(s0)
	.loc 1 1311 6
	ld	a5,-40(s0)
	bne	a5,zero,.L166
	.loc 1 1312 12
	li	a5,-1
	slli	a5,a5,63
	addi	a5,a5,9
	j	.L171
.L166:
	.loc 1 1315 6
	ld	a4,-24(s0)
	li	a5,-1
	slli	a5,a5,63
	addi	a5,a5,5
	bne	a4,a5,.L167
	.loc 1 1316 18
	la	a5,gRT
	ld	a5,0(a5)
	ld	a5,72(a5)
	.loc 1 1316 41
	ld	a4,-56(s0)
	addi	a0,a4,88
	.loc 1 1316 15
	addi	a3,s0,-48
	ld	a4,-40(s0)
	li	a2,0
	la	a1,gShellVariableGuid
	jalr	a5
.LVL22:
	sd	a0,-24(s0)
.L167:
	.loc 1 1319 34
	ld	a5,-24(s0)
	.loc 1 1319 6
	bge	a5,zero,.L168
	.loc 1 1319 60 discriminator 1
	ld	a4,-24(s0)
	li	a5,-1
	slli	a5,a5,63
	addi	a5,a5,14
	beq	a4,a5,.L168
	.loc 1 1320 5
	ld	a0,-40(s0)
	call	FreePool@plt
	.loc 1 1321 12
	ld	a5,-24(s0)
	j	.L171
.L168:
	.loc 1 1324 3
	ld	a5,-48(s0)
	ld	a4,-40(s0)
	add	a4,a4,a5
	ld	a5,-64(s0)
	ld	a5,0(a5)
	mv	a2,a5
	ld	a1,-72(s0)
	mv	a0,a4
	call	CopyMem@plt
	.loc 1 1326 53
	ld	a5,-56(s0)
	addi	a5,a5,88
	.loc 1 1325 12
	li	a3,3
	ld	a2,-32(s0)
	ld	a1,-40(s0)
	mv	a0,a5
	call	ShellAddEnvVarToList@plt
	sd	a0,-24(s0)
	.loc 1 1331 34
	ld	a5,-24(s0)
	.loc 1 1331 6
	bge	a5,zero,.L169
	.loc 1 1332 5
	ld	a0,-40(s0)
	call	FreePool@plt
	.loc 1 1333 12
	ld	a5,-24(s0)
	j	.L171
.L169:
	.loc 1 1336 16
	la	a5,gRT
	ld	a5,0(a5)
	ld	a5,88(a5)
	.loc 1 1336 39
	ld	a4,-56(s0)
	addi	a0,a4,88
	.loc 1 1336 140
	ld	a4,-32(s0)
	addi	a3,a4,-2
	.loc 1 1336 13
	ld	a4,-40(s0)
	li	a2,3
	la	a1,gShellVariableGuid
	jalr	a5
.LVL23:
	sd	a0,-24(s0)
	.loc 1 1341 34
	ld	a5,-24(s0)
	.loc 1 1341 6
	bge	a5,zero,.L170
	.loc 1 1342 71
	ld	a5,-56(s0)
	addi	a5,a5,88
	.loc 1 1342 5
	mv	a0,a5
	call	ShellRemvoeEnvVarFromList@plt
.L170:
	.loc 1 1345 3
	ld	a0,-40(s0)
	call	FreePool@plt
	.loc 1 1346 10
	ld	a5,-24(s0)
.L171:
	.loc 1 1347 1
	mv	a0,a5
	ld	ra,72(sp)
	.cfi_restore 1
	ld	s0,64(sp)
	.cfi_restore 8
	.cfi_def_cfa 2, 80
	addi	sp,sp,80
	.cfi_def_cfa_offset 0
	jr	ra
	.cfi_endproc
.LFE19:
	.size	FileInterfaceEnvNonVolWrite, .-FileInterfaceEnvNonVolWrite
	.section	.text.CreateFileInterfaceEnv,"ax",@progbits
	.align	1
	.globl	CreateFileInterfaceEnv
	.type	CreateFileInterfaceEnv, @function
CreateFileInterfaceEnv:
.LFB20:
	.loc 1 1362 1
	.cfi_startproc
	addi	sp,sp,-64
	.cfi_def_cfa_offset 64
	sd	ra,56(sp)
	sd	s0,48(sp)
	.cfi_offset 1, -8
	.cfi_offset 8, -16
	addi	s0,sp,64
	.cfi_def_cfa 8, 0
	sd	a0,-56(s0)
	.loc 1 1368 6
	ld	a5,-56(s0)
	bne	a5,zero,.L173
	.loc 1 1369 12
	li	a5,0
	j	.L179
.L173:
	.loc 1 1372 12
	addi	a5,s0,-41
	mv	a1,a5
	ld	a0,-56(s0)
	call	IsVolatileEnv@plt
	sd	a0,-24(s0)
	.loc 1 1373 34
	ld	a5,-24(s0)
	.loc 1 1373 6
	bge	a5,zero,.L175
	.loc 1 1374 12
	li	a5,0
	j	.L179
.L175:
	.loc 1 1380 17
	ld	a0,-56(s0)
	call	StrSize@plt
	sd	a0,-32(s0)
	.loc 1 1381 78
	ld	a5,-32(s0)
	addi	a5,a5,96
	.loc 1 1381 22
	mv	a0,a5
	call	AllocateZeroPool@plt
	sd	a0,-40(s0)
	.loc 1 1382 6
	ld	a5,-40(s0)
	bne	a5,zero,.L176
	.loc 1 1383 12
	li	a5,0
	j	.L179
.L176:
	.loc 1 1389 30
	ld	a5,-40(s0)
	li	a4,65536
	sd	a4,0(a5)
	.loc 1 1390 26
	ld	a5,-40(s0)
	lla	a4,FileInterfaceOpenNotFound
	sd	a4,8(a5)
	.loc 1 1391 27
	ld	a5,-40(s0)
	lla	a4,FileInterfaceEnvClose
	sd	a4,16(a5)
	.loc 1 1392 33
	ld	a5,-40(s0)
	lla	a4,FileInterfaceNopGetPosition
	sd	a4,48(a5)
	.loc 1 1393 33
	ld	a5,-40(s0)
	lla	a4,FileInterfaceNopSetPosition
	sd	a4,56(a5)
	.loc 1 1394 29
	ld	a5,-40(s0)
	lla	a4,FileInterfaceNopGetInfo
	sd	a4,64(a5)
	.loc 1 1395 29
	ld	a5,-40(s0)
	lla	a4,FileInterfaceNopSetInfo
	sd	a4,72(a5)
	.loc 1 1396 27
	ld	a5,-40(s0)
	lla	a4,FileInterfaceNopGeneric
	sd	a4,80(a5)
	.loc 1 1397 28
	ld	a5,-40(s0)
	lla	a4,FileInterfaceEnvDelete
	sd	a4,24(a5)
	.loc 1 1398 26
	ld	a5,-40(s0)
	lla	a4,FileInterfaceEnvRead
	sd	a4,32(a5)
	.loc 1 1400 28
	ld	a5,-40(s0)
	addi	a5,a5,88
	.loc 1 1400 3
	ld	a2,-32(s0)
	ld	a1,-56(s0)
	mv	a0,a5
	call	CopyMem@plt
	.loc 1 1405 7
	lbu	a5,-41(s0)
	.loc 1 1405 6
	beq	a5,zero,.L177
	.loc 1 1406 29
	ld	a5,-40(s0)
	lla	a4,FileInterfaceEnvVolWrite
	sd	a4,40(a5)
	j	.L178
.L177:
	.loc 1 1408 29
	ld	a5,-40(s0)
	lla	a4,FileInterfaceEnvNonVolWrite
	sd	a4,40(a5)
.L178:
	.loc 1 1411 11
	ld	a5,-40(s0)
.L179:
	.loc 1 1412 1
	mv	a0,a5
	ld	ra,56(sp)
	.cfi_restore 1
	ld	s0,48(sp)
	.cfi_restore 8
	.cfi_def_cfa 2, 64
	addi	sp,sp,64
	.cfi_def_cfa_offset 0
	jr	ra
	.cfi_endproc
.LFE20:
	.size	CreateFileInterfaceEnv, .-CreateFileInterfaceEnv
	.section	.text.MoveCursorBackward,"ax",@progbits
	.align	1
	.globl	MoveCursorBackward
	.type	MoveCursorBackward, @function
MoveCursorBackward:
.LFB21:
	.loc 1 1427 1
	.cfi_startproc
	addi	sp,sp,-48
	.cfi_def_cfa_offset 48
	sd	ra,40(sp)
	sd	s0,32(sp)
	.cfi_offset 1, -8
	.cfi_offset 8, -16
	addi	s0,sp,48
	.cfi_def_cfa 8, 0
	sd	a0,-24(s0)
	sd	a1,-32(s0)
	sd	a2,-40(s0)
	.loc 1 1432 7
	ld	a5,-32(s0)
	ld	a5,0(a5)
	.loc 1 1432 6
	bne	a5,zero,.L181
	.loc 1 1433 26
	ld	a5,-24(s0)
	addi	a4,a5,-1
	.loc 1 1433 13
	ld	a5,-32(s0)
	sd	a4,0(a5)
	.loc 1 1434 9
	ld	a5,-40(s0)
	ld	a5,0(a5)
	.loc 1 1434 8
	beq	a5,zero,.L184
	.loc 1 1435 8
	ld	a5,-40(s0)
	ld	a5,0(a5)
	.loc 1 1435 13
	addi	a4,a5,-1
	ld	a5,-40(s0)
	sd	a4,0(a5)
	.loc 1 1438 5
	j	.L184
.L181:
	.loc 1 1441 4
	ld	a5,-32(s0)
	ld	a5,0(a5)
	.loc 1 1441 12
	addi	a4,a5,-1
	ld	a5,-32(s0)
	sd	a4,0(a5)
	j	.L180
.L184:
	.loc 1 1438 5
	nop
.L180:
	.loc 1 1442 1
	ld	ra,40(sp)
	.cfi_restore 1
	ld	s0,32(sp)
	.cfi_restore 8
	.cfi_def_cfa 2, 48
	addi	sp,sp,48
	.cfi_def_cfa_offset 0
	jr	ra
	.cfi_endproc
.LFE21:
	.size	MoveCursorBackward, .-MoveCursorBackward
	.section	.text.MoveCursorForward,"ax",@progbits
	.align	1
	.globl	MoveCursorForward
	.type	MoveCursorForward, @function
MoveCursorForward:
.LFB22:
	.loc 1 1459 1
	.cfi_startproc
	addi	sp,sp,-48
	.cfi_def_cfa_offset 48
	sd	ra,40(sp)
	sd	s0,32(sp)
	.cfi_offset 1, -8
	.cfi_offset 8, -16
	addi	s0,sp,48
	.cfi_def_cfa 8, 0
	sd	a0,-24(s0)
	sd	a1,-32(s0)
	sd	a2,-40(s0)
	sd	a3,-48(s0)
	.loc 1 1465 4
	ld	a5,-40(s0)
	ld	a5,0(a5)
	.loc 1 1465 12
	addi	a4,a5,1
	ld	a5,-40(s0)
	sd	a4,0(a5)
	.loc 1 1466 7
	ld	a5,-40(s0)
	ld	a5,0(a5)
	.loc 1 1466 6
	ld	a4,-24(s0)
	bgtu	a4,a5,.L187
	.loc 1 1467 15
	ld	a5,-40(s0)
	sd	zero,0(a5)
	.loc 1 1468 10
	ld	a5,-48(s0)
	ld	a4,0(a5)
	.loc 1 1468 27
	ld	a5,-32(s0)
	addi	a5,a5,-1
	.loc 1 1468 8
	bgeu	a4,a5,.L187
	.loc 1 1469 8
	ld	a5,-48(s0)
	ld	a5,0(a5)
	.loc 1 1469 13
	addi	a4,a5,1
	ld	a5,-48(s0)
	sd	a4,0(a5)
.L187:
	.loc 1 1472 1
	nop
	ld	ra,40(sp)
	.cfi_restore 1
	ld	s0,32(sp)
	.cfi_restore 8
	.cfi_def_cfa 2, 48
	addi	sp,sp,48
	.cfi_def_cfa_offset 0
	jr	ra
	.cfi_endproc
.LFE22:
	.size	MoveCursorForward, .-MoveCursorForward
	.section	.rodata
	.align	3
.LC9:
	.string	"\n"
	.zero	2
	.align	3
.LC10:
	.string	"%"
	.string	"2"
	.string	"d"
	.string	"."
	.string	" "
	.string	"%"
	.string	"s"
	.string	"\n"
	.zero	2
	.section	.text.PrintCommandHistory,"ax",@progbits
	.align	1
	.globl	PrintCommandHistory
	.type	PrintCommandHistory, @function
PrintCommandHistory:
.LFB23:
	.loc 1 1489 1
	.cfi_startproc
	addi	sp,sp,-80
	.cfi_def_cfa_offset 80
	sd	ra,72(sp)
	sd	s0,64(sp)
	.cfi_offset 1, -8
	.cfi_offset 8, -16
	addi	s0,sp,80
	.cfi_def_cfa 8, 0
	sd	a0,-56(s0)
	sd	a1,-64(s0)
	sd	a2,-72(s0)
	.loc 1 1495 3
	lla	a2,.LC9
	li	a1,-1
	li	a0,-1
	call	ShellPrintEx@plt
	.loc 1 1496 9
	sd	zero,-32(s0)
	.loc 1 1497 14
	sd	zero,-40(s0)
	.loc 1 1501 31
	la	a5,ShellInfoObject
	addi	a0,a5,80
	call	GetFirstNode@plt
	sd	a0,-24(s0)
	.loc 1 1501 3
	j	.L189
.L191:
	.loc 1 1506 10
	ld	a5,-32(s0)
	addi	a5,a5,1
	sd	a5,-32(s0)
	.loc 1 1507 31
	ld	a5,-24(s0)
	ld	a5,16(a5)
	.loc 1 1507 19
	mv	a0,a5
	call	StrLen@plt
	mv	a4,a0
	.loc 1 1507 41 discriminator 1
	ld	a5,-72(s0)
	add	a5,a4,a5
	.loc 1 1507 55 discriminator 1
	addi	a4,a5,1
	.loc 1 1507 60 discriminator 1
	ld	a5,-56(s0)
	divu	a5,a4,a5
	.loc 1 1507 15 discriminator 1
	addi	a5,a5,1
	sd	a5,-48(s0)
	.loc 1 1509 20
	ld	a4,-40(s0)
	ld	a5,-48(s0)
	add	a5,a4,a5
	.loc 1 1509 8
	ld	a4,-64(s0)
	bgtu	a4,a5,.L190
	.loc 1 1513 24
	la	a5,ShellInfoObject
	ld	a5,128(a5)
	.loc 1 1510 7
	li	a3,0
	mv	a2,a5
	li	a1,6
	li	a0,5
	call	ShellPromptForResponseHii@plt
	.loc 1 1516 18
	sd	zero,-40(s0)
.L190:
	.loc 1 1519 5
	ld	a5,-24(s0)
	ld	a5,16(a5)
	mv	a4,a5
	ld	a3,-32(s0)
	lla	a2,.LC10
	li	a1,-1
	li	a0,-1
	call	ShellPrintEx@plt
	.loc 1 1520 16
	ld	a4,-40(s0)
	ld	a5,-48(s0)
	add	a5,a4,a5
	sd	a5,-40(s0)
	.loc 1 1503 100
	ld	a5,-24(s0)
	.loc 1 1503 33
	mv	a1,a5
	la	a5,ShellInfoObject
	addi	a0,a5,80
	call	GetNextNode@plt
	sd	a0,-24(s0)
.L189:
	.loc 1 1502 74
	ld	a5,-24(s0)
	.loc 1 1502 12
	mv	a1,a5
	la	a5,ShellInfoObject
	addi	a0,a5,80
	call	IsNull@plt
	mv	a5,a0
	.loc 1 1502 11 discriminator 1
	beq	a5,zero,.L191
	.loc 1 1522 1
	nop
	nop
	ld	ra,72(sp)
	.cfi_restore 1
	ld	s0,64(sp)
	.cfi_restore 8
	.cfi_def_cfa 2, 80
	addi	sp,sp,80
	.cfi_def_cfa_offset 0
	jr	ra
	.cfi_endproc
.LFE23:
	.size	PrintCommandHistory, .-PrintCommandHistory
	.section	.text.FileInterfaceMemSetPosition,"ax",@progbits
	.align	1
	.globl	FileInterfaceMemSetPosition
	.type	FileInterfaceMemSetPosition, @function
FileInterfaceMemSetPosition:
.LFB24:
	.loc 1 1563 1
	.cfi_startproc
	addi	sp,sp,-32
	.cfi_def_cfa_offset 32
	sd	ra,24(sp)
	sd	s0,16(sp)
	.cfi_offset 1, -8
	.cfi_offset 8, -16
	addi	s0,sp,32
	.cfi_def_cfa 8, 0
	sd	a0,-24(s0)
	sd	a1,-32(s0)
	.loc 1 1564 50
	ld	a5,-24(s0)
	ld	a5,120(a5)
	.loc 1 1564 6
	ld	a4,-32(s0)
	bgtu	a4,a5,.L193
	.loc 1 1565 47
	ld	a5,-24(s0)
	ld	a4,-32(s0)
	sd	a4,96(a5)
	.loc 1 1566 12
	li	a5,0
	j	.L194
.L193:
	.loc 1 1568 12
	li	a5,-1
	slli	a5,a5,63
	addi	a5,a5,2
.L194:
	.loc 1 1570 1
	mv	a0,a5
	ld	ra,24(sp)
	.cfi_restore 1
	ld	s0,16(sp)
	.cfi_restore 8
	.cfi_def_cfa 2, 32
	addi	sp,sp,32
	.cfi_def_cfa_offset 0
	jr	ra
	.cfi_endproc
.LFE24:
	.size	FileInterfaceMemSetPosition, .-FileInterfaceMemSetPosition
	.section	.text.FileInterfaceMemGetPosition,"ax",@progbits
	.align	1
	.globl	FileInterfaceMemGetPosition
	.type	FileInterfaceMemGetPosition, @function
FileInterfaceMemGetPosition:
.LFB25:
	.loc 1 1586 1
	.cfi_startproc
	addi	sp,sp,-32
	.cfi_def_cfa_offset 32
	sd	ra,24(sp)
	sd	s0,16(sp)
	.cfi_offset 1, -8
	.cfi_offset 8, -16
	addi	s0,sp,32
	.cfi_def_cfa 8, 0
	sd	a0,-24(s0)
	sd	a1,-32(s0)
	.loc 1 1587 46
	ld	a5,-24(s0)
	ld	a4,96(a5)
	.loc 1 1587 13
	ld	a5,-32(s0)
	sd	a4,0(a5)
	.loc 1 1588 10
	li	a5,0
	.loc 1 1589 1
	mv	a0,a5
	ld	ra,24(sp)
	.cfi_restore 1
	ld	s0,16(sp)
	.cfi_restore 8
	.cfi_def_cfa 2, 32
	addi	sp,sp,32
	.cfi_def_cfa_offset 0
	jr	ra
	.cfi_endproc
.LFE25:
	.size	FileInterfaceMemGetPosition, .-FileInterfaceMemGetPosition
	.section	.text.FileInterfaceMemGetInfo,"ax",@progbits
	.align	1
	.globl	FileInterfaceMemGetInfo
	.type	FileInterfaceMemGetInfo, @function
FileInterfaceMemGetInfo:
.LFB26:
	.loc 1 1617 1
	.cfi_startproc
	addi	sp,sp,-64
	.cfi_def_cfa_offset 64
	sd	ra,56(sp)
	sd	s0,48(sp)
	.cfi_offset 1, -8
	.cfi_offset 8, -16
	addi	s0,sp,64
	.cfi_def_cfa 8, 0
	sd	a0,-40(s0)
	sd	a1,-48(s0)
	sd	a2,-56(s0)
	sd	a3,-64(s0)
	.loc 1 1620 7
	la	a1,gEfiFileInfoGuid
	ld	a0,-48(s0)
	call	CompareGuid@plt
	mv	a5,a0
	.loc 1 1620 6 discriminator 1
	beq	a5,zero,.L198
	.loc 1 1621 9
	ld	a5,-56(s0)
	ld	a4,0(a5)
	.loc 1 1621 8
	li	a5,87
	bgtu	a4,a5,.L199
	.loc 1 1622 19
	ld	a5,-56(s0)
	li	a4,88
	sd	a4,0(a5)
	.loc 1 1623 14
	li	a5,-1
	slli	a5,a5,63
	addi	a5,a5,5
	j	.L200
.L199:
	.loc 1 1626 8
	ld	a5,-64(s0)
	bne	a5,zero,.L201
	.loc 1 1627 14
	li	a5,-1
	slli	a5,a5,63
	addi	a5,a5,2
	j	.L200
.L201:
	.loc 1 1630 14
	ld	a5,-64(s0)
	sd	a5,-24(s0)
	.loc 1 1631 20
	ld	a5,-24(s0)
	li	a4,88
	sd	a4,0(a5)
	.loc 1 1632 5
	li	a1,88
	ld	a0,-24(s0)
	call	ZeroMem@plt
	.loc 1 1633 57
	ld	a5,-40(s0)
	ld	a4,120(a5)
	.loc 1 1633 24
	ld	a5,-24(s0)
	sd	a4,8(a5)
	.loc 1 1634 38
	ld	a5,-24(s0)
	ld	a4,8(a5)
	.loc 1 1634 28
	ld	a5,-24(s0)
	sd	a4,16(a5)
	.loc 1 1635 12
	li	a5,0
	j	.L200
.L198:
	.loc 1 1638 10
	li	a5,-1
	slli	a5,a5,63
	addi	a5,a5,3
.L200:
	.loc 1 1639 1
	mv	a0,a5
	ld	ra,56(sp)
	.cfi_restore 1
	ld	s0,48(sp)
	.cfi_restore 8
	.cfi_def_cfa 2, 64
	addi	sp,sp,64
	.cfi_def_cfa_offset 0
	jr	ra
	.cfi_endproc
.LFE26:
	.size	FileInterfaceMemGetInfo, .-FileInterfaceMemGetInfo
	.section	.rodata
	.align	3
.LC11:
	.string	"%S"
	.section	.text.FileInterfaceMemWrite,"ax",@progbits
	.align	1
	.globl	FileInterfaceMemWrite
	.type	FileInterfaceMemWrite, @function
FileInterfaceMemWrite:
.LFB27:
	.loc 1 1658 1
	.cfi_startproc
	addi	sp,sp,-80
	.cfi_def_cfa_offset 80
	sd	ra,72(sp)
	sd	s0,64(sp)
	sd	s1,56(sp)
	sd	s2,48(sp)
	.cfi_offset 1, -8
	.cfi_offset 8, -16
	.cfi_offset 9, -24
	.cfi_offset 18, -32
	addi	s0,sp,80
	.cfi_def_cfa 8, 0
	sd	a0,-56(s0)
	sd	a1,-64(s0)
	sd	a2,-72(s0)
	.loc 1 1662 11
	ld	a5,-56(s0)
	sd	a5,-40(s0)
	.loc 1 1663 14
	ld	a5,-40(s0)
	lbu	a5,112(a5)
	.loc 1 1663 6
	beq	a5,zero,.L203
	.loc 1 1667 24
	ld	a5,-40(s0)
	ld	a4,96(a5)
	.loc 1 1667 38
	ld	a5,-64(s0)
	ld	a5,0(a5)
	.loc 1 1667 9
	add	a4,a4,a5
	.loc 1 1667 69
	ld	a5,-40(s0)
	ld	a5,104(a5)
	.loc 1 1667 8
	bleu	a4,a5,.L204
	.loc 1 1668 56
	ld	a5,-40(s0)
	ld	a3,104(a5)
	.loc 1 1668 86
	ld	a5,-40(s0)
	ld	a4,104(a5)
	.loc 1 1668 103
	ld	a5,-64(s0)
	ld	a5,0(a5)
	.loc 1 1668 100
	add	a5,a4,a5
	.loc 1 1668 116
	addi	a4,a5,1024
	.loc 1 1668 25
	ld	a5,-40(s0)
	ld	a5,88(a5)
	mv	a2,a5
	mv	a1,a4
	mv	a0,a3
	call	ReallocatePool@plt
	mv	a4,a0
	.loc 1 1668 23 discriminator 1
	ld	a5,-40(s0)
	sd	a4,88(a5)
	.loc 1 1669 18
	ld	a5,-40(s0)
	ld	a5,88(a5)
	.loc 1 1669 10
	bne	a5,zero,.L205
	.loc 1 1670 16
	li	a5,-1
	slli	a5,a5,63
	addi	a5,a5,9
	j	.L206
.L205:
	.loc 1 1673 14
	ld	a5,-40(s0)
	ld	a4,104(a5)
	.loc 1 1673 27
	ld	a5,-64(s0)
	ld	a5,0(a5)
	add	a5,a4,a5
	addi	a4,a5,1024
	ld	a5,-40(s0)
	sd	a4,104(a5)
.L204:
	.loc 1 1676 31
	ld	a5,-40(s0)
	ld	a4,88(a5)
	.loc 1 1676 50
	ld	a5,-40(s0)
	ld	a5,96(a5)
	.loc 1 1676 5
	add	a4,a4,a5
	ld	a5,-64(s0)
	ld	a5,0(a5)
	mv	a2,a5
	ld	a1,-72(s0)
	mv	a0,a4
	call	CopyMem@plt
	.loc 1 1677 12
	ld	a5,-40(s0)
	ld	a4,96(a5)
	.loc 1 1677 27
	ld	a5,-64(s0)
	ld	a5,0(a5)
	.loc 1 1677 23
	add	a4,a4,a5
	ld	a5,-40(s0)
	sd	a4,96(a5)
	.loc 1 1678 32
	ld	a5,-40(s0)
	ld	a4,96(a5)
	.loc 1 1678 23
	ld	a5,-40(s0)
	sd	a4,120(a5)
	.loc 1 1679 12
	li	a5,0
	j	.L206
.L203:
	.loc 1 1684 19
	ld	a5,-64(s0)
	ld	a5,0(a5)
	mv	a0,a5
	call	AllocateZeroPool@plt
	sd	a0,-48(s0)
	.loc 1 1685 8
	ld	a5,-48(s0)
	bne	a5,zero,.L207
	.loc 1 1686 14
	li	a5,-1
	slli	a5,a5,63
	addi	a5,a5,9
	j	.L206
.L207:
	.loc 1 1689 5
	ld	a5,-64(s0)
	ld	a5,0(a5)
	ld	a3,-72(s0)
	lla	a2,.LC11
	mv	a1,a5
	ld	a0,-48(s0)
	call	AsciiSPrint@plt
	.loc 1 1690 24
	ld	a5,-40(s0)
	ld	s1,96(a5)
	.loc 1 1690 37
	ld	a0,-48(s0)
	call	AsciiStrSize@plt
	mv	a5,a0
	.loc 1 1690 9 discriminator 1
	add	a4,s1,a5
	.loc 1 1690 82 discriminator 1
	ld	a5,-40(s0)
	ld	a5,104(a5)
	.loc 1 1690 8 discriminator 1
	bleu	a4,a5,.L208
	.loc 1 1691 56
	ld	a5,-40(s0)
	ld	s2,104(a5)
	.loc 1 1691 86
	ld	a5,-40(s0)
	ld	s1,104(a5)
	.loc 1 1691 102
	ld	a0,-48(s0)
	call	AsciiStrSize@plt
	mv	a5,a0
	.loc 1 1691 100 discriminator 1
	add	a5,s1,a5
	.loc 1 1691 129 discriminator 1
	addi	a4,a5,1024
	.loc 1 1691 25 discriminator 1
	ld	a5,-40(s0)
	ld	a5,88(a5)
	mv	a2,a5
	mv	a1,a4
	mv	a0,s2
	call	ReallocatePool@plt
	mv	a4,a0
	.loc 1 1691 23 discriminator 2
	ld	a5,-40(s0)
	sd	a4,88(a5)
	.loc 1 1692 18
	ld	a5,-40(s0)
	ld	a5,88(a5)
	.loc 1 1692 10
	bne	a5,zero,.L209
	.loc 1 1693 9
	ld	a0,-48(s0)
	call	FreePool@plt
	.loc 1 1694 16
	li	a5,-1
	slli	a5,a5,63
	addi	a5,a5,9
	j	.L206
.L209:
	.loc 1 1697 30
	ld	a0,-48(s0)
	call	AsciiStrSize@plt
	mv	a5,a0
	.loc 1 1697 57 discriminator 1
	addi	a4,a5,1024
	.loc 1 1697 14 discriminator 1
	ld	a5,-40(s0)
	ld	a5,104(a5)
	.loc 1 1697 27 discriminator 1
	add	a4,a4,a5
	ld	a5,-40(s0)
	sd	a4,104(a5)
.L208:
	.loc 1 1700 31
	ld	a5,-40(s0)
	ld	a4,88(a5)
	.loc 1 1700 50
	ld	a5,-40(s0)
	ld	a5,96(a5)
	.loc 1 1700 5
	add	s1,a4,a5
	ld	a0,-48(s0)
	call	AsciiStrSize@plt
	mv	a5,a0
	.loc 1 1700 5 is_stmt 0 discriminator 1
	mv	a2,a5
	ld	a1,-48(s0)
	mv	a0,s1
	call	CopyMem@plt
	.loc 1 1701 12 is_stmt 1
	ld	a5,-40(s0)
	ld	a4,96(a5)
	.loc 1 1701 27
	ld	a5,-64(s0)
	ld	a5,0(a5)
	.loc 1 1701 39
	srli	a5,a5,1
	.loc 1 1701 23
	add	a4,a4,a5
	ld	a5,-40(s0)
	sd	a4,96(a5)
	.loc 1 1702 32
	ld	a5,-40(s0)
	ld	a4,96(a5)
	.loc 1 1702 23
	ld	a5,-40(s0)
	sd	a4,120(a5)
	.loc 1 1703 5
	ld	a0,-48(s0)
	call	FreePool@plt
	.loc 1 1704 12
	li	a5,0
.L206:
	.loc 1 1706 1
	mv	a0,a5
	ld	ra,72(sp)
	.cfi_restore 1
	ld	s0,64(sp)
	.cfi_restore 8
	.cfi_def_cfa 2, 80
	ld	s1,56(sp)
	.cfi_restore 9
	ld	s2,48(sp)
	.cfi_restore 18
	addi	sp,sp,80
	.cfi_def_cfa_offset 0
	jr	ra
	.cfi_endproc
.LFE27:
	.size	FileInterfaceMemWrite, .-FileInterfaceMemWrite
	.section	.text.FileInterfaceMemRead,"ax",@progbits
	.align	1
	.globl	FileInterfaceMemRead
	.type	FileInterfaceMemRead, @function
FileInterfaceMemRead:
.LFB28:
	.loc 1 1724 1
	.cfi_startproc
	addi	sp,sp,-64
	.cfi_def_cfa_offset 64
	sd	ra,56(sp)
	sd	s0,48(sp)
	.cfi_offset 1, -8
	.cfi_offset 8, -16
	addi	s0,sp,64
	.cfi_def_cfa 8, 0
	sd	a0,-40(s0)
	sd	a1,-48(s0)
	sd	a2,-56(s0)
	.loc 1 1727 11
	ld	a5,-40(s0)
	sd	a5,-24(s0)
	.loc 1 1728 7
	ld	a5,-48(s0)
	ld	a4,0(a5)
	.loc 1 1728 37
	ld	a5,-24(s0)
	ld	a3,120(a5)
	.loc 1 1728 66
	ld	a5,-24(s0)
	ld	a5,96(a5)
	.loc 1 1728 21
	sub	a5,a3,a5
	.loc 1 1728 6
	bleu	a4,a5,.L211
	.loc 1 1729 37
	ld	a5,-24(s0)
	ld	a4,120(a5)
	.loc 1 1729 66
	ld	a5,-24(s0)
	ld	a5,96(a5)
	.loc 1 1729 21
	sub	a4,a4,a5
	.loc 1 1729 19
	ld	a5,-48(s0)
	sd	a4,0(a5)
.L211:
	.loc 1 1732 37
	ld	a5,-24(s0)
	ld	a4,88(a5)
	.loc 1 1732 56
	ld	a5,-24(s0)
	ld	a5,96(a5)
	.loc 1 1732 3
	add	a4,a4,a5
	ld	a5,-48(s0)
	ld	a5,0(a5)
	mv	a2,a5
	mv	a1,a4
	ld	a0,-56(s0)
	call	CopyMem@plt
	.loc 1 1733 30
	ld	a5,-24(s0)
	ld	a4,96(a5)
	.loc 1 1733 44
	ld	a5,-48(s0)
	ld	a5,0(a5)
	.loc 1 1733 41
	add	a4,a4,a5
	.loc 1 1733 21
	ld	a5,-24(s0)
	sd	a4,96(a5)
	.loc 1 1734 10
	li	a5,0
	.loc 1 1735 1
	mv	a0,a5
	ld	ra,56(sp)
	.cfi_restore 1
	ld	s0,48(sp)
	.cfi_restore 8
	.cfi_def_cfa 2, 64
	addi	sp,sp,64
	.cfi_def_cfa_offset 0
	jr	ra
	.cfi_endproc
.LFE28:
	.size	FileInterfaceMemRead, .-FileInterfaceMemRead
	.section	.text.FileInterfaceMemClose,"ax",@progbits
	.align	1
	.globl	FileInterfaceMemClose
	.type	FileInterfaceMemClose, @function
FileInterfaceMemClose:
.LFB29:
	.loc 1 1751 1
	.cfi_startproc
	addi	sp,sp,-32
	.cfi_def_cfa_offset 32
	sd	ra,24(sp)
	sd	s0,16(sp)
	.cfi_offset 1, -8
	.cfi_offset 8, -16
	addi	s0,sp,32
	.cfi_def_cfa 8, 0
	sd	a0,-24(s0)
	.loc 1 1752 44
	ld	a5,-24(s0)
	ld	a5,88(a5)
	.loc 1 1752 11
	beq	a5,zero,.L214
	.loc 1 1752 73 discriminator 1
	ld	a5,-24(s0)
	ld	a5,88(a5)
	mv	a0,a5
	call	FreePool@plt
	.loc 1 1752 168 discriminator 2
	ld	a5,-24(s0)
	sd	zero,88(a5)
.L214:
	.loc 1 1753 11
	ld	a5,-24(s0)
	beq	a5,zero,.L215
	.loc 1 1753 38 discriminator 1
	ld	a0,-24(s0)
	call	FreePool@plt
	.loc 1 1753 63 discriminator 2
	sd	zero,-24(s0)
.L215:
	.loc 1 1754 10
	li	a5,0
	.loc 1 1755 1
	mv	a0,a5
	ld	ra,24(sp)
	.cfi_restore 1
	ld	s0,16(sp)
	.cfi_restore 8
	.cfi_def_cfa 2, 32
	addi	sp,sp,32
	.cfi_def_cfa_offset 0
	jr	ra
	.cfi_endproc
.LFE29:
	.size	FileInterfaceMemClose, .-FileInterfaceMemClose
	.section	.text.CreateFileInterfaceMem,"ax",@progbits
	.align	1
	.globl	CreateFileInterfaceMem
	.type	CreateFileInterfaceMem, @function
CreateFileInterfaceMem:
.LFB30:
	.loc 1 1770 1
	.cfi_startproc
	addi	sp,sp,-48
	.cfi_def_cfa_offset 48
	sd	ra,40(sp)
	sd	s0,32(sp)
	.cfi_offset 1, -8
	.cfi_offset 8, -16
	addi	s0,sp,48
	.cfi_def_cfa 8, 0
	mv	a5,a0
	sb	a5,-33(s0)
	.loc 1 1776 19
	li	a0,128
	call	AllocateZeroPool@plt
	sd	a0,-24(s0)
	.loc 1 1777 6
	ld	a5,-24(s0)
	bne	a5,zero,.L218
	.loc 1 1778 12
	li	a5,0
	j	.L219
.L218:
	.loc 1 1784 27
	ld	a5,-24(s0)
	li	a4,65536
	sd	a4,0(a5)
	.loc 1 1785 23
	ld	a5,-24(s0)
	lla	a4,FileInterfaceOpenNotFound
	sd	a4,8(a5)
	.loc 1 1786 24
	ld	a5,-24(s0)
	lla	a4,FileInterfaceMemClose
	sd	a4,16(a5)
	.loc 1 1787 30
	ld	a5,-24(s0)
	lla	a4,FileInterfaceMemGetPosition
	sd	a4,48(a5)
	.loc 1 1788 30
	ld	a5,-24(s0)
	lla	a4,FileInterfaceMemSetPosition
	sd	a4,56(a5)
	.loc 1 1789 26
	ld	a5,-24(s0)
	lla	a4,FileInterfaceMemGetInfo
	sd	a4,64(a5)
	.loc 1 1790 26
	ld	a5,-24(s0)
	lla	a4,FileInterfaceNopSetInfo
	sd	a4,72(a5)
	.loc 1 1791 24
	ld	a5,-24(s0)
	lla	a4,FileInterfaceNopGeneric
	sd	a4,80(a5)
	.loc 1 1792 25
	ld	a5,-24(s0)
	lla	a4,FileInterfaceNopGeneric
	sd	a4,24(a5)
	.loc 1 1793 23
	ld	a5,-24(s0)
	lla	a4,FileInterfaceMemRead
	sd	a4,32(a5)
	.loc 1 1794 24
	ld	a5,-24(s0)
	lla	a4,FileInterfaceMemWrite
	sd	a4,40(a5)
	.loc 1 1795 26
	ld	a5,-24(s0)
	lbu	a4,-33(s0)
	sb	a4,112(a5)
	.loc 1 1801 6
	lbu	a5,-33(s0)
	andi	a5,a5,0xff
	beq	a5,zero,.L220
	.loc 1 1802 29
	li	a0,2
	call	AllocateZeroPool@plt
	mv	a4,a0
	.loc 1 1802 27 discriminator 1
	ld	a5,-24(s0)
	sd	a4,88(a5)
	.loc 1 1803 22
	ld	a5,-24(s0)
	ld	a5,88(a5)
	.loc 1 1803 8
	bne	a5,zero,.L221
	.loc 1 1804 7
	ld	a0,-24(s0)
	call	FreePool@plt
	.loc 1 1805 14
	li	a5,0
	j	.L219
.L221:
	.loc 1 1808 31
	ld	a5,-24(s0)
	ld	a5,88(a5)
	.loc 1 1808 42
	li	a4,-257
	sh	a4,0(a5)
	.loc 1 1809 31
	ld	a5,-24(s0)
	li	a4,2
	sd	a4,104(a5)
	.loc 1 1810 29
	ld	a5,-24(s0)
	li	a4,2
	sd	a4,96(a5)
.L220:
	.loc 1 1813 11
	ld	a5,-24(s0)
.L219:
	.loc 1 1814 1
	mv	a0,a5
	ld	ra,40(sp)
	.cfi_restore 1
	ld	s0,32(sp)
	.cfi_restore 8
	.cfi_def_cfa 2, 48
	addi	sp,sp,48
	.cfi_def_cfa_offset 0
	jr	ra
	.cfi_endproc
.LFE30:
	.size	CreateFileInterfaceMem, .-CreateFileInterfaceMem
	.section	.text.FileInterfaceFileSetPosition,"ax",@progbits
	.align	1
	.globl	FileInterfaceFileSetPosition
	.type	FileInterfaceFileSetPosition, @function
FileInterfaceFileSetPosition:
.LFB31:
	.loc 1 1848 1
	.cfi_startproc
	addi	sp,sp,-32
	.cfi_def_cfa_offset 32
	sd	ra,24(sp)
	sd	s0,16(sp)
	.cfi_offset 1, -8
	.cfi_offset 8, -16
	addi	s0,sp,32
	.cfi_def_cfa 8, 0
	sd	a0,-24(s0)
	sd	a1,-32(s0)
	.loc 1 1849 42
	ld	a5,-24(s0)
	ld	a5,96(a5)
	.loc 1 1849 48
	ld	a5,56(a5)
	.loc 1 1849 11
	ld	a4,-24(s0)
	ld	a4,96(a4)
	ld	a1,-32(s0)
	mv	a0,a4
	jalr	a5
.LVL24:
	mv	a5,a0
	.loc 1 1850 1
	mv	a0,a5
	ld	ra,24(sp)
	.cfi_restore 1
	ld	s0,16(sp)
	.cfi_restore 8
	.cfi_def_cfa 2, 32
	addi	sp,sp,32
	.cfi_def_cfa_offset 0
	jr	ra
	.cfi_endproc
.LFE31:
	.size	FileInterfaceFileSetPosition, .-FileInterfaceFileSetPosition
	.section	.text.FileInterfaceFileGetPosition,"ax",@progbits
	.align	1
	.globl	FileInterfaceFileGetPosition
	.type	FileInterfaceFileGetPosition, @function
FileInterfaceFileGetPosition:
.LFB32:
	.loc 1 1868 1
	.cfi_startproc
	addi	sp,sp,-32
	.cfi_def_cfa_offset 32
	sd	ra,24(sp)
	sd	s0,16(sp)
	.cfi_offset 1, -8
	.cfi_offset 8, -16
	addi	s0,sp,32
	.cfi_def_cfa 8, 0
	sd	a0,-24(s0)
	sd	a1,-32(s0)
	.loc 1 1869 42
	ld	a5,-24(s0)
	ld	a5,96(a5)
	.loc 1 1869 48
	ld	a5,48(a5)
	.loc 1 1869 11
	ld	a4,-24(s0)
	ld	a4,96(a4)
	ld	a1,-32(s0)
	mv	a0,a4
	jalr	a5
.LVL25:
	mv	a5,a0
	.loc 1 1870 1
	mv	a0,a5
	ld	ra,24(sp)
	.cfi_restore 1
	ld	s0,16(sp)
	.cfi_restore 8
	.cfi_def_cfa 2, 32
	addi	sp,sp,32
	.cfi_def_cfa_offset 0
	jr	ra
	.cfi_endproc
.LFE32:
	.size	FileInterfaceFileGetPosition, .-FileInterfaceFileGetPosition
	.section	.text.FileInterfaceFileGetInfo,"ax",@progbits
	.align	1
	.globl	FileInterfaceFileGetInfo
	.type	FileInterfaceFileGetInfo, @function
FileInterfaceFileGetInfo:
.LFB33:
	.loc 1 1898 1
	.cfi_startproc
	addi	sp,sp,-48
	.cfi_def_cfa_offset 48
	sd	ra,40(sp)
	sd	s0,32(sp)
	.cfi_offset 1, -8
	.cfi_offset 8, -16
	addi	s0,sp,48
	.cfi_def_cfa 8, 0
	sd	a0,-24(s0)
	sd	a1,-32(s0)
	sd	a2,-40(s0)
	sd	a3,-48(s0)
	.loc 1 1899 42
	ld	a5,-24(s0)
	ld	a5,96(a5)
	.loc 1 1899 48
	ld	a5,64(a5)
	.loc 1 1899 11
	ld	a4,-24(s0)
	ld	a4,96(a4)
	ld	a3,-48(s0)
	ld	a2,-40(s0)
	ld	a1,-32(s0)
	mv	a0,a4
	jalr	a5
.LVL26:
	mv	a5,a0
	.loc 1 1900 1
	mv	a0,a5
	ld	ra,40(sp)
	.cfi_restore 1
	ld	s0,32(sp)
	.cfi_restore 8
	.cfi_def_cfa 2, 48
	addi	sp,sp,48
	.cfi_def_cfa_offset 0
	jr	ra
	.cfi_endproc
.LFE33:
	.size	FileInterfaceFileGetInfo, .-FileInterfaceFileGetInfo
	.section	.text.FileInterfaceFileSetInfo,"ax",@progbits
	.align	1
	.globl	FileInterfaceFileSetInfo
	.type	FileInterfaceFileSetInfo, @function
FileInterfaceFileSetInfo:
.LFB34:
	.loc 1 1927 1
	.cfi_startproc
	addi	sp,sp,-48
	.cfi_def_cfa_offset 48
	sd	ra,40(sp)
	sd	s0,32(sp)
	.cfi_offset 1, -8
	.cfi_offset 8, -16
	addi	s0,sp,48
	.cfi_def_cfa 8, 0
	sd	a0,-24(s0)
	sd	a1,-32(s0)
	sd	a2,-40(s0)
	sd	a3,-48(s0)
	.loc 1 1928 42
	ld	a5,-24(s0)
	ld	a5,96(a5)
	.loc 1 1928 48
	ld	a5,72(a5)
	.loc 1 1928 11
	ld	a4,-24(s0)
	ld	a4,96(a4)
	ld	a3,-48(s0)
	ld	a2,-40(s0)
	ld	a1,-32(s0)
	mv	a0,a4
	jalr	a5
.LVL27:
	mv	a5,a0
	.loc 1 1929 1
	mv	a0,a5
	ld	ra,40(sp)
	.cfi_restore 1
	ld	s0,32(sp)
	.cfi_restore 8
	.cfi_def_cfa 2, 48
	addi	sp,sp,48
	.cfi_def_cfa_offset 0
	jr	ra
	.cfi_endproc
.LFE34:
	.size	FileInterfaceFileSetInfo, .-FileInterfaceFileSetInfo
	.section	.text.FileInterfaceFileFlush,"ax",@progbits
	.align	1
	.globl	FileInterfaceFileFlush
	.type	FileInterfaceFileFlush, @function
FileInterfaceFileFlush:
.LFB35:
	.loc 1 1951 1
	.cfi_startproc
	addi	sp,sp,-32
	.cfi_def_cfa_offset 32
	sd	ra,24(sp)
	sd	s0,16(sp)
	.cfi_offset 1, -8
	.cfi_offset 8, -16
	addi	s0,sp,32
	.cfi_def_cfa 8, 0
	sd	a0,-24(s0)
	.loc 1 1952 42
	ld	a5,-24(s0)
	ld	a5,96(a5)
	.loc 1 1952 48
	ld	a5,80(a5)
	.loc 1 1952 11
	ld	a4,-24(s0)
	ld	a4,96(a4)
	mv	a0,a4
	jalr	a5
.LVL28:
	mv	a5,a0
	.loc 1 1953 1
	mv	a0,a5
	ld	ra,24(sp)
	.cfi_restore 1
	ld	s0,16(sp)
	.cfi_restore 8
	.cfi_def_cfa 2, 32
	addi	sp,sp,32
	.cfi_def_cfa_offset 0
	jr	ra
	.cfi_endproc
.LFE35:
	.size	FileInterfaceFileFlush, .-FileInterfaceFileFlush
	.section	.text.FileInterfaceFileRead,"ax",@progbits
	.align	1
	.globl	FileInterfaceFileRead
	.type	FileInterfaceFileRead, @function
FileInterfaceFileRead:
.LFB36:
	.loc 1 1976 1
	.cfi_startproc
	addi	sp,sp,-96
	.cfi_def_cfa_offset 96
	sd	ra,88(sp)
	sd	s0,80(sp)
	.cfi_offset 1, -8
	.cfi_offset 8, -16
	addi	s0,sp,96
	.cfi_def_cfa 8, 0
	sd	a0,-72(s0)
	sd	a1,-80(s0)
	sd	a2,-88(s0)
	.loc 1 1983 39
	ld	a5,-72(s0)
	lbu	a5,88(a5)
	.loc 1 1983 6
	beq	a5,zero,.L233
	.loc 1 1989 45
	ld	a5,-72(s0)
	ld	a5,96(a5)
	.loc 1 1989 51
	ld	a5,32(a5)
	.loc 1 1989 14
	ld	a4,-72(s0)
	ld	a4,96(a4)
	ld	a2,-88(s0)
	ld	a1,-80(s0)
	mv	a0,a4
	jalr	a5
.LVL29:
	mv	a5,a0
	j	.L245
.L233:
	.loc 1 1994 19
	ld	a5,-80(s0)
	ld	a5,0(a5)
	.loc 1 1994 49
	andi	a4,a5,-2
	.loc 1 1994 17
	ld	a5,-80(s0)
	sd	a4,0(a5)
	.loc 1 1995 9
	ld	a5,-80(s0)
	ld	a5,0(a5)
	.loc 1 1995 8
	bne	a5,zero,.L235
	.loc 1 1996 14
	li	a5,0
	j	.L245
.L235:
	.loc 1 1999 46
	ld	a5,-72(s0)
	ld	a5,96(a5)
	.loc 1 1999 52
	ld	a5,48(a5)
	.loc 1 1999 15
	ld	a4,-72(s0)
	ld	a4,96(a4)
	addi	a3,s0,-48
	mv	a1,a3
	mv	a0,a4
	jalr	a5
.LVL30:
	sd	a0,-24(s0)
	.loc 1 2000 36
	ld	a5,-24(s0)
	.loc 1 2000 8
	bge	a5,zero,.L236
	.loc 1 2001 14
	ld	a5,-24(s0)
	j	.L245
.L236:
	.loc 1 2004 18
	ld	a5,-48(s0)
	.loc 1 2004 8
	bne	a5,zero,.L237
	.loc 1 2008 25
	la	a5,gUnicodeFileTag
	lhu	a4,0(a5)
	ld	a5,-88(s0)
	sh	a4,0(a5)
	.loc 1 2009 14
	ld	a5,-88(s0)
	addi	a5,a5,2
	sd	a5,-88(s0)
	.loc 1 2010 14
	ld	a5,-80(s0)
	ld	a5,0(a5)
	.loc 1 2010 26
	srli	a5,a5,1
	.loc 1 2010 44
	addi	a5,a5,-1
	.loc 1 2010 12
	sd	a5,-56(s0)
	j	.L238
.L237:
	.loc 1 2012 14
	ld	a5,-80(s0)
	ld	a5,0(a5)
	.loc 1 2012 26
	srli	a5,a5,1
	.loc 1 2012 12
	sd	a5,-56(s0)
.L238:
	.loc 1 2015 22
	ld	a5,-56(s0)
	addi	a5,a5,1
	mv	a0,a5
	call	AllocateZeroPool@plt
	sd	a0,-32(s0)
	.loc 1 2016 8
	ld	a5,-32(s0)
	bne	a5,zero,.L239
	.loc 1 2017 14
	li	a5,-1
	slli	a5,a5,63
	addi	a5,a5,9
	j	.L245
.L239:
	.loc 1 2020 44
	ld	a5,-56(s0)
	addi	a5,a5,1
	.loc 1 2020 49
	slli	a5,a5,1
	.loc 1 2020 20
	mv	a0,a5
	call	AllocateZeroPool@plt
	sd	a0,-40(s0)
	.loc 1 2021 8
	ld	a5,-40(s0)
	bne	a5,zero,.L240
	.loc 1 2022 15
	ld	a5,-32(s0)
	beq	a5,zero,.L241
	.loc 1 2022 52 discriminator 1
	ld	a0,-32(s0)
	call	FreePool@plt
	.loc 1 2022 97 discriminator 2
	sd	zero,-32(s0)
.L241:
	.loc 1 2023 14
	li	a5,-1
	slli	a5,a5,63
	addi	a5,a5,9
	j	.L245
.L240:
	.loc 1 2026 46
	ld	a5,-72(s0)
	ld	a5,96(a5)
	.loc 1 2026 52
	ld	a5,32(a5)
	.loc 1 2026 15
	ld	a4,-72(s0)
	ld	a4,96(a4)
	addi	a3,s0,-56
	ld	a2,-32(s0)
	mv	a1,a3
	mv	a0,a4
	jalr	a5
.LVL31:
	sd	a0,-24(s0)
	.loc 1 2027 9
	ld	a5,-24(s0)
	.loc 1 2027 8
	blt	a5,zero,.L242
	.loc 1 2028 7
	ld	a5,-56(s0)
	addi	a5,a5,1
	mv	a2,a5
	ld	a1,-40(s0)
	ld	a0,-32(s0)
	call	AsciiStrToUnicodeStrS@plt
	.loc 1 2029 26
	ld	a5,-56(s0)
	slli	a4,a5,1
	.loc 1 2029 19
	ld	a5,-80(s0)
	sd	a4,0(a5)
	.loc 1 2030 7
	ld	a5,-80(s0)
	ld	a5,0(a5)
	mv	a2,a5
	ld	a1,-40(s0)
	ld	a0,-88(s0)
	call	CopyMem@plt
.L242:
	.loc 1 2033 13
	ld	a5,-32(s0)
	beq	a5,zero,.L243
	.loc 1 2033 50 discriminator 1
	ld	a0,-32(s0)
	call	FreePool@plt
	.loc 1 2033 95 discriminator 2
	sd	zero,-32(s0)
.L243:
	.loc 1 2034 13
	ld	a5,-40(s0)
	beq	a5,zero,.L244
	.loc 1 2034 48 discriminator 1
	ld	a0,-40(s0)
	call	FreePool@plt
	.loc 1 2034 89 discriminator 2
	sd	zero,-40(s0)
.L244:
	.loc 1 2035 12
	ld	a5,-24(s0)
.L245:
	.loc 1 2037 1
	mv	a0,a5
	ld	ra,88(sp)
	.cfi_restore 1
	ld	s0,80(sp)
	.cfi_restore 8
	.cfi_def_cfa 2, 96
	addi	sp,sp,96
	.cfi_def_cfa_offset 0
	jr	ra
	.cfi_endproc
.LFE36:
	.size	FileInterfaceFileRead, .-FileInterfaceFileRead
	.section	.text.FileInterfaceFileOpen,"ax",@progbits
	.align	1
	.globl	FileInterfaceFileOpen
	.type	FileInterfaceFileOpen, @function
FileInterfaceFileOpen:
.LFB37:
	.loc 1 2067 1
	.cfi_startproc
	addi	sp,sp,-64
	.cfi_def_cfa_offset 64
	sd	ra,56(sp)
	sd	s0,48(sp)
	.cfi_offset 1, -8
	.cfi_offset 8, -16
	addi	s0,sp,64
	.cfi_def_cfa 8, 0
	sd	a0,-24(s0)
	sd	a1,-32(s0)
	sd	a2,-40(s0)
	sd	a3,-48(s0)
	sd	a4,-56(s0)
	.loc 1 2068 42
	ld	a5,-24(s0)
	ld	a5,96(a5)
	.loc 1 2068 48
	ld	a5,8(a5)
	.loc 1 2068 11
	ld	a4,-24(s0)
	ld	a0,96(a4)
	ld	a4,-56(s0)
	ld	a3,-48(s0)
	ld	a2,-40(s0)
	ld	a1,-32(s0)
	jalr	a5
.LVL32:
	mv	a5,a0
	.loc 1 2069 1
	mv	a0,a5
	ld	ra,56(sp)
	.cfi_restore 1
	ld	s0,48(sp)
	.cfi_restore 8
	.cfi_def_cfa 2, 64
	addi	sp,sp,64
	.cfi_def_cfa_offset 0
	jr	ra
	.cfi_endproc
.LFE37:
	.size	FileInterfaceFileOpen, .-FileInterfaceFileOpen
	.section	.text.FileInterfaceFileDelete,"ax",@progbits
	.align	1
	.globl	FileInterfaceFileDelete
	.type	FileInterfaceFileDelete, @function
FileInterfaceFileDelete:
.LFB38:
	.loc 1 2085 1
	.cfi_startproc
	addi	sp,sp,-48
	.cfi_def_cfa_offset 48
	sd	ra,40(sp)
	sd	s0,32(sp)
	.cfi_offset 1, -8
	.cfi_offset 8, -16
	addi	s0,sp,48
	.cfi_def_cfa 8, 0
	sd	a0,-40(s0)
	.loc 1 2088 44
	ld	a5,-40(s0)
	ld	a5,96(a5)
	.loc 1 2088 50
	ld	a5,24(a5)
	.loc 1 2088 13
	ld	a4,-40(s0)
	ld	a4,96(a4)
	mv	a0,a4
	jalr	a5
.LVL33:
	sd	a0,-24(s0)
	.loc 1 2089 3
	ld	a0,-40(s0)
	call	FreePool@plt
	.loc 1 2090 10
	ld	a5,-24(s0)
	.loc 1 2091 1
	mv	a0,a5
	ld	ra,40(sp)
	.cfi_restore 1
	ld	s0,32(sp)
	.cfi_restore 8
	.cfi_def_cfa 2, 48
	addi	sp,sp,48
	.cfi_def_cfa_offset 0
	jr	ra
	.cfi_endproc
.LFE38:
	.size	FileInterfaceFileDelete, .-FileInterfaceFileDelete
	.section	.text.FileInterfaceFileClose,"ax",@progbits
	.align	1
	.globl	FileInterfaceFileClose
	.type	FileInterfaceFileClose, @function
FileInterfaceFileClose:
.LFB39:
	.loc 1 2105 1
	.cfi_startproc
	addi	sp,sp,-48
	.cfi_def_cfa_offset 48
	sd	ra,40(sp)
	sd	s0,32(sp)
	.cfi_offset 1, -8
	.cfi_offset 8, -16
	addi	s0,sp,48
	.cfi_def_cfa 8, 0
	sd	a0,-40(s0)
	.loc 1 2108 44
	ld	a5,-40(s0)
	ld	a5,96(a5)
	.loc 1 2108 50
	ld	a5,16(a5)
	.loc 1 2108 13
	ld	a4,-40(s0)
	ld	a4,96(a4)
	mv	a0,a4
	jalr	a5
.LVL34:
	sd	a0,-24(s0)
	.loc 1 2109 3
	ld	a0,-40(s0)
	call	FreePool@plt
	.loc 1 2110 10
	ld	a5,-24(s0)
	.loc 1 2111 1
	mv	a0,a5
	ld	ra,40(sp)
	.cfi_restore 1
	ld	s0,32(sp)
	.cfi_restore 8
	.cfi_def_cfa 2, 48
	addi	sp,sp,48
	.cfi_def_cfa_offset 0
	jr	ra
	.cfi_endproc
.LFE39:
	.size	FileInterfaceFileClose, .-FileInterfaceFileClose
	.section	.text.FileInterfaceFileWrite,"ax",@progbits
	.align	1
	.globl	FileInterfaceFileWrite
	.type	FileInterfaceFileWrite, @function
FileInterfaceFileWrite:
.LFB40:
	.loc 1 2132 1
	.cfi_startproc
	addi	sp,sp,-80
	.cfi_def_cfa_offset 80
	sd	ra,72(sp)
	sd	s0,64(sp)
	.cfi_offset 1, -8
	.cfi_offset 8, -16
	addi	s0,sp,80
	.cfi_def_cfa 8, 0
	sd	a0,-56(s0)
	sd	a1,-64(s0)
	sd	a2,-72(s0)
	.loc 1 2137 39
	ld	a5,-56(s0)
	lbu	a5,88(a5)
	.loc 1 2137 6
	beq	a5,zero,.L253
	.loc 1 2141 45
	ld	a5,-56(s0)
	ld	a5,96(a5)
	.loc 1 2141 51
	ld	a5,40(a5)
	.loc 1 2141 14
	ld	a4,-56(s0)
	ld	a4,96(a4)
	ld	a2,-72(s0)
	ld	a1,-64(s0)
	mv	a0,a4
	jalr	a5
.LVL35:
	mv	a5,a0
	j	.L256
.L253:
	.loc 1 2146 19
	ld	a5,-64(s0)
	ld	a5,0(a5)
	mv	a0,a5
	call	AllocateZeroPool@plt
	sd	a0,-24(s0)
	.loc 1 2147 8
	ld	a5,-24(s0)
	bne	a5,zero,.L255
	.loc 1 2148 14
	li	a5,-1
	slli	a5,a5,63
	addi	a5,a5,9
	j	.L256
.L255:
	.loc 1 2151 5
	ld	a5,-64(s0)
	ld	a5,0(a5)
	ld	a3,-72(s0)
	lla	a2,.LC11
	mv	a1,a5
	ld	a0,-24(s0)
	call	AsciiSPrint@plt
	.loc 1 2152 12
	ld	a0,-24(s0)
	call	AsciiStrSize@plt
	mv	a5,a0
	.loc 1 2152 39 discriminator 1
	addi	a5,a5,-1
	.loc 1 2152 10 discriminator 1
	sd	a5,-40(s0)
	.loc 1 2153 47
	ld	a5,-56(s0)
	ld	a5,96(a5)
	.loc 1 2153 53
	ld	a5,40(a5)
	.loc 1 2153 16
	ld	a4,-56(s0)
	ld	a4,96(a4)
	addi	a3,s0,-40
	ld	a2,-24(s0)
	mv	a1,a3
	mv	a0,a4
	jalr	a5
.LVL36:
	sd	a0,-32(s0)
	.loc 1 2154 5
	ld	a0,-24(s0)
	call	FreePool@plt
	.loc 1 2155 12
	ld	a5,-32(s0)
.L256:
	.loc 1 2157 1
	mv	a0,a5
	ld	ra,72(sp)
	.cfi_restore 1
	ld	s0,64(sp)
	.cfi_restore 8
	.cfi_def_cfa 2, 80
	addi	sp,sp,80
	.cfi_def_cfa_offset 0
	jr	ra
	.cfi_endproc
.LFE40:
	.size	FileInterfaceFileWrite, .-FileInterfaceFileWrite
	.section	.text.CreateFileInterfaceFile,"ax",@progbits
	.align	1
	.globl	CreateFileInterfaceFile
	.type	CreateFileInterfaceFile, @function
CreateFileInterfaceFile:
.LFB41:
	.loc 1 2175 1
	.cfi_startproc
	addi	sp,sp,-48
	.cfi_def_cfa_offset 48
	sd	ra,40(sp)
	sd	s0,32(sp)
	.cfi_offset 1, -8
	.cfi_offset 8, -16
	addi	s0,sp,48
	.cfi_def_cfa 8, 0
	sd	a0,-40(s0)
	mv	a5,a1
	sb	a5,-41(s0)
	.loc 1 2178 12
	li	a0,104
	call	AllocateZeroPool@plt
	sd	a0,-24(s0)
	.loc 1 2179 6
	ld	a5,-24(s0)
	bne	a5,zero,.L258
	.loc 1 2180 12
	li	a5,0
	j	.L259
.L258:
	.loc 1 2183 3
	li	a2,104
	ld	a1,-40(s0)
	ld	a0,-24(s0)
	call	CopyMem@plt
	.loc 1 2184 16
	ld	a5,-24(s0)
	ld	a4,-40(s0)
	sd	a4,96(a5)
	.loc 1 2185 19
	ld	a5,-24(s0)
	lbu	a4,-41(s0)
	sb	a4,88(a5)
	.loc 1 2186 16
	ld	a5,-24(s0)
	lla	a4,FileInterfaceFileOpen
	sd	a4,8(a5)
	.loc 1 2187 17
	ld	a5,-24(s0)
	lla	a4,FileInterfaceFileClose
	sd	a4,16(a5)
	.loc 1 2188 18
	ld	a5,-24(s0)
	lla	a4,FileInterfaceFileDelete
	sd	a4,24(a5)
	.loc 1 2189 16
	ld	a5,-24(s0)
	lla	a4,FileInterfaceFileRead
	sd	a4,32(a5)
	.loc 1 2190 17
	ld	a5,-24(s0)
	lla	a4,FileInterfaceFileWrite
	sd	a4,40(a5)
	.loc 1 2191 23
	ld	a5,-24(s0)
	lla	a4,FileInterfaceFileGetPosition
	sd	a4,48(a5)
	.loc 1 2192 23
	ld	a5,-24(s0)
	lla	a4,FileInterfaceFileSetPosition
	sd	a4,56(a5)
	.loc 1 2193 19
	ld	a5,-24(s0)
	lla	a4,FileInterfaceFileGetInfo
	sd	a4,64(a5)
	.loc 1 2194 19
	ld	a5,-24(s0)
	lla	a4,FileInterfaceFileSetInfo
	sd	a4,72(a5)
	.loc 1 2195 17
	ld	a5,-24(s0)
	lla	a4,FileInterfaceFileFlush
	sd	a4,80(a5)
	.loc 1 2197 11
	ld	a5,-24(s0)
.L259:
	.loc 1 2198 1
	mv	a0,a5
	ld	ra,40(sp)
	.cfi_restore 1
	ld	s0,32(sp)
	.cfi_restore 8
	.cfi_def_cfa 2, 48
	addi	sp,sp,48
	.cfi_def_cfa_offset 0
	jr	ra
	.cfi_endproc
.LFE41:
	.size	CreateFileInterfaceFile, .-CreateFileInterfaceFile
	.text
.Letext0:
	.file 2 "/home/kapoagaeming/Downloads/spacemit-image-builder/components/edk2/MdePkg/Include/RiscV64/ProcessorBind.h"
	.file 3 "/home/kapoagaeming/Downloads/spacemit-image-builder/components/edk2/MdePkg/Include/Base.h"
	.file 4 "/home/kapoagaeming/Downloads/spacemit-image-builder/components/edk2/MdePkg/Include/Uefi/UefiBaseType.h"
	.file 5 "/home/kapoagaeming/Downloads/spacemit-image-builder/components/edk2/MdePkg/Include/Uefi/UefiMultiPhase.h"
	.file 6 "/home/kapoagaeming/Downloads/spacemit-image-builder/components/edk2/MdePkg/Include/Protocol/DevicePath.h"
	.file 7 "/home/kapoagaeming/Downloads/spacemit-image-builder/components/edk2/MdePkg/Include/Protocol/SimpleTextIn.h"
	.file 8 "/home/kapoagaeming/Downloads/spacemit-image-builder/components/edk2/MdePkg/Include/Protocol/SimpleTextOut.h"
	.file 9 "/home/kapoagaeming/Downloads/spacemit-image-builder/components/edk2/MdePkg/Include/Uefi/UefiSpec.h"
	.file 10 "/home/kapoagaeming/Downloads/spacemit-image-builder/components/edk2/MdePkg/Include/Uefi/UefiInternalFormRepresentation.h"
	.file 11 "/home/kapoagaeming/Downloads/spacemit-image-builder/components/Build/Milk-V-Jupiter/RELEASE_GCC5/RISCV64/ShellPkg/Application/Shell/Shell/DEBUG/AutoGen.h"
	.file 12 "/home/kapoagaeming/Downloads/spacemit-image-builder/components/edk2/MdePkg/Include/Guid/FileInfo.h"
	.file 13 "/home/kapoagaeming/Downloads/spacemit-image-builder/components/edk2/MdePkg/Include/Protocol/Shell.h"
	.file 14 "/home/kapoagaeming/Downloads/spacemit-image-builder/components/edk2/MdePkg/Include/Protocol/SimpleFileSystem.h"
	.file 15 "/home/kapoagaeming/Downloads/spacemit-image-builder/components/edk2/MdePkg/Include/Protocol/ShellParameters.h"
	.file 16 "/home/kapoagaeming/Downloads/spacemit-image-builder/components/edk2/MdePkg/Include/Library/UefiBootServicesTableLib.h"
	.file 17 "/home/kapoagaeming/Downloads/spacemit-image-builder/components/edk2/ShellPkg/Include/Library/ShellCommandLib.h"
	.file 18 "/home/kapoagaeming/Downloads/spacemit-image-builder/components/edk2/MdePkg/Include/Library/UefiRuntimeServicesTableLib.h"
	.file 19 "/home/kapoagaeming/Downloads/spacemit-image-builder/components/edk2/ShellPkg/Include/Library/ShellLib.h"
	.file 20 "/home/kapoagaeming/Downloads/spacemit-image-builder/components/edk2/MdePkg/Include/Library/FileHandleLib.h"
	.file 21 "/home/kapoagaeming/Downloads/spacemit-image-builder/components/edk2/ShellPkg/Application/Shell/ShellProtocol.h"
	.file 22 "/home/kapoagaeming/Downloads/spacemit-image-builder/components/edk2/ShellPkg/Application/Shell/ConsoleLogger.h"
	.file 23 "/home/kapoagaeming/Downloads/spacemit-image-builder/components/edk2/ShellPkg/Application/Shell/FileHandleWrappers.h"
	.file 24 "/home/kapoagaeming/Downloads/spacemit-image-builder/components/edk2/ShellPkg/Application/Shell/Shell.h"
	.file 25 "/home/kapoagaeming/Downloads/spacemit-image-builder/components/edk2/MdePkg/Include/Library/BaseLib.h"
	.file 26 "/home/kapoagaeming/Downloads/spacemit-image-builder/components/edk2/MdePkg/Include/Library/PrintLib.h"
	.file 27 "/home/kapoagaeming/Downloads/spacemit-image-builder/components/edk2/MdePkg/Include/Library/MemoryAllocationLib.h"
	.file 28 "/home/kapoagaeming/Downloads/spacemit-image-builder/components/edk2/MdePkg/Include/Library/BaseMemoryLib.h"
	.file 29 "/home/kapoagaeming/Downloads/spacemit-image-builder/components/edk2/ShellPkg/Application/Shell/ShellEnvVar.h"
	.file 30 "/home/kapoagaeming/Downloads/spacemit-image-builder/components/edk2/MdePkg/Include/Library/DebugLib.h"
	.section	.note.GNU-stack,"",@progbits
