	.file	"ShellParametersProtocol.c"
	.option pic
	.option norelax
	.attribute arch, "rv64i2p1_m2p0_a2p1_f2p2_d2p2_c2p0_zicsr2p0_zifencei2p0_zmmul1p0_zaamo1p0_zalrsc1p0_zca1p0_zcd1p0"
	.attribute unaligned_access, 0
	.attribute stack_align, 16
	.text
.Ltext0:
	.cfi_sections	.debug_frame
	.file 0 "/home/kapoagaeming/spacemit-image-builder/components/Build/Milk-V-Jupiter/RELEASE_GCC5/RISCV64/ShellPkg/Application/Shell/Shell" "/home/kapoagaeming/spacemit-image-builder/components/edk2/ShellPkg/Application/Shell/ShellParametersProtocol.c"
	.globl	AsciiRedirection
	.section	.bss.AsciiRedirection,"aw",@nobits
	.type	AsciiRedirection, @object
	.size	AsciiRedirection, 1
AsciiRedirection:
	.zero	1
	.section	.rodata
	.align	3
.LC0:
	.string	" "
	.string	"\""
	.zero	2
	.align	3
.LC1:
	.string	"\""
	.zero	2
	.section	.text.FindEndOfParameter,"ax",@progbits
	.align	1
	.globl	FindEndOfParameter
	.type	FindEndOfParameter, @function
FindEndOfParameter:
.LFB0:
	.file 1 "/home/kapoagaeming/spacemit-image-builder/components/edk2/ShellPkg/Application/Shell/ShellParametersProtocol.c"
	.loc 1 26 1
	.cfi_startproc
	addi	sp,sp,-48
	.cfi_def_cfa_offset 48
	sd	ra,40(sp)
	sd	s0,32(sp)
	.cfi_offset 1, -8
	.cfi_offset 8, -16
	addi	s0,sp,48
	.cfi_def_cfa 8, 0
	sd	a0,-40(s0)
	.loc 1 30 11
	li	a2,94
	lla	a1,.LC0
	ld	a0,-40(s0)
	call	FindFirstCharacter@plt
	sd	a0,-24(s0)
	.loc 1 35 7
	ld	a5,-24(s0)
	lhu	a5,0(a5)
	.loc 1 35 6
	bne	a5,zero,.L2
	.loc 1 36 12
	ld	a5,-24(s0)
	j	.L3
.L2:
	.loc 1 43 7
	ld	a5,-24(s0)
	lhu	a5,0(a5)
	.loc 1 43 6
	sext.w	a4,a5
	li	a5,32
	bne	a4,a5,.L4
	.loc 1 44 12
	ld	a5,-24(s0)
	j	.L3
.L4:
	.loc 1 47 16
	ld	a5,-24(s0)
	addi	a5,a5,2
	li	a2,94
	lla	a1,.LC1
	mv	a0,a5
	call	FindFirstCharacter@plt
	sd	a0,-32(s0)
	.loc 1 52 7
	ld	a5,-32(s0)
	lhu	a5,0(a5)
	.loc 1 52 6
	bne	a5,zero,.L5
	.loc 1 53 12
	li	a5,0
	j	.L3
.L5:
	.loc 1 56 11
	ld	a5,-32(s0)
	addi	a5,a5,2
	mv	a0,a5
	call	FindEndOfParameter
	mv	a5,a0
.L3:
	.loc 1 57 1
	mv	a0,a5
	ld	ra,40(sp)
	.cfi_restore 1
	ld	s0,32(sp)
	.cfi_restore 8
	.cfi_def_cfa 2, 48
	addi	sp,sp,48
	.cfi_def_cfa_offset 0
	jr	ra
	.cfi_endproc
.LFE0:
	.size	FindEndOfParameter, .-FindEndOfParameter
	.section	.rodata
	.align	3
.LC2:
	.string	"\""
	.string	"^"
	.zero	2
	.section	.text.GetNextParameter,"ax",@progbits
	.align	1
	.globl	GetNextParameter
	.type	GetNextParameter, @function
GetNextParameter:
.LFB1:
	.loc 1 88 1
	.cfi_startproc
	addi	sp,sp,-80
	.cfi_def_cfa_offset 80
	sd	ra,72(sp)
	sd	s0,64(sp)
	sd	s1,56(sp)
	.cfi_offset 1, -8
	.cfi_offset 8, -16
	.cfi_offset 9, -24
	addi	s0,sp,80
	.cfi_def_cfa 8, 0
	sd	a0,-56(s0)
	sd	a1,-64(s0)
	sd	a2,-72(s0)
	mv	a5,a3
	sb	a5,-73(s0)
	.loc 1 91 6
	ld	a5,-56(s0)
	beq	a5,zero,.L7
	.loc 1 92 10
	ld	a5,-56(s0)
	ld	a5,0(a5)
	.loc 1 92 6
	beq	a5,zero,.L7
	.loc 1 93 6
	ld	a5,-64(s0)
	beq	a5,zero,.L7
	.loc 1 94 10
	ld	a5,-64(s0)
	ld	a5,0(a5)
	.loc 1 94 6
	bne	a5,zero,.L10
.L7:
	.loc 1 97 12
	li	a5,-1
	slli	a5,a5,63
	addi	a5,a5,2
	j	.L9
.L11:
	.loc 1 104 6
	ld	a5,-56(s0)
	ld	a5,0(a5)
	.loc 1 104 14
	addi	a4,a5,2
	ld	a5,-56(s0)
	sd	a4,0(a5)
.L10:
	.loc 1 103 11
	ld	a5,-56(s0)
	ld	a5,0(a5)
	.loc 1 103 19
	lhu	a5,0(a5)
	.loc 1 103 23
	sext.w	a4,a5
	li	a5,32
	beq	a4,a5,.L11
	.loc 1 110 7
	ld	a5,-56(s0)
	ld	a5,0(a5)
	mv	a0,a5
	call	StrLen@plt
	mv	a5,a0
	.loc 1 110 6 discriminator 1
	bne	a5,zero,.L12
	.loc 1 111 14
	call	DebugCodeEnabled@plt
	mv	a5,a0
	.loc 1 111 13 discriminator 1
	beq	a5,zero,.L13
	.loc 1 112 13
	ld	a5,-56(s0)
	sd	zero,0(a5)
.L13:
	.loc 1 114 12
	li	a5,-1
	slli	a5,a5,63
	addi	a5,a5,2
	j	.L9
.L12:
	.loc 1 117 15
	ld	a5,-56(s0)
	ld	a5,0(a5)
	mv	a0,a5
	call	FindEndOfParameter
	sd	a0,-40(s0)
	.loc 1 119 6
	ld	a5,-40(s0)
	bne	a5,zero,.L14
	.loc 1 120 14
	call	DebugCodeEnabled@plt
	mv	a5,a0
	.loc 1 120 13 discriminator 1
	beq	a5,zero,.L15
	.loc 1 121 13
	ld	a5,-56(s0)
	sd	zero,0(a5)
.L15:
	.loc 1 123 12
	li	a5,-1
	slli	a5,a5,63
	addi	a5,a5,14
	j	.L9
.L14:
	.loc 1 126 3
	ld	a5,-64(s0)
	ld	a0,0(a5)
	.loc 1 126 36
	ld	a5,-72(s0)
	srli	a1,a5,1
	.loc 1 126 3
	ld	a5,-56(s0)
	ld	a2,0(a5)
	.loc 1 126 78
	ld	a5,-56(s0)
	ld	a5,0(a5)
	.loc 1 126 76
	ld	a4,-40(s0)
	sub	a5,a4,a5
	srai	a5,a5,1
	.loc 1 126 3
	mv	a3,a5
	call	StrnCpyS@plt
	.loc 1 131 7
	ld	a5,-40(s0)
	lhu	a5,0(a5)
	.loc 1 131 6
	beq	a5,zero,.L16
	.loc 1 132 6
	ld	a5,-64(s0)
	ld	a5,0(a5)
	.loc 1 132 34
	ld	a4,-56(s0)
	ld	a4,0(a4)
	.loc 1 132 32
	ld	a3,-40(s0)
	sub	a4,a3,a4
	.loc 1 132 21
	add	a5,a5,a4
	.loc 1 132 43
	sh	zero,0(a5)
.L16:
	.loc 1 138 11
	ld	a5,-56(s0)
	ld	a4,-40(s0)
	sd	a4,0(a5)
	.loc 1 144 20
	ld	a5,-64(s0)
	ld	a5,0(a5)
	li	a2,0
	lla	a1,.LC2
	mv	a0,a5
	call	FindFirstCharacter@plt
	sd	a0,-40(s0)
	.loc 1 144 3
	j	.L17
.L21:
	.loc 1 149 9
	ld	a5,-40(s0)
	lhu	a5,0(a5)
	.loc 1 149 8
	sext.w	a4,a5
	li	a5,94
	bne	a4,a5,.L18
	.loc 1 153 47
	ld	a5,-40(s0)
	addi	s1,a5,2
	.loc 1 153 7
	ld	a5,-40(s0)
	addi	a5,a5,2
	mv	a0,a5
	call	StrSize@plt
	mv	a5,a0
	.loc 1 153 7 is_stmt 0 discriminator 1
	mv	a2,a5
	mv	a1,s1
	ld	a0,-40(s0)
	call	CopyMem@plt
	.loc 1 154 16 is_stmt 1
	ld	a5,-40(s0)
	addi	a5,a5,2
	sd	a5,-40(s0)
	j	.L19
.L18:
	.loc 1 155 16
	ld	a5,-40(s0)
	lhu	a5,0(a5)
	.loc 1 155 15
	sext.w	a4,a5
	li	a5,34
	bne	a4,a5,.L19
	.loc 1 159 10
	lbu	a5,-73(s0)
	andi	a5,a5,0xff
	beq	a5,zero,.L20
	.loc 1 160 49
	ld	a5,-40(s0)
	addi	s1,a5,2
	.loc 1 160 9
	ld	a5,-40(s0)
	addi	a5,a5,2
	mv	a0,a5
	call	StrSize@plt
	mv	a5,a0
	.loc 1 160 9 is_stmt 0 discriminator 1
	mv	a2,a5
	mv	a1,s1
	ld	a0,-40(s0)
	call	CopyMem@plt
	j	.L19
.L20:
	.loc 1 162 18 is_stmt 1
	ld	a5,-40(s0)
	addi	a5,a5,2
	sd	a5,-40(s0)
.L19:
	.loc 1 146 22
	li	a2,0
	lla	a1,.LC2
	ld	a0,-40(s0)
	call	FindFirstCharacter@plt
	sd	a0,-40(s0)
.L17:
	.loc 1 145 10
	ld	a5,-40(s0)
	lhu	a5,0(a5)
	.loc 1 145 21
	bne	a5,zero,.L21
	.loc 1 167 10
	li	a5,0
.L9:
	.loc 1 168 1
	mv	a0,a5
	ld	ra,72(sp)
	.cfi_restore 1
	ld	s0,64(sp)
	.cfi_restore 8
	.cfi_def_cfa 2, 80
	ld	s1,56(sp)
	.cfi_restore 9
	addi	sp,sp,80
	.cfi_def_cfa_offset 0
	jr	ra
	.cfi_endproc
.LFE1:
	.size	GetNextParameter, .-GetNextParameter
	.section	.text.ParseCommandLineToArgs,"ax",@progbits
	.align	1
	.globl	ParseCommandLineToArgs
	.type	ParseCommandLineToArgs, @function
ParseCommandLineToArgs:
.LFB2:
	.loc 1 197 1
	.cfi_startproc
	addi	sp,sp,-112
	.cfi_def_cfa_offset 112
	sd	ra,104(sp)
	sd	s0,96(sp)
	.cfi_offset 1, -8
	.cfi_offset 8, -16
	addi	s0,sp,112
	.cfi_def_cfa 8, 0
	sd	a0,-88(s0)
	mv	a5,a1
	sd	a2,-104(s0)
	sd	a3,-112(s0)
	sb	a5,-89(s0)
	.loc 1 209 6
	ld	a5,-88(s0)
	beq	a5,zero,.L23
	.loc 1 209 41 discriminator 1
	ld	a0,-88(s0)
	call	StrLen@plt
	mv	a5,a0
	.loc 1 209 37 discriminator 2
	bne	a5,zero,.L24
.L23:
	.loc 1 210 13
	ld	a5,-112(s0)
	sd	zero,0(a5)
	.loc 1 211 13
	ld	a5,-104(s0)
	sd	zero,0(a5)
	.loc 1 212 12
	li	a5,0
	j	.L42
.L24:
	.loc 1 215 20
	ld	a0,-88(s0)
	call	StrSize@plt
	mv	a5,a0
	.loc 1 215 20 is_stmt 0 discriminator 1
	ld	a1,-88(s0)
	mv	a0,a5
	call	AllocateCopyPool@plt
	mv	a5,a0
	.loc 1 215 18 is_stmt 1 discriminator 2
	sd	a5,-72(s0)
	.loc 1 216 22
	ld	a5,-72(s0)
	.loc 1 216 6
	bne	a5,zero,.L26
	.loc 1 217 12
	li	a5,-1
	slli	a5,a5,63
	addi	a5,a5,9
	j	.L42
.L26:
	.loc 1 220 3
	addi	a5,s0,-72
	mv	a0,a5
	call	TrimSpaces@plt
	.loc 1 221 10
	ld	a5,-72(s0)
	mv	a0,a5
	call	StrSize@plt
	sd	a0,-40(s0)
	.loc 1 222 19
	ld	a0,-40(s0)
	call	AllocateZeroPool@plt
	mv	a5,a0
	.loc 1 222 17 discriminator 1
	sd	a5,-56(s0)
	.loc 1 223 21
	ld	a5,-56(s0)
	.loc 1 223 6
	bne	a5,zero,.L27
	.loc 1 224 31
	ld	a5,-72(s0)
	.loc 1 224 13
	beq	a5,zero,.L28
	.loc 1 224 50 discriminator 1
	ld	a5,-72(s0)
	mv	a0,a5
	call	FreePool@plt
	.loc 1 224 95 discriminator 2
	sd	zero,-72(s0)
.L28:
	.loc 1 225 12
	li	a5,-1
	slli	a5,a5,63
	addi	a5,a5,9
	j	.L42
.L27:
	.loc 1 228 15
	sd	zero,-24(s0)
	.loc 1 229 16
	ld	a5,-72(s0)
	sd	a5,-64(s0)
	.loc 1 228 3
	j	.L29
.L32:
	.loc 1 234 27
	addi	a4,s0,-56
	addi	a5,s0,-64
	li	a3,1
	ld	a2,-40(s0)
	mv	a1,a4
	mv	a0,a5
	call	GetNextParameter
	mv	a5,a0
	.loc 1 234 8 discriminator 1
	blt	a5,zero,.L43
	.loc 1 231 16
	ld	a5,-24(s0)
	addi	a5,a5,1
	sd	a5,-24(s0)
.L29:
	.loc 1 230 18
	ld	a5,-64(s0)
	.loc 1 230 34
	beq	a5,zero,.L31
	.loc 1 230 37 discriminator 1
	ld	a5,-64(s0)
	lhu	a5,0(a5)
	.loc 1 230 34 discriminator 1
	bne	a5,zero,.L32
	j	.L31
.L43:
	.loc 1 235 7
	nop
.L31:
	.loc 1 242 38
	ld	a5,-24(s0)
	slli	a5,a5,3
	.loc 1 242 13
	mv	a0,a5
	call	AllocateZeroPool@plt
	mv	a4,a0
	.loc 1 242 11 discriminator 1
	ld	a5,-104(s0)
	sd	a4,0(a5)
	.loc 1 243 7
	ld	a5,-104(s0)
	ld	a5,0(a5)
	.loc 1 243 6
	bne	a5,zero,.L33
	.loc 1 244 12
	li	a5,-1
	slli	a5,a5,63
	addi	a5,a5,9
	sd	a5,-32(s0)
	.loc 1 245 5
	j	.L34
.L33:
	.loc 1 248 9
	ld	a5,-112(s0)
	sd	zero,0(a5)
	.loc 1 249 10
	ld	a5,-72(s0)
	sd	a5,-64(s0)
	.loc 1 250 9
	j	.L35
.L39:
	.loc 1 251 5
	ld	a5,-56(s0)
	li	a2,0
	ld	a1,-40(s0)
	mv	a0,a5
	call	SetMem16@plt
	.loc 1 252 27
	lbu	a3,-89(s0)
	addi	a4,s0,-56
	addi	a5,s0,-64
	ld	a2,-40(s0)
	mv	a1,a4
	mv	a0,a5
	call	GetNextParameter
	mv	a5,a0
	.loc 1 252 8 discriminator 1
	bge	a5,zero,.L36
	.loc 1 253 14
	li	a5,-1
	slli	a5,a5,63
	addi	a5,a5,2
	sd	a5,-32(s0)
	.loc 1 254 7
	j	.L34
.L36:
	.loc 1 257 16
	ld	a5,-56(s0)
	mv	a0,a5
	call	StrSize@plt
	mv	a4,a0
	.loc 1 257 16 is_stmt 0 discriminator 1
	ld	a5,-56(s0)
	mv	a1,a5
	mv	a0,a4
	call	AllocateCopyPool@plt
	sd	a0,-48(s0)
	.loc 1 258 8 is_stmt 1
	ld	a5,-48(s0)
	bne	a5,zero,.L37
	.loc 1 259 14
	li	a5,-1
	slli	a5,a5,63
	addi	a5,a5,9
	sd	a5,-32(s0)
	.loc 1 260 7
	j	.L34
.L37:
	.loc 1 263 18
	ld	a5,-104(s0)
	ld	a4,0(a5)
	.loc 1 263 27
	ld	a5,-112(s0)
	ld	a5,0(a5)
	.loc 1 263 25
	slli	a5,a5,3
	add	a5,a4,a5
	.loc 1 263 35
	ld	a4,-48(s0)
	sd	a4,0(a5)
	.loc 1 264 6
	ld	a5,-112(s0)
	ld	a5,0(a5)
	.loc 1 264 12
	addi	a4,a5,1
	ld	a5,-112(s0)
	sd	a4,0(a5)
.L35:
	.loc 1 250 17
	ld	a5,-64(s0)
	.loc 1 250 33
	beq	a5,zero,.L38
	.loc 1 250 36 discriminator 1
	ld	a5,-64(s0)
	lhu	a5,0(a5)
	.loc 1 250 33 discriminator 1
	bne	a5,zero,.L39
.L38:
	.loc 1 268 10
	sd	zero,-32(s0)
.L34:
	.loc 1 271 28
	ld	a5,-56(s0)
	.loc 1 271 11
	beq	a5,zero,.L40
	.loc 1 271 47 discriminator 1
	ld	a5,-56(s0)
	mv	a0,a5
	call	FreePool@plt
	.loc 1 271 90 discriminator 2
	sd	zero,-56(s0)
.L40:
	.loc 1 272 29
	ld	a5,-72(s0)
	.loc 1 272 11
	beq	a5,zero,.L41
	.loc 1 272 48 discriminator 1
	ld	a5,-72(s0)
	mv	a0,a5
	call	FreePool@plt
	.loc 1 272 93 discriminator 2
	sd	zero,-72(s0)
.L41:
	.loc 1 273 10
	ld	a5,-32(s0)
.L42:
	.loc 1 274 1
	mv	a0,a5
	ld	ra,104(sp)
	.cfi_restore 1
	ld	s0,96(sp)
	.cfi_restore 8
	.cfi_def_cfa 2, 112
	addi	sp,sp,112
	.cfi_def_cfa_offset 0
	jr	ra
	.cfi_endproc
.LFE2:
	.size	ParseCommandLineToArgs, .-ParseCommandLineToArgs
	.section	.rodata
	.align	3
.LC3:
	.string	"S"
	.string	"h"
	.string	"e"
	.string	"l"
	.string	"l"
	.string	"O"
	.string	"p"
	.string	"t"
	.zero	2
	.section	.text.CreatePopulateInstallShellParametersProtocol,"ax",@progbits
	.align	1
	.globl	CreatePopulateInstallShellParametersProtocol
	.type	CreatePopulateInstallShellParametersProtocol, @function
CreatePopulateInstallShellParametersProtocol:
.LFB3:
	.loc 1 297 1
	.cfi_startproc
	addi	sp,sp,-64
	.cfi_def_cfa_offset 64
	sd	ra,56(sp)
	sd	s0,48(sp)
	.cfi_offset 1, -8
	.cfi_offset 8, -16
	addi	s0,sp,64
	.cfi_def_cfa 8, 0
	sd	a0,-56(s0)
	sd	a1,-64(s0)
	.loc 1 303 8
	sd	zero,-48(s0)
	.loc 1 304 19
	sd	zero,-32(s0)
	.loc 1 305 15
	sd	zero,-40(s0)
	.loc 1 316 15
	la	a5,gBS
	ld	a5,0(a5)
	ld	a6,280(a5)
	.loc 1 316 12
	la	a5,gImageHandle
	ld	a0,0(a5)
	la	a5,gImageHandle
	ld	a3,0(a5)
	li	a5,2
	li	a4,0
	la	a2,ShellInfoObject
	addi	a2,a2,176
	la	a1,gEfiShellParametersProtocolGuid
	jalr	a6
.LVL0:
	sd	a0,-24(s0)
	.loc 1 327 34
	ld	a5,-24(s0)
	.loc 1 327 6
	bge	a5,zero,.L45
	.loc 1 328 24
	ld	a5,-64(s0)
	li	a4,1
	sb	a4,0(a5)
.L45:
	.loc 1 334 25
	li	a0,40
	call	AllocateZeroPool@plt
	mv	a4,a0
	.loc 1 334 23 discriminator 1
	ld	a5,-56(s0)
	sd	a4,0(a5)
	.loc 1 335 8
	ld	a5,-56(s0)
	ld	a5,0(a5)
	.loc 1 335 6
	bne	a5,zero,.L46
	.loc 1 336 12
	li	a5,-1
	slli	a5,a5,63
	addi	a5,a5,9
	j	.L56
.L46:
	.loc 1 342 15
	la	a5,gBS
	ld	a5,0(a5)
	ld	a6,280(a5)
	.loc 1 342 12
	la	a5,gImageHandle
	ld	a0,0(a5)
	la	a5,gImageHandle
	ld	a3,0(a5)
	addi	a2,s0,-40
	li	a5,2
	li	a4,0
	la	a1,gEfiLoadedImageProtocolGuid
	jalr	a6
.LVL1:
	sd	a0,-24(s0)
	.loc 1 354 16
	la	a5,gRT
	ld	a5,0(a5)
	ld	a5,72(a5)
	.loc 1 354 13
	addi	a3,s0,-48
	ld	a4,-32(s0)
	li	a2,0
	la	a1,gShellVariableGuid
	lla	a0,.LC3
	jalr	a5
.LVL2:
	sd	a0,-24(s0)
	.loc 1 355 6
	ld	a4,-24(s0)
	li	a5,-1
	slli	a5,a5,63
	addi	a5,a5,5
	bne	a4,a5,.L48
	.loc 1 356 59
	ld	a5,-40(s0)
	lw	a5,48(a5)
	slli	a4,a5,32
	srli	a4,a4,32
	.loc 1 356 23
	ld	a5,-48(s0)
	add	a5,a4,a5
	mv	a0,a5
	call	AllocateZeroPool@plt
	sd	a0,-32(s0)
	.loc 1 357 8
	ld	a5,-32(s0)
	bne	a5,zero,.L49
	.loc 1 358 14
	li	a5,-1
	slli	a5,a5,63
	addi	a5,a5,9
	j	.L56
.L49:
	.loc 1 361 18
	la	a5,gRT
	ld	a5,0(a5)
	ld	a5,72(a5)
	.loc 1 361 15
	addi	a3,s0,-48
	ld	a4,-32(s0)
	li	a2,0
	la	a1,gShellVariableGuid
	lla	a0,.LC3
	jalr	a5
.LVL3:
	sd	a0,-24(s0)
.L48:
	.loc 1 364 6
	ld	a4,-24(s0)
	li	a5,-1
	slli	a5,a5,63
	addi	a5,a5,14
	beq	a4,a5,.L50
	.loc 1 369 36
	ld	a5,-24(s0)
	.loc 1 369 8
	bge	a5,zero,.L50
	.loc 1 370 14
	ld	a5,-24(s0)
	j	.L56
.L50:
	.loc 1 374 13
	ld	a5,-48(s0)
	.loc 1 374 6
	bne	a5,zero,.L51
	.loc 1 374 34 discriminator 1
	ld	a5,-40(s0)
	lw	a5,48(a5)
	.loc 1 374 19 discriminator 1
	beq	a5,zero,.L51
	.loc 1 379 23
	ld	a5,-40(s0)
	lw	a5,48(a5)
	slli	a5,a5,32
	srli	a5,a5,32
	.loc 1 379 41
	addi	a5,a5,2
	.loc 1 379 10
	sd	a5,-48(s0)
	.loc 1 380 23
	ld	a5,-48(s0)
	mv	a0,a5
	call	AllocateZeroPool@plt
	sd	a0,-32(s0)
.L51:
	.loc 1 383 6
	ld	a5,-32(s0)
	beq	a5,zero,.L52
	.loc 1 384 42
	ld	a5,-40(s0)
	ld	a4,56(a5)
	.loc 1 384 68
	ld	a5,-40(s0)
	lw	a5,48(a5)
	.loc 1 384 5
	slli	a5,a5,32
	srli	a5,a5,32
	mv	a2,a5
	mv	a1,a4
	ld	a0,-32(s0)
	call	CopyMem@plt
	.loc 1 391 18
	ld	a5,-56(s0)
	ld	a5,0(a5)
	.loc 1 388 14
	mv	a4,a5
	.loc 1 392 18
	ld	a5,-56(s0)
	ld	a5,0(a5)
	.loc 1 388 14
	addi	a5,a5,8
	mv	a3,a5
	mv	a2,a4
	li	a1,1
	ld	a0,-32(s0)
	call	ParseCommandLineToArgs
	sd	a0,-24(s0)
	.loc 1 395 5
	ld	a0,-32(s0)
	call	FreePool@plt
	j	.L53
.L52:
	.loc 1 399 6
	ld	a5,-56(s0)
	ld	a5,0(a5)
	.loc 1 399 33
	sd	zero,0(a5)
	.loc 1 400 6
	ld	a5,-56(s0)
	ld	a5,0(a5)
	.loc 1 400 33
	sd	zero,8(a5)
.L53:
	.loc 1 406 7
	ld	a5,-64(s0)
	lbu	a5,0(a5)
	.loc 1 406 6
	beq	a5,zero,.L54
	.loc 1 407 6
	ld	a5,-56(s0)
	ld	a5,0(a5)
	.loc 1 407 34
	la	a4,FileInterfaceStdIn
	sd	a4,16(a5)
	.loc 1 408 6
	ld	a5,-56(s0)
	ld	a5,0(a5)
	.loc 1 408 35
	la	a4,FileInterfaceStdOut
	sd	a4,24(a5)
	.loc 1 409 6
	ld	a5,-56(s0)
	ld	a5,0(a5)
	.loc 1 409 35
	la	a4,FileInterfaceStdErr
	sd	a4,32(a5)
	.loc 1 410 17
	la	a5,gBS
	ld	a5,0(a5)
	ld	a5,128(a5)
	.loc 1 410 14
	ld	a4,-56(s0)
	ld	a4,0(a4)
	mv	a3,a4
	li	a2,0
	la	a1,gEfiShellParametersProtocolGuid
	la	a0,gImageHandle
	jalr	a5
.LVL4:
	sd	a0,-24(s0)
	j	.L55
.L54:
	.loc 1 420 51
	la	a5,ShellInfoObject
	ld	a4,176(a5)
	.loc 1 420 6
	ld	a5,-56(s0)
	ld	a5,0(a5)
	.loc 1 420 70
	ld	a4,16(a4)
	.loc 1 420 34
	sd	a4,16(a5)
	.loc 1 421 52
	la	a5,ShellInfoObject
	ld	a4,176(a5)
	.loc 1 421 6
	ld	a5,-56(s0)
	ld	a5,0(a5)
	.loc 1 421 71
	ld	a4,24(a4)
	.loc 1 421 35
	sd	a4,24(a5)
	.loc 1 422 52
	la	a5,ShellInfoObject
	ld	a4,176(a5)
	.loc 1 422 6
	ld	a5,-56(s0)
	ld	a5,0(a5)
	.loc 1 422 71
	ld	a4,32(a4)
	.loc 1 422 35
	sd	a4,32(a5)
	.loc 1 423 17
	la	a5,gBS
	ld	a5,0(a5)
	ld	a5,136(a5)
	.loc 1 423 14
	la	a4,gImageHandle
	ld	a0,0(a4)
	.loc 1 426 67
	la	a4,ShellInfoObject
	ld	a2,176(a4)
	.loc 1 423 14
	ld	a4,-56(s0)
	ld	a4,0(a4)
	mv	a3,a4
	la	a1,gEfiShellParametersProtocolGuid
	jalr	a5
.LVL5:
	sd	a0,-24(s0)
.L55:
	.loc 1 431 10
	ld	a5,-24(s0)
.L56:
	.loc 1 432 1
	mv	a0,a5
	ld	ra,56(sp)
	.cfi_restore 1
	ld	s0,48(sp)
	.cfi_restore 8
	.cfi_def_cfa 2, 64
	addi	sp,sp,64
	.cfi_def_cfa_offset 0
	jr	ra
	.cfi_endproc
.LFE3:
	.size	CreatePopulateInstallShellParametersProtocol, .-CreatePopulateInstallShellParametersProtocol
	.section	.text.CleanUpShellParametersProtocol,"ax",@progbits
	.align	1
	.globl	CleanUpShellParametersProtocol
	.type	CleanUpShellParametersProtocol, @function
CleanUpShellParametersProtocol:
.LFB4:
	.loc 1 450 1
	.cfi_startproc
	addi	sp,sp,-48
	.cfi_def_cfa_offset 48
	sd	ra,40(sp)
	sd	s0,32(sp)
	.cfi_offset 1, -8
	.cfi_offset 8, -16
	addi	s0,sp,48
	.cfi_def_cfa 8, 0
	sd	a0,-40(s0)
	.loc 1 457 22
	la	a5,ShellInfoObject
	ld	a5,176(a5)
	.loc 1 457 6
	beq	a5,zero,.L58
	.loc 1 458 17
	la	a5,gBS
	ld	a5,0(a5)
	ld	a5,136(a5)
	.loc 1 458 14
	la	a4,gImageHandle
	ld	a0,0(a4)
	.loc 1 462 44
	la	a4,ShellInfoObject
	ld	a4,176(a4)
	.loc 1 458 14
	mv	a3,a4
	ld	a2,-40(s0)
	la	a1,gEfiShellParametersProtocolGuid
	jalr	a5
.LVL6:
	sd	a0,-24(s0)
	.loc 1 464 14
	call	DebugCodeEnabled@plt
	mv	a5,a0
	.loc 1 464 13 discriminator 1
	beq	a5,zero,.L59
	.loc 1 464 106 discriminator 2
	la	a5,ShellInfoObject
	sd	zero,176(a5)
	j	.L59
.L58:
	.loc 1 471 17
	la	a5,gBS
	ld	a5,0(a5)
	ld	a5,144(a5)
	.loc 1 471 14
	la	a4,gImageHandle
	ld	a4,0(a4)
	ld	a2,-40(s0)
	la	a1,gEfiShellParametersProtocolGuid
	mv	a0,a4
	jalr	a5
.LVL7:
	sd	a0,-24(s0)
.L59:
	.loc 1 478 25
	ld	a5,-40(s0)
	ld	a5,0(a5)
	.loc 1 478 6
	beq	a5,zero,.L60
	.loc 1 479 23
	sd	zero,-32(s0)
	.loc 1 479 5
	j	.L61
.L62:
	.loc 1 484 35
	ld	a5,-40(s0)
	ld	a4,0(a5)
	.loc 1 484 41
	ld	a5,-32(s0)
	slli	a5,a5,3
	add	a5,a4,a5
	.loc 1 484 7
	ld	a5,0(a5)
	mv	a0,a5
	call	FreePool@plt
	.loc 1 481 24
	ld	a5,-32(s0)
	addi	a5,a5,1
	sd	a5,-32(s0)
.L61:
	.loc 1 480 45
	ld	a5,-40(s0)
	ld	a5,8(a5)
	.loc 1 480 25
	ld	a4,-32(s0)
	bltu	a4,a5,.L62
	.loc 1 487 33
	ld	a5,-40(s0)
	ld	a5,0(a5)
	.loc 1 487 5
	mv	a0,a5
	call	FreePool@plt
.L60:
	.loc 1 490 3
	ld	a0,-40(s0)
	call	FreePool@plt
	.loc 1 491 10
	ld	a5,-24(s0)
	.loc 1 492 1
	mv	a0,a5
	ld	ra,40(sp)
	.cfi_restore 1
	ld	s0,32(sp)
	.cfi_restore 8
	.cfi_def_cfa 2, 48
	addi	sp,sp,48
	.cfi_def_cfa_offset 0
	jr	ra
	.cfi_endproc
.LFE4:
	.size	CleanUpShellParametersProtocol, .-CleanUpShellParametersProtocol
	.section	.text.IsUnicodeFile,"ax",@progbits
	.align	1
	.globl	IsUnicodeFile
	.type	IsUnicodeFile, @function
IsUnicodeFile:
.LFB5:
	.loc 1 506 1
	.cfi_startproc
	addi	sp,sp,-80
	.cfi_def_cfa_offset 80
	sd	ra,72(sp)
	sd	s0,64(sp)
	.cfi_offset 1, -8
	.cfi_offset 8, -16
	addi	s0,sp,80
	.cfi_def_cfa 8, 0
	sd	a0,-72(s0)
	.loc 1 513 29
	la	a5,gEfiShellProtocol
	ld	a5,0(a5)
	ld	a5,192(a5)
	.loc 1 513 12
	addi	a4,s0,-32
	li	a2,1
	mv	a1,a4
	ld	a0,-72(s0)
	jalr	a5
.LVL8:
	sd	a0,-24(s0)
	.loc 1 514 34
	ld	a5,-24(s0)
	.loc 1 514 6
	bge	a5,zero,.L65
	.loc 1 515 12
	ld	a5,-24(s0)
	j	.L69
.L65:
	.loc 1 518 20
	la	a5,gEfiShellProtocol
	ld	a5,0(a5)
	ld	a5,248(a5)
	.loc 1 518 3
	ld	a4,-32(s0)
	addi	a3,s0,-40
	mv	a1,a3
	mv	a0,a4
	jalr	a5
.LVL9:
	.loc 1 519 20
	la	a5,gEfiShellProtocol
	ld	a5,0(a5)
	ld	a5,256(a5)
	.loc 1 519 3
	ld	a4,-32(s0)
	li	a1,0
	mv	a0,a4
	jalr	a5
.LVL10:
	.loc 1 520 12
	li	a5,2
	sd	a5,-48(s0)
	.loc 1 521 29
	la	a5,gEfiShellProtocol
	ld	a5,0(a5)
	ld	a5,216(a5)
	.loc 1 521 12
	ld	a4,-32(s0)
	addi	a2,s0,-50
	addi	a3,s0,-48
	mv	a1,a3
	mv	a0,a4
	jalr	a5
.LVL11:
	sd	a0,-24(s0)
	.loc 1 522 34
	ld	a5,-24(s0)
	.loc 1 522 6
	blt	a5,zero,.L67
	.loc 1 522 75 discriminator 1
	lhu	a4,-50(s0)
	la	a5,gUnicodeFileTag
	lhu	a5,0(a5)
	.loc 1 522 60 discriminator 1
	sext.w	a4,a4
	sext.w	a5,a5
	beq	a4,a5,.L68
.L67:
	.loc 1 523 12
	li	a5,-1
	slli	a5,a5,63
	addi	a5,a5,5
	sd	a5,-24(s0)
.L68:
	.loc 1 526 20
	la	a5,gEfiShellProtocol
	ld	a5,0(a5)
	ld	a5,256(a5)
	.loc 1 526 3
	ld	a4,-32(s0)
	ld	a3,-40(s0)
	mv	a1,a3
	mv	a0,a4
	jalr	a5
.LVL12:
	.loc 1 527 20
	la	a5,gEfiShellProtocol
	ld	a5,0(a5)
	ld	a5,200(a5)
	.loc 1 527 3
	ld	a4,-32(s0)
	mv	a0,a4
	jalr	a5
.LVL13:
	.loc 1 528 10
	ld	a5,-24(s0)
.L69:
	.loc 1 529 1
	mv	a0,a5
	ld	ra,72(sp)
	.cfi_restore 1
	ld	s0,64(sp)
	.cfi_restore 8
	.cfi_def_cfa 2, 80
	addi	sp,sp,80
	.cfi_def_cfa_offset 0
	jr	ra
	.cfi_endproc
.LFE5:
	.size	IsUnicodeFile, .-IsUnicodeFile
	.section	.text.StripQuotes,"ax",@progbits
	.align	1
	.globl	StripQuotes
	.type	StripQuotes, @function
StripQuotes:
.LFB6:
	.loc 1 542 1
	.cfi_startproc
	addi	sp,sp,-48
	.cfi_def_cfa_offset 48
	sd	ra,40(sp)
	sd	s0,32(sp)
	.cfi_offset 1, -8
	.cfi_offset 8, -16
	addi	s0,sp,48
	.cfi_def_cfa 8, 0
	sd	a0,-40(s0)
	.loc 1 545 18
	sb	zero,-17(s0)
	.loc 1 545 3
	j	.L71
.L76:
	.loc 1 546 10
	ld	a5,-40(s0)
	lhu	a5,0(a5)
	.loc 1 546 8
	sext.w	a4,a5
	li	a5,94
	bne	a4,a5,.L72
	.loc 1 546 46 discriminator 1
	ld	a5,-40(s0)
	addi	a5,a5,2
	.loc 1 546 34 discriminator 1
	lhu	a5,0(a5)
	.loc 1 546 30 discriminator 1
	sext.w	a4,a5
	li	a5,34
	bne	a4,a5,.L72
	.loc 1 547 16
	ld	a5,-40(s0)
	addi	a5,a5,2
	sd	a5,-40(s0)
	j	.L73
.L72:
	.loc 1 548 16
	ld	a5,-40(s0)
	lhu	a5,0(a5)
	.loc 1 548 15
	sext.w	a4,a5
	li	a5,34
	bne	a4,a5,.L74
	.loc 1 549 19
	lbu	a5,-17(s0)
	sext.w	a5,a5
	seqz	a5,a5
	andi	a5,a5,0xff
	.loc 1 549 17
	sb	a5,-17(s0)
	j	.L73
.L74:
	.loc 1 550 15
	lbu	a5,-17(s0)
	andi	a5,a5,0xff
	beq	a5,zero,.L73
	.loc 1 551 18
	ld	a5,-40(s0)
	li	a4,32
	sh	a4,0(a5)
.L73:
	.loc 1 545 99 discriminator 2
	ld	a5,-40(s0)
	addi	a5,a5,2
	sd	a5,-40(s0)
.L71:
	.loc 1 545 65 discriminator 1
	ld	a5,-40(s0)
	beq	a5,zero,.L77
	.loc 1 545 68 discriminator 3
	ld	a5,-40(s0)
	lhu	a5,0(a5)
	.loc 1 545 65 discriminator 3
	bne	a5,zero,.L76
.L77:
	.loc 1 554 1
	nop
	ld	ra,40(sp)
	.cfi_restore 1
	ld	s0,32(sp)
	.cfi_restore 8
	.cfi_def_cfa 2, 48
	addi	sp,sp,48
	.cfi_def_cfa_offset 0
	jr	ra
	.cfi_endproc
.LFE6:
	.size	StripQuotes, .-StripQuotes
	.section	.text.CalculateEfiHdrCrc,"ax",@progbits
	.align	1
	.globl	CalculateEfiHdrCrc
	.type	CalculateEfiHdrCrc, @function
CalculateEfiHdrCrc:
.LFB7:
	.loc 1 567 1
	.cfi_startproc
	addi	sp,sp,-48
	.cfi_def_cfa_offset 48
	sd	ra,40(sp)
	sd	s0,32(sp)
	.cfi_offset 1, -8
	.cfi_offset 8, -16
	addi	s0,sp,48
	.cfi_def_cfa 8, 0
	sd	a0,-40(s0)
	.loc 1 570 14
	ld	a5,-40(s0)
	sw	zero,16(a5)
	.loc 1 576 7
	sw	zero,-20(s0)
	.loc 1 577 6
	la	a5,gBS
	ld	a5,0(a5)
	ld	a5,344(a5)
	.loc 1 577 41
	ld	a4,-40(s0)
	lw	a4,12(a4)
	.loc 1 577 3
	slli	a4,a4,32
	srli	a4,a4,32
	addi	a3,s0,-20
	mv	a2,a3
	mv	a1,a4
	ld	a0,-40(s0)
	jalr	a5
.LVL14:
	.loc 1 578 14
	lw	a4,-20(s0)
	ld	a5,-40(s0)
	sw	a4,16(a5)
	.loc 1 579 1
	nop
	ld	ra,40(sp)
	.cfi_restore 1
	ld	s0,32(sp)
	.cfi_restore 8
	.cfi_def_cfa 2, 48
	addi	sp,sp,48
	.cfi_def_cfa_offset 0
	jr	ra
	.cfi_endproc
.LFE7:
	.size	CalculateEfiHdrCrc, .-CalculateEfiHdrCrc
	.section	.rodata
	.align	3
.LC4:
	.string	" "
	.zero	2
	.section	.text.FixFileName,"ax",@progbits
	.align	1
	.globl	FixFileName
	.type	FixFileName, @function
FixFileName:
.LFB8:
	.loc 1 593 1
	.cfi_startproc
	addi	sp,sp,-48
	.cfi_def_cfa_offset 48
	sd	ra,40(sp)
	sd	s0,32(sp)
	.cfi_offset 1, -8
	.cfi_offset 8, -16
	addi	s0,sp,48
	.cfi_def_cfa 8, 0
	sd	a0,-40(s0)
	.loc 1 597 6
	ld	a5,-40(s0)
	bne	a5,zero,.L80
	.loc 1 598 12
	li	a5,0
	j	.L81
.L80:
	.loc 1 601 15
	ld	a5,-40(s0)
	lhu	a5,0(a5)
	.loc 1 601 6
	sext.w	a4,a5
	li	a5,34
	bne	a4,a5,.L82
	.loc 1 602 10
	ld	a5,-40(s0)
	addi	a5,a5,2
	sd	a5,-24(s0)
	.loc 1 603 25
	lla	a1,.LC1
	ld	a0,-24(s0)
	call	StrStr@plt
	sd	a0,-32(s0)
	.loc 1 603 8 discriminator 1
	ld	a5,-32(s0)
	beq	a5,zero,.L83
	.loc 1 604 23
	ld	a5,-32(s0)
	sh	zero,0(a5)
	j	.L83
.L82:
	.loc 1 607 10
	ld	a5,-40(s0)
	sd	a5,-24(s0)
	.loc 1 608 11
	j	.L84
.L85:
	.loc 1 609 11
	ld	a5,-24(s0)
	addi	a5,a5,2
	sd	a5,-24(s0)
.L84:
	.loc 1 608 16
	ld	a5,-24(s0)
	lhu	a5,0(a5)
	.loc 1 608 20
	sext.w	a4,a5
	li	a5,32
	beq	a4,a5,.L85
	.loc 1 612 25
	lla	a1,.LC4
	ld	a0,-24(s0)
	call	StrStr@plt
	sd	a0,-32(s0)
	.loc 1 612 8 discriminator 1
	ld	a5,-32(s0)
	beq	a5,zero,.L83
	.loc 1 613 23
	ld	a5,-32(s0)
	sh	zero,0(a5)
.L83:
	.loc 1 617 11
	ld	a5,-24(s0)
	lhu	a5,0(a5)
	.loc 1 617 6
	bne	a5,zero,.L86
	.loc 1 618 12
	li	a5,0
	j	.L81
.L86:
	.loc 1 621 10
	ld	a5,-24(s0)
.L81:
	.loc 1 622 1
	mv	a0,a5
	ld	ra,40(sp)
	.cfi_restore 1
	ld	s0,32(sp)
	.cfi_restore 8
	.cfi_def_cfa 2, 48
	addi	sp,sp,48
	.cfi_def_cfa_offset 0
	jr	ra
	.cfi_endproc
.LFE8:
	.size	FixFileName, .-FixFileName
	.section	.rodata
	.align	3
.LC5:
	.string	"%"
	.zero	2
	.section	.text.FixVarName,"ax",@progbits
	.align	1
	.globl	FixVarName
	.type	FixVarName, @function
FixVarName:
.LFB9:
	.loc 1 636 1
	.cfi_startproc
	addi	sp,sp,-48
	.cfi_def_cfa_offset 48
	sd	ra,40(sp)
	sd	s0,32(sp)
	.cfi_offset 1, -8
	.cfi_offset 8, -16
	addi	s0,sp,48
	.cfi_def_cfa 8, 0
	sd	a0,-40(s0)
	.loc 1 640 8
	ld	a5,-40(s0)
	sd	a5,-24(s0)
	.loc 1 642 15
	ld	a5,-40(s0)
	lhu	a5,0(a5)
	.loc 1 642 6
	sext.w	a4,a5
	li	a5,37
	bne	a4,a5,.L88
	.loc 1 643 10
	ld	a5,-40(s0)
	addi	a5,a5,2
	sd	a5,-24(s0)
	.loc 1 644 25
	lla	a1,.LC5
	ld	a0,-24(s0)
	call	StrStr@plt
	sd	a0,-32(s0)
	.loc 1 644 8 discriminator 1
	ld	a5,-32(s0)
	beq	a5,zero,.L88
	.loc 1 645 23
	ld	a5,-32(s0)
	sh	zero,0(a5)
.L88:
	.loc 1 649 11
	ld	a0,-24(s0)
	call	FixFileName
	mv	a5,a0
	.loc 1 650 1
	mv	a0,a5
	ld	ra,40(sp)
	.cfi_restore 1
	ld	s0,32(sp)
	.cfi_restore 8
	.cfi_def_cfa 2, 48
	addi	sp,sp,48
	.cfi_def_cfa_offset 0
	jr	ra
	.cfi_endproc
.LFE9:
	.size	FixVarName, .-FixVarName
	.section	.text.WriteFileTag,"ax",@progbits
	.align	1
	.globl	WriteFileTag
	.type	WriteFileTag, @function
WriteFileTag:
.LFB10:
	.loc 1 667 1
	.cfi_startproc
	addi	sp,sp,-64
	.cfi_def_cfa_offset 64
	sd	ra,56(sp)
	sd	s0,48(sp)
	.cfi_offset 1, -8
	.cfi_offset 8, -16
	addi	s0,sp,64
	.cfi_def_cfa 8, 0
	sd	a0,-56(s0)
	.loc 1 672 11
	la	a5,gUnicodeFileTag
	lhu	a5,0(a5)
	sh	a5,-26(s0)
	.loc 1 673 8
	li	a5,2
	sd	a5,-40(s0)
	.loc 1 674 27
	la	a5,ShellInfoObject
	ld	a5,8(a5)
	.loc 1 674 47
	ld	a5,224(a5)
	.loc 1 674 12
	addi	a3,s0,-26
	addi	a4,s0,-40
	mv	a2,a3
	mv	a1,a4
	ld	a0,-56(s0)
	jalr	a5
.LVL15:
	sd	a0,-24(s0)
	.loc 1 680 10
	ld	a5,-24(s0)
	.loc 1 681 1
	mv	a0,a5
	ld	ra,56(sp)
	.cfi_restore 1
	ld	s0,48(sp)
	.cfi_restore 8
	.cfi_def_cfa 2, 64
	addi	sp,sp,64
	.cfi_def_cfa_offset 0
	jr	ra
	.cfi_endproc
.LFE10:
	.size	WriteFileTag, .-WriteFileTag
	.section	.rodata
	.align	3
.LC6:
	.string	" "
	.string	"2"
	.string	">"
	.string	">"
	.string	"v"
	.string	" "
	.zero	2
	.align	3
.LC7:
	.string	" "
	.string	"1"
	.string	">"
	.string	">"
	.string	"v"
	.string	" "
	.zero	2
	.align	3
.LC8:
	.string	" "
	.string	">"
	.string	">"
	.string	"v"
	.string	" "
	.zero	2
	.align	3
.LC9:
	.string	" "
	.string	">"
	.string	"v"
	.string	" "
	.zero	2
	.align	3
.LC10:
	.string	" "
	.string	"1"
	.string	">"
	.string	">"
	.string	"a"
	.string	" "
	.zero	2
	.align	3
.LC11:
	.string	" "
	.string	"1"
	.string	">"
	.string	">"
	.string	" "
	.zero	2
	.align	3
.LC12:
	.string	" "
	.string	">"
	.string	">"
	.string	" "
	.zero	2
	.align	3
.LC13:
	.string	" "
	.string	">"
	.string	">"
	.string	"a"
	.string	" "
	.zero	2
	.align	3
.LC14:
	.string	" "
	.string	"1"
	.string	">"
	.string	"a"
	.string	" "
	.zero	2
	.align	3
.LC15:
	.string	" "
	.string	">"
	.string	"a"
	.string	" "
	.zero	2
	.align	3
.LC16:
	.string	" "
	.string	"2"
	.string	">"
	.string	">"
	.string	" "
	.zero	2
	.align	3
.LC17:
	.string	" "
	.string	"2"
	.string	">"
	.string	"v"
	.string	" "
	.zero	2
	.align	3
.LC18:
	.string	" "
	.string	"1"
	.string	">"
	.string	"v"
	.string	" "
	.zero	2
	.align	3
.LC19:
	.string	" "
	.string	"2"
	.string	">"
	.string	"a"
	.string	" "
	.zero	2
	.align	3
.LC20:
	.string	" "
	.string	"2"
	.string	">"
	.string	" "
	.zero	2
	.align	3
.LC21:
	.string	" "
	.string	"1"
	.string	">"
	.string	" "
	.zero	2
	.align	3
.LC22:
	.string	" "
	.string	">"
	.string	" "
	.zero	2
	.align	3
.LC23:
	.string	" "
	.string	"<"
	.string	" "
	.zero	2
	.align	3
.LC24:
	.string	" "
	.string	"<"
	.string	"a"
	.string	" "
	.zero	2
	.align	3
.LC25:
	.string	" "
	.string	"<"
	.string	"v"
	.string	" "
	.zero	2
	.align	3
.LC26:
	.string	"c"
	.string	"o"
	.string	"n"
	.string	"n"
	.string	"e"
	.string	"c"
	.string	"t"
	.string	" "
	.string	"-"
	.string	"r"
	.zero	2
	.align	3
.LC27:
	.string	"N"
	.string	"U"
	.string	"L"
	.zero	2
	.align	3
.LC28:
	.zero	2
	.section	.text.UpdateStdInStdOutStdErr,"ax",@progbits
	.align	1
	.globl	UpdateStdInStdOutStdErr
	.type	UpdateStdInStdOutStdErr, @function
UpdateStdInStdOutStdErr:
.LFB11:
	.loc 1 709 1
	.cfi_startproc
	addi	sp,sp,-208
	.cfi_def_cfa_offset 208
	sd	ra,200(sp)
	sd	s0,192(sp)
	sd	s1,184(sp)
	sd	s2,176(sp)
	.cfi_offset 1, -8
	.cfi_offset 8, -16
	.cfi_offset 9, -24
	.cfi_offset 18, -32
	addi	s0,sp,208
	.cfi_def_cfa 8, 0
	sd	a0,-168(s0)
	sd	a1,-176(s0)
	sd	a2,-184(s0)
	sd	a3,-192(s0)
	sd	a4,-200(s0)
	sd	a5,-208(s0)
	.loc 1 731 14
	li	a5,1
	sb	a5,-49(s0)
	.loc 1 732 13
	li	a5,1
	sb	a5,-50(s0)
	.loc 1 733 20
	lla	a5,AsciiRedirection
	sb	zero,0(a5)
	.loc 1 734 14
	li	a5,1
	sb	a5,-51(s0)
	.loc 1 735 16
	sd	zero,-112(s0)
	.loc 1 736 17
	sd	zero,-120(s0)
	.loc 1 737 17
	sd	zero,-128(s0)
	.loc 1 738 18
	sd	zero,-88(s0)
	.loc 1 739 17
	sd	zero,-104(s0)
	.loc 1 740 18
	sd	zero,-96(s0)
	.loc 1 741 13
	sb	zero,-53(s0)
	.loc 1 742 13
	sb	zero,-52(s0)
	.loc 1 743 19
	sd	zero,-80(s0)
	.loc 1 744 17
	sd	zero,-72(s0)
	.loc 1 745 14
	sd	zero,-136(s0)
	.loc 1 747 6
	ld	a5,-168(s0)
	beq	a5,zero,.L93
	.loc 1 747 41 discriminator 1
	ld	a5,-208(s0)
	beq	a5,zero,.L93
	.loc 1 747 78 discriminator 2
	ld	a5,-184(s0)
	beq	a5,zero,.L93
	.loc 1 747 108 discriminator 3
	ld	a5,-192(s0)
	beq	a5,zero,.L93
	.loc 1 747 139 discriminator 4
	ld	a5,-200(s0)
	bne	a5,zero,.L94
.L93:
	.loc 1 748 12
	li	a5,-1
	slli	a5,a5,63
	addi	a5,a5,2
	j	.L227
.L94:
	.loc 1 751 31
	la	a5,gST
	ld	a5,0(a5)
	ld	a4,48(a5)
	.loc 1 751 26
	ld	a5,-208(s0)
	sd	a4,0(a5)
	.loc 1 752 37
	la	a5,gST
	ld	a5,0(a5)
	ld	a4,40(a5)
	.loc 1 752 32
	ld	a5,-208(s0)
	sd	a4,8(a5)
	.loc 1 753 32
	la	a5,gST
	ld	a5,0(a5)
	ld	a4,64(a5)
	.loc 1 753 27
	ld	a5,-208(s0)
	sd	a4,16(a5)
	.loc 1 754 38
	la	a5,gST
	ld	a5,0(a5)
	ld	a4,56(a5)
	.loc 1 754 33
	ld	a5,-208(s0)
	sd	a4,24(a5)
	.loc 1 755 32
	la	a5,gST
	ld	a5,0(a5)
	ld	a4,80(a5)
	.loc 1 755 27
	ld	a5,-208(s0)
	sd	a4,32(a5)
	.loc 1 756 38
	la	a5,gST
	ld	a5,0(a5)
	ld	a4,72(a5)
	.loc 1 756 33
	ld	a5,-208(s0)
	sd	a4,40(a5)
	.loc 1 757 30
	ld	a5,-168(s0)
	ld	a4,16(a5)
	.loc 1 757 13
	ld	a5,-184(s0)
	sd	a4,0(a5)
	.loc 1 758 31
	ld	a5,-168(s0)
	ld	a4,24(a5)
	.loc 1 758 14
	ld	a5,-192(s0)
	sd	a4,0(a5)
	.loc 1 759 31
	ld	a5,-168(s0)
	ld	a4,32(a5)
	.loc 1 759 14
	ld	a5,-200(s0)
	sd	a4,0(a5)
	.loc 1 761 6
	ld	a5,-176(s0)
	bne	a5,zero,.L96
	.loc 1 762 12
	li	a5,0
	j	.L227
.L96:
	.loc 1 765 21
	addi	a5,s0,-80
	li	a3,0
	ld	a2,-176(s0)
	li	a1,0
	mv	a0,a5
	call	StrnCatGrow@plt
	mv	a5,a0
	.loc 1 765 19 discriminator 1
	sd	a5,-80(s0)
	.loc 1 766 23
	ld	a5,-80(s0)
	.loc 1 766 6
	bne	a5,zero,.L97
	.loc 1 767 12
	li	a5,-1
	slli	a5,a5,63
	addi	a5,a5,9
	j	.L227
.L97:
	.loc 1 770 10
	sd	zero,-48(s0)
	.loc 1 771 9
	sd	zero,-64(s0)
	.loc 1 772 35
	ld	s1,-80(s0)
	.loc 1 772 37
	ld	a5,-80(s0)
	mv	a0,a5
	call	StrLen@plt
	mv	a5,a0
	.loc 1 772 35 discriminator 1
	slli	a5,a5,1
	.loc 1 772 17 discriminator 1
	add	a5,s1,a5
	sd	a5,-72(s0)
	.loc 1 774 3
	ld	a5,-80(s0)
	mv	a0,a5
	call	StripQuotes
	.loc 1 776 8
	la	a5,ShellInfoObject
	addi	a0,a5,216
	call	IsListEmpty@plt
	mv	a5,a0
	.loc 1 776 6 discriminator 1
	bne	a5,zero,.L98
	.loc 1 777 27
	la	a5,ShellInfoObject
	addi	a0,a5,216
	call	GetFirstNode@plt
	sd	a0,-64(s0)
	.loc 1 778 8
	ld	a5,-64(s0)
	beq	a5,zero,.L99
	.loc 1 778 42 discriminator 1
	ld	a5,-64(s0)
	ld	a5,24(a5)
	.loc 1 778 33 discriminator 1
	beq	a5,zero,.L99
	.loc 1 779 37
	ld	a5,-64(s0)
	ld	a4,24(a5)
	.loc 1 779 30
	ld	a5,-168(s0)
	sd	a4,16(a5)
.L99:
	.loc 1 782 8
	ld	a5,-64(s0)
	beq	a5,zero,.L98
	.loc 1 782 42 discriminator 1
	ld	a5,-64(s0)
	ld	a5,16(a5)
	.loc 1 782 33 discriminator 1
	beq	a5,zero,.L98
	.loc 1 783 38
	ld	a5,-64(s0)
	ld	a4,16(a5)
	.loc 1 783 31
	ld	a5,-168(s0)
	sd	a4,24(a5)
.L98:
	.loc 1 787 7
	ld	a5,-48(s0)
	.loc 1 787 6
	blt	a5,zero,.L100
	.loc 1 787 86 discriminator 1
	ld	a5,-80(s0)
	lla	a1,.LC6
	mv	a0,a5
	call	StrStr@plt
	sd	a0,-40(s0)
	.loc 1 787 61 discriminator 2
	ld	a5,-40(s0)
	beq	a5,zero,.L100
	.loc 1 788 19
	ld	a4,-40(s0)
	ld	a5,-72(s0)
	bgeu	a4,a5,.L101
	mv	a5,a4
.L101:
	sd	a5,-72(s0)
	.loc 1 789 5
	li	a2,32
	li	a1,12
	ld	a0,-40(s0)
	call	SetMem16@plt
	.loc 1 790 39
	ld	a5,-40(s0)
	addi	a5,a5,12
	sd	a5,-40(s0)
	.loc 1 790 19
	ld	a5,-40(s0)
	sd	a5,-128(s0)
	.loc 1 791 15
	li	a5,1
	sb	a5,-53(s0)
	.loc 1 792 9
	lla	a1,.LC6
	ld	a0,-40(s0)
	call	StrStr@plt
	mv	a5,a0
	.loc 1 792 8 discriminator 1
	beq	a5,zero,.L100
	.loc 1 793 14
	li	a5,-1
	slli	a5,a5,63
	addi	a5,a5,14
	sd	a5,-48(s0)
.L100:
	.loc 1 797 7
	ld	a5,-48(s0)
	.loc 1 797 6
	blt	a5,zero,.L102
	.loc 1 797 86 discriminator 1
	ld	a5,-80(s0)
	lla	a1,.LC7
	mv	a0,a5
	call	StrStr@plt
	sd	a0,-40(s0)
	.loc 1 797 61 discriminator 2
	ld	a5,-40(s0)
	beq	a5,zero,.L102
	.loc 1 798 19
	ld	a4,-40(s0)
	ld	a5,-72(s0)
	bgeu	a4,a5,.L103
	mv	a5,a4
.L103:
	sd	a5,-72(s0)
	.loc 1 799 5
	li	a2,32
	li	a1,12
	ld	a0,-40(s0)
	call	SetMem16@plt
	.loc 1 800 39
	ld	a5,-40(s0)
	addi	a5,a5,12
	sd	a5,-40(s0)
	.loc 1 800 19
	ld	a5,-40(s0)
	sd	a5,-120(s0)
	.loc 1 801 15
	li	a5,1
	sb	a5,-52(s0)
	.loc 1 802 9
	lla	a1,.LC7
	ld	a0,-40(s0)
	call	StrStr@plt
	mv	a5,a0
	.loc 1 802 8 discriminator 1
	beq	a5,zero,.L105
	.loc 1 803 14
	li	a5,-1
	slli	a5,a5,63
	addi	a5,a5,14
	sd	a5,-48(s0)
	.loc 1 802 8
	j	.L105
.L102:
	.loc 1 805 14
	ld	a5,-48(s0)
	.loc 1 805 13
	blt	a5,zero,.L106
	.loc 1 805 93 discriminator 1
	ld	a5,-80(s0)
	lla	a1,.LC8
	mv	a0,a5
	call	StrStr@plt
	sd	a0,-40(s0)
	.loc 1 805 68 discriminator 2
	ld	a5,-40(s0)
	beq	a5,zero,.L106
	.loc 1 806 19
	ld	a4,-40(s0)
	ld	a5,-72(s0)
	bgeu	a4,a5,.L107
	mv	a5,a4
.L107:
	sd	a5,-72(s0)
	.loc 1 807 5
	li	a2,32
	li	a1,10
	ld	a0,-40(s0)
	call	SetMem16@plt
	.loc 1 808 39
	ld	a5,-40(s0)
	addi	a5,a5,10
	sd	a5,-40(s0)
	.loc 1 808 19
	ld	a5,-40(s0)
	sd	a5,-120(s0)
	.loc 1 809 15
	li	a5,1
	sb	a5,-52(s0)
	.loc 1 810 9
	lla	a1,.LC8
	ld	a0,-40(s0)
	call	StrStr@plt
	mv	a5,a0
	.loc 1 810 8 discriminator 1
	beq	a5,zero,.L105
	.loc 1 811 14
	li	a5,-1
	slli	a5,a5,63
	addi	a5,a5,14
	sd	a5,-48(s0)
	.loc 1 810 8
	j	.L105
.L106:
	.loc 1 813 14
	ld	a5,-48(s0)
	.loc 1 813 13
	blt	a5,zero,.L105
	.loc 1 813 93 discriminator 1
	ld	a5,-80(s0)
	lla	a1,.LC9
	mv	a0,a5
	call	StrStr@plt
	sd	a0,-40(s0)
	.loc 1 813 68 discriminator 2
	ld	a5,-40(s0)
	beq	a5,zero,.L105
	.loc 1 814 19
	ld	a4,-40(s0)
	ld	a5,-72(s0)
	bgeu	a4,a5,.L109
	mv	a5,a4
.L109:
	sd	a5,-72(s0)
	.loc 1 815 5
	li	a2,32
	li	a1,8
	ld	a0,-40(s0)
	call	SetMem16@plt
	.loc 1 816 39
	ld	a5,-40(s0)
	addi	a5,a5,8
	sd	a5,-40(s0)
	.loc 1 816 19
	ld	a5,-40(s0)
	sd	a5,-120(s0)
	.loc 1 817 15
	sb	zero,-52(s0)
	.loc 1 818 9
	lla	a1,.LC9
	ld	a0,-40(s0)
	call	StrStr@plt
	mv	a5,a0
	.loc 1 818 8 discriminator 1
	beq	a5,zero,.L105
	.loc 1 819 14
	li	a5,-1
	slli	a5,a5,63
	addi	a5,a5,14
	sd	a5,-48(s0)
.L105:
	.loc 1 823 7
	ld	a5,-48(s0)
	.loc 1 823 6
	blt	a5,zero,.L110
	.loc 1 823 86 discriminator 1
	ld	a5,-80(s0)
	lla	a1,.LC10
	mv	a0,a5
	call	StrStr@plt
	sd	a0,-40(s0)
	.loc 1 823 61 discriminator 2
	ld	a5,-40(s0)
	beq	a5,zero,.L110
	.loc 1 824 19
	ld	a4,-40(s0)
	ld	a5,-72(s0)
	bgeu	a4,a5,.L111
	mv	a5,a4
.L111:
	sd	a5,-72(s0)
	.loc 1 825 5
	li	a2,32
	li	a1,12
	ld	a0,-40(s0)
	call	SetMem16@plt
	.loc 1 826 40
	ld	a5,-40(s0)
	addi	a5,a5,12
	sd	a5,-40(s0)
	.loc 1 826 20
	ld	a5,-40(s0)
	sd	a5,-96(s0)
	.loc 1 827 15
	li	a5,1
	sb	a5,-52(s0)
	.loc 1 828 16
	sb	zero,-49(s0)
	.loc 1 829 9
	lla	a1,.LC10
	ld	a0,-40(s0)
	call	StrStr@plt
	mv	a5,a0
	.loc 1 829 8 discriminator 1
	beq	a5,zero,.L110
	.loc 1 830 14
	li	a5,-1
	slli	a5,a5,63
	addi	a5,a5,14
	sd	a5,-48(s0)
.L110:
	.loc 1 834 7
	ld	a5,-48(s0)
	.loc 1 834 6
	blt	a5,zero,.L112
	.loc 1 834 86 discriminator 1
	ld	a5,-80(s0)
	lla	a1,.LC11
	mv	a0,a5
	call	StrStr@plt
	sd	a0,-40(s0)
	.loc 1 834 61 discriminator 2
	ld	a5,-40(s0)
	beq	a5,zero,.L112
	.loc 1 835 19
	ld	a4,-40(s0)
	ld	a5,-72(s0)
	bgeu	a4,a5,.L113
	mv	a5,a4
.L113:
	sd	a5,-72(s0)
	.loc 1 836 5
	li	a2,32
	li	a1,10
	ld	a0,-40(s0)
	call	SetMem16@plt
	.loc 1 837 24
	ld	a5,-96(s0)
	.loc 1 837 8
	beq	a5,zero,.L114
	.loc 1 838 14
	li	a5,-1
	slli	a5,a5,63
	addi	a5,a5,2
	sd	a5,-48(s0)
	j	.L115
.L114:
	.loc 1 840 42
	ld	a5,-40(s0)
	addi	a5,a5,10
	sd	a5,-40(s0)
	.loc 1 840 22
	ld	a5,-40(s0)
	sd	a5,-96(s0)
	.loc 1 841 17
	li	a5,1
	sb	a5,-52(s0)
.L115:
	.loc 1 844 9
	lla	a1,.LC11
	ld	a0,-40(s0)
	call	StrStr@plt
	mv	a5,a0
	.loc 1 844 8 discriminator 1
	beq	a5,zero,.L112
	.loc 1 845 14
	li	a5,-1
	slli	a5,a5,63
	addi	a5,a5,14
	sd	a5,-48(s0)
.L112:
	.loc 1 849 7
	ld	a5,-48(s0)
	.loc 1 849 6
	blt	a5,zero,.L116
	.loc 1 849 86 discriminator 1
	ld	a5,-80(s0)
	lla	a1,.LC12
	mv	a0,a5
	call	StrStr@plt
	sd	a0,-40(s0)
	.loc 1 849 61 discriminator 2
	ld	a5,-40(s0)
	beq	a5,zero,.L116
	.loc 1 850 19
	ld	a4,-40(s0)
	ld	a5,-72(s0)
	bgeu	a4,a5,.L117
	mv	a5,a4
.L117:
	sd	a5,-72(s0)
	.loc 1 851 5
	li	a2,32
	li	a1,8
	ld	a0,-40(s0)
	call	SetMem16@plt
	.loc 1 852 24
	ld	a5,-96(s0)
	.loc 1 852 8
	beq	a5,zero,.L118
	.loc 1 853 14
	li	a5,-1
	slli	a5,a5,63
	addi	a5,a5,2
	sd	a5,-48(s0)
	j	.L119
.L118:
	.loc 1 855 42
	ld	a5,-40(s0)
	addi	a5,a5,8
	sd	a5,-40(s0)
	.loc 1 855 22
	ld	a5,-40(s0)
	sd	a5,-96(s0)
	.loc 1 856 17
	li	a5,1
	sb	a5,-52(s0)
.L119:
	.loc 1 859 9
	lla	a1,.LC12
	ld	a0,-40(s0)
	call	StrStr@plt
	mv	a5,a0
	.loc 1 859 8 discriminator 1
	beq	a5,zero,.L116
	.loc 1 860 14
	li	a5,-1
	slli	a5,a5,63
	addi	a5,a5,14
	sd	a5,-48(s0)
.L116:
	.loc 1 864 7
	ld	a5,-48(s0)
	.loc 1 864 6
	blt	a5,zero,.L120
	.loc 1 864 86 discriminator 1
	ld	a5,-80(s0)
	lla	a1,.LC13
	mv	a0,a5
	call	StrStr@plt
	sd	a0,-40(s0)
	.loc 1 864 61 discriminator 2
	ld	a5,-40(s0)
	beq	a5,zero,.L120
	.loc 1 865 19
	ld	a4,-40(s0)
	ld	a5,-72(s0)
	bgeu	a4,a5,.L121
	mv	a5,a4
.L121:
	sd	a5,-72(s0)
	.loc 1 866 5
	li	a2,32
	li	a1,10
	ld	a0,-40(s0)
	call	SetMem16@plt
	.loc 1 867 24
	ld	a5,-96(s0)
	.loc 1 867 8
	beq	a5,zero,.L122
	.loc 1 868 14
	li	a5,-1
	slli	a5,a5,63
	addi	a5,a5,2
	sd	a5,-48(s0)
	j	.L123
.L122:
	.loc 1 870 42
	ld	a5,-40(s0)
	addi	a5,a5,10
	sd	a5,-40(s0)
	.loc 1 870 22
	ld	a5,-40(s0)
	sd	a5,-96(s0)
	.loc 1 871 17
	li	a5,1
	sb	a5,-52(s0)
	.loc 1 872 18
	sb	zero,-49(s0)
.L123:
	.loc 1 875 9
	lla	a1,.LC13
	ld	a0,-40(s0)
	call	StrStr@plt
	mv	a5,a0
	.loc 1 875 8 discriminator 1
	beq	a5,zero,.L120
	.loc 1 876 14
	li	a5,-1
	slli	a5,a5,63
	addi	a5,a5,14
	sd	a5,-48(s0)
.L120:
	.loc 1 880 7
	ld	a5,-48(s0)
	.loc 1 880 6
	blt	a5,zero,.L124
	.loc 1 880 86 discriminator 1
	ld	a5,-80(s0)
	lla	a1,.LC14
	mv	a0,a5
	call	StrStr@plt
	sd	a0,-40(s0)
	.loc 1 880 61 discriminator 2
	ld	a5,-40(s0)
	beq	a5,zero,.L124
	.loc 1 881 19
	ld	a4,-40(s0)
	ld	a5,-72(s0)
	bgeu	a4,a5,.L125
	mv	a5,a4
.L125:
	sd	a5,-72(s0)
	.loc 1 882 5
	li	a2,32
	li	a1,10
	ld	a0,-40(s0)
	call	SetMem16@plt
	.loc 1 883 24
	ld	a5,-96(s0)
	.loc 1 883 8
	beq	a5,zero,.L126
	.loc 1 884 14
	li	a5,-1
	slli	a5,a5,63
	addi	a5,a5,2
	sd	a5,-48(s0)
	j	.L127
.L126:
	.loc 1 886 42
	ld	a5,-40(s0)
	addi	a5,a5,10
	sd	a5,-40(s0)
	.loc 1 886 22
	ld	a5,-40(s0)
	sd	a5,-96(s0)
	.loc 1 887 17
	sb	zero,-52(s0)
	.loc 1 888 18
	sb	zero,-49(s0)
.L127:
	.loc 1 891 9
	lla	a1,.LC14
	ld	a0,-40(s0)
	call	StrStr@plt
	mv	a5,a0
	.loc 1 891 8 discriminator 1
	beq	a5,zero,.L124
	.loc 1 892 14
	li	a5,-1
	slli	a5,a5,63
	addi	a5,a5,14
	sd	a5,-48(s0)
.L124:
	.loc 1 896 7
	ld	a5,-48(s0)
	.loc 1 896 6
	blt	a5,zero,.L128
	.loc 1 896 86 discriminator 1
	ld	a5,-80(s0)
	lla	a1,.LC15
	mv	a0,a5
	call	StrStr@plt
	sd	a0,-40(s0)
	.loc 1 896 61 discriminator 2
	ld	a5,-40(s0)
	beq	a5,zero,.L128
	.loc 1 897 19
	ld	a4,-40(s0)
	ld	a5,-72(s0)
	bgeu	a4,a5,.L129
	mv	a5,a4
.L129:
	sd	a5,-72(s0)
	.loc 1 898 5
	li	a2,32
	li	a1,8
	ld	a0,-40(s0)
	call	SetMem16@plt
	.loc 1 899 24
	ld	a5,-96(s0)
	.loc 1 899 8
	beq	a5,zero,.L130
	.loc 1 900 14
	li	a5,-1
	slli	a5,a5,63
	addi	a5,a5,2
	sd	a5,-48(s0)
	j	.L131
.L130:
	.loc 1 902 42
	ld	a5,-40(s0)
	addi	a5,a5,8
	sd	a5,-40(s0)
	.loc 1 902 22
	ld	a5,-40(s0)
	sd	a5,-96(s0)
	.loc 1 903 17
	sb	zero,-52(s0)
	.loc 1 904 18
	sb	zero,-49(s0)
.L131:
	.loc 1 907 9
	lla	a1,.LC15
	ld	a0,-40(s0)
	call	StrStr@plt
	mv	a5,a0
	.loc 1 907 8 discriminator 1
	beq	a5,zero,.L128
	.loc 1 908 14
	li	a5,-1
	slli	a5,a5,63
	addi	a5,a5,14
	sd	a5,-48(s0)
.L128:
	.loc 1 912 7
	ld	a5,-48(s0)
	.loc 1 912 6
	blt	a5,zero,.L132
	.loc 1 912 86 discriminator 1
	ld	a5,-80(s0)
	lla	a1,.LC16
	mv	a0,a5
	call	StrStr@plt
	sd	a0,-40(s0)
	.loc 1 912 61 discriminator 2
	ld	a5,-40(s0)
	beq	a5,zero,.L132
	.loc 1 913 19
	ld	a4,-40(s0)
	ld	a5,-72(s0)
	bgeu	a4,a5,.L133
	mv	a5,a4
.L133:
	sd	a5,-72(s0)
	.loc 1 914 5
	li	a2,32
	li	a1,10
	ld	a0,-40(s0)
	call	SetMem16@plt
	.loc 1 915 24
	ld	a5,-88(s0)
	.loc 1 915 8
	beq	a5,zero,.L134
	.loc 1 916 14
	li	a5,-1
	slli	a5,a5,63
	addi	a5,a5,2
	sd	a5,-48(s0)
	j	.L135
.L134:
	.loc 1 918 42
	ld	a5,-40(s0)
	addi	a5,a5,10
	sd	a5,-40(s0)
	.loc 1 918 22
	ld	a5,-40(s0)
	sd	a5,-88(s0)
	.loc 1 919 17
	li	a5,1
	sb	a5,-53(s0)
.L135:
	.loc 1 922 9
	lla	a1,.LC16
	ld	a0,-40(s0)
	call	StrStr@plt
	mv	a5,a0
	.loc 1 922 8 discriminator 1
	beq	a5,zero,.L132
	.loc 1 923 14
	li	a5,-1
	slli	a5,a5,63
	addi	a5,a5,14
	sd	a5,-48(s0)
.L132:
	.loc 1 927 7
	ld	a5,-48(s0)
	.loc 1 927 6
	blt	a5,zero,.L136
	.loc 1 927 86 discriminator 1
	ld	a5,-80(s0)
	lla	a1,.LC17
	mv	a0,a5
	call	StrStr@plt
	sd	a0,-40(s0)
	.loc 1 927 61 discriminator 2
	ld	a5,-40(s0)
	beq	a5,zero,.L136
	.loc 1 928 19
	ld	a4,-40(s0)
	ld	a5,-72(s0)
	bgeu	a4,a5,.L137
	mv	a5,a4
.L137:
	sd	a5,-72(s0)
	.loc 1 929 5
	li	a2,32
	li	a1,10
	ld	a0,-40(s0)
	call	SetMem16@plt
	.loc 1 930 23
	ld	a5,-128(s0)
	.loc 1 930 8
	beq	a5,zero,.L138
	.loc 1 931 14
	li	a5,-1
	slli	a5,a5,63
	addi	a5,a5,2
	sd	a5,-48(s0)
	j	.L139
.L138:
	.loc 1 933 41
	ld	a5,-40(s0)
	addi	a5,a5,10
	sd	a5,-40(s0)
	.loc 1 933 21
	ld	a5,-40(s0)
	sd	a5,-128(s0)
	.loc 1 934 17
	sb	zero,-53(s0)
.L139:
	.loc 1 937 9
	lla	a1,.LC17
	ld	a0,-40(s0)
	call	StrStr@plt
	mv	a5,a0
	.loc 1 937 8 discriminator 1
	beq	a5,zero,.L136
	.loc 1 938 14
	li	a5,-1
	slli	a5,a5,63
	addi	a5,a5,14
	sd	a5,-48(s0)
.L136:
	.loc 1 942 7
	ld	a5,-48(s0)
	.loc 1 942 6
	blt	a5,zero,.L140
	.loc 1 942 86 discriminator 1
	ld	a5,-80(s0)
	lla	a1,.LC18
	mv	a0,a5
	call	StrStr@plt
	sd	a0,-40(s0)
	.loc 1 942 61 discriminator 2
	ld	a5,-40(s0)
	beq	a5,zero,.L140
	.loc 1 943 19
	ld	a4,-40(s0)
	ld	a5,-72(s0)
	bgeu	a4,a5,.L141
	mv	a5,a4
.L141:
	sd	a5,-72(s0)
	.loc 1 944 5
	li	a2,32
	li	a1,10
	ld	a0,-40(s0)
	call	SetMem16@plt
	.loc 1 945 23
	ld	a5,-120(s0)
	.loc 1 945 8
	beq	a5,zero,.L142
	.loc 1 946 14
	li	a5,-1
	slli	a5,a5,63
	addi	a5,a5,2
	sd	a5,-48(s0)
	j	.L143
.L142:
	.loc 1 948 41
	ld	a5,-40(s0)
	addi	a5,a5,10
	sd	a5,-40(s0)
	.loc 1 948 21
	ld	a5,-40(s0)
	sd	a5,-120(s0)
	.loc 1 949 17
	sb	zero,-52(s0)
.L143:
	.loc 1 952 9
	lla	a1,.LC18
	ld	a0,-40(s0)
	call	StrStr@plt
	mv	a5,a0
	.loc 1 952 8 discriminator 1
	beq	a5,zero,.L140
	.loc 1 953 14
	li	a5,-1
	slli	a5,a5,63
	addi	a5,a5,14
	sd	a5,-48(s0)
.L140:
	.loc 1 957 7
	ld	a5,-48(s0)
	.loc 1 957 6
	blt	a5,zero,.L144
	.loc 1 957 86 discriminator 1
	ld	a5,-80(s0)
	lla	a1,.LC19
	mv	a0,a5
	call	StrStr@plt
	sd	a0,-40(s0)
	.loc 1 957 61 discriminator 2
	ld	a5,-40(s0)
	beq	a5,zero,.L144
	.loc 1 958 19
	ld	a4,-40(s0)
	ld	a5,-72(s0)
	bgeu	a4,a5,.L145
	mv	a5,a4
.L145:
	sd	a5,-72(s0)
	.loc 1 959 5
	li	a2,32
	li	a1,10
	ld	a0,-40(s0)
	call	SetMem16@plt
	.loc 1 960 24
	ld	a5,-88(s0)
	.loc 1 960 8
	beq	a5,zero,.L146
	.loc 1 961 14
	li	a5,-1
	slli	a5,a5,63
	addi	a5,a5,2
	sd	a5,-48(s0)
	j	.L147
.L146:
	.loc 1 963 42
	ld	a5,-40(s0)
	addi	a5,a5,10
	sd	a5,-40(s0)
	.loc 1 963 22
	ld	a5,-40(s0)
	sd	a5,-88(s0)
	.loc 1 964 17
	sb	zero,-53(s0)
	.loc 1 965 18
	sb	zero,-51(s0)
.L147:
	.loc 1 968 9
	lla	a1,.LC19
	ld	a0,-40(s0)
	call	StrStr@plt
	mv	a5,a0
	.loc 1 968 8 discriminator 1
	beq	a5,zero,.L144
	.loc 1 969 14
	li	a5,-1
	slli	a5,a5,63
	addi	a5,a5,14
	sd	a5,-48(s0)
.L144:
	.loc 1 973 7
	ld	a5,-48(s0)
	.loc 1 973 6
	blt	a5,zero,.L148
	.loc 1 973 86 discriminator 1
	ld	a5,-80(s0)
	lla	a1,.LC20
	mv	a0,a5
	call	StrStr@plt
	sd	a0,-40(s0)
	.loc 1 973 61 discriminator 2
	ld	a5,-40(s0)
	beq	a5,zero,.L148
	.loc 1 974 19
	ld	a4,-40(s0)
	ld	a5,-72(s0)
	bgeu	a4,a5,.L149
	mv	a5,a4
.L149:
	sd	a5,-72(s0)
	.loc 1 975 5
	li	a2,32
	li	a1,8
	ld	a0,-40(s0)
	call	SetMem16@plt
	.loc 1 976 24
	ld	a5,-88(s0)
	.loc 1 976 8
	beq	a5,zero,.L150
	.loc 1 977 14
	li	a5,-1
	slli	a5,a5,63
	addi	a5,a5,2
	sd	a5,-48(s0)
	j	.L151
.L150:
	.loc 1 979 42
	ld	a5,-40(s0)
	addi	a5,a5,8
	sd	a5,-40(s0)
	.loc 1 979 22
	ld	a5,-40(s0)
	sd	a5,-88(s0)
	.loc 1 980 17
	sb	zero,-53(s0)
.L151:
	.loc 1 983 9
	lla	a1,.LC20
	ld	a0,-40(s0)
	call	StrStr@plt
	mv	a5,a0
	.loc 1 983 8 discriminator 1
	beq	a5,zero,.L148
	.loc 1 984 14
	li	a5,-1
	slli	a5,a5,63
	addi	a5,a5,14
	sd	a5,-48(s0)
.L148:
	.loc 1 988 7
	ld	a5,-48(s0)
	.loc 1 988 6
	blt	a5,zero,.L152
	.loc 1 988 86 discriminator 1
	ld	a5,-80(s0)
	lla	a1,.LC21
	mv	a0,a5
	call	StrStr@plt
	sd	a0,-40(s0)
	.loc 1 988 61 discriminator 2
	ld	a5,-40(s0)
	beq	a5,zero,.L152
	.loc 1 989 19
	ld	a4,-40(s0)
	ld	a5,-72(s0)
	bgeu	a4,a5,.L153
	mv	a5,a4
.L153:
	sd	a5,-72(s0)
	.loc 1 990 5
	li	a2,32
	li	a1,8
	ld	a0,-40(s0)
	call	SetMem16@plt
	.loc 1 991 24
	ld	a5,-96(s0)
	.loc 1 991 8
	beq	a5,zero,.L154
	.loc 1 992 14
	li	a5,-1
	slli	a5,a5,63
	addi	a5,a5,2
	sd	a5,-48(s0)
	j	.L155
.L154:
	.loc 1 994 42
	ld	a5,-40(s0)
	addi	a5,a5,8
	sd	a5,-40(s0)
	.loc 1 994 22
	ld	a5,-40(s0)
	sd	a5,-96(s0)
	.loc 1 995 17
	sb	zero,-52(s0)
.L155:
	.loc 1 998 9
	lla	a1,.LC21
	ld	a0,-40(s0)
	call	StrStr@plt
	mv	a5,a0
	.loc 1 998 8 discriminator 1
	beq	a5,zero,.L152
	.loc 1 999 14
	li	a5,-1
	slli	a5,a5,63
	addi	a5,a5,14
	sd	a5,-48(s0)
.L152:
	.loc 1 1003 7
	ld	a5,-48(s0)
	.loc 1 1003 6
	blt	a5,zero,.L156
	.loc 1 1003 86 discriminator 1
	ld	a5,-80(s0)
	lla	a1,.LC22
	mv	a0,a5
	call	StrStr@plt
	sd	a0,-40(s0)
	.loc 1 1003 61 discriminator 2
	ld	a5,-40(s0)
	beq	a5,zero,.L156
	.loc 1 1004 19
	ld	a4,-40(s0)
	ld	a5,-72(s0)
	bgeu	a4,a5,.L157
	mv	a5,a4
.L157:
	sd	a5,-72(s0)
	.loc 1 1005 5
	li	a2,32
	li	a1,6
	ld	a0,-40(s0)
	call	SetMem16@plt
	.loc 1 1006 24
	ld	a5,-96(s0)
	.loc 1 1006 8
	beq	a5,zero,.L158
	.loc 1 1007 14
	li	a5,-1
	slli	a5,a5,63
	addi	a5,a5,2
	sd	a5,-48(s0)
	j	.L159
.L158:
	.loc 1 1009 42
	ld	a5,-40(s0)
	addi	a5,a5,6
	sd	a5,-40(s0)
	.loc 1 1009 22
	ld	a5,-40(s0)
	sd	a5,-96(s0)
	.loc 1 1010 17
	sb	zero,-52(s0)
.L159:
	.loc 1 1013 9
	lla	a1,.LC22
	ld	a0,-40(s0)
	call	StrStr@plt
	mv	a5,a0
	.loc 1 1013 8 discriminator 1
	beq	a5,zero,.L156
	.loc 1 1014 14
	li	a5,-1
	slli	a5,a5,63
	addi	a5,a5,14
	sd	a5,-48(s0)
.L156:
	.loc 1 1018 7
	ld	a5,-48(s0)
	.loc 1 1018 6
	blt	a5,zero,.L160
	.loc 1 1018 86 discriminator 1
	ld	a5,-80(s0)
	lla	a1,.LC23
	mv	a0,a5
	call	StrStr@plt
	sd	a0,-40(s0)
	.loc 1 1018 61 discriminator 2
	ld	a5,-40(s0)
	beq	a5,zero,.L160
	.loc 1 1019 19
	ld	a4,-40(s0)
	ld	a5,-72(s0)
	bgeu	a4,a5,.L161
	mv	a5,a4
.L161:
	sd	a5,-72(s0)
	.loc 1 1020 5
	li	a2,32
	li	a1,6
	ld	a0,-40(s0)
	call	SetMem16@plt
	.loc 1 1021 23
	ld	a5,-104(s0)
	.loc 1 1021 8
	beq	a5,zero,.L162
	.loc 1 1022 14
	li	a5,-1
	slli	a5,a5,63
	addi	a5,a5,2
	sd	a5,-48(s0)
	j	.L163
.L162:
	.loc 1 1024 41
	ld	a5,-40(s0)
	addi	a5,a5,6
	sd	a5,-40(s0)
	.loc 1 1024 21
	ld	a5,-40(s0)
	sd	a5,-104(s0)
.L163:
	.loc 1 1027 9
	lla	a1,.LC23
	ld	a0,-40(s0)
	call	StrStr@plt
	mv	a5,a0
	.loc 1 1027 8 discriminator 1
	beq	a5,zero,.L160
	.loc 1 1028 14
	li	a5,-1
	slli	a5,a5,63
	addi	a5,a5,14
	sd	a5,-48(s0)
.L160:
	.loc 1 1032 7
	ld	a5,-48(s0)
	.loc 1 1032 6
	blt	a5,zero,.L164
	.loc 1 1032 86 discriminator 1
	ld	a5,-80(s0)
	lla	a1,.LC24
	mv	a0,a5
	call	StrStr@plt
	sd	a0,-40(s0)
	.loc 1 1032 61 discriminator 2
	ld	a5,-40(s0)
	beq	a5,zero,.L164
	.loc 1 1033 19
	ld	a4,-40(s0)
	ld	a5,-72(s0)
	bgeu	a4,a5,.L165
	mv	a5,a4
.L165:
	sd	a5,-72(s0)
	.loc 1 1034 5
	li	a2,32
	li	a1,8
	ld	a0,-40(s0)
	call	SetMem16@plt
	.loc 1 1035 23
	ld	a5,-104(s0)
	.loc 1 1035 8
	beq	a5,zero,.L166
	.loc 1 1036 14
	li	a5,-1
	slli	a5,a5,63
	addi	a5,a5,2
	sd	a5,-48(s0)
	j	.L167
.L166:
	.loc 1 1038 41
	ld	a5,-40(s0)
	addi	a5,a5,8
	sd	a5,-40(s0)
	.loc 1 1038 21
	ld	a5,-40(s0)
	sd	a5,-104(s0)
	.loc 1 1039 17
	sb	zero,-50(s0)
	.loc 1 1040 24
	lla	a5,AsciiRedirection
	li	a4,1
	sb	a4,0(a5)
.L167:
	.loc 1 1043 9
	lla	a1,.LC24
	ld	a0,-40(s0)
	call	StrStr@plt
	mv	a5,a0
	.loc 1 1043 8 discriminator 1
	beq	a5,zero,.L164
	.loc 1 1044 14
	li	a5,-1
	slli	a5,a5,63
	addi	a5,a5,14
	sd	a5,-48(s0)
.L164:
	.loc 1 1048 7
	ld	a5,-48(s0)
	.loc 1 1048 6
	blt	a5,zero,.L168
	.loc 1 1048 86 discriminator 1
	ld	a5,-80(s0)
	lla	a1,.LC25
	mv	a0,a5
	call	StrStr@plt
	sd	a0,-40(s0)
	.loc 1 1048 61 discriminator 2
	ld	a5,-40(s0)
	beq	a5,zero,.L168
	.loc 1 1049 19
	ld	a4,-40(s0)
	ld	a5,-72(s0)
	bgeu	a4,a5,.L169
	mv	a5,a4
.L169:
	sd	a5,-72(s0)
	.loc 1 1050 5
	li	a2,32
	li	a1,8
	ld	a0,-40(s0)
	call	SetMem16@plt
	.loc 1 1051 22
	ld	a5,-112(s0)
	.loc 1 1051 8
	beq	a5,zero,.L170
	.loc 1 1052 14
	li	a5,-1
	slli	a5,a5,63
	addi	a5,a5,2
	sd	a5,-48(s0)
	j	.L171
.L170:
	.loc 1 1054 40
	ld	a5,-40(s0)
	addi	a5,a5,8
	sd	a5,-40(s0)
	.loc 1 1054 20
	ld	a5,-40(s0)
	sd	a5,-112(s0)
.L171:
	.loc 1 1057 9
	lla	a1,.LC25
	ld	a0,-40(s0)
	call	StrStr@plt
	mv	a5,a0
	.loc 1 1057 8 discriminator 1
	beq	a5,zero,.L168
	.loc 1 1058 14
	li	a5,-1
	slli	a5,a5,63
	addi	a5,a5,14
	sd	a5,-48(s0)
.L168:
	.loc 1 1065 3
	ld	s1,-80(s0)
	.loc 1 1065 30
	ld	a5,-80(s0)
	mv	a0,a5
	call	StrSize@plt
	mv	a5,a0
	.loc 1 1065 55 discriminator 1
	srli	s2,a5,1
	.loc 1 1065 3 discriminator 1
	ld	a0,-176(s0)
	call	StrLen@plt
	mv	a5,a0
	.loc 1 1065 3 is_stmt 0 discriminator 2
	mv	a3,a5
	ld	a2,-176(s0)
	mv	a1,s2
	mv	a0,s1
	call	StrnCpyS@plt
	.loc 1 1067 42 is_stmt 1
	ld	s1,-80(s0)
	.loc 1 1067 44
	ld	a5,-80(s0)
	mv	a0,a5
	call	StrLen@plt
	mv	a5,a0
	.loc 1 1067 42 discriminator 1
	slli	a5,a5,1
	add	a5,s1,a5
	.loc 1 1067 6 discriminator 1
	ld	a4,-72(s0)
	beq	a4,a5,.L172
	.loc 1 1068 11
	ld	a5,-72(s0)
	.loc 1 1068 34
	ld	a4,-80(s0)
	.loc 1 1068 32
	sub	a5,a5,a4
	.loc 1 1068 57
	srli	s1,a5,1
	.loc 1 1068 76
	ld	a0,-176(s0)
	call	StrLen@plt
	mv	a5,a0
	.loc 1 1068 6 discriminator 1
	bgeu	s1,a5,.L172
	.loc 1 1071 25
	ld	a5,-72(s0)
	.loc 1 1071 48
	ld	a4,-80(s0)
	.loc 1 1071 46
	sub	a5,a5,a4
	.loc 1 1071 22
	andi	a5,a5,-2
	ld	a4,-176(s0)
	add	a5,a4,a5
	.loc 1 1071 89
	sh	zero,0(a5)
.L172:
	.loc 1 1074 7
	ld	a5,-48(s0)
	.loc 1 1074 6
	blt	a5,zero,.L173
	.loc 1 1075 24
	ld	a5,-88(s0)
	.loc 1 1075 8
	beq	a5,zero,.L174
	.loc 1 1076 29
	ld	a5,-88(s0)
	mv	a0,a5
	call	FixFileName
	mv	a5,a0
	.loc 1 1076 27 discriminator 1
	sd	a5,-88(s0)
	ld	a5,-88(s0)
	.loc 1 1076 10 discriminator 1
	bne	a5,zero,.L174
	.loc 1 1077 16
	li	a5,-1
	slli	a5,a5,63
	addi	a5,a5,2
	sd	a5,-48(s0)
.L174:
	.loc 1 1081 24
	ld	a5,-96(s0)
	.loc 1 1081 8
	beq	a5,zero,.L175
	.loc 1 1082 29
	ld	a5,-96(s0)
	mv	a0,a5
	call	FixFileName
	mv	a5,a0
	.loc 1 1082 27 discriminator 1
	sd	a5,-96(s0)
	ld	a5,-96(s0)
	.loc 1 1082 10 discriminator 1
	bne	a5,zero,.L175
	.loc 1 1083 16
	li	a5,-1
	slli	a5,a5,63
	addi	a5,a5,2
	sd	a5,-48(s0)
.L175:
	.loc 1 1087 23
	ld	a5,-104(s0)
	.loc 1 1087 8
	beq	a5,zero,.L176
	.loc 1 1088 28
	ld	a5,-104(s0)
	mv	a0,a5
	call	FixFileName
	mv	a5,a0
	.loc 1 1088 26 discriminator 1
	sd	a5,-104(s0)
	ld	a5,-104(s0)
	.loc 1 1088 10 discriminator 1
	bne	a5,zero,.L176
	.loc 1 1089 16
	li	a5,-1
	slli	a5,a5,63
	addi	a5,a5,2
	sd	a5,-48(s0)
.L176:
	.loc 1 1093 23
	ld	a5,-128(s0)
	.loc 1 1093 8
	beq	a5,zero,.L177
	.loc 1 1094 28
	ld	a5,-128(s0)
	mv	a0,a5
	call	FixVarName
	mv	a5,a0
	.loc 1 1094 26 discriminator 1
	sd	a5,-128(s0)
	ld	a5,-128(s0)
	.loc 1 1094 10 discriminator 1
	bne	a5,zero,.L177
	.loc 1 1095 16
	li	a5,-1
	slli	a5,a5,63
	addi	a5,a5,2
	sd	a5,-48(s0)
.L177:
	.loc 1 1099 23
	ld	a5,-120(s0)
	.loc 1 1099 8
	beq	a5,zero,.L178
	.loc 1 1100 28
	ld	a5,-120(s0)
	mv	a0,a5
	call	FixVarName
	mv	a5,a0
	.loc 1 1100 26 discriminator 1
	sd	a5,-120(s0)
	ld	a5,-120(s0)
	.loc 1 1100 10 discriminator 1
	bne	a5,zero,.L178
	.loc 1 1101 16
	li	a5,-1
	slli	a5,a5,63
	addi	a5,a5,2
	sd	a5,-48(s0)
.L178:
	.loc 1 1105 22
	ld	a5,-112(s0)
	.loc 1 1105 8
	beq	a5,zero,.L179
	.loc 1 1106 27
	ld	a5,-112(s0)
	mv	a0,a5
	call	FixVarName
	mv	a5,a0
	.loc 1 1106 25 discriminator 1
	sd	a5,-112(s0)
	ld	a5,-112(s0)
	.loc 1 1106 10 discriminator 1
	bne	a5,zero,.L179
	.loc 1 1107 16
	li	a5,-1
	slli	a5,a5,63
	addi	a5,a5,2
	sd	a5,-48(s0)
.L179:
	.loc 1 1118 28
	ld	a5,-88(s0)
	.loc 1 1114 8
	beq	a5,zero,.L180
	.loc 1 1118 64
	ld	a5,-96(s0)
	.loc 1 1118 45
	beq	a5,zero,.L180
	.loc 1 1118 85 discriminator 1
	addi	a4,s0,-96
	addi	a5,s0,-88
	mv	a1,a4
	mv	a0,a5
	call	StringNoCaseCompare@plt
	mv	a5,a0
	.loc 1 1118 81 discriminator 2
	beq	a5,zero,.L181
.L180:
	.loc 1 1119 28
	ld	a5,-88(s0)
	.loc 1 1119 8
	beq	a5,zero,.L182
	.loc 1 1119 63 discriminator 1
	ld	a5,-104(s0)
	.loc 1 1119 45 discriminator 1
	beq	a5,zero,.L182
	.loc 1 1119 84 discriminator 2
	addi	a4,s0,-104
	addi	a5,s0,-88
	mv	a1,a4
	mv	a0,a5
	call	StringNoCaseCompare@plt
	mv	a5,a0
	.loc 1 1119 80 discriminator 3
	beq	a5,zero,.L181
.L182:
	.loc 1 1120 28
	ld	a5,-96(s0)
	.loc 1 1120 8
	beq	a5,zero,.L183
	.loc 1 1120 63 discriminator 1
	ld	a5,-104(s0)
	.loc 1 1120 45 discriminator 1
	beq	a5,zero,.L183
	.loc 1 1120 84 discriminator 2
	addi	a4,s0,-104
	addi	a5,s0,-96
	mv	a1,a4
	mv	a0,a5
	call	StringNoCaseCompare@plt
	mv	a5,a0
	.loc 1 1120 80 discriminator 3
	beq	a5,zero,.L181
.L183:
	.loc 1 1124 27
	ld	a5,-128(s0)
	.loc 1 1124 8
	beq	a5,zero,.L184
	.loc 1 1124 61 discriminator 1
	ld	a5,-112(s0)
	.loc 1 1124 44 discriminator 1
	beq	a5,zero,.L184
	.loc 1 1124 82 discriminator 2
	addi	a4,s0,-112
	addi	a5,s0,-128
	mv	a1,a4
	mv	a0,a5
	call	StringNoCaseCompare@plt
	mv	a5,a0
	.loc 1 1124 78 discriminator 3
	beq	a5,zero,.L181
.L184:
	.loc 1 1125 27
	ld	a5,-120(s0)
	.loc 1 1125 8
	beq	a5,zero,.L185
	.loc 1 1125 61 discriminator 1
	ld	a5,-112(s0)
	.loc 1 1125 44 discriminator 1
	beq	a5,zero,.L185
	.loc 1 1125 82 discriminator 2
	addi	a4,s0,-112
	addi	a5,s0,-120
	mv	a1,a4
	mv	a0,a5
	call	StringNoCaseCompare@plt
	mv	a5,a0
	.loc 1 1125 78 discriminator 3
	beq	a5,zero,.L181
.L185:
	.loc 1 1126 27
	ld	a5,-128(s0)
	.loc 1 1126 8
	beq	a5,zero,.L186
	.loc 1 1126 62 discriminator 1
	ld	a5,-120(s0)
	.loc 1 1126 44 discriminator 1
	beq	a5,zero,.L186
	.loc 1 1126 83 discriminator 2
	addi	a4,s0,-120
	addi	a5,s0,-128
	mv	a1,a4
	mv	a0,a5
	call	StringNoCaseCompare@plt
	mv	a5,a0
	.loc 1 1126 79 discriminator 3
	beq	a5,zero,.L181
.L186:
	.loc 1 1130 8
	ld	a5,-64(s0)
	beq	a5,zero,.L187
	.loc 1 1130 45 discriminator 1
	ld	a5,-64(s0)
	ld	a5,24(a5)
	.loc 1 1130 36 discriminator 1
	beq	a5,zero,.L187
	.loc 1 1130 93 discriminator 2
	ld	a5,-112(s0)
	.loc 1 1130 75 discriminator 2
	bne	a5,zero,.L181
	.loc 1 1130 128 discriminator 3
	ld	a5,-104(s0)
	.loc 1 1130 110 discriminator 3
	bne	a5,zero,.L181
.L187:
	.loc 1 1131 8
	ld	a5,-64(s0)
	beq	a5,zero,.L188
	.loc 1 1131 45 discriminator 1
	ld	a5,-64(s0)
	ld	a5,16(a5)
	.loc 1 1131 36 discriminator 1
	beq	a5,zero,.L188
	.loc 1 1131 95 discriminator 2
	ld	a5,-120(s0)
	.loc 1 1131 76 discriminator 2
	bne	a5,zero,.L181
	.loc 1 1131 131 discriminator 3
	ld	a5,-96(s0)
	.loc 1 1131 112 discriminator 3
	bne	a5,zero,.L181
.L188:
	.loc 1 1135 28
	ld	a5,-88(s0)
	.loc 1 1135 8
	beq	a5,zero,.L189
	.loc 1 1135 63 discriminator 1
	ld	a5,-128(s0)
	.loc 1 1135 45 discriminator 1
	bne	a5,zero,.L181
.L189:
	.loc 1 1136 28
	ld	a5,-96(s0)
	.loc 1 1136 8
	beq	a5,zero,.L190
	.loc 1 1136 63 discriminator 1
	ld	a5,-120(s0)
	.loc 1 1136 45 discriminator 1
	bne	a5,zero,.L181
.L190:
	.loc 1 1137 27
	ld	a5,-104(s0)
	.loc 1 1137 8
	beq	a5,zero,.L191
	.loc 1 1137 61 discriminator 1
	ld	a5,-112(s0)
	.loc 1 1137 44 discriminator 1
	bne	a5,zero,.L181
.L191:
	.loc 1 1141 27
	ld	a5,-128(s0)
	.loc 1 1141 8
	beq	a5,zero,.L192
	.loc 1 1141 66 discriminator 1
	ld	a5,-128(s0)
	addi	a4,s0,-153
	mv	a1,a4
	mv	a0,a5
	call	IsVolatileEnv@plt
	mv	a5,a0
	.loc 1 1141 44 discriminator 2
	blt	a5,zero,.L192
	.loc 1 1141 138 discriminator 3
	lbu	a5,-153(s0)
	.loc 1 1141 135 discriminator 3
	beq	a5,zero,.L181
.L192:
	.loc 1 1142 27
	ld	a5,-120(s0)
	.loc 1 1142 8
	beq	a5,zero,.L193
	.loc 1 1142 66 discriminator 1
	ld	a5,-120(s0)
	addi	a4,s0,-153
	mv	a1,a4
	mv	a0,a5
	call	IsVolatileEnv@plt
	mv	a5,a0
	.loc 1 1142 44 discriminator 2
	blt	a5,zero,.L193
	.loc 1 1142 138 discriminator 3
	lbu	a5,-153(s0)
	.loc 1 1142 135 discriminator 3
	beq	a5,zero,.L181
.L193:
	.loc 1 1146 14
	lla	a1,.LC26
	ld	a0,-176(s0)
	call	StrStr@plt
	mv	a5,a0
	.loc 1 1146 8 discriminator 1
	beq	a5,zero,.L194
	.loc 1 1147 30
	ld	a5,-120(s0)
	.loc 1 1147 11
	bne	a5,zero,.L181
	.loc 1 1147 66 discriminator 1
	ld	a5,-96(s0)
	.loc 1 1147 47 discriminator 1
	bne	a5,zero,.L181
	.loc 1 1147 102 discriminator 2
	ld	a5,-88(s0)
	.loc 1 1147 83 discriminator 2
	bne	a5,zero,.L181
	.loc 1 1147 137 discriminator 3
	ld	a5,-128(s0)
	.loc 1 1147 119 discriminator 3
	bne	a5,zero,.L181
.L194:
	.loc 1 1151 28
	ld	a5,-96(s0)
	.loc 1 1151 8
	beq	a5,zero,.L195
	.loc 1 1151 45 discriminator 1
	lbu	a5,-49(s0)
	andi	a5,a5,0xff
	beq	a5,zero,.L195
	.loc 1 1151 59 discriminator 2
	lbu	a5,-52(s0)
	andi	a5,a5,0xff
	beq	a5,zero,.L195
	.loc 1 1151 95 discriminator 3
	ld	a5,-96(s0)
	mv	a0,a5
	call	ShellFileExists@plt
	mv	a5,a0
	.loc 1 1151 72 discriminator 4
	blt	a5,zero,.L195
	.loc 1 1151 177 discriminator 5
	ld	a5,-96(s0)
	mv	a0,a5
	call	IsUnicodeFile
	mv	a5,a0
	.loc 1 1151 156 discriminator 6
	blt	a5,zero,.L181
.L195:
	.loc 1 1152 28
	ld	a5,-88(s0)
	.loc 1 1152 8
	beq	a5,zero,.L196
	.loc 1 1152 45 discriminator 1
	lbu	a5,-51(s0)
	andi	a5,a5,0xff
	beq	a5,zero,.L196
	.loc 1 1152 59 discriminator 2
	lbu	a5,-53(s0)
	andi	a5,a5,0xff
	beq	a5,zero,.L196
	.loc 1 1152 95 discriminator 3
	ld	a5,-88(s0)
	mv	a0,a5
	call	ShellFileExists@plt
	mv	a5,a0
	.loc 1 1152 72 discriminator 4
	blt	a5,zero,.L196
	.loc 1 1152 177 discriminator 5
	ld	a5,-88(s0)
	mv	a0,a5
	call	IsUnicodeFile
	mv	a5,a0
	.loc 1 1152 156 discriminator 6
	blt	a5,zero,.L181
.L196:
	.loc 1 1153 28
	ld	a5,-96(s0)
	.loc 1 1153 8
	beq	a5,zero,.L197
	.loc 1 1153 45 discriminator 1
	lbu	a5,-49(s0)
	andi	a5,a5,0xff
	bne	a5,zero,.L197
	.loc 1 1153 60 discriminator 2
	lbu	a5,-52(s0)
	andi	a5,a5,0xff
	beq	a5,zero,.L197
	.loc 1 1153 96 discriminator 3
	ld	a5,-96(s0)
	mv	a0,a5
	call	ShellFileExists@plt
	mv	a5,a0
	.loc 1 1153 73 discriminator 4
	blt	a5,zero,.L197
	.loc 1 1153 179 discriminator 5
	ld	a5,-96(s0)
	mv	a0,a5
	call	IsUnicodeFile
	mv	a5,a0
	.loc 1 1153 157 discriminator 6
	bge	a5,zero,.L181
.L197:
	.loc 1 1154 28
	ld	a5,-88(s0)
	.loc 1 1154 8
	beq	a5,zero,.L198
	.loc 1 1154 45 discriminator 1
	lbu	a5,-51(s0)
	andi	a5,a5,0xff
	bne	a5,zero,.L198
	.loc 1 1154 60 discriminator 2
	lbu	a5,-53(s0)
	andi	a5,a5,0xff
	beq	a5,zero,.L198
	.loc 1 1154 96 discriminator 3
	ld	a5,-88(s0)
	mv	a0,a5
	call	ShellFileExists@plt
	mv	a5,a0
	.loc 1 1154 73 discriminator 4
	blt	a5,zero,.L198
	.loc 1 1154 179 discriminator 5
	ld	a5,-88(s0)
	mv	a0,a5
	call	IsUnicodeFile
	mv	a5,a0
	.loc 1 1154 157 discriminator 6
	blt	a5,zero,.L198
.L181:
	.loc 1 1157 14
	li	a5,-1
	slli	a5,a5,63
	addi	a5,a5,2
	sd	a5,-48(s0)
	.loc 1 1158 32
	ld	a5,-184(s0)
	ld	a4,0(a5)
	.loc 1 1158 30
	ld	a5,-168(s0)
	sd	a4,16(a5)
	.loc 1 1159 33
	ld	a5,-192(s0)
	ld	a4,0(a5)
	.loc 1 1159 31
	ld	a5,-168(s0)
	sd	a4,24(a5)
	.loc 1 1160 33
	ld	a5,-200(s0)
	ld	a4,0(a5)
	.loc 1 1160 31
	ld	a5,-168(s0)
	sd	a4,32(a5)
	j	.L173
.L198:
	.loc 1 1161 16
	ld	a5,-48(s0)
	.loc 1 1161 15
	blt	a5,zero,.L173
	.loc 1 1169 26
	ld	a5,-88(s0)
	.loc 1 1169 10
	beq	a5,zero,.L199
	.loc 1 1170 12
	lbu	a5,-53(s0)
	andi	a5,a5,0xff
	bne	a5,zero,.L200
	.loc 1 1174 26
	la	a5,ShellInfoObject
	ld	a5,8(a5)
	.loc 1 1174 46
	ld	a5,240(a5)
	.loc 1 1174 11
	ld	a4,-88(s0)
	mv	a0,a4
	jalr	a5
.LVL16:
.L200:
	.loc 1 1177 18
	ld	a4,-88(s0)
	addi	a1,s0,-136
	li	a3,0
	li	a5,-1
	slli	a5,a5,63
	addi	a2,a5,3
	mv	a0,a4
	call	ShellOpenFileByName@plt
	sd	a0,-48(s0)
	.loc 1 1178 12
	lbu	a5,-53(s0)
	andi	a5,a5,0xff
	bne	a5,zero,.L201
	.loc 1 1178 24 discriminator 1
	lbu	a5,-51(s0)
	andi	a5,a5,0xff
	beq	a5,zero,.L201
	.loc 1 1178 41 discriminator 2
	ld	a5,-48(s0)
	.loc 1 1178 38 discriminator 2
	blt	a5,zero,.L201
	.loc 1 1179 20
	ld	a5,-136(s0)
	mv	a0,a5
	call	WriteFileTag
	sd	a0,-48(s0)
.L201:
	.loc 1 1182 12
	lbu	a5,-51(s0)
	andi	a5,a5,0xff
	bne	a5,zero,.L202
	.loc 1 1182 28 discriminator 1
	ld	a5,-48(s0)
	.loc 1 1182 25 discriminator 1
	blt	a5,zero,.L202
	.loc 1 1183 24
	ld	a5,-136(s0)
	li	a1,0
	mv	a0,a5
	call	CreateFileInterfaceFile@plt
	mv	a5,a0
	.loc 1 1183 22 discriminator 1
	sd	a5,-136(s0)
	.loc 1 1184 26
	ld	a5,-136(s0)
	.loc 1 1184 14
	bne	a5,zero,.L202
	.loc 1 1186 20
	li	a5,-1
	slli	a5,a5,63
	addi	a5,a5,9
	sd	a5,-48(s0)
.L202:
	.loc 1 1190 13
	ld	a5,-48(s0)
	.loc 1 1190 12
	blt	a5,zero,.L199
	.loc 1 1191 35
	ld	a4,-136(s0)
	ld	a5,-168(s0)
	sd	a4,32(a5)
	.loc 1 1192 25
	ld	a4,-136(s0)
	.loc 1 1192 68
	la	a5,gST
	ld	a5,0(a5)
	.loc 1 1192 25
	addi	a3,a5,72
	.loc 1 1192 94
	la	a5,gST
	ld	a5,0(a5)
	.loc 1 1192 25
	ld	a2,80(a5)
	.loc 1 1192 14
	la	a5,gST
	ld	s1,0(a5)
	.loc 1 1192 25
	mv	a1,a3
	mv	a0,a4
	call	CreateSimpleTextOutOnFile@plt
	mv	a5,a0
	.loc 1 1192 23 discriminator 1
	sd	a5,80(s1)
.L199:
	.loc 1 1199 11
	ld	a5,-48(s0)
	.loc 1 1199 10
	blt	a5,zero,.L203
	.loc 1 1199 84 discriminator 1
	ld	a5,-96(s0)
	.loc 1 1199 65 discriminator 1
	beq	a5,zero,.L203
	.loc 1 1200 12
	lbu	a5,-52(s0)
	andi	a5,a5,0xff
	bne	a5,zero,.L204
	.loc 1 1204 26
	la	a5,ShellInfoObject
	ld	a5,8(a5)
	.loc 1 1204 46
	ld	a5,240(a5)
	.loc 1 1204 11
	ld	a4,-96(s0)
	mv	a0,a4
	jalr	a5
.LVL17:
.L204:
	.loc 1 1207 18
	ld	a4,-96(s0)
	addi	a1,s0,-136
	li	a3,0
	li	a5,-1
	slli	a5,a5,63
	addi	a2,a5,3
	mv	a0,a4
	call	ShellOpenFileByName@plt
	sd	a0,-48(s0)
	.loc 1 1208 24
	ld	a5,-136(s0)
	.loc 1 1208 12
	bne	a5,zero,.L205
	.loc 1 1209 18
	li	a5,-1
	slli	a5,a5,63
	addi	a5,a5,2
	sd	a5,-48(s0)
	j	.L203
.L205:
	.loc 1 1211 32
	la	a5,gUnicodeCollation
	ld	a5,0(a5)
	ld	a5,8(a5)
	.loc 1 1211 15
	la	a4,gUnicodeCollation
	ld	a4,0(a4)
	ld	a3,-96(s0)
	lla	a2,.LC27
	mv	a1,a3
	mv	a0,a4
	jalr	a5
.LVL18:
	mv	a5,a0
	.loc 1 1211 14 discriminator 1
	bne	a5,zero,.L206
	.loc 1 1213 21
	lbu	a5,-52(s0)
	andi	a5,a5,0xff
	bne	a5,zero,.L207
	.loc 1 1213 33 discriminator 1
	lbu	a5,-49(s0)
	andi	a5,a5,0xff
	beq	a5,zero,.L207
	.loc 1 1213 50 discriminator 2
	ld	a5,-48(s0)
	.loc 1 1213 47 discriminator 2
	blt	a5,zero,.L207
	.loc 1 1214 22
	ld	a5,-136(s0)
	mv	a0,a5
	call	WriteFileTag
	sd	a0,-48(s0)
	.loc 1 1214 20
	j	.L206
.L207:
	.loc 1 1215 21
	lbu	a5,-52(s0)
	andi	a5,a5,0xff
	beq	a5,zero,.L206
	.loc 1 1216 37
	la	a5,ShellInfoObject
	ld	a5,8(a5)
	.loc 1 1216 57
	ld	a5,288(a5)
	.loc 1 1216 22
	ld	a4,-136(s0)
	addi	a3,s0,-144
	mv	a1,a3
	mv	a0,a4
	jalr	a5
.LVL19:
	sd	a0,-48(s0)
	.loc 1 1217 17
	ld	a5,-48(s0)
	.loc 1 1217 16
	blt	a5,zero,.L206
	.loc 1 1223 34
	ld	a5,-144(s0)
	.loc 1 1224 50
	bne	a5,zero,.L208
	.loc 1 1223 39
	lbu	a5,-49(s0)
	andi	a5,a5,0xff
	beq	a5,zero,.L208
	.loc 1 1224 24
	ld	a5,-136(s0)
	mv	a0,a5
	call	WriteFileTag
	sd	a0,-48(s0)
	.loc 1 1223 22
	j	.L206
.L208:
	.loc 1 1225 39
	la	a5,ShellInfoObject
	ld	a5,8(a5)
	.loc 1 1225 59
	ld	a5,256(a5)
	.loc 1 1225 24
	ld	a4,-136(s0)
	ld	a3,-144(s0)
	mv	a1,a3
	mv	a0,a4
	jalr	a5
.LVL20:
	sd	a0,-48(s0)
.L206:
	.loc 1 1232 14
	lbu	a5,-49(s0)
	andi	a5,a5,0xff
	bne	a5,zero,.L209
	.loc 1 1232 30 discriminator 1
	ld	a5,-48(s0)
	.loc 1 1232 27 discriminator 1
	blt	a5,zero,.L209
	.loc 1 1233 26
	ld	a5,-136(s0)
	li	a1,0
	mv	a0,a5
	call	CreateFileInterfaceFile@plt
	mv	a5,a0
	.loc 1 1233 24 discriminator 1
	sd	a5,-136(s0)
	.loc 1 1234 28
	ld	a5,-136(s0)
	.loc 1 1234 16
	bne	a5,zero,.L209
	.loc 1 1236 22
	li	a5,-1
	slli	a5,a5,63
	addi	a5,a5,9
	sd	a5,-48(s0)
.L209:
	.loc 1 1240 15
	ld	a5,-48(s0)
	.loc 1 1240 14
	blt	a5,zero,.L203
	.loc 1 1241 37
	ld	a4,-136(s0)
	ld	a5,-168(s0)
	sd	a4,24(a5)
	.loc 1 1242 27
	ld	a4,-136(s0)
	.loc 1 1242 70
	la	a5,gST
	ld	a5,0(a5)
	.loc 1 1242 27
	addi	a3,a5,56
	.loc 1 1242 93
	la	a5,gST
	ld	a5,0(a5)
	.loc 1 1242 27
	ld	a2,64(a5)
	.loc 1 1242 16
	la	a5,gST
	ld	s1,0(a5)
	.loc 1 1242 27
	mv	a1,a3
	mv	a0,a4
	call	CreateSimpleTextOutOnFile@plt
	mv	a5,a0
	.loc 1 1242 25 discriminator 1
	sd	a5,64(s1)
.L203:
	.loc 1 1250 11
	ld	a5,-48(s0)
	.loc 1 1250 10
	blt	a5,zero,.L210
	.loc 1 1250 83 discriminator 1
	ld	a5,-120(s0)
	.loc 1 1250 65 discriminator 1
	beq	a5,zero,.L210
	.loc 1 1251 12
	lbu	a5,-52(s0)
	andi	a5,a5,0xff
	bne	a5,zero,.L211
	.loc 1 1255 15
	la	a5,gRT
	ld	a5,0(a5)
	ld	a5,88(a5)
	.loc 1 1255 12
	ld	a0,-120(s0)
	lla	a4,.LC28
	li	a3,0
	li	a2,2
	la	a1,gShellVariableGuid
	jalr	a5
.LVL21:
.L211:
	.loc 1 1258 22
	ld	a5,-120(s0)
	mv	a0,a5
	call	CreateFileInterfaceEnv@plt
	mv	a5,a0
	.loc 1 1258 20 discriminator 1
	sd	a5,-136(s0)
	.loc 1 1259 24
	ld	a5,-136(s0)
	.loc 1 1259 12
	bne	a5,zero,.L212
	.loc 1 1261 18
	li	a5,-1
	slli	a5,a5,63
	addi	a5,a5,9
	sd	a5,-48(s0)
	j	.L210
.L212:
	.loc 1 1263 35
	ld	a4,-136(s0)
	ld	a5,-168(s0)
	sd	a4,24(a5)
	.loc 1 1264 25
	ld	a4,-136(s0)
	.loc 1 1264 68
	la	a5,gST
	ld	a5,0(a5)
	.loc 1 1264 25
	addi	a3,a5,56
	.loc 1 1264 91
	la	a5,gST
	ld	a5,0(a5)
	.loc 1 1264 25
	ld	a2,64(a5)
	.loc 1 1264 14
	la	a5,gST
	ld	s1,0(a5)
	.loc 1 1264 25
	mv	a1,a3
	mv	a0,a4
	call	CreateSimpleTextOutOnFile@plt
	mv	a5,a0
	.loc 1 1264 23 discriminator 1
	sd	a5,64(s1)
.L210:
	.loc 1 1271 11
	ld	a5,-48(s0)
	.loc 1 1271 10
	blt	a5,zero,.L213
	.loc 1 1271 83 discriminator 1
	ld	a5,-128(s0)
	.loc 1 1271 65 discriminator 1
	beq	a5,zero,.L213
	.loc 1 1272 12
	lbu	a5,-53(s0)
	andi	a5,a5,0xff
	bne	a5,zero,.L214
	.loc 1 1276 15
	la	a5,gRT
	ld	a5,0(a5)
	ld	a5,88(a5)
	.loc 1 1276 12
	ld	a0,-128(s0)
	lla	a4,.LC28
	li	a3,0
	li	a2,2
	la	a1,gShellVariableGuid
	jalr	a5
.LVL22:
.L214:
	.loc 1 1279 22
	ld	a5,-128(s0)
	mv	a0,a5
	call	CreateFileInterfaceEnv@plt
	mv	a5,a0
	.loc 1 1279 20 discriminator 1
	sd	a5,-136(s0)
	.loc 1 1280 24
	ld	a5,-136(s0)
	.loc 1 1280 12
	bne	a5,zero,.L215
	.loc 1 1282 18
	li	a5,-1
	slli	a5,a5,63
	addi	a5,a5,9
	sd	a5,-48(s0)
	j	.L213
.L215:
	.loc 1 1284 35
	ld	a4,-136(s0)
	ld	a5,-168(s0)
	sd	a4,32(a5)
	.loc 1 1285 25
	ld	a4,-136(s0)
	.loc 1 1285 68
	la	a5,gST
	ld	a5,0(a5)
	.loc 1 1285 25
	addi	a3,a5,72
	.loc 1 1285 94
	la	a5,gST
	ld	a5,0(a5)
	.loc 1 1285 25
	ld	a2,80(a5)
	.loc 1 1285 14
	la	a5,gST
	ld	s1,0(a5)
	.loc 1 1285 25
	mv	a1,a3
	mv	a0,a4
	call	CreateSimpleTextOutOnFile@plt
	mv	a5,a0
	.loc 1 1285 23 discriminator 1
	sd	a5,80(s1)
.L213:
	.loc 1 1292 11
	ld	a5,-48(s0)
	.loc 1 1292 10
	blt	a5,zero,.L216
	.loc 1 1292 82 discriminator 1
	ld	a5,-112(s0)
	.loc 1 1292 65 discriminator 1
	beq	a5,zero,.L216
	.loc 1 1293 22
	ld	a5,-112(s0)
	mv	a0,a5
	call	CreateFileInterfaceEnv@plt
	mv	a5,a0
	.loc 1 1293 20 discriminator 1
	sd	a5,-136(s0)
	.loc 1 1294 24
	ld	a5,-136(s0)
	.loc 1 1294 12
	bne	a5,zero,.L217
	.loc 1 1295 18
	li	a5,-1
	slli	a5,a5,63
	addi	a5,a5,9
	sd	a5,-48(s0)
	j	.L216
.L217:
	.loc 1 1297 14
	lbu	a5,-50(s0)
	andi	a5,a5,0xff
	bne	a5,zero,.L218
	.loc 1 1298 26
	ld	a5,-136(s0)
	li	a1,0
	mv	a0,a5
	call	CreateFileInterfaceFile@plt
	mv	a5,a0
	.loc 1 1298 24 discriminator 1
	sd	a5,-136(s0)
.L218:
	.loc 1 1301 16
	sd	zero,-152(s0)
	.loc 1 1302 27
	ld	a5,-136(s0)
	.loc 1 1302 14
	beq	a5,zero,.L219
	.loc 1 1302 49 discriminator 1
	ld	a5,-136(s0)
	.loc 1 1302 81 discriminator 1
	ld	a5,32(a5)
	.loc 1 1302 49 discriminator 1
	ld	a4,-136(s0)
	addi	a3,s0,-152
	li	a2,0
	mv	a1,a3
	mv	a0,a4
	jalr	a5
.LVL23:
	mv	a4,a0
	.loc 1 1302 44 discriminator 2
	li	a5,-1
	slli	a5,a5,63
	addi	a5,a5,5
	beq	a4,a5,.L220
.L219:
	.loc 1 1303 20
	li	a5,-1
	slli	a5,a5,63
	addi	a5,a5,2
	sd	a5,-48(s0)
	j	.L216
.L220:
	.loc 1 1305 36
	ld	a4,-136(s0)
	ld	a5,-168(s0)
	sd	a4,16(a5)
	.loc 1 1306 26
	ld	a4,-136(s0)
	.loc 1 1306 68
	la	a5,gST
	ld	a5,0(a5)
	.loc 1 1306 26
	addi	a3,a5,40
	.loc 1 1306 16
	la	a5,gST
	ld	s1,0(a5)
	.loc 1 1306 26
	mv	a1,a3
	mv	a0,a4
	call	CreateSimpleTextInOnFile@plt
	mv	a5,a0
	.loc 1 1306 24 discriminator 1
	sd	a5,48(s1)
.L216:
	.loc 1 1314 11
	ld	a5,-48(s0)
	.loc 1 1314 10
	blt	a5,zero,.L173
	.loc 1 1314 83 discriminator 1
	ld	a5,-104(s0)
	.loc 1 1314 65 discriminator 1
	beq	a5,zero,.L173
	.loc 1 1315 18
	ld	a5,-104(s0)
	addi	a4,s0,-136
	li	a3,0
	li	a2,1
	mv	a1,a4
	mv	a0,a5
	call	ShellOpenFileByName@plt
	sd	a0,-48(s0)
	.loc 1 1321 13
	ld	a5,-48(s0)
	.loc 1 1321 12
	blt	a5,zero,.L173
	.loc 1 1322 14
	lbu	a5,-50(s0)
	andi	a5,a5,0xff
	bne	a5,zero,.L221
	.loc 1 1326 26
	ld	a5,-136(s0)
	li	a1,0
	mv	a0,a5
	call	CreateFileInterfaceFile@plt
	mv	a5,a0
	.loc 1 1326 24 discriminator 1
	sd	a5,-136(s0)
.L221:
	.loc 1 1329 26
	ld	a5,-136(s0)
	.loc 1 1329 14
	bne	a5,zero,.L222
	.loc 1 1330 20
	li	a5,-1
	slli	a5,a5,63
	addi	a5,a5,9
	sd	a5,-48(s0)
	j	.L173
.L222:
	.loc 1 1332 36
	ld	a4,-136(s0)
	ld	a5,-168(s0)
	sd	a4,16(a5)
	.loc 1 1333 26
	ld	a4,-136(s0)
	.loc 1 1333 68
	la	a5,gST
	ld	a5,0(a5)
	.loc 1 1333 26
	addi	a3,a5,40
	.loc 1 1333 16
	la	a5,gST
	ld	s1,0(a5)
	.loc 1 1333 26
	mv	a1,a3
	mv	a0,a4
	call	CreateSimpleTextInOnFile@plt
	mv	a5,a0
	.loc 1 1333 24 discriminator 1
	sd	a5,48(s1)
.L173:
	.loc 1 1340 3
	ld	a5,-80(s0)
	mv	a0,a5
	call	FreePool@plt
	.loc 1 1342 27
	la	a5,gST
	ld	a5,0(a5)
	.loc 1 1342 3
	mv	a0,a5
	call	CalculateEfiHdrCrc
	.loc 1 1344 11
	la	a5,gST
	ld	a5,0(a5)
	ld	a5,48(a5)
	.loc 1 1344 6
	beq	a5,zero,.L223
	.loc 1 1344 43 discriminator 1
	la	a5,gST
	ld	a5,0(a5)
	ld	a5,64(a5)
	.loc 1 1344 36 discriminator 1
	bne	a5,zero,.L224
.L223:
	.loc 1 1345 12
	li	a5,-1
	slli	a5,a5,63
	addi	a5,a5,9
	sd	a5,-48(s0)
.L224:
	.loc 1 1348 6
	ld	a4,-48(s0)
	li	a5,-1
	slli	a5,a5,63
	addi	a5,a5,14
	bne	a4,a5,.L225
	.loc 1 1349 67
	la	a5,ShellInfoObject
	ld	a5,128(a5)
	.loc 1 1349 5
	mv	a4,a5
	li	a3,15
	li	a2,0
	li	a1,-1
	li	a0,-1
	call	ShellPrintHiiEx@plt
	j	.L226
.L225:
	.loc 1 1350 41
	ld	a5,-48(s0)
	.loc 1 1350 13
	bge	a5,zero,.L226
	.loc 1 1351 67
	la	a5,ShellInfoObject
	ld	a5,128(a5)
	.loc 1 1351 5
	mv	a4,a5
	li	a3,14
	li	a2,0
	li	a1,-1
	li	a0,-1
	call	ShellPrintHiiEx@plt
.L226:
	.loc 1 1354 10
	ld	a5,-48(s0)
.L227:
	.loc 1 1355 1
	mv	a0,a5
	ld	ra,200(sp)
	.cfi_restore 1
	ld	s0,192(sp)
	.cfi_restore 8
	.cfi_def_cfa 2, 208
	ld	s1,184(sp)
	.cfi_restore 9
	ld	s2,176(sp)
	.cfi_restore 18
	addi	sp,sp,208
	.cfi_def_cfa_offset 0
	jr	ra
	.cfi_endproc
.LFE11:
	.size	UpdateStdInStdOutStdErr, .-UpdateStdInStdOutStdErr
	.section	.text.RestoreStdInStdOutStdErr,"ax",@progbits
	.align	1
	.globl	RestoreStdInStdOutStdErr
	.type	RestoreStdInStdOutStdErr, @function
RestoreStdInStdOutStdErr:
.LFB12:
	.loc 1 1375 1
	.cfi_startproc
	addi	sp,sp,-80
	.cfi_def_cfa_offset 80
	sd	ra,72(sp)
	sd	s0,64(sp)
	.cfi_offset 1, -8
	.cfi_offset 8, -16
	addi	s0,sp,80
	.cfi_def_cfa 8, 0
	sd	a0,-40(s0)
	sd	a1,-48(s0)
	sd	a2,-56(s0)
	sd	a3,-64(s0)
	sd	a4,-72(s0)
	.loc 1 1378 6
	ld	a5,-40(s0)
	beq	a5,zero,.L229
	.loc 1 1379 6
	ld	a5,-48(s0)
	beq	a5,zero,.L229
	.loc 1 1380 6
	ld	a5,-56(s0)
	beq	a5,zero,.L229
	.loc 1 1381 6
	ld	a5,-64(s0)
	beq	a5,zero,.L229
	.loc 1 1382 6
	ld	a5,-72(s0)
	bne	a5,zero,.L230
.L229:
	.loc 1 1384 12
	li	a5,-1
	slli	a5,a5,63
	addi	a5,a5,2
	j	.L231
.L230:
	.loc 1 1387 8
	la	a5,ShellInfoObject
	addi	a0,a5,216
	call	IsListEmpty@plt
	mv	a5,a0
	.loc 1 1387 6 discriminator 1
	bne	a5,zero,.L232
	.loc 1 1388 27
	la	a5,ShellInfoObject
	addi	a0,a5,216
	call	GetFirstNode@plt
	sd	a0,-24(s0)
	j	.L233
.L232:
	.loc 1 1390 11
	sd	zero,-24(s0)
.L233:
	.loc 1 1393 22
	ld	a5,-40(s0)
	ld	a4,16(a5)
	.loc 1 1393 33
	ld	a5,-48(s0)
	ld	a5,0(a5)
	.loc 1 1393 6
	beq	a4,a5,.L234
	.loc 1 1394 8
	ld	a5,-24(s0)
	beq	a5,zero,.L235
	.loc 1 1394 43 discriminator 1
	ld	a5,-24(s0)
	ld	a4,24(a5)
	.loc 1 1394 74 discriminator 1
	ld	a5,-40(s0)
	ld	a5,16(a5)
	.loc 1 1394 34 discriminator 1
	bne	a4,a5,.L236
.L235:
	.loc 1 1394 84 discriminator 3
	ld	a5,-24(s0)
	bne	a5,zero,.L237
.L236:
	.loc 1 1395 24
	la	a5,gEfiShellProtocol
	ld	a5,0(a5)
	ld	a5,200(a5)
	.loc 1 1395 7
	ld	a4,-40(s0)
	ld	a4,16(a4)
	mv	a0,a4
	jalr	a5
.LVL24:
.L237:
	.loc 1 1398 30
	ld	a5,-48(s0)
	ld	a4,0(a5)
	.loc 1 1398 28
	ld	a5,-40(s0)
	sd	a4,16(a5)
.L234:
	.loc 1 1401 22
	ld	a5,-40(s0)
	ld	a4,24(a5)
	.loc 1 1401 34
	ld	a5,-56(s0)
	ld	a5,0(a5)
	.loc 1 1401 6
	beq	a4,a5,.L238
	.loc 1 1402 8
	ld	a5,-24(s0)
	beq	a5,zero,.L239
	.loc 1 1402 43 discriminator 1
	ld	a5,-24(s0)
	ld	a4,16(a5)
	.loc 1 1402 75 discriminator 1
	ld	a5,-40(s0)
	ld	a5,24(a5)
	.loc 1 1402 34 discriminator 1
	bne	a4,a5,.L240
.L239:
	.loc 1 1402 86 discriminator 3
	ld	a5,-24(s0)
	bne	a5,zero,.L241
.L240:
	.loc 1 1403 24
	la	a5,gEfiShellProtocol
	ld	a5,0(a5)
	ld	a5,200(a5)
	.loc 1 1403 7
	ld	a4,-40(s0)
	ld	a4,24(a4)
	mv	a0,a4
	jalr	a5
.LVL25:
.L241:
	.loc 1 1406 31
	ld	a5,-56(s0)
	ld	a4,0(a5)
	.loc 1 1406 29
	ld	a5,-40(s0)
	sd	a4,24(a5)
.L238:
	.loc 1 1409 22
	ld	a5,-40(s0)
	ld	a4,32(a5)
	.loc 1 1409 34
	ld	a5,-64(s0)
	ld	a5,0(a5)
	.loc 1 1409 6
	beq	a4,a5,.L242
	.loc 1 1410 22
	la	a5,gEfiShellProtocol
	ld	a5,0(a5)
	ld	a5,200(a5)
	.loc 1 1410 5
	ld	a4,-40(s0)
	ld	a4,32(a4)
	mv	a0,a4
	jalr	a5
.LVL26:
	.loc 1 1411 31
	ld	a5,-64(s0)
	ld	a4,0(a5)
	.loc 1 1411 29
	ld	a5,-40(s0)
	sd	a4,32(a5)
.L242:
	.loc 1 1414 10
	la	a5,gST
	ld	a5,0(a5)
	ld	a4,48(a5)
	.loc 1 1414 36
	ld	a5,-72(s0)
	ld	a5,0(a5)
	.loc 1 1414 6
	beq	a4,a5,.L243
	.loc 1 1415 33
	la	a5,gST
	ld	a5,0(a5)
	.loc 1 1415 5
	ld	a5,48(a5)
	mv	a0,a5
	call	CloseSimpleTextInOnFile@plt
	.loc 1 1416 8
	la	a5,gST
	ld	a5,0(a5)
	.loc 1 1416 33
	ld	a4,-72(s0)
	ld	a4,0(a4)
	.loc 1 1416 16
	sd	a4,48(a5)
	.loc 1 1417 8
	la	a5,gST
	ld	a5,0(a5)
	.loc 1 1417 43
	ld	a4,-72(s0)
	ld	a4,8(a4)
	.loc 1 1417 26
	sd	a4,40(a5)
.L243:
	.loc 1 1420 10
	la	a5,gST
	ld	a5,0(a5)
	ld	a4,64(a5)
	.loc 1 1420 37
	ld	a5,-72(s0)
	ld	a5,16(a5)
	.loc 1 1420 6
	beq	a4,a5,.L244
	.loc 1 1421 34
	la	a5,gST
	ld	a5,0(a5)
	.loc 1 1421 5
	ld	a5,64(a5)
	mv	a0,a5
	call	CloseSimpleTextOutOnFile@plt
	.loc 1 1422 8
	la	a5,gST
	ld	a5,0(a5)
	.loc 1 1422 34
	ld	a4,-72(s0)
	ld	a4,16(a4)
	.loc 1 1422 17
	sd	a4,64(a5)
	.loc 1 1423 8
	la	a5,gST
	ld	a5,0(a5)
	.loc 1 1423 44
	ld	a4,-72(s0)
	ld	a4,24(a4)
	.loc 1 1423 27
	sd	a4,56(a5)
.L244:
	.loc 1 1426 10
	la	a5,gST
	ld	a5,0(a5)
	ld	a4,80(a5)
	.loc 1 1426 37
	ld	a5,-72(s0)
	ld	a5,32(a5)
	.loc 1 1426 6
	beq	a4,a5,.L245
	.loc 1 1427 34
	la	a5,gST
	ld	a5,0(a5)
	.loc 1 1427 5
	ld	a5,80(a5)
	mv	a0,a5
	call	CloseSimpleTextOutOnFile@plt
	.loc 1 1428 8
	la	a5,gST
	ld	a5,0(a5)
	.loc 1 1428 34
	ld	a4,-72(s0)
	ld	a4,32(a4)
	.loc 1 1428 17
	sd	a4,80(a5)
	.loc 1 1429 8
	la	a5,gST
	ld	a5,0(a5)
	.loc 1 1429 47
	ld	a4,-72(s0)
	ld	a4,40(a4)
	.loc 1 1429 30
	sd	a4,72(a5)
.L245:
	.loc 1 1432 27
	la	a5,gST
	ld	a5,0(a5)
	.loc 1 1432 3
	mv	a0,a5
	call	CalculateEfiHdrCrc
	.loc 1 1434 10
	li	a5,0
.L231:
	.loc 1 1435 1
	mv	a0,a5
	ld	ra,72(sp)
	.cfi_restore 1
	ld	s0,64(sp)
	.cfi_restore 8
	.cfi_def_cfa 2, 80
	addi	sp,sp,80
	.cfi_def_cfa_offset 0
	jr	ra
	.cfi_endproc
.LFE12:
	.size	RestoreStdInStdOutStdErr, .-RestoreStdInStdOutStdErr
	.section	.text.UpdateArgcArgv,"ax",@progbits
	.align	1
	.globl	UpdateArgcArgv
	.type	UpdateArgcArgv, @function
UpdateArgcArgv:
.LFB13:
	.loc 1 1463 1
	.cfi_startproc
	addi	sp,sp,-80
	.cfi_def_cfa_offset 80
	sd	ra,72(sp)
	sd	s0,64(sp)
	.cfi_offset 1, -8
	.cfi_offset 8, -16
	addi	s0,sp,80
	.cfi_def_cfa 8, 0
	sd	a0,-40(s0)
	sd	a1,-48(s0)
	mv	a5,a2
	sd	a3,-64(s0)
	sd	a4,-72(s0)
	sw	a5,-52(s0)
	.loc 1 1467 23
	li	a5,1
	sb	a5,-17(s0)
	.loc 1 1469 6
	ld	a5,-72(s0)
	beq	a5,zero,.L247
	.loc 1 1470 31
	ld	a5,-40(s0)
	ld	a4,8(a5)
	.loc 1 1470 14
	ld	a5,-72(s0)
	sd	a4,0(a5)
.L247:
	.loc 1 1473 6
	ld	a5,-64(s0)
	beq	a5,zero,.L248
	.loc 1 1474 31
	ld	a5,-40(s0)
	ld	a4,0(a5)
	.loc 1 1474 14
	ld	a5,-64(s0)
	sd	a4,0(a5)
.L248:
	.loc 1 1477 6
	lw	a5,-52(s0)
	sext.w	a4,a5
	li	a5,1
	bne	a4,a5,.L249
	.loc 1 1478 25
	sb	zero,-17(s0)
.L249:
	.loc 1 1481 10
	ld	a4,-40(s0)
	ld	a5,-40(s0)
	addi	a3,a5,8
	lbu	a5,-17(s0)
	mv	a2,a4
	mv	a1,a5
	ld	a0,-48(s0)
	call	ParseCommandLineToArgs
	mv	a5,a0
	.loc 1 1487 1
	mv	a0,a5
	ld	ra,72(sp)
	.cfi_restore 1
	ld	s0,64(sp)
	.cfi_restore 8
	.cfi_def_cfa 2, 80
	addi	sp,sp,80
	.cfi_def_cfa_offset 0
	jr	ra
	.cfi_endproc
.LFE13:
	.size	UpdateArgcArgv, .-UpdateArgcArgv
	.section	.text.RestoreArgcArgv,"ax",@progbits
	.align	1
	.globl	RestoreArgcArgv
	.type	RestoreArgcArgv, @function
RestoreArgcArgv:
.LFB14:
	.loc 1 1504 1
	.cfi_startproc
	addi	sp,sp,-64
	.cfi_def_cfa_offset 64
	sd	ra,56(sp)
	sd	s0,48(sp)
	.cfi_offset 1, -8
	.cfi_offset 8, -16
	addi	s0,sp,64
	.cfi_def_cfa 8, 0
	sd	a0,-40(s0)
	sd	a1,-48(s0)
	sd	a2,-56(s0)
	.loc 1 1511 22
	ld	a5,-40(s0)
	ld	a5,0(a5)
	.loc 1 1511 6
	beq	a5,zero,.L252
	.loc 1 1512 23
	sd	zero,-24(s0)
	.loc 1 1512 5
	j	.L253
.L254:
	.loc 1 1517 32
	ld	a5,-40(s0)
	ld	a4,0(a5)
	.loc 1 1517 38
	ld	a5,-24(s0)
	slli	a5,a5,3
	add	a5,a4,a5
	.loc 1 1517 7
	ld	a5,0(a5)
	mv	a0,a5
	call	FreePool@plt
	.loc 1 1514 24
	ld	a5,-24(s0)
	addi	a5,a5,1
	sd	a5,-24(s0)
.L253:
	.loc 1 1513 42
	ld	a5,-40(s0)
	ld	a5,8(a5)
	.loc 1 1513 25
	ld	a4,-24(s0)
	bltu	a4,a5,.L254
	.loc 1 1520 30
	ld	a5,-40(s0)
	ld	a5,0(a5)
	.loc 1 1520 5
	mv	a0,a5
	call	FreePool@plt
.L252:
	.loc 1 1523 27
	ld	a5,-48(s0)
	ld	a4,0(a5)
	.loc 1 1523 25
	ld	a5,-40(s0)
	sd	a4,0(a5)
	.loc 1 1524 12
	ld	a5,-48(s0)
	sd	zero,0(a5)
	.loc 1 1525 27
	ld	a5,-56(s0)
	ld	a4,0(a5)
	.loc 1 1525 25
	ld	a5,-40(s0)
	sd	a4,8(a5)
	.loc 1 1526 12
	ld	a5,-56(s0)
	sd	zero,0(a5)
	.loc 1 1527 1
	nop
	ld	ra,56(sp)
	.cfi_restore 1
	ld	s0,48(sp)
	.cfi_restore 8
	.cfi_def_cfa 2, 64
	addi	sp,sp,64
	.cfi_def_cfa_offset 0
	jr	ra
	.cfi_endproc
.LFE14:
	.size	RestoreArgcArgv, .-RestoreArgcArgv
	.text
.Letext0:
	.file 2 "/home/kapoagaeming/spacemit-image-builder/components/edk2/MdePkg/Include/RiscV64/ProcessorBind.h"
	.file 3 "/home/kapoagaeming/spacemit-image-builder/components/edk2/MdePkg/Include/Base.h"
	.file 4 "/home/kapoagaeming/spacemit-image-builder/components/edk2/MdePkg/Include/Uefi/UefiBaseType.h"
	.file 5 "/home/kapoagaeming/spacemit-image-builder/components/edk2/MdePkg/Include/Uefi/UefiMultiPhase.h"
	.file 6 "/home/kapoagaeming/spacemit-image-builder/components/edk2/MdePkg/Include/Protocol/DevicePath.h"
	.file 7 "/home/kapoagaeming/spacemit-image-builder/components/edk2/MdePkg/Include/Protocol/SimpleTextIn.h"
	.file 8 "/home/kapoagaeming/spacemit-image-builder/components/edk2/MdePkg/Include/Protocol/SimpleTextOut.h"
	.file 9 "/home/kapoagaeming/spacemit-image-builder/components/edk2/MdePkg/Include/Uefi/UefiSpec.h"
	.file 10 "/home/kapoagaeming/spacemit-image-builder/components/edk2/MdePkg/Include/Uefi/UefiInternalFormRepresentation.h"
	.file 11 "/home/kapoagaeming/spacemit-image-builder/components/Build/Milk-V-Jupiter/RELEASE_GCC5/RISCV64/ShellPkg/Application/Shell/Shell/DEBUG/AutoGen.h"
	.file 12 "/home/kapoagaeming/spacemit-image-builder/components/edk2/MdePkg/Include/Protocol/LoadedImage.h"
	.file 13 "/home/kapoagaeming/spacemit-image-builder/components/edk2/MdePkg/Include/Guid/FileInfo.h"
	.file 14 "/home/kapoagaeming/spacemit-image-builder/components/edk2/MdePkg/Include/Protocol/Shell.h"
	.file 15 "/home/kapoagaeming/spacemit-image-builder/components/edk2/MdePkg/Include/Protocol/SimpleFileSystem.h"
	.file 16 "/home/kapoagaeming/spacemit-image-builder/components/edk2/MdePkg/Include/Protocol/ShellParameters.h"
	.file 17 "/home/kapoagaeming/spacemit-image-builder/components/edk2/MdePkg/Include/Protocol/UnicodeCollation.h"
	.file 18 "/home/kapoagaeming/spacemit-image-builder/components/edk2/MdePkg/Include/Library/UefiBootServicesTableLib.h"
	.file 19 "/home/kapoagaeming/spacemit-image-builder/components/edk2/ShellPkg/Include/Library/ShellCommandLib.h"
	.file 20 "/home/kapoagaeming/spacemit-image-builder/components/edk2/MdePkg/Include/Library/UefiRuntimeServicesTableLib.h"
	.file 21 "/home/kapoagaeming/spacemit-image-builder/components/edk2/ShellPkg/Include/Library/ShellLib.h"
	.file 22 "/home/kapoagaeming/spacemit-image-builder/components/edk2/MdePkg/Include/Library/FileHandleLib.h"
	.file 23 "/home/kapoagaeming/spacemit-image-builder/components/edk2/ShellPkg/Application/Shell/ShellParametersProtocol.h"
	.file 24 "/home/kapoagaeming/spacemit-image-builder/components/edk2/ShellPkg/Application/Shell/ShellProtocol.h"
	.file 25 "/home/kapoagaeming/spacemit-image-builder/components/edk2/ShellPkg/Application/Shell/ConsoleLogger.h"
	.file 26 "/home/kapoagaeming/spacemit-image-builder/components/edk2/ShellPkg/Application/Shell/FileHandleWrappers.h"
	.file 27 "/home/kapoagaeming/spacemit-image-builder/components/edk2/ShellPkg/Application/Shell/Shell.h"
	.file 28 "/home/kapoagaeming/spacemit-image-builder/components/edk2/ShellPkg/Application/Shell/ConsoleWrappers.h"
	.file 29 "/home/kapoagaeming/spacemit-image-builder/components/edk2/ShellPkg/Application/Shell/ShellEnvVar.h"
	.file 30 "/home/kapoagaeming/spacemit-image-builder/components/edk2/MdeModulePkg/Include/Library/SortLib.h"
	.file 31 "/home/kapoagaeming/spacemit-image-builder/components/edk2/MdePkg/Include/Library/BaseLib.h"
	.file 32 "/home/kapoagaeming/spacemit-image-builder/components/edk2/MdePkg/Include/Library/BaseMemoryLib.h"
	.file 33 "/home/kapoagaeming/spacemit-image-builder/components/edk2/MdePkg/Include/Library/MemoryAllocationLib.h"
	.file 34 "/home/kapoagaeming/spacemit-image-builder/components/edk2/MdePkg/Include/Library/DebugLib.h"
	.section	.note.GNU-stack,"",@progbits
