	.file	"ShellManParser.c"
	.option pic
	.option norelax
	.attribute arch, "rv64i2p1_m2p0_a2p1_f2p2_d2p2_c2p0_zicsr2p0_zifencei2p0_zmmul1p0_zaamo1p0_zalrsc1p0_zca1p0_zcd1p0"
	.attribute unaligned_access, 0
	.attribute stack_align, 16
	.text
.Ltext0:
	.cfi_sections	.debug_frame
	.file 0 "/home/kapoagaeming/Downloads/spacemit-image-builder/components/Build/Milk-V-Jupiter/RELEASE_GCC5/RISCV64/ShellPkg/Application/Shell/Shell" "/home/kapoagaeming/Downloads/spacemit-image-builder/components/edk2/ShellPkg/Application/Shell/ShellManParser.c"
	.globl	mShellManHiiHandle
	.section	.bss.mShellManHiiHandle,"aw",@nobits
	.align	3
	.type	mShellManHiiHandle, @object
	.size	mShellManHiiHandle, 8
mShellManHiiHandle:
	.zero	8
	.globl	mShellManDriverHandle
	.section	.bss.mShellManDriverHandle,"aw",@nobits
	.align	3
	.type	mShellManDriverHandle, @object
	.size	mShellManDriverHandle, 8
mShellManDriverHandle:
	.zero	8
	.globl	mShellManHiiDevicePath
	.section	.data.mShellManHiiDevicePath,"aw"
	.align	3
	.type	mShellManHiiDevicePath, @object
	.size	mShellManHiiDevicePath, 24
mShellManHiiDevicePath:
	.byte	1
	.byte	4
	.string	"\024"
	.word	-164836084
	.half	9289
	.half	17724
	.base64	"isuMxXzwKpc="
	.byte	127
	.byte	-1
	.string	"\004"
	.section	.rodata
	.align	3
.LC0:
	.string	"."
	.string	"e"
	.string	"f"
	.string	"i"
	.zero	2
	.align	3
.LC1:
	.string	"."
	.string	"m"
	.string	"a"
	.string	"n"
	.zero	2
	.section	.text.GetExecuatableFileName,"ax",@progbits
	.align	1
	.globl	GetExecuatableFileName
	.type	GetExecuatableFileName, @function
GetExecuatableFileName:
.LFB0:
	.file 1 "/home/kapoagaeming/Downloads/spacemit-image-builder/components/edk2/ShellPkg/Application/Shell/ShellManParser.c"
	.loc 1 56 1
	.cfi_startproc
	addi	sp,sp,-64
	.cfi_def_cfa_offset 64
	sd	ra,56(sp)
	sd	s0,48(sp)
	sd	s1,40(sp)
	.cfi_offset 1, -8
	.cfi_offset 8, -16
	.cfi_offset 9, -24
	addi	s0,sp,64
	.cfi_def_cfa 8, 0
	sd	a0,-56(s0)
	.loc 1 60 6
	ld	a5,-56(s0)
	bne	a5,zero,.L2
	.loc 1 61 12
	li	a5,0
	j	.L3
.L2:
	.loc 1 67 27
	ld	a0,-56(s0)
	call	StrLen@plt
	mv	s1,a0
	.loc 1 67 47 discriminator 1
	lla	a0,.LC0
	call	StrLen@plt
	mv	a5,a0
	.loc 1 67 46 discriminator 2
	sub	a5,s1,a5
	slli	a5,a5,1
	.loc 1 67 7 discriminator 2
	ld	a4,-56(s0)
	add	s1,a4,a5
	lla	a0,.LC0
	call	StrLen@plt
	mv	a5,a0
	.loc 1 67 7 is_stmt 0 discriminator 3
	mv	a2,a5
	lla	a1,.LC0
	mv	a0,s1
	call	StrnCmp@plt
	mv	a5,a0
	.loc 1 67 6 is_stmt 1 discriminator 4
	bne	a5,zero,.L4
	.loc 1 68 14
	ld	a0,-56(s0)
	call	StrSize@plt
	mv	a5,a0
	.loc 1 68 14 is_stmt 0 discriminator 1
	ld	a1,-56(s0)
	mv	a0,a5
	call	AllocateCopyPool@plt
	sd	a0,-40(s0)
	j	.L5
.L4:
	.loc 1 69 34 is_stmt 1
	ld	a0,-56(s0)
	call	StrLen@plt
	mv	s1,a0
	.loc 1 69 54 discriminator 1
	lla	a0,.LC1
	call	StrLen@plt
	mv	a5,a0
	.loc 1 69 53 discriminator 2
	sub	a5,s1,a5
	slli	a5,a5,1
	.loc 1 69 14 discriminator 2
	ld	a4,-56(s0)
	add	s1,a4,a5
	lla	a0,.LC1
	call	StrLen@plt
	mv	a5,a0
	.loc 1 69 14 is_stmt 0 discriminator 3
	mv	a2,a5
	lla	a1,.LC1
	mv	a0,s1
	call	StrnCmp@plt
	mv	a5,a0
	.loc 1 69 13 is_stmt 1 discriminator 4
	bne	a5,zero,.L6
	.loc 1 70 14
	ld	a0,-56(s0)
	call	StrSize@plt
	mv	a5,a0
	.loc 1 70 14 is_stmt 0 discriminator 1
	ld	a1,-56(s0)
	mv	a0,a5
	call	AllocateCopyPool@plt
	sd	a0,-40(s0)
	.loc 1 71 8 is_stmt 1
	ld	a5,-40(s0)
	beq	a5,zero,.L5
	.loc 1 72 26
	ld	a0,-40(s0)
	call	StrLen@plt
	mv	s1,a0
	.loc 1 72 42 discriminator 1
	lla	a0,.LC1
	call	StrLen@plt
	mv	a5,a0
	.loc 1 72 41 discriminator 2
	sub	a5,s1,a5
	slli	a5,a5,1
	.loc 1 72 17 discriminator 2
	ld	a4,-40(s0)
	add	a5,a4,a5
	sd	a5,-48(s0)
	.loc 1 73 28
	lla	a0,.LC1
	call	StrSize@plt
	mv	a5,a0
	.loc 1 73 45 discriminator 1
	srli	s1,a5,1
	.loc 1 73 7 discriminator 1
	lla	a0,.LC0
	call	StrLen@plt
	mv	a5,a0
	.loc 1 73 7 is_stmt 0 discriminator 2
	mv	a3,a5
	lla	a2,.LC0
	mv	a1,s1
	ld	a0,-48(s0)
	call	StrnCpyS@plt
	j	.L5
.L6:
	.loc 1 76 32 is_stmt 1
	ld	a0,-56(s0)
	call	StrSize@plt
	mv	s1,a0
	.loc 1 76 55 discriminator 1
	lla	a0,.LC0
	call	StrLen@plt
	mv	a5,a0
	.loc 1 76 71 discriminator 2
	slli	a5,a5,1
	.loc 1 76 53 discriminator 2
	add	a5,s1,a5
	.loc 1 76 14 discriminator 2
	mv	a0,a5
	call	AllocateZeroPool@plt
	sd	a0,-40(s0)
	.loc 1 77 8
	ld	a5,-40(s0)
	beq	a5,zero,.L5
	.loc 1 80 10
	ld	a0,-56(s0)
	call	StrSize@plt
	mv	s1,a0
	.loc 1 80 33 discriminator 1
	lla	a0,.LC0
	call	StrLen@plt
	mv	a5,a0
	.loc 1 80 49 discriminator 2
	slli	a5,a5,1
	.loc 1 80 31 discriminator 2
	add	a5,s1,a5
	.loc 1 80 66 discriminator 2
	srli	s1,a5,1
	.loc 1 78 7
	ld	a0,-56(s0)
	call	StrLen@plt
	mv	a5,a0
	.loc 1 78 7 is_stmt 0 discriminator 1
	mv	a3,a5
	ld	a2,-56(s0)
	mv	a1,s1
	ld	a0,-40(s0)
	call	StrnCpyS@plt
	.loc 1 86 10 is_stmt 1
	ld	a0,-56(s0)
	call	StrSize@plt
	mv	s1,a0
	.loc 1 86 33 discriminator 1
	lla	a0,.LC0
	call	StrLen@plt
	mv	a5,a0
	.loc 1 86 49 discriminator 2
	slli	a5,a5,1
	.loc 1 86 31 discriminator 2
	add	a5,s1,a5
	.loc 1 86 66 discriminator 2
	srli	s1,a5,1
	.loc 1 84 7
	lla	a0,.LC0
	call	StrLen@plt
	mv	a5,a0
	.loc 1 84 7 is_stmt 0 discriminator 1
	mv	a3,a5
	lla	a2,.LC0
	mv	a1,s1
	ld	a0,-40(s0)
	call	StrnCatS@plt
.L5:
	.loc 1 93 10 is_stmt 1
	ld	a5,-40(s0)
.L3:
	.loc 1 94 1
	mv	a0,a5
	ld	ra,56(sp)
	.cfi_restore 1
	ld	s0,48(sp)
	.cfi_restore 8
	.cfi_def_cfa 2, 64
	ld	s1,40(sp)
	.cfi_restore 9
	addi	sp,sp,64
	.cfi_def_cfa_offset 0
	jr	ra
	.cfi_endproc
.LFE0:
	.size	GetExecuatableFileName, .-GetExecuatableFileName
	.section	.text.GetManFileName,"ax",@progbits
	.align	1
	.globl	GetManFileName
	.type	GetManFileName, @function
GetManFileName:
.LFB1:
	.loc 1 111 1
	.cfi_startproc
	addi	sp,sp,-64
	.cfi_def_cfa_offset 64
	sd	ra,56(sp)
	sd	s0,48(sp)
	sd	s1,40(sp)
	.cfi_offset 1, -8
	.cfi_offset 8, -16
	.cfi_offset 9, -24
	addi	s0,sp,64
	.cfi_def_cfa 8, 0
	sd	a0,-56(s0)
	.loc 1 114 6
	ld	a5,-56(s0)
	bne	a5,zero,.L8
	.loc 1 115 12
	li	a5,0
	j	.L9
.L8:
	.loc 1 121 28
	ld	a0,-56(s0)
	call	StrLen@plt
	mv	a5,a0
	.loc 1 121 27 discriminator 1
	slli	a5,a5,1
	.loc 1 121 48 discriminator 1
	addi	a5,a5,-8
	.loc 1 121 7 discriminator 1
	ld	a4,-56(s0)
	add	a5,a4,a5
	li	a2,4
	lla	a1,.LC1
	mv	a0,a5
	call	StrnCmp@plt
	mv	a5,a0
	.loc 1 121 6 discriminator 2
	bne	a5,zero,.L10
	.loc 1 122 14
	ld	a0,-56(s0)
	call	StrSize@plt
	mv	a5,a0
	.loc 1 122 14 is_stmt 0 discriminator 1
	ld	a1,-56(s0)
	mv	a0,a5
	call	AllocateCopyPool@plt
	sd	a0,-40(s0)
	j	.L11
.L10:
	.loc 1 124 32 is_stmt 1
	ld	a0,-56(s0)
	call	StrSize@plt
	mv	a5,a0
	.loc 1 124 54 discriminator 1
	addi	a5,a5,8
	.loc 1 124 14 discriminator 1
	mv	a0,a5
	call	AllocateZeroPool@plt
	sd	a0,-40(s0)
	.loc 1 125 8
	ld	a5,-40(s0)
	beq	a5,zero,.L11
	.loc 1 128 10
	ld	a0,-56(s0)
	call	StrSize@plt
	mv	a5,a0
	.loc 1 128 32 discriminator 1
	addi	a5,a5,8
	.loc 1 128 52 discriminator 1
	srli	s1,a5,1
	.loc 1 126 7
	ld	a0,-56(s0)
	call	StrLen@plt
	mv	a5,a0
	.loc 1 126 7 is_stmt 0 discriminator 1
	mv	a3,a5
	ld	a2,-56(s0)
	mv	a1,s1
	ld	a0,-40(s0)
	call	StrnCpyS@plt
	.loc 1 134 10 is_stmt 1
	ld	a0,-56(s0)
	call	StrSize@plt
	mv	a5,a0
	.loc 1 134 32 discriminator 1
	addi	a5,a5,8
	.loc 1 134 52 discriminator 1
	srli	a5,a5,1
	.loc 1 132 7
	li	a3,4
	lla	a2,.LC1
	mv	a1,a5
	ld	a0,-40(s0)
	call	StrnCatS@plt
.L11:
	.loc 1 141 10
	ld	a5,-40(s0)
.L9:
	.loc 1 142 1
	mv	a0,a5
	ld	ra,56(sp)
	.cfi_restore 1
	ld	s0,48(sp)
	.cfi_restore 8
	.cfi_def_cfa 2, 64
	ld	s1,40(sp)
	.cfi_restore 9
	addi	sp,sp,64
	.cfi_def_cfa_offset 0
	jr	ra
	.cfi_endproc
.LFE1:
	.size	GetManFileName, .-GetManFileName
	.section	.text.SearchPathForFile,"ax",@progbits
	.align	1
	.globl	SearchPathForFile
	.type	SearchPathForFile, @function
SearchPathForFile:
.LFB2:
	.loc 1 163 1
	.cfi_startproc
	addi	sp,sp,-48
	.cfi_def_cfa_offset 48
	sd	ra,40(sp)
	sd	s0,32(sp)
	.cfi_offset 1, -8
	.cfi_offset 8, -16
	addi	s0,sp,48
	.cfi_def_cfa 8, 0
	sd	a0,-40(s0)
	sd	a1,-48(s0)
	.loc 1 167 6
	ld	a5,-40(s0)
	beq	a5,zero,.L13
	.loc 1 168 6
	ld	a5,-48(s0)
	beq	a5,zero,.L13
	.loc 1 169 10
	ld	a0,-40(s0)
	call	StrLen@plt
	mv	a5,a0
	.loc 1 169 6 discriminator 1
	bne	a5,zero,.L14
.L13:
	.loc 1 172 12
	li	a5,-1
	slli	a5,a5,63
	addi	a5,a5,2
	j	.L15
.L14:
	.loc 1 175 18
	ld	a0,-40(s0)
	call	ShellFindFilePath@plt
	sd	a0,-24(s0)
	.loc 1 176 6
	ld	a5,-24(s0)
	bne	a5,zero,.L16
	.loc 1 177 12
	li	a5,-1
	slli	a5,a5,63
	addi	a5,a5,14
	j	.L15
.L16:
	.loc 1 183 12
	li	a2,1
	ld	a1,-48(s0)
	ld	a0,-24(s0)
	call	EfiShellOpenFileByName@plt
	sd	a0,-32(s0)
	.loc 1 184 3
	ld	a0,-24(s0)
	call	FreePool@plt
	.loc 1 186 10
	ld	a5,-32(s0)
.L15:
	.loc 1 187 1
	mv	a0,a5
	ld	ra,40(sp)
	.cfi_restore 1
	ld	s0,32(sp)
	.cfi_restore 8
	.cfi_def_cfa 2, 48
	addi	sp,sp,48
	.cfi_def_cfa_offset 0
	jr	ra
	.cfi_endproc
.LFE2:
	.size	SearchPathForFile, .-SearchPathForFile
	.section	.rodata
	.align	3
.LC2:
	.string	"."
	.string	"T"
	.string	"H"
	.zero	2
	.align	3
.LC3:
	.string	"."
	.string	"S"
	.string	"H"
	.zero	2
	.align	3
.LC4:
	.string	"\r"
	.string	"\n"
	.zero	2
	.section	.text.ManFileFindSections,"ax",@progbits
	.align	1
	.globl	ManFileFindSections
	.type	ManFileFindSections, @function
ManFileFindSections:
.LFB3:
	.loc 1 215 1
	.cfi_startproc
	addi	sp,sp,-128
	.cfi_def_cfa_offset 128
	sd	ra,120(sp)
	sd	s0,112(sp)
	.cfi_offset 1, -8
	.cfi_offset 8, -16
	addi	s0,sp,128
	.cfi_def_cfa 8, 0
	sd	a0,-88(s0)
	sd	a1,-96(s0)
	sd	a2,-104(s0)
	sd	a3,-112(s0)
	mv	a5,a4
	sb	a5,-113(s0)
	.loc 1 224 6
	ld	a5,-88(s0)
	beq	a5,zero,.L18
	.loc 1 225 6
	ld	a5,-104(s0)
	beq	a5,zero,.L18
	.loc 1 226 6
	ld	a5,-112(s0)
	bne	a5,zero,.L19
.L18:
	.loc 1 229 12
	li	a5,-1
	slli	a5,a5,63
	addi	a5,a5,2
	j	.L38
.L19:
	.loc 1 232 10
	sd	zero,-24(s0)
	.loc 1 233 20
	sb	zero,-25(s0)
	.loc 1 234 8
	li	a5,1024
	sd	a5,-72(s0)
	.loc 1 235 9
	sb	zero,-41(s0)
	.loc 1 237 14
	ld	a5,-72(s0)
	mv	a0,a5
	call	AllocateZeroPool@plt
	sd	a0,-56(s0)
	.loc 1 238 6
	ld	a5,-56(s0)
	bne	a5,zero,.L22
	.loc 1 239 12
	li	a5,-1
	slli	a5,a5,63
	addi	a5,a5,9
	j	.L38
.L36:
	.loc 1 243 14
	addi	a4,s0,-113
	addi	a5,s0,-72
	li	a3,1
	mv	a2,a5
	ld	a1,-56(s0)
	ld	a0,-88(s0)
	call	ShellFileHandleReadLine@plt
	sd	a0,-24(s0)
	.loc 1 244 17
	ld	a5,-56(s0)
	lhu	a5,0(a5)
	.loc 1 244 8
	sext.w	a4,a5
	li	a5,35
	beq	a4,a5,.L39
	.loc 1 254 8
	ld	a4,-24(s0)
	li	a5,-1
	slli	a5,a5,63
	addi	a5,a5,5
	bne	a4,a5,.L25
	.loc 1 255 14
	sd	zero,-24(s0)
.L25:
	.loc 1 258 36
	ld	a5,-24(s0)
	.loc 1 258 8
	blt	a5,zero,.L40
	.loc 1 260 16
	li	a2,3
	lla	a1,.LC2
	ld	a0,-56(s0)
	call	StrnCmp@plt
	mv	a5,a0
	.loc 1 260 15 discriminator 1
	beq	a5,zero,.L41
	.loc 1 265 16
	li	a2,3
	lla	a1,.LC3
	ld	a0,-56(s0)
	call	StrnCmp@plt
	mv	a5,a0
	.loc 1 265 15 discriminator 1
	bne	a5,zero,.L29
	.loc 1 266 10
	ld	a5,-96(s0)
	bne	a5,zero,.L30
	.loc 1 267 26
	li	a5,1
	sb	a5,-25(s0)
	.loc 1 268 9
	j	.L24
.L30:
	.loc 1 274 10
	lbu	a5,-25(s0)
	andi	a5,a5,0xff
	beq	a5,zero,.L31
	.loc 1 275 26
	sb	zero,-25(s0)
.L31:
	.loc 1 281 25
	ld	a5,-56(s0)
	addi	a5,a5,6
	sd	a5,-40(s0)
	.loc 1 281 7
	j	.L32
.L33:
	.loc 1 283 26
	ld	a5,-40(s0)
	addi	a5,a5,2
	sd	a5,-40(s0)
.L32:
	.loc 1 282 15
	ld	a5,-40(s0)
	lhu	a5,0(a5)
	.loc 1 282 28
	sext.w	a4,a5
	li	a5,32
	beq	a4,a5,.L33
	.loc 1 287 20
	ld	a0,-40(s0)
	call	StrLen@plt
	sd	a0,-64(s0)
	.loc 1 288 21
	ld	a1,-40(s0)
	ld	a0,-96(s0)
	call	StrStr@plt
	sd	a0,-40(s0)
	.loc 1 289 10
	ld	a5,-40(s0)
	beq	a5,zero,.L42
	.loc 1 293 26
	ld	a5,-64(s0)
	slli	a5,a5,1
	ld	a4,-40(s0)
	add	a5,a4,a5
	.loc 1 293 12
	lhu	a5,0(a5)
	.loc 1 293 10
	beq	a5,zero,.L35
	.loc 1 293 69 discriminator 1
	ld	a5,-64(s0)
	slli	a5,a5,1
	ld	a4,-40(s0)
	add	a5,a4,a5
	.loc 1 293 55 discriminator 1
	lhu	a5,0(a5)
	.loc 1 293 51 discriminator 1
	sext.w	a4,a5
	li	a5,44
	bne	a4,a5,.L24
.L35:
	.loc 1 294 26
	li	a5,1
	sb	a5,-25(s0)
	j	.L24
.L29:
	.loc 1 296 15
	lbu	a5,-25(s0)
	andi	a5,a5,0xff
	beq	a5,zero,.L24
	.loc 1 297 13
	li	a5,1
	sb	a5,-41(s0)
	.loc 1 302 7
	li	a3,0
	ld	a2,-56(s0)
	ld	a1,-112(s0)
	ld	a0,-104(s0)
	call	StrnCatGrow@plt
	.loc 1 303 7
	li	a3,0
	lla	a2,.LC4
	ld	a1,-112(s0)
	ld	a0,-104(s0)
	call	StrnCatGrow@plt
	j	.L24
.L39:
	.loc 1 248 7
	nop
	j	.L24
.L42:
	.loc 1 290 9
	nop
.L24:
	.loc 1 242 46
	li	a5,1024
	sd	a5,-72(s0)
.L22:
	.loc 1 242 12 discriminator 1
	ld	a0,-88(s0)
	call	ShellFileHandleEof@plt
	mv	a5,a0
	.loc 1 242 11 discriminator 2
	beq	a5,zero,.L36
	j	.L27
.L40:
	.loc 1 259 7
	nop
	j	.L27
.L41:
	.loc 1 264 7
	nop
.L27:
	.loc 1 307 3
	ld	a0,-56(s0)
	call	FreePool@plt
	.loc 1 308 6
	lbu	a5,-41(s0)
	andi	a5,a5,0xff
	bne	a5,zero,.L37
	.loc 1 308 17 discriminator 1
	ld	a5,-24(s0)
	.loc 1 308 14 discriminator 1
	blt	a5,zero,.L37
	.loc 1 309 12
	li	a5,-1
	slli	a5,a5,63
	addi	a5,a5,14
	j	.L38
.L37:
	.loc 1 312 10
	ld	a5,-24(s0)
.L38:
	.loc 1 313 1
	mv	a0,a5
	ld	ra,120(sp)
	.cfi_restore 1
	ld	s0,112(sp)
	.cfi_restore 8
	.cfi_def_cfa 2, 128
	addi	sp,sp,128
	.cfi_def_cfa_offset 0
	jr	ra
	.cfi_endproc
.LFE3:
	.size	ManFileFindSections, .-ManFileFindSections
	.section	.rodata
	.align	3
.LC5:
	.string	"."
	.string	"T"
	.string	"H"
	.string	" "
	.zero	2
	.align	3
.LC6:
	.string	"."
	.string	"T"
	.string	"H"
	.string	"\t"
	.zero	2
	.section	.text.IsTitleHeader,"ax",@progbits
	.align	1
	.globl	IsTitleHeader
	.type	IsTitleHeader, @function
IsTitleHeader:
.LFB4:
	.loc 1 344 1
	.cfi_startproc
	addi	sp,sp,-112
	.cfi_def_cfa_offset 112
	sd	ra,104(sp)
	sd	s0,96(sp)
	sd	s1,88(sp)
	.cfi_offset 1, -8
	.cfi_offset 8, -16
	.cfi_offset 9, -24
	addi	s0,sp,112
	.cfi_def_cfa 8, 0
	sd	a0,-72(s0)
	sd	a1,-80(s0)
	sd	a2,-88(s0)
	sd	a3,-96(s0)
	sd	a4,-104(s0)
	.loc 1 356 15
	sb	zero,-49(s0)
	.loc 1 357 15
	sb	zero,-50(s0)
	.loc 1 358 16
	sd	zero,-48(s0)
	.loc 1 359 9
	sw	zero,-36(s0)
.L67:
	.loc 1 362 9
	ld	a5,-80(s0)
	lhu	a5,0(a5)
	.loc 1 362 8
	beq	a5,zero,.L69
	.loc 1 366 5
	lw	a5,-36(s0)
	sext.w	a4,a5
	li	a5,3
	beq	a4,a5,.L46
	lw	a5,-36(s0)
	sext.w	a4,a5
	li	a5,3
	bgtu	a4,a5,.L70
	lw	a5,-36(s0)
	sext.w	a4,a5
	li	a5,2
	beq	a4,a5,.L48
	lw	a5,-36(s0)
	sext.w	a4,a5
	li	a5,2
	bgtu	a4,a5,.L70
	lw	a5,-36(s0)
	sext.w	a5,a5
	beq	a5,zero,.L49
	lw	a5,-36(s0)
	sext.w	a4,a5
	li	a5,1
	beq	a4,a5,.L50
	.loc 1 432 9
	j	.L70
.L49:
	.loc 1 372 14
	li	a2,4
	ld	a1,-80(s0)
	lla	a0,.LC5
	call	StrnCmp@plt
	mv	a5,a0
	.loc 1 372 12 discriminator 1
	beq	a5,zero,.L51
	.loc 1 372 51 discriminator 2
	li	a2,4
	ld	a1,-80(s0)
	lla	a0,.LC6
	call	StrnCmp@plt
	mv	a5,a0
	.loc 1 372 47 discriminator 3
	bne	a5,zero,.L52
.L51:
	.loc 1 373 16
	ld	a5,-80(s0)
	addi	a5,a5,8
	sd	a5,-80(s0)
	.loc 1 374 17
	li	a5,1
	sw	a5,-36(s0)
	j	.L53
.L52:
	.loc 1 375 21
	ld	a5,-80(s0)
	lhu	a5,0(a5)
	.loc 1 375 19
	sext.w	a4,a5
	li	a5,32
	beq	a4,a5,.L54
	.loc 1 375 40 discriminator 1
	ld	a5,-80(s0)
	lhu	a5,0(a5)
	.loc 1 375 36 discriminator 1
	sext.w	a4,a5
	li	a5,9
	bne	a4,a5,.L55
.L54:
	.loc 1 376 15
	ld	a5,-80(s0)
	addi	a5,a5,2
	sd	a5,-80(s0)
	j	.L53
.L55:
	.loc 1 378 17
	li	a5,4
	sw	a5,-36(s0)
	.loc 1 381 9
	j	.L56
.L53:
	j	.L56
.L50:
	.loc 1 388 14
	ld	a5,-80(s0)
	lhu	a5,0(a5)
	.loc 1 388 12
	sext.w	a4,a5
	li	a5,32
	beq	a4,a5,.L57
	.loc 1 388 33 discriminator 1
	ld	a5,-80(s0)
	lhu	a5,0(a5)
	.loc 1 388 29 discriminator 1
	sext.w	a4,a5
	li	a5,9
	bne	a4,a5,.L58
.L57:
	.loc 1 389 15
	ld	a5,-80(s0)
	addi	a5,a5,2
	sd	a5,-80(s0)
	.loc 1 397 9
	j	.L56
.L58:
	.loc 1 391 23
	li	a5,1
	sb	a5,-49(s0)
	.loc 1 392 17
	li	a5,2
	sw	a5,-36(s0)
	.loc 1 397 9
	j	.L56
.L48:
	.loc 1 404 14
	ld	a5,-80(s0)
	lhu	a5,0(a5)
	.loc 1 404 12
	sext.w	a4,a5
	li	a5,32
	beq	a4,a5,.L60
	.loc 1 404 33 discriminator 1
	ld	a5,-80(s0)
	lhu	a5,0(a5)
	.loc 1 404 29 discriminator 1
	sext.w	a4,a5
	li	a5,9
	bne	a4,a5,.L61
.L60:
	.loc 1 405 23
	li	a5,1
	sb	a5,-50(s0)
	.loc 1 406 55
	ld	a5,-88(s0)
	bne	a5,zero,.L62
	.loc 1 406 17 discriminator 1
	li	a5,4
	sw	a5,-36(s0)
	.loc 1 406 17 is_stmt 0
	j	.L64
.L62:
	.loc 1 406 17 discriminator 2
	li	a5,3
	sw	a5,-36(s0)
	.loc 1 406 17
	j	.L64
.L61:
	.loc 1 407 20 is_stmt 1
	ld	a5,-80(s0)
	lhu	a5,0(a5)
	mv	a0,a5
	call	CharToUpper@plt
	mv	a5,a0
	mv	s1,a5
	.loc 1 407 80 discriminator 1
	ld	a5,-48(s0)
	addi	a4,a5,1
	sd	a4,-48(s0)
	.loc 1 407 66 discriminator 1
	slli	a5,a5,1
	ld	a4,-72(s0)
	add	a5,a4,a5
	.loc 1 407 43 discriminator 1
	lhu	a5,0(a5)
	mv	a0,a5
	call	CharToUpper@plt
	mv	a5,a0
	.loc 1 407 19 discriminator 2
	sext.w	a4,s1
	sext.w	a5,a5
	beq	a4,a5,.L64
	.loc 1 408 17
	li	a5,4
	sw	a5,-36(s0)
.L64:
	.loc 1 411 13
	ld	a5,-80(s0)
	addi	a5,a5,2
	sd	a5,-80(s0)
	.loc 1 412 9
	j	.L56
.L46:
	.loc 1 418 14
	ld	a5,-80(s0)
	lhu	a5,0(a5)
	.loc 1 418 12
	sext.w	a4,a5
	li	a5,32
	beq	a4,a5,.L65
	.loc 1 418 33 discriminator 1
	ld	a5,-80(s0)
	lhu	a5,0(a5)
	.loc 1 418 29 discriminator 1
	sext.w	a4,a5
	li	a5,9
	beq	a4,a5,.L65
	.loc 1 418 53 discriminator 2
	ld	a5,-80(s0)
	lhu	a5,0(a5)
	.loc 1 418 49 discriminator 2
	sext.w	a4,a5
	li	a5,48
	beq	a4,a5,.L65
	.loc 1 418 72 discriminator 3
	ld	a5,-80(s0)
	lhu	a5,0(a5)
	.loc 1 418 68 discriminator 3
	sext.w	a4,a5
	li	a5,49
	beq	a4,a5,.L65
	.loc 1 419 24
	ld	a0,-80(s0)
	call	StrSize@plt
	mv	a4,a0
	.loc 1 419 22 discriminator 1
	ld	a5,-96(s0)
	sd	a4,0(a5)
	.loc 1 420 24
	ld	a5,-96(s0)
	ld	a5,0(a5)
	mv	a0,a5
	call	AllocateZeroPool@plt
	mv	a4,a0
	.loc 1 420 22 discriminator 1
	ld	a5,-88(s0)
	sd	a4,0(a5)
	.loc 1 421 15
	ld	a5,-88(s0)
	ld	a5,0(a5)
	.loc 1 421 14
	beq	a5,zero,.L66
	.loc 1 422 13
	ld	a5,-88(s0)
	ld	a4,0(a5)
	.loc 1 422 35
	ld	a5,-96(s0)
	ld	a5,0(a5)
	.loc 1 422 46
	srli	a5,a5,1
	.loc 1 422 13
	ld	a2,-80(s0)
	mv	a1,a5
	mv	a0,a4
	call	StrCpyS@plt
.L66:
	.loc 1 425 17
	li	a5,4
	sw	a5,-36(s0)
.L65:
	.loc 1 428 13
	ld	a5,-80(s0)
	addi	a5,a5,2
	sd	a5,-80(s0)
	.loc 1 429 9
	j	.L56
.L70:
	.loc 1 432 9
	nop
.L56:
	.loc 1 434 18
	lw	a5,-36(s0)
	sext.w	a4,a5
	li	a5,3
	bleu	a4,a5,.L67
	j	.L45
.L69:
	.loc 1 363 7
	nop
.L45:
	.loc 1 436 10
	ld	a5,-104(s0)
	lbu	a4,-50(s0)
	sb	a4,0(a5)
	.loc 1 437 10
	lbu	a5,-49(s0)
	.loc 1 438 1
	mv	a0,a5
	ld	ra,104(sp)
	.cfi_restore 1
	ld	s0,96(sp)
	.cfi_restore 8
	.cfi_def_cfa 2, 112
	ld	s1,88(sp)
	.cfi_restore 9
	addi	sp,sp,112
	.cfi_def_cfa_offset 0
	jr	ra
	.cfi_endproc
.LFE4:
	.size	IsTitleHeader, .-IsTitleHeader
	.section	.text.ManFileFindTitleSection,"ax",@progbits
	.align	1
	.globl	ManFileFindTitleSection
	.type	ManFileFindTitleSection, @function
ManFileFindTitleSection:
.LFB5:
	.loc 1 468 1
	.cfi_startproc
	addi	sp,sp,-112
	.cfi_def_cfa_offset 112
	sd	ra,104(sp)
	sd	s0,96(sp)
	.cfi_offset 1, -8
	.cfi_offset 8, -16
	addi	s0,sp,112
	.cfi_def_cfa 8, 0
	sd	a0,-72(s0)
	sd	a1,-80(s0)
	sd	a2,-88(s0)
	sd	a3,-96(s0)
	sd	a4,-104(s0)
	.loc 1 475 6
	ld	a5,-72(s0)
	beq	a5,zero,.L72
	.loc 1 476 6
	ld	a5,-80(s0)
	beq	a5,zero,.L72
	.loc 1 477 6
	ld	a5,-88(s0)
	beq	a5,zero,.L73
	.loc 1 477 38 discriminator 1
	ld	a5,-96(s0)
	bne	a5,zero,.L73
.L72:
	.loc 1 480 12
	li	a5,-1
	slli	a5,a5,63
	addi	a5,a5,2
	j	.L86
.L73:
	.loc 1 483 10
	sd	zero,-24(s0)
	.loc 1 484 8
	li	a5,1024
	sd	a5,-48(s0)
	.loc 1 485 9
	sb	zero,-49(s0)
	.loc 1 487 14
	ld	a5,-48(s0)
	mv	a0,a5
	call	AllocateZeroPool@plt
	sd	a0,-40(s0)
	.loc 1 488 6
	ld	a5,-40(s0)
	bne	a5,zero,.L75
	.loc 1 489 12
	li	a5,-1
	slli	a5,a5,63
	addi	a5,a5,9
	j	.L86
.L75:
	.loc 1 495 11
	ld	a0,-80(s0)
	call	StrLen@plt
	sd	a0,-32(s0)
	.loc 1 496 9
	j	.L76
.L78:
	.loc 1 501 5
	ld	a5,-32(s0)
	addi	a5,a5,-1
	sd	a5,-32(s0)
.L76:
	.loc 1 499 9
	ld	a5,-32(s0)
	beq	a5,zero,.L79
	.loc 1 497 23
	ld	a5,-32(s0)
	slli	a5,a5,1
	.loc 1 497 31
	addi	a5,a5,-2
	ld	a4,-80(s0)
	add	a5,a4,a5
	.loc 1 497 13
	lhu	a5,0(a5)
	.loc 1 497 9
	sext.w	a4,a5
	li	a5,92
	beq	a4,a5,.L79
	.loc 1 498 23
	ld	a5,-32(s0)
	slli	a5,a5,1
	.loc 1 498 31
	addi	a5,a5,-2
	ld	a4,-80(s0)
	add	a5,a4,a5
	.loc 1 498 13
	lhu	a5,0(a5)
	.loc 1 498 9
	sext.w	a4,a5
	li	a5,47
	beq	a4,a5,.L79
	.loc 1 499 23
	ld	a5,-32(s0)
	slli	a5,a5,1
	.loc 1 499 31
	addi	a5,a5,-2
	ld	a4,-80(s0)
	add	a5,a4,a5
	.loc 1 499 13
	lhu	a5,0(a5)
	.loc 1 499 9
	sext.w	a4,a5
	li	a5,58
	bne	a4,a5,.L78
	.loc 1 504 3
	j	.L79
.L85:
	.loc 1 505 14
	addi	a5,s0,-48
	ld	a4,-104(s0)
	li	a3,1
	mv	a2,a5
	ld	a1,-40(s0)
	ld	a0,-72(s0)
	call	ShellFileHandleReadLine@plt
	sd	a0,-24(s0)
	.loc 1 509 36
	ld	a5,-24(s0)
	.loc 1 509 8
	bge	a5,zero,.L80
	.loc 1 509 62 discriminator 1
	ld	a4,-24(s0)
	li	a5,-1
	slli	a5,a5,63
	addi	a5,a5,5
	bne	a4,a5,.L87
.L80:
	.loc 1 513 12
	li	a5,-1
	slli	a5,a5,63
	addi	a5,a5,14
	sd	a5,-24(s0)
	.loc 1 514 31
	ld	a5,-32(s0)
	slli	a5,a5,1
	.loc 1 514 9
	ld	a4,-80(s0)
	add	a5,a4,a5
	addi	a4,s0,-49
	ld	a3,-96(s0)
	ld	a2,-88(s0)
	ld	a1,-40(s0)
	mv	a0,a5
	call	IsTitleHeader
	mv	a5,a0
	.loc 1 514 8 discriminator 1
	beq	a5,zero,.L82
	.loc 1 515 22
	lbu	a5,-49(s0)
	.loc 1 515 43
	beq	a5,zero,.L83
	.loc 1 515 14 discriminator 1
	sd	zero,-24(s0)
	.loc 1 516 7
	j	.L81
.L83:
	.loc 1 515 14 discriminator 2
	li	a5,-1
	slli	a5,a5,63
	addi	a5,a5,14
	sd	a5,-24(s0)
	.loc 1 516 7
	j	.L81
.L82:
	.loc 1 504 46
	li	a5,1024
	sd	a5,-48(s0)
.L79:
	.loc 1 504 12 discriminator 1
	ld	a0,-72(s0)
	call	ShellFileHandleEof@plt
	mv	a5,a0
	.loc 1 504 11 discriminator 2
	beq	a5,zero,.L85
	j	.L81
.L87:
	.loc 1 510 7
	nop
.L81:
	.loc 1 520 3
	ld	a0,-40(s0)
	call	FreePool@plt
	.loc 1 521 10
	ld	a5,-24(s0)
.L86:
	.loc 1 522 1
	mv	a0,a5
	ld	ra,104(sp)
	.cfi_restore 1
	ld	s0,96(sp)
	.cfi_restore 8
	.cfi_def_cfa 2, 112
	addi	sp,sp,112
	.cfi_def_cfa_offset 0
	jr	ra
	.cfi_endproc
.LFE5:
	.size	ManFileFindTitleSection, .-ManFileFindTitleSection
	.section	.text.ProcessManFile,"ax",@progbits
	.align	1
	.globl	ProcessManFile
	.type	ProcessManFile, @function
ProcessManFile:
.LFB6:
	.loc 1 563 1
	.cfi_startproc
	addi	sp,sp,-176
	.cfi_def_cfa_offset 176
	sd	ra,168(sp)
	sd	s0,160(sp)
	.cfi_offset 1, -8
	.cfi_offset 8, -16
	addi	s0,sp,176
	.cfi_def_cfa 8, 0
	sd	a0,-136(s0)
	sd	a1,-144(s0)
	sd	a2,-152(s0)
	sd	a3,-160(s0)
	sd	a4,-168(s0)
	.loc 1 578 6
	ld	a5,-136(s0)
	beq	a5,zero,.L89
	.loc 1 579 6
	ld	a5,-144(s0)
	beq	a5,zero,.L89
	.loc 1 580 6
	ld	a5,-168(s0)
	bne	a5,zero,.L90
.L89:
	.loc 1 583 12
	li	a5,-1
	slli	a5,a5,63
	addi	a5,a5,2
	j	.L125
.L90:
	.loc 1 586 12
	sd	zero,-96(s0)
	.loc 1 587 13
	sd	zero,-104(s0)
	.loc 1 588 18
	sd	zero,-40(s0)
	.loc 1 589 14
	sd	zero,-24(s0)
	.loc 1 590 9
	sb	zero,-105(s0)
	.loc 1 591 15
	sd	zero,-48(s0)
	.loc 1 592 19
	sd	zero,-56(s0)
	.loc 1 593 20
	sd	zero,-88(s0)
	.loc 1 594 21
	sd	zero,-120(s0)
	.loc 1 595 15
	sd	zero,-64(s0)
	.loc 1 596 11
	sd	zero,-72(s0)
	.loc 1 601 16
	ld	a0,-144(s0)
	call	ShellCommandGetCommandHelp@plt
	sd	a0,-24(s0)
	.loc 1 602 6
	ld	a5,-24(s0)
	beq	a5,zero,.L92
	.loc 1 603 55
	li	a0,1
	call	CreateFileInterfaceMem@plt
	mv	a5,a0
	.loc 1 603 18 discriminator 1
	li	a1,0
	mv	a0,a5
	call	ConvertEfiFileProtocolToShellHandle@plt
	mv	a5,a0
	.loc 1 603 16 discriminator 2
	sd	a5,-80(s0)
	.loc 1 604 20
	ld	a5,-80(s0)
	.loc 1 604 8
	bne	a5,zero,.L93
	.loc 1 605 14
	li	a5,-1
	slli	a5,a5,63
	addi	a5,a5,9
	sd	a5,-32(s0)
	.loc 1 606 7
	j	.L94
.L93:
	.loc 1 609 16
	ld	a0,-24(s0)
	call	StrLen@plt
	mv	a5,a0
	.loc 1 609 36 discriminator 1
	slli	a5,a5,1
	.loc 1 609 14 discriminator 1
	sd	a5,-96(s0)
	.loc 1 610 5
	ld	a5,-80(s0)
	addi	a4,s0,-96
	ld	a2,-24(s0)
	mv	a1,a4
	mv	a0,a5
	call	ShellWriteFile@plt
	.loc 1 611 5
	ld	a5,-80(s0)
	li	a1,0
	mv	a0,a5
	call	ShellSetFilePosition@plt
	.loc 1 612 14
	sd	zero,-96(s0)
	.loc 1 613 15
	sd	zero,-104(s0)
	.loc 1 614 14
	ld	a5,-80(s0)
	addi	a4,s0,-105
	addi	a3,s0,-104
	ld	a2,-160(s0)
	ld	a1,-144(s0)
	mv	a0,a5
	call	ManFileFindTitleSection
	sd	a0,-32(s0)
	.loc 1 615 9
	ld	a5,-32(s0)
	.loc 1 615 8
	blt	a5,zero,.L95
	.loc 1 615 63 discriminator 1
	ld	a5,-168(s0)
	beq	a5,zero,.L95
	.loc 1 616 16
	ld	a5,-80(s0)
	lbu	a4,-105(s0)
	addi	a3,s0,-96
	ld	a2,-168(s0)
	ld	a1,-152(s0)
	mv	a0,a5
	call	ManFileFindSections
	sd	a0,-32(s0)
.L95:
	.loc 1 619 5
	addi	a5,s0,-80
	mv	a0,a5
	call	ShellCloseFile@plt
	j	.L94
.L92:
	.loc 1 624 16
	sd	zero,-80(s0)
	.loc 1 625 18
	ld	a0,-136(s0)
	call	GetManFileName
	sd	a0,-24(s0)
	.loc 1 626 8
	ld	a5,-24(s0)
	bne	a5,zero,.L96
	.loc 1 627 14
	li	a5,-1
	slli	a5,a5,63
	addi	a5,a5,2
	j	.L125
.L96:
	.loc 1 630 14
	addi	a5,s0,-80
	mv	a1,a5
	ld	a0,-24(s0)
	call	SearchPathForFile
	sd	a0,-32(s0)
	.loc 1 631 36
	ld	a5,-32(s0)
	.loc 1 631 8
	bge	a5,zero,.L97
	.loc 1 632 21
	ld	a1,-24(s0)
	li	a0,0
	call	FileDevicePath@plt
	sd	a0,-64(s0)
	.loc 1 633 10
	ld	a5,-64(s0)
	bne	a5,zero,.L98
	.loc 1 634 16
	li	a5,-1
	slli	a5,a5,63
	addi	a5,a5,9
	sd	a5,-32(s0)
	.loc 1 635 9
	j	.L94
.L98:
	.loc 1 638 50
	la	a5,ShellInfoObject
	ld	a5,152(a5)
	.loc 1 638 17
	ld	a1,-64(s0)
	mv	a0,a5
	call	AppendDevicePath@plt
	sd	a0,-72(s0)
	.loc 1 639 10
	ld	a5,-72(s0)
	bne	a5,zero,.L99
	.loc 1 640 16
	li	a5,-1
	slli	a5,a5,63
	addi	a5,a5,9
	sd	a5,-32(s0)
	.loc 1 641 9
	j	.L94
.L99:
	.loc 1 644 16
	addi	a5,s0,-80
	li	a3,0
	li	a2,1
	mv	a1,a5
	ld	a0,-72(s0)
	call	InternalOpenFileDevicePath@plt
	sd	a0,-32(s0)
	.loc 1 645 15
	ld	a5,-64(s0)
	beq	a5,zero,.L100
	.loc 1 645 49 discriminator 1
	ld	a0,-64(s0)
	call	FreePool@plt
	.loc 1 645 88 discriminator 2
	sd	zero,-64(s0)
.L100:
	.loc 1 646 15
	ld	a5,-72(s0)
	beq	a5,zero,.L97
	.loc 1 646 45 discriminator 1
	ld	a0,-72(s0)
	call	FreePool@plt
	.loc 1 646 76 discriminator 2
	sd	zero,-72(s0)
.L97:
	.loc 1 649 9
	ld	a5,-32(s0)
	.loc 1 649 8
	blt	a5,zero,.L101
	.loc 1 650 16
	sd	zero,-96(s0)
	.loc 1 651 17
	sd	zero,-104(s0)
	.loc 1 652 16
	ld	a5,-80(s0)
	addi	a4,s0,-105
	addi	a3,s0,-104
	ld	a2,-160(s0)
	ld	a1,-144(s0)
	mv	a0,a5
	call	ManFileFindTitleSection
	sd	a0,-32(s0)
	.loc 1 653 11
	ld	a5,-32(s0)
	.loc 1 653 10
	blt	a5,zero,.L102
	.loc 1 653 65 discriminator 1
	ld	a5,-168(s0)
	beq	a5,zero,.L102
	.loc 1 654 18
	ld	a5,-80(s0)
	lbu	a4,-105(s0)
	addi	a3,s0,-96
	ld	a2,-168(s0)
	ld	a1,-152(s0)
	mv	a0,a5
	call	ManFileFindSections
	sd	a0,-32(s0)
.L102:
	.loc 1 657 22
	la	a5,ShellInfoObject
	ld	a5,8(a5)
	.loc 1 657 42
	ld	a5,200(a5)
	.loc 1 657 7
	ld	a4,-80(s0)
	mv	a0,a4
	jalr	a5
.LVL0:
	.loc 1 658 11
	ld	a5,-32(s0)
	.loc 1 658 10
	bge	a5,zero,.L126
.L101:
	.loc 1 669 19
	ld	a0,-24(s0)
	call	GetExecuatableFileName
	sd	a0,-48(s0)
	.loc 1 670 8
	ld	a5,-48(s0)
	bne	a5,zero,.L103
	.loc 1 671 14
	li	a5,-1
	slli	a5,a5,63
	addi	a5,a5,9
	sd	a5,-32(s0)
	.loc 1 672 7
	j	.L94
.L103:
	.loc 1 679 23
	ld	a0,-48(s0)
	call	ShellFindFilePath@plt
	sd	a0,-56(s0)
	.loc 1 680 8
	ld	a5,-56(s0)
	bne	a5,zero,.L104
	.loc 1 681 14
	li	a5,-1
	slli	a5,a5,63
	addi	a5,a5,14
	sd	a5,-32(s0)
	.loc 1 682 7
	j	.L94
.L104:
	.loc 1 685 30
	la	a5,ShellInfoObject
	ld	a5,8(a5)
	.loc 1 685 50
	ld	a5,64(a5)
	.loc 1 685 15
	ld	a0,-56(s0)
	jalr	a5
.LVL1:
	sd	a0,-72(s0)
	.loc 1 686 17
	la	a5,gBS
	ld	a5,0(a5)
	ld	a6,200(a5)
	.loc 1 686 14
	la	a5,gImageHandle
	ld	a1,0(a5)
	addi	a5,s0,-88
	li	a4,0
	li	a3,0
	ld	a2,-72(s0)
	li	a0,0
	jalr	a6
.LVL2:
	sd	a0,-32(s0)
	.loc 1 687 36
	ld	a5,-32(s0)
	.loc 1 687 8
	bge	a5,zero,.L105
	.loc 1 694 10
	ld	a4,-32(s0)
	li	a5,-1
	slli	a5,a5,63
	addi	a5,a5,26
	bne	a4,a5,.L106
	.loc 1 695 12
	la	a5,gBS
	ld	a5,0(a5)
	ld	a5,224(a5)
	.loc 1 695 9
	ld	a4,-88(s0)
	mv	a0,a4
	jalr	a5
.LVL3:
.L106:
	.loc 1 698 17
	ld	a5,-168(s0)
	sd	zero,0(a5)
	.loc 1 699 7
	j	.L94
.L105:
	.loc 1 702 17
	la	a5,gBS
	ld	a5,0(a5)
	ld	a6,280(a5)
	.loc 1 702 14
	ld	a0,-88(s0)
	la	a5,gImageHandle
	ld	a3,0(a5)
	addi	a2,s0,-120
	li	a5,2
	li	a4,0
	la	a1,gEfiHiiPackageListProtocolGuid
	jalr	a6
.LVL4:
	sd	a0,-32(s0)
	.loc 1 710 36
	ld	a5,-32(s0)
	.loc 1 710 8
	bge	a5,zero,.L107
	.loc 1 711 17
	ld	a5,-168(s0)
	sd	zero,0(a5)
	.loc 1 712 7
	j	.L94
.L107:
	.loc 1 718 17
	la	a5,gBS
	ld	a5,0(a5)
	ld	a5,128(a5)
	.loc 1 718 14
	lla	a3,mShellManHiiDevicePath
	li	a2,0
	la	a1,gEfiDevicePathProtocolGuid
	lla	a0,mShellManDriverHandle
	jalr	a5
.LVL5:
	sd	a0,-32(s0)
	.loc 1 724 36
	ld	a5,-32(s0)
	.loc 1 724 8
	blt	a5,zero,.L127
	.loc 1 728 26
	la	a5,gHiiDatabase
	ld	a5,0(a5)
	ld	a5,0(a5)
	.loc 1 728 14
	la	a4,gHiiDatabase
	ld	a0,0(a4)
	ld	a1,-120(s0)
	lla	a4,mShellManDriverHandle
	ld	a4,0(a4)
	lla	a3,mShellManHiiHandle
	mv	a2,a4
	jalr	a5
.LVL6:
	sd	a0,-32(s0)
	.loc 1 734 36
	ld	a5,-32(s0)
	.loc 1 734 8
	blt	a5,zero,.L128
	.loc 1 738 20
	li	a5,1
	sd	a5,-40(s0)
.L116:
	.loc 1 740 15
	ld	a5,-24(s0)
	beq	a5,zero,.L110
	.loc 1 740 48 discriminator 1
	ld	a0,-24(s0)
	call	FreePool@plt
	.loc 1 740 85 discriminator 2
	sd	zero,-24(s0)
.L110:
	.loc 1 741 10
	ld	a5,-160(s0)
	beq	a5,zero,.L111
	.loc 1 742 19
	ld	a5,-160(s0)
	ld	a5,0(a5)
	.loc 1 742 17
	beq	a5,zero,.L111
	.loc 1 742 50 discriminator 1
	ld	a5,-160(s0)
	ld	a5,0(a5)
	mv	a0,a5
	call	FreePool@plt
	.loc 1 742 87 discriminator 2
	ld	a5,-160(s0)
	sd	zero,0(a5)
.L111:
	.loc 1 745 20
	lla	a5,mShellManHiiHandle
	ld	a5,0(a5)
	ld	a4,-40(s0)
	slli	a4,a4,48
	srli	a4,a4,48
	li	a2,0
	mv	a1,a4
	mv	a0,a5
	call	HiiGetString@plt
	sd	a0,-24(s0)
	.loc 1 746 10
	ld	a5,-24(s0)
	bne	a5,zero,.L112
	.loc 1 747 16
	li	a5,-1
	slli	a5,a5,63
	addi	a5,a5,14
	sd	a5,-32(s0)
	.loc 1 748 9
	j	.L94
.L112:
	.loc 1 751 57
	li	a0,1
	call	CreateFileInterfaceMem@plt
	mv	a5,a0
	.loc 1 751 20 discriminator 1
	li	a1,0
	mv	a0,a5
	call	ConvertEfiFileProtocolToShellHandle@plt
	mv	a5,a0
	.loc 1 751 18 discriminator 2
	sd	a5,-80(s0)
	.loc 1 752 22
	ld	a5,-80(s0)
	.loc 1 752 10
	bne	a5,zero,.L113
	.loc 1 753 16
	li	a5,-1
	slli	a5,a5,63
	addi	a5,a5,9
	sd	a5,-32(s0)
	.loc 1 754 9
	j	.L94
.L113:
	.loc 1 757 18
	ld	a0,-24(s0)
	call	StrLen@plt
	mv	a5,a0
	.loc 1 757 38 discriminator 1
	slli	a5,a5,1
	.loc 1 757 16 discriminator 1
	sd	a5,-96(s0)
	.loc 1 758 7
	ld	a5,-80(s0)
	addi	a4,s0,-96
	ld	a2,-24(s0)
	mv	a1,a4
	mv	a0,a5
	call	ShellWriteFile@plt
	.loc 1 759 7
	ld	a5,-80(s0)
	li	a1,0
	mv	a0,a5
	call	ShellSetFilePosition@plt
	.loc 1 760 16
	sd	zero,-96(s0)
	.loc 1 761 17
	sd	zero,-104(s0)
	.loc 1 762 16
	ld	a5,-80(s0)
	addi	a4,s0,-105
	addi	a3,s0,-104
	ld	a2,-160(s0)
	ld	a1,-144(s0)
	mv	a0,a5
	call	ManFileFindTitleSection
	sd	a0,-32(s0)
	.loc 1 763 11
	ld	a5,-32(s0)
	.loc 1 763 10
	blt	a5,zero,.L114
	.loc 1 763 65 discriminator 1
	ld	a5,-168(s0)
	beq	a5,zero,.L114
	.loc 1 764 18
	ld	a5,-80(s0)
	lbu	a4,-105(s0)
	addi	a3,s0,-96
	ld	a2,-168(s0)
	ld	a1,-152(s0)
	mv	a0,a5
	call	ManFileFindSections
	sd	a0,-32(s0)
.L114:
	.loc 1 767 7
	addi	a5,s0,-80
	mv	a0,a5
	call	ShellCloseFile@plt
	.loc 1 768 11
	ld	a5,-32(s0)
	.loc 1 768 10
	bge	a5,zero,.L129
	.loc 1 775 22
	ld	a5,-40(s0)
	addi	a5,a5,1
	sd	a5,-40(s0)
	.loc 1 776 38
	ld	a4,-40(s0)
	li	a5,65536
	addi	a5,a5,-2
	bgtu	a4,a5,.L130
	.loc 1 776 38 is_stmt 0 discriminator 1
	ld	a5,-24(s0)
	bne	a5,zero,.L116
	.loc 1 779 1 is_stmt 1
	j	.L130
.L126:
	.loc 1 662 9
	nop
	j	.L94
.L127:
	.loc 1 725 7
	nop
	j	.L94
.L128:
	.loc 1 735 7
	nop
	j	.L94
.L129:
	.loc 1 772 9
	nop
	j	.L94
.L130:
	.loc 1 779 1
	nop
.L94:
	.loc 1 780 29
	lla	a5,mShellManDriverHandle
	ld	a5,0(a5)
	.loc 1 780 6
	beq	a5,zero,.L117
	.loc 1 781 8
	la	a5,gBS
	ld	a5,0(a5)
	ld	a5,144(a5)
	.loc 1 781 5
	lla	a4,mShellManDriverHandle
	ld	a4,0(a4)
	lla	a2,mShellManHiiDevicePath
	la	a1,gEfiDevicePathProtocolGuid
	mv	a0,a4
	jalr	a5
.LVL7:
	.loc 1 786 27
	lla	a5,mShellManDriverHandle
	sd	zero,0(a5)
.L117:
	.loc 1 789 26
	lla	a5,mShellManHiiHandle
	ld	a5,0(a5)
	.loc 1 789 6
	beq	a5,zero,.L118
	.loc 1 790 5
	lla	a5,mShellManHiiHandle
	ld	a5,0(a5)
	mv	a0,a5
	call	HiiRemovePackages@plt
	.loc 1 791 24
	lla	a5,mShellManHiiHandle
	sd	zero,0(a5)
.L118:
	.loc 1 794 24
	ld	a5,-88(s0)
	.loc 1 794 6
	beq	a5,zero,.L119
	.loc 1 795 17
	la	a5,gBS
	ld	a5,0(a5)
	ld	a5,224(a5)
	.loc 1 795 14
	ld	a4,-88(s0)
	mv	a0,a4
	jalr	a5
.LVL8:
	sd	a0,-32(s0)
.L119:
	.loc 1 798 11
	ld	a5,-24(s0)
	beq	a5,zero,.L120
	.loc 1 798 44 discriminator 1
	ld	a0,-24(s0)
	call	FreePool@plt
	.loc 1 798 81 discriminator 2
	sd	zero,-24(s0)
.L120:
	.loc 1 799 11
	ld	a5,-48(s0)
	beq	a5,zero,.L121
	.loc 1 799 45 discriminator 1
	ld	a0,-48(s0)
	call	FreePool@plt
	.loc 1 799 84 discriminator 2
	sd	zero,-48(s0)
.L121:
	.loc 1 800 11
	ld	a5,-56(s0)
	beq	a5,zero,.L122
	.loc 1 800 49 discriminator 1
	ld	a0,-56(s0)
	call	FreePool@plt
	.loc 1 800 96 discriminator 2
	sd	zero,-56(s0)
.L122:
	.loc 1 801 11
	ld	a5,-64(s0)
	beq	a5,zero,.L123
	.loc 1 801 45 discriminator 1
	ld	a0,-64(s0)
	call	FreePool@plt
	.loc 1 801 84 discriminator 2
	sd	zero,-64(s0)
.L123:
	.loc 1 802 11
	ld	a5,-72(s0)
	beq	a5,zero,.L124
	.loc 1 802 41 discriminator 1
	ld	a0,-72(s0)
	call	FreePool@plt
	.loc 1 802 72 discriminator 2
	sd	zero,-72(s0)
.L124:
	.loc 1 804 10
	ld	a5,-32(s0)
.L125:
	.loc 1 805 1
	mv	a0,a5
	ld	ra,168(sp)
	.cfi_restore 1
	ld	s0,160(sp)
	.cfi_restore 8
	.cfi_def_cfa 2, 176
	addi	sp,sp,176
	.cfi_def_cfa_offset 0
	jr	ra
	.cfi_endproc
.LFE6:
	.size	ProcessManFile, .-ProcessManFile
	.text
.Letext0:
	.file 2 "/home/kapoagaeming/Downloads/spacemit-image-builder/components/edk2/MdePkg/Include/RiscV64/ProcessorBind.h"
	.file 3 "/home/kapoagaeming/Downloads/spacemit-image-builder/components/edk2/MdePkg/Include/Base.h"
	.file 4 "/home/kapoagaeming/Downloads/spacemit-image-builder/components/edk2/MdePkg/Include/Uefi/UefiBaseType.h"
	.file 5 "/home/kapoagaeming/Downloads/spacemit-image-builder/components/edk2/MdePkg/Include/Uefi/UefiMultiPhase.h"
	.file 6 "/home/kapoagaeming/Downloads/spacemit-image-builder/components/edk2/MdePkg/Include/Protocol/DevicePath.h"
	.file 7 "/home/kapoagaeming/Downloads/spacemit-image-builder/components/edk2/MdePkg/Include/Protocol/SimpleTextOut.h"
	.file 8 "/home/kapoagaeming/Downloads/spacemit-image-builder/components/edk2/MdePkg/Include/Uefi/UefiSpec.h"
	.file 9 "/home/kapoagaeming/Downloads/spacemit-image-builder/components/edk2/MdePkg/Include/Uefi/UefiInternalFormRepresentation.h"
	.file 10 "/home/kapoagaeming/Downloads/spacemit-image-builder/components/Build/Milk-V-Jupiter/RELEASE_GCC5/RISCV64/ShellPkg/Application/Shell/Shell/DEBUG/AutoGen.h"
	.file 11 "/home/kapoagaeming/Downloads/spacemit-image-builder/components/edk2/MdePkg/Include/Guid/FileInfo.h"
	.file 12 "/home/kapoagaeming/Downloads/spacemit-image-builder/components/edk2/MdePkg/Include/Protocol/Shell.h"
	.file 13 "/home/kapoagaeming/Downloads/spacemit-image-builder/components/edk2/MdePkg/Include/Protocol/SimpleFileSystem.h"
	.file 14 "/home/kapoagaeming/Downloads/spacemit-image-builder/components/edk2/MdePkg/Include/Protocol/ShellParameters.h"
	.file 15 "/home/kapoagaeming/Downloads/spacemit-image-builder/components/edk2/MdePkg/Include/Library/UefiBootServicesTableLib.h"
	.file 16 "/home/kapoagaeming/Downloads/spacemit-image-builder/components/edk2/ShellPkg/Include/Library/ShellCommandLib.h"
	.file 17 "/home/kapoagaeming/Downloads/spacemit-image-builder/components/edk2/MdePkg/Include/Protocol/HiiDatabase.h"
	.file 18 "/home/kapoagaeming/Downloads/spacemit-image-builder/components/edk2/MdeModulePkg/Include/Library/UefiHiiServicesLib.h"
	.file 19 "/home/kapoagaeming/Downloads/spacemit-image-builder/components/edk2/ShellPkg/Application/Shell/ShellProtocol.h"
	.file 20 "/home/kapoagaeming/Downloads/spacemit-image-builder/components/edk2/ShellPkg/Application/Shell/ConsoleLogger.h"
	.file 21 "/home/kapoagaeming/Downloads/spacemit-image-builder/components/edk2/ShellPkg/Application/Shell/Shell.h"
	.file 22 "/home/kapoagaeming/Downloads/spacemit-image-builder/components/edk2/MdeModulePkg/Include/Library/HiiLib.h"
	.file 23 "/home/kapoagaeming/Downloads/spacemit-image-builder/components/edk2/MdePkg/Include/Library/DevicePathLib.h"
	.file 24 "/home/kapoagaeming/Downloads/spacemit-image-builder/components/edk2/ShellPkg/Include/Library/ShellLib.h"
	.file 25 "/home/kapoagaeming/Downloads/spacemit-image-builder/components/edk2/ShellPkg/Application/Shell/FileHandleWrappers.h"
	.file 26 "/home/kapoagaeming/Downloads/spacemit-image-builder/components/edk2/MdePkg/Include/Library/BaseLib.h"
	.file 27 "/home/kapoagaeming/Downloads/spacemit-image-builder/components/edk2/MdePkg/Include/Library/MemoryAllocationLib.h"
	.section	.note.GNU-stack,"",@progbits
