	.file	"QspiDxe.c"
	.option pic
	.option norelax
	.attribute arch, "rv64i2p1_m2p0_a2p1_f2p2_d2p2_c2p0_zicsr2p0_zifencei2p0_zmmul1p0_zaamo1p0_zalrsc1p0_zca1p0_zcd1p0"
	.attribute unaligned_access, 0
	.attribute stack_align, 16
	.text
.Ltext0:
	.cfi_sections	.debug_frame
	.file 0 "/home/kapoagaeming/Downloads/spacemit-image-builder/components/Build/Milk-V-Jupiter/RELEASE_GCC5/RISCV64/Silicon/Spacemit/K1/Drivers/QspiDxe/QspiDxe" "/home/kapoagaeming/Downloads/spacemit-image-builder/components/edk2-platforms/Silicon/Spacemit/K1/Drivers/QspiDxe/QspiDxe.c"
	.section	.text.fls,"ax",@progbits
	.align	1
	.type	fls, @function
fls:
.LFB0:
	.file 1 "/home/kapoagaeming/Downloads/spacemit-image-builder/components/edk2-platforms/Silicon/Spacemit/K1/Drivers/QspiDxe/QspiDxe.h"
	.loc 1 365 1
	.cfi_startproc
	addi	sp,sp,-48
	.cfi_def_cfa_offset 48
	sd	ra,40(sp)
	sd	s0,32(sp)
	.cfi_offset 1, -8
	.cfi_offset 8, -16
	addi	s0,sp,48
	.cfi_def_cfa 8, 0
	mv	a5,a0
	sw	a5,-36(s0)
	.loc 1 366 10
	li	a5,32
	sw	a5,-20(s0)
	.loc 1 368 6
	lw	a5,-36(s0)
	sext.w	a5,a5
	bne	a5,zero,.L2
	.loc 1 369 12
	li	a5,0
	j	.L3
.L2:
	.loc 1 370 6
	lw	a5,-36(s0)
	sext.w	a4,a5
	li	a5,65536
	bgeu	a4,a5,.L4
	.loc 1 371 7
	lw	a5,-36(s0)
	slliw	a5,a5,16
	sw	a5,-36(s0)
	.loc 1 372 7
	lw	a5,-20(s0)
	addiw	a5,a5,-16
	sw	a5,-20(s0)
.L4:
	.loc 1 374 6
	lw	a5,-36(s0)
	sext.w	a4,a5
	li	a5,16777216
	bgeu	a4,a5,.L5
	.loc 1 375 7
	lw	a5,-36(s0)
	slliw	a5,a5,8
	sw	a5,-36(s0)
	.loc 1 376 7
	lw	a5,-20(s0)
	addiw	a5,a5,-8
	sw	a5,-20(s0)
.L5:
	.loc 1 378 6
	lw	a5,-36(s0)
	sext.w	a4,a5
	li	a5,268435456
	bgeu	a4,a5,.L6
	.loc 1 379 7
	lw	a5,-36(s0)
	slliw	a5,a5,4
	sw	a5,-36(s0)
	.loc 1 380 7
	lw	a5,-20(s0)
	addiw	a5,a5,-4
	sw	a5,-20(s0)
.L6:
	.loc 1 382 6
	lw	a5,-36(s0)
	sext.w	a4,a5
	li	a5,1073741824
	bgeu	a4,a5,.L7
	.loc 1 383 7
	lw	a5,-36(s0)
	slliw	a5,a5,2
	sw	a5,-36(s0)
	.loc 1 384 7
	lw	a5,-20(s0)
	addiw	a5,a5,-2
	sw	a5,-20(s0)
.L7:
	.loc 1 386 7
	lw	a5,-36(s0)
	.loc 1 386 6
	blt	a5,zero,.L8
	.loc 1 387 7
	lw	a5,-20(s0)
	addiw	a5,a5,-1
	sw	a5,-20(s0)
.L8:
	.loc 1 388 10
	lw	a5,-20(s0)
.L3:
	.loc 1 389 1
	mv	a0,a5
	ld	ra,40(sp)
	.cfi_restore 1
	ld	s0,32(sp)
	.cfi_restore 8
	.cfi_def_cfa 2, 48
	addi	sp,sp,48
	.cfi_def_cfa_offset 0
	jr	ra
	.cfi_endproc
.LFE0:
	.size	fls, .-fls
	.section	.bss.mSpiMasterVirtualAddrChangeEvent,"aw",@nobits
	.align	3
	.type	mSpiMasterVirtualAddrChangeEvent, @object
	.size	mSpiMasterVirtualAddrChangeEvent, 8
mSpiMasterVirtualAddrChangeEvent:
	.zero	8
	.globl	mSpiMasterInstance
	.section	.bss.mSpiMasterInstance,"aw",@nobits
	.align	3
	.type	mSpiMasterInstance, @object
	.size	mSpiMasterInstance, 8
mSpiMasterInstance:
	.zero	8
	.section	.data.Reg_offset_table,"aw"
	.align	3
	.type	Reg_offset_table, @object
	.size	Reg_offset_table, 132
Reg_offset_table:
	.word	0
	.word	4
	.word	8
	.word	12
	.word	16
	.word	20
	.word	24
	.word	28
	.word	32
	.word	36
	.word	48
	.word	52
	.word	56
	.word	256
	.word	260
	.word	264
	.word	268
	.word	272
	.word	336
	.word	340
	.word	344
	.word	348
	.word	352
	.word	356
	.word	360
	.word	364
	.word	384
	.word	388
	.word	392
	.word	396
	.word	400
	.word	768
	.word	772
	.section	.text.QspiRegwrite32,"ax",@progbits
	.align	1
	.type	QspiRegwrite32, @function
QspiRegwrite32:
.LFB1:
	.file 2 "/home/kapoagaeming/Downloads/spacemit-image-builder/components/edk2-platforms/Silicon/Spacemit/K1/Drivers/QspiDxe/QspiDxe.c"
	.loc 2 35 1
	.cfi_startproc
	addi	sp,sp,-32
	.cfi_def_cfa_offset 32
	sd	ra,24(sp)
	sd	s0,16(sp)
	.cfi_offset 1, -8
	.cfi_offset 8, -16
	addi	s0,sp,32
	.cfi_def_cfa 8, 0
	sd	a0,-24(s0)
	mv	a5,a1
	mv	a4,a2
	sw	a5,-28(s0)
	mv	a5,a4
	sw	a5,-32(s0)
	.loc 2 36 24
	ld	a5,-24(s0)
	ld	a4,40(a5)
	.loc 2 36 3
	lwu	a5,-28(s0)
	add	a5,a4,a5
	lw	a4,-32(s0)
	mv	a1,a4
	mv	a0,a5
	call	MmioWrite32@plt
	.loc 2 37 1
	nop
	ld	ra,24(sp)
	.cfi_restore 1
	ld	s0,16(sp)
	.cfi_restore 8
	.cfi_def_cfa 2, 32
	addi	sp,sp,32
	.cfi_def_cfa_offset 0
	jr	ra
	.cfi_endproc
.LFE1:
	.size	QspiRegwrite32, .-QspiRegwrite32
	.section	.text.QspiRegRead32,"ax",@progbits
	.align	1
	.type	QspiRegRead32, @function
QspiRegRead32:
.LFB2:
	.loc 2 45 1
	.cfi_startproc
	addi	sp,sp,-32
	.cfi_def_cfa_offset 32
	sd	ra,24(sp)
	sd	s0,16(sp)
	.cfi_offset 1, -8
	.cfi_offset 8, -16
	addi	s0,sp,32
	.cfi_def_cfa 8, 0
	sd	a0,-24(s0)
	mv	a5,a1
	sw	a5,-28(s0)
	.loc 2 46 30
	ld	a5,-24(s0)
	ld	a4,40(a5)
	.loc 2 46 10
	lwu	a5,-28(s0)
	add	a5,a4,a5
	mv	a0,a5
	call	MmioRead32@plt
	mv	a5,a0
	.loc 2 47 1
	mv	a0,a5
	ld	ra,24(sp)
	.cfi_restore 1
	ld	s0,16(sp)
	.cfi_restore 8
	.cfi_def_cfa 2, 32
	addi	sp,sp,32
	.cfi_def_cfa_offset 0
	jr	ra
	.cfi_endproc
.LFE2:
	.size	QspiRegRead32, .-QspiRegRead32
	.section	.text.QspiDumpReg,"ax",@progbits
	.align	1
	.type	QspiDumpReg, @function
QspiDumpReg:
.LFB3:
	.loc 2 54 1
	.cfi_startproc
	addi	sp,sp,-48
	.cfi_def_cfa_offset 48
	sd	ra,40(sp)
	sd	s0,32(sp)
	.cfi_offset 1, -8
	.cfi_offset 8, -16
	addi	s0,sp,48
	.cfi_def_cfa 8, 0
	sd	a0,-40(s0)
	.loc 2 55 10
	sw	zero,-24(s0)
	.loc 2 58 7
	call	EfiAtRuntime@plt
	mv	a5,a0
	.loc 2 58 6 discriminator 1
	bne	a5,zero,.L22
	.loc 2 63 10
	sw	zero,-20(s0)
	.loc 2 63 3
	j	.L15
.L17:
	.loc 2 68 11
	lla	a4,Reg_offset_table
	lw	a5,-20(s0)
	slli	a5,a5,2
	add	a5,a4,a5
	lw	a5,0(a5)
	mv	a1,a5
	ld	a0,-40(s0)
	call	QspiRegRead32
	mv	a5,a0
	sw	a5,-24(s0)
	.loc 2 63 82 discriminator 2
	lw	a5,-20(s0)
	addiw	a5,a5,1
	sw	a5,-20(s0)
.L15:
	.loc 2 63 17 discriminator 1
	lw	a4,-20(s0)
	li	a5,32
	bleu	a4,a5,.L17
	.loc 2 76 10
	sw	zero,-20(s0)
	.loc 2 76 3
	j	.L18
.L19:
	.loc 2 77 56
	lw	a5,-20(s0)
	addiw	a5,a5,196
	sext.w	a5,a5
	slliw	a5,a5,2
	sext.w	a5,a5
	.loc 2 77 11
	mv	a1,a5
	ld	a0,-40(s0)
	call	QspiRegRead32
	mv	a5,a0
	sw	a5,-24(s0)
	.loc 2 76 23 discriminator 2
	lw	a5,-20(s0)
	addiw	a5,a5,1
	sw	a5,-20(s0)
.L18:
	.loc 2 76 17 discriminator 1
	lw	a5,-20(s0)
	sext.w	a4,a5
	li	a5,3
	ble	a4,a5,.L19
	.loc 2 85 10
	sw	zero,-20(s0)
	.loc 2 85 3
	j	.L20
.L21:
	.loc 2 86 56
	lw	a5,-20(s0)
	addiw	a5,a5,200
	sext.w	a5,a5
	slliw	a5,a5,2
	sext.w	a5,a5
	.loc 2 86 11
	mv	a1,a5
	ld	a0,-40(s0)
	call	QspiRegRead32
	mv	a5,a0
	sw	a5,-24(s0)
	.loc 2 85 23 discriminator 2
	lw	a5,-20(s0)
	addiw	a5,a5,1
	sw	a5,-20(s0)
.L20:
	.loc 2 85 17 discriminator 1
	lw	a5,-20(s0)
	sext.w	a4,a5
	li	a5,3
	ble	a4,a5,.L21
	j	.L12
.L22:
	.loc 2 59 5
	nop
.L12:
	.loc 2 94 1
	ld	ra,40(sp)
	.cfi_restore 1
	ld	s0,32(sp)
	.cfi_restore 8
	.cfi_def_cfa 2, 48
	addi	sp,sp,48
	.cfi_def_cfa_offset 0
	jr	ra
	.cfi_endproc
.LFE3:
	.size	QspiDumpReg, .-QspiDumpReg
	.section	.text.QspiMfpConfig,"ax",@progbits
	.align	1
	.type	QspiMfpConfig, @function
QspiMfpConfig:
.LFB4:
	.loc 2 101 1
	.cfi_startproc
	addi	sp,sp,-16
	.cfi_def_cfa_offset 16
	sd	ra,8(sp)
	sd	s0,0(sp)
	.cfi_offset 1, -8
	.cfi_offset 8, -16
	addi	s0,sp,16
	.cfi_def_cfa 8, 0
	.loc 2 102 3
	li	a5,53248
	addi	a1,a5,-2048
	li	a5,1778446336
	slli	a5,a5,1
	addi	a0,a5,372
	call	MmioWrite32@plt
	.loc 2 103 3
	li	a5,53248
	addi	a1,a5,-2048
	li	a5,1778446336
	slli	a5,a5,1
	addi	a0,a5,368
	call	MmioWrite32@plt
	.loc 2 104 3
	li	a5,4096
	addi	a1,a5,-2048
	li	a5,1778446336
	slli	a5,a5,1
	addi	a0,a5,364
	call	MmioWrite32@plt
	.loc 2 105 3
	li	a5,4096
	addi	a1,a5,-2048
	li	a5,1778446336
	slli	a5,a5,1
	addi	a0,a5,360
	call	MmioWrite32@plt
	.loc 2 106 3
	li	a5,4096
	addi	a1,a5,-2048
	li	a5,1778446336
	slli	a5,a5,1
	addi	a0,a5,380
	call	MmioWrite32@plt
	.loc 2 107 3
	li	a5,53248
	addi	a1,a5,-2048
	li	a5,1778446336
	slli	a5,a5,1
	addi	a0,a5,376
	call	MmioWrite32@plt
	.loc 2 108 1
	nop
	ld	ra,8(sp)
	.cfi_restore 1
	ld	s0,0(sp)
	.cfi_restore 8
	.cfi_def_cfa 2, 16
	addi	sp,sp,16
	.cfi_def_cfa_offset 0
	jr	ra
	.cfi_endproc
.LFE4:
	.size	QspiMfpConfig, .-QspiMfpConfig
	.section	.text.QspiMmioRemap,"ax",@progbits
	.align	1
	.type	QspiMmioRemap, @function
QspiMmioRemap:
.LFB5:
	.loc 2 115 1
	.cfi_startproc
	addi	sp,sp,-16
	.cfi_def_cfa_offset 16
	sd	ra,8(sp)
	sd	s0,0(sp)
	.cfi_offset 1, -8
	.cfi_offset 8, -16
	addi	s0,sp,16
	.cfi_def_cfa 8, 0
	.loc 2 116 3
	li	a1,4096
	li	a5,1778446336
	slli	a0,a5,1
	call	MapRegToGcdMmioSpace@plt
	.loc 2 117 3
	li	a1,4096
	li	a5,1736704
	addi	a5,a5,1285
	slli	a0,a5,11
	call	MapRegToGcdMmioSpace@plt
	.loc 2 118 3
	li	a1,4096
	li	a5,889274368
	addi	a5,a5,1033
	slli	a0,a5,2
	call	MapRegToGcdMmioSpace@plt
	.loc 2 120 3
	li	a1,13631488
	li	a5,23
	slli	a0,a5,27
	call	MapRegToGcdRunTimeMmioSpace@plt
	.loc 2 121 3
	la	a5,_gPcd_FixedAtBuild_PcdQspiRegBase
	lw	a5,0(a5)
	slli	a5,a5,32
	srli	a5,a5,32
	li	a1,4096
	mv	a0,a5
	call	MapRegToGcdRunTimeMmioSpace@plt
	.loc 2 122 1
	nop
	ld	ra,8(sp)
	.cfi_restore 1
	ld	s0,0(sp)
	.cfi_restore 8
	.cfi_def_cfa 2, 16
	addi	sp,sp,16
	.cfi_def_cfa_offset 0
	jr	ra
	.cfi_endproc
.LFE5:
	.size	QspiMmioRemap, .-QspiMmioRemap
	.section	.text.QspiPollRegStatus,"ax",@progbits
	.align	1
	.type	QspiPollRegStatus, @function
QspiPollRegStatus:
.LFB6:
	.loc 2 133 1
	.cfi_startproc
	addi	sp,sp,-64
	.cfi_def_cfa_offset 64
	sd	ra,56(sp)
	sd	s0,48(sp)
	.cfi_offset 1, -8
	.cfi_offset 8, -16
	addi	s0,sp,64
	.cfi_def_cfa 8, 0
	sd	a0,-40(s0)
	mv	a5,a1
	sw	a5,-44(s0)
	mv	a5,a2
	sw	a5,-48(s0)
	mv	a5,a3
	sw	a5,-52(s0)
	mv	a5,a4
	sw	a5,-56(s0)
	.loc 2 136 13
	lw	a5,-56(s0)
	mv	a4,a5
	li	a5,1000
	mulw	a5,a4,a5
	sw	a5,-20(s0)
.L30:
	.loc 2 138 19
	lw	a5,-44(s0)
	mv	a1,a5
	ld	a0,-40(s0)
	call	QspiRegRead32
	mv	a5,a0
	mv	a3,a5
	.loc 2 138 55 discriminator 1
	lw	a5,-48(s0)
	mv	a4,a5
	mv	a5,a3
	and	a5,a4,a5
	sext.w	a5,a5
	.loc 2 138 8 discriminator 1
	lw	a4,-52(s0)
	sext.w	a4,a4
	beq	a4,a5,.L32
	.loc 2 142 5
	li	a0,1
	call	MicroSecondDelay@plt
	.loc 2 143 19
	lw	a5,-20(s0)
	addiw	a4,a5,-1
	sw	a4,-20(s0)
	.loc 2 143 8
	bne	a5,zero,.L30
	.loc 2 148 14
	li	a5,-1
	slli	a5,a5,63
	addi	a5,a5,18
	j	.L29
.L32:
	.loc 2 139 7
	nop
	.loc 2 152 10
	li	a5,0
.L29:
	.loc 2 153 1
	mv	a0,a5
	ld	ra,56(sp)
	.cfi_restore 1
	ld	s0,48(sp)
	.cfi_restore 8
	.cfi_def_cfa 2, 64
	addi	sp,sp,64
	.cfi_def_cfa_offset 0
	jr	ra
	.cfi_endproc
.LFE6:
	.size	QspiPollRegStatus, .-QspiPollRegStatus
	.section	.text.QspiClkEnable,"ax",@progbits
	.align	1
	.type	QspiClkEnable, @function
QspiClkEnable:
.LFB7:
	.loc 2 160 1
	.cfi_startproc
	addi	sp,sp,-16
	.cfi_def_cfa_offset 16
	sd	ra,8(sp)
	sd	s0,0(sp)
	.cfi_offset 1, -8
	.cfi_offset 8, -16
	addi	s0,sp,16
	.cfi_def_cfa 8, 0
	.loc 2 161 3
	li	a1,24
	li	a5,111230976
	addi	a5,a5,323
	slli	a0,a5,5
	call	MmioOr32@plt
	.loc 2 162 3
	li	a1,3
	li	a5,111230976
	addi	a5,a5,323
	slli	a0,a5,5
	call	MmioOr32@plt
	.loc 2 163 1
	nop
	ld	ra,8(sp)
	.cfi_restore 1
	ld	s0,0(sp)
	.cfi_restore 8
	.cfi_def_cfa 2, 16
	addi	sp,sp,16
	.cfi_def_cfa_offset 0
	jr	ra
	.cfi_endproc
.LFE7:
	.size	QspiClkEnable, .-QspiClkEnable
	.section	.text.QspiClkDisable,"ax",@progbits
	.align	1
	.type	QspiClkDisable, @function
QspiClkDisable:
.LFB8:
	.loc 2 170 1
	.cfi_startproc
	addi	sp,sp,-16
	.cfi_def_cfa_offset 16
	sd	ra,8(sp)
	sd	s0,0(sp)
	.cfi_offset 1, -8
	.cfi_offset 8, -16
	addi	s0,sp,16
	.cfi_def_cfa 8, 0
	.loc 2 171 3
	li	a1,-25
	li	a5,111230976
	addi	a5,a5,323
	slli	a0,a5,5
	call	MmioAnd32@plt
	.loc 2 172 3
	li	a1,-4
	li	a5,111230976
	addi	a5,a5,323
	slli	a0,a5,5
	call	MmioAnd32@plt
	.loc 2 173 1
	nop
	ld	ra,8(sp)
	.cfi_restore 1
	ld	s0,0(sp)
	.cfi_restore 8
	.cfi_def_cfa 2, 16
	addi	sp,sp,16
	.cfi_def_cfa_offset 0
	jr	ra
	.cfi_endproc
.LFE8:
	.size	QspiClkDisable, .-QspiClkDisable
	.section	.text.QspiWriteRbct,"ax",@progbits
	.align	1
	.type	QspiWriteRbct, @function
QspiWriteRbct:
.LFB9:
	.loc 2 185 1
	.cfi_startproc
	addi	sp,sp,-48
	.cfi_def_cfa_offset 48
	sd	ra,40(sp)
	sd	s0,32(sp)
	.cfi_offset 1, -8
	.cfi_offset 8, -16
	addi	s0,sp,48
	.cfi_def_cfa 8, 0
	sd	a0,-40(s0)
	mv	a5,a1
	sw	a5,-44(s0)
.L38:
	.loc 2 189 5
	lw	a5,-44(s0)
	mv	a2,a5
	li	a1,272
	ld	a0,-40(s0)
	call	QspiRegwrite32
	.loc 2 190 12
	li	a1,352
	ld	a0,-40(s0)
	call	QspiRegRead32
	mv	a5,a0
	sw	a5,-20(s0)
	.loc 2 191 16
	lw	a5,-20(s0)
	andi	a5,a5,64
	sext.w	a5,a5
	.loc 2 191 8
	beq	a5,zero,.L40
	.loc 2 195 10
	lw	a5,-20(s0)
	andi	a5,a5,64
	sw	a5,-20(s0)
	.loc 2 196 5
	lw	a5,-20(s0)
	mv	a2,a5
	li	a1,352
	ld	a0,-40(s0)
	call	QspiRegwrite32
	.loc 2 198 5
	li	a0,1
	call	MicroSecondDelay@plt
	.loc 2 189 5
	j	.L38
.L40:
	.loc 2 192 7
	nop
	.loc 2 200 1
	nop
	ld	ra,40(sp)
	.cfi_restore 1
	ld	s0,32(sp)
	.cfi_restore 8
	.cfi_def_cfa 2, 48
	addi	sp,sp,48
	.cfi_def_cfa_offset 0
	jr	ra
	.cfi_endproc
.LFE9:
	.size	QspiWriteRbct, .-QspiWriteRbct
	.section	.text.QspiWriteSfar,"ax",@progbits
	.align	1
	.type	QspiWriteSfar, @function
QspiWriteSfar:
.LFB10:
	.loc 2 208 1
	.cfi_startproc
	addi	sp,sp,-48
	.cfi_def_cfa_offset 48
	sd	ra,40(sp)
	sd	s0,32(sp)
	.cfi_offset 1, -8
	.cfi_offset 8, -16
	addi	s0,sp,48
	.cfi_def_cfa 8, 0
	sd	a0,-40(s0)
	mv	a5,a1
	sw	a5,-44(s0)
.L44:
	.loc 2 212 5
	lw	a5,-44(s0)
	mv	a2,a5
	li	a1,256
	ld	a0,-40(s0)
	call	QspiRegwrite32
	.loc 2 213 12
	li	a1,352
	ld	a0,-40(s0)
	call	QspiRegRead32
	mv	a5,a0
	sw	a5,-20(s0)
	.loc 2 214 16
	lw	a5,-20(s0)
	andi	a5,a5,64
	sext.w	a5,a5
	.loc 2 214 8
	beq	a5,zero,.L46
	.loc 2 218 10
	lw	a5,-20(s0)
	andi	a5,a5,64
	sw	a5,-20(s0)
	.loc 2 219 5
	lw	a5,-20(s0)
	mv	a2,a5
	li	a1,352
	ld	a0,-40(s0)
	call	QspiRegwrite32
	.loc 2 221 5
	li	a0,1
	call	MicroSecondDelay@plt
	.loc 2 212 5
	j	.L44
.L46:
	.loc 2 215 7
	nop
	.loc 2 223 1
	nop
	ld	ra,40(sp)
	.cfi_restore 1
	ld	s0,32(sp)
	.cfi_restore 8
	.cfi_def_cfa 2, 48
	addi	sp,sp,48
	.cfi_def_cfa_offset 0
	jr	ra
	.cfi_endproc
.LFE10:
	.size	QspiWriteSfar, .-QspiWriteSfar
	.section	.text.QspiSwtichMode,"ax",@progbits
	.align	1
	.type	QspiSwtichMode, @function
QspiSwtichMode:
.LFB11:
	.loc 2 231 1
	.cfi_startproc
	addi	sp,sp,-48
	.cfi_def_cfa_offset 48
	sd	ra,40(sp)
	sd	s0,32(sp)
	.cfi_offset 1, -8
	.cfi_offset 8, -16
	addi	s0,sp,48
	.cfi_def_cfa 8, 0
	sd	a0,-40(s0)
	mv	a5,a1
	sw	a5,-44(s0)
	.loc 2 234 9
	li	a1,0
	ld	a0,-40(s0)
	call	QspiRegRead32
	mv	a5,a0
	sw	a5,-20(s0)
	.loc 2 235 6
	lw	a5,-44(s0)
	sext.w	a5,a5
	bne	a5,zero,.L48
	.loc 2 236 9
	lw	a5,-20(s0)
	mv	a4,a5
	li	a5,-16384
	addi	a5,a5,-1
	and	a5,a4,a5
	sw	a5,-20(s0)
	j	.L49
.L48:
	.loc 2 237 13
	lw	a5,-44(s0)
	sext.w	a4,a5
	li	a5,1
	bne	a4,a5,.L49
	.loc 2 238 9
	lw	a5,-20(s0)
	mv	a4,a5
	li	a5,16384
	or	a5,a4,a5
	sw	a5,-20(s0)
.L49:
	.loc 2 241 3
	lw	a5,-20(s0)
	mv	a2,a5
	li	a1,0
	ld	a0,-40(s0)
	call	QspiRegwrite32
	.loc 2 242 1
	nop
	ld	ra,40(sp)
	.cfi_restore 1
	ld	s0,32(sp)
	.cfi_restore 8
	.cfi_def_cfa 2, 48
	addi	sp,sp,48
	.cfi_def_cfa_offset 0
	jr	ra
	.cfi_endproc
.LFE11:
	.size	QspiSwtichMode, .-QspiSwtichMode
	.section	.text.QspiLockLut,"ax",@progbits
	.align	1
	.globl	QspiLockLut
	.type	QspiLockLut, @function
QspiLockLut:
.LFB12:
	.loc 2 248 1
	.cfi_startproc
	addi	sp,sp,-48
	.cfi_def_cfa_offset 48
	sd	ra,40(sp)
	sd	s0,32(sp)
	.cfi_offset 1, -8
	.cfi_offset 8, -16
	addi	s0,sp,48
	.cfi_def_cfa 8, 0
	sd	a0,-40(s0)
	.loc 2 251 11
	li	a1,772
	ld	a0,-40(s0)
	call	QspiRegRead32
	mv	a5,a0
	sw	a5,-20(s0)
	.loc 2 252 13
	lw	a5,-20(s0)
	andi	a5,a5,1
	sext.w	a5,a5
	.loc 2 252 6
	bne	a5,zero,.L53
	.loc 2 256 3
	li	a5,1525702656
	addi	a2,a5,-1296
	li	a1,768
	ld	a0,-40(s0)
	call	QspiRegwrite32
	.loc 2 257 3
	li	a2,1
	li	a1,772
	ld	a0,-40(s0)
	call	QspiRegwrite32
	j	.L50
.L53:
	.loc 2 253 5
	nop
.L50:
	.loc 2 258 1
	ld	ra,40(sp)
	.cfi_restore 1
	ld	s0,32(sp)
	.cfi_restore 8
	.cfi_def_cfa 2, 48
	addi	sp,sp,48
	.cfi_def_cfa_offset 0
	jr	ra
	.cfi_endproc
.LFE12:
	.size	QspiLockLut, .-QspiLockLut
	.section	.text.QspiUnlockLut,"ax",@progbits
	.align	1
	.globl	QspiUnlockLut
	.type	QspiUnlockLut, @function
QspiUnlockLut:
.LFB13:
	.loc 2 264 1
	.cfi_startproc
	addi	sp,sp,-48
	.cfi_def_cfa_offset 48
	sd	ra,40(sp)
	sd	s0,32(sp)
	.cfi_offset 1, -8
	.cfi_offset 8, -16
	addi	s0,sp,48
	.cfi_def_cfa 8, 0
	sd	a0,-40(s0)
	.loc 2 267 11
	li	a1,772
	ld	a0,-40(s0)
	call	QspiRegRead32
	mv	a5,a0
	sw	a5,-20(s0)
	.loc 2 268 13
	lw	a5,-20(s0)
	andi	a5,a5,2
	sext.w	a5,a5
	.loc 2 268 6
	bne	a5,zero,.L57
	.loc 2 272 3
	li	a5,1525702656
	addi	a2,a5,-1296
	li	a1,768
	ld	a0,-40(s0)
	call	QspiRegwrite32
	.loc 2 273 3
	li	a2,2
	li	a1,772
	ld	a0,-40(s0)
	call	QspiRegwrite32
	j	.L54
.L57:
	.loc 2 269 5
	nop
.L54:
	.loc 2 274 1
	ld	ra,40(sp)
	.cfi_restore 1
	ld	s0,32(sp)
	.cfi_restore 8
	.cfi_def_cfa 2, 48
	addi	sp,sp,48
	.cfi_def_cfa_offset 0
	jr	ra
	.cfi_endproc
.LFE13:
	.size	QspiUnlockLut, .-QspiUnlockLut
	.section	.text.QspiReset,"ax",@progbits
	.align	1
	.type	QspiReset, @function
QspiReset:
.LFB14:
	.loc 2 286 1
	.cfi_startproc
	addi	sp,sp,-48
	.cfi_def_cfa_offset 48
	sd	ra,40(sp)
	sd	s0,32(sp)
	.cfi_offset 1, -8
	.cfi_offset 8, -16
	addi	s0,sp,48
	.cfi_def_cfa 8, 0
	sd	a0,-40(s0)
.L61:
	.loc 2 290 11
	li	a1,348
	ld	a0,-40(s0)
	call	QspiRegRead32
	mv	a5,a0
	.loc 2 290 45 discriminator 1
	andi	a5,a5,1
	sext.w	a5,a5
	.loc 2 290 8 discriminator 1
	bne	a5,zero,.L61
	.loc 2 291 11
	li	a1,352
	ld	a0,-40(s0)
	call	QspiRegRead32
	mv	a5,a0
	.loc 2 291 45 discriminator 1
	andi	a5,a5,2
	sext.w	a5,a5
	.loc 2 290 59 discriminator 2
	beq	a5,zero,.L63
	.loc 2 290 8
	j	.L61
.L63:
	.loc 2 293 7
	nop
	.loc 2 298 8
	li	a5,3
	sw	a5,-20(s0)
	.loc 2 299 9
	li	a1,0
	ld	a0,-40(s0)
	call	QspiRegRead32
	mv	a5,a0
	sw	a5,-24(s0)
	.loc 2 300 7
	lw	a5,-24(s0)
	mv	a4,a5
	lw	a5,-20(s0)
	or	a5,a4,a5
	sw	a5,-24(s0)
	.loc 2 301 3
	lw	a5,-24(s0)
	mv	a2,a5
	li	a1,0
	ld	a0,-40(s0)
	call	QspiRegwrite32
	.loc 2 303 9
	li	a1,0
	ld	a0,-40(s0)
	call	QspiRegRead32
	mv	a5,a0
	sw	a5,-24(s0)
	.loc 2 312 3
	li	a0,1
	call	MicroSecondDelay@plt
	.loc 2 314 10
	lw	a5,-20(s0)
	not	a5,a5
	sext.w	a5,a5
	.loc 2 314 7
	lw	a4,-24(s0)
	and	a5,a4,a5
	sw	a5,-24(s0)
	.loc 2 315 3
	lw	a5,-24(s0)
	mv	a2,a5
	li	a1,0
	ld	a0,-40(s0)
	call	QspiRegwrite32
	.loc 2 316 1
	nop
	ld	ra,40(sp)
	.cfi_restore 1
	ld	s0,32(sp)
	.cfi_restore 8
	.cfi_def_cfa 2, 48
	addi	sp,sp,48
	.cfi_def_cfa_offset 0
	jr	ra
	.cfi_endproc
.LFE14:
	.size	QspiReset, .-QspiReset
	.section	.text.QspiConfigXipRead,"ax",@progbits
	.align	1
	.type	QspiConfigXipRead, @function
QspiConfigXipRead:
.LFB15:
	.loc 2 325 1
	.cfi_startproc
	addi	sp,sp,-48
	.cfi_def_cfa_offset 48
	sd	ra,40(sp)
	sd	s0,32(sp)
	.cfi_offset 1, -8
	.cfi_offset 8, -16
	addi	s0,sp,48
	.cfi_def_cfa 8, 0
	sd	a0,-40(s0)
	mv	a5,a1
	mv	a4,a2
	sw	a5,-44(s0)
	mv	a5,a4
	sw	a5,-48(s0)
	.loc 2 328 36
	lw	a5,-44(s0)
	srliw	a5,a5,3
	sext.w	a5,a5
	.loc 2 328 41
	slliw	a5,a5,8
	sext.w	a5,a5
	.loc 2 328 10
	mv	a4,a5
	li	a5,-2147483648
	or	a5,a4,a5
	sw	a5,-20(s0)
	.loc 2 334 3
	li	a2,0
	li	a1,48
	ld	a0,-40(s0)
	call	QspiRegwrite32
	.loc 2 335 3
	li	a2,0
	li	a1,52
	ld	a0,-40(s0)
	call	QspiRegwrite32
	.loc 2 336 3
	li	a2,0
	li	a1,56
	ld	a0,-40(s0)
	call	QspiRegwrite32
	.loc 2 339 3
	li	a2,14
	li	a1,16
	ld	a0,-40(s0)
	call	QspiRegwrite32
	.loc 2 340 3
	li	a2,14
	li	a1,20
	ld	a0,-40(s0)
	call	QspiRegwrite32
	.loc 2 341 3
	li	a2,14
	li	a1,24
	ld	a0,-40(s0)
	call	QspiRegwrite32
	.loc 2 342 3
	lw	a5,-20(s0)
	mv	a2,a5
	li	a1,28
	ld	a0,-40(s0)
	call	QspiRegwrite32
	.loc 2 344 3
	lw	a5,-48(s0)
	slliw	a5,a5,12
	sext.w	a5,a5
	mv	a2,a5
	li	a1,32
	ld	a0,-40(s0)
	call	QspiRegwrite32
	.loc 2 346 1
	nop
	ld	ra,40(sp)
	.cfi_restore 1
	ld	s0,32(sp)
	.cfi_restore 8
	.cfi_def_cfa 2, 48
	addi	sp,sp,48
	.cfi_def_cfa_offset 0
	jr	ra
	.cfi_endproc
.LFE15:
	.size	QspiConfigXipRead, .-QspiConfigXipRead
	.section	.text.IsReadFromCacheOpcode,"ax",@progbits
	.align	1
	.type	IsReadFromCacheOpcode, @function
IsReadFromCacheOpcode:
.LFB16:
	.loc 2 353 1
	.cfi_startproc
	addi	sp,sp,-48
	.cfi_def_cfa_offset 48
	sd	ra,40(sp)
	sd	s0,32(sp)
	.cfi_offset 1, -8
	.cfi_offset 8, -16
	addi	s0,sp,48
	.cfi_def_cfa 8, 0
	mv	a5,a0
	sb	a5,-33(s0)
	.loc 2 356 27
	lbu	a5,-33(s0)
	andi	a4,a5,0xff
	li	a5,3
	beq	a4,a5,.L66
	.loc 2 356 27 is_stmt 0 discriminator 2
	lbu	a5,-33(s0)
	andi	a4,a5,0xff
	li	a5,11
	bne	a4,a5,.L67
.L66:
	.loc 2 356 27 discriminator 3
	li	a5,1
	.loc 2 356 27
	j	.L68
.L67:
	.loc 2 356 27 discriminator 4
	li	a5,0
.L68:
	.loc 2 356 7 is_stmt 1 discriminator 6
	sb	a5,-17(s0)
	.loc 2 359 10
	lbu	a5,-17(s0)
	.loc 2 360 1
	mv	a0,a5
	ld	ra,40(sp)
	.cfi_restore 1
	ld	s0,32(sp)
	.cfi_restore 8
	.cfi_def_cfa 2, 48
	addi	sp,sp,48
	.cfi_def_cfa_offset 0
	jr	ra
	.cfi_endproc
.LFE16:
	.size	IsReadFromCacheOpcode, .-IsReadFromCacheOpcode
	.section	.text.QspiConfigLookupTable,"ax",@progbits
	.align	1
	.type	QspiConfigLookupTable, @function
QspiConfigLookupTable:
.LFB17:
	.loc 2 369 1
	.cfi_startproc
	addi	sp,sp,-96
	.cfi_def_cfa_offset 96
	sd	ra,88(sp)
	sd	s0,80(sp)
	sd	s1,72(sp)
	.cfi_offset 1, -8
	.cfi_offset 8, -16
	.cfi_offset 9, -24
	addi	s0,sp,96
	.cfi_def_cfa 8, 0
	sd	a0,-72(s0)
	sd	a1,-80(s0)
	mv	a5,a2
	sw	a5,-84(s0)
	.loc 2 372 9
	sb	zero,-33(s0)
	.loc 2 374 10
	ld	a5,-80(s0)
	lbu	a5,2(a5)
	sb	a5,-35(s0)
	.loc 2 377 64
	ld	a5,-80(s0)
	lbu	a5,0(a5)
	.loc 2 377 53
	sext.w	a5,a5
	mv	a0,a5
	call	fls
	mv	a5,a0
	.loc 2 377 75 discriminator 1
	slli	a5,a5,48
	srli	a5,a5,48
	addiw	a5,a5,-1
	slli	a5,a5,48
	srli	a5,a5,48
	.loc 2 377 81 discriminator 1
	slliw	a5,a5,8
	slli	a4,a5,48
	srli	a4,a4,48
	.loc 2 377 87 discriminator 1
	lbu	a5,-35(s0)
	slli	a5,a5,48
	srli	a5,a5,48
	or	a5,a4,a5
	slli	a4,a5,48
	srli	a4,a4,48
	.loc 2 377 17 discriminator 1
	lbu	a5,-33(s0)
	addiw	a3,a5,1
	sb	a3,-33(s0)
	sext.w	a3,a5
	.loc 2 377 87 discriminator 1
	ori	a5,a4,1024
	slli	a4,a5,48
	srli	a4,a4,48
	.loc 2 377 21 discriminator 1
	addi	a5,s0,-56
	slli	a3,a3,1
	add	a5,a3,a5
	sh	a4,0(a5)
	.loc 2 384 15
	ld	a5,-80(s0)
	lbu	a5,9(a5)
	.loc 2 384 6
	beq	a5,zero,.L71
	.loc 2 385 68
	ld	a5,-80(s0)
	lbu	a5,8(a5)
	.loc 2 385 56
	sext.w	a5,a5
	mv	a0,a5
	call	fls
	mv	a5,a0
	.loc 2 385 79 discriminator 1
	slli	a5,a5,48
	srli	a5,a5,48
	addiw	a5,a5,-1
	slli	a5,a5,48
	srli	a5,a5,48
	.loc 2 385 85 discriminator 1
	slliw	a5,a5,8
	slli	a4,a5,48
	srli	a4,a4,48
	.loc 2 385 102 discriminator 1
	ld	a5,-80(s0)
	lbu	a5,9(a5)
	sext.w	a5,a5
	.loc 2 385 110 discriminator 1
	slliw	a5,a5,3
	sext.w	a3,a5
	.loc 2 385 124 discriminator 1
	ld	a5,-80(s0)
	lbu	a5,8(a5)
	sext.w	a5,a5
	.loc 2 385 114 discriminator 1
	divw	a5,a3,a5
	sext.w	a5,a5
	.loc 2 385 91 discriminator 1
	slli	a5,a5,48
	srli	a5,a5,48
	or	a5,a4,a5
	slli	a4,a5,48
	srli	a4,a4,48
	.loc 2 385 19 discriminator 1
	lbu	a5,-33(s0)
	addiw	a3,a5,1
	sb	a3,-33(s0)
	sext.w	a3,a5
	.loc 2 385 91 discriminator 1
	li	a5,4096
	addi	a5,a5,-2048
	or	a5,a4,a5
	slli	a4,a5,48
	srli	a4,a4,48
	.loc 2 385 23 discriminator 1
	addi	a5,s0,-56
	slli	a3,a3,1
	add	a5,a3,a5
	sh	a4,0(a5)
.L71:
	.loc 2 393 16
	ld	a5,-80(s0)
	lbu	a5,25(a5)
	.loc 2 393 6
	beq	a5,zero,.L72
	.loc 2 394 70
	ld	a5,-80(s0)
	lbu	a5,24(a5)
	.loc 2 394 57
	sext.w	a5,a5
	mv	a0,a5
	call	fls
	mv	a5,a0
	.loc 2 394 81 discriminator 1
	slli	a5,a5,48
	srli	a5,a5,48
	addiw	a5,a5,-1
	slli	a5,a5,48
	srli	a5,a5,48
	.loc 2 394 87 discriminator 1
	slliw	a5,a5,8
	slli	a4,a5,48
	srli	a4,a4,48
	.loc 2 394 105 discriminator 1
	ld	a5,-80(s0)
	lbu	a5,25(a5)
	sext.w	a5,a5
	.loc 2 394 113 discriminator 1
	slliw	a5,a5,3
	sext.w	a3,a5
	.loc 2 394 128 discriminator 1
	ld	a5,-80(s0)
	lbu	a5,24(a5)
	sext.w	a5,a5
	.loc 2 394 117 discriminator 1
	divw	a5,a3,a5
	sext.w	a5,a5
	.loc 2 394 93 discriminator 1
	slli	a5,a5,48
	srli	a5,a5,48
	or	a5,a4,a5
	slli	a4,a5,48
	srli	a4,a4,48
	.loc 2 394 19 discriminator 1
	lbu	a5,-33(s0)
	addiw	a3,a5,1
	sb	a3,-33(s0)
	sext.w	a3,a5
	.loc 2 394 93 discriminator 1
	li	a5,4096
	addi	a5,a5,-1024
	or	a5,a4,a5
	slli	a4,a5,48
	srli	a4,a4,48
	.loc 2 394 23 discriminator 1
	addi	a5,s0,-56
	slli	a3,a3,1
	add	a5,a3,a5
	sh	a4,0(a5)
.L72:
	.loc 2 402 15
	ld	a5,-80(s0)
	lw	a5,36(a5)
	.loc 2 402 6
	beq	a5,zero,.L73
	.loc 2 403 56
	ld	a5,-80(s0)
	lbu	a5,33(a5)
	.loc 2 403 144
	mv	a4,a5
	li	a5,1
	bne	a4,a5,.L74
	.loc 2 403 144 is_stmt 0 discriminator 1
	li	a5,8192
	addi	s1,a5,-1024
	j	.L75
.L74:
	.loc 2 403 144 discriminator 2
	li	s1,8192
.L75:
	.loc 2 403 121 is_stmt 1 discriminator 4
	ld	a5,-80(s0)
	lbu	a5,32(a5)
	.loc 2 403 109 discriminator 4
	sext.w	a5,a5
	mv	a0,a5
	call	fls
	mv	a5,a0
	.loc 2 403 132 discriminator 5
	slli	a5,a5,48
	srli	a5,a5,48
	addiw	a5,a5,-1
	slli	a5,a5,48
	srli	a5,a5,48
	.loc 2 403 138 discriminator 5
	slliw	a5,a5,8
	slli	a4,a5,48
	srli	a4,a4,48
	.loc 2 403 19 discriminator 5
	lbu	a5,-33(s0)
	addiw	a3,a5,1
	sb	a3,-33(s0)
	sext.w	a3,a5
	.loc 2 403 144 discriminator 5
	or	a5,s1,a4
	slli	a4,a5,48
	srli	a4,a4,48
	.loc 2 403 23 discriminator 5
	addi	a5,s0,-56
	slli	a3,a3,1
	add	a5,a3,a5
	sh	a4,0(a5)
.L73:
	.loc 2 412 17
	lbu	a5,-33(s0)
	addiw	a4,a5,1
	sb	a4,-33(s0)
	sext.w	a4,a5
	.loc 2 412 21
	addi	a5,s0,-56
	slli	a4,a4,1
	add	a5,a4,a5
	sh	zero,0(a5)
	.loc 2 415 3
	ld	a0,-72(s0)
	call	QspiUnlockLut
	.loc 2 421 10
	sb	zero,-34(s0)
	.loc 2 421 3
	j	.L76
.L77:
	.loc 2 422 27
	lbu	a5,-34(s0)
	sext.w	a5,a5
	slliw	a5,a5,1
	sext.w	a4,a5
	.loc 2 422 24
	addi	a5,s0,-56
	slli	a4,a4,1
	add	a5,a4,a5
	lhu	a5,0(a5)
	sext.w	a4,a5
	.loc 2 422 46
	lbu	a5,-34(s0)
	sext.w	a5,a5
	slliw	a5,a5,1
	sext.w	a5,a5
	.loc 2 422 50
	addiw	a5,a5,1
	sext.w	a3,a5
	.loc 2 422 43
	addi	a5,s0,-56
	slli	a3,a3,1
	add	a5,a3,a5
	lhu	a5,0(a5)
	sext.w	a5,a5
	.loc 2 422 55
	slliw	a5,a5,16
	sext.w	a5,a5
	.loc 2 422 32
	or	a5,a4,a5
	sext.w	a5,a5
	.loc 2 422 14
	sw	a5,-40(s0)
	.loc 2 423 39
	lw	a5,-84(s0)
	addiw	a5,a5,49
	sext.w	a5,a5
	slliw	a5,a5,4
	sext.w	a5,a5
	.loc 2 423 58
	lbu	a4,-34(s0)
	sext.w	a4,a4
	slliw	a4,a4,2
	sext.w	a4,a4
	.loc 2 423 5
	addw	a5,a5,a4
	sext.w	a5,a5
	lw	a4,-40(s0)
	mv	a2,a4
	mv	a1,a5
	ld	a0,-72(s0)
	call	QspiRegwrite32
	.loc 2 421 31 discriminator 3
	lbu	a5,-34(s0)
	addiw	a5,a5,1
	sb	a5,-34(s0)
.L76:
	.loc 2 421 17 discriminator 1
	lbu	a5,-33(s0)
	srliw	a5,a5,1
	andi	a4,a5,0xff
	lbu	a5,-34(s0)
	andi	a5,a5,0xff
	bltu	a5,a4,.L77
	.loc 2 427 7
	lbu	a5,-33(s0)
	andi	a5,a5,1
	andi	a5,a5,0xff
	.loc 2 427 6
	beq	a5,zero,.L78
	.loc 2 428 31
	lbu	a5,-33(s0)
	sext.w	a5,a5
	addiw	a5,a5,-1
	sext.w	a4,a5
	.loc 2 428 24
	addi	a5,s0,-56
	slli	a4,a4,1
	add	a5,a4,a5
	lhu	a5,0(a5)
	.loc 2 428 14
	sw	a5,-40(s0)
	.loc 2 429 39
	lw	a5,-84(s0)
	addiw	a5,a5,49
	sext.w	a5,a5
	slliw	a5,a5,4
	sext.w	a5,a5
	.loc 2 429 63
	lbu	a4,-33(s0)
	srliw	a4,a4,1
	andi	a4,a4,0xff
	sext.w	a4,a4
	.loc 2 429 68
	slliw	a4,a4,2
	sext.w	a4,a4
	.loc 2 429 5
	addw	a5,a5,a4
	sext.w	a5,a5
	lw	a4,-40(s0)
	mv	a2,a4
	mv	a1,a5
	ld	a0,-72(s0)
	call	QspiRegwrite32
.L78:
	.loc 2 433 3
	ld	a0,-72(s0)
	call	QspiLockLut
	.loc 2 434 1
	nop
	ld	ra,88(sp)
	.cfi_restore 1
	ld	s0,80(sp)
	.cfi_restore 8
	.cfi_def_cfa 2, 96
	ld	s1,72(sp)
	.cfi_restore 9
	addi	sp,sp,96
	.cfi_def_cfa_offset 0
	jr	ra
	.cfi_endproc
.LFE17:
	.size	QspiConfigLookupTable, .-QspiConfigLookupTable
	.section	.text.QspiHostSetClock,"ax",@progbits
	.align	1
	.globl	QspiHostSetClock
	.type	QspiHostSetClock, @function
QspiHostSetClock:
.LFB18:
	.loc 2 441 1
	.cfi_startproc
	addi	sp,sp,-48
	.cfi_def_cfa_offset 48
	sd	ra,40(sp)
	sd	s0,32(sp)
	.cfi_offset 1, -8
	.cfi_offset 8, -16
	addi	s0,sp,48
	.cfi_def_cfa 8, 0
	sd	a0,-40(s0)
	mv	a5,a1
	sw	a5,-44(s0)
	.loc 2 442 10
	sw	zero,-20(s0)
	.loc 2 445 8
	lw	a5,-44(s0)
	slliw	a5,a5,2
	sw	a5,-44(s0)
	.loc 2 447 6
	lw	a5,-44(s0)
	sext.w	a4,a5
	li	a5,495001600
	addi	a5,a5,-1601
	bleu	a4,a5,.L80
	.loc 2 448 10
	li	a5,495001600
	addi	a5,a5,-1600
	sw	a5,-44(s0)
	.loc 2 449 12
	li	a5,6
	sw	a5,-20(s0)
	.loc 2 450 5
	li	a1,2097152
	li	a5,889274368
	addi	a5,a5,1033
	slli	a0,a5,2
	call	MmioOr32@plt
	j	.L81
.L80:
	.loc 2 451 13
	lw	a5,-44(s0)
	sext.w	a4,a5
	li	a5,409001984
	addi	a5,a5,-1985
	bleu	a4,a5,.L82
	.loc 2 452 10
	li	a5,409001984
	addi	a5,a5,-1984
	sw	a5,-44(s0)
	.loc 2 453 12
	sw	zero,-20(s0)
	.loc 2 454 5
	li	a1,1
	li	a5,889274368
	addi	a5,a5,1033
	slli	a0,a5,2
	call	MmioOr32@plt
	j	.L81
.L82:
	.loc 2 455 13
	lw	a5,-44(s0)
	sext.w	a4,a5
	li	a5,306999296
	addi	a5,a5,703
	bleu	a4,a5,.L83
	.loc 2 456 10
	li	a5,306999296
	addi	a5,a5,704
	sw	a5,-44(s0)
	.loc 2 457 12
	li	a5,2
	sw	a5,-20(s0)
	.loc 2 458 5
	li	a1,8192
	li	a5,889274368
	addi	a5,a5,1033
	slli	a0,a5,2
	call	MmioOr32@plt
	j	.L81
.L83:
	.loc 2 459 13
	lw	a5,-44(s0)
	sext.w	a4,a5
	li	a5,244998144
	addi	a5,a5,1855
	bleu	a4,a5,.L84
	.loc 2 460 10
	li	a5,244998144
	addi	a5,a5,1856
	sw	a5,-44(s0)
	.loc 2 461 12
	li	a5,3
	sw	a5,-20(s0)
	.loc 2 462 5
	li	a1,262144
	li	a5,889274368
	addi	a5,a5,1033
	slli	a0,a5,2
	call	MmioOr32@plt
	j	.L81
.L84:
	.loc 2 463 13
	lw	a5,-44(s0)
	sext.w	a4,a5
	li	a5,222998528
	addi	a5,a5,1471
	bleu	a4,a5,.L85
	.loc 2 464 10
	li	a5,222998528
	addi	a5,a5,1472
	sw	a5,-44(s0)
	.loc 2 465 12
	li	a5,4
	sw	a5,-20(s0)
	j	.L81
.L85:
	.loc 2 466 13
	lw	a5,-44(s0)
	sext.w	a4,a5
	li	a5,189001728
	addi	a5,a5,-1729
	bleu	a4,a5,.L86
	.loc 2 467 10
	li	a5,189001728
	addi	a5,a5,-1728
	sw	a5,-44(s0)
	.loc 2 468 12
	li	a5,7
	sw	a5,-20(s0)
	j	.L81
.L86:
	.loc 2 470 10
	li	a5,106000384
	addi	a5,a5,-384
	sw	a5,-44(s0)
	.loc 2 471 12
	li	a5,5
	sw	a5,-20(s0)
.L81:
	.loc 2 474 8
	lw	a5,-44(s0)
	srliw	a5,a5,2
	sw	a5,-44(s0)
	.loc 2 475 21
	ld	a5,-40(s0)
	lw	a4,-44(s0)
	sw	a4,4(a5)
	.loc 2 477 3
	call	QspiClkDisable
	.loc 2 478 3
	lw	a5,-20(s0)
	slliw	a5,a5,6
	sext.w	a5,a5
	mv	a2,a5
	li	a1,-449
	li	a5,111230976
	addi	a5,a5,323
	slli	a0,a5,5
	call	MmioAndThenOr32@plt
	.loc 2 483 3
	call	QspiClkEnable
	.loc 2 486 3
	li	a1,1
	ld	a0,-40(s0)
	call	QspiSwtichMode
	.loc 2 489 6
	lw	a5,-44(s0)
	sext.w	a4,a5
	li	a5,104001536
	addi	a5,a5,-1537
	bgtu	a4,a5,.L87
	.loc 2 490 5
	li	a2,0
	li	a1,264
	ld	a0,-40(s0)
	call	QspiRegwrite32
	j	.L88
.L87:
	.loc 2 492 5
	li	a2,32
	li	a1,264
	ld	a0,-40(s0)
	call	QspiRegwrite32
.L88:
	.loc 2 496 3
	li	a1,0
	ld	a0,-40(s0)
	call	QspiSwtichMode
	.loc 2 499 1
	nop
	ld	ra,40(sp)
	.cfi_restore 1
	ld	s0,32(sp)
	.cfi_restore 8
	.cfi_def_cfa 2, 48
	addi	sp,sp,48
	.cfi_def_cfa_offset 0
	jr	ra
	.cfi_endproc
.LFE18:
	.size	QspiHostSetClock, .-QspiHostSetClock
	.section	.text.QspiXipRead,"ax",@progbits
	.align	1
	.type	QspiXipRead, @function
QspiXipRead:
.LFB19:
	.loc 2 508 1
	.cfi_startproc
	addi	sp,sp,-32
	.cfi_def_cfa_offset 32
	sd	ra,24(sp)
	sd	s0,16(sp)
	.cfi_offset 1, -8
	.cfi_offset 8, -16
	addi	s0,sp,32
	.cfi_def_cfa 8, 0
	sd	a0,-24(s0)
	mv	a5,a1
	mv	a4,a2
	sw	a5,-28(s0)
	mv	a5,a4
	sw	a5,-32(s0)
	.loc 2 516 27
	lwu	a5,-28(s0)
	.loc 2 516 3
	mv	a4,a5
	lwu	a5,-32(s0)
	mv	a2,a5
	mv	a1,a4
	ld	a0,-24(s0)
	call	CopyMem@plt
	.loc 2 517 1
	nop
	ld	ra,24(sp)
	.cfi_restore 1
	ld	s0,16(sp)
	.cfi_restore 8
	.cfi_def_cfa 2, 32
	addi	sp,sp,32
	.cfi_def_cfa_offset 0
	jr	ra
	.cfi_endproc
.LFE19:
	.size	QspiXipRead, .-QspiXipRead
	.section	.text.QspiFillTxFifo,"ax",@progbits
	.align	1
	.type	QspiFillTxFifo, @function
QspiFillTxFifo:
.LFB20:
	.loc 2 526 1
	.cfi_startproc
	addi	sp,sp,-64
	.cfi_def_cfa_offset 64
	sd	ra,56(sp)
	sd	s0,48(sp)
	.cfi_offset 1, -8
	.cfi_offset 8, -16
	addi	s0,sp,64
	.cfi_def_cfa 8, 0
	sd	a0,-40(s0)
	sd	a1,-48(s0)
	mv	a5,a2
	sw	a5,-52(s0)
	.loc 2 530 10
	sw	zero,-20(s0)
	.loc 2 530 3
	j	.L91
.L92:
	.loc 2 531 5
	lw	a5,-20(s0)
	.loc 2 531 25
	ld	a4,-48(s0)
	add	a4,a4,a5
	.loc 2 531 5
	addi	a5,s0,-24
	li	a2,4
	mv	a1,a4
	mv	a0,a5
	call	CopyMem@plt
	.loc 2 532 5
	lw	a5,-24(s0)
	mv	a2,a5
	li	a1,340
	ld	a0,-40(s0)
	call	QspiRegwrite32
	.loc 2 530 35 discriminator 3
	lw	a5,-20(s0)
	addiw	a5,a5,4
	sw	a5,-20(s0)
.L91:
	.loc 2 530 28 discriminator 1
	lw	a5,-52(s0)
	andi	a5,a5,-4
	sext.w	a4,a5
	.loc 2 530 17 discriminator 1
	lw	a5,-20(s0)
	bgtu	a4,a5,.L92
	.loc 2 535 9
	lw	a5,-20(s0)
	.loc 2 535 6
	lw	a4,-52(s0)
	sext.w	a4,a4
	bleu	a4,a5,.L93
	.loc 2 536 5
	lw	a5,-20(s0)
	.loc 2 536 25
	ld	a4,-48(s0)
	add	a4,a4,a5
	.loc 2 536 35
	lw	a5,-20(s0)
	lw	a3,-52(s0)
	subw	a5,a3,a5
	sext.w	a5,a5
	.loc 2 536 5
	slli	a3,a5,32
	srli	a3,a3,32
	addi	a5,s0,-24
	mv	a2,a3
	mv	a1,a4
	mv	a0,a5
	call	CopyMem@plt
	.loc 2 537 5
	lw	a5,-24(s0)
	mv	a2,a5
	li	a1,340
	ld	a0,-40(s0)
	call	QspiRegwrite32
.L93:
	.loc 2 544 10
	lw	a5,-52(s0)
	sw	a5,-20(s0)
	.loc 2 544 3
	j	.L94
.L95:
	.loc 2 545 5
	li	a2,0
	li	a1,340
	ld	a0,-40(s0)
	call	QspiRegwrite32
	.loc 2 544 30 discriminator 3
	lw	a5,-20(s0)
	addiw	a5,a5,4
	sw	a5,-20(s0)
.L94:
	.loc 2 544 20 discriminator 1
	lw	a5,-20(s0)
	sext.w	a4,a5
	li	a5,15
	ble	a4,a5,.L95
	.loc 2 547 1
	nop
	nop
	ld	ra,56(sp)
	.cfi_restore 1
	ld	s0,48(sp)
	.cfi_restore 8
	.cfi_def_cfa 2, 64
	addi	sp,sp,64
	.cfi_def_cfa_offset 0
	jr	ra
	.cfi_endproc
.LFE20:
	.size	QspiFillTxFifo, .-QspiFillTxFifo
	.section	.text.QspiReadRxFifo,"ax",@progbits
	.align	1
	.type	QspiReadRxFifo, @function
QspiReadRxFifo:
.LFB21:
	.loc 2 556 1
	.cfi_startproc
	addi	sp,sp,-64
	.cfi_def_cfa_offset 64
	sd	ra,56(sp)
	sd	s0,48(sp)
	.cfi_offset 1, -8
	.cfi_offset 8, -16
	addi	s0,sp,64
	.cfi_def_cfa 8, 0
	sd	a0,-40(s0)
	sd	a1,-48(s0)
	mv	a5,a2
	sw	a5,-52(s0)
	.loc 2 561 10
	sw	zero,-20(s0)
	.loc 2 561 3
	j	.L97
.L98:
	.loc 2 562 51
	lw	a5,-20(s0)
	sraiw	a4,a5,31
	srliw	a4,a4,30
	addw	a5,a4,a5
	sraiw	a5,a5,2
	sext.w	a5,a5
	.loc 2 562 45
	addiw	a5,a5,128
	sext.w	a5,a5
	slliw	a5,a5,2
	sext.w	a5,a5
	.loc 2 562 11
	mv	a1,a5
	ld	a0,-40(s0)
	call	QspiRegRead32
	mv	a5,a0
	.loc 2 562 9 discriminator 1
	sw	a5,-24(s0)
	.loc 2 563 5
	lw	a5,-20(s0)
	.loc 2 563 21
	ld	a4,-48(s0)
	add	a5,a4,a5
	.loc 2 563 5
	addi	a4,s0,-24
	li	a2,4
	mv	a1,a4
	mv	a0,a5
	call	CopyMem@plt
	.loc 2 561 35 discriminator 3
	lw	a5,-20(s0)
	addiw	a5,a5,4
	sw	a5,-20(s0)
.L97:
	.loc 2 561 28 discriminator 1
	lw	a5,-52(s0)
	andi	a5,a5,-4
	sext.w	a4,a5
	.loc 2 561 17 discriminator 1
	lw	a5,-20(s0)
	bgtu	a4,a5,.L98
	.loc 2 566 9
	lw	a5,-20(s0)
	.loc 2 566 6
	lw	a4,-52(s0)
	sext.w	a4,a4
	bleu	a4,a5,.L100
	.loc 2 567 51
	lw	a5,-20(s0)
	sraiw	a4,a5,31
	srliw	a4,a4,30
	addw	a5,a4,a5
	sraiw	a5,a5,2
	sext.w	a5,a5
	.loc 2 567 45
	addiw	a5,a5,128
	sext.w	a5,a5
	slliw	a5,a5,2
	sext.w	a5,a5
	.loc 2 567 11
	mv	a1,a5
	ld	a0,-40(s0)
	call	QspiRegRead32
	mv	a5,a0
	.loc 2 567 9 discriminator 1
	sw	a5,-24(s0)
	.loc 2 568 5
	lw	a5,-20(s0)
	.loc 2 568 21
	ld	a4,-48(s0)
	add	a4,a4,a5
	.loc 2 568 37
	lw	a5,-20(s0)
	lw	a3,-52(s0)
	subw	a5,a3,a5
	sext.w	a5,a5
	.loc 2 568 5
	slli	a3,a5,32
	srli	a3,a3,32
	addi	a5,s0,-24
	mv	a2,a3
	mv	a1,a5
	mv	a0,a4
	call	CopyMem@plt
.L100:
	.loc 2 570 1
	nop
	ld	ra,56(sp)
	.cfi_restore 1
	ld	s0,48(sp)
	.cfi_restore 8
	.cfi_def_cfa 2, 64
	addi	sp,sp,64
	.cfi_def_cfa_offset 0
	jr	ra
	.cfi_endproc
.LFE21:
	.size	QspiReadRxFifo, .-QspiReadRxFifo
	.section	.text.QspiStartTransfer,"ax",@progbits
	.align	1
	.type	QspiStartTransfer, @function
QspiStartTransfer:
.LFB22:
	.loc 2 579 1
	.cfi_startproc
	addi	sp,sp,-48
	.cfi_def_cfa_offset 48
	sd	ra,40(sp)
	sd	s0,32(sp)
	.cfi_offset 1, -8
	.cfi_offset 8, -16
	addi	s0,sp,48
	.cfi_def_cfa 8, 0
	sd	a0,-40(s0)
	mv	a5,a1
	mv	a4,a2
	sw	a5,-44(s0)
	mv	a5,a4
	sw	a5,-48(s0)
	.loc 2 586 57
	lw	a5,-48(s0)
	slliw	a5,a5,24
	sext.w	a5,a5
	.loc 2 586 3
	lw	a4,-44(s0)
	or	a5,a4,a5
	sext.w	a5,a5
	mv	a2,a5
	li	a1,8
	ld	a0,-40(s0)
	call	QspiRegwrite32
	.loc 2 589 12
	li	a4,100
	li	a3,1
	li	a2,1
	li	a1,352
	ld	a0,-40(s0)
	call	QspiPollRegStatus
	sd	a0,-24(s0)
	.loc 2 597 6
	ld	a5,-24(s0)
	bne	a5,zero,.L102
	.loc 2 598 14
	li	a4,300
	li	a3,0
	li	a2,1
	li	a1,348
	ld	a0,-40(s0)
	call	QspiPollRegStatus
	sd	a0,-24(s0)
.L102:
	.loc 2 607 6
	ld	a5,-24(s0)
	beq	a5,zero,.L103
	.loc 2 609 5
	ld	a0,-40(s0)
	call	QspiDumpReg
.L103:
	.loc 2 612 10
	ld	a5,-24(s0)
	.loc 2 613 1
	mv	a0,a5
	ld	ra,40(sp)
	.cfi_restore 1
	ld	s0,32(sp)
	.cfi_restore 8
	.cfi_def_cfa 2, 48
	addi	sp,sp,48
	.cfi_def_cfa_offset 0
	jr	ra
	.cfi_endproc
.LFE22:
	.size	QspiStartTransfer, .-QspiStartTransfer
	.section	.text.SpiHostControllerInit,"ax",@progbits
	.align	1
	.type	SpiHostControllerInit, @function
SpiHostControllerInit:
.LFB23:
	.loc 2 620 1
	.cfi_startproc
	addi	sp,sp,-48
	.cfi_def_cfa_offset 48
	sd	ra,40(sp)
	sd	s0,32(sp)
	.cfi_offset 1, -8
	.cfi_offset 8, -16
	addi	s0,sp,48
	.cfi_def_cfa 8, 0
	sd	a0,-40(s0)
	.loc 2 623 21
	la	a5,_gPcd_FixedAtBuild_PcdQspiMaxFrequency
	lw	a4,0(a5)
	ld	a5,-40(s0)
	sw	a4,4(a5)
	.loc 2 624 26
	la	a5,_gPcd_FixedAtBuild_PcdQspiRegBase
	lw	a5,0(a5)
	slli	a4,a5,32
	srli	a4,a4,32
	ld	a5,-40(s0)
	sd	a4,40(a5)
	.loc 2 626 32
	ld	a5,-40(s0)
	li	a4,-1207959552
	sw	a4,20(a5)
	.loc 2 627 32
	ld	a5,-40(s0)
	li	a4,-1197473792
	sw	a4,24(a5)
	.loc 2 628 32
	ld	a5,-40(s0)
	li	a4,-1196425216
	sw	a4,28(a5)
	.loc 2 629 32
	ld	a5,-40(s0)
	li	a4,-1195376640
	sw	a4,32(a5)
	.loc 2 631 23
	ld	a5,-40(s0)
	li	a4,512
	sw	a4,16(a5)
	.loc 2 632 24
	ld	a5,-40(s0)
	li	a4,256
	sw	a4,12(a5)
	.loc 2 633 24
	ld	a5,-40(s0)
	li	a4,128
	sw	a4,8(a5)
	.loc 2 635 21
	ld	a5,-40(s0)
	li	a4,1
	sb	a4,1(a5)
	.loc 2 636 24
	ld	a5,-40(s0)
	li	a4,4096
	sw	a4,8(a5)
	.loc 2 640 3
	call	QspiMmioRemap
	.loc 2 643 3
	call	QspiMfpConfig
	.loc 2 646 3
	ld	a5,-40(s0)
	lw	a5,4(a5)
	mv	a1,a5
	ld	a0,-40(s0)
	call	QspiHostSetClock
	.loc 2 649 3
	ld	a0,-40(s0)
	call	QspiReset
	.loc 2 652 3
	li	a1,1
	ld	a0,-40(s0)
	call	QspiSwtichMode
	.loc 2 655 3
	li	a2,8
	li	a1,36
	ld	a0,-40(s0)
	call	QspiRegwrite32
	.loc 2 658 3
	ld	a5,-40(s0)
	lw	a5,20(a5)
	mv	a1,a5
	ld	a0,-40(s0)
	call	QspiWriteSfar
	.loc 2 659 3
	li	a2,0
	li	a1,260
	ld	a0,-40(s0)
	call	QspiRegwrite32
	.loc 2 662 3
	ld	a5,-40(s0)
	lw	a5,16(a5)
	li	a2,0
	mv	a1,a5
	ld	a0,-40(s0)
	call	QspiConfigXipRead
	.loc 2 665 3
	li	a2,-1197473792
	li	a1,384
	ld	a0,-40(s0)
	call	QspiRegwrite32
	.loc 2 666 3
	li	a2,-1196425216
	li	a1,388
	ld	a0,-40(s0)
	call	QspiRegwrite32
	.loc 2 667 3
	li	a2,-1195376640
	li	a1,392
	ld	a0,-40(s0)
	call	QspiRegwrite32
	.loc 2 668 3
	li	a2,-1194328064
	li	a1,396
	ld	a0,-40(s0)
	call	QspiRegwrite32
	.loc 2 674 9
	li	a1,0
	ld	a0,-40(s0)
	call	QspiRegRead32
	mv	a5,a0
	sw	a5,-20(s0)
	.loc 2 675 7
	lw	a5,-20(s0)
	mv	a4,a5
	li	a5,983040
	addi	a5,a5,12
	or	a5,a4,a5
	sw	a5,-20(s0)
	.loc 2 676 3
	lw	a5,-20(s0)
	mv	a2,a5
	li	a1,0
	ld	a0,-40(s0)
	call	QspiRegwrite32
	.loc 2 679 3
	li	a1,0
	ld	a0,-40(s0)
	call	QspiSwtichMode
	.loc 2 683 3
	li	a1,256
	ld	a0,-40(s0)
	call	QspiWriteRbct
	.loc 2 686 3
	li	a2,-1
	li	a1,352
	ld	a0,-40(s0)
	call	QspiRegwrite32
	.loc 2 694 1
	nop
	ld	ra,40(sp)
	.cfi_restore 1
	ld	s0,32(sp)
	.cfi_restore 8
	.cfi_def_cfa 2, 48
	addi	sp,sp,48
	.cfi_def_cfa_offset 0
	jr	ra
	.cfi_endproc
.LFE23:
	.size	SpiHostControllerInit, .-SpiHostControllerInit
	.section	.text.SpiAjustOPSize,"ax",@progbits
	.align	1
	.type	SpiAjustOPSize, @function
SpiAjustOPSize:
.LFB24:
	.loc 2 703 1
	.cfi_startproc
	addi	sp,sp,-48
	.cfi_def_cfa_offset 48
	sd	ra,40(sp)
	sd	s0,32(sp)
	.cfi_offset 1, -8
	.cfi_offset 8, -16
	addi	s0,sp,48
	.cfi_def_cfa 8, 0
	sd	a0,-40(s0)
	sd	a1,-48(s0)
	.loc 2 704 46
	ld	a5,-40(s0)
	addi	a5,a5,-16
	.loc 2 704 161
	ld	a4,0(a5)
	.loc 2 704 246
	li	a5,1230000128
	addi	a5,a5,845
	bne	a4,a5,.L107
	.loc 2 704 24 discriminator 1
	ld	a5,-40(s0)
	addi	a5,a5,-16
	sd	a5,-24(s0)
	j	.L108
.L107:
	.loc 2 704 24 is_stmt 0 discriminator 2
	sd	zero,-24(s0)
.L108:
	.loc 2 705 15 is_stmt 1
	ld	a5,-24(s0)
	addi	a5,a5,72
	sd	a5,-32(s0)
	.loc 2 707 35
	ld	a5,-48(s0)
	lbu	a5,33(a5)
	.loc 2 707 6
	mv	a4,a5
	li	a5,2
	bne	a4,a5,.L109
	.loc 2 708 17
	ld	a5,-48(s0)
	lw	a4,36(a5)
	.loc 2 708 35
	ld	a5,-32(s0)
	lw	a5,12(a5)
	.loc 2 708 8
	bleu	a4,a5,.L110
	.loc 2 709 33
	ld	a5,-32(s0)
	lw	a4,12(a5)
	.loc 2 709 23
	ld	a5,-48(s0)
	sw	a4,36(a5)
	j	.L110
.L109:
	.loc 2 712 17
	ld	a5,-48(s0)
	lw	a4,36(a5)
	.loc 2 712 35
	ld	a5,-32(s0)
	lw	a5,8(a5)
	.loc 2 712 8
	bleu	a4,a5,.L110
	.loc 2 713 33
	ld	a5,-32(s0)
	lw	a4,8(a5)
	.loc 2 713 23
	ld	a5,-48(s0)
	sw	a4,36(a5)
.L110:
	.loc 2 717 10
	li	a5,0
	.loc 2 718 1
	mv	a0,a5
	ld	ra,40(sp)
	.cfi_restore 1
	ld	s0,32(sp)
	.cfi_restore 8
	.cfi_def_cfa 2, 48
	addi	sp,sp,48
	.cfi_def_cfa_offset 0
	jr	ra
	.cfi_endproc
.LFE24:
	.size	SpiAjustOPSize, .-SpiAjustOPSize
	.section	.text.SpiTransfer,"ax",@progbits
	.align	1
	.type	SpiTransfer, @function
SpiTransfer:
.LFB25:
	.loc 2 728 1
	.cfi_startproc
	addi	sp,sp,-96
	.cfi_def_cfa_offset 96
	sd	ra,88(sp)
	sd	s0,80(sp)
	.cfi_offset 1, -8
	.cfi_offset 8, -16
	addi	s0,sp,96
	.cfi_def_cfa 8, 0
	sd	a0,-72(s0)
	sd	a1,-80(s0)
	sd	a2,-88(s0)
	.loc 2 732 46
	ld	a5,-72(s0)
	addi	a5,a5,-16
	.loc 2 732 161
	ld	a4,0(a5)
	.loc 2 732 246
	li	a5,1230000128
	addi	a5,a5,845
	bne	a4,a5,.L113
	.loc 2 732 24 discriminator 1
	ld	a5,-72(s0)
	addi	a5,a5,-16
	sd	a5,-40(s0)
	j	.L114
.L113:
	.loc 2 732 24 is_stmt 0 discriminator 2
	sd	zero,-40(s0)
.L114:
	.loc 2 733 15 is_stmt 1
	ld	a5,-40(s0)
	addi	a5,a5,72
	sd	a5,-48(s0)
	.loc 2 735 19
	ld	a5,-88(s0)
	lbu	a5,2(a5)
	.loc 2 735 10
	sw	a5,-52(s0)
	.loc 2 738 8
	li	a5,7
	sw	a5,-56(s0)
	.loc 2 739 12
	lw	a5,-56(s0)
	li	a4,100
	li	a3,0
	mv	a2,a5
	li	a1,348
	ld	a0,-48(s0)
	call	QspiPollRegStatus
	sd	a0,-24(s0)
	.loc 2 740 6
	ld	a5,-24(s0)
	beq	a5,zero,.L115
	.loc 2 742 12
	ld	a5,-24(s0)
	j	.L116
.L115:
	.loc 2 746 9
	li	a1,0
	ld	a0,-48(s0)
	call	QspiRegRead32
	mv	a5,a0
	sw	a5,-60(s0)
	.loc 2 747 7
	lw	a5,-60(s0)
	mv	a4,a5
	li	a5,4096
	addi	a5,a5,-1024
	or	a5,a4,a5
	sw	a5,-60(s0)
	.loc 2 748 3
	lw	a5,-60(s0)
	mv	a2,a5
	li	a1,0
	ld	a0,-48(s0)
	call	QspiRegwrite32
	.loc 2 754 9
	li	a1,364
	ld	a0,-48(s0)
	call	QspiRegRead32
	mv	a5,a0
	sw	a5,-60(s0)
	.loc 2 755 7
	lw	a5,-60(s0)
	ori	a5,a5,257
	sw	a5,-60(s0)
	.loc 2 756 3
	lw	a5,-60(s0)
	mv	a2,a5
	li	a1,364
	ld	a0,-48(s0)
	call	QspiRegwrite32
	.loc 2 759 15
	ld	a5,-88(s0)
	lbu	a5,9(a5)
	.loc 2 759 6
	beq	a5,zero,.L117
	.loc 2 760 23
	ld	a5,-88(s0)
	ld	a5,16(a5)
	.loc 2 760 13
	sw	a5,-28(s0)
	j	.L118
.L117:
	.loc 2 762 13
	sw	zero,-28(s0)
.L118:
	.loc 2 765 36
	ld	a5,-80(s0)
	lbu	a5,0(a5)
	.loc 2 765 41
	sext.w	a5,a5
	.loc 2 765 30
	ld	a4,-48(s0)
	addi	a5,a5,4
	slli	a5,a5,2
	add	a5,a4,a5
	lw	a5,4(a5)
	.loc 2 765 11
	lw	a4,-28(s0)
	addw	a5,a4,a5
	sw	a5,-28(s0)
	.loc 2 766 3
	lw	a5,-28(s0)
	mv	a1,a5
	ld	a0,-48(s0)
	call	QspiWriteSfar
	.loc 2 769 9
	li	a1,352
	ld	a0,-48(s0)
	call	QspiRegRead32
	mv	a5,a0
	sw	a5,-60(s0)
	.loc 2 770 6
	lw	a5,-60(s0)
	sext.w	a5,a5
	beq	a5,zero,.L119
	.loc 2 771 5
	lw	a5,-60(s0)
	mv	a2,a5
	li	a1,352
	ld	a0,-48(s0)
	call	QspiRegwrite32
.L119:
	.loc 2 779 36
	ld	a5,-88(s0)
	lbu	a5,33(a5)
	.loc 2 779 6
	mv	a4,a5
	li	a5,1
	bne	a4,a5,.L120
	.loc 2 779 53 discriminator 1
	ld	a5,-48(s0)
	lbu	a5,1(a5)
	.loc 2 779 42 discriminator 1
	beq	a5,zero,.L120
	.loc 2 780 7
	lw	a5,-52(s0)
	andi	a5,a5,0xff
	mv	a0,a5
	call	IsReadFromCacheOpcode
	mv	a5,a0
	.loc 2 779 63 discriminator 2
	beq	a5,zero,.L120
	.loc 2 782 5
	li	a2,0
	ld	a1,-88(s0)
	ld	a0,-48(s0)
	call	QspiConfigLookupTable
	.loc 2 783 26
	ld	a5,-88(s0)
	ld	a4,40(a5)
	.loc 2 783 5
	ld	a5,-88(s0)
	lw	a3,36(a5)
	lw	a5,-28(s0)
	mv	a2,a3
	mv	a1,a5
	mv	a0,a4
	call	QspiXipRead
	j	.L121
.L120:
	.loc 2 786 5
	li	a2,1
	ld	a1,-88(s0)
	ld	a0,-48(s0)
	call	QspiConfigLookupTable
	.loc 2 787 17
	ld	a5,-88(s0)
	lw	a5,36(a5)
	.loc 2 787 8
	beq	a5,zero,.L122
	.loc 2 787 57 discriminator 1
	ld	a5,-88(s0)
	lbu	a5,33(a5)
	.loc 2 787 25 discriminator 1
	mv	a4,a5
	li	a5,2
	bne	a4,a5,.L122
	.loc 2 788 41
	ld	a5,-88(s0)
	ld	a4,40(a5)
	.loc 2 788 7
	ld	a5,-88(s0)
	lw	a5,36(a5)
	mv	a2,a5
	mv	a1,a4
	ld	a0,-48(s0)
	call	QspiFillTxFifo
.L122:
	.loc 2 791 14
	ld	a5,-88(s0)
	lw	a5,36(a5)
	li	a2,1
	mv	a1,a5
	ld	a0,-48(s0)
	call	QspiStartTransfer
	sd	a0,-24(s0)
	.loc 2 793 8
	ld	a5,-24(s0)
	bne	a5,zero,.L121
	.loc 2 793 51 discriminator 1
	ld	a5,-88(s0)
	lw	a5,36(a5)
	.loc 2 793 40 discriminator 1
	beq	a5,zero,.L121
	.loc 2 794 41
	ld	a5,-88(s0)
	lbu	a5,33(a5)
	.loc 2 794 9
	mv	a4,a5
	li	a5,1
	bne	a4,a5,.L121
	.loc 2 796 41
	ld	a5,-88(s0)
	ld	a4,40(a5)
	.loc 2 796 7
	ld	a5,-88(s0)
	lw	a5,36(a5)
	mv	a2,a5
	mv	a1,a4
	ld	a0,-48(s0)
	call	QspiReadRxFifo
.L121:
	.loc 2 801 3
	ld	a0,-48(s0)
	call	QspiReset
	.loc 2 803 10
	ld	a5,-24(s0)
.L116:
	.loc 2 804 1
	mv	a0,a5
	ld	ra,88(sp)
	.cfi_restore 1
	ld	s0,80(sp)
	.cfi_restore 8
	.cfi_def_cfa 2, 96
	addi	sp,sp,96
	.cfi_def_cfa_offset 0
	jr	ra
	.cfi_endproc
.LFE25:
	.size	SpiTransfer, .-SpiTransfer
	.section	.text.SpiInit,"ax",@progbits
	.align	1
	.globl	SpiInit
	.type	SpiInit, @function
SpiInit:
.LFB26:
	.loc 2 811 1
	.cfi_startproc
	addi	sp,sp,-32
	.cfi_def_cfa_offset 32
	sd	ra,24(sp)
	sd	s0,16(sp)
	.cfi_offset 1, -8
	.cfi_offset 8, -16
	addi	s0,sp,32
	.cfi_def_cfa 8, 0
	sd	a0,-24(s0)
	.loc 2 812 10
	li	a5,0
	.loc 2 813 1
	mv	a0,a5
	ld	ra,24(sp)
	.cfi_restore 1
	ld	s0,16(sp)
	.cfi_restore 8
	.cfi_def_cfa 2, 32
	addi	sp,sp,32
	.cfi_def_cfa_offset 0
	jr	ra
	.cfi_endproc
.LFE26:
	.size	SpiInit, .-SpiInit
	.section	.text.SpiConfigRuntime,"ax",@progbits
	.align	1
	.type	SpiConfigRuntime, @function
SpiConfigRuntime:
.LFB27:
	.loc 2 821 1
	.cfi_startproc
	addi	sp,sp,-32
	.cfi_def_cfa_offset 32
	sd	ra,24(sp)
	sd	s0,16(sp)
	.cfi_offset 1, -8
	.cfi_offset 8, -16
	addi	s0,sp,32
	.cfi_def_cfa 8, 0
	sd	a0,-24(s0)
	.loc 2 822 10
	li	a5,0
	.loc 2 823 1
	mv	a0,a5
	ld	ra,24(sp)
	.cfi_restore 1
	ld	s0,16(sp)
	.cfi_restore 8
	.cfi_def_cfa 2, 32
	addi	sp,sp,32
	.cfi_def_cfa_offset 0
	jr	ra
	.cfi_endproc
.LFE27:
	.size	SpiConfigRuntime, .-SpiConfigRuntime
	.section	.text.SpiMasterVirtualNotifyEvent,"ax",@progbits
	.align	1
	.type	SpiMasterVirtualNotifyEvent, @function
SpiMasterVirtualNotifyEvent:
.LFB28:
	.loc 2 840 1
	.cfi_startproc
	addi	sp,sp,-32
	.cfi_def_cfa_offset 32
	sd	ra,24(sp)
	sd	s0,16(sp)
	.cfi_offset 1, -8
	.cfi_offset 8, -16
	addi	s0,sp,32
	.cfi_def_cfa 8, 0
	sd	a0,-24(s0)
	sd	a1,-32(s0)
	.loc 2 841 55
	lla	a5,mSpiMasterInstance
	ld	a5,0(a5)
	.loc 2 841 36
	addi	a5,a5,112
	.loc 2 841 3
	mv	a1,a5
	li	a0,0
	call	EfiConvertPointer@plt
	.loc 2 842 3
	lla	a1,mSpiMasterInstance
	li	a0,0
	call	EfiConvertPointer@plt
	.loc 2 843 3
	nop
	.loc 2 844 1
	ld	ra,24(sp)
	.cfi_restore 1
	ld	s0,16(sp)
	.cfi_restore 8
	.cfi_def_cfa 2, 32
	addi	sp,sp,32
	.cfi_def_cfa_offset 0
	jr	ra
	.cfi_endproc
.LFE28:
	.size	SpiMasterVirtualNotifyEvent, .-SpiMasterVirtualNotifyEvent
	.section	.text.SpiMasterInitProtocol,"ax",@progbits
	.align	1
	.type	SpiMasterInitProtocol, @function
SpiMasterInitProtocol:
.LFB29:
	.loc 2 851 1
	.cfi_startproc
	addi	sp,sp,-32
	.cfi_def_cfa_offset 32
	sd	ra,24(sp)
	sd	s0,16(sp)
	.cfi_offset 1, -8
	.cfi_offset 8, -16
	addi	s0,sp,32
	.cfi_def_cfa 8, 0
	sd	a0,-24(s0)
	.loc 2 852 19
	ld	a5,-24(s0)
	lla	a4,SpiInit
	sd	a4,0(a5)
	.loc 2 853 26
	ld	a5,-24(s0)
	lla	a4,SpiAjustOPSize
	sd	a4,8(a5)
	.loc 2 854 23
	ld	a5,-24(s0)
	lla	a4,SpiTransfer
	sd	a4,16(a5)
	.loc 2 855 28
	ld	a5,-24(s0)
	lla	a4,SpiConfigRuntime
	sd	a4,24(a5)
	.loc 2 857 10
	li	a5,0
	.loc 2 858 1
	mv	a0,a5
	ld	ra,24(sp)
	.cfi_restore 1
	ld	s0,16(sp)
	.cfi_restore 8
	.cfi_def_cfa 2, 32
	addi	sp,sp,32
	.cfi_def_cfa_offset 0
	jr	ra
	.cfi_endproc
.LFE29:
	.size	SpiMasterInitProtocol, .-SpiMasterInitProtocol
	.section	.text.SpacemitK1QspiEntryPoint,"ax",@progbits
	.align	1
	.globl	SpacemitK1QspiEntryPoint
	.type	SpacemitK1QspiEntryPoint, @function
SpacemitK1QspiEntryPoint:
.LFB30:
	.loc 2 866 1
	.cfi_startproc
	addi	sp,sp,-48
	.cfi_def_cfa_offset 48
	sd	ra,40(sp)
	sd	s0,32(sp)
	.cfi_offset 1, -8
	.cfi_offset 8, -16
	addi	s0,sp,48
	.cfi_def_cfa 8, 0
	sd	a0,-40(s0)
	sd	a1,-48(s0)
	.loc 2 869 24
	li	a0,120
	call	AllocateRuntimeZeroPool@plt
	mv	a4,a0
	.loc 2 869 22 discriminator 1
	lla	a5,mSpiMasterInstance
	sd	a4,0(a5)
	.loc 2 870 26
	lla	a5,mSpiMasterInstance
	ld	a5,0(a5)
	.loc 2 870 6
	bne	a5,zero,.L132
	.loc 2 871 12
	li	a5,-1
	slli	a5,a5,63
	addi	a5,a5,9
	j	.L133
.L132:
	.loc 2 874 41
	lla	a5,mSpiMasterInstance
	ld	a5,0(a5)
	.loc 2 874 3
	addi	a5,a5,48
	li	a1,16
	mv	a0,a5
	call	EfiInitializeLock@plt
	.loc 2 876 45
	lla	a5,mSpiMasterInstance
	ld	a5,0(a5)
	.loc 2 876 3
	addi	a5,a5,16
	mv	a0,a5
	call	SpiMasterInitProtocol
	.loc 2 877 45
	lla	a5,mSpiMasterInstance
	ld	a5,0(a5)
	.loc 2 877 3
	addi	a5,a5,72
	mv	a0,a5
	call	SpiHostControllerInit
	.loc 2 879 21
	lla	a5,mSpiMasterInstance
	ld	a5,0(a5)
	.loc 2 879 33
	li	a4,1230000128
	addi	a4,a4,845
	sd	a4,0(a5)
	.loc 2 881 15
	la	a5,gBS
	ld	a5,0(a5)
	ld	a5,328(a5)
	.loc 2 882 72
	lla	a4,mSpiMasterInstance
	ld	a4,0(a4)
	.loc 2 881 12
	addi	a0,a4,8
	.loc 2 884 72
	lla	a4,mSpiMasterInstance
	ld	a4,0(a4)
	.loc 2 881 12
	addi	a4,a4,16
	li	a3,0
	mv	a2,a4
	la	a1,gSpacemitSpiMasterProtocolGuid
	jalr	a5
.LVL0:
	sd	a0,-24(s0)
	.loc 2 887 34
	ld	a5,-24(s0)
	.loc 2 887 6
	bge	a5,zero,.L134
	.loc 2 888 5
	lla	a5,mSpiMasterInstance
	ld	a5,0(a5)
	mv	a0,a5
	call	FreePool@plt
	.loc 2 889 12
	li	a5,-1
	slli	a5,a5,63
	addi	a5,a5,7
	j	.L133
.L134:
	.loc 2 895 15
	la	a5,gBS
	ld	a5,0(a5)
	ld	a6,368(a5)
	.loc 2 895 12
	lla	a5,mSpiMasterVirtualAddrChangeEvent
	la	a4,gEfiEventVirtualAddressChangeGuid
	li	a3,0
	lla	a2,SpiMasterVirtualNotifyEvent
	li	a1,16
	li	a0,512
	jalr	a6
.LVL1:
	sd	a0,-24(s0)
	.loc 2 904 10
	ld	a5,-24(s0)
.L133:
	.loc 2 905 1
	mv	a0,a5
	ld	ra,40(sp)
	.cfi_restore 1
	ld	s0,32(sp)
	.cfi_restore 8
	.cfi_def_cfa 2, 48
	addi	sp,sp,48
	.cfi_def_cfa_offset 0
	jr	ra
	.cfi_endproc
.LFE30:
	.size	SpacemitK1QspiEntryPoint, .-SpacemitK1QspiEntryPoint
	.text
.Letext0:
	.file 3 "/home/kapoagaeming/Downloads/spacemit-image-builder/components/edk2/MdePkg/Include/RiscV64/ProcessorBind.h"
	.file 4 "/home/kapoagaeming/Downloads/spacemit-image-builder/components/edk2/MdePkg/Include/Base.h"
	.file 5 "/home/kapoagaeming/Downloads/spacemit-image-builder/components/edk2/MdePkg/Include/Uefi/UefiBaseType.h"
	.file 6 "/home/kapoagaeming/Downloads/spacemit-image-builder/components/edk2/MdePkg/Include/Uefi/UefiMultiPhase.h"
	.file 7 "/home/kapoagaeming/Downloads/spacemit-image-builder/components/edk2/MdePkg/Include/Protocol/DevicePath.h"
	.file 8 "/home/kapoagaeming/Downloads/spacemit-image-builder/components/edk2/MdePkg/Include/Protocol/SimpleTextIn.h"
	.file 9 "/home/kapoagaeming/Downloads/spacemit-image-builder/components/edk2/MdePkg/Include/Protocol/SimpleTextOut.h"
	.file 10 "/home/kapoagaeming/Downloads/spacemit-image-builder/components/edk2/MdePkg/Include/Uefi/UefiSpec.h"
	.file 11 "/home/kapoagaeming/Downloads/spacemit-image-builder/components/Build/Milk-V-Jupiter/RELEASE_GCC5/RISCV64/Silicon/Spacemit/K1/Drivers/QspiDxe/QspiDxe/DEBUG/AutoGen.h"
	.file 12 "/home/kapoagaeming/Downloads/spacemit-image-builder/components/edk2/MdePkg/Include/Library/UefiLib.h"
	.file 13 "/home/kapoagaeming/Downloads/spacemit-image-builder/components/edk2/EmbeddedPkg/Include/Library/NorFlashInfoLib.h"
	.file 14 "/home/kapoagaeming/Downloads/spacemit-image-builder/components/edk2-platforms/Silicon/Spacemit/Include/Protocol/Spi.h"
	.file 15 "/home/kapoagaeming/Downloads/spacemit-image-builder/components/edk2/MdePkg/Include/Library/MemoryAllocationLib.h"
	.file 16 "/home/kapoagaeming/Downloads/spacemit-image-builder/components/edk2/MdePkg/Include/Library/UefiRuntimeLib.h"
	.file 17 "/home/kapoagaeming/Downloads/spacemit-image-builder/components/edk2/MdePkg/Include/Library/BaseMemoryLib.h"
	.file 18 "/home/kapoagaeming/Downloads/spacemit-image-builder/components/edk2/MdePkg/Include/Library/IoLib.h"
	.file 19 "/home/kapoagaeming/Downloads/spacemit-image-builder/components/edk2/MdePkg/Include/Library/TimerLib.h"
	.file 20 "/home/kapoagaeming/Downloads/spacemit-image-builder/components/edk2-platforms/Silicon/Spacemit/Include/Library/MemoryManagementLib.h"
	.file 21 "/home/kapoagaeming/Downloads/spacemit-image-builder/components/edk2/MdePkg/Include/Library/UefiBootServicesTableLib.h"
	.section	.note.GNU-stack,"",@progbits
