	.file	"Udf.c"
	.option pic
	.option norelax
	.attribute arch, "rv64i2p1_m2p0_a2p1_f2p2_d2p2_c2p0_zicsr2p0_zifencei2p0_zmmul1p0_zaamo1p0_zalrsc1p0_zca1p0_zcd1p0"
	.attribute unaligned_access, 0
	.attribute stack_align, 16
	.text
.Ltext0:
	.cfi_sections	.debug_frame
	.file 0 "/home/kapoagaeming/spacemit-image-builder/components/Build/Milk-V-Jupiter/RELEASE_GCC5/RISCV64/MdeModulePkg/Universal/Disk/UdfDxe/UdfDxe" "/home/kapoagaeming/spacemit-image-builder/components/edk2/MdeModulePkg/Universal/Disk/UdfDxe/Udf.c"
	.globl	gUdfDriverBinding
	.section	.data.rel.local.gUdfDriverBinding,"aw"
	.align	3
	.type	gUdfDriverBinding, @object
	.size	gUdfDriverBinding, 48
gUdfDriverBinding:
	.dword	UdfDriverBindingSupported
	.dword	UdfDriverBindingStart
	.dword	UdfDriverBindingStop
	.word	16
	.zero	4
	.dword	0
	.dword	0
	.globl	gUdfSimpleFsTemplate
	.section	.data.rel.gUdfSimpleFsTemplate,"aw"
	.align	3
	.type	gUdfSimpleFsTemplate, @object
	.size	gUdfSimpleFsTemplate, 16
gUdfSimpleFsTemplate:
	.dword	65536
	.dword	UdfOpenVolume
	.section	.text.UdfDriverBindingSupported,"ax",@progbits
	.align	1
	.globl	UdfDriverBindingSupported
	.type	UdfDriverBindingSupported, @function
UdfDriverBindingSupported:
.LFB0:
	.file 1 "/home/kapoagaeming/spacemit-image-builder/components/edk2/MdeModulePkg/Universal/Disk/UdfDxe/Udf.c"
	.loc 1 50 1
	.cfi_startproc
	addi	sp,sp,-64
	.cfi_def_cfa_offset 64
	sd	ra,56(sp)
	sd	s0,48(sp)
	.cfi_offset 1, -8
	.cfi_offset 8, -16
	addi	s0,sp,64
	.cfi_def_cfa 8, 0
	sd	a0,-40(s0)
	sd	a1,-48(s0)
	sd	a2,-56(s0)
	.loc 1 57 15
	la	a5,gBS
	ld	a5,0(a5)
	ld	a6,280(a5)
	.loc 1 57 12
	ld	a5,-40(s0)
	ld	a3,40(a5)
	addi	a2,s0,-32
	li	a5,16
	ld	a4,-48(s0)
	la	a1,gEfiDiskIoProtocolGuid
	ld	a0,-48(s0)
	jalr	a6
.LVL0:
	sd	a0,-24(s0)
	.loc 1 65 34
	ld	a5,-24(s0)
	.loc 1 65 6
	bge	a5,zero,.L2
	.loc 1 66 12
	ld	a5,-24(s0)
	j	.L4
.L2:
	.loc 1 72 6
	la	a5,gBS
	ld	a5,0(a5)
	ld	a5,288(a5)
	.loc 1 72 3
	ld	a4,-40(s0)
	ld	a4,40(a4)
	ld	a3,-48(s0)
	mv	a2,a4
	la	a1,gEfiDiskIoProtocolGuid
	ld	a0,-48(s0)
	jalr	a5
.LVL1:
	.loc 1 82 15
	la	a5,gBS
	ld	a5,0(a5)
	ld	a6,280(a5)
	.loc 1 82 12
	ld	a5,-40(s0)
	ld	a3,40(a5)
	li	a5,4
	ld	a4,-48(s0)
	li	a2,0
	la	a1,gEfiBlockIoProtocolGuid
	ld	a0,-48(s0)
	jalr	a6
.LVL2:
	sd	a0,-24(s0)
	.loc 1 91 10
	ld	a5,-24(s0)
.L4:
	.loc 1 92 1
	mv	a0,a5
	ld	ra,56(sp)
	.cfi_restore 1
	ld	s0,48(sp)
	.cfi_restore 8
	.cfi_def_cfa 2, 64
	addi	sp,sp,64
	.cfi_def_cfa_offset 0
	jr	ra
	.cfi_endproc
.LFE0:
	.size	UdfDriverBindingSupported, .-UdfDriverBindingSupported
	.section	.text.UdfDriverBindingStart,"ax",@progbits
	.align	1
	.globl	UdfDriverBindingStart
	.type	UdfDriverBindingStart, @function
UdfDriverBindingStart:
.LFB1:
	.loc 1 117 1
	.cfi_startproc
	addi	sp,sp,-96
	.cfi_def_cfa_offset 96
	sd	ra,88(sp)
	sd	s0,80(sp)
	.cfi_offset 1, -8
	.cfi_offset 8, -16
	addi	s0,sp,96
	.cfi_def_cfa 8, 0
	sd	a0,-72(s0)
	sd	a1,-80(s0)
	sd	a2,-88(s0)
	.loc 1 124 15
	la	a5,gBS
	ld	a5,0(a5)
	ld	a5,24(a5)
	.loc 1 124 12
	li	a0,8
	jalr	a5
.LVL3:
	sd	a0,-32(s0)
	.loc 1 129 15
	la	a5,gBS
	ld	a5,0(a5)
	ld	a6,280(a5)
	.loc 1 129 12
	ld	a5,-72(s0)
	ld	a3,40(a5)
	addi	a2,s0,-48
	li	a5,2
	ld	a4,-80(s0)
	la	a1,gEfiBlockIoProtocolGuid
	ld	a0,-80(s0)
	jalr	a6
.LVL4:
	sd	a0,-24(s0)
	.loc 1 142 15
	la	a5,gBS
	ld	a5,0(a5)
	ld	a6,280(a5)
	.loc 1 142 12
	ld	a5,-72(s0)
	ld	a3,40(a5)
	addi	a2,s0,-56
	li	a5,16
	ld	a4,-80(s0)
	la	a1,gEfiDiskIoProtocolGuid
	ld	a0,-80(s0)
	jalr	a6
.LVL5:
	sd	a0,-24(s0)
	.loc 1 155 12
	ld	a1,-80(s0)
	ld	a0,-72(s0)
	call	SupportUdfFileSystem@plt
	sd	a0,-24(s0)
	.loc 1 156 34
	ld	a5,-24(s0)
	.loc 1 156 6
	blt	a5,zero,.L11
	.loc 1 165 5
	li	a0,1560
	call	AllocateZeroPool@plt
	sd	a0,-40(s0)
	.loc 1 166 6
	ld	a5,-40(s0)
	bne	a5,zero,.L8
	.loc 1 167 12
	li	a5,-1
	slli	a5,a5,63
	addi	a5,a5,9
	sd	a5,-24(s0)
	.loc 1 168 5
	j	.L7
.L8:
	.loc 1 174 25
	ld	a5,-40(s0)
	li	a4,1936089088
	addi	a4,a4,1109
	sd	a4,0(a5)
	.loc 1 175 23
	ld	a4,-48(s0)
	ld	a5,-40(s0)
	sd	a4,8(a5)
	.loc 1 176 22
	ld	a4,-56(s0)
	ld	a5,-40(s0)
	sd	a4,16(a5)
	.loc 1 177 22
	ld	a5,-40(s0)
	ld	a4,-80(s0)
	sd	a4,1552(a5)
	.loc 1 183 13
	ld	a5,-40(s0)
	addi	a5,a5,24
	.loc 1 182 3
	li	a2,16
	lla	a1,gUdfSimpleFsTemplate
	mv	a0,a5
	call	CopyMem@plt
	.loc 1 191 15
	la	a5,gBS
	ld	a5,0(a5)
	ld	a5,328(a5)
	.loc 1 191 12
	ld	a4,-40(s0)
	addi	a0,a4,1552
	ld	a4,-40(s0)
	addi	a4,a4,24
	li	a3,0
	mv	a2,a4
	la	a1,gEfiSimpleFileSystemProtocolGuid
	jalr	a5
.LVL6:
	sd	a0,-24(s0)
	j	.L7
.L11:
	.loc 1 157 5
	nop
.L7:
	.loc 1 199 34
	ld	a5,-24(s0)
	.loc 1 199 6
	bge	a5,zero,.L9
	.loc 1 203 8
	la	a5,gBS
	ld	a5,0(a5)
	ld	a5,288(a5)
	.loc 1 203 5
	ld	a4,-72(s0)
	ld	a4,40(a4)
	ld	a3,-80(s0)
	mv	a2,a4
	la	a1,gEfiDiskIoProtocolGuid
	ld	a0,-80(s0)
	jalr	a5
.LVL7:
	.loc 1 212 8
	la	a5,gBS
	ld	a5,0(a5)
	ld	a5,288(a5)
	.loc 1 212 5
	ld	a4,-72(s0)
	ld	a4,40(a4)
	ld	a3,-80(s0)
	mv	a2,a4
	la	a1,gEfiBlockIoProtocolGuid
	ld	a0,-80(s0)
	jalr	a5
.LVL8:
.L9:
	.loc 1 220 6
	la	a5,gBS
	ld	a5,0(a5)
	ld	a5,32(a5)
	.loc 1 220 3
	ld	a0,-32(s0)
	jalr	a5
.LVL9:
	.loc 1 222 10
	ld	a5,-24(s0)
	.loc 1 223 1
	mv	a0,a5
	ld	ra,88(sp)
	.cfi_restore 1
	ld	s0,80(sp)
	.cfi_restore 8
	.cfi_def_cfa 2, 96
	addi	sp,sp,96
	.cfi_def_cfa_offset 0
	jr	ra
	.cfi_endproc
.LFE1:
	.size	UdfDriverBindingStart, .-UdfDriverBindingStart
	.section	.text.UdfDriverBindingStop,"ax",@progbits
	.align	1
	.globl	UdfDriverBindingStop
	.type	UdfDriverBindingStop, @function
UdfDriverBindingStop:
.LFB2:
	.loc 1 247 1
	.cfi_startproc
	addi	sp,sp,-80
	.cfi_def_cfa_offset 80
	sd	ra,72(sp)
	sd	s0,64(sp)
	.cfi_offset 1, -8
	.cfi_offset 8, -16
	addi	s0,sp,80
	.cfi_def_cfa 8, 0
	sd	a0,-56(s0)
	sd	a1,-64(s0)
	sd	a2,-72(s0)
	sd	a3,-80(s0)
	.loc 1 255 15
	la	a5,gBS
	ld	a5,0(a5)
	ld	a6,280(a5)
	.loc 1 255 12
	ld	a5,-56(s0)
	ld	a3,40(a5)
	addi	a2,s0,-40
	li	a5,2
	ld	a4,-64(s0)
	la	a1,gEfiSimpleFileSystemProtocolGuid
	ld	a0,-64(s0)
	jalr	a6
.LVL10:
	sd	a0,-32(s0)
	.loc 1 263 7
	ld	a5,-32(s0)
	.loc 1 263 6
	blt	a5,zero,.L13
	.loc 1 264 51
	ld	a5,-40(s0)
	.loc 1 264 20
	addi	a5,a5,-24
	.loc 1 264 152
	ld	a4,0(a5)
	.loc 1 264 237
	li	a5,1936089088
	addi	a5,a5,1109
	bne	a4,a5,.L14
	.loc 1 264 271 discriminator 1
	ld	a5,-40(s0)
	.loc 1 264 16 discriminator 1
	addi	a5,a5,-24
	sd	a5,-24(s0)
	j	.L15
.L14:
	.loc 1 264 16 is_stmt 0 discriminator 2
	sd	zero,-24(s0)
.L15:
	.loc 1 269 17 is_stmt 1
	la	a5,gBS
	ld	a5,0(a5)
	ld	a5,336(a5)
	.loc 1 269 14
	ld	a4,-24(s0)
	ld	a0,1552(a4)
	ld	a4,-24(s0)
	addi	a4,a4,24
	li	a3,0
	mv	a2,a4
	la	a1,gEfiSimpleFileSystemProtocolGuid
	jalr	a5
.LVL11:
	sd	a0,-32(s0)
	.loc 1 276 5
	ld	a0,-24(s0)
	call	FreePool@plt
.L13:
	.loc 1 279 7
	ld	a5,-32(s0)
	.loc 1 279 6
	blt	a5,zero,.L16
	.loc 1 283 8
	la	a5,gBS
	ld	a5,0(a5)
	ld	a5,288(a5)
	.loc 1 283 5
	ld	a4,-56(s0)
	ld	a4,40(a4)
	ld	a3,-64(s0)
	mv	a2,a4
	la	a1,gEfiDiskIoProtocolGuid
	ld	a0,-64(s0)
	jalr	a5
.LVL12:
	.loc 1 292 8
	la	a5,gBS
	ld	a5,0(a5)
	ld	a5,288(a5)
	.loc 1 292 5
	ld	a4,-56(s0)
	ld	a4,40(a4)
	ld	a3,-64(s0)
	mv	a2,a4
	la	a1,gEfiBlockIoProtocolGuid
	ld	a0,-64(s0)
	jalr	a5
.LVL13:
.L16:
	.loc 1 300 10
	ld	a5,-32(s0)
	.loc 1 301 1
	mv	a0,a5
	ld	ra,72(sp)
	.cfi_restore 1
	ld	s0,64(sp)
	.cfi_restore 8
	.cfi_def_cfa 2, 80
	addi	sp,sp,80
	.cfi_def_cfa_offset 0
	jr	ra
	.cfi_endproc
.LFE2:
	.size	UdfDriverBindingStop, .-UdfDriverBindingStop
	.section	.text.InitializeUdf,"ax",@progbits
	.align	1
	.globl	InitializeUdf
	.type	InitializeUdf, @function
InitializeUdf:
.LFB3:
	.loc 1 320 1
	.cfi_startproc
	addi	sp,sp,-48
	.cfi_def_cfa_offset 48
	sd	ra,40(sp)
	sd	s0,32(sp)
	.cfi_offset 1, -8
	.cfi_offset 8, -16
	addi	s0,sp,48
	.cfi_def_cfa 8, 0
	sd	a0,-40(s0)
	sd	a1,-48(s0)
	.loc 1 323 12
	la	a5,gUdfComponentName2
	la	a4,gUdfComponentName
	ld	a3,-40(s0)
	lla	a2,gUdfDriverBinding
	ld	a1,-48(s0)
	ld	a0,-40(s0)
	call	EfiLibInstallDriverBindingComponentName2@plt
	sd	a0,-24(s0)
	.loc 1 333 10
	ld	a5,-24(s0)
	.loc 1 334 1
	mv	a0,a5
	ld	ra,40(sp)
	.cfi_restore 1
	ld	s0,32(sp)
	.cfi_restore 8
	.cfi_def_cfa 2, 48
	addi	sp,sp,48
	.cfi_def_cfa_offset 0
	jr	ra
	.cfi_endproc
.LFE3:
	.size	InitializeUdf, .-InitializeUdf
	.text
.Letext0:
	.file 2 "/home/kapoagaeming/spacemit-image-builder/components/edk2/MdePkg/Include/RiscV64/ProcessorBind.h"
	.file 3 "/home/kapoagaeming/spacemit-image-builder/components/edk2/MdePkg/Include/Base.h"
	.file 4 "/home/kapoagaeming/spacemit-image-builder/components/edk2/MdePkg/Include/Uefi/UefiBaseType.h"
	.file 5 "/home/kapoagaeming/spacemit-image-builder/components/edk2/MdePkg/Include/Uefi/UefiMultiPhase.h"
	.file 6 "/home/kapoagaeming/spacemit-image-builder/components/edk2/MdePkg/Include/Protocol/DevicePath.h"
	.file 7 "/home/kapoagaeming/spacemit-image-builder/components/edk2/MdePkg/Include/Protocol/SimpleTextIn.h"
	.file 8 "/home/kapoagaeming/spacemit-image-builder/components/edk2/MdePkg/Include/Protocol/SimpleTextOut.h"
	.file 9 "/home/kapoagaeming/spacemit-image-builder/components/edk2/MdePkg/Include/Uefi/UefiSpec.h"
	.file 10 "/home/kapoagaeming/spacemit-image-builder/components/Build/Milk-V-Jupiter/RELEASE_GCC5/RISCV64/MdeModulePkg/Universal/Disk/UdfDxe/UdfDxe/DEBUG/AutoGen.h"
	.file 11 "/home/kapoagaeming/spacemit-image-builder/components/edk2/MdePkg/Include/Protocol/BlockIo.h"
	.file 12 "/home/kapoagaeming/spacemit-image-builder/components/edk2/MdePkg/Include/Protocol/ComponentName.h"
	.file 13 "/home/kapoagaeming/spacemit-image-builder/components/edk2/MdePkg/Include/Protocol/DriverBinding.h"
	.file 14 "/home/kapoagaeming/spacemit-image-builder/components/edk2/MdePkg/Include/Protocol/DiskIo.h"
	.file 15 "/home/kapoagaeming/spacemit-image-builder/components/edk2/MdePkg/Include/Protocol/SimpleFileSystem.h"
	.file 16 "/home/kapoagaeming/spacemit-image-builder/components/edk2/MdePkg/Include/Protocol/ComponentName2.h"
	.file 17 "/home/kapoagaeming/spacemit-image-builder/components/edk2/MdePkg/Include/IndustryStandard/Udf.h"
	.file 18 "/home/kapoagaeming/spacemit-image-builder/components/edk2/MdeModulePkg/Universal/Disk/UdfDxe/Udf.h"
	.file 19 "/home/kapoagaeming/spacemit-image-builder/components/edk2/MdePkg/Include/Library/UefiLib.h"
	.file 20 "/home/kapoagaeming/spacemit-image-builder/components/edk2/MdePkg/Include/Library/BaseMemoryLib.h"
	.file 21 "/home/kapoagaeming/spacemit-image-builder/components/edk2/MdePkg/Include/Library/MemoryAllocationLib.h"
	.file 22 "/home/kapoagaeming/spacemit-image-builder/components/edk2/MdePkg/Include/Library/UefiBootServicesTableLib.h"
	.section	.note.GNU-stack,"",@progbits
