	.file	"fdt_strerror.c"
	.option pic
	.option norelax
	.attribute arch, "rv64i2p1_m2p0_a2p1_f2p2_d2p2_c2p0_zicsr2p0_zifencei2p0_zmmul1p0_zaamo1p0_zalrsc1p0_zca1p0_zcd1p0"
	.attribute unaligned_access, 0
	.attribute stack_align, 16
	.text
.Ltext0:
	.cfi_sections	.debug_frame
	.file 0 "/home/kapoagaeming/spacemit-image-builder/components/Build/Milk-V-Jupiter/RELEASE_GCC5/RISCV64/EmbeddedPkg/Library/FdtLib/FdtLib" "/home/kapoagaeming/spacemit-image-builder/components/edk2/EmbeddedPkg/Library/FdtLib/fdt_strerror.c"
	.section	.rodata
	.align	3
.LC0:
	.string	"FDT_ERR_NOTFOUND"
	.align	3
.LC1:
	.string	"FDT_ERR_EXISTS"
	.align	3
.LC2:
	.string	"FDT_ERR_NOSPACE"
	.align	3
.LC3:
	.string	"FDT_ERR_BADOFFSET"
	.align	3
.LC4:
	.string	"FDT_ERR_BADPATH"
	.align	3
.LC5:
	.string	"FDT_ERR_BADPHANDLE"
	.align	3
.LC6:
	.string	"FDT_ERR_BADSTATE"
	.align	3
.LC7:
	.string	"FDT_ERR_TRUNCATED"
	.align	3
.LC8:
	.string	"FDT_ERR_BADMAGIC"
	.align	3
.LC9:
	.string	"FDT_ERR_BADVERSION"
	.align	3
.LC10:
	.string	"FDT_ERR_BADSTRUCTURE"
	.align	3
.LC11:
	.string	"FDT_ERR_BADLAYOUT"
	.align	3
.LC12:
	.string	"FDT_ERR_INTERNAL"
	.align	3
.LC13:
	.string	"FDT_ERR_BADNCELLS"
	.align	3
.LC14:
	.string	"FDT_ERR_BADVALUE"
	.align	3
.LC15:
	.string	"FDT_ERR_BADOVERLAY"
	.align	3
.LC16:
	.string	"FDT_ERR_NOPHANDLES"
	.section	.data.rel.local.fdt_errtable,"aw"
	.align	3
	.type	fdt_errtable, @object
	.size	fdt_errtable, 144
fdt_errtable:
	.zero	8
	.dword	.LC0
	.dword	.LC1
	.dword	.LC2
	.dword	.LC3
	.dword	.LC4
	.dword	.LC5
	.dword	.LC6
	.dword	.LC7
	.dword	.LC8
	.dword	.LC9
	.dword	.LC10
	.dword	.LC11
	.dword	.LC12
	.dword	.LC13
	.dword	.LC14
	.dword	.LC15
	.dword	.LC16
	.section	.rodata
	.align	3
.LC17:
	.string	"<valid offset/length>"
	.align	3
.LC18:
	.string	"<no error>"
	.align	3
.LC19:
	.string	"<unknown error>"
	.section	.text.fdt_strerror,"ax",@progbits
	.align	1
	.globl	fdt_strerror
	.type	fdt_strerror, @function
fdt_strerror:
.LFB44:
	.file 1 "/home/kapoagaeming/spacemit-image-builder/components/edk2/EmbeddedPkg/Library/FdtLib/fdt_strerror.c"
	.loc 1 92 1
	.cfi_startproc
	addi	sp,sp,-48
	.cfi_def_cfa_offset 48
	sd	ra,40(sp)
	sd	s0,32(sp)
	.cfi_offset 1, -8
	.cfi_offset 8, -16
	addi	s0,sp,48
	.cfi_def_cfa 8, 0
	mv	a5,a0
	sw	a5,-36(s0)
	.loc 1 93 6
	lw	a5,-36(s0)
	sext.w	a5,a5
	ble	a5,zero,.L2
	.loc 1 94 12
	lla	a5,.LC17
	j	.L3
.L2:
	.loc 1 95 13
	lw	a5,-36(s0)
	sext.w	a5,a5
	bne	a5,zero,.L4
	.loc 1 96 12
	lla	a5,.LC18
	j	.L3
.L4:
	.loc 1 97 21
	lw	a4,-36(s0)
	.loc 1 97 13
	li	a5,-18
	bleu	a4,a5,.L5
.LBB2:
	.loc 1 98 34
	lw	a5,-36(s0)
	negw	a5,a5
	sext.w	a5,a5
	.loc 1 98 17
	lla	a4,fdt_errtable
	slli	a5,a5,3
	add	a5,a4,a5
	ld	a5,0(a5)
	sd	a5,-24(s0)
	.loc 1 100 8
	ld	a5,-24(s0)
	beq	a5,zero,.L5
	.loc 1 101 14
	ld	a5,-24(s0)
	j	.L3
.L5:
.LBE2:
	.loc 1 105 10
	lla	a5,.LC19
.L3:
	.loc 1 106 1
	mv	a0,a5
	ld	ra,40(sp)
	.cfi_restore 1
	ld	s0,32(sp)
	.cfi_restore 8
	.cfi_def_cfa 2, 48
	addi	sp,sp,48
	.cfi_def_cfa_offset 0
	jr	ra
	.cfi_endproc
.LFE44:
	.size	fdt_strerror, .-fdt_strerror
	.text
.Letext0:
	.section	.note.GNU-stack,"",@progbits
