	.file	"fdt_wip.c"
	.option pic
	.option norelax
	.attribute arch, "rv64i2p1_m2p0_a2p1_f2p2_d2p2_c2p0_zicsr2p0_zifencei2p0_zmmul1p0_zaamo1p0_zalrsc1p0_zca1p0_zcd1p0"
	.attribute unaligned_access, 0
	.attribute stack_align, 16
	.text
.Ltext0:
	.cfi_sections	.debug_frame
	.file 0 "/home/kapoagaeming/spacemit-image-builder/components/Build/Milk-V-Jupiter/RELEASE_GCC5/RISCV64/EmbeddedPkg/Library/FdtLib/FdtLib" "/home/kapoagaeming/spacemit-image-builder/components/edk2/EmbeddedPkg/Library/FdtLib/fdt_wip.c"
	.section	.text.fdt32_to_cpu,"ax",@progbits
	.align	1
	.type	fdt32_to_cpu, @function
fdt32_to_cpu:
.LFB1:
	.file 1 "/home/kapoagaeming/spacemit-image-builder/components/edk2/EmbeddedPkg/Include/libfdt_env.h"
	.loc 1 40 1
	.cfi_startproc
	addi	sp,sp,-32
	.cfi_def_cfa_offset 32
	sd	ra,24(sp)
	sd	s0,16(sp)
	.cfi_offset 1, -8
	.cfi_offset 8, -16
	addi	s0,sp,32
	.cfi_def_cfa 8, 0
	mv	a5,a0
	sw	a5,-20(s0)
	.loc 1 41 10
	lw	a5,-20(s0)
	mv	a0,a5
	call	SwapBytes32@plt
	mv	a5,a0
	.loc 1 42 1
	mv	a0,a5
	ld	ra,24(sp)
	.cfi_restore 1
	ld	s0,16(sp)
	.cfi_restore 8
	.cfi_def_cfa 2, 32
	addi	sp,sp,32
	.cfi_def_cfa_offset 0
	jr	ra
	.cfi_endproc
.LFE1:
	.size	fdt32_to_cpu, .-fdt32_to_cpu
	.section	.text.memcpy,"ax",@progbits
	.align	1
	.type	memcpy, @function
memcpy:
.LFB3:
	.loc 1 62 1
	.cfi_startproc
	addi	sp,sp,-48
	.cfi_def_cfa_offset 48
	sd	ra,40(sp)
	sd	s0,32(sp)
	.cfi_offset 1, -8
	.cfi_offset 8, -16
	addi	s0,sp,48
	.cfi_def_cfa 8, 0
	sd	a0,-24(s0)
	sd	a1,-32(s0)
	sd	a2,-40(s0)
	.loc 1 63 10
	ld	a2,-40(s0)
	ld	a1,-32(s0)
	ld	a0,-24(s0)
	call	CopyMem@plt
	mv	a5,a0
	.loc 1 64 1
	mv	a0,a5
	ld	ra,40(sp)
	.cfi_restore 1
	ld	s0,32(sp)
	.cfi_restore 8
	.cfi_def_cfa 2, 48
	addi	sp,sp,48
	.cfi_def_cfa_offset 0
	jr	ra
	.cfi_endproc
.LFE3:
	.size	memcpy, .-memcpy
	.section	.text.strlen,"ax",@progbits
	.align	1
	.type	strlen, @function
strlen:
.LFB8:
	.loc 1 110 1
	.cfi_startproc
	addi	sp,sp,-32
	.cfi_def_cfa_offset 32
	sd	ra,24(sp)
	sd	s0,16(sp)
	.cfi_offset 1, -8
	.cfi_offset 8, -16
	addi	s0,sp,32
	.cfi_def_cfa 8, 0
	sd	a0,-24(s0)
	.loc 1 111 10
	ld	a0,-24(s0)
	call	AsciiStrLen@plt
	mv	a5,a0
	.loc 1 112 1
	mv	a0,a5
	ld	ra,24(sp)
	.cfi_restore 1
	ld	s0,16(sp)
	.cfi_restore 8
	.cfi_def_cfa 2, 32
	addi	sp,sp,32
	.cfi_def_cfa_offset 0
	jr	ra
	.cfi_endproc
.LFE8:
	.size	strlen, .-strlen
	.section	.text.fdt_offset_ptr_w,"ax",@progbits
	.align	1
	.type	fdt_offset_ptr_w, @function
fdt_offset_ptr_w:
.LFB14:
	.file 2 "/home/kapoagaeming/spacemit-image-builder/components/edk2/EmbeddedPkg/Include/libfdt.h"
	.loc 2 178 1
	.cfi_startproc
	addi	sp,sp,-32
	.cfi_def_cfa_offset 32
	sd	ra,24(sp)
	sd	s0,16(sp)
	.cfi_offset 1, -8
	.cfi_offset 8, -16
	addi	s0,sp,32
	.cfi_def_cfa 8, 0
	sd	a0,-24(s0)
	mv	a5,a1
	mv	a4,a2
	sw	a5,-28(s0)
	mv	a5,a4
	sw	a5,-32(s0)
	.loc 2 179 29
	lw	a4,-32(s0)
	lw	a5,-28(s0)
	mv	a2,a4
	mv	a1,a5
	ld	a0,-24(s0)
	call	fdt_offset_ptr@plt
	mv	a5,a0
	.loc 2 180 1
	mv	a0,a5
	ld	ra,24(sp)
	.cfi_restore 1
	ld	s0,16(sp)
	.cfi_restore 8
	.cfi_def_cfa 2, 32
	addi	sp,sp,32
	.cfi_def_cfa_offset 0
	jr	ra
	.cfi_endproc
.LFE14:
	.size	fdt_offset_ptr_w, .-fdt_offset_ptr_w
	.section	.text.fdt_get_property_w,"ax",@progbits
	.align	1
	.type	fdt_get_property_w, @function
fdt_get_property_w:
.LFB25:
	.loc 2 721 1
	.cfi_startproc
	addi	sp,sp,-48
	.cfi_def_cfa_offset 48
	sd	ra,40(sp)
	sd	s0,32(sp)
	.cfi_offset 1, -8
	.cfi_offset 8, -16
	addi	s0,sp,48
	.cfi_def_cfa 8, 0
	sd	a0,-24(s0)
	mv	a5,a1
	sd	a2,-40(s0)
	sd	a3,-48(s0)
	sw	a5,-28(s0)
	.loc 2 723 10
	lw	a5,-28(s0)
	ld	a3,-48(s0)
	ld	a2,-40(s0)
	mv	a1,a5
	ld	a0,-24(s0)
	call	fdt_get_property@plt
	mv	a5,a0
	.loc 2 724 1
	mv	a0,a5
	ld	ra,40(sp)
	.cfi_restore 1
	ld	s0,32(sp)
	.cfi_restore 8
	.cfi_def_cfa 2, 48
	addi	sp,sp,48
	.cfi_def_cfa_offset 0
	jr	ra
	.cfi_endproc
.LFE25:
	.size	fdt_get_property_w, .-fdt_get_property_w
	.section	.text.fdt_getprop_namelen_w,"ax",@progbits
	.align	1
	.type	fdt_getprop_namelen_w, @function
fdt_getprop_namelen_w:
.LFB26:
	.loc 2 797 1
	.cfi_startproc
	addi	sp,sp,-48
	.cfi_def_cfa_offset 48
	sd	ra,40(sp)
	sd	s0,32(sp)
	.cfi_offset 1, -8
	.cfi_offset 8, -16
	addi	s0,sp,48
	.cfi_def_cfa 8, 0
	sd	a0,-24(s0)
	mv	a5,a1
	sd	a2,-40(s0)
	sd	a4,-48(s0)
	sw	a5,-28(s0)
	mv	a5,a3
	sw	a5,-32(s0)
	.loc 2 798 29
	lw	a3,-32(s0)
	lw	a5,-28(s0)
	ld	a4,-48(s0)
	ld	a2,-40(s0)
	mv	a1,a5
	ld	a0,-24(s0)
	call	fdt_getprop_namelen@plt
	mv	a5,a0
	.loc 2 805 1
	mv	a0,a5
	ld	ra,40(sp)
	.cfi_restore 1
	ld	s0,32(sp)
	.cfi_restore 8
	.cfi_def_cfa 2, 48
	addi	sp,sp,48
	.cfi_def_cfa_offset 0
	jr	ra
	.cfi_endproc
.LFE26:
	.size	fdt_getprop_namelen_w, .-fdt_getprop_namelen_w
	.section	.text.fdt_setprop_inplace_namelen_partial,"ax",@progbits
	.align	1
	.globl	fdt_setprop_inplace_namelen_partial
	.type	fdt_setprop_inplace_namelen_partial, @function
fdt_setprop_inplace_namelen_partial:
.LFB44:
	.file 3 "/home/kapoagaeming/spacemit-image-builder/components/edk2/EmbeddedPkg/Library/FdtLib/fdt_wip.c"
	.loc 3 68 1
	.cfi_startproc
	addi	sp,sp,-80
	.cfi_def_cfa_offset 80
	sd	ra,72(sp)
	sd	s0,64(sp)
	.cfi_offset 1, -8
	.cfi_offset 8, -16
	addi	s0,sp,80
	.cfi_def_cfa 8, 0
	sd	a0,-40(s0)
	sd	a2,-56(s0)
	mv	a2,a3
	mv	a3,a4
	sd	a5,-72(s0)
	mv	a4,a6
	mv	a5,a1
	sw	a5,-44(s0)
	mv	a5,a2
	sw	a5,-48(s0)
	mv	a5,a3
	sw	a5,-60(s0)
	mv	a5,a4
	sw	a5,-64(s0)
	.loc 3 72 13
	addi	a4,s0,-28
	lw	a3,-48(s0)
	lw	a5,-44(s0)
	ld	a2,-56(s0)
	mv	a1,a5
	ld	a0,-40(s0)
	call	fdt_getprop_namelen_w
	sd	a0,-24(s0)
	.loc 3 79 6
	ld	a5,-24(s0)
	bne	a5,zero,.L14
	.loc 3 80 12
	lw	a5,-28(s0)
	j	.L17
.L14:
	.loc 3 83 22
	lw	a5,-64(s0)
	lw	a4,-60(s0)
	addw	a5,a4,a5
	sext.w	a5,a5
	.loc 3 83 15
	lw	a4,-28(s0)
	.loc 3 83 6
	bleu	a5,a4,.L16
	.loc 3 84 12
	li	a5,-3
	j	.L17
.L16:
	.loc 3 87 3
	lwu	a5,-60(s0)
	ld	a4,-24(s0)
	add	a5,a4,a5
	lw	a4,-64(s0)
	mv	a2,a4
	ld	a1,-72(s0)
	mv	a0,a5
	call	memcpy
	.loc 3 88 10
	li	a5,0
.L17:
	.loc 3 89 1
	mv	a0,a5
	ld	ra,72(sp)
	.cfi_restore 1
	ld	s0,64(sp)
	.cfi_restore 8
	.cfi_def_cfa 2, 80
	addi	sp,sp,80
	.cfi_def_cfa_offset 0
	jr	ra
	.cfi_endproc
.LFE44:
	.size	fdt_setprop_inplace_namelen_partial, .-fdt_setprop_inplace_namelen_partial
	.section	.text.fdt_setprop_inplace,"ax",@progbits
	.align	1
	.globl	fdt_setprop_inplace
	.type	fdt_setprop_inplace, @function
fdt_setprop_inplace:
.LFB45:
	.loc 3 99 1
	.cfi_startproc
	addi	sp,sp,-64
	.cfi_def_cfa_offset 64
	sd	ra,56(sp)
	sd	s0,48(sp)
	.cfi_offset 1, -8
	.cfi_offset 8, -16
	addi	s0,sp,64
	.cfi_def_cfa 8, 0
	sd	a0,-40(s0)
	mv	a5,a1
	sd	a2,-56(s0)
	sd	a3,-64(s0)
	sw	a5,-44(s0)
	mv	a5,a4
	sw	a5,-48(s0)
	.loc 3 103 13
	addi	a4,s0,-28
	lw	a5,-44(s0)
	mv	a3,a4
	ld	a2,-56(s0)
	mv	a1,a5
	ld	a0,-40(s0)
	call	fdt_getprop@plt
	sd	a0,-24(s0)
	.loc 3 104 6
	ld	a5,-24(s0)
	bne	a5,zero,.L19
	.loc 3 105 12
	lw	a5,-28(s0)
	j	.L22
.L19:
	.loc 3 108 15
	lw	a5,-28(s0)
	.loc 3 108 6
	lw	a4,-48(s0)
	sext.w	a4,a4
	beq	a4,a5,.L21
	.loc 3 109 12
	li	a5,-3
	j	.L22
.L21:
	.loc 3 116 12
	ld	a0,-56(s0)
	call	strlen
	mv	a5,a0
	.loc 3 112 10
	sext.w	a3,a5
	lw	a5,-48(s0)
	lw	a1,-44(s0)
	mv	a6,a5
	ld	a5,-64(s0)
	li	a4,0
	ld	a2,-56(s0)
	ld	a0,-40(s0)
	call	fdt_setprop_inplace_namelen_partial
	mv	a5,a0
.L22:
	.loc 3 121 1
	mv	a0,a5
	ld	ra,56(sp)
	.cfi_restore 1
	ld	s0,48(sp)
	.cfi_restore 8
	.cfi_def_cfa 2, 64
	addi	sp,sp,64
	.cfi_def_cfa_offset 0
	jr	ra
	.cfi_endproc
.LFE45:
	.size	fdt_setprop_inplace, .-fdt_setprop_inplace
	.section	.text._fdt_nop_region,"ax",@progbits
	.align	1
	.type	_fdt_nop_region, @function
_fdt_nop_region:
.LFB46:
	.loc 3 128 1
	.cfi_startproc
	addi	sp,sp,-48
	.cfi_def_cfa_offset 48
	sd	ra,40(sp)
	sd	s0,32(sp)
	.cfi_offset 1, -8
	.cfi_offset 8, -16
	addi	s0,sp,48
	.cfi_def_cfa 8, 0
	sd	a0,-40(s0)
	mv	a5,a1
	sw	a5,-44(s0)
	.loc 3 131 10
	ld	a5,-40(s0)
	sd	a5,-24(s0)
	.loc 3 131 3
	j	.L24
.L25:
	.loc 3 132 10
	li	a0,4
	call	fdt32_to_cpu
	mv	a5,a0
	mv	a4,a5
	.loc 3 132 8 discriminator 1
	ld	a5,-24(s0)
	sw	a4,0(a5)
	.loc 3 131 55 discriminator 3
	ld	a5,-24(s0)
	addi	a5,a5,4
	sd	a5,-24(s0)
.L24:
	.loc 3 131 46 discriminator 1
	lw	a5,-44(s0)
	ld	a4,-40(s0)
	add	a5,a4,a5
	.loc 3 131 29 discriminator 1
	ld	a4,-24(s0)
	bltu	a4,a5,.L25
	.loc 3 134 1
	nop
	nop
	ld	ra,40(sp)
	.cfi_restore 1
	ld	s0,32(sp)
	.cfi_restore 8
	.cfi_def_cfa 2, 48
	addi	sp,sp,48
	.cfi_def_cfa_offset 0
	jr	ra
	.cfi_endproc
.LFE46:
	.size	_fdt_nop_region, .-_fdt_nop_region
	.section	.text.fdt_nop_property,"ax",@progbits
	.align	1
	.globl	fdt_nop_property
	.type	fdt_nop_property, @function
fdt_nop_property:
.LFB47:
	.loc 3 142 1
	.cfi_startproc
	addi	sp,sp,-64
	.cfi_def_cfa_offset 64
	sd	ra,56(sp)
	sd	s0,48(sp)
	.cfi_offset 1, -8
	.cfi_offset 8, -16
	addi	s0,sp,64
	.cfi_def_cfa 8, 0
	sd	a0,-40(s0)
	mv	a5,a1
	sd	a2,-56(s0)
	sw	a5,-44(s0)
	.loc 3 146 10
	addi	a4,s0,-28
	lw	a5,-44(s0)
	mv	a3,a4
	ld	a2,-56(s0)
	mv	a1,a5
	ld	a0,-40(s0)
	call	fdt_get_property_w
	sd	a0,-24(s0)
	.loc 3 147 6
	ld	a5,-24(s0)
	bne	a5,zero,.L27
	.loc 3 148 12
	lw	a5,-28(s0)
	j	.L29
.L27:
	.loc 3 151 30
	lw	a5,-28(s0)
	addiw	a5,a5,12
	sext.w	a5,a5
	.loc 3 151 3
	mv	a1,a5
	ld	a0,-24(s0)
	call	_fdt_nop_region
	.loc 3 153 10
	li	a5,0
.L29:
	.loc 3 154 1
	mv	a0,a5
	ld	ra,56(sp)
	.cfi_restore 1
	ld	s0,48(sp)
	.cfi_restore 8
	.cfi_def_cfa 2, 64
	addi	sp,sp,64
	.cfi_def_cfa_offset 0
	jr	ra
	.cfi_endproc
.LFE47:
	.size	fdt_nop_property, .-fdt_nop_property
	.section	.text._fdt_node_end_offset,"ax",@progbits
	.align	1
	.globl	_fdt_node_end_offset
	.type	_fdt_node_end_offset, @function
_fdt_node_end_offset:
.LFB48:
	.loc 3 161 1
	.cfi_startproc
	addi	sp,sp,-48
	.cfi_def_cfa_offset 48
	sd	ra,40(sp)
	sd	s0,32(sp)
	.cfi_offset 1, -8
	.cfi_offset 8, -16
	addi	s0,sp,48
	.cfi_def_cfa 8, 0
	sd	a0,-40(s0)
	mv	a5,a1
	sw	a5,-44(s0)
	.loc 3 162 7
	sw	zero,-20(s0)
	.loc 3 164 9
	j	.L31
.L33:
	.loc 3 165 14
	addi	a4,s0,-20
	lw	a5,-44(s0)
	mv	a2,a4
	mv	a1,a5
	ld	a0,-40(s0)
	call	fdt_next_node@plt
	mv	a5,a0
	sw	a5,-44(s0)
.L31:
	.loc 3 164 24
	lw	a5,-44(s0)
	sext.w	a5,a5
	blt	a5,zero,.L32
	.loc 3 164 34 discriminator 1
	lw	a5,-20(s0)
	.loc 3 164 24 discriminator 1
	bge	a5,zero,.L33
.L32:
	.loc 3 168 10
	lw	a5,-44(s0)
	.loc 3 169 1
	mv	a0,a5
	ld	ra,40(sp)
	.cfi_restore 1
	ld	s0,32(sp)
	.cfi_restore 8
	.cfi_def_cfa 2, 48
	addi	sp,sp,48
	.cfi_def_cfa_offset 0
	jr	ra
	.cfi_endproc
.LFE48:
	.size	_fdt_node_end_offset, .-_fdt_node_end_offset
	.section	.text.fdt_nop_node,"ax",@progbits
	.align	1
	.globl	fdt_nop_node
	.type	fdt_nop_node, @function
fdt_nop_node:
.LFB49:
	.loc 3 176 1
	.cfi_startproc
	addi	sp,sp,-48
	.cfi_def_cfa_offset 48
	sd	ra,40(sp)
	sd	s0,32(sp)
	.cfi_offset 1, -8
	.cfi_offset 8, -16
	addi	s0,sp,48
	.cfi_def_cfa 8, 0
	sd	a0,-40(s0)
	mv	a5,a1
	sw	a5,-44(s0)
	.loc 3 179 15
	lw	a5,-44(s0)
	mv	a1,a5
	ld	a0,-40(s0)
	call	_fdt_node_end_offset
	mv	a5,a0
	sw	a5,-20(s0)
	.loc 3 180 6
	lw	a5,-20(s0)
	sext.w	a5,a5
	bge	a5,zero,.L36
	.loc 3 181 12
	lw	a5,-20(s0)
	j	.L37
.L36:
	.loc 3 184 3
	lw	a5,-44(s0)
	li	a2,0
	mv	a1,a5
	ld	a0,-40(s0)
	call	fdt_offset_ptr_w
	mv	a4,a0
	.loc 3 184 3 is_stmt 0 discriminator 1
	lw	a5,-20(s0)
	mv	a3,a5
	lw	a5,-44(s0)
	subw	a5,a3,a5
	sext.w	a5,a5
	mv	a1,a5
	mv	a0,a4
	call	_fdt_nop_region
	.loc 3 188 10 is_stmt 1
	li	a5,0
.L37:
	.loc 3 189 1
	mv	a0,a5
	ld	ra,40(sp)
	.cfi_restore 1
	ld	s0,32(sp)
	.cfi_restore 8
	.cfi_def_cfa 2, 48
	addi	sp,sp,48
	.cfi_def_cfa_offset 0
	jr	ra
	.cfi_endproc
.LFE49:
	.size	fdt_nop_node, .-fdt_nop_node
	.text
.Letext0:
	.file 4 "/home/kapoagaeming/spacemit-image-builder/components/edk2/MdePkg/Include/RiscV64/ProcessorBind.h"
	.file 5 "/home/kapoagaeming/spacemit-image-builder/components/edk2/EmbeddedPkg/Include/fdt.h"
	.file 6 "/home/kapoagaeming/spacemit-image-builder/components/edk2/MdePkg/Include/Library/BaseLib.h"
	.file 7 "/home/kapoagaeming/spacemit-image-builder/components/edk2/MdePkg/Include/Library/BaseMemoryLib.h"
	.section	.note.GNU-stack,"",@progbits
