	.file	"fdt_empty_tree.c"
	.option pic
	.option norelax
	.attribute arch, "rv64i2p1_m2p0_a2p1_f2p2_d2p2_c2p0_zicsr2p0_zifencei2p0_zmmul1p0_zaamo1p0_zalrsc1p0_zca1p0_zcd1p0"
	.attribute unaligned_access, 0
	.attribute stack_align, 16
	.text
.Ltext0:
	.cfi_sections	.debug_frame
	.file 0 "/home/kapoagaeming/spacemit-image-builder/components/Build/Milk-V-Jupiter/RELEASE_GCC5/RISCV64/EmbeddedPkg/Library/FdtLib/FdtLib" "/home/kapoagaeming/spacemit-image-builder/components/edk2/EmbeddedPkg/Library/FdtLib/fdt_empty_tree.c"
	.section	.rodata
	.align	3
.LC0:
	.string	""
	.section	.text.fdt_create_empty_tree,"ax",@progbits
	.align	1
	.globl	fdt_create_empty_tree
	.type	fdt_create_empty_tree, @function
fdt_create_empty_tree:
.LFB44:
	.file 1 "/home/kapoagaeming/spacemit-image-builder/components/edk2/EmbeddedPkg/Library/FdtLib/fdt_empty_tree.c"
	.loc 1 63 1
	.cfi_startproc
	addi	sp,sp,-48
	.cfi_def_cfa_offset 48
	sd	ra,40(sp)
	sd	s0,32(sp)
	.cfi_offset 1, -8
	.cfi_offset 8, -16
	addi	s0,sp,48
	.cfi_def_cfa 8, 0
	sd	a0,-40(s0)
	mv	a5,a1
	sw	a5,-44(s0)
	.loc 1 66 9
	lw	a5,-44(s0)
	mv	a1,a5
	ld	a0,-40(s0)
	call	fdt_create@plt
	mv	a5,a0
	sw	a5,-20(s0)
	.loc 1 67 6
	lw	a5,-20(s0)
	sext.w	a5,a5
	beq	a5,zero,.L2
	.loc 1 68 12
	lw	a5,-20(s0)
	j	.L3
.L2:
	.loc 1 71 9
	ld	a0,-40(s0)
	call	fdt_finish_reservemap@plt
	mv	a5,a0
	sw	a5,-20(s0)
	.loc 1 72 6
	lw	a5,-20(s0)
	sext.w	a5,a5
	beq	a5,zero,.L4
	.loc 1 73 12
	lw	a5,-20(s0)
	j	.L3
.L4:
	.loc 1 76 9
	lla	a1,.LC0
	ld	a0,-40(s0)
	call	fdt_begin_node@plt
	mv	a5,a0
	sw	a5,-20(s0)
	.loc 1 77 6
	lw	a5,-20(s0)
	sext.w	a5,a5
	beq	a5,zero,.L5
	.loc 1 78 12
	lw	a5,-20(s0)
	j	.L3
.L5:
	.loc 1 81 9
	ld	a0,-40(s0)
	call	fdt_end_node@plt
	mv	a5,a0
	sw	a5,-20(s0)
	.loc 1 82 6
	lw	a5,-20(s0)
	sext.w	a5,a5
	beq	a5,zero,.L6
	.loc 1 83 12
	lw	a5,-20(s0)
	j	.L3
.L6:
	.loc 1 86 9
	ld	a0,-40(s0)
	call	fdt_finish@plt
	mv	a5,a0
	sw	a5,-20(s0)
	.loc 1 87 6
	lw	a5,-20(s0)
	sext.w	a5,a5
	beq	a5,zero,.L7
	.loc 1 88 12
	lw	a5,-20(s0)
	j	.L3
.L7:
	.loc 1 91 10
	lw	a5,-44(s0)
	mv	a2,a5
	ld	a1,-40(s0)
	ld	a0,-40(s0)
	call	fdt_open_into@plt
	mv	a5,a0
.L3:
	.loc 1 92 1
	mv	a0,a5
	ld	ra,40(sp)
	.cfi_restore 1
	ld	s0,32(sp)
	.cfi_restore 8
	.cfi_def_cfa 2, 48
	addi	sp,sp,48
	.cfi_def_cfa_offset 0
	jr	ra
	.cfi_endproc
.LFE44:
	.size	fdt_create_empty_tree, .-fdt_create_empty_tree
	.text
.Letext0:
	.file 2 "/home/kapoagaeming/spacemit-image-builder/components/edk2/EmbeddedPkg/Include/libfdt.h"
	.section	.note.GNU-stack,"",@progbits
