	.file	"fdt_addresses.c"
	.option pic
	.option norelax
	.attribute arch, "rv64i2p1_m2p0_a2p1_f2p2_d2p2_c2p0_zicsr2p0_zifencei2p0_zmmul1p0_zaamo1p0_zalrsc1p0_zca1p0_zcd1p0"
	.attribute unaligned_access, 0
	.attribute stack_align, 16
	.text
.Ltext0:
	.cfi_sections	.debug_frame
	.file 0 "/home/kapoagaeming/spacemit-image-builder/components/Build/Milk-V-Jupiter/RELEASE_GCC5/RISCV64/EmbeddedPkg/Library/FdtLib/FdtLib" "/home/kapoagaeming/spacemit-image-builder/components/edk2/EmbeddedPkg/Library/FdtLib/fdt_addresses.c"
	.section	.text.fdt32_to_cpu,"ax",@progbits
	.align	1
	.type	fdt32_to_cpu, @function
fdt32_to_cpu:
.LFB1:
	.file 1 "/home/kapoagaeming/spacemit-image-builder/components/edk2/EmbeddedPkg/Include/libfdt_env.h"
	.loc 1 40 1
	.cfi_startproc
	addi	sp,sp,-32
	.cfi_def_cfa_offset 32
	sd	ra,24(sp)
	sd	s0,16(sp)
	.cfi_offset 1, -8
	.cfi_offset 8, -16
	addi	s0,sp,32
	.cfi_def_cfa 8, 0
	mv	a5,a0
	sw	a5,-20(s0)
	.loc 1 41 10
	lw	a5,-20(s0)
	mv	a0,a5
	call	SwapBytes32@plt
	mv	a5,a0
	.loc 1 42 1
	mv	a0,a5
	ld	ra,24(sp)
	.cfi_restore 1
	ld	s0,16(sp)
	.cfi_restore 8
	.cfi_def_cfa 2, 32
	addi	sp,sp,32
	.cfi_def_cfa_offset 0
	jr	ra
	.cfi_endproc
.LFE1:
	.size	fdt32_to_cpu, .-fdt32_to_cpu
	.section	.rodata
	.align	3
.LC0:
	.string	"#address-cells"
	.section	.text.fdt_address_cells,"ax",@progbits
	.align	1
	.globl	fdt_address_cells
	.type	fdt_address_cells, @function
fdt_address_cells:
.LFB44:
	.file 2 "/home/kapoagaeming/spacemit-image-builder/components/edk2/EmbeddedPkg/Library/FdtLib/fdt_addresses.c"
	.loc 2 63 1
	.cfi_startproc
	addi	sp,sp,-48
	.cfi_def_cfa_offset 48
	sd	ra,40(sp)
	sd	s0,32(sp)
	.cfi_offset 1, -8
	.cfi_offset 8, -16
	addi	s0,sp,48
	.cfi_def_cfa 8, 0
	sd	a0,-40(s0)
	mv	a5,a1
	sw	a5,-44(s0)
	.loc 2 68 8
	addi	a4,s0,-32
	lw	a5,-44(s0)
	mv	a3,a4
	lla	a2,.LC0
	mv	a1,a5
	ld	a0,-40(s0)
	call	fdt_getprop@plt
	sd	a0,-24(s0)
	.loc 2 69 6
	ld	a5,-24(s0)
	bne	a5,zero,.L4
	.loc 2 70 12
	li	a5,2
	j	.L9
.L4:
	.loc 2 73 11
	lw	a4,-32(s0)
	.loc 2 73 6
	li	a5,4
	beq	a4,a5,.L6
	.loc 2 74 12
	li	a5,-14
	j	.L9
.L6:
	.loc 2 77 9
	ld	a5,-24(s0)
	lw	a5,0(a5)
	mv	a0,a5
	call	fdt32_to_cpu
	mv	a5,a0
	.loc 2 77 7 discriminator 1
	sw	a5,-28(s0)
	.loc 2 78 6
	lw	a5,-28(s0)
	sext.w	a5,a5
	ble	a5,zero,.L7
	.loc 2 78 18 discriminator 1
	lw	a5,-28(s0)
	sext.w	a4,a5
	li	a5,4
	ble	a4,a5,.L8
.L7:
	.loc 2 79 12
	li	a5,-14
	j	.L9
.L8:
	.loc 2 82 10
	lw	a5,-28(s0)
.L9:
	.loc 2 83 1
	mv	a0,a5
	ld	ra,40(sp)
	.cfi_restore 1
	ld	s0,32(sp)
	.cfi_restore 8
	.cfi_def_cfa 2, 48
	addi	sp,sp,48
	.cfi_def_cfa_offset 0
	jr	ra
	.cfi_endproc
.LFE44:
	.size	fdt_address_cells, .-fdt_address_cells
	.section	.rodata
	.align	3
.LC1:
	.string	"#size-cells"
	.section	.text.fdt_size_cells,"ax",@progbits
	.align	1
	.globl	fdt_size_cells
	.type	fdt_size_cells, @function
fdt_size_cells:
.LFB45:
	.loc 2 90 1
	.cfi_startproc
	addi	sp,sp,-48
	.cfi_def_cfa_offset 48
	sd	ra,40(sp)
	sd	s0,32(sp)
	.cfi_offset 1, -8
	.cfi_offset 8, -16
	addi	s0,sp,48
	.cfi_def_cfa 8, 0
	sd	a0,-40(s0)
	mv	a5,a1
	sw	a5,-44(s0)
	.loc 2 95 8
	addi	a4,s0,-32
	lw	a5,-44(s0)
	mv	a3,a4
	lla	a2,.LC1
	mv	a1,a5
	ld	a0,-40(s0)
	call	fdt_getprop@plt
	sd	a0,-24(s0)
	.loc 2 96 6
	ld	a5,-24(s0)
	bne	a5,zero,.L11
	.loc 2 97 12
	li	a5,2
	j	.L16
.L11:
	.loc 2 100 11
	lw	a4,-32(s0)
	.loc 2 100 6
	li	a5,4
	beq	a4,a5,.L13
	.loc 2 101 12
	li	a5,-14
	j	.L16
.L13:
	.loc 2 104 9
	ld	a5,-24(s0)
	lw	a5,0(a5)
	mv	a0,a5
	call	fdt32_to_cpu
	mv	a5,a0
	.loc 2 104 7 discriminator 1
	sw	a5,-28(s0)
	.loc 2 105 6
	lw	a5,-28(s0)
	sext.w	a5,a5
	blt	a5,zero,.L14
	.loc 2 105 17 discriminator 1
	lw	a5,-28(s0)
	sext.w	a4,a5
	li	a5,4
	ble	a4,a5,.L15
.L14:
	.loc 2 106 12
	li	a5,-14
	j	.L16
.L15:
	.loc 2 109 10
	lw	a5,-28(s0)
.L16:
	.loc 2 110 1
	mv	a0,a5
	ld	ra,40(sp)
	.cfi_restore 1
	ld	s0,32(sp)
	.cfi_restore 8
	.cfi_def_cfa 2, 48
	addi	sp,sp,48
	.cfi_def_cfa_offset 0
	jr	ra
	.cfi_endproc
.LFE45:
	.size	fdt_size_cells, .-fdt_size_cells
	.text
.Letext0:
	.file 3 "/home/kapoagaeming/spacemit-image-builder/components/edk2/MdePkg/Include/RiscV64/ProcessorBind.h"
	.file 4 "/home/kapoagaeming/spacemit-image-builder/components/edk2/MdePkg/Include/Library/BaseLib.h"
	.file 5 "/home/kapoagaeming/spacemit-image-builder/components/edk2/EmbeddedPkg/Include/libfdt.h"
	.section	.note.GNU-stack,"",@progbits
