	.file	"Gcd.c"
	.option pic
	.option norelax
	.attribute arch, "rv64i2p1_m2p0_a2p1_f2p2_d2p2_c2p0_zicsr2p0_zifencei2p0_zmmul1p0_zaamo1p0_zalrsc1p0_zca1p0_zcd1p0"
	.attribute unaligned_access, 0
	.attribute stack_align, 16
	.text
.Ltext0:
	.cfi_sections	.debug_frame
	.file 0 "/home/kapoagaeming/spacemit-image-builder/components/Build/Milk-V-Jupiter/RELEASE_GCC5/RISCV64/MdeModulePkg/Core/Dxe/DxeMain" "/home/kapoagaeming/spacemit-image-builder/components/edk2/MdeModulePkg/Core/Dxe/Gcd/Gcd.c"
	.globl	mGcdMemorySpaceLock
	.section	.data.mGcdMemorySpaceLock,"aw"
	.align	3
	.type	mGcdMemorySpaceLock, @object
	.size	mGcdMemorySpaceLock, 24
mGcdMemorySpaceLock:
	.dword	16
	.dword	4
	.word	1
	.zero	4
	.globl	mGcdIoSpaceLock
	.section	.data.mGcdIoSpaceLock,"aw"
	.align	3
	.type	mGcdIoSpaceLock, @object
	.size	mGcdIoSpaceLock, 24
mGcdIoSpaceLock:
	.dword	16
	.dword	4
	.word	1
	.zero	4
	.globl	mGcdMemorySpaceMap
	.section	.data.rel.local.mGcdMemorySpaceMap,"aw"
	.align	3
	.type	mGcdMemorySpaceMap, @object
	.size	mGcdMemorySpaceMap, 16
mGcdMemorySpaceMap:
	.dword	mGcdMemorySpaceMap
	.dword	mGcdMemorySpaceMap
	.globl	mGcdIoSpaceMap
	.section	.data.rel.local.mGcdIoSpaceMap,"aw"
	.align	3
	.type	mGcdIoSpaceMap, @object
	.size	mGcdIoSpaceMap, 16
mGcdIoSpaceMap:
	.dword	mGcdIoSpaceMap
	.dword	mGcdIoSpaceMap
	.globl	mGcdMemorySpaceMapEntryTemplate
	.section	.data.mGcdMemorySpaceMapEntryTemplate,"aw"
	.align	3
	.type	mGcdMemorySpaceMapEntryTemplate, @object
	.size	mGcdMemorySpaceMapEntryTemplate, 80
mGcdMemorySpaceMapEntryTemplate:
	.dword	1835295591
	.dword	0
	.dword	0
	.dword	0
	.dword	0
	.dword	0
	.dword	0
	.word	0
	.word	0
	.dword	0
	.dword	0
	.globl	mGcdIoSpaceMapEntryTemplate
	.section	.data.mGcdIoSpaceMapEntryTemplate,"aw"
	.align	3
	.type	mGcdIoSpaceMapEntryTemplate, @object
	.size	mGcdIoSpaceMapEntryTemplate, 80
mGcdIoSpaceMapEntryTemplate:
	.dword	1835295591
	.dword	0
	.dword	0
	.dword	0
	.dword	0
	.dword	0
	.dword	0
	.word	0
	.word	0
	.dword	0
	.dword	0
	.globl	mAttributeConversionTable
	.section	.data.mAttributeConversionTable,"aw"
	.align	3
	.type	mAttributeConversionTable, @object
	.size	mAttributeConversionTable, 384
mAttributeConversionTable:
	.dword	1024
	.dword	1
	.byte	1
	.zero	7
	.dword	131072
	.dword	16
	.byte	1
	.zero	7
	.dword	2048
	.dword	2
	.byte	1
	.zero	7
	.dword	4096
	.dword	4
	.byte	1
	.zero	7
	.dword	8192
	.dword	8
	.byte	1
	.zero	7
	.dword	1048576
	.dword	8192
	.byte	1
	.zero	7
	.dword	2097152
	.dword	4096
	.byte	1
	.zero	7
	.dword	4194304
	.dword	16384
	.byte	1
	.zero	7
	.dword	524288
	.dword	131072
	.byte	1
	.zero	7
	.dword	1
	.dword	72057594037927936
	.byte	0
	.zero	7
	.dword	2
	.dword	144115188075855872
	.byte	0
	.zero	7
	.dword	4
	.dword	288230376151711744
	.byte	0
	.zero	7
	.dword	16777216
	.dword	32768
	.byte	1
	.zero	7
	.dword	33554432
	.dword	65536
	.byte	1
	.zero	7
	.dword	134217728
	.dword	262144
	.byte	1
	.zero	7
	.dword	0
	.dword	0
	.byte	0
	.zero	7
	.globl	mGcdMemoryTypeNames
	.section	.rodata
	.align	3
.LC0:
	.string	"NonExist "
	.align	3
.LC1:
	.string	"Reserved "
	.align	3
.LC2:
	.string	"SystemMem"
	.align	3
.LC3:
	.string	"MMIO     "
	.align	3
.LC4:
	.string	"PersisMem"
	.align	3
.LC5:
	.string	"MoreRelia"
	.align	3
.LC6:
	.string	"Unaccepte"
	.align	3
.LC7:
	.string	"Unknown  "
	.section	.data.rel.local.mGcdMemoryTypeNames,"aw"
	.align	3
	.type	mGcdMemoryTypeNames, @object
	.size	mGcdMemoryTypeNames, 64
mGcdMemoryTypeNames:
	.dword	.LC0
	.dword	.LC1
	.dword	.LC2
	.dword	.LC3
	.dword	.LC4
	.dword	.LC5
	.dword	.LC6
	.dword	.LC7
	.globl	mGcdIoTypeNames
	.section	.rodata
	.align	3
.LC8:
	.string	"NonExist"
	.align	3
.LC9:
	.string	"Reserved"
	.align	3
.LC10:
	.string	"I/O     "
	.align	3
.LC11:
	.string	"Unknown "
	.section	.data.rel.local.mGcdIoTypeNames,"aw"
	.align	3
	.type	mGcdIoTypeNames, @object
	.size	mGcdIoTypeNames, 32
mGcdIoTypeNames:
	.dword	.LC8
	.dword	.LC9
	.dword	.LC10
	.dword	.LC11
	.globl	mGcdAllocationTypeNames
	.section	.rodata
	.align	3
.LC12:
	.string	"AnySearchBottomUp        "
	.align	3
.LC13:
	.string	"MaxAddressSearchBottomUp "
	.align	3
.LC14:
	.string	"AtAddress                "
	.align	3
.LC15:
	.string	"AnySearchTopDown         "
	.align	3
.LC16:
	.string	"MaxAddressSearchTopDown  "
	.align	3
.LC17:
	.string	"Unknown                  "
	.section	.data.rel.local.mGcdAllocationTypeNames,"aw"
	.align	3
	.type	mGcdAllocationTypeNames, @object
	.size	mGcdAllocationTypeNames, 48
mGcdAllocationTypeNames:
	.dword	.LC12
	.dword	.LC13
	.dword	.LC14
	.dword	.LC15
	.dword	.LC16
	.dword	.LC17
	.section	.text.CoreDumpGcdMemorySpaceMap,"ax",@progbits
	.align	1
	.globl	CoreDumpGcdMemorySpaceMap
	.type	CoreDumpGcdMemorySpaceMap, @function
CoreDumpGcdMemorySpaceMap:
.LFB0:
	.file 1 "/home/kapoagaeming/spacemit-image-builder/components/edk2/MdeModulePkg/Core/Dxe/Gcd/Gcd.c"
	.loc 1 147 1
	.cfi_startproc
	addi	sp,sp,-64
	.cfi_def_cfa_offset 64
	sd	ra,56(sp)
	sd	s0,48(sp)
	.cfi_offset 1, -8
	.cfi_offset 8, -16
	addi	s0,sp,64
	.cfi_def_cfa 8, 0
	mv	a5,a0
	sb	a5,-49(s0)
	.loc 1 148 12
	call	DebugCodeEnabled@plt
	mv	a5,a0
	.loc 1 148 11 discriminator 1
	beq	a5,zero,.L5
.LBB2:
	.loc 1 154 12
	addi	a4,s0,-48
	addi	a5,s0,-40
	mv	a1,a4
	mv	a0,a5
	call	CoreGetMemorySpaceMap
	sd	a0,-24(s0)
	.loc 1 163 14
	sd	zero,-32(s0)
	.loc 1 163 3
	j	.L3
.L4:
	.loc 1 163 53 discriminator 2
	ld	a5,-32(s0)
	addi	a5,a5,1
	sd	a5,-32(s0)
.L3:
	.loc 1 163 25 discriminator 1
	ld	a5,-40(s0)
	ld	a4,-32(s0)
	bltu	a4,a5,.L4
	.loc 1 177 3
	ld	a5,-48(s0)
	mv	a0,a5
	call	FreePool@plt
.L5:
.LBE2:
	.loc 1 179 1
	nop
	ld	ra,56(sp)
	.cfi_restore 1
	ld	s0,48(sp)
	.cfi_restore 8
	.cfi_def_cfa 2, 64
	addi	sp,sp,64
	.cfi_def_cfa_offset 0
	jr	ra
	.cfi_endproc
.LFE0:
	.size	CoreDumpGcdMemorySpaceMap, .-CoreDumpGcdMemorySpaceMap
	.section	.text.CoreDumpGcdIoSpaceMap,"ax",@progbits
	.align	1
	.globl	CoreDumpGcdIoSpaceMap
	.type	CoreDumpGcdIoSpaceMap, @function
CoreDumpGcdIoSpaceMap:
.LFB1:
	.loc 1 193 1
	.cfi_startproc
	addi	sp,sp,-64
	.cfi_def_cfa_offset 64
	sd	ra,56(sp)
	sd	s0,48(sp)
	.cfi_offset 1, -8
	.cfi_offset 8, -16
	addi	s0,sp,64
	.cfi_def_cfa 8, 0
	mv	a5,a0
	sb	a5,-49(s0)
	.loc 1 194 12
	call	DebugCodeEnabled@plt
	mv	a5,a0
	.loc 1 194 11 discriminator 1
	beq	a5,zero,.L10
.LBB3:
	.loc 1 200 12
	addi	a4,s0,-48
	addi	a5,s0,-40
	mv	a1,a4
	mv	a0,a5
	call	CoreGetIoSpaceMap
	sd	a0,-24(s0)
	.loc 1 209 14
	sd	zero,-32(s0)
	.loc 1 209 3
	j	.L8
.L9:
	.loc 1 209 53 discriminator 2
	ld	a5,-32(s0)
	addi	a5,a5,1
	sd	a5,-32(s0)
.L8:
	.loc 1 209 25 discriminator 1
	ld	a5,-40(s0)
	ld	a4,-32(s0)
	bltu	a4,a5,.L9
	.loc 1 221 3
	ld	a5,-48(s0)
	mv	a0,a5
	call	FreePool@plt
.L10:
.LBE3:
	.loc 1 223 1
	nop
	ld	ra,56(sp)
	.cfi_restore 1
	ld	s0,48(sp)
	.cfi_restore 8
	.cfi_def_cfa 2, 64
	addi	sp,sp,64
	.cfi_def_cfa_offset 0
	jr	ra
	.cfi_endproc
.LFE1:
	.size	CoreDumpGcdIoSpaceMap, .-CoreDumpGcdIoSpaceMap
	.section	.text.CoreValidateResourceDescriptorHobAttributes,"ax",@progbits
	.align	1
	.globl	CoreValidateResourceDescriptorHobAttributes
	.type	CoreValidateResourceDescriptorHobAttributes, @function
CoreValidateResourceDescriptorHobAttributes:
.LFB2:
	.loc 1 238 1
	.cfi_startproc
	addi	sp,sp,-32
	.cfi_def_cfa_offset 32
	sd	ra,24(sp)
	sd	s0,16(sp)
	.cfi_offset 1, -8
	.cfi_offset 8, -16
	addi	s0,sp,32
	.cfi_def_cfa 8, 0
	sd	a0,-24(s0)
	.loc 1 259 1
	nop
	ld	ra,24(sp)
	.cfi_restore 1
	ld	s0,16(sp)
	.cfi_restore 8
	.cfi_def_cfa 2, 32
	addi	sp,sp,32
	.cfi_def_cfa_offset 0
	jr	ra
	.cfi_endproc
.LFE2:
	.size	CoreValidateResourceDescriptorHobAttributes, .-CoreValidateResourceDescriptorHobAttributes
	.section	.text.CoreAcquireGcdMemoryLock,"ax",@progbits
	.align	1
	.globl	CoreAcquireGcdMemoryLock
	.type	CoreAcquireGcdMemoryLock, @function
CoreAcquireGcdMemoryLock:
.LFB3:
	.loc 1 269 1
	.cfi_startproc
	addi	sp,sp,-16
	.cfi_def_cfa_offset 16
	sd	ra,8(sp)
	sd	s0,0(sp)
	.cfi_offset 1, -8
	.cfi_offset 8, -16
	addi	s0,sp,16
	.cfi_def_cfa 8, 0
	.loc 1 270 3
	lla	a0,mGcdMemorySpaceLock
	call	CoreAcquireLock@plt
	.loc 1 271 1
	nop
	ld	ra,8(sp)
	.cfi_restore 1
	ld	s0,0(sp)
	.cfi_restore 8
	.cfi_def_cfa 2, 16
	addi	sp,sp,16
	.cfi_def_cfa_offset 0
	jr	ra
	.cfi_endproc
.LFE3:
	.size	CoreAcquireGcdMemoryLock, .-CoreAcquireGcdMemoryLock
	.section	.text.CoreReleaseGcdMemoryLock,"ax",@progbits
	.align	1
	.globl	CoreReleaseGcdMemoryLock
	.type	CoreReleaseGcdMemoryLock, @function
CoreReleaseGcdMemoryLock:
.LFB4:
	.loc 1 281 1
	.cfi_startproc
	addi	sp,sp,-16
	.cfi_def_cfa_offset 16
	sd	ra,8(sp)
	sd	s0,0(sp)
	.cfi_offset 1, -8
	.cfi_offset 8, -16
	addi	s0,sp,16
	.cfi_def_cfa 8, 0
	.loc 1 282 3
	lla	a0,mGcdMemorySpaceLock
	call	CoreReleaseLock@plt
	.loc 1 283 1
	nop
	ld	ra,8(sp)
	.cfi_restore 1
	ld	s0,0(sp)
	.cfi_restore 8
	.cfi_def_cfa 2, 16
	addi	sp,sp,16
	.cfi_def_cfa_offset 0
	jr	ra
	.cfi_endproc
.LFE4:
	.size	CoreReleaseGcdMemoryLock, .-CoreReleaseGcdMemoryLock
	.section	.text.CoreAcquireGcdIoLock,"ax",@progbits
	.align	1
	.globl	CoreAcquireGcdIoLock
	.type	CoreAcquireGcdIoLock, @function
CoreAcquireGcdIoLock:
.LFB5:
	.loc 1 293 1
	.cfi_startproc
	addi	sp,sp,-16
	.cfi_def_cfa_offset 16
	sd	ra,8(sp)
	sd	s0,0(sp)
	.cfi_offset 1, -8
	.cfi_offset 8, -16
	addi	s0,sp,16
	.cfi_def_cfa 8, 0
	.loc 1 294 3
	lla	a0,mGcdIoSpaceLock
	call	CoreAcquireLock@plt
	.loc 1 295 1
	nop
	ld	ra,8(sp)
	.cfi_restore 1
	ld	s0,0(sp)
	.cfi_restore 8
	.cfi_def_cfa 2, 16
	addi	sp,sp,16
	.cfi_def_cfa_offset 0
	jr	ra
	.cfi_endproc
.LFE5:
	.size	CoreAcquireGcdIoLock, .-CoreAcquireGcdIoLock
	.section	.text.CoreReleaseGcdIoLock,"ax",@progbits
	.align	1
	.globl	CoreReleaseGcdIoLock
	.type	CoreReleaseGcdIoLock, @function
CoreReleaseGcdIoLock:
.LFB6:
	.loc 1 305 1
	.cfi_startproc
	addi	sp,sp,-16
	.cfi_def_cfa_offset 16
	sd	ra,8(sp)
	sd	s0,0(sp)
	.cfi_offset 1, -8
	.cfi_offset 8, -16
	addi	s0,sp,16
	.cfi_def_cfa 8, 0
	.loc 1 306 3
	lla	a0,mGcdIoSpaceLock
	call	CoreReleaseLock@plt
	.loc 1 307 1
	nop
	ld	ra,8(sp)
	.cfi_restore 1
	ld	s0,0(sp)
	.cfi_restore 8
	.cfi_def_cfa 2, 16
	addi	sp,sp,16
	.cfi_def_cfa_offset 0
	jr	ra
	.cfi_endproc
.LFE6:
	.size	CoreReleaseGcdIoLock, .-CoreReleaseGcdIoLock
	.section	.text.AlignValue,"ax",@progbits
	.align	1
	.globl	AlignValue
	.type	AlignValue, @function
AlignValue:
.LFB7:
	.loc 1 331 1
	.cfi_startproc
	addi	sp,sp,-64
	.cfi_def_cfa_offset 64
	sd	ra,56(sp)
	sd	s0,48(sp)
	.cfi_offset 1, -8
	.cfi_offset 8, -16
	addi	s0,sp,64
	.cfi_def_cfa 8, 0
	sd	a0,-40(s0)
	sd	a1,-48(s0)
	mv	a5,a2
	sb	a5,-49(s0)
	.loc 1 334 19
	ld	a1,-48(s0)
	li	a0,1
	call	LShiftU64@plt
	mv	a5,a0
	.loc 1 334 17 discriminator 1
	addi	a5,a5,-1
	sd	a5,-24(s0)
	.loc 1 335 6
	lbu	a5,-49(s0)
	andi	a5,a5,0xff
	beq	a5,zero,.L17
	.loc 1 336 11
	ld	a4,-40(s0)
	ld	a5,-24(s0)
	add	a5,a4,a5
	sd	a5,-40(s0)
.L17:
	.loc 1 339 19
	ld	a5,-24(s0)
	not	a4,a5
	.loc 1 339 16
	ld	a5,-40(s0)
	and	a5,a4,a5
	.loc 1 340 1
	mv	a0,a5
	ld	ra,56(sp)
	.cfi_restore 1
	ld	s0,48(sp)
	.cfi_restore 8
	.cfi_def_cfa 2, 64
	addi	sp,sp,64
	.cfi_def_cfa_offset 0
	jr	ra
	.cfi_endproc
.LFE7:
	.size	AlignValue, .-AlignValue
	.section	.text.PageAlignAddress,"ax",@progbits
	.align	1
	.globl	PageAlignAddress
	.type	PageAlignAddress, @function
PageAlignAddress:
.LFB8:
	.loc 1 354 1
	.cfi_startproc
	addi	sp,sp,-32
	.cfi_def_cfa_offset 32
	sd	ra,24(sp)
	sd	s0,16(sp)
	.cfi_offset 1, -8
	.cfi_offset 8, -16
	addi	s0,sp,32
	.cfi_def_cfa 8, 0
	sd	a0,-24(s0)
	.loc 1 355 10
	li	a2,1
	li	a1,12
	ld	a0,-24(s0)
	call	AlignValue
	mv	a5,a0
	.loc 1 356 1
	mv	a0,a5
	ld	ra,24(sp)
	.cfi_restore 1
	ld	s0,16(sp)
	.cfi_restore 8
	.cfi_def_cfa 2, 32
	addi	sp,sp,32
	.cfi_def_cfa_offset 0
	jr	ra
	.cfi_endproc
.LFE8:
	.size	PageAlignAddress, .-PageAlignAddress
	.section	.text.PageAlignLength,"ax",@progbits
	.align	1
	.globl	PageAlignLength
	.type	PageAlignLength, @function
PageAlignLength:
.LFB9:
	.loc 1 370 1
	.cfi_startproc
	addi	sp,sp,-32
	.cfi_def_cfa_offset 32
	sd	ra,24(sp)
	sd	s0,16(sp)
	.cfi_offset 1, -8
	.cfi_offset 8, -16
	addi	s0,sp,32
	.cfi_def_cfa 8, 0
	sd	a0,-24(s0)
	.loc 1 371 10
	li	a2,0
	li	a1,12
	ld	a0,-24(s0)
	call	AlignValue
	mv	a5,a0
	.loc 1 372 1
	mv	a0,a5
	ld	ra,24(sp)
	.cfi_restore 1
	ld	s0,16(sp)
	.cfi_restore 8
	.cfi_def_cfa 2, 32
	addi	sp,sp,32
	.cfi_def_cfa_offset 0
	jr	ra
	.cfi_endproc
.LFE9:
	.size	PageAlignLength, .-PageAlignLength
	.section	.text.CoreAllocateGcdMapEntry,"ax",@progbits
	.align	1
	.globl	CoreAllocateGcdMapEntry
	.type	CoreAllocateGcdMapEntry, @function
CoreAllocateGcdMapEntry:
.LFB10:
	.loc 1 393 1
	.cfi_startproc
	addi	sp,sp,-32
	.cfi_def_cfa_offset 32
	sd	ra,24(sp)
	sd	s0,16(sp)
	.cfi_offset 1, -8
	.cfi_offset 8, -16
	addi	s0,sp,32
	.cfi_def_cfa 8, 0
	sd	a0,-24(s0)
	sd	a1,-32(s0)
	.loc 1 399 15
	la	a5,mOnGuarding
	li	a4,1
	sb	a4,0(a5)
	.loc 1 400 15
	li	a0,80
	call	AllocateZeroPool@plt
	mv	a4,a0
	.loc 1 400 13 discriminator 1
	ld	a5,-24(s0)
	sd	a4,0(a5)
	.loc 1 401 15
	la	a5,mOnGuarding
	sb	zero,0(a5)
	.loc 1 402 7
	ld	a5,-24(s0)
	ld	a5,0(a5)
	.loc 1 402 6
	bne	a5,zero,.L24
	.loc 1 403 12
	li	a5,-1
	slli	a5,a5,63
	addi	a5,a5,9
	j	.L25
.L24:
	.loc 1 406 15
	la	a5,mOnGuarding
	li	a4,1
	sb	a4,0(a5)
	.loc 1 407 18
	li	a0,80
	call	AllocateZeroPool@plt
	mv	a4,a0
	.loc 1 407 16 discriminator 1
	ld	a5,-32(s0)
	sd	a4,0(a5)
	.loc 1 408 15
	la	a5,mOnGuarding
	sb	zero,0(a5)
	.loc 1 409 7
	ld	a5,-32(s0)
	ld	a5,0(a5)
	.loc 1 409 6
	bne	a5,zero,.L26
	.loc 1 410 5
	ld	a5,-24(s0)
	ld	a5,0(a5)
	mv	a0,a5
	call	CoreFreePool@plt
	.loc 1 411 12
	li	a5,-1
	slli	a5,a5,63
	addi	a5,a5,9
	j	.L25
.L26:
	.loc 1 414 10
	li	a5,0
.L25:
	.loc 1 415 1
	mv	a0,a5
	ld	ra,24(sp)
	.cfi_restore 1
	ld	s0,16(sp)
	.cfi_restore 8
	.cfi_def_cfa 2, 32
	addi	sp,sp,32
	.cfi_def_cfa_offset 0
	jr	ra
	.cfi_endproc
.LFE10:
	.size	CoreAllocateGcdMapEntry, .-CoreAllocateGcdMapEntry
	.section	.text.CoreInsertGcdMapEntry,"ax",@progbits
	.align	1
	.globl	CoreInsertGcdMapEntry
	.type	CoreInsertGcdMapEntry, @function
CoreInsertGcdMapEntry:
.LFB11:
	.loc 1 440 1
	.cfi_startproc
	addi	sp,sp,-64
	.cfi_def_cfa_offset 64
	sd	ra,56(sp)
	sd	s0,48(sp)
	.cfi_offset 1, -8
	.cfi_offset 8, -16
	addi	s0,sp,64
	.cfi_def_cfa 8, 0
	sd	a0,-24(s0)
	sd	a1,-32(s0)
	sd	a2,-40(s0)
	sd	a3,-48(s0)
	sd	a4,-56(s0)
	sd	a5,-64(s0)
	.loc 1 443 26
	ld	a5,-32(s0)
	ld	a5,24(a5)
	.loc 1 443 6
	ld	a4,-40(s0)
	bleu	a4,a5,.L28
	.loc 1 446 5
	li	a2,80
	ld	a1,-32(s0)
	ld	a0,-64(s0)
	call	CopyMem@plt
	.loc 1 447 24
	ld	a5,-32(s0)
	ld	a4,-40(s0)
	sd	a4,24(a5)
	.loc 1 448 43
	ld	a5,-40(s0)
	addi	a4,a5,-1
	.loc 1 448 29
	ld	a5,-64(s0)
	sd	a4,32(a5)
	.loc 1 449 5
	ld	a5,-64(s0)
	addi	a5,a5,8
	mv	a1,a5
	ld	a0,-24(s0)
	call	InsertTailList@plt
.L28:
	.loc 1 452 20
	ld	a4,-40(s0)
	ld	a5,-48(s0)
	add	a5,a4,a5
	.loc 1 452 29
	addi	a4,a5,-1
	.loc 1 452 41
	ld	a5,-32(s0)
	ld	a5,32(a5)
	.loc 1 452 6
	bgeu	a4,a5,.L29
	.loc 1 455 5
	li	a2,80
	ld	a1,-32(s0)
	ld	a0,-56(s0)
	call	CopyMem@plt
	.loc 1 456 41
	ld	a4,-40(s0)
	ld	a5,-48(s0)
	add	a4,a4,a5
	.loc 1 456 27
	ld	a5,-56(s0)
	sd	a4,24(a5)
	.loc 1 457 37
	ld	a4,-40(s0)
	ld	a5,-48(s0)
	add	a5,a4,a5
	.loc 1 457 46
	addi	a4,a5,-1
	.loc 1 457 23
	ld	a5,-32(s0)
	sd	a4,32(a5)
	.loc 1 458 5
	ld	a5,-56(s0)
	addi	a5,a5,8
	mv	a1,a5
	ld	a0,-24(s0)
	call	InsertHeadList@plt
.L29:
	.loc 1 461 10
	li	a5,0
	.loc 1 462 1
	mv	a0,a5
	ld	ra,56(sp)
	.cfi_restore 1
	ld	s0,48(sp)
	.cfi_restore 8
	.cfi_def_cfa 2, 64
	addi	sp,sp,64
	.cfi_def_cfa_offset 0
	jr	ra
	.cfi_endproc
.LFE11:
	.size	CoreInsertGcdMapEntry, .-CoreInsertGcdMapEntry
	.section	.text.CoreMergeGcdMapEntry,"ax",@progbits
	.align	1
	.globl	CoreMergeGcdMapEntry
	.type	CoreMergeGcdMapEntry, @function
CoreMergeGcdMapEntry:
.LFB12:
	.loc 1 482 1
	.cfi_startproc
	addi	sp,sp,-80
	.cfi_def_cfa_offset 80
	sd	ra,72(sp)
	sd	s0,64(sp)
	.cfi_offset 1, -8
	.cfi_offset 8, -16
	addi	s0,sp,80
	.cfi_def_cfa 8, 0
	sd	a0,-56(s0)
	mv	a5,a1
	sd	a2,-72(s0)
	sb	a5,-57(s0)
	.loc 1 490 6
	lbu	a5,-57(s0)
	andi	a5,a5,0xff
	beq	a5,zero,.L32
	.loc 1 491 18
	ld	a5,-56(s0)
	ld	a5,0(a5)
	sd	a5,-24(s0)
	j	.L33
.L32:
	.loc 1 493 18
	ld	a5,-56(s0)
	ld	a5,8(a5)
	sd	a5,-24(s0)
.L33:
	.loc 1 499 6
	ld	a4,-24(s0)
	ld	a5,-72(s0)
	bne	a4,a5,.L34
	.loc 1 500 12
	li	a5,0
	j	.L35
.L34:
	.loc 1 503 13
	ld	a5,-56(s0)
	addi	a5,a5,-8
	.loc 1 503 119
	ld	a4,0(a5)
	.loc 1 503 204
	li	a5,1835294720
	addi	a5,a5,871
	bne	a4,a5,.L36
	.loc 1 503 9 discriminator 1
	ld	a5,-56(s0)
	addi	a5,a5,-8
	sd	a5,-32(s0)
	j	.L37
.L36:
	.loc 1 503 9 is_stmt 0 discriminator 2
	sd	zero,-32(s0)
.L37:
	.loc 1 504 21 is_stmt 1
	ld	a5,-24(s0)
	addi	a5,a5,-8
	.loc 1 504 135
	ld	a4,0(a5)
	.loc 1 504 220
	li	a5,1835294720
	addi	a5,a5,871
	bne	a4,a5,.L38
	.loc 1 504 17 discriminator 1
	ld	a5,-24(s0)
	addi	a5,a5,-8
	sd	a5,-40(s0)
	j	.L39
.L38:
	.loc 1 504 17 is_stmt 0 discriminator 2
	sd	zero,-40(s0)
.L39:
	.loc 1 506 12 is_stmt 1
	ld	a5,-32(s0)
	ld	a4,40(a5)
	.loc 1 506 43
	ld	a5,-40(s0)
	ld	a5,40(a5)
	.loc 1 506 6
	beq	a4,a5,.L40
	.loc 1 507 12
	li	a5,-1
	slli	a5,a5,63
	addi	a5,a5,3
	j	.L35
.L40:
	.loc 1 510 12
	ld	a5,-32(s0)
	ld	a4,48(a5)
	.loc 1 510 41
	ld	a5,-40(s0)
	ld	a5,48(a5)
	.loc 1 510 6
	beq	a4,a5,.L41
	.loc 1 511 12
	li	a5,-1
	slli	a5,a5,63
	addi	a5,a5,3
	j	.L35
.L41:
	.loc 1 514 12
	ld	a5,-32(s0)
	lw	a4,56(a5)
	.loc 1 514 44
	ld	a5,-40(s0)
	lw	a5,56(a5)
	.loc 1 514 6
	beq	a4,a5,.L42
	.loc 1 515 12
	li	a5,-1
	slli	a5,a5,63
	addi	a5,a5,3
	j	.L35
.L42:
	.loc 1 518 12
	ld	a5,-32(s0)
	lw	a4,60(a5)
	.loc 1 518 40
	ld	a5,-40(s0)
	lw	a5,60(a5)
	.loc 1 518 6
	beq	a4,a5,.L43
	.loc 1 519 12
	li	a5,-1
	slli	a5,a5,63
	addi	a5,a5,3
	j	.L35
.L43:
	.loc 1 522 12
	ld	a5,-32(s0)
	ld	a4,64(a5)
	.loc 1 522 42
	ld	a5,-40(s0)
	ld	a5,64(a5)
	.loc 1 522 6
	beq	a4,a5,.L44
	.loc 1 523 12
	li	a5,-1
	slli	a5,a5,63
	addi	a5,a5,3
	j	.L35
.L44:
	.loc 1 526 12
	ld	a5,-32(s0)
	ld	a4,72(a5)
	.loc 1 526 43
	ld	a5,-40(s0)
	ld	a5,72(a5)
	.loc 1 526 6
	beq	a4,a5,.L45
	.loc 1 527 12
	li	a5,-1
	slli	a5,a5,63
	addi	a5,a5,3
	j	.L35
.L45:
	.loc 1 530 6
	lbu	a5,-57(s0)
	andi	a5,a5,0xff
	beq	a5,zero,.L46
	.loc 1 531 38
	ld	a5,-40(s0)
	ld	a4,32(a5)
	.loc 1 531 23
	ld	a5,-32(s0)
	sd	a4,32(a5)
	j	.L47
.L46:
	.loc 1 533 39
	ld	a5,-40(s0)
	ld	a4,24(a5)
	.loc 1 533 24
	ld	a5,-32(s0)
	sd	a4,24(a5)
.L47:
	.loc 1 536 3
	ld	a0,-24(s0)
	call	RemoveEntryList@plt
	.loc 1 537 3
	ld	a0,-40(s0)
	call	CoreFreePool@plt
	.loc 1 539 10
	li	a5,0
.L35:
	.loc 1 540 1
	mv	a0,a5
	ld	ra,72(sp)
	.cfi_restore 1
	ld	s0,64(sp)
	.cfi_restore 8
	.cfi_def_cfa 2, 80
	addi	sp,sp,80
	.cfi_def_cfa_offset 0
	jr	ra
	.cfi_endproc
.LFE12:
	.size	CoreMergeGcdMapEntry, .-CoreMergeGcdMapEntry
	.section	.text.CoreCleanupGcdMapEntry,"ax",@progbits
	.align	1
	.globl	CoreCleanupGcdMapEntry
	.type	CoreCleanupGcdMapEntry, @function
CoreCleanupGcdMapEntry:
.LFB13:
	.loc 1 562 1
	.cfi_startproc
	addi	sp,sp,-80
	.cfi_def_cfa_offset 80
	sd	ra,72(sp)
	sd	s0,64(sp)
	.cfi_offset 1, -8
	.cfi_offset 8, -16
	addi	s0,sp,80
	.cfi_def_cfa 8, 0
	sd	a0,-40(s0)
	sd	a1,-48(s0)
	sd	a2,-56(s0)
	sd	a3,-64(s0)
	sd	a4,-72(s0)
	.loc 1 565 15
	ld	a5,-40(s0)
	ld	a5,0(a5)
	.loc 1 565 6
	bne	a5,zero,.L49
	.loc 1 566 5
	ld	a0,-40(s0)
	call	CoreFreePool@plt
.L49:
	.loc 1 569 18
	ld	a5,-48(s0)
	ld	a5,0(a5)
	.loc 1 569 6
	bne	a5,zero,.L50
	.loc 1 570 5
	ld	a0,-48(s0)
	call	CoreFreePool@plt
.L50:
	.loc 1 573 8
	ld	a5,-56(s0)
	sd	a5,-24(s0)
	.loc 1 574 9
	j	.L51
.L52:
	.loc 1 575 5
	ld	a2,-72(s0)
	li	a1,0
	ld	a0,-24(s0)
	call	CoreMergeGcdMapEntry
	.loc 1 576 10
	ld	a5,-24(s0)
	ld	a5,0(a5)
	sd	a5,-24(s0)
.L51:
	.loc 1 574 25
	ld	a5,-64(s0)
	ld	a5,0(a5)
	.loc 1 574 15
	ld	a4,-24(s0)
	bne	a4,a5,.L52
	.loc 1 579 3
	ld	a2,-72(s0)
	li	a1,1
	ld	a0,-64(s0)
	call	CoreMergeGcdMapEntry
	.loc 1 581 10
	li	a5,0
	.loc 1 582 1
	mv	a0,a5
	ld	ra,72(sp)
	.cfi_restore 1
	ld	s0,64(sp)
	.cfi_restore 8
	.cfi_def_cfa 2, 80
	addi	sp,sp,80
	.cfi_def_cfa_offset 0
	jr	ra
	.cfi_endproc
.LFE13:
	.size	CoreCleanupGcdMapEntry, .-CoreCleanupGcdMapEntry
	.section	.text.CoreSearchGcdMapEntry,"ax",@progbits
	.align	1
	.globl	CoreSearchGcdMapEntry
	.type	CoreSearchGcdMapEntry, @function
CoreSearchGcdMapEntry:
.LFB14:
	.loc 1 607 1
	.cfi_startproc
	addi	sp,sp,-80
	.cfi_def_cfa_offset 80
	sd	ra,72(sp)
	sd	s0,64(sp)
	.cfi_offset 1, -8
	.cfi_offset 8, -16
	addi	s0,sp,80
	.cfi_def_cfa 8, 0
	sd	a0,-40(s0)
	sd	a1,-48(s0)
	sd	a2,-56(s0)
	sd	a3,-64(s0)
	sd	a4,-72(s0)
	.loc 1 613 14
	ld	a5,-56(s0)
	sd	zero,0(a5)
	.loc 1 614 12
	ld	a5,-64(s0)
	sd	zero,0(a5)
	.loc 1 616 8
	ld	a5,-72(s0)
	ld	a5,0(a5)
	sd	a5,-24(s0)
	.loc 1 617 9
	j	.L55
.L61:
	.loc 1 618 15
	ld	a5,-24(s0)
	addi	a5,a5,-8
	.loc 1 618 121
	ld	a4,0(a5)
	.loc 1 618 206
	li	a5,1835294720
	addi	a5,a5,871
	bne	a4,a5,.L56
	.loc 1 618 11 discriminator 1
	ld	a5,-24(s0)
	addi	a5,a5,-8
	sd	a5,-32(s0)
	j	.L57
.L56:
	.loc 1 618 11 is_stmt 0 discriminator 2
	sd	zero,-32(s0)
.L57:
	.loc 1 619 30 is_stmt 1
	ld	a5,-32(s0)
	ld	a5,24(a5)
	.loc 1 619 8
	ld	a4,-40(s0)
	bltu	a4,a5,.L58
	.loc 1 619 69 discriminator 1
	ld	a5,-32(s0)
	ld	a5,32(a5)
	.loc 1 619 45 discriminator 1
	ld	a4,-40(s0)
	bgtu	a4,a5,.L58
	.loc 1 620 18
	ld	a5,-56(s0)
	ld	a4,-24(s0)
	sd	a4,0(a5)
.L58:
	.loc 1 623 9
	ld	a5,-56(s0)
	ld	a5,0(a5)
	.loc 1 623 8
	beq	a5,zero,.L59
	.loc 1 624 25
	ld	a4,-40(s0)
	ld	a5,-48(s0)
	add	a5,a4,a5
	.loc 1 624 34
	addi	a4,a5,-1
	.loc 1 624 47
	ld	a5,-32(s0)
	ld	a5,24(a5)
	.loc 1 624 10
	bltu	a4,a5,.L59
	.loc 1 625 25
	ld	a4,-40(s0)
	ld	a5,-48(s0)
	add	a5,a4,a5
	.loc 1 625 34
	addi	a4,a5,-1
	.loc 1 625 47
	ld	a5,-32(s0)
	ld	a5,32(a5)
	.loc 1 624 62 discriminator 1
	bgtu	a4,a5,.L59
	.loc 1 627 18
	ld	a5,-64(s0)
	ld	a4,-24(s0)
	sd	a4,0(a5)
	.loc 1 628 16
	li	a5,0
	j	.L60
.L59:
	.loc 1 632 10
	ld	a5,-24(s0)
	ld	a5,0(a5)
	sd	a5,-24(s0)
.L55:
	.loc 1 617 15
	ld	a4,-24(s0)
	ld	a5,-72(s0)
	bne	a4,a5,.L61
	.loc 1 635 10
	li	a5,-1
	slli	a5,a5,63
	addi	a5,a5,14
.L60:
	.loc 1 636 1
	mv	a0,a5
	ld	ra,72(sp)
	.cfi_restore 1
	ld	s0,64(sp)
	.cfi_restore 8
	.cfi_def_cfa 2, 80
	addi	sp,sp,80
	.cfi_def_cfa_offset 0
	jr	ra
	.cfi_endproc
.LFE14:
	.size	CoreSearchGcdMapEntry, .-CoreSearchGcdMapEntry
	.section	.text.CoreCountGcdMapEntry,"ax",@progbits
	.align	1
	.globl	CoreCountGcdMapEntry
	.type	CoreCountGcdMapEntry, @function
CoreCountGcdMapEntry:
.LFB15:
	.loc 1 650 1
	.cfi_startproc
	addi	sp,sp,-48
	.cfi_def_cfa_offset 48
	sd	ra,40(sp)
	sd	s0,32(sp)
	.cfi_offset 1, -8
	.cfi_offset 8, -16
	addi	s0,sp,48
	.cfi_def_cfa 8, 0
	sd	a0,-40(s0)
	.loc 1 654 9
	sd	zero,-24(s0)
	.loc 1 655 8
	ld	a5,-40(s0)
	ld	a5,0(a5)
	sd	a5,-32(s0)
	.loc 1 656 9
	j	.L63
.L64:
	.loc 1 657 10
	ld	a5,-24(s0)
	addi	a5,a5,1
	sd	a5,-24(s0)
	.loc 1 658 10
	ld	a5,-32(s0)
	ld	a5,0(a5)
	sd	a5,-32(s0)
.L63:
	.loc 1 656 15
	ld	a4,-32(s0)
	ld	a5,-40(s0)
	bne	a4,a5,.L64
	.loc 1 661 10
	ld	a5,-24(s0)
	.loc 1 662 1
	mv	a0,a5
	ld	ra,40(sp)
	.cfi_restore 1
	ld	s0,32(sp)
	.cfi_restore 8
	.cfi_def_cfa 2, 48
	addi	sp,sp,48
	.cfi_def_cfa_offset 0
	jr	ra
	.cfi_endproc
.LFE15:
	.size	CoreCountGcdMapEntry, .-CoreCountGcdMapEntry
	.section	.text.ConverToCpuArchAttributes,"ax",@progbits
	.align	1
	.globl	ConverToCpuArchAttributes
	.type	ConverToCpuArchAttributes, @function
ConverToCpuArchAttributes:
.LFB16:
	.loc 1 676 1
	.cfi_startproc
	addi	sp,sp,-48
	.cfi_def_cfa_offset 48
	sd	ra,40(sp)
	sd	s0,32(sp)
	.cfi_offset 1, -8
	.cfi_offset 8, -16
	addi	s0,sp,48
	.cfi_def_cfa 8, 0
	sd	a0,-40(s0)
	.loc 1 679 21
	ld	a4,-40(s0)
	li	a5,942080
	and	a5,a4,a5
	sd	a5,-24(s0)
	.loc 1 681 19
	ld	a5,-40(s0)
	andi	a5,a5,1
	.loc 1 681 6
	beq	a5,zero,.L67
	.loc 1 682 23
	ld	a5,-24(s0)
	ori	a5,a5,1
	sd	a5,-24(s0)
	j	.L68
.L67:
	.loc 1 683 26
	ld	a5,-40(s0)
	andi	a5,a5,2
	.loc 1 683 13
	beq	a5,zero,.L69
	.loc 1 684 23
	ld	a5,-24(s0)
	ori	a5,a5,2
	sd	a5,-24(s0)
	j	.L68
.L69:
	.loc 1 685 26
	ld	a5,-40(s0)
	andi	a5,a5,4
	.loc 1 685 13
	beq	a5,zero,.L70
	.loc 1 686 23
	ld	a5,-24(s0)
	ori	a5,a5,4
	sd	a5,-24(s0)
	j	.L68
.L70:
	.loc 1 687 26
	ld	a5,-40(s0)
	andi	a5,a5,8
	.loc 1 687 13
	beq	a5,zero,.L71
	.loc 1 688 23
	ld	a5,-24(s0)
	ori	a5,a5,8
	sd	a5,-24(s0)
	j	.L68
.L71:
	.loc 1 689 26
	ld	a5,-40(s0)
	andi	a5,a5,16
	.loc 1 689 13
	beq	a5,zero,.L72
	.loc 1 690 23
	ld	a5,-24(s0)
	ori	a5,a5,16
	sd	a5,-24(s0)
	j	.L68
.L72:
	.loc 1 691 26
	ld	a4,-40(s0)
	li	a5,4096
	and	a5,a4,a5
	.loc 1 691 13
	beq	a5,zero,.L68
	.loc 1 692 23
	ld	a4,-24(s0)
	li	a5,4096
	or	a5,a4,a5
	sd	a5,-24(s0)
.L68:
	.loc 1 695 10
	ld	a5,-24(s0)
	.loc 1 696 1
	mv	a0,a5
	ld	ra,40(sp)
	.cfi_restore 1
	ld	s0,32(sp)
	.cfi_restore 8
	.cfi_def_cfa 2, 48
	addi	sp,sp,48
	.cfi_def_cfa_offset 0
	jr	ra
	.cfi_endproc
.LFE16:
	.size	ConverToCpuArchAttributes, .-ConverToCpuArchAttributes
	.section	.text.CoreConvertSpace,"ax",@progbits
	.align	1
	.globl	CoreConvertSpace
	.type	CoreConvertSpace, @function
CoreConvertSpace:
.LFB17:
	.loc 1 732 1
	.cfi_startproc
	addi	sp,sp,-144
	.cfi_def_cfa_offset 144
	sd	ra,136(sp)
	sd	s0,128(sp)
	.cfi_offset 1, -8
	.cfi_offset 8, -16
	addi	s0,sp,144
	.cfi_def_cfa 8, 0
	sd	a0,-104(s0)
	sd	a3,-120(s0)
	sd	a4,-128(s0)
	sd	a5,-136(s0)
	sd	a6,-144(s0)
	mv	a5,a1
	sw	a5,-108(s0)
	mv	a5,a2
	sw	a5,-112(s0)
	.loc 1 743 6
	ld	a5,-128(s0)
	bne	a5,zero,.L75
	.loc 1 745 12
	li	a5,-1
	slli	a5,a5,63
	addi	a5,a5,2
	j	.L131
.L75:
	.loc 1 748 7
	sd	zero,-32(s0)
	.loc 1 749 18
	ld	a5,-104(s0)
	andi	a5,a5,32
	.loc 1 749 6
	beq	a5,zero,.L77
	.loc 1 750 5
	call	CoreAcquireGcdMemoryLock
	.loc 1 751 9
	lla	a5,mGcdMemorySpaceMap
	sd	a5,-32(s0)
	j	.L78
.L77:
	.loc 1 752 25
	ld	a5,-104(s0)
	andi	a5,a5,64
	.loc 1 752 13
	beq	a5,zero,.L78
	.loc 1 753 5
	call	CoreAcquireGcdIoLock
	.loc 1 754 9
	lla	a5,mGcdIoSpaceMap
	sd	a5,-32(s0)
.L78:
	.loc 1 762 12
	addi	a3,s0,-88
	addi	a5,s0,-80
	ld	a4,-32(s0)
	mv	a2,a5
	ld	a1,-128(s0)
	ld	a0,-120(s0)
	call	CoreSearchGcdMapEntry
	sd	a0,-24(s0)
	.loc 1 763 34
	ld	a5,-24(s0)
	.loc 1 763 6
	bge	a5,zero,.L79
	.loc 1 764 12
	li	a5,-1
	slli	a5,a5,63
	addi	a5,a5,3
	sd	a5,-24(s0)
	.loc 1 766 5
	j	.L132
.L79:
	.loc 1 774 8
	ld	a5,-80(s0)
	sd	a5,-40(s0)
	.loc 1 775 9
	j	.L81
.L107:
	.loc 1 776 15
	ld	a5,-40(s0)
	addi	a5,a5,-8
	.loc 1 776 121
	ld	a4,0(a5)
	.loc 1 776 206
	li	a5,1835294720
	addi	a5,a5,871
	bne	a4,a5,.L82
	.loc 1 776 11 discriminator 1
	ld	a5,-40(s0)
	addi	a5,a5,-8
	sd	a5,-48(s0)
	j	.L83
.L82:
	.loc 1 776 11 is_stmt 0 discriminator 2
	sd	zero,-48(s0)
.L83:
	.loc 1 777 5 is_stmt 1
	ld	a4,-104(s0)
	li	a5,67
	beq	a4,a5,.L84
	ld	a4,-104(s0)
	li	a5,67
	bgtu	a4,a5,.L85
	ld	a4,-104(s0)
	li	a5,66
	beq	a4,a5,.L86
	ld	a4,-104(s0)
	li	a5,66
	bgtu	a4,a5,.L85
	ld	a4,-104(s0)
	li	a5,64
	beq	a4,a5,.L87
	ld	a4,-104(s0)
	li	a5,64
	bgtu	a4,a5,.L85
	ld	a4,-104(s0)
	li	a5,37
	beq	a4,a5,.L88
	ld	a4,-104(s0)
	li	a5,37
	bgtu	a4,a5,.L85
	ld	a4,-104(s0)
	li	a5,36
	beq	a4,a5,.L89
	ld	a4,-104(s0)
	li	a5,36
	bgtu	a4,a5,.L85
	ld	a4,-104(s0)
	li	a5,35
	beq	a4,a5,.L90
	ld	a4,-104(s0)
	li	a5,35
	bgtu	a4,a5,.L85
	ld	a4,-104(s0)
	li	a5,32
	beq	a4,a5,.L91
	ld	a4,-104(s0)
	li	a5,34
	beq	a4,a5,.L86
	j	.L85
.L91:
	.loc 1 782 19
	ld	a5,-48(s0)
	lw	a5,56(a5)
	.loc 1 782 12
	bne	a5,zero,.L92
	.loc 1 783 19
	ld	a5,-48(s0)
	ld	a5,64(a5)
	.loc 1 782 67 discriminator 1
	beq	a5,zero,.L133
.L92:
	.loc 1 785 18
	li	a5,-1
	slli	a5,a5,63
	addi	a5,a5,15
	sd	a5,-24(s0)
	.loc 1 786 11
	j	.L132
.L87:
	.loc 1 791 19
	ld	a5,-48(s0)
	lw	a5,60(a5)
	.loc 1 791 12
	bne	a5,zero,.L94
	.loc 1 792 19
	ld	a5,-48(s0)
	ld	a5,64(a5)
	.loc 1 791 59 discriminator 1
	beq	a5,zero,.L134
.L94:
	.loc 1 794 18
	li	a5,-1
	slli	a5,a5,63
	addi	a5,a5,15
	sd	a5,-24(s0)
	.loc 1 795 11
	j	.L132
.L86:
	.loc 1 804 18
	ld	a5,-48(s0)
	ld	a5,64(a5)
	.loc 1 804 12
	bne	a5,zero,.L135
	.loc 1 805 18
	li	a5,-1
	slli	a5,a5,63
	addi	a5,a5,14
	sd	a5,-24(s0)
	.loc 1 806 11
	j	.L132
.L90:
	.loc 1 814 18
	ld	a5,-48(s0)
	lw	a5,56(a5)
	.loc 1 814 12
	bne	a5,zero,.L97
	.loc 1 815 18
	li	a5,-1
	slli	a5,a5,63
	addi	a5,a5,14
	sd	a5,-24(s0)
	.loc 1 816 11
	j	.L132
.L97:
	.loc 1 819 18
	ld	a5,-48(s0)
	ld	a5,64(a5)
	.loc 1 819 12
	beq	a5,zero,.L136
	.loc 1 820 18
	li	a5,-1
	slli	a5,a5,63
	addi	a5,a5,15
	sd	a5,-24(s0)
	.loc 1 821 11
	j	.L132
.L84:
	.loc 1 826 18
	ld	a5,-48(s0)
	lw	a5,60(a5)
	.loc 1 826 12
	bne	a5,zero,.L99
	.loc 1 827 18
	li	a5,-1
	slli	a5,a5,63
	addi	a5,a5,14
	sd	a5,-24(s0)
	.loc 1 828 11
	j	.L132
.L99:
	.loc 1 831 18
	ld	a5,-48(s0)
	ld	a5,64(a5)
	.loc 1 831 12
	beq	a5,zero,.L137
	.loc 1 832 18
	li	a5,-1
	slli	a5,a5,63
	addi	a5,a5,15
	sd	a5,-24(s0)
	.loc 1 833 11
	j	.L132
.L89:
	.loc 1 841 50
	ld	a5,-144(s0)
	.loc 1 841 12
	bge	a5,zero,.L101
	.loc 1 842 29
	ld	a4,-120(s0)
	li	a5,4096
	addi	a5,a5,-1
	and	a5,a4,a5
	.loc 1 842 14
	bne	a5,zero,.L102
	.loc 1 842 56 discriminator 1
	ld	a4,-128(s0)
	li	a5,4096
	addi	a5,a5,-1
	and	a5,a4,a5
	.loc 1 842 44 discriminator 1
	beq	a5,zero,.L101
.L102:
	.loc 1 843 20
	li	a5,-1
	slli	a5,a5,63
	addi	a5,a5,2
	sd	a5,-24(s0)
	.loc 1 844 13
	j	.L132
.L101:
	.loc 1 848 19
	ld	a5,-48(s0)
	ld	a4,40(a5)
	.loc 1 848 34
	ld	a5,-144(s0)
	and	a5,a4,a5
	.loc 1 848 12
	ld	a4,-144(s0)
	beq	a4,a5,.L138
	.loc 1 849 18
	li	a5,-1
	slli	a5,a5,63
	addi	a5,a5,3
	sd	a5,-24(s0)
	.loc 1 850 11
	j	.L132
.L88:
	.loc 1 858 27
	ld	a4,-120(s0)
	li	a5,4096
	addi	a5,a5,-1
	and	a5,a4,a5
	.loc 1 858 12
	bne	a5,zero,.L104
	.loc 1 858 54 discriminator 1
	ld	a4,-128(s0)
	li	a5,4096
	addi	a5,a5,-1
	and	a5,a4,a5
	.loc 1 858 42 discriminator 1
	beq	a5,zero,.L105
.L104:
	.loc 1 859 18
	li	a5,-1
	slli	a5,a5,63
	addi	a5,a5,2
	sd	a5,-24(s0)
	.loc 1 861 11
	j	.L132
.L105:
	.loc 1 867 34
	ld	a5,-48(s0)
	ld	a4,48(a5)
	.loc 1 867 27
	ld	a5,-136(s0)
	and	a4,a4,a5
	.loc 1 867 56
	ld	a5,-48(s0)
	ld	a5,48(a5)
	.loc 1 867 12
	beq	a4,a5,.L139
	.loc 1 868 18
	li	a5,-1
	slli	a5,a5,63
	addi	a5,a5,3
	sd	a5,-24(s0)
	.loc 1 869 11
	j	.L132
.L133:
	.loc 1 789 9
	nop
	j	.L85
.L134:
	.loc 1 798 9
	nop
	j	.L85
.L135:
	.loc 1 809 9
	nop
	j	.L85
.L136:
	.loc 1 824 9
	nop
	j	.L85
.L137:
	.loc 1 836 9
	nop
	j	.L85
.L138:
	.loc 1 853 9
	nop
	j	.L85
.L139:
	.loc 1 872 9
	nop
.L85:
	.loc 1 875 10
	ld	a5,-40(s0)
	ld	a5,0(a5)
	sd	a5,-40(s0)
.L81:
	.loc 1 775 25
	ld	a5,-88(s0)
	ld	a5,0(a5)
	.loc 1 775 15
	ld	a4,-40(s0)
	bne	a4,a5,.L107
	.loc 1 881 12
	addi	a4,s0,-72
	addi	a5,s0,-64
	mv	a1,a4
	mv	a0,a5
	call	CoreAllocateGcdMapEntry
	sd	a0,-24(s0)
	.loc 1 882 34
	ld	a5,-24(s0)
	.loc 1 882 6
	bge	a5,zero,.L108
	.loc 1 883 12
	li	a5,-1
	slli	a5,a5,63
	addi	a5,a5,9
	sd	a5,-24(s0)
	.loc 1 884 5
	j	.L132
.L108:
	.loc 1 892 21
	sd	zero,-56(s0)
	.loc 1 893 6
	ld	a4,-104(s0)
	li	a5,36
	bne	a4,a5,.L109
	.loc 1 897 25
	ld	a0,-144(s0)
	call	ConverToCpuArchAttributes
	sd	a0,-56(s0)
	.loc 1 912 8
	ld	a5,-56(s0)
	beq	a5,zero,.L109
	.loc 1 913 16
	la	a5,gCpu
	ld	a5,0(a5)
	.loc 1 913 10
	bne	a5,zero,.L110
	.loc 1 914 16
	li	a5,-3
	slli	a5,a5,61
	addi	a5,a5,2
	sd	a5,-24(s0)
	j	.L111
.L110:
	.loc 1 916 22
	la	a5,gCpu
	ld	a5,0(a5)
	ld	a5,56(a5)
	.loc 1 916 18
	la	a4,gCpu
	ld	a4,0(a4)
	ld	a3,-56(s0)
	ld	a2,-128(s0)
	ld	a1,-120(s0)
	mv	a0,a4
	jalr	a5
.LVL0:
	sd	a0,-24(s0)
.L111:
	.loc 1 924 38
	ld	a5,-24(s0)
	.loc 1 924 10
	bge	a5,zero,.L109
	.loc 1 925 9
	ld	a5,-64(s0)
	mv	a0,a5
	call	CoreFreePool@plt
	.loc 1 926 9
	ld	a5,-72(s0)
	mv	a0,a5
	call	CoreFreePool@plt
	.loc 1 927 9
	j	.L132
.L109:
	.loc 1 935 8
	ld	a5,-80(s0)
	sd	a5,-40(s0)
	.loc 1 936 9
	j	.L112
.L128:
	.loc 1 937 15
	ld	a5,-40(s0)
	addi	a5,a5,-8
	.loc 1 937 121
	ld	a4,0(a5)
	.loc 1 937 206
	li	a5,1835294720
	addi	a5,a5,871
	bne	a4,a5,.L113
	.loc 1 937 11 discriminator 1
	ld	a5,-40(s0)
	addi	a5,a5,-8
	sd	a5,-48(s0)
	j	.L114
.L113:
	.loc 1 937 11 is_stmt 0 discriminator 2
	sd	zero,-48(s0)
.L114:
	.loc 1 938 5 is_stmt 1
	ld	a4,-64(s0)
	ld	a5,-72(s0)
	ld	a3,-128(s0)
	ld	a2,-120(s0)
	ld	a1,-48(s0)
	ld	a0,-40(s0)
	call	CoreInsertGcdMapEntry
	.loc 1 939 5
	ld	a4,-104(s0)
	li	a5,67
	beq	a4,a5,.L115
	ld	a4,-104(s0)
	li	a5,67
	bgtu	a4,a5,.L116
	ld	a4,-104(s0)
	li	a5,66
	beq	a4,a5,.L117
	ld	a4,-104(s0)
	li	a5,66
	bgtu	a4,a5,.L116
	ld	a4,-104(s0)
	li	a5,64
	beq	a4,a5,.L118
	ld	a4,-104(s0)
	li	a5,64
	bgtu	a4,a5,.L116
	ld	a4,-104(s0)
	li	a5,37
	beq	a4,a5,.L119
	ld	a4,-104(s0)
	li	a5,37
	bgtu	a4,a5,.L116
	ld	a4,-104(s0)
	li	a5,36
	beq	a4,a5,.L120
	ld	a4,-104(s0)
	li	a5,36
	bgtu	a4,a5,.L116
	ld	a4,-104(s0)
	li	a5,35
	beq	a4,a5,.L121
	ld	a4,-104(s0)
	li	a5,35
	bgtu	a4,a5,.L116
	ld	a4,-104(s0)
	li	a5,32
	beq	a4,a5,.L122
	ld	a4,-104(s0)
	li	a5,34
	beq	a4,a5,.L117
	j	.L116
.L122:
	.loc 1 944 30
	ld	a5,-48(s0)
	lw	a4,-108(s0)
	sw	a4,56(a5)
	.loc 1 945 12
	lw	a5,-108(s0)
	sext.w	a4,a5
	li	a5,3
	bne	a4,a5,.L123
	.loc 1 946 70
	ld	a4,-136(s0)
	li	a5,-1
	slli	a5,a5,62
	or	a4,a4,a5
	.loc 1 946 31
	ld	a5,-48(s0)
	sd	a4,40(a5)
	.loc 1 951 9
	j	.L116
.L123:
	.loc 1 948 46
	ld	a4,-136(s0)
	li	a5,-1
	slli	a5,a5,63
	or	a4,a4,a5
	.loc 1 948 31
	ld	a5,-48(s0)
	sd	a4,40(a5)
	.loc 1 951 9
	j	.L116
.L118:
	.loc 1 953 26
	ld	a5,-48(s0)
	lw	a4,-112(s0)
	sw	a4,60(a5)
	.loc 1 954 9
	j	.L116
.L117:
	.loc 1 960 28
	ld	a5,-48(s0)
	sd	zero,64(a5)
	.loc 1 961 29
	ld	a5,-48(s0)
	sd	zero,72(a5)
	.loc 1 962 9
	j	.L116
.L121:
	.loc 1 967 30
	ld	a5,-48(s0)
	sw	zero,56(a5)
	.loc 1 968 29
	ld	a5,-48(s0)
	sd	zero,40(a5)
	.loc 1 969 9
	j	.L116
.L115:
	.loc 1 971 26
	ld	a5,-48(s0)
	sw	zero,60(a5)
	.loc 1 972 9
	j	.L116
.L120:
	.loc 1 977 12
	ld	a5,-56(s0)
	bne	a5,zero,.L125
	.loc 1 982 31
	ld	a5,-48(s0)
	ld	a4,48(a5)
	.loc 1 982 44
	li	a5,946176
	addi	a5,a5,31
	and	a5,a4,a5
	.loc 1 982 22
	ld	a4,-144(s0)
	or	a5,a4,a5
	sd	a5,-144(s0)
.L125:
	.loc 1 985 27
	ld	a5,-48(s0)
	ld	a4,-144(s0)
	sd	a4,48(a5)
	.loc 1 986 9
	j	.L116
.L119:
	.loc 1 991 29
	ld	a5,-48(s0)
	ld	a4,-136(s0)
	sd	a4,40(a5)
	.loc 1 996 19
	ld	a5,-48(s0)
	lw	a4,56(a5)
	.loc 1 996 12
	li	a5,2
	beq	a4,a5,.L126
	.loc 1 997 19
	ld	a5,-48(s0)
	lw	a4,56(a5)
	.loc 1 996 68 discriminator 1
	li	a5,5
	bne	a4,a5,.L140
.L126:
	.loc 1 999 11
	li	a1,12
	ld	a0,-128(s0)
	call	RShiftU64@plt
	mv	a3,a0
	.loc 1 999 11 is_stmt 0 discriminator 1
	ld	a4,-136(s0)
	li	a5,-1
	srli	a5,a5,1
	and	a5,a4,a5
	mv	a2,a5
	mv	a1,a3
	ld	a0,-120(s0)
	call	CoreUpdateMemoryAttributes@plt
.L140:
	.loc 1 1006 9 is_stmt 1
	nop
.L116:
	.loc 1 1009 10
	ld	a5,-40(s0)
	ld	a5,0(a5)
	sd	a5,-40(s0)
.L112:
	.loc 1 936 25
	ld	a5,-88(s0)
	ld	a5,0(a5)
	.loc 1 936 15
	ld	a4,-40(s0)
	bne	a4,a5,.L128
	.loc 1 1015 12
	ld	a5,-64(s0)
	ld	a1,-72(s0)
	ld	a2,-80(s0)
	ld	a3,-88(s0)
	ld	a4,-32(s0)
	mv	a0,a5
	call	CoreCleanupGcdMapEntry
	sd	a0,-24(s0)
.L80:
.L132:
	.loc 1 1020 18
	ld	a5,-104(s0)
	andi	a5,a5,32
	.loc 1 1020 6
	beq	a5,zero,.L129
	.loc 1 1021 5
	call	CoreReleaseGcdMemoryLock
	.loc 1 1022 5
	li	a0,0
	call	CoreDumpGcdMemorySpaceMap
.L129:
	.loc 1 1025 18
	ld	a5,-104(s0)
	andi	a5,a5,64
	.loc 1 1025 6
	beq	a5,zero,.L130
	.loc 1 1026 5
	call	CoreReleaseGcdIoLock
	.loc 1 1027 5
	li	a0,0
	call	CoreDumpGcdIoSpaceMap
.L130:
	.loc 1 1030 10
	ld	a5,-24(s0)
.L131:
	.loc 1 1031 1
	mv	a0,a5
	ld	ra,136(sp)
	.cfi_restore 1
	ld	s0,128(sp)
	.cfi_restore 8
	.cfi_def_cfa 2, 144
	addi	sp,sp,144
	.cfi_def_cfa_offset 0
	jr	ra
	.cfi_endproc
.LFE17:
	.size	CoreConvertSpace, .-CoreConvertSpace
	.section	.text.CoreAllocateSpaceCheckEntry,"ax",@progbits
	.align	1
	.globl	CoreAllocateSpaceCheckEntry
	.type	CoreAllocateSpaceCheckEntry, @function
CoreAllocateSpaceCheckEntry:
.LFB18:
	.loc 1 1055 1
	.cfi_startproc
	addi	sp,sp,-48
	.cfi_def_cfa_offset 48
	sd	ra,40(sp)
	sd	s0,32(sp)
	.cfi_offset 1, -8
	.cfi_offset 8, -16
	addi	s0,sp,48
	.cfi_def_cfa 8, 0
	sd	a0,-24(s0)
	sd	a1,-32(s0)
	mv	a5,a2
	mv	a4,a3
	sw	a5,-36(s0)
	mv	a5,a4
	sw	a5,-40(s0)
	.loc 1 1056 12
	ld	a5,-32(s0)
	ld	a5,64(a5)
	.loc 1 1056 6
	beq	a5,zero,.L142
	.loc 1 1057 12
	li	a5,-1
	slli	a5,a5,63
	addi	a5,a5,14
	j	.L143
.L142:
	.loc 1 1060 3
	ld	a4,-24(s0)
	li	a5,33
	beq	a4,a5,.L144
	ld	a4,-24(s0)
	li	a5,65
	beq	a4,a5,.L145
	j	.L150
.L144:
	.loc 1 1062 16
	ld	a5,-32(s0)
	lw	a5,56(a5)
	.loc 1 1062 10
	lw	a4,-36(s0)
	sext.w	a4,a4
	beq	a4,a5,.L151
	.loc 1 1063 16
	li	a5,-1
	slli	a5,a5,63
	addi	a5,a5,14
	j	.L143
.L145:
	.loc 1 1068 16
	ld	a5,-32(s0)
	lw	a5,60(a5)
	.loc 1 1068 10
	lw	a4,-40(s0)
	sext.w	a4,a4
	beq	a4,a5,.L152
	.loc 1 1069 16
	li	a5,-1
	slli	a5,a5,63
	addi	a5,a5,14
	j	.L143
.L150:
	.loc 1 1074 14
	li	a5,-1
	slli	a5,a5,63
	addi	a5,a5,3
	j	.L143
.L151:
	.loc 1 1066 7
	nop
	j	.L148
.L152:
	.loc 1 1072 7
	nop
.L148:
	.loc 1 1077 10
	li	a5,0
.L143:
	.loc 1 1078 1
	mv	a0,a5
	ld	ra,40(sp)
	.cfi_restore 1
	ld	s0,32(sp)
	.cfi_restore 8
	.cfi_def_cfa 2, 48
	addi	sp,sp,48
	.cfi_def_cfa_offset 0
	jr	ra
	.cfi_endproc
.LFE18:
	.size	CoreAllocateSpaceCheckEntry, .-CoreAllocateSpaceCheckEntry
	.section	.text.CoreAllocateSpace,"ax",@progbits
	.align	1
	.globl	CoreAllocateSpace
	.type	CoreAllocateSpace, @function
CoreAllocateSpace:
.LFB19:
	.loc 1 1110 1
	.cfi_startproc
	addi	sp,sp,-176
	.cfi_def_cfa_offset 176
	sd	ra,168(sp)
	sd	s0,160(sp)
	.cfi_offset 1, -8
	.cfi_offset 8, -16
	addi	s0,sp,176
	.cfi_def_cfa 8, 0
	sd	a0,-120(s0)
	sd	a4,-144(s0)
	sd	a5,-152(s0)
	sd	a6,-160(s0)
	sd	a7,-168(s0)
	mv	a5,a1
	sw	a5,-124(s0)
	mv	a5,a2
	sw	a5,-128(s0)
	mv	a5,a3
	sw	a5,-132(s0)
	.loc 1 1127 6
	lw	a5,-124(s0)
	sext.w	a4,a5
	li	a5,4
	bleu	a4,a5,.L154
	.loc 1 1129 12
	li	a5,-1
	slli	a5,a5,63
	addi	a5,a5,2
	j	.L212
.L154:
	.loc 1 1132 6
	lw	a5,-128(s0)
	sext.w	a4,a5
	li	a5,6
	bleu	a4,a5,.L156
	.loc 1 1134 12
	li	a5,-1
	slli	a5,a5,63
	addi	a5,a5,2
	j	.L212
.L156:
	.loc 1 1137 6
	lw	a5,-132(s0)
	sext.w	a4,a5
	li	a5,2
	bleu	a4,a5,.L157
	.loc 1 1139 12
	li	a5,-1
	slli	a5,a5,63
	addi	a5,a5,2
	j	.L212
.L157:
	.loc 1 1142 6
	ld	a5,-160(s0)
	bne	a5,zero,.L158
	.loc 1 1144 12
	li	a5,-1
	slli	a5,a5,63
	addi	a5,a5,2
	j	.L212
.L158:
	.loc 1 1147 6
	ld	a5,-168(s0)
	bne	a5,zero,.L159
	.loc 1 1149 12
	li	a5,-1
	slli	a5,a5,63
	addi	a5,a5,2
	j	.L212
.L159:
	.loc 1 1152 6
	ld	a4,-144(s0)
	li	a5,63
	bleu	a4,a5,.L160
	.loc 1 1154 12
	li	a5,-1
	slli	a5,a5,63
	addi	a5,a5,14
	j	.L212
.L160:
	.loc 1 1157 6
	ld	a5,-152(s0)
	bne	a5,zero,.L161
	.loc 1 1159 12
	li	a5,-1
	slli	a5,a5,63
	addi	a5,a5,2
	j	.L212
.L161:
	.loc 1 1162 7
	sd	zero,-48(s0)
	.loc 1 1163 18
	ld	a5,-120(s0)
	andi	a5,a5,32
	.loc 1 1163 6
	beq	a5,zero,.L162
	.loc 1 1164 5
	call	CoreAcquireGcdMemoryLock
	.loc 1 1165 9
	lla	a5,mGcdMemorySpaceMap
	sd	a5,-48(s0)
	j	.L163
.L162:
	.loc 1 1166 25
	ld	a5,-120(s0)
	andi	a5,a5,64
	.loc 1 1166 13
	beq	a5,zero,.L163
	.loc 1 1167 5
	call	CoreAcquireGcdIoLock
	.loc 1 1168 9
	lla	a5,mGcdIoSpaceMap
	sd	a5,-48(s0)
.L163:
	.loc 1 1173 9
	sb	zero,-65(s0)
	.loc 1 1174 13
	sd	zero,-104(s0)
	.loc 1 1175 11
	sd	zero,-112(s0)
	.loc 1 1179 19
	ld	a1,-144(s0)
	li	a0,1
	call	LShiftU64@plt
	mv	a5,a0
	.loc 1 1179 17 discriminator 1
	addi	a5,a5,-1
	sd	a5,-80(s0)
	.loc 1 1181 6
	lw	a5,-124(s0)
	sext.w	a4,a5
	li	a5,2
	bne	a4,a5,.L164
	.loc 1 1185 10
	ld	a5,-160(s0)
	ld	a4,0(a5)
	.loc 1 1185 23
	ld	a5,-80(s0)
	and	a5,a4,a5
	.loc 1 1185 8
	beq	a5,zero,.L165
	.loc 1 1186 14
	li	a5,-1
	slli	a5,a5,63
	addi	a5,a5,14
	sd	a5,-64(s0)
	.loc 1 1187 7
	j	.L213
.L165:
	.loc 1 1193 14
	ld	a5,-160(s0)
	ld	a5,0(a5)
	addi	a3,s0,-112
	addi	a2,s0,-104
	ld	a4,-48(s0)
	ld	a1,-152(s0)
	mv	a0,a5
	call	CoreSearchGcdMapEntry
	sd	a0,-64(s0)
	.loc 1 1194 36
	ld	a5,-64(s0)
	.loc 1 1194 8
	bge	a5,zero,.L167
	.loc 1 1195 14
	li	a5,-1
	slli	a5,a5,63
	addi	a5,a5,14
	sd	a5,-64(s0)
	.loc 1 1196 7
	j	.L213
.L167:
	.loc 1 1204 10
	ld	a5,-104(s0)
	sd	a5,-40(s0)
	.loc 1 1205 11
	j	.L168
.L171:
	.loc 1 1206 17
	ld	a5,-40(s0)
	addi	a5,a5,-8
	.loc 1 1206 123
	ld	a4,0(a5)
	.loc 1 1206 208
	li	a5,1835294720
	addi	a5,a5,871
	bne	a4,a5,.L169
	.loc 1 1206 13 discriminator 1
	ld	a5,-40(s0)
	addi	a5,a5,-8
	sd	a5,-24(s0)
	j	.L170
.L169:
	.loc 1 1206 13 is_stmt 0 discriminator 2
	sd	zero,-24(s0)
.L170:
	.loc 1 1207 12 is_stmt 1
	ld	a5,-40(s0)
	ld	a5,0(a5)
	sd	a5,-40(s0)
	.loc 1 1208 16
	lw	a4,-132(s0)
	lw	a5,-128(s0)
	mv	a3,a4
	mv	a2,a5
	ld	a1,-24(s0)
	ld	a0,-120(s0)
	call	CoreAllocateSpaceCheckEntry
	sd	a0,-64(s0)
	.loc 1 1209 38
	ld	a5,-64(s0)
	.loc 1 1209 10
	blt	a5,zero,.L214
.L168:
	.loc 1 1205 27
	ld	a5,-112(s0)
	ld	a5,0(a5)
	.loc 1 1205 17
	ld	a4,-40(s0)
	bne	a4,a5,.L171
	.loc 1 1214 11
	li	a5,1
	sb	a5,-65(s0)
	j	.L172
.L164:
	.loc 1 1216 61
	ld	a5,-48(s0)
	ld	a5,8(a5)
	.loc 1 1216 15
	addi	a5,a5,-8
	.loc 1 1216 130
	ld	a4,0(a5)
	.loc 1 1216 215
	li	a5,1835294720
	addi	a5,a5,871
	bne	a4,a5,.L173
	.loc 1 1216 264 discriminator 1
	ld	a5,-48(s0)
	ld	a5,8(a5)
	.loc 1 1216 11 discriminator 1
	addi	a5,a5,-8
	sd	a5,-24(s0)
	j	.L174
.L173:
	.loc 1 1216 11 is_stmt 0 discriminator 2
	sd	zero,-24(s0)
.L174:
	.loc 1 1221 8 is_stmt 1
	lw	a5,-124(s0)
	sext.w	a4,a5
	li	a5,1
	beq	a4,a5,.L175
	.loc 1 1221 69 discriminator 1
	lw	a5,-124(s0)
	sext.w	a4,a5
	li	a5,4
	bne	a4,a5,.L176
.L175:
	.loc 1 1224 18
	ld	a5,-160(s0)
	ld	a5,0(a5)
	sd	a5,-56(s0)
	j	.L177
.L176:
	.loc 1 1226 18
	ld	a5,-24(s0)
	ld	a5,32(a5)
	sd	a5,-56(s0)
.L177:
	.loc 1 1232 8
	lw	a5,-124(s0)
	sext.w	a4,a5
	li	a5,4
	beq	a4,a5,.L178
	.loc 1 1232 68 discriminator 1
	lw	a5,-124(s0)
	sext.w	a4,a5
	li	a5,3
	bne	a4,a5,.L179
.L178:
	.loc 1 1235 12
	ld	a5,-48(s0)
	ld	a5,8(a5)
	sd	a5,-40(s0)
	j	.L180
.L179:
	.loc 1 1237 12
	ld	a5,-48(s0)
	ld	a5,0(a5)
	sd	a5,-40(s0)
.L180:
	.loc 1 1240 11
	j	.L181
.L203:
	.loc 1 1241 17
	ld	a5,-40(s0)
	addi	a5,a5,-8
	.loc 1 1241 123
	ld	a4,0(a5)
	.loc 1 1241 208
	li	a5,1835294720
	addi	a5,a5,871
	bne	a4,a5,.L182
	.loc 1 1241 13 discriminator 1
	ld	a5,-40(s0)
	addi	a5,a5,-8
	sd	a5,-24(s0)
	j	.L183
.L182:
	.loc 1 1241 13 is_stmt 0 discriminator 2
	sd	zero,-24(s0)
.L183:
	.loc 1 1243 10 is_stmt 1
	lw	a5,-124(s0)
	sext.w	a4,a5
	li	a5,4
	beq	a4,a5,.L184
	.loc 1 1243 70 discriminator 1
	lw	a5,-124(s0)
	sext.w	a4,a5
	li	a5,3
	bne	a4,a5,.L185
.L184:
	.loc 1 1246 14
	ld	a5,-40(s0)
	ld	a5,8(a5)
	sd	a5,-40(s0)
	j	.L186
.L185:
	.loc 1 1248 14
	ld	a5,-40(s0)
	ld	a5,0(a5)
	sd	a5,-40(s0)
.L186:
	.loc 1 1251 16
	lw	a4,-132(s0)
	lw	a5,-128(s0)
	mv	a3,a4
	mv	a2,a5
	ld	a1,-24(s0)
	ld	a0,-120(s0)
	call	CoreAllocateSpaceCheckEntry
	sd	a0,-64(s0)
	.loc 1 1252 38
	ld	a5,-64(s0)
	.loc 1 1252 10
	blt	a5,zero,.L215
	.loc 1 1256 10
	lw	a5,-124(s0)
	sext.w	a4,a5
	li	a5,4
	beq	a4,a5,.L189
	.loc 1 1256 70 discriminator 1
	lw	a5,-124(s0)
	sext.w	a4,a5
	li	a5,3
	bne	a4,a5,.L190
.L189:
	.loc 1 1259 19
	ld	a5,-24(s0)
	ld	a4,24(a5)
	.loc 1 1259 33
	ld	a5,-152(s0)
	add	a5,a4,a5
	.loc 1 1259 12
	ld	a4,-56(s0)
	bltu	a4,a5,.L216
	.loc 1 1263 28
	ld	a5,-24(s0)
	ld	a5,32(a5)
	.loc 1 1263 41
	addi	a5,a5,1
	.loc 1 1263 12
	ld	a4,-152(s0)
	bleu	a4,a5,.L192
	.loc 1 1264 18
	li	a5,-1
	slli	a5,a5,63
	addi	a5,a5,14
	sd	a5,-64(s0)
	.loc 1 1265 11
	j	.L213
.L192:
	.loc 1 1268 18
	ld	a5,-24(s0)
	ld	a5,32(a5)
	.loc 1 1268 12
	ld	a4,-56(s0)
	bgeu	a4,a5,.L193
	.loc 1 1269 24
	ld	a5,-160(s0)
	ld	a4,-56(s0)
	sd	a4,0(a5)
	j	.L194
.L193:
	.loc 1 1271 31
	ld	a5,-24(s0)
	ld	a4,32(a5)
	.loc 1 1271 24
	ld	a5,-160(s0)
	sd	a4,0(a5)
.L194:
	.loc 1 1274 42
	ld	a5,-160(s0)
	ld	a4,0(a5)
	ld	a5,-152(s0)
	sub	a5,a4,a5
	addi	a4,a5,1
	.loc 1 1274 55
	ld	a5,-80(s0)
	not	a5,a5
	.loc 1 1274 52
	and	a4,a4,a5
	.loc 1 1274 22
	ld	a5,-160(s0)
	sd	a4,0(a5)
	j	.L195
.L190:
	.loc 1 1276 30
	ld	a5,-24(s0)
	ld	a4,24(a5)
	.loc 1 1276 44
	ld	a5,-80(s0)
	add	a4,a4,a5
	.loc 1 1276 64
	ld	a5,-80(s0)
	not	a5,a5
	.loc 1 1276 61
	and	a4,a4,a5
	.loc 1 1276 22
	ld	a5,-160(s0)
	sd	a4,0(a5)
	.loc 1 1277 14
	ld	a5,-160(s0)
	ld	a4,0(a5)
	.loc 1 1277 27
	ld	a5,-152(s0)
	add	a5,a4,a5
	.loc 1 1277 36
	addi	a5,a5,-1
	.loc 1 1277 12
	ld	a4,-56(s0)
	bgeu	a4,a5,.L195
	.loc 1 1278 18
	li	a5,-1
	slli	a5,a5,63
	addi	a5,a5,14
	sd	a5,-64(s0)
	.loc 1 1279 11
	j	.L213
.L195:
	.loc 1 1286 16
	ld	a5,-160(s0)
	ld	a5,0(a5)
	addi	a3,s0,-112
	addi	a2,s0,-104
	ld	a4,-48(s0)
	ld	a1,-152(s0)
	mv	a0,a5
	call	CoreSearchGcdMapEntry
	sd	a0,-64(s0)
	.loc 1 1287 38
	ld	a5,-64(s0)
	.loc 1 1287 10
	bge	a5,zero,.L196
	.loc 1 1288 16
	li	a5,-1
	slli	a5,a5,63
	addi	a5,a5,14
	sd	a5,-64(s0)
	.loc 1 1289 9
	j	.L213
.L196:
	.loc 1 1294 12
	ld	a5,-104(s0)
	sd	a5,-40(s0)
	.loc 1 1298 13
	li	a5,1
	sb	a5,-65(s0)
	.loc 1 1299 15
	ld	a5,-104(s0)
	sd	a5,-32(s0)
	.loc 1 1300 13
	j	.L197
.L202:
	.loc 1 1301 19
	ld	a5,-32(s0)
	addi	a5,a5,-8
	.loc 1 1301 128
	ld	a4,0(a5)
	.loc 1 1301 213
	li	a5,1835294720
	addi	a5,a5,871
	bne	a4,a5,.L198
	.loc 1 1301 15 discriminator 1
	ld	a5,-32(s0)
	addi	a5,a5,-8
	sd	a5,-24(s0)
	j	.L199
.L198:
	.loc 1 1301 15 is_stmt 0 discriminator 2
	sd	zero,-24(s0)
.L199:
	.loc 1 1302 18 is_stmt 1
	lw	a4,-132(s0)
	lw	a5,-128(s0)
	mv	a3,a4
	mv	a2,a5
	ld	a1,-24(s0)
	ld	a0,-120(s0)
	call	CoreAllocateSpaceCheckEntry
	sd	a0,-64(s0)
	.loc 1 1303 40
	ld	a5,-64(s0)
	.loc 1 1303 12
	bge	a5,zero,.L200
	.loc 1 1304 16
	ld	a5,-32(s0)
	sd	a5,-40(s0)
	.loc 1 1305 17
	sb	zero,-65(s0)
	.loc 1 1306 11
	j	.L201
.L200:
	.loc 1 1309 17
	ld	a5,-32(s0)
	ld	a5,0(a5)
	sd	a5,-32(s0)
.L197:
	.loc 1 1300 32
	ld	a5,-112(s0)
	ld	a5,0(a5)
	.loc 1 1300 22
	ld	a4,-32(s0)
	bne	a4,a5,.L202
.L201:
	.loc 1 1312 10
	lbu	a5,-65(s0)
	andi	a5,a5,0xff
	bne	a5,zero,.L217
	j	.L181
.L215:
	.loc 1 1253 9
	nop
	j	.L181
.L216:
	.loc 1 1260 11
	nop
.L181:
	.loc 1 1240 17
	ld	a4,-40(s0)
	ld	a5,-48(s0)
	bne	a4,a5,.L203
	j	.L172
.L217:
	.loc 1 1313 9
	nop
.L172:
	.loc 1 1318 6
	lbu	a5,-65(s0)
	andi	a5,a5,0xff
	bne	a5,zero,.L204
	.loc 1 1319 12
	li	a5,-1
	slli	a5,a5,63
	addi	a5,a5,14
	sd	a5,-64(s0)
	.loc 1 1320 5
	j	.L213
.L204:
	.loc 1 1326 12
	addi	a4,s0,-96
	addi	a5,s0,-88
	mv	a1,a4
	mv	a0,a5
	call	CoreAllocateGcdMapEntry
	sd	a0,-64(s0)
	.loc 1 1327 34
	ld	a5,-64(s0)
	.loc 1 1327 6
	bge	a5,zero,.L205
	.loc 1 1328 12
	li	a5,-1
	slli	a5,a5,63
	addi	a5,a5,9
	sd	a5,-64(s0)
	.loc 1 1329 5
	j	.L213
.L205:
	.loc 1 1337 8
	ld	a5,-104(s0)
	sd	a5,-40(s0)
	.loc 1 1338 9
	j	.L206
.L209:
	.loc 1 1339 15
	ld	a5,-40(s0)
	addi	a5,a5,-8
	.loc 1 1339 121
	ld	a4,0(a5)
	.loc 1 1339 206
	li	a5,1835294720
	addi	a5,a5,871
	bne	a4,a5,.L207
	.loc 1 1339 11 discriminator 1
	ld	a5,-40(s0)
	addi	a5,a5,-8
	sd	a5,-24(s0)
	j	.L208
.L207:
	.loc 1 1339 11 is_stmt 0 discriminator 2
	sd	zero,-24(s0)
.L208:
	.loc 1 1340 5 is_stmt 1
	ld	a5,-160(s0)
	ld	a2,0(a5)
	ld	a4,-88(s0)
	ld	a5,-96(s0)
	ld	a3,-152(s0)
	ld	a1,-24(s0)
	ld	a0,-40(s0)
	call	CoreInsertGcdMapEntry
	.loc 1 1341 24
	ld	a5,-24(s0)
	ld	a4,-168(s0)
	sd	a4,64(a5)
	.loc 1 1342 25
	ld	a5,-24(s0)
	ld	a4,0(s0)
	sd	a4,72(a5)
	.loc 1 1343 10
	ld	a5,-40(s0)
	ld	a5,0(a5)
	sd	a5,-40(s0)
.L206:
	.loc 1 1338 25
	ld	a5,-112(s0)
	ld	a5,0(a5)
	.loc 1 1338 15
	ld	a4,-40(s0)
	bne	a4,a5,.L209
	.loc 1 1349 12
	ld	a5,-88(s0)
	ld	a1,-96(s0)
	ld	a2,-104(s0)
	ld	a3,-112(s0)
	ld	a4,-48(s0)
	mv	a0,a5
	call	CoreCleanupGcdMapEntry
	sd	a0,-64(s0)
	j	.L213
.L166:
.L214:
	.loc 1 1210 9
	nop
.L213:
	.loc 1 1359 18
	ld	a5,-120(s0)
	andi	a5,a5,32
	.loc 1 1359 6
	beq	a5,zero,.L210
	.loc 1 1360 5
	call	CoreReleaseGcdMemoryLock
	.loc 1 1361 5
	li	a0,0
	call	CoreDumpGcdMemorySpaceMap
.L210:
	.loc 1 1364 18
	ld	a5,-120(s0)
	andi	a5,a5,64
	.loc 1 1364 6
	beq	a5,zero,.L211
	.loc 1 1365 5
	call	CoreReleaseGcdIoLock
	.loc 1 1366 5
	li	a0,0
	call	CoreDumpGcdIoSpaceMap
.L211:
	.loc 1 1369 10
	ld	a5,-64(s0)
.L212:
	.loc 1 1370 1
	mv	a0,a5
	ld	ra,168(sp)
	.cfi_restore 1
	ld	s0,160(sp)
	.cfi_restore 8
	.cfi_def_cfa 2, 176
	addi	sp,sp,176
	.cfi_def_cfa_offset 0
	jr	ra
	.cfi_endproc
.LFE19:
	.size	CoreAllocateSpace, .-CoreAllocateSpace
	.section	.text.CoreInternalAddMemorySpace,"ax",@progbits
	.align	1
	.globl	CoreInternalAddMemorySpace
	.type	CoreInternalAddMemorySpace, @function
CoreInternalAddMemorySpace:
.LFB20:
	.loc 1 1391 1
	.cfi_startproc
	addi	sp,sp,-48
	.cfi_def_cfa_offset 48
	sd	ra,40(sp)
	sd	s0,32(sp)
	.cfi_offset 1, -8
	.cfi_offset 8, -16
	addi	s0,sp,48
	.cfi_def_cfa 8, 0
	mv	a5,a0
	sd	a1,-32(s0)
	sd	a2,-40(s0)
	sd	a3,-48(s0)
	sw	a5,-20(s0)
	.loc 1 1399 6
	lw	a5,-20(s0)
	sext.w	a5,a5
	beq	a5,zero,.L219
	.loc 1 1399 54 discriminator 1
	lw	a5,-20(s0)
	sext.w	a4,a5
	li	a5,6
	bleu	a4,a5,.L220
.L219:
	.loc 1 1400 12
	li	a5,-1
	slli	a5,a5,63
	addi	a5,a5,2
	j	.L221
.L220:
	.loc 1 1403 10
	lw	a1,-20(s0)
	li	a6,0
	ld	a5,-48(s0)
	ld	a4,-40(s0)
	ld	a3,-32(s0)
	li	a2,0
	li	a0,32
	call	CoreConvertSpace
	mv	a5,a0
.L221:
	.loc 1 1404 1
	mv	a0,a5
	ld	ra,40(sp)
	.cfi_restore 1
	ld	s0,32(sp)
	.cfi_restore 8
	.cfi_def_cfa 2, 48
	addi	sp,sp,48
	.cfi_def_cfa_offset 0
	jr	ra
	.cfi_endproc
.LFE20:
	.size	CoreInternalAddMemorySpace, .-CoreInternalAddMemorySpace
	.section	.text.CoreAllocateMemorySpace,"ax",@progbits
	.align	1
	.globl	CoreAllocateMemorySpace
	.type	CoreAllocateMemorySpace, @function
CoreAllocateMemorySpace:
.LFB21:
	.loc 1 1438 1
	.cfi_startproc
	addi	sp,sp,-80
	.cfi_def_cfa_offset 80
	sd	ra,72(sp)
	sd	s0,64(sp)
	.cfi_offset 1, -8
	.cfi_offset 8, -16
	addi	s0,sp,80
	.cfi_def_cfa 8, 0
	sd	a2,-32(s0)
	sd	a3,-40(s0)
	sd	a4,-48(s0)
	sd	a5,-56(s0)
	sd	a6,-64(s0)
	mv	a5,a0
	sw	a5,-20(s0)
	mv	a5,a1
	sw	a5,-24(s0)
	.loc 1 1451 10
	lw	a2,-24(s0)
	lw	a1,-20(s0)
	ld	a5,-64(s0)
	sd	a5,0(sp)
	ld	a7,-56(s0)
	ld	a6,-48(s0)
	ld	a5,-40(s0)
	ld	a4,-32(s0)
	li	a3,0
	li	a0,33
	call	CoreAllocateSpace
	mv	a5,a0
	.loc 1 1462 1
	mv	a0,a5
	ld	ra,72(sp)
	.cfi_restore 1
	ld	s0,64(sp)
	.cfi_restore 8
	.cfi_def_cfa 2, 80
	addi	sp,sp,80
	.cfi_def_cfa_offset 0
	jr	ra
	.cfi_endproc
.LFE21:
	.size	CoreAllocateMemorySpace, .-CoreAllocateMemorySpace
	.section	.text.CoreAddMemorySpace,"ax",@progbits
	.align	1
	.globl	CoreAddMemorySpace
	.type	CoreAddMemorySpace, @function
CoreAddMemorySpace:
.LFB22:
	.loc 1 1484 1
	.cfi_startproc
	addi	sp,sp,-96
	.cfi_def_cfa_offset 96
	sd	ra,88(sp)
	sd	s0,80(sp)
	sd	s1,72(sp)
	.cfi_offset 1, -8
	.cfi_offset 8, -16
	.cfi_offset 9, -24
	addi	s0,sp,96
	.cfi_def_cfa 8, 0
	mv	a5,a0
	sd	a1,-80(s0)
	sd	a2,-88(s0)
	sd	a3,-96(s0)
	sw	a5,-68(s0)
	.loc 1 1489 12
	lw	a5,-68(s0)
	ld	a3,-96(s0)
	ld	a2,-88(s0)
	ld	a1,-80(s0)
	mv	a0,a5
	call	CoreInternalAddMemorySpace
	sd	a0,-40(s0)
	.loc 1 1491 7
	ld	a5,-40(s0)
	.loc 1 1491 6
	blt	a5,zero,.L225
	.loc 1 1491 61 discriminator 1
	lw	a5,-68(s0)
	sext.w	a4,a5
	li	a5,2
	beq	a4,a5,.L226
	.loc 1 1491 113 discriminator 2
	lw	a5,-68(s0)
	sext.w	a4,a5
	li	a5,5
	bne	a4,a5,.L225
.L226:
	.loc 1 1492 23
	ld	a0,-80(s0)
	call	PageAlignAddress
	mv	a5,a0
	.loc 1 1492 21 discriminator 1
	sd	a5,-56(s0)
	.loc 1 1493 47
	ld	a4,-80(s0)
	ld	a5,-88(s0)
	add	a4,a4,a5
	.loc 1 1493 18
	ld	a5,-56(s0)
	.loc 1 1493 56
	sub	a5,a4,a5
	.loc 1 1493 18
	mv	a0,a5
	call	PageAlignLength
	sd	a0,-48(s0)
	.loc 1 1495 14
	la	a5,gDxeCoreImageHandle
	ld	a5,0(a5)
	addi	a4,s0,-56
	lw	a1,-68(s0)
	li	a6,0
	ld	a3,-48(s0)
	li	a2,12
	li	a0,2
	call	CoreAllocateMemorySpace
	sd	a0,-40(s0)
	.loc 1 1505 9
	ld	a5,-40(s0)
	.loc 1 1505 8
	blt	a5,zero,.L228
	.loc 1 1506 7
	ld	s1,-56(s0)
	li	a1,12
	ld	a0,-48(s0)
	call	RShiftU64@plt
	mv	a5,a0
	.loc 1 1506 7 is_stmt 0 discriminator 1
	ld	a3,-96(s0)
	mv	a2,a5
	mv	a1,s1
	li	a0,7
	call	CoreAddMemoryDescriptor@plt
	j	.L225
.L230:
	.loc 1 1514 18 is_stmt 1
	la	a5,gDxeCoreImageHandle
	ld	a5,0(a5)
	addi	a4,s0,-56
	lw	a1,-68(s0)
	li	a6,0
	li	a3,4096
	li	a2,12
	li	a0,2
	call	CoreAllocateMemorySpace
	sd	a0,-40(s0)
	.loc 1 1524 13
	ld	a5,-40(s0)
	.loc 1 1524 12
	blt	a5,zero,.L229
	.loc 1 1525 11
	ld	a5,-56(s0)
	ld	a3,-96(s0)
	li	a2,1
	mv	a1,a5
	li	a0,7
	call	CoreAddMemoryDescriptor@plt
.L229:
	.loc 1 1513 43
	ld	a4,-48(s0)
	li	a5,-4096
	add	a5,a4,a5
	sd	a5,-48(s0)
	.loc 1 1513 74
	ld	a4,-56(s0)
	li	a5,4096
	add	a5,a4,a5
	sd	a5,-56(s0)
.L228:
	.loc 1 1513 26 discriminator 1
	ld	a5,-48(s0)
	bne	a5,zero,.L230
.L225:
	.loc 1 1536 10
	ld	a5,-40(s0)
	.loc 1 1537 1
	mv	a0,a5
	ld	ra,88(sp)
	.cfi_restore 1
	ld	s0,80(sp)
	.cfi_restore 8
	.cfi_def_cfa 2, 96
	ld	s1,72(sp)
	.cfi_restore 9
	addi	sp,sp,96
	.cfi_def_cfa_offset 0
	jr	ra
	.cfi_endproc
.LFE22:
	.size	CoreAddMemorySpace, .-CoreAddMemorySpace
	.section	.text.CoreFreeMemorySpace,"ax",@progbits
	.align	1
	.globl	CoreFreeMemorySpace
	.type	CoreFreeMemorySpace, @function
CoreFreeMemorySpace:
.LFB23:
	.loc 1 1555 1
	.cfi_startproc
	addi	sp,sp,-32
	.cfi_def_cfa_offset 32
	sd	ra,24(sp)
	sd	s0,16(sp)
	.cfi_offset 1, -8
	.cfi_offset 8, -16
	addi	s0,sp,32
	.cfi_def_cfa 8, 0
	sd	a0,-24(s0)
	sd	a1,-32(s0)
	.loc 1 1558 10
	li	a6,0
	li	a5,0
	ld	a4,-32(s0)
	ld	a3,-24(s0)
	li	a2,0
	li	a1,0
	li	a0,34
	call	CoreConvertSpace
	mv	a5,a0
	.loc 1 1559 1
	mv	a0,a5
	ld	ra,24(sp)
	.cfi_restore 1
	ld	s0,16(sp)
	.cfi_restore 8
	.cfi_def_cfa 2, 32
	addi	sp,sp,32
	.cfi_def_cfa_offset 0
	jr	ra
	.cfi_endproc
.LFE23:
	.size	CoreFreeMemorySpace, .-CoreFreeMemorySpace
	.section	.text.CoreRemoveMemorySpace,"ax",@progbits
	.align	1
	.globl	CoreRemoveMemorySpace
	.type	CoreRemoveMemorySpace, @function
CoreRemoveMemorySpace:
.LFB24:
	.loc 1 1577 1
	.cfi_startproc
	addi	sp,sp,-32
	.cfi_def_cfa_offset 32
	sd	ra,24(sp)
	sd	s0,16(sp)
	.cfi_offset 1, -8
	.cfi_offset 8, -16
	addi	s0,sp,32
	.cfi_def_cfa 8, 0
	sd	a0,-24(s0)
	sd	a1,-32(s0)
	.loc 1 1580 10
	li	a6,0
	li	a5,0
	ld	a4,-32(s0)
	ld	a3,-24(s0)
	li	a2,0
	li	a1,0
	li	a0,35
	call	CoreConvertSpace
	mv	a5,a0
	.loc 1 1581 1
	mv	a0,a5
	ld	ra,24(sp)
	.cfi_restore 1
	ld	s0,16(sp)
	.cfi_restore 8
	.cfi_def_cfa 2, 32
	addi	sp,sp,32
	.cfi_def_cfa_offset 0
	jr	ra
	.cfi_endproc
.LFE24:
	.size	CoreRemoveMemorySpace, .-CoreRemoveMemorySpace
	.section	.text.BuildMemoryDescriptor,"ax",@progbits
	.align	1
	.globl	BuildMemoryDescriptor
	.type	BuildMemoryDescriptor, @function
BuildMemoryDescriptor:
.LFB25:
	.loc 1 1595 1
	.cfi_startproc
	addi	sp,sp,-32
	.cfi_def_cfa_offset 32
	sd	ra,24(sp)
	sd	s0,16(sp)
	.cfi_offset 1, -8
	.cfi_offset 8, -16
	addi	s0,sp,32
	.cfi_def_cfa 8, 0
	sd	a0,-24(s0)
	sd	a1,-32(s0)
	.loc 1 1596 34
	ld	a5,-32(s0)
	ld	a4,24(a5)
	.loc 1 1596 27
	ld	a5,-24(s0)
	sd	a4,0(a5)
	.loc 1 1597 29
	ld	a5,-32(s0)
	ld	a4,32(a5)
	.loc 1 1597 49
	ld	a5,-32(s0)
	ld	a5,24(a5)
	.loc 1 1597 42
	sub	a5,a4,a5
	.loc 1 1597 63
	addi	a4,a5,1
	.loc 1 1597 22
	ld	a5,-24(s0)
	sd	a4,8(a5)
	.loc 1 1598 35
	ld	a5,-32(s0)
	ld	a4,40(a5)
	.loc 1 1598 28
	ld	a5,-24(s0)
	sd	a4,16(a5)
	.loc 1 1599 33
	ld	a5,-32(s0)
	ld	a4,48(a5)
	.loc 1 1599 26
	ld	a5,-24(s0)
	sd	a4,24(a5)
	.loc 1 1600 36
	ld	a5,-32(s0)
	lw	a4,56(a5)
	.loc 1 1600 29
	ld	a5,-24(s0)
	sw	a4,32(a5)
	.loc 1 1601 34
	ld	a5,-32(s0)
	ld	a4,64(a5)
	.loc 1 1601 27
	ld	a5,-24(s0)
	sd	a4,40(a5)
	.loc 1 1602 35
	ld	a5,-32(s0)
	ld	a4,72(a5)
	.loc 1 1602 28
	ld	a5,-24(s0)
	sd	a4,48(a5)
	.loc 1 1603 1
	nop
	ld	ra,24(sp)
	.cfi_restore 1
	ld	s0,16(sp)
	.cfi_restore 8
	.cfi_def_cfa 2, 32
	addi	sp,sp,32
	.cfi_def_cfa_offset 0
	jr	ra
	.cfi_endproc
.LFE25:
	.size	BuildMemoryDescriptor, .-BuildMemoryDescriptor
	.section	.text.CoreGetMemorySpaceDescriptor,"ax",@progbits
	.align	1
	.globl	CoreGetMemorySpaceDescriptor
	.type	CoreGetMemorySpaceDescriptor, @function
CoreGetMemorySpaceDescriptor:
.LFB26:
	.loc 1 1621 1
	.cfi_startproc
	addi	sp,sp,-64
	.cfi_def_cfa_offset 64
	sd	ra,56(sp)
	sd	s0,48(sp)
	.cfi_offset 1, -8
	.cfi_offset 8, -16
	addi	s0,sp,64
	.cfi_def_cfa 8, 0
	sd	a0,-56(s0)
	sd	a1,-64(s0)
	.loc 1 1630 6
	ld	a5,-64(s0)
	bne	a5,zero,.L238
	.loc 1 1631 12
	li	a5,-1
	slli	a5,a5,63
	addi	a5,a5,2
	j	.L244
.L238:
	.loc 1 1634 3
	call	CoreAcquireGcdMemoryLock
	.loc 1 1639 12
	addi	a3,s0,-48
	addi	a5,s0,-40
	lla	a4,mGcdMemorySpaceMap
	mv	a2,a5
	li	a1,1
	ld	a0,-56(s0)
	call	CoreSearchGcdMapEntry
	sd	a0,-24(s0)
	.loc 1 1640 34
	ld	a5,-24(s0)
	.loc 1 1640 6
	bge	a5,zero,.L240
	.loc 1 1641 12
	li	a5,-1
	slli	a5,a5,63
	addi	a5,a5,14
	sd	a5,-24(s0)
	j	.L241
.L240:
	.loc 1 1647 37
	ld	a5,-40(s0)
	.loc 1 1647 15
	addi	a5,a5,-8
	.loc 1 1647 126
	ld	a4,0(a5)
	.loc 1 1647 211
	li	a5,1835294720
	addi	a5,a5,871
	bne	a4,a5,.L242
	.loc 1 1647 236 discriminator 1
	ld	a5,-40(s0)
	.loc 1 1647 11 discriminator 1
	addi	a5,a5,-8
	sd	a5,-32(s0)
	j	.L243
.L242:
	.loc 1 1647 11 is_stmt 0 discriminator 2
	sd	zero,-32(s0)
.L243:
	.loc 1 1648 5 is_stmt 1
	ld	a1,-32(s0)
	ld	a0,-64(s0)
	call	BuildMemoryDescriptor
.L241:
	.loc 1 1651 3
	call	CoreReleaseGcdMemoryLock
	.loc 1 1653 10
	ld	a5,-24(s0)
.L244:
	.loc 1 1654 1
	mv	a0,a5
	ld	ra,56(sp)
	.cfi_restore 1
	ld	s0,48(sp)
	.cfi_restore 8
	.cfi_def_cfa 2, 64
	addi	sp,sp,64
	.cfi_def_cfa_offset 0
	jr	ra
	.cfi_endproc
.LFE26:
	.size	CoreGetMemorySpaceDescriptor, .-CoreGetMemorySpaceDescriptor
	.section	.text.CoreSetMemorySpaceAttributes,"ax",@progbits
	.align	1
	.globl	CoreSetMemorySpaceAttributes
	.type	CoreSetMemorySpaceAttributes, @function
CoreSetMemorySpaceAttributes:
.LFB27:
	.loc 1 1685 1
	.cfi_startproc
	addi	sp,sp,-48
	.cfi_def_cfa_offset 48
	sd	ra,40(sp)
	sd	s0,32(sp)
	.cfi_offset 1, -8
	.cfi_offset 8, -16
	addi	s0,sp,48
	.cfi_def_cfa 8, 0
	sd	a0,-24(s0)
	sd	a1,-32(s0)
	sd	a2,-40(s0)
	.loc 1 1689 10
	ld	a6,-40(s0)
	li	a5,0
	ld	a4,-32(s0)
	ld	a3,-24(s0)
	li	a2,0
	li	a1,0
	li	a0,36
	call	CoreConvertSpace
	mv	a5,a0
	.loc 1 1690 1
	mv	a0,a5
	ld	ra,40(sp)
	.cfi_restore 1
	ld	s0,32(sp)
	.cfi_restore 8
	.cfi_def_cfa 2, 48
	addi	sp,sp,48
	.cfi_def_cfa_offset 0
	jr	ra
	.cfi_endproc
.LFE27:
	.size	CoreSetMemorySpaceAttributes, .-CoreSetMemorySpaceAttributes
	.section	.text.CoreSetMemorySpaceCapabilities,"ax",@progbits
	.align	1
	.globl	CoreSetMemorySpaceCapabilities
	.type	CoreSetMemorySpaceCapabilities, @function
CoreSetMemorySpaceCapabilities:
.LFB28:
	.loc 1 1716 1
	.cfi_startproc
	addi	sp,sp,-48
	.cfi_def_cfa_offset 48
	sd	ra,40(sp)
	sd	s0,32(sp)
	.cfi_offset 1, -8
	.cfi_offset 8, -16
	addi	s0,sp,48
	.cfi_def_cfa 8, 0
	sd	a0,-24(s0)
	sd	a1,-32(s0)
	sd	a2,-40(s0)
	.loc 1 1720 10
	li	a6,0
	ld	a5,-40(s0)
	ld	a4,-32(s0)
	ld	a3,-24(s0)
	li	a2,0
	li	a1,0
	li	a0,37
	call	CoreConvertSpace
	mv	a5,a0
	.loc 1 1721 1
	mv	a0,a5
	ld	ra,40(sp)
	.cfi_restore 1
	ld	s0,32(sp)
	.cfi_restore 8
	.cfi_def_cfa 2, 48
	addi	sp,sp,48
	.cfi_def_cfa_offset 0
	jr	ra
	.cfi_endproc
.LFE28:
	.size	CoreSetMemorySpaceCapabilities, .-CoreSetMemorySpaceCapabilities
	.section	.text.CoreGetMemorySpaceMap,"ax",@progbits
	.align	1
	.globl	CoreGetMemorySpaceMap
	.type	CoreGetMemorySpaceMap, @function
CoreGetMemorySpaceMap:
.LFB29:
	.loc 1 1741 1
	.cfi_startproc
	addi	sp,sp,-64
	.cfi_def_cfa_offset 64
	sd	ra,56(sp)
	sd	s0,48(sp)
	.cfi_offset 1, -8
	.cfi_offset 8, -16
	addi	s0,sp,64
	.cfi_def_cfa 8, 0
	sd	a0,-56(s0)
	sd	a1,-64(s0)
	.loc 1 1750 6
	ld	a5,-56(s0)
	bne	a5,zero,.L250
	.loc 1 1751 12
	li	a5,-1
	slli	a5,a5,63
	addi	a5,a5,2
	j	.L251
.L250:
	.loc 1 1754 6
	ld	a5,-64(s0)
	bne	a5,zero,.L252
	.loc 1 1755 12
	li	a5,-1
	slli	a5,a5,63
	addi	a5,a5,2
	j	.L251
.L252:
	.loc 1 1758 24
	ld	a5,-56(s0)
	sd	zero,0(a5)
	.loc 1 1759 19
	ld	a5,-64(s0)
	sd	zero,0(a5)
	.loc 1 1764 3
	call	CoreAcquireGcdMemoryLock
.L261:
	.loc 1 1770 23
	lla	a0,mGcdMemorySpaceMap
	call	CoreCountGcdMapEntry
	sd	a0,-48(s0)
	.loc 1 1771 29
	ld	a5,-56(s0)
	ld	a5,0(a5)
	.loc 1 1771 8
	ld	a4,-48(s0)
	bne	a4,a5,.L253
	.loc 1 1771 55 discriminator 1
	ld	a5,-64(s0)
	ld	a5,0(a5)
	.loc 1 1771 51 discriminator 1
	beq	a5,zero,.L253
	.loc 1 1775 18
	ld	a5,-64(s0)
	ld	a5,0(a5)
	sd	a5,-40(s0)
	.loc 1 1776 12
	lla	a5,mGcdMemorySpaceMap
	ld	a5,0(a5)
	sd	a5,-24(s0)
	.loc 1 1777 13
	j	.L254
.L257:
	.loc 1 1778 19
	ld	a5,-24(s0)
	addi	a5,a5,-8
	.loc 1 1778 125
	ld	a4,0(a5)
	.loc 1 1778 210
	li	a5,1835294720
	addi	a5,a5,871
	bne	a4,a5,.L255
	.loc 1 1778 15 discriminator 1
	ld	a5,-24(s0)
	addi	a5,a5,-8
	sd	a5,-32(s0)
	j	.L256
.L255:
	.loc 1 1778 15 is_stmt 0 discriminator 2
	sd	zero,-32(s0)
.L256:
	.loc 1 1779 9 is_stmt 1
	ld	a1,-32(s0)
	ld	a0,-40(s0)
	call	BuildMemoryDescriptor
	.loc 1 1780 19
	ld	a5,-40(s0)
	addi	a5,a5,56
	sd	a5,-40(s0)
	.loc 1 1781 14
	ld	a5,-24(s0)
	ld	a5,0(a5)
	sd	a5,-24(s0)
.L254:
	.loc 1 1777 19
	ld	a4,-24(s0)
	lla	a5,mGcdMemorySpaceMap
	bne	a4,a5,.L257
	.loc 1 1787 7
	j	.L262
.L253:
	.loc 1 1794 5
	call	CoreReleaseGcdMemoryLock
	.loc 1 1801 9
	ld	a5,-64(s0)
	ld	a5,0(a5)
	.loc 1 1801 8
	beq	a5,zero,.L259
	.loc 1 1802 7
	ld	a5,-64(s0)
	ld	a5,0(a5)
	mv	a0,a5
	call	FreePool@plt
.L259:
	.loc 1 1806 41
	ld	a4,-48(s0)
	mv	a5,a4
	slli	a5,a5,3
	sub	a5,a5,a4
	slli	a5,a5,3
	.loc 1 1805 23
	mv	a0,a5
	call	AllocatePool@plt
	mv	a4,a0
	.loc 1 1805 21 discriminator 1
	ld	a5,-64(s0)
	sd	a4,0(a5)
	.loc 1 1809 9
	ld	a5,-64(s0)
	ld	a5,0(a5)
	.loc 1 1809 8
	bne	a5,zero,.L260
	.loc 1 1810 28
	ld	a5,-56(s0)
	sd	zero,0(a5)
	.loc 1 1811 14
	li	a5,-1
	slli	a5,a5,63
	addi	a5,a5,9
	j	.L251
.L260:
	.loc 1 1818 26
	ld	a5,-56(s0)
	ld	a4,-48(s0)
	sd	a4,0(a5)
	.loc 1 1822 5
	call	CoreAcquireGcdMemoryLock
	.loc 1 1770 21
	j	.L261
.L262:
	.loc 1 1828 3
	call	CoreReleaseGcdMemoryLock
	.loc 1 1830 10
	li	a5,0
.L251:
	.loc 1 1831 1
	mv	a0,a5
	ld	ra,56(sp)
	.cfi_restore 1
	ld	s0,48(sp)
	.cfi_restore 8
	.cfi_def_cfa 2, 64
	addi	sp,sp,64
	.cfi_def_cfa_offset 0
	jr	ra
	.cfi_endproc
.LFE29:
	.size	CoreGetMemorySpaceMap, .-CoreGetMemorySpaceMap
	.section	.text.CoreAddIoSpace,"ax",@progbits
	.align	1
	.globl	CoreAddIoSpace
	.type	CoreAddIoSpace, @function
CoreAddIoSpace:
.LFB30:
	.loc 1 1851 1
	.cfi_startproc
	addi	sp,sp,-48
	.cfi_def_cfa_offset 48
	sd	ra,40(sp)
	sd	s0,32(sp)
	.cfi_offset 1, -8
	.cfi_offset 8, -16
	addi	s0,sp,48
	.cfi_def_cfa 8, 0
	mv	a5,a0
	sd	a1,-32(s0)
	sd	a2,-40(s0)
	sw	a5,-20(s0)
	.loc 1 1858 6
	lw	a5,-20(s0)
	sext.w	a5,a5
	beq	a5,zero,.L264
	.loc 1 1858 46 discriminator 1
	lw	a5,-20(s0)
	sext.w	a4,a5
	li	a5,2
	bleu	a4,a5,.L265
.L264:
	.loc 1 1859 12
	li	a5,-1
	slli	a5,a5,63
	addi	a5,a5,2
	j	.L266
.L265:
	.loc 1 1862 10
	lw	a2,-20(s0)
	li	a6,0
	li	a5,0
	ld	a4,-40(s0)
	ld	a3,-32(s0)
	li	a1,0
	li	a0,64
	call	CoreConvertSpace
	mv	a5,a0
.L266:
	.loc 1 1863 1
	mv	a0,a5
	ld	ra,40(sp)
	.cfi_restore 1
	ld	s0,32(sp)
	.cfi_restore 8
	.cfi_def_cfa 2, 48
	addi	sp,sp,48
	.cfi_def_cfa_offset 0
	jr	ra
	.cfi_endproc
.LFE30:
	.size	CoreAddIoSpace, .-CoreAddIoSpace
	.section	.text.CoreAllocateIoSpace,"ax",@progbits
	.align	1
	.globl	CoreAllocateIoSpace
	.type	CoreAllocateIoSpace, @function
CoreAllocateIoSpace:
.LFB31:
	.loc 1 1893 1
	.cfi_startproc
	addi	sp,sp,-80
	.cfi_def_cfa_offset 80
	sd	ra,72(sp)
	sd	s0,64(sp)
	.cfi_offset 1, -8
	.cfi_offset 8, -16
	addi	s0,sp,80
	.cfi_def_cfa 8, 0
	sd	a2,-32(s0)
	sd	a3,-40(s0)
	sd	a4,-48(s0)
	sd	a5,-56(s0)
	sd	a6,-64(s0)
	mv	a5,a0
	sw	a5,-20(s0)
	mv	a5,a1
	sw	a5,-24(s0)
	.loc 1 1906 10
	lw	a3,-24(s0)
	lw	a1,-20(s0)
	ld	a5,-64(s0)
	sd	a5,0(sp)
	ld	a7,-56(s0)
	ld	a6,-48(s0)
	ld	a5,-40(s0)
	ld	a4,-32(s0)
	li	a2,0
	li	a0,65
	call	CoreAllocateSpace
	mv	a5,a0
	.loc 1 1917 1
	mv	a0,a5
	ld	ra,72(sp)
	.cfi_restore 1
	ld	s0,64(sp)
	.cfi_restore 8
	.cfi_def_cfa 2, 80
	addi	sp,sp,80
	.cfi_def_cfa_offset 0
	jr	ra
	.cfi_endproc
.LFE31:
	.size	CoreAllocateIoSpace, .-CoreAllocateIoSpace
	.section	.text.CoreFreeIoSpace,"ax",@progbits
	.align	1
	.globl	CoreFreeIoSpace
	.type	CoreFreeIoSpace, @function
CoreFreeIoSpace:
.LFB32:
	.loc 1 1935 1
	.cfi_startproc
	addi	sp,sp,-32
	.cfi_def_cfa_offset 32
	sd	ra,24(sp)
	sd	s0,16(sp)
	.cfi_offset 1, -8
	.cfi_offset 8, -16
	addi	s0,sp,32
	.cfi_def_cfa 8, 0
	sd	a0,-24(s0)
	sd	a1,-32(s0)
	.loc 1 1938 10
	li	a6,0
	li	a5,0
	ld	a4,-32(s0)
	ld	a3,-24(s0)
	li	a2,0
	li	a1,0
	li	a0,66
	call	CoreConvertSpace
	mv	a5,a0
	.loc 1 1939 1
	mv	a0,a5
	ld	ra,24(sp)
	.cfi_restore 1
	ld	s0,16(sp)
	.cfi_restore 8
	.cfi_def_cfa 2, 32
	addi	sp,sp,32
	.cfi_def_cfa_offset 0
	jr	ra
	.cfi_endproc
.LFE32:
	.size	CoreFreeIoSpace, .-CoreFreeIoSpace
	.section	.text.CoreRemoveIoSpace,"ax",@progbits
	.align	1
	.globl	CoreRemoveIoSpace
	.type	CoreRemoveIoSpace, @function
CoreRemoveIoSpace:
.LFB33:
	.loc 1 1957 1
	.cfi_startproc
	addi	sp,sp,-32
	.cfi_def_cfa_offset 32
	sd	ra,24(sp)
	sd	s0,16(sp)
	.cfi_offset 1, -8
	.cfi_offset 8, -16
	addi	s0,sp,32
	.cfi_def_cfa 8, 0
	sd	a0,-24(s0)
	sd	a1,-32(s0)
	.loc 1 1960 10
	li	a6,0
	li	a5,0
	ld	a4,-32(s0)
	ld	a3,-24(s0)
	li	a2,0
	li	a1,0
	li	a0,67
	call	CoreConvertSpace
	mv	a5,a0
	.loc 1 1961 1
	mv	a0,a5
	ld	ra,24(sp)
	.cfi_restore 1
	ld	s0,16(sp)
	.cfi_restore 8
	.cfi_def_cfa 2, 32
	addi	sp,sp,32
	.cfi_def_cfa_offset 0
	jr	ra
	.cfi_endproc
.LFE33:
	.size	CoreRemoveIoSpace, .-CoreRemoveIoSpace
	.section	.text.BuildIoDescriptor,"ax",@progbits
	.align	1
	.globl	BuildIoDescriptor
	.type	BuildIoDescriptor, @function
BuildIoDescriptor:
.LFB34:
	.loc 1 1975 1
	.cfi_startproc
	addi	sp,sp,-32
	.cfi_def_cfa_offset 32
	sd	ra,24(sp)
	sd	s0,16(sp)
	.cfi_offset 1, -8
	.cfi_offset 8, -16
	addi	s0,sp,32
	.cfi_def_cfa 8, 0
	sd	a0,-24(s0)
	sd	a1,-32(s0)
	.loc 1 1976 34
	ld	a5,-32(s0)
	ld	a4,24(a5)
	.loc 1 1976 27
	ld	a5,-24(s0)
	sd	a4,0(a5)
	.loc 1 1977 29
	ld	a5,-32(s0)
	ld	a4,32(a5)
	.loc 1 1977 49
	ld	a5,-32(s0)
	ld	a5,24(a5)
	.loc 1 1977 42
	sub	a5,a4,a5
	.loc 1 1977 63
	addi	a4,a5,1
	.loc 1 1977 22
	ld	a5,-24(s0)
	sd	a4,8(a5)
	.loc 1 1978 32
	ld	a5,-32(s0)
	lw	a4,60(a5)
	.loc 1 1978 25
	ld	a5,-24(s0)
	sw	a4,16(a5)
	.loc 1 1979 34
	ld	a5,-32(s0)
	ld	a4,64(a5)
	.loc 1 1979 27
	ld	a5,-24(s0)
	sd	a4,24(a5)
	.loc 1 1980 35
	ld	a5,-32(s0)
	ld	a4,72(a5)
	.loc 1 1980 28
	ld	a5,-24(s0)
	sd	a4,32(a5)
	.loc 1 1981 1
	nop
	ld	ra,24(sp)
	.cfi_restore 1
	ld	s0,16(sp)
	.cfi_restore 8
	.cfi_def_cfa 2, 32
	addi	sp,sp,32
	.cfi_def_cfa_offset 0
	jr	ra
	.cfi_endproc
.LFE34:
	.size	BuildIoDescriptor, .-BuildIoDescriptor
	.section	.text.CoreGetIoSpaceDescriptor,"ax",@progbits
	.align	1
	.globl	CoreGetIoSpaceDescriptor
	.type	CoreGetIoSpaceDescriptor, @function
CoreGetIoSpaceDescriptor:
.LFB35:
	.loc 1 1999 1
	.cfi_startproc
	addi	sp,sp,-64
	.cfi_def_cfa_offset 64
	sd	ra,56(sp)
	sd	s0,48(sp)
	.cfi_offset 1, -8
	.cfi_offset 8, -16
	addi	s0,sp,64
	.cfi_def_cfa 8, 0
	sd	a0,-56(s0)
	sd	a1,-64(s0)
	.loc 1 2008 6
	ld	a5,-64(s0)
	bne	a5,zero,.L275
	.loc 1 2009 12
	li	a5,-1
	slli	a5,a5,63
	addi	a5,a5,2
	j	.L281
.L275:
	.loc 1 2012 3
	call	CoreAcquireGcdIoLock
	.loc 1 2017 12
	addi	a3,s0,-48
	addi	a5,s0,-40
	lla	a4,mGcdIoSpaceMap
	mv	a2,a5
	li	a1,1
	ld	a0,-56(s0)
	call	CoreSearchGcdMapEntry
	sd	a0,-24(s0)
	.loc 1 2018 34
	ld	a5,-24(s0)
	.loc 1 2018 6
	bge	a5,zero,.L277
	.loc 1 2019 12
	li	a5,-1
	slli	a5,a5,63
	addi	a5,a5,14
	sd	a5,-24(s0)
	j	.L278
.L277:
	.loc 1 2025 37
	ld	a5,-40(s0)
	.loc 1 2025 15
	addi	a5,a5,-8
	.loc 1 2025 126
	ld	a4,0(a5)
	.loc 1 2025 211
	li	a5,1835294720
	addi	a5,a5,871
	bne	a4,a5,.L279
	.loc 1 2025 236 discriminator 1
	ld	a5,-40(s0)
	.loc 1 2025 11 discriminator 1
	addi	a5,a5,-8
	sd	a5,-32(s0)
	j	.L280
.L279:
	.loc 1 2025 11 is_stmt 0 discriminator 2
	sd	zero,-32(s0)
.L280:
	.loc 1 2026 5 is_stmt 1
	ld	a1,-32(s0)
	ld	a0,-64(s0)
	call	BuildIoDescriptor
.L278:
	.loc 1 2029 3
	call	CoreReleaseGcdIoLock
	.loc 1 2031 10
	ld	a5,-24(s0)
.L281:
	.loc 1 2032 1
	mv	a0,a5
	ld	ra,56(sp)
	.cfi_restore 1
	ld	s0,48(sp)
	.cfi_restore 8
	.cfi_def_cfa 2, 64
	addi	sp,sp,64
	.cfi_def_cfa_offset 0
	jr	ra
	.cfi_endproc
.LFE35:
	.size	CoreGetIoSpaceDescriptor, .-CoreGetIoSpaceDescriptor
	.section	.text.CoreGetIoSpaceMap,"ax",@progbits
	.align	1
	.globl	CoreGetIoSpaceMap
	.type	CoreGetIoSpaceMap, @function
CoreGetIoSpaceMap:
.LFB36:
	.loc 1 2051 1
	.cfi_startproc
	addi	sp,sp,-64
	.cfi_def_cfa_offset 64
	sd	ra,56(sp)
	sd	s0,48(sp)
	.cfi_offset 1, -8
	.cfi_offset 8, -16
	addi	s0,sp,64
	.cfi_def_cfa 8, 0
	sd	a0,-56(s0)
	sd	a1,-64(s0)
	.loc 1 2060 6
	ld	a5,-56(s0)
	bne	a5,zero,.L283
	.loc 1 2061 12
	li	a5,-1
	slli	a5,a5,63
	addi	a5,a5,2
	j	.L284
.L283:
	.loc 1 2064 6
	ld	a5,-64(s0)
	bne	a5,zero,.L285
	.loc 1 2065 12
	li	a5,-1
	slli	a5,a5,63
	addi	a5,a5,2
	j	.L284
.L285:
	.loc 1 2068 3
	call	CoreAcquireGcdIoLock
	.loc 1 2073 26
	lla	a0,mGcdIoSpaceMap
	call	CoreCountGcdMapEntry
	mv	a4,a0
	.loc 1 2073 24 discriminator 1
	ld	a5,-56(s0)
	sd	a4,0(a5)
	.loc 1 2078 31
	ld	a5,-56(s0)
	ld	a4,0(a5)
	.loc 1 2078 52
	mv	a5,a4
	slli	a5,a5,2
	add	a5,a5,a4
	slli	a5,a5,3
	.loc 1 2078 17
	mv	a0,a5
	call	AllocatePool@plt
	mv	a4,a0
	.loc 1 2078 15 discriminator 1
	ld	a5,-64(s0)
	sd	a4,0(a5)
	.loc 1 2079 7
	ld	a5,-64(s0)
	ld	a5,0(a5)
	.loc 1 2079 6
	bne	a5,zero,.L286
	.loc 1 2080 12
	li	a5,-1
	slli	a5,a5,63
	addi	a5,a5,9
	sd	a5,-24(s0)
	.loc 1 2081 5
	j	.L287
.L286:
	.loc 1 2087 14
	ld	a5,-64(s0)
	ld	a5,0(a5)
	sd	a5,-48(s0)
	.loc 1 2088 8
	lla	a5,mGcdIoSpaceMap
	ld	a5,0(a5)
	sd	a5,-32(s0)
	.loc 1 2089 9
	j	.L288
.L291:
	.loc 1 2090 15
	ld	a5,-32(s0)
	addi	a5,a5,-8
	.loc 1 2090 121
	ld	a4,0(a5)
	.loc 1 2090 206
	li	a5,1835294720
	addi	a5,a5,871
	bne	a4,a5,.L289
	.loc 1 2090 11 discriminator 1
	ld	a5,-32(s0)
	addi	a5,a5,-8
	sd	a5,-40(s0)
	j	.L290
.L289:
	.loc 1 2090 11 is_stmt 0 discriminator 2
	sd	zero,-40(s0)
.L290:
	.loc 1 2091 5 is_stmt 1
	ld	a1,-40(s0)
	ld	a0,-48(s0)
	call	BuildIoDescriptor
	.loc 1 2092 15
	ld	a5,-48(s0)
	addi	a5,a5,40
	sd	a5,-48(s0)
	.loc 1 2093 10
	ld	a5,-32(s0)
	ld	a5,0(a5)
	sd	a5,-32(s0)
.L288:
	.loc 1 2089 15
	ld	a4,-32(s0)
	lla	a5,mGcdIoSpaceMap
	bne	a4,a5,.L291
	.loc 1 2096 10
	sd	zero,-24(s0)
.L287:
	.loc 1 2099 3
	call	CoreReleaseGcdIoLock
	.loc 1 2100 10
	ld	a5,-24(s0)
.L284:
	.loc 1 2101 1
	mv	a0,a5
	ld	ra,56(sp)
	.cfi_restore 1
	ld	s0,48(sp)
	.cfi_restore 8
	.cfi_def_cfa 2, 64
	addi	sp,sp,64
	.cfi_def_cfa_offset 0
	jr	ra
	.cfi_endproc
.LFE36:
	.size	CoreGetIoSpaceMap, .-CoreGetIoSpaceMap
	.section	.text.CoreConvertResourceDescriptorHobAttributesToCapabilities,"ax",@progbits
	.align	1
	.globl	CoreConvertResourceDescriptorHobAttributesToCapabilities
	.type	CoreConvertResourceDescriptorHobAttributesToCapabilities, @function
CoreConvertResourceDescriptorHobAttributesToCapabilities:
.LFB37:
	.loc 1 2119 1
	.cfi_startproc
	addi	sp,sp,-48
	.cfi_def_cfa_offset 48
	sd	ra,40(sp)
	sd	s0,32(sp)
	.cfi_offset 1, -8
	.cfi_offset 8, -16
	addi	s0,sp,48
	.cfi_def_cfa 8, 0
	mv	a5,a0
	sd	a1,-48(s0)
	sw	a5,-36(s0)
	.loc 1 2126 21
	sd	zero,-24(s0)
	.loc 1 2126 37
	lla	a5,mAttributeConversionTable
	sd	a5,-32(s0)
	.loc 1 2126 3
	j	.L293
.L296:
	.loc 1 2127 19
	ld	a5,-32(s0)
	lbu	a5,16(a5)
	.loc 1 2127 8
	bne	a5,zero,.L294
	.loc 1 2127 28 discriminator 1
	lw	a5,-36(s0)
	sext.w	a4,a5
	li	a5,2
	beq	a4,a5,.L295
	.loc 1 2127 80 discriminator 2
	lw	a5,-36(s0)
	sext.w	a4,a5
	li	a5,5
	beq	a4,a5,.L295
.L294:
	.loc 1 2128 34
	ld	a5,-32(s0)
	ld	a4,0(a5)
	.loc 1 2128 22
	ld	a5,-48(s0)
	and	a5,a4,a5
	.loc 1 2128 10
	beq	a5,zero,.L295
	.loc 1 2129 35
	ld	a5,-32(s0)
	ld	a5,8(a5)
	.loc 1 2129 22
	ld	a4,-24(s0)
	or	a5,a4,a5
	sd	a5,-24(s0)
.L295:
	.loc 1 2126 104 discriminator 2
	ld	a5,-32(s0)
	addi	a5,a5,24
	sd	a5,-32(s0)
.L293:
	.loc 1 2126 76 discriminator 1
	ld	a5,-32(s0)
	ld	a5,0(a5)
	.loc 1 2126 88 discriminator 1
	bne	a5,zero,.L296
	.loc 1 2134 10
	ld	a5,-24(s0)
	.loc 1 2135 1
	mv	a0,a5
	ld	ra,40(sp)
	.cfi_restore 1
	ld	s0,32(sp)
	.cfi_restore 8
	.cfi_def_cfa 2, 48
	addi	sp,sp,48
	.cfi_def_cfa_offset 0
	jr	ra
	.cfi_endproc
.LFE37:
	.size	CoreConvertResourceDescriptorHobAttributesToCapabilities, .-CoreConvertResourceDescriptorHobAttributesToCapabilities
	.section	.text.CalculateTotalMemoryBinSizeNeeded,"ax",@progbits
	.align	1
	.globl	CalculateTotalMemoryBinSizeNeeded
	.type	CalculateTotalMemoryBinSizeNeeded, @function
CalculateTotalMemoryBinSizeNeeded:
.LFB38:
	.loc 1 2147 1
	.cfi_startproc
	addi	sp,sp,-32
	.cfi_def_cfa_offset 32
	sd	ra,24(sp)
	sd	s0,16(sp)
	.cfi_offset 1, -8
	.cfi_offset 8, -16
	addi	s0,sp,32
	.cfi_def_cfa 8, 0
	.loc 1 2154 13
	sd	zero,-32(s0)
	.loc 1 2155 14
	sd	zero,-24(s0)
	.loc 1 2155 3
	j	.L299
.L300:
	.loc 1 2156 58
	la	a4,gMemoryTypeInformation
	ld	a5,-24(s0)
	slli	a5,a5,3
	add	a5,a4,a5
	lw	a5,4(a5)
	.loc 1 2156 18
	slli	a5,a5,32
	srli	a5,a5,32
	li	a1,12
	mv	a0,a5
	call	LShiftU64@plt
	mv	a4,a0
	.loc 1 2156 15 discriminator 1
	ld	a5,-32(s0)
	add	a5,a5,a4
	sd	a5,-32(s0)
	.loc 1 2155 80 discriminator 3
	ld	a5,-24(s0)
	addi	a5,a5,1
	sd	a5,-24(s0)
.L299:
	.loc 1 2155 48 discriminator 1
	la	a4,gMemoryTypeInformation
	ld	a5,-24(s0)
	slli	a5,a5,3
	add	a5,a4,a5
	lw	a4,0(a5)
	.loc 1 2155 54 discriminator 1
	li	a5,16
	bne	a4,a5,.L300
	.loc 1 2159 10
	ld	a5,-32(s0)
	.loc 1 2160 1
	mv	a0,a5
	ld	ra,24(sp)
	.cfi_restore 1
	ld	s0,16(sp)
	.cfi_restore 8
	.cfi_def_cfa 2, 32
	addi	sp,sp,32
	.cfi_def_cfa_offset 0
	jr	ra
	.cfi_endproc
.LFE38:
	.size	CalculateTotalMemoryBinSizeNeeded, .-CalculateTotalMemoryBinSizeNeeded
	.section	.text.FindLargestFreeRegion,"ax",@progbits
	.align	1
	.globl	FindLargestFreeRegion
	.type	FindLargestFreeRegion, @function
FindLargestFreeRegion:
.LFB39:
	.loc 1 2177 1
	.cfi_startproc
	addi	sp,sp,-96
	.cfi_def_cfa_offset 96
	sd	ra,88(sp)
	sd	s0,80(sp)
	.cfi_offset 1, -8
	.cfi_offset 8, -16
	addi	s0,sp,96
	.cfi_def_cfa 8, 0
	sd	a0,-72(s0)
	sd	a1,-80(s0)
	sd	a2,-88(s0)
	.loc 1 2185 16
	ld	a5,-72(s0)
	ld	a4,0(a5)
	.loc 1 2185 31
	ld	a5,-80(s0)
	ld	a5,0(a5)
	.loc 1 2185 14
	add	a5,a4,a5
	sd	a5,-24(s0)
	.loc 1 2186 9
	j	.L303
.L310:
	.loc 1 2187 29
	ld	a5,-88(s0)
	.loc 1 2187 46
	ld	a4,24(a5)
	.loc 1 2187 76
	ld	a5,-88(s0)
	.loc 1 2187 93
	ld	a5,32(a5)
	.loc 1 2187 18
	add	a5,a4,a5
	sd	a5,-32(s0)
	.loc 1 2189 19
	ld	a5,-88(s0)
	.loc 1 2189 36
	ld	a4,24(a5)
	.loc 1 2189 58
	ld	a5,-72(s0)
	ld	a5,0(a5)
	.loc 1 2189 8
	bltu	a4,a5,.L304
	.loc 1 2189 72 discriminator 1
	ld	a4,-32(s0)
	ld	a5,-24(s0)
	bgtu	a4,a5,.L304
	.loc 1 2192 19
	ld	a5,-72(s0)
	ld	a5,0(a5)
	.loc 1 2192 17
	sd	a5,-40(s0)
	.loc 1 2193 28
	ld	a5,-88(s0)
	.loc 1 2193 45
	ld	a4,24(a5)
	.loc 1 2193 66
	ld	a5,-72(s0)
	ld	a5,0(a5)
	.loc 1 2193 64
	sub	a5,a4,a5
	.loc 1 2193 17
	sd	a5,-48(s0)
	.loc 1 2194 17
	ld	a5,-32(s0)
	sd	a5,-56(s0)
	.loc 1 2195 30
	ld	a4,-24(s0)
	ld	a5,-32(s0)
	sub	a5,a4,a5
	.loc 1 2195 17
	sd	a5,-64(s0)
	.loc 1 2197 21
	ld	a5,-48(s0)
	.loc 1 2197 10
	beq	a5,zero,.L305
	.loc 1 2198 125
	addi	a5,s0,-88
	.loc 1 2198 114
	ld	a5,0(a5)
	.loc 1 2198 170
	addi	a4,s0,-88
	.loc 1 2198 142
	ld	a4,0(a4)
	.loc 1 2198 183
	lhu	a4,2(a4)
	.loc 1 2198 138
	add	a5,a5,a4
	.loc 1 2198 85
	mv	a1,a5
	li	a0,2
	call	GetNextHob@plt
	mv	a3,a0
	.loc 1 2198 9 discriminator 1
	addi	a4,s0,-48
	addi	a5,s0,-40
	mv	a2,a3
	mv	a1,a4
	mv	a0,a5
	call	FindLargestFreeRegion
.L305:
	.loc 1 2201 21
	ld	a5,-64(s0)
	.loc 1 2201 10
	beq	a5,zero,.L306
	.loc 1 2202 125
	addi	a5,s0,-88
	.loc 1 2202 114
	ld	a5,0(a5)
	.loc 1 2202 170
	addi	a4,s0,-88
	.loc 1 2202 142
	ld	a4,0(a4)
	.loc 1 2202 183
	lhu	a4,2(a4)
	.loc 1 2202 138
	add	a5,a5,a4
	.loc 1 2202 85
	mv	a1,a5
	li	a0,2
	call	GetNextHob@plt
	mv	a3,a0
	.loc 1 2202 9 discriminator 1
	addi	a4,s0,-64
	addi	a5,s0,-56
	mv	a2,a3
	mv	a1,a4
	mv	a0,a5
	call	FindLargestFreeRegion
.L306:
	.loc 1 2205 21
	ld	a4,-64(s0)
	ld	a5,-48(s0)
	.loc 1 2205 10
	bltu	a4,a5,.L307
	.loc 1 2206 17
	ld	a4,-64(s0)
	ld	a5,-80(s0)
	sd	a4,0(a5)
	.loc 1 2207 22
	ld	a4,-56(s0)
	ld	a5,-72(s0)
	sd	a4,0(a5)
	.loc 1 2213 7 discriminator 1
	j	.L302
.L307:
	.loc 1 2209 17
	ld	a4,-48(s0)
	ld	a5,-80(s0)
	sd	a4,0(a5)
	.loc 1 2210 22
	ld	a4,-40(s0)
	ld	a5,-72(s0)
	sd	a4,0(a5)
	j	.L302
.L304:
	.loc 1 2216 57
	addi	a5,s0,-88
	.loc 1 2216 46
	ld	a5,0(a5)
	.loc 1 2216 102
	addi	a4,s0,-88
	.loc 1 2216 74
	ld	a4,0(a4)
	.loc 1 2216 115
	lhu	a4,2(a4)
	.loc 1 2216 70
	add	a5,a5,a4
	.loc 1 2216 17
	mv	a1,a5
	li	a0,2
	call	GetNextHob@plt
	mv	a5,a0
	.loc 1 2216 15 discriminator 1
	sd	a5,-88(s0)
.L303:
	.loc 1 2186 20
	ld	a5,-88(s0)
	bne	a5,zero,.L310
.L302:
	.loc 1 2218 1
	ld	ra,88(sp)
	.cfi_restore 1
	ld	s0,80(sp)
	.cfi_restore 8
	.cfi_def_cfa 2, 96
	addi	sp,sp,96
	.cfi_def_cfa_offset 0
	jr	ra
	.cfi_endproc
.LFE39:
	.size	FindLargestFreeRegion, .-FindLargestFreeRegion
	.section	.text.CoreInitializeMemoryServices,"ax",@progbits
	.align	1
	.globl	CoreInitializeMemoryServices
	.type	CoreInitializeMemoryServices, @function
CoreInitializeMemoryServices:
.LFB40:
	.loc 1 2241 1
	.cfi_startproc
	addi	sp,sp,-224
	.cfi_def_cfa_offset 224
	sd	ra,216(sp)
	sd	s0,208(sp)
	sd	s1,200(sp)
	.cfi_offset 1, -8
	.cfi_offset 8, -16
	.cfi_offset 9, -24
	addi	s0,sp,224
	.cfi_def_cfa 8, 0
	sd	a0,-200(s0)
	sd	a1,-208(s0)
	sd	a2,-216(s0)
	.loc 1 2265 13
	ld	a5,-200(s0)
	ld	a5,0(a5)
	.loc 1 2265 11
	sd	a5,-144(s0)
	.loc 1 2272 3
	call	CoreInitializePool@plt
	.loc 1 2277 19
	sd	zero,-48(s0)
	.loc 1 2278 15
	sd	zero,-88(s0)
	.loc 1 2279 15
	sd	zero,-152(s0)
	.loc 1 2280 10
	sd	zero,-160(s0)
	.loc 1 2281 14
	sd	zero,-64(s0)
	.loc 1 2286 11
	ld	a5,-144(s0)
	sd	a5,-96(s0)
	.loc 1 2288 58
	la	a5,_gPcd_FixedAtBuild_PcdLoadModuleAtFixAddressEnable
	ld	a5,0(a5)
	.loc 1 2288 6
	beq	a5,zero,.L312
	.loc 1 2289 28
	la	a5,_gPcd_BinaryPatch_PcdLoadFixAddressRuntimeCodePageNumber
	lw	a5,0(a5)
	sw	a5,-100(s0)
	.loc 1 2290 5
	la	a5,_gPcd_BinaryPatch_PcdLoadFixAddressBootTimeCodePageNumber
	lw	a5,0(a5)
	sext.w	a5,a5
	.loc 1 2290 28
	lw	a4,-100(s0)
	addw	a5,a4,a5
	sw	a5,-100(s0)
	.loc 1 2295 74
	ld	a5,-96(s0)
	ld	a4,16(a5)
	.loc 1 2296 95
	lw	a5,-100(s0)
	slliw	a5,a5,12
	sext.w	a5,a5
	slli	a5,a5,32
	srli	a5,a5,32
	.loc 1 2296 67
	add	a4,a4,a5
	.loc 1 2295 65
	la	a5,gLoadModuleAtFixAddressConfigurationTable
	sd	a4,0(a5)
.L312:
	.loc 1 2302 36
	sd	zero,-40(s0)
	.loc 1 2303 13
	la	a0,gEfiMemoryTypeInformationGuid
	call	GetFirstGuidHob@plt
	mv	a5,a0
	.loc 1 2303 11 discriminator 1
	sd	a5,-184(s0)
	.loc 1 2304 15
	ld	a5,-184(s0)
	.loc 1 2304 6
	beq	a5,zero,.L313
	.loc 1 2305 52
	addi	a5,s0,-184
	.loc 1 2305 41
	ld	a5,0(a5)
	.loc 1 2305 30
	addi	a5,a5,24
	sd	a5,-112(s0)
	.loc 1 2306 55
	addi	a5,s0,-184
	.loc 1 2306 27
	ld	a5,0(a5)
	.loc 1 2306 66
	lhu	a5,2(a5)
	.loc 1 2306 16
	addiw	a5,a5,-24
	slli	a5,a5,48
	srli	a5,a5,48
	.loc 1 2306 14
	sd	a5,-120(s0)
	.loc 1 2307 8
	ld	a5,-112(s0)
	beq	a5,zero,.L313
	.loc 1 2307 52 discriminator 1
	ld	a5,-120(s0)
	beq	a5,zero,.L313
	.loc 1 2307 70 discriminator 2
	ld	a4,-120(s0)
	li	a5,136
	bgtu	a4,a5,.L313
	.loc 1 2308 7
	ld	a2,-120(s0)
	ld	a1,-112(s0)
	la	a0,gMemoryTypeInformation
	call	CopyMem@plt
	.loc 1 2315 13
	sd	zero,-56(s0)
	.loc 1 2316 22
	ld	a5,-200(s0)
	ld	a5,0(a5)
	.loc 1 2316 20
	sd	a5,-144(s0)
	.loc 1 2316 7
	j	.L314
.L320:
	.loc 1 2317 43
	addi	a5,s0,-144
	.loc 1 2317 15
	ld	a5,0(a5)
	.loc 1 2317 50
	lhu	a5,0(a5)
	.loc 1 2317 12
	sext.w	a4,a5
	li	a5,3
	bne	a4,a5,.L348
	.loc 1 2321 21
	ld	a5,-144(s0)
	sd	a5,-88(s0)
	.loc 1 2322 27
	ld	a5,-88(s0)
	addi	a5,a5,8
	.loc 1 2322 14
	la	a1,gEfiMemoryTypeInformationGuid
	mv	a0,a5
	call	CompareGuid@plt
	mv	a5,a0
	.loc 1 2322 12 discriminator 1
	beq	a5,zero,.L349
	.loc 1 2326 14
	ld	a5,-56(s0)
	addi	a5,a5,1
	sd	a5,-56(s0)
	.loc 1 2327 24
	ld	a5,-88(s0)
	lw	a5,24(a5)
	.loc 1 2327 12
	bne	a5,zero,.L350
	.loc 1 2331 25
	ld	a5,-88(s0)
	lw	a5,28(a5)
	.loc 1 2331 45
	mv	a4,a5
	li	a5,8765440
	addi	a5,a5,903
	and	a5,a4,a5
	sext.w	a4,a5
	.loc 1 2331 12
	li	a5,7
	bne	a4,a5,.L351
	.loc 1 2335 24
	ld	a5,-88(s0)
	ld	s1,40(a5)
	.loc 1 2335 44
	call	CalculateTotalMemoryBinSizeNeeded
	mv	a5,a0
	.loc 1 2335 12 discriminator 1
	bltu	s1,a5,.L316
	.loc 1 2336 44
	ld	a5,-88(s0)
	sd	a5,-40(s0)
	j	.L316
.L348:
	.loc 1 2318 11
	nop
	j	.L316
.L349:
	.loc 1 2323 11
	nop
	j	.L316
.L350:
	.loc 1 2328 11
	nop
	j	.L316
.L351:
	.loc 1 2332 11
	nop
.L316:
	.loc 1 2316 133 discriminator 2
	addi	a5,s0,-144
	.loc 1 2316 122 discriminator 2
	ld	a5,0(a5)
	.loc 1 2316 172 discriminator 2
	addi	a4,s0,-144
	.loc 1 2316 144 discriminator 2
	ld	a4,0(a4)
	.loc 1 2316 179 discriminator 2
	lhu	a4,2(a4)
	.loc 1 2316 140 discriminator 2
	add	a5,a5,a4
	.loc 1 2316 111 discriminator 2
	sd	a5,-144(s0)
.L314:
	.loc 1 2316 65 discriminator 1
	addi	a5,s0,-144
	.loc 1 2316 37 discriminator 1
	ld	a5,0(a5)
	.loc 1 2316 72 discriminator 1
	lhu	a5,0(a5)
	.loc 1 2316 33 discriminator 1
	sext.w	a4,a5
	li	a5,65536
	addi	a5,a5,-1
	bne	a4,a5,.L320
	.loc 1 2340 10
	ld	a4,-56(s0)
	li	a5,1
	bleu	a4,a5,.L313
	.loc 1 2341 42
	sd	zero,-40(s0)
.L313:
	.loc 1 2349 39
	call	CalculateTotalMemoryBinSizeNeeded
	mv	a4,a0
	.loc 1 2349 27 discriminator 1
	li	a5,65536
	add	a5,a4,a5
	sd	a5,-128(s0)
	.loc 1 2354 9
	sb	zero,-129(s0)
	.loc 1 2355 18
	ld	a5,-200(s0)
	ld	a5,0(a5)
	.loc 1 2355 16
	sd	a5,-144(s0)
	.loc 1 2355 3
	j	.L321
.L331:
	.loc 1 2359 39
	addi	a5,s0,-144
	.loc 1 2359 11
	ld	a5,0(a5)
	.loc 1 2359 46
	lhu	a5,0(a5)
	.loc 1 2359 8
	sext.w	a4,a5
	li	a5,3
	bne	a4,a5,.L352
	.loc 1 2366 17
	ld	a5,-144(s0)
	sd	a5,-88(s0)
	.loc 1 2367 20
	ld	a5,-88(s0)
	lw	a5,24(a5)
	.loc 1 2367 8
	bne	a5,zero,.L353
	.loc 1 2371 21
	ld	a5,-88(s0)
	lw	a5,28(a5)
	.loc 1 2371 41
	mv	a4,a5
	li	a5,8765440
	addi	a5,a5,903
	and	a5,a4,a5
	sext.w	a4,a5
	.loc 1 2371 8
	li	a5,7
	bne	a4,a5,.L354
	.loc 1 2378 16
	ld	a5,-96(s0)
	ld	a4,40(a5)
	.loc 1 2378 51
	ld	a5,-88(s0)
	ld	a5,32(a5)
	.loc 1 2378 8
	bltu	a4,a5,.L355
	.loc 1 2382 16
	ld	a5,-96(s0)
	ld	a4,32(a5)
	.loc 1 2382 49
	ld	a5,-88(s0)
	ld	a3,32(a5)
	.loc 1 2382 78
	ld	a5,-88(s0)
	ld	a5,40(a5)
	.loc 1 2382 65
	add	a5,a3,a5
	.loc 1 2382 8
	bgtu	a4,a5,.L356
	.loc 1 2389 21
	ld	a5,-88(s0)
	sd	a5,-48(s0)
	.loc 1 2390 11
	li	a5,1
	sb	a5,-129(s0)
	.loc 1 2397 8
	ld	a4,-40(s0)
	ld	a5,-48(s0)
	bne	a4,a5,.L328
	.loc 1 2398 40
	sd	zero,-40(s0)
.L328:
	.loc 1 2404 33
	ld	a5,-48(s0)
	lw	a5,28(a5)
	.loc 1 2404 16
	slli	a5,a5,32
	srli	a5,a5,32
	sd	a5,-64(s0)
	.loc 1 2405 44
	ld	a5,-96(s0)
	ld	a5,16(a5)
	.loc 1 2405 19
	mv	a0,a5
	call	PageAlignAddress
	mv	a5,a0
	.loc 1 2405 17 discriminator 1
	sd	a5,-152(s0)
	.loc 1 2406 42
	ld	a5,-88(s0)
	ld	a4,32(a5)
	.loc 1 2406 71
	ld	a5,-88(s0)
	ld	a5,40(a5)
	.loc 1 2406 58
	add	a4,a4,a5
	.loc 1 2406 14
	ld	a5,-152(s0)
	.loc 1 2406 88
	sub	a5,a4,a5
	.loc 1 2406 14
	mv	a0,a5
	call	PageAlignLength
	mv	a5,a0
	.loc 1 2406 12 discriminator 1
	sd	a5,-160(s0)
	.loc 1 2407 80
	li	a0,2
	call	GetFirstHob@plt
	mv	a3,a0
	.loc 1 2407 5 discriminator 1
	addi	a4,s0,-160
	addi	a5,s0,-152
	mv	a2,a3
	mv	a1,a4
	mv	a0,a5
	call	FindLargestFreeRegion
	.loc 1 2408 16
	ld	a5,-160(s0)
	.loc 1 2408 8
	ld	a4,-128(s0)
	bleu	a4,a5,.L357
	.loc 1 2413 46
	ld	a5,-96(s0)
	ld	a5,40(a5)
	.loc 1 2413 21
	mv	a0,a5
	call	PageAlignAddress
	mv	a5,a0
	.loc 1 2413 19 discriminator 1
	sd	a5,-152(s0)
	.loc 1 2414 40
	ld	a5,-96(s0)
	ld	a4,32(a5)
	.loc 1 2414 16
	ld	a5,-152(s0)
	.loc 1 2414 59
	sub	a5,a4,a5
	.loc 1 2414 16
	mv	a0,a5
	call	PageAlignLength
	mv	a5,a0
	.loc 1 2414 14 discriminator 1
	sd	a5,-160(s0)
	.loc 1 2416 18
	ld	a5,-160(s0)
	.loc 1 2416 10
	ld	a4,-128(s0)
	bleu	a4,a5,.L357
	.loc 1 2421 52
	ld	a5,-88(s0)
	ld	a5,32(a5)
	.loc 1 2421 23
	mv	a0,a5
	call	PageAlignAddress
	mv	a5,a0
	.loc 1 2421 21 discriminator 1
	sd	a5,-152(s0)
	.loc 1 2422 51
	ld	a5,-200(s0)
	ld	a5,0(a5)
	.loc 1 2422 44
	mv	a4,a5
	.loc 1 2422 18
	ld	a5,-152(s0)
	.loc 1 2422 35
	sub	a5,a4,a5
	.loc 1 2422 18
	mv	a0,a5
	call	PageAlignLength
	mv	a5,a0
	.loc 1 2422 16 discriminator 1
	sd	a5,-160(s0)
	.loc 1 2423 84
	li	a0,2
	call	GetFirstHob@plt
	mv	a3,a0
	.loc 1 2423 9 discriminator 1
	addi	a4,s0,-160
	addi	a5,s0,-152
	mv	a2,a3
	mv	a1,a4
	mv	a0,a5
	call	FindLargestFreeRegion
	.loc 1 2427 5
	j	.L357
.L352:
	.loc 1 2360 7
	nop
	j	.L323
.L353:
	.loc 1 2368 7
	nop
	j	.L323
.L354:
	.loc 1 2372 7
	nop
	j	.L323
.L355:
	.loc 1 2379 7
	nop
	j	.L323
.L356:
	.loc 1 2383 7
	nop
.L323:
	.loc 1 2355 129 discriminator 2
	addi	a5,s0,-144
	.loc 1 2355 118 discriminator 2
	ld	a5,0(a5)
	.loc 1 2355 168 discriminator 2
	addi	a4,s0,-144
	.loc 1 2355 140 discriminator 2
	ld	a4,0(a4)
	.loc 1 2355 175 discriminator 2
	lhu	a4,2(a4)
	.loc 1 2355 136 discriminator 2
	add	a5,a5,a4
	.loc 1 2355 107 discriminator 2
	sd	a5,-144(s0)
.L321:
	.loc 1 2355 61 discriminator 1
	addi	a5,s0,-144
	.loc 1 2355 33 discriminator 1
	ld	a5,0(a5)
	.loc 1 2355 68 discriminator 1
	lhu	a5,0(a5)
	.loc 1 2355 29 discriminator 1
	sext.w	a4,a5
	li	a5,65536
	addi	a5,a5,-1
	bne	a4,a5,.L331
	j	.L330
.L357:
	.loc 1 2427 5
	nop
.L330:
	.loc 1 2441 14
	ld	a5,-160(s0)
	.loc 1 2441 6
	ld	a4,-128(s0)
	bleu	a4,a5,.L332
	.loc 1 2448 17
	li	a5,-1
	srli	a5,a5,16
	sd	a5,-80(s0)
	.loc 1 2449 20
	ld	a5,-200(s0)
	ld	a5,0(a5)
	.loc 1 2449 18
	sd	a5,-144(s0)
	.loc 1 2449 5
	j	.L333
.L343:
	.loc 1 2453 14
	ld	a5,-144(s0)
	.loc 1 2453 10
	ld	a4,-48(s0)
	beq	a4,a5,.L358
	.loc 1 2460 14
	ld	a5,-144(s0)
	.loc 1 2460 10
	ld	a4,-40(s0)
	beq	a4,a5,.L359
	.loc 1 2467 41
	addi	a5,s0,-144
	.loc 1 2467 13
	ld	a5,0(a5)
	.loc 1 2467 48
	lhu	a5,0(a5)
	.loc 1 2467 10
	sext.w	a4,a5
	li	a5,3
	bne	a4,a5,.L360
	.loc 1 2474 19
	ld	a5,-144(s0)
	sd	a5,-88(s0)
	.loc 1 2475 22
	ld	a5,-88(s0)
	lw	a5,24(a5)
	.loc 1 2475 10
	bne	a5,zero,.L361
	.loc 1 2479 23
	ld	a5,-88(s0)
	lw	a5,28(a5)
	.loc 1 2479 43
	mv	a4,a5
	li	a5,8765440
	addi	a5,a5,903
	and	a5,a4,a5
	sext.w	a4,a5
	.loc 1 2479 10
	li	a5,7
	bne	a4,a5,.L362
	.loc 1 2483 23
	ld	a5,-88(s0)
	ld	a4,32(a5)
	.loc 1 2483 52
	ld	a5,-88(s0)
	ld	a5,40(a5)
	.loc 1 2483 39
	add	a4,a4,a5
	.loc 1 2483 10
	li	a5,-1
	srli	a5,a5,16
	bgtu	a4,a5,.L363
	.loc 1 2490 10
	ld	a4,-80(s0)
	li	a5,-1
	srli	a5,a5,16
	beq	a4,a5,.L341
	.loc 1 2490 83 discriminator 1
	ld	a5,-88(s0)
	ld	a5,32(a5)
	.loc 1 2490 68 discriminator 1
	ld	a4,-80(s0)
	bgeu	a4,a5,.L364
.L341:
	.loc 1 2497 62
	ld	a5,-88(s0)
	ld	a5,32(a5)
	.loc 1 2497 33
	mv	a0,a5
	call	PageAlignAddress
	mv	a5,a0
	.loc 1 2497 31 discriminator 1
	sd	a5,-168(s0)
	.loc 1 2498 56
	ld	a5,-88(s0)
	ld	a4,32(a5)
	.loc 1 2498 85
	ld	a5,-88(s0)
	ld	a5,40(a5)
	.loc 1 2498 72
	add	a4,a4,a5
	.loc 1 2498 28
	ld	a5,-168(s0)
	.loc 1 2498 102
	sub	a5,a4,a5
	.loc 1 2498 28
	mv	a0,a5
	call	PageAlignLength
	mv	a5,a0
	.loc 1 2498 26 discriminator 1
	sd	a5,-176(s0)
	.loc 1 2499 106
	li	a0,2
	call	GetFirstHob@plt
	mv	a3,a0
	.loc 1 2499 7 discriminator 1
	addi	a4,s0,-176
	addi	a5,s0,-168
	mv	a2,a3
	mv	a1,a4
	mv	a0,a5
	call	FindLargestFreeRegion
	.loc 1 2500 30
	ld	a5,-176(s0)
	.loc 1 2500 10
	ld	a4,-128(s0)
	bgtu	a4,a5,.L365
	.loc 1 2507 19
	ld	a5,-168(s0)
	sd	a5,-152(s0)
	.loc 1 2508 14
	ld	a5,-176(s0)
	sd	a5,-160(s0)
	.loc 1 2509 31
	ld	a5,-88(s0)
	lw	a5,28(a5)
	.loc 1 2509 18
	slli	a5,a5,32
	srli	a5,a5,32
	sd	a5,-64(s0)
	.loc 1 2510 19
	ld	a5,-88(s0)
	ld	a5,32(a5)
	sd	a5,-80(s0)
	j	.L335
.L358:
	.loc 1 2454 9
	nop
	j	.L335
.L359:
	.loc 1 2461 9
	nop
	j	.L335
.L360:
	.loc 1 2468 9
	nop
	j	.L335
.L361:
	.loc 1 2476 9
	nop
	j	.L335
.L362:
	.loc 1 2480 9
	nop
	j	.L335
.L363:
	.loc 1 2484 9
	nop
	j	.L335
.L364:
	.loc 1 2491 9
	nop
	j	.L335
.L365:
	.loc 1 2501 9
	nop
.L335:
	.loc 1 2449 131 discriminator 2
	addi	a5,s0,-144
	.loc 1 2449 120 discriminator 2
	ld	a5,0(a5)
	.loc 1 2449 170 discriminator 2
	addi	a4,s0,-144
	.loc 1 2449 142 discriminator 2
	ld	a4,0(a4)
	.loc 1 2449 177 discriminator 2
	lhu	a4,2(a4)
	.loc 1 2449 138 discriminator 2
	add	a5,a5,a4
	.loc 1 2449 109 discriminator 2
	sd	a5,-144(s0)
.L333:
	.loc 1 2449 63 discriminator 1
	addi	a5,s0,-144
	.loc 1 2449 35 discriminator 1
	ld	a5,0(a5)
	.loc 1 2449 70 discriminator 1
	lhu	a5,0(a5)
	.loc 1 2449 31 discriminator 1
	sext.w	a4,a5
	li	a5,65536
	addi	a5,a5,-1
	bne	a4,a5,.L343
.L332:
	.loc 1 2525 19
	ld	a4,-64(s0)
	li	a5,33554432
	and	a5,a4,a5
	.loc 1 2525 6
	beq	a5,zero,.L344
	.loc 1 2526 20
	ld	a1,-64(s0)
	li	a0,5
	call	CoreConvertResourceDescriptorHobAttributesToCapabilities
	sd	a0,-72(s0)
	j	.L345
.L344:
	.loc 1 2528 20
	ld	a1,-64(s0)
	li	a0,2
	call	CoreConvertResourceDescriptorHobAttributesToCapabilities
	sd	a0,-72(s0)
.L345:
	.loc 1 2531 6
	ld	a5,-40(s0)
	beq	a5,zero,.L346
	.loc 1 2537 5
	ld	a5,-40(s0)
	ld	a4,32(a5)
	ld	a5,-40(s0)
	ld	a5,40(a5)
	mv	a1,a5
	mv	a0,a4
	call	CoreSetMemoryTypeInformationRange@plt
.L346:
	.loc 1 2546 3
	ld	s1,-152(s0)
	ld	a5,-160(s0)
	li	a1,12
	mv	a0,a5
	call	RShiftU64@plt
	mv	a5,a0
	.loc 1 2546 3 is_stmt 0 discriminator 1
	ld	a3,-72(s0)
	mv	a2,a5
	mv	a1,s1
	li	a0,7
	call	CoreAddMemoryDescriptor@plt
	.loc 1 2553 22 is_stmt 1
	ld	a4,-152(s0)
	ld	a5,-208(s0)
	sd	a4,0(a5)
	.loc 1 2554 17
	ld	a4,-160(s0)
	ld	a5,-216(s0)
	sd	a4,0(a5)
	.loc 1 2556 10
	li	a5,0
	.loc 1 2557 1
	mv	a0,a5
	ld	ra,216(sp)
	.cfi_restore 1
	ld	s0,208(sp)
	.cfi_restore 8
	.cfi_def_cfa 2, 224
	ld	s1,200(sp)
	.cfi_restore 9
	addi	sp,sp,224
	.cfi_def_cfa_offset 0
	jr	ra
	.cfi_endproc
.LFE40:
	.size	CoreInitializeMemoryServices, .-CoreInitializeMemoryServices
	.section	.text.CoreInitializeGcdServices,"ax",@progbits
	.align	1
	.globl	CoreInitializeGcdServices
	.type	CoreInitializeGcdServices, @function
CoreInitializeGcdServices:
.LFB41:
	.loc 1 2579 1
	.cfi_startproc
	addi	sp,sp,-272
	.cfi_def_cfa_offset 272
	sd	ra,264(sp)
	sd	s0,256(sp)
	sd	s1,248(sp)
	sd	s2,240(sp)
	.cfi_offset 1, -8
	.cfi_offset 8, -16
	.cfi_offset 9, -24
	.cfi_offset 18, -32
	addi	s0,sp,272
	.cfi_def_cfa 8, 0
	sd	a0,-248(s0)
	sd	a1,-256(s0)
	sd	a2,-264(s0)
	.loc 1 2605 11
	ld	a5,-248(s0)
	ld	a5,0(a5)
	sd	a5,-64(s0)
	.loc 1 2610 12
	li	a0,6
	call	GetFirstHob@plt
	sd	a0,-72(s0)
	.loc 1 2612 21
	ld	a5,-72(s0)
	lbu	a5,8(a5)
	sb	a5,-73(s0)
	.loc 1 2613 17
	ld	a5,-72(s0)
	lbu	a5,9(a5)
	sb	a5,-74(s0)
	.loc 1 2618 11
	lla	a1,mGcdMemorySpaceMapEntryTemplate
	li	a0,80
	call	AllocateCopyPool@plt
	sd	a0,-88(s0)
	.loc 1 2621 23
	lbu	a5,-73(s0)
	mv	a1,a5
	li	a0,1
	call	LShiftU64@plt
	mv	a5,a0
	.loc 1 2621 56 discriminator 1
	addi	a4,a5,-1
	.loc 1 2621 21 discriminator 1
	ld	a5,-88(s0)
	sd	a4,32(a5)
	.loc 1 2623 3
	ld	a5,-88(s0)
	addi	a5,a5,8
	mv	a1,a5
	lla	a0,mGcdMemorySpaceMap
	call	InsertHeadList@plt
	.loc 1 2625 3
	li	a0,1
	call	CoreDumpGcdMemorySpaceMap
	.loc 1 2630 11
	lla	a1,mGcdIoSpaceMapEntryTemplate
	li	a0,80
	call	AllocateCopyPool@plt
	sd	a0,-88(s0)
	.loc 1 2633 23
	lbu	a5,-74(s0)
	mv	a1,a5
	li	a0,1
	call	LShiftU64@plt
	mv	a5,a0
	.loc 1 2633 52 discriminator 1
	addi	a4,a5,-1
	.loc 1 2633 21 discriminator 1
	ld	a5,-88(s0)
	sd	a4,32(a5)
	.loc 1 2635 3
	ld	a5,-88(s0)
	addi	a5,a5,8
	mv	a1,a5
	lla	a0,mGcdIoSpaceMap
	call	InsertHeadList@plt
	.loc 1 2637 3
	li	a0,1
	call	CoreDumpGcdIoSpaceMap
	.loc 1 2642 18
	ld	a5,-248(s0)
	ld	a5,0(a5)
	.loc 1 2642 16
	sd	a5,-152(s0)
	.loc 1 2642 3
	j	.L367
.L382:
	.loc 1 2643 19
	sw	zero,-36(s0)
	.loc 1 2644 15
	sw	zero,-40(s0)
	.loc 1 2646 39
	addi	a5,s0,-152
	.loc 1 2646 11
	ld	a5,0(a5)
	.loc 1 2646 46
	lhu	a5,0(a5)
	.loc 1 2646 8
	sext.w	a4,a5
	li	a5,3
	bne	a4,a5,.L368
	.loc 1 2647 19
	ld	a5,-152(s0)
	sd	a5,-136(s0)
	.loc 1 2649 26
	ld	a5,-136(s0)
	lw	a5,24(a5)
	.loc 1 2649 7
	li	a4,7
	beq	a5,a4,.L369
	li	a4,7
	bgtu	a5,a4,.L370
	li	a4,6
	beq	a5,a4,.L371
	li	a4,6
	bgtu	a5,a4,.L370
	li	a4,5
	bgtu	a5,a4,.L370
	li	a4,4
	bgeu	a5,a4,.L372
	li	a4,3
	beq	a5,a4,.L373
	li	a4,3
	bgtu	a5,a4,.L370
	li	a4,2
	beq	a5,a4,.L374
	li	a4,2
	bgtu	a5,a4,.L370
	beq	a5,zero,.L375
	li	a4,1
	beq	a5,a4,.L373
	j	.L370
.L375:
	.loc 1 2651 27
	ld	a5,-136(s0)
	lw	a5,28(a5)
	.loc 1 2651 47
	mv	a4,a5
	li	a5,8765440
	addi	a5,a5,903
	and	a5,a4,a5
	sext.w	a4,a5
	.loc 1 2651 14
	li	a5,7
	bne	a4,a5,.L376
	.loc 1 2652 29
	ld	a5,-136(s0)
	lw	a5,28(a5)
	.loc 1 2652 49
	mv	a4,a5
	li	a5,33554432
	and	a5,a4,a5
	sext.w	a5,a5
	.loc 1 2652 16
	beq	a5,zero,.L377
	.loc 1 2653 29
	li	a5,5
	sw	a5,-36(s0)
	j	.L376
.L377:
	.loc 1 2655 29
	li	a5,2
	sw	a5,-36(s0)
.L376:
	.loc 1 2659 27
	ld	a5,-136(s0)
	lw	a5,28(a5)
	.loc 1 2659 47
	mv	a4,a5
	li	a5,8765440
	addi	a5,a5,903
	and	a5,a4,a5
	sext.w	a4,a5
	.loc 1 2659 14
	li	a5,3
	bne	a4,a5,.L378
	.loc 1 2660 27
	li	a5,1
	sw	a5,-36(s0)
.L378:
	.loc 1 2663 27
	ld	a5,-136(s0)
	lw	a5,28(a5)
	.loc 1 2663 47
	mv	a4,a5
	li	a5,8765440
	addi	a5,a5,903
	and	a5,a4,a5
	sext.w	a4,a5
	.loc 1 2663 14
	li	a5,1
	bne	a4,a5,.L379
	.loc 1 2664 27
	li	a5,1
	sw	a5,-36(s0)
.L379:
	.loc 1 2667 27
	ld	a5,-136(s0)
	lw	a5,28(a5)
	.loc 1 2667 47
	mv	a4,a5
	li	a5,8388608
	and	a5,a4,a5
	sext.w	a5,a5
	.loc 1 2667 14
	beq	a5,zero,.L398
	.loc 1 2668 27
	li	a5,4
	sw	a5,-36(s0)
	.loc 1 2671 11
	j	.L398
.L373:
	.loc 1 2674 25
	li	a5,3
	sw	a5,-36(s0)
	.loc 1 2675 11
	j	.L370
.L372:
	.loc 1 2678 25
	li	a5,1
	sw	a5,-36(s0)
	.loc 1 2679 11
	j	.L370
.L369:
	.loc 1 2681 25
	li	a5,6
	sw	a5,-36(s0)
	.loc 1 2682 11
	j	.L370
.L374:
	.loc 1 2684 21
	li	a5,2
	sw	a5,-40(s0)
	.loc 1 2685 11
	j	.L370
.L371:
	.loc 1 2687 21
	li	a5,1
	sw	a5,-40(s0)
	.loc 1 2688 11
	j	.L370
.L398:
	.loc 1 2671 11
	nop
.L370:
	.loc 1 2691 10
	lw	a5,-36(s0)
	sext.w	a5,a5
	beq	a5,zero,.L381
	.loc 1 2695 65
	ld	a5,-136(s0)
	lw	a5,28(a5)
	.loc 1 2695 9
	slli	a5,a5,32
	srli	a5,a5,32
	mv	a0,a5
	call	CoreValidateResourceDescriptorHobAttributes
	.loc 1 2702 37
	ld	a5,-136(s0)
	lw	a5,28(a5)
	.loc 1 2700 24
	slli	a4,a5,32
	srli	a4,a4,32
	lw	a5,-36(s0)
	mv	a1,a4
	mv	a0,a5
	call	CoreConvertResourceDescriptorHobAttributesToCapabilities
	sd	a0,-144(s0)
	.loc 1 2705 18
	ld	a5,-136(s0)
	ld	a4,32(a5)
	ld	a5,-136(s0)
	ld	a2,40(a5)
	lw	a5,-36(s0)
	ld	a3,-144(s0)
	mv	a1,a4
	mv	a0,a5
	call	CoreInternalAddMemorySpace
	sd	a0,-96(s0)
.L381:
	.loc 1 2713 10
	lw	a5,-40(s0)
	sext.w	a5,a5
	beq	a5,zero,.L368
	.loc 1 2714 18
	ld	a5,-136(s0)
	ld	a4,32(a5)
	ld	a5,-136(s0)
	ld	a3,40(a5)
	lw	a5,-40(s0)
	mv	a2,a3
	mv	a1,a4
	mv	a0,a5
	call	CoreAddIoSpace
	sd	a0,-96(s0)
.L368:
	.loc 1 2642 129 discriminator 2
	addi	a5,s0,-152
	.loc 1 2642 118 discriminator 2
	ld	a5,0(a5)
	.loc 1 2642 168 discriminator 2
	addi	a4,s0,-152
	.loc 1 2642 140 discriminator 2
	ld	a4,0(a4)
	.loc 1 2642 175 discriminator 2
	lhu	a4,2(a4)
	.loc 1 2642 136 discriminator 2
	add	a5,a5,a4
	.loc 1 2642 107 discriminator 2
	sd	a5,-152(s0)
.L367:
	.loc 1 2642 61 discriminator 1
	addi	a5,s0,-152
	.loc 1 2642 33 discriminator 1
	ld	a5,0(a5)
	.loc 1 2642 68 discriminator 1
	lhu	a5,0(a5)
	.loc 1 2642 29 discriminator 1
	sext.w	a4,a5
	li	a5,65536
	addi	a5,a5,-1
	bne	a4,a5,.L382
	.loc 1 2726 12
	ld	a5,-256(s0)
	addi	a4,s0,-216
	mv	a1,a4
	mv	a0,a5
	call	CoreGetMemorySpaceDescriptor
	sd	a0,-96(s0)
	.loc 1 2727 7
	ld	a5,-96(s0)
	.loc 1 2727 6
	blt	a5,zero,.L383
	.loc 1 2732 14
	lw	a1,-184(s0)
	la	a5,gDxeCoreImageHandle
	ld	a5,0(a5)
	addi	a4,s0,-256
	li	a6,0
	ld	a3,-264(s0)
	li	a2,0
	li	a0,2
	call	CoreAllocateMemorySpace
	sd	a0,-96(s0)
.L383:
	.loc 1 2747 18
	ld	a5,-248(s0)
	ld	a5,0(a5)
	.loc 1 2747 16
	sd	a5,-152(s0)
	.loc 1 2747 3
	j	.L384
.L388:
	.loc 1 2748 39
	addi	a5,s0,-152
	.loc 1 2748 11
	ld	a5,0(a5)
	.loc 1 2748 46
	lhu	a5,0(a5)
	.loc 1 2748 8
	sext.w	a4,a5
	li	a5,2
	bne	a4,a5,.L385
	.loc 1 2749 17
	ld	a5,-152(s0)
	sd	a5,-120(s0)
	.loc 1 2750 47
	ld	a5,-120(s0)
	ld	a5,24(a5)
	.loc 1 2750 19
	sd	a5,-160(s0)
	.loc 1 2751 16
	ld	a5,-160(s0)
	addi	a4,s0,-216
	mv	a1,a4
	mv	a0,a5
	call	CoreGetMemorySpaceDescriptor
	sd	a0,-96(s0)
	.loc 1 2752 11
	ld	a5,-96(s0)
	.loc 1 2752 10
	blt	a5,zero,.L385
	.loc 1 2753 18
	lw	a1,-184(s0)
	ld	a5,-120(s0)
	ld	a3,32(a5)
	la	a5,gDxeCoreImageHandle
	ld	a5,0(a5)
	addi	a4,s0,-160
	li	a6,0
	li	a2,0
	li	a0,2
	call	CoreAllocateMemorySpace
	sd	a0,-96(s0)
	.loc 1 2762 13
	ld	a5,-96(s0)
	.loc 1 2762 12
	blt	a5,zero,.L385
	.loc 1 2763 25
	lw	a4,-184(s0)
	.loc 1 2762 67 discriminator 1
	li	a5,2
	beq	a4,a5,.L386
	.loc 1 2764 25
	lw	a4,-184(s0)
	.loc 1 2763 73
	li	a5,5
	bne	a4,a5,.L385
.L386:
	.loc 1 2766 11
	ld	a5,-120(s0)
	lw	s1,40(a5)
	ld	a5,-120(s0)
	ld	s2,24(a5)
	ld	a5,-120(s0)
	ld	a5,32(a5)
	li	a1,12
	mv	a0,a5
	call	RShiftU64@plt
	mv	a2,a0
	.loc 1 2770 23
	ld	a4,-200(s0)
	.loc 1 2766 11
	li	a5,-1
	srli	a5,a5,1
	and	a5,a4,a5
	mv	a3,a5
	mv	a1,s2
	mv	a0,s1
	call	CoreAddMemoryDescriptor@plt
.L385:
	.loc 1 2776 39
	addi	a5,s0,-152
	.loc 1 2776 11
	ld	a5,0(a5)
	.loc 1 2776 46
	lhu	a5,0(a5)
	.loc 1 2776 8
	sext.w	a4,a5
	li	a5,5
	bne	a4,a5,.L387
	.loc 1 2777 25
	ld	a5,-152(s0)
	sd	a5,-128(s0)
	.loc 1 2778 38
	ld	a5,-128(s0)
	ld	a5,8(a5)
	.loc 1 2778 19
	sd	a5,-160(s0)
	.loc 1 2779 16
	ld	a5,-128(s0)
	ld	a3,16(a5)
	la	a5,gDxeCoreImageHandle
	ld	a5,0(a5)
	addi	a4,s0,-160
	li	a6,0
	li	a2,0
	li	a1,3
	li	a0,2
	call	CoreAllocateMemorySpace
	sd	a0,-96(s0)
.L387:
	.loc 1 2747 129 discriminator 2
	addi	a5,s0,-152
	.loc 1 2747 118 discriminator 2
	ld	a5,0(a5)
	.loc 1 2747 168 discriminator 2
	addi	a4,s0,-152
	.loc 1 2747 140 discriminator 2
	ld	a4,0(a4)
	.loc 1 2747 175 discriminator 2
	lhu	a4,2(a4)
	.loc 1 2747 136 discriminator 2
	add	a5,a5,a4
	.loc 1 2747 107 discriminator 2
	sd	a5,-152(s0)
.L384:
	.loc 1 2747 61 discriminator 1
	addi	a5,s0,-152
	.loc 1 2747 33 discriminator 1
	ld	a5,0(a5)
	.loc 1 2747 68 discriminator 1
	lhu	a5,0(a5)
	.loc 1 2747 29 discriminator 1
	sext.w	a4,a5
	li	a5,65536
	addi	a5,a5,-1
	bne	a4,a5,.L388
	.loc 1 2794 12
	addi	a4,s0,-232
	addi	a5,s0,-224
	mv	a1,a4
	mv	a0,a5
	call	CoreGetMemorySpaceMap
	sd	a0,-96(s0)
	.loc 1 2797 25
	sd	zero,-56(s0)
	.loc 1 2798 14
	sd	zero,-48(s0)
	.loc 1 2798 3
	j	.L389
.L395:
	.loc 1 2799 24
	ld	a3,-232(s0)
	ld	a4,-48(s0)
	mv	a5,a4
	slli	a5,a5,3
	sub	a5,a5,a4
	slli	a5,a5,3
	add	a5,a3,a5
	.loc 1 2799 31
	lw	a4,32(a5)
	.loc 1 2799 8
	li	a5,2
	beq	a4,a5,.L390
	.loc 1 2800 24
	ld	a3,-232(s0)
	ld	a4,-48(s0)
	mv	a5,a4
	slli	a5,a5,3
	sub	a5,a5,a4
	slli	a5,a5,3
	add	a5,a3,a5
	.loc 1 2800 31
	lw	a4,32(a5)
	.loc 1 2799 79 discriminator 1
	li	a5,5
	bne	a4,a5,.L391
.L390:
	.loc 1 2802 25
	ld	a3,-232(s0)
	ld	a4,-48(s0)
	mv	a5,a4
	slli	a5,a5,3
	sub	a5,a5,a4
	slli	a5,a5,3
	add	a5,a3,a5
	.loc 1 2802 32
	ld	a5,40(a5)
	.loc 1 2802 10
	bne	a5,zero,.L391
	.loc 1 2803 55
	ld	a3,-232(s0)
	ld	a4,-48(s0)
	mv	a5,a4
	slli	a5,a5,3
	sub	a5,a5,a4
	slli	a5,a5,3
	add	a5,a3,a5
	.loc 1 2803 62
	ld	a5,0(a5)
	.loc 1 2803 23
	mv	a0,a5
	call	PageAlignAddress
	mv	a5,a0
	.loc 1 2803 21 discriminator 1
	sd	a5,-160(s0)
	.loc 1 2804 49
	ld	a3,-232(s0)
	ld	a4,-48(s0)
	mv	a5,a4
	slli	a5,a5,3
	sub	a5,a5,a4
	slli	a5,a5,3
	add	a5,a3,a5
	.loc 1 2804 56
	ld	a3,0(a5)
	.loc 1 2804 85
	ld	a2,-232(s0)
	ld	a4,-48(s0)
	mv	a5,a4
	slli	a5,a5,3
	sub	a5,a5,a4
	slli	a5,a5,3
	add	a5,a2,a5
	.loc 1 2804 92
	ld	a5,8(a5)
	.loc 1 2804 69
	add	a4,a3,a5
	.loc 1 2804 18
	ld	a5,-160(s0)
	.loc 1 2804 100
	sub	a5,a4,a5
	.loc 1 2804 18
	mv	a0,a5
	call	PageAlignLength
	sd	a0,-112(s0)
	.loc 1 2805 12
	ld	a5,-112(s0)
	beq	a5,zero,.L399
	.loc 1 2805 45 discriminator 2
	ld	a3,-232(s0)
	ld	a4,-48(s0)
	mv	a5,a4
	slli	a5,a5,3
	sub	a5,a5,a4
	slli	a5,a5,3
	add	a5,a3,a5
	.loc 1 2805 52 discriminator 2
	ld	a3,0(a5)
	.loc 1 2805 81 discriminator 2
	ld	a2,-232(s0)
	ld	a4,-48(s0)
	mv	a5,a4
	slli	a5,a5,3
	sub	a5,a5,a4
	slli	a5,a5,3
	add	a5,a2,a5
	.loc 1 2805 88 discriminator 2
	ld	a5,8(a5)
	.loc 1 2805 65 discriminator 2
	add	a4,a3,a5
	.loc 1 2805 96 discriminator 2
	ld	a5,-160(s0)
	.loc 1 2805 27 discriminator 2
	bltu	a4,a5,.L399
	.loc 1 2809 35
	ld	a3,-232(s0)
	ld	a4,-48(s0)
	mv	a5,a4
	slli	a5,a5,3
	sub	a5,a5,a4
	slli	a5,a5,3
	add	a5,a3,a5
	.loc 1 2809 42
	ld	a5,0(a5)
	.loc 1 2809 66
	ld	a4,-248(s0)
	ld	a4,0(a4)
	.loc 1 2809 12
	bgtu	a5,a4,.L394
	.loc 1 2810 36
	ld	a3,-232(s0)
	ld	a4,-48(s0)
	mv	a5,a4
	slli	a5,a5,3
	sub	a5,a5,a4
	slli	a5,a5,3
	add	a5,a3,a5
	.loc 1 2810 43
	ld	a3,0(a5)
	.loc 1 2810 72
	ld	a2,-232(s0)
	ld	a4,-48(s0)
	mv	a5,a4
	slli	a5,a5,3
	sub	a5,a5,a4
	slli	a5,a5,3
	add	a5,a2,a5
	.loc 1 2810 79
	ld	a5,8(a5)
	.loc 1 2810 14
	add	a4,a3,a5
	.loc 1 2810 105
	ld	a5,-64(s0)
	ld	a5,40(a5)
	.loc 1 2809 78 discriminator 1
	bltu	a4,a5,.L394
	.loc 1 2817 35
	ld	a3,-232(s0)
	.loc 1 2817 50
	ld	a4,-48(s0)
	mv	a5,a4
	slli	a5,a5,3
	sub	a5,a5,a4
	slli	a5,a5,3
	.loc 1 2817 33
	add	a5,a3,a5
	sd	a5,-56(s0)
	.loc 1 2818 11
	j	.L391
.L394:
	.loc 1 2821 9
	ld	s1,-160(s0)
	li	a1,12
	ld	a0,-112(s0)
	call	RShiftU64@plt
	mv	a2,a0
	.loc 1 2825 25
	ld	a3,-232(s0)
	ld	a4,-48(s0)
	mv	a5,a4
	slli	a5,a5,3
	sub	a5,a5,a4
	slli	a5,a5,3
	add	a5,a3,a5
	.loc 1 2825 32
	ld	a4,16(a5)
	.loc 1 2821 9
	li	a5,-1
	srli	a5,a5,1
	and	a5,a4,a5
	mv	a3,a5
	mv	a1,s1
	li	a0,7
	call	CoreAddMemoryDescriptor@plt
	.loc 1 2829 34
	ld	a3,-232(s0)
	ld	a4,-48(s0)
	mv	a5,a4
	slli	a5,a5,3
	sub	a5,a5,a4
	slli	a5,a5,3
	add	a5,a3,a5
	.loc 1 2827 18
	lw	a1,32(a5)
	la	a5,gDxeCoreImageHandle
	ld	a5,0(a5)
	addi	a4,s0,-160
	li	a6,0
	ld	a3,-112(s0)
	li	a2,0
	li	a0,2
	call	CoreAllocateMemorySpace
	sd	a0,-96(s0)
	j	.L391
.L399:
	.loc 1 2806 11
	nop
.L391:
	.loc 1 2798 53 discriminator 2
	ld	a5,-48(s0)
	addi	a5,a5,1
	sd	a5,-48(s0)
.L389:
	.loc 1 2798 25 discriminator 1
	ld	a5,-224(s0)
	ld	a4,-48(s0)
	bltu	a4,a5,.L395
	.loc 1 2848 32
	ld	a5,-64(s0)
	ld	a5,40(a5)
	.loc 1 2848 64
	ld	a4,-248(s0)
	ld	a4,0(a4)
	.loc 1 2848 54
	sub	a4,a5,a4
	.loc 1 2847 16
	ld	a5,-248(s0)
	ld	a5,0(a5)
	mv	a1,a5
	mv	a0,a4
	call	AllocateCopyPool@plt
	sd	a0,-104(s0)
	.loc 1 2853 13
	ld	a5,-248(s0)
	ld	a4,-104(s0)
	sd	a4,0(a5)
	.loc 1 2854 12
	la	a5,gHobList
	ld	a4,-104(s0)
	sd	a4,0(a5)
	.loc 1 2856 6
	ld	a5,-56(s0)
	beq	a5,zero,.L396
	.loc 1 2861 58
	ld	a5,-56(s0)
	ld	a5,0(a5)
	.loc 1 2861 19
	mv	a0,a5
	call	PageAlignAddress
	mv	a5,a0
	.loc 1 2861 17 discriminator 1
	sd	a5,-160(s0)
	.loc 1 2862 52
	ld	a5,-56(s0)
	ld	a4,0(a5)
	.loc 1 2862 89
	ld	a5,-56(s0)
	ld	a5,8(a5)
	.loc 1 2862 66
	add	a4,a4,a5
	.loc 1 2862 14
	ld	a5,-160(s0)
	.loc 1 2862 98
	sub	a5,a4,a5
	.loc 1 2862 14
	mv	a0,a5
	call	PageAlignLength
	sd	a0,-112(s0)
	.loc 1 2863 5
	ld	s1,-160(s0)
	li	a1,12
	ld	a0,-112(s0)
	call	RShiftU64@plt
	mv	a2,a0
	.loc 1 2867 28
	ld	a5,-56(s0)
	ld	a4,16(a5)
	.loc 1 2863 5
	li	a5,-1
	srli	a5,a5,1
	and	a5,a4,a5
	mv	a3,a5
	mv	a1,s1
	li	a0,7
	call	CoreAddMemoryDescriptor@plt
	.loc 1 2869 14
	ld	a5,-56(s0)
	lw	a1,32(a5)
	la	a5,gDxeCoreImageHandle
	ld	a5,0(a5)
	addi	a4,s0,-160
	li	a6,0
	ld	a3,-112(s0)
	li	a2,0
	li	a0,2
	call	CoreAllocateMemorySpace
	sd	a0,-96(s0)
.L396:
	.loc 1 2880 3
	ld	a5,-232(s0)
	mv	a0,a5
	call	CoreFreePool@plt
	.loc 1 2882 10
	li	a5,0
	.loc 1 2883 1
	mv	a0,a5
	ld	ra,264(sp)
	.cfi_restore 1
	ld	s0,256(sp)
	.cfi_restore 8
	.cfi_def_cfa 2, 272
	ld	s1,248(sp)
	.cfi_restore 9
	ld	s2,240(sp)
	.cfi_restore 18
	addi	sp,sp,272
	.cfi_def_cfa_offset 0
	jr	ra
	.cfi_endproc
.LFE41:
	.size	CoreInitializeGcdServices, .-CoreInitializeGcdServices
	.text
.Letext0:
	.file 2 "/home/kapoagaeming/spacemit-image-builder/components/edk2/MdePkg/Include/RiscV64/ProcessorBind.h"
	.file 3 "/home/kapoagaeming/spacemit-image-builder/components/edk2/MdePkg/Include/Base.h"
	.file 4 "/home/kapoagaeming/spacemit-image-builder/components/edk2/MdePkg/Include/Uefi/UefiBaseType.h"
	.file 5 "/home/kapoagaeming/spacemit-image-builder/components/edk2/MdePkg/Include/Uefi/UefiMultiPhase.h"
	.file 6 "/home/kapoagaeming/spacemit-image-builder/components/edk2/MdePkg/Include/Pi/PiBootMode.h"
	.file 7 "/home/kapoagaeming/spacemit-image-builder/components/edk2/MdePkg/Include/Pi/PiHob.h"
	.file 8 "/home/kapoagaeming/spacemit-image-builder/components/edk2/MdePkg/Include/Protocol/DebugSupport.h"
	.file 9 "/home/kapoagaeming/spacemit-image-builder/components/edk2/MdePkg/Include/Pi/PiDxeCis.h"
	.file 10 "/home/kapoagaeming/spacemit-image-builder/components/Build/Milk-V-Jupiter/RELEASE_GCC5/RISCV64/MdeModulePkg/Core/Dxe/DxeMain/DEBUG/AutoGen.h"
	.file 11 "/home/kapoagaeming/spacemit-image-builder/components/edk2/MdePkg/Include/Protocol/Cpu.h"
	.file 12 "/home/kapoagaeming/spacemit-image-builder/components/edk2/MdeModulePkg/Include/Guid/MemoryTypeInformation.h"
	.file 13 "/home/kapoagaeming/spacemit-image-builder/components/edk2/MdeModulePkg/Include/Guid/LoadModuleAtFixedAddress.h"
	.file 14 "/home/kapoagaeming/spacemit-image-builder/components/edk2/MdePkg/Include/Library/DxeCoreEntryPoint.h"
	.file 15 "/home/kapoagaeming/spacemit-image-builder/components/edk2/MdePkg/Include/Library/UefiLib.h"
	.file 16 "/home/kapoagaeming/spacemit-image-builder/components/edk2/MdeModulePkg/Core/Dxe/DxeMain.h"
	.file 17 "/home/kapoagaeming/spacemit-image-builder/components/edk2/MdeModulePkg/Core/Dxe/Gcd/Gcd.h"
	.file 18 "/home/kapoagaeming/spacemit-image-builder/components/edk2/MdeModulePkg/Core/Dxe/Mem/HeapGuard.h"
	.file 19 "/home/kapoagaeming/spacemit-image-builder/components/edk2/MdePkg/Include/Library/MemoryAllocationLib.h"
	.file 20 "/home/kapoagaeming/spacemit-image-builder/components/edk2/MdePkg/Include/Library/HobLib.h"
	.file 21 "/home/kapoagaeming/spacemit-image-builder/components/edk2/MdePkg/Include/Library/BaseMemoryLib.h"
	.file 22 "/home/kapoagaeming/spacemit-image-builder/components/edk2/MdePkg/Include/Library/BaseLib.h"
	.file 23 "/home/kapoagaeming/spacemit-image-builder/components/edk2/MdePkg/Include/Library/DebugLib.h"
	.section	.note.GNU-stack,"",@progbits
