	.file	"ResetSystemLib.c"
	.option pic
	.option norelax
	.attribute arch, "rv64i2p1_m2p0_a2p1_f2p2_d2p2_c2p0_zicsr2p0_zifencei2p0_zmmul1p0_zaamo1p0_zalrsc1p0_zca1p0_zcd1p0"
	.attribute unaligned_access, 0
	.attribute stack_align, 16
	.text
.Ltext0:
	.cfi_sections	.debug_frame
	.file 0 "/home/kapoagaeming/Downloads/spacemit-image-builder/components/Build/Milk-V-Jupiter/RELEASE_GCC5/RISCV64/Silicon/Spacemit/K1/Library/ResetSystemLib/ResetSystemLib" "/home/kapoagaeming/Downloads/spacemit-image-builder/components/edk2-platforms/Silicon/Spacemit/K1/Library/ResetSystemLib/ResetSystemLib.c"
	.section	.text.WdtWriteAccess,"ax",@progbits
	.align	1
	.type	WdtWriteAccess, @function
WdtWriteAccess:
.LFB0:
	.file 1 "/home/kapoagaeming/Downloads/spacemit-image-builder/components/edk2-platforms/Silicon/Spacemit/K1/Library/ResetSystemLib/ResetSystemLib.c"
	.loc 1 34 1
	.cfi_startproc
	addi	sp,sp,-16
	.cfi_def_cfa_offset 16
	sd	ra,8(sp)
	sd	s0,0(sp)
	.cfi_offset 1, -8
	.cfi_offset 8, -16
	addi	s0,sp,16
	.cfi_def_cfa 8, 0
	.loc 1 35 3
	li	a5,49152
	addi	a1,a5,-1350
	li	a5,27791360
	slli	a5,a5,7
	addi	a0,a5,176
	call	MmioWrite32@plt
	.loc 1 36 3
	li	a5,61440
	addi	a1,a5,-1264
	li	a5,27791360
	slli	a5,a5,7
	addi	a0,a5,180
	call	MmioWrite32@plt
	.loc 1 37 1
	nop
	ld	ra,8(sp)
	.cfi_restore 1
	ld	s0,0(sp)
	.cfi_restore 8
	.cfi_def_cfa 2, 16
	addi	sp,sp,16
	.cfi_def_cfa_offset 0
	jr	ra
	.cfi_endproc
.LFE0:
	.size	WdtWriteAccess, .-WdtWriteAccess
	.section	.text.WdtRegWrite,"ax",@progbits
	.align	1
	.type	WdtRegWrite, @function
WdtRegWrite:
.LFB1:
	.loc 1 45 1
	.cfi_startproc
	addi	sp,sp,-32
	.cfi_def_cfa_offset 32
	sd	ra,24(sp)
	sd	s0,16(sp)
	.cfi_offset 1, -8
	.cfi_offset 8, -16
	addi	s0,sp,32
	.cfi_def_cfa 8, 0
	mv	a5,a0
	sd	a1,-32(s0)
	sw	a5,-20(s0)
	.loc 1 46 3
	call	WdtWriteAccess
	.loc 1 47 3
	lw	a5,-20(s0)
	mv	a1,a5
	ld	a0,-32(s0)
	call	MmioWrite32@plt
	.loc 1 48 1
	nop
	ld	ra,24(sp)
	.cfi_restore 1
	ld	s0,16(sp)
	.cfi_restore 8
	.cfi_def_cfa 2, 32
	addi	sp,sp,32
	.cfi_def_cfa_offset 0
	jr	ra
	.cfi_endproc
.LFE1:
	.size	WdtRegWrite, .-WdtRegWrite
	.section	.text.WatchDogReset,"ax",@progbits
	.align	1
	.globl	WatchDogReset
	.type	WatchDogReset, @function
WatchDogReset:
.LFB2:
	.loc 1 54 1
	.cfi_startproc
	addi	sp,sp,-32
	.cfi_def_cfa_offset 32
	sd	ra,24(sp)
	sd	s0,16(sp)
	.cfi_offset 1, -8
	.cfi_offset 8, -16
	addi	s0,sp,32
	.cfi_def_cfa 8, 0
	.loc 1 57 3
	li	a1,4096
	li	a5,27791360
	slli	a0,a5,7
	call	MapRegToGcdMmioSpace@plt
	.loc 1 58 3
	li	a1,8192
	li	a5,222318592
	slli	a0,a5,4
	call	MapRegToGcdMmioSpace@plt
	.loc 1 61 11
	li	a5,889274368
	addi	a5,a5,1033
	slli	a0,a5,2
	call	MmioRead32@plt
	mv	a5,a0
	sw	a5,-20(s0)
	.loc 1 62 3
	lw	a5,-20(s0)
	mv	a4,a5
	li	a5,524288
	or	a5,a4,a5
	sext.w	a5,a5
	mv	a1,a5
	li	a5,889274368
	addi	a5,a5,1033
	slli	a0,a5,2
	call	MmioWrite32@plt
	.loc 1 64 11
	li	a5,222318592
	slli	a5,a5,4
	addi	a0,a5,512
	call	MmioRead32@plt
	mv	a5,a0
	sw	a5,-20(s0)
	.loc 1 65 3
	lw	a5,-20(s0)
	ori	a5,a5,3
	sext.w	a5,a5
	mv	a1,a5
	li	a5,222318592
	slli	a5,a5,4
	addi	a0,a5,512
	call	MmioWrite32@plt
	.loc 1 66 11
	li	a5,222318592
	slli	a5,a5,4
	addi	a0,a5,512
	call	MmioRead32@plt
	mv	a5,a0
	sw	a5,-20(s0)
	.loc 1 67 3
	lw	a5,-20(s0)
	andi	a5,a5,-5
	sext.w	a5,a5
	mv	a1,a5
	li	a5,222318592
	slli	a5,a5,4
	addi	a0,a5,512
	call	MmioWrite32@plt
	.loc 1 70 3
	li	a5,27791360
	slli	a5,a5,7
	addi	a1,a5,192
	li	a0,0
	call	WdtRegWrite
	.loc 1 72 3
	li	a5,27791360
	slli	a5,a5,7
	addi	a1,a5,188
	li	a0,10
	call	WdtRegWrite
	.loc 1 73 3
	li	a5,27791360
	slli	a5,a5,7
	addi	a1,a5,184
	li	a0,3
	call	WdtRegWrite
	.loc 1 74 3
	li	a5,27791360
	slli	a5,a5,7
	addi	a1,a5,200
	li	a0,1
	call	WdtRegWrite
	.loc 1 76 11
	li	a5,111161344
	addi	a5,a5,-1919
	slli	a0,a5,5
	call	MmioRead32@plt
	mv	a5,a0
	sw	a5,-20(s0)
	.loc 1 77 3
	lw	a5,-20(s0)
	ori	a5,a5,16
	sext.w	a5,a5
	mv	a1,a5
	li	a5,111161344
	addi	a5,a5,-1919
	slli	a0,a5,5
	call	MmioWrite32@plt
	.loc 1 78 1
	nop
	ld	ra,24(sp)
	.cfi_restore 1
	ld	s0,16(sp)
	.cfi_restore 8
	.cfi_def_cfa 2, 32
	addi	sp,sp,32
	.cfi_def_cfa_offset 0
	jr	ra
	.cfi_endproc
.LFE2:
	.size	WatchDogReset, .-WatchDogReset
	.section	.text.ResetCold,"ax",@progbits
	.align	1
	.globl	ResetCold
	.type	ResetCold, @function
ResetCold:
.LFB3:
	.loc 1 94 1
	.cfi_startproc
	addi	sp,sp,-16
	.cfi_def_cfa_offset 16
	sd	ra,8(sp)
	sd	s0,0(sp)
	.cfi_offset 1, -8
	.cfi_offset 8, -16
	addi	s0,sp,16
	.cfi_def_cfa 8, 0
	.loc 1 95 3
	call	WatchDogReset
	.loc 1 96 3
	call	CpuDeadLoop@plt
	.loc 1 97 1
	nop
	ld	ra,8(sp)
	.cfi_restore 1
	ld	s0,0(sp)
	.cfi_restore 8
	.cfi_def_cfa 2, 16
	addi	sp,sp,16
	.cfi_def_cfa_offset 0
	jr	ra
	.cfi_endproc
.LFE3:
	.size	ResetCold, .-ResetCold
	.section	.text.ResetWarm,"ax",@progbits
	.align	1
	.globl	ResetWarm
	.type	ResetWarm, @function
ResetWarm:
.LFB4:
	.loc 1 111 1
	.cfi_startproc
	addi	sp,sp,-16
	.cfi_def_cfa_offset 16
	sd	ra,8(sp)
	sd	s0,0(sp)
	.cfi_offset 1, -8
	.cfi_offset 8, -16
	addi	s0,sp,16
	.cfi_def_cfa 8, 0
	.loc 1 112 3
	call	WatchDogReset
	.loc 1 113 3
	call	CpuDeadLoop@plt
	.loc 1 114 1
	nop
	ld	ra,8(sp)
	.cfi_restore 1
	ld	s0,0(sp)
	.cfi_restore 8
	.cfi_def_cfa 2, 16
	addi	sp,sp,16
	.cfi_def_cfa_offset 0
	jr	ra
	.cfi_endproc
.LFE4:
	.size	ResetWarm, .-ResetWarm
	.section	.text.ResetShutdown,"ax",@progbits
	.align	1
	.globl	ResetShutdown
	.type	ResetShutdown, @function
ResetShutdown:
.LFB5:
	.loc 1 128 1
	.cfi_startproc
	addi	sp,sp,-16
	.cfi_def_cfa_offset 16
	sd	ra,8(sp)
	sd	s0,0(sp)
	.cfi_offset 1, -8
	.cfi_offset 8, -16
	addi	s0,sp,16
	.cfi_def_cfa 8, 0
	.loc 1 130 1
	nop
	ld	ra,8(sp)
	.cfi_restore 1
	ld	s0,0(sp)
	.cfi_restore 8
	.cfi_def_cfa 2, 16
	addi	sp,sp,16
	.cfi_def_cfa_offset 0
	jr	ra
	.cfi_endproc
.LFE5:
	.size	ResetShutdown, .-ResetShutdown
	.section	.text.ResetPlatformSpecific,"ax",@progbits
	.align	1
	.globl	ResetPlatformSpecific
	.type	ResetPlatformSpecific, @function
ResetPlatformSpecific:
.LFB6:
	.loc 1 149 1
	.cfi_startproc
	addi	sp,sp,-32
	.cfi_def_cfa_offset 32
	sd	ra,24(sp)
	sd	s0,16(sp)
	.cfi_offset 1, -8
	.cfi_offset 8, -16
	addi	s0,sp,32
	.cfi_def_cfa 8, 0
	sd	a0,-24(s0)
	sd	a1,-32(s0)
	.loc 1 150 3
	call	ResetCold
	.loc 1 151 1
	nop
	ld	ra,24(sp)
	.cfi_restore 1
	ld	s0,16(sp)
	.cfi_restore 8
	.cfi_def_cfa 2, 32
	addi	sp,sp,32
	.cfi_def_cfa_offset 0
	jr	ra
	.cfi_endproc
.LFE6:
	.size	ResetPlatformSpecific, .-ResetPlatformSpecific
	.section	.text.ResetSystem,"ax",@progbits
	.align	1
	.globl	ResetSystem
	.type	ResetSystem, @function
ResetSystem:
.LFB7:
	.loc 1 173 1
	.cfi_startproc
	addi	sp,sp,-48
	.cfi_def_cfa_offset 48
	sd	ra,40(sp)
	sd	s0,32(sp)
	.cfi_offset 1, -8
	.cfi_offset 8, -16
	addi	s0,sp,48
	.cfi_def_cfa 8, 0
	mv	a5,a0
	sd	a1,-32(s0)
	sd	a2,-40(s0)
	sd	a3,-48(s0)
	sw	a5,-20(s0)
	.loc 1 174 3
	lw	a5,-20(s0)
	sext.w	a4,a5
	li	a5,3
	beq	a4,a5,.L9
	lw	a5,-20(s0)
	sext.w	a4,a5
	li	a5,3
	bgtu	a4,a5,.L14
	lw	a5,-20(s0)
	sext.w	a4,a5
	li	a5,2
	beq	a4,a5,.L11
	lw	a5,-20(s0)
	sext.w	a4,a5
	li	a5,2
	bgtu	a4,a5,.L14
	lw	a5,-20(s0)
	sext.w	a5,a5
	beq	a5,zero,.L12
	lw	a5,-20(s0)
	sext.w	a4,a5
	li	a5,1
	bne	a4,a5,.L14
	.loc 1 176 7
	call	ResetWarm
	.loc 1 177 7
	j	.L8
.L12:
	.loc 1 180 7
	call	ResetCold
	.loc 1 181 7
	j	.L8
.L11:
	.loc 1 184 7
	call	ResetShutdown
	.loc 1 185 7
	j	.L8
.L9:
	.loc 1 188 7
	ld	a1,-48(s0)
	ld	a0,-40(s0)
	call	ResetPlatformSpecific
	.loc 1 189 7
	j	.L8
.L14:
	.loc 1 192 7
	nop
.L8:
	.loc 1 194 1
	ld	ra,40(sp)
	.cfi_restore 1
	ld	s0,32(sp)
	.cfi_restore 8
	.cfi_def_cfa 2, 48
	addi	sp,sp,48
	.cfi_def_cfa_offset 0
	jr	ra
	.cfi_endproc
.LFE7:
	.size	ResetSystem, .-ResetSystem
	.text
.Letext0:
	.file 2 "/home/kapoagaeming/Downloads/spacemit-image-builder/components/edk2/MdePkg/Include/RiscV64/ProcessorBind.h"
	.file 3 "/home/kapoagaeming/Downloads/spacemit-image-builder/components/edk2/MdePkg/Include/Base.h"
	.file 4 "/home/kapoagaeming/Downloads/spacemit-image-builder/components/edk2/MdePkg/Include/Uefi/UefiBaseType.h"
	.file 5 "/home/kapoagaeming/Downloads/spacemit-image-builder/components/edk2/MdePkg/Include/Uefi/UefiMultiPhase.h"
	.file 6 "/home/kapoagaeming/Downloads/spacemit-image-builder/components/edk2/MdePkg/Include/Library/IoLib.h"
	.file 7 "/home/kapoagaeming/Downloads/spacemit-image-builder/components/edk2-platforms/Silicon/Spacemit/Include/Library/MemoryManagementLib.h"
	.file 8 "/home/kapoagaeming/Downloads/spacemit-image-builder/components/edk2/MdePkg/Include/Library/BaseLib.h"
	.section	.note.GNU-stack,"",@progbits
