	.file	"AuthVariableLibNull.c"
	.option pic
	.option norelax
	.attribute arch, "rv64i2p1_m2p0_a2p1_f2p2_d2p2_c2p0_zicsr2p0_zifencei2p0_zmmul1p0_zaamo1p0_zalrsc1p0_zca1p0_zcd1p0"
	.attribute unaligned_access, 0
	.attribute stack_align, 16
	.text
.Ltext0:
	.cfi_sections	.debug_frame
	.file 0 "/home/kapoagaeming/spacemit-image-builder/components/Build/Milk-V-Jupiter/RELEASE_GCC5/RISCV64/MdeModulePkg/Library/AuthVariableLibNull/AuthVariableLibNull" "/home/kapoagaeming/spacemit-image-builder/components/edk2/MdeModulePkg/Library/AuthVariableLibNull/AuthVariableLibNull.c"
	.section	.text.AuthVariableLibInitialize,"ax",@progbits
	.align	1
	.globl	AuthVariableLibInitialize
	.type	AuthVariableLibInitialize, @function
AuthVariableLibInitialize:
.LFB0:
	.file 1 "/home/kapoagaeming/spacemit-image-builder/components/edk2/MdeModulePkg/Library/AuthVariableLibNull/AuthVariableLibNull.c"
	.loc 1 32 1
	.cfi_startproc
	addi	sp,sp,-32
	.cfi_def_cfa_offset 32
	sd	ra,24(sp)
	sd	s0,16(sp)
	.cfi_offset 1, -8
	.cfi_offset 8, -16
	addi	s0,sp,32
	.cfi_def_cfa 8, 0
	sd	a0,-24(s0)
	sd	a1,-32(s0)
	.loc 1 36 10
	li	a5,-1
	slli	a5,a5,63
	addi	a5,a5,3
	.loc 1 37 1
	mv	a0,a5
	ld	ra,24(sp)
	.cfi_restore 1
	ld	s0,16(sp)
	.cfi_restore 8
	.cfi_def_cfa 2, 32
	addi	sp,sp,32
	.cfi_def_cfa_offset 0
	jr	ra
	.cfi_endproc
.LFE0:
	.size	AuthVariableLibInitialize, .-AuthVariableLibInitialize
	.section	.text.AuthVariableLibProcessVariable,"ax",@progbits
	.align	1
	.globl	AuthVariableLibProcessVariable
	.type	AuthVariableLibProcessVariable, @function
AuthVariableLibProcessVariable:
.LFB1:
	.loc 1 68 1
	.cfi_startproc
	addi	sp,sp,-64
	.cfi_def_cfa_offset 64
	sd	ra,56(sp)
	sd	s0,48(sp)
	.cfi_offset 1, -8
	.cfi_offset 8, -16
	addi	s0,sp,64
	.cfi_def_cfa 8, 0
	sd	a0,-24(s0)
	sd	a1,-32(s0)
	sd	a2,-40(s0)
	sd	a3,-48(s0)
	mv	a5,a4
	sw	a5,-52(s0)
	.loc 1 70 10
	li	a5,-1
	slli	a5,a5,63
	addi	a5,a5,3
	.loc 1 71 1
	mv	a0,a5
	ld	ra,56(sp)
	.cfi_restore 1
	ld	s0,48(sp)
	.cfi_restore 8
	.cfi_def_cfa 2, 64
	addi	sp,sp,64
	.cfi_def_cfa_offset 0
	jr	ra
	.cfi_endproc
.LFE1:
	.size	AuthVariableLibProcessVariable, .-AuthVariableLibProcessVariable
	.text
.Letext0:
	.file 2 "/home/kapoagaeming/spacemit-image-builder/components/edk2/MdePkg/Include/RiscV64/ProcessorBind.h"
	.file 3 "/home/kapoagaeming/spacemit-image-builder/components/edk2/MdePkg/Include/Base.h"
	.file 4 "/home/kapoagaeming/spacemit-image-builder/components/edk2/MdePkg/Include/Uefi/UefiBaseType.h"
	.file 5 "/home/kapoagaeming/spacemit-image-builder/components/edk2/MdeModulePkg/Include/Protocol/VarCheck.h"
	.file 6 "/home/kapoagaeming/spacemit-image-builder/components/edk2/MdeModulePkg/Include/Library/AuthVariableLib.h"
	.section	.note.GNU-stack,"",@progbits
