	.file	"Logo.c"
	.option pic
	.option norelax
	.attribute arch, "rv64i2p1_m2p0_a2p1_f2p2_d2p2_c2p0_zicsr2p0_zifencei2p0_zmmul1p0_zaamo1p0_zalrsc1p0_zca1p0_zcd1p0"
	.attribute unaligned_access, 0
	.attribute stack_align, 16
	.text
.Ltext0:
	.cfi_sections	.debug_frame
	.file 0 "/home/kapoagaeming/spacemit-image-builder/components/Build/Milk-V-Jupiter/RELEASE_GCC5/RISCV64/Silicon/Spacemit/Drivers/LogoDxe/LogoDxe" "/home/kapoagaeming/spacemit-image-builder/components/edk2-platforms/Silicon/Spacemit/Drivers/LogoDxe/Logo.c"
	.globl	mHiiImageEx
	.section	.bss.mHiiImageEx,"aw",@nobits
	.align	3
	.type	mHiiImageEx, @object
	.size	mHiiImageEx, 8
mHiiImageEx:
	.zero	8
	.globl	mHiiHandle
	.section	.bss.mHiiHandle,"aw",@nobits
	.align	3
	.type	mHiiHandle, @object
	.size	mHiiHandle, 8
mHiiHandle:
	.zero	8
	.globl	mLogos
	.section	.data.mLogos,"aw"
	.align	3
	.type	mLogos, @object
	.size	mLogos, 24
mLogos:
	.half	1
	.zero	2
	.word	8
	.dword	0
	.dword	0
	.section	.text.GetImage,"ax",@progbits
	.align	1
	.globl	GetImage
	.type	GetImage, @function
GetImage:
.LFB0:
	.file 1 "/home/kapoagaeming/spacemit-image-builder/components/edk2-platforms/Silicon/Spacemit/Drivers/LogoDxe/Logo.c"
	.loc 1 58 1
	.cfi_startproc
	addi	sp,sp,-80
	.cfi_def_cfa_offset 80
	sd	ra,72(sp)
	sd	s0,64(sp)
	.cfi_offset 1, -8
	.cfi_offset 8, -16
	addi	s0,sp,80
	.cfi_def_cfa 8, 0
	sd	a0,-40(s0)
	sd	a1,-48(s0)
	sd	a2,-56(s0)
	sd	a3,-64(s0)
	sd	a4,-72(s0)
	sd	a5,-80(s0)
	.loc 1 60 6
	ld	a5,-48(s0)
	beq	a5,zero,.L2
	.loc 1 60 32 discriminator 1
	ld	a5,-56(s0)
	beq	a5,zero,.L2
	.loc 1 60 57 discriminator 2
	ld	a5,-64(s0)
	beq	a5,zero,.L2
	.loc 1 61 33
	ld	a5,-72(s0)
	beq	a5,zero,.L2
	.loc 1 61 60 discriminator 1
	ld	a5,-80(s0)
	bne	a5,zero,.L3
.L2:
	.loc 1 62 12
	li	a5,-1
	slli	a5,a5,63
	addi	a5,a5,2
	j	.L4
.L3:
	.loc 1 65 11
	ld	a5,-48(s0)
	lw	a5,0(a5)
	sw	a5,-20(s0)
	.loc 1 66 6
	lw	a5,-20(s0)
	sext.w	a5,a5
	beq	a5,zero,.L5
	.loc 1 67 12
	li	a5,-1
	slli	a5,a5,63
	addi	a5,a5,14
	j	.L4
.L5:
	.loc 1 70 4
	ld	a5,-48(s0)
	lw	a5,0(a5)
	.loc 1 70 14
	addiw	a5,a5,1
	sext.w	a4,a5
	ld	a5,-48(s0)
	sw	a4,0(a5)
	.loc 1 71 31
	lla	a3,mLogos
	lwu	a4,-20(s0)
	mv	a5,a4
	slli	a5,a5,1
	add	a5,a5,a4
	slli	a5,a5,3
	add	a5,a3,a5
	lw	a4,4(a5)
	.loc 1 71 14
	ld	a5,-64(s0)
	sw	a4,0(a5)
	.loc 1 72 29
	lla	a3,mLogos
	lwu	a4,-20(s0)
	mv	a5,a4
	slli	a5,a5,1
	add	a5,a5,a4
	slli	a5,a5,3
	add	a5,a3,a5
	ld	a4,8(a5)
	.loc 1 72 12
	ld	a5,-72(s0)
	sd	a4,0(a5)
	.loc 1 73 29
	lla	a3,mLogos
	lwu	a4,-20(s0)
	mv	a5,a4
	slli	a5,a5,1
	add	a5,a5,a4
	slli	a5,a5,3
	add	a5,a3,a5
	ld	a4,16(a5)
	.loc 1 73 12
	ld	a5,-80(s0)
	sd	a4,0(a5)
	.loc 1 74 21
	lla	a5,mHiiImageEx
	ld	a5,0(a5)
	ld	a6,8(a5)
	.loc 1 74 10
	lla	a5,mHiiImageEx
	ld	a0,0(a5)
	lla	a5,mHiiHandle
	ld	a1,0(a5)
	lla	a3,mLogos
	lwu	a4,-20(s0)
	mv	a5,a4
	slli	a5,a5,1
	add	a5,a5,a4
	slli	a5,a5,3
	add	a5,a3,a5
	lhu	a5,0(a5)
	ld	a3,-56(s0)
	mv	a2,a5
	jalr	a6
.LVL0:
	mv	a5,a0
.L4:
	.loc 1 75 1
	mv	a0,a5
	ld	ra,72(sp)
	.cfi_restore 1
	ld	s0,64(sp)
	.cfi_restore 8
	.cfi_def_cfa 2, 80
	addi	sp,sp,80
	.cfi_def_cfa_offset 0
	jr	ra
	.cfi_endproc
.LFE0:
	.size	GetImage, .-GetImage
	.globl	mPlatformLogo
	.section	.data.rel.local.mPlatformLogo,"aw"
	.align	3
	.type	mPlatformLogo, @object
	.size	mPlatformLogo, 8
mPlatformLogo:
	.dword	GetImage
	.section	.text.InitializeLogo,"ax",@progbits
	.align	1
	.globl	InitializeLogo
	.type	InitializeLogo, @function
InitializeLogo:
.LFB1:
	.loc 1 99 1
	.cfi_startproc
	addi	sp,sp,-64
	.cfi_def_cfa_offset 64
	sd	ra,56(sp)
	sd	s0,48(sp)
	.cfi_offset 1, -8
	.cfi_offset 8, -16
	addi	s0,sp,64
	.cfi_def_cfa 8, 0
	sd	a0,-56(s0)
	sd	a1,-64(s0)
	.loc 1 105 15
	la	a5,gBS
	ld	a5,0(a5)
	ld	a5,320(a5)
	.loc 1 105 12
	addi	a4,s0,-40
	mv	a2,a4
	li	a1,0
	la	a0,gEfiHiiDatabaseProtocolGuid
	jalr	a5
.LVL1:
	sd	a0,-24(s0)
	.loc 1 113 15
	la	a5,gBS
	ld	a5,0(a5)
	ld	a5,320(a5)
	.loc 1 113 12
	lla	a2,mHiiImageEx
	li	a1,0
	la	a0,gEfiHiiImageExProtocolGuid
	jalr	a5
.LVL2:
	sd	a0,-24(s0)
	.loc 1 124 15
	la	a5,gBS
	ld	a5,0(a5)
	ld	a6,280(a5)
	.loc 1 124 12
	addi	a2,s0,-32
	li	a5,2
	li	a4,0
	ld	a3,-56(s0)
	la	a1,gEfiHiiPackageListProtocolGuid
	ld	a0,-56(s0)
	jalr	a6
.LVL3:
	sd	a0,-24(s0)
	.loc 1 133 34
	ld	a5,-24(s0)
	.loc 1 133 6
	bge	a5,zero,.L7
	.loc 1 135 12
	ld	a5,-24(s0)
	j	.L10
.L7:
	.loc 1 141 23
	ld	a5,-40(s0)
	ld	a5,0(a5)
	.loc 1 141 12
	ld	a4,-40(s0)
	ld	a1,-32(s0)
	lla	a3,mHiiHandle
	li	a2,0
	mv	a0,a4
	jalr	a5
.LVL4:
	sd	a0,-24(s0)
	.loc 1 148 7
	ld	a5,-24(s0)
	.loc 1 148 6
	blt	a5,zero,.L9
	.loc 1 149 12
	sd	zero,-48(s0)
	.loc 1 150 17
	la	a5,gBS
	ld	a5,0(a5)
	ld	a5,328(a5)
	.loc 1 150 14
	addi	a4,s0,-48
	li	a3,0
	lla	a2,mPlatformLogo
	la	a1,gEdkiiPlatformLogoProtocolGuid
	mv	a0,a4
	jalr	a5
.LVL5:
	sd	a0,-24(s0)
.L9:
	.loc 1 157 10
	ld	a5,-24(s0)
.L10:
	.loc 1 158 1
	mv	a0,a5
	ld	ra,56(sp)
	.cfi_restore 1
	ld	s0,48(sp)
	.cfi_restore 8
	.cfi_def_cfa 2, 64
	addi	sp,sp,64
	.cfi_def_cfa_offset 0
	jr	ra
	.cfi_endproc
.LFE1:
	.size	InitializeLogo, .-InitializeLogo
	.text
.Letext0:
	.file 2 "/home/kapoagaeming/spacemit-image-builder/components/edk2/MdePkg/Include/RiscV64/ProcessorBind.h"
	.file 3 "/home/kapoagaeming/spacemit-image-builder/components/edk2/MdePkg/Include/Base.h"
	.file 4 "/home/kapoagaeming/spacemit-image-builder/components/edk2/MdePkg/Include/Uefi/UefiBaseType.h"
	.file 5 "/home/kapoagaeming/spacemit-image-builder/components/edk2/MdePkg/Include/Uefi/UefiMultiPhase.h"
	.file 6 "/home/kapoagaeming/spacemit-image-builder/components/edk2/MdePkg/Include/Protocol/DevicePath.h"
	.file 7 "/home/kapoagaeming/spacemit-image-builder/components/edk2/MdePkg/Include/Protocol/SimpleTextIn.h"
	.file 8 "/home/kapoagaeming/spacemit-image-builder/components/edk2/MdePkg/Include/Protocol/SimpleTextOut.h"
	.file 9 "/home/kapoagaeming/spacemit-image-builder/components/edk2/MdePkg/Include/Uefi/UefiSpec.h"
	.file 10 "/home/kapoagaeming/spacemit-image-builder/components/edk2/MdePkg/Include/Uefi/UefiInternalFormRepresentation.h"
	.file 11 "/home/kapoagaeming/spacemit-image-builder/components/Build/Milk-V-Jupiter/RELEASE_GCC5/RISCV64/Silicon/Spacemit/Drivers/LogoDxe/LogoDxe/DEBUG/AutoGen.h"
	.file 12 "/home/kapoagaeming/spacemit-image-builder/components/edk2/MdePkg/Include/Protocol/HiiDatabase.h"
	.file 13 "/home/kapoagaeming/spacemit-image-builder/components/edk2/MdePkg/Include/Protocol/GraphicsOutput.h"
	.file 14 "/home/kapoagaeming/spacemit-image-builder/components/edk2/MdePkg/Include/Protocol/HiiImage.h"
	.file 15 "/home/kapoagaeming/spacemit-image-builder/components/edk2/MdePkg/Include/Protocol/HiiImageEx.h"
	.file 16 "/home/kapoagaeming/spacemit-image-builder/components/edk2/MdeModulePkg/Include/Protocol/PlatformLogo.h"
	.file 17 "/home/kapoagaeming/spacemit-image-builder/components/edk2/MdePkg/Include/Library/UefiBootServicesTableLib.h"
	.section	.note.GNU-stack,"",@progbits
