	.file	"SmbiosMiscEntryPoint.c"
	.option pic
	.option norelax
	.attribute arch, "rv64i2p1_m2p0_a2p1_f2p2_d2p2_c2p0_zicsr2p0_zifencei2p0_zmmul1p0_zaamo1p0_zalrsc1p0_zca1p0_zcd1p0"
	.attribute unaligned_access, 0
	.attribute stack_align, 16
	.text
.Ltext0:
	.cfi_sections	.debug_frame
	.file 0 "/home/kapoagaeming/Downloads/spacemit-image-builder/components/Build/Milk-V-Jupiter/RELEASE_GCC5/RISCV64/Silicon/Spacemit/Drivers/SmbiosMiscDxe/SmbiosMiscDxe" "/home/kapoagaeming/Downloads/spacemit-image-builder/components/edk2-platforms/Silicon/Spacemit/Drivers/SmbiosMiscDxe/SmbiosMiscEntryPoint.c"
	.section	.bss.mSmbiosMiscImageHandle,"aw",@nobits
	.align	3
	.type	mSmbiosMiscImageHandle, @object
	.size	mSmbiosMiscImageHandle, 8
mSmbiosMiscImageHandle:
	.zero	8
	.section	.bss.mSmbiosMiscSmbios,"aw",@nobits
	.align	3
	.type	mSmbiosMiscSmbios, @object
	.size	mSmbiosMiscSmbios, 8
mSmbiosMiscSmbios:
	.zero	8
	.globl	mSmbiosMiscHiiHandle
	.section	.bss.mSmbiosMiscHiiHandle,"aw",@nobits
	.align	3
	.type	mSmbiosMiscHiiHandle, @object
	.size	mSmbiosMiscHiiHandle, 8
mSmbiosMiscHiiHandle:
	.zero	8
	.section	.text.SmbiosMiscEntryPoint,"ax",@progbits
	.align	1
	.globl	SmbiosMiscEntryPoint
	.type	SmbiosMiscEntryPoint, @function
SmbiosMiscEntryPoint:
.LFB0:
	.file 1 "/home/kapoagaeming/Downloads/spacemit-image-builder/components/edk2-platforms/Silicon/Spacemit/Drivers/SmbiosMiscDxe/SmbiosMiscEntryPoint.c"
	.loc 1 46 1
	.cfi_startproc
	addi	sp,sp,-48
	.cfi_def_cfa_offset 48
	sd	ra,40(sp)
	sd	s0,32(sp)
	.cfi_offset 1, -8
	.cfi_offset 8, -16
	addi	s0,sp,48
	.cfi_def_cfa 8, 0
	sd	a0,-40(s0)
	sd	a1,-48(s0)
	.loc 1 50 26
	lla	a5,mSmbiosMiscImageHandle
	ld	a4,-40(s0)
	sd	a4,0(a5)
	.loc 1 52 18
	la	a5,gBS
	ld	a5,0(a5)
	ld	a5,320(a5)
	.loc 1 52 15
	lla	a2,mSmbiosMiscSmbios
	li	a1,0
	la	a0,gEfiSmbiosProtocolGuid
	jalr	a5
.LVL0:
	sd	a0,-32(s0)
	.loc 1 57 37
	ld	a5,-32(s0)
	.loc 1 57 6
	bge	a5,zero,.L2
	.loc 1 59 12
	ld	a5,-32(s0)
	j	.L3
.L2:
	.loc 1 62 26
	lla	a5,mSmbiosMiscImageHandle
	ld	a5,0(a5)
	li	a3,0
	la	a2,SmbiosMiscDxeStrings
	mv	a1,a5
	la	a0,gEfiCallerIdGuid
	call	HiiAddPackages@plt
	mv	a4,a0
	.loc 1 62 24 discriminator 1
	lla	a5,mSmbiosMiscHiiHandle
	sd	a4,0(a5)
	.loc 1 68 28
	lla	a5,mSmbiosMiscHiiHandle
	ld	a5,0(a5)
	.loc 1 68 6
	bne	a5,zero,.L4
	.loc 1 69 12
	li	a5,-1
	slli	a5,a5,63
	addi	a5,a5,9
	j	.L3
.L4:
	.loc 1 72 14
	sd	zero,-24(s0)
	.loc 1 72 3
	j	.L5
.L7:
	.loc 1 76 36
	la	a4,mSmbiosMiscDataTable
	ld	a5,-24(s0)
	slli	a5,a5,4
	add	a5,a4,a5
	ld	a5,8(a5)
	.loc 1 76 8
	beq	a5,zero,.L6
	.loc 1 77 20
	la	a4,mSmbiosMiscDataTable
	ld	a5,-24(s0)
	slli	a5,a5,4
	add	a5,a4,a5
	ld	a5,8(a5)
	la	a3,mSmbiosMiscDataTable
	ld	a4,-24(s0)
	slli	a4,a4,4
	add	a4,a3,a4
	ld	a3,0(a4)
	lla	a4,mSmbiosMiscSmbios
	ld	a4,0(a4)
	mv	a1,a4
	mv	a0,a3
	jalr	a5
.LVL1:
	sd	a0,-32(s0)
.L6:
	.loc 1 72 56 discriminator 2
	ld	a5,-24(s0)
	addi	a5,a5,1
	sd	a5,-24(s0)
.L5:
	.loc 1 72 25 discriminator 1
	la	a5,mSmbiosMiscDataTableEntries
	ld	a5,0(a5)
	ld	a4,-24(s0)
	bltu	a4,a5,.L7
	.loc 1 94 10
	li	a5,0
.L3:
	.loc 1 95 1
	mv	a0,a5
	ld	ra,40(sp)
	.cfi_restore 1
	ld	s0,32(sp)
	.cfi_restore 8
	.cfi_def_cfa 2, 48
	addi	sp,sp,48
	.cfi_def_cfa_offset 0
	jr	ra
	.cfi_endproc
.LFE0:
	.size	SmbiosMiscEntryPoint, .-SmbiosMiscEntryPoint
	.section	.text.SmbiosMiscAddRecord,"ax",@progbits
	.align	1
	.globl	SmbiosMiscAddRecord
	.type	SmbiosMiscAddRecord, @function
SmbiosMiscAddRecord:
.LFB1:
	.loc 1 119 1
	.cfi_startproc
	addi	sp,sp,-48
	.cfi_def_cfa_offset 48
	sd	ra,40(sp)
	sd	s0,32(sp)
	.cfi_offset 1, -8
	.cfi_offset 8, -16
	addi	s0,sp,48
	.cfi_def_cfa 8, 0
	sd	a0,-40(s0)
	sd	a1,-48(s0)
	.loc 1 123 10
	li	a5,-2
	sh	a5,-26(s0)
	.loc 1 125 6
	ld	a5,-48(s0)
	beq	a5,zero,.L9
	.loc 1 126 14
	ld	a5,-48(s0)
	lhu	a5,0(a5)
	.loc 1 126 12
	sh	a5,-26(s0)
.L9:
	.loc 1 129 29
	lla	a5,mSmbiosMiscSmbios
	ld	a5,0(a5)
	ld	a5,0(a5)
	.loc 1 129 12
	lla	a4,mSmbiosMiscSmbios
	ld	a4,0(a4)
	addi	a2,s0,-26
	ld	a3,-40(s0)
	li	a1,0
	mv	a0,a4
	jalr	a5
.LVL2:
	sd	a0,-24(s0)
	.loc 1 136 6
	ld	a5,-48(s0)
	beq	a5,zero,.L10
	.loc 1 137 19
	lhu	a4,-26(s0)
	ld	a5,-48(s0)
	sh	a4,0(a5)
.L10:
	.loc 1 140 10
	ld	a5,-24(s0)
	.loc 1 141 1
	mv	a0,a5
	ld	ra,40(sp)
	.cfi_restore 1
	ld	s0,32(sp)
	.cfi_restore 8
	.cfi_def_cfa 2, 48
	addi	sp,sp,48
	.cfi_def_cfa_offset 0
	jr	ra
	.cfi_endproc
.LFE1:
	.size	SmbiosMiscAddRecord, .-SmbiosMiscAddRecord
	.section	.text.GetHandleCount,"ax",@progbits
	.align	1
	.type	GetHandleCount, @function
GetHandleCount:
.LFB2:
	.loc 1 155 1
	.cfi_startproc
	addi	sp,sp,-64
	.cfi_def_cfa_offset 64
	sd	ra,56(sp)
	sd	s0,48(sp)
	.cfi_offset 1, -8
	.cfi_offset 8, -16
	addi	s0,sp,64
	.cfi_def_cfa 8, 0
	mv	a5,a0
	sb	a5,-49(s0)
	.loc 1 161 15
	sd	zero,-24(s0)
.L14:
	.loc 1 165 31
	lla	a5,mSmbiosMiscSmbios
	ld	a5,0(a5)
	ld	a5,24(a5)
	.loc 1 165 14
	lla	a4,mSmbiosMiscSmbios
	ld	a0,0(a4)
	addi	a3,s0,-48
	addi	a2,s0,-49
	addi	a1,s0,-34
	li	a4,0
	jalr	a5
.LVL3:
	sd	a0,-32(s0)
	.loc 1 173 8
	ld	a5,-32(s0)
	bne	a5,zero,.L13
	.loc 1 174 18
	ld	a5,-24(s0)
	addi	a5,a5,1
	sd	a5,-24(s0)
.L13:
	.loc 1 176 12
	ld	a5,-32(s0)
	bge	a5,zero,.L14
	.loc 1 178 10
	ld	a5,-24(s0)
	.loc 1 179 1
	mv	a0,a5
	ld	ra,56(sp)
	.cfi_restore 1
	ld	s0,48(sp)
	.cfi_restore 8
	.cfi_def_cfa 2, 64
	addi	sp,sp,64
	.cfi_def_cfa_offset 0
	jr	ra
	.cfi_endproc
.LFE2:
	.size	GetHandleCount, .-GetHandleCount
	.section	.text.SmbiosMiscGetLinkTypeHandle,"ax",@progbits
	.align	1
	.globl	SmbiosMiscGetLinkTypeHandle
	.type	SmbiosMiscGetLinkTypeHandle, @function
SmbiosMiscGetLinkTypeHandle:
.LFB3:
	.loc 1 194 1
	.cfi_startproc
	addi	sp,sp,-80
	.cfi_def_cfa_offset 80
	sd	ra,72(sp)
	sd	s0,64(sp)
	.cfi_offset 1, -8
	.cfi_offset 8, -16
	addi	s0,sp,80
	.cfi_def_cfa 8, 0
	mv	a5,a0
	sd	a1,-64(s0)
	sd	a2,-72(s0)
	sb	a5,-49(s0)
	.loc 1 200 25
	lla	a5,mSmbiosMiscSmbios
	ld	a5,0(a5)
	.loc 1 200 6
	beq	a5,zero,.L26
	.loc 1 204 16
	li	a5,-2
	sh	a5,-34(s0)
	.loc 1 205 18
	lbu	a5,-49(s0)
	mv	a0,a5
	call	GetHandleCount
	mv	a4,a0
	.loc 1 205 16 discriminator 1
	ld	a5,-72(s0)
	sd	a4,0(a5)
	.loc 1 207 62
	ld	a5,-72(s0)
	ld	a5,0(a5)
	.loc 1 207 59
	slli	a5,a5,1
	.loc 1 207 18
	mv	a0,a5
	call	AllocateZeroPool@plt
	mv	a4,a0
	.loc 1 207 16 discriminator 1
	ld	a5,-64(s0)
	sd	a4,0(a5)
	.loc 1 208 7
	ld	a5,-64(s0)
	ld	a5,0(a5)
	.loc 1 208 6
	bne	a5,zero,.L19
	.loc 1 210 18
	ld	a5,-72(s0)
	sd	zero,0(a5)
	.loc 1 211 5
	j	.L16
.L19:
	.loc 1 214 16
	li	a5,-2
	sh	a5,-34(s0)
	.loc 1 216 14
	sd	zero,-24(s0)
	.loc 1 216 3
	j	.L20
.L24:
	.loc 1 217 31
	lla	a5,mSmbiosMiscSmbios
	ld	a5,0(a5)
	ld	a5,24(a5)
	.loc 1 217 14
	lla	a4,mSmbiosMiscSmbios
	ld	a0,0(a4)
	addi	a3,s0,-48
	addi	a2,s0,-49
	addi	a1,s0,-34
	li	a4,0
	jalr	a5
.LVL4:
	sd	a0,-32(s0)
	.loc 1 225 9
	ld	a5,-32(s0)
	.loc 1 225 8
	blt	a5,zero,.L27
	.loc 1 226 37
	ld	a5,-48(s0)
	.loc 1 226 8
	ld	a4,-64(s0)
	ld	a3,0(a4)
	.loc 1 226 21
	ld	a4,-24(s0)
	slli	a4,a4,1
	add	a4,a3,a4
	.loc 1 226 37
	lbu	a3,2(a5)
	lbu	a5,3(a5)
	slli	a5,a5,8
	or	a5,a5,a3
	slli	a5,a5,48
	srli	a5,a5,48
	.loc 1 226 29
	sh	a5,0(a4)
	.loc 1 216 48 discriminator 2
	ld	a5,-24(s0)
	addi	a5,a5,1
	sd	a5,-24(s0)
.L20:
	.loc 1 216 28 discriminator 1
	ld	a5,-72(s0)
	ld	a5,0(a5)
	.loc 1 216 25 discriminator 1
	ld	a4,-24(s0)
	bltu	a4,a5,.L24
	j	.L16
.L26:
	.loc 1 201 5
	nop
	j	.L16
.L27:
	.loc 1 228 7
	nop
.L16:
	.loc 1 231 1
	ld	ra,72(sp)
	.cfi_restore 1
	ld	s0,64(sp)
	.cfi_restore 8
	.cfi_def_cfa 2, 80
	addi	sp,sp,80
	.cfi_def_cfa_offset 0
	jr	ra
	.cfi_endproc
.LFE3:
	.size	SmbiosMiscGetLinkTypeHandle, .-SmbiosMiscGetLinkTypeHandle
	.text
.Letext0:
	.file 2 "/home/kapoagaeming/Downloads/spacemit-image-builder/components/edk2/MdePkg/Include/RiscV64/ProcessorBind.h"
	.file 3 "/home/kapoagaeming/Downloads/spacemit-image-builder/components/edk2/MdePkg/Include/Base.h"
	.file 4 "/home/kapoagaeming/Downloads/spacemit-image-builder/components/edk2/MdePkg/Include/Uefi/UefiBaseType.h"
	.file 5 "/home/kapoagaeming/Downloads/spacemit-image-builder/components/edk2/MdePkg/Include/Uefi/UefiMultiPhase.h"
	.file 6 "/home/kapoagaeming/Downloads/spacemit-image-builder/components/edk2/MdePkg/Include/Protocol/DevicePath.h"
	.file 7 "/home/kapoagaeming/Downloads/spacemit-image-builder/components/edk2/MdePkg/Include/Protocol/SimpleTextIn.h"
	.file 8 "/home/kapoagaeming/Downloads/spacemit-image-builder/components/edk2/MdePkg/Include/Protocol/SimpleTextOut.h"
	.file 9 "/home/kapoagaeming/Downloads/spacemit-image-builder/components/edk2/MdePkg/Include/Uefi/UefiSpec.h"
	.file 10 "/home/kapoagaeming/Downloads/spacemit-image-builder/components/edk2/MdePkg/Include/Uefi/UefiInternalFormRepresentation.h"
	.file 11 "/home/kapoagaeming/Downloads/spacemit-image-builder/components/Build/Milk-V-Jupiter/RELEASE_GCC5/RISCV64/Silicon/Spacemit/Drivers/SmbiosMiscDxe/SmbiosMiscDxe/DEBUG/AutoGen.h"
	.file 12 "/home/kapoagaeming/Downloads/spacemit-image-builder/components/Build/Milk-V-Jupiter/RELEASE_GCC5/RISCV64/Silicon/Spacemit/Drivers/SmbiosMiscDxe/SmbiosMiscDxe/DEBUG/SmbiosMiscDxeStrDefs.h"
	.file 13 "/home/kapoagaeming/Downloads/spacemit-image-builder/components/edk2/MdePkg/Include/IndustryStandard/SmBios.h"
	.file 14 "/home/kapoagaeming/Downloads/spacemit-image-builder/components/edk2/MdePkg/Include/Protocol/Smbios.h"
	.file 15 "/home/kapoagaeming/Downloads/spacemit-image-builder/components/edk2-platforms/Silicon/Spacemit/Drivers/SmbiosMiscDxe/SmbiosMisc.h"
	.file 16 "/home/kapoagaeming/Downloads/spacemit-image-builder/components/edk2/MdePkg/Include/Library/MemoryAllocationLib.h"
	.file 17 "/home/kapoagaeming/Downloads/spacemit-image-builder/components/edk2/MdeModulePkg/Include/Library/HiiLib.h"
	.file 18 "/home/kapoagaeming/Downloads/spacemit-image-builder/components/edk2/MdePkg/Include/Library/UefiBootServicesTableLib.h"
	.section	.note.GNU-stack,"",@progbits
