	.file	"PciHostBridge.c"
	.option pic
	.option norelax
	.attribute arch, "rv64i2p1_m2p0_a2p1_f2p2_d2p2_c2p0_zicsr2p0_zifencei2p0_zmmul1p0_zaamo1p0_zalrsc1p0_zca1p0_zcd1p0"
	.attribute unaligned_access, 0
	.attribute stack_align, 16
	.text
.Ltext0:
	.cfi_sections	.debug_frame
	.file 0 "/home/kapoagaeming/Downloads/spacemit-image-builder/components/Build/Milk-V-Jupiter/RELEASE_GCC5/RISCV64/Silicon/Spacemit/Override/MdeModulePkg/Bus/Pci/PciHostBridgeDxe/PciHostBridgeDxe" "/home/kapoagaeming/Downloads/spacemit-image-builder/components/edk2-platforms/Silicon/Spacemit/Override/MdeModulePkg/Bus/Pci/PciHostBridgeDxe/PciHostBridge.c"
	.globl	mCpuIo
	.section	.bss.mCpuIo,"aw",@nobits
	.align	3
	.type	mCpuIo, @object
	.size	mCpuIo, 8
mCpuIo:
	.zero	8
	.globl	mAcpiAddressSpaceTypeStr
	.section	.rodata
	.align	3
.LC0:
	.string	"M"
	.string	"e"
	.string	"m"
	.zero	2
	.align	3
.LC1:
	.string	"I"
	.string	"/"
	.string	"O"
	.zero	2
	.align	3
.LC2:
	.string	"B"
	.string	"u"
	.string	"s"
	.zero	2
	.section	.data.rel.local.mAcpiAddressSpaceTypeStr,"aw"
	.align	3
	.type	mAcpiAddressSpaceTypeStr, @object
	.size	mAcpiAddressSpaceTypeStr, 24
mAcpiAddressSpaceTypeStr:
	.dword	.LC0
	.dword	.LC1
	.dword	.LC2
	.globl	mPciResourceTypeStr
	.section	.rodata
	.align	3
.LC3:
	.string	"P"
	.string	"M"
	.string	"e"
	.string	"m"
	.zero	2
	.align	3
.LC4:
	.string	"M"
	.string	"e"
	.string	"m"
	.string	"6"
	.string	"4"
	.zero	2
	.align	3
.LC5:
	.string	"P"
	.string	"M"
	.string	"e"
	.string	"m"
	.string	"6"
	.string	"4"
	.zero	2
	.section	.data.rel.local.mPciResourceTypeStr,"aw"
	.align	3
	.type	mPciResourceTypeStr, @object
	.size	mPciResourceTypeStr, 48
mPciResourceTypeStr:
	.dword	.LC1
	.dword	.LC0
	.dword	.LC3
	.dword	.LC4
	.dword	.LC5
	.dword	.LC2
	.globl	mIoMmu
	.section	.bss.mIoMmu,"aw",@nobits
	.align	3
	.type	mIoMmu, @object
	.size	mIoMmu, 8
mIoMmu:
	.zero	8
	.globl	mIoMmuEvent
	.section	.bss.mIoMmuEvent,"aw",@nobits
	.align	3
	.type	mIoMmuEvent, @object
	.size	mIoMmuEvent, 8
mIoMmuEvent:
	.zero	8
	.globl	mIoMmuRegistration
	.section	.bss.mIoMmuRegistration,"aw",@nobits
	.align	3
	.type	mIoMmuRegistration, @object
	.size	mIoMmuRegistration, 8
mIoMmuRegistration:
	.zero	8
	.globl	mCpu
	.section	.bss.mCpu,"aw",@nobits
	.align	3
	.type	mCpu, @object
	.size	mCpu, 8
mCpu:
	.zero	8
	.section	.text.GetTranslationByResourceType,"ax",@progbits
	.align	1
	.globl	GetTranslationByResourceType
	.type	GetTranslationByResourceType, @function
GetTranslationByResourceType:
.LFB0:
	.file 1 "/home/kapoagaeming/Downloads/spacemit-image-builder/components/edk2-platforms/Silicon/Spacemit/Override/MdeModulePkg/Bus/Pci/PciHostBridgeDxe/PciHostBridge.c"
	.loc 1 41 1
	.cfi_startproc
	addi	sp,sp,-32
	.cfi_def_cfa_offset 32
	sd	ra,24(sp)
	sd	s0,16(sp)
	.cfi_offset 1, -8
	.cfi_offset 8, -16
	addi	s0,sp,32
	.cfi_def_cfa 8, 0
	sd	a0,-24(s0)
	mv	a5,a1
	sw	a5,-28(s0)
	.loc 1 42 3
	lw	a5,-28(s0)
	sext.w	a4,a5
	li	a5,5
	beq	a4,a5,.L2
	lw	a5,-28(s0)
	sext.w	a4,a5
	li	a5,5
	bgtu	a4,a5,.L3
	lw	a5,-28(s0)
	sext.w	a4,a5
	li	a5,4
	beq	a4,a5,.L4
	lw	a5,-28(s0)
	sext.w	a4,a5
	li	a5,4
	bgtu	a4,a5,.L3
	lw	a5,-28(s0)
	sext.w	a4,a5
	li	a5,3
	beq	a4,a5,.L5
	lw	a5,-28(s0)
	sext.w	a4,a5
	li	a5,3
	bgtu	a4,a5,.L3
	lw	a5,-28(s0)
	sext.w	a4,a5
	li	a5,2
	beq	a4,a5,.L6
	lw	a5,-28(s0)
	sext.w	a4,a5
	li	a5,2
	bgtu	a4,a5,.L3
	lw	a5,-28(s0)
	sext.w	a5,a5
	beq	a5,zero,.L7
	lw	a5,-28(s0)
	sext.w	a4,a5
	li	a5,1
	beq	a4,a5,.L8
	j	.L3
.L7:
	.loc 1 44 28
	ld	a5,-24(s0)
	ld	a5,336(a5)
	j	.L9
.L8:
	.loc 1 46 29
	ld	a5,-24(s0)
	ld	a5,360(a5)
	j	.L9
.L6:
	.loc 1 48 30
	ld	a5,-24(s0)
	ld	a5,384(a5)
	j	.L9
.L5:
	.loc 1 50 36
	ld	a5,-24(s0)
	ld	a5,408(a5)
	j	.L9
.L4:
	.loc 1 52 37
	ld	a5,-24(s0)
	ld	a5,432(a5)
	j	.L9
.L2:
	.loc 1 54 29
	ld	a5,-24(s0)
	ld	a5,312(a5)
	j	.L9
.L3:
	.loc 1 57 14
	li	a5,0
.L9:
	.loc 1 59 1
	mv	a0,a5
	ld	ra,24(sp)
	.cfi_restore 1
	ld	s0,16(sp)
	.cfi_restore 8
	.cfi_def_cfa 2, 32
	addi	sp,sp,32
	.cfi_def_cfa_offset 0
	jr	ra
	.cfi_endproc
.LFE0:
	.size	GetTranslationByResourceType, .-GetTranslationByResourceType
	.section	.text.IntersectIoDescriptor,"ax",@progbits
	.align	1
	.globl	IntersectIoDescriptor
	.type	IntersectIoDescriptor, @function
IntersectIoDescriptor:
.LFB1:
	.loc 1 100 1
	.cfi_startproc
	addi	sp,sp,-80
	.cfi_def_cfa_offset 80
	sd	ra,72(sp)
	sd	s0,64(sp)
	.cfi_offset 1, -8
	.cfi_offset 8, -16
	addi	s0,sp,80
	.cfi_def_cfa 8, 0
	sd	a0,-56(s0)
	sd	a1,-64(s0)
	sd	a2,-72(s0)
	.loc 1 105 17
	ld	a5,-72(s0)
	lw	a4,16(a5)
	.loc 1 105 6
	li	a5,2
	bne	a4,a5,.L11
	.loc 1 106 12
	li	a5,0
	j	.L12
.L11:
	.loc 1 109 44
	ld	a5,-72(s0)
	ld	a4,0(a5)
	.loc 1 109 20
	ld	a5,-56(s0)
	bgeu	a5,a4,.L13
	mv	a5,a4
.L13:
	sd	a5,-40(s0)
	.loc 1 110 52
	ld	a5,-72(s0)
	ld	a4,0(a5)
	.loc 1 110 78
	ld	a5,-72(s0)
	ld	a5,8(a5)
	.loc 1 110 66
	add	a3,a4,a5
	.loc 1 110 29
	ld	a4,-56(s0)
	ld	a5,-64(s0)
	add	a4,a4,a5
	.loc 1 110 19
	mv	a5,a3
	bleu	a5,a4,.L14
	mv	a5,a4
.L14:
	sd	a5,-32(s0)
	.loc 1 114 6
	ld	a4,-40(s0)
	ld	a5,-32(s0)
	bltu	a4,a5,.L15
	.loc 1 118 12
	li	a5,0
	j	.L12
.L15:
	.loc 1 121 17
	ld	a5,-72(s0)
	lw	a5,16(a5)
	.loc 1 121 6
	bne	a5,zero,.L16
	.loc 1 122 17
	la	a5,gDS
	ld	a5,0(a5)
	ld	a5,80(a5)
	.loc 1 122 14
	ld	a3,-32(s0)
	ld	a4,-40(s0)
	sub	a4,a3,a4
	mv	a2,a4
	ld	a1,-40(s0)
	li	a0,2
	jalr	a5
.LVL0:
	sd	a0,-24(s0)
	.loc 1 137 12
	ld	a5,-24(s0)
	j	.L12
.L16:
	.loc 1 152 10
	li	a5,-1
	slli	a5,a5,63
	addi	a5,a5,2
.L12:
	.loc 1 153 1
	mv	a0,a5
	ld	ra,72(sp)
	.cfi_restore 1
	ld	s0,64(sp)
	.cfi_restore 8
	.cfi_def_cfa 2, 80
	addi	sp,sp,80
	.cfi_def_cfa_offset 0
	jr	ra
	.cfi_endproc
.LFE1:
	.size	IntersectIoDescriptor, .-IntersectIoDescriptor
	.section	.text.AddIoSpace,"ax",@progbits
	.align	1
	.globl	AddIoSpace
	.type	AddIoSpace, @function
AddIoSpace:
.LFB2:
	.loc 1 170 1
	.cfi_startproc
	addi	sp,sp,-128
	.cfi_def_cfa_offset 128
	sd	ra,120(sp)
	sd	s0,112(sp)
	.cfi_offset 1, -8
	.cfi_offset 8, -16
	addi	s0,sp,128
	.cfi_def_cfa 8, 0
	sd	a0,-120(s0)
	sd	a1,-128(s0)
	.loc 1 176 15
	la	a5,gDS
	ld	a5,0(a5)
	ld	a5,120(a5)
	.loc 1 176 12
	addi	a3,s0,-64
	addi	a4,s0,-56
	mv	a1,a3
	mv	a0,a4
	jalr	a5
.LVL1:
	sd	a0,-24(s0)
	.loc 1 177 34
	ld	a5,-24(s0)
	.loc 1 177 6
	bge	a5,zero,.L18
	.loc 1 185 12
	ld	a5,-24(s0)
	j	.L26
.L18:
	.loc 1 188 14
	sd	zero,-32(s0)
	.loc 1 188 3
	j	.L20
.L23:
	.loc 1 189 14
	ld	a3,-64(s0)
	.loc 1 189 62
	ld	a4,-32(s0)
	mv	a5,a4
	slli	a5,a5,2
	add	a5,a5,a4
	slli	a5,a5,3
	.loc 1 189 51
	add	a5,a3,a5
	.loc 1 189 14
	mv	a2,a5
	ld	a1,-128(s0)
	ld	a0,-120(s0)
	call	IntersectIoDescriptor
	sd	a0,-24(s0)
	.loc 1 190 36
	ld	a5,-24(s0)
	.loc 1 190 8
	blt	a5,zero,.L27
	.loc 1 188 53 discriminator 2
	ld	a5,-32(s0)
	addi	a5,a5,1
	sd	a5,-32(s0)
.L20:
	.loc 1 188 25 discriminator 1
	ld	a5,-56(s0)
	ld	a4,-32(s0)
	bltu	a4,a5,.L23
	.loc 1 195 12
	call	DebugCodeEnabled@plt
	mv	a5,a0
	.loc 1 195 11 discriminator 1
	beq	a5,zero,.L28
.LBB2:
	.loc 1 205 18
	ld	a5,-120(s0)
	sd	a5,-40(s0)
	.loc 1 205 3
	j	.L24
.L25:
	.loc 1 209 22
	la	a5,gDS
	ld	a5,0(a5)
	ld	a5,112(a5)
	.loc 1 209 19
	addi	a4,s0,-104
	mv	a1,a4
	ld	a0,-40(s0)
	jalr	a5
.LVL2:
	sd	a0,-48(s0)
	.loc 1 207 30
	ld	a4,-104(s0)
	.loc 1 207 55
	ld	a5,-96(s0)
	.loc 1 207 18
	add	a5,a4,a5
	sd	a5,-40(s0)
.L24:
	.loc 1 206 25
	ld	a4,-120(s0)
	ld	a5,-128(s0)
	add	a5,a4,a5
	.loc 1 206 18
	ld	a4,-40(s0)
	bltu	a4,a5,.L25
	j	.L22
.L27:
.LBE2:
	.loc 1 191 7
	nop
	j	.L22
.L28:
	.loc 1 216 1
	nop
.L22:
	.loc 1 217 3
	ld	a5,-64(s0)
	mv	a0,a5
	call	FreePool@plt
	.loc 1 219 10
	ld	a5,-24(s0)
.L26:
	.loc 1 220 1
	mv	a0,a5
	ld	ra,120(sp)
	.cfi_restore 1
	ld	s0,112(sp)
	.cfi_restore 8
	.cfi_def_cfa 2, 128
	addi	sp,sp,128
	.cfi_def_cfa_offset 0
	jr	ra
	.cfi_endproc
.LFE2:
	.size	AddIoSpace, .-AddIoSpace
	.section	.text.IntersectMemoryDescriptor,"ax",@progbits
	.align	1
	.globl	IntersectMemoryDescriptor
	.type	IntersectMemoryDescriptor, @function
IntersectMemoryDescriptor:
.LFB3:
	.loc 1 268 1
	.cfi_startproc
	addi	sp,sp,-80
	.cfi_def_cfa_offset 80
	sd	ra,72(sp)
	sd	s0,64(sp)
	.cfi_offset 1, -8
	.cfi_offset 8, -16
	addi	s0,sp,80
	.cfi_def_cfa 8, 0
	sd	a0,-56(s0)
	sd	a1,-64(s0)
	sd	a2,-72(s0)
	sd	a3,-80(s0)
	.loc 1 273 18
	ld	a5,-80(s0)
	lw	a4,32(a5)
	.loc 1 273 6
	li	a5,3
	bne	a4,a5,.L30
	.loc 1 274 19
	ld	a5,-80(s0)
	ld	a4,16(a5)
	.loc 1 274 34
	ld	a5,-72(s0)
	and	a5,a4,a5
	.loc 1 273 69 discriminator 1
	ld	a4,-72(s0)
	bne	a4,a5,.L30
	.loc 1 276 12
	li	a5,0
	j	.L31
.L30:
	.loc 1 279 44
	ld	a5,-80(s0)
	ld	a4,0(a5)
	.loc 1 279 20
	ld	a5,-56(s0)
	bgeu	a5,a4,.L32
	mv	a5,a4
.L32:
	sd	a5,-40(s0)
	.loc 1 280 52
	ld	a5,-80(s0)
	ld	a4,0(a5)
	.loc 1 280 78
	ld	a5,-80(s0)
	ld	a5,8(a5)
	.loc 1 280 66
	add	a3,a4,a5
	.loc 1 280 29
	ld	a4,-56(s0)
	ld	a5,-64(s0)
	add	a4,a4,a5
	.loc 1 280 19
	mv	a5,a3
	bleu	a5,a4,.L33
	mv	a5,a4
.L33:
	sd	a5,-32(s0)
	.loc 1 284 6
	ld	a4,-40(s0)
	ld	a5,-32(s0)
	bltu	a4,a5,.L34
	.loc 1 288 12
	li	a5,0
	j	.L31
.L34:
	.loc 1 291 17
	ld	a5,-80(s0)
	lw	a5,32(a5)
	.loc 1 291 6
	bne	a5,zero,.L35
	.loc 1 292 17
	la	a5,gDS
	ld	a5,0(a5)
	ld	a5,24(a5)
	.loc 1 292 14
	ld	a3,-32(s0)
	ld	a4,-40(s0)
	sub	a4,a3,a4
	ld	a3,-72(s0)
	mv	a2,a4
	ld	a1,-40(s0)
	li	a0,3
	jalr	a5
.LVL3:
	sd	a0,-24(s0)
	.loc 1 308 12
	ld	a5,-24(s0)
	j	.L31
.L35:
	.loc 1 325 10
	li	a5,-1
	slli	a5,a5,63
	addi	a5,a5,2
.L31:
	.loc 1 326 1
	mv	a0,a5
	ld	ra,72(sp)
	.cfi_restore 1
	ld	s0,64(sp)
	.cfi_restore 8
	.cfi_def_cfa 2, 80
	addi	sp,sp,80
	.cfi_def_cfa_offset 0
	jr	ra
	.cfi_endproc
.LFE3:
	.size	IntersectMemoryDescriptor, .-IntersectMemoryDescriptor
	.section	.text.AddMemoryMappedIoSpace,"ax",@progbits
	.align	1
	.globl	AddMemoryMappedIoSpace
	.type	AddMemoryMappedIoSpace, @function
AddMemoryMappedIoSpace:
.LFB4:
	.loc 1 345 1
	.cfi_startproc
	addi	sp,sp,-160
	.cfi_def_cfa_offset 160
	sd	ra,152(sp)
	sd	s0,144(sp)
	.cfi_offset 1, -8
	.cfi_offset 8, -16
	addi	s0,sp,160
	.cfi_def_cfa 8, 0
	sd	a0,-136(s0)
	sd	a1,-144(s0)
	sd	a2,-152(s0)
	.loc 1 351 15
	la	a5,gDS
	ld	a5,0(a5)
	ld	a5,72(a5)
	.loc 1 351 12
	addi	a3,s0,-64
	addi	a4,s0,-56
	mv	a1,a3
	mv	a0,a4
	jalr	a5
.LVL4:
	sd	a0,-24(s0)
	.loc 1 352 34
	ld	a5,-24(s0)
	.loc 1 352 6
	bge	a5,zero,.L37
	.loc 1 360 12
	ld	a5,-24(s0)
	j	.L45
.L37:
	.loc 1 363 14
	sd	zero,-32(s0)
	.loc 1 363 3
	j	.L39
.L42:
	.loc 1 364 14
	ld	a3,-64(s0)
	.loc 1 368 31
	ld	a4,-32(s0)
	mv	a5,a4
	slli	a5,a5,3
	sub	a5,a5,a4
	slli	a5,a5,3
	.loc 1 368 16
	add	a5,a3,a5
	.loc 1 364 14
	mv	a3,a5
	ld	a2,-152(s0)
	ld	a1,-144(s0)
	ld	a0,-136(s0)
	call	IntersectMemoryDescriptor
	sd	a0,-24(s0)
	.loc 1 370 36
	ld	a5,-24(s0)
	.loc 1 370 8
	blt	a5,zero,.L46
	.loc 1 363 53 discriminator 2
	ld	a5,-32(s0)
	addi	a5,a5,1
	sd	a5,-32(s0)
.L39:
	.loc 1 363 25 discriminator 1
	ld	a5,-56(s0)
	ld	a4,-32(s0)
	bltu	a4,a5,.L42
	.loc 1 375 12
	call	DebugCodeEnabled@plt
	mv	a5,a0
	.loc 1 375 11 discriminator 1
	beq	a5,zero,.L47
.LBB3:
	.loc 1 385 18
	ld	a5,-136(s0)
	sd	a5,-40(s0)
	.loc 1 385 3
	j	.L43
.L44:
	.loc 1 389 22
	la	a5,gDS
	ld	a5,0(a5)
	ld	a5,56(a5)
	.loc 1 389 19
	addi	a4,s0,-120
	mv	a1,a4
	ld	a0,-40(s0)
	jalr	a5
.LVL5:
	sd	a0,-48(s0)
	.loc 1 387 30
	ld	a4,-120(s0)
	.loc 1 387 55
	ld	a5,-112(s0)
	.loc 1 387 18
	add	a5,a4,a5
	sd	a5,-40(s0)
.L43:
	.loc 1 386 25
	ld	a4,-136(s0)
	ld	a5,-144(s0)
	add	a5,a4,a5
	.loc 1 386 18
	ld	a4,-40(s0)
	bltu	a4,a5,.L44
	j	.L41
.L46:
.LBE3:
	.loc 1 371 7
	nop
	j	.L41
.L47:
	.loc 1 397 1
	nop
.L41:
	.loc 1 398 3
	ld	a5,-64(s0)
	mv	a0,a5
	call	FreePool@plt
	.loc 1 400 10
	ld	a5,-24(s0)
.L45:
	.loc 1 401 1
	mv	a0,a5
	ld	ra,152(sp)
	.cfi_restore 1
	ld	s0,144(sp)
	.cfi_restore 8
	.cfi_def_cfa 2, 160
	addi	sp,sp,160
	.cfi_def_cfa_offset 0
	jr	ra
	.cfi_endproc
.LFE4:
	.size	AddMemoryMappedIoSpace, .-AddMemoryMappedIoSpace
	.section	.text.IoMmuProtocolCallback,"ax",@progbits
	.align	1
	.globl	IoMmuProtocolCallback
	.type	IoMmuProtocolCallback, @function
IoMmuProtocolCallback:
.LFB5:
	.loc 1 416 1
	.cfi_startproc
	addi	sp,sp,-48
	.cfi_def_cfa_offset 48
	sd	ra,40(sp)
	sd	s0,32(sp)
	.cfi_offset 1, -8
	.cfi_offset 8, -16
	addi	s0,sp,48
	.cfi_def_cfa 8, 0
	sd	a0,-40(s0)
	sd	a1,-48(s0)
	.loc 1 419 15
	la	a5,gBS
	ld	a5,0(a5)
	ld	a5,320(a5)
	.loc 1 419 12
	lla	a2,mIoMmu
	li	a1,0
	la	a0,gEdkiiIoMmuProtocolGuid
	jalr	a5
.LVL6:
	sd	a0,-24(s0)
	.loc 1 420 7
	ld	a5,-24(s0)
	.loc 1 420 6
	blt	a5,zero,.L50
	.loc 1 421 8
	la	a5,gBS
	ld	a5,0(a5)
	ld	a5,112(a5)
	.loc 1 421 5
	lla	a4,mIoMmuEvent
	ld	a4,0(a4)
	mv	a0,a4
	jalr	a5
.LVL7:
.L50:
	.loc 1 423 1
	nop
	ld	ra,40(sp)
	.cfi_restore 1
	ld	s0,32(sp)
	.cfi_restore 8
	.cfi_def_cfa 2, 48
	addi	sp,sp,48
	.cfi_def_cfa_offset 0
	jr	ra
	.cfi_endproc
.LFE5:
	.size	IoMmuProtocolCallback, .-IoMmuProtocolCallback
	.section	.text.InitializePciHostBridge,"ax",@progbits
	.align	1
	.globl	InitializePciHostBridge
	.type	InitializePciHostBridge, @function
InitializePciHostBridge:
.LFB6:
	.loc 1 442 1
	.cfi_startproc
	addi	sp,sp,-144
	.cfi_def_cfa_offset 144
	sd	ra,136(sp)
	sd	s0,128(sp)
	.cfi_offset 1, -8
	.cfi_offset 8, -16
	addi	s0,sp,144
	.cfi_def_cfa 8, 0
	sd	a0,-136(s0)
	sd	a1,-144(s0)
	.loc 1 455 17
	addi	a5,s0,-88
	mv	a0,a5
	call	PciHostBridgeGetRootBridges@plt
	sd	a0,-72(s0)
	.loc 1 456 6
	ld	a5,-72(s0)
	beq	a5,zero,.L52
	.loc 1 456 57 discriminator 1
	ld	a5,-88(s0)
	.loc 1 456 37 discriminator 1
	bne	a5,zero,.L53
.L52:
	.loc 1 457 12
	li	a5,-1
	slli	a5,a5,63
	addi	a5,a5,3
	j	.L70
.L53:
	.loc 1 460 15
	la	a5,gBS
	ld	a5,0(a5)
	ld	a5,320(a5)
	.loc 1 460 12
	lla	a2,mCpuIo
	li	a1,0
	la	a0,gEfiCpuIo2ProtocolGuid
	jalr	a5
.LVL8:
	sd	a0,-24(s0)
	.loc 1 466 15
	la	a5,gBS
	ld	a5,0(a5)
	ld	a5,320(a5)
	.loc 1 466 12
	lla	a2,mCpu
	li	a1,0
	la	a0,gEfiCpuArchProtocolGuid
	jalr	a5
.LVL9:
	sd	a0,-24(s0)
	.loc 1 472 16
	li	a0,104
	call	AllocateZeroPool@plt
	sd	a0,-80(s0)
	.loc 1 475 25
	ld	a5,-80(s0)
	li	a4,1734504448
	addi	a4,a4,-1936
	sd	a4,0(a5)
	.loc 1 476 28
	ld	a5,-80(s0)
	li	a4,1
	sb	a4,32(a5)
	.loc 1 477 3
	ld	a5,-80(s0)
	addi	a5,a5,16
	mv	a0,a5
	call	InitializeListHead@plt
	.loc 1 478 20
	sb	zero,-49(s0)
	.loc 1 483 14
	sd	zero,-40(s0)
	.loc 1 483 3
	j	.L55
.L63:
	.loc 1 487 48
	ld	a4,-40(s0)
	mv	a5,a4
	slli	a5,a5,1
	add	a5,a5,a4
	slli	a5,a5,6
	mv	a4,a5
	.loc 1 487 18
	ld	a5,-72(s0)
	add	a5,a5,a4
	mv	a0,a5
	call	CreateRootBridge@plt
	sd	a0,-32(s0)
	.loc 1 489 8
	ld	a5,-32(s0)
	beq	a5,zero,.L71
	.loc 1 496 8
	ld	a5,-40(s0)
	bne	a5,zero,.L58
	.loc 1 497 37
	ld	a4,-40(s0)
	mv	a5,a4
	slli	a5,a5,1
	add	a5,a5,a4
	slli	a5,a5,6
	mv	a4,a5
	ld	a5,-72(s0)
	add	a5,a5,a4
	.loc 1 497 24
	lbu	a5,26(a5)
	sb	a5,-49(s0)
.L58:
	.loc 1 502 20
	ld	a4,-40(s0)
	mv	a5,a4
	slli	a5,a5,1
	add	a5,a5,a4
	slli	a5,a5,6
	mv	a4,a5
	ld	a5,-72(s0)
	add	a5,a5,a4
	.loc 1 502 30
	ld	a3,64(a5)
	.loc 1 502 50
	ld	a4,-40(s0)
	mv	a5,a4
	slli	a5,a5,1
	add	a5,a5,a4
	slli	a5,a5,6
	mv	a4,a5
	ld	a5,-72(s0)
	add	a5,a5,a4
	.loc 1 502 60
	ld	a5,72(a5)
	.loc 1 502 8
	bgtu	a3,a5,.L59
	.loc 1 507 34
	ld	a4,-40(s0)
	mv	a5,a4
	slli	a5,a5,1
	add	a5,a5,a4
	slli	a5,a5,6
	mv	a4,a5
	ld	a5,-72(s0)
	add	a5,a5,a4
	.loc 1 507 44
	ld	a3,64(a5)
	.loc 1 507 65
	ld	a4,-40(s0)
	mv	a5,a4
	slli	a5,a5,1
	add	a5,a5,a4
	slli	a5,a5,6
	mv	a4,a5
	ld	a5,-72(s0)
	add	a5,a5,a4
	.loc 1 507 75
	ld	a5,80(a5)
	.loc 1 507 51
	sub	a5,a3,a5
	.loc 1 507 19
	sd	a5,-128(s0)
	.loc 1 512 16
	ld	a2,-128(s0)
	.loc 1 514 29
	ld	a4,-40(s0)
	mv	a5,a4
	slli	a5,a5,1
	add	a5,a5,a4
	slli	a5,a5,6
	mv	a4,a5
	ld	a5,-72(s0)
	add	a5,a5,a4
	.loc 1 514 39
	ld	a3,72(a5)
	.loc 1 514 59
	ld	a4,-40(s0)
	mv	a5,a4
	slli	a5,a5,1
	add	a5,a5,a4
	slli	a5,a5,6
	mv	a4,a5
	ld	a5,-72(s0)
	add	a5,a5,a4
	.loc 1 514 69
	ld	a5,64(a5)
	.loc 1 514 46
	sub	a5,a3,a5
	.loc 1 512 16
	addi	a5,a5,1
	mv	a1,a5
	mv	a0,a2
	call	AddIoSpace
	sd	a0,-24(s0)
	.loc 1 517 10
	lbu	a5,-49(s0)
	andi	a5,a5,0xff
	beq	a5,zero,.L59
	.loc 1 518 21
	la	a5,gDS
	ld	a5,0(a5)
	ld	a7,88(a5)
	.loc 1 522 36
	ld	a4,-40(s0)
	mv	a5,a4
	slli	a5,a5,1
	add	a5,a5,a4
	slli	a5,a5,6
	mv	a4,a5
	ld	a5,-72(s0)
	add	a5,a5,a4
	.loc 1 522 46
	ld	a3,72(a5)
	.loc 1 522 66
	ld	a4,-40(s0)
	mv	a5,a4
	slli	a5,a5,1
	add	a5,a5,a4
	slli	a5,a5,6
	mv	a4,a5
	ld	a5,-72(s0)
	add	a5,a5,a4
	.loc 1 522 76
	ld	a5,64(a5)
	.loc 1 522 53
	sub	a5,a3,a5
	.loc 1 518 18
	addi	a3,a5,1
	la	a5,gImageHandle
	ld	a5,0(a5)
	addi	a4,s0,-128
	li	a6,0
	li	a2,0
	li	a1,2
	li	a0,2
	jalr	a7
.LVL10:
	sd	a0,-24(s0)
.L59:
	.loc 1 537 35
	ld	a4,-40(s0)
	mv	a5,a4
	slli	a5,a5,1
	add	a5,a5,a4
	slli	a5,a5,6
	mv	a4,a5
	ld	a5,-72(s0)
	add	a5,a5,a4
	.loc 1 537 23
	addi	a5,a5,88
	.loc 1 537 21
	sd	a5,-120(s0)
	.loc 1 538 35
	ld	a4,-40(s0)
	mv	a5,a4
	slli	a5,a5,1
	add	a5,a5,a4
	slli	a5,a5,6
	mv	a4,a5
	ld	a5,-72(s0)
	add	a5,a5,a4
	.loc 1 538 23
	addi	a5,a5,112
	.loc 1 538 21
	sd	a5,-112(s0)
	.loc 1 539 35
	ld	a4,-40(s0)
	mv	a5,a4
	slli	a5,a5,1
	add	a5,a5,a4
	slli	a5,a5,6
	mv	a4,a5
	ld	a5,-72(s0)
	add	a5,a5,a4
	.loc 1 539 23
	addi	a5,a5,136
	.loc 1 539 21
	sd	a5,-104(s0)
	.loc 1 540 35
	ld	a4,-40(s0)
	mv	a5,a4
	slli	a5,a5,1
	add	a5,a5,a4
	slli	a5,a5,6
	mv	a4,a5
	ld	a5,-72(s0)
	add	a5,a5,a4
	.loc 1 540 23
	addi	a5,a5,160
	.loc 1 540 21
	sd	a5,-96(s0)
	.loc 1 542 27
	sd	zero,-48(s0)
	.loc 1 542 5
	j	.L60
.L62:
	.loc 1 543 23
	ld	a4,-48(s0)
	addi	a5,s0,-120
	slli	a4,a4,3
	add	a5,a4,a5
	ld	a5,0(a5)
	.loc 1 543 41
	ld	a4,0(a5)
	.loc 1 543 63
	ld	a3,-48(s0)
	addi	a5,s0,-120
	slli	a3,a3,3
	add	a5,a3,a5
	ld	a5,0(a5)
	.loc 1 543 81
	ld	a5,8(a5)
	.loc 1 543 10
	bgtu	a4,a5,.L61
	.loc 1 548 37
	ld	a4,-48(s0)
	addi	a5,s0,-120
	slli	a4,a4,3
	add	a5,a4,a5
	ld	a5,0(a5)
	.loc 1 548 55
	ld	a4,0(a5)
	.loc 1 548 78
	ld	a3,-48(s0)
	addi	a5,s0,-120
	slli	a3,a3,3
	add	a5,a3,a5
	ld	a5,0(a5)
	.loc 1 548 96
	ld	a5,16(a5)
	.loc 1 548 63
	sub	a5,a4,a5
	.loc 1 548 21
	sd	a5,-128(s0)
	.loc 1 552 18
	ld	a0,-128(s0)
	.loc 1 554 32
	ld	a4,-48(s0)
	addi	a5,s0,-120
	slli	a4,a4,3
	add	a5,a4,a5
	ld	a5,0(a5)
	.loc 1 554 50
	ld	a4,8(a5)
	.loc 1 554 72
	ld	a3,-48(s0)
	addi	a5,s0,-120
	slli	a3,a3,3
	add	a5,a3,a5
	ld	a5,0(a5)
	.loc 1 554 90
	ld	a5,0(a5)
	.loc 1 554 58
	sub	a5,a4,a5
	.loc 1 552 18
	addi	a5,a5,1
	li	a2,1
	mv	a1,a5
	call	AddMemoryMappedIoSpace
	sd	a0,-24(s0)
	.loc 1 558 21
	la	a5,gDS
	ld	a5,0(a5)
	ld	a5,64(a5)
	.loc 1 558 18
	ld	a0,-128(s0)
	.loc 1 560 37
	ld	a3,-48(s0)
	addi	a4,s0,-120
	slli	a3,a3,3
	add	a4,a3,a4
	ld	a4,0(a4)
	.loc 1 560 55
	ld	a3,8(a4)
	.loc 1 560 77
	ld	a2,-48(s0)
	addi	a4,s0,-120
	slli	a2,a2,3
	add	a4,a2,a4
	ld	a4,0(a4)
	.loc 1 560 95
	ld	a4,0(a4)
	.loc 1 560 63
	sub	a4,a3,a4
	.loc 1 558 18
	addi	a4,a4,1
	li	a2,1
	mv	a1,a4
	jalr	a5
.LVL11:
	sd	a0,-24(s0)
	.loc 1 567 12
	lbu	a5,-49(s0)
	andi	a5,a5,0xff
	beq	a5,zero,.L61
	.loc 1 568 23
	la	a5,gDS
	ld	a5,0(a5)
	ld	a7,32(a5)
	.loc 1 572 39
	ld	a4,-48(s0)
	addi	a5,s0,-120
	slli	a4,a4,3
	add	a5,a4,a5
	ld	a5,0(a5)
	.loc 1 572 57
	ld	a4,8(a5)
	.loc 1 572 79
	ld	a3,-48(s0)
	addi	a5,s0,-120
	slli	a3,a3,3
	add	a5,a3,a5
	ld	a5,0(a5)
	.loc 1 572 97
	ld	a5,0(a5)
	.loc 1 572 65
	sub	a5,a4,a5
	.loc 1 568 20
	addi	a3,a5,1
	la	a5,gImageHandle
	ld	a5,0(a5)
	addi	a4,s0,-128
	li	a6,0
	li	a2,0
	li	a1,3
	li	a0,2
	jalr	a7
.LVL12:
	sd	a0,-24(s0)
.L61:
	.loc 1 542 121 discriminator 2
	ld	a5,-48(s0)
	addi	a5,a5,1
	sd	a5,-48(s0)
.L60:
	.loc 1 542 49 discriminator 1
	ld	a4,-48(s0)
	li	a5,3
	bleu	a4,a5,.L62
	.loc 1 585 5
	ld	a5,-80(s0)
	addi	a4,a5,16
	ld	a5,-32(s0)
	addi	a5,a5,8
	mv	a1,a5
	mv	a0,a4
	call	InsertTailList@plt
	j	.L57
.L71:
	.loc 1 490 7
	nop
.L57:
	.loc 1 483 49 discriminator 2
	ld	a5,-40(s0)
	addi	a5,a5,1
	sd	a5,-40(s0)
.L55:
	.loc 1 483 25 discriminator 1
	ld	a5,-88(s0)
	ld	a4,-40(s0)
	bltu	a4,a5,.L63
	.loc 1 592 6
	lbu	a5,-49(s0)
	andi	a5,a5,0xff
	bne	a5,zero,.L64
	.loc 1 593 38
	ld	a5,-80(s0)
	lla	a4,NotifyPhase
	sd	a4,40(a5)
	.loc 1 594 44
	ld	a5,-80(s0)
	lla	a4,GetNextRootBridge
	sd	a4,48(a5)
	.loc 1 595 45
	ld	a5,-80(s0)
	lla	a4,GetAttributes
	sd	a4,56(a5)
	.loc 1 596 46
	ld	a5,-80(s0)
	lla	a4,StartBusEnumeration
	sd	a4,64(a5)
	.loc 1 597 40
	ld	a5,-80(s0)
	lla	a4,SetBusNumbers
	sd	a4,72(a5)
	.loc 1 598 42
	ld	a5,-80(s0)
	lla	a4,SubmitResources
	sd	a4,80(a5)
	.loc 1 599 47
	ld	a5,-80(s0)
	lla	a4,GetProposedResources
	sd	a4,88(a5)
	.loc 1 600 47
	ld	a5,-80(s0)
	lla	a4,PreprocessController
	sd	a4,96(a5)
	.loc 1 602 17
	la	a5,gBS
	ld	a5,0(a5)
	ld	a5,328(a5)
	.loc 1 602 14
	ld	a4,-80(s0)
	addi	a0,a4,8
	ld	a4,-80(s0)
	addi	a4,a4,40
	li	a3,0
	mv	a2,a4
	la	a1,gEfiPciHostBridgeResourceAllocationProtocolGuid
	jalr	a5
.LVL13:
	sd	a0,-24(s0)
.L64:
	.loc 1 611 29
	ld	a5,-80(s0)
	addi	a5,a5,16
	.loc 1 611 15
	mv	a0,a5
	call	GetFirstNode@plt
	sd	a0,-64(s0)
	.loc 1 611 3
	j	.L65
.L68:
	.loc 1 616 20
	ld	a5,-64(s0)
	addi	a5,a5,-8
	.loc 1 616 140
	lw	a4,0(a5)
	.loc 1 616 225
	li	a5,1651666944
	addi	a5,a5,95
	bne	a4,a5,.L66
	.loc 1 616 16 discriminator 1
	ld	a5,-64(s0)
	addi	a5,a5,-8
	sd	a5,-32(s0)
	j	.L67
.L66:
	.loc 1 616 16 is_stmt 0 discriminator 2
	sd	zero,-32(s0)
.L67:
	.loc 1 617 55 is_stmt 1
	ld	a5,-80(s0)
	ld	a4,8(a5)
	.loc 1 617 43
	ld	a5,-32(s0)
	sd	a4,472(a5)
	.loc 1 619 17
	la	a5,gBS
	ld	a5,0(a5)
	ld	a6,328(a5)
	.loc 1 619 14
	ld	a5,-32(s0)
	addi	a0,a5,24
	ld	a5,-32(s0)
	ld	a2,456(a5)
	ld	a5,-32(s0)
	addi	a4,a5,472
	li	a5,0
	la	a3,gEfiPciRootBridgeIoProtocolGuid
	la	a1,gEfiDevicePathProtocolGuid
	jalr	a6
.LVL14:
	sd	a0,-24(s0)
	.loc 1 613 30
	ld	a5,-80(s0)
	addi	a5,a5,16
	.loc 1 613 17
	ld	a1,-64(s0)
	mv	a0,a5
	call	GetNextNode@plt
	sd	a0,-64(s0)
.L65:
	.loc 1 612 19
	ld	a5,-80(s0)
	addi	a5,a5,16
	.loc 1 612 11
	ld	a1,-64(s0)
	mv	a0,a5
	call	IsNull@plt
	mv	a5,a0
	.loc 1 612 10 discriminator 1
	beq	a5,zero,.L68
	.loc 1 630 3
	ld	a5,-88(s0)
	mv	a1,a5
	ld	a0,-72(s0)
	call	PciHostBridgeFreeRootBridges@plt
	.loc 1 632 7
	ld	a5,-24(s0)
	.loc 1 632 6
	blt	a5,zero,.L69
	.loc 1 633 19
	lla	a4,mIoMmuRegistration
	li	a3,0
	lla	a2,IoMmuProtocolCallback
	li	a1,8
	la	a0,gEdkiiIoMmuProtocolGuid
	call	EfiCreateProtocolNotifyEvent@plt
	mv	a4,a0
	.loc 1 633 17 discriminator 1
	lla	a5,mIoMmuEvent
	sd	a4,0(a5)
.L69:
	.loc 1 642 10
	ld	a5,-24(s0)
.L70:
	.loc 1 643 1
	mv	a0,a5
	ld	ra,136(sp)
	.cfi_restore 1
	ld	s0,128(sp)
	.cfi_restore 8
	.cfi_def_cfa 2, 144
	addi	sp,sp,144
	.cfi_def_cfa_offset 0
	jr	ra
	.cfi_endproc
.LFE6:
	.size	InitializePciHostBridge, .-InitializePciHostBridge
	.section	.text.ResourceConflict,"ax",@progbits
	.align	1
	.globl	ResourceConflict
	.type	ResourceConflict, @function
ResourceConflict:
.LFB7:
	.loc 1 654 1
	.cfi_startproc
	addi	sp,sp,-96
	.cfi_def_cfa_offset 96
	sd	ra,88(sp)
	sd	s0,80(sp)
	.cfi_offset 1, -8
	.cfi_offset 8, -16
	addi	s0,sp,96
	.cfi_def_cfa 8, 0
	sd	a0,-88(s0)
	.loc 1 664 19
	sd	zero,-48(s0)
	.loc 1 665 29
	ld	a5,-88(s0)
	addi	a5,a5,16
	.loc 1 665 15
	mv	a0,a5
	call	GetFirstNode@plt
	sd	a0,-40(s0)
	.loc 1 665 3
	j	.L73
.L74:
	.loc 1 670 20
	ld	a5,-48(s0)
	addi	a5,a5,1
	sd	a5,-48(s0)
	.loc 1 667 30
	ld	a5,-88(s0)
	addi	a5,a5,16
	.loc 1 667 17
	ld	a1,-40(s0)
	mv	a0,a5
	call	GetNextNode@plt
	sd	a0,-40(s0)
.L73:
	.loc 1 666 19
	ld	a5,-88(s0)
	addi	a5,a5,16
	.loc 1 666 11
	ld	a1,-40(s0)
	mv	a0,a5
	call	IsNull@plt
	mv	a5,a0
	.loc 1 666 10 discriminator 1
	beq	a5,zero,.L74
	.loc 1 674 33
	ld	a4,-48(s0)
	li	a5,278
	mul	a5,a4,a5
	.loc 1 674 129
	addi	a5,a5,2
	.loc 1 673 15
	mv	a0,a5
	call	AllocatePool@plt
	sd	a0,-64(s0)
	.loc 1 679 29
	ld	a5,-88(s0)
	addi	a5,a5,16
	.loc 1 679 15
	mv	a0,a5
	call	GetFirstNode@plt
	sd	a0,-40(s0)
	.loc 1 679 67 discriminator 1
	ld	a5,-64(s0)
	sd	a5,-24(s0)
	.loc 1 679 3
	j	.L75
.L88:
	.loc 1 684 20
	ld	a5,-40(s0)
	addi	a5,a5,-8
	.loc 1 684 140
	lw	a4,0(a5)
	.loc 1 684 225
	li	a5,1651666944
	addi	a5,a5,95
	bne	a4,a5,.L76
	.loc 1 684 16 discriminator 1
	ld	a5,-40(s0)
	addi	a5,a5,-8
	sd	a5,-32(s0)
	j	.L77
.L76:
	.loc 1 684 16 is_stmt 0 discriminator 2
	sd	zero,-32(s0)
.L77:
	.loc 1 685 16 is_stmt 1
	sw	zero,-52(s0)
	.loc 1 685 5
	j	.L78
.L87:
	.loc 1 686 20
	lwu	a4,-52(s0)
	mv	a5,a4
	slli	a5,a5,2
	add	a5,a5,a4
	slli	a5,a5,3
	addi	a5,a5,48
	ld	a4,-32(s0)
	add	a5,a4,a5
	addi	a5,a5,8
	sd	a5,-80(s0)
	.loc 1 688 24
	ld	a5,-24(s0)
	li	a4,-118
	sb	a4,0(a5)
	.loc 1 689 23
	ld	a5,-24(s0)
	lbu	a4,1(a5)
	andi	a4,a4,0
	ori	a4,a4,43
	sb	a4,1(a5)
	lbu	a4,2(a5)
	andi	a4,a4,0
	sb	a4,2(a5)
	.loc 1 690 46
	ld	a5,-80(s0)
	ld	a4,8(a5)
	.loc 1 690 32
	ld	a5,-24(s0)
	andi	a3,a4,255
	lbu	a2,14(a5)
	andi	a2,a2,0
	or	a3,a2,a3
	sb	a3,14(a5)
	srli	a3,a4,8
	andi	a3,a3,255
	lbu	a2,15(a5)
	andi	a2,a2,0
	or	a3,a2,a3
	sb	a3,15(a5)
	srli	a3,a4,16
	andi	a3,a3,255
	lbu	a2,16(a5)
	andi	a2,a2,0
	or	a3,a2,a3
	sb	a3,16(a5)
	srli	a3,a4,24
	andi	a3,a3,255
	lbu	a2,17(a5)
	andi	a2,a2,0
	or	a3,a2,a3
	sb	a3,17(a5)
	srli	a3,a4,32
	andi	a3,a3,255
	lbu	a2,18(a5)
	andi	a2,a2,0
	or	a3,a2,a3
	sb	a3,18(a5)
	srli	a3,a4,40
	andi	a3,a3,255
	lbu	a2,19(a5)
	andi	a2,a2,0
	or	a3,a2,a3
	sb	a3,19(a5)
	srli	a3,a4,48
	andi	a3,a3,255
	lbu	a2,20(a5)
	andi	a2,a2,0
	or	a3,a2,a3
	sb	a3,20(a5)
	srli	a4,a4,56
	lbu	a3,21(a5)
	andi	a3,a3,0
	or	a4,a3,a4
	sb	a4,21(a5)
	.loc 1 691 46
	ld	a5,-80(s0)
	ld	a4,24(a5)
	.loc 1 691 32
	ld	a5,-24(s0)
	andi	a3,a4,255
	lbu	a2,22(a5)
	andi	a2,a2,0
	or	a3,a2,a3
	sb	a3,22(a5)
	srli	a3,a4,8
	andi	a3,a3,255
	lbu	a2,23(a5)
	andi	a2,a2,0
	or	a3,a2,a3
	sb	a3,23(a5)
	srli	a3,a4,16
	andi	a3,a3,255
	lbu	a2,24(a5)
	andi	a2,a2,0
	or	a3,a2,a3
	sb	a3,24(a5)
	srli	a3,a4,24
	andi	a3,a3,255
	lbu	a2,25(a5)
	andi	a2,a2,0
	or	a3,a2,a3
	sb	a3,25(a5)
	srli	a3,a4,32
	andi	a3,a3,255
	lbu	a2,26(a5)
	andi	a2,a2,0
	or	a3,a2,a3
	sb	a3,26(a5)
	srli	a3,a4,40
	andi	a3,a3,255
	lbu	a2,27(a5)
	andi	a2,a2,0
	or	a3,a2,a3
	sb	a3,27(a5)
	srli	a3,a4,48
	andi	a3,a3,255
	lbu	a2,28(a5)
	andi	a2,a2,0
	or	a3,a2,a3
	sb	a3,28(a5)
	srli	a4,a4,56
	lbu	a3,29(a5)
	andi	a3,a3,0
	or	a4,a3,a4
	sb	a4,29(a5)
	.loc 1 692 41
	ld	a5,-80(s0)
	ld	a4,16(a5)
	.loc 1 692 27
	ld	a5,-24(s0)
	andi	a3,a4,255
	lbu	a2,38(a5)
	andi	a2,a2,0
	or	a3,a2,a3
	sb	a3,38(a5)
	srli	a3,a4,8
	andi	a3,a3,255
	lbu	a2,39(a5)
	andi	a2,a2,0
	or	a3,a2,a3
	sb	a3,39(a5)
	srli	a3,a4,16
	andi	a3,a3,255
	lbu	a2,40(a5)
	andi	a2,a2,0
	or	a3,a2,a3
	sb	a3,40(a5)
	srli	a3,a4,24
	andi	a3,a3,255
	lbu	a2,41(a5)
	andi	a2,a2,0
	or	a3,a2,a3
	sb	a3,41(a5)
	srli	a3,a4,32
	andi	a3,a3,255
	lbu	a2,42(a5)
	andi	a2,a2,0
	or	a3,a2,a3
	sb	a3,42(a5)
	srli	a3,a4,40
	andi	a3,a3,255
	lbu	a2,43(a5)
	andi	a2,a2,0
	or	a3,a2,a3
	sb	a3,43(a5)
	srli	a3,a4,48
	andi	a3,a3,255
	lbu	a2,44(a5)
	andi	a2,a2,0
	or	a3,a2,a3
	sb	a3,44(a5)
	srli	a4,a4,56
	lbu	a3,45(a5)
	andi	a3,a3,0
	or	a4,a3,a4
	sb	a4,45(a5)
	.loc 1 693 32
	ld	a5,-24(s0)
	sb	zero,5(a5)
	.loc 1 694 27
	ld	a5,-80(s0)
	lw	a5,0(a5)
	.loc 1 694 7
	li	a4,5
	beq	a5,a4,.L79
	li	a4,5
	bgtu	a5,a4,.L89
	li	a4,4
	beq	a5,a4,.L81
	li	a4,4
	bgtu	a5,a4,.L89
	li	a4,3
	beq	a5,a4,.L82
	li	a4,3
	bgtu	a5,a4,.L89
	li	a4,2
	beq	a5,a4,.L83
	li	a4,2
	bgtu	a5,a4,.L89
	beq	a5,zero,.L84
	li	a4,1
	beq	a5,a4,.L85
	.loc 1 718 11
	j	.L89
.L84:
	.loc 1 696 31
	ld	a5,-24(s0)
	li	a4,1
	sb	a4,3(a5)
	.loc 1 697 11
	j	.L86
.L83:
	.loc 1 700 36
	ld	a5,-24(s0)
	li	a4,6
	sb	a4,5(a5)
.L85:
	.loc 1 702 31
	ld	a5,-24(s0)
	sb	zero,3(a5)
	.loc 1 703 44
	ld	a5,-24(s0)
	lbu	a4,6(a5)
	andi	a4,a4,0
	ori	a4,a4,32
	sb	a4,6(a5)
	lbu	a4,7(a5)
	andi	a4,a4,0
	sb	a4,7(a5)
	lbu	a4,8(a5)
	andi	a4,a4,0
	sb	a4,8(a5)
	lbu	a4,9(a5)
	andi	a4,a4,0
	sb	a4,9(a5)
	lbu	a4,10(a5)
	andi	a4,a4,0
	sb	a4,10(a5)
	lbu	a4,11(a5)
	andi	a4,a4,0
	sb	a4,11(a5)
	lbu	a4,12(a5)
	andi	a4,a4,0
	sb	a4,12(a5)
	lbu	a4,13(a5)
	andi	a4,a4,0
	sb	a4,13(a5)
	.loc 1 704 11
	j	.L86
.L81:
	.loc 1 707 36
	ld	a5,-24(s0)
	li	a4,6
	sb	a4,5(a5)
.L82:
	.loc 1 709 31
	ld	a5,-24(s0)
	sb	zero,3(a5)
	.loc 1 710 44
	ld	a5,-24(s0)
	lbu	a4,6(a5)
	andi	a4,a4,0
	ori	a4,a4,64
	sb	a4,6(a5)
	lbu	a4,7(a5)
	andi	a4,a4,0
	sb	a4,7(a5)
	lbu	a4,8(a5)
	andi	a4,a4,0
	sb	a4,8(a5)
	lbu	a4,9(a5)
	andi	a4,a4,0
	sb	a4,9(a5)
	lbu	a4,10(a5)
	andi	a4,a4,0
	sb	a4,10(a5)
	lbu	a4,11(a5)
	andi	a4,a4,0
	sb	a4,11(a5)
	lbu	a4,12(a5)
	andi	a4,a4,0
	sb	a4,12(a5)
	lbu	a4,13(a5)
	andi	a4,a4,0
	sb	a4,13(a5)
	.loc 1 711 11
	j	.L86
.L79:
	.loc 1 714 31
	ld	a5,-24(s0)
	li	a4,2
	sb	a4,3(a5)
	.loc 1 715 11
	j	.L86
.L89:
	.loc 1 718 11
	nop
.L86:
	.loc 1 721 17
	ld	a5,-24(s0)
	addi	a5,a5,46
	sd	a5,-24(s0)
	.loc 1 685 48 discriminator 2
	lw	a5,-52(s0)
	addiw	a5,a5,1
	sw	a5,-52(s0)
.L78:
	.loc 1 685 32 discriminator 1
	lw	a5,-52(s0)
	sext.w	a4,a5
	li	a5,5
	bleu	a4,a5,.L87
	.loc 1 727 9
	ld	a5,-24(s0)
	sd	a5,-72(s0)
	.loc 1 728 15
	ld	a5,-72(s0)
	li	a4,121
	sb	a4,0(a5)
	.loc 1 729 19
	ld	a5,-72(s0)
	sb	zero,1(a5)
	.loc 1 731 16
	ld	a5,-72(s0)
	addi	a5,a5,2
	sd	a5,-24(s0)
	.loc 1 681 30
	ld	a5,-88(s0)
	addi	a5,a5,16
	.loc 1 681 17
	ld	a1,-40(s0)
	mv	a0,a5
	call	GetNextNode@plt
	sd	a0,-40(s0)
.L75:
	.loc 1 680 19
	ld	a5,-88(s0)
	addi	a5,a5,16
	.loc 1 680 11
	ld	a1,-40(s0)
	mv	a0,a5
	call	IsNull@plt
	mv	a5,a0
	.loc 1 680 10 discriminator 1
	beq	a5,zero,.L88
	.loc 1 737 7
	ld	a5,-24(s0)
	sd	a5,-72(s0)
	.loc 1 738 13
	ld	a5,-72(s0)
	li	a4,121
	sb	a4,0(a5)
	.loc 1 739 17
	ld	a5,-72(s0)
	sb	zero,1(a5)
	.loc 1 742 3
	ld	a5,-88(s0)
	ld	a5,8(a5)
	ld	a1,-64(s0)
	mv	a0,a5
	call	PciHostBridgeResourceConflict@plt
	.loc 1 743 3
	ld	a0,-64(s0)
	call	FreePool@plt
	.loc 1 744 1
	nop
	ld	ra,88(sp)
	.cfi_restore 1
	ld	s0,80(sp)
	.cfi_restore 8
	.cfi_def_cfa 2, 96
	addi	sp,sp,96
	.cfi_def_cfa_offset 0
	jr	ra
	.cfi_endproc
.LFE7:
	.size	ResourceConflict, .-ResourceConflict
	.section	.text.AllocateResource,"ax",@progbits
	.align	1
	.globl	AllocateResource
	.type	AllocateResource, @function
AllocateResource:
.LFB8:
	.loc 1 767 1
	.cfi_startproc
	addi	sp,sp,-96
	.cfi_def_cfa_offset 96
	sd	ra,88(sp)
	sd	s0,80(sp)
	sd	s1,72(sp)
	.cfi_offset 1, -8
	.cfi_offset 8, -16
	.cfi_offset 9, -24
	addi	s0,sp,96
	.cfi_def_cfa 8, 0
	mv	a5,a0
	sd	a1,-64(s0)
	sd	a2,-72(s0)
	sd	a3,-80(s0)
	sd	a4,-88(s0)
	sb	a5,-49(s0)
	.loc 1 770 19
	ld	a5,-80(s0)
	.loc 1 770 6
	ld	a4,-88(s0)
	bleu	a4,a5,.L91
	.loc 1 779 39
	ld	a1,-72(s0)
	li	a0,1
	call	LShiftU64@plt
	mv	a4,a0
	.loc 1 779 71 discriminator 1
	ld	a5,-80(s0)
	sub	s1,a4,a5
	.loc 1 779 92 discriminator 1
	ld	a1,-72(s0)
	li	a0,1
	call	LShiftU64@plt
	mv	a5,a0
	.loc 1 779 124 discriminator 2
	addi	a5,a5,-1
	.loc 1 779 88 discriminator 2
	and	a4,s1,a5
	.loc 1 779 34 discriminator 2
	ld	a5,-80(s0)
	add	a5,a4,a5
	.loc 1 779 17 discriminator 2
	sd	a5,-80(s0)
	.loc 1 781 11
	j	.L92
.L97:
	.loc 1 782 10
	lbu	a5,-49(s0)
	andi	a5,a5,0xff
	beq	a5,zero,.L93
	.loc 1 783 21
	la	a5,gDS
	ld	a5,0(a5)
	ld	a7,32(a5)
	.loc 1 783 18
	la	a5,gImageHandle
	ld	a5,0(a5)
	addi	a4,s0,-80
	li	a6,0
	ld	a3,-64(s0)
	ld	a2,-72(s0)
	li	a1,3
	li	a0,2
	jalr	a7
.LVL15:
	sd	a0,-40(s0)
	j	.L94
.L93:
	.loc 1 793 21
	la	a5,gDS
	ld	a5,0(a5)
	ld	a7,88(a5)
	.loc 1 793 18
	la	a5,gImageHandle
	ld	a5,0(a5)
	addi	a4,s0,-80
	li	a6,0
	ld	a3,-64(s0)
	ld	a2,-72(s0)
	li	a1,2
	li	a0,2
	jalr	a7
.LVL16:
	sd	a0,-40(s0)
.L94:
	.loc 1 804 11
	ld	a5,-40(s0)
	.loc 1 804 10
	blt	a5,zero,.L95
	.loc 1 805 16
	ld	a5,-80(s0)
	j	.L96
.L95:
	.loc 1 808 22
	ld	a1,-72(s0)
	li	a0,1
	call	LShiftU64@plt
	mv	a4,a0
	.loc 1 808 19 discriminator 1
	ld	a5,-80(s0)
	add	a5,a4,a5
	sd	a5,-80(s0)
.L92:
	.loc 1 781 24
	ld	a4,-80(s0)
	ld	a5,-64(s0)
	add	a4,a4,a5
	.loc 1 781 42
	ld	a5,-88(s0)
	addi	a5,a5,1
	.loc 1 781 33
	bleu	a4,a5,.L97
.L91:
	.loc 1 812 10
	li	a5,-1
.L96:
	.loc 1 813 1
	mv	a0,a5
	ld	ra,88(sp)
	.cfi_restore 1
	ld	s0,80(sp)
	.cfi_restore 8
	.cfi_def_cfa 2, 96
	ld	s1,72(sp)
	.cfi_restore 9
	addi	sp,sp,96
	.cfi_def_cfa_offset 0
	jr	ra
	.cfi_endproc
.LFE8:
	.size	AllocateResource, .-AllocateResource
	.section	.text.NotifyPhase,"ax",@progbits
	.align	1
	.globl	NotifyPhase
	.type	NotifyPhase, @function
NotifyPhase:
.LFB9:
	.loc 1 833 1
	.cfi_startproc
	addi	sp,sp,-144
	.cfi_def_cfa_offset 144
	sd	ra,136(sp)
	sd	s0,128(sp)
	.cfi_offset 1, -8
	.cfi_offset 8, -16
	addi	s0,sp,144
	.cfi_def_cfa 8, 0
	sd	a0,-136(s0)
	mv	a5,a1
	sw	a5,-140(s0)
	.loc 1 849 18
	ld	a5,-136(s0)
	addi	a5,a5,-40
	.loc 1 849 142
	ld	a4,0(a5)
	.loc 1 849 227
	li	a5,1734504448
	addi	a5,a5,-1936
	bne	a4,a5,.L99
	.loc 1 849 14 discriminator 1
	ld	a5,-136(s0)
	addi	a5,a5,-40
	sd	a5,-40(s0)
	j	.L100
.L99:
	.loc 1 849 14 is_stmt 0 discriminator 2
	sd	zero,-40(s0)
.L100:
	.loc 1 851 3 is_stmt 1
	lw	a5,-140(s0)
	sext.w	a4,a5
	li	a5,8
	beq	a4,a5,.L177
	lw	a5,-140(s0)
	sext.w	a4,a5
	li	a5,8
	bgtu	a4,a5,.L102
	lw	a5,-140(s0)
	sext.w	a4,a5
	li	a5,7
	beq	a4,a5,.L178
	lw	a5,-140(s0)
	sext.w	a4,a5
	li	a5,7
	bgtu	a4,a5,.L102
	lw	a5,-140(s0)
	sext.w	a4,a5
	li	a5,6
	beq	a4,a5,.L104
	lw	a5,-140(s0)
	sext.w	a4,a5
	li	a5,6
	bgtu	a4,a5,.L102
	lw	a5,-140(s0)
	sext.w	a4,a5
	li	a5,5
	beq	a4,a5,.L179
	lw	a5,-140(s0)
	sext.w	a4,a5
	li	a5,5
	bgtu	a4,a5,.L102
	lw	a5,-140(s0)
	sext.w	a4,a5
	li	a5,4
	beq	a4,a5,.L106
	lw	a5,-140(s0)
	sext.w	a4,a5
	li	a5,4
	bgtu	a4,a5,.L102
	lw	a5,-140(s0)
	sext.w	a4,a5
	li	a5,3
	beq	a4,a5,.L180
	lw	a5,-140(s0)
	sext.w	a4,a5
	li	a5,3
	bgtu	a4,a5,.L102
	lw	a5,-140(s0)
	sext.w	a4,a5
	li	a5,2
	beq	a4,a5,.L181
	lw	a5,-140(s0)
	sext.w	a4,a5
	li	a5,2
	bgtu	a4,a5,.L102
	lw	a5,-140(s0)
	sext.w	a5,a5
	beq	a5,zero,.L109
	lw	a5,-140(s0)
	sext.w	a4,a5
	li	a5,1
	beq	a4,a5,.L110
	j	.L102
.L109:
	.loc 1 853 22
	ld	a5,-40(s0)
	lbu	a5,32(a5)
	.loc 1 853 10
	bne	a5,zero,.L111
	.loc 1 854 16
	li	a5,-1
	slli	a5,a5,63
	addi	a5,a5,6
	j	.L174
.L111:
	.loc 1 860 33
	ld	a5,-40(s0)
	addi	a5,a5,16
	.loc 1 860 19
	mv	a0,a5
	call	GetFirstNode@plt
	sd	a0,-24(s0)
	.loc 1 860 7
	j	.L113
.L118:
	.loc 1 865 24
	ld	a5,-24(s0)
	addi	a5,a5,-8
	.loc 1 865 144
	lw	a4,0(a5)
	.loc 1 865 229
	li	a5,1651666944
	addi	a5,a5,95
	bne	a4,a5,.L114
	.loc 1 865 20 discriminator 1
	ld	a5,-24(s0)
	addi	a5,a5,-8
	sd	a5,-32(s0)
	j	.L115
.L114:
	.loc 1 865 20 is_stmt 0 discriminator 2
	sd	zero,-32(s0)
.L115:
	.loc 1 866 20 is_stmt 1
	sw	zero,-60(s0)
	.loc 1 866 9
	j	.L116
.L117:
	.loc 1 867 48
	ld	a3,-32(s0)
	lwu	a4,-60(s0)
	mv	a5,a4
	slli	a5,a5,2
	add	a5,a5,a4
	slli	a5,a5,3
	add	a5,a3,a5
	lw	a4,-60(s0)
	sw	a4,56(a5)
	.loc 1 868 48
	ld	a3,-32(s0)
	lwu	a4,-60(s0)
	mv	a5,a4
	slli	a5,a5,2
	add	a5,a5,a4
	slli	a5,a5,3
	add	a5,a3,a5
	sd	zero,64(a5)
	.loc 1 869 50
	ld	a3,-32(s0)
	lwu	a4,-60(s0)
	mv	a5,a4
	slli	a5,a5,2
	add	a5,a5,a4
	slli	a5,a5,3
	add	a5,a3,a5
	sd	zero,72(a5)
	.loc 1 870 50
	ld	a3,-32(s0)
	lwu	a4,-60(s0)
	mv	a5,a4
	slli	a5,a5,2
	add	a5,a5,a4
	slli	a5,a5,3
	add	a5,a3,a5
	sw	zero,88(a5)
	.loc 1 872 41
	ld	a5,-32(s0)
	sb	zero,624(a5)
	.loc 1 866 52 discriminator 3
	lw	a5,-60(s0)
	addiw	a5,a5,1
	sw	a5,-60(s0)
.L116:
	.loc 1 866 36 discriminator 1
	lw	a5,-60(s0)
	sext.w	a4,a5
	li	a5,5
	bleu	a4,a5,.L117
	.loc 1 862 34
	ld	a5,-40(s0)
	addi	a5,a5,16
	.loc 1 862 21
	ld	a1,-24(s0)
	mv	a0,a5
	call	GetNextNode@plt
	sd	a0,-24(s0)
.L113:
	.loc 1 861 23
	ld	a5,-40(s0)
	addi	a5,a5,16
	.loc 1 861 15
	ld	a1,-24(s0)
	mv	a0,a5
	call	IsNull@plt
	mv	a5,a0
	.loc 1 861 14 discriminator 1
	beq	a5,zero,.L118
	.loc 1 876 32
	ld	a5,-40(s0)
	li	a4,1
	sb	a4,32(a5)
	.loc 1 877 7
	j	.L119
.L110:
	.loc 1 883 32
	ld	a5,-40(s0)
	sb	zero,32(a5)
	.loc 1 884 7
	j	.L119
.L106:
	.loc 1 899 20
	sd	zero,-56(s0)
	.loc 1 904 33
	ld	a5,-40(s0)
	addi	a5,a5,16
	.loc 1 904 19
	mv	a0,a5
	call	GetFirstNode@plt
	sd	a0,-24(s0)
	.loc 1 904 7
	j	.L120
.L124:
	.loc 1 909 24
	ld	a5,-24(s0)
	addi	a5,a5,-8
	.loc 1 909 144
	lw	a4,0(a5)
	.loc 1 909 229
	li	a5,1651666944
	addi	a5,a5,95
	bne	a4,a5,.L121
	.loc 1 909 20 discriminator 1
	ld	a5,-24(s0)
	addi	a5,a5,-8
	sd	a5,-32(s0)
	j	.L122
.L121:
	.loc 1 909 20 is_stmt 0 discriminator 2
	sd	zero,-32(s0)
.L122:
	.loc 1 910 24 is_stmt 1
	ld	a5,-32(s0)
	lbu	a5,624(a5)
	.loc 1 910 12
	bne	a5,zero,.L123
	.loc 1 911 18
	li	a5,-1
	slli	a5,a5,63
	addi	a5,a5,6
	j	.L174
.L123:
	.loc 1 906 34
	ld	a5,-40(s0)
	addi	a5,a5,16
	.loc 1 906 21
	ld	a1,-24(s0)
	mv	a0,a5
	call	GetNextNode@plt
	sd	a0,-24(s0)
.L120:
	.loc 1 905 23
	ld	a5,-40(s0)
	addi	a5,a5,16
	.loc 1 905 15
	ld	a1,-24(s0)
	mv	a0,a5
	call	IsNull@plt
	mv	a5,a0
	.loc 1 905 14 discriminator 1
	beq	a5,zero,.L124
	.loc 1 916 33
	ld	a5,-40(s0)
	addi	a5,a5,16
	.loc 1 916 19
	mv	a0,a5
	call	GetFirstNode@plt
	sd	a0,-24(s0)
	.loc 1 916 7
	j	.L125
.L152:
	.loc 1 921 20
	sw	zero,-60(s0)
	.loc 1 921 9
	j	.L126
.L127:
	.loc 1 922 33
	lwu	a5,-60(s0)
	addi	a5,a5,-16
	add	a5,a5,s0
	sb	zero,-104(a5)
	.loc 1 921 52 discriminator 3
	lw	a5,-60(s0)
	addiw	a5,a5,1
	sw	a5,-60(s0)
.L126:
	.loc 1 921 36 discriminator 1
	lw	a5,-60(s0)
	sext.w	a4,a5
	li	a5,4
	bleu	a4,a5,.L127
	.loc 1 925 24
	ld	a5,-24(s0)
	addi	a5,a5,-8
	.loc 1 925 144
	lw	a4,0(a5)
	.loc 1 925 229
	li	a5,1651666944
	addi	a5,a5,95
	bne	a4,a5,.L128
	.loc 1 925 20 discriminator 1
	ld	a5,-24(s0)
	addi	a5,a5,-8
	sd	a5,-32(s0)
	j	.L129
.L128:
	.loc 1 925 20 is_stmt 0 discriminator 2
	sd	zero,-32(s0)
.L129:
	.loc 1 928 21 is_stmt 1
	sw	zero,-64(s0)
	.loc 1 928 9
	j	.L130
.L151:
	.loc 1 929 47
	ld	a3,-32(s0)
	lwu	a4,-64(s0)
	mv	a5,a4
	slli	a5,a5,2
	add	a5,a5,a4
	slli	a5,a5,3
	add	a5,a3,a5
	lw	a5,88(a5)
	.loc 1 929 14
	bne	a5,zero,.L131
	.loc 1 930 36
	lwu	a5,-64(s0)
	addi	a5,a5,-16
	add	a5,a5,s0
	li	a4,1
	sb	a4,-104(a5)
	j	.L132
.L131:
	.loc 1 935 26
	sd	zero,-80(s0)
	.loc 1 936 19
	li	a5,6
	sw	a5,-60(s0)
	.loc 1 937 25
	sw	zero,-68(s0)
	.loc 1 937 13
	j	.L133
.L136:
	.loc 1 938 33
	lwu	a5,-68(s0)
	addi	a5,a5,-16
	add	a5,a5,s0
	lbu	a5,-104(a5)
	.loc 1 938 18
	bne	a5,zero,.L182
	.loc 1 942 67
	ld	a3,-32(s0)
	lwu	a4,-68(s0)
	mv	a5,a4
	slli	a5,a5,2
	add	a5,a5,a4
	slli	a5,a5,3
	add	a5,a3,a5
	ld	a5,80(a5)
	.loc 1 942 18
	ld	a4,-80(s0)
	bgtu	a4,a5,.L135
	.loc 1 943 30
	ld	a3,-32(s0)
	lwu	a4,-68(s0)
	mv	a5,a4
	slli	a5,a5,2
	add	a5,a5,a4
	slli	a5,a5,3
	add	a5,a3,a5
	ld	a5,80(a5)
	sd	a5,-80(s0)
	.loc 1 944 23
	lw	a5,-68(s0)
	sw	a5,-60(s0)
	j	.L135
.L182:
	.loc 1 939 17
	nop
.L135:
	.loc 1 937 59 discriminator 2
	lw	a5,-68(s0)
	addiw	a5,a5,1
	sw	a5,-68(s0)
.L133:
	.loc 1 937 42 discriminator 1
	lw	a5,-68(s0)
	sext.w	a4,a5
	li	a5,4
	bleu	a4,a5,.L136
	.loc 1 949 35
	lwu	a5,-60(s0)
	addi	a5,a5,-16
	add	a5,a5,s0
	li	a4,1
	sb	a4,-104(a5)
	.loc 1 950 23
	ld	a3,-32(s0)
	lwu	a4,-60(s0)
	mv	a5,a4
	slli	a5,a5,2
	add	a5,a5,a4
	slli	a5,a5,3
	add	a5,a3,a5
	ld	a5,80(a5)
	sd	a5,-96(s0)
	.loc 1 951 31
	ld	a5,-96(s0)
	addi	a5,a5,1
	mv	a0,a5
	call	LowBitSet64@plt
	mv	a5,a0
	.loc 1 951 29 discriminator 1
	sd	a5,-104(s0)
	.loc 1 952 25
	li	a5,-1
	sd	a5,-48(s0)
	.loc 1 960 27
	lw	a5,-60(s0)
	mv	a1,a5
	ld	a0,-32(s0)
	call	GetTranslationByResourceType
	sd	a0,-112(s0)
	.loc 1 961 30
	ld	a4,-112(s0)
	ld	a5,-96(s0)
	and	a5,a4,a5
	.loc 1 961 16
	beq	a5,zero,.L137
	.loc 1 977 28
	li	a5,-1
	slli	a5,a5,63
	addi	a5,a5,9
	sd	a5,-56(s0)
	.loc 1 978 15
	j	.L132
.L137:
	.loc 1 981 13
	lw	a5,-60(s0)
	sext.w	a4,a5
	li	a5,4
	beq	a4,a5,.L138
	lw	a5,-60(s0)
	sext.w	a4,a5
	li	a5,4
	bgtu	a4,a5,.L183
	lw	a5,-60(s0)
	sext.w	a4,a5
	li	a5,3
	beq	a4,a5,.L140
	lw	a5,-60(s0)
	sext.w	a4,a5
	li	a5,3
	bgtu	a4,a5,.L183
	lw	a5,-60(s0)
	sext.w	a4,a5
	li	a5,2
	beq	a4,a5,.L141
	lw	a5,-60(s0)
	sext.w	a4,a5
	li	a5,2
	bgtu	a4,a5,.L183
	lw	a5,-60(s0)
	sext.w	a5,a5
	beq	a5,zero,.L142
	lw	a5,-60(s0)
	sext.w	a4,a5
	li	a5,1
	beq	a4,a5,.L143
	.loc 1 1080 17
	j	.L183
.L142:
	.loc 1 988 31
	ld	a3,-32(s0)
	lwu	a4,-60(s0)
	mv	a5,a4
	slli	a5,a5,2
	add	a5,a5,a4
	slli	a5,a5,3
	add	a5,a3,a5
	ld	a1,72(a5)
	ld	a5,-104(s0)
	li	a4,15
	bleu	a5,a4,.L144
	li	a5,15
.L144:
	.loc 1 992 51
	ld	a4,-32(s0)
	ld	a3,320(a4)
	.loc 1 992 95
	ld	a4,-32(s0)
	ld	a4,320(a4)
	.loc 1 992 78
	ld	a2,-96(s0)
	sub	a4,a2,a4
	addi	a2,a4,1
	.loc 1 992 103
	ld	a4,-96(s0)
	and	a4,a2,a4
	.loc 1 992 58
	add	a3,a3,a4
	.loc 1 992 148
	ld	a4,-32(s0)
	ld	a4,336(a4)
	.loc 1 988 31
	sub	a2,a3,a4
	.loc 1 996 49
	ld	a4,-32(s0)
	ld	a3,328(a4)
	.loc 1 996 74
	ld	a4,-32(s0)
	ld	a4,336(a4)
	.loc 1 988 31
	sub	a4,a3,a4
	mv	a3,a2
	mv	a2,a5
	li	a0,0
	call	AllocateResource
	sd	a0,-48(s0)
	.loc 1 1001 17
	j	.L175
.L140:
	.loc 1 1004 31
	ld	a3,-32(s0)
	lwu	a4,-60(s0)
	mv	a5,a4
	slli	a5,a5,2
	add	a5,a5,a4
	slli	a5,a5,3
	add	a5,a3,a5
	ld	a1,72(a5)
	ld	a5,-104(s0)
	li	a4,63
	bleu	a5,a4,.L146
	li	a5,63
.L146:
	.loc 1 1008 59
	ld	a4,-32(s0)
	ld	a3,392(a4)
	.loc 1 1008 111
	ld	a4,-32(s0)
	ld	a4,392(a4)
	.loc 1 1008 86
	ld	a2,-96(s0)
	sub	a4,a2,a4
	addi	a2,a4,1
	.loc 1 1008 119
	ld	a4,-96(s0)
	and	a4,a2,a4
	.loc 1 1008 66
	add	a3,a3,a4
	.loc 1 1008 172
	ld	a4,-32(s0)
	ld	a4,408(a4)
	.loc 1 1004 31
	sub	a2,a3,a4
	.loc 1 1012 57
	ld	a4,-32(s0)
	ld	a3,400(a4)
	.loc 1 1012 90
	ld	a4,-32(s0)
	ld	a4,408(a4)
	.loc 1 1004 31
	sub	a4,a3,a4
	mv	a3,a2
	mv	a2,a5
	li	a0,1
	call	AllocateResource
	sd	a0,-48(s0)
	.loc 1 1017 20
	ld	a4,-48(s0)
	li	a5,-1
	bne	a4,a5,.L184
.L143:
	.loc 1 1026 31
	ld	a3,-32(s0)
	lwu	a4,-60(s0)
	mv	a5,a4
	slli	a5,a5,2
	add	a5,a5,a4
	slli	a5,a5,3
	add	a5,a3,a5
	ld	a1,72(a5)
	ld	a5,-104(s0)
	li	a4,31
	bleu	a5,a4,.L147
	li	a5,31
.L147:
	.loc 1 1030 52
	ld	a4,-32(s0)
	ld	a3,344(a4)
	.loc 1 1030 97
	ld	a4,-32(s0)
	ld	a4,344(a4)
	.loc 1 1030 79
	ld	a2,-96(s0)
	sub	a4,a2,a4
	addi	a2,a4,1
	.loc 1 1030 105
	ld	a4,-96(s0)
	and	a4,a2,a4
	.loc 1 1030 59
	add	a3,a3,a4
	.loc 1 1030 151
	ld	a4,-32(s0)
	ld	a4,360(a4)
	.loc 1 1026 31
	sub	a2,a3,a4
	.loc 1 1034 50
	ld	a4,-32(s0)
	ld	a3,352(a4)
	.loc 1 1034 76
	ld	a4,-32(s0)
	ld	a4,360(a4)
	.loc 1 1026 31
	sub	a4,a3,a4
	mv	a3,a2
	mv	a2,a5
	li	a0,1
	call	AllocateResource
	sd	a0,-48(s0)
	.loc 1 1039 17
	j	.L175
.L138:
	.loc 1 1042 31
	ld	a3,-32(s0)
	lwu	a4,-60(s0)
	mv	a5,a4
	slli	a5,a5,2
	add	a5,a5,a4
	slli	a5,a5,3
	add	a5,a3,a5
	ld	a1,72(a5)
	ld	a5,-104(s0)
	li	a4,63
	bleu	a5,a4,.L148
	li	a5,63
.L148:
	.loc 1 1046 60
	ld	a4,-32(s0)
	ld	a3,416(a4)
	.loc 1 1046 113
	ld	a4,-32(s0)
	ld	a4,416(a4)
	.loc 1 1046 87
	ld	a2,-96(s0)
	sub	a4,a2,a4
	addi	a2,a4,1
	.loc 1 1046 121
	ld	a4,-96(s0)
	and	a4,a2,a4
	.loc 1 1046 67
	add	a3,a3,a4
	.loc 1 1046 175
	ld	a4,-32(s0)
	ld	a4,432(a4)
	.loc 1 1042 31
	sub	a2,a3,a4
	.loc 1 1050 58
	ld	a4,-32(s0)
	ld	a3,424(a4)
	.loc 1 1050 92
	ld	a4,-32(s0)
	ld	a4,432(a4)
	.loc 1 1042 31
	sub	a4,a3,a4
	mv	a3,a2
	mv	a2,a5
	li	a0,1
	call	AllocateResource
	sd	a0,-48(s0)
	.loc 1 1055 20
	ld	a4,-48(s0)
	li	a5,-1
	bne	a4,a5,.L185
.L141:
	.loc 1 1063 31
	ld	a3,-32(s0)
	lwu	a4,-60(s0)
	mv	a5,a4
	slli	a5,a5,2
	add	a5,a5,a4
	slli	a5,a5,3
	add	a5,a3,a5
	ld	a1,72(a5)
	ld	a5,-104(s0)
	li	a4,31
	bleu	a5,a4,.L149
	li	a5,31
.L149:
	.loc 1 1067 53
	ld	a4,-32(s0)
	ld	a3,368(a4)
	.loc 1 1067 99
	ld	a4,-32(s0)
	ld	a4,368(a4)
	.loc 1 1067 80
	ld	a2,-96(s0)
	sub	a4,a2,a4
	addi	a2,a4,1
	.loc 1 1067 107
	ld	a4,-96(s0)
	and	a4,a2,a4
	.loc 1 1067 60
	add	a3,a3,a4
	.loc 1 1067 154
	ld	a4,-32(s0)
	ld	a4,384(a4)
	.loc 1 1063 31
	sub	a2,a3,a4
	.loc 1 1071 51
	ld	a4,-32(s0)
	ld	a3,376(a4)
	.loc 1 1071 78
	ld	a4,-32(s0)
	ld	a4,384(a4)
	.loc 1 1063 31
	sub	a4,a3,a4
	mv	a3,a2
	mv	a2,a5
	li	a0,1
	call	AllocateResource
	sd	a0,-48(s0)
	.loc 1 1076 17
	j	.L175
.L183:
	.loc 1 1080 17
	nop
	j	.L175
.L184:
	.loc 1 1018 19
	nop
	j	.L175
.L185:
	.loc 1 1056 19
	nop
.L175:
	.loc 1 1091 16
	ld	a4,-48(s0)
	li	a5,-1
	beq	a4,a5,.L150
	.loc 1 1092 52
	ld	a3,-32(s0)
	lwu	a4,-60(s0)
	mv	a5,a4
	slli	a5,a5,2
	add	a5,a5,a4
	slli	a5,a5,3
	add	a5,a3,a5
	ld	a4,-48(s0)
	sd	a4,64(a5)
	.loc 1 1093 54
	ld	a3,-32(s0)
	lwu	a4,-60(s0)
	mv	a5,a4
	slli	a5,a5,2
	add	a5,a5,a4
	slli	a5,a5,3
	add	a5,a3,a5
	li	a4,2
	sw	a4,88(a5)
	j	.L132
.L150:
	.loc 1 1096 28
	li	a5,-1
	slli	a5,a5,63
	addi	a5,a5,9
	sd	a5,-56(s0)
.L132:
	.loc 1 928 55 discriminator 2
	lw	a5,-64(s0)
	addiw	a5,a5,1
	sw	a5,-64(s0)
.L130:
	.loc 1 928 38 discriminator 1
	lw	a5,-64(s0)
	sext.w	a4,a5
	li	a5,4
	bleu	a4,a5,.L151
	.loc 1 918 34
	ld	a5,-40(s0)
	addi	a5,a5,16
	.loc 1 918 21
	ld	a1,-24(s0)
	mv	a0,a5
	call	GetNextNode@plt
	sd	a0,-24(s0)
.L125:
	.loc 1 917 23
	ld	a5,-40(s0)
	addi	a5,a5,16
	.loc 1 917 15
	ld	a1,-24(s0)
	mv	a0,a5
	call	IsNull@plt
	mv	a5,a0
	.loc 1 917 14 discriminator 1
	beq	a5,zero,.L152
	.loc 1 1103 10
	ld	a4,-56(s0)
	li	a5,-1
	slli	a5,a5,63
	addi	a5,a5,9
	bne	a4,a5,.L153
	.loc 1 1104 9
	ld	a0,-40(s0)
	call	ResourceConflict
.L153:
	.loc 1 1110 33
	ld	a5,-40(s0)
	addi	a5,a5,16
	.loc 1 1110 19
	mv	a0,a5
	call	GetFirstNode@plt
	sd	a0,-24(s0)
	.loc 1 1110 7
	j	.L154
.L160:
	.loc 1 1115 24
	ld	a5,-24(s0)
	addi	a5,a5,-8
	.loc 1 1115 144
	lw	a4,0(a5)
	.loc 1 1115 229
	li	a5,1651666944
	addi	a5,a5,95
	bne	a4,a5,.L155
	.loc 1 1115 20 discriminator 1
	ld	a5,-24(s0)
	addi	a5,a5,-8
	sd	a5,-32(s0)
	j	.L156
.L155:
	.loc 1 1115 20 is_stmt 0 discriminator 2
	sd	zero,-32(s0)
.L156:
	.loc 1 1116 20 is_stmt 1
	sw	zero,-60(s0)
	.loc 1 1116 9
	j	.L157
.L159:
	.loc 1 1117 46
	ld	a3,-32(s0)
	lwu	a4,-60(s0)
	mv	a5,a4
	slli	a5,a5,2
	add	a5,a5,a4
	slli	a5,a5,3
	add	a5,a3,a5
	lw	a4,88(a5)
	.loc 1 1117 14
	li	a5,2
	beq	a4,a5,.L158
	.loc 1 1118 52
	ld	a3,-32(s0)
	lwu	a4,-60(s0)
	mv	a5,a4
	slli	a5,a5,2
	add	a5,a5,a4
	slli	a5,a5,3
	add	a5,a3,a5
	sd	zero,72(a5)
.L158:
	.loc 1 1116 52 discriminator 2
	lw	a5,-60(s0)
	addiw	a5,a5,1
	sw	a5,-60(s0)
.L157:
	.loc 1 1116 36 discriminator 1
	lw	a5,-60(s0)
	sext.w	a4,a5
	li	a5,4
	bleu	a4,a5,.L159
	.loc 1 1112 34
	ld	a5,-40(s0)
	addi	a5,a5,16
	.loc 1 1112 21
	ld	a1,-24(s0)
	mv	a0,a5
	call	GetNextNode@plt
	sd	a0,-24(s0)
.L154:
	.loc 1 1111 23
	ld	a5,-40(s0)
	addi	a5,a5,16
	.loc 1 1111 15
	ld	a1,-24(s0)
	mv	a0,a5
	call	IsNull@plt
	mv	a5,a0
	.loc 1 1111 14 discriminator 1
	beq	a5,zero,.L160
	.loc 1 1123 14
	ld	a5,-56(s0)
	j	.L174
.L104:
	.loc 1 1135 20
	sd	zero,-56(s0)
	.loc 1 1136 33
	ld	a5,-40(s0)
	addi	a5,a5,16
	.loc 1 1136 19
	mv	a0,a5
	call	GetFirstNode@plt
	sd	a0,-24(s0)
	.loc 1 1136 7
	j	.L161
.L173:
	.loc 1 1141 24
	ld	a5,-24(s0)
	addi	a5,a5,-8
	.loc 1 1141 144
	lw	a4,0(a5)
	.loc 1 1141 229
	li	a5,1651666944
	addi	a5,a5,95
	bne	a4,a5,.L162
	.loc 1 1141 20 discriminator 1
	ld	a5,-24(s0)
	addi	a5,a5,-8
	sd	a5,-32(s0)
	j	.L163
.L162:
	.loc 1 1141 20 is_stmt 0 discriminator 2
	sd	zero,-32(s0)
.L163:
	.loc 1 1142 20 is_stmt 1
	sw	zero,-60(s0)
	.loc 1 1142 9
	j	.L164
.L172:
	.loc 1 1143 46
	ld	a3,-32(s0)
	lwu	a4,-60(s0)
	mv	a5,a4
	slli	a5,a5,2
	add	a5,a5,a4
	slli	a5,a5,3
	add	a5,a3,a5
	lw	a4,88(a5)
	.loc 1 1143 14
	li	a5,2
	bne	a4,a5,.L165
	.loc 1 1144 13
	lw	a5,-60(s0)
	sext.w	a5,a5
	beq	a5,zero,.L166
	lw	a5,-60(s0)
	addiw	a5,a5,-1
	sext.w	a4,a5
	li	a5,3
	bgtu	a4,a5,.L186
	j	.L176
.L166:
	.loc 1 1146 29
	la	a5,gDS
	ld	a5,0(a5)
	ld	a3,96(a5)
	.loc 1 1146 75
	ld	a2,-32(s0)
	lwu	a4,-60(s0)
	mv	a5,a4
	slli	a5,a5,2
	add	a5,a5,a4
	slli	a5,a5,3
	add	a5,a2,a5
	ld	a0,64(a5)
	.loc 1 1146 26
	ld	a2,-32(s0)
	lwu	a4,-60(s0)
	mv	a5,a4
	slli	a5,a5,2
	add	a5,a5,a4
	slli	a5,a5,3
	add	a5,a2,a5
	ld	a5,72(a5)
	mv	a1,a5
	jalr	a3
.LVL17:
	sd	a0,-88(s0)
	.loc 1 1147 48
	ld	a5,-88(s0)
	.loc 1 1147 20
	bge	a5,zero,.L187
	.loc 1 1148 32
	ld	a5,-88(s0)
	sd	a5,-56(s0)
	.loc 1 1151 17
	j	.L187
.L176:
	.loc 1 1157 29
	la	a5,gDS
	ld	a5,0(a5)
	ld	a3,40(a5)
	.loc 1 1157 79
	ld	a2,-32(s0)
	lwu	a4,-60(s0)
	mv	a5,a4
	slli	a5,a5,2
	add	a5,a5,a4
	slli	a5,a5,3
	add	a5,a2,a5
	ld	a0,64(a5)
	.loc 1 1157 26
	ld	a2,-32(s0)
	lwu	a4,-60(s0)
	mv	a5,a4
	slli	a5,a5,2
	add	a5,a5,a4
	slli	a5,a5,3
	add	a5,a2,a5
	ld	a5,72(a5)
	mv	a1,a5
	jalr	a3
.LVL18:
	sd	a0,-88(s0)
	.loc 1 1158 48
	ld	a5,-88(s0)
	.loc 1 1158 20
	bge	a5,zero,.L188
	.loc 1 1159 32
	ld	a5,-88(s0)
	sd	a5,-56(s0)
	.loc 1 1162 17
	j	.L188
.L186:
	.loc 1 1166 17
	nop
	j	.L170
.L187:
	.loc 1 1151 17
	nop
	j	.L170
.L188:
	.loc 1 1162 17
	nop
.L170:
	.loc 1 1169 50
	ld	a3,-32(s0)
	lwu	a4,-60(s0)
	mv	a5,a4
	slli	a5,a5,2
	add	a5,a5,a4
	slli	a5,a5,3
	add	a5,a3,a5
	lw	a4,-60(s0)
	sw	a4,56(a5)
	.loc 1 1170 50
	ld	a3,-32(s0)
	lwu	a4,-60(s0)
	mv	a5,a4
	slli	a5,a5,2
	add	a5,a5,a4
	slli	a5,a5,3
	add	a5,a3,a5
	sd	zero,64(a5)
	.loc 1 1171 52
	ld	a3,-32(s0)
	lwu	a4,-60(s0)
	mv	a5,a4
	slli	a5,a5,2
	add	a5,a5,a4
	slli	a5,a5,3
	add	a5,a3,a5
	sd	zero,72(a5)
	.loc 1 1172 52
	ld	a3,-32(s0)
	lwu	a4,-60(s0)
	mv	a5,a4
	slli	a5,a5,2
	add	a5,a5,a4
	slli	a5,a5,3
	add	a5,a3,a5
	sw	zero,88(a5)
.L165:
	.loc 1 1142 52 discriminator 2
	lw	a5,-60(s0)
	addiw	a5,a5,1
	sw	a5,-60(s0)
.L164:
	.loc 1 1142 36 discriminator 1
	lw	a5,-60(s0)
	sext.w	a4,a5
	li	a5,4
	bleu	a4,a5,.L172
	.loc 1 1176 39
	ld	a5,-32(s0)
	sb	zero,624(a5)
	.loc 1 1138 34
	ld	a5,-40(s0)
	addi	a5,a5,16
	.loc 1 1138 21
	ld	a1,-24(s0)
	mv	a0,a5
	call	GetNextNode@plt
	sd	a0,-24(s0)
.L161:
	.loc 1 1137 23
	ld	a5,-40(s0)
	addi	a5,a5,16
	.loc 1 1137 15
	ld	a1,-24(s0)
	mv	a0,a5
	call	IsNull@plt
	mv	a5,a0
	.loc 1 1137 14 discriminator 1
	beq	a5,zero,.L173
	.loc 1 1179 32
	ld	a5,-40(s0)
	li	a4,1
	sb	a4,32(a5)
	.loc 1 1180 14
	ld	a5,-56(s0)
	j	.L174
.L102:
	.loc 1 1197 14
	li	a5,-1
	slli	a5,a5,63
	addi	a5,a5,2
	j	.L174
.L177:
	.loc 1 1194 7
	nop
	j	.L119
.L178:
	.loc 1 1187 7
	nop
	j	.L119
.L179:
	.loc 1 1129 7
	nop
	j	.L119
.L180:
	.loc 1 896 7
	nop
	j	.L119
.L181:
	.loc 1 890 7
	nop
.L119:
	.loc 1 1200 10
	li	a5,0
.L174:
	.loc 1 1201 1
	mv	a0,a5
	ld	ra,136(sp)
	.cfi_restore 1
	ld	s0,128(sp)
	.cfi_restore 8
	.cfi_def_cfa 2, 144
	addi	sp,sp,144
	.cfi_def_cfa_offset 0
	jr	ra
	.cfi_endproc
.LFE9:
	.size	NotifyPhase, .-NotifyPhase
	.section	.text.GetNextRootBridge,"ax",@progbits
	.align	1
	.globl	GetNextRootBridge
	.type	GetNextRootBridge, @function
GetNextRootBridge:
.LFB10:
	.loc 1 1225 1
	.cfi_startproc
	addi	sp,sp,-64
	.cfi_def_cfa_offset 64
	sd	ra,56(sp)
	sd	s0,48(sp)
	.cfi_offset 1, -8
	.cfi_offset 8, -16
	addi	s0,sp,64
	.cfi_def_cfa 8, 0
	sd	a0,-56(s0)
	sd	a1,-64(s0)
	.loc 1 1231 6
	ld	a5,-64(s0)
	bne	a5,zero,.L190
	.loc 1 1232 12
	li	a5,-1
	slli	a5,a5,63
	addi	a5,a5,2
	j	.L191
.L190:
	.loc 1 1235 18
	ld	a5,-56(s0)
	addi	a5,a5,-40
	.loc 1 1235 142
	ld	a4,0(a5)
	.loc 1 1235 227
	li	a5,1734504448
	addi	a5,a5,-1936
	bne	a4,a5,.L192
	.loc 1 1235 14 discriminator 1
	ld	a5,-56(s0)
	addi	a5,a5,-40
	sd	a5,-40(s0)
	j	.L193
.L192:
	.loc 1 1235 14 is_stmt 0 discriminator 2
	sd	zero,-40(s0)
.L193:
	.loc 1 1236 26 is_stmt 1
	ld	a5,-64(s0)
	ld	a5,0(a5)
	.loc 1 1236 16
	seqz	a5,a5
	andi	a5,a5,0xff
	.loc 1 1236 14
	sb	a5,-17(s0)
	.loc 1 1238 29
	ld	a5,-40(s0)
	addi	a5,a5,16
	.loc 1 1238 15
	mv	a0,a5
	call	GetFirstNode@plt
	sd	a0,-32(s0)
	.loc 1 1238 3
	j	.L194
.L198:
	.loc 1 1243 20
	ld	a5,-32(s0)
	addi	a5,a5,-8
	.loc 1 1243 140
	lw	a4,0(a5)
	.loc 1 1243 225
	li	a5,1651666944
	addi	a5,a5,95
	bne	a4,a5,.L195
	.loc 1 1243 16 discriminator 1
	ld	a5,-32(s0)
	addi	a5,a5,-8
	sd	a5,-48(s0)
	j	.L196
.L195:
	.loc 1 1243 16 is_stmt 0 discriminator 2
	sd	zero,-48(s0)
.L196:
	.loc 1 1244 8 is_stmt 1
	lbu	a5,-17(s0)
	andi	a5,a5,0xff
	beq	a5,zero,.L197
	.loc 1 1245 37
	ld	a5,-48(s0)
	ld	a4,24(a5)
	.loc 1 1245 25
	ld	a5,-64(s0)
	sd	a4,0(a5)
	.loc 1 1246 14
	li	a5,0
	j	.L191
.L197:
	.loc 1 1249 28
	ld	a5,-64(s0)
	ld	a4,0(a5)
	.loc 1 1249 59
	ld	a5,-48(s0)
	ld	a5,24(a5)
	.loc 1 1249 18
	sub	a5,a4,a5
	seqz	a5,a5
	andi	a5,a5,0xff
	.loc 1 1249 16
	sb	a5,-17(s0)
	.loc 1 1240 30
	ld	a5,-40(s0)
	addi	a5,a5,16
	.loc 1 1240 17
	ld	a1,-32(s0)
	mv	a0,a5
	call	GetNextNode@plt
	sd	a0,-32(s0)
.L194:
	.loc 1 1239 19
	ld	a5,-40(s0)
	addi	a5,a5,16
	.loc 1 1239 11
	ld	a1,-32(s0)
	mv	a0,a5
	call	IsNull@plt
	mv	a5,a0
	.loc 1 1239 10 discriminator 1
	beq	a5,zero,.L198
	.loc 1 1252 6
	lbu	a5,-17(s0)
	andi	a5,a5,0xff
	beq	a5,zero,.L199
	.loc 1 1254 12
	li	a5,-1
	slli	a5,a5,63
	addi	a5,a5,14
	j	.L191
.L199:
	.loc 1 1256 12
	li	a5,-1
	slli	a5,a5,63
	addi	a5,a5,2
.L191:
	.loc 1 1258 1
	mv	a0,a5
	ld	ra,56(sp)
	.cfi_restore 1
	ld	s0,48(sp)
	.cfi_restore 8
	.cfi_def_cfa 2, 64
	addi	sp,sp,64
	.cfi_def_cfa_offset 0
	jr	ra
	.cfi_endproc
.LFE10:
	.size	GetNextRootBridge, .-GetNextRootBridge
	.section	.text.GetAttributes,"ax",@progbits
	.align	1
	.globl	GetAttributes
	.type	GetAttributes, @function
GetAttributes:
.LFB11:
	.loc 1 1283 1
	.cfi_startproc
	addi	sp,sp,-80
	.cfi_def_cfa_offset 80
	sd	ra,72(sp)
	sd	s0,64(sp)
	.cfi_offset 1, -8
	.cfi_offset 8, -16
	addi	s0,sp,80
	.cfi_def_cfa 8, 0
	sd	a0,-56(s0)
	sd	a1,-64(s0)
	sd	a2,-72(s0)
	.loc 1 1288 6
	ld	a5,-72(s0)
	bne	a5,zero,.L201
	.loc 1 1289 12
	li	a5,-1
	slli	a5,a5,63
	addi	a5,a5,2
	j	.L202
.L201:
	.loc 1 1292 18
	ld	a5,-56(s0)
	addi	a5,a5,-40
	.loc 1 1292 142
	ld	a4,0(a5)
	.loc 1 1292 227
	li	a5,1734504448
	addi	a5,a5,-1936
	bne	a4,a5,.L203
	.loc 1 1292 14 discriminator 1
	ld	a5,-56(s0)
	addi	a5,a5,-40
	sd	a5,-32(s0)
	j	.L204
.L203:
	.loc 1 1292 14 is_stmt 0 discriminator 2
	sd	zero,-32(s0)
.L204:
	.loc 1 1293 29 is_stmt 1
	ld	a5,-32(s0)
	addi	a5,a5,16
	.loc 1 1293 15
	mv	a0,a5
	call	GetFirstNode@plt
	sd	a0,-24(s0)
	.loc 1 1293 3
	j	.L205
.L209:
	.loc 1 1298 20
	ld	a5,-24(s0)
	addi	a5,a5,-8
	.loc 1 1298 140
	lw	a4,0(a5)
	.loc 1 1298 225
	li	a5,1651666944
	addi	a5,a5,95
	bne	a4,a5,.L206
	.loc 1 1298 16 discriminator 1
	ld	a5,-24(s0)
	addi	a5,a5,-8
	sd	a5,-40(s0)
	j	.L207
.L206:
	.loc 1 1298 16 is_stmt 0 discriminator 2
	sd	zero,-40(s0)
.L207:
	.loc 1 1299 39 is_stmt 1
	ld	a5,-40(s0)
	ld	a5,24(a5)
	.loc 1 1299 8
	ld	a4,-64(s0)
	bne	a4,a5,.L208
	.loc 1 1300 31
	ld	a5,-40(s0)
	ld	a4,32(a5)
	.loc 1 1300 19
	ld	a5,-72(s0)
	sd	a4,0(a5)
	.loc 1 1301 14
	li	a5,0
	j	.L202
.L208:
	.loc 1 1295 30
	ld	a5,-32(s0)
	addi	a5,a5,16
	.loc 1 1295 17
	ld	a1,-24(s0)
	mv	a0,a5
	call	GetNextNode@plt
	sd	a0,-24(s0)
.L205:
	.loc 1 1294 19
	ld	a5,-32(s0)
	addi	a5,a5,16
	.loc 1 1294 11
	ld	a1,-24(s0)
	mv	a0,a5
	call	IsNull@plt
	mv	a5,a0
	.loc 1 1294 10 discriminator 1
	beq	a5,zero,.L209
	.loc 1 1305 10
	li	a5,-1
	slli	a5,a5,63
	addi	a5,a5,2
.L202:
	.loc 1 1306 1
	mv	a0,a5
	ld	ra,72(sp)
	.cfi_restore 1
	ld	s0,64(sp)
	.cfi_restore 8
	.cfi_def_cfa 2, 80
	addi	sp,sp,80
	.cfi_def_cfa_offset 0
	jr	ra
	.cfi_endproc
.LFE11:
	.size	GetAttributes, .-GetAttributes
	.section	.text.StartBusEnumeration,"ax",@progbits
	.align	1
	.globl	StartBusEnumeration
	.type	StartBusEnumeration, @function
StartBusEnumeration:
.LFB12:
	.loc 1 1329 1
	.cfi_startproc
	addi	sp,sp,-96
	.cfi_def_cfa_offset 96
	sd	ra,88(sp)
	sd	s0,80(sp)
	.cfi_offset 1, -8
	.cfi_offset 8, -16
	addi	s0,sp,96
	.cfi_def_cfa 8, 0
	sd	a0,-72(s0)
	sd	a1,-80(s0)
	sd	a2,-88(s0)
	.loc 1 1336 6
	ld	a5,-88(s0)
	bne	a5,zero,.L211
	.loc 1 1337 12
	li	a5,-1
	slli	a5,a5,63
	addi	a5,a5,2
	j	.L212
.L211:
	.loc 1 1340 18
	ld	a5,-72(s0)
	addi	a5,a5,-40
	.loc 1 1340 142
	ld	a4,0(a5)
	.loc 1 1340 227
	li	a5,1734504448
	addi	a5,a5,-1936
	bne	a4,a5,.L213
	.loc 1 1340 14 discriminator 1
	ld	a5,-72(s0)
	addi	a5,a5,-40
	sd	a5,-32(s0)
	j	.L214
.L213:
	.loc 1 1340 14 is_stmt 0 discriminator 2
	sd	zero,-32(s0)
.L214:
	.loc 1 1341 29 is_stmt 1
	ld	a5,-32(s0)
	addi	a5,a5,16
	.loc 1 1341 15
	mv	a0,a5
	call	GetFirstNode@plt
	sd	a0,-24(s0)
	.loc 1 1341 3
	j	.L215
.L220:
	.loc 1 1346 20
	ld	a5,-24(s0)
	addi	a5,a5,-8
	.loc 1 1346 140
	lw	a4,0(a5)
	.loc 1 1346 225
	li	a5,1651666944
	addi	a5,a5,95
	bne	a4,a5,.L216
	.loc 1 1346 16 discriminator 1
	ld	a5,-24(s0)
	addi	a5,a5,-8
	sd	a5,-40(s0)
	j	.L217
.L216:
	.loc 1 1346 16 is_stmt 0 discriminator 2
	sd	zero,-40(s0)
.L217:
	.loc 1 1347 39 is_stmt 1
	ld	a5,-40(s0)
	ld	a5,24(a5)
	.loc 1 1347 8
	ld	a4,-80(s0)
	bne	a4,a5,.L218
	.loc 1 1348 24
	li	a0,48
	call	AllocatePool@plt
	mv	a4,a0
	.loc 1 1348 22 discriminator 1
	ld	a5,-88(s0)
	sd	a4,0(a5)
	.loc 1 1349 11
	ld	a5,-88(s0)
	ld	a5,0(a5)
	.loc 1 1349 10
	bne	a5,zero,.L219
	.loc 1 1350 16
	li	a5,-1
	slli	a5,a5,63
	addi	a5,a5,9
	j	.L212
.L219:
	.loc 1 1353 18
	ld	a5,-88(s0)
	ld	a5,0(a5)
	sd	a5,-48(s0)
	.loc 1 1354 24
	ld	a5,-48(s0)
	li	a4,-118
	sb	a4,0(a5)
	.loc 1 1355 23
	ld	a5,-48(s0)
	lbu	a4,1(a5)
	andi	a4,a4,0
	ori	a4,a4,43
	sb	a4,1(a5)
	lbu	a4,2(a5)
	andi	a4,a4,0
	sb	a4,2(a5)
	.loc 1 1356 27
	ld	a5,-48(s0)
	li	a4,2
	sb	a4,3(a5)
	.loc 1 1357 27
	ld	a5,-48(s0)
	sb	zero,4(a5)
	.loc 1 1358 32
	ld	a5,-48(s0)
	sb	zero,5(a5)
	.loc 1 1359 40
	ld	a5,-48(s0)
	lbu	a4,6(a5)
	andi	a4,a4,0
	sb	a4,6(a5)
	lbu	a4,7(a5)
	andi	a4,a4,0
	sb	a4,7(a5)
	lbu	a4,8(a5)
	andi	a4,a4,0
	sb	a4,8(a5)
	lbu	a4,9(a5)
	andi	a4,a4,0
	sb	a4,9(a5)
	lbu	a4,10(a5)
	andi	a4,a4,0
	sb	a4,10(a5)
	lbu	a4,11(a5)
	andi	a4,a4,0
	sb	a4,11(a5)
	lbu	a4,12(a5)
	andi	a4,a4,0
	sb	a4,12(a5)
	lbu	a4,13(a5)
	andi	a4,a4,0
	sb	a4,13(a5)
	.loc 1 1360 49
	ld	a5,-40(s0)
	ld	a4,296(a5)
	.loc 1 1360 32
	ld	a5,-48(s0)
	andi	a3,a4,255
	lbu	a2,14(a5)
	andi	a2,a2,0
	or	a3,a2,a3
	sb	a3,14(a5)
	srli	a3,a4,8
	andi	a3,a3,255
	lbu	a2,15(a5)
	andi	a2,a2,0
	or	a3,a2,a3
	sb	a3,15(a5)
	srli	a3,a4,16
	andi	a3,a3,255
	lbu	a2,16(a5)
	andi	a2,a2,0
	or	a3,a2,a3
	sb	a3,16(a5)
	srli	a3,a4,24
	andi	a3,a3,255
	lbu	a2,17(a5)
	andi	a2,a2,0
	or	a3,a2,a3
	sb	a3,17(a5)
	srli	a3,a4,32
	andi	a3,a3,255
	lbu	a2,18(a5)
	andi	a2,a2,0
	or	a3,a2,a3
	sb	a3,18(a5)
	srli	a3,a4,40
	andi	a3,a3,255
	lbu	a2,19(a5)
	andi	a2,a2,0
	or	a3,a2,a3
	sb	a3,19(a5)
	srli	a3,a4,48
	andi	a3,a3,255
	lbu	a2,20(a5)
	andi	a2,a2,0
	or	a3,a2,a3
	sb	a3,20(a5)
	srli	a4,a4,56
	lbu	a3,21(a5)
	andi	a3,a3,0
	or	a4,a3,a4
	sb	a4,21(a5)
	.loc 1 1361 32
	ld	a5,-48(s0)
	lbu	a4,22(a5)
	andi	a4,a4,0
	sb	a4,22(a5)
	lbu	a4,23(a5)
	andi	a4,a4,0
	sb	a4,23(a5)
	lbu	a4,24(a5)
	andi	a4,a4,0
	sb	a4,24(a5)
	lbu	a4,25(a5)
	andi	a4,a4,0
	sb	a4,25(a5)
	lbu	a4,26(a5)
	andi	a4,a4,0
	sb	a4,26(a5)
	lbu	a4,27(a5)
	andi	a4,a4,0
	sb	a4,27(a5)
	lbu	a4,28(a5)
	andi	a4,a4,0
	sb	a4,28(a5)
	lbu	a4,29(a5)
	andi	a4,a4,0
	sb	a4,29(a5)
	.loc 1 1362 41
	ld	a5,-48(s0)
	lbu	a4,30(a5)
	andi	a4,a4,0
	sb	a4,30(a5)
	lbu	a4,31(a5)
	andi	a4,a4,0
	sb	a4,31(a5)
	lbu	a4,32(a5)
	andi	a4,a4,0
	sb	a4,32(a5)
	lbu	a4,33(a5)
	andi	a4,a4,0
	sb	a4,33(a5)
	lbu	a4,34(a5)
	andi	a4,a4,0
	sb	a4,34(a5)
	lbu	a4,35(a5)
	andi	a4,a4,0
	sb	a4,35(a5)
	lbu	a4,36(a5)
	andi	a4,a4,0
	sb	a4,36(a5)
	lbu	a4,37(a5)
	andi	a4,a4,0
	sb	a4,37(a5)
	.loc 1 1363 44
	ld	a5,-40(s0)
	ld	a4,304(a5)
	.loc 1 1363 68
	ld	a5,-40(s0)
	ld	a5,296(a5)
	.loc 1 1363 51
	sub	a5,a4,a5
	.loc 1 1363 74
	addi	a4,a5,1
	.loc 1 1363 27
	ld	a5,-48(s0)
	andi	a3,a4,255
	lbu	a2,38(a5)
	andi	a2,a2,0
	or	a3,a2,a3
	sb	a3,38(a5)
	srli	a3,a4,8
	andi	a3,a3,255
	lbu	a2,39(a5)
	andi	a2,a2,0
	or	a3,a2,a3
	sb	a3,39(a5)
	srli	a3,a4,16
	andi	a3,a3,255
	lbu	a2,40(a5)
	andi	a2,a2,0
	or	a3,a2,a3
	sb	a3,40(a5)
	srli	a3,a4,24
	andi	a3,a3,255
	lbu	a2,41(a5)
	andi	a2,a2,0
	or	a3,a2,a3
	sb	a3,41(a5)
	srli	a3,a4,32
	andi	a3,a3,255
	lbu	a2,42(a5)
	andi	a2,a2,0
	or	a3,a2,a3
	sb	a3,42(a5)
	srli	a3,a4,40
	andi	a3,a3,255
	lbu	a2,43(a5)
	andi	a2,a2,0
	or	a3,a2,a3
	sb	a3,43(a5)
	srli	a3,a4,48
	andi	a3,a3,255
	lbu	a2,44(a5)
	andi	a2,a2,0
	or	a3,a2,a3
	sb	a3,44(a5)
	srli	a4,a4,56
	lbu	a3,45(a5)
	andi	a3,a3,0
	or	a4,a3,a4
	sb	a4,45(a5)
	.loc 1 1365 11
	ld	a5,-48(s0)
	addi	a5,a5,46
	sd	a5,-56(s0)
	.loc 1 1366 17
	ld	a5,-56(s0)
	li	a4,121
	sb	a4,0(a5)
	.loc 1 1367 21
	ld	a5,-56(s0)
	sb	zero,1(a5)
	.loc 1 1369 14
	li	a5,0
	j	.L212
.L218:
	.loc 1 1343 30
	ld	a5,-32(s0)
	addi	a5,a5,16
	.loc 1 1343 17
	ld	a1,-24(s0)
	mv	a0,a5
	call	GetNextNode@plt
	sd	a0,-24(s0)
.L215:
	.loc 1 1342 19
	ld	a5,-32(s0)
	addi	a5,a5,16
	.loc 1 1342 11
	ld	a1,-24(s0)
	mv	a0,a5
	call	IsNull@plt
	mv	a5,a0
	.loc 1 1342 10 discriminator 1
	beq	a5,zero,.L220
	.loc 1 1373 10
	li	a5,-1
	slli	a5,a5,63
	addi	a5,a5,2
.L212:
	.loc 1 1374 1
	mv	a0,a5
	ld	ra,88(sp)
	.cfi_restore 1
	ld	s0,80(sp)
	.cfi_restore 8
	.cfi_def_cfa 2, 96
	addi	sp,sp,96
	.cfi_def_cfa_offset 0
	jr	ra
	.cfi_endproc
.LFE12:
	.size	StartBusEnumeration, .-StartBusEnumeration
	.section	.text.SetBusNumbers,"ax",@progbits
	.align	1
	.globl	SetBusNumbers
	.type	SetBusNumbers, @function
SetBusNumbers:
.LFB13:
	.loc 1 1396 1
	.cfi_startproc
	addi	sp,sp,-96
	.cfi_def_cfa_offset 96
	sd	ra,88(sp)
	sd	s0,80(sp)
	.cfi_offset 1, -8
	.cfi_offset 8, -16
	addi	s0,sp,96
	.cfi_def_cfa 8, 0
	sd	a0,-72(s0)
	sd	a1,-80(s0)
	sd	a2,-88(s0)
	.loc 1 1403 6
	ld	a5,-88(s0)
	bne	a5,zero,.L222
	.loc 1 1404 12
	li	a5,-1
	slli	a5,a5,63
	addi	a5,a5,2
	j	.L223
.L222:
	.loc 1 1407 14
	ld	a5,-88(s0)
	sd	a5,-48(s0)
	.loc 1 1408 7
	ld	a5,-48(s0)
	addi	a5,a5,46
	sd	a5,-56(s0)
	.loc 1 1413 18
	ld	a5,-48(s0)
	lbu	a5,0(a5)
	.loc 1 1413 6
	mv	a4,a5
	li	a5,138
	bne	a4,a5,.L224
	.loc 1 1414 18
	ld	a5,-48(s0)
	lbu	a5,3(a5)
	.loc 1 1413 34 discriminator 1
	mv	a4,a5
	li	a5,2
	bne	a4,a5,.L224
	.loc 1 1415 11
	ld	a5,-56(s0)
	lbu	a5,0(a5)
	.loc 1 1414 37
	mv	a4,a5
	li	a5,121
	beq	a4,a5,.L225
.L224:
	.loc 1 1418 12
	li	a5,-1
	slli	a5,a5,63
	addi	a5,a5,2
	j	.L223
.L225:
	.loc 1 1421 18
	ld	a5,-72(s0)
	addi	a5,a5,-40
	.loc 1 1421 142
	ld	a4,0(a5)
	.loc 1 1421 227
	li	a5,1734504448
	addi	a5,a5,-1936
	bne	a4,a5,.L226
	.loc 1 1421 14 discriminator 1
	ld	a5,-72(s0)
	addi	a5,a5,-40
	sd	a5,-32(s0)
	j	.L227
.L226:
	.loc 1 1421 14 is_stmt 0 discriminator 2
	sd	zero,-32(s0)
.L227:
	.loc 1 1422 29 is_stmt 1
	ld	a5,-32(s0)
	addi	a5,a5,16
	.loc 1 1422 15
	mv	a0,a5
	call	GetFirstNode@plt
	sd	a0,-24(s0)
	.loc 1 1422 3
	j	.L228
.L235:
	.loc 1 1427 20
	ld	a5,-24(s0)
	addi	a5,a5,-8
	.loc 1 1427 140
	lw	a4,0(a5)
	.loc 1 1427 225
	li	a5,1651666944
	addi	a5,a5,95
	bne	a4,a5,.L229
	.loc 1 1427 16 discriminator 1
	ld	a5,-24(s0)
	addi	a5,a5,-8
	sd	a5,-40(s0)
	j	.L230
.L229:
	.loc 1 1427 16 is_stmt 0 discriminator 2
	sd	zero,-40(s0)
.L230:
	.loc 1 1428 39 is_stmt 1
	ld	a5,-40(s0)
	ld	a5,24(a5)
	.loc 1 1428 8
	ld	a4,-80(s0)
	bne	a4,a5,.L231
	.loc 1 1429 21
	ld	a5,-48(s0)
	lbu	a4,38(a5)
	lbu	a3,39(a5)
	slli	a3,a3,8
	or	a4,a3,a4
	lbu	a3,40(a5)
	slli	a3,a3,16
	or	a4,a3,a4
	lbu	a3,41(a5)
	slli	a3,a3,24
	or	a4,a3,a4
	lbu	a3,42(a5)
	slli	a3,a3,32
	or	a4,a3,a4
	lbu	a3,43(a5)
	slli	a3,a3,40
	or	a4,a3,a4
	lbu	a3,44(a5)
	slli	a3,a3,48
	or	a4,a3,a4
	lbu	a5,45(a5)
	slli	a5,a5,56
	or	a5,a5,a4
	.loc 1 1429 10
	bne	a5,zero,.L232
	.loc 1 1430 16
	li	a5,-1
	slli	a5,a5,63
	addi	a5,a5,2
	j	.L223
.L232:
	.loc 1 1433 22
	ld	a5,-48(s0)
	lbu	a4,14(a5)
	lbu	a3,15(a5)
	slli	a3,a3,8
	or	a4,a3,a4
	lbu	a3,16(a5)
	slli	a3,a3,16
	or	a4,a3,a4
	lbu	a3,17(a5)
	slli	a3,a3,24
	or	a4,a3,a4
	lbu	a3,18(a5)
	slli	a3,a3,32
	or	a4,a3,a4
	lbu	a3,19(a5)
	slli	a3,a3,40
	or	a4,a3,a4
	lbu	a3,20(a5)
	slli	a3,a3,48
	or	a4,a3,a4
	lbu	a5,21(a5)
	slli	a5,a5,56
	or	a5,a5,a4
	mv	a4,a5
	.loc 1 1433 54
	ld	a5,-40(s0)
	ld	a5,296(a5)
	.loc 1 1433 10
	bltu	a4,a5,.L233
	.loc 1 1434 22
	ld	a5,-48(s0)
	lbu	a4,14(a5)
	lbu	a3,15(a5)
	slli	a3,a3,8
	or	a4,a3,a4
	lbu	a3,16(a5)
	slli	a3,a3,16
	or	a4,a3,a4
	lbu	a3,17(a5)
	slli	a3,a3,24
	or	a4,a3,a4
	lbu	a3,18(a5)
	slli	a3,a3,32
	or	a4,a3,a4
	lbu	a3,19(a5)
	slli	a3,a3,40
	or	a4,a3,a4
	lbu	a3,20(a5)
	slli	a3,a3,48
	or	a4,a3,a4
	lbu	a5,21(a5)
	slli	a5,a5,56
	or	a5,a5,a4
	mv	a2,a5
	.loc 1 1434 49
	ld	a5,-48(s0)
	lbu	a4,38(a5)
	lbu	a3,39(a5)
	slli	a3,a3,8
	or	a4,a3,a4
	lbu	a3,40(a5)
	slli	a3,a3,16
	or	a4,a3,a4
	lbu	a3,41(a5)
	slli	a3,a3,24
	or	a4,a3,a4
	lbu	a3,42(a5)
	slli	a3,a3,32
	or	a4,a3,a4
	lbu	a3,43(a5)
	slli	a3,a3,40
	or	a4,a3,a4
	lbu	a3,44(a5)
	slli	a3,a3,48
	or	a4,a3,a4
	lbu	a5,45(a5)
	slli	a5,a5,56
	or	a5,a5,a4
	.loc 1 1434 37
	add	a5,a2,a5
	.loc 1 1434 59
	addi	a4,a5,-1
	.loc 1 1434 80
	ld	a5,-40(s0)
	ld	a5,304(a5)
	.loc 1 1433 61 discriminator 1
	bleu	a4,a5,.L234
.L233:
	.loc 1 1437 16
	li	a5,-1
	slli	a5,a5,63
	addi	a5,a5,2
	j	.L223
.L234:
	.loc 1 1443 58
	ld	a5,-48(s0)
	lbu	a4,14(a5)
	lbu	a3,15(a5)
	slli	a3,a3,8
	or	a4,a3,a4
	lbu	a3,16(a5)
	slli	a3,a3,16
	or	a4,a3,a4
	lbu	a3,17(a5)
	slli	a3,a3,24
	or	a4,a3,a4
	lbu	a3,18(a5)
	slli	a3,a3,32
	or	a4,a3,a4
	lbu	a3,19(a5)
	slli	a3,a3,40
	or	a4,a3,a4
	lbu	a3,20(a5)
	slli	a3,a3,48
	or	a4,a3,a4
	lbu	a5,21(a5)
	slli	a5,a5,56
	or	a5,a5,a4
	mv	a4,a5
	.loc 1 1443 46
	ld	a5,-40(s0)
	sd	a4,264(a5)
	.loc 1 1444 60
	ld	a5,-48(s0)
	lbu	a4,38(a5)
	lbu	a3,39(a5)
	slli	a3,a3,8
	or	a4,a3,a4
	lbu	a3,40(a5)
	slli	a3,a3,16
	or	a4,a3,a4
	lbu	a3,41(a5)
	slli	a3,a3,24
	or	a4,a3,a4
	lbu	a3,42(a5)
	slli	a3,a3,32
	or	a4,a3,a4
	lbu	a3,43(a5)
	slli	a3,a3,40
	or	a4,a3,a4
	lbu	a3,44(a5)
	slli	a3,a3,48
	or	a4,a3,a4
	lbu	a5,45(a5)
	slli	a5,a5,56
	or	a5,a5,a4
	mv	a4,a5
	.loc 1 1444 48
	ld	a5,-40(s0)
	sd	a4,272(a5)
	.loc 1 1445 48
	ld	a5,-40(s0)
	li	a4,2
	sw	a4,288(a5)
	.loc 1 1446 14
	li	a5,0
	j	.L223
.L231:
	.loc 1 1424 30
	ld	a5,-32(s0)
	addi	a5,a5,16
	.loc 1 1424 17
	ld	a1,-24(s0)
	mv	a0,a5
	call	GetNextNode@plt
	sd	a0,-24(s0)
.L228:
	.loc 1 1423 19
	ld	a5,-32(s0)
	addi	a5,a5,16
	.loc 1 1423 11
	ld	a1,-24(s0)
	mv	a0,a5
	call	IsNull@plt
	mv	a5,a0
	.loc 1 1423 10 discriminator 1
	beq	a5,zero,.L235
	.loc 1 1450 10
	li	a5,-1
	slli	a5,a5,63
	addi	a5,a5,2
.L223:
	.loc 1 1451 1
	mv	a0,a5
	ld	ra,88(sp)
	.cfi_restore 1
	ld	s0,80(sp)
	.cfi_restore 8
	.cfi_def_cfa 2, 96
	addi	sp,sp,96
	.cfi_def_cfa_offset 0
	jr	ra
	.cfi_endproc
.LFE13:
	.size	SetBusNumbers, .-SetBusNumbers
	.section	.text.SubmitResources,"ax",@progbits
	.align	1
	.globl	SubmitResources
	.type	SubmitResources, @function
SubmitResources:
.LFB14:
	.loc 1 1472 1
	.cfi_startproc
	addi	sp,sp,-96
	.cfi_def_cfa_offset 96
	sd	ra,88(sp)
	sd	s0,80(sp)
	.cfi_offset 1, -8
	.cfi_offset 8, -16
	addi	s0,sp,96
	.cfi_def_cfa 8, 0
	sd	a0,-72(s0)
	sd	a1,-80(s0)
	sd	a2,-88(s0)
	.loc 1 1482 6
	ld	a5,-88(s0)
	bne	a5,zero,.L237
	.loc 1 1483 12
	li	a5,-1
	slli	a5,a5,63
	addi	a5,a5,2
	j	.L238
.L237:
	.loc 1 1486 18
	ld	a5,-72(s0)
	addi	a5,a5,-40
	.loc 1 1486 142
	ld	a4,0(a5)
	.loc 1 1486 227
	li	a5,1734504448
	addi	a5,a5,-1936
	bne	a4,a5,.L239
	.loc 1 1486 14 discriminator 1
	ld	a5,-72(s0)
	addi	a5,a5,-40
	sd	a5,-56(s0)
	j	.L240
.L239:
	.loc 1 1486 14 is_stmt 0 discriminator 2
	sd	zero,-56(s0)
.L240:
	.loc 1 1487 29 is_stmt 1
	ld	a5,-56(s0)
	addi	a5,a5,16
	.loc 1 1487 15
	mv	a0,a5
	call	GetFirstNode@plt
	sd	a0,-48(s0)
	.loc 1 1487 3
	j	.L241
.L263:
	.loc 1 1492 20
	ld	a5,-48(s0)
	addi	a5,a5,-8
	.loc 1 1492 140
	lw	a4,0(a5)
	.loc 1 1492 225
	li	a5,1651666944
	addi	a5,a5,95
	bne	a4,a5,.L242
	.loc 1 1492 16 discriminator 1
	ld	a5,-48(s0)
	addi	a5,a5,-8
	sd	a5,-40(s0)
	j	.L243
.L242:
	.loc 1 1492 16 is_stmt 0 discriminator 2
	sd	zero,-40(s0)
.L243:
	.loc 1 1493 39 is_stmt 1
	ld	a5,-40(s0)
	ld	a5,24(a5)
	.loc 1 1493 8
	ld	a4,-80(s0)
	bne	a4,a5,.L244
	.loc 1 1500 23
	ld	a5,-88(s0)
	sd	a5,-24(s0)
	.loc 1 1500 7
	j	.L245
.L254:
	.loc 1 1501 23
	ld	a5,-24(s0)
	lbu	a5,3(a5)
	.loc 1 1501 12
	mv	a4,a5
	li	a5,2
	bleu	a4,a5,.L246
	.loc 1 1502 18
	li	a5,-1
	slli	a5,a5,63
	addi	a5,a5,2
	j	.L238
.L246:
	.loc 1 1514 27
	ld	a5,-24(s0)
	lbu	a5,3(a5)
	sext.w	a5,a5
	.loc 1 1514 9
	beq	a5,zero,.L247
	li	a4,1
	beq	a5,a4,.L248
	.loc 1 1547 13
	j	.L253
.L247:
	.loc 1 1516 28
	ld	a5,-24(s0)
	lbu	a4,6(a5)
	lbu	a3,7(a5)
	slli	a3,a3,8
	or	a4,a3,a4
	lbu	a3,8(a5)
	slli	a3,a3,16
	or	a4,a3,a4
	lbu	a3,9(a5)
	slli	a3,a3,24
	or	a4,a3,a4
	lbu	a3,10(a5)
	slli	a3,a3,32
	or	a4,a3,a4
	lbu	a3,11(a5)
	slli	a3,a3,40
	or	a4,a3,a4
	lbu	a3,12(a5)
	slli	a3,a3,48
	or	a4,a3,a4
	lbu	a5,13(a5)
	slli	a5,a5,56
	or	a5,a5,a4
	mv	a4,a5
	.loc 1 1516 16
	li	a5,32
	beq	a4,a5,.L250
	.loc 1 1516 72 discriminator 1
	ld	a5,-24(s0)
	lbu	a4,6(a5)
	lbu	a3,7(a5)
	slli	a3,a3,8
	or	a4,a3,a4
	lbu	a3,8(a5)
	slli	a3,a3,16
	or	a4,a3,a4
	lbu	a3,9(a5)
	slli	a3,a3,24
	or	a4,a3,a4
	lbu	a3,10(a5)
	slli	a3,a3,32
	or	a4,a3,a4
	lbu	a3,11(a5)
	slli	a3,a3,40
	or	a4,a3,a4
	lbu	a3,12(a5)
	slli	a3,a3,48
	or	a4,a3,a4
	lbu	a5,13(a5)
	slli	a5,a5,56
	or	a5,a5,a4
	mv	a4,a5
	.loc 1 1516 58 discriminator 1
	li	a5,64
	beq	a4,a5,.L250
	.loc 1 1517 22
	li	a5,-1
	slli	a5,a5,63
	addi	a5,a5,2
	j	.L238
.L250:
	.loc 1 1520 28
	ld	a5,-24(s0)
	lbu	a4,6(a5)
	lbu	a3,7(a5)
	slli	a3,a3,8
	or	a4,a3,a4
	lbu	a3,8(a5)
	slli	a3,a3,16
	or	a4,a3,a4
	lbu	a3,9(a5)
	slli	a3,a3,24
	or	a4,a3,a4
	lbu	a3,10(a5)
	slli	a3,a3,32
	or	a4,a3,a4
	lbu	a3,11(a5)
	slli	a3,a3,40
	or	a4,a3,a4
	lbu	a3,12(a5)
	slli	a3,a3,48
	or	a4,a3,a4
	lbu	a5,13(a5)
	slli	a5,a5,56
	or	a5,a5,a4
	mv	a4,a5
	.loc 1 1520 16
	li	a5,32
	bne	a4,a5,.L251
	.loc 1 1520 72 discriminator 1
	ld	a5,-24(s0)
	lbu	a4,38(a5)
	lbu	a3,39(a5)
	slli	a3,a3,8
	or	a4,a3,a4
	lbu	a3,40(a5)
	slli	a3,a3,16
	or	a4,a3,a4
	lbu	a3,41(a5)
	slli	a3,a3,24
	or	a4,a3,a4
	lbu	a3,42(a5)
	slli	a3,a3,32
	or	a4,a3,a4
	lbu	a3,43(a5)
	slli	a3,a3,40
	or	a4,a3,a4
	lbu	a3,44(a5)
	slli	a3,a3,48
	or	a4,a3,a4
	lbu	a5,45(a5)
	slli	a5,a5,56
	or	a5,a5,a4
	mv	a4,a5
	.loc 1 1520 58 discriminator 1
	li	a5,-1
	srli	a5,a5,32
	bleu	a4,a5,.L251
	.loc 1 1521 22
	li	a5,-1
	slli	a5,a5,63
	addi	a5,a5,2
	j	.L238
.L251:
	.loc 1 1529 29
	ld	a5,-40(s0)
	ld	a5,32(a5)
	.loc 1 1529 52
	andi	a5,a5,1
	.loc 1 1529 16
	beq	a5,zero,.L248
	.loc 1 1530 29
	ld	a5,-24(s0)
	lbu	a5,5(a5)
	.loc 1 1530 44
	sext.w	a5,a5
	andi	a5,a5,6
	sext.w	a5,a5
	.loc 1 1529 63 discriminator 1
	beq	a5,zero,.L248
	.loc 1 1533 22
	li	a5,-1
	slli	a5,a5,63
	addi	a5,a5,2
	j	.L238
.L248:
	.loc 1 1540 44
	ld	a5,-24(s0)
	lbu	a4,22(a5)
	lbu	a3,23(a5)
	slli	a3,a3,8
	or	a4,a3,a4
	lbu	a3,24(a5)
	slli	a3,a3,16
	or	a4,a3,a4
	lbu	a3,25(a5)
	slli	a3,a3,24
	or	a4,a3,a4
	lbu	a3,26(a5)
	slli	a3,a3,32
	or	a4,a3,a4
	lbu	a3,27(a5)
	slli	a3,a3,40
	or	a4,a3,a4
	lbu	a3,28(a5)
	slli	a3,a3,48
	or	a4,a3,a4
	lbu	a5,29(a5)
	slli	a5,a5,56
	or	a5,a5,a4
	.loc 1 1540 17
	addi	a5,a5,1
	mv	a0,a5
	call	GetPowerOfTwo64@plt
	mv	a2,a0
	.loc 1 1540 78 discriminator 1
	ld	a5,-24(s0)
	lbu	a4,22(a5)
	lbu	a3,23(a5)
	slli	a3,a3,8
	or	a4,a3,a4
	lbu	a3,24(a5)
	slli	a3,a3,16
	or	a4,a3,a4
	lbu	a3,25(a5)
	slli	a3,a3,24
	or	a4,a3,a4
	lbu	a3,26(a5)
	slli	a3,a3,32
	or	a4,a3,a4
	lbu	a3,27(a5)
	slli	a3,a3,40
	or	a4,a3,a4
	lbu	a3,28(a5)
	slli	a3,a3,48
	or	a4,a3,a4
	lbu	a5,29(a5)
	slli	a5,a5,56
	or	a5,a5,a4
	.loc 1 1540 93 discriminator 1
	addi	a5,a5,1
	.loc 1 1540 16 discriminator 1
	beq	a2,a5,.L264
	.loc 1 1541 22
	li	a5,-1
	slli	a5,a5,63
	addi	a5,a5,2
	j	.L238
.L264:
	.loc 1 1544 13
	nop
.L253:
	.loc 1 1500 113 discriminator 2
	ld	a5,-24(s0)
	addi	a5,a5,46
	sd	a5,-24(s0)
.L245:
	.loc 1 1500 87 discriminator 1
	ld	a5,-24(s0)
	lbu	a5,0(a5)
	.loc 1 1500 94 discriminator 1
	mv	a4,a5
	li	a5,138
	beq	a4,a5,.L254
	.loc 1 1551 21
	ld	a5,-24(s0)
	lbu	a5,0(a5)
	.loc 1 1551 10
	mv	a4,a5
	li	a5,121
	beq	a4,a5,.L255
	.loc 1 1552 16
	li	a5,-1
	slli	a5,a5,63
	addi	a5,a5,2
	j	.L238
.L255:
	.loc 1 1555 23
	ld	a5,-88(s0)
	sd	a5,-24(s0)
	.loc 1 1555 7
	j	.L256
.L262:
	.loc 1 1556 23
	ld	a5,-24(s0)
	lbu	a5,3(a5)
	.loc 1 1556 12
	bne	a5,zero,.L257
	.loc 1 1557 25
	ld	a5,-24(s0)
	lbu	a4,6(a5)
	lbu	a3,7(a5)
	slli	a3,a3,8
	or	a4,a3,a4
	lbu	a3,8(a5)
	slli	a3,a3,16
	or	a4,a3,a4
	lbu	a3,9(a5)
	slli	a3,a3,24
	or	a4,a3,a4
	lbu	a3,10(a5)
	slli	a3,a3,32
	or	a4,a3,a4
	lbu	a3,11(a5)
	slli	a3,a3,40
	or	a4,a3,a4
	lbu	a3,12(a5)
	slli	a3,a3,48
	or	a4,a3,a4
	lbu	a5,13(a5)
	slli	a5,a5,56
	or	a5,a5,a4
	mv	a4,a5
	.loc 1 1557 14
	li	a5,32
	bne	a4,a5,.L258
	.loc 1 1558 28
	ld	a5,-24(s0)
	lbu	a5,5(a5)
	.loc 1 1558 43
	sext.w	a5,a5
	andi	a5,a5,6
	sext.w	a5,a5
	.loc 1 1558 16
	beq	a5,zero,.L259
	.loc 1 1559 20
	li	a5,2
	sw	a5,-28(s0)
	j	.L260
.L259:
	.loc 1 1561 20
	li	a5,1
	sw	a5,-28(s0)
	j	.L260
.L258:
	.loc 1 1565 28
	ld	a5,-24(s0)
	lbu	a5,5(a5)
	.loc 1 1565 43
	sext.w	a5,a5
	andi	a5,a5,6
	sext.w	a5,a5
	.loc 1 1565 16
	beq	a5,zero,.L261
	.loc 1 1566 20
	li	a5,4
	sw	a5,-28(s0)
	j	.L260
.L261:
	.loc 1 1568 20
	li	a5,3
	sw	a5,-28(s0)
	j	.L260
.L257:
	.loc 1 1573 16
	sw	zero,-28(s0)
.L260:
	.loc 1 1576 59
	ld	a5,-24(s0)
	lbu	a4,38(a5)
	lbu	a3,39(a5)
	slli	a3,a3,8
	or	a4,a3,a4
	lbu	a3,40(a5)
	slli	a3,a3,16
	or	a4,a3,a4
	lbu	a3,41(a5)
	slli	a3,a3,24
	or	a4,a3,a4
	lbu	a3,42(a5)
	slli	a3,a3,32
	or	a4,a3,a4
	lbu	a3,43(a5)
	slli	a3,a3,40
	or	a4,a3,a4
	lbu	a3,44(a5)
	slli	a3,a3,48
	or	a4,a3,a4
	lbu	a5,45(a5)
	slli	a5,a5,56
	or	a5,a5,a4
	mv	a2,a5
	.loc 1 1576 47
	ld	a3,-40(s0)
	lwu	a4,-28(s0)
	mv	a5,a4
	slli	a5,a5,2
	add	a5,a5,a4
	slli	a5,a5,3
	add	a5,a3,a5
	sd	a2,72(a5)
	.loc 1 1577 62
	ld	a5,-24(s0)
	lbu	a4,22(a5)
	lbu	a3,23(a5)
	slli	a3,a3,8
	or	a4,a3,a4
	lbu	a3,24(a5)
	slli	a3,a3,16
	or	a4,a3,a4
	lbu	a3,25(a5)
	slli	a3,a3,24
	or	a4,a3,a4
	lbu	a3,26(a5)
	slli	a3,a3,32
	or	a4,a3,a4
	lbu	a3,27(a5)
	slli	a3,a3,40
	or	a4,a3,a4
	lbu	a3,28(a5)
	slli	a3,a3,48
	or	a4,a3,a4
	lbu	a5,29(a5)
	slli	a5,a5,56
	or	a5,a5,a4
	mv	a2,a5
	.loc 1 1577 50
	ld	a3,-40(s0)
	lwu	a4,-28(s0)
	mv	a5,a4
	slli	a5,a5,2
	add	a5,a5,a4
	slli	a5,a5,3
	add	a5,a3,a5
	sd	a2,80(a5)
	.loc 1 1578 47
	ld	a3,-40(s0)
	lwu	a4,-28(s0)
	mv	a5,a4
	slli	a5,a5,2
	add	a5,a5,a4
	slli	a5,a5,3
	add	a5,a3,a5
	li	a4,1
	sw	a4,88(a5)
	.loc 1 1555 113 discriminator 2
	ld	a5,-24(s0)
	addi	a5,a5,46
	sd	a5,-24(s0)
.L256:
	.loc 1 1555 87 discriminator 1
	ld	a5,-24(s0)
	lbu	a5,0(a5)
	.loc 1 1555 94 discriminator 1
	mv	a4,a5
	li	a5,138
	beq	a4,a5,.L262
	.loc 1 1581 37
	ld	a5,-40(s0)
	li	a4,1
	sb	a4,624(a5)
	.loc 1 1582 14
	li	a5,0
	j	.L238
.L244:
	.loc 1 1489 30
	ld	a5,-56(s0)
	addi	a5,a5,16
	.loc 1 1489 17
	ld	a1,-48(s0)
	mv	a0,a5
	call	GetNextNode@plt
	sd	a0,-48(s0)
.L241:
	.loc 1 1488 19
	ld	a5,-56(s0)
	addi	a5,a5,16
	.loc 1 1488 11
	ld	a1,-48(s0)
	mv	a0,a5
	call	IsNull@plt
	mv	a5,a0
	.loc 1 1488 10 discriminator 1
	beq	a5,zero,.L263
	.loc 1 1586 10
	li	a5,-1
	slli	a5,a5,63
	addi	a5,a5,2
.L238:
	.loc 1 1587 1
	mv	a0,a5
	ld	ra,88(sp)
	.cfi_restore 1
	ld	s0,80(sp)
	.cfi_restore 8
	.cfi_def_cfa 2, 96
	addi	sp,sp,96
	.cfi_def_cfa_offset 0
	jr	ra
	.cfi_endproc
.LFE14:
	.size	SubmitResources, .-SubmitResources
	.section	.text.GetProposedResources,"ax",@progbits
	.align	1
	.globl	GetProposedResources
	.type	GetProposedResources, @function
GetProposedResources:
.LFB15:
	.loc 1 1611 1
	.cfi_startproc
	addi	sp,sp,-144
	.cfi_def_cfa_offset 144
	sd	ra,136(sp)
	sd	s0,128(sp)
	sd	s1,120(sp)
	.cfi_offset 1, -8
	.cfi_offset 8, -16
	.cfi_offset 9, -24
	addi	s0,sp,144
	.cfi_def_cfa 8, 0
	sd	a0,-120(s0)
	sd	a1,-128(s0)
	sd	a2,-136(s0)
	.loc 1 1622 18
	ld	a5,-120(s0)
	addi	a5,a5,-40
	.loc 1 1622 142
	ld	a4,0(a5)
	.loc 1 1622 227
	li	a5,1734504448
	addi	a5,a5,-1936
	bne	a4,a5,.L266
	.loc 1 1622 14 discriminator 1
	ld	a5,-120(s0)
	addi	a5,a5,-40
	sd	a5,-48(s0)
	j	.L267
.L266:
	.loc 1 1622 14 is_stmt 0 discriminator 2
	sd	zero,-48(s0)
.L267:
	.loc 1 1623 29 is_stmt 1
	ld	a5,-48(s0)
	addi	a5,a5,16
	.loc 1 1623 15
	mv	a0,a5
	call	GetFirstNode@plt
	sd	a0,-40(s0)
	.loc 1 1623 3
	j	.L268
.L288:
	.loc 1 1628 20
	ld	a5,-40(s0)
	addi	a5,a5,-8
	.loc 1 1628 140
	lw	a4,0(a5)
	.loc 1 1628 225
	li	a5,1651666944
	addi	a5,a5,95
	bne	a4,a5,.L269
	.loc 1 1628 16 discriminator 1
	ld	a5,-40(s0)
	addi	a5,a5,-8
	sd	a5,-56(s0)
	j	.L270
.L269:
	.loc 1 1628 16 is_stmt 0 discriminator 2
	sd	zero,-56(s0)
.L270:
	.loc 1 1629 39 is_stmt 1
	ld	a5,-56(s0)
	ld	a5,24(a5)
	.loc 1 1629 8
	ld	a4,-128(s0)
	bne	a4,a5,.L271
	.loc 1 1630 18
	sd	zero,-64(s0)
	.loc 1 1630 30
	sd	zero,-72(s0)
	.loc 1 1630 7
	j	.L272
.L274:
	.loc 1 1631 44
	ld	a3,-56(s0)
	ld	a4,-64(s0)
	mv	a5,a4
	slli	a5,a5,2
	add	a5,a5,a4
	slli	a5,a5,3
	add	a5,a3,a5
	lw	a5,88(a5)
	.loc 1 1631 12
	beq	a5,zero,.L273
	.loc 1 1632 17
	ld	a5,-72(s0)
	addi	a5,a5,1
	sd	a5,-72(s0)
.L273:
	.loc 1 1630 57 discriminator 2
	ld	a5,-64(s0)
	addi	a5,a5,1
	sd	a5,-64(s0)
.L272:
	.loc 1 1630 41 discriminator 1
	ld	a4,-64(s0)
	li	a5,4
	bleu	a4,a5,.L274
	.loc 1 1636 41
	ld	a4,-72(s0)
	li	a5,46
	mul	a5,a4,a5
	.loc 1 1636 86
	addi	a5,a5,2
	.loc 1 1636 16
	mv	a0,a5
	call	AllocateZeroPool@plt
	sd	a0,-88(s0)
	.loc 1 1637 10
	ld	a5,-88(s0)
	bne	a5,zero,.L275
	.loc 1 1638 16
	li	a5,-1
	slli	a5,a5,63
	addi	a5,a5,9
	j	.L276
.L275:
	.loc 1 1641 18
	ld	a5,-88(s0)
	sd	a5,-80(s0)
	.loc 1 1642 18
	sd	zero,-64(s0)
	.loc 1 1642 7
	j	.L277
.L287:
	.loc 1 1643 52
	ld	a3,-56(s0)
	ld	a4,-64(s0)
	mv	a5,a4
	slli	a5,a5,2
	add	a5,a5,a4
	slli	a5,a5,3
	add	a5,a3,a5
	lw	a5,88(a5)
	.loc 1 1643 19
	slli	a5,a5,32
	srli	a5,a5,32
	sd	a5,-104(s0)
	.loc 1 1644 12
	ld	a5,-104(s0)
	beq	a5,zero,.L278
	.loc 1 1645 28
	ld	a5,-80(s0)
	li	a4,-118
	sb	a4,0(a5)
	.loc 1 1646 27
	ld	a5,-80(s0)
	lbu	a4,1(a5)
	andi	a4,a4,0
	ori	a4,a4,43
	sb	a4,1(a5)
	lbu	a4,2(a5)
	andi	a4,a4,0
	sb	a4,2(a5)
	.loc 1 1647 31
	ld	a5,-80(s0)
	sb	zero,4(a5)
	.loc 1 1654 71
	ld	a3,-56(s0)
	ld	a4,-64(s0)
	mv	a5,a4
	slli	a5,a5,2
	add	a5,a5,a4
	slli	a5,a5,3
	add	a5,a3,a5
	ld	s1,64(a5)
	.loc 1 1654 81
	ld	a5,-64(s0)
	sext.w	a5,a5
	mv	a1,a5
	ld	a0,-56(s0)
	call	GetTranslationByResourceType
	mv	a5,a0
	.loc 1 1654 78 discriminator 1
	add	a4,s1,a5
	.loc 1 1654 36 discriminator 1
	ld	a5,-80(s0)
	andi	a3,a4,255
	lbu	a2,14(a5)
	andi	a2,a2,0
	or	a3,a2,a3
	sb	a3,14(a5)
	srli	a3,a4,8
	andi	a3,a3,255
	lbu	a2,15(a5)
	andi	a2,a2,0
	or	a3,a2,a3
	sb	a3,15(a5)
	srli	a3,a4,16
	andi	a3,a3,255
	lbu	a2,16(a5)
	andi	a2,a2,0
	or	a3,a2,a3
	sb	a3,16(a5)
	srli	a3,a4,24
	andi	a3,a3,255
	lbu	a2,17(a5)
	andi	a2,a2,0
	or	a3,a2,a3
	sb	a3,17(a5)
	srli	a3,a4,32
	andi	a3,a3,255
	lbu	a2,18(a5)
	andi	a2,a2,0
	or	a3,a2,a3
	sb	a3,18(a5)
	srli	a3,a4,40
	andi	a3,a3,255
	lbu	a2,19(a5)
	andi	a2,a2,0
	or	a3,a2,a3
	sb	a3,19(a5)
	srli	a3,a4,48
	andi	a3,a3,255
	lbu	a2,20(a5)
	andi	a2,a2,0
	or	a3,a2,a3
	sb	a3,20(a5)
	srli	a4,a4,56
	lbu	a3,21(a5)
	andi	a3,a3,0
	or	a4,a3,a4
	sb	a4,21(a5)
	.loc 1 1658 36
	ld	a5,-80(s0)
	lbu	a4,22(a5)
	andi	a4,a4,0
	sb	a4,22(a5)
	lbu	a4,23(a5)
	andi	a4,a4,0
	sb	a4,23(a5)
	lbu	a4,24(a5)
	andi	a4,a4,0
	sb	a4,24(a5)
	lbu	a4,25(a5)
	andi	a4,a4,0
	sb	a4,25(a5)
	lbu	a4,26(a5)
	andi	a4,a4,0
	sb	a4,26(a5)
	lbu	a4,27(a5)
	andi	a4,a4,0
	sb	a4,27(a5)
	lbu	a4,28(a5)
	andi	a4,a4,0
	sb	a4,28(a5)
	lbu	a4,29(a5)
	andi	a4,a4,0
	sb	a4,29(a5)
	.loc 1 1659 99
	ld	a4,-104(s0)
	li	a5,2
	bne	a4,a5,.L279
	.loc 1 1659 99 is_stmt 0 discriminator 1
	li	a4,0
	j	.L280
.L279:
	.loc 1 1659 99 discriminator 2
	li	a4,-2
.L280:
	.loc 1 1659 45 is_stmt 1 discriminator 4
	ld	a5,-80(s0)
	andi	a3,a4,255
	lbu	a2,30(a5)
	andi	a2,a2,0
	or	a3,a2,a3
	sb	a3,30(a5)
	srli	a3,a4,8
	andi	a3,a3,255
	lbu	a2,31(a5)
	andi	a2,a2,0
	or	a3,a2,a3
	sb	a3,31(a5)
	srli	a3,a4,16
	andi	a3,a3,255
	lbu	a2,32(a5)
	andi	a2,a2,0
	or	a3,a2,a3
	sb	a3,32(a5)
	srli	a3,a4,24
	andi	a3,a3,255
	lbu	a2,33(a5)
	andi	a2,a2,0
	or	a3,a2,a3
	sb	a3,33(a5)
	srli	a3,a4,32
	andi	a3,a3,255
	lbu	a2,34(a5)
	andi	a2,a2,0
	or	a3,a2,a3
	sb	a3,34(a5)
	srli	a3,a4,40
	andi	a3,a3,255
	lbu	a2,35(a5)
	andi	a2,a2,0
	or	a3,a2,a3
	sb	a3,35(a5)
	srli	a3,a4,48
	andi	a3,a3,255
	lbu	a2,36(a5)
	andi	a2,a2,0
	or	a3,a2,a3
	sb	a3,36(a5)
	srli	a4,a4,56
	lbu	a3,37(a5)
	andi	a3,a3,0
	or	a4,a3,a4
	sb	a4,37(a5)
	.loc 1 1660 64
	ld	a3,-56(s0)
	ld	a4,-64(s0)
	mv	a5,a4
	slli	a5,a5,2
	add	a5,a5,a4
	slli	a5,a5,3
	add	a5,a3,a5
	ld	a4,72(a5)
	.loc 1 1660 31
	ld	a5,-80(s0)
	andi	a3,a4,255
	lbu	a2,38(a5)
	andi	a2,a2,0
	or	a3,a2,a3
	sb	a3,38(a5)
	srli	a3,a4,8
	andi	a3,a3,255
	lbu	a2,39(a5)
	andi	a2,a2,0
	or	a3,a2,a3
	sb	a3,39(a5)
	srli	a3,a4,16
	andi	a3,a3,255
	lbu	a2,40(a5)
	andi	a2,a2,0
	or	a3,a2,a3
	sb	a3,40(a5)
	srli	a3,a4,24
	andi	a3,a3,255
	lbu	a2,41(a5)
	andi	a2,a2,0
	or	a3,a2,a3
	sb	a3,41(a5)
	srli	a3,a4,32
	andi	a3,a3,255
	lbu	a2,42(a5)
	andi	a2,a2,0
	or	a3,a2,a3
	sb	a3,42(a5)
	srli	a3,a4,40
	andi	a3,a3,255
	lbu	a2,43(a5)
	andi	a2,a2,0
	or	a3,a2,a3
	sb	a3,43(a5)
	srli	a3,a4,48
	andi	a3,a3,255
	lbu	a2,44(a5)
	andi	a2,a2,0
	or	a3,a2,a3
	sb	a3,44(a5)
	srli	a4,a4,56
	lbu	a3,45(a5)
	andi	a3,a3,0
	or	a4,a3,a4
	sb	a4,45(a5)
	.loc 1 1662 11
	ld	a4,-64(s0)
	li	a5,4
	beq	a4,a5,.L281
	ld	a4,-64(s0)
	li	a5,4
	bgtu	a4,a5,.L282
	ld	a4,-64(s0)
	li	a5,3
	beq	a4,a5,.L283
	ld	a4,-64(s0)
	li	a5,3
	bgtu	a4,a5,.L282
	ld	a4,-64(s0)
	li	a5,2
	beq	a4,a5,.L284
	ld	a4,-64(s0)
	li	a5,2
	bgtu	a4,a5,.L282
	ld	a5,-64(s0)
	beq	a5,zero,.L285
	ld	a4,-64(s0)
	li	a5,1
	beq	a4,a5,.L286
	j	.L282
.L285:
	.loc 1 1664 35
	ld	a5,-80(s0)
	li	a4,1
	sb	a4,3(a5)
	.loc 1 1665 15
	j	.L282
.L284:
	.loc 1 1668 40
	ld	a5,-80(s0)
	li	a4,6
	sb	a4,5(a5)
.L286:
	.loc 1 1670 35
	ld	a5,-80(s0)
	sb	zero,3(a5)
	.loc 1 1671 48
	ld	a5,-80(s0)
	lbu	a4,6(a5)
	andi	a4,a4,0
	ori	a4,a4,32
	sb	a4,6(a5)
	lbu	a4,7(a5)
	andi	a4,a4,0
	sb	a4,7(a5)
	lbu	a4,8(a5)
	andi	a4,a4,0
	sb	a4,8(a5)
	lbu	a4,9(a5)
	andi	a4,a4,0
	sb	a4,9(a5)
	lbu	a4,10(a5)
	andi	a4,a4,0
	sb	a4,10(a5)
	lbu	a4,11(a5)
	andi	a4,a4,0
	sb	a4,11(a5)
	lbu	a4,12(a5)
	andi	a4,a4,0
	sb	a4,12(a5)
	lbu	a4,13(a5)
	andi	a4,a4,0
	sb	a4,13(a5)
	.loc 1 1672 15
	j	.L282
.L281:
	.loc 1 1675 40
	ld	a5,-80(s0)
	li	a4,6
	sb	a4,5(a5)
.L283:
	.loc 1 1677 35
	ld	a5,-80(s0)
	sb	zero,3(a5)
	.loc 1 1678 48
	ld	a5,-80(s0)
	lbu	a4,6(a5)
	andi	a4,a4,0
	ori	a4,a4,64
	sb	a4,6(a5)
	lbu	a4,7(a5)
	andi	a4,a4,0
	sb	a4,7(a5)
	lbu	a4,8(a5)
	andi	a4,a4,0
	sb	a4,8(a5)
	lbu	a4,9(a5)
	andi	a4,a4,0
	sb	a4,9(a5)
	lbu	a4,10(a5)
	andi	a4,a4,0
	sb	a4,10(a5)
	lbu	a4,11(a5)
	andi	a4,a4,0
	sb	a4,11(a5)
	lbu	a4,12(a5)
	andi	a4,a4,0
	sb	a4,12(a5)
	lbu	a4,13(a5)
	andi	a4,a4,0
	sb	a4,13(a5)
	.loc 1 1679 15
	nop
.L282:
	.loc 1 1682 21
	ld	a5,-80(s0)
	addi	a5,a5,46
	sd	a5,-80(s0)
.L278:
	.loc 1 1642 45 discriminator 2
	ld	a5,-64(s0)
	addi	a5,a5,1
	sd	a5,-64(s0)
.L277:
	.loc 1 1642 29 discriminator 1
	ld	a4,-64(s0)
	li	a5,4
	bleu	a4,a5,.L287
	.loc 1 1686 11
	ld	a5,-80(s0)
	sd	a5,-96(s0)
	.loc 1 1687 17
	ld	a5,-96(s0)
	li	a4,121
	sb	a4,0(a5)
	.loc 1 1688 21
	ld	a5,-96(s0)
	sb	zero,1(a5)
	.loc 1 1690 22
	ld	a5,-136(s0)
	ld	a4,-88(s0)
	sd	a4,0(a5)
	.loc 1 1692 14
	li	a5,0
	j	.L276
.L271:
	.loc 1 1625 30
	ld	a5,-48(s0)
	addi	a5,a5,16
	.loc 1 1625 17
	ld	a1,-40(s0)
	mv	a0,a5
	call	GetNextNode@plt
	sd	a0,-40(s0)
.L268:
	.loc 1 1624 19
	ld	a5,-48(s0)
	addi	a5,a5,16
	.loc 1 1624 11
	ld	a1,-40(s0)
	mv	a0,a5
	call	IsNull@plt
	mv	a5,a0
	.loc 1 1624 10 discriminator 1
	beq	a5,zero,.L288
	.loc 1 1696 10
	li	a5,-1
	slli	a5,a5,63
	addi	a5,a5,2
.L276:
	.loc 1 1697 1
	mv	a0,a5
	ld	ra,136(sp)
	.cfi_restore 1
	ld	s0,128(sp)
	.cfi_restore 8
	.cfi_def_cfa 2, 144
	ld	s1,120(sp)
	.cfi_restore 9
	addi	sp,sp,144
	.cfi_def_cfa_offset 0
	jr	ra
	.cfi_endproc
.LFE15:
	.size	GetProposedResources, .-GetProposedResources
	.section	.text.PreprocessController,"ax",@progbits
	.align	1
	.globl	PreprocessController
	.type	PreprocessController, @function
PreprocessController:
.LFB16:
	.loc 1 1721 1
	.cfi_startproc
	addi	sp,sp,-80
	.cfi_def_cfa_offset 80
	sd	ra,72(sp)
	sd	s0,64(sp)
	.cfi_offset 1, -8
	.cfi_offset 8, -16
	addi	s0,sp,80
	.cfi_def_cfa 8, 0
	sd	a0,-56(s0)
	sd	a1,-64(s0)
	sd	a2,-72(s0)
	mv	a5,a3
	sw	a5,-76(s0)
	.loc 1 1726 6
	lw	a5,-76(s0)
	sext.w	a4,a5
	li	a5,1
	bleu	a4,a5,.L290
	.loc 1 1727 12
	li	a5,-1
	slli	a5,a5,63
	addi	a5,a5,2
	j	.L291
.L290:
	.loc 1 1730 18
	ld	a5,-56(s0)
	addi	a5,a5,-40
	.loc 1 1730 142
	ld	a4,0(a5)
	.loc 1 1730 227
	li	a5,1734504448
	addi	a5,a5,-1936
	bne	a4,a5,.L292
	.loc 1 1730 14 discriminator 1
	ld	a5,-56(s0)
	addi	a5,a5,-40
	sd	a5,-32(s0)
	j	.L293
.L292:
	.loc 1 1730 14 is_stmt 0 discriminator 2
	sd	zero,-32(s0)
.L293:
	.loc 1 1731 29 is_stmt 1
	ld	a5,-32(s0)
	addi	a5,a5,16
	.loc 1 1731 15
	mv	a0,a5
	call	GetFirstNode@plt
	sd	a0,-24(s0)
	.loc 1 1731 3
	j	.L294
.L298:
	.loc 1 1736 20
	ld	a5,-24(s0)
	addi	a5,a5,-8
	.loc 1 1736 140
	lw	a4,0(a5)
	.loc 1 1736 225
	li	a5,1651666944
	addi	a5,a5,95
	bne	a4,a5,.L295
	.loc 1 1736 16 discriminator 1
	ld	a5,-24(s0)
	addi	a5,a5,-8
	sd	a5,-40(s0)
	j	.L296
.L295:
	.loc 1 1736 16 is_stmt 0 discriminator 2
	sd	zero,-40(s0)
.L296:
	.loc 1 1737 39 is_stmt 1
	ld	a5,-40(s0)
	ld	a5,24(a5)
	.loc 1 1737 8
	ld	a4,-64(s0)
	bne	a4,a5,.L297
	.loc 1 1738 14
	li	a5,0
	j	.L291
.L297:
	.loc 1 1733 30
	ld	a5,-32(s0)
	addi	a5,a5,16
	.loc 1 1733 17
	ld	a1,-24(s0)
	mv	a0,a5
	call	GetNextNode@plt
	sd	a0,-24(s0)
.L294:
	.loc 1 1732 19
	ld	a5,-32(s0)
	addi	a5,a5,16
	.loc 1 1732 11
	ld	a1,-24(s0)
	mv	a0,a5
	call	IsNull@plt
	mv	a5,a0
	.loc 1 1732 10 discriminator 1
	beq	a5,zero,.L298
	.loc 1 1742 10
	li	a5,-1
	slli	a5,a5,63
	addi	a5,a5,2
.L291:
	.loc 1 1743 1
	mv	a0,a5
	ld	ra,72(sp)
	.cfi_restore 1
	ld	s0,64(sp)
	.cfi_restore 8
	.cfi_def_cfa 2, 80
	addi	sp,sp,80
	.cfi_def_cfa_offset 0
	jr	ra
	.cfi_endproc
.LFE16:
	.size	PreprocessController, .-PreprocessController
	.text
.Letext0:
	.file 2 "/home/kapoagaeming/Downloads/spacemit-image-builder/components/edk2/MdePkg/Include/RiscV64/ProcessorBind.h"
	.file 3 "/home/kapoagaeming/Downloads/spacemit-image-builder/components/edk2/MdePkg/Include/Base.h"
	.file 4 "/home/kapoagaeming/Downloads/spacemit-image-builder/components/edk2/MdePkg/Include/Uefi/UefiBaseType.h"
	.file 5 "/home/kapoagaeming/Downloads/spacemit-image-builder/components/edk2/MdePkg/Include/Uefi/UefiMultiPhase.h"
	.file 6 "/home/kapoagaeming/Downloads/spacemit-image-builder/components/edk2/MdePkg/Include/IndustryStandard/Acpi10.h"
	.file 7 "/home/kapoagaeming/Downloads/spacemit-image-builder/components/edk2/MdePkg/Include/Protocol/DevicePath.h"
	.file 8 "/home/kapoagaeming/Downloads/spacemit-image-builder/components/edk2/MdePkg/Include/Protocol/SimpleTextIn.h"
	.file 9 "/home/kapoagaeming/Downloads/spacemit-image-builder/components/edk2/MdePkg/Include/Protocol/SimpleTextOut.h"
	.file 10 "/home/kapoagaeming/Downloads/spacemit-image-builder/components/edk2/MdePkg/Include/Uefi/UefiSpec.h"
	.file 11 "/home/kapoagaeming/Downloads/spacemit-image-builder/components/edk2/MdePkg/Include/Protocol/DebugSupport.h"
	.file 12 "/home/kapoagaeming/Downloads/spacemit-image-builder/components/edk2/MdePkg/Include/Pi/PiDxeCis.h"
	.file 13 "/home/kapoagaeming/Downloads/spacemit-image-builder/components/Build/Milk-V-Jupiter/RELEASE_GCC5/RISCV64/Silicon/Spacemit/Override/MdeModulePkg/Bus/Pci/PciHostBridgeDxe/PciHostBridgeDxe/DEBUG/AutoGen.h"
	.file 14 "/home/kapoagaeming/Downloads/spacemit-image-builder/components/edk2/MdeModulePkg/Include/Library/PciHostBridgeLib.h"
	.file 15 "/home/kapoagaeming/Downloads/spacemit-image-builder/components/edk2/MdePkg/Include/Protocol/PciRootBridgeIo.h"
	.file 16 "/home/kapoagaeming/Downloads/spacemit-image-builder/components/edk2/MdePkg/Include/Protocol/PciHostBridgeResourceAllocation.h"
	.file 17 "/home/kapoagaeming/Downloads/spacemit-image-builder/components/edk2/MdeModulePkg/Include/Protocol/IoMmu.h"
	.file 18 "/home/kapoagaeming/Downloads/spacemit-image-builder/components/edk2/MdePkg/Include/Protocol/Cpu.h"
	.file 19 "/home/kapoagaeming/Downloads/spacemit-image-builder/components/edk2/MdePkg/Include/Protocol/CpuIo2.h"
	.file 20 "/home/kapoagaeming/Downloads/spacemit-image-builder/components/edk2/MdePkg/Include/Library/UefiBootServicesTableLib.h"
	.file 21 "/home/kapoagaeming/Downloads/spacemit-image-builder/components/edk2/MdePkg/Include/Library/DxeServicesTableLib.h"
	.file 22 "/home/kapoagaeming/Downloads/spacemit-image-builder/components/edk2-platforms/Silicon/Spacemit/Override/MdeModulePkg/Bus/Pci/PciHostBridgeDxe/PciHostResource.h"
	.file 23 "/home/kapoagaeming/Downloads/spacemit-image-builder/components/edk2-platforms/Silicon/Spacemit/Override/MdeModulePkg/Bus/Pci/PciHostBridgeDxe/PciRootBridge.h"
	.file 24 "/home/kapoagaeming/Downloads/spacemit-image-builder/components/edk2-platforms/Silicon/Spacemit/Override/MdeModulePkg/Bus/Pci/PciHostBridgeDxe/PciHostBridge.h"
	.file 25 "/home/kapoagaeming/Downloads/spacemit-image-builder/components/edk2/MdePkg/Include/Library/BaseLib.h"
	.file 26 "/home/kapoagaeming/Downloads/spacemit-image-builder/components/edk2/MdePkg/Include/Library/MemoryAllocationLib.h"
	.file 27 "/home/kapoagaeming/Downloads/spacemit-image-builder/components/edk2/MdePkg/Include/Library/UefiLib.h"
	.file 28 "/home/kapoagaeming/Downloads/spacemit-image-builder/components/edk2/MdePkg/Include/Library/DebugLib.h"
	.section	.note.GNU-stack,"",@progbits
