	.file	"SerialIo.c"
	.option pic
	.option norelax
	.attribute arch, "rv64i2p1_m2p0_a2p1_f2p2_d2p2_c2p0_zicsr2p0_zifencei2p0_zmmul1p0_zaamo1p0_zalrsc1p0_zca1p0_zcd1p0"
	.attribute unaligned_access, 0
	.attribute stack_align, 16
	.text
.Ltext0:
	.cfi_sections	.debug_frame
	.file 0 "/home/kapoagaeming/Downloads/spacemit-image-builder/components/Build/Milk-V-Jupiter/RELEASE_GCC5/RISCV64/MdeModulePkg/Universal/SerialDxe/SerialDxe" "/home/kapoagaeming/Downloads/spacemit-image-builder/components/edk2/MdeModulePkg/Universal/SerialDxe/SerialIo.c"
	.globl	mSerialHandle
	.section	.bss.mSerialHandle,"aw",@nobits
	.align	3
	.type	mSerialHandle, @object
	.size	mSerialHandle, 8
mSerialHandle:
	.zero	8
	.globl	mSerialDevicePath
	.section	.data.mSerialDevicePath,"aw"
	.align	3
	.type	mSerialDevicePath, @object
	.size	mSerialDevicePath, 43
mSerialDevicePath:
	.byte	1
	.byte	4
	.string	"\024"
	.word	-744981173
	.half	-26854
	.half	17247
	.base64	"jK9JZ+tickE="
	.byte	3
	.byte	14
	.string	"\023"
	.word	0
	.8byte	0
	.byte	0
	.byte	0
	.byte	0
	.byte	127
	.byte	-1
	.string	"\004"
	.globl	mSerialIoMode
	.section	.data.mSerialIoMode,"aw"
	.align	3
	.type	mSerialIoMode, @object
	.size	mSerialIoMode, 32
mSerialIoMode:
	.word	0
	.word	1000000
	.dword	0
	.word	1
	.word	0
	.word	0
	.word	0
	.globl	mSerialIoTemplate
	.section	.data.rel.local.mSerialIoTemplate,"aw"
	.align	3
	.type	mSerialIoTemplate, @object
	.size	mSerialIoTemplate, 72
mSerialIoTemplate:
	.word	65536
	.zero	4
	.dword	SerialReset
	.dword	SerialSetAttributes
	.dword	SerialSetControl
	.dword	SerialGetControl
	.dword	SerialWrite
	.dword	SerialRead
	.dword	mSerialIoMode
	.zero	8
	.section	.text.SerialReset,"ax",@progbits
	.align	1
	.globl	SerialReset
	.type	SerialReset, @function
SerialReset:
.LFB0:
	.file 1 "/home/kapoagaeming/Downloads/spacemit-image-builder/components/edk2/MdeModulePkg/Universal/SerialDxe/SerialIo.c"
	.loc 1 220 1
	.cfi_startproc
	addi	sp,sp,-48
	.cfi_def_cfa_offset 48
	sd	ra,40(sp)
	sd	s0,32(sp)
	.cfi_offset 1, -8
	.cfi_offset 8, -16
	addi	s0,sp,48
	.cfi_def_cfa 8, 0
	sd	a0,-40(s0)
	.loc 1 223 12
	call	SerialPortInitialize@plt
	sd	a0,-24(s0)
	.loc 1 224 34
	ld	a5,-24(s0)
	.loc 1 224 6
	bge	a5,zero,.L2
	.loc 1 225 12
	ld	a5,-24(s0)
	j	.L3
.L2:
	.loc 1 231 16
	ld	a5,-40(s0)
	ld	a7,16(a5)
	.loc 1 233 24
	ld	a5,-40(s0)
	ld	a5,56(a5)
	.loc 1 231 12
	ld	a1,8(a5)
	.loc 1 234 24
	ld	a5,-40(s0)
	ld	a5,56(a5)
	.loc 1 231 12
	lw	a2,16(a5)
	.loc 1 235 24
	ld	a5,-40(s0)
	ld	a5,56(a5)
	.loc 1 231 12
	lw	a3,4(a5)
	.loc 1 236 41
	ld	a5,-40(s0)
	ld	a5,56(a5)
	.loc 1 236 47
	lw	a4,24(a5)
	.loc 1 237 31
	ld	a5,-40(s0)
	ld	a5,56(a5)
	.loc 1 237 37
	lw	a5,20(a5)
	.loc 1 231 12
	andi	a0,a5,0xff
	.loc 1 238 44
	ld	a5,-40(s0)
	ld	a5,56(a5)
	.loc 1 238 50
	lw	a5,28(a5)
	.loc 1 231 12
	mv	a6,a5
	mv	a5,a0
	ld	a0,-40(s0)
	jalr	a7
.LVL0:
	sd	a0,-24(s0)
	.loc 1 246 6
	ld	a4,-24(s0)
	li	a5,-1
	slli	a5,a5,63
	addi	a5,a5,2
	bne	a4,a5,.L4
	.loc 1 247 12
	li	a5,0
	j	.L3
.L4:
	.loc 1 250 10
	ld	a5,-24(s0)
.L3:
	.loc 1 251 1
	mv	a0,a5
	ld	ra,40(sp)
	.cfi_restore 1
	ld	s0,32(sp)
	.cfi_restore 8
	.cfi_def_cfa 2, 48
	addi	sp,sp,48
	.cfi_def_cfa_offset 0
	jr	ra
	.cfi_endproc
.LFE0:
	.size	SerialReset, .-SerialReset
	.section	.text.SerialSetAttributes,"ax",@progbits
	.align	1
	.globl	SerialSetAttributes
	.type	SerialSetAttributes, @function
SerialSetAttributes:
.LFB1:
	.loc 1 291 1
	.cfi_startproc
	addi	sp,sp,-112
	.cfi_def_cfa_offset 112
	sd	ra,104(sp)
	sd	s0,96(sp)
	.cfi_offset 1, -8
	.cfi_offset 8, -16
	addi	s0,sp,112
	.cfi_def_cfa 8, 0
	sd	a0,-72(s0)
	sd	a1,-80(s0)
	mv	a0,a2
	mv	a1,a3
	mv	a2,a4
	mv	a3,a5
	mv	a4,a6
	mv	a5,a0
	sw	a5,-84(s0)
	mv	a5,a1
	sw	a5,-88(s0)
	mv	a5,a2
	sw	a5,-92(s0)
	mv	a5,a3
	sb	a5,-93(s0)
	mv	a5,a4
	sw	a5,-100(s0)
	.loc 1 306 20
	ld	a5,-80(s0)
	sd	a5,-24(s0)
	.loc 1 307 28
	lw	a5,-84(s0)
	sw	a5,-28(s0)
	.loc 1 308 19
	lw	a5,-88(s0)
	sw	a5,-32(s0)
	.loc 1 309 18
	lw	a5,-92(s0)
	sw	a5,-36(s0)
	.loc 1 310 20
	lbu	a5,-93(s0)
	sb	a5,-37(s0)
	.loc 1 311 20
	lw	a5,-100(s0)
	sw	a5,-44(s0)
	.loc 1 312 12
	addi	a5,s0,-100
	addi	a4,s0,-93
	addi	a3,s0,-92
	addi	a2,s0,-88
	addi	a1,s0,-84
	addi	a0,s0,-80
	call	SerialPortSetAttributes@plt
	sd	a0,-56(s0)
	.loc 1 313 34
	ld	a5,-56(s0)
	.loc 1 313 6
	bge	a5,zero,.L6
	.loc 1 318 8
	ld	a4,-56(s0)
	li	a5,-1
	slli	a5,a5,63
	addi	a5,a5,3
	bne	a4,a5,.L7
	.loc 1 319 14
	ld	a5,-72(s0)
	ld	a5,56(a5)
	.loc 1 319 20
	lw	a5,4(a5)
	.loc 1 318 68 discriminator 1
	lw	a4,-32(s0)
	sext.w	a4,a4
	beq	a4,a5,.L7
	.loc 1 320 14
	ld	a5,-72(s0)
	ld	a5,56(a5)
	.loc 1 320 20
	lw	a5,16(a5)
	.loc 1 319 50
	lw	a4,-28(s0)
	sext.w	a4,a4
	bne	a4,a5,.L7
	.loc 1 321 14
	ld	a5,-72(s0)
	ld	a5,56(a5)
	.loc 1 321 20
	ld	a5,8(a5)
	.loc 1 320 68
	ld	a4,-24(s0)
	bne	a4,a5,.L7
	.loc 1 322 14
	ld	a5,-72(s0)
	ld	a5,56(a5)
	.loc 1 322 20
	lw	a4,20(a5)
	.loc 1 322 34
	lbu	a5,-37(s0)
	sext.w	a5,a5
	.loc 1 321 52
	bne	a4,a5,.L7
	.loc 1 323 14
	ld	a5,-72(s0)
	ld	a5,56(a5)
	.loc 1 323 20
	lw	a5,24(a5)
	.loc 1 322 60
	lw	a4,-36(s0)
	sext.w	a4,a4
	bne	a4,a5,.L7
	.loc 1 324 14
	ld	a5,-72(s0)
	ld	a5,56(a5)
	.loc 1 324 20
	lw	a5,28(a5)
	.loc 1 323 56
	lw	a4,-44(s0)
	sext.w	a4,a4
	bne	a4,a5,.L7
	.loc 1 329 16
	ld	a5,-24(s0)
	sd	a5,-80(s0)
	.loc 1 330 24
	lw	a5,-28(s0)
	sw	a5,-84(s0)
	.loc 1 331 15
	lw	a5,-32(s0)
	sw	a5,-88(s0)
	.loc 1 332 14
	lw	a5,-36(s0)
	sw	a5,-92(s0)
	.loc 1 333 16
	lbu	a5,-37(s0)
	sb	a5,-93(s0)
	.loc 1 334 16
	lw	a5,-44(s0)
	sw	a5,-100(s0)
	.loc 1 335 14
	sd	zero,-56(s0)
	j	.L6
.L7:
	.loc 1 336 15
	ld	a4,-56(s0)
	li	a5,-1
	slli	a5,a5,63
	addi	a5,a5,2
	beq	a4,a5,.L8
	.loc 1 336 75 discriminator 1
	ld	a4,-56(s0)
	li	a5,-1
	slli	a5,a5,63
	addi	a5,a5,3
	bne	a4,a5,.L9
.L8:
	.loc 1 337 14
	li	a5,-1
	slli	a5,a5,63
	addi	a5,a5,2
	j	.L10
.L9:
	.loc 1 339 14
	li	a5,-1
	slli	a5,a5,63
	addi	a5,a5,7
	j	.L10
.L6:
	.loc 1 347 12
	la	a5,gBS
	ld	a5,0(a5)
	ld	a5,24(a5)
	.loc 1 347 9
	li	a0,16
	jalr	a5
.LVL1:
	sd	a0,-64(s0)
	.loc 1 352 7
	ld	a5,-72(s0)
	ld	a5,56(a5)
	.loc 1 352 32
	lw	a4,-84(s0)
	sw	a4,16(a5)
	.loc 1 353 7
	ld	a5,-72(s0)
	ld	a5,56(a5)
	.loc 1 353 23
	lw	a4,-88(s0)
	sw	a4,4(a5)
	.loc 1 354 7
	ld	a5,-72(s0)
	ld	a5,56(a5)
	.loc 1 354 24
	ld	a4,-80(s0)
	sd	a4,8(a5)
	.loc 1 355 26
	lbu	a4,-93(s0)
	.loc 1 355 7
	ld	a5,-72(s0)
	ld	a5,56(a5)
	.loc 1 355 26
	sext.w	a4,a4
	.loc 1 355 24
	sw	a4,20(a5)
	.loc 1 356 7
	ld	a5,-72(s0)
	ld	a5,56(a5)
	.loc 1 356 22
	lw	a4,-92(s0)
	sw	a4,24(a5)
	.loc 1 357 7
	ld	a5,-72(s0)
	ld	a5,56(a5)
	.loc 1 357 24
	lw	a4,-100(s0)
	sw	a4,28(a5)
	.loc 1 362 30
	lla	a5,mSerialDevicePath
	ld	a4,24(a5)
	srli	a4,a4,32
	ld	a5,32(a5)
	slli	a5,a5,32
	srli	a5,a5,32
	slli	a5,a5,32
	or	a5,a5,a4
	mv	a4,a5
	.loc 1 362 40
	ld	a5,-80(s0)
	.loc 1 362 6
	bne	a4,a5,.L11
	.loc 1 363 30
	lla	a5,mSerialDevicePath
	lbu	a4,36(a5)
	.loc 1 363 40
	lbu	a5,-93(s0)
	.loc 1 362 53 discriminator 1
	bne	a4,a5,.L11
	.loc 1 364 30
	lla	a5,mSerialDevicePath
	lbu	a4,37(a5)
	.loc 1 364 38
	lw	a5,-92(s0)
	andi	a5,a5,0xff
	.loc 1 363 53
	bne	a4,a5,.L11
	.loc 1 365 30
	lla	a5,mSerialDevicePath
	lbu	a4,38(a5)
	.loc 1 365 40
	lw	a5,-100(s0)
	andi	a5,a5,0xff
	.loc 1 364 56
	bne	a4,a5,.L11
	.loc 1 368 8
	la	a5,gBS
	ld	a5,0(a5)
	ld	a5,32(a5)
	.loc 1 368 5
	ld	a0,-64(s0)
	jalr	a5
.LVL2:
	.loc 1 369 12
	li	a5,0
	j	.L10
.L11:
	.loc 1 375 35
	ld	a4,-80(s0)
	lla	a5,mSerialDevicePath
	slli	a3,a4,32
	srli	a3,a3,32
	lw	a2,28(a5)
	andi	a2,a2,0
	or	a3,a2,a3
	sw	a3,28(a5)
	srli	a4,a4,32
	lw	a3,32(a5)
	andi	a3,a3,0
	or	a4,a3,a4
	sw	a4,32(a5)
	.loc 1 376 35
	lbu	a4,-93(s0)
	lla	a5,mSerialDevicePath
	sb	a4,36(a5)
	.loc 1 377 35
	lw	a5,-92(s0)
	andi	a4,a5,0xff
	.loc 1 377 33
	lla	a5,mSerialDevicePath
	sb	a4,37(a5)
	.loc 1 378 37
	lw	a5,-100(s0)
	andi	a4,a5,0xff
	.loc 1 378 35
	lla	a5,mSerialDevicePath
	sb	a4,38(a5)
	.loc 1 380 15
	la	a5,gBS
	ld	a5,0(a5)
	ld	a5,136(a5)
	.loc 1 380 12
	lla	a4,mSerialHandle
	ld	a4,0(a4)
	lla	a3,mSerialDevicePath
	lla	a2,mSerialDevicePath
	la	a1,gEfiDevicePathProtocolGuid
	mv	a0,a4
	jalr	a5
.LVL3:
	sd	a0,-56(s0)
	.loc 1 387 6
	la	a5,gBS
	ld	a5,0(a5)
	ld	a5,32(a5)
	.loc 1 387 3
	ld	a0,-64(s0)
	jalr	a5
.LVL4:
	.loc 1 389 10
	ld	a5,-56(s0)
.L10:
	.loc 1 390 1
	mv	a0,a5
	ld	ra,104(sp)
	.cfi_restore 1
	ld	s0,96(sp)
	.cfi_restore 8
	.cfi_def_cfa 2, 112
	addi	sp,sp,112
	.cfi_def_cfa_offset 0
	jr	ra
	.cfi_endproc
.LFE1:
	.size	SerialSetAttributes, .-SerialSetAttributes
	.section	.text.SerialSetControl,"ax",@progbits
	.align	1
	.globl	SerialSetControl
	.type	SerialSetControl, @function
SerialSetControl:
.LFB2:
	.loc 1 409 1
	.cfi_startproc
	addi	sp,sp,-32
	.cfi_def_cfa_offset 32
	sd	ra,24(sp)
	sd	s0,16(sp)
	.cfi_offset 1, -8
	.cfi_offset 8, -16
	addi	s0,sp,32
	.cfi_def_cfa 8, 0
	sd	a0,-24(s0)
	mv	a5,a1
	sw	a5,-28(s0)
	.loc 1 410 10
	lw	a5,-28(s0)
	mv	a0,a5
	call	SerialPortSetControl@plt
	mv	a5,a0
	.loc 1 411 1
	mv	a0,a5
	ld	ra,24(sp)
	.cfi_restore 1
	ld	s0,16(sp)
	.cfi_restore 8
	.cfi_def_cfa 2, 32
	addi	sp,sp,32
	.cfi_def_cfa_offset 0
	jr	ra
	.cfi_endproc
.LFE2:
	.size	SerialSetControl, .-SerialSetControl
	.section	.text.SerialGetControl,"ax",@progbits
	.align	1
	.globl	SerialGetControl
	.type	SerialGetControl, @function
SerialGetControl:
.LFB3:
	.loc 1 429 1
	.cfi_startproc
	addi	sp,sp,-32
	.cfi_def_cfa_offset 32
	sd	ra,24(sp)
	sd	s0,16(sp)
	.cfi_offset 1, -8
	.cfi_offset 8, -16
	addi	s0,sp,32
	.cfi_def_cfa 8, 0
	sd	a0,-24(s0)
	sd	a1,-32(s0)
	.loc 1 430 10
	ld	a0,-32(s0)
	call	SerialPortGetControl@plt
	mv	a5,a0
	.loc 1 431 1
	mv	a0,a5
	ld	ra,24(sp)
	.cfi_restore 1
	ld	s0,16(sp)
	.cfi_restore 8
	.cfi_def_cfa 2, 32
	addi	sp,sp,32
	.cfi_def_cfa_offset 0
	jr	ra
	.cfi_endproc
.LFE3:
	.size	SerialGetControl, .-SerialGetControl
	.section	.text.SerialWrite,"ax",@progbits
	.align	1
	.globl	SerialWrite
	.type	SerialWrite, @function
SerialWrite:
.LFB4:
	.loc 1 453 1
	.cfi_startproc
	addi	sp,sp,-64
	.cfi_def_cfa_offset 64
	sd	ra,56(sp)
	sd	s0,48(sp)
	.cfi_offset 1, -8
	.cfi_offset 8, -16
	addi	s0,sp,64
	.cfi_def_cfa 8, 0
	sd	a0,-40(s0)
	sd	a1,-48(s0)
	sd	a2,-56(s0)
	.loc 1 456 11
	ld	a5,-48(s0)
	ld	a5,0(a5)
	mv	a1,a5
	ld	a0,-56(s0)
	call	SerialPortWrite@plt
	sd	a0,-24(s0)
	.loc 1 458 16
	ld	a5,-48(s0)
	ld	a5,0(a5)
	.loc 1 458 6
	ld	a4,-24(s0)
	beq	a4,a5,.L17
	.loc 1 459 17
	ld	a5,-48(s0)
	ld	a4,-24(s0)
	sd	a4,0(a5)
	.loc 1 460 12
	li	a5,-1
	slli	a5,a5,63
	addi	a5,a5,18
	j	.L18
.L17:
	.loc 1 463 10
	li	a5,0
.L18:
	.loc 1 464 1
	mv	a0,a5
	ld	ra,56(sp)
	.cfi_restore 1
	ld	s0,48(sp)
	.cfi_restore 8
	.cfi_def_cfa 2, 64
	addi	sp,sp,64
	.cfi_def_cfa_offset 0
	jr	ra
	.cfi_endproc
.LFE4:
	.size	SerialWrite, .-SerialWrite
	.section	.text.SerialRead,"ax",@progbits
	.align	1
	.globl	SerialRead
	.type	SerialRead, @function
SerialRead:
.LFB5:
	.loc 1 486 1
	.cfi_startproc
	addi	sp,sp,-64
	.cfi_def_cfa_offset 64
	sd	ra,56(sp)
	sd	s0,48(sp)
	.cfi_offset 1, -8
	.cfi_offset 8, -16
	addi	s0,sp,64
	.cfi_def_cfa 8, 0
	sd	a0,-40(s0)
	sd	a1,-48(s0)
	sd	a2,-56(s0)
	.loc 1 490 9
	sd	zero,-24(s0)
	.loc 1 492 9
	j	.L20
.L27:
	.loc 1 493 13
	sd	zero,-32(s0)
	.loc 1 494 11
	j	.L21
.L24:
	.loc 1 495 11
	call	SerialPortPoll@plt
	mv	a5,a0
	.loc 1 495 10 discriminator 1
	bne	a5,zero,.L30
	.loc 1 499 10
	la	a5,gBS
	ld	a5,0(a5)
	ld	a5,248(a5)
	.loc 1 499 7
	li	a0,10
	jalr	a5
.LVL5:
	.loc 1 500 15
	ld	a5,-32(s0)
	addi	a5,a5,10
	sd	a5,-32(s0)
.L21:
	.loc 1 494 35
	lla	a5,mSerialIoMode
	lw	a5,4(a5)
	slli	a5,a5,32
	srli	a5,a5,32
	.loc 1 494 20
	ld	a4,-32(s0)
	bltu	a4,a5,.L24
	j	.L23
.L30:
	.loc 1 496 9
	nop
.L23:
	.loc 1 503 33
	lla	a5,mSerialIoMode
	lw	a5,4(a5)
	slli	a5,a5,32
	srli	a5,a5,32
	.loc 1 503 8
	ld	a4,-32(s0)
	bgeu	a4,a5,.L31
	.loc 1 507 5
	li	a1,1
	ld	a0,-56(s0)
	call	SerialPortRead@plt
	.loc 1 508 10
	ld	a5,-24(s0)
	addi	a5,a5,1
	sd	a5,-24(s0)
	.loc 1 509 12
	ld	a5,-56(s0)
	addi	a5,a5,1
	sd	a5,-56(s0)
.L20:
	.loc 1 492 18
	ld	a5,-48(s0)
	ld	a5,0(a5)
	.loc 1 492 16
	ld	a4,-24(s0)
	bltu	a4,a5,.L27
	j	.L26
.L31:
	.loc 1 504 7
	nop
.L26:
	.loc 1 512 16
	ld	a5,-48(s0)
	ld	a5,0(a5)
	.loc 1 512 6
	ld	a4,-24(s0)
	beq	a4,a5,.L28
	.loc 1 513 17
	ld	a5,-48(s0)
	ld	a4,-24(s0)
	sd	a4,0(a5)
	.loc 1 514 12
	li	a5,-1
	slli	a5,a5,63
	addi	a5,a5,18
	j	.L29
.L28:
	.loc 1 517 10
	li	a5,0
.L29:
	.loc 1 518 1
	mv	a0,a5
	ld	ra,56(sp)
	.cfi_restore 1
	ld	s0,48(sp)
	.cfi_restore 8
	.cfi_def_cfa 2, 64
	addi	sp,sp,64
	.cfi_def_cfa_offset 0
	jr	ra
	.cfi_endproc
.LFE5:
	.size	SerialRead, .-SerialRead
	.section	.text.SerialDxeInitialize,"ax",@progbits
	.align	1
	.globl	SerialDxeInitialize
	.type	SerialDxeInitialize, @function
SerialDxeInitialize:
.LFB6:
	.loc 1 536 1
	.cfi_startproc
	addi	sp,sp,-48
	.cfi_def_cfa_offset 48
	sd	ra,40(sp)
	sd	s0,32(sp)
	.cfi_offset 1, -8
	.cfi_offset 8, -16
	addi	s0,sp,48
	.cfi_def_cfa 8, 0
	sd	a0,-40(s0)
	sd	a1,-48(s0)
	.loc 1 539 26
	la	a5,_gPcd_FixedAtBuild_PcdUartDefaultBaudRate
	ld	a4,0(a5)
	lla	a5,mSerialIoMode
	sd	a4,8(a5)
	.loc 1 540 28
	la	a5,_gPcd_FixedAtBuild_PcdUartDefaultDataBits
	lbu	a5,0(a5)
	sext.w	a4,a5
	.loc 1 540 26
	lla	a5,mSerialIoMode
	sw	a4,20(a5)
	.loc 1 541 26
	la	a5,_gPcd_FixedAtBuild_PcdUartDefaultParity
	lbu	a5,0(a5)
	sext.w	a4,a5
	.loc 1 541 24
	lla	a5,mSerialIoMode
	sw	a4,24(a5)
	.loc 1 542 28
	la	a5,_gPcd_FixedAtBuild_PcdUartDefaultStopBits
	lbu	a5,0(a5)
	sext.w	a4,a5
	.loc 1 542 26
	lla	a5,mSerialIoMode
	sw	a4,28(a5)
	.loc 1 543 34
	la	a5,_gPcd_FixedAtBuild_PcdUartDefaultReceiveFifoDepth
	lhu	a5,0(a5)
	sext.w	a4,a5
	lla	a5,mSerialIoMode
	sw	a4,16(a5)
	.loc 1 544 35
	la	a5,_gPcd_FixedAtBuild_PcdUartDefaultBaudRate
	ld	a4,0(a5)
	lla	a5,mSerialDevicePath
	slli	a3,a4,32
	srli	a3,a3,32
	lw	a2,28(a5)
	andi	a2,a2,0
	or	a3,a2,a3
	sw	a3,28(a5)
	srli	a4,a4,32
	lw	a3,32(a5)
	andi	a3,a3,0
	or	a4,a3,a4
	sw	a4,32(a5)
	.loc 1 545 35
	la	a5,_gPcd_FixedAtBuild_PcdUartDefaultDataBits
	lbu	a4,0(a5)
	lla	a5,mSerialDevicePath
	sb	a4,36(a5)
	.loc 1 546 33
	la	a5,_gPcd_FixedAtBuild_PcdUartDefaultParity
	lbu	a4,0(a5)
	lla	a5,mSerialDevicePath
	sb	a4,37(a5)
	.loc 1 547 35
	la	a5,_gPcd_FixedAtBuild_PcdUartDefaultStopBits
	lbu	a4,0(a5)
	lla	a5,mSerialDevicePath
	sb	a4,38(a5)
	.loc 1 552 29
	lla	a5,mSerialIoTemplate
	ld	a5,8(a5)
	.loc 1 552 12
	lla	a0,mSerialIoTemplate
	jalr	a5
.LVL6:
	sd	a0,-24(s0)
	.loc 1 553 34
	ld	a5,-24(s0)
	.loc 1 553 6
	bge	a5,zero,.L33
	.loc 1 554 12
	ld	a5,-24(s0)
	j	.L34
.L33:
	.loc 1 560 15
	la	a5,gBS
	ld	a5,0(a5)
	ld	a6,328(a5)
	.loc 1 560 12
	li	a5,0
	lla	a4,mSerialDevicePath
	la	a3,gEfiDevicePathProtocolGuid
	lla	a2,mSerialIoTemplate
	la	a1,gEfiSerialIoProtocolGuid
	lla	a0,mSerialHandle
	jalr	a6
.LVL7:
	sd	a0,-24(s0)
	.loc 1 570 10
	ld	a5,-24(s0)
.L34:
	.loc 1 571 1
	mv	a0,a5
	ld	ra,40(sp)
	.cfi_restore 1
	ld	s0,32(sp)
	.cfi_restore 8
	.cfi_def_cfa 2, 48
	addi	sp,sp,48
	.cfi_def_cfa_offset 0
	jr	ra
	.cfi_endproc
.LFE6:
	.size	SerialDxeInitialize, .-SerialDxeInitialize
	.text
.Letext0:
	.file 2 "/home/kapoagaeming/Downloads/spacemit-image-builder/components/edk2/MdePkg/Include/RiscV64/ProcessorBind.h"
	.file 3 "/home/kapoagaeming/Downloads/spacemit-image-builder/components/edk2/MdePkg/Include/Base.h"
	.file 4 "/home/kapoagaeming/Downloads/spacemit-image-builder/components/edk2/MdePkg/Include/Uefi/UefiBaseType.h"
	.file 5 "/home/kapoagaeming/Downloads/spacemit-image-builder/components/edk2/MdePkg/Include/Uefi/UefiMultiPhase.h"
	.file 6 "/home/kapoagaeming/Downloads/spacemit-image-builder/components/edk2/MdePkg/Include/Protocol/DevicePath.h"
	.file 7 "/home/kapoagaeming/Downloads/spacemit-image-builder/components/edk2/MdePkg/Include/Protocol/SimpleTextIn.h"
	.file 8 "/home/kapoagaeming/Downloads/spacemit-image-builder/components/edk2/MdePkg/Include/Protocol/SimpleTextOut.h"
	.file 9 "/home/kapoagaeming/Downloads/spacemit-image-builder/components/edk2/MdePkg/Include/Uefi/UefiSpec.h"
	.file 10 "/home/kapoagaeming/Downloads/spacemit-image-builder/components/Build/Milk-V-Jupiter/RELEASE_GCC5/RISCV64/MdeModulePkg/Universal/SerialDxe/SerialDxe/DEBUG/AutoGen.h"
	.file 11 "/home/kapoagaeming/Downloads/spacemit-image-builder/components/edk2/MdePkg/Include/Protocol/SerialIo.h"
	.file 12 "/home/kapoagaeming/Downloads/spacemit-image-builder/components/edk2/MdePkg/Include/Library/SerialPortLib.h"
	.file 13 "/home/kapoagaeming/Downloads/spacemit-image-builder/components/edk2/MdePkg/Include/Library/UefiBootServicesTableLib.h"
	.section	.note.GNU-stack,"",@progbits
