	.file	"DxeSecurityManagementLib.c"
	.option pic
	.option norelax
	.attribute arch, "rv64i2p1_m2p0_a2p1_f2p2_d2p2_c2p0_zicsr2p0_zifencei2p0_zmmul1p0_zaamo1p0_zalrsc1p0_zca1p0_zcd1p0"
	.attribute unaligned_access, 0
	.attribute stack_align, 16
	.text
.Ltext0:
	.cfi_sections	.debug_frame
	.file 0 "/home/kapoagaeming/spacemit-image-builder/components/Build/Milk-V-Jupiter/RELEASE_GCC5/RISCV64/MdeModulePkg/Library/DxeSecurityManagementLib/DxeSecurityManagementLib" "/home/kapoagaeming/spacemit-image-builder/components/edk2/MdeModulePkg/Library/DxeSecurityManagementLib/DxeSecurityManagementLib.c"
	.globl	mCurrentAuthOperation
	.section	.bss.mCurrentAuthOperation,"aw",@nobits
	.align	2
	.type	mCurrentAuthOperation, @object
	.size	mCurrentAuthOperation, 4
mCurrentAuthOperation:
	.zero	4
	.globl	mNumberOfSecurityHandler
	.section	.bss.mNumberOfSecurityHandler,"aw",@nobits
	.align	2
	.type	mNumberOfSecurityHandler, @object
	.size	mNumberOfSecurityHandler, 4
mNumberOfSecurityHandler:
	.zero	4
	.globl	mMaxNumberOfSecurityHandler
	.section	.bss.mMaxNumberOfSecurityHandler,"aw",@nobits
	.align	2
	.type	mMaxNumberOfSecurityHandler, @object
	.size	mMaxNumberOfSecurityHandler, 4
mMaxNumberOfSecurityHandler:
	.zero	4
	.globl	mSecurityTable
	.section	.bss.mSecurityTable,"aw",@nobits
	.align	3
	.type	mSecurityTable, @object
	.size	mSecurityTable, 8
mSecurityTable:
	.zero	8
	.globl	mCurrentAuthOperation2
	.section	.bss.mCurrentAuthOperation2,"aw",@nobits
	.align	2
	.type	mCurrentAuthOperation2, @object
	.size	mCurrentAuthOperation2, 4
mCurrentAuthOperation2:
	.zero	4
	.globl	mNumberOfSecurity2Handler
	.section	.bss.mNumberOfSecurity2Handler,"aw",@nobits
	.align	2
	.type	mNumberOfSecurity2Handler, @object
	.size	mNumberOfSecurity2Handler, 4
mNumberOfSecurity2Handler:
	.zero	4
	.globl	mMaxNumberOfSecurity2Handler
	.section	.bss.mMaxNumberOfSecurity2Handler,"aw",@nobits
	.align	2
	.type	mMaxNumberOfSecurity2Handler, @object
	.size	mMaxNumberOfSecurity2Handler, 4
mMaxNumberOfSecurity2Handler:
	.zero	4
	.globl	mSecurity2Table
	.section	.bss.mSecurity2Table,"aw",@nobits
	.align	3
	.type	mSecurity2Table, @object
	.size	mSecurity2Table, 8
mSecurity2Table:
	.zero	8
	.section	.text.ReallocateSecurityHandlerTable,"ax",@progbits
	.align	1
	.globl	ReallocateSecurityHandlerTable
	.type	ReallocateSecurityHandlerTable, @function
ReallocateSecurityHandlerTable:
.LFB0:
	.file 1 "/home/kapoagaeming/spacemit-image-builder/components/edk2/MdeModulePkg/Library/DxeSecurityManagementLib/DxeSecurityManagementLib.c"
	.loc 1 60 1
	.cfi_startproc
	addi	sp,sp,-16
	.cfi_def_cfa_offset 16
	sd	ra,8(sp)
	sd	s0,0(sp)
	.cfi_offset 1, -8
	.cfi_offset 8, -16
	addi	s0,sp,16
	.cfi_def_cfa 8, 0
	.loc 1 64 20
	lla	a5,mMaxNumberOfSecurityHandler
	lw	a5,0(a5)
	slli	a5,a5,32
	srli	a5,a5,32
	.loc 1 65 50
	slli	a4,a5,4
	.loc 1 66 51
	lla	a5,mMaxNumberOfSecurityHandler
	lw	a5,0(a5)
	addiw	a5,a5,16
	sext.w	a5,a5
	slli	a5,a5,32
	srli	a5,a5,32
	.loc 1 66 59
	slli	a3,a5,4
	.loc 1 64 20
	lla	a5,mSecurityTable
	ld	a5,0(a5)
	mv	a2,a5
	mv	a1,a3
	mv	a0,a4
	call	ReallocatePool@plt
	mv	a4,a0
	.loc 1 64 18 discriminator 1
	lla	a5,mSecurityTable
	sd	a4,0(a5)
	.loc 1 73 22
	lla	a5,mSecurityTable
	ld	a5,0(a5)
	.loc 1 73 6
	bne	a5,zero,.L2
	.loc 1 74 12
	li	a5,-1
	slli	a5,a5,63
	addi	a5,a5,9
	j	.L3
.L2:
	.loc 1 80 61
	lla	a5,mMaxNumberOfSecurityHandler
	lw	a5,0(a5)
	addiw	a5,a5,16
	sext.w	a4,a5
	.loc 1 80 31
	lla	a5,mMaxNumberOfSecurityHandler
	sw	a4,0(a5)
	.loc 1 81 10
	li	a5,0
.L3:
	.loc 1 82 1
	mv	a0,a5
	ld	ra,8(sp)
	.cfi_restore 1
	ld	s0,0(sp)
	.cfi_restore 8
	.cfi_def_cfa 2, 16
	addi	sp,sp,16
	.cfi_def_cfa_offset 0
	jr	ra
	.cfi_endproc
.LFE0:
	.size	ReallocateSecurityHandlerTable, .-ReallocateSecurityHandlerTable
	.section	.text.CheckAuthenticationOperation,"ax",@progbits
	.align	1
	.globl	CheckAuthenticationOperation
	.type	CheckAuthenticationOperation, @function
CheckAuthenticationOperation:
.LFB1:
	.loc 1 99 1
	.cfi_startproc
	addi	sp,sp,-32
	.cfi_def_cfa_offset 32
	sd	ra,24(sp)
	sd	s0,16(sp)
	.cfi_offset 1, -8
	.cfi_offset 8, -16
	addi	s0,sp,32
	.cfi_def_cfa 8, 0
	mv	a5,a0
	mv	a4,a1
	sw	a5,-20(s0)
	mv	a5,a4
	sw	a5,-24(s0)
	.loc 1 109 29
	lw	a5,-20(s0)
	andi	a5,a5,4
	sext.w	a5,a5
	.loc 1 109 6
	beq	a5,zero,.L5
	.loc 1 110 30
	lw	a5,-24(s0)
	andi	a5,a5,4
	sext.w	a5,a5
	.loc 1 110 8
	bne	a5,zero,.L6
	.loc 1 111 30
	lw	a5,-24(s0)
	andi	a5,a5,7
	sext.w	a5,a5
	.loc 1 110 47 discriminator 1
	bne	a5,zero,.L7
.L6:
	.loc 1 113 14
	li	a5,1
	j	.L8
.L7:
	.loc 1 115 14
	li	a5,0
	j	.L8
.L5:
	.loc 1 123 10
	li	a5,1
.L8:
	.loc 1 124 1
	mv	a0,a5
	ld	ra,24(sp)
	.cfi_restore 1
	ld	s0,16(sp)
	.cfi_restore 8
	.cfi_def_cfa 2, 32
	addi	sp,sp,32
	.cfi_def_cfa_offset 0
	jr	ra
	.cfi_endproc
.LFE1:
	.size	CheckAuthenticationOperation, .-CheckAuthenticationOperation
	.section	.text.RegisterSecurityHandler,"ax",@progbits
	.align	1
	.globl	RegisterSecurityHandler
	.type	RegisterSecurityHandler, @function
RegisterSecurityHandler:
.LFB2:
	.loc 1 146 1
	.cfi_startproc
	addi	sp,sp,-48
	.cfi_def_cfa_offset 48
	sd	ra,40(sp)
	sd	s0,32(sp)
	.cfi_offset 1, -8
	.cfi_offset 8, -16
	addi	s0,sp,48
	.cfi_def_cfa 8, 0
	sd	a0,-40(s0)
	mv	a5,a1
	sw	a5,-44(s0)
	.loc 1 155 49
	lla	a5,mCurrentAuthOperation
	lw	a5,0(a5)
	lw	a4,-44(s0)
	or	a5,a4,a5
	sext.w	a4,a5
	.loc 1 155 25
	lla	a5,mCurrentAuthOperation
	sw	a4,0(a5)
	.loc 1 160 32
	lla	a5,mNumberOfSecurityHandler
	lw	a4,0(a5)
	lla	a5,mMaxNumberOfSecurityHandler
	lw	a5,0(a5)
	.loc 1 160 6
	bne	a4,a5,.L10
	.loc 1 164 14
	call	ReallocateSecurityHandlerTable
	sd	a0,-24(s0)
.L10:
	.loc 1 171 17
	lla	a5,mSecurityTable
	ld	a4,0(a5)
	lla	a5,mNumberOfSecurityHandler
	lw	a5,0(a5)
	slli	a5,a5,32
	srli	a5,a5,32
	slli	a5,a5,4
	add	a5,a4,a5
	.loc 1 171 62
	lw	a4,-44(s0)
	sw	a4,0(a5)
	.loc 1 172 17
	lla	a5,mSecurityTable
	ld	a4,0(a5)
	lla	a5,mNumberOfSecurityHandler
	lw	a5,0(a5)
	slli	a5,a5,32
	srli	a5,a5,32
	slli	a5,a5,4
	add	a5,a4,a5
	.loc 1 172 60
	ld	a4,-40(s0)
	sd	a4,8(a5)
	.loc 1 173 27
	lla	a5,mNumberOfSecurityHandler
	lw	a5,0(a5)
	addiw	a5,a5,1
	sext.w	a4,a5
	lla	a5,mNumberOfSecurityHandler
	sw	a4,0(a5)
	.loc 1 175 10
	li	a5,0
	.loc 1 176 1
	mv	a0,a5
	ld	ra,40(sp)
	.cfi_restore 1
	ld	s0,32(sp)
	.cfi_restore 8
	.cfi_def_cfa 2, 48
	addi	sp,sp,48
	.cfi_def_cfa_offset 0
	jr	ra
	.cfi_endproc
.LFE2:
	.size	RegisterSecurityHandler, .-RegisterSecurityHandler
	.section	.text.ExecuteSecurityHandlers,"ax",@progbits
	.align	1
	.globl	ExecuteSecurityHandlers
	.type	ExecuteSecurityHandlers, @function
ExecuteSecurityHandlers:
.LFB3:
	.loc 1 215 1
	.cfi_startproc
	addi	sp,sp,-96
	.cfi_def_cfa_offset 96
	sd	ra,88(sp)
	sd	s0,80(sp)
	.cfi_offset 1, -8
	.cfi_offset 8, -16
	addi	s0,sp,96
	.cfi_def_cfa 8, 0
	mv	a5,a0
	sd	a1,-96(s0)
	sw	a5,-84(s0)
	.loc 1 225 6
	ld	a5,-96(s0)
	bne	a5,zero,.L13
	.loc 1 226 12
	li	a5,-1
	slli	a5,a5,63
	addi	a5,a5,2
	j	.L24
.L13:
	.loc 1 232 32
	lla	a5,mNumberOfSecurityHandler
	lw	a5,0(a5)
	.loc 1 232 6
	bne	a5,zero,.L15
	.loc 1 233 12
	li	a5,0
	j	.L24
.L15:
	.loc 1 236 10
	sd	zero,-32(s0)
	.loc 1 237 14
	sd	zero,-40(s0)
	.loc 1 238 12
	sd	zero,-64(s0)
	.loc 1 239 31
	lw	a5,-84(s0)
	sw	a5,-52(s0)
	.loc 1 240 20
	ld	a5,-96(s0)
	sd	a5,-48(s0)
	.loc 1 244 14
	sw	zero,-20(s0)
	.loc 1 244 3
	j	.L16
.L21:
	.loc 1 245 24
	lla	a5,mSecurityTable
	ld	a4,0(a5)
	lwu	a5,-20(s0)
	slli	a5,a5,4
	add	a5,a4,a5
	.loc 1 245 31
	lw	a5,0(a5)
	.loc 1 245 8
	bge	a5,zero,.L17
	.loc 1 249 10
	ld	a5,-40(s0)
	bne	a5,zero,.L17
	.loc 1 250 14
	ld	a5,-48(s0)
	sd	a5,-80(s0)
	.loc 1 251 21
	la	a5,gBS
	ld	a5,0(a5)
	ld	a5,184(a5)
	.loc 1 251 18
	addi	a3,s0,-72
	addi	a4,s0,-80
	mv	a2,a3
	mv	a1,a4
	la	a0,gEfiLoadFileProtocolGuid
	jalr	a5
.LVL0:
	sd	a0,-32(s0)
	.loc 1 255 22
	addi	a4,s0,-84
	addi	a5,s0,-64
	mv	a3,a4
	mv	a2,a5
	ld	a1,-96(s0)
	li	a0,0
	call	GetFileBufferByFilePath@plt
	sd	a0,-40(s0)
	.loc 1 256 12
	ld	a5,-40(s0)
	bne	a5,zero,.L18
	.loc 1 260 24
	addi	a4,s0,-84
	addi	a5,s0,-64
	mv	a3,a4
	mv	a2,a5
	ld	a1,-96(s0)
	li	a0,1
	call	GetFileBufferByFilePath@plt
	sd	a0,-40(s0)
.L18:
	.loc 1 263 12
	ld	a5,-40(s0)
	beq	a5,zero,.L17
	.loc 1 263 46 discriminator 1
	ld	a5,-32(s0)
	.loc 1 263 42 discriminator 1
	blt	a5,zero,.L17
	.loc 1 267 30
	ld	a5,-72(s0)
	.loc 1 267 48
	mv	a0,a5
	call	DevicePathFromHandle@plt
	mv	a4,a0
	.loc 1 267 30 discriminator 1
	ld	a5,-80(s0)
	mv	a1,a5
	mv	a0,a4
	call	AppendDevicePath@plt
	sd	a0,-48(s0)
.L17:
	.loc 1 272 28
	lla	a5,mSecurityTable
	ld	a4,0(a5)
	lwu	a5,-20(s0)
	slli	a5,a5,4
	add	a5,a4,a5
	.loc 1 272 35
	ld	a5,8(a5)
	.loc 1 272 14
	ld	a3,-64(s0)
	lw	a4,-52(s0)
	ld	a2,-40(s0)
	ld	a1,-48(s0)
	mv	a0,a4
	jalr	a5
.LVL1:
	sd	a0,-32(s0)
	.loc 1 278 36
	ld	a5,-32(s0)
	.loc 1 278 8
	blt	a5,zero,.L25
	.loc 1 244 58 discriminator 2
	lw	a5,-20(s0)
	addiw	a5,a5,1
	sw	a5,-20(s0)
.L16:
	.loc 1 244 25 discriminator 1
	lla	a5,mNumberOfSecurityHandler
	lw	a5,0(a5)
	lw	a4,-20(s0)
	sext.w	a4,a4
	bltu	a4,a5,.L21
	j	.L20
.L25:
	.loc 1 279 7
	nop
.L20:
	.loc 1 283 6
	ld	a5,-40(s0)
	beq	a5,zero,.L22
	.loc 1 284 5
	ld	a0,-40(s0)
	call	FreePool@plt
.L22:
	.loc 1 287 6
	ld	a4,-48(s0)
	ld	a5,-96(s0)
	beq	a4,a5,.L23
	.loc 1 288 5
	ld	a0,-48(s0)
	call	FreePool@plt
.L23:
	.loc 1 291 10
	ld	a5,-32(s0)
.L24:
	.loc 1 292 1
	mv	a0,a5
	ld	ra,88(sp)
	.cfi_restore 1
	ld	s0,80(sp)
	.cfi_restore 8
	.cfi_def_cfa 2, 96
	addi	sp,sp,96
	.cfi_def_cfa_offset 0
	jr	ra
	.cfi_endproc
.LFE3:
	.size	ExecuteSecurityHandlers, .-ExecuteSecurityHandlers
	.section	.text.ReallocateSecurity2HandlerTable,"ax",@progbits
	.align	1
	.globl	ReallocateSecurity2HandlerTable
	.type	ReallocateSecurity2HandlerTable, @function
ReallocateSecurity2HandlerTable:
.LFB4:
	.loc 1 305 1
	.cfi_startproc
	addi	sp,sp,-16
	.cfi_def_cfa_offset 16
	sd	ra,8(sp)
	sd	s0,0(sp)
	.cfi_offset 1, -8
	.cfi_offset 8, -16
	addi	s0,sp,16
	.cfi_def_cfa 8, 0
	.loc 1 309 21
	lla	a5,mMaxNumberOfSecurity2Handler
	lw	a5,0(a5)
	slli	a5,a5,32
	srli	a5,a5,32
	.loc 1 310 52
	slli	a4,a5,4
	.loc 1 311 53
	lla	a5,mMaxNumberOfSecurity2Handler
	lw	a5,0(a5)
	addiw	a5,a5,16
	sext.w	a5,a5
	slli	a5,a5,32
	srli	a5,a5,32
	.loc 1 311 61
	slli	a3,a5,4
	.loc 1 309 21
	lla	a5,mSecurity2Table
	ld	a5,0(a5)
	mv	a2,a5
	mv	a1,a3
	mv	a0,a4
	call	ReallocatePool@plt
	mv	a4,a0
	.loc 1 309 19 discriminator 1
	lla	a5,mSecurity2Table
	sd	a4,0(a5)
	.loc 1 318 23
	lla	a5,mSecurity2Table
	ld	a5,0(a5)
	.loc 1 318 6
	bne	a5,zero,.L27
	.loc 1 319 12
	li	a5,-1
	slli	a5,a5,63
	addi	a5,a5,9
	j	.L28
.L27:
	.loc 1 325 63
	lla	a5,mMaxNumberOfSecurity2Handler
	lw	a5,0(a5)
	addiw	a5,a5,16
	sext.w	a4,a5
	.loc 1 325 32
	lla	a5,mMaxNumberOfSecurity2Handler
	sw	a4,0(a5)
	.loc 1 326 10
	li	a5,0
.L28:
	.loc 1 327 1
	mv	a0,a5
	ld	ra,8(sp)
	.cfi_restore 1
	ld	s0,0(sp)
	.cfi_restore 8
	.cfi_def_cfa 2, 16
	addi	sp,sp,16
	.cfi_def_cfa_offset 0
	jr	ra
	.cfi_endproc
.LFE4:
	.size	ReallocateSecurity2HandlerTable, .-ReallocateSecurity2HandlerTable
	.section	.text.CheckAuthentication2Operation,"ax",@progbits
	.align	1
	.globl	CheckAuthentication2Operation
	.type	CheckAuthentication2Operation, @function
CheckAuthentication2Operation:
.LFB5:
	.loc 1 349 1
	.cfi_startproc
	addi	sp,sp,-32
	.cfi_def_cfa_offset 32
	sd	ra,24(sp)
	sd	s0,16(sp)
	.cfi_offset 1, -8
	.cfi_offset 8, -16
	addi	s0,sp,32
	.cfi_def_cfa 8, 0
	mv	a5,a0
	mv	a4,a1
	sw	a5,-20(s0)
	mv	a5,a4
	sw	a5,-24(s0)
	.loc 1 353 6
	lw	a5,-24(s0)
	sext.w	a5,a5
	bne	a5,zero,.L30
	.loc 1 354 12
	li	a5,0
	j	.L31
.L30:
	.loc 1 357 27
	lw	a5,-24(s0)
	mv	a4,a5
	li	a5,-2147483648
	xori	a5,a5,-32
	and	a5,a4,a5
	sext.w	a5,a5
	.loc 1 357 6
	beq	a5,zero,.L32
	.loc 1 361 12
	li	a5,0
	j	.L31
.L32:
	.loc 1 368 29
	lw	a5,-20(s0)
	andi	a5,a5,4
	sext.w	a5,a5
	.loc 1 368 6
	beq	a5,zero,.L33
	.loc 1 369 30
	lw	a5,-24(s0)
	andi	a5,a5,4
	sext.w	a5,a5
	.loc 1 369 8
	bne	a5,zero,.L34
	.loc 1 370 30
	lw	a5,-24(s0)
	andi	a5,a5,7
	sext.w	a5,a5
	.loc 1 369 47 discriminator 1
	bne	a5,zero,.L35
.L34:
	.loc 1 372 14
	li	a5,1
	j	.L31
.L35:
	.loc 1 374 14
	li	a5,0
	j	.L31
.L33:
	.loc 1 381 10
	li	a5,1
.L31:
	.loc 1 382 1
	mv	a0,a5
	ld	ra,24(sp)
	.cfi_restore 1
	ld	s0,16(sp)
	.cfi_restore 8
	.cfi_def_cfa 2, 32
	addi	sp,sp,32
	.cfi_def_cfa_offset 0
	jr	ra
	.cfi_endproc
.LFE5:
	.size	CheckAuthentication2Operation, .-CheckAuthentication2Operation
	.section	.text.RegisterSecurity2Handler,"ax",@progbits
	.align	1
	.globl	RegisterSecurity2Handler
	.type	RegisterSecurity2Handler, @function
RegisterSecurity2Handler:
.LFB6:
	.loc 1 405 1
	.cfi_startproc
	addi	sp,sp,-48
	.cfi_def_cfa_offset 48
	sd	ra,40(sp)
	sd	s0,32(sp)
	.cfi_offset 1, -8
	.cfi_offset 8, -16
	addi	s0,sp,48
	.cfi_def_cfa 8, 0
	sd	a0,-40(s0)
	mv	a5,a1
	sw	a5,-44(s0)
	.loc 1 414 51
	lla	a5,mCurrentAuthOperation2
	lw	a5,0(a5)
	lw	a4,-44(s0)
	or	a5,a4,a5
	sext.w	a4,a5
	.loc 1 414 26
	lla	a5,mCurrentAuthOperation2
	sw	a4,0(a5)
	.loc 1 419 33
	lla	a5,mNumberOfSecurity2Handler
	lw	a4,0(a5)
	lla	a5,mMaxNumberOfSecurity2Handler
	lw	a5,0(a5)
	.loc 1 419 6
	bne	a4,a5,.L37
	.loc 1 423 14
	call	ReallocateSecurity2HandlerTable
	sd	a0,-24(s0)
.L37:
	.loc 1 430 18
	lla	a5,mSecurity2Table
	ld	a4,0(a5)
	lla	a5,mNumberOfSecurity2Handler
	lw	a5,0(a5)
	slli	a5,a5,32
	srli	a5,a5,32
	slli	a5,a5,4
	add	a5,a4,a5
	.loc 1 430 65
	lw	a4,-44(s0)
	sw	a4,0(a5)
	.loc 1 431 18
	lla	a5,mSecurity2Table
	ld	a4,0(a5)
	lla	a5,mNumberOfSecurity2Handler
	lw	a5,0(a5)
	slli	a5,a5,32
	srli	a5,a5,32
	slli	a5,a5,4
	add	a5,a4,a5
	.loc 1 431 63
	ld	a4,-40(s0)
	sd	a4,8(a5)
	.loc 1 432 28
	lla	a5,mNumberOfSecurity2Handler
	lw	a5,0(a5)
	addiw	a5,a5,1
	sext.w	a4,a5
	lla	a5,mNumberOfSecurity2Handler
	sw	a4,0(a5)
	.loc 1 434 10
	li	a5,0
	.loc 1 435 1
	mv	a0,a5
	ld	ra,40(sp)
	.cfi_restore 1
	ld	s0,32(sp)
	.cfi_restore 8
	.cfi_def_cfa 2, 48
	addi	sp,sp,48
	.cfi_def_cfa_offset 0
	jr	ra
	.cfi_endproc
.LFE6:
	.size	RegisterSecurity2Handler, .-RegisterSecurity2Handler
	.section	.text.ExecuteSecurity2Handlers,"ax",@progbits
	.align	1
	.globl	ExecuteSecurity2Handlers
	.type	ExecuteSecurity2Handlers, @function
ExecuteSecurity2Handlers:
.LFB7:
	.loc 1 488 1
	.cfi_startproc
	addi	sp,sp,-80
	.cfi_def_cfa_offset 80
	sd	ra,72(sp)
	sd	s0,64(sp)
	.cfi_offset 1, -8
	.cfi_offset 8, -16
	addi	s0,sp,80
	.cfi_def_cfa 8, 0
	sd	a2,-48(s0)
	sd	a3,-56(s0)
	sd	a4,-64(s0)
	mv	a4,a5
	mv	a5,a0
	sw	a5,-36(s0)
	mv	a5,a1
	sw	a5,-40(s0)
	mv	a5,a4
	sb	a5,-65(s0)
	.loc 1 495 6
	ld	a5,-48(s0)
	bne	a5,zero,.L40
	.loc 1 495 30 discriminator 1
	ld	a5,-56(s0)
	bne	a5,zero,.L40
	.loc 1 496 12
	li	a5,-1
	slli	a5,a5,63
	addi	a5,a5,2
	j	.L41
.L40:
	.loc 1 502 33
	lla	a5,mNumberOfSecurity2Handler
	lw	a5,0(a5)
	.loc 1 502 6
	bne	a5,zero,.L42
	.loc 1 503 12
	li	a5,0
	j	.L41
.L42:
	.loc 1 509 14
	sw	zero,-20(s0)
	.loc 1 509 3
	j	.L43
.L47:
	.loc 1 515 8
	ld	a5,-56(s0)
	beq	a5,zero,.L44
	.loc 1 515 59 discriminator 1
	lla	a5,mSecurity2Table
	ld	a4,0(a5)
	lwu	a5,-20(s0)
	slli	a5,a5,4
	add	a5,a4,a5
	.loc 1 515 66 discriminator 1
	lw	a5,0(a5)
	.loc 1 515 86 discriminator 1
	andi	a5,a5,7
	sext.w	a5,a5
	.loc 1 515 39 discriminator 1
	bne	a5,zero,.L45
.L44:
	.loc 1 515 117 discriminator 3
	ld	a5,-56(s0)
	bne	a5,zero,.L46
	.loc 1 516 59
	lla	a5,mSecurity2Table
	ld	a4,0(a5)
	lwu	a5,-20(s0)
	slli	a5,a5,4
	add	a5,a4,a5
	.loc 1 516 66
	lw	a5,0(a5)
	.loc 1 516 86
	andi	a5,a5,24
	sext.w	a5,a5
	.loc 1 516 39
	beq	a5,zero,.L46
.L45:
	.loc 1 521 27
	lla	a5,mSecurity2Table
	ld	a4,0(a5)
	lwu	a5,-20(s0)
	slli	a5,a5,4
	add	a5,a4,a5
	.loc 1 521 34
	lw	a5,0(a5)
	.loc 1 521 54
	lw	a4,-36(s0)
	and	a5,a4,a5
	sext.w	a5,a5
	.loc 1 521 10
	beq	a5,zero,.L46
	.loc 1 522 33
	lla	a5,mSecurity2Table
	ld	a4,0(a5)
	lwu	a5,-20(s0)
	slli	a5,a5,4
	add	a5,a4,a5
	.loc 1 522 40
	ld	a5,8(a5)
	.loc 1 522 18
	lbu	a4,-65(s0)
	lw	a0,-40(s0)
	ld	a3,-64(s0)
	ld	a2,-56(s0)
	ld	a1,-48(s0)
	jalr	a5
.LVL2:
	sd	a0,-32(s0)
	.loc 1 529 40
	ld	a5,-32(s0)
	.loc 1 529 12
	bge	a5,zero,.L46
	.loc 1 530 18
	ld	a5,-32(s0)
	j	.L41
.L46:
	.loc 1 509 59 discriminator 2
	lw	a5,-20(s0)
	addiw	a5,a5,1
	sw	a5,-20(s0)
.L43:
	.loc 1 509 25 discriminator 1
	lla	a5,mNumberOfSecurity2Handler
	lw	a5,0(a5)
	lw	a4,-20(s0)
	sext.w	a4,a4
	bltu	a4,a5,.L47
	.loc 1 536 10
	li	a5,0
.L41:
	.loc 1 537 1
	mv	a0,a5
	ld	ra,72(sp)
	.cfi_restore 1
	ld	s0,64(sp)
	.cfi_restore 8
	.cfi_def_cfa 2, 80
	addi	sp,sp,80
	.cfi_def_cfa_offset 0
	jr	ra
	.cfi_endproc
.LFE7:
	.size	ExecuteSecurity2Handlers, .-ExecuteSecurity2Handlers
	.text
.Letext0:
	.file 2 "/home/kapoagaeming/spacemit-image-builder/components/edk2/MdePkg/Include/RiscV64/ProcessorBind.h"
	.file 3 "/home/kapoagaeming/spacemit-image-builder/components/edk2/MdePkg/Include/Base.h"
	.file 4 "/home/kapoagaeming/spacemit-image-builder/components/edk2/MdePkg/Include/Uefi/UefiBaseType.h"
	.file 5 "/home/kapoagaeming/spacemit-image-builder/components/edk2/MdePkg/Include/Uefi/UefiMultiPhase.h"
	.file 6 "/home/kapoagaeming/spacemit-image-builder/components/edk2/MdePkg/Include/Protocol/DevicePath.h"
	.file 7 "/home/kapoagaeming/spacemit-image-builder/components/edk2/MdePkg/Include/Uefi/UefiSpec.h"
	.file 8 "/home/kapoagaeming/spacemit-image-builder/components/edk2/MdeModulePkg/Include/Library/SecurityManagementLib.h"
	.file 9 "/home/kapoagaeming/spacemit-image-builder/components/Build/Milk-V-Jupiter/RELEASE_GCC5/RISCV64/MdeModulePkg/Library/DxeSecurityManagementLib/DxeSecurityManagementLib/DEBUG/AutoGen.h"
	.file 10 "/home/kapoagaeming/spacemit-image-builder/components/edk2/MdePkg/Include/Library/DevicePathLib.h"
	.file 11 "/home/kapoagaeming/spacemit-image-builder/components/edk2/MdePkg/Include/Library/DxeServicesLib.h"
	.file 12 "/home/kapoagaeming/spacemit-image-builder/components/edk2/MdePkg/Include/Library/MemoryAllocationLib.h"
	.file 13 "/home/kapoagaeming/spacemit-image-builder/components/edk2/MdePkg/Include/Library/UefiBootServicesTableLib.h"
	.section	.note.GNU-stack,"",@progbits
