	.file	"UsbHcd.c"
	.option pic
	.option norelax
	.attribute arch, "rv64i2p1_m2p0_a2p1_f2p2_d2p2_c2p0_zicsr2p0_zifencei2p0_zmmul1p0_zaamo1p0_zalrsc1p0_zca1p0_zcd1p0"
	.attribute unaligned_access, 0
	.attribute stack_align, 16
	.text
.Ltext0:
	.cfi_sections	.debug_frame
	.file 0 "/home/kapoagaeming/Downloads/spacemit-image-builder/components/Build/Milk-V-Jupiter/RELEASE_GCC5/RISCV64/Silicon/Spacemit/K1/Drivers/UsbHcdInitDxe/UsbHcd" "/home/kapoagaeming/Downloads/spacemit-image-builder/components/edk2-platforms/Silicon/Spacemit/K1/Drivers/UsbHcdInitDxe/UsbHcd.c"
	.section	.rodata
	.align	3
.LC0:
	.dword	0
	.dword	4
	.dword	8
	.dword	256
	.section	.text.GpioConfigureOutput,"ax",@progbits
	.align	1
	.globl	GpioConfigureOutput
	.type	GpioConfigureOutput, @function
GpioConfigureOutput:
.LFB0:
	.file 1 "/home/kapoagaeming/Downloads/spacemit-image-builder/components/edk2-platforms/Silicon/Spacemit/K1/Drivers/UsbHcdInitDxe/GpioLib.h"
	.loc 1 124 1
	.cfi_startproc
	addi	sp,sp,-64
	.cfi_def_cfa_offset 64
	sd	ra,56(sp)
	sd	s0,48(sp)
	.cfi_offset 1, -8
	.cfi_offset 8, -16
	addi	s0,sp,64
	.cfi_def_cfa 8, 0
	mv	a5,a0
	mv	a4,a1
	sb	a5,-49(s0)
	mv	a5,a4
	sb	a5,-50(s0)
.LBB2:
	.loc 1 126 47
	lla	a5,.LC0
	ld	a2,0(a5)
	ld	a3,8(a5)
	ld	a4,16(a5)
	sd	a2,-48(s0)
	sd	a3,-40(s0)
	sd	a4,-32(s0)
	ld	a5,24(a5)
	sd	a5,-24(s0)
	.loc 1 126 123
	lbu	a5,-49(s0)
	srliw	a5,a5,5
	andi	a5,a5,0xff
	sext.w	a4,a5
	.loc 1 126 115
	addi	a5,s0,-48
	slli	a4,a4,3
	add	a5,a4,a5
	ld	a4,0(a5)
	.loc 1 126 107
	li	a5,868352
	addi	a5,a5,25
	slli	a5,a5,12
	add	a5,a4,a5
.LBE2:
	.loc 1 126 23
	addi	a5,a5,84
	.loc 1 126 3
	mv	a3,a5
	.loc 1 126 155
	lbu	a5,-49(s0)
	sext.w	a5,a5
	andi	a5,a5,31
	sext.w	a5,a5
	.loc 1 126 145
	li	a4,1
	sllw	a5,a4,a5
	sext.w	a5,a5
	.loc 1 126 3
	mv	a1,a5
	mv	a0,a3
	call	MmioWrite32@plt
	.loc 1 127 6
	lbu	a5,-50(s0)
	andi	a5,a5,0xff
	beq	a5,zero,.L2
.LBB3:
	.loc 1 128 49
	lla	a5,.LC0
	ld	a2,0(a5)
	ld	a3,8(a5)
	ld	a4,16(a5)
	sd	a2,-48(s0)
	sd	a3,-40(s0)
	sd	a4,-32(s0)
	ld	a5,24(a5)
	sd	a5,-24(s0)
	.loc 1 128 125
	lbu	a5,-49(s0)
	srliw	a5,a5,5
	andi	a5,a5,0xff
	sext.w	a4,a5
	.loc 1 128 117
	addi	a5,s0,-48
	slli	a4,a4,3
	add	a5,a4,a5
	ld	a4,0(a5)
	.loc 1 128 109
	li	a5,868352
	addi	a5,a5,25
	slli	a5,a5,12
	add	a5,a4,a5
.LBE3:
	.loc 1 128 25
	addi	a5,a5,24
	.loc 1 128 5
	mv	a3,a5
	.loc 1 128 157
	lbu	a5,-49(s0)
	sext.w	a5,a5
	andi	a5,a5,31
	sext.w	a5,a5
	.loc 1 128 147
	li	a4,1
	sllw	a5,a4,a5
	sext.w	a5,a5
	.loc 1 128 5
	mv	a1,a5
	mv	a0,a3
	call	MmioWrite32@plt
	.loc 1 132 1
	j	.L4
.L2:
.LBB4:
	.loc 1 130 49
	lla	a5,.LC0
	ld	a2,0(a5)
	ld	a3,8(a5)
	ld	a4,16(a5)
	sd	a2,-48(s0)
	sd	a3,-40(s0)
	sd	a4,-32(s0)
	ld	a5,24(a5)
	sd	a5,-24(s0)
	.loc 1 130 125
	lbu	a5,-49(s0)
	srliw	a5,a5,5
	andi	a5,a5,0xff
	sext.w	a4,a5
	.loc 1 130 117
	addi	a5,s0,-48
	slli	a4,a4,3
	add	a5,a4,a5
	ld	a4,0(a5)
	.loc 1 130 109
	li	a5,868352
	addi	a5,a5,25
	slli	a5,a5,12
	add	a5,a4,a5
.LBE4:
	.loc 1 130 25
	addi	a5,a5,36
	.loc 1 130 5
	mv	a3,a5
	.loc 1 130 157
	lbu	a5,-49(s0)
	sext.w	a5,a5
	andi	a5,a5,31
	sext.w	a5,a5
	.loc 1 130 147
	li	a4,1
	sllw	a5,a4,a5
	sext.w	a5,a5
	.loc 1 130 5
	mv	a1,a5
	mv	a0,a3
	call	MmioWrite32@plt
.L4:
	.loc 1 132 1
	nop
	ld	ra,56(sp)
	.cfi_restore 1
	ld	s0,48(sp)
	.cfi_restore 8
	.cfi_def_cfa 2, 64
	addi	sp,sp,64
	.cfi_def_cfa_offset 0
	jr	ra
	.cfi_endproc
.LFE0:
	.size	GpioConfigureOutput, .-GpioConfigureOutput
	.section	.text.Dwc3SetQuirk,"ax",@progbits
	.align	1
	.type	Dwc3SetQuirk, @function
Dwc3SetQuirk:
.LFB1:
	.file 2 "/home/kapoagaeming/Downloads/spacemit-image-builder/components/edk2-platforms/Silicon/Spacemit/K1/Drivers/UsbHcdInitDxe/UsbHcd.c"
	.loc 2 27 1
	.cfi_startproc
	addi	sp,sp,-48
	.cfi_def_cfa_offset 48
	sd	ra,40(sp)
	sd	s0,32(sp)
	.cfi_offset 1, -8
	.cfi_offset 8, -16
	addi	s0,sp,48
	.cfi_def_cfa 8, 0
	sd	a0,-40(s0)
	.loc 2 30 13
	sw	zero,-20(s0)
	.loc 2 32 13
	lw	a5,-20(s0)
	mv	a4,a5
	li	a5,131072
	or	a5,a4,a5
	sw	a5,-20(s0)
	.loc 2 34 13
	lw	a5,-20(s0)
	mv	a4,a5
	li	a5,262144
	or	a5,a4,a5
	sw	a5,-20(s0)
	.loc 2 35 21
	ld	a5,-40(s0)
	addi	a5,a5,448
	.loc 2 35 3
	mv	a4,a5
	lw	a5,-20(s0)
	not	a5,a5
	sext.w	a5,a5
	mv	a1,a5
	mv	a0,a4
	call	MmioAnd32@plt
	.loc 2 37 13
	sw	zero,-20(s0)
	.loc 2 39 13
	lw	a5,-20(s0)
	ori	a5,a5,1
	sw	a5,-20(s0)
	.loc 2 41 13
	lw	a5,-20(s0)
	ori	a5,a5,64
	sw	a5,-20(s0)
	.loc 2 42 21
	ld	a5,-40(s0)
	addi	a5,a5,256
	.loc 2 42 3
	mv	a4,a5
	lw	a5,-20(s0)
	not	a5,a5
	sext.w	a5,a5
	mv	a1,a5
	mv	a0,a4
	call	MmioAnd32@plt
	.loc 2 44 11
	sw	zero,-24(s0)
	.loc 2 46 11
	lw	a5,-24(s0)
	mv	a4,a5
	li	a5,268435456
	or	a5,a4,a5
	sw	a5,-24(s0)
	.loc 2 48 11
	lw	a5,-24(s0)
	mv	a4,a5
	li	a5,131072
	or	a5,a4,a5
	sw	a5,-24(s0)
	.loc 2 49 20
	ld	a5,-40(s0)
	addi	a5,a5,28
	.loc 2 49 3
	mv	a4,a5
	lw	a5,-24(s0)
	mv	a1,a5
	mv	a0,a4
	call	MmioOr32@plt
	.loc 2 50 1
	nop
	ld	ra,40(sp)
	.cfi_restore 1
	ld	s0,32(sp)
	.cfi_restore 8
	.cfi_def_cfa 2, 48
	addi	sp,sp,48
	.cfi_def_cfa_offset 0
	jr	ra
	.cfi_endproc
.LFE1:
	.size	Dwc3SetQuirk, .-Dwc3SetQuirk
	.section	.text.Dwc3CoreInit,"ax",@progbits
	.align	1
	.type	Dwc3CoreInit, @function
Dwc3CoreInit:
.LFB2:
	.loc 2 57 1
	.cfi_startproc
	addi	sp,sp,-48
	.cfi_def_cfa_offset 48
	sd	ra,40(sp)
	sd	s0,32(sp)
	.cfi_offset 1, -8
	.cfi_offset 8, -16
	addi	s0,sp,48
	.cfi_def_cfa 8, 0
	sd	a0,-40(s0)
	.loc 2 62 33
	ld	a5,-40(s0)
	addi	a5,a5,32
	.loc 2 62 14
	mv	a0,a5
	call	MmioRead32@plt
	mv	a5,a0
	sw	a5,-24(s0)
	.loc 2 66 17
	lw	a5,-24(s0)
	mv	a4,a5
	li	a5,-65536
	and	a5,a4,a5
	sext.w	a4,a5
	.loc 2 66 6
	li	a5,1429405696
	beq	a4,a5,.L7
	.loc 2 71 12
	li	a5,-1
	slli	a5,a5,63
	addi	a5,a5,14
	j	.L8
.L7:
	.loc 2 74 28
	ld	a5,-40(s0)
	addi	a5,a5,16
	.loc 2 74 9
	mv	a0,a5
	call	MmioRead32@plt
	mv	a5,a0
	sw	a5,-20(s0)
	.loc 2 75 7
	lw	a5,-20(s0)
	andi	a5,a5,-49
	sw	a5,-20(s0)
	.loc 2 76 7
	lw	a5,-20(s0)
	andi	a5,a5,-9
	sw	a5,-20(s0)
	.loc 2 78 38
	ld	a5,-40(s0)
	addi	a5,a5,68
	.loc 2 78 19
	mv	a0,a5
	call	MmioRead32@plt
	mv	a5,a0
	.loc 2 78 17 discriminator 1
	slli	a5,a5,32
	srli	a5,a5,32
	sd	a5,-32(s0)
	.loc 2 80 45
	ld	a4,-32(s0)
	li	a5,50331648
	and	a4,a4,a5
	.loc 2 80 6
	li	a5,16777216
	bne	a4,a5,.L9
	.loc 2 83 9
	lw	a5,-20(s0)
	andi	a5,a5,-2
	sw	a5,-20(s0)
.L9:
	.loc 2 88 17
	lw	a5,-24(s0)
	slli	a5,a5,48
	srli	a5,a5,48
	sext.w	a4,a5
	.loc 2 88 6
	li	a5,8192
	addi	a5,a5,-1783
	bgtu	a4,a5,.L10
	.loc 2 89 9
	lw	a5,-20(s0)
	mv	a4,a5
	li	a5,65536
	or	a5,a4,a5
	sw	a5,-20(s0)
.L10:
	.loc 2 92 23
	ld	a5,-40(s0)
	addi	a5,a5,16
	.loc 2 92 3
	mv	a4,a5
	lw	a5,-20(s0)
	mv	a1,a5
	mv	a0,a4
	call	MmioWrite32@plt
	.loc 2 94 10
	li	a5,0
.L8:
	.loc 2 95 1
	mv	a0,a5
	ld	ra,40(sp)
	.cfi_restore 1
	ld	s0,32(sp)
	.cfi_restore 8
	.cfi_def_cfa 2, 48
	addi	sp,sp,48
	.cfi_def_cfa_offset 0
	jr	ra
	.cfi_endproc
.LFE2:
	.size	Dwc3CoreInit, .-Dwc3CoreInit
	.section	.text.Dwc3SetMode,"ax",@progbits
	.align	1
	.type	Dwc3SetMode, @function
Dwc3SetMode:
.LFB3:
	.loc 2 103 1
	.cfi_startproc
	addi	sp,sp,-32
	.cfi_def_cfa_offset 32
	sd	ra,24(sp)
	sd	s0,16(sp)
	.cfi_offset 1, -8
	.cfi_offset 8, -16
	addi	s0,sp,32
	.cfi_def_cfa 8, 0
	sd	a0,-24(s0)
	mv	a5,a1
	sw	a5,-28(s0)
	.loc 2 105 27
	ld	a5,-24(s0)
	addi	a5,a5,16
	.loc 2 104 3
	mv	a4,a5
	lw	a5,-28(s0)
	slliw	a5,a5,12
	sext.w	a5,a5
	mv	a2,a5
	li	a5,-12288
	addi	a1,a5,-1
	mv	a0,a4
	call	MmioAndThenOr32@plt
	.loc 2 109 1
	nop
	ld	ra,24(sp)
	.cfi_restore 1
	ld	s0,16(sp)
	.cfi_restore 8
	.cfi_def_cfa 2, 32
	addi	sp,sp,32
	.cfi_def_cfa_offset 0
	jr	ra
	.cfi_endproc
.LFE3:
	.size	Dwc3SetMode, .-Dwc3SetMode
	.section	.text.XhciCoreInit,"ax",@progbits
	.align	1
	.type	XhciCoreInit, @function
XhciCoreInit:
.LFB4:
	.loc 2 116 1
	.cfi_startproc
	addi	sp,sp,-48
	.cfi_def_cfa_offset 48
	sd	ra,40(sp)
	sd	s0,32(sp)
	.cfi_offset 1, -8
	.cfi_offset 8, -16
	addi	s0,sp,48
	.cfi_def_cfa 8, 0
	sd	a0,-40(s0)
	.loc 2 120 29
	ld	a4,-40(s0)
	li	a5,49152
	addi	a5,a5,256
	add	a5,a4,a5
	.loc 2 120 11
	sd	a5,-24(s0)
	.loc 2 124 27
	ld	a5,-24(s0)
	addi	a5,a5,256
	.loc 2 123 3
	mv	a4,a5
	li	a5,8192
	addi	a2,a5,1024
	li	a5,-16384
	addi	a1,a5,1015
	mv	a0,a4
	call	MmioAndThenOr32@plt
	.loc 2 129 3
	ld	a0,-24(s0)
	call	Dwc3SetQuirk
	.loc 2 131 12
	ld	a0,-24(s0)
	call	Dwc3CoreInit
	sd	a0,-32(s0)
	.loc 2 132 34
	ld	a5,-32(s0)
	.loc 2 132 6
	bge	a5,zero,.L13
	.loc 2 138 12
	ld	a5,-32(s0)
	j	.L14
.L13:
	.loc 2 141 3
	li	a1,1
	ld	a0,-24(s0)
	call	Dwc3SetMode
	.loc 2 143 10
	ld	a5,-32(s0)
.L14:
	.loc 2 144 1
	mv	a0,a5
	ld	ra,40(sp)
	.cfi_restore 1
	ld	s0,32(sp)
	.cfi_restore 8
	.cfi_def_cfa 2, 48
	addi	sp,sp,48
	.cfi_def_cfa_offset 0
	jr	ra
	.cfi_endproc
.LFE4:
	.size	XhciCoreInit, .-XhciCoreInit
	.section	.text.MvUsbPhyEnable,"ax",@progbits
	.align	1
	.type	MvUsbPhyEnable, @function
MvUsbPhyEnable:
.LFB5:
	.loc 2 151 1
	.cfi_startproc
	addi	sp,sp,-48
	.cfi_def_cfa_offset 48
	sd	ra,40(sp)
	sd	s0,32(sp)
	.cfi_offset 1, -8
	.cfi_offset 8, -16
	addi	s0,sp,48
	.cfi_def_cfa 8, 0
	sd	a0,-40(s0)
	.loc 2 152 10
	li	a5,49152
	addi	a5,a5,848
	sw	a5,-20(s0)
.L18:
	.loc 2 156 24
	ld	a5,-40(s0)
	.loc 2 156 39
	addi	a5,a5,4
	.loc 2 156 12
	mv	a0,a5
	call	MmioRead32@plt
	mv	a5,a0
	sw	a5,-24(s0)
	.loc 2 157 14
	lw	a5,-24(s0)
	andi	a5,a5,1
	sext.w	a5,a5
	.loc 2 157 8
	bne	a5,zero,.L21
	.loc 2 161 5
	li	a0,50
	call	MicroSecondDelay@plt
	.loc 2 162 12
	lw	a5,-20(s0)
	addiw	a5,a5,-1
	sw	a5,-20(s0)
	lw	a5,-20(s0)
	sext.w	a5,a5
	bne	a5,zero,.L18
	j	.L17
.L21:
	.loc 2 158 7
	nop
.L17:
	.loc 2 164 6
	lw	a5,-20(s0)
	sext.w	a5,a5
	bne	a5,zero,.L19
	.loc 2 166 12
	li	a5,-1
	slli	a5,a5,63
	addi	a5,a5,7
	j	.L20
.L19:
	.loc 2 170 16
	ld	a5,-40(s0)
	.loc 2 170 31
	addi	a4,a5,4
	.loc 2 170 3
	li	a5,24576
	addi	a1,a5,239
	mv	a0,a4
	call	MmioWrite32@plt
	.loc 2 171 16
	ld	a5,-40(s0)
	.loc 2 171 31
	addi	a5,a5,52
	.loc 2 171 3
	li	a1,28
	mv	a0,a5
	call	MmioWrite32@plt
	.loc 2 174 20
	ld	a5,-40(s0)
	.loc 2 174 35
	addi	a5,a5,164
	.loc 2 173 3
	li	a2,28
	li	a1,-16
	mv	a0,a5
	call	MmioAndThenOr32@plt
	.loc 2 180 13
	ld	a5,-40(s0)
	.loc 2 180 28
	addi	a5,a5,16
	.loc 2 180 3
	li	a1,4
	mv	a0,a5
	call	MmioOr32@plt
	.loc 2 182 10
	li	a5,0
.L20:
	.loc 2 183 1
	mv	a0,a5
	ld	ra,40(sp)
	.cfi_restore 1
	ld	s0,32(sp)
	.cfi_restore 8
	.cfi_def_cfa 2, 48
	addi	sp,sp,48
	.cfi_def_cfa_offset 0
	jr	ra
	.cfi_endproc
.LFE5:
	.size	MvUsbPhyEnable, .-MvUsbPhyEnable
	.section	.text.Usb3PhyEnable,"ax",@progbits
	.align	1
	.type	Usb3PhyEnable, @function
Usb3PhyEnable:
.LFB6:
	.loc 2 190 1
	.cfi_startproc
	addi	sp,sp,-48
	.cfi_def_cfa_offset 48
	sd	ra,40(sp)
	sd	s0,32(sp)
	.cfi_offset 1, -8
	.cfi_offset 8, -16
	addi	s0,sp,48
	.cfi_def_cfa 8, 0
	sd	a0,-40(s0)
	.loc 2 195 16
	ld	a5,-40(s0)
	.loc 2 195 31
	addi	a5,a5,104
	.loc 2 194 3
	li	a1,0
	mv	a0,a5
	call	MmioWrite32@plt
	.loc 2 198 22
	ld	a5,-40(s0)
	.loc 2 198 37
	addi	a5,a5,72
	.loc 2 198 10
	mv	a0,a5
	call	MmioRead32@plt
	mv	a5,a0
	sw	a5,-24(s0)
	.loc 2 201 16
	ld	a5,-40(s0)
	.loc 2 201 31
	addi	a4,a5,72
	.loc 2 200 3
	li	a5,1614422016
	addi	a1,a5,630
	mv	a0,a4
	call	MmioWrite32@plt
	.loc 2 206 16
	ld	a5,-40(s0)
	.loc 2 206 31
	addi	a4,a5,8
	.loc 2 205 3
	li	a5,4096
	addi	a1,a5,-1668
	mv	a0,a4
	call	MmioWrite32@plt
	.loc 2 210 16
	ld	a5,-40(s0)
	.loc 2 210 31
	addi	a5,a5,24
	.loc 2 209 3
	li	a1,0
	mv	a0,a5
	call	MmioWrite32@plt
	.loc 2 215 10
	li	a5,49152
	addi	a5,a5,848
	sw	a5,-20(s0)
.L25:
	.loc 2 218 24
	ld	a5,-40(s0)
	.loc 2 218 39
	addi	a5,a5,8
	.loc 2 218 12
	mv	a0,a5
	call	MmioRead32@plt
	mv	a5,a0
	sw	a5,-24(s0)
	.loc 2 219 15
	lw	a5,-24(s0)
	andi	a5,a5,1
	sext.w	a5,a5
	.loc 2 219 8
	bne	a5,zero,.L28
	.loc 2 225 5
	li	a0,50
	call	MicroSecondDelay@plt
	.loc 2 226 12
	lw	a5,-20(s0)
	addiw	a5,a5,-1
	sw	a5,-20(s0)
	lw	a5,-20(s0)
	sext.w	a5,a5
	bne	a5,zero,.L25
	j	.L24
.L28:
	.loc 2 222 7
	nop
.L24:
	.loc 2 228 6
	lw	a5,-20(s0)
	sext.w	a5,a5
	bne	a5,zero,.L26
	.loc 2 230 12
	li	a5,-1
	slli	a5,a5,63
	addi	a5,a5,18
	j	.L27
.L26:
	.loc 2 234 20
	ld	a5,-40(s0)
	.loc 2 234 35
	addi	a5,a5,88
	.loc 2 234 3
	li	a2,768
	li	a1,-1793
	mv	a0,a5
	call	MmioAndThenOr32@plt
	.loc 2 236 10
	li	a5,0
.L27:
	.loc 2 237 1
	mv	a0,a5
	ld	ra,40(sp)
	.cfi_restore 1
	ld	s0,32(sp)
	.cfi_restore 8
	.cfi_def_cfa 2, 48
	addi	sp,sp,48
	.cfi_def_cfa_offset 0
	jr	ra
	.cfi_endproc
.LFE6:
	.size	Usb3PhyEnable, .-Usb3PhyEnable
	.section	.rodata
	.align	3
.LC1:
	.word	97
	.word	121
	.word	0
	.word	123
	.word	143
	.word	0
	.word	124
	.word	144
	.word	0
	.word	127
	.word	147
	.word	0
	.section	.text.UsbGpioEnable,"ax",@progbits
	.align	1
	.globl	UsbGpioEnable
	.type	UsbGpioEnable, @function
UsbGpioEnable:
.LFB7:
	.loc 2 243 1
	.cfi_startproc
	addi	sp,sp,-80
	.cfi_def_cfa_offset 80
	sd	ra,72(sp)
	sd	s0,64(sp)
	.cfi_offset 1, -8
	.cfi_offset 8, -16
	addi	s0,sp,80
	.cfi_def_cfa 8, 0
.LBB5:
	.loc 2 250 21
	lla	a5,.LC1
	ld	a0,0(a5)
	ld	a1,8(a5)
	ld	a2,16(a5)
	ld	a3,24(a5)
	ld	a4,32(a5)
	sd	a0,-80(s0)
	sd	a1,-72(s0)
	sd	a2,-64(s0)
	sd	a3,-56(s0)
	sd	a4,-48(s0)
	ld	a5,40(a5)
	sd	a5,-40(s0)
	.loc 2 260 15
	sb	zero,-25(s0)
	.loc 2 260 5
	j	.L30
.L36:
	.loc 2 261 14
	sb	zero,-17(s0)
	.loc 2 261 7
	j	.L31
.L35:
.LBB6:
	.loc 2 263 74
	lbu	a5,-25(s0)
	sext.w	a3,a5
	lbu	a5,-17(s0)
	sext.w	a5,a5
	mv	a4,a5
	slli	a4,a4,1
	add	a4,a4,a5
	slli	a5,a4,2
	mv	a4,a5
	mv	a5,a3
	slli	a5,a5,1
	add	a5,a5,a3
	slli	a5,a5,4
	add	a5,a4,a5
	addi	a5,a5,-16
	add	a5,a5,s0
	lw	a4,-60(a5)
	.loc 2 263 57
	li	a5,110
	bleu	a4,a5,.L32
	.loc 2 263 126 discriminator 1
	lbu	a5,-25(s0)
	sext.w	a3,a5
	lbu	a5,-17(s0)
	sext.w	a5,a5
	mv	a4,a5
	slli	a4,a4,1
	add	a4,a4,a5
	slli	a5,a4,2
	mv	a4,a5
	mv	a5,a3
	slli	a5,a5,1
	add	a5,a5,a3
	slli	a5,a5,4
	add	a5,a4,a5
	addi	a5,a5,-16
	add	a5,a5,s0
	lw	a5,-60(a5)
	.loc 2 263 140 discriminator 1
	addiw	a5,a5,20
	sext.w	a5,a5
	.loc 2 263 102 discriminator 1
	slliw	a5,a5,2
	sw	a5,-24(s0)
	j	.L33
.L32:
	.loc 2 263 171 discriminator 2
	lbu	a5,-25(s0)
	sext.w	a3,a5
	lbu	a5,-17(s0)
	sext.w	a5,a5
	mv	a4,a5
	slli	a4,a4,1
	add	a4,a4,a5
	slli	a5,a4,2
	mv	a4,a5
	mv	a5,a3
	slli	a5,a5,1
	add	a5,a5,a3
	slli	a5,a5,4
	add	a5,a4,a5
	addi	a5,a5,-16
	add	a5,a5,s0
	lw	a4,-60(a5)
	.loc 2 263 154 discriminator 2
	li	a5,85
	bleu	a4,a5,.L34
	.loc 2 263 222 discriminator 4
	lbu	a5,-25(s0)
	sext.w	a3,a5
	lbu	a5,-17(s0)
	sext.w	a5,a5
	mv	a4,a5
	slli	a4,a4,1
	add	a4,a4,a5
	slli	a5,a4,2
	mv	a4,a5
	mv	a5,a3
	slli	a5,a5,1
	add	a5,a5,a3
	slli	a5,a5,4
	add	a5,a4,a5
	addi	a5,a5,-16
	add	a5,a5,s0
	lw	a5,-60(a5)
	.loc 2 263 236 discriminator 4
	addiw	a5,a5,37
	sext.w	a5,a5
	.loc 2 263 198 discriminator 4
	slliw	a5,a5,2
	sw	a5,-24(s0)
	j	.L33
.L34:
	.loc 2 263 282 discriminator 5
	lbu	a5,-25(s0)
	sext.w	a3,a5
	lbu	a5,-17(s0)
	sext.w	a5,a5
	mv	a4,a5
	slli	a4,a4,1
	add	a4,a4,a5
	slli	a5,a4,2
	mv	a4,a5
	mv	a5,a3
	slli	a5,a5,1
	add	a5,a5,a3
	slli	a5,a5,4
	add	a5,a4,a5
	addi	a5,a5,-16
	add	a5,a5,s0
	lw	a5,-60(a5)
	.loc 2 263 290 discriminator 5
	addiw	a5,a5,1
	sext.w	a5,a5
	.loc 2 263 259 discriminator 5
	slliw	a5,a5,2
	sw	a5,-24(s0)
.L33:
	.loc 2 263 296 discriminator 7
	lw	a5,-24(s0)
.LBE6:
	.loc 2 263 32 discriminator 7
	slli	a4,a5,32
	srli	a4,a4,32
	.loc 2 263 29 discriminator 7
	li	a5,1778446336
	slli	a5,a5,1
	add	a2,a4,a5
	.loc 2 264 30
	lbu	a5,-25(s0)
	sext.w	a3,a5
	lbu	a5,-17(s0)
	sext.w	a5,a5
	mv	a4,a5
	slli	a4,a4,1
	add	a4,a4,a5
	slli	a5,a4,2
	mv	a4,a5
	mv	a5,a3
	slli	a5,a5,1
	add	a5,a5,a3
	slli	a5,a5,4
	add	a5,a4,a5
	addi	a5,a5,-16
	add	a5,a5,s0
	lw	a5,-56(a5)
	.loc 2 262 9
	mv	a4,a5
	li	a5,4096
	addi	a5,a5,64
	or	a5,a4,a5
	sext.w	a5,a5
	mv	a1,a5
	mv	a0,a2
	call	MmioWrite32@plt
	.loc 2 261 72 discriminator 2
	lbu	a5,-17(s0)
	addiw	a5,a5,1
	sb	a5,-17(s0)
.L31:
	.loc 2 261 21 discriminator 1
	lbu	a5,-17(s0)
	andi	a4,a5,0xff
	li	a5,3
	bleu	a4,a5,.L35
	.loc 2 260 73 discriminator 2
	lbu	a5,-25(s0)
	addiw	a5,a5,1
	sb	a5,-25(s0)
.L30:
	.loc 2 260 25 discriminator 1
	lbu	a5,-25(s0)
	andi	a5,a5,0xff
	beq	a5,zero,.L36
	.loc 2 269 5
	li	a1,1
	li	a0,123
	call	GpioConfigureOutput
	.loc 2 272 5
	li	a1,0
	li	a0,124
	call	GpioConfigureOutput
	.loc 2 273 5
	li	a5,8192
	addi	a0,a5,1808
	call	MicroSecondDelay@plt
	.loc 2 274 5
	li	a1,1
	li	a0,124
	call	GpioConfigureOutput
	.loc 2 277 5
	li	a1,1
	li	a0,97
	call	GpioConfigureOutput
	.loc 2 278 5
	li	a1,1
	li	a0,127
	call	GpioConfigureOutput
.LBE5:
	.loc 2 296 1
	nop
	ld	ra,72(sp)
	.cfi_restore 1
	ld	s0,64(sp)
	.cfi_restore 8
	.cfi_def_cfa 2, 80
	addi	sp,sp,80
	.cfi_def_cfa_offset 0
	jr	ra
	.cfi_endproc
.LFE7:
	.size	UsbGpioEnable, .-UsbGpioEnable
	.section	.text.InitializeXhciController,"ax",@progbits
	.align	1
	.globl	InitializeXhciController
	.type	InitializeXhciController, @function
InitializeXhciController:
.LFB8:
	.loc 2 303 1
	.cfi_startproc
	addi	sp,sp,-48
	.cfi_def_cfa_offset 48
	sd	ra,40(sp)
	sd	s0,32(sp)
	.cfi_offset 1, -8
	.cfi_offset 8, -16
	addi	s0,sp,48
	.cfi_def_cfa 8, 0
	sd	a0,-40(s0)
	.loc 2 305 37
	ld	a5,-40(s0)
	ld	a5,24(a5)
	.loc 2 305 24
	lbu	a4,14(a5)
	lbu	a3,15(a5)
	slli	a3,a3,8
	or	a4,a3,a4
	lbu	a3,16(a5)
	slli	a3,a3,16
	or	a4,a3,a4
	lbu	a3,17(a5)
	slli	a3,a3,24
	or	a4,a3,a4
	lbu	a3,18(a5)
	slli	a3,a3,32
	or	a4,a3,a4
	lbu	a3,19(a5)
	slli	a3,a3,40
	or	a4,a3,a4
	lbu	a3,20(a5)
	slli	a3,a3,48
	or	a4,a3,a4
	lbu	a5,21(a5)
	slli	a5,a5,56
	or	a5,a5,a4
	sd	a5,-24(s0)
	.loc 2 309 12
	ld	a0,-24(s0)
	call	XhciCoreInit
	sd	a0,-32(s0)
	.loc 2 311 34
	ld	a5,-32(s0)
	.loc 2 311 6
	bge	a5,zero,.L38
	.loc 2 316 12
	li	a5,-1
	slli	a5,a5,63
	addi	a5,a5,7
	j	.L39
.L38:
	.loc 2 319 10
	li	a5,0
.L39:
	.loc 2 320 1
	mv	a0,a5
	ld	ra,40(sp)
	.cfi_restore 1
	ld	s0,32(sp)
	.cfi_restore 8
	.cfi_def_cfa 2, 48
	addi	sp,sp,48
	.cfi_def_cfa_offset 0
	jr	ra
	.cfi_endproc
.LFE8:
	.size	InitializeXhciController, .-InitializeXhciController
	.section	.text.RegisterXhc,"ax",@progbits
	.align	1
	.type	RegisterXhc, @function
RegisterXhc:
.LFB9:
	.loc 2 327 1
	.cfi_startproc
	addi	sp,sp,-48
	.cfi_def_cfa_offset 48
	sd	ra,40(sp)
	sd	s0,32(sp)
	.cfi_offset 1, -8
	.cfi_offset 8, -16
	addi	s0,sp,48
	.cfi_def_cfa 8, 0
	sd	a0,-40(s0)
	.loc 2 330 12
	li	a6,32768
	ld	a5,-40(s0)
	li	a4,1
	li	a3,0
	lla	a2,InitializeXhciController
	li	a1,1
	li	a0,8
	call	RegisterNonDiscoverableMmioDevice@plt
	sd	a0,-24(s0)
	.loc 2 345 1
	nop
	ld	ra,40(sp)
	.cfi_restore 1
	ld	s0,32(sp)
	.cfi_restore 8
	.cfi_def_cfa 2, 48
	addi	sp,sp,48
	.cfi_def_cfa_offset 0
	jr	ra
	.cfi_endproc
.LFE9:
	.size	RegisterXhc, .-RegisterXhc
	.section	.text.RegisterEhc,"ax",@progbits
	.align	1
	.type	RegisterEhc, @function
RegisterEhc:
.LFB10:
	.loc 2 352 1
	.cfi_startproc
	addi	sp,sp,-48
	.cfi_def_cfa_offset 48
	sd	ra,40(sp)
	sd	s0,32(sp)
	.cfi_offset 1, -8
	.cfi_offset 8, -16
	addi	s0,sp,48
	.cfi_def_cfa 8, 0
	sd	a0,-40(s0)
	.loc 2 355 12
	li	a6,16384
	ld	a5,-40(s0)
	li	a4,1
	li	a3,0
	li	a2,0
	li	a1,1
	li	a0,2
	call	RegisterNonDiscoverableMmioDevice@plt
	sd	a0,-24(s0)
	.loc 2 370 1
	nop
	ld	ra,40(sp)
	.cfi_restore 1
	ld	s0,32(sp)
	.cfi_restore 8
	.cfi_def_cfa 2, 48
	addi	sp,sp,48
	.cfi_def_cfa_offset 0
	jr	ra
	.cfi_endproc
.LFE10:
	.size	RegisterEhc, .-RegisterEhc
	.section	.text.UsbEndOfDxeCallback,"ax",@progbits
	.align	1
	.globl	UsbEndOfDxeCallback
	.type	UsbEndOfDxeCallback, @function
UsbEndOfDxeCallback:
.LFB11:
	.loc 2 385 1
	.cfi_startproc
	addi	sp,sp,-80
	.cfi_def_cfa_offset 80
	sd	ra,72(sp)
	sd	s0,64(sp)
	.cfi_offset 1, -8
	.cfi_offset 8, -16
	addi	s0,sp,80
	.cfi_def_cfa 8, 0
	sd	a0,-72(s0)
	sd	a1,-80(s0)
	.loc 2 391 6
	la	a5,gBS
	ld	a5,0(a5)
	ld	a5,112(a5)
	.loc 2 391 3
	ld	a0,-72(s0)
	jalr	a5
.LVL0:
	.loc 2 393 23
	la	a5,_gPcd_FixedAtBuild_PcdUsb0BaseAddr
	ld	a5,0(a5)
	sd	a5,-24(s0)
	.loc 2 394 23
	la	a5,_gPcd_FixedAtBuild_PcdUsb1BaseAddr
	ld	a5,0(a5)
	sd	a5,-32(s0)
	.loc 2 395 22
	la	a5,_gPcd_FixedAtBuild_PcdUsb3BaseAddr
	ld	a5,0(a5)
	sd	a5,-40(s0)
	.loc 2 396 15
	la	a5,_gPcd_FixedAtBuild_PcdUsb0Enable
	lbu	a5,0(a5)
	sb	a5,-41(s0)
	.loc 2 397 15
	la	a5,_gPcd_FixedAtBuild_PcdUsb1Enable
	lbu	a5,0(a5)
	sb	a5,-42(s0)
	.loc 2 398 15
	la	a5,_gPcd_FixedAtBuild_PcdUsb2Enable
	lbu	a5,0(a5)
	sb	a5,-43(s0)
	.loc 2 399 15
	la	a5,_gPcd_FixedAtBuild_PcdUsb3Enable
	lbu	a5,0(a5)
	sb	a5,-44(s0)
	.loc 2 401 3
	li	a1,4096
	li	a5,1778446336
	slli	a0,a5,1
	call	MapRegToGcdMmioSpace@plt
	.loc 2 402 3
	li	a1,4096
	li	a5,1736704
	addi	a5,a5,1285
	slli	a0,a5,11
	call	MapRegToGcdMmioSpace@plt
	.loc 2 403 3
	li	a1,4096
	li	a5,222318592
	slli	a0,a5,4
	call	MapRegToGcdMmioSpace@plt
	.loc 2 404 3
	li	a1,4096
	li	a5,868352
	addi	a5,a5,25
	slli	a0,a5,12
	call	MapRegToGcdMmioSpace@plt
	.loc 2 406 3
	la	a5,_gPcd_FixedAtBuild_PcdUsb0PhyBaseAddr
	ld	a5,0(a5)
	li	a1,4096
	mv	a0,a5
	call	MapRegToGcdMmioSpace@plt
	.loc 2 407 3
	la	a5,_gPcd_FixedAtBuild_PcdUsb1PhyBaseAddr
	ld	a5,0(a5)
	li	a1,4096
	mv	a0,a5
	call	MapRegToGcdMmioSpace@plt
	.loc 2 408 3
	la	a5,_gPcd_FixedAtBuild_PcdUsb2PhyBaseAddr
	ld	a5,0(a5)
	li	a1,4096
	mv	a0,a5
	call	MapRegToGcdMmioSpace@plt
	.loc 2 409 3
	la	a5,_gPcd_FixedAtBuild_PcdUsb3PhyBaseAddr
	ld	a5,0(a5)
	li	a1,4096
	mv	a0,a5
	call	MapRegToGcdMmioSpace@plt
	.loc 2 410 3
	la	a5,_gPcd_FixedAtBuild_PcdCombPhySelAddr
	ld	a4,0(a5)
	li	a5,-4096
	and	a5,a4,a5
	li	a1,4096
	mv	a0,a5
	call	MapRegToGcdMmioSpace@plt
	.loc 2 412 3
	li	a1,65536
	ld	a0,-40(s0)
	call	MapRegToGcdMmioSpace@plt
	.loc 2 413 3
	li	a1,65536
	ld	a0,-24(s0)
	call	MapRegToGcdMmioSpace@plt
	.loc 2 414 3
	li	a1,65536
	ld	a0,-32(s0)
	call	MapRegToGcdMmioSpace@plt
	.loc 2 420 6
	lbu	a5,-41(s0)
	andi	a5,a5,0xff
	beq	a5,zero,.L43
	.loc 2 421 5
	li	a1,2
	li	a5,889851904
	addi	a5,a5,-1513
	slli	a0,a5,2
	call	MmioOr32@plt
	.loc 2 422 5
	li	a0,10
	call	MicroSecondDelay@plt
	.loc 2 423 5
	li	a1,1
	li	a5,889851904
	addi	a5,a5,-1513
	slli	a0,a5,2
	call	MmioOr32@plt
	.loc 2 425 14
	la	a5,_gPcd_FixedAtBuild_PcdUsb1PhyBaseAddr
	ld	a5,0(a5)
	mv	a0,a5
	call	MvUsbPhyEnable
	sd	a0,-56(s0)
	.loc 2 426 8
	ld	a5,-56(s0)
	bne	a5,zero,.L52
	.loc 2 430 5
	ld	a0,-24(s0)
	call	RegisterEhc
.L43:
	.loc 2 433 6
	lbu	a5,-42(s0)
	andi	a5,a5,0xff
	beq	a5,zero,.L46
	.loc 2 434 5
	li	a1,32
	li	a5,889851904
	addi	a5,a5,-1513
	slli	a0,a5,2
	call	MmioOr32@plt
	.loc 2 435 5
	li	a0,10
	call	MicroSecondDelay@plt
	.loc 2 436 5
	li	a1,16
	li	a5,889851904
	addi	a5,a5,-1513
	slli	a0,a5,2
	call	MmioOr32@plt
	.loc 2 438 14
	la	a5,_gPcd_FixedAtBuild_PcdUsb1PhyBaseAddr
	ld	a5,0(a5)
	mv	a0,a5
	call	MvUsbPhyEnable
	sd	a0,-56(s0)
	.loc 2 439 8
	ld	a5,-56(s0)
	bne	a5,zero,.L53
	.loc 2 443 5
	ld	a0,-32(s0)
	call	RegisterEhc
.L46:
	.loc 2 446 6
	lbu	a5,-43(s0)
	andi	a5,a5,0xff
	bne	a5,zero,.L48
	.loc 2 446 19 discriminator 1
	lbu	a5,-44(s0)
	andi	a5,a5,0xff
	beq	a5,zero,.L49
.L48:
	.loc 2 448 5
	li	a1,256
	li	a5,889851904
	addi	a5,a5,-1513
	slli	a0,a5,2
	call	MmioOr32@plt
	.loc 2 450 5
	li	a0,10
	call	MicroSecondDelay@plt
	.loc 2 451 5
	li	a5,4096
	addi	a1,a5,-512
	li	a5,889851904
	addi	a5,a5,-1513
	slli	a0,a5,2
	call	MmioOr32@plt
	.loc 2 453 8
	lbu	a5,-44(s0)
	andi	a5,a5,0xff
	beq	a5,zero,.L50
	.loc 2 456 7
	la	a5,_gPcd_FixedAtBuild_PcdCombPhySelAddr
	ld	a5,0(a5)
	li	a1,8
	mv	a0,a5
	call	MmioOr32@plt
	.loc 2 459 7
	li	a2,256
	li	a1,56
	li	a5,889851904
	addi	a5,a5,-1293
	slli	a0,a5,2
	call	MmioAndThenOr32@plt
	.loc 2 460 7
	li	a2,56
	li	a1,-257
	li	a5,889851904
	addi	a5,a5,-1293
	slli	a0,a5,2
	call	MmioAndThenOr32@plt
	.loc 2 463 16
	la	a5,_gPcd_FixedAtBuild_PcdUsb3PhyBaseAddr
	ld	a5,0(a5)
	mv	a0,a5
	call	Usb3PhyEnable
	sd	a0,-56(s0)
	.loc 2 464 10
	ld	a5,-56(s0)
	bne	a5,zero,.L54
.L50:
	.loc 2 469 14
	la	a5,_gPcd_FixedAtBuild_PcdUsb2PhyBaseAddr
	ld	a5,0(a5)
	mv	a0,a5
	call	MvUsbPhyEnable
	sd	a0,-56(s0)
	.loc 2 470 8
	ld	a5,-56(s0)
	bne	a5,zero,.L55
	.loc 2 474 5
	ld	a0,-40(s0)
	call	RegisterXhc
.L49:
	.loc 2 477 3
	call	UsbGpioEnable
	j	.L42
.L52:
	.loc 2 427 7
	nop
	j	.L42
.L53:
	.loc 2 440 7
	nop
	j	.L42
.L54:
	.loc 2 465 9
	nop
	j	.L42
.L55:
	.loc 2 471 7
	nop
.L42:
	.loc 2 478 1
	ld	ra,72(sp)
	.cfi_restore 1
	ld	s0,64(sp)
	.cfi_restore 8
	.cfi_def_cfa 2, 80
	addi	sp,sp,80
	.cfi_def_cfa_offset 0
	jr	ra
	.cfi_endproc
.LFE11:
	.size	UsbEndOfDxeCallback, .-UsbEndOfDxeCallback
	.section	.text.InitializeUsbHcd,"ax",@progbits
	.align	1
	.globl	InitializeUsbHcd
	.type	InitializeUsbHcd, @function
InitializeUsbHcd:
.LFB12:
	.loc 2 496 1
	.cfi_startproc
	addi	sp,sp,-48
	.cfi_def_cfa_offset 48
	sd	ra,40(sp)
	sd	s0,32(sp)
	.cfi_offset 1, -8
	.cfi_offset 8, -16
	addi	s0,sp,48
	.cfi_def_cfa 8, 0
	sd	a0,-40(s0)
	sd	a1,-48(s0)
	.loc 2 501 8
	la	a5,gBS
	ld	a5,0(a5)
	ld	a6,368(a5)
	.loc 2 501 5
	addi	a5,s0,-32
	la	a4,gEfiEndOfDxeEventGroupGuid
	li	a3,0
	lla	a2,UsbEndOfDxeCallback
	li	a1,8
	li	a0,512
	jalr	a6
.LVL1:
	sd	a0,-24(s0)
	.loc 2 510 10
	ld	a5,-24(s0)
	.loc 2 511 1
	mv	a0,a5
	ld	ra,40(sp)
	.cfi_restore 1
	ld	s0,32(sp)
	.cfi_restore 8
	.cfi_def_cfa 2, 48
	addi	sp,sp,48
	.cfi_def_cfa_offset 0
	jr	ra
	.cfi_endproc
.LFE12:
	.size	InitializeUsbHcd, .-InitializeUsbHcd
	.text
.Letext0:
	.file 3 "/home/kapoagaeming/Downloads/spacemit-image-builder/components/edk2/MdePkg/Include/RiscV64/ProcessorBind.h"
	.file 4 "/home/kapoagaeming/Downloads/spacemit-image-builder/components/edk2/MdePkg/Include/Base.h"
	.file 5 "/home/kapoagaeming/Downloads/spacemit-image-builder/components/edk2/MdePkg/Include/Uefi/UefiBaseType.h"
	.file 6 "/home/kapoagaeming/Downloads/spacemit-image-builder/components/edk2/MdePkg/Include/Uefi/UefiMultiPhase.h"
	.file 7 "/home/kapoagaeming/Downloads/spacemit-image-builder/components/edk2/MdePkg/Include/IndustryStandard/Acpi10.h"
	.file 8 "/home/kapoagaeming/Downloads/spacemit-image-builder/components/edk2/MdePkg/Include/Protocol/DevicePath.h"
	.file 9 "/home/kapoagaeming/Downloads/spacemit-image-builder/components/edk2/MdePkg/Include/Protocol/SimpleTextIn.h"
	.file 10 "/home/kapoagaeming/Downloads/spacemit-image-builder/components/edk2/MdePkg/Include/Protocol/SimpleTextOut.h"
	.file 11 "/home/kapoagaeming/Downloads/spacemit-image-builder/components/edk2/MdePkg/Include/Uefi/UefiSpec.h"
	.file 12 "/home/kapoagaeming/Downloads/spacemit-image-builder/components/Build/Milk-V-Jupiter/RELEASE_GCC5/RISCV64/Silicon/Spacemit/K1/Drivers/UsbHcdInitDxe/UsbHcd/DEBUG/AutoGen.h"
	.file 13 "/home/kapoagaeming/Downloads/spacemit-image-builder/components/edk2/MdeModulePkg/Include/Protocol/NonDiscoverableDevice.h"
	.file 14 "/home/kapoagaeming/Downloads/spacemit-image-builder/components/edk2/MdeModulePkg/Include/Library/NonDiscoverableDeviceRegistrationLib.h"
	.file 15 "/home/kapoagaeming/Downloads/spacemit-image-builder/components/edk2-platforms/Silicon/Spacemit/K1/Drivers/UsbHcdInitDxe/UsbHcd.h"
	.file 16 "/home/kapoagaeming/Downloads/spacemit-image-builder/components/edk2-platforms/Silicon/Spacemit/Include/Library/MemoryManagementLib.h"
	.file 17 "/home/kapoagaeming/Downloads/spacemit-image-builder/components/edk2/MdePkg/Include/Library/TimerLib.h"
	.file 18 "/home/kapoagaeming/Downloads/spacemit-image-builder/components/edk2/MdePkg/Include/Library/IoLib.h"
	.file 19 "/home/kapoagaeming/Downloads/spacemit-image-builder/components/edk2/MdePkg/Include/Library/UefiBootServicesTableLib.h"
	.section	.note.GNU-stack,"",@progbits
