	.file	"NonDiscoverableDeviceRegistrationLib.c"
	.option pic
	.option norelax
	.attribute arch, "rv64i2p1_m2p0_a2p1_f2p2_d2p2_c2p0_zicsr2p0_zifencei2p0_zmmul1p0_zaamo1p0_zalrsc1p0_zca1p0_zcd1p0"
	.attribute unaligned_access, 0
	.attribute stack_align, 16
	.text
.Ltext0:
	.cfi_sections	.debug_frame
	.file 0 "/home/kapoagaeming/spacemit-image-builder/components/Build/Milk-V-Jupiter/RELEASE_GCC5/RISCV64/MdeModulePkg/Library/NonDiscoverableDeviceRegistrationLib/NonDiscoverableDeviceRegistrationLib" "/home/kapoagaeming/spacemit-image-builder/components/edk2/MdeModulePkg/Library/NonDiscoverableDeviceRegistrationLib/NonDiscoverableDeviceRegistrationLib.c"
	.section	.text.GetGuidFromType,"ax",@progbits
	.align	1
	.type	GetGuidFromType, @function
GetGuidFromType:
.LFB0:
	.file 1 "/home/kapoagaeming/spacemit-image-builder/components/edk2/MdeModulePkg/Library/NonDiscoverableDeviceRegistrationLib/NonDiscoverableDeviceRegistrationLib.c"
	.loc 1 35 1
	.cfi_startproc
	addi	sp,sp,-32
	.cfi_def_cfa_offset 32
	sd	ra,24(sp)
	sd	s0,16(sp)
	.cfi_offset 1, -8
	.cfi_offset 8, -16
	addi	s0,sp,32
	.cfi_def_cfa 8, 0
	mv	a5,a0
	sw	a5,-20(s0)
	.loc 1 36 3
	lw	a5,-20(s0)
	sext.w	a4,a5
	li	a5,8
	beq	a4,a5,.L2
	lw	a5,-20(s0)
	sext.w	a4,a5
	li	a5,8
	bgtu	a4,a5,.L3
	lw	a5,-20(s0)
	sext.w	a4,a5
	li	a5,7
	beq	a4,a5,.L4
	lw	a5,-20(s0)
	sext.w	a4,a5
	li	a5,7
	bgtu	a4,a5,.L3
	lw	a5,-20(s0)
	sext.w	a4,a5
	li	a5,6
	beq	a4,a5,.L5
	lw	a5,-20(s0)
	sext.w	a4,a5
	li	a5,6
	bgtu	a4,a5,.L3
	lw	a5,-20(s0)
	sext.w	a4,a5
	li	a5,5
	beq	a4,a5,.L6
	lw	a5,-20(s0)
	sext.w	a4,a5
	li	a5,5
	bgtu	a4,a5,.L3
	lw	a5,-20(s0)
	sext.w	a4,a5
	li	a5,4
	beq	a4,a5,.L7
	lw	a5,-20(s0)
	sext.w	a4,a5
	li	a5,4
	bgtu	a4,a5,.L3
	lw	a5,-20(s0)
	sext.w	a4,a5
	li	a5,3
	beq	a4,a5,.L8
	lw	a5,-20(s0)
	sext.w	a4,a5
	li	a5,3
	bgtu	a4,a5,.L3
	lw	a5,-20(s0)
	sext.w	a4,a5
	li	a5,2
	beq	a4,a5,.L9
	lw	a5,-20(s0)
	sext.w	a4,a5
	li	a5,2
	bgtu	a4,a5,.L3
	lw	a5,-20(s0)
	sext.w	a5,a5
	beq	a5,zero,.L10
	lw	a5,-20(s0)
	sext.w	a4,a5
	li	a5,1
	beq	a4,a5,.L11
	j	.L3
.L10:
	.loc 1 38 14
	la	a5,gEdkiiNonDiscoverableAhciDeviceGuid
	j	.L12
.L11:
	.loc 1 41 14
	la	a5,gEdkiiNonDiscoverableAmbaDeviceGuid
	j	.L12
.L9:
	.loc 1 44 14
	la	a5,gEdkiiNonDiscoverableEhciDeviceGuid
	j	.L12
.L8:
	.loc 1 47 14
	la	a5,gEdkiiNonDiscoverableNvmeDeviceGuid
	j	.L12
.L7:
	.loc 1 50 14
	la	a5,gEdkiiNonDiscoverableOhciDeviceGuid
	j	.L12
.L6:
	.loc 1 53 14
	la	a5,gEdkiiNonDiscoverableSdhciDeviceGuid
	j	.L12
.L5:
	.loc 1 56 14
	la	a5,gEdkiiNonDiscoverableUfsDeviceGuid
	j	.L12
.L4:
	.loc 1 59 14
	la	a5,gEdkiiNonDiscoverableUhciDeviceGuid
	j	.L12
.L2:
	.loc 1 62 14
	la	a5,gEdkiiNonDiscoverableXhciDeviceGuid
	j	.L12
.L3:
	.loc 1 65 14
	li	a5,0
.L12:
	.loc 1 67 1
	mv	a0,a5
	ld	ra,24(sp)
	.cfi_restore 1
	ld	s0,16(sp)
	.cfi_restore 8
	.cfi_def_cfa 2, 32
	addi	sp,sp,32
	.cfi_def_cfa_offset 0
	jr	ra
	.cfi_endproc
.LFE0:
	.size	GetGuidFromType, .-GetGuidFromType
	.section	.text.RegisterNonDiscoverableMmioDevice,"ax",@progbits
	.align	1
	.globl	RegisterNonDiscoverableMmioDevice
	.type	RegisterNonDiscoverableMmioDevice, @function
RegisterNonDiscoverableMmioDevice:
.LFB1:
	.loc 1 110 1
	.cfi_startproc
	addi	sp,sp,-192
	.cfi_def_cfa_offset 192
	sd	ra,152(sp)
	sd	s0,144(sp)
	.cfi_offset 1, -40
	.cfi_offset 8, -48
	addi	s0,sp,160
	.cfi_def_cfa 8, 32
	sd	a2,-128(s0)
	sd	a3,-136(s0)
	sd	a4,-144(s0)
	sd	a5,8(s0)
	sd	a6,16(s0)
	sd	a7,24(s0)
	mv	a5,a0
	sw	a5,-116(s0)
	mv	a5,a1
	sw	a5,-120(s0)
	.loc 1 122 6
	lw	a5,-116(s0)
	sext.w	a4,a5
	li	a5,8
	bgtu	a4,a5,.L14
	.loc 1 122 46 discriminator 1
	lw	a5,-120(s0)
	sext.w	a4,a5
	li	a5,1
	bgtu	a4,a5,.L14
	.loc 1 123 52
	ld	a5,-144(s0)
	bne	a5,zero,.L15
.L14:
	.loc 1 126 12
	li	a5,-1
	slli	a5,a5,63
	addi	a5,a5,2
	j	.L27
.L15:
	.loc 1 129 6
	ld	a5,-136(s0)
	bne	a5,zero,.L17
	.loc 1 130 12
	addi	a5,s0,-96
	sd	a5,-136(s0)
	.loc 1 131 17
	sd	zero,-96(s0)
.L17:
	.loc 1 135 32
	ld	a4,-144(s0)
	li	a5,46
	mul	a5,a4,a5
	.loc 1 134 13
	addi	a5,a5,34
	sd	a5,-40(s0)
	.loc 1 137 39
	ld	a0,-40(s0)
	call	AllocateZeroPool@plt
	sd	a0,-48(s0)
	.loc 1 138 6
	ld	a5,-48(s0)
	bne	a5,zero,.L18
	.loc 1 139 12
	li	a5,-1
	slli	a5,a5,63
	addi	a5,a5,9
	j	.L27
.L18:
	.loc 1 142 18
	lw	a5,-116(s0)
	mv	a0,a5
	call	GetGuidFromType
	mv	a4,a0
	.loc 1 142 16 discriminator 1
	ld	a5,-48(s0)
	sd	a4,0(a5)
	.loc 1 145 19
	ld	a5,-48(s0)
	lw	a4,-120(s0)
	sw	a4,8(a5)
	.loc 1 146 22
	ld	a5,-48(s0)
	ld	a4,-128(s0)
	sd	a4,16(a5)
	.loc 1 147 68
	ld	a5,-48(s0)
	addi	a4,a5,32
	.loc 1 147 21
	ld	a5,-48(s0)
	sd	a4,24(a5)
	.loc 1 149 3
	addi	a5,s0,32
	sd	a5,-152(s0)
	ld	a5,-152(s0)
	addi	a5,a5,-24
	sd	a5,-104(s0)
	.loc 1 150 14
	sd	zero,-32(s0)
	.loc 1 150 3
	j	.L19
.L22:
	.loc 1 151 19
	ld	a5,-48(s0)
	ld	a4,24(a5)
	.loc 1 151 30
	ld	a3,-32(s0)
	li	a5,46
	mul	a5,a3,a5
	.loc 1 151 10
	add	a5,a4,a5
	sd	a5,-72(s0)
	.loc 1 152 10
	ld	a5,-104(s0)
	addi	a4,a5,8
	sd	a4,-104(s0)
	ld	a5,0(a5)
	sd	a5,-80(s0)
	.loc 1 153 10
	ld	a5,-104(s0)
	addi	a4,a5,8
	sd	a4,-104(s0)
	ld	a5,0(a5)
	sd	a5,-88(s0)
	.loc 1 155 16
	ld	a5,-72(s0)
	li	a4,-118
	sb	a4,0(a5)
	.loc 1 156 15
	ld	a5,-72(s0)
	lbu	a4,1(a5)
	andi	a4,a4,0
	ori	a4,a4,43
	sb	a4,1(a5)
	lbu	a4,2(a5)
	andi	a4,a4,0
	sb	a4,2(a5)
	.loc 1 157 24
	ld	a5,-72(s0)
	ld	a4,-80(s0)
	andi	a4,a4,255
	lbu	a3,14(a5)
	andi	a3,a3,0
	or	a4,a3,a4
	sb	a4,14(a5)
	ld	a4,-80(s0)
	srli	a4,a4,8
	andi	a4,a4,255
	lbu	a3,15(a5)
	andi	a3,a3,0
	or	a4,a3,a4
	sb	a4,15(a5)
	ld	a4,-80(s0)
	srli	a4,a4,16
	andi	a4,a4,255
	lbu	a3,16(a5)
	andi	a3,a3,0
	or	a4,a3,a4
	sb	a4,16(a5)
	ld	a4,-80(s0)
	srli	a4,a4,24
	andi	a4,a4,255
	lbu	a3,17(a5)
	andi	a3,a3,0
	or	a4,a3,a4
	sb	a4,17(a5)
	ld	a4,-80(s0)
	srli	a4,a4,32
	andi	a4,a4,255
	lbu	a3,18(a5)
	andi	a3,a3,0
	or	a4,a3,a4
	sb	a4,18(a5)
	ld	a4,-80(s0)
	srli	a4,a4,40
	andi	a4,a4,255
	lbu	a3,19(a5)
	andi	a3,a3,0
	or	a4,a3,a4
	sb	a4,19(a5)
	ld	a4,-80(s0)
	srli	a4,a4,48
	andi	a4,a4,255
	lbu	a3,20(a5)
	andi	a3,a3,0
	or	a4,a3,a4
	sb	a4,20(a5)
	ld	a4,-80(s0)
	srli	a4,a4,56
	lbu	a3,21(a5)
	andi	a3,a3,0
	or	a4,a3,a4
	sb	a4,21(a5)
	.loc 1 158 19
	ld	a5,-72(s0)
	ld	a4,-88(s0)
	andi	a4,a4,255
	lbu	a3,38(a5)
	andi	a3,a3,0
	or	a4,a3,a4
	sb	a4,38(a5)
	ld	a4,-88(s0)
	srli	a4,a4,8
	andi	a4,a4,255
	lbu	a3,39(a5)
	andi	a3,a3,0
	or	a4,a3,a4
	sb	a4,39(a5)
	ld	a4,-88(s0)
	srli	a4,a4,16
	andi	a4,a4,255
	lbu	a3,40(a5)
	andi	a3,a3,0
	or	a4,a3,a4
	sb	a4,40(a5)
	ld	a4,-88(s0)
	srli	a4,a4,24
	andi	a4,a4,255
	lbu	a3,41(a5)
	andi	a3,a3,0
	or	a4,a3,a4
	sb	a4,41(a5)
	ld	a4,-88(s0)
	srli	a4,a4,32
	andi	a4,a4,255
	lbu	a3,42(a5)
	andi	a3,a3,0
	or	a4,a3,a4
	sb	a4,42(a5)
	ld	a4,-88(s0)
	srli	a4,a4,40
	andi	a4,a4,255
	lbu	a3,43(a5)
	andi	a3,a3,0
	or	a4,a3,a4
	sb	a4,43(a5)
	ld	a4,-88(s0)
	srli	a4,a4,48
	andi	a4,a4,255
	lbu	a3,44(a5)
	andi	a3,a3,0
	or	a4,a3,a4
	sb	a4,44(a5)
	ld	a4,-88(s0)
	srli	a4,a4,56
	lbu	a3,45(a5)
	andi	a3,a3,0
	or	a4,a3,a4
	sb	a4,45(a5)
	.loc 1 159 31
	ld	a4,-80(s0)
	ld	a5,-88(s0)
	add	a5,a4,a5
	.loc 1 159 38
	addi	a4,a5,-1
	.loc 1 159 24
	ld	a5,-72(s0)
	andi	a3,a4,255
	lbu	a2,22(a5)
	andi	a2,a2,0
	or	a3,a2,a3
	sb	a3,22(a5)
	srli	a3,a4,8
	andi	a3,a3,255
	lbu	a2,23(a5)
	andi	a2,a2,0
	or	a3,a2,a3
	sb	a3,23(a5)
	srli	a3,a4,16
	andi	a3,a3,255
	lbu	a2,24(a5)
	andi	a2,a2,0
	or	a3,a2,a3
	sb	a3,24(a5)
	srli	a3,a4,24
	andi	a3,a3,255
	lbu	a2,25(a5)
	andi	a2,a2,0
	or	a3,a2,a3
	sb	a3,25(a5)
	srli	a3,a4,32
	andi	a3,a3,255
	lbu	a2,26(a5)
	andi	a2,a2,0
	or	a3,a2,a3
	sb	a3,26(a5)
	srli	a3,a4,40
	andi	a3,a3,255
	lbu	a2,27(a5)
	andi	a2,a2,0
	or	a3,a2,a3
	sb	a3,27(a5)
	srli	a3,a4,48
	andi	a3,a3,255
	lbu	a2,28(a5)
	andi	a2,a2,0
	or	a3,a2,a3
	sb	a3,28(a5)
	srli	a4,a4,56
	lbu	a3,29(a5)
	andi	a3,a3,0
	or	a4,a3,a4
	sb	a4,29(a5)
	.loc 1 160 19
	ld	a5,-72(s0)
	sb	zero,3(a5)
	.loc 1 161 62
	ld	a4,-80(s0)
	ld	a5,-88(s0)
	add	a4,a4,a5
	.loc 1 161 99
	li	a5,1
	slli	a5,a5,32
	bleu	a4,a5,.L20
	.loc 1 161 99 is_stmt 0 discriminator 1
	li	a4,64
	j	.L21
.L20:
	.loc 1 161 99 discriminator 2
	li	a4,32
.L21:
	.loc 1 161 32 is_stmt 1 discriminator 4
	ld	a5,-72(s0)
	andi	a3,a4,255
	lbu	a2,6(a5)
	andi	a2,a2,0
	or	a3,a2,a3
	sb	a3,6(a5)
	srli	a3,a4,8
	andi	a3,a3,255
	lbu	a2,7(a5)
	andi	a2,a2,0
	or	a3,a2,a3
	sb	a3,7(a5)
	srli	a3,a4,16
	andi	a3,a3,255
	lbu	a2,8(a5)
	andi	a2,a2,0
	or	a3,a2,a3
	sb	a3,8(a5)
	srli	a3,a4,24
	andi	a3,a3,255
	lbu	a2,9(a5)
	andi	a2,a2,0
	or	a3,a2,a3
	sb	a3,9(a5)
	srli	a3,a4,32
	andi	a3,a3,255
	lbu	a2,10(a5)
	andi	a2,a2,0
	or	a3,a2,a3
	sb	a3,10(a5)
	srli	a3,a4,40
	andi	a3,a3,255
	lbu	a2,11(a5)
	andi	a2,a2,0
	or	a3,a2,a3
	sb	a3,11(a5)
	srli	a3,a4,48
	andi	a3,a3,255
	lbu	a2,12(a5)
	andi	a2,a2,0
	or	a3,a2,a3
	sb	a3,12(a5)
	srli	a4,a4,56
	lbu	a3,13(a5)
	andi	a3,a3,0
	or	a4,a3,a4
	sb	a4,13(a5)
	.loc 1 162 33
	ld	a5,-72(s0)
	lbu	a4,30(a5)
	andi	a4,a4,0
	sb	a4,30(a5)
	lbu	a4,31(a5)
	andi	a4,a4,0
	sb	a4,31(a5)
	lbu	a4,32(a5)
	andi	a4,a4,0
	sb	a4,32(a5)
	lbu	a4,33(a5)
	andi	a4,a4,0
	sb	a4,33(a5)
	lbu	a4,34(a5)
	andi	a4,a4,0
	sb	a4,34(a5)
	lbu	a4,35(a5)
	andi	a4,a4,0
	sb	a4,35(a5)
	lbu	a4,36(a5)
	andi	a4,a4,0
	sb	a4,36(a5)
	lbu	a4,37(a5)
	andi	a4,a4,0
	sb	a4,37(a5)
	.loc 1 150 50 discriminator 2
	ld	a5,-32(s0)
	addi	a5,a5,1
	sd	a5,-32(s0)
.L19:
	.loc 1 150 25 discriminator 1
	ld	a4,-32(s0)
	ld	a5,-144(s0)
	bltu	a4,a5,.L22
	.loc 1 167 47
	ld	a5,-48(s0)
	ld	a4,24(a5)
	.loc 1 167 58
	ld	a3,-144(s0)
	li	a5,46
	mul	a5,a3,a5
	.loc 1 167 7
	add	a5,a4,a5
	sd	a5,-56(s0)
	.loc 1 169 13
	ld	a5,-56(s0)
	li	a4,121
	sb	a4,0(a5)
	.loc 1 170 17
	ld	a5,-56(s0)
	sb	zero,1(a5)
	.loc 1 172 48
	li	a2,33
	li	a1,4
	li	a0,1
	call	CreateDeviceNode@plt
	sd	a0,-64(s0)
	.loc 1 177 6
	ld	a5,-64(s0)
	bne	a5,zero,.L23
	.loc 1 178 12
	li	a5,-1
	slli	a5,a5,63
	addi	a5,a5,9
	sd	a5,-24(s0)
	.loc 1 179 5
	j	.L24
.L23:
	.loc 1 182 13
	ld	a5,-64(s0)
	addi	a5,a5,4
	.loc 1 182 3
	la	a1,gEdkiiNonDiscoverableDeviceProtocolGuid
	mv	a0,a5
	call	CopyGuid@plt
	.loc 1 188 35
	ld	a5,-48(s0)
	ld	a5,24(a5)
	.loc 1 188 49
	lbu	a4,14(a5)
	lbu	a3,15(a5)
	slli	a3,a3,8
	or	a4,a3,a4
	lbu	a3,16(a5)
	slli	a3,a3,16
	or	a4,a3,a4
	lbu	a3,17(a5)
	slli	a3,a3,24
	or	a4,a3,a4
	lbu	a3,18(a5)
	slli	a3,a3,32
	or	a4,a3,a4
	lbu	a3,19(a5)
	slli	a3,a3,40
	or	a4,a3,a4
	lbu	a3,20(a5)
	slli	a3,a3,48
	or	a4,a3,a4
	lbu	a5,21(a5)
	slli	a5,a5,56
	or	a5,a5,a4
	mv	a4,a5
	.loc 1 188 27
	ld	a5,-64(s0)
	andi	a3,a4,255
	lbu	a2,20(a5)
	andi	a2,a2,0
	or	a3,a2,a3
	sb	a3,20(a5)
	srli	a3,a4,8
	andi	a3,a3,255
	lbu	a2,21(a5)
	andi	a2,a2,0
	or	a3,a2,a3
	sb	a3,21(a5)
	srli	a3,a4,16
	andi	a3,a3,255
	lbu	a2,22(a5)
	andi	a2,a2,0
	or	a3,a2,a3
	sb	a3,22(a5)
	srli	a3,a4,24
	andi	a3,a3,255
	lbu	a2,23(a5)
	andi	a2,a2,0
	or	a3,a2,a3
	sb	a3,23(a5)
	srli	a3,a4,32
	andi	a3,a3,255
	lbu	a2,24(a5)
	andi	a2,a2,0
	or	a3,a2,a3
	sb	a3,24(a5)
	srli	a3,a4,40
	andi	a3,a3,255
	lbu	a2,25(a5)
	andi	a2,a2,0
	or	a3,a2,a3
	sb	a3,25(a5)
	srli	a3,a4,48
	andi	a3,a3,255
	lbu	a2,26(a5)
	andi	a2,a2,0
	or	a3,a2,a3
	sb	a3,26(a5)
	srli	a4,a4,56
	lbu	a3,27(a5)
	andi	a3,a3,0
	or	a4,a3,a4
	sb	a4,27(a5)
	.loc 1 189 36
	ld	a5,-48(s0)
	ld	a5,24(a5)
	.loc 1 189 50
	lbu	a4,3(a5)
	.loc 1 189 28
	ld	a5,-64(s0)
	sb	a4,28(a5)
	.loc 1 192 5
	ld	a5,-64(s0)
	.loc 1 191 3
	li	a1,29
	mv	a0,a5
	call	SetDevicePathNodeLength@plt
	.loc 1 195 25
	ld	a5,-64(s0)
	addi	a5,a5,29
	.loc 1 195 3
	mv	a0,a5
	call	SetDevicePathEndNode@plt
	.loc 1 197 15
	la	a5,gBS
	ld	a5,0(a5)
	ld	a6,328(a5)
	.loc 1 197 12
	li	a5,0
	ld	a4,-64(s0)
	la	a3,gEfiDevicePathProtocolGuid
	ld	a2,-48(s0)
	la	a1,gEdkiiNonDiscoverableDeviceProtocolGuid
	ld	a0,-136(s0)
	jalr	a6
.LVL0:
	sd	a0,-24(s0)
	.loc 1 205 34
	ld	a5,-24(s0)
	.loc 1 205 6
	blt	a5,zero,.L29
	.loc 1 209 10
	li	a5,0
	j	.L27
.L29:
	.loc 1 206 5
	nop
.L26:
	.loc 1 212 3
	ld	a0,-64(s0)
	call	FreePool@plt
.L24:
	.loc 1 215 3
	ld	a0,-48(s0)
	call	FreePool@plt
	.loc 1 217 10
	ld	a5,-24(s0)
.L27:
	.loc 1 218 1
	mv	a0,a5
	ld	ra,152(sp)
	.cfi_restore 1
	ld	s0,144(sp)
	.cfi_restore 8
	.cfi_def_cfa 2, 192
	addi	sp,sp,192
	.cfi_def_cfa_offset 0
	jr	ra
	.cfi_endproc
.LFE1:
	.size	RegisterNonDiscoverableMmioDevice, .-RegisterNonDiscoverableMmioDevice
	.text
.Letext0:
	.file 2 "/home/kapoagaeming/spacemit-image-builder/components/edk2/MdePkg/Include/RiscV64/ProcessorBind.h"
	.file 3 "/home/kapoagaeming/spacemit-image-builder/components/edk2/MdePkg/Include/Base.h"
	.file 4 "/home/kapoagaeming/spacemit-image-builder/components/edk2/MdePkg/Include/Uefi/UefiBaseType.h"
	.file 5 "/home/kapoagaeming/spacemit-image-builder/components/edk2/MdePkg/Include/Uefi/UefiMultiPhase.h"
	.file 6 "/home/kapoagaeming/spacemit-image-builder/components/edk2/MdePkg/Include/IndustryStandard/Acpi10.h"
	.file 7 "/home/kapoagaeming/spacemit-image-builder/components/edk2/MdePkg/Include/Protocol/DevicePath.h"
	.file 8 "/home/kapoagaeming/spacemit-image-builder/components/edk2/MdePkg/Include/Uefi/UefiSpec.h"
	.file 9 "/home/kapoagaeming/spacemit-image-builder/components/Build/Milk-V-Jupiter/RELEASE_GCC5/RISCV64/MdeModulePkg/Library/NonDiscoverableDeviceRegistrationLib/NonDiscoverableDeviceRegistrationLib/DEBUG/AutoGen.h"
	.file 10 "/home/kapoagaeming/spacemit-image-builder/components/edk2/MdeModulePkg/Include/Protocol/NonDiscoverableDevice.h"
	.file 11 "/home/kapoagaeming/spacemit-image-builder/components/edk2/MdeModulePkg/Include/Library/NonDiscoverableDeviceRegistrationLib.h"
	.file 12 "/home/kapoagaeming/spacemit-image-builder/components/edk2/MdePkg/Include/Library/MemoryAllocationLib.h"
	.file 13 "/home/kapoagaeming/spacemit-image-builder/components/edk2/MdePkg/Include/Library/DevicePathLib.h"
	.file 14 "/home/kapoagaeming/spacemit-image-builder/components/edk2/MdePkg/Include/Library/BaseMemoryLib.h"
	.file 15 "/home/kapoagaeming/spacemit-image-builder/components/edk2/MdePkg/Include/Library/UefiBootServicesTableLib.h"
	.section	.note.GNU-stack,"",@progbits
