	.file	"Eeprom.c"
	.option pic
	.option norelax
	.attribute arch, "rv64i2p1_m2p0_a2p1_f2p2_d2p2_c2p0_zicsr2p0_zifencei2p0_zmmul1p0_zaamo1p0_zalrsc1p0_zca1p0_zcd1p0"
	.attribute unaligned_access, 0
	.attribute stack_align, 16
	.text
.Ltext0:
	.cfi_sections	.debug_frame
	.file 0 "/home/kapoagaeming/spacemit-image-builder/components/Build/Milk-V-Jupiter/RELEASE_GCC5/RISCV64/Silicon/Spacemit/Drivers/I2CMaster/Eeprom/EepromDxe" "/home/kapoagaeming/spacemit-image-builder/components/edk2-platforms/Silicon/Spacemit/Drivers/I2CMaster/Eeprom/Eeprom.c"
	.globl	gDriverBindingProtocol
	.section	.data.rel.local.gDriverBindingProtocol,"aw"
	.align	3
	.type	gDriverBindingProtocol, @object
	.size	gDriverBindingProtocol, 48
gDriverBindingProtocol:
	.dword	SpacemitEepromSupported
	.dword	SpacemitEepromStart
	.dword	SpacemitEepromStop
	.zero	24
	.section	.text.SpacemitEepromSupported,"ax",@progbits
	.align	1
	.globl	SpacemitEepromSupported
	.type	SpacemitEepromSupported, @function
SpacemitEepromSupported:
.LFB0:
	.file 1 "/home/kapoagaeming/spacemit-image-builder/components/edk2-platforms/Silicon/Spacemit/Drivers/I2CMaster/Eeprom/Eeprom.c"
	.loc 1 38 1
	.cfi_startproc
	addi	sp,sp,-80
	.cfi_def_cfa_offset 80
	sd	ra,72(sp)
	sd	s0,64(sp)
	.cfi_offset 1, -8
	.cfi_offset 8, -16
	addi	s0,sp,80
	.cfi_def_cfa 8, 0
	sd	a0,-56(s0)
	sd	a1,-64(s0)
	sd	a2,-72(s0)
	.loc 1 44 6
	ld	a5,-56(s0)
	beq	a5,zero,.L2
	.loc 1 44 30 discriminator 1
	ld	a5,-64(s0)
	bne	a5,zero,.L3
.L2:
	.loc 1 46 12
	li	a5,-1
	slli	a5,a5,63
	addi	a5,a5,2
	j	.L13
.L3:
	.loc 1 49 15
	la	a5,gBS
	ld	a5,0(a5)
	ld	a5,152(a5)
	.loc 1 49 12
	addi	a4,s0,-48
	mv	a2,a4
	la	a1,gEfiI2cIoProtocolGuid
	ld	a0,-64(s0)
	jalr	a5
.LVL0:
	sd	a0,-32(s0)
	.loc 1 55 34
	ld	a5,-32(s0)
	.loc 1 55 6
	bge	a5,zero,.L5
	.loc 1 56 12
	li	a5,-1
	slli	a5,a5,63
	addi	a5,a5,3
	j	.L13
.L5:
	.loc 1 60 17
	la	a5,_gPcd_FixedAtBuild_PcdEepromConfigs
	sd	a5,-40(s0)
	.loc 1 62 6
	ld	a5,-40(s0)
	beq	a5,zero,.L6
	.loc 1 62 56 discriminator 1
	ld	a5,-40(s0)
	lhu	a5,0(a5)
	.loc 1 62 39 discriminator 1
	bne	a5,zero,.L7
.L6:
	.loc 1 64 12
	li	a5,-1
	slli	a5,a5,63
	addi	a5,a5,3
	j	.L13
.L7:
	.loc 1 68 10
	sd	zero,-24(s0)
	.loc 1 68 3
	j	.L8
.L12:
	.loc 1 69 17
	ld	a5,-48(s0)
	lw	a4,16(a5)
	.loc 1 69 56
	ld	a3,-40(s0)
	ld	a5,-24(s0)
	slli	a5,a5,2
	add	a5,a3,a5
	lbu	a5,3(a5)
	sext.w	a5,a5
	.loc 1 69 8
	bne	a4,a5,.L9
	.loc 1 70 19
	la	a5,gBS
	ld	a5,0(a5)
	ld	a6,280(a5)
	.loc 1 70 16
	la	a5,gImageHandle
	ld	a3,0(a5)
	addi	a2,s0,-48
	li	a5,16
	ld	a4,-64(s0)
	la	a1,gEfiI2cIoProtocolGuid
	ld	a0,-64(s0)
	jalr	a6
.LVL1:
	sd	a0,-32(s0)
	.loc 1 79 11
	ld	a5,-32(s0)
	.loc 1 79 10
	blt	a5,zero,.L10
	.loc 1 80 21
	la	a5,gBS
	ld	a5,0(a5)
	ld	a5,288(a5)
	.loc 1 80 18
	la	a4,gImageHandle
	ld	a4,0(a4)
	ld	a3,-64(s0)
	mv	a2,a4
	la	a1,gEfiI2cIoProtocolGuid
	ld	a0,-64(s0)
	jalr	a5
.LVL2:
	sd	a0,-32(s0)
.L10:
	.loc 1 88 38
	ld	a5,-32(s0)
	.loc 1 88 10
	bge	a5,zero,.L11
	.loc 1 90 16
	li	a5,-1
	slli	a5,a5,63
	addi	a5,a5,3
	j	.L13
.L11:
	.loc 1 93 14
	li	a5,0
	j	.L13
.L9:
	.loc 1 68 40 discriminator 2
	ld	a5,-24(s0)
	addi	a5,a5,1
	sd	a5,-24(s0)
.L8:
	.loc 1 68 32 discriminator 1
	ld	a5,-40(s0)
	lhu	a5,0(a5)
	mv	a4,a5
	.loc 1 68 17 discriminator 1
	ld	a5,-24(s0)
	bltu	a5,a4,.L12
	.loc 1 97 10
	li	a5,-1
	slli	a5,a5,63
	addi	a5,a5,3
.L13:
	.loc 1 98 1
	mv	a0,a5
	ld	ra,72(sp)
	.cfi_restore 1
	ld	s0,64(sp)
	.cfi_restore 8
	.cfi_def_cfa 2, 80
	addi	sp,sp,80
	.cfi_def_cfa_offset 0
	jr	ra
	.cfi_endproc
.LFE0:
	.size	SpacemitEepromSupported, .-SpacemitEepromSupported
	.section	.text.SpacemitEepromTransfer,"ax",@progbits
	.align	1
	.globl	SpacemitEepromTransfer
	.type	SpacemitEepromTransfer, @function
SpacemitEepromTransfer:
.LFB1:
	.loc 1 109 1
	.cfi_startproc
	addi	sp,sp,-160
	.cfi_def_cfa_offset 160
	sd	ra,152(sp)
	sd	s0,144(sp)
	.cfi_offset 1, -8
	.cfi_offset 8, -16
	addi	s0,sp,160
	.cfi_def_cfa 8, 0
	sd	a0,-136(s0)
	mv	a5,a1
	sd	a3,-152(s0)
	sh	a5,-138(s0)
	mv	a5,a2
	sw	a5,-144(s0)
	mv	a5,a4
	sb	a5,-139(s0)
	.loc 1 112 14
	sd	zero,-24(s0)
	.loc 1 113 37
	ld	a5,-136(s0)
	addi	a5,a5,-24
	.loc 1 113 147
	lw	a4,0(a5)
	.loc 1 113 232
	li	a5,1346715648
	addi	a5,a5,1363
	bne	a4,a5,.L15
	.loc 1 113 19 discriminator 1
	ld	a5,-136(s0)
	addi	a5,a5,-24
	sd	a5,-32(s0)
	j	.L16
.L15:
	.loc 1 113 19 is_stmt 0 discriminator 2
	sd	zero,-32(s0)
.L16:
	.loc 1 119 6 is_stmt 1
	ld	a5,-152(s0)
	beq	a5,zero,.L17
	.loc 1 119 32 discriminator 1
	lw	a5,-144(s0)
	sext.w	a5,a5
	bne	a5,zero,.L18
.L17:
	.loc 1 120 12
	li	a5,-1
	slli	a5,a5,63
	addi	a5,a5,2
	j	.L19
.L18:
	.loc 1 127 17
	la	a5,_gPcd_FixedAtBuild_PcdEepromConfigs
	sd	a5,-80(s0)
	.loc 1 129 6
	ld	a5,-80(s0)
	beq	a5,zero,.L20
	.loc 1 129 56 discriminator 1
	ld	a5,-80(s0)
	lhu	a5,0(a5)
	.loc 1 129 39 discriminator 1
	bne	a5,zero,.L21
.L20:
	.loc 1 131 12
	li	a5,-1
	slli	a5,a5,63
	addi	a5,a5,7
	j	.L19
.L21:
	.loc 1 135 13
	li	a5,1
	sb	a5,-33(s0)
	.loc 1 136 12
	li	a5,8
	sb	a5,-34(s0)
	.loc 1 137 10
	sd	zero,-48(s0)
	.loc 1 137 3
	j	.L22
.L25:
	.loc 1 138 22
	ld	a5,-32(s0)
	ld	a5,16(a5)
	.loc 1 138 29
	lw	a4,16(a5)
	.loc 1 138 68
	ld	a3,-80(s0)
	ld	a5,-48(s0)
	slli	a5,a5,2
	add	a5,a3,a5
	lbu	a5,3(a5)
	sext.w	a5,a5
	.loc 1 138 8
	bne	a4,a5,.L23
	.loc 1 139 17
	ld	a4,-80(s0)
	ld	a5,-48(s0)
	slli	a5,a5,2
	add	a5,a4,a5
	lbu	a5,4(a5)
	sb	a5,-33(s0)
	.loc 1 140 16
	ld	a4,-80(s0)
	ld	a5,-48(s0)
	slli	a5,a5,2
	add	a5,a4,a5
	lbu	a5,5(a5)
	sb	a5,-34(s0)
	.loc 1 141 7
	j	.L24
.L23:
	.loc 1 137 40 discriminator 2
	ld	a5,-48(s0)
	addi	a5,a5,1
	sd	a5,-48(s0)
.L22:
	.loc 1 137 32 discriminator 1
	ld	a5,-80(s0)
	lhu	a5,0(a5)
	mv	a4,a5
	.loc 1 137 17 discriminator 1
	ld	a5,-48(s0)
	bltu	a5,a4,.L25
.L24:
	.loc 1 145 21
	li	a5,40
	sd	a5,-88(s0)
	.loc 1 146 19
	ld	a0,-88(s0)
	call	AllocateZeroPool@plt
	sd	a0,-96(s0)
	.loc 1 147 6
	ld	a5,-96(s0)
	bne	a5,zero,.L26
	.loc 1 148 12
	li	a5,-1
	slli	a5,a5,63
	addi	a5,a5,9
	j	.L19
.L26:
	.loc 1 152 33
	ld	a5,-96(s0)
	li	a4,2
	sd	a4,0(a5)
	.loc 1 153 45
	lbu	a5,-33(s0)
	sext.w	a4,a5
	ld	a5,-96(s0)
	sw	a4,12(a5)
	.loc 1 154 40
	lbu	a5,-33(s0)
	mv	a0,a5
	call	AllocateZeroPool@plt
	mv	a4,a0
	.loc 1 154 38 discriminator 1
	ld	a5,-96(s0)
	sd	a4,16(a5)
	.loc 1 155 34
	ld	a5,-96(s0)
	ld	a5,16(a5)
	.loc 1 155 6
	bne	a5,zero,.L27
	.loc 1 156 5
	ld	a0,-96(s0)
	call	FreePool@plt
	.loc 1 157 12
	li	a5,-1
	slli	a5,a5,63
	addi	a5,a5,9
	j	.L19
.L27:
	.loc 1 160 6
	lbu	a5,-139(s0)
	andi	a4,a5,0xff
	li	a5,1
	beq	a4,a5,.L28
.LBB2:
	.loc 1 162 11
	lwu	a5,-144(s0)
	sd	a5,-56(s0)
	.loc 1 163 11
	lhu	a5,-138(s0)
	sd	a5,-64(s0)
	.loc 1 164 11
	sd	zero,-72(s0)
	.loc 1 166 11
	j	.L29
.L35:
.LBB3:
	.loc 1 168 42
	lbu	a5,-34(s0)
	.loc 1 168 13
	ld	a4,-64(s0)
	divu	a5,a4,a5
	sd	a5,-104(s0)
	.loc 1 169 42
	ld	a5,-104(s0)
	addi	a4,a5,1
	.loc 1 169 47
	lbu	a5,-34(s0)
	.loc 1 169 13
	mul	a5,a4,a5
	sd	a5,-112(s0)
	.loc 1 170 64
	ld	a4,-112(s0)
	ld	a5,-64(s0)
	sub	a4,a4,a5
	.loc 1 170 13
	ld	a5,-56(s0)
	bleu	a5,a4,.L30
	mv	a5,a4
.L30:
	sd	a5,-120(s0)
	.loc 1 173 41
	ld	a5,-96(s0)
	sw	zero,8(a5)
	.loc 1 174 49
	lbu	a5,-33(s0)
	sext.w	a4,a5
	ld	a5,-96(s0)
	sw	a4,12(a5)
	.loc 1 175 10
	lbu	a5,-33(s0)
	andi	a4,a5,0xff
	li	a5,2
	bne	a4,a5,.L31
	.loc 1 176 72
	ld	a5,-64(s0)
	srli	a4,a5,8
	.loc 1 176 36
	ld	a5,-96(s0)
	ld	a5,16(a5)
	.loc 1 176 49
	andi	a4,a4,0xff
	.loc 1 176 47
	sb	a4,0(a5)
	.loc 1 177 36
	ld	a5,-96(s0)
	ld	a5,16(a5)
	.loc 1 177 43
	addi	a5,a5,1
	.loc 1 177 49
	ld	a4,-64(s0)
	andi	a4,a4,0xff
	.loc 1 177 47
	sb	a4,0(a5)
	j	.L32
.L31:
	.loc 1 179 36
	ld	a5,-96(s0)
	ld	a5,16(a5)
	.loc 1 179 49
	ld	a4,-64(s0)
	andi	a4,a4,0xff
	.loc 1 179 47
	sb	a4,0(a5)
.L32:
	.loc 1 183 41
	ld	a5,-96(s0)
	sw	zero,24(a5)
	.loc 1 184 49
	ld	a5,-120(s0)
	sext.w	a4,a5
	ld	a5,-96(s0)
	sw	a4,28(a5)
	.loc 1 185 51
	ld	a4,-152(s0)
	ld	a5,-72(s0)
	add	a4,a4,a5
	.loc 1 185 42
	ld	a5,-96(s0)
	sd	a4,32(a5)
	.loc 1 187 29
	ld	a5,-32(s0)
	ld	a5,16(a5)
	.loc 1 187 36
	ld	a5,0(a5)
	.loc 1 188 65
	ld	a4,-32(s0)
	ld	a0,16(a4)
	.loc 1 187 16
	li	a4,0
	ld	a3,-96(s0)
	li	a2,0
	li	a1,0
	jalr	a5
.LVL3:
	sd	a0,-24(s0)
	.loc 1 195 38
	ld	a5,-24(s0)
	.loc 1 195 10
	blt	a5,zero,.L39
	.loc 1 204 10
	la	a5,gBS
	ld	a5,0(a5)
	ld	a5,248(a5)
	.loc 1 204 7
	li	a4,8192
	addi	a0,a4,1808
	jalr	a5
.LVL4:
	.loc 1 207 22
	ld	a4,-64(s0)
	ld	a5,-120(s0)
	add	a5,a4,a5
	sd	a5,-64(s0)
	.loc 1 208 21
	ld	a4,-72(s0)
	ld	a5,-120(s0)
	add	a5,a4,a5
	sd	a5,-72(s0)
	.loc 1 209 23
	ld	a4,-56(s0)
	ld	a5,-120(s0)
	sub	a5,a4,a5
	sd	a5,-56(s0)
.L29:
.LBE3:
	.loc 1 166 28
	ld	a5,-56(s0)
	bne	a5,zero,.L35
	j	.L36
.L28:
.LBE2:
	.loc 1 213 8
	lbu	a5,-33(s0)
	andi	a4,a5,0xff
	li	a5,2
	bne	a4,a5,.L37
	.loc 1 214 47
	lhu	a5,-138(s0)
	srliw	a5,a5,8
	slli	a4,a5,48
	srli	a4,a4,48
	.loc 1 214 34
	ld	a5,-96(s0)
	ld	a5,16(a5)
	.loc 1 214 47
	andi	a4,a4,0xff
	.loc 1 214 45
	sb	a4,0(a5)
	.loc 1 215 34
	ld	a5,-96(s0)
	ld	a5,16(a5)
	.loc 1 215 41
	addi	a5,a5,1
	.loc 1 215 47
	lhu	a4,-138(s0)
	andi	a4,a4,0xff
	.loc 1 215 45
	sb	a4,0(a5)
	j	.L38
.L37:
	.loc 1 217 34
	ld	a5,-96(s0)
	ld	a5,16(a5)
	.loc 1 217 47
	lhu	a4,-138(s0)
	andi	a4,a4,0xff
	.loc 1 217 45
	sb	a4,0(a5)
.L38:
	.loc 1 220 47
	ld	a5,-96(s0)
	lw	a4,-144(s0)
	sw	a4,28(a5)
	.loc 1 221 40
	ld	a5,-96(s0)
	ld	a4,-152(s0)
	sd	a4,32(a5)
	.loc 1 222 39
	ld	a5,-96(s0)
	li	a4,1
	sw	a4,24(a5)
	.loc 1 224 27
	ld	a5,-32(s0)
	ld	a5,16(a5)
	.loc 1 224 34
	ld	a5,0(a5)
	.loc 1 225 63
	ld	a4,-32(s0)
	ld	a0,16(a4)
	.loc 1 224 14
	li	a4,0
	ld	a3,-96(s0)
	li	a2,0
	li	a1,0
	jalr	a5
.LVL5:
	sd	a0,-24(s0)
	j	.L36
.L39:
.LBB5:
.LBB4:
	.loc 1 200 9
	nop
.L36:
.LBE4:
.LBE5:
	.loc 1 233 40
	ld	a5,-96(s0)
	ld	a5,16(a5)
	.loc 1 233 3
	mv	a0,a5
	call	FreePool@plt
	.loc 1 234 3
	ld	a0,-96(s0)
	call	FreePool@plt
	.loc 1 235 10
	ld	a5,-24(s0)
.L19:
	.loc 1 236 1
	mv	a0,a5
	ld	ra,152(sp)
	.cfi_restore 1
	ld	s0,144(sp)
	.cfi_restore 8
	.cfi_def_cfa 2, 160
	addi	sp,sp,160
	.cfi_def_cfa_offset 0
	jr	ra
	.cfi_endproc
.LFE1:
	.size	SpacemitEepromTransfer, .-SpacemitEepromTransfer
	.section	.text.SpacemitEepromStart,"ax",@progbits
	.align	1
	.globl	SpacemitEepromStart
	.type	SpacemitEepromStart, @function
SpacemitEepromStart:
.LFB2:
	.loc 1 245 1
	.cfi_startproc
	addi	sp,sp,-64
	.cfi_def_cfa_offset 64
	sd	ra,56(sp)
	sd	s0,48(sp)
	.cfi_offset 1, -8
	.cfi_offset 8, -16
	addi	s0,sp,64
	.cfi_def_cfa 8, 0
	sd	a0,-40(s0)
	sd	a1,-48(s0)
	sd	a2,-56(s0)
	.loc 1 246 14
	sd	zero,-32(s0)
	.loc 1 249 19
	li	a0,40
	call	AllocateZeroPool@plt
	sd	a0,-24(s0)
	.loc 1 250 6
	ld	a5,-24(s0)
	bne	a5,zero,.L41
	.loc 1 252 12
	li	a5,-1
	slli	a5,a5,63
	addi	a5,a5,9
	j	.L42
.L41:
	.loc 1 255 35
	ld	a4,-48(s0)
	ld	a5,-24(s0)
	sd	a4,8(a5)
	.loc 1 256 28
	ld	a5,-24(s0)
	li	a4,1346715648
	addi	a4,a4,1363
	sw	a4,0(a5)
	.loc 1 257 42
	ld	a5,-24(s0)
	lla	a4,SpacemitEepromTransfer
	sd	a4,24(a5)
	.loc 1 259 15
	la	a5,gBS
	ld	a5,0(a5)
	ld	a6,280(a5)
	.loc 1 259 12
	ld	a0,-48(s0)
	.loc 1 262 40
	ld	a5,-24(s0)
	addi	a2,a5,16
	.loc 1 259 12
	la	a5,gImageHandle
	ld	a3,0(a5)
	ld	a4,-48(s0)
	li	a5,16
	la	a1,gEfiI2cIoProtocolGuid
	jalr	a6
.LVL6:
	sd	a0,-32(s0)
	.loc 1 267 34
	ld	a5,-32(s0)
	.loc 1 267 6
	bge	a5,zero,.L43
	.loc 1 269 5
	ld	a0,-24(s0)
	call	FreePool@plt
	.loc 1 270 12
	ld	a5,-32(s0)
	j	.L42
.L43:
	.loc 1 273 59
	ld	a5,-24(s0)
	ld	a5,16(a5)
	.loc 1 273 66
	lw	a4,16(a5)
	.loc 1 273 44
	ld	a5,-24(s0)
	sw	a4,32(a5)
	.loc 1 274 15
	la	a5,gBS
	ld	a5,0(a5)
	ld	a5,328(a5)
	.loc 1 274 12
	ld	a4,-24(s0)
	addi	a2,a4,24
	addi	a4,s0,-48
	li	a3,0
	la	a1,gSpacemitEepromProtocolGuid
	mv	a0,a4
	jalr	a5
.LVL7:
	sd	a0,-32(s0)
	.loc 1 280 34
	ld	a5,-32(s0)
	.loc 1 280 6
	blt	a5,zero,.L47
	.loc 1 289 10
	ld	a5,-32(s0)
	j	.L42
.L47:
	.loc 1 282 5
	nop
.L45:
	.loc 1 292 3
	ld	a0,-24(s0)
	call	FreePool@plt
	.loc 1 293 6
	la	a5,gBS
	ld	a5,0(a5)
	ld	a5,288(a5)
	.loc 1 293 3
	ld	a0,-48(s0)
	la	a4,gImageHandle
	ld	a4,0(a4)
	ld	a3,-48(s0)
	mv	a2,a4
	la	a1,gEfiI2cIoProtocolGuid
	jalr	a5
.LVL8:
	.loc 1 300 10
	ld	a5,-32(s0)
.L42:
	.loc 1 301 1
	mv	a0,a5
	ld	ra,56(sp)
	.cfi_restore 1
	ld	s0,48(sp)
	.cfi_restore 8
	.cfi_def_cfa 2, 64
	addi	sp,sp,64
	.cfi_def_cfa_offset 0
	jr	ra
	.cfi_endproc
.LFE2:
	.size	SpacemitEepromStart, .-SpacemitEepromStart
	.section	.text.SpacemitEepromStop,"ax",@progbits
	.align	1
	.globl	SpacemitEepromStop
	.type	SpacemitEepromStop, @function
SpacemitEepromStop:
.LFB3:
	.loc 1 311 1
	.cfi_startproc
	addi	sp,sp,-80
	.cfi_def_cfa_offset 80
	sd	ra,72(sp)
	sd	s0,64(sp)
	.cfi_offset 1, -8
	.cfi_offset 8, -16
	addi	s0,sp,80
	.cfi_def_cfa 8, 0
	sd	a0,-56(s0)
	sd	a1,-64(s0)
	sd	a2,-72(s0)
	sd	a3,-80(s0)
	.loc 1 316 15
	la	a5,gBS
	ld	a5,0(a5)
	ld	a6,280(a5)
	.loc 1 316 12
	ld	a0,-64(s0)
	ld	a5,-56(s0)
	ld	a3,40(a5)
	ld	a4,-64(s0)
	addi	a2,s0,-40
	li	a5,2
	la	a1,gSpacemitEepromProtocolGuid
	jalr	a6
.LVL9:
	sd	a0,-32(s0)
	.loc 1 325 34
	ld	a5,-32(s0)
	.loc 1 325 6
	bge	a5,zero,.L49
	.loc 1 326 12
	li	a5,-1
	slli	a5,a5,63
	addi	a5,a5,7
	j	.L53
.L49:
	.loc 1 329 40
	ld	a5,-40(s0)
	.loc 1 329 21
	addi	a5,a5,-24
	.loc 1 329 141
	lw	a4,0(a5)
	.loc 1 329 226
	li	a5,1346715648
	addi	a5,a5,1363
	bne	a4,a5,.L51
	.loc 1 329 248 discriminator 1
	ld	a5,-40(s0)
	.loc 1 329 17 discriminator 1
	addi	a5,a5,-24
	sd	a5,-24(s0)
	j	.L52
.L51:
	.loc 1 329 17 is_stmt 0 discriminator 2
	sd	zero,-24(s0)
.L52:
	.loc 1 331 6 is_stmt 1
	la	a5,gBS
	ld	a5,0(a5)
	ld	a5,336(a5)
	.loc 1 331 3
	ld	a4,-24(s0)
	addi	a2,a4,24
	addi	a4,s0,-64
	li	a3,0
	la	a1,gSpacemitEepromProtocolGuid
	mv	a0,a4
	jalr	a5
.LVL10:
	.loc 1 337 6
	la	a5,gBS
	ld	a5,0(a5)
	ld	a5,288(a5)
	.loc 1 337 3
	ld	a0,-64(s0)
	la	a4,gImageHandle
	ld	a4,0(a4)
	ld	a3,-64(s0)
	mv	a2,a4
	la	a1,gEfiI2cIoProtocolGuid
	jalr	a5
.LVL11:
	.loc 1 343 3
	ld	a0,-24(s0)
	call	FreePool@plt
	.loc 1 344 10
	li	a5,0
.L53:
	.loc 1 345 1
	mv	a0,a5
	ld	ra,72(sp)
	.cfi_restore 1
	ld	s0,64(sp)
	.cfi_restore 8
	.cfi_def_cfa 2, 80
	addi	sp,sp,80
	.cfi_def_cfa_offset 0
	jr	ra
	.cfi_endproc
.LFE3:
	.size	SpacemitEepromStop, .-SpacemitEepromStop
	.section	.text.SpacemitEepromInitialise,"ax",@progbits
	.align	1
	.globl	SpacemitEepromInitialise
	.type	SpacemitEepromInitialise, @function
SpacemitEepromInitialise:
.LFB4:
	.loc 1 353 1
	.cfi_startproc
	addi	sp,sp,-48
	.cfi_def_cfa_offset 48
	sd	ra,40(sp)
	sd	s0,32(sp)
	.cfi_offset 1, -8
	.cfi_offset 8, -16
	addi	s0,sp,48
	.cfi_def_cfa 8, 0
	sd	a0,-40(s0)
	sd	a1,-48(s0)
	.loc 1 356 15
	la	a5,gBS
	ld	a5,0(a5)
	ld	a5,328(a5)
	.loc 1 356 12
	addi	a4,s0,-40
	li	a3,0
	lla	a2,gDriverBindingProtocol
	la	a1,gEfiDriverBindingProtocolGuid
	mv	a0,a4
	jalr	a5
.LVL12:
	sd	a0,-24(s0)
	.loc 1 367 10
	ld	a5,-24(s0)
	.loc 1 368 1
	mv	a0,a5
	ld	ra,40(sp)
	.cfi_restore 1
	ld	s0,32(sp)
	.cfi_restore 8
	.cfi_def_cfa 2, 48
	addi	sp,sp,48
	.cfi_def_cfa_offset 0
	jr	ra
	.cfi_endproc
.LFE4:
	.size	SpacemitEepromInitialise, .-SpacemitEepromInitialise
	.text
.Letext0:
	.file 2 "/home/kapoagaeming/spacemit-image-builder/components/edk2/MdePkg/Include/RiscV64/ProcessorBind.h"
	.file 3 "/home/kapoagaeming/spacemit-image-builder/components/edk2/MdePkg/Include/Base.h"
	.file 4 "/home/kapoagaeming/spacemit-image-builder/components/edk2/MdePkg/Include/Uefi/UefiBaseType.h"
	.file 5 "/home/kapoagaeming/spacemit-image-builder/components/edk2/MdePkg/Include/Uefi/UefiMultiPhase.h"
	.file 6 "/home/kapoagaeming/spacemit-image-builder/components/edk2/MdePkg/Include/Protocol/DevicePath.h"
	.file 7 "/home/kapoagaeming/spacemit-image-builder/components/edk2/MdePkg/Include/Protocol/SimpleTextIn.h"
	.file 8 "/home/kapoagaeming/spacemit-image-builder/components/edk2/MdePkg/Include/Protocol/SimpleTextOut.h"
	.file 9 "/home/kapoagaeming/spacemit-image-builder/components/edk2/MdePkg/Include/Uefi/UefiSpec.h"
	.file 10 "/home/kapoagaeming/spacemit-image-builder/components/Build/Milk-V-Jupiter/RELEASE_GCC5/RISCV64/Silicon/Spacemit/Drivers/I2CMaster/Eeprom/EepromDxe/DEBUG/AutoGen.h"
	.file 11 "/home/kapoagaeming/spacemit-image-builder/components/edk2/MdePkg/Include/Protocol/DriverBinding.h"
	.file 12 "/home/kapoagaeming/spacemit-image-builder/components/edk2/MdePkg/Include/Pi/PiI2c.h"
	.file 13 "/home/kapoagaeming/spacemit-image-builder/components/edk2/MdePkg/Include/Protocol/I2cIo.h"
	.file 14 "/home/kapoagaeming/spacemit-image-builder/components/edk2/MdePkg/Include/Library/UefiBootServicesTableLib.h"
	.file 15 "/home/kapoagaeming/spacemit-image-builder/components/edk2-platforms/Silicon/Spacemit/Drivers/I2CMaster/Eeprom/EepromPcdConfig.h"
	.file 16 "/home/kapoagaeming/spacemit-image-builder/components/edk2-platforms/Silicon/Spacemit/Drivers/I2CMaster/Eeprom/Eeprom.h"
	.file 17 "/home/kapoagaeming/spacemit-image-builder/components/edk2/MdePkg/Include/Library/MemoryAllocationLib.h"
	.section	.note.GNU-stack,"",@progbits
