	.file	"DxeNetLib.c"
	.option pic
	.option norelax
	.attribute arch, "rv64i2p1_m2p0_a2p1_f2p2_d2p2_c2p0_zicsr2p0_zifencei2p0_zmmul1p0_zaamo1p0_zalrsc1p0_zca1p0_zcd1p0"
	.attribute unaligned_access, 0
	.attribute stack_align, 16
	.text
.Ltext0:
	.cfi_sections	.debug_frame
	.file 0 "/home/kapoagaeming/spacemit-image-builder/components/Build/Milk-V-Jupiter/RELEASE_GCC5/RISCV64/NetworkPkg/Library/DxeNetLib/DxeNetLib" "/home/kapoagaeming/spacemit-image-builder/components/edk2/NetworkPkg/Library/DxeNetLib/DxeNetLib.c"
	.globl	gIp4AllMasks
	.section	.data.gIp4AllMasks,"aw"
	.align	3
	.type	gIp4AllMasks, @object
	.size	gIp4AllMasks, 132
gIp4AllMasks:
	.word	0
	.word	-2147483648
	.word	-1073741824
	.word	-536870912
	.word	-268435456
	.word	-134217728
	.word	-67108864
	.word	-33554432
	.word	-16777216
	.word	-8388608
	.word	-4194304
	.word	-2097152
	.word	-1048576
	.word	-524288
	.word	-262144
	.word	-131072
	.word	-65536
	.word	-32768
	.word	-16384
	.word	-8192
	.word	-4096
	.word	-2048
	.word	-1024
	.word	-512
	.word	-256
	.word	-128
	.word	-64
	.word	-32
	.word	-16
	.word	-8
	.word	-4
	.word	-2
	.word	-1
	.globl	mZeroIp4Addr
	.section	.bss.mZeroIp4Addr,"aw",@nobits
	.align	3
	.type	mZeroIp4Addr, @object
	.size	mZeroIp4Addr, 4
mZeroIp4Addr:
	.zero	4
	.globl	mNetDebugLevelMax
	.section	.data.mNetDebugLevelMax,"aw"
	.align	3
	.type	mNetDebugLevelMax, @object
	.size	mNetDebugLevelMax, 8
mNetDebugLevelMax:
	.dword	3
	.globl	mSyslogPacketSeq
	.section	.data.mSyslogPacketSeq,"aw"
	.align	2
	.type	mSyslogPacketSeq, @object
	.size	mSyslogPacketSeq, 4
mSyslogPacketSeq:
	.word	-559038737
	.globl	mSyslogDstMac
	.section	.data.mSyslogDstMac,"aw"
	.align	3
	.type	mSyslogDstMac, @object
	.size	mSyslogDstMac, 6
mSyslogDstMac:
	.base64	"////////"
	.globl	mSyslogDstIp
	.section	.data.mSyslogDstIp,"aw"
	.align	2
	.type	mSyslogDstIp, @object
	.size	mSyslogDstIp, 4
mSyslogDstIp:
	.word	-1
	.globl	mSyslogSrcIp
	.section	.bss.mSyslogSrcIp,"aw",@nobits
	.align	2
	.type	mSyslogSrcIp, @object
	.size	mSyslogSrcIp, 4
mSyslogSrcIp:
	.zero	4
	.globl	mMonthName
	.section	.rodata
	.align	3
.LC0:
	.string	"Jan"
	.align	3
.LC1:
	.string	"Feb"
	.align	3
.LC2:
	.string	"Mar"
	.align	3
.LC3:
	.string	"Apr"
	.align	3
.LC4:
	.string	"May"
	.align	3
.LC5:
	.string	"Jun"
	.align	3
.LC6:
	.string	"Jul"
	.align	3
.LC7:
	.string	"Aug"
	.align	3
.LC8:
	.string	"Sep"
	.align	3
.LC9:
	.string	"Oct"
	.align	3
.LC10:
	.string	"Nov"
	.align	3
.LC11:
	.string	"Dec"
	.section	.data.rel.local.mMonthName,"aw"
	.align	3
	.type	mMonthName, @object
	.size	mMonthName, 96
mMonthName:
	.dword	.LC0
	.dword	.LC1
	.dword	.LC2
	.dword	.LC3
	.dword	.LC4
	.dword	.LC5
	.dword	.LC6
	.dword	.LC7
	.dword	.LC8
	.dword	.LC9
	.dword	.LC10
	.dword	.LC11
	.globl	mNetVlanDevicePathTemplate
	.section	.data.mNetVlanDevicePathTemplate,"aw"
	.align	3
	.type	mNetVlanDevicePathTemplate, @object
	.size	mNetVlanDevicePathTemplate, 6
mNetVlanDevicePathTemplate:
	.byte	3
	.byte	20
	.string	"\006"
	.half	0
	.section	.data.rel.ro.mSecureHashAlgorithms,"aw"
	.align	3
	.type	mSecureHashAlgorithms, @object
	.size	mSecureHashAlgorithms, 40
mSecureHashAlgorithms:
	.dword	gEfiRngAlgorithmSp80090Ctr256Guid
	.dword	gEfiRngAlgorithmSp80090Hmac256Guid
	.dword	gEfiRngAlgorithmSp80090Hash256Guid
	.dword	gEfiRngAlgorithmArmRndr
	.dword	gEfiRngAlgorithmRaw
	.section	.text.SyslogLocateSnp,"ax",@progbits
	.align	1
	.globl	SyslogLocateSnp
	.type	SyslogLocateSnp, @function
SyslogLocateSnp:
.LFB0:
	.file 1 "/home/kapoagaeming/spacemit-image-builder/components/edk2/NetworkPkg/Library/DxeNetLib/DxeNetLib.c"
	.loc 1 169 1
	.cfi_startproc
	addi	sp,sp,-64
	.cfi_def_cfa_offset 64
	sd	ra,56(sp)
	sd	s0,48(sp)
	.cfi_offset 1, -8
	.cfi_offset 8, -16
	addi	s0,sp,64
	.cfi_def_cfa 8, 0
	.loc 1 179 11
	sd	zero,-48(s0)
	.loc 1 180 15
	la	a5,gBS
	ld	a5,0(a5)
	ld	a5,312(a5)
	.loc 1 180 12
	addi	a4,s0,-48
	addi	a3,s0,-56
	li	a2,0
	la	a1,gEfiSimpleNetworkProtocolGuid
	li	a0,2
	jalr	a5
.LVL0:
	sd	a0,-32(s0)
	.loc 1 188 34
	ld	a5,-32(s0)
	.loc 1 188 6
	blt	a5,zero,.L2
	.loc 1 188 76 discriminator 1
	ld	a5,-56(s0)
	.loc 1 188 60 discriminator 1
	bne	a5,zero,.L3
.L2:
	.loc 1 189 12
	li	a5,0
	j	.L9
.L3:
	.loc 1 195 7
	sd	zero,-40(s0)
	.loc 1 197 14
	sd	zero,-24(s0)
	.loc 1 197 3
	j	.L5
.L8:
	.loc 1 198 17
	la	a5,gBS
	ld	a5,0(a5)
	ld	a5,152(a5)
	.loc 1 199 28
	ld	a3,-48(s0)
	ld	a4,-24(s0)
	slli	a4,a4,3
	add	a4,a3,a4
	.loc 1 198 14
	ld	a4,0(a4)
	addi	a3,s0,-40
	mv	a2,a3
	la	a1,gEfiSimpleNetworkProtocolGuid
	mv	a0,a4
	jalr	a5
.LVL1:
	sd	a0,-32(s0)
	.loc 1 204 8
	ld	a5,-32(s0)
	bne	a5,zero,.L6
	.loc 1 204 48 discriminator 1
	ld	a5,-40(s0)
	.loc 1 204 40 discriminator 1
	beq	a5,zero,.L6
	.loc 1 205 13
	ld	a5,-40(s0)
	ld	a5,120(a5)
	.loc 1 205 19
	lbu	a5,648(a5)
	.loc 1 204 65 discriminator 2
	mv	a4,a5
	li	a5,1
	bne	a4,a5,.L6
	.loc 1 206 13
	ld	a5,-40(s0)
	ld	a5,120(a5)
	.loc 1 206 19
	lw	a4,12(a5)
	.loc 1 205 37
	li	a5,511
	bgtu	a4,a5,.L10
.L6:
	.loc 1 211 9
	sd	zero,-40(s0)
	.loc 1 197 45 discriminator 2
	ld	a5,-24(s0)
	addi	a5,a5,1
	sd	a5,-24(s0)
.L5:
	.loc 1 197 25 discriminator 1
	ld	a5,-56(s0)
	ld	a4,-24(s0)
	bltu	a4,a5,.L8
	j	.L7
.L10:
	.loc 1 208 7
	nop
.L7:
	.loc 1 214 3
	ld	a5,-48(s0)
	mv	a0,a5
	call	FreePool@plt
	.loc 1 215 10
	ld	a5,-40(s0)
.L9:
	.loc 1 216 1
	mv	a0,a5
	ld	ra,56(sp)
	.cfi_restore 1
	ld	s0,48(sp)
	.cfi_restore 8
	.cfi_def_cfa 2, 64
	addi	sp,sp,64
	.cfi_def_cfa_offset 0
	jr	ra
	.cfi_endproc
.LFE0:
	.size	SyslogLocateSnp, .-SyslogLocateSnp
	.section	.text.SyslogSendPacket,"ax",@progbits
	.align	1
	.globl	SyslogSendPacket
	.type	SyslogSendPacket, @function
SyslogSendPacket:
.LFB1:
	.loc 1 239 1
	.cfi_startproc
	addi	sp,sp,-80
	.cfi_def_cfa_offset 80
	sd	ra,72(sp)
	sd	s0,64(sp)
	.cfi_offset 1, -8
	.cfi_offset 8, -16
	addi	s0,sp,80
	.cfi_def_cfa 8, 0
	sd	a0,-72(s0)
	mv	a5,a1
	sw	a5,-76(s0)
	.loc 1 248 9
	call	SyslogLocateSnp
	sd	a0,-32(s0)
	.loc 1 250 6
	ld	a5,-32(s0)
	bne	a5,zero,.L12
	.loc 1 251 12
	li	a5,-1
	slli	a5,a5,63
	addi	a5,a5,7
	j	.L22
.L12:
	.loc 1 254 9
	ld	a5,-72(s0)
	sd	a5,-40(s0)
	.loc 1 255 17
	ld	a5,-40(s0)
	addi	a4,a5,6
	.loc 1 255 30
	ld	a5,-32(s0)
	ld	a5,120(a5)
	.loc 1 255 52
	addi	a5,a5,552
	.loc 1 255 3
	li	a2,6
	mv	a1,a5
	mv	a0,a4
	call	CopyMem@plt
	.loc 1 260 15
	la	a5,gBS
	ld	a5,0(a5)
	ld	a5,80(a5)
	.loc 1 260 12
	addi	a4,s0,-48
	li	a3,0
	li	a2,0
	li	a1,16
	li	a0,-2147483648
	jalr	a5
.LVL2:
	sd	a0,-24(s0)
	.loc 1 268 34
	ld	a5,-24(s0)
	.loc 1 268 6
	bge	a5,zero,.L14
	.loc 1 269 12
	ld	a5,-24(s0)
	j	.L22
.L14:
	.loc 1 272 15
	la	a5,gBS
	ld	a5,0(a5)
	ld	a5,88(a5)
	.loc 1 272 12
	ld	a3,-48(s0)
	li	a4,5001216
	addi	a2,a4,-1216
	li	a1,2
	mv	a0,a3
	jalr	a5
.LVL3:
	sd	a0,-24(s0)
	.loc 1 274 34
	ld	a5,-24(s0)
	.loc 1 274 6
	blt	a5,zero,.L23
.L15:
	.loc 1 282 17
	ld	a5,-32(s0)
	ld	a7,96(a5)
	.loc 1 282 14
	lwu	a2,-76(s0)
	li	a6,0
	li	a5,0
	li	a4,0
	ld	a3,-72(s0)
	li	a1,0
	ld	a0,-32(s0)
	jalr	a7
.LVL4:
	sd	a0,-24(s0)
	.loc 1 284 8
	ld	a5,-24(s0)
	beq	a5,zero,.L17
	.loc 1 284 40 discriminator 1
	ld	a4,-24(s0)
	li	a5,-1
	slli	a5,a5,63
	addi	a5,a5,6
	beq	a4,a5,.L17
	.loc 1 285 14
	li	a5,-1
	slli	a5,a5,63
	addi	a5,a5,7
	sd	a5,-24(s0)
	.loc 1 286 7
	j	.L18
.L17:
	.loc 1 294 11
	sd	zero,-56(s0)
.L21:
	.loc 1 300 10
	ld	a5,-32(s0)
	ld	a5,88(a5)
	.loc 1 300 7
	addi	a4,s0,-56
	mv	a2,a4
	li	a1,0
	ld	a0,-32(s0)
	jalr	a5
.LVL5:
	.loc 1 302 33
	la	a5,gBS
	ld	a5,0(a5)
	ld	a5,120(a5)
	.loc 1 302 30
	ld	a4,-48(s0)
	mv	a0,a4
	jalr	a5
.LVL6:
	mv	a5,a0
	.loc 1 302 10 discriminator 1
	blt	a5,zero,.L19
	.loc 1 303 16
	li	a5,-1
	slli	a5,a5,63
	addi	a5,a5,18
	sd	a5,-24(s0)
	.loc 1 304 9
	j	.L20
.L19:
	.loc 1 306 20
	ld	a5,-56(s0)
	beq	a5,zero,.L21
.L20:
	.loc 1 308 8
	ld	a5,-24(s0)
	beq	a5,zero,.L18
	.loc 1 308 40 discriminator 1
	ld	a4,-24(s0)
	li	a5,-1
	slli	a5,a5,63
	addi	a5,a5,18
	beq	a4,a5,.L18
	.loc 1 316 8
	la	a5,gBS
	ld	a5,0(a5)
	ld	a5,88(a5)
	.loc 1 316 5
	ld	a3,-48(s0)
	li	a4,5001216
	addi	a2,a4,-1216
	li	a1,2
	mv	a0,a3
	jalr	a5
.LVL7:
	.loc 1 282 12
	j	.L15
.L18:
	.loc 1 319 6
	la	a5,gBS
	ld	a5,0(a5)
	ld	a5,88(a5)
	.loc 1 319 3
	ld	a4,-48(s0)
	li	a2,0
	li	a1,0
	mv	a0,a4
	jalr	a5
.LVL8:
	j	.L16
.L23:
	.loc 1 275 5
	nop
.L16:
	.loc 1 322 6
	la	a5,gBS
	ld	a5,0(a5)
	ld	a5,112(a5)
	.loc 1 322 3
	ld	a4,-48(s0)
	mv	a0,a4
	jalr	a5
.LVL9:
	.loc 1 323 10
	ld	a5,-24(s0)
.L22:
	.loc 1 324 1
	mv	a0,a5
	ld	ra,72(sp)
	.cfi_restore 1
	ld	s0,64(sp)
	.cfi_restore 8
	.cfi_def_cfa 2, 80
	addi	sp,sp,80
	.cfi_def_cfa_offset 0
	jr	ra
	.cfi_endproc
.LFE1:
	.size	SyslogSendPacket, .-SyslogSendPacket
	.section	.rodata
	.align	3
.LC12:
	.string	"<%d> %a %d %d:%d:%d "
	.align	3
.LC13:
	.string	"Tiano %a: %a (Line: %d File: %a)"
	.section	.text.SyslogBuildPacket,"ax",@progbits
	.align	1
	.globl	SyslogBuildPacket
	.type	SyslogBuildPacket, @function
SyslogBuildPacket:
.LFB2:
	.loc 1 351 1
	.cfi_startproc
	addi	sp,sp,-144
	.cfi_def_cfa_offset 144
	sd	ra,136(sp)
	sd	s0,128(sp)
	.cfi_offset 1, -8
	.cfi_offset 8, -16
	addi	s0,sp,144
	.cfi_def_cfa 8, 0
	sd	a1,-96(s0)
	sd	a2,-104(s0)
	sd	a4,-112(s0)
	mv	a4,a5
	sd	a6,-128(s0)
	mv	a5,a0
	sw	a5,-84(s0)
	mv	a5,a3
	sw	a5,-88(s0)
	mv	a5,a4
	sw	a5,-116(s0)
	.loc 1 364 9
	ld	a5,-128(s0)
	sd	a5,-24(s0)
	.loc 1 365 17
	ld	a5,-24(s0)
	.loc 1 365 3
	li	a2,6
	lla	a1,mSyslogDstMac
	mv	a0,a5
	call	CopyMem@plt
	.loc 1 366 17
	ld	a5,-24(s0)
	addi	a5,a5,6
	.loc 1 366 3
	li	a1,6
	mv	a0,a5
	call	ZeroMem@plt
	.loc 1 368 22
	li	a5,4096
	addi	a0,a5,-2048
	call	SwapBytes16@plt
	mv	a5,a0
	mv	a4,a5
	.loc 1 368 20 discriminator 1
	ld	a5,-24(s0)
	andi	a3,a4,255
	lbu	a2,12(a5)
	andi	a2,a2,0
	or	a3,a2,a3
	sb	a3,12(a5)
	srliw	a4,a4,8
	slli	a4,a4,48
	srli	a4,a4,48
	lbu	a3,13(a5)
	andi	a3,a3,0
	or	a4,a3,a4
	sb	a4,13(a5)
	.loc 1 370 7
	ld	a5,-128(s0)
	addi	a5,a5,14
	sd	a5,-128(s0)
	.loc 1 371 10
	lw	a5,-116(s0)
	addiw	a5,a5,-14
	sw	a5,-116(s0)
	.loc 1 376 7
	ld	a5,-128(s0)
	sd	a5,-32(s0)
	.loc 1 377 16
	ld	a5,-32(s0)
	lbu	a4,0(a5)
	andi	a4,a4,-16
	ori	a4,a4,5
	sb	a4,0(a5)
	.loc 1 378 12
	ld	a5,-32(s0)
	lbu	a4,0(a5)
	andi	a4,a4,15
	ori	a4,a4,64
	sb	a4,0(a5)
	.loc 1 379 12
	ld	a5,-32(s0)
	sb	zero,1(a5)
	.loc 1 380 17
	ld	a5,-32(s0)
	lbu	a4,2(a5)
	andi	a4,a4,0
	sb	a4,2(a5)
	lbu	a4,3(a5)
	andi	a4,a4,0
	sb	a4,3(a5)
	.loc 1 381 13
	lla	a5,mSyslogPacketSeq
	lw	a5,0(a5)
	slli	a4,a5,48
	srli	a4,a4,48
	.loc 1 381 11
	ld	a5,-32(s0)
	andi	a3,a4,255
	lbu	a2,4(a5)
	andi	a2,a2,0
	or	a3,a2,a3
	sb	a3,4(a5)
	srliw	a4,a4,8
	slli	a4,a4,48
	srli	a4,a4,48
	lbu	a3,5(a5)
	andi	a3,a3,0
	or	a4,a3,a4
	sb	a4,5(a5)
	.loc 1 382 17
	ld	a5,-32(s0)
	lbu	a4,6(a5)
	andi	a4,a4,0
	sb	a4,6(a5)
	lbu	a4,7(a5)
	andi	a4,a4,0
	sb	a4,7(a5)
	.loc 1 383 12
	ld	a5,-32(s0)
	li	a4,16
	sb	a4,8(a5)
	.loc 1 384 17
	ld	a5,-32(s0)
	li	a4,17
	sb	a4,9(a5)
	.loc 1 385 17
	ld	a5,-32(s0)
	lbu	a4,10(a5)
	andi	a4,a4,0
	sb	a4,10(a5)
	lbu	a4,11(a5)
	andi	a4,a4,0
	sb	a4,11(a5)
	.loc 1 386 12
	lla	a5,mSyslogSrcIp
	lw	a4,0(a5)
	ld	a5,-32(s0)
	slli	a3,a4,32
	srli	a3,a3,32
	andi	a3,a3,255
	lbu	a2,12(a5)
	andi	a2,a2,0
	or	a3,a2,a3
	sb	a3,12(a5)
	srliw	a3,a4,8
	slli	a3,a3,32
	srli	a3,a3,32
	andi	a3,a3,255
	lbu	a2,13(a5)
	andi	a2,a2,0
	or	a3,a2,a3
	sb	a3,13(a5)
	srliw	a3,a4,16
	slli	a3,a3,32
	srli	a3,a3,32
	andi	a3,a3,255
	lbu	a2,14(a5)
	andi	a2,a2,0
	or	a3,a2,a3
	sb	a3,14(a5)
	srliw	a4,a4,24
	slli	a4,a4,32
	srli	a4,a4,32
	lbu	a3,15(a5)
	andi	a3,a3,0
	or	a4,a3,a4
	sb	a4,15(a5)
	.loc 1 387 12
	lla	a5,mSyslogDstIp
	lw	a4,0(a5)
	ld	a5,-32(s0)
	slli	a3,a4,32
	srli	a3,a3,32
	andi	a3,a3,255
	lbu	a2,16(a5)
	andi	a2,a2,0
	or	a3,a2,a3
	sb	a3,16(a5)
	srliw	a3,a4,8
	slli	a3,a3,32
	srli	a3,a3,32
	andi	a3,a3,255
	lbu	a2,17(a5)
	andi	a2,a2,0
	or	a3,a2,a3
	sb	a3,17(a5)
	srliw	a3,a4,16
	slli	a3,a3,32
	srli	a3,a3,32
	andi	a3,a3,255
	lbu	a2,18(a5)
	andi	a2,a2,0
	or	a3,a2,a3
	sb	a3,18(a5)
	srliw	a4,a4,24
	slli	a4,a4,32
	srli	a4,a4,32
	lbu	a3,19(a5)
	andi	a3,a3,0
	or	a4,a3,a4
	sb	a4,19(a5)
	.loc 1 389 7
	ld	a5,-128(s0)
	addi	a5,a5,20
	sd	a5,-128(s0)
	.loc 1 390 10
	lw	a5,-116(s0)
	addiw	a5,a5,-20
	sw	a5,-116(s0)
	.loc 1 395 8
	ld	a5,-128(s0)
	sd	a5,-40(s0)
	.loc 1 396 19
	li	a0,514
	call	SwapBytes16@plt
	mv	a5,a0
	mv	a4,a5
	.loc 1 396 17 discriminator 1
	ld	a5,-40(s0)
	andi	a3,a4,255
	lbu	a2,0(a5)
	andi	a2,a2,0
	or	a3,a2,a3
	sb	a3,0(a5)
	srliw	a4,a4,8
	slli	a4,a4,48
	srli	a4,a4,48
	lbu	a3,1(a5)
	andi	a3,a3,0
	or	a4,a3,a4
	sb	a4,1(a5)
	.loc 1 397 19
	li	a0,514
	call	SwapBytes16@plt
	mv	a5,a0
	mv	a4,a5
	.loc 1 397 17 discriminator 1
	ld	a5,-40(s0)
	andi	a3,a4,255
	lbu	a2,2(a5)
	andi	a2,a2,0
	or	a3,a2,a3
	sb	a3,2(a5)
	srliw	a4,a4,8
	slli	a4,a4,48
	srli	a4,a4,48
	lbu	a3,3(a5)
	andi	a3,a3,0
	or	a4,a3,a4
	sb	a4,3(a5)
	.loc 1 398 16
	ld	a5,-40(s0)
	lbu	a4,4(a5)
	andi	a4,a4,0
	sb	a4,4(a5)
	lbu	a4,5(a5)
	andi	a4,a4,0
	sb	a4,5(a5)
	.loc 1 399 18
	ld	a5,-40(s0)
	lbu	a4,6(a5)
	andi	a4,a4,0
	sb	a4,6(a5)
	lbu	a4,7(a5)
	andi	a4,a4,0
	sb	a4,7(a5)
	.loc 1 401 7
	ld	a5,-128(s0)
	addi	a5,a5,8
	sd	a5,-128(s0)
	.loc 1 402 10
	lw	a5,-116(s0)
	addiw	a5,a5,-8
	sw	a5,-116(s0)
	.loc 1 407 35
	lw	a5,-84(s0)
	andi	a5,a5,7
	sext.w	a5,a5
	.loc 1 407 7
	ori	a5,a5,128
	sw	a5,-44(s0)
	.loc 1 408 15
	la	a5,gRT
	ld	a5,0(a5)
	ld	a5,24(a5)
	.loc 1 408 12
	addi	a4,s0,-80
	li	a1,0
	mv	a0,a4
	jalr	a5
.LVL10:
	sd	a0,-56(s0)
	.loc 1 409 34
	ld	a5,-56(s0)
	.loc 1 409 6
	bge	a5,zero,.L25
	.loc 1 410 12
	li	a5,0
	j	.L27
.L25:
	.loc 1 416 7
	sw	zero,-60(s0)
	.loc 1 417 18
	lwu	a1,-116(s0)
	.loc 1 422 35
	lbu	a5,-78(s0)
	sext.w	a5,a5
	.loc 1 422 41
	addiw	a5,a5,-1
	sext.w	a5,a5
	.loc 1 417 18
	lla	a4,mMonthName
	slli	a5,a5,3
	add	a5,a4,a5
	ld	a4,0(a5)
	.loc 1 423 24
	lbu	a5,-77(s0)
	.loc 1 417 18
	sext.w	a2,a5
	.loc 1 424 24
	lbu	a5,-76(s0)
	.loc 1 417 18
	sext.w	a0,a5
	.loc 1 425 24
	lbu	a5,-75(s0)
	.loc 1 417 18
	sext.w	a6,a5
	.loc 1 426 24
	lbu	a5,-74(s0)
	.loc 1 417 18
	sext.w	a5,a5
	lw	a3,-44(s0)
	sd	a5,0(sp)
	mv	a7,a6
	mv	a6,a0
	mv	a5,a2
	lla	a2,.LC12
	ld	a0,-128(s0)
	call	AsciiSPrint@plt
	mv	a5,a0
	.loc 1 417 10 discriminator 1
	sext.w	a5,a5
	.loc 1 417 7 discriminator 1
	lw	a4,-60(s0)
	addw	a5,a4,a5
	sw	a5,-60(s0)
	.loc 1 429 18
	lwu	a5,-60(s0)
	ld	a4,-128(s0)
	add	a0,a4,a5
	.loc 1 431 27
	lw	a5,-116(s0)
	mv	a4,a5
	lw	a5,-60(s0)
	subw	a5,a4,a5
	sext.w	a5,a5
	.loc 1 429 18
	slli	a1,a5,32
	srli	a1,a1,32
	lw	a5,-88(s0)
	ld	a6,-104(s0)
	ld	a4,-112(s0)
	ld	a3,-96(s0)
	lla	a2,.LC13
	call	AsciiSPrint@plt
	mv	a5,a0
	.loc 1 429 10 discriminator 1
	sext.w	a5,a5
	.loc 1 429 7 discriminator 1
	lw	a4,-60(s0)
	addw	a5,a4,a5
	sw	a5,-60(s0)
	.loc 1 438 6
	lw	a5,-60(s0)
	addiw	a5,a5,1
	sw	a5,-60(s0)
	.loc 1 443 7
	lw	a5,-60(s0)
	addiw	a5,a5,8
	sw	a5,-60(s0)
	.loc 1 444 18
	lw	a5,-60(s0)
	slli	a5,a5,48
	srli	a5,a5,48
	mv	a0,a5
	call	SwapBytes16@plt
	mv	a5,a0
	mv	a4,a5
	.loc 1 444 16 discriminator 1
	ld	a5,-40(s0)
	andi	a3,a4,255
	lbu	a2,4(a5)
	andi	a2,a2,0
	or	a3,a2,a3
	sb	a3,4(a5)
	srliw	a4,a4,8
	slli	a4,a4,48
	srli	a4,a4,48
	lbu	a3,5(a5)
	andi	a3,a3,0
	or	a4,a3,a4
	sb	a4,5(a5)
	.loc 1 446 7
	lw	a5,-60(s0)
	addiw	a5,a5,20
	sw	a5,-60(s0)
	.loc 1 447 19
	lw	a5,-60(s0)
	slli	a5,a5,48
	srli	a5,a5,48
	mv	a0,a5
	call	SwapBytes16@plt
	mv	a5,a0
	mv	a4,a5
	.loc 1 447 17 discriminator 1
	ld	a5,-32(s0)
	andi	a3,a4,255
	lbu	a2,2(a5)
	andi	a2,a2,0
	or	a3,a2,a3
	sb	a3,2(a5)
	srliw	a4,a4,8
	slli	a4,a4,48
	srli	a4,a4,48
	lbu	a3,3(a5)
	andi	a3,a3,0
	or	a4,a3,a4
	sb	a4,3(a5)
	.loc 1 448 29
	li	a1,20
	ld	a0,-32(s0)
	call	NetblockChecksum@plt
	mv	a5,a0
	.loc 1 448 19 discriminator 1
	not	a5,a5
	slli	a4,a5,48
	srli	a4,a4,48
	.loc 1 448 17 discriminator 1
	ld	a5,-32(s0)
	andi	a3,a4,255
	lbu	a2,10(a5)
	andi	a2,a2,0
	or	a3,a2,a3
	sb	a3,10(a5)
	srliw	a4,a4,8
	slli	a4,a4,48
	srli	a4,a4,48
	lbu	a3,11(a5)
	andi	a3,a3,0
	or	a4,a3,a4
	sb	a4,11(a5)
	.loc 1 450 14
	lw	a5,-60(s0)
	addiw	a5,a5,14
	sext.w	a5,a5
.L27:
	.loc 1 451 1
	mv	a0,a5
	ld	ra,136(sp)
	.cfi_restore 1
	ld	s0,128(sp)
	.cfi_restore 8
	.cfi_def_cfa 2, 144
	addi	sp,sp,144
	.cfi_def_cfa_offset 0
	jr	ra
	.cfi_endproc
.LFE2:
	.size	SyslogBuildPacket, .-SyslogBuildPacket
	.section	.text.NetDebugASPrint,"ax",@progbits
	.align	1
	.globl	NetDebugASPrint
	.type	NetDebugASPrint, @function
NetDebugASPrint:
.LFB3:
	.loc 1 485 1
	.cfi_startproc
	addi	sp,sp,-112
	.cfi_def_cfa_offset 112
	sd	ra,40(sp)
	sd	s0,32(sp)
	.cfi_offset 1, -72
	.cfi_offset 8, -80
	addi	s0,sp,48
	.cfi_def_cfa 8, 64
	sd	a0,-40(s0)
	sd	a1,8(s0)
	sd	a2,16(s0)
	sd	a3,24(s0)
	sd	a4,32(s0)
	sd	a5,40(s0)
	sd	a6,48(s0)
	sd	a7,56(s0)
	.loc 1 491 18
	li	a0,470
	call	AllocatePool@plt
	sd	a0,-24(s0)
	.loc 1 493 6
	ld	a5,-24(s0)
	bne	a5,zero,.L29
	.loc 1 494 12
	li	a5,0
	j	.L31
.L29:
	.loc 1 497 3
	addi	a5,s0,64
	sd	a5,-48(s0)
	ld	a5,-48(s0)
	addi	a5,a5,-56
	sd	a5,-32(s0)
	.loc 1 498 3
	ld	a5,-32(s0)
	mv	a3,a5
	ld	a2,-40(s0)
	li	a1,470
	ld	a0,-24(s0)
	call	AsciiVSPrint@plt
	.loc 1 501 10
	ld	a5,-24(s0)
.L31:
	.loc 1 502 1
	mv	a0,a5
	ld	ra,40(sp)
	.cfi_restore 1
	ld	s0,32(sp)
	.cfi_restore 8
	.cfi_def_cfa 2, 112
	addi	sp,sp,112
	.cfi_def_cfa_offset 0
	jr	ra
	.cfi_endproc
.LFE3:
	.size	NetDebugASPrint, .-NetDebugASPrint
	.section	.text.NetDebugOutput,"ax",@progbits
	.align	1
	.globl	NetDebugOutput
	.type	NetDebugOutput, @function
NetDebugOutput:
.LFB4:
	.loc 1 531 1
	.cfi_startproc
	addi	sp,sp,-80
	.cfi_def_cfa_offset 80
	sd	ra,72(sp)
	sd	s0,64(sp)
	.cfi_offset 1, -8
	.cfi_offset 8, -16
	addi	s0,sp,80
	.cfi_def_cfa 8, 0
	mv	a5,a0
	sd	a1,-64(s0)
	sd	a2,-72(s0)
	sd	a4,-80(s0)
	sw	a5,-52(s0)
	mv	a5,a3
	sw	a5,-56(s0)
	.loc 1 539 6
	ld	a5,-80(s0)
	beq	a5,zero,.L33
	.loc 1 539 33 discriminator 1
	ld	a5,-72(s0)
	beq	a5,zero,.L33
	.loc 1 539 59 discriminator 2
	ld	a5,-64(s0)
	bne	a5,zero,.L34
.L33:
	.loc 1 540 12
	li	a5,-1
	slli	a5,a5,63
	addi	a5,a5,2
	j	.L35
.L34:
	.loc 1 543 13
	lwu	a4,-52(s0)
	lla	a5,mNetDebugLevelMax
	ld	a5,0(a5)
	.loc 1 543 6
	bleu	a4,a5,.L36
	.loc 1 544 12
	sd	zero,-24(s0)
	.loc 1 545 5
	j	.L37
.L36:
	.loc 1 553 21
	li	a0,512
	call	AllocatePool@plt
	sd	a0,-32(s0)
	.loc 1 555 6
	ld	a5,-32(s0)
	bne	a5,zero,.L38
	.loc 1 556 12
	li	a5,-1
	slli	a5,a5,63
	addi	a5,a5,9
	sd	a5,-24(s0)
	.loc 1 557 5
	j	.L37
.L38:
	.loc 1 563 9
	lw	a3,-56(s0)
	lw	a0,-52(s0)
	ld	a6,-32(s0)
	li	a5,512
	ld	a4,-80(s0)
	ld	a2,-72(s0)
	ld	a1,-64(s0)
	call	SyslogBuildPacket
	mv	a5,a0
	sw	a5,-36(s0)
	.loc 1 572 6
	lw	a5,-36(s0)
	sext.w	a5,a5
	bne	a5,zero,.L39
	.loc 1 573 12
	li	a5,-1
	slli	a5,a5,63
	addi	a5,a5,7
	sd	a5,-24(s0)
	j	.L40
.L39:
	.loc 1 575 21
	lla	a5,mSyslogPacketSeq
	lw	a5,0(a5)
	addiw	a5,a5,1
	sext.w	a4,a5
	lla	a5,mSyslogPacketSeq
	sw	a4,0(a5)
	.loc 1 576 14
	lw	a5,-36(s0)
	mv	a1,a5
	ld	a0,-32(s0)
	call	SyslogSendPacket
	sd	a0,-24(s0)
.L40:
	.loc 1 579 3
	ld	a0,-32(s0)
	call	FreePool@plt
.L37:
	.loc 1 582 3
	ld	a0,-80(s0)
	call	FreePool@plt
	.loc 1 583 10
	ld	a5,-24(s0)
.L35:
	.loc 1 584 1
	mv	a0,a5
	ld	ra,72(sp)
	.cfi_restore 1
	ld	s0,64(sp)
	.cfi_restore 8
	.cfi_def_cfa 2, 80
	addi	sp,sp,80
	.cfi_def_cfa_offset 0
	jr	ra
	.cfi_endproc
.LFE4:
	.size	NetDebugOutput, .-NetDebugOutput
	.section	.text.NetGetMaskLength,"ax",@progbits
	.align	1
	.globl	NetGetMaskLength
	.type	NetGetMaskLength, @function
NetGetMaskLength:
.LFB5:
	.loc 1 603 1
	.cfi_startproc
	addi	sp,sp,-48
	.cfi_def_cfa_offset 48
	sd	ra,40(sp)
	sd	s0,32(sp)
	.cfi_offset 1, -8
	.cfi_offset 8, -16
	addi	s0,sp,48
	.cfi_def_cfa 8, 0
	mv	a5,a0
	sw	a5,-36(s0)
	.loc 1 606 14
	sd	zero,-24(s0)
	.loc 1 606 3
	j	.L42
.L45:
	.loc 1 607 32
	lla	a4,gIp4AllMasks
	ld	a5,-24(s0)
	slli	a5,a5,2
	add	a5,a4,a5
	lw	a5,0(a5)
	.loc 1 607 8
	lw	a4,-36(s0)
	sext.w	a4,a4
	beq	a4,a5,.L47
	.loc 1 606 37 discriminator 2
	ld	a5,-24(s0)
	addi	a5,a5,1
	sd	a5,-24(s0)
.L42:
	.loc 1 606 25 discriminator 1
	ld	a4,-24(s0)
	li	a5,32
	ble	a4,a5,.L45
	j	.L44
.L47:
	.loc 1 608 7
	nop
.L44:
	.loc 1 612 10
	ld	a5,-24(s0)
	.loc 1 613 1
	mv	a0,a5
	ld	ra,40(sp)
	.cfi_restore 1
	ld	s0,32(sp)
	.cfi_restore 8
	.cfi_def_cfa 2, 48
	addi	sp,sp,48
	.cfi_def_cfa_offset 0
	jr	ra
	.cfi_endproc
.LFE5:
	.size	NetGetMaskLength, .-NetGetMaskLength
	.section	.text.NetGetIpClass,"ax",@progbits
	.align	1
	.globl	NetGetIpClass
	.type	NetGetIpClass, @function
NetGetIpClass:
.LFB6:
	.loc 1 646 1
	.cfi_startproc
	addi	sp,sp,-48
	.cfi_def_cfa_offset 48
	sd	ra,40(sp)
	sd	s0,32(sp)
	.cfi_offset 1, -8
	.cfi_offset 8, -16
	addi	s0,sp,48
	.cfi_def_cfa 8, 0
	mv	a5,a0
	sw	a5,-36(s0)
	.loc 1 649 26
	lw	a5,-36(s0)
	srliw	a5,a5,24
	sext.w	a5,a5
	.loc 1 649 11
	sb	a5,-17(s0)
	.loc 1 651 24
	lb	a5,-17(s0)
	.loc 1 651 6
	blt	a5,zero,.L49
	.loc 1 652 12
	li	a5,1
	j	.L50
.L49:
	.loc 1 653 23
	lbu	a5,-17(s0)
	sext.w	a5,a5
	andi	a5,a5,192
	sext.w	a4,a5
	.loc 1 653 13
	li	a5,128
	bne	a4,a5,.L51
	.loc 1 654 12
	li	a5,2
	j	.L50
.L51:
	.loc 1 655 23
	lbu	a5,-17(s0)
	sext.w	a5,a5
	andi	a5,a5,224
	sext.w	a4,a5
	.loc 1 655 13
	li	a5,192
	bne	a4,a5,.L52
	.loc 1 656 12
	li	a5,3
	j	.L50
.L52:
	.loc 1 657 23
	lbu	a5,-17(s0)
	sext.w	a5,a5
	andi	a5,a5,240
	sext.w	a4,a5
	.loc 1 657 13
	li	a5,224
	bne	a4,a5,.L53
	.loc 1 658 12
	li	a5,4
	j	.L50
.L53:
	.loc 1 660 12
	li	a5,5
.L50:
	.loc 1 662 1
	mv	a0,a5
	ld	ra,40(sp)
	.cfi_restore 1
	ld	s0,32(sp)
	.cfi_restore 8
	.cfi_def_cfa 2, 48
	addi	sp,sp,48
	.cfi_def_cfa_offset 0
	jr	ra
	.cfi_endproc
.LFE6:
	.size	NetGetIpClass, .-NetGetIpClass
	.section	.text.NetIp4IsUnicast,"ax",@progbits
	.align	1
	.globl	NetIp4IsUnicast
	.type	NetIp4IsUnicast, @function
NetIp4IsUnicast:
.LFB7:
	.loc 1 687 1
	.cfi_startproc
	addi	sp,sp,-48
	.cfi_def_cfa_offset 48
	sd	ra,40(sp)
	sd	s0,32(sp)
	.cfi_offset 1, -8
	.cfi_offset 8, -16
	addi	s0,sp,48
	.cfi_def_cfa 8, 0
	mv	a5,a0
	mv	a4,a1
	sw	a5,-36(s0)
	mv	a5,a4
	sw	a5,-40(s0)
	.loc 1 692 6
	lw	a5,-36(s0)
	sext.w	a5,a5
	beq	a5,zero,.L55
	.loc 1 692 17 discriminator 1
	lw	a5,-36(s0)
	sext.w	a4,a5
	li	a5,-1
	bne	a4,a5,.L56
.L55:
	.loc 1 693 12
	li	a5,0
	j	.L57
.L56:
	.loc 1 696 16
	lw	a5,-40(s0)
	mv	a0,a5
	call	NetGetMaskLength
	sd	a0,-24(s0)
	.loc 1 698 6
	ld	a4,-24(s0)
	li	a5,30
	bgt	a4,a5,.L58
	.loc 1 699 15
	lw	a5,-40(s0)
	not	a5,a5
	sext.w	a5,a5
	.loc 1 699 14
	lw	a4,-36(s0)
	and	a5,a4,a5
	sext.w	a4,a5
	.loc 1 699 28
	lw	a5,-40(s0)
	not	a5,a5
	sext.w	a5,a5
	.loc 1 699 8
	beq	a4,a5,.L59
	.loc 1 699 47 discriminator 1
	lw	a5,-40(s0)
	not	a5,a5
	sext.w	a5,a5
	.loc 1 699 46 discriminator 1
	lw	a4,-36(s0)
	and	a5,a4,a5
	sext.w	a5,a5
	.loc 1 699 38 discriminator 1
	bne	a5,zero,.L58
.L59:
	.loc 1 700 14
	li	a5,0
	j	.L57
.L58:
	.loc 1 704 10
	li	a5,1
.L57:
	.loc 1 705 1
	mv	a0,a5
	ld	ra,40(sp)
	.cfi_restore 1
	ld	s0,32(sp)
	.cfi_restore 8
	.cfi_def_cfa 2, 48
	addi	sp,sp,48
	.cfi_def_cfa_offset 0
	jr	ra
	.cfi_endproc
.LFE7:
	.size	NetIp4IsUnicast, .-NetIp4IsUnicast
	.section	.text.NetIp6IsValidUnicast,"ax",@progbits
	.align	1
	.globl	NetIp6IsValidUnicast
	.type	NetIp6IsValidUnicast, @function
NetIp6IsValidUnicast:
.LFB8:
	.loc 1 728 1
	.cfi_startproc
	addi	sp,sp,-48
	.cfi_def_cfa_offset 48
	sd	ra,40(sp)
	sd	s0,32(sp)
	.cfi_offset 1, -8
	.cfi_offset 8, -16
	addi	s0,sp,48
	.cfi_def_cfa 8, 0
	sd	a0,-40(s0)
	.loc 1 734 16
	ld	a5,-40(s0)
	lbu	a5,0(a5)
	.loc 1 734 6
	mv	a4,a5
	li	a5,255
	bne	a4,a5,.L61
	.loc 1 735 12
	li	a5,0
	j	.L62
.L61:
	.loc 1 738 14
	sb	zero,-17(s0)
	.loc 1 738 3
	j	.L63
.L65:
	.loc 1 739 18
	lbu	a5,-17(s0)
	sext.w	a5,a5
	ld	a4,-40(s0)
	add	a5,a4,a5
	lbu	a5,0(a5)
	.loc 1 739 8
	beq	a5,zero,.L64
	.loc 1 740 14
	li	a5,1
	j	.L62
.L64:
	.loc 1 738 36 discriminator 2
	lbu	a5,-17(s0)
	addiw	a5,a5,1
	sb	a5,-17(s0)
.L63:
	.loc 1 738 25 discriminator 1
	lbu	a5,-17(s0)
	andi	a4,a5,0xff
	li	a5,14
	bleu	a4,a5,.L65
	.loc 1 744 19
	lbu	a5,-17(s0)
	sext.w	a5,a5
	.loc 1 744 8
	ld	a4,-40(s0)
	add	a5,a4,a5
	lbu	a5,0(a5)
	sb	a5,-18(s0)
	.loc 1 746 6
	lbu	a5,-18(s0)
	andi	a5,a5,0xff
	beq	a5,zero,.L66
	.loc 1 746 21 discriminator 1
	lbu	a5,-18(s0)
	andi	a4,a5,0xff
	li	a5,1
	bne	a4,a5,.L67
.L66:
	.loc 1 747 12
	li	a5,0
	j	.L62
.L67:
	.loc 1 750 10
	li	a5,1
.L62:
	.loc 1 751 1
	mv	a0,a5
	ld	ra,40(sp)
	.cfi_restore 1
	ld	s0,32(sp)
	.cfi_restore 8
	.cfi_def_cfa 2, 48
	addi	sp,sp,48
	.cfi_def_cfa_offset 0
	jr	ra
	.cfi_endproc
.LFE8:
	.size	NetIp6IsValidUnicast, .-NetIp6IsValidUnicast
	.section	.text.NetIp6IsUnspecifiedAddr,"ax",@progbits
	.align	1
	.globl	NetIp6IsUnspecifiedAddr
	.type	NetIp6IsUnspecifiedAddr, @function
NetIp6IsUnspecifiedAddr:
.LFB9:
	.loc 1 769 1
	.cfi_startproc
	addi	sp,sp,-48
	.cfi_def_cfa_offset 48
	sd	ra,40(sp)
	sd	s0,32(sp)
	.cfi_offset 1, -8
	.cfi_offset 8, -16
	addi	s0,sp,48
	.cfi_def_cfa 8, 0
	sd	a0,-40(s0)
	.loc 1 774 14
	sb	zero,-17(s0)
	.loc 1 774 3
	j	.L69
.L72:
	.loc 1 775 18
	lbu	a5,-17(s0)
	sext.w	a5,a5
	ld	a4,-40(s0)
	add	a5,a4,a5
	lbu	a5,0(a5)
	.loc 1 775 8
	beq	a5,zero,.L70
	.loc 1 776 14
	li	a5,0
	j	.L71
.L70:
	.loc 1 774 36 discriminator 2
	lbu	a5,-17(s0)
	addiw	a5,a5,1
	sb	a5,-17(s0)
.L69:
	.loc 1 774 25 discriminator 1
	lbu	a5,-17(s0)
	andi	a4,a5,0xff
	li	a5,15
	bleu	a4,a5,.L72
	.loc 1 780 10
	li	a5,1
.L71:
	.loc 1 781 1
	mv	a0,a5
	ld	ra,40(sp)
	.cfi_restore 1
	ld	s0,32(sp)
	.cfi_restore 8
	.cfi_def_cfa 2, 48
	addi	sp,sp,48
	.cfi_def_cfa_offset 0
	jr	ra
	.cfi_endproc
.LFE9:
	.size	NetIp6IsUnspecifiedAddr, .-NetIp6IsUnspecifiedAddr
	.section	.text.NetIp6IsLinkLocalAddr,"ax",@progbits
	.align	1
	.globl	NetIp6IsLinkLocalAddr
	.type	NetIp6IsLinkLocalAddr, @function
NetIp6IsLinkLocalAddr:
.LFB10:
	.loc 1 799 1
	.cfi_startproc
	addi	sp,sp,-48
	.cfi_def_cfa_offset 48
	sd	ra,40(sp)
	sd	s0,32(sp)
	.cfi_offset 1, -8
	.cfi_offset 8, -16
	addi	s0,sp,48
	.cfi_def_cfa 8, 0
	sd	a0,-40(s0)
	.loc 1 804 16
	ld	a5,-40(s0)
	lbu	a5,0(a5)
	.loc 1 804 6
	mv	a4,a5
	li	a5,254
	beq	a4,a5,.L74
	.loc 1 805 12
	li	a5,0
	j	.L75
.L74:
	.loc 1 808 16
	ld	a5,-40(s0)
	lbu	a5,1(a5)
	.loc 1 808 6
	mv	a4,a5
	li	a5,128
	beq	a4,a5,.L76
	.loc 1 809 12
	li	a5,0
	j	.L75
.L76:
	.loc 1 812 14
	li	a5,2
	sb	a5,-17(s0)
	.loc 1 812 3
	j	.L77
.L79:
	.loc 1 813 18
	lbu	a5,-17(s0)
	sext.w	a5,a5
	ld	a4,-40(s0)
	add	a5,a4,a5
	lbu	a5,0(a5)
	.loc 1 813 8
	beq	a5,zero,.L78
	.loc 1 814 14
	li	a5,0
	j	.L75
.L78:
	.loc 1 812 35 discriminator 2
	lbu	a5,-17(s0)
	addiw	a5,a5,1
	sb	a5,-17(s0)
.L77:
	.loc 1 812 25 discriminator 1
	lbu	a5,-17(s0)
	andi	a4,a5,0xff
	li	a5,7
	bleu	a4,a5,.L79
	.loc 1 818 10
	li	a5,1
.L75:
	.loc 1 819 1
	mv	a0,a5
	ld	ra,40(sp)
	.cfi_restore 1
	ld	s0,32(sp)
	.cfi_restore 8
	.cfi_def_cfa 2, 48
	addi	sp,sp,48
	.cfi_def_cfa_offset 0
	jr	ra
	.cfi_endproc
.LFE10:
	.size	NetIp6IsLinkLocalAddr, .-NetIp6IsLinkLocalAddr
	.section	.text.NetIp6IsNetEqual,"ax",@progbits
	.align	1
	.globl	NetIp6IsNetEqual
	.type	NetIp6IsNetEqual, @function
NetIp6IsNetEqual:
.LFB11:
	.loc 1 842 1
	.cfi_startproc
	addi	sp,sp,-64
	.cfi_def_cfa_offset 64
	sd	ra,56(sp)
	sd	s0,48(sp)
	.cfi_offset 1, -8
	.cfi_offset 8, -16
	addi	s0,sp,64
	.cfi_def_cfa 8, 0
	sd	a0,-40(s0)
	sd	a1,-48(s0)
	mv	a5,a2
	sb	a5,-49(s0)
	.loc 1 849 6
	lbu	a5,-49(s0)
	andi	a5,a5,0xff
	bne	a5,zero,.L81
	.loc 1 850 12
	li	a5,1
	j	.L82
.L81:
	.loc 1 853 8
	lbu	a5,-49(s0)
	srliw	a5,a5,3
	sb	a5,-17(s0)
	.loc 1 854 7
	lbu	a5,-49(s0)
	andi	a5,a5,7
	sb	a5,-18(s0)
	.loc 1 856 7
	lbu	a5,-17(s0)
	mv	a2,a5
	ld	a1,-48(s0)
	ld	a0,-40(s0)
	call	CompareMem@plt
	mv	a5,a0
	.loc 1 856 6 discriminator 1
	beq	a5,zero,.L83
	.loc 1 857 12
	li	a5,0
	j	.L82
.L83:
	.loc 1 860 6
	lbu	a5,-18(s0)
	andi	a5,a5,0xff
	beq	a5,zero,.L84
	.loc 1 861 31
	lbu	a5,-18(s0)
	sext.w	a5,a5
	li	a4,8
	subw	a5,a4,a5
	sext.w	a5,a5
	.loc 1 861 25
	li	a4,255
	sllw	a5,a4,a5
	sext.w	a5,a5
	.loc 1 861 10
	sb	a5,-19(s0)
	.loc 1 864 8
	lbu	a5,-17(s0)
	andi	a4,a5,0xff
	li	a5,15
	bleu	a4,a5,.L85
	.loc 1 865 14
	li	a5,0
	j	.L82
.L85:
	.loc 1 868 19
	lbu	a5,-17(s0)
	sext.w	a5,a5
	ld	a4,-40(s0)
	add	a5,a4,a5
	lbu	a4,0(a5)
	.loc 1 868 47
	lbu	a5,-17(s0)
	sext.w	a5,a5
	ld	a3,-48(s0)
	add	a5,a3,a5
	lbu	a5,0(a5)
	.loc 1 868 34
	xor	a5,a4,a5
	andi	a5,a5,0xff
	lbu	a4,-19(s0)
	and	a5,a5,a4
	andi	a5,a5,0xff
	.loc 1 868 8
	beq	a5,zero,.L84
	.loc 1 869 14
	li	a5,0
	j	.L82
.L84:
	.loc 1 873 10
	li	a5,1
.L82:
	.loc 1 874 1
	mv	a0,a5
	ld	ra,56(sp)
	.cfi_restore 1
	ld	s0,48(sp)
	.cfi_restore 8
	.cfi_def_cfa 2, 64
	addi	sp,sp,64
	.cfi_def_cfa_offset 0
	jr	ra
	.cfi_endproc
.LFE11:
	.size	NetIp6IsNetEqual, .-NetIp6IsNetEqual
	.section	.text.Ip6Swap128,"ax",@progbits
	.align	1
	.globl	Ip6Swap128
	.type	Ip6Swap128, @function
Ip6Swap128:
.LFB12:
	.loc 1 895 1
	.cfi_startproc
	addi	sp,sp,-48
	.cfi_def_cfa_offset 48
	sd	ra,40(sp)
	sd	s0,32(sp)
	.cfi_offset 1, -8
	.cfi_offset 8, -16
	addi	s0,sp,48
	.cfi_def_cfa 8, 0
	sd	a0,-40(s0)
	.loc 1 901 3
	addi	a5,s0,-24
	li	a2,8
	ld	a1,-40(s0)
	mv	a0,a5
	call	CopyMem@plt
	.loc 1 902 18
	ld	a5,-40(s0)
	addi	a4,a5,8
	.loc 1 902 3
	addi	a5,s0,-32
	li	a2,8
	mv	a1,a4
	mv	a0,a5
	call	CopyMem@plt
	.loc 1 904 10
	ld	a5,-24(s0)
	mv	a0,a5
	call	SwapBytes64@plt
	mv	a5,a0
	.loc 1 904 8 discriminator 1
	sd	a5,-24(s0)
	.loc 1 905 9
	ld	a5,-32(s0)
	mv	a0,a5
	call	SwapBytes64@plt
	mv	a5,a0
	.loc 1 905 7 discriminator 1
	sd	a5,-32(s0)
	.loc 1 907 3
	addi	a5,s0,-32
	li	a2,8
	mv	a1,a5
	ld	a0,-40(s0)
	call	CopyMem@plt
	.loc 1 908 12
	ld	a5,-40(s0)
	addi	a5,a5,8
	.loc 1 908 3
	addi	a4,s0,-24
	li	a2,8
	mv	a1,a4
	mv	a0,a5
	call	CopyMem@plt
	.loc 1 910 10
	ld	a5,-40(s0)
	.loc 1 911 1
	mv	a0,a5
	ld	ra,40(sp)
	.cfi_restore 1
	ld	s0,32(sp)
	.cfi_restore 8
	.cfi_def_cfa 2, 48
	addi	sp,sp,48
	.cfi_def_cfa_offset 0
	jr	ra
	.cfi_endproc
.LFE12:
	.size	Ip6Swap128, .-Ip6Swap128
	.section	.text.PseudoRandom,"ax",@progbits
	.align	1
	.globl	PseudoRandom
	.type	PseudoRandom, @function
PseudoRandom:
.LFB13:
	.loc 1 932 1
	.cfi_startproc
	addi	sp,sp,-64
	.cfi_def_cfa_offset 64
	sd	ra,56(sp)
	sd	s0,48(sp)
	.cfi_offset 1, -8
	.cfi_offset 8, -16
	addi	s0,sp,64
	.cfi_def_cfa 8, 0
	sd	a0,-56(s0)
	sd	a1,-64(s0)
	.loc 1 937 6
	ld	a5,-56(s0)
	beq	a5,zero,.L89
	.loc 1 937 32 discriminator 1
	ld	a5,-64(s0)
	bne	a5,zero,.L90
.L89:
	.loc 1 938 12
	li	a5,-1
	slli	a5,a5,63
	addi	a5,a5,2
	j	.L100
.L90:
	.loc 1 941 15
	la	a5,gBS
	ld	a5,0(a5)
	ld	a5,320(a5)
	.loc 1 941 12
	addi	a4,s0,-40
	mv	a2,a4
	li	a1,0
	la	a0,gEfiRngProtocolGuid
	jalr	a5
.LVL11:
	sd	a0,-32(s0)
	.loc 1 942 34
	ld	a5,-32(s0)
	.loc 1 942 6
	bge	a5,zero,.L92
	.loc 1 945 12
	ld	a5,-32(s0)
	j	.L100
.L92:
	.loc 1 948 7
	la	a5,_gPcd_FixedAtBuild_PcdEnforceSecureRngAlgorithms
	lbu	a5,0(a5)
	.loc 1 948 6
	beq	a5,zero,.L93
	.loc 1 949 25
	sd	zero,-24(s0)
	.loc 1 949 5
	j	.L94
.L98:
	.loc 1 950 27
	ld	a5,-40(s0)
	ld	a5,8(a5)
	.loc 1 950 16
	ld	a0,-40(s0)
	.loc 1 950 71
	lla	a3,mSecureHashAlgorithms
	ld	a4,-24(s0)
	slli	a4,a4,3
	add	a4,a3,a4
	ld	a4,0(a4)
	.loc 1 950 16
	ld	a3,-56(s0)
	ld	a2,-64(s0)
	mv	a1,a4
	jalr	a5
.LVL12:
	sd	a0,-32(s0)
	.loc 1 951 11
	ld	a5,-32(s0)
	.loc 1 951 10
	blt	a5,zero,.L95
	.loc 1 955 16
	li	a5,0
	j	.L100
.L95:
	.loc 1 956 17
	ld	a4,-32(s0)
	li	a5,-1
	slli	a5,a5,63
	addi	a5,a5,3
	beq	a4,a5,.L102
	.loc 1 972 16
	ld	a5,-32(s0)
	j	.L100
.L102:
	.loc 1 965 9
	nop
	.loc 1 949 117 discriminator 2
	ld	a5,-24(s0)
	addi	a5,a5,1
	sd	a5,-24(s0)
.L94:
	.loc 1 949 45 discriminator 1
	ld	a4,-24(s0)
	li	a5,4
	bleu	a4,a5,.L98
	.loc 1 982 12
	ld	a5,-32(s0)
	j	.L100
.L93:
	.loc 1 988 23
	ld	a5,-40(s0)
	ld	a5,8(a5)
	.loc 1 988 12
	ld	a4,-40(s0)
	ld	a3,-56(s0)
	ld	a2,-64(s0)
	li	a1,0
	mv	a0,a4
	jalr	a5
.LVL13:
	sd	a0,-32(s0)
	.loc 1 989 34
	ld	a5,-32(s0)
	.loc 1 989 6
	bge	a5,zero,.L99
	.loc 1 992 12
	ld	a5,-32(s0)
	j	.L100
.L99:
	.loc 1 995 10
	li	a5,0
.L100:
	.loc 1 996 1
	mv	a0,a5
	ld	ra,56(sp)
	.cfi_restore 1
	ld	s0,48(sp)
	.cfi_restore 8
	.cfi_def_cfa 2, 64
	addi	sp,sp,64
	.cfi_def_cfa_offset 0
	jr	ra
	.cfi_endproc
.LFE13:
	.size	PseudoRandom, .-PseudoRandom
	.section	.text.PseudoRandomU32,"ax",@progbits
	.align	1
	.globl	PseudoRandomU32
	.type	PseudoRandomU32, @function
PseudoRandomU32:
.LFB14:
	.loc 1 1014 1
	.cfi_startproc
	addi	sp,sp,-32
	.cfi_def_cfa_offset 32
	sd	ra,24(sp)
	sd	s0,16(sp)
	.cfi_offset 1, -8
	.cfi_offset 8, -16
	addi	s0,sp,32
	.cfi_def_cfa 8, 0
	sd	a0,-24(s0)
	.loc 1 1015 10
	li	a1,4
	ld	a0,-24(s0)
	call	PseudoRandom
	mv	a5,a0
	.loc 1 1016 1
	mv	a0,a5
	ld	ra,24(sp)
	.cfi_restore 1
	ld	s0,16(sp)
	.cfi_restore 8
	.cfi_def_cfa 2, 32
	addi	sp,sp,32
	.cfi_def_cfa_offset 0
	jr	ra
	.cfi_endproc
.LFE14:
	.size	PseudoRandomU32, .-PseudoRandomU32
	.section	.text.NetGetUint32,"ax",@progbits
	.align	1
	.globl	NetGetUint32
	.type	NetGetUint32, @function
NetGetUint32:
.LFB15:
	.loc 1 1036 1
	.cfi_startproc
	addi	sp,sp,-48
	.cfi_def_cfa_offset 48
	sd	ra,40(sp)
	sd	s0,32(sp)
	.cfi_offset 1, -8
	.cfi_offset 8, -16
	addi	s0,sp,48
	.cfi_def_cfa 8, 0
	sd	a0,-40(s0)
	.loc 1 1041 3
	addi	a5,s0,-20
	li	a2,4
	ld	a1,-40(s0)
	mv	a0,a5
	call	CopyMem@plt
	.loc 1 1042 10
	lw	a5,-20(s0)
	mv	a0,a5
	call	SwapBytes32@plt
	mv	a5,a0
	.loc 1 1043 1
	mv	a0,a5
	ld	ra,40(sp)
	.cfi_restore 1
	ld	s0,32(sp)
	.cfi_restore 8
	.cfi_def_cfa 2, 48
	addi	sp,sp,48
	.cfi_def_cfa_offset 0
	jr	ra
	.cfi_endproc
.LFE15:
	.size	NetGetUint32, .-NetGetUint32
	.section	.text.NetPutUint32,"ax",@progbits
	.align	1
	.globl	NetPutUint32
	.type	NetPutUint32, @function
NetPutUint32:
.LFB16:
	.loc 1 1063 1
	.cfi_startproc
	addi	sp,sp,-32
	.cfi_def_cfa_offset 32
	sd	ra,24(sp)
	sd	s0,16(sp)
	.cfi_offset 1, -8
	.cfi_offset 8, -16
	addi	s0,sp,32
	.cfi_def_cfa 8, 0
	sd	a0,-24(s0)
	mv	a5,a1
	sw	a5,-28(s0)
	.loc 1 1066 10
	lw	a5,-28(s0)
	mv	a0,a5
	call	SwapBytes32@plt
	mv	a5,a0
	.loc 1 1066 8 discriminator 1
	sw	a5,-28(s0)
	.loc 1 1067 3
	addi	a5,s0,-28
	li	a2,4
	mv	a1,a5
	ld	a0,-24(s0)
	call	CopyMem@plt
	.loc 1 1068 1
	nop
	ld	ra,24(sp)
	.cfi_restore 1
	ld	s0,16(sp)
	.cfi_restore 8
	.cfi_def_cfa 2, 32
	addi	sp,sp,32
	.cfi_def_cfa_offset 0
	jr	ra
	.cfi_endproc
.LFE16:
	.size	NetPutUint32, .-NetPutUint32
	.section	.text.NetListRemoveHead,"ax",@progbits
	.align	1
	.globl	NetListRemoveHead
	.type	NetListRemoveHead, @function
NetListRemoveHead:
.LFB17:
	.loc 1 1093 1
	.cfi_startproc
	addi	sp,sp,-48
	.cfi_def_cfa_offset 48
	sd	ra,40(sp)
	sd	s0,32(sp)
	.cfi_offset 1, -8
	.cfi_offset 8, -16
	addi	s0,sp,48
	.cfi_def_cfa 8, 0
	sd	a0,-40(s0)
	.loc 1 1098 7
	ld	a0,-40(s0)
	call	IsListEmpty@plt
	mv	a5,a0
	.loc 1 1098 6 discriminator 1
	beq	a5,zero,.L109
	.loc 1 1099 12
	li	a5,0
	j	.L110
.L109:
	.loc 1 1102 9
	ld	a5,-40(s0)
	ld	a5,0(a5)
	sd	a5,-24(s0)
	.loc 1 1103 28
	ld	a5,-24(s0)
	ld	a4,0(a5)
	.loc 1 1103 21
	ld	a5,-40(s0)
	sd	a4,0(a5)
	.loc 1 1104 8
	ld	a5,-24(s0)
	ld	a5,0(a5)
	.loc 1 1104 32
	ld	a4,-40(s0)
	sd	a4,8(a5)
	.loc 1 1106 12
	call	DebugCodeEnabled@plt
	mv	a5,a0
	.loc 1 1106 11 discriminator 1
	beq	a5,zero,.L111
	.loc 1 1106 88 discriminator 2
	ld	a5,-24(s0)
	sd	zero,0(a5)
	.loc 1 1106 134 discriminator 2
	ld	a5,-24(s0)
	sd	zero,8(a5)
.L111:
	.loc 1 1111 10
	ld	a5,-24(s0)
.L110:
	.loc 1 1112 1
	mv	a0,a5
	ld	ra,40(sp)
	.cfi_restore 1
	ld	s0,32(sp)
	.cfi_restore 8
	.cfi_def_cfa 2, 48
	addi	sp,sp,48
	.cfi_def_cfa_offset 0
	jr	ra
	.cfi_endproc
.LFE17:
	.size	NetListRemoveHead, .-NetListRemoveHead
	.section	.text.NetListRemoveTail,"ax",@progbits
	.align	1
	.globl	NetListRemoveTail
	.type	NetListRemoveTail, @function
NetListRemoveTail:
.LFB18:
	.loc 1 1137 1
	.cfi_startproc
	addi	sp,sp,-48
	.cfi_def_cfa_offset 48
	sd	ra,40(sp)
	sd	s0,32(sp)
	.cfi_offset 1, -8
	.cfi_offset 8, -16
	addi	s0,sp,48
	.cfi_def_cfa 8, 0
	sd	a0,-40(s0)
	.loc 1 1142 7
	ld	a0,-40(s0)
	call	IsListEmpty@plt
	mv	a5,a0
	.loc 1 1142 6 discriminator 1
	beq	a5,zero,.L113
	.loc 1 1143 12
	li	a5,0
	j	.L114
.L113:
	.loc 1 1146 8
	ld	a5,-40(s0)
	ld	a5,8(a5)
	sd	a5,-24(s0)
	.loc 1 1147 24
	ld	a5,-24(s0)
	ld	a4,8(a5)
	.loc 1 1147 18
	ld	a5,-40(s0)
	sd	a4,8(a5)
	.loc 1 1148 7
	ld	a5,-24(s0)
	ld	a5,8(a5)
	.loc 1 1148 31
	ld	a4,-40(s0)
	sd	a4,0(a5)
	.loc 1 1150 12
	call	DebugCodeEnabled@plt
	mv	a5,a0
	.loc 1 1150 11 discriminator 1
	beq	a5,zero,.L115
	.loc 1 1150 87 discriminator 2
	ld	a5,-24(s0)
	sd	zero,0(a5)
	.loc 1 1150 132 discriminator 2
	ld	a5,-24(s0)
	sd	zero,8(a5)
.L115:
	.loc 1 1155 10
	ld	a5,-24(s0)
.L114:
	.loc 1 1156 1
	mv	a0,a5
	ld	ra,40(sp)
	.cfi_restore 1
	ld	s0,32(sp)
	.cfi_restore 8
	.cfi_def_cfa 2, 48
	addi	sp,sp,48
	.cfi_def_cfa_offset 0
	jr	ra
	.cfi_endproc
.LFE18:
	.size	NetListRemoveTail, .-NetListRemoveTail
	.section	.text.NetListInsertAfter,"ax",@progbits
	.align	1
	.globl	NetListInsertAfter
	.type	NetListInsertAfter, @function
NetListInsertAfter:
.LFB19:
	.loc 1 1176 1
	.cfi_startproc
	addi	sp,sp,-32
	.cfi_def_cfa_offset 32
	sd	ra,24(sp)
	sd	s0,16(sp)
	.cfi_offset 1, -8
	.cfi_offset 8, -16
	addi	s0,sp,32
	.cfi_def_cfa 8, 0
	sd	a0,-24(s0)
	sd	a1,-32(s0)
	.loc 1 1179 22
	ld	a5,-32(s0)
	ld	a4,-24(s0)
	sd	a4,8(a5)
	.loc 1 1180 36
	ld	a5,-24(s0)
	ld	a4,0(a5)
	.loc 1 1180 25
	ld	a5,-32(s0)
	sd	a4,0(a5)
	.loc 1 1181 12
	ld	a5,-24(s0)
	ld	a5,0(a5)
	.loc 1 1181 36
	ld	a4,-32(s0)
	sd	a4,8(a5)
	.loc 1 1182 26
	ld	a5,-24(s0)
	ld	a4,-32(s0)
	sd	a4,0(a5)
	.loc 1 1183 1
	nop
	ld	ra,24(sp)
	.cfi_restore 1
	ld	s0,16(sp)
	.cfi_restore 8
	.cfi_def_cfa 2, 32
	addi	sp,sp,32
	.cfi_def_cfa_offset 0
	jr	ra
	.cfi_endproc
.LFE19:
	.size	NetListInsertAfter, .-NetListInsertAfter
	.section	.text.NetListInsertBefore,"ax",@progbits
	.align	1
	.globl	NetListInsertBefore
	.type	NetListInsertBefore, @function
NetListInsertBefore:
.LFB20:
	.loc 1 1203 1
	.cfi_startproc
	addi	sp,sp,-32
	.cfi_def_cfa_offset 32
	sd	ra,24(sp)
	sd	s0,16(sp)
	.cfi_offset 1, -8
	.cfi_offset 8, -16
	addi	s0,sp,32
	.cfi_def_cfa 8, 0
	sd	a0,-24(s0)
	sd	a1,-32(s0)
	.loc 1 1206 25
	ld	a5,-32(s0)
	ld	a4,-24(s0)
	sd	a4,0(a5)
	.loc 1 1207 33
	ld	a5,-24(s0)
	ld	a4,8(a5)
	.loc 1 1207 22
	ld	a5,-32(s0)
	sd	a4,8(a5)
	.loc 1 1208 12
	ld	a5,-24(s0)
	ld	a5,8(a5)
	.loc 1 1208 36
	ld	a4,-32(s0)
	sd	a4,0(a5)
	.loc 1 1209 23
	ld	a5,-24(s0)
	ld	a4,-32(s0)
	sd	a4,8(a5)
	.loc 1 1210 1
	nop
	ld	ra,24(sp)
	.cfi_restore 1
	ld	s0,16(sp)
	.cfi_restore 8
	.cfi_def_cfa 2, 32
	addi	sp,sp,32
	.cfi_def_cfa_offset 0
	jr	ra
	.cfi_endproc
.LFE20:
	.size	NetListInsertBefore, .-NetListInsertBefore
	.section	.text.NetDestroyLinkList,"ax",@progbits
	.align	1
	.globl	NetDestroyLinkList
	.type	NetDestroyLinkList, @function
NetDestroyLinkList:
.LFB21:
	.loc 1 1242 1
	.cfi_startproc
	addi	sp,sp,-96
	.cfi_def_cfa_offset 96
	sd	ra,88(sp)
	sd	s0,80(sp)
	.cfi_offset 1, -8
	.cfi_offset 8, -16
	addi	s0,sp,96
	.cfi_def_cfa 8, 0
	sd	a0,-72(s0)
	sd	a1,-80(s0)
	sd	a2,-88(s0)
	sd	a3,-96(s0)
	.loc 1 1249 6
	ld	a5,-72(s0)
	beq	a5,zero,.L119
	.loc 1 1249 30 discriminator 1
	ld	a5,-80(s0)
	bne	a5,zero,.L120
.L119:
	.loc 1 1250 12
	li	a5,-1
	slli	a5,a5,63
	addi	a5,a5,2
	j	.L121
.L120:
	.loc 1 1253 10
	sd	zero,-40(s0)
.L133:
	.loc 1 1255 20
	ld	a5,-40(s0)
	sd	a5,-48(s0)
	.loc 1 1256 13
	ld	a0,-72(s0)
	call	GetFirstNode@plt
	sd	a0,-24(s0)
	.loc 1 1257 11
	j	.L122
.L130:
	.loc 1 1258 16
	ld	a5,-80(s0)
	ld	a1,-88(s0)
	ld	a0,-24(s0)
	jalr	a5
.LVL14:
	sd	a0,-56(s0)
	.loc 1 1259 38
	ld	a5,-56(s0)
	.loc 1 1259 10
	bge	a5,zero,.L123
	.loc 1 1260 16
	ld	a5,-56(s0)
	j	.L121
.L123:
	.loc 1 1268 16
	ld	a5,-72(s0)
	ld	a5,0(a5)
	sd	a5,-32(s0)
	.loc 1 1268 7
	j	.L124
.L127:
	.loc 1 1269 12
	ld	a4,-32(s0)
	ld	a5,-24(s0)
	beq	a4,a5,.L135
	.loc 1 1268 54 discriminator 2
	ld	a5,-32(s0)
	ld	a5,0(a5)
	sd	a5,-32(s0)
.L124:
	.loc 1 1268 41 discriminator 1
	ld	a4,-32(s0)
	ld	a5,-72(s0)
	bne	a4,a5,.L127
	j	.L126
.L135:
	.loc 1 1270 11
	nop
.L126:
	.loc 1 1274 10
	ld	a4,-32(s0)
	ld	a5,-24(s0)
	bne	a4,a5,.L128
	.loc 1 1275 17
	ld	a1,-24(s0)
	ld	a0,-72(s0)
	call	GetNextNode@plt
	sd	a0,-24(s0)
	j	.L122
.L128:
	.loc 1 1277 17
	ld	a0,-72(s0)
	call	GetFirstNode@plt
	sd	a0,-24(s0)
.L122:
	.loc 1 1257 13
	ld	a1,-24(s0)
	ld	a0,-72(s0)
	call	IsNull@plt
	mv	a5,a0
	.loc 1 1257 12 discriminator 1
	beq	a5,zero,.L130
	.loc 1 1281 17
	sd	zero,-40(s0)
	.loc 1 1281 26
	ld	a5,-72(s0)
	ld	a5,0(a5)
	sd	a5,-32(s0)
	.loc 1 1281 5
	j	.L131
.L132:
	.loc 1 1281 66 discriminator 3
	ld	a5,-40(s0)
	addi	a5,a5,1
	sd	a5,-40(s0)
	.loc 1 1281 74 discriminator 3
	ld	a5,-32(s0)
	ld	a5,0(a5)
	sd	a5,-32(s0)
.L131:
	.loc 1 1281 51 discriminator 1
	ld	a4,-32(s0)
	ld	a5,-72(s0)
	bne	a4,a5,.L132
	.loc 1 1283 19
	ld	a4,-40(s0)
	ld	a5,-48(s0)
	bne	a4,a5,.L133
	.loc 1 1285 6
	ld	a5,-96(s0)
	beq	a5,zero,.L134
	.loc 1 1286 17
	ld	a5,-96(s0)
	ld	a4,-40(s0)
	sd	a4,0(a5)
.L134:
	.loc 1 1289 10
	li	a5,0
.L121:
	.loc 1 1290 1
	mv	a0,a5
	ld	ra,88(sp)
	.cfi_restore 1
	ld	s0,80(sp)
	.cfi_restore 8
	.cfi_def_cfa 2, 96
	addi	sp,sp,96
	.cfi_def_cfa_offset 0
	jr	ra
	.cfi_endproc
.LFE21:
	.size	NetDestroyLinkList, .-NetDestroyLinkList
	.section	.text.NetIsInHandleBuffer,"ax",@progbits
	.align	1
	.globl	NetIsInHandleBuffer
	.type	NetIsInHandleBuffer, @function
NetIsInHandleBuffer:
.LFB22:
	.loc 1 1311 1
	.cfi_startproc
	addi	sp,sp,-64
	.cfi_def_cfa_offset 64
	sd	ra,56(sp)
	sd	s0,48(sp)
	.cfi_offset 1, -8
	.cfi_offset 8, -16
	addi	s0,sp,64
	.cfi_def_cfa 8, 0
	sd	a0,-40(s0)
	sd	a1,-48(s0)
	sd	a2,-56(s0)
	.loc 1 1314 6
	ld	a5,-48(s0)
	beq	a5,zero,.L137
	.loc 1 1314 31 discriminator 1
	ld	a5,-56(s0)
	bne	a5,zero,.L138
.L137:
	.loc 1 1315 12
	li	a5,0
	j	.L139
.L138:
	.loc 1 1318 14
	sd	zero,-24(s0)
	.loc 1 1318 3
	j	.L140
.L142:
	.loc 1 1319 36
	ld	a5,-24(s0)
	slli	a5,a5,3
	ld	a4,-56(s0)
	add	a5,a4,a5
	ld	a5,0(a5)
	.loc 1 1319 8
	ld	a4,-40(s0)
	bne	a4,a5,.L141
	.loc 1 1320 14
	li	a5,1
	j	.L139
.L141:
	.loc 1 1318 50 discriminator 2
	ld	a5,-24(s0)
	addi	a5,a5,1
	sd	a5,-24(s0)
.L140:
	.loc 1 1318 25 discriminator 1
	ld	a4,-24(s0)
	ld	a5,-48(s0)
	bltu	a4,a5,.L142
	.loc 1 1324 10
	li	a5,0
.L139:
	.loc 1 1325 1
	mv	a0,a5
	ld	ra,56(sp)
	.cfi_restore 1
	ld	s0,48(sp)
	.cfi_restore 8
	.cfi_def_cfa 2, 64
	addi	sp,sp,64
	.cfi_def_cfa_offset 0
	jr	ra
	.cfi_endproc
.LFE22:
	.size	NetIsInHandleBuffer, .-NetIsInHandleBuffer
	.section	.text.NetMapInit,"ax",@progbits
	.align	1
	.globl	NetMapInit
	.type	NetMapInit, @function
NetMapInit:
.LFB23:
	.loc 1 1346 1
	.cfi_startproc
	addi	sp,sp,-32
	.cfi_def_cfa_offset 32
	sd	ra,24(sp)
	sd	s0,16(sp)
	.cfi_offset 1, -8
	.cfi_offset 8, -16
	addi	s0,sp,32
	.cfi_def_cfa 8, 0
	sd	a0,-24(s0)
	.loc 1 1349 3
	ld	a5,-24(s0)
	mv	a0,a5
	call	InitializeListHead@plt
	.loc 1 1350 3
	ld	a5,-24(s0)
	addi	a5,a5,16
	mv	a0,a5
	call	InitializeListHead@plt
	.loc 1 1351 14
	ld	a5,-24(s0)
	sd	zero,32(a5)
	.loc 1 1352 1
	nop
	ld	ra,24(sp)
	.cfi_restore 1
	ld	s0,16(sp)
	.cfi_restore 8
	.cfi_def_cfa 2, 32
	addi	sp,sp,32
	.cfi_def_cfa_offset 0
	jr	ra
	.cfi_endproc
.LFE23:
	.size	NetMapInit, .-NetMapInit
	.section	.text.NetMapClean,"ax",@progbits
	.align	1
	.globl	NetMapClean
	.type	NetMapClean, @function
NetMapClean:
.LFB24:
	.loc 1 1371 1
	.cfi_startproc
	addi	sp,sp,-64
	.cfi_def_cfa_offset 64
	sd	ra,56(sp)
	sd	s0,48(sp)
	.cfi_offset 1, -8
	.cfi_offset 8, -16
	addi	s0,sp,64
	.cfi_def_cfa 8, 0
	sd	a0,-56(s0)
	.loc 1 1378 13
	ld	a5,-56(s0)
	ld	a5,0(a5)
	sd	a5,-32(s0)
	.loc 1 1378 47
	ld	a5,-32(s0)
	ld	a5,0(a5)
	sd	a5,-24(s0)
	.loc 1 1378 3
	j	.L145
.L146:
	.loc 1 1379 10
	ld	a5,-32(s0)
	sd	a5,-40(s0)
	.loc 1 1381 22
	ld	a5,-40(s0)
	.loc 1 1381 5
	mv	a0,a5
	call	RemoveEntryList@plt
	.loc 1 1382 8
	ld	a5,-56(s0)
	ld	a5,32(a5)
	.loc 1 1382 15
	addi	a4,a5,-1
	ld	a5,-56(s0)
	sd	a4,32(a5)
	.loc 1 1384 8
	la	a5,gBS
	ld	a5,0(a5)
	ld	a5,72(a5)
	.loc 1 1384 5
	ld	a0,-40(s0)
	jalr	a5
.LVL15:
	.loc 1 1378 98 discriminator 3
	ld	a5,-24(s0)
	sd	a5,-32(s0)
	.loc 1 1378 111 discriminator 3
	ld	a5,-32(s0)
	ld	a5,0(a5)
	sd	a5,-24(s0)
.L145:
	.loc 1 1378 79 discriminator 1
	ld	a5,-56(s0)
	.loc 1 1378 75 discriminator 1
	ld	a4,-32(s0)
	bne	a4,a5,.L146
	.loc 1 1389 13
	ld	a5,-56(s0)
	ld	a5,16(a5)
	sd	a5,-32(s0)
	.loc 1 1389 51
	ld	a5,-32(s0)
	ld	a5,0(a5)
	sd	a5,-24(s0)
	.loc 1 1389 3
	j	.L147
.L148:
	.loc 1 1390 10
	ld	a5,-32(s0)
	sd	a5,-40(s0)
	.loc 1 1392 22
	ld	a5,-40(s0)
	.loc 1 1392 5
	mv	a0,a5
	call	RemoveEntryList@plt
	.loc 1 1393 8
	la	a5,gBS
	ld	a5,0(a5)
	ld	a5,72(a5)
	.loc 1 1393 5
	ld	a0,-40(s0)
	jalr	a5
.LVL16:
	.loc 1 1389 106 discriminator 3
	ld	a5,-24(s0)
	sd	a5,-32(s0)
	.loc 1 1389 119 discriminator 3
	ld	a5,-32(s0)
	ld	a5,0(a5)
	sd	a5,-24(s0)
.L147:
	.loc 1 1389 83 discriminator 1
	ld	a5,-56(s0)
	addi	a5,a5,16
	.loc 1 1389 79 discriminator 1
	ld	a4,-32(s0)
	bne	a4,a5,.L148
	.loc 1 1397 1
	nop
	nop
	ld	ra,56(sp)
	.cfi_restore 1
	ld	s0,48(sp)
	.cfi_restore 8
	.cfi_def_cfa 2, 64
	addi	sp,sp,64
	.cfi_def_cfa_offset 0
	jr	ra
	.cfi_endproc
.LFE24:
	.size	NetMapClean, .-NetMapClean
	.section	.text.NetMapIsEmpty,"ax",@progbits
	.align	1
	.globl	NetMapIsEmpty
	.type	NetMapIsEmpty, @function
NetMapIsEmpty:
.LFB25:
	.loc 1 1416 1
	.cfi_startproc
	addi	sp,sp,-32
	.cfi_def_cfa_offset 32
	sd	ra,24(sp)
	sd	s0,16(sp)
	.cfi_offset 1, -8
	.cfi_offset 8, -16
	addi	s0,sp,32
	.cfi_def_cfa 8, 0
	sd	a0,-24(s0)
	.loc 1 1418 23
	ld	a5,-24(s0)
	ld	a5,32(a5)
	.loc 1 1418 10
	seqz	a5,a5
	andi	a5,a5,0xff
	.loc 1 1419 1
	mv	a0,a5
	ld	ra,24(sp)
	.cfi_restore 1
	ld	s0,16(sp)
	.cfi_restore 8
	.cfi_def_cfa 2, 32
	addi	sp,sp,32
	.cfi_def_cfa_offset 0
	jr	ra
	.cfi_endproc
.LFE25:
	.size	NetMapIsEmpty, .-NetMapIsEmpty
	.section	.text.NetMapGetCount,"ax",@progbits
	.align	1
	.globl	NetMapGetCount
	.type	NetMapGetCount, @function
NetMapGetCount:
.LFB26:
	.loc 1 1436 1
	.cfi_startproc
	addi	sp,sp,-32
	.cfi_def_cfa_offset 32
	sd	ra,24(sp)
	sd	s0,16(sp)
	.cfi_offset 1, -8
	.cfi_offset 8, -16
	addi	s0,sp,32
	.cfi_def_cfa 8, 0
	sd	a0,-24(s0)
	.loc 1 1438 13
	ld	a5,-24(s0)
	ld	a5,32(a5)
	.loc 1 1439 1
	mv	a0,a5
	ld	ra,24(sp)
	.cfi_restore 1
	ld	s0,16(sp)
	.cfi_restore 8
	.cfi_def_cfa 2, 32
	addi	sp,sp,32
	.cfi_def_cfa_offset 0
	jr	ra
	.cfi_endproc
.LFE26:
	.size	NetMapGetCount, .-NetMapGetCount
	.section	.text.NetMapAllocItem,"ax",@progbits
	.align	1
	.globl	NetMapAllocItem
	.type	NetMapAllocItem, @function
NetMapAllocItem:
.LFB27:
	.loc 1 1461 1
	.cfi_startproc
	addi	sp,sp,-64
	.cfi_def_cfa_offset 64
	sd	ra,56(sp)
	sd	s0,48(sp)
	.cfi_offset 1, -8
	.cfi_offset 8, -16
	addi	s0,sp,64
	.cfi_def_cfa 8, 0
	sd	a0,-56(s0)
	.loc 1 1468 8
	ld	a5,-56(s0)
	addi	a5,a5,16
	sd	a5,-32(s0)
	.loc 1 1470 7
	ld	a0,-32(s0)
	call	IsListEmpty@plt
	mv	a5,a0
	.loc 1 1470 6 discriminator 1
	beq	a5,zero,.L154
	.loc 1 1471 16
	sd	zero,-24(s0)
	.loc 1 1471 5
	j	.L155
.L159:
	.loc 1 1472 14
	li	a0,32
	call	AllocatePool@plt
	sd	a0,-40(s0)
	.loc 1 1474 10
	ld	a5,-40(s0)
	bne	a5,zero,.L156
	.loc 1 1475 12
	ld	a5,-24(s0)
	bne	a5,zero,.L160
	.loc 1 1476 18
	li	a5,0
	j	.L158
.L156:
	.loc 1 1482 7
	ld	a5,-40(s0)
	mv	a1,a5
	ld	a0,-32(s0)
	call	InsertHeadList@plt
	.loc 1 1471 38 discriminator 2
	ld	a5,-24(s0)
	addi	a5,a5,1
	sd	a5,-24(s0)
.L155:
	.loc 1 1471 27 discriminator 1
	ld	a4,-24(s0)
	li	a5,63
	bleu	a4,a5,.L159
	j	.L154
.L160:
	.loc 1 1479 9
	nop
.L154:
	.loc 1 1486 8
	ld	a5,-32(s0)
	ld	a5,0(a5)
	sd	a5,-40(s0)
	.loc 1 1487 3
	ld	a0,-32(s0)
	call	NetListRemoveHead
	.loc 1 1489 10
	ld	a5,-40(s0)
.L158:
	.loc 1 1490 1
	mv	a0,a5
	ld	ra,56(sp)
	.cfi_restore 1
	ld	s0,48(sp)
	.cfi_restore 8
	.cfi_def_cfa 2, 64
	addi	sp,sp,64
	.cfi_def_cfa_offset 0
	jr	ra
	.cfi_endproc
.LFE27:
	.size	NetMapAllocItem, .-NetMapAllocItem
	.section	.text.NetMapInsertHead,"ax",@progbits
	.align	1
	.globl	NetMapInsertHead
	.type	NetMapInsertHead, @function
NetMapInsertHead:
.LFB28:
	.loc 1 1517 1
	.cfi_startproc
	addi	sp,sp,-64
	.cfi_def_cfa_offset 64
	sd	ra,56(sp)
	sd	s0,48(sp)
	.cfi_offset 1, -8
	.cfi_offset 8, -16
	addi	s0,sp,64
	.cfi_def_cfa 8, 0
	sd	a0,-40(s0)
	sd	a1,-48(s0)
	sd	a2,-56(s0)
	.loc 1 1522 10
	ld	a0,-40(s0)
	call	NetMapAllocItem
	sd	a0,-24(s0)
	.loc 1 1524 6
	ld	a5,-24(s0)
	bne	a5,zero,.L162
	.loc 1 1525 12
	li	a5,-1
	slli	a5,a5,63
	addi	a5,a5,9
	j	.L163
.L162:
	.loc 1 1528 13
	ld	a5,-24(s0)
	ld	a4,-48(s0)
	sd	a4,16(a5)
	.loc 1 1529 15
	ld	a5,-24(s0)
	ld	a4,-56(s0)
	sd	a4,24(a5)
	.loc 1 1530 3
	ld	a5,-40(s0)
	ld	a4,-24(s0)
	mv	a1,a4
	mv	a0,a5
	call	InsertHeadList@plt
	.loc 1 1532 6
	ld	a5,-40(s0)
	ld	a5,32(a5)
	.loc 1 1532 13
	addi	a4,a5,1
	ld	a5,-40(s0)
	sd	a4,32(a5)
	.loc 1 1533 10
	li	a5,0
.L163:
	.loc 1 1534 1
	mv	a0,a5
	ld	ra,56(sp)
	.cfi_restore 1
	ld	s0,48(sp)
	.cfi_restore 8
	.cfi_def_cfa 2, 64
	addi	sp,sp,64
	.cfi_def_cfa_offset 0
	jr	ra
	.cfi_endproc
.LFE28:
	.size	NetMapInsertHead, .-NetMapInsertHead
	.section	.text.NetMapInsertTail,"ax",@progbits
	.align	1
	.globl	NetMapInsertTail
	.type	NetMapInsertTail, @function
NetMapInsertTail:
.LFB29:
	.loc 1 1561 1
	.cfi_startproc
	addi	sp,sp,-64
	.cfi_def_cfa_offset 64
	sd	ra,56(sp)
	sd	s0,48(sp)
	.cfi_offset 1, -8
	.cfi_offset 8, -16
	addi	s0,sp,64
	.cfi_def_cfa 8, 0
	sd	a0,-40(s0)
	sd	a1,-48(s0)
	sd	a2,-56(s0)
	.loc 1 1566 10
	ld	a0,-40(s0)
	call	NetMapAllocItem
	sd	a0,-24(s0)
	.loc 1 1568 6
	ld	a5,-24(s0)
	bne	a5,zero,.L165
	.loc 1 1569 12
	li	a5,-1
	slli	a5,a5,63
	addi	a5,a5,9
	j	.L166
.L165:
	.loc 1 1572 13
	ld	a5,-24(s0)
	ld	a4,-48(s0)
	sd	a4,16(a5)
	.loc 1 1573 15
	ld	a5,-24(s0)
	ld	a4,-56(s0)
	sd	a4,24(a5)
	.loc 1 1574 3
	ld	a5,-40(s0)
	ld	a4,-24(s0)
	mv	a1,a4
	mv	a0,a5
	call	InsertTailList@plt
	.loc 1 1576 6
	ld	a5,-40(s0)
	ld	a5,32(a5)
	.loc 1 1576 13
	addi	a4,a5,1
	ld	a5,-40(s0)
	sd	a4,32(a5)
	.loc 1 1578 10
	li	a5,0
.L166:
	.loc 1 1579 1
	mv	a0,a5
	ld	ra,56(sp)
	.cfi_restore 1
	ld	s0,48(sp)
	.cfi_restore 8
	.cfi_def_cfa 2, 64
	addi	sp,sp,64
	.cfi_def_cfa_offset 0
	jr	ra
	.cfi_endproc
.LFE29:
	.size	NetMapInsertTail, .-NetMapInsertTail
	.section	.text.NetItemInMap,"ax",@progbits
	.align	1
	.globl	NetItemInMap
	.type	NetItemInMap, @function
NetItemInMap:
.LFB30:
	.loc 1 1598 1
	.cfi_startproc
	addi	sp,sp,-48
	.cfi_def_cfa_offset 48
	sd	ra,40(sp)
	sd	s0,32(sp)
	.cfi_offset 1, -8
	.cfi_offset 8, -16
	addi	s0,sp,48
	.cfi_def_cfa 8, 0
	sd	a0,-40(s0)
	sd	a1,-48(s0)
	.loc 1 1603 17
	ld	a5,-40(s0)
	ld	a5,0(a5)
	sd	a5,-24(s0)
	.loc 1 1603 3
	j	.L168
.L171:
	.loc 1 1604 22
	ld	a5,-48(s0)
	.loc 1 1604 8
	ld	a4,-24(s0)
	bne	a4,a5,.L169
	.loc 1 1605 14
	li	a5,1
	j	.L170
.L169:
	.loc 1 1603 83 discriminator 2
	ld	a5,-24(s0)
	ld	a5,0(a5)
	sd	a5,-24(s0)
.L168:
	.loc 1 1603 60 discriminator 1
	ld	a5,-40(s0)
	.loc 1 1603 56 discriminator 1
	ld	a4,-24(s0)
	bne	a4,a5,.L171
	.loc 1 1609 10
	li	a5,0
.L170:
	.loc 1 1610 1
	mv	a0,a5
	ld	ra,40(sp)
	.cfi_restore 1
	ld	s0,32(sp)
	.cfi_restore 8
	.cfi_def_cfa 2, 48
	addi	sp,sp,48
	.cfi_def_cfa_offset 0
	jr	ra
	.cfi_endproc
.LFE30:
	.size	NetItemInMap, .-NetItemInMap
	.section	.text.NetMapFindKey,"ax",@progbits
	.align	1
	.globl	NetMapFindKey
	.type	NetMapFindKey, @function
NetMapFindKey:
.LFB31:
	.loc 1 1633 1
	.cfi_startproc
	addi	sp,sp,-48
	.cfi_def_cfa_offset 48
	sd	ra,40(sp)
	sd	s0,32(sp)
	.cfi_offset 1, -8
	.cfi_offset 8, -16
	addi	s0,sp,48
	.cfi_def_cfa 8, 0
	sd	a0,-40(s0)
	sd	a1,-48(s0)
	.loc 1 1639 13
	ld	a5,-40(s0)
	ld	a5,0(a5)
	sd	a5,-24(s0)
	.loc 1 1639 3
	j	.L173
.L176:
	.loc 1 1640 10
	ld	a5,-24(s0)
	sd	a5,-32(s0)
	.loc 1 1642 13
	ld	a5,-32(s0)
	ld	a5,16(a5)
	.loc 1 1642 8
	ld	a4,-48(s0)
	bne	a4,a5,.L174
	.loc 1 1643 14
	ld	a5,-32(s0)
	j	.L175
.L174:
	.loc 1 1639 71 discriminator 2
	ld	a5,-24(s0)
	ld	a5,0(a5)
	sd	a5,-24(s0)
.L173:
	.loc 1 1639 52 discriminator 1
	ld	a5,-40(s0)
	.loc 1 1639 48 discriminator 1
	ld	a4,-24(s0)
	bne	a4,a5,.L176
	.loc 1 1647 10
	li	a5,0
.L175:
	.loc 1 1648 1
	mv	a0,a5
	ld	ra,40(sp)
	.cfi_restore 1
	ld	s0,32(sp)
	.cfi_restore 8
	.cfi_def_cfa 2, 48
	addi	sp,sp,48
	.cfi_def_cfa_offset 0
	jr	ra
	.cfi_endproc
.LFE31:
	.size	NetMapFindKey, .-NetMapFindKey
	.section	.text.NetMapRemoveItem,"ax",@progbits
	.align	1
	.globl	NetMapRemoveItem
	.type	NetMapRemoveItem, @function
NetMapRemoveItem:
.LFB32:
	.loc 1 1676 1
	.cfi_startproc
	addi	sp,sp,-48
	.cfi_def_cfa_offset 48
	sd	ra,40(sp)
	sd	s0,32(sp)
	.cfi_offset 1, -8
	.cfi_offset 8, -16
	addi	s0,sp,48
	.cfi_def_cfa 8, 0
	sd	a0,-24(s0)
	sd	a1,-32(s0)
	sd	a2,-40(s0)
	.loc 1 1680 20
	ld	a5,-32(s0)
	.loc 1 1680 3
	mv	a0,a5
	call	RemoveEntryList@plt
	.loc 1 1681 6
	ld	a5,-24(s0)
	ld	a5,32(a5)
	.loc 1 1681 13
	addi	a4,a5,-1
	ld	a5,-24(s0)
	sd	a4,32(a5)
	.loc 1 1682 3
	ld	a5,-24(s0)
	addi	a5,a5,16
	ld	a4,-32(s0)
	mv	a1,a4
	mv	a0,a5
	call	InsertHeadList@plt
	.loc 1 1684 6
	ld	a5,-40(s0)
	beq	a5,zero,.L178
	.loc 1 1685 18
	ld	a5,-32(s0)
	ld	a4,24(a5)
	.loc 1 1685 12
	ld	a5,-40(s0)
	sd	a4,0(a5)
.L178:
	.loc 1 1688 14
	ld	a5,-32(s0)
	ld	a5,16(a5)
	.loc 1 1689 1
	mv	a0,a5
	ld	ra,40(sp)
	.cfi_restore 1
	ld	s0,32(sp)
	.cfi_restore 8
	.cfi_def_cfa 2, 48
	addi	sp,sp,48
	.cfi_def_cfa_offset 0
	jr	ra
	.cfi_endproc
.LFE32:
	.size	NetMapRemoveItem, .-NetMapRemoveItem
	.section	.text.NetMapRemoveHead,"ax",@progbits
	.align	1
	.globl	NetMapRemoveHead
	.type	NetMapRemoveHead, @function
NetMapRemoveHead:
.LFB33:
	.loc 1 1714 1
	.cfi_startproc
	addi	sp,sp,-48
	.cfi_def_cfa_offset 48
	sd	ra,40(sp)
	sd	s0,32(sp)
	.cfi_offset 1, -8
	.cfi_offset 8, -16
	addi	s0,sp,48
	.cfi_def_cfa 8, 0
	sd	a0,-40(s0)
	sd	a1,-48(s0)
	.loc 1 1723 8
	ld	a5,-40(s0)
	ld	a5,0(a5)
	sd	a5,-24(s0)
	.loc 1 1724 20
	ld	a5,-24(s0)
	.loc 1 1724 3
	mv	a0,a5
	call	RemoveEntryList@plt
	.loc 1 1725 6
	ld	a5,-40(s0)
	ld	a5,32(a5)
	.loc 1 1725 13
	addi	a4,a5,-1
	ld	a5,-40(s0)
	sd	a4,32(a5)
	.loc 1 1726 3
	ld	a5,-40(s0)
	addi	a5,a5,16
	ld	a4,-24(s0)
	mv	a1,a4
	mv	a0,a5
	call	InsertHeadList@plt
	.loc 1 1728 6
	ld	a5,-48(s0)
	beq	a5,zero,.L181
	.loc 1 1729 18
	ld	a5,-24(s0)
	ld	a4,24(a5)
	.loc 1 1729 12
	ld	a5,-48(s0)
	sd	a4,0(a5)
.L181:
	.loc 1 1732 14
	ld	a5,-24(s0)
	ld	a5,16(a5)
	.loc 1 1733 1
	mv	a0,a5
	ld	ra,40(sp)
	.cfi_restore 1
	ld	s0,32(sp)
	.cfi_restore 8
	.cfi_def_cfa 2, 48
	addi	sp,sp,48
	.cfi_def_cfa_offset 0
	jr	ra
	.cfi_endproc
.LFE33:
	.size	NetMapRemoveHead, .-NetMapRemoveHead
	.section	.text.NetMapRemoveTail,"ax",@progbits
	.align	1
	.globl	NetMapRemoveTail
	.type	NetMapRemoveTail, @function
NetMapRemoveTail:
.LFB34:
	.loc 1 1758 1
	.cfi_startproc
	addi	sp,sp,-48
	.cfi_def_cfa_offset 48
	sd	ra,40(sp)
	sd	s0,32(sp)
	.cfi_offset 1, -8
	.cfi_offset 8, -16
	addi	s0,sp,48
	.cfi_def_cfa 8, 0
	sd	a0,-40(s0)
	sd	a1,-48(s0)
	.loc 1 1767 8
	ld	a5,-40(s0)
	ld	a5,8(a5)
	sd	a5,-24(s0)
	.loc 1 1768 20
	ld	a5,-24(s0)
	.loc 1 1768 3
	mv	a0,a5
	call	RemoveEntryList@plt
	.loc 1 1769 6
	ld	a5,-40(s0)
	ld	a5,32(a5)
	.loc 1 1769 13
	addi	a4,a5,-1
	ld	a5,-40(s0)
	sd	a4,32(a5)
	.loc 1 1770 3
	ld	a5,-40(s0)
	addi	a5,a5,16
	ld	a4,-24(s0)
	mv	a1,a4
	mv	a0,a5
	call	InsertHeadList@plt
	.loc 1 1772 6
	ld	a5,-48(s0)
	beq	a5,zero,.L184
	.loc 1 1773 18
	ld	a5,-24(s0)
	ld	a4,24(a5)
	.loc 1 1773 12
	ld	a5,-48(s0)
	sd	a4,0(a5)
.L184:
	.loc 1 1776 14
	ld	a5,-24(s0)
	ld	a5,16(a5)
	.loc 1 1777 1
	mv	a0,a5
	ld	ra,40(sp)
	.cfi_restore 1
	ld	s0,32(sp)
	.cfi_restore 8
	.cfi_def_cfa 2, 48
	addi	sp,sp,48
	.cfi_def_cfa_offset 0
	jr	ra
	.cfi_endproc
.LFE34:
	.size	NetMapRemoveTail, .-NetMapRemoveTail
	.section	.text.NetMapIterate,"ax",@progbits
	.align	1
	.globl	NetMapIterate
	.type	NetMapIterate, @function
NetMapIterate:
.LFB35:
	.loc 1 1805 1
	.cfi_startproc
	addi	sp,sp,-96
	.cfi_def_cfa_offset 96
	sd	ra,88(sp)
	sd	s0,80(sp)
	.cfi_offset 1, -8
	.cfi_offset 8, -16
	addi	s0,sp,96
	.cfi_def_cfa 8, 0
	sd	a0,-72(s0)
	sd	a1,-80(s0)
	sd	a2,-88(s0)
	.loc 1 1814 8
	ld	a5,-72(s0)
	sd	a5,-40(s0)
	.loc 1 1816 7
	ld	a0,-40(s0)
	call	IsListEmpty@plt
	mv	a5,a0
	.loc 1 1816 6 discriminator 1
	beq	a5,zero,.L187
	.loc 1 1817 12
	li	a5,0
	j	.L188
.L187:
	.loc 1 1820 13
	ld	a5,-40(s0)
	ld	a5,0(a5)
	sd	a5,-24(s0)
	.loc 1 1820 41
	ld	a5,-24(s0)
	ld	a5,0(a5)
	sd	a5,-32(s0)
	.loc 1 1820 3
	j	.L189
.L191:
	.loc 1 1821 10
	ld	a5,-24(s0)
	sd	a5,-48(s0)
	.loc 1 1822 14
	ld	a5,-80(s0)
	ld	a2,-88(s0)
	ld	a1,-48(s0)
	ld	a0,-72(s0)
	jalr	a5
.LVL17:
	sd	a0,-56(s0)
	.loc 1 1824 36
	ld	a5,-56(s0)
	.loc 1 1824 8
	bge	a5,zero,.L190
	.loc 1 1825 14
	ld	a5,-56(s0)
	j	.L188
.L190:
	.loc 1 1820 86 discriminator 2
	ld	a5,-32(s0)
	sd	a5,-24(s0)
	.loc 1 1820 99 discriminator 2
	ld	a5,-24(s0)
	ld	a5,0(a5)
	sd	a5,-32(s0)
.L189:
	.loc 1 1820 69 discriminator 1
	ld	a4,-24(s0)
	ld	a5,-40(s0)
	bne	a4,a5,.L191
	.loc 1 1829 10
	li	a5,0
.L188:
	.loc 1 1830 1
	mv	a0,a5
	ld	ra,88(sp)
	.cfi_restore 1
	ld	s0,80(sp)
	.cfi_restore 8
	.cfi_def_cfa 2, 96
	addi	sp,sp,96
	.cfi_def_cfa_offset 0
	jr	ra
	.cfi_endproc
.LFE35:
	.size	NetMapIterate, .-NetMapIterate
	.section	.text.NetLibDefaultUnload,"ax",@progbits
	.align	1
	.globl	NetLibDefaultUnload
	.type	NetLibDefaultUnload, @function
NetLibDefaultUnload:
.LFB36:
	.loc 1 1849 1
	.cfi_startproc
	addi	sp,sp,-96
	.cfi_def_cfa_offset 96
	sd	ra,88(sp)
	sd	s0,80(sp)
	.cfi_offset 1, -8
	.cfi_offset 8, -16
	addi	s0,sp,96
	.cfi_def_cfa 8, 0
	sd	a0,-88(s0)
	.loc 1 1864 15
	la	a5,gBS
	ld	a5,0(a5)
	ld	a5,312(a5)
	.loc 1 1864 12
	addi	a4,s0,-48
	addi	a3,s0,-56
	li	a2,0
	li	a1,0
	li	a0,0
	jalr	a5
.LVL18:
	sd	a0,-40(s0)
	.loc 1 1872 34
	ld	a5,-40(s0)
	.loc 1 1872 6
	bge	a5,zero,.L193
	.loc 1 1873 12
	ld	a5,-40(s0)
	j	.L204
.L193:
	.loc 1 1876 14
	sd	zero,-24(s0)
	.loc 1 1876 3
	j	.L195
.L202:
	.loc 1 1877 17
	la	a5,gBS
	ld	a5,0(a5)
	ld	a5,152(a5)
	.loc 1 1878 39
	ld	a3,-48(s0)
	ld	a4,-24(s0)
	slli	a4,a4,3
	add	a4,a3,a4
	.loc 1 1877 14
	ld	a4,0(a4)
	addi	a3,s0,-64
	mv	a2,a3
	la	a1,gEfiDriverBindingProtocolGuid
	mv	a0,a4
	jalr	a5
.LVL19:
	sd	a0,-40(s0)
	.loc 1 1882 36
	ld	a5,-40(s0)
	.loc 1 1882 8
	blt	a5,zero,.L205
	.loc 1 1886 22
	ld	a5,-64(s0)
	ld	a5,32(a5)
	.loc 1 1886 8
	ld	a4,-88(s0)
	bne	a4,a5,.L206
	.loc 1 1894 17
	sd	zero,-32(s0)
	.loc 1 1894 5
	j	.L199
.L200:
	.loc 1 1895 19
	la	a5,gBS
	ld	a5,0(a5)
	ld	a5,272(a5)
	.loc 1 1896 41
	ld	a3,-48(s0)
	ld	a4,-32(s0)
	slli	a4,a4,3
	add	a4,a3,a4
	.loc 1 1895 16
	ld	a3,0(a4)
	.loc 1 1897 36
	ld	a4,-64(s0)
	.loc 1 1895 16
	ld	a4,40(a4)
	li	a2,0
	mv	a1,a4
	mv	a0,a3
	jalr	a5
.LVL20:
	sd	a0,-40(s0)
	.loc 1 1894 56 discriminator 3
	ld	a5,-32(s0)
	addi	a5,a5,1
	sd	a5,-32(s0)
.L199:
	.loc 1 1894 29 discriminator 1
	ld	a5,-56(s0)
	ld	a4,-32(s0)
	bltu	a4,a5,.L200
	.loc 1 1905 8
	la	a5,gBS
	ld	a5,0(a5)
	ld	a5,144(a5)
	.loc 1 1906 25
	ld	a4,-64(s0)
	.loc 1 1905 5
	ld	a4,40(a4)
	ld	a3,-64(s0)
	mv	a2,a3
	la	a1,gEfiDriverBindingProtocolGuid
	mv	a0,a4
	jalr	a5
.LVL21:
	.loc 1 1911 17
	la	a5,gBS
	ld	a5,0(a5)
	ld	a5,152(a5)
	.loc 1 1912 39
	ld	a3,-48(s0)
	ld	a4,-24(s0)
	slli	a4,a4,3
	add	a4,a3,a4
	.loc 1 1911 14
	ld	a4,0(a4)
	addi	a3,s0,-72
	mv	a2,a3
	la	a1,gEfiComponentNameProtocolGuid
	mv	a0,a4
	jalr	a5
.LVL22:
	sd	a0,-40(s0)
	.loc 1 1916 9
	ld	a5,-40(s0)
	.loc 1 1916 8
	blt	a5,zero,.L201
	.loc 1 1917 10
	la	a5,gBS
	ld	a5,0(a5)
	ld	a5,144(a5)
	.loc 1 1918 27
	ld	a4,-64(s0)
	.loc 1 1917 7
	ld	a4,40(a4)
	ld	a3,-72(s0)
	mv	a2,a3
	la	a1,gEfiComponentNameProtocolGuid
	mv	a0,a4
	jalr	a5
.LVL23:
.L201:
	.loc 1 1924 17
	la	a5,gBS
	ld	a5,0(a5)
	ld	a5,152(a5)
	.loc 1 1925 39
	ld	a3,-48(s0)
	ld	a4,-24(s0)
	slli	a4,a4,3
	add	a4,a3,a4
	.loc 1 1924 14
	ld	a4,0(a4)
	addi	a3,s0,-80
	mv	a2,a3
	la	a1,gEfiComponentName2ProtocolGuid
	mv	a0,a4
	jalr	a5
.LVL24:
	sd	a0,-40(s0)
	.loc 1 1929 9
	ld	a5,-40(s0)
	.loc 1 1929 8
	blt	a5,zero,.L197
	.loc 1 1930 10
	la	a5,gBS
	ld	a5,0(a5)
	ld	a5,144(a5)
	.loc 1 1931 27
	ld	a4,-64(s0)
	.loc 1 1930 7
	ld	a4,40(a4)
	ld	a3,-80(s0)
	mv	a2,a3
	la	a1,gEfiComponentName2ProtocolGuid
	mv	a0,a4
	jalr	a5
.LVL25:
	j	.L197
.L205:
	.loc 1 1883 7
	nop
	j	.L197
.L206:
	.loc 1 1887 7
	nop
.L197:
	.loc 1 1876 51 discriminator 2
	ld	a5,-24(s0)
	addi	a5,a5,1
	sd	a5,-24(s0)
.L195:
	.loc 1 1876 25 discriminator 1
	ld	a5,-56(s0)
	ld	a4,-24(s0)
	bltu	a4,a5,.L202
	.loc 1 1941 26
	ld	a5,-48(s0)
	.loc 1 1941 6
	beq	a5,zero,.L203
	.loc 1 1942 8
	la	a5,gBS
	ld	a5,0(a5)
	ld	a5,72(a5)
	.loc 1 1942 5
	ld	a4,-48(s0)
	mv	a0,a4
	jalr	a5
.LVL26:
.L203:
	.loc 1 1945 10
	li	a5,0
.L204:
	.loc 1 1946 1
	mv	a0,a5
	ld	ra,88(sp)
	.cfi_restore 1
	ld	s0,80(sp)
	.cfi_restore 8
	.cfi_def_cfa 2, 96
	addi	sp,sp,96
	.cfi_def_cfa_offset 0
	jr	ra
	.cfi_endproc
.LFE36:
	.size	NetLibDefaultUnload, .-NetLibDefaultUnload
	.section	.text.NetLibCreateServiceChild,"ax",@progbits
	.align	1
	.globl	NetLibCreateServiceChild
	.type	NetLibCreateServiceChild, @function
NetLibCreateServiceChild:
.LFB37:
	.loc 1 1973 1
	.cfi_startproc
	addi	sp,sp,-64
	.cfi_def_cfa_offset 64
	sd	ra,56(sp)
	sd	s0,48(sp)
	.cfi_offset 1, -8
	.cfi_offset 8, -16
	addi	s0,sp,64
	.cfi_def_cfa 8, 0
	sd	a0,-40(s0)
	sd	a1,-48(s0)
	sd	a2,-56(s0)
	sd	a3,-64(s0)
	.loc 1 1982 15
	la	a5,gBS
	ld	a5,0(a5)
	ld	a6,280(a5)
	.loc 1 1982 12
	addi	a2,s0,-32
	li	a5,2
	ld	a4,-40(s0)
	ld	a3,-48(s0)
	ld	a1,-56(s0)
	ld	a0,-40(s0)
	jalr	a6
.LVL27:
	sd	a0,-24(s0)
	.loc 1 1991 34
	ld	a5,-24(s0)
	.loc 1 1991 6
	bge	a5,zero,.L208
	.loc 1 1992 12
	ld	a5,-24(s0)
	j	.L210
.L208:
	.loc 1 1998 19
	ld	a5,-32(s0)
	ld	a5,0(a5)
	.loc 1 1998 12
	ld	a4,-32(s0)
	ld	a1,-64(s0)
	mv	a0,a4
	jalr	a5
.LVL28:
	sd	a0,-24(s0)
	.loc 1 1999 10
	ld	a5,-24(s0)
.L210:
	.loc 1 2000 1
	mv	a0,a5
	ld	ra,56(sp)
	.cfi_restore 1
	ld	s0,48(sp)
	.cfi_restore 8
	.cfi_def_cfa 2, 64
	addi	sp,sp,64
	.cfi_def_cfa_offset 0
	jr	ra
	.cfi_endproc
.LFE37:
	.size	NetLibCreateServiceChild, .-NetLibCreateServiceChild
	.section	.text.NetLibDestroyServiceChild,"ax",@progbits
	.align	1
	.globl	NetLibDestroyServiceChild
	.type	NetLibDestroyServiceChild, @function
NetLibDestroyServiceChild:
.LFB38:
	.loc 1 2026 1
	.cfi_startproc
	addi	sp,sp,-64
	.cfi_def_cfa_offset 64
	sd	ra,56(sp)
	sd	s0,48(sp)
	.cfi_offset 1, -8
	.cfi_offset 8, -16
	addi	s0,sp,64
	.cfi_def_cfa 8, 0
	sd	a0,-40(s0)
	sd	a1,-48(s0)
	sd	a2,-56(s0)
	sd	a3,-64(s0)
	.loc 1 2035 15
	la	a5,gBS
	ld	a5,0(a5)
	ld	a6,280(a5)
	.loc 1 2035 12
	addi	a2,s0,-32
	li	a5,2
	ld	a4,-40(s0)
	ld	a3,-48(s0)
	ld	a1,-56(s0)
	ld	a0,-40(s0)
	jalr	a6
.LVL29:
	sd	a0,-24(s0)
	.loc 1 2044 34
	ld	a5,-24(s0)
	.loc 1 2044 6
	bge	a5,zero,.L212
	.loc 1 2045 12
	ld	a5,-24(s0)
	j	.L214
.L212:
	.loc 1 2051 19
	ld	a5,-32(s0)
	ld	a5,8(a5)
	.loc 1 2051 12
	ld	a4,-32(s0)
	ld	a1,-64(s0)
	mv	a0,a4
	jalr	a5
.LVL30:
	sd	a0,-24(s0)
	.loc 1 2052 10
	ld	a5,-24(s0)
.L214:
	.loc 1 2053 1
	mv	a0,a5
	ld	ra,56(sp)
	.cfi_restore 1
	ld	s0,48(sp)
	.cfi_restore 8
	.cfi_def_cfa 2, 64
	addi	sp,sp,64
	.cfi_def_cfa_offset 0
	jr	ra
	.cfi_endproc
.LFE38:
	.size	NetLibDestroyServiceChild, .-NetLibDestroyServiceChild
	.section	.text.NetLibGetSnpHandle,"ax",@progbits
	.align	1
	.globl	NetLibGetSnpHandle
	.type	NetLibGetSnpHandle, @function
NetLibGetSnpHandle:
.LFB39:
	.loc 1 2077 1
	.cfi_startproc
	addi	sp,sp,-64
	.cfi_def_cfa_offset 64
	sd	ra,56(sp)
	sd	s0,48(sp)
	.cfi_offset 1, -8
	.cfi_offset 8, -16
	addi	s0,sp,64
	.cfi_def_cfa 8, 0
	sd	a0,-56(s0)
	sd	a1,-64(s0)
	.loc 1 2086 15
	sd	zero,-32(s0)
	.loc 1 2087 15
	la	a5,gBS
	ld	a5,0(a5)
	ld	a5,152(a5)
	.loc 1 2087 12
	addi	a4,s0,-32
	mv	a2,a4
	la	a1,gEfiSimpleNetworkProtocolGuid
	ld	a0,-56(s0)
	jalr	a5
.LVL31:
	sd	a0,-24(s0)
	.loc 1 2088 7
	ld	a5,-24(s0)
	.loc 1 2088 6
	blt	a5,zero,.L216
	.loc 1 2089 8
	ld	a5,-64(s0)
	beq	a5,zero,.L217
	.loc 1 2090 12
	ld	a4,-32(s0)
	ld	a5,-64(s0)
	sd	a4,0(a5)
.L217:
	.loc 1 2093 12
	ld	a5,-56(s0)
	j	.L223
.L216:
	.loc 1 2099 16
	ld	a0,-56(s0)
	call	DevicePathFromHandle@plt
	mv	a5,a0
	.loc 1 2099 14 discriminator 1
	sd	a5,-40(s0)
	.loc 1 2100 18
	ld	a5,-40(s0)
	.loc 1 2100 6
	bne	a5,zero,.L219
	.loc 1 2101 12
	li	a5,0
	j	.L223
.L219:
	.loc 1 2104 13
	sd	zero,-48(s0)
	.loc 1 2105 15
	la	a5,gBS
	ld	a5,0(a5)
	ld	a5,184(a5)
	.loc 1 2105 12
	addi	a3,s0,-48
	addi	a4,s0,-40
	mv	a2,a3
	mv	a1,a4
	la	a0,gEfiSimpleNetworkProtocolGuid
	jalr	a5
.LVL32:
	sd	a0,-24(s0)
	.loc 1 2106 34
	ld	a5,-24(s0)
	.loc 1 2106 6
	bge	a5,zero,.L220
	.loc 1 2110 12
	li	a5,0
	j	.L223
.L220:
	.loc 1 2113 15
	la	a5,gBS
	ld	a5,0(a5)
	ld	a5,152(a5)
	.loc 1 2113 12
	ld	a4,-48(s0)
	addi	a3,s0,-32
	mv	a2,a3
	la	a1,gEfiSimpleNetworkProtocolGuid
	mv	a0,a4
	jalr	a5
.LVL33:
	sd	a0,-24(s0)
	.loc 1 2114 7
	ld	a5,-24(s0)
	.loc 1 2114 6
	blt	a5,zero,.L221
	.loc 1 2115 8
	ld	a5,-64(s0)
	beq	a5,zero,.L222
	.loc 1 2116 12
	ld	a4,-32(s0)
	ld	a5,-64(s0)
	sd	a4,0(a5)
.L222:
	.loc 1 2119 12
	ld	a5,-48(s0)
	j	.L223
.L221:
	.loc 1 2122 10
	li	a5,0
.L223:
	.loc 1 2123 1
	mv	a0,a5
	ld	ra,56(sp)
	.cfi_restore 1
	ld	s0,48(sp)
	.cfi_restore 8
	.cfi_def_cfa 2, 64
	addi	sp,sp,64
	.cfi_def_cfa_offset 0
	jr	ra
	.cfi_endproc
.LFE39:
	.size	NetLibGetSnpHandle, .-NetLibGetSnpHandle
	.section	.text.NetLibGetVlanId,"ax",@progbits
	.align	1
	.globl	NetLibGetVlanId
	.type	NetLibGetVlanId, @function
NetLibGetVlanId:
.LFB40:
	.loc 1 2143 1
	.cfi_startproc
	addi	sp,sp,-48
	.cfi_def_cfa_offset 48
	sd	ra,40(sp)
	sd	s0,32(sp)
	.cfi_offset 1, -8
	.cfi_offset 8, -16
	addi	s0,sp,48
	.cfi_def_cfa 8, 0
	sd	a0,-40(s0)
	.loc 1 2147 16
	ld	a0,-40(s0)
	call	DevicePathFromHandle@plt
	sd	a0,-32(s0)
	.loc 1 2148 6
	ld	a5,-32(s0)
	bne	a5,zero,.L225
	.loc 1 2149 12
	li	a5,0
	j	.L226
.L225:
	.loc 1 2152 8
	ld	a5,-32(s0)
	sd	a5,-24(s0)
	.loc 1 2153 9
	j	.L227
.L229:
	.loc 1 2154 14
	ld	a5,-24(s0)
	lbu	a5,0(a5)
	.loc 1 2154 8
	mv	a4,a5
	li	a5,3
	bne	a4,a5,.L228
	.loc 1 2154 38 discriminator 1
	ld	a5,-24(s0)
	lbu	a5,1(a5)
	.loc 1 2154 30 discriminator 1
	mv	a4,a5
	li	a5,20
	bne	a4,a5,.L228
	.loc 1 2155 40
	ld	a5,-24(s0)
	lbu	a4,4(a5)
	lbu	a5,5(a5)
	slli	a5,a5,8
	or	a5,a5,a4
	slli	a5,a5,48
	srli	a5,a5,48
	j	.L226
.L228:
	.loc 1 2158 12
	ld	a0,-24(s0)
	call	NextDevicePathNode@plt
	sd	a0,-24(s0)
.L227:
	.loc 1 2153 11
	ld	a0,-24(s0)
	call	IsDevicePathEnd@plt
	mv	a5,a0
	.loc 1 2153 10 discriminator 1
	beq	a5,zero,.L229
	.loc 1 2161 10
	li	a5,0
.L226:
	.loc 1 2162 1
	mv	a0,a5
	ld	ra,40(sp)
	.cfi_restore 1
	ld	s0,32(sp)
	.cfi_restore 8
	.cfi_def_cfa 2, 48
	addi	sp,sp,48
	.cfi_def_cfa_offset 0
	jr	ra
	.cfi_endproc
.LFE40:
	.size	NetLibGetVlanId, .-NetLibGetVlanId
	.section	.text.NetLibGetVlanHandle,"ax",@progbits
	.align	1
	.globl	NetLibGetVlanHandle
	.type	NetLibGetVlanHandle, @function
NetLibGetVlanHandle:
.LFB41:
	.loc 1 2184 1
	.cfi_startproc
	addi	sp,sp,-80
	.cfi_def_cfa_offset 80
	sd	ra,72(sp)
	sd	s0,64(sp)
	.cfi_offset 1, -8
	.cfi_offset 8, -16
	addi	s0,sp,80
	.cfi_def_cfa 8, 0
	sd	a0,-72(s0)
	mv	a5,a1
	sh	a5,-74(s0)
	.loc 1 2191 22
	ld	a0,-72(s0)
	call	DevicePathFromHandle@plt
	sd	a0,-24(s0)
	.loc 1 2192 6
	ld	a5,-24(s0)
	bne	a5,zero,.L231
	.loc 1 2193 12
	li	a5,0
	j	.L235
.L231:
	.loc 1 2199 3
	addi	a5,s0,-48
	li	a2,6
	lla	a1,mNetVlanDevicePathTemplate
	mv	a0,a5
	call	CopyMem@plt
	.loc 1 2200 19
	lhu	a5,-74(s0)
	sh	a5,-44(s0)
	.loc 1 2201 20
	addi	a5,s0,-48
	mv	a1,a5
	ld	a0,-24(s0)
	call	AppendDevicePathNode@plt
	sd	a0,-32(s0)
	.loc 1 2205 6
	ld	a5,-32(s0)
	bne	a5,zero,.L233
	.loc 1 2206 12
	li	a5,0
	j	.L235
.L233:
	.loc 1 2212 10
	sd	zero,-56(s0)
	.loc 1 2213 14
	ld	a5,-32(s0)
	sd	a5,-40(s0)
	.loc 1 2214 6
	la	a5,gBS
	ld	a5,0(a5)
	ld	a5,184(a5)
	.loc 1 2214 3
	addi	a3,s0,-56
	addi	a4,s0,-40
	mv	a2,a3
	mv	a1,a4
	la	a0,gEfiDevicePathProtocolGuid
	jalr	a5
.LVL34:
	.loc 1 2219 8
	ld	a5,-40(s0)
	mv	a0,a5
	call	IsDevicePathEnd@plt
	mv	a5,a0
	.loc 1 2219 6 discriminator 1
	bne	a5,zero,.L234
	.loc 1 2223 12
	sd	zero,-56(s0)
.L234:
	.loc 1 2226 3
	ld	a0,-32(s0)
	call	FreePool@plt
	.loc 1 2227 10
	ld	a5,-56(s0)
.L235:
	.loc 1 2228 1
	mv	a0,a5
	ld	ra,72(sp)
	.cfi_restore 1
	ld	s0,64(sp)
	.cfi_restore 8
	.cfi_def_cfa 2, 80
	addi	sp,sp,80
	.cfi_def_cfa_offset 0
	jr	ra
	.cfi_endproc
.LFE41:
	.size	NetLibGetVlanHandle, .-NetLibGetVlanHandle
	.section	.text.NetLibGetMacAddress,"ax",@progbits
	.align	1
	.globl	NetLibGetMacAddress
	.type	NetLibGetMacAddress, @function
NetLibGetMacAddress:
.LFB42:
	.loc 1 2256 1
	.cfi_startproc
	addi	sp,sp,-768
	.cfi_def_cfa_offset 768
	sd	ra,760(sp)
	sd	s0,752(sp)
	.cfi_offset 1, -8
	.cfi_offset 8, -16
	addi	s0,sp,768
	.cfi_def_cfa 8, 0
	sd	a0,-744(s0)
	sd	a1,-752(s0)
	sd	a2,-760(s0)
	.loc 1 2272 7
	sd	zero,-48(s0)
	.loc 1 2273 15
	addi	a5,s0,-48
	mv	a1,a5
	ld	a0,-744(s0)
	call	NetLibGetSnpHandle
	sd	a0,-32(s0)
	.loc 1 2274 6
	ld	a5,-32(s0)
	beq	a5,zero,.L237
	.loc 1 2278 18
	ld	a5,-48(s0)
	.loc 1 2278 13
	ld	a5,120(a5)
	sd	a5,-24(s0)
	j	.L238
.L237:
	.loc 1 2283 20
	sd	zero,-728(s0)
	.loc 1 2284 17
	la	a5,gBS
	ld	a5,0(a5)
	ld	a5,152(a5)
	.loc 1 2284 14
	addi	a4,s0,-720
	mv	a2,a4
	la	a1,gEfiManagedNetworkServiceBindingProtocolGuid
	ld	a0,-744(s0)
	jalr	a5
.LVL35:
	sd	a0,-40(s0)
	.loc 1 2289 36
	ld	a5,-40(s0)
	.loc 1 2289 8
	bge	a5,zero,.L239
	.loc 1 2290 14
	ld	a5,-40(s0)
	j	.L244
.L239:
	.loc 1 2296 19
	ld	a5,-720(s0)
	ld	a5,0(a5)
	.loc 1 2296 14
	ld	a4,-720(s0)
	addi	a3,s0,-728
	mv	a1,a3
	mv	a0,a4
	jalr	a5
.LVL36:
	sd	a0,-40(s0)
	.loc 1 2297 36
	ld	a5,-40(s0)
	.loc 1 2297 8
	bge	a5,zero,.L241
	.loc 1 2298 14
	ld	a5,-40(s0)
	j	.L244
.L241:
	.loc 1 2304 17
	la	a5,gBS
	ld	a5,0(a5)
	ld	a5,152(a5)
	.loc 1 2304 14
	ld	a4,-728(s0)
	addi	a3,s0,-712
	mv	a2,a3
	la	a1,gEfiManagedNetworkProtocolGuid
	mv	a0,a4
	jalr	a5
.LVL37:
	sd	a0,-40(s0)
	.loc 1 2309 36
	ld	a5,-40(s0)
	.loc 1 2309 8
	bge	a5,zero,.L242
	.loc 1 2310 12
	ld	a5,-720(s0)
	ld	a5,8(a5)
	.loc 1 2310 7
	ld	a4,-720(s0)
	ld	a3,-728(s0)
	mv	a1,a3
	mv	a0,a4
	jalr	a5
.LVL38:
	.loc 1 2311 14
	ld	a5,-40(s0)
	j	.L244
.L242:
	.loc 1 2317 17
	ld	a5,-712(s0)
	ld	a5,0(a5)
	.loc 1 2317 14
	ld	a4,-712(s0)
	addi	a3,s0,-704
	mv	a2,a3
	li	a1,0
	mv	a0,a4
	jalr	a5
.LVL39:
	sd	a0,-40(s0)
	.loc 1 2318 36
	ld	a5,-40(s0)
	.loc 1 2318 8
	bge	a5,zero,.L243
	.loc 1 2318 62 discriminator 1
	ld	a4,-40(s0)
	li	a5,-1
	slli	a5,a5,63
	addi	a5,a5,19
	beq	a4,a5,.L243
	.loc 1 2319 12
	ld	a5,-720(s0)
	ld	a5,8(a5)
	.loc 1 2319 7
	ld	a4,-720(s0)
	ld	a3,-728(s0)
	mv	a1,a3
	mv	a0,a4
	jalr	a5
.LVL40:
	.loc 1 2320 14
	ld	a5,-40(s0)
	j	.L244
.L243:
	.loc 1 2323 13
	addi	a5,s0,-704
	sd	a5,-24(s0)
	.loc 1 2328 10
	ld	a5,-720(s0)
	ld	a5,8(a5)
	.loc 1 2328 5
	ld	a4,-720(s0)
	ld	a3,-728(s0)
	mv	a1,a3
	mv	a0,a4
	jalr	a5
.LVL41:
.L238:
	.loc 1 2331 25
	ld	a5,-24(s0)
	lw	a5,4(a5)
	slli	a4,a5,32
	srli	a4,a4,32
	.loc 1 2331 16
	ld	a5,-760(s0)
	sd	a4,0(a5)
	.loc 1 2332 22
	ld	a4,-752(s0)
	.loc 1 2332 53
	ld	a5,-24(s0)
	addi	a3,a5,552
	.loc 1 2332 67
	ld	a5,-24(s0)
	lw	a5,4(a5)
	.loc 1 2332 3
	slli	a5,a5,32
	srli	a5,a5,32
	mv	a2,a5
	mv	a1,a3
	mv	a0,a4
	call	CopyMem@plt
	.loc 1 2334 10
	li	a5,0
.L244:
	.loc 1 2335 1
	mv	a0,a5
	ld	ra,760(sp)
	.cfi_restore 1
	ld	s0,752(sp)
	.cfi_restore 8
	.cfi_def_cfa 2, 768
	addi	sp,sp,768
	.cfi_def_cfa_offset 0
	jr	ra
	.cfi_endproc
.LFE42:
	.size	NetLibGetMacAddress, .-NetLibGetMacAddress
	.section	.text.NetLibGetMacString,"ax",@progbits
	.align	1
	.globl	NetLibGetMacString
	.type	NetLibGetMacString, @function
NetLibGetMacString:
.LFB43:
	.loc 1 2368 1
	.cfi_startproc
	addi	sp,sp,-144
	.cfi_def_cfa_offset 144
	sd	ra,136(sp)
	sd	s0,128(sp)
	.cfi_offset 1, -8
	.cfi_offset 8, -16
	addi	s0,sp,144
	.cfi_def_cfa 8, 0
	sd	a0,-120(s0)
	sd	a1,-128(s0)
	sd	a2,-136(s0)
	.loc 1 2383 12
	addi	a4,s0,-104
	addi	a5,s0,-96
	mv	a2,a4
	mv	a1,a5
	ld	a0,-120(s0)
	call	NetLibGetMacAddress
	sd	a0,-48(s0)
	.loc 1 2384 34
	ld	a5,-48(s0)
	.loc 1 2384 6
	bge	a5,zero,.L246
	.loc 1 2385 12
	ld	a5,-48(s0)
	j	.L252
.L246:
	.loc 1 2393 39
	ld	a5,-104(s0)
	addi	a5,a5,3
	.loc 1 2393 14
	slli	a5,a5,2
	sd	a5,-56(s0)
	.loc 1 2394 12
	ld	a0,-56(s0)
	call	AllocateZeroPool@plt
	sd	a0,-32(s0)
	.loc 1 2395 6
	ld	a5,-32(s0)
	bne	a5,zero,.L248
	.loc 1 2396 12
	li	a5,-1
	slli	a5,a5,63
	addi	a5,a5,9
	j	.L252
.L248:
	.loc 1 2399 14
	ld	a5,-136(s0)
	ld	a4,-32(s0)
	sd	a4,0(a5)
	.loc 1 2404 13
	addi	a5,s0,-96
	sd	a5,-24(s0)
	.loc 1 2405 14
	sd	zero,-40(s0)
	.loc 1 2405 3
	j	.L249
.L250:
	.loc 1 2408 44
	ld	a5,-136(s0)
	ld	a5,0(a5)
	.loc 1 2408 37
	mv	a4,a5
	.loc 1 2408 21
	ld	a5,-32(s0)
	.loc 1 2408 18
	sub	a4,a4,a5
	ld	a5,-56(s0)
	add	a1,a4,a5
	.loc 1 2410 18
	ld	a5,-24(s0)
	addi	a4,a5,1
	sd	a4,-24(s0)
	.loc 1 2410 7
	lbu	a5,0(a5)
	.loc 1 2406 5
	li	a4,2
	mv	a3,a5
	li	a2,160
	ld	a0,-32(s0)
	call	UnicodeValueToStringS@plt
	.loc 1 2413 71
	ld	a5,-136(s0)
	ld	a5,0(a5)
	.loc 1 2413 64
	mv	a4,a5
	.loc 1 2413 48
	ld	a5,-32(s0)
	.loc 1 2413 45
	sub	a4,a4,a5
	ld	a5,-56(s0)
	add	a5,a4,a5
	.loc 1 2413 84
	srli	a5,a5,1
	.loc 1 2413 15
	mv	a1,a5
	ld	a0,-32(s0)
	call	StrnLenS@plt
	mv	a5,a0
	.loc 1 2413 12 discriminator 1
	slli	a5,a5,1
	ld	a4,-32(s0)
	add	a5,a4,a5
	sd	a5,-32(s0)
	.loc 1 2405 47 discriminator 3
	ld	a5,-40(s0)
	addi	a5,a5,1
	sd	a5,-40(s0)
.L249:
	.loc 1 2405 25 discriminator 1
	ld	a5,-104(s0)
	ld	a4,-40(s0)
	bltu	a4,a5,.L250
	.loc 1 2419 12
	ld	a0,-120(s0)
	call	NetLibGetVlanId
	mv	a5,a0
	sh	a5,-58(s0)
	.loc 1 2420 6
	lhu	a5,-58(s0)
	sext.w	a5,a5
	beq	a5,zero,.L251
	.loc 1 2421 12
	ld	a5,-32(s0)
	addi	a4,a5,2
	sd	a4,-32(s0)
	.loc 1 2421 15
	li	a4,92
	sh	a4,0(a5)
	.loc 1 2424 44
	ld	a5,-136(s0)
	ld	a5,0(a5)
	.loc 1 2424 37
	mv	a4,a5
	.loc 1 2424 21
	ld	a5,-32(s0)
	.loc 1 2424 18
	sub	a4,a4,a5
	ld	a5,-56(s0)
	add	a5,a4,a5
	.loc 1 2422 5
	lhu	a3,-58(s0)
	li	a4,4
	li	a2,160
	mv	a1,a5
	ld	a0,-32(s0)
	call	UnicodeValueToStringS@plt
	.loc 1 2429 71
	ld	a5,-136(s0)
	ld	a5,0(a5)
	.loc 1 2429 64
	mv	a4,a5
	.loc 1 2429 48
	ld	a5,-32(s0)
	.loc 1 2429 45
	sub	a4,a4,a5
	ld	a5,-56(s0)
	add	a5,a4,a5
	.loc 1 2429 84
	srli	a5,a5,1
	.loc 1 2429 15
	mv	a1,a5
	ld	a0,-32(s0)
	call	StrnLenS@plt
	mv	a5,a0
	.loc 1 2429 12 discriminator 1
	slli	a5,a5,1
	ld	a4,-32(s0)
	add	a5,a4,a5
	sd	a5,-32(s0)
.L251:
	.loc 1 2435 11
	ld	a5,-32(s0)
	sh	zero,0(a5)
	.loc 1 2437 10
	li	a5,0
.L252:
	.loc 1 2438 1
	mv	a0,a5
	ld	ra,136(sp)
	.cfi_restore 1
	ld	s0,128(sp)
	.cfi_restore 8
	.cfi_def_cfa 2, 144
	addi	sp,sp,144
	.cfi_def_cfa_offset 0
	jr	ra
	.cfi_endproc
.LFE43:
	.size	NetLibGetMacString, .-NetLibGetMacString
	.section	.text.NetLibDetectMedia,"ax",@progbits
	.align	1
	.globl	NetLibDetectMedia
	.type	NetLibDetectMedia, @function
NetLibDetectMedia:
.LFB44:
	.loc 1 2476 1
	.cfi_startproc
	addi	sp,sp,-96
	.cfi_def_cfa_offset 96
	sd	ra,88(sp)
	sd	s0,80(sp)
	.cfi_offset 1, -8
	.cfi_offset 8, -16
	addi	s0,sp,96
	.cfi_def_cfa 8, 0
	sd	a0,-88(s0)
	sd	a1,-96(s0)
	.loc 1 2493 7
	sd	zero,-72(s0)
	.loc 1 2494 15
	addi	a5,s0,-72
	mv	a1,a5
	ld	a0,-88(s0)
	call	NetLibGetSnpHandle
	sd	a0,-48(s0)
	.loc 1 2495 6
	ld	a5,-48(s0)
	bne	a5,zero,.L254
	.loc 1 2496 12
	li	a5,-1
	slli	a5,a5,63
	addi	a5,a5,2
	j	.L273
.L254:
	.loc 1 2502 11
	ld	a5,-72(s0)
	ld	a5,120(a5)
	.loc 1 2502 17
	lbu	a5,651(a5)
	.loc 1 2502 6
	bne	a5,zero,.L256
	.loc 1 2503 12
	li	a5,-1
	slli	a5,a5,63
	addi	a5,a5,3
	j	.L273
.L256:
	.loc 1 2509 15
	ld	a5,-72(s0)
	ld	a5,88(a5)
	.loc 1 2509 12
	ld	a4,-72(s0)
	addi	a3,s0,-76
	li	a2,0
	mv	a1,a3
	mv	a0,a4
	jalr	a5
.LVL42:
	sd	a0,-24(s0)
	.loc 1 2510 34
	ld	a5,-24(s0)
	.loc 1 2510 6
	bge	a5,zero,.L257
	.loc 1 2511 12
	ld	a5,-24(s0)
	j	.L273
.L257:
	.loc 1 2514 10
	ld	a5,-72(s0)
	ld	a5,120(a5)
	.loc 1 2514 16
	lbu	a5,652(a5)
	.loc 1 2514 6
	beq	a5,zero,.L258
	.loc 1 2518 19
	ld	a5,-96(s0)
	li	a4,1
	sb	a4,0(a5)
	.loc 1 2519 12
	li	a5,0
	j	.L273
.L258:
	.loc 1 2527 17
	ld	a5,-72(s0)
	ld	a5,120(a5)
	.loc 1 2527 12
	lw	a5,0(a5)
	sw	a5,-52(s0)
	.loc 1 2528 6
	lw	a5,-52(s0)
	sext.w	a4,a5
	li	a5,2
	bleu	a4,a5,.L259
	.loc 1 2529 12
	li	a5,-1
	slli	a5,a5,63
	addi	a5,a5,7
	j	.L273
.L259:
	.loc 1 2532 15
	sd	zero,-32(s0)
	.loc 1 2534 6
	lw	a5,-52(s0)
	sext.w	a4,a5
	li	a5,2
	bne	a4,a5,.L260
	.loc 1 2542 27
	ld	a5,-72(s0)
	ld	a5,120(a5)
	.loc 1 2542 22
	lw	a5,28(a5)
	sw	a5,-56(s0)
	.loc 1 2543 28
	ld	a5,-72(s0)
	ld	a5,120(a5)
	.loc 1 2543 34
	lw	a5,24(a5)
	.loc 1 2543 23
	lw	a4,-56(s0)
	xor	a5,a4,a5
	sw	a5,-60(s0)
	.loc 1 2545 23
	li	a5,1
	sb	a5,-33(s0)
	.loc 1 2546 27
	ld	a5,-72(s0)
	ld	a5,120(a5)
	.loc 1 2546 22
	lw	a5,36(a5)
	sw	a5,-64(s0)
	.loc 1 2547 8
	lw	a5,-64(s0)
	sext.w	a5,a5
	beq	a5,zero,.L261
	.loc 1 2548 21
	lwu	a5,-64(s0)
	.loc 1 2549 40
	slli	a4,a5,5
	.loc 1 2550 26
	ld	a5,-72(s0)
	ld	a5,120(a5)
	.loc 1 2550 32
	addi	a5,a5,40
	.loc 1 2548 21
	mv	a1,a5
	mv	a0,a4
	call	AllocateCopyPool@plt
	sd	a0,-32(s0)
	.loc 1 2553 10
	ld	a5,-32(s0)
	bne	a5,zero,.L262
	.loc 1 2554 16
	li	a5,-1
	slli	a5,a5,63
	addi	a5,a5,9
	sd	a5,-24(s0)
	.loc 1 2555 9
	j	.L263
.L262:
	.loc 1 2558 25
	sb	zero,-33(s0)
.L261:
	.loc 1 2564 17
	ld	a5,-72(s0)
	ld	a5,40(a5)
	.loc 1 2564 14
	ld	a4,-72(s0)
	mv	a0,a4
	jalr	a5
.LVL43:
	sd	a0,-24(s0)
	.loc 1 2565 9
	ld	a5,-24(s0)
	.loc 1 2565 8
	blt	a5,zero,.L264
	.loc 1 2566 19
	ld	a5,-72(s0)
	ld	a5,16(a5)
	.loc 1 2566 16
	ld	a4,-72(s0)
	mv	a0,a4
	jalr	a5
.LVL44:
	sd	a0,-24(s0)
.L264:
	.loc 1 2569 36
	ld	a5,-24(s0)
	.loc 1 2569 8
	blt	a5,zero,.L274
	.loc 1 2576 17
	ld	a5,-72(s0)
	ld	a5,8(a5)
	.loc 1 2576 14
	ld	a4,-72(s0)
	mv	a0,a4
	jalr	a5
.LVL45:
	sd	a0,-24(s0)
	.loc 1 2577 9
	ld	a5,-24(s0)
	.loc 1 2577 8
	blt	a5,zero,.L266
	.loc 1 2578 19
	ld	a5,-72(s0)
	ld	a5,24(a5)
	.loc 1 2578 16
	ld	a4,-72(s0)
	li	a2,0
	li	a1,0
	mv	a0,a4
	jalr	a5
.LVL46:
	sd	a0,-24(s0)
.L266:
	.loc 1 2581 36
	ld	a5,-24(s0)
	.loc 1 2581 8
	blt	a5,zero,.L275
	.loc 1 2588 24
	ld	a5,-72(s0)
	ld	a5,120(a5)
	.loc 1 2588 30
	lbu	a4,652(a5)
	.loc 1 2588 19
	ld	a5,-96(s0)
	sb	a4,0(a5)
	.loc 1 2593 17
	ld	a5,-72(s0)
	ld	a6,48(a5)
	.loc 1 2593 14
	ld	a0,-72(s0)
	lwu	a4,-64(s0)
	lbu	a3,-33(s0)
	lw	a2,-60(s0)
	lw	a1,-56(s0)
	ld	a5,-32(s0)
	jalr	a6
.LVL47:
	sd	a0,-24(s0)
	.loc 1 2602 8
	ld	a5,-32(s0)
	beq	a5,zero,.L268
	.loc 1 2603 7
	ld	a0,-32(s0)
	call	FreePool@plt
.L268:
	.loc 1 2606 12
	ld	a5,-24(s0)
	j	.L273
.L260:
	.loc 1 2612 6
	lw	a5,-52(s0)
	sext.w	a5,a5
	bne	a5,zero,.L269
	.loc 1 2616 17
	ld	a5,-72(s0)
	ld	a5,8(a5)
	.loc 1 2616 14
	ld	a4,-72(s0)
	mv	a0,a4
	jalr	a5
.LVL48:
	sd	a0,-24(s0)
	.loc 1 2617 36
	ld	a5,-24(s0)
	.loc 1 2617 8
	blt	a5,zero,.L276
.L269:
	.loc 1 2625 15
	ld	a5,-72(s0)
	ld	a5,24(a5)
	.loc 1 2625 12
	ld	a4,-72(s0)
	li	a2,0
	li	a1,0
	mv	a0,a4
	jalr	a5
.LVL49:
	sd	a0,-24(s0)
	.loc 1 2626 34
	ld	a5,-24(s0)
	.loc 1 2626 6
	bge	a5,zero,.L270
	.loc 1 2627 12
	li	a5,-1
	slli	a5,a5,63
	addi	a5,a5,7
	sd	a5,-24(s0)
	.loc 1 2628 5
	j	.L263
.L270:
	.loc 1 2634 22
	ld	a5,-72(s0)
	ld	a5,120(a5)
	.loc 1 2634 28
	lbu	a4,652(a5)
	.loc 1 2634 17
	ld	a5,-96(s0)
	sb	a4,0(a5)
	.loc 1 2639 6
	ld	a5,-72(s0)
	ld	a5,40(a5)
	.loc 1 2639 3
	ld	a4,-72(s0)
	mv	a0,a4
	jalr	a5
.LVL50:
	j	.L263
.L274:
	.loc 1 2570 7
	nop
	j	.L263
.L275:
	.loc 1 2582 7
	nop
	j	.L263
.L276:
	.loc 1 2618 7
	nop
.L263:
	.loc 1 2642 6
	lw	a5,-52(s0)
	sext.w	a5,a5
	bne	a5,zero,.L271
	.loc 1 2646 8
	ld	a5,-72(s0)
	ld	a5,16(a5)
	.loc 1 2646 5
	ld	a4,-72(s0)
	mv	a0,a4
	jalr	a5
.LVL51:
.L271:
	.loc 1 2649 6
	ld	a5,-32(s0)
	beq	a5,zero,.L272
	.loc 1 2650 5
	ld	a0,-32(s0)
	call	FreePool@plt
.L272:
	.loc 1 2653 10
	ld	a5,-24(s0)
.L273:
	.loc 1 2654 1
	mv	a0,a5
	ld	ra,88(sp)
	.cfi_restore 1
	ld	s0,80(sp)
	.cfi_restore 8
	.cfi_def_cfa 2, 96
	addi	sp,sp,96
	.cfi_def_cfa_offset 0
	jr	ra
	.cfi_endproc
.LFE44:
	.size	NetLibDetectMedia, .-NetLibDetectMedia
	.section	.text.NetLibDetectMediaWaitTimeout,"ax",@progbits
	.align	1
	.globl	NetLibDetectMediaWaitTimeout
	.type	NetLibDetectMediaWaitTimeout, @function
NetLibDetectMediaWaitTimeout:
.LFB45:
	.loc 1 2688 1
	.cfi_startproc
	addi	sp,sp,-128
	.cfi_def_cfa_offset 128
	sd	ra,120(sp)
	sd	s0,112(sp)
	.cfi_offset 1, -8
	.cfi_offset 8, -16
	addi	s0,sp,128
	.cfi_def_cfa 8, 0
	sd	a0,-104(s0)
	sd	a1,-112(s0)
	sd	a2,-120(s0)
	.loc 1 2700 6
	ld	a5,-120(s0)
	bne	a5,zero,.L278
	.loc 1 2701 12
	li	a5,-1
	slli	a5,a5,63
	addi	a5,a5,2
	j	.L298
.L278:
	.loc 1 2704 15
	ld	a5,-120(s0)
	sd	zero,0(a5)
	.loc 1 2705 13
	sd	zero,-72(s0)
	.loc 1 2710 7
	sd	zero,-56(s0)
	.loc 1 2711 15
	addi	a5,s0,-56
	mv	a1,a5
	ld	a0,-104(s0)
	call	NetLibGetSnpHandle
	sd	a0,-32(s0)
	.loc 1 2712 6
	ld	a5,-32(s0)
	bne	a5,zero,.L280
	.loc 1 2713 12
	li	a5,-1
	slli	a5,a5,63
	addi	a5,a5,2
	j	.L298
.L280:
	.loc 1 2716 15
	la	a5,gBS
	ld	a5,0(a5)
	ld	a5,152(a5)
	.loc 1 2716 12
	addi	a4,s0,-64
	mv	a2,a4
	la	a1,gEfiAdapterInformationProtocolGuid
	ld	a0,-32(s0)
	jalr	a5
.LVL52:
	sd	a0,-40(s0)
	.loc 1 2721 34
	ld	a5,-40(s0)
	.loc 1 2721 6
	bge	a5,zero,.L281
	.loc 1 2722 18
	li	a5,1
	sb	a5,-73(s0)
	.loc 1 2723 14
	addi	a5,s0,-73
	mv	a1,a5
	ld	a0,-104(s0)
	call	NetLibDetectMedia
	sd	a0,-40(s0)
	.loc 1 2724 9
	ld	a5,-40(s0)
	.loc 1 2724 8
	blt	a5,zero,.L282
	.loc 1 2725 11
	lbu	a5,-73(s0)
	.loc 1 2725 10
	beq	a5,zero,.L283
	.loc 1 2726 21
	ld	a5,-120(s0)
	sd	zero,0(a5)
	j	.L282
.L283:
	.loc 1 2728 21
	ld	a5,-120(s0)
	li	a4,-1
	slli	a4,a4,63
	addi	a4,a4,12
	sd	a4,0(a5)
.L282:
	.loc 1 2735 12
	ld	a5,-40(s0)
	j	.L298
.L281:
	.loc 1 2738 15
	ld	a5,-64(s0)
	ld	a5,0(a5)
	.loc 1 2738 12
	ld	a4,-64(s0)
	addi	a3,s0,-88
	addi	a2,s0,-72
	la	a1,gEfiAdapterInfoMediaStateGuid
	mv	a0,a4
	jalr	a5
.LVL53:
	sd	a0,-40(s0)
	.loc 1 2744 7
	ld	a5,-40(s0)
	.loc 1 2744 6
	blt	a5,zero,.L284
	.loc 1 2745 28
	ld	a5,-72(s0)
	ld	a4,0(a5)
	.loc 1 2745 17
	ld	a5,-120(s0)
	sd	a4,0(a5)
	.loc 1 2746 5
	ld	a5,-72(s0)
	mv	a0,a5
	call	FreePool@plt
	.loc 1 2747 10
	ld	a5,-120(s0)
	ld	a4,0(a5)
	.loc 1 2747 8
	li	a5,-1
	slli	a5,a5,63
	addi	a5,a5,6
	bne	a4,a5,.L285
	.loc 1 2747 73 discriminator 1
	ld	a4,-112(s0)
	li	a5,999424
	addi	a5,a5,575
	bgtu	a4,a5,.L286
.L285:
	.loc 1 2748 14
	li	a5,0
	j	.L298
.L284:
	.loc 1 2751 19
	ld	a5,-72(s0)
	.loc 1 2751 8
	beq	a5,zero,.L287
	.loc 1 2752 7
	ld	a5,-72(s0)
	mv	a0,a5
	call	FreePool@plt
.L287:
	.loc 1 2755 8
	ld	a4,-40(s0)
	li	a5,-1
	slli	a5,a5,63
	addi	a5,a5,3
	bne	a4,a5,.L288
	.loc 1 2759 20
	li	a5,1
	sb	a5,-73(s0)
	.loc 1 2760 16
	addi	a5,s0,-73
	mv	a1,a5
	ld	a0,-104(s0)
	call	NetLibDetectMedia
	sd	a0,-40(s0)
	.loc 1 2761 11
	ld	a5,-40(s0)
	.loc 1 2761 10
	blt	a5,zero,.L289
	.loc 1 2762 13
	lbu	a5,-73(s0)
	.loc 1 2762 12
	beq	a5,zero,.L290
	.loc 1 2763 23
	ld	a5,-120(s0)
	sd	zero,0(a5)
	j	.L289
.L290:
	.loc 1 2765 23
	ld	a5,-120(s0)
	li	a4,-1
	slli	a4,a4,63
	addi	a4,a4,12
	sd	a4,0(a5)
.L289:
	.loc 1 2769 14
	ld	a5,-40(s0)
	j	.L298
.L288:
	.loc 1 2772 12
	ld	a5,-40(s0)
	j	.L298
.L286:
	.loc 1 2779 9
	sd	zero,-96(s0)
	.loc 1 2780 16
	ld	a5,-112(s0)
	sd	a5,-24(s0)
	.loc 1 2781 15
	la	a5,gBS
	ld	a5,0(a5)
	ld	a5,80(a5)
	.loc 1 2781 12
	addi	a4,s0,-96
	li	a3,0
	li	a2,0
	li	a1,8
	li	a0,-2147483648
	jalr	a5
.LVL54:
	sd	a0,-40(s0)
	.loc 1 2782 34
	ld	a5,-40(s0)
	.loc 1 2782 6
	bge	a5,zero,.L291
	.loc 1 2783 12
	li	a5,-1
	slli	a5,a5,63
	addi	a5,a5,7
	j	.L298
.L291:
	.loc 1 2787 17
	la	a5,gBS
	ld	a5,0(a5)
	ld	a5,88(a5)
	.loc 1 2787 14
	ld	a3,-96(s0)
	li	a4,999424
	addi	a2,a4,576
	li	a1,2
	mv	a0,a3
	jalr	a5
.LVL55:
	sd	a0,-40(s0)
	.loc 1 2792 36
	ld	a5,-40(s0)
	.loc 1 2792 8
	bge	a5,zero,.L292
	.loc 1 2793 10
	la	a5,gBS
	ld	a5,0(a5)
	ld	a5,112(a5)
	.loc 1 2793 7
	ld	a4,-96(s0)
	mv	a0,a4
	jalr	a5
.LVL56:
	.loc 1 2794 14
	li	a5,-1
	slli	a5,a5,63
	addi	a5,a5,7
	j	.L298
.L292:
	.loc 1 2798 24
	la	a5,gBS
	ld	a5,0(a5)
	ld	a5,120(a5)
	.loc 1 2798 21
	ld	a4,-96(s0)
	mv	a0,a4
	jalr	a5
.LVL57:
	sd	a0,-48(s0)
	.loc 1 2799 11
	ld	a5,-48(s0)
	.loc 1 2799 10
	blt	a5,zero,.L293
	.loc 1 2800 22
	ld	a4,-24(s0)
	li	a5,-999424
	addi	a5,a5,-576
	add	a5,a4,a5
	sd	a5,-24(s0)
	.loc 1 2801 21
	ld	a5,-64(s0)
	ld	a5,0(a5)
	.loc 1 2801 18
	ld	a4,-64(s0)
	addi	a3,s0,-88
	addi	a2,s0,-72
	la	a1,gEfiAdapterInfoMediaStateGuid
	mv	a0,a4
	jalr	a5
.LVL58:
	sd	a0,-40(s0)
	.loc 1 2807 13
	ld	a5,-40(s0)
	.loc 1 2807 12
	blt	a5,zero,.L294
	.loc 1 2808 34
	ld	a5,-72(s0)
	ld	a4,0(a5)
	.loc 1 2808 23
	ld	a5,-120(s0)
	sd	a4,0(a5)
	.loc 1 2809 11
	ld	a5,-72(s0)
	mv	a0,a5
	call	FreePool@plt
	j	.L293
.L294:
	.loc 1 2811 25
	ld	a5,-72(s0)
	.loc 1 2811 14
	beq	a5,zero,.L295
	.loc 1 2812 13
	ld	a5,-72(s0)
	mv	a0,a5
	call	FreePool@plt
.L295:
	.loc 1 2815 14
	la	a5,gBS
	ld	a5,0(a5)
	ld	a5,112(a5)
	.loc 1 2815 11
	ld	a4,-96(s0)
	mv	a0,a4
	jalr	a5
.LVL59:
	.loc 1 2816 18
	ld	a5,-40(s0)
	j	.L298
.L293:
	.loc 1 2819 26
	ld	a4,-48(s0)
	li	a5,-1
	slli	a5,a5,63
	addi	a5,a5,6
	beq	a4,a5,.L292
	.loc 1 2820 12
	ld	a5,-120(s0)
	ld	a4,0(a5)
	.loc 1 2820 74
	li	a5,-1
	slli	a5,a5,63
	addi	a5,a5,6
	bne	a4,a5,.L296
	.loc 1 2820 74 is_stmt 0 discriminator 1
	ld	a4,-24(s0)
	li	a5,999424
	addi	a5,a5,575
	bgtu	a4,a5,.L291
.L296:
	.loc 1 2822 6 is_stmt 1
	la	a5,gBS
	ld	a5,0(a5)
	ld	a5,112(a5)
	.loc 1 2822 3
	ld	a4,-96(s0)
	mv	a0,a4
	jalr	a5
.LVL60:
	.loc 1 2823 8
	ld	a5,-120(s0)
	ld	a4,0(a5)
	.loc 1 2823 6
	li	a5,-1
	slli	a5,a5,63
	addi	a5,a5,6
	bne	a4,a5,.L297
	.loc 1 2823 71 discriminator 1
	ld	a4,-24(s0)
	li	a5,999424
	addi	a5,a5,575
	bgtu	a4,a5,.L297
	.loc 1 2824 12
	li	a5,-1
	slli	a5,a5,63
	addi	a5,a5,18
	j	.L298
.L297:
	.loc 1 2826 12
	li	a5,0
.L298:
	.loc 1 2828 1
	mv	a0,a5
	ld	ra,120(sp)
	.cfi_restore 1
	ld	s0,112(sp)
	.cfi_restore 8
	.cfi_def_cfa 2, 128
	addi	sp,sp,128
	.cfi_def_cfa_offset 0
	jr	ra
	.cfi_endproc
.LFE45:
	.size	NetLibDetectMediaWaitTimeout, .-NetLibDetectMediaWaitTimeout
	.section	.text.NetLibDefaultAddressIsStatic,"ax",@progbits
	.align	1
	.globl	NetLibDefaultAddressIsStatic
	.type	NetLibDefaultAddressIsStatic, @function
NetLibDefaultAddressIsStatic:
.LFB46:
	.loc 1 2849 1
	.cfi_startproc
	addi	sp,sp,-80
	.cfi_def_cfa_offset 80
	sd	ra,72(sp)
	sd	s0,64(sp)
	.cfi_offset 1, -8
	.cfi_offset 8, -16
	addi	s0,sp,80
	.cfi_def_cfa 8, 0
	sd	a0,-72(s0)
	.loc 1 2856 14
	sd	zero,-40(s0)
	.loc 1 2858 12
	li	a5,4
	sd	a5,-48(s0)
	.loc 1 2860 12
	li	a5,1
	sb	a5,-17(s0)
	.loc 1 2865 15
	la	a5,gBS
	ld	a5,0(a5)
	ld	a5,152(a5)
	.loc 1 2865 12
	addi	a4,s0,-40
	mv	a2,a4
	la	a1,gEfiIp4Config2ProtocolGuid
	ld	a0,-72(s0)
	jalr	a5
.LVL61:
	sd	a0,-32(s0)
	.loc 1 2866 34
	ld	a5,-32(s0)
	.loc 1 2866 6
	blt	a5,zero,.L304
	.loc 1 2870 22
	ld	a5,-40(s0)
	ld	a5,8(a5)
	.loc 1 2870 12
	ld	a4,-40(s0)
	addi	a3,s0,-52
	addi	a2,s0,-48
	li	a1,1
	mv	a0,a4
	jalr	a5
.LVL62:
	sd	a0,-32(s0)
	.loc 1 2871 34
	ld	a5,-32(s0)
	.loc 1 2871 6
	blt	a5,zero,.L305
	.loc 1 2875 14
	lw	a5,-52(s0)
	seqz	a5,a5
	andi	a5,a5,0xff
	.loc 1 2875 12
	sb	a5,-17(s0)
	j	.L301
.L304:
	.loc 1 2867 5
	nop
	j	.L301
.L305:
	.loc 1 2872 5
	nop
.L301:
	.loc 1 2879 10
	lbu	a5,-17(s0)
	.loc 1 2880 1
	mv	a0,a5
	ld	ra,72(sp)
	.cfi_restore 1
	ld	s0,64(sp)
	.cfi_restore 8
	.cfi_def_cfa 2, 80
	addi	sp,sp,80
	.cfi_def_cfa_offset 0
	jr	ra
	.cfi_endproc
.LFE46:
	.size	NetLibDefaultAddressIsStatic, .-NetLibDefaultAddressIsStatic
	.section	.text.NetLibCreateIPv4DPathNode,"ax",@progbits
	.align	1
	.globl	NetLibCreateIPv4DPathNode
	.type	NetLibCreateIPv4DPathNode, @function
NetLibCreateIPv4DPathNode:
.LFB47:
	.loc 1 2913 1
	.cfi_startproc
	addi	sp,sp,-48
	.cfi_def_cfa_offset 48
	sd	ra,40(sp)
	sd	s0,32(sp)
	.cfi_offset 1, -8
	.cfi_offset 8, -16
	addi	s0,sp,48
	.cfi_def_cfa 8, 0
	sd	a0,-24(s0)
	sd	a1,-32(s0)
	mv	t1,a2
	mv	a0,a3
	mv	a1,a4
	mv	a2,a5
	mv	a3,a6
	mv	a4,a7
	mv	a5,t1
	sw	a5,-36(s0)
	mv	a5,a0
	sh	a5,-38(s0)
	mv	a5,a1
	sw	a5,-44(s0)
	mv	a5,a2
	sh	a5,-40(s0)
	mv	a5,a3
	sh	a5,-46(s0)
	mv	a5,a4
	sb	a5,-47(s0)
	.loc 1 2916 21
	ld	a5,-24(s0)
	li	a4,3
	sb	a4,0(a5)
	.loc 1 2917 24
	ld	a5,-24(s0)
	li	a4,12
	sb	a4,1(a5)
	.loc 1 2918 28
	ld	a5,-24(s0)
	.loc 1 2918 3
	li	a1,27
	mv	a0,a5
	call	SetDevicePathNodeLength@plt
	.loc 1 2920 12
	ld	a5,-24(s0)
	addi	a5,a5,4
	.loc 1 2920 3
	addi	a4,s0,-36
	li	a2,4
	mv	a1,a4
	mv	a0,a5
	call	CopyMem@plt
	.loc 1 2921 12
	ld	a5,-24(s0)
	addi	a5,a5,8
	.loc 1 2921 3
	addi	a4,s0,-44
	li	a2,4
	mv	a1,a4
	mv	a0,a5
	call	CopyMem@plt
	.loc 1 2923 19
	ld	a5,-24(s0)
	lhu	a4,-38(s0)
	andi	a4,a4,255
	lbu	a3,12(a5)
	andi	a3,a3,0
	or	a4,a3,a4
	sb	a4,12(a5)
	lhu	a4,-38(s0)
	srliw	a4,a4,8
	slli	a4,a4,48
	srli	a4,a4,48
	lbu	a3,13(a5)
	andi	a3,a3,0
	or	a4,a3,a4
	sb	a4,13(a5)
	.loc 1 2924 20
	ld	a5,-24(s0)
	lhu	a4,-40(s0)
	andi	a4,a4,255
	lbu	a3,14(a5)
	andi	a3,a3,0
	or	a4,a3,a4
	sb	a4,14(a5)
	lhu	a4,-40(s0)
	srliw	a4,a4,8
	slli	a4,a4,48
	srli	a4,a4,48
	lbu	a3,15(a5)
	andi	a3,a3,0
	or	a4,a3,a4
	sb	a4,15(a5)
	.loc 1 2926 18
	ld	a5,-24(s0)
	lhu	a4,-46(s0)
	andi	a4,a4,255
	lbu	a3,16(a5)
	andi	a3,a3,0
	or	a4,a3,a4
	sb	a4,16(a5)
	lhu	a4,-46(s0)
	srliw	a4,a4,8
	slli	a4,a4,48
	srli	a4,a4,48
	lbu	a3,17(a5)
	andi	a3,a3,0
	or	a4,a3,a4
	sb	a4,17(a5)
	.loc 1 2928 6
	lbu	a5,-47(s0)
	andi	a5,a5,0xff
	bne	a5,zero,.L307
	.loc 1 2929 27
	ld	a5,-24(s0)
	li	a4,1
	sb	a4,18(a5)
	j	.L308
.L307:
	.loc 1 2931 29
	ld	a0,-32(s0)
	call	NetLibDefaultAddressIsStatic
	mv	a5,a0
	mv	a4,a5
	.loc 1 2931 27 discriminator 1
	ld	a5,-24(s0)
	sb	a4,18(a5)
.L308:
	.loc 1 2938 12
	ld	a5,-24(s0)
	addi	a5,a5,19
	.loc 1 2938 3
	li	a1,4
	mv	a0,a5
	call	ZeroMem@plt
	.loc 1 2939 11
	ld	a5,-24(s0)
	addi	a5,a5,23
	.loc 1 2939 3
	li	a2,255
	li	a1,4
	mv	a0,a5
	call	SetMem@plt
	.loc 1 2940 28
	ld	a5,-24(s0)
	sb	zero,26(a5)
	.loc 1 2941 1
	nop
	ld	ra,40(sp)
	.cfi_restore 1
	ld	s0,32(sp)
	.cfi_restore 8
	.cfi_def_cfa 2, 48
	addi	sp,sp,48
	.cfi_def_cfa_offset 0
	jr	ra
	.cfi_endproc
.LFE47:
	.size	NetLibCreateIPv4DPathNode, .-NetLibCreateIPv4DPathNode
	.section	.text.NetLibCreateIPv6DPathNode,"ax",@progbits
	.align	1
	.globl	NetLibCreateIPv6DPathNode
	.type	NetLibCreateIPv6DPathNode, @function
NetLibCreateIPv6DPathNode:
.LFB48:
	.loc 1 2974 1
	.cfi_startproc
	addi	sp,sp,-64
	.cfi_def_cfa_offset 64
	sd	ra,56(sp)
	sd	s0,48(sp)
	.cfi_offset 1, -8
	.cfi_offset 8, -16
	addi	s0,sp,64
	.cfi_def_cfa 8, 0
	sd	a0,-24(s0)
	sd	a1,-32(s0)
	sd	a2,-40(s0)
	mv	a2,a3
	sd	a4,-56(s0)
	mv	a3,a5
	mv	a4,a6
	mv	a5,a2
	sh	a5,-42(s0)
	mv	a5,a3
	sh	a5,-44(s0)
	mv	a5,a4
	sh	a5,-46(s0)
	.loc 1 2977 21
	ld	a5,-24(s0)
	li	a4,3
	sb	a4,0(a5)
	.loc 1 2978 24
	ld	a5,-24(s0)
	li	a4,13
	sb	a4,1(a5)
	.loc 1 2979 28
	ld	a5,-24(s0)
	.loc 1 2979 3
	li	a1,60
	mv	a0,a5
	call	SetDevicePathNodeLength@plt
	.loc 1 2981 12
	ld	a5,-24(s0)
	addi	a5,a5,4
	.loc 1 2981 3
	li	a2,16
	ld	a1,-40(s0)
	mv	a0,a5
	call	CopyMem@plt
	.loc 1 2982 12
	ld	a5,-24(s0)
	addi	a5,a5,20
	.loc 1 2982 3
	li	a2,16
	ld	a1,-56(s0)
	mv	a0,a5
	call	CopyMem@plt
	.loc 1 2984 19
	ld	a5,-24(s0)
	lhu	a4,-42(s0)
	andi	a4,a4,255
	lbu	a3,36(a5)
	andi	a3,a3,0
	or	a4,a3,a4
	sb	a4,36(a5)
	lhu	a4,-42(s0)
	srliw	a4,a4,8
	slli	a4,a4,48
	srli	a4,a4,48
	lbu	a3,37(a5)
	andi	a3,a3,0
	or	a4,a3,a4
	sb	a4,37(a5)
	.loc 1 2985 20
	ld	a5,-24(s0)
	lhu	a4,-44(s0)
	andi	a4,a4,255
	lbu	a3,38(a5)
	andi	a3,a3,0
	or	a4,a3,a4
	sb	a4,38(a5)
	lhu	a4,-44(s0)
	srliw	a4,a4,8
	slli	a4,a4,48
	srli	a4,a4,48
	lbu	a3,39(a5)
	andi	a3,a3,0
	or	a4,a3,a4
	sb	a4,39(a5)
	.loc 1 2987 18
	ld	a5,-24(s0)
	lhu	a4,-46(s0)
	andi	a4,a4,255
	lbu	a3,40(a5)
	andi	a3,a3,0
	or	a4,a3,a4
	sb	a4,40(a5)
	lhu	a4,-46(s0)
	srliw	a4,a4,8
	slli	a4,a4,48
	srli	a4,a4,48
	lbu	a3,41(a5)
	andi	a3,a3,0
	or	a4,a3,a4
	sb	a4,41(a5)
	.loc 1 2993 25
	ld	a5,-24(s0)
	sb	zero,42(a5)
	.loc 1 2994 22
	ld	a5,-24(s0)
	li	a4,64
	sb	a4,43(a5)
	.loc 1 2995 12
	ld	a5,-24(s0)
	addi	a5,a5,44
	.loc 1 2995 3
	li	a1,16
	mv	a0,a5
	call	ZeroMem@plt
	.loc 1 2996 1
	nop
	ld	ra,56(sp)
	.cfi_restore 1
	ld	s0,48(sp)
	.cfi_restore 8
	.cfi_def_cfa 2, 64
	addi	sp,sp,64
	.cfi_def_cfa_offset 0
	jr	ra
	.cfi_endproc
.LFE48:
	.size	NetLibCreateIPv6DPathNode, .-NetLibCreateIPv6DPathNode
	.section	.text.NetLibGetNicHandle,"ax",@progbits
	.align	1
	.globl	NetLibGetNicHandle
	.type	NetLibGetNicHandle, @function
NetLibGetNicHandle:
.LFB49:
	.loc 1 3023 1
	.cfi_startproc
	addi	sp,sp,-80
	.cfi_def_cfa_offset 80
	sd	ra,72(sp)
	sd	s0,64(sp)
	.cfi_offset 1, -8
	.cfi_offset 8, -16
	addi	s0,sp,80
	.cfi_def_cfa 8, 0
	sd	a0,-72(s0)
	sd	a1,-80(s0)
	.loc 1 3032 15
	la	a5,gBS
	ld	a5,0(a5)
	ld	a5,296(a5)
	.loc 1 3032 12
	addi	a3,s0,-56
	addi	a4,s0,-48
	mv	a2,a4
	ld	a1,-80(s0)
	ld	a0,-72(s0)
	jalr	a5
.LVL63:
	sd	a0,-40(s0)
	.loc 1 3039 34
	ld	a5,-40(s0)
	.loc 1 3039 6
	bge	a5,zero,.L311
	.loc 1 3040 12
	li	a5,0
	j	.L317
.L311:
	.loc 1 3043 10
	sd	zero,-24(s0)
	.loc 1 3045 14
	sd	zero,-32(s0)
	.loc 1 3045 3
	j	.L313
.L316:
	.loc 1 3046 20
	ld	a3,-48(s0)
	ld	a4,-32(s0)
	mv	a5,a4
	slli	a5,a5,1
	add	a5,a5,a4
	slli	a5,a5,3
	add	a5,a3,a5
	.loc 1 3046 27
	lw	a5,16(a5)
	.loc 1 3046 39
	andi	a5,a5,16
	sext.w	a5,a5
	.loc 1 3046 8
	beq	a5,zero,.L314
	.loc 1 3047 26
	ld	a3,-48(s0)
	ld	a4,-32(s0)
	mv	a5,a4
	slli	a5,a5,1
	add	a5,a5,a4
	slli	a5,a5,3
	add	a5,a3,a5
	.loc 1 3047 14
	ld	a5,8(a5)
	sd	a5,-24(s0)
	.loc 1 3048 7
	j	.L315
.L314:
	.loc 1 3045 43 discriminator 2
	ld	a5,-32(s0)
	addi	a5,a5,1
	sd	a5,-32(s0)
.L313:
	.loc 1 3045 25 discriminator 1
	ld	a5,-56(s0)
	ld	a4,-32(s0)
	bltu	a4,a5,.L316
.L315:
	.loc 1 3052 6
	la	a5,gBS
	ld	a5,0(a5)
	ld	a5,72(a5)
	.loc 1 3052 3
	ld	a4,-48(s0)
	mv	a0,a4
	jalr	a5
.LVL64:
	.loc 1 3053 10
	ld	a5,-24(s0)
.L317:
	.loc 1 3054 1
	mv	a0,a5
	ld	ra,72(sp)
	.cfi_restore 1
	ld	s0,64(sp)
	.cfi_restore 8
	.cfi_def_cfa 2, 80
	addi	sp,sp,80
	.cfi_def_cfa_offset 0
	jr	ra
	.cfi_endproc
.LFE49:
	.size	NetLibGetNicHandle, .-NetLibGetNicHandle
	.section	.text.NetLibAsciiStrToIp4,"ax",@progbits
	.align	1
	.globl	NetLibAsciiStrToIp4
	.type	NetLibAsciiStrToIp4, @function
NetLibAsciiStrToIp4:
.LFB50:
	.loc 1 3072 1
	.cfi_startproc
	addi	sp,sp,-48
	.cfi_def_cfa_offset 48
	sd	ra,40(sp)
	sd	s0,32(sp)
	.cfi_offset 1, -8
	.cfi_offset 8, -16
	addi	s0,sp,48
	.cfi_def_cfa 8, 0
	sd	a0,-40(s0)
	sd	a1,-48(s0)
	.loc 1 3076 12
	addi	a5,s0,-32
	li	a3,0
	ld	a2,-48(s0)
	mv	a1,a5
	ld	a0,-40(s0)
	call	AsciiStrToIpv4Address@plt
	sd	a0,-24(s0)
	.loc 1 3077 34
	ld	a5,-24(s0)
	.loc 1 3077 6
	blt	a5,zero,.L319
	.loc 1 3077 64 discriminator 1
	ld	a5,-32(s0)
	lbu	a5,0(a5)
	.loc 1 3077 60 discriminator 1
	beq	a5,zero,.L320
.L319:
	.loc 1 3078 12
	li	a5,-1
	slli	a5,a5,63
	addi	a5,a5,2
	j	.L322
.L320:
	.loc 1 3080 12
	li	a5,0
.L322:
	.loc 1 3082 1
	mv	a0,a5
	ld	ra,40(sp)
	.cfi_restore 1
	ld	s0,32(sp)
	.cfi_restore 8
	.cfi_def_cfa 2, 48
	addi	sp,sp,48
	.cfi_def_cfa_offset 0
	jr	ra
	.cfi_endproc
.LFE50:
	.size	NetLibAsciiStrToIp4, .-NetLibAsciiStrToIp4
	.section	.text.NetLibAsciiStrToIp6,"ax",@progbits
	.align	1
	.globl	NetLibAsciiStrToIp6
	.type	NetLibAsciiStrToIp6, @function
NetLibAsciiStrToIp6:
.LFB51:
	.loc 1 3101 1
	.cfi_startproc
	addi	sp,sp,-48
	.cfi_def_cfa_offset 48
	sd	ra,40(sp)
	sd	s0,32(sp)
	.cfi_offset 1, -8
	.cfi_offset 8, -16
	addi	s0,sp,48
	.cfi_def_cfa 8, 0
	sd	a0,-40(s0)
	sd	a1,-48(s0)
	.loc 1 3105 12
	addi	a5,s0,-32
	li	a3,0
	ld	a2,-48(s0)
	mv	a1,a5
	ld	a0,-40(s0)
	call	AsciiStrToIpv6Address@plt
	sd	a0,-24(s0)
	.loc 1 3106 34
	ld	a5,-24(s0)
	.loc 1 3106 6
	blt	a5,zero,.L324
	.loc 1 3106 64 discriminator 1
	ld	a5,-32(s0)
	lbu	a5,0(a5)
	.loc 1 3106 60 discriminator 1
	beq	a5,zero,.L325
.L324:
	.loc 1 3107 12
	li	a5,-1
	slli	a5,a5,63
	addi	a5,a5,2
	j	.L327
.L325:
	.loc 1 3109 12
	li	a5,0
.L327:
	.loc 1 3111 1
	mv	a0,a5
	ld	ra,40(sp)
	.cfi_restore 1
	ld	s0,32(sp)
	.cfi_restore 8
	.cfi_def_cfa 2, 48
	addi	sp,sp,48
	.cfi_def_cfa_offset 0
	jr	ra
	.cfi_endproc
.LFE51:
	.size	NetLibAsciiStrToIp6, .-NetLibAsciiStrToIp6
	.section	.text.NetLibStrToIp4,"ax",@progbits
	.align	1
	.globl	NetLibStrToIp4
	.type	NetLibStrToIp4, @function
NetLibStrToIp4:
.LFB52:
	.loc 1 3129 1
	.cfi_startproc
	addi	sp,sp,-48
	.cfi_def_cfa_offset 48
	sd	ra,40(sp)
	sd	s0,32(sp)
	.cfi_offset 1, -8
	.cfi_offset 8, -16
	addi	s0,sp,48
	.cfi_def_cfa 8, 0
	sd	a0,-40(s0)
	sd	a1,-48(s0)
	.loc 1 3133 12
	addi	a5,s0,-32
	li	a3,0
	ld	a2,-48(s0)
	mv	a1,a5
	ld	a0,-40(s0)
	call	StrToIpv4Address@plt
	sd	a0,-24(s0)
	.loc 1 3134 34
	ld	a5,-24(s0)
	.loc 1 3134 6
	blt	a5,zero,.L329
	.loc 1 3134 64 discriminator 1
	ld	a5,-32(s0)
	lhu	a5,0(a5)
	.loc 1 3134 60 discriminator 1
	beq	a5,zero,.L330
.L329:
	.loc 1 3135 12
	li	a5,-1
	slli	a5,a5,63
	addi	a5,a5,2
	j	.L332
.L330:
	.loc 1 3137 12
	li	a5,0
.L332:
	.loc 1 3139 1
	mv	a0,a5
	ld	ra,40(sp)
	.cfi_restore 1
	ld	s0,32(sp)
	.cfi_restore 8
	.cfi_def_cfa 2, 48
	addi	sp,sp,48
	.cfi_def_cfa_offset 0
	jr	ra
	.cfi_endproc
.LFE52:
	.size	NetLibStrToIp4, .-NetLibStrToIp4
	.section	.text.NetLibStrToIp6,"ax",@progbits
	.align	1
	.globl	NetLibStrToIp6
	.type	NetLibStrToIp6, @function
NetLibStrToIp6:
.LFB53:
	.loc 1 3158 1
	.cfi_startproc
	addi	sp,sp,-48
	.cfi_def_cfa_offset 48
	sd	ra,40(sp)
	sd	s0,32(sp)
	.cfi_offset 1, -8
	.cfi_offset 8, -16
	addi	s0,sp,48
	.cfi_def_cfa 8, 0
	sd	a0,-40(s0)
	sd	a1,-48(s0)
	.loc 1 3162 12
	addi	a5,s0,-32
	li	a3,0
	ld	a2,-48(s0)
	mv	a1,a5
	ld	a0,-40(s0)
	call	StrToIpv6Address@plt
	sd	a0,-24(s0)
	.loc 1 3163 34
	ld	a5,-24(s0)
	.loc 1 3163 6
	blt	a5,zero,.L334
	.loc 1 3163 64 discriminator 1
	ld	a5,-32(s0)
	lhu	a5,0(a5)
	.loc 1 3163 60 discriminator 1
	beq	a5,zero,.L335
.L334:
	.loc 1 3164 12
	li	a5,-1
	slli	a5,a5,63
	addi	a5,a5,2
	j	.L337
.L335:
	.loc 1 3166 12
	li	a5,0
.L337:
	.loc 1 3168 1
	mv	a0,a5
	ld	ra,40(sp)
	.cfi_restore 1
	ld	s0,32(sp)
	.cfi_restore 8
	.cfi_def_cfa 2, 48
	addi	sp,sp,48
	.cfi_def_cfa_offset 0
	jr	ra
	.cfi_endproc
.LFE53:
	.size	NetLibStrToIp6, .-NetLibStrToIp6
	.section	.text.NetLibStrToIp6andPrefix,"ax",@progbits
	.align	1
	.globl	NetLibStrToIp6andPrefix
	.type	NetLibStrToIp6andPrefix, @function
NetLibStrToIp6andPrefix:
.LFB54:
	.loc 1 3190 1
	.cfi_startproc
	addi	sp,sp,-64
	.cfi_def_cfa_offset 64
	sd	ra,56(sp)
	sd	s0,48(sp)
	.cfi_offset 1, -8
	.cfi_offset 8, -16
	addi	s0,sp,64
	.cfi_def_cfa 8, 0
	sd	a0,-40(s0)
	sd	a1,-48(s0)
	sd	a2,-56(s0)
	.loc 1 3194 12
	addi	a5,s0,-32
	ld	a3,-56(s0)
	ld	a2,-48(s0)
	mv	a1,a5
	ld	a0,-40(s0)
	call	StrToIpv6Address@plt
	sd	a0,-24(s0)
	.loc 1 3195 34
	ld	a5,-24(s0)
	.loc 1 3195 6
	blt	a5,zero,.L339
	.loc 1 3195 64 discriminator 1
	ld	a5,-32(s0)
	lhu	a5,0(a5)
	.loc 1 3195 60 discriminator 1
	beq	a5,zero,.L340
.L339:
	.loc 1 3196 12
	li	a5,-1
	slli	a5,a5,63
	addi	a5,a5,2
	j	.L342
.L340:
	.loc 1 3198 12
	li	a5,0
.L342:
	.loc 1 3200 1
	mv	a0,a5
	ld	ra,56(sp)
	.cfi_restore 1
	ld	s0,48(sp)
	.cfi_restore 8
	.cfi_def_cfa 2, 64
	addi	sp,sp,64
	.cfi_def_cfa_offset 0
	jr	ra
	.cfi_endproc
.LFE54:
	.size	NetLibStrToIp6andPrefix, .-NetLibStrToIp6andPrefix
	.section	.rodata
	.align	3
.LC14:
	.string	"%"
	.string	"x"
	.zero	2
	.section	.text.NetLibIp6ToStr,"ax",@progbits
	.align	1
	.globl	NetLibIp6ToStr
	.type	NetLibIp6ToStr, @function
NetLibIp6ToStr:
.LFB55:
	.loc 1 3223 1
	.cfi_startproc
	addi	sp,sp,-192
	.cfi_def_cfa_offset 192
	sd	ra,184(sp)
	sd	s0,176(sp)
	.cfi_offset 1, -8
	.cfi_offset 8, -16
	addi	s0,sp,192
	.cfi_def_cfa 8, 0
	sd	a0,-168(s0)
	sd	a1,-176(s0)
	sd	a2,-184(s0)
	.loc 1 3233 6
	ld	a5,-168(s0)
	beq	a5,zero,.L344
	.loc 1 3233 36 discriminator 1
	ld	a5,-176(s0)
	beq	a5,zero,.L344
	.loc 1 3233 64 discriminator 2
	ld	a5,-184(s0)
	bne	a5,zero,.L345
.L344:
	.loc 1 3234 12
	li	a5,-1
	slli	a5,a5,63
	addi	a5,a5,2
	j	.L366
.L345:
	.loc 1 3240 3
	addi	a5,s0,-80
	li	a1,16
	mv	a0,a5
	call	ZeroMem@plt
	.loc 1 3241 14
	sd	zero,-24(s0)
	.loc 1 3241 3
	j	.L347
.L348:
	.loc 1 3242 19
	ld	a5,-24(s0)
	srli	a5,a5,1
	.loc 1 3242 12
	addi	a4,s0,-80
	slli	a3,a5,1
	add	a4,a3,a4
	lhu	a4,0(a4)
	slliw	a3,a4,16
	sraiw	a3,a3,16
	.loc 1 3242 44
	ld	a2,-168(s0)
	ld	a4,-24(s0)
	add	a4,a2,a4
	lbu	a4,0(a4)
	sext.w	a2,a4
	.loc 1 3242 74
	ld	a4,-24(s0)
	sext.w	a4,a4
	not	a4,a4
	sext.w	a4,a4
	slliw	a4,a4,3
	sext.w	a4,a4
	andi	a4,a4,8
	sext.w	a4,a4
	.loc 1 3242 52
	sllw	a4,a2,a4
	sext.w	a4,a4
	.loc 1 3242 24
	slliw	a4,a4,16
	sraiw	a4,a4,16
	or	a4,a3,a4
	slliw	a4,a4,16
	sraiw	a4,a4,16
	slli	a4,a4,48
	srli	a4,a4,48
	addi	a3,s0,-80
	slli	a5,a5,1
	add	a5,a5,a3
	sh	a4,0(a5)
	.loc 1 3241 36 discriminator 3
	ld	a5,-24(s0)
	addi	a5,a5,1
	sd	a5,-24(s0)
.L347:
	.loc 1 3241 25 discriminator 1
	ld	a4,-24(s0)
	li	a5,15
	bleu	a4,a5,.L348
	.loc 1 3248 21
	li	a5,-1
	sd	a5,-48(s0)
	.loc 1 3249 22
	sd	zero,-56(s0)
	.loc 1 3250 21
	li	a5,-1
	sd	a5,-32(s0)
	.loc 1 3251 22
	sd	zero,-40(s0)
	.loc 1 3252 14
	sd	zero,-24(s0)
	.loc 1 3252 3
	j	.L349
.L355:
	.loc 1 3253 16
	ld	a4,-24(s0)
	addi	a5,s0,-80
	slli	a4,a4,1
	add	a5,a4,a5
	lhu	a5,0(a5)
	.loc 1 3253 8
	bne	a5,zero,.L350
	.loc 1 3254 10
	ld	a4,-48(s0)
	li	a5,-1
	bne	a4,a5,.L351
	.loc 1 3255 27
	ld	a5,-24(s0)
	sd	a5,-48(s0)
	.loc 1 3256 28
	li	a5,1
	sd	a5,-56(s0)
	j	.L352
.L351:
	.loc 1 3258 27
	ld	a5,-56(s0)
	addi	a5,a5,1
	sd	a5,-56(s0)
	j	.L352
.L350:
	.loc 1 3261 10
	ld	a4,-48(s0)
	li	a5,-1
	beq	a4,a5,.L352
	.loc 1 3262 12
	ld	a4,-56(s0)
	li	a5,2
	bleu	a4,a5,.L353
	.loc 1 3262 38 discriminator 1
	ld	a4,-32(s0)
	li	a5,-1
	beq	a4,a5,.L354
	.loc 1 3262 80 discriminator 2
	ld	a4,-56(s0)
	ld	a5,-40(s0)
	bleu	a4,a5,.L353
.L354:
	.loc 1 3263 29
	ld	a5,-48(s0)
	sd	a5,-32(s0)
	.loc 1 3264 30
	ld	a5,-56(s0)
	sd	a5,-40(s0)
.L353:
	.loc 1 3267 27
	li	a5,-1
	sd	a5,-48(s0)
	.loc 1 3268 28
	sd	zero,-56(s0)
.L352:
	.loc 1 3252 35 discriminator 2
	ld	a5,-24(s0)
	addi	a5,a5,1
	sd	a5,-24(s0)
.L349:
	.loc 1 3252 25 discriminator 1
	ld	a4,-24(s0)
	li	a5,7
	bleu	a4,a5,.L355
	.loc 1 3273 6
	ld	a4,-48(s0)
	li	a5,-1
	beq	a4,a5,.L356
	.loc 1 3273 43 discriminator 1
	ld	a4,-56(s0)
	li	a5,2
	bleu	a4,a5,.L356
	.loc 1 3274 8
	ld	a4,-32(s0)
	li	a5,-1
	beq	a4,a5,.L357
	.loc 1 3274 45 discriminator 1
	ld	a4,-40(s0)
	ld	a5,-56(s0)
	bgeu	a4,a5,.L356
.L357:
	.loc 1 3275 25
	ld	a5,-48(s0)
	sd	a5,-32(s0)
	.loc 1 3276 26
	ld	a5,-56(s0)
	sd	a5,-40(s0)
.L356:
	.loc 1 3280 7
	addi	a5,s0,-160
	sd	a5,-64(s0)
	.loc 1 3281 14
	sd	zero,-24(s0)
	.loc 1 3281 3
	j	.L358
.L363:
	.loc 1 3282 8
	ld	a4,-32(s0)
	li	a5,-1
	beq	a4,a5,.L359
	.loc 1 3282 45 discriminator 1
	ld	a4,-24(s0)
	ld	a5,-32(s0)
	bltu	a4,a5,.L359
	.loc 1 3282 107 discriminator 2
	ld	a4,-32(s0)
	ld	a5,-40(s0)
	add	a5,a4,a5
	.loc 1 3282 77 discriminator 2
	ld	a4,-24(s0)
	bgeu	a4,a5,.L359
	.loc 1 3283 10
	ld	a4,-24(s0)
	ld	a5,-32(s0)
	bne	a4,a5,.L367
	.loc 1 3284 13
	ld	a5,-64(s0)
	addi	a4,a5,2
	sd	a4,-64(s0)
	.loc 1 3284 16
	li	a4,58
	sh	a4,0(a5)
	.loc 1 3287 7
	j	.L367
.L359:
	.loc 1 3290 8
	ld	a5,-24(s0)
	beq	a5,zero,.L362
	.loc 1 3291 11
	ld	a5,-64(s0)
	addi	a4,a5,2
	sd	a4,-64(s0)
	.loc 1 3291 14
	li	a4,58
	sh	a4,0(a5)
.L362:
	.loc 1 3294 50
	ld	a4,-24(s0)
	addi	a5,s0,-80
	slli	a4,a4,1
	add	a5,a4,a5
	lhu	a5,0(a5)
	.loc 1 3294 12
	sext.w	a5,a5
	mv	a3,a5
	lla	a2,.LC14
	li	a1,10
	ld	a0,-64(s0)
	call	UnicodeSPrint@plt
	mv	a5,a0
	.loc 1 3294 9 discriminator 1
	slli	a5,a5,1
	ld	a4,-64(s0)
	add	a5,a4,a5
	sd	a5,-64(s0)
	j	.L361
.L367:
	.loc 1 3287 7
	nop
.L361:
	.loc 1 3281 35 discriminator 2
	ld	a5,-24(s0)
	addi	a5,a5,1
	sd	a5,-24(s0)
.L358:
	.loc 1 3281 25 discriminator 1
	ld	a4,-24(s0)
	li	a5,7
	bleu	a4,a5,.L363
	.loc 1 3297 6
	ld	a4,-32(s0)
	li	a5,-1
	beq	a4,a5,.L364
	.loc 1 3297 65 discriminator 1
	ld	a4,-32(s0)
	ld	a5,-40(s0)
	add	a4,a4,a5
	.loc 1 3297 43 discriminator 1
	li	a5,8
	bne	a4,a5,.L364
	.loc 1 3298 9
	ld	a5,-64(s0)
	addi	a4,a5,2
	sd	a4,-64(s0)
	.loc 1 3298 12
	li	a4,58
	sh	a4,0(a5)
.L364:
	.loc 1 3301 8
	ld	a5,-64(s0)
	sh	zero,0(a5)
	.loc 1 3303 7
	ld	a4,-64(s0)
	.loc 1 3303 20
	addi	a5,s0,-160
	.loc 1 3303 18
	sub	a5,a4,a5
	.loc 1 3303 6
	ld	a4,-184(s0)
	bgeu	a4,a5,.L365
	.loc 1 3304 12
	li	a5,-1
	slli	a5,a5,63
	addi	a5,a5,5
	j	.L366
.L365:
	.loc 1 3307 31
	ld	a5,-184(s0)
	srli	a5,a5,1
	.loc 1 3307 3
	addi	a4,s0,-160
	mv	a2,a4
	mv	a1,a5
	ld	a0,-176(s0)
	call	StrCpyS@plt
	.loc 1 3309 10
	li	a5,0
.L366:
	.loc 1 3310 1
	mv	a0,a5
	ld	ra,184(sp)
	.cfi_restore 1
	ld	s0,176(sp)
	.cfi_restore 8
	.cfi_def_cfa 2, 192
	addi	sp,sp,192
	.cfi_def_cfa_offset 0
	jr	ra
	.cfi_endproc
.LFE55:
	.size	NetLibIp6ToStr, .-NetLibIp6ToStr
	.section	.text.NetLibGetSystemGuid,"ax",@progbits
	.align	1
	.globl	NetLibGetSystemGuid
	.type	NetLibGetSystemGuid, @function
NetLibGetSystemGuid:
.LFB56:
	.loc 1 3328 1
	.cfi_startproc
	addi	sp,sp,-80
	.cfi_def_cfa_offset 80
	sd	ra,72(sp)
	sd	s0,64(sp)
	.cfi_offset 1, -8
	.cfi_offset 8, -16
	addi	s0,sp,80
	.cfi_def_cfa 8, 0
	sd	a0,-72(s0)
	.loc 1 3338 15
	sd	zero,-40(s0)
	.loc 1 3339 12
	addi	a5,s0,-48
	mv	a1,a5
	la	a0,gEfiSmbios3TableGuid
	call	EfiGetSystemConfigurationTable@plt
	sd	a0,-32(s0)
	.loc 1 3340 36
	ld	a5,-32(s0)
	.loc 1 3340 6
	blt	a5,zero,.L369
	.loc 1 3340 80 discriminator 1
	ld	a5,-48(s0)
	.loc 1 3340 7 discriminator 1
	beq	a5,zero,.L369
	.loc 1 3341 58
	ld	a5,-48(s0)
	lbu	a4,16(a5)
	lbu	a3,17(a5)
	slli	a3,a3,8
	or	a4,a3,a4
	lbu	a3,18(a5)
	slli	a3,a3,16
	or	a4,a3,a4
	lbu	a3,19(a5)
	slli	a3,a3,24
	or	a4,a3,a4
	lbu	a3,20(a5)
	slli	a3,a3,32
	or	a4,a3,a4
	lbu	a3,21(a5)
	slli	a3,a3,40
	or	a4,a3,a4
	lbu	a3,22(a5)
	slli	a3,a3,48
	or	a4,a3,a4
	lbu	a5,23(a5)
	slli	a5,a5,56
	or	a5,a5,a4
	.loc 1 3341 16
	sd	a5,-56(s0)
	.loc 1 3342 51
	ld	a5,-48(s0)
	lbu	a4,16(a5)
	lbu	a3,17(a5)
	slli	a3,a3,8
	or	a4,a3,a4
	lbu	a3,18(a5)
	slli	a3,a3,16
	or	a4,a3,a4
	lbu	a3,19(a5)
	slli	a3,a3,24
	or	a4,a3,a4
	lbu	a3,20(a5)
	slli	a3,a3,32
	or	a4,a3,a4
	lbu	a3,21(a5)
	slli	a3,a3,40
	or	a4,a3,a4
	lbu	a3,22(a5)
	slli	a3,a3,48
	or	a4,a3,a4
	lbu	a5,23(a5)
	slli	a5,a5,56
	or	a5,a5,a4
	mv	a2,a5
	.loc 1 3342 81
	ld	a5,-48(s0)
	lbu	a4,12(a5)
	lbu	a3,13(a5)
	slli	a3,a3,8
	or	a4,a3,a4
	lbu	a3,14(a5)
	slli	a3,a3,16
	or	a4,a3,a4
	lbu	a5,15(a5)
	slli	a5,a5,24
	or	a5,a5,a4
	sext.w	a5,a5
	slli	a5,a5,32
	srli	a5,a5,32
	.loc 1 3342 66
	add	a5,a2,a5
	.loc 1 3342 19
	sd	a5,-64(s0)
	j	.L381
.L369:
	.loc 1 3344 14
	addi	a5,s0,-40
	mv	a1,a5
	la	a0,gEfiSmbiosTableGuid
	call	EfiGetSystemConfigurationTable@plt
	sd	a0,-32(s0)
	.loc 1 3345 36
	ld	a5,-32(s0)
	.loc 1 3345 8
	blt	a5,zero,.L371
	.loc 1 3345 78 discriminator 1
	ld	a5,-40(s0)
	.loc 1 3345 62 discriminator 1
	bne	a5,zero,.L372
.L371:
	.loc 1 3346 14
	li	a5,-1
	slli	a5,a5,63
	addi	a5,a5,14
	j	.L382
.L372:
	.loc 1 3349 56
	ld	a5,-40(s0)
	lbu	a4,24(a5)
	lbu	a3,25(a5)
	slli	a3,a3,8
	or	a4,a3,a4
	lbu	a3,26(a5)
	slli	a3,a3,16
	or	a4,a3,a4
	lbu	a5,27(a5)
	slli	a5,a5,24
	or	a5,a5,a4
	sext.w	a5,a5
	.loc 1 3349 38
	slli	a5,a5,32
	srli	a5,a5,32
	.loc 1 3349 16
	sd	a5,-56(s0)
	.loc 1 3350 49
	ld	a5,-40(s0)
	lbu	a4,24(a5)
	lbu	a3,25(a5)
	slli	a3,a3,8
	or	a4,a3,a4
	lbu	a3,26(a5)
	slli	a3,a3,16
	or	a4,a3,a4
	lbu	a5,27(a5)
	slli	a5,a5,24
	or	a5,a5,a4
	sext.w	a5,a5
	.loc 1 3350 31
	slli	a4,a5,32
	srli	a4,a4,32
	.loc 1 3350 77
	ld	a5,-40(s0)
	lbu	a3,22(a5)
	lbu	a5,23(a5)
	slli	a5,a5,8
	or	a5,a5,a3
	slli	a5,a5,48
	srli	a5,a5,48
	.loc 1 3350 64
	add	a5,a4,a5
	.loc 1 3350 19
	sd	a5,-64(s0)
.L381:
	.loc 1 3354 15
	ld	a5,-56(s0)
	.loc 1 3354 19
	lbu	a5,0(a5)
	.loc 1 3354 8
	mv	a4,a5
	li	a5,1
	bne	a4,a5,.L374
	.loc 1 3355 17
	ld	a5,-56(s0)
	.loc 1 3355 21
	lbu	a5,1(a5)
	.loc 1 3355 10
	mv	a4,a5
	li	a5,24
	bgtu	a4,a5,.L375
	.loc 1 3359 16
	li	a5,-1
	slli	a5,a5,63
	addi	a5,a5,14
	j	.L382
.L375:
	.loc 1 3366 35
	ld	a5,-56(s0)
	.loc 1 3366 28
	addi	a5,a5,8
	.loc 1 3366 7
	li	a2,16
	mv	a1,a5
	ld	a0,-72(s0)
	call	CopyMem@plt
	.loc 1 3367 14
	li	a5,0
	j	.L382
.L374:
	.loc 1 3379 30
	ld	a5,-56(s0)
	.loc 1 3379 43
	ld	a4,-56(s0)
	.loc 1 3379 47
	lbu	a4,1(a4)
	.loc 1 3379 12
	add	a5,a5,a4
	sd	a5,-24(s0)
	.loc 1 3389 7
	j	.L376
.L377:
	.loc 1 3389 35 discriminator 2
	ld	a5,-24(s0)
	addi	a5,a5,1
	sd	a5,-24(s0)
.L376:
	.loc 1 3389 15 discriminator 1
	ld	a5,-24(s0)
	lbu	a5,0(a5)
	.loc 1 3389 23 discriminator 1
	bne	a5,zero,.L377
	.loc 1 3392 10
	ld	a5,-24(s0)
	addi	a5,a5,1
	sd	a5,-24(s0)
	.loc 1 3392 11
	ld	a5,-24(s0)
	lbu	a5,0(a5)
	.loc 1 3392 10
	bne	a5,zero,.L376
	.loc 1 3396 20
	ld	a5,-24(s0)
	addi	a5,a5,1
	sd	a5,-24(s0)
	ld	a5,-24(s0)
	sd	a5,-56(s0)
	.loc 1 3397 9
	nop
	.loc 1 3400 18
	ld	a4,-56(s0)
	.loc 1 3400 34
	ld	a5,-64(s0)
	.loc 1 3400 23
	bltu	a4,a5,.L381
	.loc 1 3402 10
	li	a5,-1
	slli	a5,a5,63
	addi	a5,a5,14
.L382:
	.loc 1 3403 1
	mv	a0,a5
	ld	ra,72(sp)
	.cfi_restore 1
	ld	s0,64(sp)
	.cfi_restore 8
	.cfi_def_cfa 2, 80
	addi	sp,sp,80
	.cfi_def_cfa_offset 0
	jr	ra
	.cfi_endproc
.LFE56:
	.size	NetLibGetSystemGuid, .-NetLibGetSystemGuid
	.section	.text.NetLibCreateDnsQName,"ax",@progbits
	.align	1
	.globl	NetLibCreateDnsQName
	.type	NetLibCreateDnsQName, @function
NetLibCreateDnsQName:
.LFB57:
	.loc 1 3427 1
	.cfi_startproc
	addi	sp,sp,-80
	.cfi_def_cfa_offset 80
	sd	ra,72(sp)
	sd	s0,64(sp)
	.cfi_offset 1, -8
	.cfi_offset 8, -16
	addi	s0,sp,80
	.cfi_def_cfa 8, 0
	sd	a0,-72(s0)
	.loc 1 3437 13
	sd	zero,-56(s0)
	.loc 1 3438 17
	sd	zero,-64(s0)
	.loc 1 3439 10
	sd	zero,-24(s0)
	.loc 1 3440 8
	sd	zero,-32(s0)
	.loc 1 3445 19
	ld	a0,-72(s0)
	call	StrLen@plt
	mv	a5,a0
	.loc 1 3445 17 discriminator 1
	addi	a5,a5,2
	sd	a5,-64(s0)
	.loc 1 3447 6
	ld	a4,-64(s0)
	li	a5,255
	bleu	a4,a5,.L385
	.loc 1 3448 12
	li	a5,0
	j	.L386
.L385:
	.loc 1 3451 15
	ld	a0,-64(s0)
	call	AllocateZeroPool@plt
	sd	a0,-56(s0)
	.loc 1 3452 6
	ld	a5,-56(s0)
	bne	a5,zero,.L387
	.loc 1 3453 12
	li	a5,0
	j	.L386
.L387:
	.loc 1 3456 10
	ld	a5,-56(s0)
	sd	a5,-24(s0)
	.loc 1 3457 8
	ld	a5,-24(s0)
	addi	a5,a5,1
	sd	a5,-32(s0)
	.loc 1 3458 7
	sd	zero,-40(s0)
	.loc 1 3459 14
	sd	zero,-48(s0)
	.loc 1 3459 3
	j	.L388
.L391:
	.loc 1 3460 30
	ld	a5,-48(s0)
	slli	a5,a5,1
	ld	a4,-72(s0)
	add	a5,a4,a5
	lhu	a5,0(a5)
	.loc 1 3460 13
	andi	a4,a5,0xff
	.loc 1 3460 11
	ld	a5,-32(s0)
	sb	a4,0(a5)
	.loc 1 3461 9
	ld	a5,-32(s0)
	lbu	a5,0(a5)
	.loc 1 3461 8
	mv	a4,a5
	li	a5,46
	bne	a4,a5,.L389
	.loc 1 3462 17
	ld	a5,-40(s0)
	andi	a4,a5,0xff
	.loc 1 3462 15
	ld	a5,-24(s0)
	sb	a4,0(a5)
	.loc 1 3463 14
	ld	a5,-32(s0)
	sd	a5,-24(s0)
	.loc 1 3464 11
	ld	a5,-32(s0)
	addi	a5,a5,1
	sd	a5,-32(s0)
	.loc 1 3465 11
	sd	zero,-40(s0)
	j	.L390
.L389:
	.loc 1 3467 11
	ld	a5,-32(s0)
	addi	a5,a5,1
	sd	a5,-32(s0)
	.loc 1 3468 10
	ld	a5,-40(s0)
	addi	a5,a5,1
	sd	a5,-40(s0)
.L390:
	.loc 1 3459 48 discriminator 2
	ld	a5,-48(s0)
	addi	a5,a5,1
	sd	a5,-48(s0)
.L388:
	.loc 1 3459 29 discriminator 1
	ld	a5,-48(s0)
	slli	a5,a5,1
	ld	a4,-72(s0)
	add	a5,a4,a5
	lhu	a5,0(a5)
	.loc 1 3459 37 discriminator 1
	bne	a5,zero,.L391
	.loc 1 3472 13
	ld	a5,-40(s0)
	andi	a4,a5,0xff
	.loc 1 3472 11
	ld	a5,-24(s0)
	sb	a4,0(a5)
	.loc 1 3473 9
	ld	a5,-32(s0)
	sb	zero,0(a5)
	.loc 1 3475 10
	ld	a5,-56(s0)
.L386:
	.loc 1 3476 1
	mv	a0,a5
	ld	ra,72(sp)
	.cfi_restore 1
	ld	s0,64(sp)
	.cfi_restore 8
	.cfi_def_cfa 2, 80
	addi	sp,sp,80
	.cfi_def_cfa_offset 0
	jr	ra
	.cfi_endproc
.LFE57:
	.size	NetLibCreateDnsQName, .-NetLibCreateDnsQName
	.text
.Letext0:
	.file 2 "/home/kapoagaeming/spacemit-image-builder/components/edk2/MdePkg/Include/RiscV64/ProcessorBind.h"
	.file 3 "/home/kapoagaeming/spacemit-image-builder/components/edk2/MdePkg/Include/Base.h"
	.file 4 "/home/kapoagaeming/spacemit-image-builder/components/edk2/MdePkg/Include/Uefi/UefiBaseType.h"
	.file 5 "/home/kapoagaeming/spacemit-image-builder/components/edk2/MdePkg/Include/Uefi/UefiMultiPhase.h"
	.file 6 "/home/kapoagaeming/spacemit-image-builder/components/edk2/MdePkg/Include/Protocol/DevicePath.h"
	.file 7 "/home/kapoagaeming/spacemit-image-builder/components/edk2/MdePkg/Include/Uefi/UefiSpec.h"
	.file 8 "/home/kapoagaeming/spacemit-image-builder/components/Build/Milk-V-Jupiter/RELEASE_GCC5/RISCV64/NetworkPkg/Library/DxeNetLib/DxeNetLib/DEBUG/AutoGen.h"
	.file 9 "/home/kapoagaeming/spacemit-image-builder/components/edk2/MdePkg/Include/IndustryStandard/SmBios.h"
	.file 10 "/home/kapoagaeming/spacemit-image-builder/components/edk2/MdePkg/Include/Protocol/DriverBinding.h"
	.file 11 "/home/kapoagaeming/spacemit-image-builder/components/edk2/MdePkg/Include/Protocol/ServiceBinding.h"
	.file 12 "/home/kapoagaeming/spacemit-image-builder/components/edk2/MdePkg/Include/Protocol/SimpleNetwork.h"
	.file 13 "/home/kapoagaeming/spacemit-image-builder/components/edk2/MdePkg/Include/Protocol/AdapterInformation.h"
	.file 14 "/home/kapoagaeming/spacemit-image-builder/components/edk2/MdePkg/Include/Protocol/ManagedNetwork.h"
	.file 15 "/home/kapoagaeming/spacemit-image-builder/components/edk2/MdePkg/Include/Protocol/Ip4Config2.h"
	.file 16 "/home/kapoagaeming/spacemit-image-builder/components/edk2/MdePkg/Include/Protocol/ComponentName.h"
	.file 17 "/home/kapoagaeming/spacemit-image-builder/components/edk2/MdePkg/Include/Protocol/ComponentName2.h"
	.file 18 "/home/kapoagaeming/spacemit-image-builder/components/edk2/NetworkPkg/Include/Library/NetLib.h"
	.file 19 "/home/kapoagaeming/spacemit-image-builder/components/edk2/MdePkg/Include/Library/UefiBootServicesTableLib.h"
	.file 20 "/home/kapoagaeming/spacemit-image-builder/components/edk2/MdePkg/Include/Library/UefiRuntimeServicesTableLib.h"
	.file 21 "/home/kapoagaeming/spacemit-image-builder/components/edk2/MdePkg/Include/Guid/Rng.h"
	.file 22 "/home/kapoagaeming/spacemit-image-builder/components/edk2/MdePkg/Include/Protocol/Rng.h"
	.file 23 "/home/kapoagaeming/spacemit-image-builder/components/edk2/MdePkg/Include/Library/BaseLib.h"
	.file 24 "/home/kapoagaeming/spacemit-image-builder/components/edk2/MdePkg/Include/Library/UefiLib.h"
	.file 25 "/home/kapoagaeming/spacemit-image-builder/components/edk2/MdePkg/Include/Library/PrintLib.h"
	.file 26 "/home/kapoagaeming/spacemit-image-builder/components/edk2/MdePkg/Include/Library/BaseMemoryLib.h"
	.file 27 "/home/kapoagaeming/spacemit-image-builder/components/edk2/MdePkg/Include/Library/DevicePathLib.h"
	.file 28 "/home/kapoagaeming/spacemit-image-builder/components/edk2/MdePkg/Include/Library/MemoryAllocationLib.h"
	.file 29 "/home/kapoagaeming/spacemit-image-builder/components/edk2/MdePkg/Include/Library/DebugLib.h"
	.section	.note.GNU-stack,"",@progbits
