	.file	"NetBuffer.c"
	.option pic
	.option norelax
	.attribute arch, "rv64i2p1_m2p0_a2p1_f2p2_d2p2_c2p0_zicsr2p0_zifencei2p0_zmmul1p0_zaamo1p0_zalrsc1p0_zca1p0_zcd1p0"
	.attribute unaligned_access, 0
	.attribute stack_align, 16
	.text
.Ltext0:
	.cfi_sections	.debug_frame
	.file 0 "/home/kapoagaeming/Downloads/spacemit-image-builder/components/Build/Milk-V-Jupiter/RELEASE_GCC5/RISCV64/NetworkPkg/Library/DxeNetLib/DxeNetLib" "/home/kapoagaeming/Downloads/spacemit-image-builder/components/edk2/NetworkPkg/Library/DxeNetLib/NetBuffer.c"
	.section	.text.NetbufAllocStruct,"ax",@progbits
	.align	1
	.globl	NetbufAllocStruct
	.type	NetbufAllocStruct, @function
NetbufAllocStruct:
.LFB0:
	.file 1 "/home/kapoagaeming/Downloads/spacemit-image-builder/components/edk2/NetworkPkg/Library/DxeNetLib/NetBuffer.c"
	.loc 1 36 1
	.cfi_startproc
	addi	sp,sp,-48
	.cfi_def_cfa_offset 48
	sd	ra,40(sp)
	sd	s0,32(sp)
	.cfi_offset 1, -8
	.cfi_offset 8, -16
	addi	s0,sp,48
	.cfi_def_cfa 8, 0
	mv	a5,a0
	mv	a4,a1
	sw	a5,-36(s0)
	mv	a5,a4
	sw	a5,-40(s0)
	.loc 1 45 62
	lw	a5,-40(s0)
	addiw	a5,a5,-1
	sext.w	a5,a5
	slli	a4,a5,32
	srli	a4,a4,32
	.loc 1 45 67
	mv	a5,a4
	slli	a5,a5,2
	add	a5,a5,a4
	slli	a5,a5,3
	.loc 1 45 46
	addi	a5,a5,176
	.loc 1 45 10
	mv	a0,a5
	call	AllocateZeroPool@plt
	sd	a0,-24(s0)
	.loc 1 47 6
	ld	a5,-24(s0)
	bne	a5,zero,.L2
	.loc 1 48 12
	li	a5,0
	j	.L3
.L2:
	.loc 1 51 19
	ld	a5,-24(s0)
	li	a4,1718968320
	addi	a4,a4,622
	sw	a4,0(a5)
	.loc 1 52 16
	ld	a5,-24(s0)
	li	a4,1
	sd	a4,8(a5)
	.loc 1 53 20
	ld	a5,-24(s0)
	lw	a4,-40(s0)
	sw	a4,128(a5)
	.loc 1 54 3
	ld	a5,-24(s0)
	addi	a5,a5,16
	mv	a0,a5
	call	InitializeListHead@plt
	.loc 1 56 6
	lw	a5,-36(s0)
	sext.w	a5,a5
	beq	a5,zero,.L4
	.loc 1 57 67
	lw	a5,-36(s0)
	addiw	a5,a5,-1
	sext.w	a5,a5
	slli	a5,a5,32
	srli	a5,a5,32
	.loc 1 57 53
	addi	a5,a5,4
	slli	a5,a5,4
	.loc 1 57 14
	mv	a0,a5
	call	AllocateZeroPool@plt
	sd	a0,-32(s0)
	.loc 1 59 8
	ld	a5,-32(s0)
	beq	a5,zero,.L8
	.loc 1 63 23
	ld	a5,-32(s0)
	li	a4,1667592192
	addi	a4,a4,1646
	sw	a4,0(a5)
	.loc 1 64 20
	ld	a5,-32(s0)
	li	a4,1
	sd	a4,8(a5)
	.loc 1 65 22
	ld	a5,-32(s0)
	lw	a4,-36(s0)
	sw	a4,40(a5)
	.loc 1 66 18
	ld	a5,-24(s0)
	ld	a4,-32(s0)
	sd	a4,120(a5)
.L4:
	.loc 1 69 10
	ld	a5,-24(s0)
	j	.L3
.L8:
	.loc 1 60 7
	nop
.L6:
	.loc 1 73 3
	ld	a0,-24(s0)
	call	FreePool@plt
	.loc 1 74 10
	li	a5,0
.L3:
	.loc 1 75 1
	mv	a0,a5
	ld	ra,40(sp)
	.cfi_restore 1
	ld	s0,32(sp)
	.cfi_restore 8
	.cfi_def_cfa 2, 48
	addi	sp,sp,48
	.cfi_def_cfa_offset 0
	jr	ra
	.cfi_endproc
.LFE0:
	.size	NetbufAllocStruct, .-NetbufAllocStruct
	.section	.text.NetbufAlloc,"ax",@progbits
	.align	1
	.globl	NetbufAlloc
	.type	NetbufAlloc, @function
NetbufAlloc:
.LFB1:
	.loc 1 92 1
	.cfi_startproc
	addi	sp,sp,-64
	.cfi_def_cfa_offset 64
	sd	ra,56(sp)
	sd	s0,48(sp)
	.cfi_offset 1, -8
	.cfi_offset 8, -16
	addi	s0,sp,64
	.cfi_def_cfa 8, 0
	mv	a5,a0
	sw	a5,-52(s0)
	.loc 1 99 10
	li	a1,1
	li	a0,1
	call	NetbufAllocStruct
	sd	a0,-24(s0)
	.loc 1 101 6
	ld	a5,-24(s0)
	bne	a5,zero,.L10
	.loc 1 102 12
	li	a5,0
	j	.L11
.L10:
	.loc 1 105 10
	lwu	a5,-52(s0)
	mv	a0,a5
	call	AllocatePool@plt
	sd	a0,-32(s0)
	.loc 1 107 6
	ld	a5,-32(s0)
	beq	a5,zero,.L15
	.loc 1 111 10
	ld	a5,-24(s0)
	ld	a5,120(a5)
	sd	a5,-40(s0)
	.loc 1 112 15
	ld	a5,-40(s0)
	lw	a4,-52(s0)
	sw	a4,36(a5)
	.loc 1 114 25
	ld	a5,-40(s0)
	ld	a4,-32(s0)
	sd	a4,56(a5)
	.loc 1 115 24
	ld	a5,-40(s0)
	lw	a4,-52(s0)
	sw	a4,48(a5)
	.loc 1 117 30
	ld	a5,-24(s0)
	ld	a4,-32(s0)
	sd	a4,136(a5)
	.loc 1 118 37
	lwu	a5,-52(s0)
	ld	a4,-32(s0)
	add	a4,a4,a5
	.loc 1 118 30
	ld	a5,-24(s0)
	sd	a4,144(a5)
	.loc 1 120 25
	ld	a5,-24(s0)
	ld	a4,-32(s0)
	sd	a4,152(a5)
	.loc 1 121 25
	ld	a5,-24(s0)
	ld	a4,-32(s0)
	sd	a4,160(a5)
	.loc 1 122 25
	ld	a5,-24(s0)
	sw	zero,168(a5)
	.loc 1 124 10
	ld	a5,-24(s0)
	j	.L11
.L15:
	.loc 1 108 5
	nop
.L13:
	.loc 1 127 3
	ld	a0,-24(s0)
	call	FreePool@plt
	.loc 1 128 10
	li	a5,0
.L11:
	.loc 1 129 1
	mv	a0,a5
	ld	ra,56(sp)
	.cfi_restore 1
	ld	s0,48(sp)
	.cfi_restore 8
	.cfi_def_cfa 2, 64
	addi	sp,sp,64
	.cfi_def_cfa_offset 0
	jr	ra
	.cfi_endproc
.LFE1:
	.size	NetbufAlloc, .-NetbufAlloc
	.section	.text.NetbufFreeVector,"ax",@progbits
	.align	1
	.globl	NetbufFreeVector
	.type	NetbufFreeVector, @function
NetbufFreeVector:
.LFB2:
	.loc 1 145 1
	.cfi_startproc
	addi	sp,sp,-48
	.cfi_def_cfa_offset 48
	sd	ra,40(sp)
	sd	s0,32(sp)
	.cfi_offset 1, -8
	.cfi_offset 8, -16
	addi	s0,sp,48
	.cfi_def_cfa 8, 0
	sd	a0,-40(s0)
	.loc 1 152 9
	ld	a5,-40(s0)
	ld	a5,8(a5)
	.loc 1 152 17
	addi	a4,a5,-1
	ld	a5,-40(s0)
	sd	a4,8(a5)
	.loc 1 154 13
	ld	a5,-40(s0)
	ld	a5,8(a5)
	.loc 1 154 6
	bgt	a5,zero,.L24
	.loc 1 158 13
	ld	a5,-40(s0)
	ld	a5,16(a5)
	.loc 1 158 6
	beq	a5,zero,.L19
	.loc 1 164 16
	ld	a5,-40(s0)
	lw	a5,32(a5)
	.loc 1 164 23
	andi	a5,a5,1
	sext.w	a5,a5
	.loc 1 164 8
	beq	a5,zero,.L20
	.loc 1 165 10
	la	a5,gBS
	ld	a5,0(a5)
	ld	a5,72(a5)
	.loc 1 165 38
	ld	a4,-40(s0)
	ld	a4,56(a4)
	.loc 1 165 7
	mv	a0,a4
	jalr	a5
.LVL0:
.L20:
	.loc 1 168 11
	ld	a5,-40(s0)
	ld	a5,16(a5)
	.loc 1 168 5
	ld	a4,-40(s0)
	ld	a4,24(a4)
	mv	a0,a4
	jalr	a5
.LVL1:
	j	.L21
.L19:
	.loc 1 173 16
	sw	zero,-20(s0)
	.loc 1 173 5
	j	.L22
.L23:
	.loc 1 174 10
	la	a5,gBS
	ld	a5,0(a5)
	ld	a4,72(a5)
	.loc 1 174 42
	ld	a3,-40(s0)
	lwu	a5,-20(s0)
	addi	a5,a5,3
	slli	a5,a5,4
	add	a5,a3,a5
	ld	a5,8(a5)
	.loc 1 174 7
	mv	a0,a5
	jalr	a4
.LVL2:
	.loc 1 173 52 discriminator 3
	lw	a5,-20(s0)
	addiw	a5,a5,1
	sw	a5,-20(s0)
.L22:
	.loc 1 173 35 discriminator 1
	ld	a5,-40(s0)
	lw	a5,40(a5)
	.loc 1 173 27 discriminator 1
	lw	a4,-20(s0)
	sext.w	a4,a4
	bltu	a4,a5,.L23
.L21:
	.loc 1 178 3
	ld	a0,-40(s0)
	call	FreePool@plt
	j	.L16
.L24:
	.loc 1 155 5
	nop
.L16:
	.loc 1 179 1
	ld	ra,40(sp)
	.cfi_restore 1
	ld	s0,32(sp)
	.cfi_restore 8
	.cfi_def_cfa 2, 48
	addi	sp,sp,48
	.cfi_def_cfa_offset 0
	jr	ra
	.cfi_endproc
.LFE2:
	.size	NetbufFreeVector, .-NetbufFreeVector
	.section	.text.NetbufFree,"ax",@progbits
	.align	1
	.globl	NetbufFree
	.type	NetbufFree, @function
NetbufFree:
.LFB3:
	.loc 1 198 1
	.cfi_startproc
	addi	sp,sp,-32
	.cfi_def_cfa_offset 32
	sd	ra,24(sp)
	sd	s0,16(sp)
	.cfi_offset 1, -8
	.cfi_offset 8, -16
	addi	s0,sp,32
	.cfi_def_cfa 8, 0
	sd	a0,-24(s0)
	.loc 1 203 7
	ld	a5,-24(s0)
	ld	a5,8(a5)
	.loc 1 203 15
	addi	a4,a5,-1
	ld	a5,-24(s0)
	sd	a4,8(a5)
	.loc 1 205 11
	ld	a5,-24(s0)
	ld	a5,8(a5)
	.loc 1 205 6
	bne	a5,zero,.L27
	.loc 1 210 5
	ld	a5,-24(s0)
	ld	a5,120(a5)
	mv	a0,a5
	call	NetbufFreeVector
	.loc 1 211 5
	ld	a0,-24(s0)
	call	FreePool@plt
.L27:
	.loc 1 213 1
	nop
	ld	ra,24(sp)
	.cfi_restore 1
	ld	s0,16(sp)
	.cfi_restore 8
	.cfi_def_cfa 2, 32
	addi	sp,sp,32
	.cfi_def_cfa_offset 0
	jr	ra
	.cfi_endproc
.LFE3:
	.size	NetbufFree, .-NetbufFree
	.section	.text.NetbufClone,"ax",@progbits
	.align	1
	.globl	NetbufClone
	.type	NetbufClone, @function
NetbufClone:
.LFB4:
	.loc 1 232 1
	.cfi_startproc
	addi	sp,sp,-48
	.cfi_def_cfa_offset 48
	sd	ra,40(sp)
	sd	s0,32(sp)
	.cfi_offset 1, -8
	.cfi_offset 8, -16
	addi	s0,sp,48
	.cfi_def_cfa 8, 0
	sd	a0,-40(s0)
	.loc 1 237 51
	ld	a5,-40(s0)
	lw	a5,128(a5)
	.loc 1 237 65
	addiw	a5,a5,-1
	sext.w	a5,a5
	slli	a4,a5,32
	srli	a4,a4,32
	.loc 1 237 70
	mv	a5,a4
	slli	a5,a5,2
	add	a5,a5,a4
	slli	a5,a5,3
	.loc 1 237 43
	addi	a5,a5,176
	.loc 1 237 11
	mv	a0,a5
	call	AllocatePool@plt
	sd	a0,-24(s0)
	.loc 1 239 6
	ld	a5,-24(s0)
	bne	a5,zero,.L29
	.loc 1 240 12
	li	a5,0
	j	.L30
.L29:
	.loc 1 243 20
	ld	a5,-24(s0)
	li	a4,1718968320
	addi	a4,a4,622
	sw	a4,0(a5)
	.loc 1 244 17
	ld	a5,-24(s0)
	li	a4,1
	sd	a4,8(a5)
	.loc 1 245 3
	ld	a5,-24(s0)
	addi	a5,a5,16
	mv	a0,a5
	call	InitializeListHead@plt
	.loc 1 247 13
	ld	a5,-24(s0)
	ld	a4,-40(s0)
	ld	a4,32(a4)
	sd	a4,32(a5)
	.loc 1 248 20
	ld	a5,-40(s0)
	ld	a4,40(a5)
	.loc 1 248 14
	ld	a5,-24(s0)
	sd	a4,40(a5)
	.loc 1 250 17
	ld	a5,-24(s0)
	addi	a4,a5,56
	.loc 1 250 34
	ld	a5,-40(s0)
	addi	a5,a5,56
	.loc 1 250 3
	li	a2,64
	mv	a1,a5
	mv	a0,a4
	call	CopyMem@plt
	.loc 1 252 9
	ld	a5,-40(s0)
	ld	a5,120(a5)
	.loc 1 252 18
	ld	a4,8(a5)
	.loc 1 252 26
	addi	a4,a4,1
	sd	a4,8(a5)
	.loc 1 254 23
	ld	a5,-40(s0)
	ld	a4,120(a5)
	.loc 1 254 17
	ld	a5,-24(s0)
	sd	a4,120(a5)
	.loc 1 255 27
	ld	a5,-40(s0)
	lw	a4,128(a5)
	.loc 1 255 21
	ld	a5,-24(s0)
	sw	a4,128(a5)
	.loc 1 256 26
	ld	a5,-40(s0)
	lw	a4,132(a5)
	.loc 1 256 20
	ld	a5,-24(s0)
	sw	a4,132(a5)
	.loc 1 257 17
	ld	a5,-24(s0)
	addi	a3,a5,136
	.loc 1 257 32
	ld	a5,-40(s0)
	addi	a1,a5,136
	.loc 1 257 71
	ld	a5,-40(s0)
	lw	a5,128(a5)
	slli	a4,a5,32
	srli	a4,a4,32
	.loc 1 257 65
	mv	a5,a4
	slli	a5,a5,2
	add	a5,a5,a4
	slli	a5,a5,3
	.loc 1 257 3
	mv	a2,a5
	mv	a0,a3
	call	CopyMem@plt
	.loc 1 259 10
	ld	a5,-24(s0)
.L30:
	.loc 1 260 1
	mv	a0,a5
	ld	ra,40(sp)
	.cfi_restore 1
	ld	s0,32(sp)
	.cfi_restore 8
	.cfi_def_cfa 2, 48
	addi	sp,sp,48
	.cfi_def_cfa_offset 0
	jr	ra
	.cfi_endproc
.LFE4:
	.size	NetbufClone, .-NetbufClone
	.section	.text.NetbufDuplicate,"ax",@progbits
	.align	1
	.globl	NetbufDuplicate
	.type	NetbufDuplicate, @function
NetbufDuplicate:
.LFB5:
	.loc 1 285 1
	.cfi_startproc
	addi	sp,sp,-64
	.cfi_def_cfa_offset 64
	sd	ra,56(sp)
	sd	s0,48(sp)
	.cfi_offset 1, -8
	.cfi_offset 8, -16
	addi	s0,sp,64
	.cfi_def_cfa 8, 0
	sd	a0,-40(s0)
	sd	a1,-48(s0)
	mv	a5,a2
	sw	a5,-52(s0)
	.loc 1 290 6
	ld	a5,-48(s0)
	bne	a5,zero,.L32
	.loc 1 291 34
	ld	a5,-40(s0)
	lw	a5,132(a5)
	.loc 1 291 17
	lw	a4,-52(s0)
	addw	a5,a4,a5
	sext.w	a5,a5
	mv	a0,a5
	call	NetbufAlloc
	sd	a0,-48(s0)
.L32:
	.loc 1 294 6
	ld	a5,-48(s0)
	bne	a5,zero,.L33
	.loc 1 295 12
	li	a5,0
	j	.L34
.L33:
	.loc 1 302 21
	ld	a5,-48(s0)
	addi	a4,a5,56
	.loc 1 302 38
	ld	a5,-40(s0)
	addi	a5,a5,56
	.loc 1 302 3
	li	a2,64
	mv	a1,a5
	mv	a0,a4
	call	CopyMem@plt
	.loc 1 303 3
	lw	a5,-52(s0)
	mv	a1,a5
	ld	a0,-48(s0)
	call	NetbufReserve
	.loc 1 305 9
	ld	a5,-40(s0)
	lw	a5,132(a5)
	li	a2,0
	mv	a1,a5
	ld	a0,-48(s0)
	call	NetbufAllocSpace
	sd	a0,-24(s0)
	.loc 1 306 3
	ld	a5,-40(s0)
	lw	a5,132(a5)
	ld	a3,-24(s0)
	mv	a2,a5
	li	a1,0
	ld	a0,-40(s0)
	call	NetbufCopy
	.loc 1 308 10
	ld	a5,-48(s0)
.L34:
	.loc 1 309 1
	mv	a0,a5
	ld	ra,56(sp)
	.cfi_restore 1
	ld	s0,48(sp)
	.cfi_restore 8
	.cfi_def_cfa 2, 64
	addi	sp,sp,64
	.cfi_def_cfa_offset 0
	jr	ra
	.cfi_endproc
.LFE5:
	.size	NetbufDuplicate, .-NetbufDuplicate
	.section	.text.NetbufFreeList,"ax",@progbits
	.align	1
	.globl	NetbufFreeList
	.type	NetbufFreeList, @function
NetbufFreeList:
.LFB6:
	.loc 1 322 1
	.cfi_startproc
	addi	sp,sp,-64
	.cfi_def_cfa_offset 64
	sd	ra,56(sp)
	sd	s0,48(sp)
	.cfi_offset 1, -8
	.cfi_offset 8, -16
	addi	s0,sp,64
	.cfi_def_cfa 8, 0
	sd	a0,-56(s0)
	.loc 1 327 9
	ld	a5,-56(s0)
	ld	a5,0(a5)
	sd	a5,-24(s0)
	.loc 1 329 13
	ld	a5,-56(s0)
	ld	a5,0(a5)
	sd	a5,-24(s0)
	.loc 1 329 41
	ld	a5,-24(s0)
	ld	a5,0(a5)
	sd	a5,-32(s0)
	.loc 1 329 3
	j	.L36
.L37:
	.loc 1 330 10
	ld	a5,-24(s0)
	addi	a5,a5,-16
	sd	a5,-40(s0)
	.loc 1 333 5
	ld	a0,-24(s0)
	call	RemoveEntryList@plt
	.loc 1 334 5
	ld	a0,-40(s0)
	call	NetbufFree
	.loc 1 329 86 discriminator 3
	ld	a5,-32(s0)
	sd	a5,-24(s0)
	.loc 1 329 99 discriminator 3
	ld	a5,-24(s0)
	ld	a5,0(a5)
	sd	a5,-32(s0)
.L36:
	.loc 1 329 69 discriminator 1
	ld	a4,-24(s0)
	ld	a5,-56(s0)
	bne	a4,a5,.L37
	.loc 1 338 1
	nop
	nop
	ld	ra,56(sp)
	.cfi_restore 1
	ld	s0,48(sp)
	.cfi_restore 8
	.cfi_def_cfa 2, 64
	addi	sp,sp,64
	.cfi_def_cfa_offset 0
	jr	ra
	.cfi_endproc
.LFE6:
	.size	NetbufFreeList, .-NetbufFreeList
	.section	.text.NetbufGetByte,"ax",@progbits
	.align	1
	.globl	NetbufGetByte
	.type	NetbufGetByte, @function
NetbufGetByte:
.LFB7:
	.loc 1 364 1
	.cfi_startproc
	addi	sp,sp,-64
	.cfi_def_cfa_offset 64
	sd	ra,56(sp)
	sd	s0,48(sp)
	.cfi_offset 1, -8
	.cfi_offset 8, -16
	addi	s0,sp,64
	.cfi_def_cfa 8, 0
	sd	a0,-40(s0)
	mv	a5,a1
	sd	a2,-56(s0)
	sw	a5,-44(s0)
	.loc 1 371 21
	ld	a5,-40(s0)
	lw	a5,132(a5)
	.loc 1 371 6
	lw	a4,-44(s0)
	sext.w	a4,a4
	bltu	a4,a5,.L39
	.loc 1 372 12
	li	a5,0
	j	.L40
.L39:
	.loc 1 375 11
	ld	a5,-40(s0)
	addi	a5,a5,136
	sd	a5,-32(s0)
	.loc 1 376 7
	sw	zero,-24(s0)
	.loc 1 378 13
	sw	zero,-20(s0)
	.loc 1 378 3
	j	.L41
.L45:
	.loc 1 379 22
	lwu	a4,-20(s0)
	mv	a5,a4
	slli	a5,a5,2
	add	a5,a5,a4
	slli	a5,a5,3
	mv	a4,a5
	ld	a5,-32(s0)
	add	a5,a5,a4
	.loc 1 379 28
	lw	a5,32(a5)
	.loc 1 379 13
	lw	a4,-24(s0)
	addw	a5,a4,a5
	sext.w	a5,a5
	.loc 1 379 8
	lw	a4,-44(s0)
	sext.w	a4,a4
	bltu	a4,a5,.L42
	.loc 1 380 21
	lwu	a4,-20(s0)
	mv	a5,a4
	slli	a5,a5,2
	add	a5,a5,a4
	slli	a5,a5,3
	mv	a4,a5
	ld	a5,-32(s0)
	add	a5,a5,a4
	.loc 1 380 27
	lw	a5,32(a5)
	.loc 1 380 11
	lw	a4,-24(s0)
	addw	a5,a4,a5
	sw	a5,-24(s0)
	.loc 1 381 7
	j	.L46
.L42:
	.loc 1 384 8
	ld	a5,-56(s0)
	beq	a5,zero,.L44
	.loc 1 385 14
	ld	a5,-56(s0)
	lw	a4,-20(s0)
	sw	a4,0(a5)
.L44:
	.loc 1 388 19
	lwu	a4,-20(s0)
	mv	a5,a4
	slli	a5,a5,2
	add	a5,a5,a4
	slli	a5,a5,3
	mv	a4,a5
	ld	a5,-32(s0)
	add	a5,a5,a4
	.loc 1 388 25
	ld	a4,16(a5)
	.loc 1 388 41
	lw	a5,-44(s0)
	mv	a3,a5
	lw	a5,-24(s0)
	subw	a5,a3,a5
	sext.w	a5,a5
	slli	a5,a5,32
	srli	a5,a5,32
	.loc 1 388 31
	add	a5,a4,a5
	j	.L40
.L46:
	.loc 1 378 47 discriminator 2
	lw	a5,-20(s0)
	addiw	a5,a5,1
	sw	a5,-20(s0)
.L41:
	.loc 1 378 29 discriminator 1
	ld	a5,-40(s0)
	lw	a5,128(a5)
	.loc 1 378 23 discriminator 1
	lw	a4,-20(s0)
	sext.w	a4,a4
	bltu	a4,a5,.L45
	.loc 1 391 10
	li	a5,0
.L40:
	.loc 1 392 1
	mv	a0,a5
	ld	ra,56(sp)
	.cfi_restore 1
	ld	s0,48(sp)
	.cfi_restore 8
	.cfi_def_cfa 2, 64
	addi	sp,sp,64
	.cfi_def_cfa_offset 0
	jr	ra
	.cfi_endproc
.LFE7:
	.size	NetbufGetByte, .-NetbufGetByte
	.section	.text.NetbufSetBlock,"ax",@progbits
	.align	1
	.globl	NetbufSetBlock
	.type	NetbufSetBlock, @function
NetbufSetBlock:
.LFB8:
	.loc 1 416 1
	.cfi_startproc
	addi	sp,sp,-64
	.cfi_def_cfa_offset 64
	sd	ra,56(sp)
	sd	s0,48(sp)
	.cfi_offset 1, -8
	.cfi_offset 8, -16
	addi	s0,sp,64
	.cfi_def_cfa 8, 0
	sd	a0,-40(s0)
	sd	a1,-48(s0)
	mv	a5,a2
	mv	a4,a3
	sw	a5,-52(s0)
	mv	a5,a4
	sw	a5,-56(s0)
	.loc 1 424 17
	ld	a5,-40(s0)
	ld	a4,120(a5)
	.loc 1 424 9
	lwu	a5,-56(s0)
	addi	a5,a5,3
	slli	a5,a5,4
	add	a5,a4,a5
	sd	a5,-24(s0)
	.loc 1 425 11
	lwu	a4,-56(s0)
	mv	a5,a4
	slli	a5,a5,2
	add	a5,a5,a4
	slli	a5,a5,3
	addi	a5,a5,128
	ld	a4,-40(s0)
	add	a5,a4,a5
	addi	a5,a5,8
	sd	a5,-32(s0)
	.loc 1 426 14
	ld	a5,-24(s0)
	lw	a4,-52(s0)
	sw	a4,0(a5)
	.loc 1 427 15
	ld	a5,-24(s0)
	ld	a4,-48(s0)
	sd	a4,8(a5)
	.loc 1 428 22
	ld	a5,-32(s0)
	ld	a4,-48(s0)
	sd	a4,0(a5)
	.loc 1 429 29
	lwu	a5,-52(s0)
	ld	a4,-48(s0)
	add	a4,a4,a5
	.loc 1 429 22
	ld	a5,-32(s0)
	sd	a4,8(a5)
	.loc 1 430 17
	ld	a5,-32(s0)
	ld	a4,-48(s0)
	sd	a4,16(a5)
	.loc 1 431 24
	lwu	a5,-52(s0)
	ld	a4,-48(s0)
	add	a4,a4,a5
	.loc 1 431 17
	ld	a5,-32(s0)
	sd	a4,24(a5)
	.loc 1 432 17
	ld	a5,-32(s0)
	lw	a4,-52(s0)
	sw	a4,32(a5)
	.loc 1 433 1
	nop
	ld	ra,56(sp)
	.cfi_restore 1
	ld	s0,48(sp)
	.cfi_restore 8
	.cfi_def_cfa 2, 64
	addi	sp,sp,64
	.cfi_def_cfa_offset 0
	jr	ra
	.cfi_endproc
.LFE8:
	.size	NetbufSetBlock, .-NetbufSetBlock
	.section	.text.NetbufSetBlockOp,"ax",@progbits
	.align	1
	.globl	NetbufSetBlockOp
	.type	NetbufSetBlockOp, @function
NetbufSetBlockOp:
.LFB9:
	.loc 1 456 1
	.cfi_startproc
	addi	sp,sp,-64
	.cfi_def_cfa_offset 64
	sd	ra,56(sp)
	sd	s0,48(sp)
	.cfi_offset 1, -8
	.cfi_offset 8, -16
	addi	s0,sp,64
	.cfi_def_cfa 8, 0
	sd	a0,-40(s0)
	sd	a1,-48(s0)
	mv	a5,a2
	mv	a4,a3
	sw	a5,-52(s0)
	mv	a5,a4
	sw	a5,-56(s0)
	.loc 1 462 11
	lwu	a4,-56(s0)
	mv	a5,a4
	slli	a5,a5,2
	add	a5,a5,a4
	slli	a5,a5,3
	addi	a5,a5,128
	ld	a4,-40(s0)
	add	a5,a4,a5
	addi	a5,a5,8
	sd	a5,-24(s0)
	.loc 1 463 22
	ld	a5,-24(s0)
	ld	a4,-48(s0)
	sd	a4,0(a5)
	.loc 1 464 29
	lwu	a5,-52(s0)
	ld	a4,-48(s0)
	add	a4,a4,a5
	.loc 1 464 22
	ld	a5,-24(s0)
	sd	a4,8(a5)
	.loc 1 465 17
	ld	a5,-24(s0)
	ld	a4,-48(s0)
	sd	a4,16(a5)
	.loc 1 466 24
	lwu	a5,-52(s0)
	ld	a4,-48(s0)
	add	a4,a4,a5
	.loc 1 466 17
	ld	a5,-24(s0)
	sd	a4,24(a5)
	.loc 1 467 17
	ld	a5,-24(s0)
	lw	a4,-52(s0)
	sw	a4,32(a5)
	.loc 1 468 1
	nop
	ld	ra,56(sp)
	.cfi_restore 1
	ld	s0,48(sp)
	.cfi_restore 8
	.cfi_def_cfa 2, 64
	addi	sp,sp,64
	.cfi_def_cfa_offset 0
	jr	ra
	.cfi_endproc
.LFE9:
	.size	NetbufSetBlockOp, .-NetbufSetBlockOp
	.section	.text.NetbufGetFragmentFree,"ax",@progbits
	.align	1
	.globl	NetbufGetFragmentFree
	.type	NetbufGetFragmentFree, @function
NetbufGetFragmentFree:
.LFB10:
	.loc 1 484 1
	.cfi_startproc
	addi	sp,sp,-48
	.cfi_def_cfa_offset 48
	sd	ra,40(sp)
	sd	s0,32(sp)
	.cfi_offset 1, -8
	.cfi_offset 8, -16
	addi	s0,sp,48
	.cfi_def_cfa 8, 0
	sd	a0,-40(s0)
	.loc 1 487 10
	ld	a5,-40(s0)
	sd	a5,-24(s0)
	.loc 1 488 3
	ld	a0,-24(s0)
	call	NetbufFreeVector
	.loc 1 489 1
	nop
	ld	ra,40(sp)
	.cfi_restore 1
	ld	s0,32(sp)
	.cfi_restore 8
	.cfi_def_cfa 2, 48
	addi	sp,sp,48
	.cfi_def_cfa_offset 0
	jr	ra
	.cfi_endproc
.LFE10:
	.size	NetbufGetFragmentFree, .-NetbufGetFragmentFree
	.section	.text.NetbufGetFragment,"ax",@progbits
	.align	1
	.globl	NetbufGetFragment
	.type	NetbufGetFragment, @function
NetbufGetFragment:
.LFB11:
	.loc 1 516 1
	.cfi_startproc
	addi	sp,sp,-128
	.cfi_def_cfa_offset 128
	sd	ra,120(sp)
	sd	s0,112(sp)
	.cfi_offset 1, -8
	.cfi_offset 8, -16
	addi	s0,sp,128
	.cfi_def_cfa 8, 0
	sd	a0,-104(s0)
	mv	a5,a1
	mv	a4,a3
	sw	a5,-108(s0)
	mv	a5,a2
	sw	a5,-112(s0)
	mv	a5,a4
	sw	a5,-116(s0)
	.loc 1 533 6
	lw	a5,-112(s0)
	sext.w	a5,a5
	beq	a5,zero,.L51
	.loc 1 533 29 discriminator 1
	lw	a5,-108(s0)
	mv	a4,a5
	lw	a5,-112(s0)
	addw	a5,a4,a5
	sext.w	a4,a5
	.loc 1 533 41 discriminator 1
	ld	a5,-104(s0)
	lw	a5,132(a5)
	.loc 1 533 18 discriminator 1
	bleu	a4,a5,.L52
.L51:
	.loc 1 534 12
	li	a5,0
	j	.L53
.L52:
	.loc 1 542 11
	ld	a5,-104(s0)
	addi	a5,a5,136
	sd	a5,-56(s0)
	.loc 1 543 7
	sw	zero,-48(s0)
	.loc 1 545 14
	sw	zero,-32(s0)
	.loc 1 545 3
	j	.L54
.L57:
	.loc 1 546 31
	lwu	a4,-32(s0)
	mv	a5,a4
	slli	a5,a5,2
	add	a5,a5,a4
	slli	a5,a5,3
	mv	a4,a5
	ld	a5,-56(s0)
	add	a5,a5,a4
	.loc 1 546 38
	lw	a5,32(a5)
	.loc 1 546 22
	lw	a4,-48(s0)
	addw	a5,a4,a5
	sext.w	a5,a5
	.loc 1 546 8
	lw	a4,-108(s0)
	sext.w	a4,a4
	bltu	a4,a5,.L74
	.loc 1 550 19
	lwu	a4,-32(s0)
	mv	a5,a4
	slli	a5,a5,2
	add	a5,a5,a4
	slli	a5,a5,3
	mv	a4,a5
	ld	a5,-56(s0)
	add	a5,a5,a4
	.loc 1 550 26
	lw	a5,32(a5)
	.loc 1 550 9
	lw	a4,-48(s0)
	addw	a5,a4,a5
	sw	a5,-48(s0)
	.loc 1 545 50 discriminator 2
	lw	a5,-32(s0)
	addiw	a5,a5,1
	sw	a5,-32(s0)
.L54:
	.loc 1 545 31 discriminator 1
	ld	a5,-104(s0)
	lw	a5,128(a5)
	.loc 1 545 25 discriminator 1
	lw	a4,-32(s0)
	sext.w	a4,a4
	bltu	a4,a5,.L57
	j	.L56
.L74:
	.loc 1 547 7
	nop
.L56:
	.loc 1 557 9
	lw	a5,-32(s0)
	sw	a5,-60(s0)
	.loc 1 558 13
	lw	a5,-108(s0)
	mv	a4,a5
	lw	a5,-48(s0)
	subw	a5,a4,a5
	sw	a5,-64(s0)
	.loc 1 559 21
	lwu	a4,-32(s0)
	mv	a5,a4
	slli	a5,a5,2
	add	a5,a5,a4
	slli	a5,a5,3
	mv	a4,a5
	ld	a5,-56(s0)
	add	a5,a5,a4
	.loc 1 559 28
	lw	a5,32(a5)
	.loc 1 559 12
	lw	a4,-64(s0)
	subw	a5,a5,a4
	sw	a5,-40(s0)
	.loc 1 561 8
	sw	zero,-36(s0)
	.loc 1 562 11
	sw	zero,-44(s0)
	.loc 1 564 6
	lw	a5,-112(s0)
	mv	a4,a5
	lw	a5,-40(s0)
	sext.w	a4,a4
	sext.w	a5,a5
	bleu	a4,a5,.L58
	.loc 1 565 19
	lwu	a4,-32(s0)
	mv	a5,a4
	slli	a5,a5,2
	add	a5,a5,a4
	slli	a5,a5,3
	mv	a4,a5
	ld	a5,-56(s0)
	add	a5,a5,a4
	.loc 1 565 26
	lw	a5,32(a5)
	.loc 1 565 9
	lw	a4,-48(s0)
	addw	a5,a4,a5
	sw	a5,-48(s0)
	.loc 1 566 10
	lw	a5,-32(s0)
	addiw	a5,a5,1
	sw	a5,-32(s0)
	.loc 1 568 5
	j	.L59
.L62:
	.loc 1 569 18
	lw	a5,-108(s0)
	mv	a4,a5
	lw	a5,-112(s0)
	addw	a5,a4,a5
	sext.w	a3,a5
	.loc 1 569 40
	lwu	a4,-32(s0)
	mv	a5,a4
	slli	a5,a5,2
	add	a5,a5,a4
	slli	a5,a5,3
	mv	a4,a5
	ld	a5,-56(s0)
	add	a5,a5,a4
	.loc 1 569 47
	lw	a5,32(a5)
	.loc 1 569 31
	lw	a4,-48(s0)
	addw	a5,a4,a5
	sext.w	a5,a5
	.loc 1 569 10
	bgtu	a3,a5,.L60
	.loc 1 570 14
	lw	a5,-32(s0)
	sw	a5,-36(s0)
	.loc 1 571 26
	lw	a5,-108(s0)
	mv	a4,a5
	lw	a5,-112(s0)
	addw	a5,a4,a5
	sext.w	a5,a5
	.loc 1 571 17
	lw	a4,-48(s0)
	subw	a5,a5,a4
	sw	a5,-44(s0)
	.loc 1 572 9
	j	.L63
.L60:
	.loc 1 575 21
	lwu	a4,-32(s0)
	mv	a5,a4
	slli	a5,a5,2
	add	a5,a5,a4
	slli	a5,a5,3
	mv	a4,a5
	ld	a5,-56(s0)
	add	a5,a5,a4
	.loc 1 575 28
	lw	a5,32(a5)
	.loc 1 575 11
	lw	a4,-48(s0)
	addw	a5,a4,a5
	sw	a5,-48(s0)
	.loc 1 568 44
	lw	a5,-32(s0)
	addiw	a5,a5,1
	sw	a5,-32(s0)
.L59:
	.loc 1 568 25 discriminator 1
	ld	a5,-104(s0)
	lw	a5,128(a5)
	.loc 1 568 19 discriminator 1
	lw	a4,-32(s0)
	sext.w	a4,a4
	bltu	a4,a5,.L62
	j	.L63
.L58:
	.loc 1 578 10
	lw	a5,-60(s0)
	sw	a5,-36(s0)
	.loc 1 579 13
	lw	a5,-112(s0)
	sw	a5,-44(s0)
	.loc 1 580 14
	lw	a5,-112(s0)
	sw	a5,-40(s0)
.L63:
	.loc 1 584 21
	lw	a5,-36(s0)
	mv	a4,a5
	lw	a5,-60(s0)
	subw	a5,a4,a5
	sext.w	a5,a5
	.loc 1 584 14
	addiw	a5,a5,1
	sw	a5,-68(s0)
	.loc 1 585 14
	sw	zero,-28(s0)
	.loc 1 587 6
	lw	a5,-116(s0)
	sext.w	a5,a5
	beq	a5,zero,.L64
	.loc 1 591 15
	lw	a5,-68(s0)
	addiw	a5,a5,1
	sw	a5,-68(s0)
	.loc 1 593 13
	lw	a5,-68(s0)
	mv	a1,a5
	li	a0,1
	call	NetbufAllocStruct
	sd	a0,-24(s0)
	.loc 1 595 8
	ld	a5,-24(s0)
	bne	a5,zero,.L65
	.loc 1 596 14
	li	a5,0
	j	.L53
.L65:
	.loc 1 599 17
	lwu	a5,-116(s0)
	mv	a0,a5
	call	AllocatePool@plt
	sd	a0,-80(s0)
	.loc 1 601 8
	ld	a5,-80(s0)
	beq	a5,zero,.L75
	.loc 1 605 12
	ld	a5,-24(s0)
	ld	a5,120(a5)
	sd	a5,-88(s0)
	.loc 1 606 18
	ld	a5,-88(s0)
	lla	a4,NetbufGetFragmentFree
	sd	a4,16(a5)
	.loc 1 607 23
	ld	a5,-104(s0)
	ld	a4,120(a5)
	.loc 1 607 17
	ld	a5,-88(s0)
	sd	a4,24(a5)
	.loc 1 608 18
	ld	a5,-88(s0)
	li	a4,1
	sw	a4,32(a5)
	.loc 1 609 17
	ld	a5,-88(s0)
	lw	a4,-116(s0)
	sw	a4,36(a5)
	.loc 1 614 5
	lw	a5,-116(s0)
	li	a3,0
	mv	a2,a5
	ld	a1,-80(s0)
	ld	a0,-24(s0)
	call	NetbufSetBlock
	.loc 1 615 22
	ld	a5,-24(s0)
	ld	a4,152(a5)
	.loc 1 615 28
	lwu	a5,-116(s0)
	add	a4,a4,a5
	ld	a5,-24(s0)
	sd	a4,152(a5)
	.loc 1 616 28
	ld	a5,-24(s0)
	sw	zero,168(a5)
	.loc 1 617 15
	lw	a5,-28(s0)
	addiw	a5,a5,1
	sw	a5,-28(s0)
	j	.L68
.L64:
	.loc 1 619 13
	lw	a5,-68(s0)
	mv	a1,a5
	li	a0,0
	call	NetbufAllocStruct
	sd	a0,-24(s0)
	.loc 1 621 8
	ld	a5,-24(s0)
	bne	a5,zero,.L69
	.loc 1 622 14
	li	a5,0
	j	.L53
.L69:
	.loc 1 625 25
	ld	a5,-104(s0)
	ld	a4,120(a5)
	.loc 1 625 19
	ld	a5,-24(s0)
	sd	a4,120(a5)
.L68:
	.loc 1 628 9
	ld	a5,-104(s0)
	ld	a5,120(a5)
	.loc 1 628 18
	ld	a4,8(a5)
	.loc 1 628 26
	addi	a4,a4,1
	sd	a4,8(a5)
	.loc 1 629 20
	ld	a5,-24(s0)
	lw	a4,-112(s0)
	sw	a4,132(a5)
	.loc 1 637 25
	ld	a3,-104(s0)
	lwu	a4,-60(s0)
	mv	a5,a4
	slli	a5,a5,2
	add	a5,a5,a4
	slli	a5,a5,3
	add	a5,a3,a5
	ld	a4,152(a5)
	.loc 1 635 3
	lwu	a5,-64(s0)
	add	a4,a4,a5
	lw	a5,-28(s0)
	addiw	a3,a5,1
	sw	a3,-28(s0)
	lw	a2,-40(s0)
	mv	a3,a5
	mv	a1,a4
	ld	a0,-24(s0)
	call	NetbufSetBlockOp
	.loc 1 642 14
	lw	a5,-60(s0)
	addiw	a5,a5,1
	sw	a5,-32(s0)
	.loc 1 642 3
	j	.L70
.L71:
	.loc 1 645 14
	lwu	a4,-32(s0)
	mv	a5,a4
	slli	a5,a5,2
	add	a5,a5,a4
	slli	a5,a5,3
	mv	a4,a5
	ld	a5,-56(s0)
	add	a5,a5,a4
	.loc 1 643 5
	ld	a1,16(a5)
	.loc 1 646 14
	lwu	a4,-32(s0)
	mv	a5,a4
	slli	a5,a5,2
	add	a5,a5,a4
	slli	a5,a5,3
	mv	a4,a5
	ld	a5,-56(s0)
	add	a5,a5,a4
	.loc 1 643 5
	lw	a4,32(a5)
	lw	a5,-28(s0)
	addiw	a3,a5,1
	sw	a3,-28(s0)
	mv	a3,a5
	mv	a2,a4
	ld	a0,-24(s0)
	call	NetbufSetBlockOp
	.loc 1 642 46 discriminator 3
	lw	a5,-32(s0)
	addiw	a5,a5,1
	sw	a5,-32(s0)
.L70:
	.loc 1 642 33 discriminator 1
	lw	a5,-32(s0)
	mv	a4,a5
	lw	a5,-36(s0)
	sext.w	a4,a4
	sext.w	a5,a5
	bltu	a4,a5,.L71
	.loc 1 651 6
	lw	a5,-60(s0)
	mv	a4,a5
	lw	a5,-36(s0)
	sext.w	a4,a4
	sext.w	a5,a5
	beq	a4,a5,.L72
	.loc 1 654 14
	lwu	a4,-36(s0)
	mv	a5,a4
	slli	a5,a5,2
	add	a5,a5,a4
	slli	a5,a5,3
	mv	a4,a5
	ld	a5,-56(s0)
	add	a5,a5,a4
	.loc 1 652 5
	ld	a5,16(a5)
	lw	a3,-28(s0)
	lw	a4,-44(s0)
	mv	a2,a4
	mv	a1,a5
	ld	a0,-24(s0)
	call	NetbufSetBlockOp
.L72:
	.loc 1 660 17
	ld	a5,-24(s0)
	addi	a4,a5,56
	.loc 1 660 34
	ld	a5,-104(s0)
	addi	a5,a5,56
	.loc 1 660 3
	li	a2,64
	mv	a1,a5
	mv	a0,a4
	call	CopyMem@plt
	.loc 1 661 10
	ld	a5,-24(s0)
	j	.L53
.L75:
	.loc 1 602 7
	nop
.L67:
	.loc 1 665 3
	ld	a0,-24(s0)
	call	FreePool@plt
	.loc 1 666 10
	li	a5,0
.L53:
	.loc 1 667 1
	mv	a0,a5
	ld	ra,120(sp)
	.cfi_restore 1
	ld	s0,112(sp)
	.cfi_restore 8
	.cfi_def_cfa 2, 128
	addi	sp,sp,128
	.cfi_def_cfa_offset 0
	jr	ra
	.cfi_endproc
.LFE11:
	.size	NetbufGetFragment, .-NetbufGetFragment
	.section	.text.NetbufFromExt,"ax",@progbits
	.align	1
	.globl	NetbufFromExt
	.type	NetbufFromExt, @function
NetbufFromExt:
.LFB12:
	.loc 1 701 1
	.cfi_startproc
	addi	sp,sp,-160
	.cfi_def_cfa_offset 160
	sd	ra,152(sp)
	sd	s0,144(sp)
	.cfi_offset 1, -8
	.cfi_offset 8, -16
	addi	s0,sp,160
	.cfi_def_cfa 8, 0
	sd	a0,-120(s0)
	sd	a4,-144(s0)
	sd	a5,-152(s0)
	mv	a5,a1
	sw	a5,-124(s0)
	mv	a5,a2
	sw	a5,-128(s0)
	mv	a5,a3
	sw	a5,-132(s0)
	.loc 1 718 22
	sd	zero,-96(s0)
	.loc 1 719 21
	sw	zero,-104(s0)
	.loc 1 721 17
	sw	zero,-44(s0)
	.loc 1 722 14
	sd	zero,-40(s0)
	.loc 1 723 12
	lw	a5,-124(s0)
	sw	a5,-28(s0)
	.loc 1 724 9
	sw	zero,-64(s0)
	.loc 1 725 12
	sw	zero,-24(s0)
	.loc 1 726 14
	sw	zero,-20(s0)
	.loc 1 727 7
	sw	zero,-68(s0)
	.loc 1 728 10
	sw	zero,-72(s0)
	.loc 1 734 22
	ld	a5,-120(s0)
	lw	a5,0(a5)
	.loc 1 734 6
	lw	a4,-132(s0)
	sext.w	a4,a4
	bleu	a4,a5,.L77
	.loc 1 734 39 discriminator 1
	lw	a5,-124(s0)
	sext.w	a4,a5
	li	a5,1
	bne	a4,a5,.L78
.L77:
	.loc 1 735 13
	sw	zero,-132(s0)
.L78:
	.loc 1 743 6
	lw	a5,-128(s0)
	sext.w	a5,a5
	bne	a5,zero,.L79
	.loc 1 743 24 discriminator 1
	lw	a5,-132(s0)
	sext.w	a5,a5
	beq	a5,zero,.L80
.L79:
	.loc 1 744 19
	lw	a5,-132(s0)
	mv	a4,a5
	lw	a5,-128(s0)
	addw	a5,a4,a5
	sw	a5,-44(s0)
	.loc 1 745 18
	lwu	a5,-44(s0)
	mv	a0,a5
	call	AllocatePool@plt
	sd	a0,-40(s0)
	.loc 1 747 8
	ld	a5,-40(s0)
	bne	a5,zero,.L81
	.loc 1 748 14
	li	a5,0
	j	.L95
.L81:
	.loc 1 751 13
	lw	a5,-28(s0)
	addiw	a5,a5,1
	sw	a5,-28(s0)
.L80:
	.loc 1 759 6
	lw	a5,-132(s0)
	sext.w	a5,a5
	beq	a5,zero,.L83
	.loc 1 760 9
	lw	a5,-132(s0)
	sw	a5,-68(s0)
	.loc 1 761 25
	lwu	a5,-128(s0)
	.loc 1 761 12
	ld	a4,-40(s0)
	add	a5,a4,a5
	sd	a5,-56(s0)
	.loc 1 763 16
	sw	zero,-64(s0)
	.loc 1 763 5
	j	.L84
.L87:
	.loc 1 764 29
	lwu	a5,-64(s0)
	slli	a5,a5,4
	ld	a4,-120(s0)
	add	a5,a4,a5
	.loc 1 764 36
	lw	a5,0(a5)
	.loc 1 764 10
	lw	a4,-68(s0)
	sext.w	a4,a4
	bltu	a4,a5,.L85
	.loc 1 765 37
	lwu	a5,-64(s0)
	slli	a5,a5,4
	ld	a4,-120(s0)
	add	a5,a4,a5
	.loc 1 765 44
	ld	a3,8(a5)
	.loc 1 765 62
	lwu	a5,-64(s0)
	slli	a5,a5,4
	ld	a4,-120(s0)
	add	a5,a4,a5
	.loc 1 765 69
	lw	a5,0(a5)
	.loc 1 765 9
	slli	a5,a5,32
	srli	a5,a5,32
	mv	a2,a5
	mv	a1,a3
	ld	a0,-56(s0)
	call	CopyMem@plt
	.loc 1 767 30
	lwu	a5,-64(s0)
	slli	a5,a5,4
	ld	a4,-120(s0)
	add	a5,a4,a5
	.loc 1 767 37
	lw	a5,0(a5)
	.loc 1 767 16
	lw	a4,-72(s0)
	addw	a5,a4,a5
	sw	a5,-72(s0)
	.loc 1 768 27
	lwu	a5,-64(s0)
	slli	a5,a5,4
	ld	a4,-120(s0)
	add	a5,a4,a5
	.loc 1 768 34
	lw	a5,0(a5)
	.loc 1 768 13
	lw	a4,-68(s0)
	subw	a5,a4,a5
	sw	a5,-68(s0)
	.loc 1 769 30
	lwu	a5,-64(s0)
	slli	a5,a5,4
	ld	a4,-120(s0)
	add	a5,a4,a5
	.loc 1 769 37
	lw	a5,0(a5)
	slli	a5,a5,32
	srli	a5,a5,32
	.loc 1 769 16
	ld	a4,-56(s0)
	add	a5,a4,a5
	sd	a5,-56(s0)
	.loc 1 770 32
	lwu	a5,-64(s0)
	slli	a5,a5,4
	ld	a4,-120(s0)
	add	a5,a4,a5
	.loc 1 770 39
	lw	a5,0(a5)
	.loc 1 770 18
	lw	a4,-24(s0)
	addw	a5,a4,a5
	sw	a5,-24(s0)
	.loc 1 771 17
	lw	a5,-28(s0)
	addiw	a5,a5,-1
	sw	a5,-28(s0)
	.loc 1 773 12
	lw	a5,-68(s0)
	sext.w	a5,a5
	bne	a5,zero,.L86
	.loc 1 778 16
	lw	a5,-64(s0)
	addiw	a5,a5,1
	sw	a5,-64(s0)
	.loc 1 779 11
	j	.L83
.L85:
	.loc 1 782 37
	lwu	a5,-64(s0)
	slli	a5,a5,4
	ld	a4,-120(s0)
	add	a5,a4,a5
	.loc 1 782 44
	ld	a5,8(a5)
	.loc 1 782 9
	lwu	a4,-68(s0)
	mv	a2,a4
	mv	a1,a5
	ld	a0,-56(s0)
	call	CopyMem@plt
	.loc 1 784 16
	lw	a5,-72(s0)
	mv	a4,a5
	lw	a5,-68(s0)
	addw	a5,a4,a5
	sw	a5,-72(s0)
	.loc 1 785 18
	lw	a5,-24(s0)
	mv	a4,a5
	lw	a5,-68(s0)
	addw	a5,a4,a5
	sw	a5,-24(s0)
	.loc 1 794 20
	lw	a5,-64(s0)
	sw	a5,-20(s0)
	.loc 1 795 36
	lwu	a5,-64(s0)
	slli	a5,a5,4
	ld	a4,-120(s0)
	add	a5,a4,a5
	.loc 1 795 23
	ld	a4,0(a5)
	sd	a4,-104(s0)
	ld	a5,8(a5)
	sd	a5,-96(s0)
	.loc 1 796 20
	lwu	a5,-64(s0)
	slli	a5,a5,4
	ld	a4,-120(s0)
	add	a5,a4,a5
	.loc 1 796 27
	ld	a3,8(a5)
	.loc 1 796 33
	lwu	a4,-68(s0)
	.loc 1 796 20
	lwu	a5,-64(s0)
	slli	a5,a5,4
	ld	a2,-120(s0)
	add	a5,a2,a5
	.loc 1 796 33
	add	a4,a3,a4
	sd	a4,8(a5)
	.loc 1 797 20
	lwu	a5,-64(s0)
	slli	a5,a5,4
	ld	a4,-120(s0)
	add	a5,a4,a5
	.loc 1 797 27
	lw	a4,0(a5)
	.loc 1 797 20
	lwu	a5,-64(s0)
	slli	a5,a5,4
	ld	a3,-120(s0)
	add	a5,a3,a5
	.loc 1 797 32
	lw	a3,-68(s0)
	subw	a4,a4,a3
	sext.w	a4,a4
	sw	a4,0(a5)
	.loc 1 798 9
	j	.L83
.L86:
	.loc 1 763 42 discriminator 2
	lw	a5,-64(s0)
	addiw	a5,a5,1
	sw	a5,-64(s0)
.L84:
	.loc 1 763 27 discriminator 1
	lw	a5,-64(s0)
	mv	a4,a5
	lw	a5,-124(s0)
	sext.w	a4,a4
	sext.w	a5,a5
	bltu	a4,a5,.L87
.L83:
	.loc 1 803 10
	lw	a4,-28(s0)
	lw	a5,-28(s0)
	mv	a1,a4
	mv	a0,a5
	call	NetbufAllocStruct
	sd	a0,-80(s0)
	.loc 1 805 6
	ld	a5,-80(s0)
	beq	a5,zero,.L97
	.loc 1 809 10
	ld	a5,-80(s0)
	ld	a5,120(a5)
	sd	a5,-88(s0)
	.loc 1 810 16
	ld	a5,-88(s0)
	ld	a4,-144(s0)
	sd	a4,16(a5)
	.loc 1 811 15
	ld	a5,-88(s0)
	ld	a4,-152(s0)
	sd	a4,24(a5)
	.loc 1 812 47
	lw	a5,-44(s0)
	sext.w	a5,a5
	snez	a5,a5
	andi	a5,a5,0xff
	sext.w	a4,a5
	.loc 1 812 16
	ld	a5,-88(s0)
	sw	a4,32(a5)
	.loc 1 818 12
	sw	zero,-60(s0)
	.loc 1 820 6
	lw	a5,-44(s0)
	sext.w	a5,a5
	beq	a5,zero,.L91
	.loc 1 821 5
	lw	a5,-128(s0)
	mv	a4,a5
	lw	a5,-72(s0)
	addw	a5,a4,a5
	sext.w	a5,a5
	li	a3,0
	mv	a2,a5
	ld	a1,-40(s0)
	ld	a0,-80(s0)
	call	NetbufSetBlock
	.loc 1 822 21
	ld	a5,-80(s0)
	ld	a4,152(a5)
	.loc 1 822 27
	lwu	a5,-128(s0)
	add	a4,a4,a5
	ld	a5,-80(s0)
	sd	a4,152(a5)
	.loc 1 823 27
	ld	a5,-80(s0)
	lw	a4,-72(s0)
	sw	a4,168(a5)
	.loc 1 825 13
	lw	a5,-60(s0)
	addiw	a5,a5,1
	sw	a5,-60(s0)
	.loc 1 828 3
	j	.L91
.L92:
	.loc 1 829 38
	lwu	a5,-64(s0)
	slli	a5,a5,4
	ld	a4,-120(s0)
	add	a5,a4,a5
	.loc 1 829 5
	ld	a1,8(a5)
	.loc 1 829 63
	lwu	a5,-64(s0)
	slli	a5,a5,4
	ld	a4,-120(s0)
	add	a5,a4,a5
	.loc 1 829 5
	lw	a5,0(a5)
	lw	a4,-60(s0)
	mv	a3,a4
	mv	a2,a5
	ld	a0,-80(s0)
	call	NetbufSetBlock
	.loc 1 830 28
	lwu	a5,-64(s0)
	slli	a5,a5,4
	ld	a4,-120(s0)
	add	a5,a4,a5
	.loc 1 830 35
	lw	a5,0(a5)
	.loc 1 830 14
	lw	a4,-24(s0)
	addw	a5,a4,a5
	sw	a5,-24(s0)
	.loc 1 831 13
	lw	a5,-60(s0)
	addiw	a5,a5,1
	sw	a5,-60(s0)
	.loc 1 828 32 discriminator 2
	lw	a5,-64(s0)
	addiw	a5,a5,1
	sw	a5,-64(s0)
.L91:
	.loc 1 828 17 discriminator 1
	lw	a5,-64(s0)
	mv	a4,a5
	lw	a5,-124(s0)
	sext.w	a4,a4
	sext.w	a5,a5
	bltu	a4,a5,.L92
	.loc 1 834 26
	lw	a5,-24(s0)
	mv	a4,a5
	lw	a5,-128(s0)
	addw	a5,a4,a5
	sext.w	a4,a5
	.loc 1 834 15
	ld	a5,-88(s0)
	sw	a4,36(a5)
	.loc 1 835 19
	ld	a5,-80(s0)
	lw	a4,-24(s0)
	sw	a4,132(a5)
	.loc 1 837 6
	lw	a5,-20(s0)
	sext.w	a5,a5
	beq	a5,zero,.L93
	.loc 1 838 16
	lwu	a5,-20(s0)
	slli	a5,a5,4
	ld	a4,-120(s0)
	add	a5,a4,a5
	.loc 1 838 29
	ld	a4,-104(s0)
	sd	a4,0(a5)
	ld	a4,-96(s0)
	sd	a4,8(a5)
.L93:
	.loc 1 841 10
	ld	a5,-80(s0)
	j	.L95
.L97:
	.loc 1 806 5
	nop
.L89:
	.loc 1 844 6
	ld	a5,-40(s0)
	beq	a5,zero,.L94
	.loc 1 845 5
	ld	a0,-40(s0)
	call	FreePool@plt
.L94:
	.loc 1 848 10
	li	a5,0
.L95:
	.loc 1 849 1
	mv	a0,a5
	ld	ra,152(sp)
	.cfi_restore 1
	ld	s0,144(sp)
	.cfi_restore 8
	.cfi_def_cfa 2, 160
	addi	sp,sp,160
	.cfi_def_cfa_offset 0
	jr	ra
	.cfi_endproc
.LFE12:
	.size	NetbufFromExt, .-NetbufFromExt
	.section	.text.NetbufBuildExt,"ax",@progbits
	.align	1
	.globl	NetbufBuildExt
	.type	NetbufBuildExt, @function
NetbufBuildExt:
.LFB13:
	.loc 1 871 1
	.cfi_startproc
	addi	sp,sp,-64
	.cfi_def_cfa_offset 64
	sd	ra,56(sp)
	sd	s0,48(sp)
	.cfi_offset 1, -8
	.cfi_offset 8, -16
	addi	s0,sp,64
	.cfi_def_cfa 8, 0
	sd	a0,-40(s0)
	sd	a1,-48(s0)
	sd	a2,-56(s0)
	.loc 1 875 11
	sw	zero,-24(s0)
	.loc 1 877 14
	sw	zero,-20(s0)
	.loc 1 877 3
	j	.L99
.L104:
	.loc 1 878 29
	ld	a3,-40(s0)
	lwu	a4,-20(s0)
	mv	a5,a4
	slli	a5,a5,2
	add	a5,a5,a4
	slli	a5,a5,3
	add	a5,a3,a5
	lw	a5,168(a5)
	.loc 1 878 8
	beq	a5,zero,.L105
	.loc 1 882 19
	ld	a5,-56(s0)
	lw	a5,0(a5)
	.loc 1 882 8
	lw	a4,-24(s0)
	sext.w	a4,a4
	bgeu	a4,a5,.L102
	.loc 1 883 18
	lwu	a5,-24(s0)
	slli	a5,a5,4
	ld	a4,-48(s0)
	add	a3,a4,a5
	.loc 1 883 55
	ld	a2,-40(s0)
	lwu	a4,-20(s0)
	mv	a5,a4
	slli	a5,a5,2
	add	a5,a5,a4
	slli	a5,a5,3
	add	a5,a2,a5
	ld	a5,152(a5)
	.loc 1 883 33
	sd	a5,8(a3)
	.loc 1 884 18
	lwu	a5,-24(s0)
	slli	a5,a5,4
	ld	a4,-48(s0)
	add	a3,a4,a5
	.loc 1 884 54
	ld	a2,-40(s0)
	lwu	a4,-20(s0)
	mv	a5,a4
	slli	a5,a5,2
	add	a5,a5,a4
	slli	a5,a5,3
	add	a5,a2,a5
	lw	a5,168(a5)
	.loc 1 884 32
	sw	a5,0(a3)
	.loc 1 885 14
	lw	a5,-24(s0)
	addiw	a5,a5,1
	sw	a5,-24(s0)
	j	.L101
.L102:
	.loc 1 887 14
	li	a5,-1
	slli	a5,a5,63
	addi	a5,a5,5
	j	.L103
.L105:
	.loc 1 879 7
	nop
.L101:
	.loc 1 877 52 discriminator 2
	lw	a5,-20(s0)
	addiw	a5,a5,1
	sw	a5,-20(s0)
.L99:
	.loc 1 877 32 discriminator 1
	ld	a5,-40(s0)
	lw	a5,128(a5)
	.loc 1 877 26 discriminator 1
	lw	a4,-20(s0)
	sext.w	a4,a4
	bltu	a4,a5,.L104
	.loc 1 891 11
	ld	a5,-56(s0)
	lw	a4,-24(s0)
	sw	a4,0(a5)
	.loc 1 892 10
	li	a5,0
.L103:
	.loc 1 893 1
	mv	a0,a5
	ld	ra,56(sp)
	.cfi_restore 1
	ld	s0,48(sp)
	.cfi_restore 8
	.cfi_def_cfa 2, 64
	addi	sp,sp,64
	.cfi_def_cfa_offset 0
	jr	ra
	.cfi_endproc
.LFE13:
	.size	NetbufBuildExt, .-NetbufBuildExt
	.section	.text.NetbufFromBufList,"ax",@progbits
	.align	1
	.globl	NetbufFromBufList
	.type	NetbufFromBufList, @function
NetbufFromBufList:
.LFB14:
	.loc 1 921 1
	.cfi_startproc
	addi	sp,sp,-96
	.cfi_def_cfa_offset 96
	sd	ra,88(sp)
	sd	s0,80(sp)
	.cfi_offset 1, -8
	.cfi_offset 8, -16
	addi	s0,sp,96
	.cfi_def_cfa 8, 0
	sd	a0,-72(s0)
	mv	a5,a1
	sd	a3,-88(s0)
	sd	a4,-96(s0)
	sw	a5,-76(s0)
	mv	a5,a2
	sw	a5,-80(s0)
	.loc 1 932 15
	sw	zero,-20(s0)
	.loc 1 934 13
	ld	a5,-72(s0)
	ld	a5,0(a5)
	sd	a5,-32(s0)
	.loc 1 934 3
	j	.L107
.L108:
	.loc 1 935 10
	ld	a5,-32(s0)
	addi	a5,a5,-16
	sd	a5,-56(s0)
	.loc 1 937 24
	ld	a5,-56(s0)
	lw	a5,128(a5)
	.loc 1 937 17
	lw	a4,-20(s0)
	addw	a5,a4,a5
	sw	a5,-20(s0)
	.loc 1 934 65 discriminator 3
	ld	a5,-32(s0)
	ld	a5,0(a5)
	sd	a5,-32(s0)
.L107:
	.loc 1 934 45 discriminator 1
	ld	a4,-32(s0)
	ld	a5,-72(s0)
	bne	a4,a5,.L108
	.loc 1 943 14
	lwu	a5,-20(s0)
	.loc 1 943 50
	slli	a5,a5,4
	.loc 1 943 14
	mv	a0,a5
	call	AllocatePool@plt
	sd	a0,-48(s0)
	.loc 1 945 6
	ld	a5,-48(s0)
	bne	a5,zero,.L109
	.loc 1 946 12
	li	a5,0
	j	.L110
.L109:
	.loc 1 949 11
	sw	zero,-40(s0)
	.loc 1 951 13
	ld	a5,-72(s0)
	ld	a5,0(a5)
	sd	a5,-32(s0)
	.loc 1 951 3
	j	.L111
.L115:
	.loc 1 952 10
	ld	a5,-32(s0)
	addi	a5,a5,-16
	sd	a5,-56(s0)
	.loc 1 955 16
	sw	zero,-36(s0)
	.loc 1 955 5
	j	.L112
.L114:
	.loc 1 956 31
	ld	a3,-56(s0)
	lwu	a4,-36(s0)
	mv	a5,a4
	slli	a5,a5,2
	add	a5,a5,a4
	slli	a5,a5,3
	add	a5,a3,a5
	lw	a5,168(a5)
	.loc 1 956 10
	beq	a5,zero,.L113
	.loc 1 957 17
	lwu	a5,-40(s0)
	slli	a5,a5,4
	ld	a4,-48(s0)
	add	a3,a4,a5
	.loc 1 957 54
	ld	a2,-56(s0)
	lwu	a4,-36(s0)
	mv	a5,a4
	slli	a5,a5,2
	add	a5,a5,a4
	slli	a5,a5,3
	add	a5,a2,a5
	ld	a5,152(a5)
	.loc 1 957 32
	sd	a5,8(a3)
	.loc 1 958 17
	lwu	a5,-40(s0)
	slli	a5,a5,4
	ld	a4,-48(s0)
	add	a3,a4,a5
	.loc 1 958 53
	ld	a2,-56(s0)
	lwu	a4,-36(s0)
	mv	a5,a4
	slli	a5,a5,2
	add	a5,a5,a4
	slli	a5,a5,3
	add	a5,a2,a5
	lw	a5,168(a5)
	.loc 1 958 31
	sw	a5,0(a3)
	.loc 1 959 16
	lw	a5,-40(s0)
	addiw	a5,a5,1
	sw	a5,-40(s0)
.L113:
	.loc 1 955 52 discriminator 2
	lw	a5,-36(s0)
	addiw	a5,a5,1
	sw	a5,-36(s0)
.L112:
	.loc 1 955 33 discriminator 1
	ld	a5,-56(s0)
	lw	a5,128(a5)
	.loc 1 955 27 discriminator 1
	lw	a4,-36(s0)
	sext.w	a4,a4
	bltu	a4,a5,.L114
	.loc 1 951 65 discriminator 2
	ld	a5,-32(s0)
	ld	a5,0(a5)
	sd	a5,-32(s0)
.L111:
	.loc 1 951 45 discriminator 1
	ld	a4,-32(s0)
	ld	a5,-72(s0)
	bne	a4,a5,.L115
	.loc 1 964 10
	lw	a3,-80(s0)
	lw	a2,-76(s0)
	lw	a1,-40(s0)
	ld	a5,-96(s0)
	ld	a4,-88(s0)
	ld	a0,-48(s0)
	call	NetbufFromExt
	sd	a0,-56(s0)
	.loc 1 965 3
	ld	a0,-48(s0)
	call	FreePool@plt
	.loc 1 967 10
	ld	a5,-56(s0)
.L110:
	.loc 1 968 1
	mv	a0,a5
	ld	ra,88(sp)
	.cfi_restore 1
	ld	s0,80(sp)
	.cfi_restore 8
	.cfi_def_cfa 2, 96
	addi	sp,sp,96
	.cfi_def_cfa_offset 0
	jr	ra
	.cfi_endproc
.LFE14:
	.size	NetbufFromBufList, .-NetbufFromBufList
	.section	.text.NetbufReserve,"ax",@progbits
	.align	1
	.globl	NetbufReserve
	.type	NetbufReserve, @function
NetbufReserve:
.LFB15:
	.loc 1 988 1
	.cfi_startproc
	addi	sp,sp,-32
	.cfi_def_cfa_offset 32
	sd	ra,24(sp)
	sd	s0,16(sp)
	.cfi_offset 1, -8
	.cfi_offset 8, -16
	addi	s0,sp,32
	.cfi_def_cfa 8, 0
	sd	a0,-24(s0)
	mv	a5,a1
	sw	a5,-28(s0)
	.loc 1 995 19
	ld	a5,-24(s0)
	ld	a4,152(a5)
	.loc 1 995 25
	lwu	a5,-28(s0)
	add	a4,a4,a5
	ld	a5,-24(s0)
	sd	a4,152(a5)
	.loc 1 996 19
	ld	a5,-24(s0)
	ld	a4,160(a5)
	.loc 1 996 25
	lwu	a5,-28(s0)
	add	a4,a4,a5
	ld	a5,-24(s0)
	sd	a4,160(a5)
	.loc 1 999 1
	nop
	ld	ra,24(sp)
	.cfi_restore 1
	ld	s0,16(sp)
	.cfi_restore 8
	.cfi_def_cfa 2, 32
	addi	sp,sp,32
	.cfi_def_cfa_offset 0
	jr	ra
	.cfi_endproc
.LFE15:
	.size	NetbufReserve, .-NetbufReserve
	.section	.text.NetbufAllocSpace,"ax",@progbits
	.align	1
	.globl	NetbufAllocSpace
	.type	NetbufAllocSpace, @function
NetbufAllocSpace:
.LFB16:
	.loc 1 1020 1
	.cfi_startproc
	addi	sp,sp,-64
	.cfi_def_cfa_offset 64
	sd	ra,56(sp)
	sd	s0,48(sp)
	.cfi_offset 1, -8
	.cfi_offset 8, -16
	addi	s0,sp,64
	.cfi_def_cfa 8, 0
	sd	a0,-56(s0)
	mv	a5,a1
	mv	a4,a2
	sw	a5,-60(s0)
	mv	a5,a4
	sb	a5,-61(s0)
	.loc 1 1025 9
	sw	zero,-36(s0)
	.loc 1 1032 6
	lbu	a5,-61(s0)
	andi	a5,a5,0xff
	beq	a5,zero,.L118
	.loc 1 1038 13
	ld	a5,-56(s0)
	lw	a5,132(a5)
	.loc 1 1038 8
	bne	a5,zero,.L119
	.loc 1 1039 13
	sw	zero,-36(s0)
	j	.L120
.L119:
	.loc 1 1041 7
	addi	a5,s0,-36
	mv	a2,a5
	li	a1,0
	ld	a0,-56(s0)
	call	NetbufGetByte
	.loc 1 1043 18
	lw	a5,-36(s0)
	.loc 1 1043 10
	beq	a5,zero,.L120
	.loc 1 1043 62 discriminator 1
	lw	a5,-36(s0)
	ld	a3,-56(s0)
	slli	a4,a5,32
	srli	a4,a4,32
	mv	a5,a4
	slli	a5,a5,2
	add	a5,a5,a4
	slli	a5,a5,3
	add	a5,a3,a5
	ld	a5,152(a5)
	.loc 1 1043 29 discriminator 1
	mv	a2,a5
	.loc 1 1043 105 discriminator 1
	lw	a5,-36(s0)
	ld	a3,-56(s0)
	slli	a4,a5,32
	srli	a4,a4,32
	mv	a5,a4
	slli	a5,a5,2
	add	a5,a5,a4
	slli	a5,a5,3
	add	a5,a3,a5
	ld	a5,136(a5)
	.loc 1 1043 70 discriminator 1
	sub	a4,a2,a5
	.loc 1 1043 119 discriminator 1
	lwu	a5,-60(s0)
	.loc 1 1043 24 discriminator 1
	bgeu	a4,a5,.L120
	.loc 1 1044 14
	lw	a5,-36(s0)
	addiw	a5,a5,-1
	sext.w	a5,a5
	sw	a5,-36(s0)
.L120:
	.loc 1 1048 30
	lw	a5,-36(s0)
	.loc 1 1048 13
	slli	a4,a5,32
	srli	a4,a4,32
	mv	a5,a4
	slli	a5,a5,2
	add	a5,a5,a4
	slli	a5,a5,3
	addi	a5,a5,128
	ld	a4,-56(s0)
	add	a5,a4,a5
	addi	a5,a5,8
	sd	a5,-24(s0)
	.loc 1 1050 27
	ld	a5,-24(s0)
	ld	a5,16(a5)
	.loc 1 1050 10
	mv	a4,a5
	.loc 1 1050 54
	ld	a5,-24(s0)
	ld	a5,0(a5)
	.loc 1 1050 35
	sub	a4,a4,a5
	.loc 1 1050 68
	lwu	a5,-60(s0)
	.loc 1 1050 8
	bgeu	a4,a5,.L121
	.loc 1 1051 14
	li	a5,0
	j	.L126
.L121:
	.loc 1 1054 12
	ld	a5,-24(s0)
	ld	a4,16(a5)
	.loc 1 1054 19
	lwu	a5,-60(s0)
	neg	a5,a5
	add	a4,a4,a5
	ld	a5,-24(s0)
	sd	a4,16(a5)
	.loc 1 1055 12
	ld	a5,-24(s0)
	lw	a5,32(a5)
	.loc 1 1055 19
	lw	a4,-60(s0)
	addw	a5,a4,a5
	sext.w	a4,a5
	ld	a5,-24(s0)
	sw	a4,32(a5)
	.loc 1 1056 9
	ld	a5,-56(s0)
	lw	a5,132(a5)
	.loc 1 1056 21
	lw	a4,-60(s0)
	addw	a5,a4,a5
	sext.w	a4,a5
	ld	a5,-56(s0)
	sw	a4,132(a5)
	.loc 1 1058 19
	ld	a5,-24(s0)
	ld	a5,16(a5)
	j	.L126
.L118:
	.loc 1 1065 13
	ld	a5,-56(s0)
	lw	a5,132(a5)
	.loc 1 1065 8
	bne	a5,zero,.L123
	.loc 1 1066 13
	sw	zero,-36(s0)
	j	.L124
.L123:
	.loc 1 1068 32
	ld	a5,-56(s0)
	lw	a5,132(a5)
	.loc 1 1068 7
	addiw	a5,a5,-1
	sext.w	a5,a5
	addi	a4,s0,-36
	mv	a2,a4
	mv	a1,a5
	ld	a0,-56(s0)
	call	NetbufGetByte
	.loc 1 1070 46
	lw	a5,-36(s0)
	ld	a3,-56(s0)
	slli	a4,a5,32
	srli	a4,a4,32
	mv	a5,a4
	slli	a5,a5,2
	add	a5,a5,a4
	slli	a5,a5,3
	add	a5,a3,a5
	ld	a5,144(a5)
	.loc 1 1070 13
	mv	a2,a5
	.loc 1 1070 94
	lw	a5,-36(s0)
	ld	a3,-56(s0)
	slli	a4,a5,32
	srli	a4,a4,32
	mv	a5,a4
	slli	a5,a5,2
	add	a5,a5,a4
	slli	a5,a5,3
	add	a5,a3,a5
	ld	a5,160(a5)
	.loc 1 1070 59
	sub	a4,a2,a5
	.loc 1 1070 103
	lwu	a5,-60(s0)
	.loc 1 1070 10
	bgeu	a4,a5,.L124
	.loc 1 1071 24
	ld	a5,-56(s0)
	lw	a5,128(a5)
	.loc 1 1071 37
	addiw	a5,a5,-1
	sext.w	a4,a5
	.loc 1 1071 18
	lw	a5,-36(s0)
	.loc 1 1070 110 discriminator 1
	bleu	a4,a5,.L124
	.loc 1 1073 14
	lw	a5,-36(s0)
	addiw	a5,a5,1
	sext.w	a5,a5
	sw	a5,-36(s0)
.L124:
	.loc 1 1077 30
	lw	a5,-36(s0)
	.loc 1 1077 13
	slli	a4,a5,32
	srli	a4,a4,32
	mv	a5,a4
	slli	a5,a5,2
	add	a5,a5,a4
	slli	a5,a5,3
	addi	a5,a5,128
	ld	a4,-56(s0)
	add	a5,a4,a5
	addi	a5,a5,8
	sd	a5,-24(s0)
	.loc 1 1079 27
	ld	a5,-24(s0)
	ld	a5,8(a5)
	.loc 1 1079 10
	mv	a4,a5
	.loc 1 1079 59
	ld	a5,-24(s0)
	ld	a5,24(a5)
	.loc 1 1079 40
	sub	a4,a4,a5
	.loc 1 1079 68
	lwu	a5,-60(s0)
	.loc 1 1079 8
	bgeu	a4,a5,.L125
	.loc 1 1080 14
	li	a5,0
	j	.L126
.L125:
	.loc 1 1083 15
	ld	a5,-24(s0)
	ld	a5,24(a5)
	sd	a5,-32(s0)
	.loc 1 1085 12
	ld	a5,-24(s0)
	ld	a4,24(a5)
	.loc 1 1085 19
	lwu	a5,-60(s0)
	add	a4,a4,a5
	ld	a5,-24(s0)
	sd	a4,24(a5)
	.loc 1 1086 12
	ld	a5,-24(s0)
	lw	a5,32(a5)
	.loc 1 1086 19
	lw	a4,-60(s0)
	addw	a5,a4,a5
	sext.w	a4,a5
	ld	a5,-24(s0)
	sw	a4,32(a5)
	.loc 1 1087 9
	ld	a5,-56(s0)
	lw	a5,132(a5)
	.loc 1 1087 21
	lw	a4,-60(s0)
	addw	a5,a4,a5
	sext.w	a4,a5
	ld	a5,-56(s0)
	sw	a4,132(a5)
	.loc 1 1089 12
	ld	a5,-32(s0)
.L126:
	.loc 1 1091 1
	mv	a0,a5
	ld	ra,56(sp)
	.cfi_restore 1
	ld	s0,48(sp)
	.cfi_restore 8
	.cfi_def_cfa 2, 64
	addi	sp,sp,64
	.cfi_def_cfa_offset 0
	jr	ra
	.cfi_endproc
.LFE16:
	.size	NetbufAllocSpace, .-NetbufAllocSpace
	.section	.text.NetblockTrim,"ax",@progbits
	.align	1
	.globl	NetblockTrim
	.type	NetblockTrim, @function
NetblockTrim:
.LFB17:
	.loc 1 1108 1
	.cfi_startproc
	addi	sp,sp,-32
	.cfi_def_cfa_offset 32
	sd	ra,24(sp)
	sd	s0,16(sp)
	.cfi_offset 1, -8
	.cfi_offset 8, -16
	addi	s0,sp,32
	.cfi_def_cfa 8, 0
	sd	a0,-24(s0)
	mv	a5,a1
	mv	a4,a2
	sw	a5,-28(s0)
	mv	a5,a4
	sb	a5,-29(s0)
	.loc 1 1111 10
	ld	a5,-24(s0)
	lw	a5,32(a5)
	.loc 1 1111 17
	lw	a4,-28(s0)
	subw	a5,a5,a4
	sext.w	a4,a5
	ld	a5,-24(s0)
	sw	a4,32(a5)
	.loc 1 1113 6
	lbu	a5,-29(s0)
	andi	a5,a5,0xff
	beq	a5,zero,.L128
	.loc 1 1114 12
	ld	a5,-24(s0)
	ld	a4,16(a5)
	.loc 1 1114 19
	lwu	a5,-28(s0)
	add	a4,a4,a5
	ld	a5,-24(s0)
	sd	a4,16(a5)
	.loc 1 1118 1
	j	.L130
.L128:
	.loc 1 1116 12
	ld	a5,-24(s0)
	ld	a4,24(a5)
	.loc 1 1116 19
	lwu	a5,-28(s0)
	neg	a5,a5
	add	a4,a4,a5
	ld	a5,-24(s0)
	sd	a4,24(a5)
.L130:
	.loc 1 1118 1
	nop
	ld	ra,24(sp)
	.cfi_restore 1
	ld	s0,16(sp)
	.cfi_restore 8
	.cfi_def_cfa 2, 32
	addi	sp,sp,32
	.cfi_def_cfa_offset 0
	jr	ra
	.cfi_endproc
.LFE17:
	.size	NetblockTrim, .-NetblockTrim
	.section	.text.NetbufTrim,"ax",@progbits
	.align	1
	.globl	NetbufTrim
	.type	NetbufTrim, @function
NetbufTrim:
.LFB18:
	.loc 1 1139 1
	.cfi_startproc
	addi	sp,sp,-48
	.cfi_def_cfa_offset 48
	sd	ra,40(sp)
	sd	s0,32(sp)
	.cfi_offset 1, -8
	.cfi_offset 8, -16
	addi	s0,sp,48
	.cfi_def_cfa 8, 0
	sd	a0,-40(s0)
	mv	a5,a1
	mv	a4,a2
	sw	a5,-44(s0)
	mv	a5,a4
	sb	a5,-45(s0)
	.loc 1 1146 6
	lw	a5,-44(s0)
	sext.w	a5,a5
	beq	a5,zero,.L132
	.loc 1 1146 26 discriminator 1
	ld	a5,-40(s0)
	lw	a5,132(a5)
	.loc 1 1146 18 discriminator 1
	bne	a5,zero,.L133
.L132:
	.loc 1 1147 12
	li	a5,0
	j	.L134
.L133:
	.loc 1 1150 17
	ld	a5,-40(s0)
	lw	a5,132(a5)
	.loc 1 1150 6
	lw	a4,-44(s0)
	sext.w	a4,a4
	bleu	a4,a5,.L135
	.loc 1 1151 9
	ld	a5,-40(s0)
	lw	a5,132(a5)
	sw	a5,-44(s0)
.L135:
	.loc 1 1161 11
	sw	zero,-24(s0)
	.loc 1 1162 7
	ld	a5,-40(s0)
	lw	a5,132(a5)
	.loc 1 1162 19
	lw	a4,-44(s0)
	subw	a5,a5,a4
	sext.w	a4,a5
	ld	a5,-40(s0)
	sw	a4,132(a5)
	.loc 1 1164 25
	lbu	a5,-45(s0)
	andi	a5,a5,0xff
	bne	a5,zero,.L136
	.loc 1 1164 31 discriminator 1
	ld	a5,-40(s0)
	lw	a5,128(a5)
	.loc 1 1164 9 discriminator 1
	addiw	a5,a5,-1
	sw	a5,-20(s0)
	j	.L137
.L136:
	.loc 1 1164 9 is_stmt 0 discriminator 2
	sw	zero,-20(s0)
.L137:
	.loc 1 1165 11 is_stmt 1
	ld	a5,-40(s0)
	addi	a5,a5,136
	sd	a5,-32(s0)
.L147:
	.loc 1 1168 16
	lwu	a4,-20(s0)
	mv	a5,a4
	slli	a5,a5,2
	add	a5,a5,a4
	slli	a5,a5,3
	mv	a4,a5
	ld	a5,-32(s0)
	add	a5,a5,a4
	.loc 1 1168 23
	lw	a5,32(a5)
	.loc 1 1168 8
	bne	a5,zero,.L138
	.loc 1 1169 30
	lbu	a5,-45(s0)
	andi	a5,a5,0xff
	beq	a5,zero,.L139
	.loc 1 1169 30 is_stmt 0 discriminator 1
	li	a5,1
	j	.L140
.L139:
	.loc 1 1169 30 discriminator 2
	li	a5,-1
.L140:
	.loc 1 1169 13 is_stmt 1 discriminator 4
	lw	a4,-20(s0)
	addw	a5,a4,a5
	sw	a5,-20(s0)
	.loc 1 1170 7
	j	.L141
.L138:
	.loc 1 1173 22
	lwu	a4,-20(s0)
	mv	a5,a4
	slli	a5,a5,2
	add	a5,a5,a4
	slli	a5,a5,3
	mv	a4,a5
	ld	a5,-32(s0)
	add	a5,a5,a4
	.loc 1 1173 29
	lw	a5,32(a5)
	.loc 1 1173 8
	lw	a4,-44(s0)
	sext.w	a4,a4
	bleu	a4,a5,.L142
	.loc 1 1174 21
	lwu	a4,-20(s0)
	mv	a5,a4
	slli	a5,a5,2
	add	a5,a5,a4
	slli	a5,a5,3
	mv	a4,a5
	ld	a5,-32(s0)
	add	a5,a5,a4
	.loc 1 1174 28
	lw	a5,32(a5)
	.loc 1 1174 11
	lw	a4,-44(s0)
	subw	a5,a4,a5
	sw	a5,-44(s0)
	.loc 1 1175 25
	lwu	a4,-20(s0)
	mv	a5,a4
	slli	a5,a5,2
	add	a5,a5,a4
	slli	a5,a5,3
	mv	a4,a5
	ld	a5,-32(s0)
	add	a5,a5,a4
	.loc 1 1175 32
	lw	a5,32(a5)
	.loc 1 1175 15
	lw	a4,-24(s0)
	addw	a5,a4,a5
	sw	a5,-24(s0)
	.loc 1 1176 29
	lwu	a4,-20(s0)
	mv	a5,a4
	slli	a5,a5,2
	add	a5,a5,a4
	slli	a5,a5,3
	mv	a4,a5
	.loc 1 1176 7
	ld	a5,-32(s0)
	add	a3,a5,a4
	.loc 1 1176 45
	lwu	a4,-20(s0)
	mv	a5,a4
	slli	a5,a5,2
	add	a5,a5,a4
	slli	a5,a5,3
	mv	a4,a5
	ld	a5,-32(s0)
	add	a5,a5,a4
	.loc 1 1176 7
	lw	a5,32(a5)
	lbu	a4,-45(s0)
	mv	a2,a4
	mv	a1,a5
	mv	a0,a3
	call	NetblockTrim
	.loc 1 1183 28
	lbu	a5,-45(s0)
	andi	a5,a5,0xff
	beq	a5,zero,.L145
	j	.L148
.L142:
	.loc 1 1178 15
	lw	a5,-24(s0)
	mv	a4,a5
	lw	a5,-44(s0)
	addw	a5,a4,a5
	sw	a5,-24(s0)
	.loc 1 1179 29
	lwu	a4,-20(s0)
	mv	a5,a4
	slli	a5,a5,2
	add	a5,a5,a4
	slli	a5,a5,3
	mv	a4,a5
	.loc 1 1179 7
	ld	a5,-32(s0)
	add	a5,a5,a4
	lbu	a3,-45(s0)
	lw	a4,-44(s0)
	mv	a2,a3
	mv	a1,a4
	mv	a0,a5
	call	NetblockTrim
	.loc 1 1180 7
	nop
	.loc 1 1186 10
	lw	a5,-24(s0)
	j	.L134
.L148:
	.loc 1 1183 28 discriminator 1
	li	a5,1
	j	.L146
.L145:
	.loc 1 1183 28 is_stmt 0 discriminator 2
	li	a5,-1
.L146:
	.loc 1 1183 11 is_stmt 1 discriminator 4
	lw	a4,-20(s0)
	addw	a5,a4,a5
	sw	a5,-20(s0)
.L141:
	.loc 1 1168 8
	j	.L147
.L134:
	.loc 1 1187 1
	mv	a0,a5
	ld	ra,40(sp)
	.cfi_restore 1
	ld	s0,32(sp)
	.cfi_restore 8
	.cfi_def_cfa 2, 48
	addi	sp,sp,48
	.cfi_def_cfa_offset 0
	jr	ra
	.cfi_endproc
.LFE18:
	.size	NetbufTrim, .-NetbufTrim
	.section	.text.NetbufCopy,"ax",@progbits
	.align	1
	.globl	NetbufCopy
	.type	NetbufCopy, @function
NetbufCopy:
.LFB19:
	.loc 1 1212 1
	.cfi_startproc
	addi	sp,sp,-80
	.cfi_def_cfa_offset 80
	sd	ra,72(sp)
	sd	s0,64(sp)
	.cfi_offset 1, -8
	.cfi_offset 8, -16
	addi	s0,sp,80
	.cfi_def_cfa 8, 0
	sd	a0,-56(s0)
	mv	a5,a1
	mv	a4,a2
	sd	a3,-72(s0)
	sw	a5,-60(s0)
	mv	a5,a4
	sw	a5,-64(s0)
	.loc 1 1223 6
	lw	a5,-64(s0)
	sext.w	a5,a5
	beq	a5,zero,.L150
	.loc 1 1223 26 discriminator 1
	ld	a5,-56(s0)
	lw	a5,132(a5)
	.loc 1 1223 18 discriminator 1
	lw	a4,-60(s0)
	sext.w	a4,a4
	bltu	a4,a5,.L151
.L150:
	.loc 1 1224 12
	li	a5,0
	j	.L152
.L151:
	.loc 1 1227 11
	ld	a5,-56(s0)
	lw	a5,132(a5)
	.loc 1 1227 23
	lw	a4,-60(s0)
	subw	a5,a5,a4
	sext.w	a5,a5
	.loc 1 1227 6
	lw	a4,-64(s0)
	sext.w	a4,a4
	bleu	a4,a5,.L153
	.loc 1 1228 15
	ld	a5,-56(s0)
	lw	a5,132(a5)
	.loc 1 1228 9
	lw	a4,-60(s0)
	subw	a5,a5,a4
	sw	a5,-64(s0)
.L153:
	.loc 1 1231 11
	ld	a5,-56(s0)
	addi	a5,a5,136
	sd	a5,-40(s0)
	.loc 1 1240 7
	sw	zero,-28(s0)
	.loc 1 1242 14
	sw	zero,-24(s0)
	.loc 1 1242 3
	j	.L154
.L159:
	.loc 1 1243 16
	lwu	a4,-24(s0)
	mv	a5,a4
	slli	a5,a5,2
	add	a5,a5,a4
	slli	a5,a5,3
	mv	a4,a5
	ld	a5,-40(s0)
	add	a5,a5,a4
	.loc 1 1243 23
	lw	a5,32(a5)
	.loc 1 1243 8
	beq	a5,zero,.L167
	.loc 1 1247 31
	lwu	a4,-24(s0)
	mv	a5,a4
	slli	a5,a5,2
	add	a5,a5,a4
	slli	a5,a5,3
	mv	a4,a5
	ld	a5,-40(s0)
	add	a5,a5,a4
	.loc 1 1247 38
	lw	a5,32(a5)
	.loc 1 1247 22
	lw	a4,-28(s0)
	addw	a5,a4,a5
	sext.w	a5,a5
	.loc 1 1247 8
	lw	a4,-60(s0)
	sext.w	a4,a4
	bltu	a4,a5,.L168
	.loc 1 1251 19
	lwu	a4,-24(s0)
	mv	a5,a4
	slli	a5,a5,2
	add	a5,a5,a4
	slli	a5,a5,3
	mv	a4,a5
	ld	a5,-40(s0)
	add	a5,a5,a4
	.loc 1 1251 26
	lw	a5,32(a5)
	.loc 1 1251 9
	lw	a4,-28(s0)
	addw	a5,a4,a5
	sw	a5,-28(s0)
	j	.L156
.L167:
	.loc 1 1244 7
	nop
.L156:
	.loc 1 1242 50 discriminator 2
	lw	a5,-24(s0)
	addiw	a5,a5,1
	sw	a5,-24(s0)
.L154:
	.loc 1 1242 31 discriminator 1
	ld	a5,-56(s0)
	lw	a5,128(a5)
	.loc 1 1242 25 discriminator 1
	lw	a4,-24(s0)
	sext.w	a4,a4
	bltu	a4,a5,.L159
	j	.L158
.L168:
	.loc 1 1248 7
	nop
.L158:
	.loc 1 1259 8
	lw	a5,-60(s0)
	mv	a4,a5
	lw	a5,-28(s0)
	subw	a5,a4,a5
	sw	a5,-44(s0)
	.loc 1 1260 17
	lwu	a4,-24(s0)
	mv	a5,a4
	slli	a5,a5,2
	add	a5,a5,a4
	slli	a5,a5,3
	mv	a4,a5
	ld	a5,-40(s0)
	add	a5,a5,a4
	.loc 1 1260 24
	lw	a5,32(a5)
	.loc 1 1260 8
	lw	a4,-44(s0)
	subw	a5,a5,a4
	sw	a5,-48(s0)
	.loc 1 1262 6
	lw	a5,-64(s0)
	mv	a4,a5
	lw	a5,-48(s0)
	sext.w	a4,a4
	sext.w	a5,a5
	bgtu	a4,a5,.L160
	.loc 1 1263 27
	lwu	a4,-24(s0)
	mv	a5,a4
	slli	a5,a5,2
	add	a5,a5,a4
	slli	a5,a5,3
	mv	a4,a5
	ld	a5,-40(s0)
	add	a5,a5,a4
	.loc 1 1263 34
	ld	a4,16(a5)
	.loc 1 1263 5
	lwu	a5,-44(s0)
	.loc 1 1263 40
	add	a5,a4,a5
	.loc 1 1263 5
	lwu	a4,-64(s0)
	mv	a2,a4
	mv	a1,a5
	ld	a0,-72(s0)
	call	CopyMem@plt
	.loc 1 1264 12
	lw	a5,-64(s0)
	j	.L152
.L160:
	.loc 1 1267 25
	lwu	a4,-24(s0)
	mv	a5,a4
	slli	a5,a5,2
	add	a5,a5,a4
	slli	a5,a5,3
	mv	a4,a5
	ld	a5,-40(s0)
	add	a5,a5,a4
	.loc 1 1267 32
	ld	a4,16(a5)
	.loc 1 1267 3
	lwu	a5,-44(s0)
	.loc 1 1267 38
	add	a5,a4,a5
	.loc 1 1267 3
	lwu	a4,-48(s0)
	mv	a2,a4
	mv	a1,a5
	ld	a0,-72(s0)
	call	CopyMem@plt
	.loc 1 1269 8
	lwu	a5,-48(s0)
	ld	a4,-72(s0)
	add	a5,a4,a5
	sd	a5,-72(s0)
	.loc 1 1270 7
	lw	a5,-64(s0)
	mv	a4,a5
	lw	a5,-48(s0)
	subw	a5,a4,a5
	sw	a5,-64(s0)
	.loc 1 1271 10
	lw	a5,-48(s0)
	sw	a5,-20(s0)
	.loc 1 1273 8
	lw	a5,-24(s0)
	addiw	a5,a5,1
	sw	a5,-24(s0)
	.loc 1 1275 3
	j	.L161
.L165:
	.loc 1 1276 22
	lwu	a4,-24(s0)
	mv	a5,a4
	slli	a5,a5,2
	add	a5,a5,a4
	slli	a5,a5,3
	mv	a4,a5
	ld	a5,-40(s0)
	add	a5,a5,a4
	.loc 1 1276 29
	lw	a5,32(a5)
	.loc 1 1276 8
	lw	a4,-64(s0)
	sext.w	a4,a4
	bleu	a4,a5,.L162
	.loc 1 1277 21
	lwu	a4,-24(s0)
	mv	a5,a4
	slli	a5,a5,2
	add	a5,a5,a4
	slli	a5,a5,3
	mv	a4,a5
	ld	a5,-40(s0)
	add	a5,a5,a4
	.loc 1 1277 28
	lw	a5,32(a5)
	.loc 1 1277 11
	lw	a4,-64(s0)
	subw	a5,a4,a5
	sw	a5,-64(s0)
	.loc 1 1278 24
	lwu	a4,-24(s0)
	mv	a5,a4
	slli	a5,a5,2
	add	a5,a5,a4
	slli	a5,a5,3
	mv	a4,a5
	ld	a5,-40(s0)
	add	a5,a5,a4
	.loc 1 1278 31
	lw	a5,32(a5)
	.loc 1 1278 14
	lw	a4,-20(s0)
	addw	a5,a4,a5
	sw	a5,-20(s0)
	.loc 1 1280 29
	lwu	a4,-24(s0)
	mv	a5,a4
	slli	a5,a5,2
	add	a5,a5,a4
	slli	a5,a5,3
	mv	a4,a5
	ld	a5,-40(s0)
	add	a5,a5,a4
	.loc 1 1280 36
	ld	a3,16(a5)
	.loc 1 1280 50
	lwu	a4,-24(s0)
	mv	a5,a4
	slli	a5,a5,2
	add	a5,a5,a4
	slli	a5,a5,3
	mv	a4,a5
	ld	a5,-40(s0)
	add	a5,a5,a4
	.loc 1 1280 57
	lw	a5,32(a5)
	.loc 1 1280 7
	slli	a5,a5,32
	srli	a5,a5,32
	mv	a2,a5
	mv	a1,a3
	ld	a0,-72(s0)
	call	CopyMem@plt
	.loc 1 1281 22
	lwu	a4,-24(s0)
	mv	a5,a4
	slli	a5,a5,2
	add	a5,a5,a4
	slli	a5,a5,3
	mv	a4,a5
	ld	a5,-40(s0)
	add	a5,a5,a4
	.loc 1 1281 29
	lw	a5,32(a5)
	slli	a5,a5,32
	srli	a5,a5,32
	.loc 1 1281 12
	ld	a4,-72(s0)
	add	a5,a4,a5
	sd	a5,-72(s0)
	j	.L166
.L162:
	.loc 1 1283 14
	lw	a5,-20(s0)
	mv	a4,a5
	lw	a5,-64(s0)
	addw	a5,a4,a5
	sw	a5,-20(s0)
	.loc 1 1284 29
	lwu	a4,-24(s0)
	mv	a5,a4
	slli	a5,a5,2
	add	a5,a5,a4
	slli	a5,a5,3
	mv	a4,a5
	ld	a5,-40(s0)
	add	a5,a5,a4
	.loc 1 1284 36
	ld	a5,16(a5)
	.loc 1 1284 7
	lwu	a4,-64(s0)
	mv	a2,a4
	mv	a1,a5
	ld	a0,-72(s0)
	call	CopyMem@plt
	.loc 1 1285 7
	j	.L164
.L166:
	.loc 1 1275 42
	lw	a5,-24(s0)
	addiw	a5,a5,1
	sw	a5,-24(s0)
.L161:
	.loc 1 1275 23 discriminator 1
	ld	a5,-56(s0)
	lw	a5,128(a5)
	.loc 1 1275 17 discriminator 1
	lw	a4,-24(s0)
	sext.w	a4,a4
	bltu	a4,a5,.L165
.L164:
	.loc 1 1289 10
	lw	a5,-20(s0)
.L152:
	.loc 1 1290 1
	mv	a0,a5
	ld	ra,72(sp)
	.cfi_restore 1
	ld	s0,64(sp)
	.cfi_restore 8
	.cfi_def_cfa 2, 80
	addi	sp,sp,80
	.cfi_def_cfa_offset 0
	jr	ra
	.cfi_endproc
.LFE19:
	.size	NetbufCopy, .-NetbufCopy
	.section	.text.NetbufQueInit,"ax",@progbits
	.align	1
	.globl	NetbufQueInit
	.type	NetbufQueInit, @function
NetbufQueInit:
.LFB20:
	.loc 1 1303 1
	.cfi_startproc
	addi	sp,sp,-32
	.cfi_def_cfa_offset 32
	sd	ra,24(sp)
	sd	s0,16(sp)
	.cfi_offset 1, -8
	.cfi_offset 8, -16
	addi	s0,sp,32
	.cfi_def_cfa 8, 0
	sd	a0,-24(s0)
	.loc 1 1304 22
	ld	a5,-24(s0)
	li	a4,1970364416
	addi	a4,a4,622
	sw	a4,0(a5)
	.loc 1 1305 19
	ld	a5,-24(s0)
	li	a4,1
	sd	a4,8(a5)
	.loc 1 1306 3
	ld	a5,-24(s0)
	addi	a5,a5,16
	mv	a0,a5
	call	InitializeListHead@plt
	.loc 1 1308 3
	ld	a5,-24(s0)
	addi	a5,a5,32
	mv	a0,a5
	call	InitializeListHead@plt
	.loc 1 1309 20
	ld	a5,-24(s0)
	sw	zero,48(a5)
	.loc 1 1310 19
	ld	a5,-24(s0)
	sw	zero,52(a5)
	.loc 1 1311 1
	nop
	ld	ra,24(sp)
	.cfi_restore 1
	ld	s0,16(sp)
	.cfi_restore 8
	.cfi_def_cfa 2, 32
	addi	sp,sp,32
	.cfi_def_cfa_offset 0
	jr	ra
	.cfi_endproc
.LFE20:
	.size	NetbufQueInit, .-NetbufQueInit
	.section	.text.NetbufQueAlloc,"ax",@progbits
	.align	1
	.globl	NetbufQueAlloc
	.type	NetbufQueAlloc, @function
NetbufQueAlloc:
.LFB21:
	.loc 1 1325 1
	.cfi_startproc
	addi	sp,sp,-32
	.cfi_def_cfa_offset 32
	sd	ra,24(sp)
	sd	s0,16(sp)
	.cfi_offset 1, -8
	.cfi_offset 8, -16
	addi	s0,sp,32
	.cfi_def_cfa 8, 0
	.loc 1 1328 13
	li	a0,56
	call	AllocatePool@plt
	sd	a0,-24(s0)
	.loc 1 1329 6
	ld	a5,-24(s0)
	bne	a5,zero,.L171
	.loc 1 1330 12
	li	a5,0
	j	.L172
.L171:
	.loc 1 1333 3
	ld	a0,-24(s0)
	call	NetbufQueInit
	.loc 1 1335 10
	ld	a5,-24(s0)
.L172:
	.loc 1 1336 1
	mv	a0,a5
	ld	ra,24(sp)
	.cfi_restore 1
	ld	s0,16(sp)
	.cfi_restore 8
	.cfi_def_cfa 2, 32
	addi	sp,sp,32
	.cfi_def_cfa_offset 0
	jr	ra
	.cfi_endproc
.LFE21:
	.size	NetbufQueAlloc, .-NetbufQueAlloc
	.section	.text.NetbufQueFree,"ax",@progbits
	.align	1
	.globl	NetbufQueFree
	.type	NetbufQueFree, @function
NetbufQueFree:
.LFB22:
	.loc 1 1353 1
	.cfi_startproc
	addi	sp,sp,-32
	.cfi_def_cfa_offset 32
	sd	ra,24(sp)
	sd	s0,16(sp)
	.cfi_offset 1, -8
	.cfi_offset 8, -16
	addi	s0,sp,32
	.cfi_def_cfa 8, 0
	sd	a0,-24(s0)
	.loc 1 1357 10
	ld	a5,-24(s0)
	ld	a5,8(a5)
	.loc 1 1357 18
	addi	a4,a5,-1
	ld	a5,-24(s0)
	sd	a4,8(a5)
	.loc 1 1359 14
	ld	a5,-24(s0)
	ld	a5,8(a5)
	.loc 1 1359 6
	bne	a5,zero,.L175
	.loc 1 1360 5
	ld	a0,-24(s0)
	call	NetbufQueFlush
	.loc 1 1361 5
	ld	a0,-24(s0)
	call	FreePool@plt
.L175:
	.loc 1 1363 1
	nop
	ld	ra,24(sp)
	.cfi_restore 1
	ld	s0,16(sp)
	.cfi_restore 8
	.cfi_def_cfa 2, 32
	addi	sp,sp,32
	.cfi_def_cfa_offset 0
	jr	ra
	.cfi_endproc
.LFE22:
	.size	NetbufQueFree, .-NetbufQueFree
	.section	.text.NetbufQueAppend,"ax",@progbits
	.align	1
	.globl	NetbufQueAppend
	.type	NetbufQueAppend, @function
NetbufQueAppend:
.LFB23:
	.loc 1 1378 1
	.cfi_startproc
	addi	sp,sp,-32
	.cfi_def_cfa_offset 32
	sd	ra,24(sp)
	sd	s0,16(sp)
	.cfi_offset 1, -8
	.cfi_offset 8, -16
	addi	s0,sp,32
	.cfi_def_cfa 8, 0
	sd	a0,-24(s0)
	sd	a1,-32(s0)
	.loc 1 1382 3
	ld	a5,-24(s0)
	addi	a4,a5,32
	ld	a5,-32(s0)
	addi	a5,a5,16
	mv	a1,a5
	mv	a0,a4
	call	InsertTailList@plt
	.loc 1 1384 10
	ld	a5,-24(s0)
	lw	a4,48(a5)
	.loc 1 1384 27
	ld	a5,-32(s0)
	lw	a5,132(a5)
	.loc 1 1384 20
	addw	a5,a4,a5
	sext.w	a4,a5
	ld	a5,-24(s0)
	sw	a4,48(a5)
	.loc 1 1385 10
	ld	a5,-24(s0)
	lw	a5,52(a5)
	.loc 1 1385 18
	addiw	a5,a5,1
	sext.w	a4,a5
	ld	a5,-24(s0)
	sw	a4,52(a5)
	.loc 1 1386 1
	nop
	ld	ra,24(sp)
	.cfi_restore 1
	ld	s0,16(sp)
	.cfi_restore 8
	.cfi_def_cfa 2, 32
	addi	sp,sp,32
	.cfi_def_cfa_offset 0
	jr	ra
	.cfi_endproc
.LFE23:
	.size	NetbufQueAppend, .-NetbufQueAppend
	.section	.text.NetbufQueRemove,"ax",@progbits
	.align	1
	.globl	NetbufQueRemove
	.type	NetbufQueRemove, @function
NetbufQueRemove:
.LFB24:
	.loc 1 1402 1
	.cfi_startproc
	addi	sp,sp,-48
	.cfi_def_cfa_offset 48
	sd	ra,40(sp)
	sd	s0,32(sp)
	.cfi_offset 1, -8
	.cfi_offset 8, -16
	addi	s0,sp,48
	.cfi_def_cfa 8, 0
	sd	a0,-40(s0)
	.loc 1 1407 14
	ld	a5,-40(s0)
	lw	a5,52(a5)
	.loc 1 1407 6
	bne	a5,zero,.L178
	.loc 1 1408 12
	li	a5,0
	j	.L179
.L178:
	.loc 1 1411 61
	ld	a5,-40(s0)
	ld	a5,32(a5)
	.loc 1 1411 9
	addi	a5,a5,-16
	sd	a5,-24(s0)
	.loc 1 1413 3
	ld	a5,-40(s0)
	addi	a5,a5,32
	mv	a0,a5
	call	NetListRemoveHead@plt
	.loc 1 1415 10
	ld	a5,-40(s0)
	lw	a4,48(a5)
	.loc 1 1415 28
	ld	a5,-24(s0)
	lw	a5,132(a5)
	.loc 1 1415 20
	subw	a5,a4,a5
	sext.w	a4,a5
	ld	a5,-40(s0)
	sw	a4,48(a5)
	.loc 1 1416 10
	ld	a5,-40(s0)
	lw	a5,52(a5)
	.loc 1 1416 18
	addiw	a5,a5,-1
	sext.w	a4,a5
	ld	a5,-40(s0)
	sw	a4,52(a5)
	.loc 1 1417 10
	ld	a5,-24(s0)
.L179:
	.loc 1 1418 1
	mv	a0,a5
	ld	ra,40(sp)
	.cfi_restore 1
	ld	s0,32(sp)
	.cfi_restore 8
	.cfi_def_cfa 2, 48
	addi	sp,sp,48
	.cfi_def_cfa_offset 0
	jr	ra
	.cfi_endproc
.LFE24:
	.size	NetbufQueRemove, .-NetbufQueRemove
	.section	.text.NetbufQueCopy,"ax",@progbits
	.align	1
	.globl	NetbufQueCopy
	.type	NetbufQueCopy, @function
NetbufQueCopy:
.LFB25:
	.loc 1 1444 1
	.cfi_startproc
	addi	sp,sp,-80
	.cfi_def_cfa_offset 80
	sd	ra,72(sp)
	sd	s0,64(sp)
	.cfi_offset 1, -8
	.cfi_offset 8, -16
	addi	s0,sp,80
	.cfi_def_cfa 8, 0
	sd	a0,-56(s0)
	mv	a5,a1
	mv	a4,a2
	sd	a3,-72(s0)
	sw	a5,-60(s0)
	mv	a5,a4
	sw	a5,-64(s0)
	.loc 1 1455 6
	lw	a5,-64(s0)
	sext.w	a5,a5
	beq	a5,zero,.L181
	.loc 1 1455 29 discriminator 1
	ld	a5,-56(s0)
	lw	a5,48(a5)
	.loc 1 1455 18 discriminator 1
	lw	a4,-60(s0)
	sext.w	a4,a4
	bltu	a4,a5,.L182
.L181:
	.loc 1 1456 12
	li	a5,0
	j	.L183
.L182:
	.loc 1 1459 14
	ld	a5,-56(s0)
	lw	a5,48(a5)
	.loc 1 1459 24
	lw	a4,-60(s0)
	subw	a5,a5,a4
	sext.w	a5,a5
	.loc 1 1459 6
	lw	a4,-64(s0)
	sext.w	a4,a4
	bleu	a4,a5,.L184
	.loc 1 1460 18
	ld	a5,-56(s0)
	lw	a5,48(a5)
	.loc 1 1460 9
	lw	a4,-60(s0)
	subw	a5,a5,a4
	sw	a5,-64(s0)
.L184:
	.loc 1 1466 7
	sw	zero,-36(s0)
	.loc 1 1467 8
	sd	zero,-32(s0)
	.loc 1 1469 13
	ld	a5,-56(s0)
	ld	a5,32(a5)
	sd	a5,-24(s0)
	.loc 1 1469 3
	j	.L185
.L188:
	.loc 1 1470 10
	ld	a5,-24(s0)
	addi	a5,a5,-16
	sd	a5,-32(s0)
	.loc 1 1472 28
	ld	a5,-32(s0)
	lw	a5,132(a5)
	.loc 1 1472 22
	lw	a4,-36(s0)
	addw	a5,a4,a5
	sext.w	a5,a5
	.loc 1 1472 8
	lw	a4,-60(s0)
	sext.w	a4,a4
	bltu	a4,a5,.L196
	.loc 1 1476 16
	ld	a5,-32(s0)
	lw	a5,132(a5)
	.loc 1 1476 9
	lw	a4,-36(s0)
	addw	a5,a4,a5
	sw	a5,-36(s0)
	.loc 1 1469 85 discriminator 2
	ld	a5,-24(s0)
	ld	a5,0(a5)
	sd	a5,-24(s0)
.L185:
	.loc 1 1469 59 discriminator 1
	ld	a5,-56(s0)
	addi	a5,a5,32
	.loc 1 1469 55 discriminator 1
	ld	a4,-24(s0)
	bne	a4,a5,.L188
	j	.L187
.L196:
	.loc 1 1473 7
	nop
.L187:
	.loc 1 1484 8
	lw	a5,-60(s0)
	mv	a4,a5
	lw	a5,-36(s0)
	subw	a5,a4,a5
	sw	a5,-44(s0)
	.loc 1 1485 14
	ld	a5,-32(s0)
	lw	a5,132(a5)
	.loc 1 1485 8
	lw	a4,-44(s0)
	subw	a5,a5,a4
	sw	a5,-48(s0)
	.loc 1 1487 6
	lw	a5,-64(s0)
	mv	a4,a5
	lw	a5,-48(s0)
	sext.w	a4,a4
	sext.w	a5,a5
	bgeu	a4,a5,.L189
	.loc 1 1488 12
	lw	a4,-64(s0)
	lw	a5,-44(s0)
	ld	a3,-72(s0)
	mv	a2,a4
	mv	a1,a5
	ld	a0,-32(s0)
	call	NetbufCopy
	mv	a5,a0
	j	.L183
.L189:
	.loc 1 1491 3
	lw	a4,-48(s0)
	lw	a5,-44(s0)
	ld	a3,-72(s0)
	mv	a2,a4
	mv	a1,a5
	ld	a0,-32(s0)
	call	NetbufCopy
	.loc 1 1492 8
	lwu	a5,-48(s0)
	ld	a4,-72(s0)
	add	a5,a4,a5
	sd	a5,-72(s0)
	.loc 1 1493 7
	lw	a5,-64(s0)
	mv	a4,a5
	lw	a5,-48(s0)
	subw	a5,a4,a5
	sw	a5,-64(s0)
	.loc 1 1494 10
	lw	a5,-48(s0)
	sw	a5,-40(s0)
	.loc 1 1499 9
	ld	a5,-24(s0)
	ld	a5,0(a5)
	sd	a5,-24(s0)
	.loc 1 1501 9
	j	.L190
.L194:
	.loc 1 1502 10
	ld	a5,-24(s0)
	addi	a5,a5,-16
	sd	a5,-32(s0)
	.loc 1 1504 19
	ld	a5,-32(s0)
	lw	a5,132(a5)
	.loc 1 1504 8
	lw	a4,-64(s0)
	sext.w	a4,a4
	bleu	a4,a5,.L191
	.loc 1 1505 18
	ld	a5,-32(s0)
	lw	a5,132(a5)
	.loc 1 1505 11
	lw	a4,-64(s0)
	subw	a5,a4,a5
	sw	a5,-64(s0)
	.loc 1 1506 21
	ld	a5,-32(s0)
	lw	a5,132(a5)
	.loc 1 1506 14
	lw	a4,-40(s0)
	addw	a5,a4,a5
	sw	a5,-40(s0)
	.loc 1 1508 7
	ld	a5,-32(s0)
	lw	a5,132(a5)
	ld	a3,-72(s0)
	mv	a2,a5
	li	a1,0
	ld	a0,-32(s0)
	call	NetbufCopy
	.loc 1 1509 19
	ld	a5,-32(s0)
	lw	a5,132(a5)
	slli	a5,a5,32
	srli	a5,a5,32
	.loc 1 1509 12
	ld	a4,-72(s0)
	add	a5,a4,a5
	sd	a5,-72(s0)
	j	.L195
.L191:
	.loc 1 1511 7
	lw	a5,-64(s0)
	ld	a3,-72(s0)
	mv	a2,a5
	li	a1,0
	ld	a0,-32(s0)
	call	NetbufCopy
	.loc 1 1512 14
	lw	a5,-40(s0)
	mv	a4,a5
	lw	a5,-64(s0)
	addw	a5,a4,a5
	sw	a5,-40(s0)
	.loc 1 1513 7
	j	.L193
.L195:
	.loc 1 1516 11
	ld	a5,-24(s0)
	ld	a5,0(a5)
	sd	a5,-24(s0)
.L190:
	.loc 1 1501 20
	lw	a5,-64(s0)
	sext.w	a5,a5
	beq	a5,zero,.L193
	.loc 1 1501 33 discriminator 1
	ld	a5,-56(s0)
	addi	a5,a5,32
	.loc 1 1501 20 discriminator 1
	ld	a4,-24(s0)
	bne	a4,a5,.L194
.L193:
	.loc 1 1519 10
	lw	a5,-40(s0)
.L183:
	.loc 1 1520 1
	mv	a0,a5
	ld	ra,72(sp)
	.cfi_restore 1
	ld	s0,64(sp)
	.cfi_restore 8
	.cfi_def_cfa 2, 80
	addi	sp,sp,80
	.cfi_def_cfa_offset 0
	jr	ra
	.cfi_endproc
.LFE25:
	.size	NetbufQueCopy, .-NetbufQueCopy
	.section	.text.NetbufQueTrim,"ax",@progbits
	.align	1
	.globl	NetbufQueTrim
	.type	NetbufQueTrim, @function
NetbufQueTrim:
.LFB26:
	.loc 1 1541 1
	.cfi_startproc
	addi	sp,sp,-64
	.cfi_def_cfa_offset 64
	sd	ra,56(sp)
	sd	s0,48(sp)
	.cfi_offset 1, -8
	.cfi_offset 8, -16
	addi	s0,sp,64
	.cfi_def_cfa 8, 0
	sd	a0,-56(s0)
	mv	a5,a1
	sw	a5,-60(s0)
	.loc 1 1549 6
	lw	a5,-60(s0)
	sext.w	a5,a5
	bne	a5,zero,.L198
	.loc 1 1550 12
	li	a5,0
	j	.L199
.L198:
	.loc 1 1553 20
	ld	a5,-56(s0)
	lw	a5,48(a5)
	.loc 1 1553 6
	lw	a4,-60(s0)
	sext.w	a4,a4
	bleu	a4,a5,.L200
	.loc 1 1554 9
	ld	a5,-56(s0)
	lw	a5,48(a5)
	sw	a5,-60(s0)
.L200:
	.loc 1 1557 10
	ld	a5,-56(s0)
	lw	a5,48(a5)
	.loc 1 1557 20
	lw	a4,-60(s0)
	subw	a5,a5,a4
	sext.w	a4,a5
	ld	a5,-56(s0)
	sw	a4,48(a5)
	.loc 1 1558 11
	sw	zero,-36(s0)
	.loc 1 1560 13
	ld	a5,-56(s0)
	ld	a5,32(a5)
	sd	a5,-24(s0)
	.loc 1 1560 54
	ld	a5,-24(s0)
	ld	a5,0(a5)
	sd	a5,-32(s0)
	.loc 1 1560 3
	j	.L201
.L205:
	.loc 1 1561 10
	ld	a5,-24(s0)
	addi	a5,a5,-16
	sd	a5,-48(s0)
	.loc 1 1563 20
	ld	a5,-48(s0)
	lw	a5,132(a5)
	.loc 1 1563 8
	lw	a4,-60(s0)
	sext.w	a4,a4
	bltu	a4,a5,.L202
	.loc 1 1564 22
	ld	a5,-48(s0)
	lw	a5,132(a5)
	.loc 1 1564 15
	lw	a4,-36(s0)
	addw	a5,a4,a5
	sw	a5,-36(s0)
	.loc 1 1565 18
	ld	a5,-48(s0)
	lw	a5,132(a5)
	.loc 1 1565 11
	lw	a4,-60(s0)
	subw	a5,a4,a5
	sw	a5,-60(s0)
	.loc 1 1567 7
	ld	a0,-24(s0)
	call	RemoveEntryList@plt
	.loc 1 1568 7
	ld	a0,-48(s0)
	call	NetbufFree
	.loc 1 1570 14
	ld	a5,-56(s0)
	lw	a5,52(a5)
	.loc 1 1570 22
	addiw	a5,a5,-1
	sext.w	a4,a5
	ld	a5,-56(s0)
	sw	a4,52(a5)
	.loc 1 1572 10
	lw	a5,-60(s0)
	sext.w	a5,a5
	bne	a5,zero,.L203
	.loc 1 1573 9
	j	.L204
.L202:
	.loc 1 1576 18
	lw	a5,-60(s0)
	li	a2,1
	mv	a1,a5
	ld	a0,-48(s0)
	call	NetbufTrim
	mv	a5,a0
	.loc 1 1576 15 discriminator 1
	lw	a4,-36(s0)
	addw	a5,a4,a5
	sw	a5,-36(s0)
	.loc 1 1577 7
	j	.L204
.L203:
	.loc 1 1560 112 discriminator 2
	ld	a5,-32(s0)
	sd	a5,-24(s0)
	.loc 1 1560 125 discriminator 2
	ld	a5,-24(s0)
	ld	a5,0(a5)
	sd	a5,-32(s0)
.L201:
	.loc 1 1560 86 discriminator 1
	ld	a5,-56(s0)
	addi	a5,a5,32
	.loc 1 1560 82 discriminator 1
	ld	a4,-24(s0)
	bne	a4,a5,.L205
.L204:
	.loc 1 1581 10
	lw	a5,-36(s0)
.L199:
	.loc 1 1582 1
	mv	a0,a5
	ld	ra,56(sp)
	.cfi_restore 1
	ld	s0,48(sp)
	.cfi_restore 8
	.cfi_def_cfa 2, 64
	addi	sp,sp,64
	.cfi_def_cfa_offset 0
	jr	ra
	.cfi_endproc
.LFE26:
	.size	NetbufQueTrim, .-NetbufQueTrim
	.section	.text.NetbufQueFlush,"ax",@progbits
	.align	1
	.globl	NetbufQueFlush
	.type	NetbufQueFlush, @function
NetbufQueFlush:
.LFB27:
	.loc 1 1595 1
	.cfi_startproc
	addi	sp,sp,-32
	.cfi_def_cfa_offset 32
	sd	ra,24(sp)
	sd	s0,16(sp)
	.cfi_offset 1, -8
	.cfi_offset 8, -16
	addi	s0,sp,32
	.cfi_def_cfa 8, 0
	sd	a0,-24(s0)
	.loc 1 1598 3
	ld	a5,-24(s0)
	addi	a5,a5,32
	mv	a0,a5
	call	NetbufFreeList
	.loc 1 1600 19
	ld	a5,-24(s0)
	sw	zero,52(a5)
	.loc 1 1601 20
	ld	a5,-24(s0)
	sw	zero,48(a5)
	.loc 1 1602 1
	nop
	ld	ra,24(sp)
	.cfi_restore 1
	ld	s0,16(sp)
	.cfi_restore 8
	.cfi_def_cfa 2, 32
	addi	sp,sp,32
	.cfi_def_cfa_offset 0
	jr	ra
	.cfi_endproc
.LFE27:
	.size	NetbufQueFlush, .-NetbufQueFlush
	.section	.text.NetblockChecksum,"ax",@progbits
	.align	1
	.globl	NetblockChecksum
	.type	NetblockChecksum, @function
NetblockChecksum:
.LFB28:
	.loc 1 1619 1
	.cfi_startproc
	addi	sp,sp,-48
	.cfi_def_cfa_offset 48
	sd	ra,40(sp)
	sd	s0,32(sp)
	sd	s1,24(sp)
	.cfi_offset 1, -8
	.cfi_offset 8, -16
	.cfi_offset 9, -24
	addi	s0,sp,48
	.cfi_def_cfa 8, 0
	sd	a0,-40(s0)
	mv	a5,a1
	sw	a5,-44(s0)
	.loc 1 1622 7
	li	s1,0
	.loc 1 1627 11
	lw	a5,-44(s0)
	andi	a5,a5,1
	sext.w	a5,a5
	.loc 1 1627 6
	beq	a5,zero,.L209
	.loc 1 1628 25
	lwu	a5,-44(s0)
	addi	a5,a5,-1
	ld	a4,-40(s0)
	add	a5,a4,a5
	.loc 1 1628 12
	lbu	a5,0(a5)
	sext.w	a5,a5
	.loc 1 1628 9
	addw	a5,s1,a5
	sext.w	s1,a5
	.loc 1 1631 9
	j	.L209
.L210:
	.loc 1 1632 12
	ld	a5,-40(s0)
	lhu	a5,0(a5)
	sext.w	a5,a5
	.loc 1 1632 9
	addw	a5,s1,a5
	sext.w	s1,a5
	.loc 1 1633 10
	ld	a5,-40(s0)
	addi	a5,a5,2
	sd	a5,-40(s0)
	.loc 1 1634 9
	lw	a5,-44(s0)
	addiw	a5,a5,-2
	sw	a5,-44(s0)
.L209:
	.loc 1 1631 14
	lw	a5,-44(s0)
	sext.w	a4,a5
	li	a5,1
	bgtu	a4,a5,.L210
	.loc 1 1640 9
	j	.L211
.L212:
	.loc 1 1641 16
	mv	a5,s1
	slli	a5,a5,48
	srli	a5,a5,48
	sext.w	a4,a5
	.loc 1 1641 33
	srliw	a5,s1,16
	sext.w	a5,a5
	.loc 1 1641 9
	addw	a5,a4,a5
	sext.w	s1,a5
.L211:
	.loc 1 1640 15
	srliw	a5,s1,16
	sext.w	a5,a5
	.loc 1 1640 22
	bne	a5,zero,.L212
	.loc 1 1644 10
	mv	a5,s1
	slli	a5,a5,48
	srli	a5,a5,48
	.loc 1 1645 1
	mv	a0,a5
	ld	ra,40(sp)
	.cfi_restore 1
	ld	s0,32(sp)
	.cfi_restore 8
	.cfi_def_cfa 2, 48
	ld	s1,24(sp)
	.cfi_restore 9
	addi	sp,sp,48
	.cfi_def_cfa_offset 0
	jr	ra
	.cfi_endproc
.LFE28:
	.size	NetblockChecksum, .-NetblockChecksum
	.section	.text.NetAddChecksum,"ax",@progbits
	.align	1
	.globl	NetAddChecksum
	.type	NetAddChecksum, @function
NetAddChecksum:
.LFB29:
	.loc 1 1662 1
	.cfi_startproc
	addi	sp,sp,-48
	.cfi_def_cfa_offset 48
	sd	ra,40(sp)
	sd	s0,32(sp)
	.cfi_offset 1, -8
	.cfi_offset 8, -16
	addi	s0,sp,48
	.cfi_def_cfa 8, 0
	mv	a5,a0
	mv	a4,a1
	sh	a5,-34(s0)
	mv	a5,a4
	sh	a5,-36(s0)
	.loc 1 1665 19
	lhu	a5,-34(s0)
	sext.w	a4,a5
	lhu	a5,-36(s0)
	sext.w	a5,a5
	addw	a5,a4,a5
	sext.w	a5,a5
	.loc 1 1665 7
	sw	a5,-20(s0)
	.loc 1 1670 12
	lw	a5,-20(s0)
	srliw	a5,a5,16
	sext.w	a5,a5
	.loc 1 1670 6
	beq	a5,zero,.L215
	.loc 1 1671 16
	lw	a5,-20(s0)
	slli	a5,a5,48
	srli	a5,a5,48
	sext.w	a5,a5
	.loc 1 1671 9
	addiw	a5,a5,1
	sw	a5,-20(s0)
.L215:
	.loc 1 1674 10
	lw	a5,-20(s0)
	slli	a5,a5,48
	srli	a5,a5,48
	.loc 1 1675 1
	mv	a0,a5
	ld	ra,40(sp)
	.cfi_restore 1
	ld	s0,32(sp)
	.cfi_restore 8
	.cfi_def_cfa 2, 48
	addi	sp,sp,48
	.cfi_def_cfa_offset 0
	jr	ra
	.cfi_endproc
.LFE29:
	.size	NetAddChecksum, .-NetAddChecksum
	.section	.text.NetbufChecksum,"ax",@progbits
	.align	1
	.globl	NetbufChecksum
	.type	NetbufChecksum, @function
NetbufChecksum:
.LFB30:
	.loc 1 1690 1
	.cfi_startproc
	addi	sp,sp,-64
	.cfi_def_cfa_offset 64
	sd	ra,56(sp)
	sd	s0,48(sp)
	.cfi_offset 1, -8
	.cfi_offset 8, -16
	addi	s0,sp,64
	.cfi_def_cfa 8, 0
	sd	a0,-56(s0)
	.loc 1 1699 12
	sh	zero,-22(s0)
	.loc 1 1700 10
	sw	zero,-20(s0)
	.loc 1 1701 11
	ld	a5,-56(s0)
	addi	a5,a5,136
	sd	a5,-40(s0)
	.loc 1 1703 14
	sw	zero,-28(s0)
	.loc 1 1703 3
	j	.L218
.L222:
	.loc 1 1704 16
	lwu	a4,-28(s0)
	mv	a5,a4
	slli	a5,a5,2
	add	a5,a5,a4
	slli	a5,a5,3
	mv	a4,a5
	ld	a5,-40(s0)
	add	a5,a5,a4
	.loc 1 1704 23
	lw	a5,32(a5)
	.loc 1 1704 8
	beq	a5,zero,.L224
	.loc 1 1708 41
	lwu	a4,-28(s0)
	mv	a5,a4
	slli	a5,a5,2
	add	a5,a5,a4
	slli	a5,a5,3
	mv	a4,a5
	ld	a5,-40(s0)
	add	a5,a5,a4
	.loc 1 1708 16
	ld	a3,16(a5)
	.loc 1 1708 62
	lwu	a4,-28(s0)
	mv	a5,a4
	slli	a5,a5,2
	add	a5,a5,a4
	slli	a5,a5,3
	mv	a4,a5
	ld	a5,-40(s0)
	add	a5,a5,a4
	.loc 1 1708 16
	lw	a5,32(a5)
	mv	a1,a5
	mv	a0,a3
	call	NetblockChecksum
	mv	a5,a0
	sh	a5,-24(s0)
	.loc 1 1710 17
	lw	a5,-20(s0)
	andi	a5,a5,1
	sext.w	a5,a5
	.loc 1 1710 8
	beq	a5,zero,.L221
	.loc 1 1715 18
	lhu	a5,-24(s0)
	mv	a0,a5
	call	SwapBytes16@plt
	mv	a5,a0
	sh	a5,-24(s0)
.L221:
	.loc 1 1718 16
	lhu	a4,-22(s0)
	lhu	a5,-24(s0)
	mv	a1,a4
	mv	a0,a5
	call	NetAddChecksum
	mv	a5,a0
	sh	a5,-22(s0)
	.loc 1 1719 22
	lwu	a4,-28(s0)
	mv	a5,a4
	slli	a5,a5,2
	add	a5,a5,a4
	slli	a5,a5,3
	mv	a4,a5
	ld	a5,-40(s0)
	add	a5,a5,a4
	.loc 1 1719 29
	lw	a5,32(a5)
	.loc 1 1719 12
	lw	a4,-20(s0)
	addw	a5,a4,a5
	sw	a5,-20(s0)
	j	.L220
.L224:
	.loc 1 1705 7
	nop
.L220:
	.loc 1 1703 50 discriminator 2
	lw	a5,-28(s0)
	addiw	a5,a5,1
	sw	a5,-28(s0)
.L218:
	.loc 1 1703 31 discriminator 1
	ld	a5,-56(s0)
	lw	a5,128(a5)
	.loc 1 1703 25 discriminator 1
	lw	a4,-28(s0)
	sext.w	a4,a4
	bltu	a4,a5,.L222
	.loc 1 1722 10
	lhu	a5,-22(s0)
	.loc 1 1723 1
	mv	a0,a5
	ld	ra,56(sp)
	.cfi_restore 1
	ld	s0,48(sp)
	.cfi_restore 8
	.cfi_def_cfa 2, 64
	addi	sp,sp,64
	.cfi_def_cfa_offset 0
	jr	ra
	.cfi_endproc
.LFE30:
	.size	NetbufChecksum, .-NetbufChecksum
	.section	.text.NetPseudoHeadChecksum,"ax",@progbits
	.align	1
	.globl	NetPseudoHeadChecksum
	.type	NetPseudoHeadChecksum, @function
NetPseudoHeadChecksum:
.LFB31:
	.loc 1 1746 1
	.cfi_startproc
	addi	sp,sp,-48
	.cfi_def_cfa_offset 48
	sd	ra,40(sp)
	sd	s0,32(sp)
	.cfi_offset 1, -8
	.cfi_offset 8, -16
	addi	s0,sp,48
	.cfi_def_cfa 8, 0
	mv	a5,a0
	mv	a4,a3
	sw	a5,-36(s0)
	mv	a5,a1
	sw	a5,-40(s0)
	mv	a5,a2
	sb	a5,-41(s0)
	mv	a5,a4
	sh	a5,-44(s0)
	.loc 1 1752 3
	addi	a5,s0,-32
	li	a1,12
	mv	a0,a5
	call	ZeroMem@plt
	.loc 1 1754 13
	lw	a5,-36(s0)
	sw	a5,-32(s0)
	.loc 1 1755 13
	lw	a5,-40(s0)
	sw	a5,-28(s0)
	.loc 1 1756 16
	lbu	a5,-41(s0)
	sb	a5,-23(s0)
	.loc 1 1757 13
	lhu	a5,-44(s0)
	mv	a0,a5
	call	SwapBytes16@plt
	mv	a5,a0
	.loc 1 1757 11 discriminator 1
	sh	a5,-22(s0)
	.loc 1 1759 10
	addi	a5,s0,-32
	li	a1,12
	mv	a0,a5
	call	NetblockChecksum
	mv	a5,a0
	.loc 1 1760 1
	mv	a0,a5
	ld	ra,40(sp)
	.cfi_restore 1
	ld	s0,32(sp)
	.cfi_restore 8
	.cfi_def_cfa 2, 48
	addi	sp,sp,48
	.cfi_def_cfa_offset 0
	jr	ra
	.cfi_endproc
.LFE31:
	.size	NetPseudoHeadChecksum, .-NetPseudoHeadChecksum
	.section	.text.NetIp6PseudoHeadChecksum,"ax",@progbits
	.align	1
	.globl	NetIp6PseudoHeadChecksum
	.type	NetIp6PseudoHeadChecksum, @function
NetIp6PseudoHeadChecksum:
.LFB32:
	.loc 1 1783 1
	.cfi_startproc
	addi	sp,sp,-96
	.cfi_def_cfa_offset 96
	sd	ra,88(sp)
	sd	s0,80(sp)
	.cfi_offset 1, -8
	.cfi_offset 8, -16
	addi	s0,sp,96
	.cfi_def_cfa 8, 0
	sd	a0,-72(s0)
	sd	a1,-80(s0)
	mv	a5,a2
	mv	a4,a3
	sb	a5,-81(s0)
	mv	a5,a4
	sw	a5,-88(s0)
	.loc 1 1789 3
	addi	a5,s0,-56
	li	a1,40
	mv	a0,a5
	call	ZeroMem@plt
	.loc 1 1791 4
	addi	a5,s0,-56
	li	a2,16
	ld	a1,-72(s0)
	mv	a0,a5
	call	CopyMem@plt
	.loc 1 1792 4
	addi	a5,s0,-56
	addi	a5,a5,16
	li	a2,16
	ld	a1,-80(s0)
	mv	a0,a5
	call	CopyMem@plt
	.loc 1 1794 18
	lbu	a5,-81(s0)
	sb	a5,-17(s0)
	.loc 1 1795 13
	lw	a5,-88(s0)
	mv	a0,a5
	call	SwapBytes32@plt
	mv	a5,a0
	.loc 1 1795 11 discriminator 1
	sw	a5,-24(s0)
	.loc 1 1797 10
	addi	a5,s0,-56
	li	a1,40
	mv	a0,a5
	call	NetblockChecksum
	mv	a5,a0
	.loc 1 1798 1
	mv	a0,a5
	ld	ra,88(sp)
	.cfi_restore 1
	ld	s0,80(sp)
	.cfi_restore 8
	.cfi_def_cfa 2, 96
	addi	sp,sp,96
	.cfi_def_cfa_offset 0
	jr	ra
	.cfi_endproc
.LFE32:
	.size	NetIp6PseudoHeadChecksum, .-NetIp6PseudoHeadChecksum
	.section	.text.NetIpSecNetbufFree,"ax",@progbits
	.align	1
	.globl	NetIpSecNetbufFree
	.type	NetIpSecNetbufFree, @function
NetIpSecNetbufFree:
.LFB33:
	.loc 1 1815 1
	.cfi_startproc
	addi	sp,sp,-32
	.cfi_def_cfa_offset 32
	sd	ra,24(sp)
	sd	s0,16(sp)
	.cfi_offset 1, -8
	.cfi_offset 8, -16
	addi	s0,sp,32
	.cfi_def_cfa 8, 0
	sd	a0,-24(s0)
	.loc 1 1819 7
	ld	a5,-24(s0)
	ld	a5,8(a5)
	.loc 1 1819 15
	addi	a4,a5,-1
	ld	a5,-24(s0)
	sd	a4,8(a5)
	.loc 1 1821 11
	ld	a5,-24(s0)
	ld	a5,8(a5)
	.loc 1 1821 6
	bne	a5,zero,.L229
	.loc 1 1829 9
	ld	a5,-24(s0)
	ld	a5,120(a5)
	.loc 1 1829 17
	ld	a4,8(a5)
	.loc 1 1829 25
	addi	a4,a4,-1
	sd	a4,8(a5)
	.loc 1 1831 13
	ld	a5,-24(s0)
	ld	a5,120(a5)
	.loc 1 1831 21
	ld	a5,8(a5)
	.loc 1 1831 8
	bgt	a5,zero,.L233
	.loc 1 1839 14
	ld	a5,-24(s0)
	ld	a5,120(a5)
	.loc 1 1839 22
	lw	a5,32(a5)
	.loc 1 1839 29
	andi	a5,a5,1
	sext.w	a5,a5
	.loc 1 1839 8
	beq	a5,zero,.L232
	.loc 1 1840 21
	ld	a5,-24(s0)
	ld	a5,120(a5)
	.loc 1 1840 39
	ld	a5,56(a5)
	.loc 1 1840 7
	mv	a0,a5
	call	FreePool@plt
.L232:
	.loc 1 1843 19
	ld	a5,-24(s0)
	ld	a5,120(a5)
	.loc 1 1843 5
	mv	a0,a5
	call	FreePool@plt
	.loc 1 1844 5
	ld	a0,-24(s0)
	call	FreePool@plt
	j	.L229
.L233:
	.loc 1 1832 7
	nop
.L229:
	.loc 1 1846 1
	ld	ra,24(sp)
	.cfi_restore 1
	ld	s0,16(sp)
	.cfi_restore 8
	.cfi_def_cfa 2, 32
	addi	sp,sp,32
	.cfi_def_cfa_offset 0
	jr	ra
	.cfi_endproc
.LFE33:
	.size	NetIpSecNetbufFree, .-NetIpSecNetbufFree
	.text
.Letext0:
	.file 2 "/home/kapoagaeming/Downloads/spacemit-image-builder/components/edk2/MdePkg/Include/RiscV64/ProcessorBind.h"
	.file 3 "/home/kapoagaeming/Downloads/spacemit-image-builder/components/edk2/MdePkg/Include/Base.h"
	.file 4 "/home/kapoagaeming/Downloads/spacemit-image-builder/components/edk2/MdePkg/Include/Uefi/UefiBaseType.h"
	.file 5 "/home/kapoagaeming/Downloads/spacemit-image-builder/components/edk2/MdePkg/Include/Uefi/UefiMultiPhase.h"
	.file 6 "/home/kapoagaeming/Downloads/spacemit-image-builder/components/edk2/MdePkg/Include/Protocol/DevicePath.h"
	.file 7 "/home/kapoagaeming/Downloads/spacemit-image-builder/components/edk2/MdePkg/Include/Uefi/UefiSpec.h"
	.file 8 "/home/kapoagaeming/Downloads/spacemit-image-builder/components/edk2/MdePkg/Include/Protocol/Ip6.h"
	.file 9 "/home/kapoagaeming/Downloads/spacemit-image-builder/components/edk2/NetworkPkg/Include/Library/NetLib.h"
	.file 10 "/home/kapoagaeming/Downloads/spacemit-image-builder/components/edk2/MdePkg/Include/Library/BaseLib.h"
	.file 11 "/home/kapoagaeming/Downloads/spacemit-image-builder/components/edk2/MdePkg/Include/Library/BaseMemoryLib.h"
	.file 12 "/home/kapoagaeming/Downloads/spacemit-image-builder/components/edk2/MdePkg/Include/Library/MemoryAllocationLib.h"
	.file 13 "/home/kapoagaeming/Downloads/spacemit-image-builder/components/edk2/MdePkg/Include/Library/UefiBootServicesTableLib.h"
	.section	.note.GNU-stack,"",@progbits
