	.file	"BmBoot.c"
	.option pic
	.option norelax
	.attribute arch, "rv64i2p1_m2p0_a2p1_f2p2_d2p2_c2p0_zicsr2p0_zifencei2p0_zmmul1p0_zaamo1p0_zalrsc1p0_zca1p0_zcd1p0"
	.attribute unaligned_access, 0
	.attribute stack_align, 16
	.text
.Ltext0:
	.cfi_sections	.debug_frame
	.file 0 "/home/kapoagaeming/Downloads/spacemit-image-builder/components/Build/Milk-V-Jupiter/RELEASE_GCC5/RISCV64/MdeModulePkg/Library/UefiBootManagerLib/UefiBootManagerLib" "/home/kapoagaeming/Downloads/spacemit-image-builder/components/edk2/MdeModulePkg/Library/UefiBootManagerLib/BmBoot.c"
	.globl	mRamDisk
	.section	.bss.mRamDisk,"aw",@nobits
	.align	3
	.type	mRamDisk, @object
	.size	mRamDisk, 8
mRamDisk:
	.zero	8
	.globl	mBmRefreshLegacyBootOption
	.section	.bss.mBmRefreshLegacyBootOption,"aw",@nobits
	.align	3
	.type	mBmRefreshLegacyBootOption, @object
	.size	mBmRefreshLegacyBootOption, 8
mBmRefreshLegacyBootOption:
	.zero	8
	.globl	mBmLegacyBoot
	.section	.bss.mBmLegacyBoot,"aw",@nobits
	.align	3
	.type	mBmLegacyBoot, @object
	.size	mBmLegacyBoot, 8
mBmLegacyBoot:
	.zero	8
	.globl	mBmHardDriveBootVariableGuid
	.section	.data.mBmHardDriveBootVariableGuid,"aw"
	.align	3
	.type	mBmHardDriveBootVariableGuid, @object
	.size	mBmHardDriveBootVariableGuid, 16
mBmHardDriveBootVariableGuid:
	.word	-88610335
	.half	14813
	.half	20267
	.base64	"hAjiDpBstt4="
	.globl	mBmAutoCreateBootOptionGuid
	.section	.data.mBmAutoCreateBootOptionGuid,"aw"
	.align	3
	.type	mBmAutoCreateBootOptionGuid, @object
	.size	mBmAutoCreateBootOptionGuid, 16
mBmAutoCreateBootOptionGuid:
	.word	-2130138034
	.half	-24815
	.half	19801
	.base64	"hQ7iGlIsWbI="
	.section	.rodata
	.align	3
.LC0:
	.string	"BDS"
	.section	.text.BmEndOfBdsPerfCode,"ax",@progbits
	.align	1
	.globl	BmEndOfBdsPerfCode
	.type	BmEndOfBdsPerfCode, @function
BmEndOfBdsPerfCode:
.LFB0:
	.file 1 "/home/kapoagaeming/Downloads/spacemit-image-builder/components/edk2/MdeModulePkg/Library/UefiBootManagerLib/BmBoot.c"
	.loc 1 43 1
	.cfi_startproc
	addi	sp,sp,-32
	.cfi_def_cfa_offset 32
	sd	ra,24(sp)
	sd	s0,16(sp)
	.cfi_offset 1, -8
	.cfi_offset 8, -16
	addi	s0,sp,32
	.cfi_def_cfa 8, 0
	sd	a0,-24(s0)
	sd	a1,-32(s0)
	.loc 1 47 12
	li	a0,64
	call	LogPerformanceMeasurementEnabled@plt
	mv	a5,a0
	.loc 1 47 11 discriminator 1
	beq	a5,zero,.L4
	.loc 1 47 57 discriminator 2
	li	a4,81
	li	a3,0
	lla	a2,.LC0
	li	a1,0
	la	a0,gEfiCallerIdGuid
	call	LogPerformanceMeasurement@plt
	.loc 1 49 3
	nop
.L4:
	nop
	.loc 1 50 1
	ld	ra,24(sp)
	.cfi_restore 1
	ld	s0,16(sp)
	.cfi_restore 8
	.cfi_def_cfa 2, 32
	addi	sp,sp,32
	.cfi_def_cfa_offset 0
	jr	ra
	.cfi_endproc
.LFE0:
	.size	BmEndOfBdsPerfCode, .-BmEndOfBdsPerfCode
	.section	.text.EfiBootManagerRegisterLegacyBootSupport,"ax",@progbits
	.align	1
	.globl	EfiBootManagerRegisterLegacyBootSupport
	.type	EfiBootManagerRegisterLegacyBootSupport, @function
EfiBootManagerRegisterLegacyBootSupport:
.LFB1:
	.loc 1 64 1
	.cfi_startproc
	addi	sp,sp,-32
	.cfi_def_cfa_offset 32
	sd	ra,24(sp)
	sd	s0,16(sp)
	.cfi_offset 1, -8
	.cfi_offset 8, -16
	addi	s0,sp,32
	.cfi_def_cfa 8, 0
	sd	a0,-24(s0)
	sd	a1,-32(s0)
	.loc 1 65 30
	lla	a5,mBmRefreshLegacyBootOption
	ld	a4,-24(s0)
	sd	a4,0(a5)
	.loc 1 66 17
	lla	a5,mBmLegacyBoot
	ld	a4,-32(s0)
	sd	a4,0(a5)
	.loc 1 67 1
	nop
	ld	ra,24(sp)
	.cfi_restore 1
	ld	s0,16(sp)
	.cfi_restore 8
	.cfi_def_cfa 2, 32
	addi	sp,sp,32
	.cfi_def_cfa_offset 0
	jr	ra
	.cfi_endproc
.LFE1:
	.size	EfiBootManagerRegisterLegacyBootSupport, .-EfiBootManagerRegisterLegacyBootSupport
	.section	.text.BmIsAutoCreateBootOption,"ax",@progbits
	.align	1
	.globl	BmIsAutoCreateBootOption
	.type	BmIsAutoCreateBootOption, @function
BmIsAutoCreateBootOption:
.LFB2:
	.loc 1 81 1
	.cfi_startproc
	addi	sp,sp,-32
	.cfi_def_cfa_offset 32
	sd	ra,24(sp)
	sd	s0,16(sp)
	.cfi_offset 1, -8
	.cfi_offset 8, -16
	addi	s0,sp,32
	.cfi_def_cfa 8, 0
	sd	a0,-24(s0)
	.loc 1 82 18
	ld	a5,-24(s0)
	lw	a4,40(a5)
	.loc 1 82 6
	li	a5,16
	bne	a4,a5,.L7
	.loc 1 83 42
	ld	a5,-24(s0)
	ld	a5,32(a5)
	.loc 1 83 7
	lla	a1,mBmAutoCreateBootOptionGuid
	mv	a0,a5
	call	CompareGuid@plt
	mv	a5,a0
	.loc 1 82 59 discriminator 1
	beq	a5,zero,.L7
	.loc 1 86 12
	li	a5,1
	j	.L8
.L7:
	.loc 1 88 12
	li	a5,0
.L8:
	.loc 1 90 1
	mv	a0,a5
	ld	ra,24(sp)
	.cfi_restore 1
	ld	s0,16(sp)
	.cfi_restore 8
	.cfi_def_cfa 2, 32
	addi	sp,sp,32
	.cfi_def_cfa_offset 0
	jr	ra
	.cfi_endproc
.LFE2:
	.size	BmIsAutoCreateBootOption, .-BmIsAutoCreateBootOption
	.section	.rodata
	.align	3
.LC1:
	.string	"%"
	.string	"s"
	.string	"%"
	.string	"0"
	.string	"4"
	.string	"x"
	.zero	2
	.section	.text.BmFindBootOptionInVariable,"ax",@progbits
	.align	1
	.globl	BmFindBootOptionInVariable
	.type	BmFindBootOptionInVariable, @function
BmFindBootOptionInVariable:
.LFB3:
	.loc 1 104 1
	.cfi_startproc
	addi	sp,sp,-224
	.cfi_def_cfa_offset 224
	sd	ra,216(sp)
	sd	s0,208(sp)
	sd	s1,200(sp)
	sd	s2,192(sp)
	.cfi_offset 1, -8
	.cfi_offset 8, -16
	.cfi_offset 9, -24
	.cfi_offset 18, -32
	addi	s0,sp,224
	.cfi_def_cfa 8, 0
	sd	a0,-216(s0)
	.loc 1 113 16
	li	a5,65536
	sd	a5,-40(s0)
	.loc 1 118 19
	ld	a5,-216(s0)
	ld	a4,0(a5)
	.loc 1 118 6
	li	a5,65536
	beq	a4,a5,.L10
	.loc 1 123 37
	ld	a5,-216(s0)
	lw	a5,8(a5)
	.loc 1 119 5
	la	a4,mBmLoadOptionName
	slli	a5,a5,32
	srli	a5,a5,32
	slli	a5,a5,3
	add	a5,a4,a5
	ld	a3,0(a5)
	ld	a5,-216(s0)
	ld	a4,0(a5)
	addi	a5,s0,-200
	lla	a2,.LC1
	li	a1,42
	mv	a0,a5
	call	UnicodeSPrint@plt
	.loc 1 126 14
	addi	a4,s0,-152
	addi	a5,s0,-200
	mv	a1,a4
	mv	a0,a5
	call	EfiBootManagerVariableToLoadOption@plt
	sd	a0,-48(s0)
	.loc 1 128 9
	ld	a5,-48(s0)
	.loc 1 128 8
	blt	a5,zero,.L10
	.loc 1 130 24
	ld	a5,-216(s0)
	lw	a4,12(a5)
	.loc 1 130 50
	lw	a5,-140(s0)
	.loc 1 130 10
	bne	a4,a5,.L11
	.loc 1 131 32
	ld	a5,-216(s0)
	ld	a5,16(a5)
	.loc 1 131 57
	ld	a4,-136(s0)
	.loc 1 131 12
	mv	a1,a4
	mv	a0,a5
	call	StrCmp@plt
	mv	a5,a0
	.loc 1 130 63 discriminator 1
	bne	a5,zero,.L11
	.loc 1 132 36
	ld	a5,-216(s0)
	ld	s1,24(a5)
	.loc 1 132 58
	ld	s2,-128(s0)
	.loc 1 132 100
	ld	a5,-216(s0)
	ld	a5,24(a5)
	.loc 1 132 12
	mv	a0,a5
	call	GetDevicePathSize@plt
	mv	a5,a0
	.loc 1 132 12 is_stmt 0 discriminator 1
	mv	a2,a5
	mv	a1,s2
	mv	a0,s1
	call	CompareMem@plt
	mv	a5,a0
	.loc 1 131 77 is_stmt 1
	bne	a5,zero,.L11
	.loc 1 133 24
	ld	a5,-216(s0)
	lw	a4,40(a5)
	.loc 1 133 56
	lw	a5,-112(s0)
	.loc 1 132 119
	bne	a4,a5,.L11
	.loc 1 134 36
	ld	a5,-216(s0)
	ld	a4,32(a5)
	.loc 1 134 62
	ld	a3,-120(s0)
	.loc 1 134 89
	ld	a5,-216(s0)
	lw	a5,40(a5)
	.loc 1 134 12
	slli	a5,a5,32
	srli	a5,a5,32
	mv	a2,a5
	mv	a1,a3
	mv	a0,a4
	call	CompareMem@plt
	mv	a5,a0
	.loc 1 133 75
	bne	a5,zero,.L11
	.loc 1 137 22
	ld	a5,-216(s0)
	ld	a5,0(a5)
	sd	a5,-40(s0)
.L11:
	.loc 1 140 7
	addi	a5,s0,-152
	mv	a0,a5
	call	EfiBootManagerFreeLoadOption@plt
.L10:
	.loc 1 147 6
	ld	a4,-40(s0)
	li	a5,65536
	bne	a4,a5,.L12
	.loc 1 148 19
	addi	a5,s0,-208
	li	a1,2
	mv	a0,a5
	call	EfiBootManagerGetLoadOptions@plt
	sd	a0,-56(s0)
	.loc 1 151 8
	ld	a5,-56(s0)
	bne	a5,zero,.L13
	.loc 1 151 59 discriminator 1
	ld	a5,-208(s0)
	.loc 1 151 39 discriminator 1
	beq	a5,zero,.L13
	.loc 1 153 14
	li	a5,65536
	j	.L16
.L13:
	.loc 1 156 13
	ld	a5,-208(s0)
	mv	a2,a5
	ld	a1,-56(s0)
	ld	a0,-216(s0)
	call	EfiBootManagerFindLoadOption@plt
	mv	a5,a0
	.loc 1 156 11 discriminator 1
	sd	a5,-64(s0)
	.loc 1 157 8
	ld	a4,-64(s0)
	li	a5,-1
	beq	a4,a5,.L15
	.loc 1 158 33
	ld	a4,-64(s0)
	li	a5,88
	mul	a5,a4,a5
	ld	a4,-56(s0)
	add	a5,a4,a5
	.loc 1 158 20
	ld	a5,0(a5)
	sd	a5,-40(s0)
.L15:
	.loc 1 161 5
	ld	a5,-208(s0)
	mv	a1,a5
	ld	a0,-56(s0)
	call	EfiBootManagerFreeLoadOptions@plt
.L12:
	.loc 1 164 10
	ld	a5,-40(s0)
.L16:
	.loc 1 165 1
	mv	a0,a5
	ld	ra,216(sp)
	.cfi_restore 1
	ld	s0,208(sp)
	.cfi_restore 8
	.cfi_def_cfa 2, 224
	ld	s1,200(sp)
	.cfi_restore 9
	ld	s2,192(sp)
	.cfi_restore 18
	addi	sp,sp,224
	.cfi_def_cfa_offset 0
	jr	ra
	.cfi_endproc
.LFE3:
	.size	BmFindBootOptionInVariable, .-BmFindBootOptionInVariable
	.section	.text.BmAdjustFvFilePath,"ax",@progbits
	.align	1
	.globl	BmAdjustFvFilePath
	.type	BmAdjustFvFilePath, @function
BmAdjustFvFilePath:
.LFB4:
	.loc 1 179 1
	.cfi_startproc
	addi	sp,sp,-112
	.cfi_def_cfa_offset 112
	sd	ra,104(sp)
	sd	s0,96(sp)
	.cfi_offset 1, -8
	.cfi_offset 8, -16
	addi	s0,sp,112
	.cfi_def_cfa 8, 0
	sd	a0,-104(s0)
	.loc 1 193 14
	ld	a5,-104(s0)
	sd	a5,-56(s0)
	.loc 1 194 15
	la	a5,gBS
	ld	a5,0(a5)
	ld	a5,184(a5)
	.loc 1 194 12
	addi	a3,s0,-64
	addi	a4,s0,-56
	mv	a2,a3
	mv	a1,a4
	la	a0,gEfiFirmwareVolume2ProtocolGuid
	jalr	a5
.LVL0:
	sd	a0,-40(s0)
	.loc 1 195 7
	ld	a5,-40(s0)
	.loc 1 195 6
	blt	a5,zero,.L18
	.loc 1 196 12
	ld	a0,-104(s0)
	call	DuplicateDevicePath@plt
	mv	a5,a0
	j	.L29
.L18:
	.loc 1 202 8
	ld	a0,-104(s0)
	call	DevicePathType@plt
	mv	a5,a0
	.loc 1 202 6 discriminator 1
	mv	a4,a5
	li	a5,1
	bne	a4,a5,.L20
	.loc 1 202 47 discriminator 2
	ld	a0,-104(s0)
	call	DevicePathSubType@plt
	mv	a5,a0
	.loc 1 202 43 discriminator 3
	mv	a4,a5
	li	a5,3
	beq	a4,a5,.L21
.L20:
	.loc 1 203 12
	li	a5,0
	j	.L29
.L21:
	.loc 1 206 16
	ld	a0,-104(s0)
	call	NextDevicePathNode@plt
	mv	a5,a0
	.loc 1 206 14 discriminator 1
	sd	a5,-56(s0)
	.loc 1 211 6
	la	a5,gBS
	ld	a5,0(a5)
	ld	a5,152(a5)
	.loc 1 211 3
	la	a4,gImageHandle
	ld	a4,0(a4)
	addi	a3,s0,-72
	mv	a2,a3
	la	a1,gEfiLoadedImageProtocolGuid
	mv	a0,a4
	jalr	a5
.LVL1:
	.loc 1 216 74
	ld	a5,-72(s0)
	.loc 1 216 41
	ld	a5,24(a5)
	mv	a0,a5
	call	DevicePathFromHandle@plt
	mv	a4,a0
	.loc 1 216 19 discriminator 1
	ld	a5,-56(s0)
	mv	a1,a5
	mv	a0,a4
	call	AppendDevicePathNode@plt
	sd	a0,-48(s0)
	.loc 1 217 14
	ld	a0,-48(s0)
	call	BmAdjustFvFilePath
	sd	a0,-32(s0)
	.loc 1 218 3
	ld	a0,-48(s0)
	call	FreePool@plt
	.loc 1 219 6
	ld	a5,-32(s0)
	beq	a5,zero,.L22
	.loc 1 220 12
	ld	a5,-32(s0)
	j	.L29
.L22:
	.loc 1 226 6
	la	a5,gBS
	ld	a5,0(a5)
	ld	a5,312(a5)
	.loc 1 226 3
	addi	a4,s0,-88
	addi	a3,s0,-80
	li	a2,0
	la	a1,gEfiFirmwareVolume2ProtocolGuid
	li	a0,2
	jalr	a5
.LVL2:
	.loc 1 233 14
	sd	zero,-24(s0)
	.loc 1 233 3
	j	.L23
.L27:
	.loc 1 234 18
	ld	a4,-88(s0)
	ld	a5,-24(s0)
	slli	a5,a5,3
	add	a5,a4,a5
	ld	a4,0(a5)
	.loc 1 234 40
	ld	a5,-72(s0)
	ld	a5,24(a5)
	.loc 1 234 8
	beq	a4,a5,.L30
	.loc 1 241 74
	ld	a4,-88(s0)
	ld	a5,-24(s0)
	slli	a5,a5,3
	add	a5,a4,a5
	.loc 1 241 43
	ld	a5,0(a5)
	mv	a0,a5
	call	DevicePathFromHandle@plt
	mv	a4,a0
	.loc 1 241 21 discriminator 1
	ld	a5,-56(s0)
	mv	a1,a5
	mv	a0,a4
	call	AppendDevicePathNode@plt
	sd	a0,-48(s0)
	.loc 1 242 16
	ld	a0,-48(s0)
	call	BmAdjustFvFilePath
	sd	a0,-32(s0)
	.loc 1 243 5
	ld	a0,-48(s0)
	call	FreePool@plt
	.loc 1 244 8
	ld	a5,-32(s0)
	bne	a5,zero,.L31
	j	.L25
.L30:
	.loc 1 238 7
	nop
.L25:
	.loc 1 233 47 discriminator 2
	ld	a5,-24(s0)
	addi	a5,a5,1
	sd	a5,-24(s0)
.L23:
	.loc 1 233 25 discriminator 1
	ld	a5,-80(s0)
	ld	a4,-24(s0)
	bltu	a4,a5,.L27
	j	.L26
.L31:
	.loc 1 245 7
	nop
.L26:
	.loc 1 249 17
	ld	a5,-88(s0)
	.loc 1 249 6
	beq	a5,zero,.L28
	.loc 1 250 5
	ld	a5,-88(s0)
	mv	a0,a5
	call	FreePool@plt
.L28:
	.loc 1 253 10
	ld	a5,-32(s0)
.L29:
	.loc 1 254 1
	mv	a0,a5
	ld	ra,104(sp)
	.cfi_restore 1
	ld	s0,96(sp)
	.cfi_restore 8
	.cfi_def_cfa 2, 112
	addi	sp,sp,112
	.cfi_def_cfa_offset 0
	jr	ra
	.cfi_endproc
.LFE4:
	.size	BmAdjustFvFilePath, .-BmAdjustFvFilePath
	.section	.text.BmIsFvFilePath,"ax",@progbits
	.align	1
	.globl	BmIsFvFilePath
	.type	BmIsFvFilePath, @function
BmIsFvFilePath:
.LFB5:
	.loc 1 270 1
	.cfi_startproc
	addi	sp,sp,-64
	.cfi_def_cfa_offset 64
	sd	ra,56(sp)
	sd	s0,48(sp)
	.cfi_offset 1, -8
	.cfi_offset 8, -16
	addi	s0,sp,64
	.cfi_def_cfa 8, 0
	sd	a0,-56(s0)
	.loc 1 275 8
	ld	a5,-56(s0)
	sd	a5,-40(s0)
	.loc 1 276 15
	la	a5,gBS
	ld	a5,0(a5)
	ld	a5,184(a5)
	.loc 1 276 12
	addi	a3,s0,-32
	addi	a4,s0,-40
	mv	a2,a3
	mv	a1,a4
	la	a0,gEfiFirmwareVolume2ProtocolGuid
	jalr	a5
.LVL3:
	sd	a0,-24(s0)
	.loc 1 277 7
	ld	a5,-24(s0)
	.loc 1 277 6
	blt	a5,zero,.L33
	.loc 1 278 12
	li	a5,1
	j	.L36
.L33:
	.loc 1 281 8
	ld	a0,-56(s0)
	call	DevicePathType@plt
	mv	a5,a0
	.loc 1 281 6 discriminator 1
	mv	a4,a5
	li	a5,1
	bne	a4,a5,.L35
	.loc 1 281 49 discriminator 2
	ld	a0,-56(s0)
	call	DevicePathSubType@plt
	mv	a5,a0
	.loc 1 281 45 discriminator 3
	mv	a4,a5
	li	a5,3
	bne	a4,a5,.L35
	.loc 1 282 18
	ld	a0,-56(s0)
	call	NextDevicePathNode@plt
	sd	a0,-56(s0)
	.loc 1 283 10
	ld	a0,-56(s0)
	call	DevicePathType@plt
	mv	a5,a0
	.loc 1 283 8 discriminator 1
	mv	a4,a5
	li	a5,4
	bne	a4,a5,.L35
	.loc 1 283 51 discriminator 2
	ld	a0,-56(s0)
	call	DevicePathSubType@plt
	mv	a5,a0
	.loc 1 283 47 discriminator 3
	mv	a4,a5
	li	a5,6
	bne	a4,a5,.L35
	.loc 1 284 31
	ld	a0,-56(s0)
	call	NextDevicePathNode@plt
	mv	a5,a0
	.loc 1 284 14 discriminator 1
	mv	a0,a5
	call	IsDevicePathEnd@plt
	mv	a5,a0
	.loc 1 284 14 is_stmt 0
	j	.L36
.L35:
	.loc 1 288 10 is_stmt 1
	li	a5,0
.L36:
	.loc 1 289 1
	mv	a0,a5
	ld	ra,56(sp)
	.cfi_restore 1
	ld	s0,48(sp)
	.cfi_restore 8
	.cfi_def_cfa 2, 64
	addi	sp,sp,64
	.cfi_def_cfa_offset 0
	jr	ra
	.cfi_endproc
.LFE5:
	.size	BmIsFvFilePath, .-BmIsFvFilePath
	.section	.text.BmMatchUsbClass,"ax",@progbits
	.align	1
	.globl	BmMatchUsbClass
	.type	BmMatchUsbClass, @function
BmMatchUsbClass:
.LFB6:
	.loc 1 307 1
	.cfi_startproc
	addi	sp,sp,-96
	.cfi_def_cfa_offset 96
	sd	ra,88(sp)
	sd	s0,80(sp)
	.cfi_offset 1, -8
	.cfi_offset 8, -16
	addi	s0,sp,96
	.cfi_def_cfa 8, 0
	sd	a0,-88(s0)
	sd	a1,-96(s0)
	.loc 1 315 8
	ld	a0,-96(s0)
	call	DevicePathType@plt
	mv	a5,a0
	.loc 1 315 6 discriminator 1
	mv	a4,a5
	li	a5,3
	bne	a4,a5,.L38
	.loc 1 316 8
	ld	a0,-96(s0)
	call	DevicePathSubType@plt
	mv	a5,a0
	.loc 1 315 43 discriminator 2
	mv	a4,a5
	li	a5,15
	beq	a4,a5,.L39
.L38:
	.loc 1 318 12
	li	a5,0
	j	.L49
.L39:
	.loc 1 324 17
	ld	a5,-88(s0)
	ld	a5,48(a5)
	.loc 1 324 12
	addi	a4,s0,-56
	mv	a1,a4
	ld	a0,-88(s0)
	jalr	a5
.LVL4:
	sd	a0,-32(s0)
	.loc 1 325 34
	ld	a5,-32(s0)
	.loc 1 325 6
	bge	a5,zero,.L41
	.loc 1 326 12
	li	a5,0
	j	.L49
.L41:
	.loc 1 329 16
	ld	a5,-96(s0)
	lbu	a4,4(a5)
	lbu	a5,5(a5)
	slli	a5,a5,8
	or	a5,a5,a4
	slli	a5,a5,48
	srli	a5,a5,48
	.loc 1 329 6
	sext.w	a4,a5
	li	a5,65536
	addi	a5,a5,-1
	beq	a4,a5,.L42
	.loc 1 330 16
	ld	a5,-96(s0)
	lbu	a4,4(a5)
	lbu	a5,5(a5)
	slli	a5,a5,8
	or	a5,a5,a4
	slli	a4,a5,48
	srli	a4,a4,48
	.loc 1 330 37
	lhu	a5,-48(s0)
	.loc 1 329 38 discriminator 1
	sext.w	a4,a4
	sext.w	a5,a5
	beq	a4,a5,.L42
	.loc 1 332 12
	li	a5,0
	j	.L49
.L42:
	.loc 1 335 16
	ld	a5,-96(s0)
	lbu	a4,6(a5)
	lbu	a5,7(a5)
	slli	a5,a5,8
	or	a5,a5,a4
	slli	a5,a5,48
	srli	a5,a5,48
	.loc 1 335 6
	sext.w	a4,a5
	li	a5,65536
	addi	a5,a5,-1
	beq	a4,a5,.L43
	.loc 1 336 16
	ld	a5,-96(s0)
	lbu	a4,6(a5)
	lbu	a5,7(a5)
	slli	a5,a5,8
	or	a5,a5,a4
	slli	a4,a5,48
	srli	a4,a4,48
	.loc 1 336 38
	lhu	a5,-46(s0)
	.loc 1 335 39 discriminator 1
	sext.w	a4,a4
	sext.w	a5,a5
	beq	a4,a5,.L43
	.loc 1 338 12
	li	a5,0
	j	.L49
.L43:
	.loc 1 341 15
	lbu	a5,-52(s0)
	sb	a5,-17(s0)
	.loc 1 342 18
	lbu	a5,-51(s0)
	sb	a5,-18(s0)
	.loc 1 343 18
	lbu	a5,-50(s0)
	sb	a5,-19(s0)
	.loc 1 344 6
	lbu	a5,-17(s0)
	andi	a5,a5,0xff
	bne	a5,zero,.L44
	.loc 1 349 19
	ld	a5,-88(s0)
	ld	a5,64(a5)
	.loc 1 349 14
	addi	a4,s0,-72
	mv	a1,a4
	ld	a0,-88(s0)
	jalr	a5
.LVL5:
	sd	a0,-32(s0)
	.loc 1 350 36
	ld	a5,-32(s0)
	.loc 1 350 8
	bge	a5,zero,.L45
	.loc 1 351 14
	li	a5,0
	j	.L49
.L45:
	.loc 1 354 17
	lbu	a5,-67(s0)
	sb	a5,-17(s0)
	.loc 1 355 20
	lbu	a5,-66(s0)
	sb	a5,-18(s0)
	.loc 1 356 20
	lbu	a5,-65(s0)
	sb	a5,-19(s0)
.L44:
	.loc 1 362 16
	ld	a5,-96(s0)
	lbu	a5,8(a5)
	.loc 1 362 6
	mv	a4,a5
	li	a5,255
	beq	a4,a5,.L46
	.loc 1 363 16
	ld	a5,-96(s0)
	lbu	a4,8(a5)
	.loc 1 362 39 discriminator 1
	lbu	a5,-17(s0)
	andi	a5,a5,0xff
	beq	a5,a4,.L46
	.loc 1 365 12
	li	a5,0
	j	.L49
.L46:
	.loc 1 368 16
	ld	a5,-96(s0)
	lbu	a5,9(a5)
	.loc 1 368 6
	mv	a4,a5
	li	a5,255
	beq	a4,a5,.L47
	.loc 1 369 16
	ld	a5,-96(s0)
	lbu	a4,9(a5)
	.loc 1 368 42 discriminator 1
	lbu	a5,-18(s0)
	andi	a5,a5,0xff
	beq	a5,a4,.L47
	.loc 1 371 12
	li	a5,0
	j	.L49
.L47:
	.loc 1 374 16
	ld	a5,-96(s0)
	lbu	a5,10(a5)
	.loc 1 374 6
	mv	a4,a5
	li	a5,255
	beq	a4,a5,.L48
	.loc 1 375 16
	ld	a5,-96(s0)
	lbu	a4,10(a5)
	.loc 1 374 42 discriminator 1
	lbu	a5,-19(s0)
	andi	a5,a5,0xff
	beq	a5,a4,.L48
	.loc 1 377 12
	li	a5,0
	j	.L49
.L48:
	.loc 1 380 10
	li	a5,1
.L49:
	.loc 1 381 1
	mv	a0,a5
	ld	ra,88(sp)
	.cfi_restore 1
	ld	s0,80(sp)
	.cfi_restore 8
	.cfi_def_cfa 2, 96
	addi	sp,sp,96
	.cfi_def_cfa_offset 0
	jr	ra
	.cfi_endproc
.LFE6:
	.size	BmMatchUsbClass, .-BmMatchUsbClass
	.section	.text.BmMatchUsbWwid,"ax",@progbits
	.align	1
	.globl	BmMatchUsbWwid
	.type	BmMatchUsbWwid, @function
BmMatchUsbWwid:
.LFB7:
	.loc 1 399 1
	.cfi_startproc
	addi	sp,sp,-144
	.cfi_def_cfa_offset 144
	sd	ra,136(sp)
	sd	s0,128(sp)
	.cfi_offset 1, -8
	.cfi_offset 8, -16
	addi	s0,sp,144
	.cfi_def_cfa 8, 0
	sd	a0,-136(s0)
	sd	a1,-144(s0)
	.loc 1 411 8
	ld	a0,-144(s0)
	call	DevicePathType@plt
	mv	a5,a0
	.loc 1 411 6 discriminator 1
	mv	a4,a5
	li	a5,3
	bne	a4,a5,.L51
	.loc 1 412 8
	ld	a0,-144(s0)
	call	DevicePathSubType@plt
	mv	a5,a0
	.loc 1 411 42 discriminator 2
	mv	a4,a5
	li	a5,16
	beq	a4,a5,.L52
.L51:
	.loc 1 414 12
	li	a5,0
	j	.L69
.L52:
	.loc 1 420 17
	ld	a5,-136(s0)
	ld	a5,48(a5)
	.loc 1 420 12
	addi	a4,s0,-80
	mv	a1,a4
	ld	a0,-136(s0)
	jalr	a5
.LVL6:
	sd	a0,-40(s0)
	.loc 1 421 34
	ld	a5,-40(s0)
	.loc 1 421 6
	bge	a5,zero,.L54
	.loc 1 422 12
	li	a5,0
	j	.L69
.L54:
	.loc 1 425 15
	lhu	a3,-72(s0)
	.loc 1 425 35
	ld	a5,-144(s0)
	lbu	a4,6(a5)
	lbu	a5,7(a5)
	slli	a5,a5,8
	or	a5,a5,a4
	slli	a5,a5,48
	srli	a5,a5,48
	.loc 1 425 6
	sext.w	a4,a3
	sext.w	a5,a5
	bne	a4,a5,.L55
	.loc 1 426 15
	lhu	a3,-70(s0)
	.loc 1 426 36
	ld	a5,-144(s0)
	lbu	a4,8(a5)
	lbu	a5,9(a5)
	slli	a5,a5,8
	or	a5,a5,a4
	slli	a5,a5,48
	srli	a5,a5,48
	.loc 1 425 47 discriminator 1
	sext.w	a4,a3
	sext.w	a5,a5
	beq	a4,a5,.L56
.L55:
	.loc 1 428 12
	li	a5,0
	j	.L69
.L56:
	.loc 1 434 17
	ld	a5,-136(s0)
	ld	a5,64(a5)
	.loc 1 434 12
	addi	a4,s0,-96
	mv	a1,a4
	ld	a0,-136(s0)
	jalr	a5
.LVL7:
	sd	a0,-40(s0)
	.loc 1 435 34
	ld	a5,-40(s0)
	.loc 1 435 6
	bge	a5,zero,.L57
	.loc 1 436 12
	li	a5,0
	j	.L69
.L57:
	.loc 1 439 13
	lbu	a5,-94(s0)
	mv	a3,a5
	.loc 1 439 40
	ld	a5,-144(s0)
	lbu	a4,4(a5)
	lbu	a5,5(a5)
	slli	a5,a5,8
	or	a5,a5,a4
	slli	a5,a5,48
	srli	a5,a5,48
	.loc 1 439 6
	sext.w	a4,a3
	sext.w	a5,a5
	beq	a4,a5,.L58
	.loc 1 440 12
	li	a5,0
	j	.L69
.L58:
	.loc 1 446 14
	lbu	a5,-64(s0)
	.loc 1 446 6
	bne	a5,zero,.L59
	.loc 1 447 12
	li	a5,0
	j	.L69
.L59:
	.loc 1 453 13
	sh	zero,-106(s0)
	.loc 1 454 15
	sd	zero,-104(s0)
	.loc 1 455 17
	ld	a5,-136(s0)
	ld	a5,88(a5)
	.loc 1 455 12
	addi	a3,s0,-106
	addi	a4,s0,-104
	mv	a2,a3
	mv	a1,a4
	ld	a0,-136(s0)
	jalr	a5
.LVL8:
	sd	a0,-40(s0)
	.loc 1 456 34
	ld	a5,-40(s0)
	.loc 1 456 6
	blt	a5,zero,.L60
	.loc 1 456 74 discriminator 1
	lhu	a5,-106(s0)
	.loc 1 456 60 discriminator 1
	beq	a5,zero,.L60
	.loc 1 456 96 discriminator 2
	ld	a5,-104(s0)
	.loc 1 456 80 discriminator 2
	bne	a5,zero,.L61
.L60:
	.loc 1 457 12
	li	a5,0
	j	.L69
.L61:
	.loc 1 463 14
	ld	a5,-144(s0)
	addi	a5,a5,10
	sd	a5,-48(s0)
	.loc 1 464 17
	ld	a0,-144(s0)
	call	DevicePathNodeLength@plt
	mv	a5,a0
	.loc 1 464 48 discriminator 1
	addi	a5,a5,-10
	.loc 1 464 14 discriminator 1
	srli	a5,a5,1
	sd	a5,-32(s0)
	.loc 1 465 17
	ld	a5,-32(s0)
	slli	a5,a5,1
	addi	a5,a5,-2
	ld	a4,-48(s0)
	add	a5,a4,a5
	lhu	a5,0(a5)
	.loc 1 465 6
	bne	a5,zero,.L62
	.loc 1 466 15
	ld	a5,-32(s0)
	addi	a5,a5,-1
	sd	a5,-32(s0)
.L62:
	.loc 1 472 14
	sh	zero,-18(s0)
	.loc 1 472 3
	j	.L63
.L68:
	.loc 1 473 21
	sd	zero,-120(s0)
	.loc 1 474 19
	ld	a5,-136(s0)
	ld	a5,80(a5)
	.loc 1 476 43
	ld	a3,-104(s0)
	lhu	a4,-18(s0)
	slli	a4,a4,1
	add	a4,a3,a4
	.loc 1 474 14
	lhu	a4,0(a4)
	lbu	a2,-64(s0)
	addi	a3,s0,-120
	mv	a1,a4
	ld	a0,-136(s0)
	jalr	a5
.LVL9:
	sd	a0,-40(s0)
	.loc 1 480 36
	ld	a5,-40(s0)
	.loc 1 480 8
	blt	a5,zero,.L70
	.loc 1 480 82 discriminator 2
	ld	a5,-120(s0)
	.loc 1 480 62 discriminator 2
	beq	a5,zero,.L70
	.loc 1 484 14
	ld	a5,-120(s0)
	mv	a0,a5
	call	StrLen@plt
	sd	a0,-56(s0)
	.loc 1 485 8
	ld	a4,-56(s0)
	ld	a5,-32(s0)
	bltu	a4,a5,.L67
	.loc 1 486 10
	ld	a4,-120(s0)
	.loc 1 486 47
	ld	a3,-56(s0)
	ld	a5,-32(s0)
	sub	a5,a3,a5
	slli	a5,a5,1
	add	a4,a4,a5
	.loc 1 486 84
	ld	a5,-32(s0)
	slli	a5,a5,1
	.loc 1 486 10
	mv	a2,a5
	ld	a1,-48(s0)
	mv	a0,a4
	call	CompareMem@plt
	mv	a5,a0
	.loc 1 485 32 discriminator 1
	bne	a5,zero,.L67
	.loc 1 488 7
	ld	a5,-120(s0)
	mv	a0,a5
	call	FreePool@plt
	.loc 1 489 14
	li	a5,1
	j	.L69
.L67:
	.loc 1 492 5
	ld	a5,-120(s0)
	mv	a0,a5
	call	FreePool@plt
	j	.L66
.L70:
	.loc 1 481 7
	nop
.L66:
	.loc 1 472 61 discriminator 2
	lhu	a5,-18(s0)
	addiw	a5,a5,1
	sh	a5,-18(s0)
.L63:
	.loc 1 472 25 discriminator 1
	lhu	a5,-106(s0)
	srliw	a5,a5,1
	slli	a5,a5,48
	srli	a5,a5,48
	lhu	a4,-18(s0)
	sext.w	a4,a4
	sext.w	a5,a5
	bltu	a4,a5,.L68
	.loc 1 495 10
	li	a5,0
.L69:
	.loc 1 496 1
	mv	a0,a5
	ld	ra,136(sp)
	.cfi_restore 1
	ld	s0,128(sp)
	.cfi_restore 8
	.cfi_def_cfa 2, 144
	addi	sp,sp,144
	.cfi_def_cfa_offset 0
	jr	ra
	.cfi_endproc
.LFE7:
	.size	BmMatchUsbWwid, .-BmMatchUsbWwid
	.section	.text.BmFindUsbDevice,"ax",@progbits
	.align	1
	.globl	BmFindUsbDevice
	.type	BmFindUsbDevice, @function
BmFindUsbDevice:
.LFB8:
	.loc 1 519 1
	.cfi_startproc
	addi	sp,sp,-96
	.cfi_def_cfa_offset 96
	sd	ra,88(sp)
	sd	s0,80(sp)
	.cfi_offset 1, -8
	.cfi_offset 8, -16
	addi	s0,sp,96
	.cfi_def_cfa 8, 0
	sd	a0,-72(s0)
	sd	a1,-80(s0)
	sd	a2,-88(s0)
	.loc 1 532 15
	la	a5,gBS
	ld	a5,0(a5)
	ld	a5,312(a5)
	.loc 1 532 12
	addi	a4,s0,-56
	ld	a3,-88(s0)
	li	a2,0
	la	a1,gEfiUsbIoProtocolGuid
	li	a0,2
	jalr	a5
.LVL10:
	sd	a0,-40(s0)
	.loc 1 539 34
	ld	a5,-40(s0)
	.loc 1 539 6
	bge	a5,zero,.L72
	.loc 1 540 23
	ld	a5,-88(s0)
	sd	zero,0(a5)
	.loc 1 541 18
	sd	zero,-56(s0)
.L72:
	.loc 1 544 14
	sd	zero,-24(s0)
	.loc 1 544 3
	j	.L73
.L78:
	.loc 1 548 17
	la	a5,gBS
	ld	a5,0(a5)
	ld	a5,152(a5)
	.loc 1 549 33
	ld	a3,-56(s0)
	ld	a4,-24(s0)
	slli	a4,a4,3
	add	a4,a3,a4
	.loc 1 548 14
	ld	a4,0(a4)
	addi	a3,s0,-64
	mv	a2,a3
	la	a1,gEfiUsbIoProtocolGuid
	mv	a0,a4
	jalr	a5
.LVL11:
	sd	a0,-40(s0)
	.loc 1 553 57
	ld	a4,-56(s0)
	ld	a5,-24(s0)
	slli	a5,a5,3
	add	a5,a4,a5
	.loc 1 553 23
	ld	a5,0(a5)
	mv	a0,a5
	call	DevicePathFromHandle@plt
	sd	a0,-48(s0)
	.loc 1 554 13
	sb	zero,-25(s0)
	.loc 1 555 9
	ld	a5,-40(s0)
	.loc 1 555 8
	blt	a5,zero,.L74
	.loc 1 555 63 discriminator 1
	ld	a5,-48(s0)
	beq	a5,zero,.L74
	.loc 1 559 11
	ld	a2,-80(s0)
	ld	a1,-72(s0)
	ld	a0,-48(s0)
	call	CompareMem@plt
	mv	a5,a0
	.loc 1 559 10 discriminator 1
	bne	a5,zero,.L74
	.loc 1 560 13
	ld	a3,-64(s0)
	.loc 1 560 63
	ld	a4,-72(s0)
	.loc 1 560 81
	ld	a5,-80(s0)
	add	a5,a4,a5
	.loc 1 560 13
	mv	a1,a5
	mv	a0,a3
	call	BmMatchUsbClass
	mv	a5,a0
	.loc 1 560 12 discriminator 1
	bne	a5,zero,.L75
	.loc 1 561 13
	ld	a3,-64(s0)
	.loc 1 561 61
	ld	a4,-72(s0)
	.loc 1 561 79
	ld	a5,-80(s0)
	add	a5,a4,a5
	.loc 1 561 13
	mv	a1,a5
	mv	a0,a3
	call	BmMatchUsbWwid
	mv	a5,a0
	.loc 1 560 106 discriminator 2
	beq	a5,zero,.L74
.L75:
	.loc 1 563 19
	li	a5,1
	sb	a5,-25(s0)
.L74:
	.loc 1 568 8
	lbu	a5,-25(s0)
	andi	a5,a5,0xff
	bne	a5,zero,.L76
	.loc 1 569 8
	ld	a5,-88(s0)
	ld	a5,0(a5)
	.loc 1 569 26
	addi	a4,a5,-1
	ld	a5,-88(s0)
	sd	a4,0(a5)
	.loc 1 570 7
	ld	a4,-56(s0)
	.loc 1 570 29
	ld	a5,-24(s0)
	slli	a5,a5,3
	.loc 1 570 16
	add	a3,a4,a5
	.loc 1 570 7
	ld	a4,-56(s0)
	.loc 1 570 51
	ld	a5,-24(s0)
	addi	a5,a5,1
	slli	a5,a5,3
	.loc 1 570 38
	add	a1,a4,a5
	.loc 1 570 65
	ld	a5,-88(s0)
	ld	a4,0(a5)
	.loc 1 570 83
	ld	a5,-24(s0)
	sub	a5,a4,a5
	.loc 1 570 92
	slli	a5,a5,3
	.loc 1 570 7
	mv	a2,a5
	mv	a0,a3
	call	CopyMem@plt
	j	.L73
.L76:
	.loc 1 572 12
	ld	a5,-24(s0)
	addi	a5,a5,1
	sd	a5,-24(s0)
.L73:
	.loc 1 544 27 discriminator 1
	ld	a5,-88(s0)
	ld	a5,0(a5)
	.loc 1 544 25 discriminator 1
	ld	a4,-24(s0)
	bltu	a4,a5,.L78
	.loc 1 576 10
	ld	a5,-56(s0)
	.loc 1 577 1
	mv	a0,a5
	ld	ra,88(sp)
	.cfi_restore 1
	ld	s0,80(sp)
	.cfi_restore 8
	.cfi_def_cfa 2, 96
	addi	sp,sp,96
	.cfi_def_cfa_offset 0
	jr	ra
	.cfi_endproc
.LFE8:
	.size	BmFindUsbDevice, .-BmFindUsbDevice
	.section	.text.BmExpandUsbDevicePath,"ax",@progbits
	.align	1
	.globl	BmExpandUsbDevicePath
	.type	BmExpandUsbDevicePath, @function
BmExpandUsbDevicePath:
.LFB9:
	.loc 1 611 1
	.cfi_startproc
	addi	sp,sp,-112
	.cfi_def_cfa_offset 112
	sd	ra,104(sp)
	sd	s0,96(sp)
	.cfi_offset 1, -8
	.cfi_offset 8, -16
	addi	s0,sp,112
	.cfi_def_cfa 8, 0
	sd	a0,-88(s0)
	sd	a1,-96(s0)
	sd	a2,-104(s0)
	.loc 1 620 16
	sd	zero,-24(s0)
	.loc 1 621 13
	ld	a5,-96(s0)
	seqz	a5,a5
	andi	a5,a5,0xff
	.loc 1 621 11
	sb	a5,-33(s0)
	.loc 1 622 26
	ld	a4,-104(s0)
	.loc 1 622 49
	ld	a5,-88(s0)
	.loc 1 622 24
	sub	a5,a4,a5
	sd	a5,-48(s0)
	.loc 1 623 25
	ld	a0,-104(s0)
	call	NextDevicePathNode@plt
	sd	a0,-56(s0)
	.loc 1 624 13
	addi	a5,s0,-72
	mv	a2,a5
	ld	a1,-48(s0)
	ld	a0,-88(s0)
	call	BmFindUsbDevice
	sd	a0,-64(s0)
	.loc 1 626 14
	sd	zero,-32(s0)
	.loc 1 626 3
	j	.L81
.L87:
	.loc 1 627 63
	ld	a5,-32(s0)
	slli	a5,a5,3
	ld	a4,-64(s0)
	add	a5,a4,a5
	.loc 1 627 34
	ld	a5,0(a5)
	mv	a0,a5
	call	DevicePathFromHandle@plt
	mv	a5,a0
	.loc 1 627 16 discriminator 1
	ld	a1,-56(s0)
	mv	a0,a5
	call	AppendDevicePath@plt
	sd	a0,-88(s0)
	.loc 1 628 8
	ld	a5,-88(s0)
	beq	a5,zero,.L90
	.loc 1 635 20
	li	a1,0
	ld	a0,-88(s0)
	call	BmGetNextLoadOptionDevicePath
	sd	a0,-24(s0)
	.loc 1 636 5
	ld	a0,-88(s0)
	call	FreePool@plt
	.loc 1 637 8
	ld	a5,-24(s0)
	beq	a5,zero,.L91
	.loc 1 644 8
	lbu	a5,-33(s0)
	andi	a5,a5,0xff
	bne	a5,zero,.L92
	.loc 1 647 27
	ld	a0,-24(s0)
	call	GetDevicePathSize@plt
	mv	a5,a0
	.loc 1 647 27 is_stmt 0 discriminator 1
	mv	a2,a5
	ld	a1,-96(s0)
	ld	a0,-24(s0)
	call	CompareMem@plt
	mv	a5,a0
	.loc 1 647 17 is_stmt 1 discriminator 2
	seqz	a5,a5
	andi	a5,a5,0xff
	.loc 1 647 15 discriminator 2
	sb	a5,-33(s0)
	.loc 1 648 7
	ld	a0,-24(s0)
	call	FreePool@plt
	.loc 1 649 20
	sd	zero,-24(s0)
	j	.L83
.L90:
	.loc 1 632 7
	nop
	j	.L83
.L91:
	.loc 1 641 7
	nop
.L83:
	.loc 1 626 45 discriminator 2
	ld	a5,-32(s0)
	addi	a5,a5,1
	sd	a5,-32(s0)
.L81:
	.loc 1 626 25 discriminator 1
	ld	a5,-72(s0)
	ld	a4,-32(s0)
	bltu	a4,a5,.L87
	j	.L86
.L92:
	.loc 1 645 7
	nop
.L86:
	.loc 1 653 6
	ld	a5,-64(s0)
	beq	a5,zero,.L88
	.loc 1 654 5
	ld	a0,-64(s0)
	call	FreePool@plt
.L88:
	.loc 1 657 10
	ld	a5,-24(s0)
	.loc 1 658 1
	mv	a0,a5
	ld	ra,104(sp)
	.cfi_restore 1
	ld	s0,96(sp)
	.cfi_restore 8
	.cfi_def_cfa 2, 112
	addi	sp,sp,112
	.cfi_def_cfa_offset 0
	jr	ra
	.cfi_endproc
.LFE9:
	.size	BmExpandUsbDevicePath, .-BmExpandUsbDevicePath
	.section	.text.BmExpandFileDevicePath,"ax",@progbits
	.align	1
	.globl	BmExpandFileDevicePath
	.type	BmExpandFileDevicePath, @function
BmExpandFileDevicePath:
.LFB10:
	.loc 1 676 1
	.cfi_startproc
	addi	sp,sp,-96
	.cfi_def_cfa_offset 96
	sd	ra,88(sp)
	sd	s0,80(sp)
	.cfi_offset 1, -8
	.cfi_offset 8, -16
	addi	s0,sp,96
	.cfi_def_cfa 8, 0
	sd	a0,-88(s0)
	sd	a1,-96(s0)
	.loc 1 686 3
	call	EfiBootManagerConnectAll@plt
	.loc 1 687 15
	la	a5,gBS
	ld	a5,0(a5)
	ld	a5,312(a5)
	.loc 1 687 12
	addi	a4,s0,-72
	addi	a3,s0,-64
	li	a2,0
	la	a1,gEfiSimpleFileSystemProtocolGuid
	li	a0,2
	jalr	a5
.LVL12:
	sd	a0,-56(s0)
	.loc 1 688 34
	ld	a5,-56(s0)
	.loc 1 688 6
	bge	a5,zero,.L94
	.loc 1 689 17
	sd	zero,-64(s0)
	.loc 1 690 13
	sd	zero,-72(s0)
.L94:
	.loc 1 693 13
	ld	a5,-96(s0)
	seqz	a5,a5
	andi	a5,a5,0xff
	.loc 1 693 11
	sb	a5,-41(s0)
	.loc 1 694 16
	sd	zero,-40(s0)
	.loc 1 699 18
	sd	zero,-32(s0)
	.loc 1 699 3
	j	.L95
.L107:
	.loc 1 700 16
	sd	zero,-24(s0)
	.loc 1 700 5
	j	.L96
.L104:
	.loc 1 701 19
	la	a5,gBS
	ld	a5,0(a5)
	ld	a5,152(a5)
	.loc 1 701 44
	ld	a3,-72(s0)
	ld	a4,-24(s0)
	slli	a4,a4,3
	add	a4,a3,a4
	.loc 1 701 16
	ld	a4,0(a4)
	addi	a3,s0,-80
	mv	a2,a3
	la	a1,gEfiBlockIoProtocolGuid
	mv	a0,a4
	jalr	a5
.LVL13:
	sd	a0,-56(s0)
	.loc 1 702 38
	ld	a5,-56(s0)
	.loc 1 702 10
	bge	a5,zero,.L97
	.loc 1 703 17
	sd	zero,-80(s0)
.L97:
	.loc 1 706 10
	ld	a5,-32(s0)
	bne	a5,zero,.L98
	.loc 1 706 41 discriminator 1
	ld	a5,-80(s0)
	.loc 1 706 29 discriminator 1
	beq	a5,zero,.L98
	.loc 1 706 68 discriminator 3
	ld	a5,-80(s0)
	ld	a5,8(a5)
	.loc 1 706 75 discriminator 3
	lbu	a5,4(a5)
	.loc 1 706 58 discriminator 3
	bne	a5,zero,.L99
.L98:
	.loc 1 706 93 discriminator 5
	ld	a4,-32(s0)
	li	a5,1
	bne	a4,a5,.L100
	.loc 1 707 41
	ld	a5,-80(s0)
	.loc 1 707 29
	beq	a5,zero,.L100
	.loc 1 707 69 discriminator 1
	ld	a5,-80(s0)
	ld	a5,8(a5)
	.loc 1 707 76 discriminator 1
	lbu	a5,4(a5)
	.loc 1 707 58 discriminator 1
	beq	a5,zero,.L99
.L100:
	.loc 1 707 94 discriminator 3
	ld	a4,-32(s0)
	li	a5,2
	bne	a4,a5,.L101
	.loc 1 708 41
	ld	a5,-80(s0)
	.loc 1 708 29
	bne	a5,zero,.L101
.L99:
	.loc 1 711 71
	ld	a4,-72(s0)
	ld	a5,-24(s0)
	slli	a5,a5,3
	add	a5,a4,a5
	.loc 1 711 42
	ld	a5,0(a5)
	mv	a0,a5
	call	DevicePathFromHandle@plt
	mv	a5,a0
	.loc 1 711 24 discriminator 1
	ld	a1,-88(s0)
	mv	a0,a5
	call	AppendDevicePath@plt
	sd	a0,-40(s0)
	.loc 1 712 12
	lbu	a5,-41(s0)
	andi	a5,a5,0xff
	bne	a5,zero,.L110
	.loc 1 715 31
	ld	a0,-40(s0)
	call	GetDevicePathSize@plt
	mv	a5,a0
	.loc 1 715 31 is_stmt 0 discriminator 1
	mv	a2,a5
	ld	a1,-96(s0)
	ld	a0,-40(s0)
	call	CompareMem@plt
	mv	a5,a0
	.loc 1 715 21 is_stmt 1 discriminator 2
	seqz	a5,a5
	andi	a5,a5,0xff
	.loc 1 715 19 discriminator 2
	sb	a5,-41(s0)
	.loc 1 716 11
	ld	a0,-40(s0)
	call	FreePool@plt
	.loc 1 717 24
	sd	zero,-40(s0)
.L101:
	.loc 1 700 47 discriminator 2
	ld	a5,-24(s0)
	addi	a5,a5,1
	sd	a5,-24(s0)
.L96:
	.loc 1 700 27 discriminator 1
	ld	a5,-64(s0)
	ld	a4,-24(s0)
	bltu	a4,a5,.L104
	j	.L103
.L110:
	.loc 1 713 11
	nop
.L103:
	.loc 1 722 8
	ld	a5,-40(s0)
	bne	a5,zero,.L111
	.loc 1 699 47 discriminator 2
	ld	a5,-32(s0)
	addi	a5,a5,1
	sd	a5,-32(s0)
.L95:
	.loc 1 699 33 discriminator 1
	ld	a4,-32(s0)
	li	a5,2
	bleu	a4,a5,.L107
	j	.L106
.L111:
	.loc 1 723 7
	nop
.L106:
	.loc 1 727 15
	ld	a5,-72(s0)
	.loc 1 727 6
	beq	a5,zero,.L108
	.loc 1 728 5
	ld	a5,-72(s0)
	mv	a0,a5
	call	FreePool@plt
.L108:
	.loc 1 731 10
	ld	a5,-40(s0)
	.loc 1 732 1
	mv	a0,a5
	ld	ra,88(sp)
	.cfi_restore 1
	ld	s0,80(sp)
	.cfi_restore 8
	.cfi_def_cfa 2, 96
	addi	sp,sp,96
	.cfi_def_cfa_offset 0
	jr	ra
	.cfi_endproc
.LFE10:
	.size	BmExpandFileDevicePath, .-BmExpandFileDevicePath
	.section	.text.BmExpandUriDevicePath,"ax",@progbits
	.align	1
	.globl	BmExpandUriDevicePath
	.type	BmExpandUriDevicePath, @function
BmExpandUriDevicePath:
.LFB11:
	.loc 1 750 1
	.cfi_startproc
	addi	sp,sp,-96
	.cfi_def_cfa_offset 96
	sd	ra,88(sp)
	sd	s0,80(sp)
	.cfi_offset 1, -8
	.cfi_offset 8, -16
	addi	s0,sp,96
	.cfi_def_cfa 8, 0
	sd	a0,-88(s0)
	sd	a1,-96(s0)
	.loc 1 759 3
	call	EfiBootManagerConnectAll@plt
	.loc 1 760 15
	la	a5,gBS
	ld	a5,0(a5)
	ld	a5,312(a5)
	.loc 1 760 12
	addi	a4,s0,-72
	addi	a3,s0,-64
	li	a2,0
	la	a1,gEfiLoadFileProtocolGuid
	li	a0,2
	jalr	a5
.LVL14:
	sd	a0,-48(s0)
	.loc 1 761 34
	ld	a5,-48(s0)
	.loc 1 761 6
	bge	a5,zero,.L113
	.loc 1 762 17
	sd	zero,-64(s0)
	.loc 1 763 13
	sd	zero,-72(s0)
.L113:
	.loc 1 766 16
	sd	zero,-32(s0)
	.loc 1 767 13
	ld	a5,-96(s0)
	seqz	a5,a5
	andi	a5,a5,0xff
	.loc 1 767 11
	sb	a5,-33(s0)
	.loc 1 768 14
	sd	zero,-24(s0)
	.loc 1 768 3
	j	.L114
.L120:
	.loc 1 769 45
	ld	a4,-72(s0)
	ld	a5,-24(s0)
	slli	a5,a5,3
	add	a5,a4,a5
	.loc 1 769 20
	ld	a5,0(a5)
	ld	a1,-88(s0)
	mv	a0,a5
	call	BmExpandLoadFile
	sd	a0,-32(s0)
	.loc 1 771 8
	ld	a5,-32(s0)
	beq	a5,zero,.L123
	.loc 1 775 8
	lbu	a5,-33(s0)
	andi	a5,a5,0xff
	bne	a5,zero,.L124
	.loc 1 778 27
	ld	a0,-32(s0)
	call	GetDevicePathSize@plt
	mv	a5,a0
	.loc 1 778 27 is_stmt 0 discriminator 1
	mv	a2,a5
	ld	a1,-96(s0)
	ld	a0,-32(s0)
	call	CompareMem@plt
	mv	a5,a0
	.loc 1 778 17 is_stmt 1 discriminator 2
	seqz	a5,a5
	andi	a5,a5,0xff
	.loc 1 778 15 discriminator 2
	sb	a5,-33(s0)
	.loc 1 782 27
	ld	a0,-32(s0)
	call	BmGetRamDiskDevicePath
	sd	a0,-56(s0)
	.loc 1 783 10
	ld	a5,-56(s0)
	beq	a5,zero,.L119
	.loc 1 784 9
	ld	a0,-56(s0)
	call	BmDestroyRamDisk
	.loc 1 785 9
	ld	a0,-56(s0)
	call	FreePool@plt
.L119:
	.loc 1 788 7
	ld	a0,-32(s0)
	call	FreePool@plt
	.loc 1 789 20
	sd	zero,-32(s0)
	j	.L116
.L123:
	.loc 1 772 7
	nop
.L116:
	.loc 1 768 45 discriminator 2
	ld	a5,-24(s0)
	addi	a5,a5,1
	sd	a5,-24(s0)
.L114:
	.loc 1 768 25 discriminator 1
	ld	a5,-64(s0)
	ld	a4,-24(s0)
	bltu	a4,a5,.L120
	j	.L118
.L124:
	.loc 1 776 7
	nop
.L118:
	.loc 1 793 15
	ld	a5,-72(s0)
	.loc 1 793 6
	beq	a5,zero,.L121
	.loc 1 794 5
	ld	a5,-72(s0)
	mv	a0,a5
	call	FreePool@plt
.L121:
	.loc 1 797 10
	ld	a5,-32(s0)
	.loc 1 798 1
	mv	a0,a5
	ld	ra,88(sp)
	.cfi_restore 1
	ld	s0,80(sp)
	.cfi_restore 8
	.cfi_def_cfa 2, 96
	addi	sp,sp,96
	.cfi_def_cfa_offset 0
	jr	ra
	.cfi_endproc
.LFE11:
	.size	BmExpandUriDevicePath, .-BmExpandUriDevicePath
	.section	.text.BmCachePartitionDevicePath,"ax",@progbits
	.align	1
	.globl	BmCachePartitionDevicePath
	.type	BmCachePartitionDevicePath, @function
BmCachePartitionDevicePath:
.LFB12:
	.loc 1 811 1
	.cfi_startproc
	addi	sp,sp,-48
	.cfi_def_cfa_offset 48
	sd	ra,40(sp)
	sd	s0,32(sp)
	.cfi_offset 1, -8
	.cfi_offset 8, -16
	addi	s0,sp,48
	.cfi_def_cfa 8, 0
	sd	a0,-40(s0)
	sd	a1,-48(s0)
	.loc 1 815 7
	ld	a5,-40(s0)
	ld	a5,0(a5)
	ld	a1,-48(s0)
	mv	a0,a5
	call	BmMatchDevicePaths@plt
	mv	a5,a0
	.loc 1 815 6 discriminator 1
	beq	a5,zero,.L126
	.loc 1 816 20
	ld	a5,-40(s0)
	ld	a5,0(a5)
	sd	a5,-24(s0)
	.loc 1 817 25
	ld	a5,-40(s0)
	ld	a5,0(a5)
	ld	a1,-48(s0)
	mv	a0,a5
	call	BmDelPartMatchInstance@plt
	mv	a4,a0
	.loc 1 817 23 discriminator 1
	ld	a5,-40(s0)
	sd	a4,0(a5)
	.loc 1 818 5
	ld	a0,-24(s0)
	call	FreePool@plt
.L126:
	.loc 1 821 7
	ld	a5,-40(s0)
	ld	a5,0(a5)
	.loc 1 821 6
	bne	a5,zero,.L127
	.loc 1 822 25
	ld	a0,-48(s0)
	call	DuplicateDevicePath@plt
	mv	a4,a0
	.loc 1 822 23 discriminator 1
	ld	a5,-40(s0)
	sd	a4,0(a5)
	.loc 1 823 5
	j	.L125
.L127:
	.loc 1 826 18
	ld	a5,-40(s0)
	ld	a5,0(a5)
	sd	a5,-24(s0)
	.loc 1 827 23
	ld	a5,-40(s0)
	ld	a5,0(a5)
	mv	a1,a5
	ld	a0,-48(s0)
	call	AppendDevicePathInstance@plt
	mv	a4,a0
	.loc 1 827 21 discriminator 1
	ld	a5,-40(s0)
	sd	a4,0(a5)
	.loc 1 828 6
	ld	a5,-24(s0)
	beq	a5,zero,.L129
	.loc 1 829 5
	ld	a0,-24(s0)
	call	FreePool@plt
.L129:
	.loc 1 836 9
	sd	zero,-32(s0)
	.loc 1 837 18
	ld	a5,-40(s0)
	ld	a5,0(a5)
	sd	a5,-24(s0)
	.loc 1 838 9
	j	.L130
.L133:
	.loc 1 839 22
	ld	a0,-24(s0)
	call	NextDevicePathNode@plt
	sd	a0,-24(s0)
	.loc 1 843 11
	j	.L131
.L132:
	.loc 1 844 24
	ld	a0,-24(s0)
	call	NextDevicePathNode@plt
	sd	a0,-24(s0)
.L131:
	.loc 1 843 13
	ld	a0,-24(s0)
	call	IsDevicePathEndType@plt
	mv	a5,a0
	.loc 1 843 12 discriminator 1
	beq	a5,zero,.L132
	.loc 1 847 10
	ld	a5,-32(s0)
	addi	a5,a5,1
	sd	a5,-32(s0)
	.loc 1 851 8
	ld	a4,-32(s0)
	li	a5,12
	bne	a4,a5,.L130
	.loc 1 852 7
	ld	a0,-24(s0)
	call	SetDevicePathEndNode@plt
	.loc 1 853 7
	j	.L125
.L130:
	.loc 1 838 11
	ld	a0,-24(s0)
	call	IsDevicePathEnd@plt
	mv	a5,a0
	.loc 1 838 10 discriminator 1
	beq	a5,zero,.L133
.L125:
	.loc 1 856 1
	ld	ra,40(sp)
	.cfi_restore 1
	ld	s0,32(sp)
	.cfi_restore 8
	.cfi_def_cfa 2, 48
	addi	sp,sp,48
	.cfi_def_cfa_offset 0
	jr	ra
	.cfi_endproc
.LFE12:
	.size	BmCachePartitionDevicePath, .-BmCachePartitionDevicePath
	.section	.rodata
	.align	3
.LC2:
	.string	"H"
	.string	"D"
	.string	"D"
	.string	"P"
	.zero	2
	.section	.text.BmExpandPartitionDevicePath,"ax",@progbits
	.align	1
	.globl	BmExpandPartitionDevicePath
	.type	BmExpandPartitionDevicePath, @function
BmExpandPartitionDevicePath:
.LFB13:
	.loc 1 875 1
	.cfi_startproc
	addi	sp,sp,-160
	.cfi_def_cfa_offset 160
	sd	ra,152(sp)
	sd	s0,144(sp)
	sd	s1,136(sp)
	.cfi_offset 1, -8
	.cfi_offset 8, -16
	.cfi_offset 9, -24
	addi	s0,sp,160
	.cfi_def_cfa 8, 0
	sd	a0,-152(s0)
	.loc 1 897 3
	addi	a4,s0,-128
	addi	a5,s0,-112
	mv	a3,a4
	mv	a2,a5
	lla	a1,mBmHardDriveBootVariableGuid
	lla	a0,.LC2
	call	GetVariable2@plt
	.loc 1 902 25
	ld	a5,-112(s0)
	.loc 1 902 6
	beq	a5,zero,.L135
	.loc 1 902 46 discriminator 1
	ld	a5,-112(s0)
	ld	a4,-128(s0)
	mv	a1,a4
	mv	a0,a5
	call	IsDevicePathValid@plt
	mv	a5,a0
	.loc 1 902 42 discriminator 2
	bne	a5,zero,.L135
	.loc 1 903 5
	ld	a5,-112(s0)
	mv	a0,a5
	call	FreePool@plt
	.loc 1 904 22
	sd	zero,-112(s0)
	.loc 1 905 17
	la	a5,gRT
	ld	a5,0(a5)
	ld	a5,88(a5)
	.loc 1 905 14
	li	a4,0
	li	a3,0
	li	a2,0
	lla	a1,mBmHardDriveBootVariableGuid
	lla	a0,.LC2
	jalr	a5
.LVL15:
	sd	a0,-64(s0)
.L135:
	.loc 1 915 12
	sd	zero,-48(s0)
	.loc 1 916 24
	ld	a5,-112(s0)
	.loc 1 916 6
	beq	a5,zero,.L136
	.loc 1 917 23
	ld	a5,-112(s0)
	sd	a5,-120(s0)
	.loc 1 918 16
	sb	zero,-49(s0)
.L140:
	.loc 1 925 18
	addi	a4,s0,-136
	addi	a5,s0,-120
	mv	a1,a4
	mv	a0,a5
	call	GetNextDevicePathInstance@plt
	sd	a0,-72(s0)
	.loc 1 926 11
	ld	a1,-152(s0)
	ld	a0,-72(s0)
	call	BmMatchPartitionDevicePathNode
	mv	a5,a0
	.loc 1 926 10 discriminator 1
	beq	a5,zero,.L137
	.loc 1 931 18
	li	a1,0
	ld	a0,-72(s0)
	call	EfiBootManagerConnectDevicePath@plt
	sd	a0,-64(s0)
	.loc 1 932 13
	ld	a5,-64(s0)
	.loc 1 932 12
	blt	a5,zero,.L137
	.loc 1 933 56
	ld	a0,-152(s0)
	call	NextDevicePathNode@plt
	mv	a5,a0
	.loc 1 933 28 discriminator 1
	mv	a1,a5
	ld	a0,-72(s0)
	call	AppendDevicePath@plt
	sd	a0,-80(s0)
	.loc 1 944 22
	li	a1,0
	ld	a0,-80(s0)
	call	BmGetNextLoadOptionDevicePath
	sd	a0,-48(s0)
	.loc 1 945 11
	ld	a0,-80(s0)
	call	FreePool@plt
	.loc 1 947 14
	ld	a5,-48(s0)
	beq	a5,zero,.L137
	.loc 1 951 16
	lbu	a5,-49(s0)
	andi	a5,a5,0xff
	beq	a5,zero,.L138
	.loc 1 952 15
	addi	a5,s0,-112
	ld	a1,-72(s0)
	mv	a0,a5
	call	BmCachePartitionDevicePath
	.loc 1 957 27
	la	a5,gRT
	ld	a5,0(a5)
	ld	s1,88(a5)
	.loc 1 957 24
	ld	a5,-112(s0)
	mv	a0,a5
	call	GetDevicePathSize@plt
	mv	a3,a0
	.loc 1 957 24 is_stmt 0 discriminator 1
	ld	a5,-112(s0)
	mv	a4,a5
	li	a2,3
	lla	a1,mBmHardDriveBootVariableGuid
	lla	a0,.LC2
	jalr	s1
.LVL16:
	sd	a0,-64(s0)
.L138:
	.loc 1 966 13 is_stmt 1
	ld	a0,-72(s0)
	call	FreePool@plt
	.loc 1 967 13
	ld	a5,-112(s0)
	mv	a0,a5
	call	FreePool@plt
	.loc 1 968 20
	ld	a5,-48(s0)
	j	.L152
.L137:
	.loc 1 976 18
	li	a5,1
	sb	a5,-49(s0)
	.loc 1 977 7
	ld	a0,-72(s0)
	call	FreePool@plt
	.loc 1 978 32
	ld	a5,-120(s0)
	bne	a5,zero,.L140
.L136:
	.loc 1 985 17
	sd	zero,-104(s0)
	.loc 1 986 14
	sb	zero,-50(s0)
	.loc 1 987 23
	sb	zero,-51(s0)
.L149:
	.loc 1 989 23
	ld	a5,-104(s0)
	.loc 1 989 8
	beq	a5,zero,.L141
	.loc 1 990 7
	ld	a5,-104(s0)
	mv	a0,a5
	call	FreePool@plt
.L141:
	.loc 1 993 17
	la	a5,gBS
	ld	a5,0(a5)
	ld	a5,312(a5)
	.loc 1 993 14
	addi	a4,s0,-104
	addi	a3,s0,-96
	li	a2,0
	la	a1,gEfiBlockIoProtocolGuid
	li	a0,2
	jalr	a5
.LVL17:
	sd	a0,-64(s0)
	.loc 1 994 36
	ld	a5,-64(s0)
	.loc 1 994 8
	bge	a5,zero,.L142
	.loc 1 995 26
	sd	zero,-96(s0)
	.loc 1 996 21
	sd	zero,-104(s0)
.L142:
	.loc 1 1002 16
	sd	zero,-40(s0)
	.loc 1 1002 5
	j	.L143
.L147:
	.loc 1 1003 62
	ld	a4,-104(s0)
	ld	a5,-40(s0)
	slli	a5,a5,3
	add	a5,a4,a5
	.loc 1 1003 27
	ld	a5,0(a5)
	mv	a0,a5
	call	DevicePathFromHandle@plt
	sd	a0,-88(s0)
	.loc 1 1004 10
	ld	a5,-88(s0)
	beq	a5,zero,.L153
	.loc 1 1008 11
	ld	a1,-152(s0)
	ld	a0,-88(s0)
	call	BmMatchPartitionDevicePathNode
	mv	a5,a0
	.loc 1 1008 10 discriminator 1
	beq	a5,zero,.L145
	.loc 1 1012 63
	ld	a0,-152(s0)
	call	NextDevicePathNode@plt
	mv	a5,a0
	.loc 1 1012 26 discriminator 1
	mv	a1,a5
	ld	a0,-88(s0)
	call	AppendDevicePath@plt
	sd	a0,-80(s0)
	.loc 1 1013 20
	li	a1,0
	ld	a0,-80(s0)
	call	BmGetNextLoadOptionDevicePath
	sd	a0,-48(s0)
	.loc 1 1014 9
	ld	a0,-80(s0)
	call	FreePool@plt
	.loc 1 1016 12
	ld	a5,-48(s0)
	beq	a5,zero,.L145
	.loc 1 1017 11
	addi	a5,s0,-112
	ld	a1,-88(s0)
	mv	a0,a5
	call	BmCachePartitionDevicePath
	.loc 1 1023 23
	la	a5,gRT
	ld	a5,0(a5)
	ld	s1,88(a5)
	.loc 1 1023 20
	ld	a5,-112(s0)
	mv	a0,a5
	call	GetDevicePathSize@plt
	mv	a3,a0
	.loc 1 1023 20 is_stmt 0 discriminator 1
	ld	a5,-112(s0)
	mv	a4,a5
	li	a2,3
	lla	a1,mBmHardDriveBootVariableGuid
	lla	a0,.LC2
	jalr	s1
.LVL18:
	sd	a0,-64(s0)
	.loc 1 1031 22 is_stmt 1
	li	a5,1
	sb	a5,-50(s0)
	.loc 1 1032 11
	j	.L146
.L153:
	.loc 1 1005 9
	nop
.L145:
	.loc 1 1002 54 discriminator 2
	ld	a5,-40(s0)
	addi	a5,a5,1
	sd	a5,-40(s0)
.L143:
	.loc 1 1002 27 discriminator 1
	ld	a5,-96(s0)
	ld	a4,-40(s0)
	bltu	a4,a5,.L147
.L146:
	.loc 1 1041 8
	lbu	a5,-50(s0)
	andi	a5,a5,0xff
	bne	a5,zero,.L148
	.loc 1 1041 20 discriminator 1
	lbu	a5,-51(s0)
	andi	a5,a5,0xff
	bne	a5,zero,.L148
	.loc 1 1045 5
	call	EfiBootManagerConnectAll@plt
	.loc 1 1046 25
	li	a5,1
	sb	a5,-51(s0)
	.loc 1 989 8
	j	.L149
.L148:
	.loc 1 1049 24
	ld	a5,-112(s0)
	.loc 1 1049 6
	beq	a5,zero,.L150
	.loc 1 1050 5
	ld	a5,-112(s0)
	mv	a0,a5
	call	FreePool@plt
.L150:
	.loc 1 1053 21
	ld	a5,-104(s0)
	.loc 1 1053 6
	beq	a5,zero,.L151
	.loc 1 1054 5
	ld	a5,-104(s0)
	mv	a0,a5
	call	FreePool@plt
.L151:
	.loc 1 1057 10
	ld	a5,-48(s0)
.L152:
	.loc 1 1058 1
	mv	a0,a5
	ld	ra,152(sp)
	.cfi_restore 1
	ld	s0,144(sp)
	.cfi_restore 8
	.cfi_def_cfa 2, 160
	ld	s1,136(sp)
	.cfi_restore 9
	addi	sp,sp,160
	.cfi_def_cfa_offset 0
	jr	ra
	.cfi_endproc
.LFE13:
	.size	BmExpandPartitionDevicePath, .-BmExpandPartitionDevicePath
	.section	.rodata
	.align	3
.LC3:
	.string	"\\"
	.string	"E"
	.string	"F"
	.string	"I"
	.string	"\\"
	.string	"B"
	.string	"O"
	.string	"O"
	.string	"T"
	.string	"\\"
	.string	"B"
	.string	"O"
	.string	"O"
	.string	"T"
	.string	"R"
	.string	"I"
	.string	"S"
	.string	"C"
	.string	"V"
	.string	"6"
	.string	"4"
	.string	"."
	.string	"E"
	.string	"F"
	.string	"I"
	.zero	2
	.section	.text.BmExpandMediaDevicePath,"ax",@progbits
	.align	1
	.globl	BmExpandMediaDevicePath
	.type	BmExpandMediaDevicePath, @function
BmExpandMediaDevicePath:
.LFB14:
	.loc 1 1076 1
	.cfi_startproc
	addi	sp,sp,-128
	.cfi_def_cfa_offset 128
	sd	ra,120(sp)
	sd	s0,112(sp)
	.cfi_offset 1, -8
	.cfi_offset 8, -16
	addi	s0,sp,128
	.cfi_def_cfa 8, 0
	sd	a0,-120(s0)
	sd	a1,-128(s0)
	.loc 1 1090 13
	ld	a5,-128(s0)
	seqz	a5,a5
	andi	a5,a5,0xff
	.loc 1 1090 11
	sb	a5,-33(s0)
	.loc 1 1094 18
	ld	a5,-120(s0)
	sd	a5,-96(s0)
	.loc 1 1095 15
	la	a5,gBS
	ld	a5,0(a5)
	ld	a5,184(a5)
	.loc 1 1095 12
	addi	a3,s0,-80
	addi	a4,s0,-96
	mv	a2,a3
	mv	a1,a4
	la	a0,gEfiSimpleFileSystemProtocolGuid
	jalr	a5
.LVL19:
	sd	a0,-48(s0)
	.loc 1 1096 7
	ld	a5,-48(s0)
	.loc 1 1096 6
	blt	a5,zero,.L155
	.loc 1 1099 20
	ld	a5,-80(s0)
	lla	a1,.LC3
	mv	a0,a5
	call	FileDevicePath@plt
	sd	a0,-24(s0)
	.loc 1 1103 8
	lbu	a5,-33(s0)
	andi	a5,a5,0xff
	beq	a5,zero,.L156
	.loc 1 1104 14
	ld	a5,-24(s0)
	j	.L166
.L156:
	.loc 1 1106 7
	ld	a0,-24(s0)
	call	FreePool@plt
	.loc 1 1107 14
	li	a5,0
	j	.L166
.L155:
	.loc 1 1111 15
	la	a5,gBS
	ld	a5,0(a5)
	ld	a5,184(a5)
	.loc 1 1111 12
	addi	a3,s0,-80
	addi	a4,s0,-96
	mv	a2,a3
	mv	a1,a4
	la	a0,gEfiBlockIoProtocolGuid
	jalr	a5
.LVL20:
	sd	a0,-48(s0)
	.loc 1 1119 6
	la	a5,gBS
	ld	a5,0(a5)
	ld	a5,264(a5)
	.loc 1 1119 3
	ld	a4,-80(s0)
	li	a3,1
	li	a2,0
	li	a1,0
	mv	a0,a4
	jalr	a5
.LVL21:
	.loc 1 1128 15
	la	a5,gBS
	ld	a5,0(a5)
	ld	a5,152(a5)
	.loc 1 1128 12
	ld	a4,-80(s0)
	addi	a3,s0,-88
	mv	a2,a3
	la	a1,gEfiBlockIoProtocolGuid
	mv	a0,a4
	jalr	a5
.LVL22:
	sd	a0,-48(s0)
	.loc 1 1130 34
	ld	a5,-48(s0)
	.loc 1 1130 6
	bge	a5,zero,.L158
	.loc 1 1131 12
	li	a5,0
	j	.L166
.L158:
	.loc 1 1134 33
	ld	a5,-88(s0)
	ld	a5,8(a5)
	.loc 1 1134 40
	lw	a5,12(a5)
	.loc 1 1134 12
	slli	a5,a5,32
	srli	a5,a5,32
	mv	a0,a5
	call	AllocatePool@plt
	sd	a0,-56(s0)
	.loc 1 1135 6
	ld	a5,-56(s0)
	beq	a5,zero,.L159
	.loc 1 1136 12
	ld	a5,-88(s0)
	ld	a5,24(a5)
	.loc 1 1136 5
	ld	a0,-88(s0)
	.loc 1 1138 23
	ld	a4,-88(s0)
	ld	a4,8(a4)
	.loc 1 1136 5
	lw	a1,0(a4)
	.loc 1 1140 23
	ld	a4,-88(s0)
	ld	a4,8(a4)
	.loc 1 1140 30
	lw	a4,12(a4)
	.loc 1 1136 5
	slli	a3,a4,32
	srli	a3,a3,32
	ld	a4,-56(s0)
	li	a2,0
	jalr	a5
.LVL23:
	.loc 1 1143 5
	ld	a0,-56(s0)
	call	FreePool@plt
.L159:
	.loc 1 1149 16
	sd	zero,-24(s0)
	.loc 1 1150 10
	ld	a0,-120(s0)
	call	GetDevicePathSize@plt
	mv	a5,a0
	.loc 1 1150 8 discriminator 1
	addi	a5,a5,-4
	sd	a5,-64(s0)
	.loc 1 1151 6
	la	a5,gBS
	ld	a5,0(a5)
	ld	a5,312(a5)
	.loc 1 1151 3
	addi	a4,s0,-104
	addi	a3,s0,-112
	li	a2,0
	la	a1,gEfiSimpleFileSystemProtocolGuid
	li	a0,2
	jalr	a5
.LVL24:
	.loc 1 1158 14
	sd	zero,-32(s0)
	.loc 1 1158 3
	j	.L160
.L164:
	.loc 1 1162 67
	ld	a4,-104(s0)
	ld	a5,-32(s0)
	slli	a5,a5,3
	add	a5,a4,a5
	.loc 1 1162 22
	ld	a5,0(a5)
	mv	a0,a5
	call	DevicePathFromHandle@plt
	mv	a5,a0
	.loc 1 1162 20 discriminator 1
	sd	a5,-96(s0)
	.loc 1 1163 16
	ld	a5,-96(s0)
	mv	a0,a5
	call	GetDevicePathSize@plt
	mv	a5,a0
	.loc 1 1163 14 discriminator 1
	addi	a5,a5,-4
	sd	a5,-72(s0)
	.loc 1 1167 8
	ld	a4,-64(s0)
	ld	a5,-72(s0)
	bgtu	a4,a5,.L161
	.loc 1 1167 32 discriminator 1
	ld	a5,-96(s0)
	ld	a2,-64(s0)
	ld	a1,-120(s0)
	mv	a0,a5
	call	CompareMem@plt
	mv	a5,a0
	.loc 1 1167 28 discriminator 2
	bne	a5,zero,.L161
	.loc 1 1168 61
	ld	a4,-104(s0)
	ld	a5,-32(s0)
	slli	a5,a5,3
	add	a5,a4,a5
	.loc 1 1168 22
	ld	a5,0(a5)
	lla	a1,.LC3
	mv	a0,a5
	call	FileDevicePath@plt
	sd	a0,-24(s0)
	.loc 1 1169 10
	lbu	a5,-33(s0)
	andi	a5,a5,0xff
	bne	a5,zero,.L167
	.loc 1 1172 29
	ld	a0,-24(s0)
	call	GetDevicePathSize@plt
	mv	a5,a0
	.loc 1 1172 29 is_stmt 0 discriminator 1
	mv	a2,a5
	ld	a1,-128(s0)
	ld	a0,-24(s0)
	call	CompareMem@plt
	mv	a5,a0
	.loc 1 1172 19 is_stmt 1 discriminator 2
	seqz	a5,a5
	andi	a5,a5,0xff
	.loc 1 1172 17 discriminator 2
	sb	a5,-33(s0)
	.loc 1 1173 9
	ld	a0,-24(s0)
	call	FreePool@plt
	.loc 1 1174 22
	sd	zero,-24(s0)
.L161:
	.loc 1 1158 63 discriminator 2
	ld	a5,-32(s0)
	addi	a5,a5,1
	sd	a5,-32(s0)
.L160:
	.loc 1 1158 25 discriminator 1
	ld	a5,-112(s0)
	ld	a4,-32(s0)
	bltu	a4,a5,.L164
	j	.L163
.L167:
	.loc 1 1170 9
	nop
.L163:
	.loc 1 1179 31
	ld	a5,-104(s0)
	.loc 1 1179 6
	beq	a5,zero,.L165
	.loc 1 1180 5
	ld	a5,-104(s0)
	mv	a0,a5
	call	FreePool@plt
.L165:
	.loc 1 1183 10
	ld	a5,-24(s0)
.L166:
	.loc 1 1184 1
	mv	a0,a5
	ld	ra,120(sp)
	.cfi_restore 1
	ld	s0,112(sp)
	.cfi_restore 8
	.cfi_def_cfa 2, 128
	addi	sp,sp,128
	.cfi_def_cfa_offset 0
	jr	ra
	.cfi_endproc
.LFE14:
	.size	BmExpandMediaDevicePath, .-BmExpandMediaDevicePath
	.section	.text.BmMatchHttpBootDevicePath,"ax",@progbits
	.align	1
	.globl	BmMatchHttpBootDevicePath
	.type	BmMatchHttpBootDevicePath, @function
BmMatchHttpBootDevicePath:
.LFB15:
	.loc 1 1198 1
	.cfi_startproc
	addi	sp,sp,-32
	.cfi_def_cfa_offset 32
	sd	ra,24(sp)
	sd	s0,16(sp)
	.cfi_offset 1, -8
	.cfi_offset 8, -16
	addi	s0,sp,32
	.cfi_def_cfa 8, 0
	sd	a0,-24(s0)
	sd	a1,-32(s0)
	.loc 1 1199 3
	j	.L169
.L180:
	.loc 1 1203 9
	ld	a0,-24(s0)
	call	DevicePathNodeLength@plt
	mv	a5,a0
	.loc 1 1203 9 is_stmt 0 discriminator 1
	mv	a2,a5
	ld	a1,-32(s0)
	ld	a0,-24(s0)
	call	CompareMem@plt
	mv	a5,a0
	.loc 1 1203 8 is_stmt 1 discriminator 2
	beq	a5,zero,.L170
	.loc 1 1204 12
	ld	a0,-24(s0)
	call	DevicePathType@plt
	mv	a5,a0
	.loc 1 1204 10 discriminator 1
	mv	a4,a5
	li	a5,3
	bne	a4,a5,.L171
	.loc 1 1204 47 discriminator 2
	ld	a0,-32(s0)
	call	DevicePathType@plt
	mv	a5,a0
	.loc 1 1204 43 discriminator 3
	mv	a4,a5
	li	a5,3
	beq	a4,a5,.L172
.L171:
	.loc 1 1205 16
	li	a5,0
	j	.L173
.L172:
	.loc 1 1208 11
	ld	a0,-24(s0)
	call	DevicePathSubType@plt
	mv	a5,a0
	.loc 1 1208 10 discriminator 1
	mv	a4,a5
	li	a5,31
	bne	a4,a5,.L174
	.loc 1 1209 16
	ld	a0,-24(s0)
	call	NextDevicePathNode@plt
	sd	a0,-24(s0)
.L174:
	.loc 1 1212 11
	ld	a0,-32(s0)
	call	DevicePathSubType@plt
	mv	a5,a0
	.loc 1 1212 10 discriminator 1
	mv	a4,a5
	li	a5,31
	bne	a4,a5,.L175
	.loc 1 1213 17
	ld	a0,-32(s0)
	call	NextDevicePathNode@plt
	sd	a0,-32(s0)
.L175:
	.loc 1 1216 13
	ld	a0,-24(s0)
	call	DevicePathSubType@plt
	mv	a5,a0
	.loc 1 1216 10 discriminator 1
	mv	a4,a5
	li	a5,12
	bne	a4,a5,.L176
	.loc 1 1216 51 discriminator 3
	ld	a0,-32(s0)
	call	DevicePathSubType@plt
	mv	a5,a0
	.loc 1 1216 47 discriminator 4
	mv	a4,a5
	li	a5,12
	beq	a4,a5,.L170
.L176:
	.loc 1 1217 13
	ld	a0,-24(s0)
	call	DevicePathSubType@plt
	mv	a5,a0
	.loc 1 1216 87 discriminator 5
	mv	a4,a5
	li	a5,13
	bne	a4,a5,.L177
	.loc 1 1217 51
	ld	a0,-32(s0)
	call	DevicePathSubType@plt
	mv	a5,a0
	.loc 1 1217 47 discriminator 2
	mv	a4,a5
	li	a5,13
	beq	a4,a5,.L170
.L177:
	.loc 1 1218 13
	ld	a0,-24(s0)
	call	DevicePathSubType@plt
	mv	a5,a0
	.loc 1 1217 87 discriminator 3
	mv	a4,a5
	li	a5,24
	bne	a4,a5,.L178
	.loc 1 1218 51
	ld	a0,-32(s0)
	call	DevicePathSubType@plt
	mv	a5,a0
	.loc 1 1218 47 discriminator 2
	mv	a4,a5
	li	a5,24
	beq	a4,a5,.L170
.L178:
	.loc 1 1221 16
	li	a5,0
	j	.L173
.L170:
	.loc 1 1200 18
	ld	a0,-24(s0)
	call	NextDevicePathNode@plt
	sd	a0,-24(s0)
	.loc 1 1200 53 discriminator 1
	ld	a0,-32(s0)
	call	NextDevicePathNode@plt
	sd	a0,-32(s0)
.L169:
	.loc 1 1199 12
	ld	a0,-24(s0)
	call	IsDevicePathEnd@plt
	mv	a5,a0
	.loc 1 1199 35 discriminator 1
	bne	a5,zero,.L179
	.loc 1 1199 39 discriminator 2
	ld	a0,-32(s0)
	call	IsDevicePathEnd@plt
	mv	a5,a0
	.loc 1 1199 35 discriminator 3
	beq	a5,zero,.L180
.L179:
	.loc 1 1226 20
	ld	a0,-24(s0)
	call	IsDevicePathEnd@plt
	mv	a5,a0
	.loc 1 1226 43 discriminator 1
	beq	a5,zero,.L181
	.loc 1 1226 46 discriminator 2
	ld	a0,-32(s0)
	call	IsDevicePathEnd@plt
	mv	a5,a0
	.loc 1 1226 43 discriminator 4
	beq	a5,zero,.L181
	.loc 1 1226 43 is_stmt 0 discriminator 5
	li	a5,1
	.loc 1 1226 43
	j	.L182
.L181:
	.loc 1 1226 43 discriminator 6
	li	a5,0
.L182:
	.loc 1 1226 10 is_stmt 1 discriminator 8
	andi	a5,a5,0xff
.L173:
	.loc 1 1227 1
	mv	a0,a5
	ld	ra,24(sp)
	.cfi_restore 1
	ld	s0,16(sp)
	.cfi_restore 8
	.cfi_def_cfa 2, 32
	addi	sp,sp,32
	.cfi_def_cfa_offset 0
	jr	ra
	.cfi_endproc
.LFE15:
	.size	BmMatchHttpBootDevicePath, .-BmMatchHttpBootDevicePath
	.section	.text.BmExpandNetworkFileSystem,"ax",@progbits
	.align	1
	.globl	BmExpandNetworkFileSystem
	.type	BmExpandNetworkFileSystem, @function
BmExpandNetworkFileSystem:
.LFB16:
	.loc 1 1243 1
	.cfi_startproc
	addi	sp,sp,-80
	.cfi_def_cfa_offset 80
	sd	ra,72(sp)
	sd	s0,64(sp)
	.cfi_offset 1, -8
	.cfi_offset 8, -16
	addi	s0,sp,80
	.cfi_def_cfa 8, 0
	sd	a0,-72(s0)
	sd	a1,-80(s0)
	.loc 1 1251 15
	la	a5,gBS
	ld	a5,0(a5)
	ld	a5,312(a5)
	.loc 1 1251 12
	addi	a4,s0,-48
	addi	a3,s0,-56
	li	a2,0
	la	a1,gEfiBlockIoProtocolGuid
	li	a0,2
	jalr	a5
.LVL25:
	sd	a0,-32(s0)
	.loc 1 1258 34
	ld	a5,-32(s0)
	.loc 1 1258 6
	bge	a5,zero,.L184
	.loc 1 1259 13
	sd	zero,-48(s0)
	.loc 1 1260 17
	sd	zero,-56(s0)
.L184:
	.loc 1 1263 10
	sd	zero,-40(s0)
	.loc 1 1264 14
	sd	zero,-24(s0)
	.loc 1 1264 3
	j	.L185
.L188:
	.loc 1 1265 41
	ld	a4,-48(s0)
	ld	a5,-24(s0)
	slli	a5,a5,3
	add	a5,a4,a5
	.loc 1 1265 12
	ld	a5,0(a5)
	mv	a0,a5
	call	DevicePathFromHandle@plt
	mv	a5,a0
	.loc 1 1265 10 discriminator 1
	sd	a5,-64(s0)
	.loc 1 1266 17
	la	a5,gBS
	ld	a5,0(a5)
	ld	a5,184(a5)
	.loc 1 1266 14
	addi	a3,s0,-40
	addi	a4,s0,-64
	mv	a2,a3
	mv	a1,a4
	la	a0,gEfiLoadFileProtocolGuid
	jalr	a5
.LVL26:
	sd	a0,-32(s0)
	.loc 1 1267 9
	ld	a5,-32(s0)
	.loc 1 1267 8
	blt	a5,zero,.L186
	.loc 1 1268 17
	ld	a5,-40(s0)
	.loc 1 1267 63 discriminator 1
	ld	a4,-72(s0)
	bne	a4,a5,.L186
	.loc 1 1269 10
	ld	a5,-64(s0)
	mv	a0,a5
	call	DevicePathType@plt
	mv	a5,a0
	.loc 1 1268 36
	mv	a4,a5
	li	a5,4
	bne	a4,a5,.L186
	.loc 1 1269 45
	ld	a5,-64(s0)
	mv	a0,a5
	call	DevicePathSubType@plt
	mv	a5,a0
	.loc 1 1269 41 discriminator 2
	mv	a4,a5
	li	a5,9
	bne	a4,a5,.L186
	.loc 1 1274 23
	ld	a4,-48(s0)
	ld	a5,-24(s0)
	slli	a5,a5,3
	add	a5,a4,a5
	ld	a5,0(a5)
	.loc 1 1274 14
	sd	a5,-40(s0)
	.loc 1 1275 7
	j	.L187
.L186:
	.loc 1 1264 45 discriminator 2
	ld	a5,-24(s0)
	addi	a5,a5,1
	sd	a5,-24(s0)
.L185:
	.loc 1 1264 25 discriminator 1
	ld	a5,-56(s0)
	ld	a4,-24(s0)
	bltu	a4,a5,.L188
.L187:
	.loc 1 1279 15
	ld	a5,-48(s0)
	.loc 1 1279 6
	beq	a5,zero,.L189
	.loc 1 1280 5
	ld	a5,-48(s0)
	mv	a0,a5
	call	FreePool@plt
.L189:
	.loc 1 1283 13
	ld	a5,-56(s0)
	.loc 1 1283 6
	ld	a4,-24(s0)
	bne	a4,a5,.L190
	.loc 1 1284 12
	sd	zero,-40(s0)
.L190:
	.loc 1 1287 18
	ld	a4,-40(s0)
	ld	a5,-80(s0)
	sd	a4,0(a5)
	.loc 1 1289 14
	ld	a5,-40(s0)
	.loc 1 1289 6
	beq	a5,zero,.L191
	.loc 1 1294 12
	ld	a5,-40(s0)
	mv	a0,a5
	call	DevicePathFromHandle@plt
	mv	a5,a0
	.loc 1 1294 12 is_stmt 0 discriminator 1
	li	a1,0
	mv	a0,a5
	call	BmExpandMediaDevicePath
	mv	a5,a0
	.loc 1 1294 12
	j	.L193
.L191:
	.loc 1 1296 12 is_stmt 1
	li	a5,0
.L193:
	.loc 1 1298 1
	mv	a0,a5
	ld	ra,72(sp)
	.cfi_restore 1
	ld	s0,64(sp)
	.cfi_restore 8
	.cfi_def_cfa 2, 80
	addi	sp,sp,80
	.cfi_def_cfa_offset 0
	jr	ra
	.cfi_endproc
.LFE16:
	.size	BmExpandNetworkFileSystem, .-BmExpandNetworkFileSystem
	.section	.text.BmGetRamDiskDevicePath,"ax",@progbits
	.align	1
	.globl	BmGetRamDiskDevicePath
	.type	BmGetRamDiskDevicePath, @function
BmGetRamDiskDevicePath:
.LFB17:
	.loc 1 1311 1
	.cfi_startproc
	addi	sp,sp,-64
	.cfi_def_cfa_offset 64
	sd	ra,56(sp)
	sd	s0,48(sp)
	.cfi_offset 1, -8
	.cfi_offset 8, -16
	addi	s0,sp,64
	.cfi_def_cfa 8, 0
	sd	a0,-56(s0)
	.loc 1 1317 8
	ld	a5,-56(s0)
	sd	a5,-40(s0)
	.loc 1 1318 15
	la	a5,gBS
	ld	a5,0(a5)
	ld	a5,184(a5)
	.loc 1 1318 12
	addi	a3,s0,-48
	addi	a4,s0,-40
	mv	a2,a3
	mv	a1,a4
	la	a0,gEfiLoadFileProtocolGuid
	jalr	a5
.LVL27:
	sd	a0,-24(s0)
	.loc 1 1319 7
	ld	a5,-24(s0)
	.loc 1 1319 6
	blt	a5,zero,.L195
	.loc 1 1320 8
	ld	a5,-40(s0)
	mv	a0,a5
	call	DevicePathType@plt
	mv	a5,a0
	.loc 1 1319 61 discriminator 1
	mv	a4,a5
	li	a5,4
	bne	a4,a5,.L195
	.loc 1 1321 8
	ld	a5,-40(s0)
	mv	a0,a5
	call	DevicePathSubType@plt
	mv	a5,a0
	.loc 1 1320 39
	mv	a4,a5
	li	a5,9
	bne	a4,a5,.L195
	.loc 1 1327 12
	ld	a5,-40(s0)
	mv	a0,a5
	call	NextDevicePathNode@plt
	mv	a5,a0
	.loc 1 1327 10 discriminator 1
	sd	a5,-40(s0)
	.loc 1 1328 25
	ld	a0,-56(s0)
	call	DuplicateDevicePath@plt
	sd	a0,-32(s0)
	.loc 1 1330 64
	ld	a5,-40(s0)
	mv	a4,a5
	.loc 1 1330 78
	ld	a5,-56(s0)
	.loc 1 1330 76
	sub	a4,a4,a5
	.loc 1 1330 36
	ld	a5,-32(s0)
	.loc 1 1330 61
	add	a5,a4,a5
	.loc 1 1330 5
	mv	a0,a5
	call	SetDevicePathEndNode@plt
	.loc 1 1331 12
	ld	a5,-32(s0)
	j	.L197
.L195:
	.loc 1 1334 10
	li	a5,0
.L197:
	.loc 1 1335 1
	mv	a0,a5
	ld	ra,56(sp)
	.cfi_restore 1
	ld	s0,48(sp)
	.cfi_restore 8
	.cfi_def_cfa 2, 64
	addi	sp,sp,64
	.cfi_def_cfa_offset 0
	jr	ra
	.cfi_endproc
.LFE17:
	.size	BmGetRamDiskDevicePath, .-BmGetRamDiskDevicePath
	.section	.text.BmGetRamDiskMemoryInfo,"ax",@progbits
	.align	1
	.globl	BmGetRamDiskMemoryInfo
	.type	BmGetRamDiskMemoryInfo, @function
BmGetRamDiskMemoryInfo:
.LFB18:
	.loc 1 1350 1
	.cfi_startproc
	addi	sp,sp,-64
	.cfi_def_cfa_offset 64
	sd	ra,56(sp)
	sd	s0,48(sp)
	.cfi_offset 1, -8
	.cfi_offset 8, -16
	addi	s0,sp,64
	.cfi_def_cfa 8, 0
	sd	a0,-56(s0)
	sd	a1,-64(s0)
	.loc 1 1358 23
	ld	a5,-64(s0)
	sd	zero,0(a5)
	.loc 1 1363 15
	la	a5,gBS
	ld	a5,0(a5)
	ld	a5,184(a5)
	.loc 1 1363 12
	addi	a3,s0,-48
	addi	a4,s0,-56
	mv	a2,a3
	mv	a1,a4
	la	a0,gEfiLoadFileProtocolGuid
	jalr	a5
.LVL28:
	sd	a0,-24(s0)
	.loc 1 1369 46
	ld	a5,-56(s0)
	.loc 1 1369 45
	addi	a5,a5,4
	.loc 1 1369 18
	mv	a0,a5
	call	ReadUnaligned64@plt
	sd	a0,-32(s0)
	.loc 1 1370 44
	ld	a5,-56(s0)
	.loc 1 1370 43
	addi	a5,a5,12
	.loc 1 1370 16
	mv	a0,a5
	call	ReadUnaligned64@plt
	sd	a0,-40(s0)
	.loc 1 1371 47
	ld	a4,-40(s0)
	ld	a5,-32(s0)
	sub	a5,a4,a5
	.loc 1 1371 62
	addi	a5,a5,1
	.loc 1 1371 68
	srli	a4,a5,12
	.loc 1 1371 99
	ld	a3,-40(s0)
	ld	a5,-32(s0)
	sub	a5,a3,a5
	.loc 1 1371 114
	addi	a3,a5,1
	.loc 1 1371 120
	li	a5,4096
	addi	a5,a5,-1
	and	a5,a3,a5
	.loc 1 1371 133
	beq	a5,zero,.L199
	.loc 1 1371 133 is_stmt 0 discriminator 1
	li	a5,1
	j	.L200
.L199:
	.loc 1 1371 133 discriminator 2
	li	a5,0
.L200:
	.loc 1 1371 75 is_stmt 1 discriminator 4
	add	a4,a5,a4
	.loc 1 1371 23 discriminator 4
	ld	a5,-64(s0)
	sd	a4,0(a5)
	.loc 1 1372 10
	ld	a5,-32(s0)
	.loc 1 1373 1
	mv	a0,a5
	ld	ra,56(sp)
	.cfi_restore 1
	ld	s0,48(sp)
	.cfi_restore 8
	.cfi_def_cfa 2, 64
	addi	sp,sp,64
	.cfi_def_cfa_offset 0
	jr	ra
	.cfi_endproc
.LFE18:
	.size	BmGetRamDiskMemoryInfo, .-BmGetRamDiskMemoryInfo
	.section	.text.BmDestroyRamDisk,"ax",@progbits
	.align	1
	.globl	BmDestroyRamDisk
	.type	BmDestroyRamDisk, @function
BmDestroyRamDisk:
.LFB19:
	.loc 1 1388 1
	.cfi_startproc
	addi	sp,sp,-64
	.cfi_def_cfa_offset 64
	sd	ra,56(sp)
	sd	s0,48(sp)
	.cfi_offset 1, -8
	.cfi_offset 8, -16
	addi	s0,sp,64
	.cfi_def_cfa 8, 0
	sd	a0,-56(s0)
	.loc 1 1395 19
	addi	a5,s0,-40
	mv	a1,a5
	ld	a0,-56(s0)
	call	BmGetRamDiskMemoryInfo
	sd	a0,-24(s0)
	.loc 1 1400 16
	lla	a5,mRamDisk
	ld	a5,0(a5)
	.loc 1 1400 6
	bne	a5,zero,.L203
	.loc 1 1401 17
	la	a5,gBS
	ld	a5,0(a5)
	ld	a5,320(a5)
	.loc 1 1401 14
	lla	a2,mRamDisk
	li	a1,0
	la	a0,gEfiRamDiskProtocolGuid
	jalr	a5
.LVL29:
	sd	a0,-32(s0)
.L203:
	.loc 1 1405 20
	lla	a5,mRamDisk
	ld	a5,0(a5)
	ld	a5,8(a5)
	.loc 1 1405 12
	ld	a0,-56(s0)
	jalr	a5
.LVL30:
	sd	a0,-32(s0)
	.loc 1 1407 3
	ld	a5,-40(s0)
	mv	a1,a5
	ld	a0,-24(s0)
	call	FreePages@plt
	.loc 1 1408 1
	nop
	ld	ra,56(sp)
	.cfi_restore 1
	ld	s0,48(sp)
	.cfi_restore 8
	.cfi_def_cfa 2, 64
	addi	sp,sp,64
	.cfi_def_cfa_offset 0
	jr	ra
	.cfi_endproc
.LFE19:
	.size	BmDestroyRamDisk, .-BmDestroyRamDisk
	.section	.text.BmExpandLoadFile,"ax",@progbits
	.align	1
	.globl	BmExpandLoadFile
	.type	BmExpandLoadFile, @function
BmExpandLoadFile:
.LFB20:
	.loc 1 1423 1
	.cfi_startproc
	addi	sp,sp,-112
	.cfi_def_cfa_offset 112
	sd	ra,104(sp)
	sd	s0,96(sp)
	.cfi_offset 1, -8
	.cfi_offset 8, -16
	addi	s0,sp,112
	.cfi_def_cfa 8, 0
	sd	a0,-104(s0)
	sd	a1,-112(s0)
	.loc 1 1431 15
	la	a5,gBS
	ld	a5,0(a5)
	ld	a6,280(a5)
	.loc 1 1431 12
	la	a5,gImageHandle
	ld	a3,0(a5)
	addi	a2,s0,-72
	li	a5,2
	li	a4,0
	la	a1,gEfiLoadFileProtocolGuid
	ld	a0,-104(s0)
	jalr	a6
.LVL31:
	sd	a0,-32(s0)
	.loc 1 1441 14
	sd	zero,-40(s0)
	.loc 1 1442 14
	sd	zero,-88(s0)
	.loc 1 1443 20
	ld	a5,-72(s0)
	ld	a5,0(a5)
	.loc 1 1443 12
	ld	a0,-72(s0)
	addi	a3,s0,-88
	ld	a4,-40(s0)
	li	a2,1
	ld	a1,-112(s0)
	jalr	a5
.LVL32:
	sd	a0,-32(s0)
	.loc 1 1444 6
	ld	a4,-32(s0)
	li	a5,6
	beq	a4,a5,.L205
	.loc 1 1444 40 discriminator 1
	ld	a4,-32(s0)
	li	a5,-1
	slli	a5,a5,63
	addi	a5,a5,5
	beq	a4,a5,.L205
	.loc 1 1445 12
	li	a5,0
	j	.L219
.L205:
	.loc 1 1448 6
	ld	a4,-32(s0)
	li	a5,-1
	slli	a5,a5,63
	addi	a5,a5,5
	bne	a4,a5,.L207
	.loc 1 1452 33
	ld	a0,-104(s0)
	call	DevicePathFromHandle@plt
	mv	a5,a0
	.loc 1 1452 12 discriminator 1
	mv	a0,a5
	call	DuplicateDevicePath@plt
	mv	a5,a0
	.loc 1 1452 12 is_stmt 0
	j	.L219
.L207:
	.loc 1 1458 54 is_stmt 1
	ld	a5,-88(s0)
	srli	a4,a5,12
	.loc 1 1458 78
	ld	a3,-88(s0)
	li	a5,4096
	addi	a5,a5,-1
	and	a5,a3,a5
	.loc 1 1458 91
	beq	a5,zero,.L208
	.loc 1 1458 91 is_stmt 0 discriminator 1
	li	a5,1
	j	.L209
.L208:
	.loc 1 1458 91 discriminator 2
	li	a5,0
.L209:
	.loc 1 1458 16 is_stmt 1 discriminator 4
	add	a5,a5,a4
	mv	a0,a5
	call	AllocateReservedPages@plt
	sd	a0,-40(s0)
	.loc 1 1459 6
	ld	a5,-40(s0)
	bne	a5,zero,.L210
	.loc 1 1460 14
	call	DebugCodeEnabled@plt
	mv	a5,a0
	.loc 1 1460 13 discriminator 1
	beq	a5,zero,.L211
.LBB2:
	.loc 1 1465 20
	ld	a0,-104(s0)
	call	DevicePathFromHandle@plt
	sd	a0,-56(s0)
	.loc 1 1466 8
	ld	a5,-56(s0)
	bne	a5,zero,.L212
	.loc 1 1467 20
	sd	zero,-24(s0)
	j	.L213
.L212:
	.loc 1 1469 22
	li	a2,0
	li	a1,0
	ld	a0,-56(s0)
	call	ConvertDevicePathToText@plt
	sd	a0,-24(s0)
.L213:
	.loc 1 1472 16
	li	a2,0
	li	a1,0
	ld	a0,-112(s0)
	call	ConvertDevicePathToText@plt
	sd	a0,-64(s0)
	.loc 1 1485 8
	ld	a5,-64(s0)
	beq	a5,zero,.L214
	.loc 1 1486 7
	ld	a0,-64(s0)
	call	FreePool@plt
.L214:
	.loc 1 1489 8
	ld	a5,-24(s0)
	beq	a5,zero,.L211
	.loc 1 1490 7
	ld	a0,-24(s0)
	call	FreePool@plt
.L211:
.LBE2:
	.loc 1 1494 12
	li	a5,0
	j	.L219
.L210:
	.loc 1 1497 20
	ld	a5,-72(s0)
	ld	a5,0(a5)
	.loc 1 1497 12
	ld	a0,-72(s0)
	addi	a3,s0,-88
	ld	a4,-40(s0)
	li	a2,1
	ld	a1,-112(s0)
	jalr	a5
.LVL33:
	sd	a0,-32(s0)
	.loc 1 1498 34
	ld	a5,-32(s0)
	.loc 1 1498 6
	bge	a5,zero,.L215
	.loc 1 1499 43
	ld	a5,-88(s0)
	srli	a4,a5,12
	.loc 1 1499 67
	ld	a3,-88(s0)
	li	a5,4096
	addi	a5,a5,-1
	and	a5,a3,a5
	.loc 1 1499 80
	beq	a5,zero,.L216
	.loc 1 1499 80 is_stmt 0 discriminator 1
	li	a5,1
	j	.L217
.L216:
	.loc 1 1499 80 discriminator 2
	li	a5,0
.L217:
	.loc 1 1499 5 is_stmt 1 discriminator 4
	add	a5,a5,a4
	mv	a1,a5
	ld	a0,-40(s0)
	call	FreePages@plt
	.loc 1 1500 12
	li	a5,0
	j	.L219
.L215:
	.loc 1 1503 14
	addi	a5,s0,-80
	mv	a1,a5
	ld	a0,-104(s0)
	call	BmExpandNetworkFileSystem
	sd	a0,-48(s0)
	.loc 1 1504 6
	ld	a5,-48(s0)
	bne	a5,zero,.L218
	.loc 1 1508 5
	ld	a5,-80(s0)
	mv	a0,a5
	call	DevicePathFromHandle@plt
	mv	a5,a0
	.loc 1 1508 5 is_stmt 0 discriminator 1
	mv	a0,a5
	call	BmDestroyRamDisk
.L218:
	.loc 1 1511 10 is_stmt 1
	ld	a5,-48(s0)
.L219:
	.loc 1 1512 1
	mv	a0,a5
	ld	ra,104(sp)
	.cfi_restore 1
	ld	s0,96(sp)
	.cfi_restore 8
	.cfi_def_cfa 2, 112
	addi	sp,sp,112
	.cfi_def_cfa_offset 0
	jr	ra
	.cfi_endproc
.LFE20:
	.size	BmExpandLoadFile, .-BmExpandLoadFile
	.section	.text.BmExpandLoadFiles,"ax",@progbits
	.align	1
	.globl	BmExpandLoadFiles
	.type	BmExpandLoadFiles, @function
BmExpandLoadFiles:
.LFB21:
	.loc 1 1537 1
	.cfi_startproc
	addi	sp,sp,-80
	.cfi_def_cfa_offset 80
	sd	ra,72(sp)
	sd	s0,64(sp)
	.cfi_offset 1, -8
	.cfi_offset 8, -16
	addi	s0,sp,80
	.cfi_def_cfa 8, 0
	sd	a0,-72(s0)
	.loc 1 1548 8
	ld	a5,-72(s0)
	sd	a5,-64(s0)
	.loc 1 1549 15
	la	a5,gBS
	ld	a5,0(a5)
	ld	a5,184(a5)
	.loc 1 1549 12
	addi	a3,s0,-40
	addi	a4,s0,-64
	mv	a2,a3
	mv	a1,a4
	la	a0,gEfiLoadFileProtocolGuid
	jalr	a5
.LVL34:
	sd	a0,-32(s0)
	.loc 1 1550 7
	ld	a5,-32(s0)
	.loc 1 1550 6
	blt	a5,zero,.L221
	.loc 1 1550 64 discriminator 1
	ld	a5,-64(s0)
	mv	a0,a5
	call	IsDevicePathEnd@plt
	mv	a5,a0
	.loc 1 1550 61 discriminator 2
	beq	a5,zero,.L221
	.loc 1 1555 14
	ld	a5,-64(s0)
	sd	a5,-72(s0)
	j	.L222
.L221:
	.loc 1 1557 12
	sd	zero,-40(s0)
	.loc 1 1562 17
	la	a5,gBS
	ld	a5,0(a5)
	ld	a5,312(a5)
	.loc 1 1562 14
	addi	a4,s0,-48
	addi	a3,s0,-56
	li	a2,0
	la	a1,gEfiLoadFileProtocolGuid
	li	a0,2
	jalr	a5
.LVL35:
	sd	a0,-32(s0)
	.loc 1 1569 36
	ld	a5,-32(s0)
	.loc 1 1569 8
	bge	a5,zero,.L223
	.loc 1 1570 15
	sd	zero,-48(s0)
	.loc 1 1571 19
	sd	zero,-56(s0)
.L223:
	.loc 1 1574 16
	sd	zero,-24(s0)
	.loc 1 1574 5
	j	.L224
.L227:
	.loc 1 1575 67
	ld	a4,-48(s0)
	ld	a5,-24(s0)
	slli	a5,a5,3
	add	a5,a4,a5
	.loc 1 1575 11
	ld	a5,0(a5)
	mv	a0,a5
	call	DevicePathFromHandle@plt
	mv	a5,a0
	.loc 1 1575 11 is_stmt 0 discriminator 1
	ld	a1,-72(s0)
	mv	a0,a5
	call	BmMatchHttpBootDevicePath
	mv	a5,a0
	.loc 1 1575 10 is_stmt 1 discriminator 2
	beq	a5,zero,.L225
	.loc 1 1576 25
	ld	a4,-48(s0)
	ld	a5,-24(s0)
	slli	a5,a5,3
	add	a5,a4,a5
	ld	a5,0(a5)
	.loc 1 1576 16
	sd	a5,-40(s0)
	.loc 1 1577 9
	j	.L226
.L225:
	.loc 1 1574 47 discriminator 2
	ld	a5,-24(s0)
	addi	a5,a5,1
	sd	a5,-24(s0)
.L224:
	.loc 1 1574 27 discriminator 1
	ld	a5,-56(s0)
	ld	a4,-24(s0)
	bltu	a4,a5,.L227
.L226:
	.loc 1 1581 17
	ld	a5,-48(s0)
	.loc 1 1581 8
	beq	a5,zero,.L222
	.loc 1 1582 7
	ld	a5,-48(s0)
	mv	a0,a5
	call	FreePool@plt
.L222:
	.loc 1 1586 14
	ld	a5,-40(s0)
	.loc 1 1586 6
	bne	a5,zero,.L228
	.loc 1 1587 12
	li	a5,0
	j	.L230
.L228:
	.loc 1 1590 10
	ld	a5,-40(s0)
	ld	a1,-72(s0)
	mv	a0,a5
	call	BmExpandLoadFile
	mv	a5,a0
.L230:
	.loc 1 1591 1
	mv	a0,a5
	ld	ra,72(sp)
	.cfi_restore 1
	ld	s0,64(sp)
	.cfi_restore 8
	.cfi_def_cfa 2, 80
	addi	sp,sp,80
	.cfi_def_cfa_offset 0
	jr	ra
	.cfi_endproc
.LFE21:
	.size	BmExpandLoadFiles, .-BmExpandLoadFiles
	.section	.text.EfiBootManagerGetLoadOptionBuffer,"ax",@progbits
	.align	1
	.globl	EfiBootManagerGetLoadOptionBuffer
	.type	EfiBootManagerGetLoadOptionBuffer, @function
EfiBootManagerGetLoadOptionBuffer:
.LFB22:
	.loc 1 1612 1
	.cfi_startproc
	addi	sp,sp,-48
	.cfi_def_cfa_offset 48
	sd	ra,40(sp)
	sd	s0,32(sp)
	.cfi_offset 1, -8
	.cfi_offset 8, -16
	addi	s0,sp,48
	.cfi_def_cfa 8, 0
	sd	a0,-24(s0)
	sd	a1,-32(s0)
	sd	a2,-40(s0)
	.loc 1 1613 13
	ld	a5,-32(s0)
	sd	zero,0(a5)
	.loc 1 1615 3
	li	a1,0
	ld	a0,-24(s0)
	call	EfiBootManagerConnectDevicePath@plt
	.loc 1 1616 10
	ld	a3,-40(s0)
	ld	a2,-32(s0)
	ld	a1,-24(s0)
	li	a0,4
	call	BmGetNextLoadOptionBuffer@plt
	mv	a5,a0
	.loc 1 1617 1
	mv	a0,a5
	ld	ra,40(sp)
	.cfi_restore 1
	ld	s0,32(sp)
	.cfi_restore 8
	.cfi_def_cfa 2, 48
	addi	sp,sp,48
	.cfi_def_cfa_offset 0
	jr	ra
	.cfi_endproc
.LFE22:
	.size	EfiBootManagerGetLoadOptionBuffer, .-EfiBootManagerGetLoadOptionBuffer
	.section	.text.BmGetNextLoadOptionDevicePath,"ax",@progbits
	.align	1
	.globl	BmGetNextLoadOptionDevicePath
	.type	BmGetNextLoadOptionDevicePath, @function
BmGetNextLoadOptionDevicePath:
.LFB23:
	.loc 1 1638 1
	.cfi_startproc
	addi	sp,sp,-64
	.cfi_def_cfa_offset 64
	sd	ra,56(sp)
	sd	s0,48(sp)
	.cfi_offset 1, -8
	.cfi_offset 8, -16
	addi	s0,sp,64
	.cfi_def_cfa 8, 0
	sd	a0,-56(s0)
	sd	a1,-64(s0)
	.loc 1 1648 8
	ld	a5,-56(s0)
	sd	a5,-40(s0)
	.loc 1 1649 15
	la	a5,gBS
	ld	a5,0(a5)
	ld	a5,184(a5)
	.loc 1 1649 12
	addi	a3,s0,-32
	addi	a4,s0,-40
	mv	a2,a3
	mv	a1,a4
	la	a0,gEfiSimpleFileSystemProtocolGuid
	jalr	a5
.LVL36:
	sd	a0,-24(s0)
	.loc 1 1650 34
	ld	a5,-24(s0)
	.loc 1 1650 6
	bge	a5,zero,.L234
	.loc 1 1651 17
	la	a5,gBS
	ld	a5,0(a5)
	ld	a5,184(a5)
	.loc 1 1651 14
	addi	a3,s0,-32
	addi	a4,s0,-40
	mv	a2,a3
	mv	a1,a4
	la	a0,gEfiBlockIoProtocolGuid
	jalr	a5
.LVL37:
	sd	a0,-24(s0)
.L234:
	.loc 1 1654 7
	ld	a5,-24(s0)
	.loc 1 1654 6
	blt	a5,zero,.L235
	.loc 1 1654 64 discriminator 1
	ld	a5,-40(s0)
	mv	a0,a5
	call	IsDevicePathEnd@plt
	mv	a5,a0
	.loc 1 1654 61 discriminator 2
	beq	a5,zero,.L235
	.loc 1 1655 12
	ld	a1,-64(s0)
	ld	a0,-56(s0)
	call	BmExpandMediaDevicePath
	mv	a5,a0
	j	.L250
.L235:
	.loc 1 1661 8
	ld	a0,-56(s0)
	call	DevicePathType@plt
	mv	a5,a0
	.loc 1 1661 6 discriminator 1
	mv	a4,a5
	li	a5,4
	bne	a4,a5,.L237
	.loc 1 1662 8
	ld	a0,-56(s0)
	call	DevicePathSubType@plt
	mv	a5,a0
	.loc 1 1661 43 discriminator 2
	mv	a4,a5
	li	a5,1
	bne	a4,a5,.L237
	.loc 1 1667 8
	ld	a5,-64(s0)
	bne	a5,zero,.L238
	.loc 1 1668 14
	ld	a0,-56(s0)
	call	BmExpandPartitionDevicePath
	mv	a5,a0
	j	.L250
.L238:
	.loc 1 1670 14
	li	a5,0
	j	.L250
.L237:
	.loc 1 1672 15
	ld	a0,-56(s0)
	call	DevicePathType@plt
	mv	a5,a0
	.loc 1 1672 13 discriminator 1
	mv	a4,a5
	li	a5,4
	bne	a4,a5,.L239
	.loc 1 1673 15
	ld	a0,-56(s0)
	call	DevicePathSubType@plt
	mv	a5,a0
	.loc 1 1672 50 discriminator 2
	mv	a4,a5
	li	a5,4
	bne	a4,a5,.L239
	.loc 1 1678 12
	ld	a1,-64(s0)
	ld	a0,-56(s0)
	call	BmExpandFileDevicePath
	mv	a5,a0
	j	.L250
.L239:
	.loc 1 1679 15
	ld	a0,-56(s0)
	call	DevicePathType@plt
	mv	a5,a0
	.loc 1 1679 13 discriminator 1
	mv	a4,a5
	li	a5,3
	bne	a4,a5,.L240
	.loc 1 1680 15
	ld	a0,-56(s0)
	call	DevicePathSubType@plt
	mv	a5,a0
	.loc 1 1679 50 discriminator 2
	mv	a4,a5
	li	a5,24
	bne	a4,a5,.L240
	.loc 1 1685 12
	ld	a1,-64(s0)
	ld	a0,-56(s0)
	call	BmExpandUriDevicePath
	mv	a5,a0
	j	.L250
.L240:
	.loc 1 1687 10
	ld	a5,-56(s0)
	sd	a5,-40(s0)
	.loc 1 1688 17
	la	a5,gBS
	ld	a5,0(a5)
	ld	a5,184(a5)
	.loc 1 1688 14
	addi	a3,s0,-32
	addi	a4,s0,-40
	mv	a2,a3
	mv	a1,a4
	la	a0,gEfiUsbIoProtocolGuid
	jalr	a5
.LVL38:
	sd	a0,-24(s0)
	.loc 1 1689 36
	ld	a5,-24(s0)
	.loc 1 1689 8
	bge	a5,zero,.L241
	.loc 1 1695 17
	ld	a5,-56(s0)
	sd	a5,-40(s0)
	.loc 1 1695 7
	j	.L242
.L245:
	.loc 1 1696 14
	ld	a5,-40(s0)
	mv	a0,a5
	call	DevicePathType@plt
	mv	a5,a0
	.loc 1 1696 12 discriminator 1
	mv	a4,a5
	li	a5,3
	bne	a4,a5,.L243
	.loc 1 1697 15
	ld	a5,-40(s0)
	mv	a0,a5
	call	DevicePathSubType@plt
	mv	a5,a0
	.loc 1 1696 45 discriminator 2
	mv	a4,a5
	li	a5,15
	beq	a4,a5,.L244
	.loc 1 1697 53
	ld	a5,-40(s0)
	mv	a0,a5
	call	DevicePathSubType@plt
	mv	a5,a0
	.loc 1 1697 49 discriminator 2
	mv	a4,a5
	li	a5,16
	beq	a4,a5,.L244
.L243:
	.loc 1 1695 61
	ld	a5,-40(s0)
	mv	a0,a5
	call	NextDevicePathNode@plt
	mv	a5,a0
	.loc 1 1695 59 discriminator 2
	sd	a5,-40(s0)
.L242:
	.loc 1 1695 30 discriminator 3
	ld	a5,-40(s0)
	mv	a0,a5
	call	IsDevicePathEnd@plt
	mv	a5,a0
	.loc 1 1695 29 discriminator 4
	beq	a5,zero,.L245
.L244:
	.loc 1 1706 12
	ld	a5,-40(s0)
	mv	a0,a5
	call	IsDevicePathEnd@plt
	mv	a5,a0
	.loc 1 1706 10 discriminator 1
	bne	a5,zero,.L241
	.loc 1 1707 22
	ld	a5,-40(s0)
	.loc 1 1707 12
	ld	a4,-56(s0)
	bne	a4,a5,.L246
	.loc 1 1713 11
	ld	a0,-56(s0)
	call	BmConnectUsbShortFormDevicePath@plt
.L246:
	.loc 1 1716 16
	ld	a5,-40(s0)
	mv	a2,a5
	ld	a1,-64(s0)
	ld	a0,-56(s0)
	call	BmExpandUsbDevicePath
	mv	a5,a0
	j	.L250
.L241:
	.loc 1 1725 6
	ld	a5,-64(s0)
	beq	a5,zero,.L247
	.loc 1 1726 12
	li	a5,0
	j	.L250
.L247:
	.loc 1 1732 7
	ld	a0,-56(s0)
	call	BmIsFvFilePath
	mv	a5,a0
	.loc 1 1732 6 discriminator 1
	beq	a5,zero,.L248
	.loc 1 1733 12
	ld	a0,-56(s0)
	call	BmAdjustFvFilePath
	mv	a5,a0
	j	.L250
.L248:
	.loc 1 1739 8
	ld	a5,-56(s0)
	sd	a5,-40(s0)
	.loc 1 1740 15
	la	a5,gBS
	ld	a5,0(a5)
	ld	a5,184(a5)
	.loc 1 1740 12
	addi	a3,s0,-32
	addi	a4,s0,-40
	mv	a2,a3
	mv	a1,a4
	la	a0,gEfiSimpleFileSystemProtocolGuid
	jalr	a5
.LVL39:
	sd	a0,-24(s0)
	.loc 1 1741 7
	ld	a5,-24(s0)
	.loc 1 1741 6
	blt	a5,zero,.L249
	.loc 1 1742 12
	ld	a0,-56(s0)
	call	DuplicateDevicePath@plt
	mv	a5,a0
	j	.L250
.L249:
	.loc 1 1748 10
	ld	a0,-56(s0)
	call	BmExpandLoadFiles
	mv	a5,a0
.L250:
	.loc 1 1749 1
	mv	a0,a5
	ld	ra,56(sp)
	.cfi_restore 1
	ld	s0,48(sp)
	.cfi_restore 8
	.cfi_def_cfa 2, 64
	addi	sp,sp,64
	.cfi_def_cfa_offset 0
	jr	ra
	.cfi_endproc
.LFE23:
	.size	BmGetNextLoadOptionDevicePath, .-BmGetNextLoadOptionDevicePath
	.section	.text.BmIsBootManagerMenuFilePath,"ax",@progbits
	.align	1
	.globl	BmIsBootManagerMenuFilePath
	.type	BmIsBootManagerMenuFilePath, @function
BmIsBootManagerMenuFilePath:
.LFB24:
	.loc 1 1763 1
	.cfi_startproc
	addi	sp,sp,-64
	.cfi_def_cfa_offset 64
	sd	ra,56(sp)
	sd	s0,48(sp)
	.cfi_offset 1, -8
	.cfi_offset 8, -16
	addi	s0,sp,64
	.cfi_def_cfa 8, 0
	sd	a0,-56(s0)
	.loc 1 1768 15
	la	a5,gBS
	ld	a5,0(a5)
	ld	a5,184(a5)
	.loc 1 1768 12
	addi	a3,s0,-40
	addi	a4,s0,-56
	mv	a2,a3
	mv	a1,a4
	la	a0,gEfiFirmwareVolume2ProtocolGuid
	jalr	a5
.LVL40:
	sd	a0,-24(s0)
	.loc 1 1769 7
	ld	a5,-24(s0)
	.loc 1 1769 6
	blt	a5,zero,.L252
	.loc 1 1770 16
	ld	a5,-56(s0)
	mv	a0,a5
	call	EfiGetNameGuidFromFwVolDevicePathNode@plt
	sd	a0,-32(s0)
	.loc 1 1771 8
	ld	a5,-32(s0)
	beq	a5,zero,.L252
	.loc 1 1772 14
	la	a1,_gPcd_FixedAtBuild_PcdBootManagerMenuFile
	ld	a0,-32(s0)
	call	CompareGuid@plt
	mv	a5,a0
	j	.L254
.L252:
	.loc 1 1776 10
	li	a5,0
.L254:
	.loc 1 1777 1
	mv	a0,a5
	ld	ra,56(sp)
	.cfi_restore 1
	ld	s0,48(sp)
	.cfi_restore 8
	.cfi_def_cfa 2, 64
	addi	sp,sp,64
	.cfi_def_cfa_offset 0
	jr	ra
	.cfi_endproc
.LFE24:
	.size	BmIsBootManagerMenuFilePath, .-BmIsBootManagerMenuFilePath
	.section	.text.BmReportLoadFailure,"ax",@progbits
	.align	1
	.globl	BmReportLoadFailure
	.type	BmReportLoadFailure, @function
BmReportLoadFailure:
.LFB25:
	.loc 1 1798 1
	.cfi_startproc
	addi	sp,sp,-64
	.cfi_def_cfa_offset 64
	sd	ra,56(sp)
	sd	s0,48(sp)
	.cfi_offset 1, -8
	.cfi_offset 8, -16
	addi	s0,sp,64
	.cfi_def_cfa 8, 0
	mv	a5,a0
	sd	a1,-64(s0)
	sw	a5,-52(s0)
	.loc 1 1801 8
	call	ReportErrorCodeEnabled@plt
	mv	a5,a0
	.loc 1 1801 6 discriminator 1
	beq	a5,zero,.L260
	.loc 1 1810 3
	addi	a5,s0,-48
	li	a1,32
	mv	a0,a5
	call	ZeroMem@plt
	.loc 1 1811 29
	ld	a5,-64(s0)
	sd	a5,-24(s0)
	.loc 1 1813 4
	call	ReportProgressCodeEnabled@plt
	.loc 1 1813 298 discriminator 3
	call	ReportErrorCodeEnabled@plt
	mv	a5,a0
	.loc 1 1813 586 discriminator 5
	beq	a5,zero,.L258
	.loc 1 1813 458 discriminator 8
	lw	a5,-52(s0)
	mv	a4,a5
	li	a5,50659328
	or	a5,a4,a5
	sext.w	a1,a5
	.loc 1 1813 524 discriminator 8
	addi	a5,s0,-48
	addi	a5,a5,20
	.loc 1 1813 386 discriminator 8
	li	a6,12
	li	a4,0
	li	a3,0
	li	a2,0
	li	a0,1073741824
	addi	a0,a0,2
	call	ReportStatusCodeEx@plt
	.loc 1 1813 295
	j	.L255
.L258:
	.loc 1 1813 589 discriminator 9
	call	ReportDebugCodeEnabled@plt
	j	.L255
.L260:
	.loc 1 1802 5 discriminator 1
	nop
.L255:
	.loc 1 1822 1
	ld	ra,56(sp)
	.cfi_restore 1
	ld	s0,48(sp)
	.cfi_restore 8
	.cfi_def_cfa 2, 64
	addi	sp,sp,64
	.cfi_def_cfa_offset 0
	jr	ra
	.cfi_endproc
.LFE25:
	.size	BmReportLoadFailure, .-BmReportLoadFailure
	.section	.rodata
	.align	3
.LC4:
	.string	"B"
	.string	"o"
	.string	"o"
	.string	"t"
	.string	"C"
	.string	"u"
	.string	"r"
	.string	"r"
	.string	"e"
	.string	"n"
	.string	"t"
	.zero	2
	.align	3
.LC5:
	.string	"BdsAttempt"
	.section	.text.EfiBootManagerBoot,"ax",@progbits
	.align	1
	.globl	EfiBootManagerBoot
	.type	EfiBootManagerBoot, @function
EfiBootManagerBoot:
.LFB26:
	.loc 1 1849 1
	.cfi_startproc
	addi	sp,sp,-128
	.cfi_def_cfa_offset 128
	sd	ra,120(sp)
	sd	s0,112(sp)
	.cfi_offset 1, -8
	.cfi_offset 8, -16
	addi	s0,sp,128
	.cfi_def_cfa 8, 0
	sd	a0,-120(s0)
	.loc 1 1863 6
	ld	a5,-120(s0)
	beq	a5,zero,.L296
	.loc 1 1867 18
	ld	a5,-120(s0)
	ld	a5,24(a5)
	.loc 1 1867 6
	beq	a5,zero,.L264
	.loc 1 1867 60 discriminator 1
	ld	a5,-120(s0)
	lw	a4,8(a5)
	.loc 1 1867 46 discriminator 1
	li	a5,2
	beq	a4,a5,.L265
.L264:
	.loc 1 1868 24
	ld	a5,-120(s0)
	li	a4,-1
	slli	a4,a4,63
	addi	a4,a4,2
	sd	a4,64(a5)
	.loc 1 1869 5
	j	.L261
.L265:
	.loc 1 1875 18
	ld	a0,-120(s0)
	call	BmFindBootOptionInVariable
	sd	a0,-32(s0)
	.loc 1 1876 6
	ld	a4,-32(s0)
	li	a5,65536
	bne	a4,a5,.L266
	.loc 1 1877 14
	addi	a5,s0,-74
	mv	a1,a5
	li	a0,2
	call	BmGetFreeOptionNumber@plt
	sd	a0,-40(s0)
	.loc 1 1878 9
	ld	a5,-40(s0)
	.loc 1 1878 8
	blt	a5,zero,.L267
	.loc 1 1882 20
	lhu	a5,-74(s0)
	sd	a5,-32(s0)
	.loc 1 1883 28
	ld	a5,-120(s0)
	ld	a5,0(a5)
	sd	a5,-48(s0)
	.loc 1 1884 32
	ld	a5,-120(s0)
	ld	a4,-32(s0)
	sd	a4,0(a5)
	.loc 1 1885 16
	ld	a0,-120(s0)
	call	EfiBootManagerLoadOptionToVariable@plt
	sd	a0,-40(s0)
	.loc 1 1886 32
	ld	a5,-120(s0)
	ld	a4,-48(s0)
	sd	a4,0(a5)
.L267:
	.loc 1 1889 36
	ld	a5,-40(s0)
	.loc 1 1889 8
	bge	a5,zero,.L266
	.loc 1 1891 26
	ld	a5,-120(s0)
	ld	a4,-40(s0)
	sd	a4,64(a5)
	.loc 1 1892 7
	j	.L261
.L266:
	.loc 1 1899 12
	ld	a5,-32(s0)
	slli	a5,a5,48
	srli	a5,a5,48
	.loc 1 1899 10
	sh	a5,-74(s0)
	.loc 1 1900 3
	addi	a5,s0,-74
	mv	a4,a5
	li	a3,2
	li	a2,6
	la	a1,gEfiGlobalVariableGuid
	lla	a0,.LC4
	call	BmSetVariableAndReportStatusCodeOnError@plt
	.loc 1 1912 7
	ld	a5,-120(s0)
	ld	a5,24(a5)
	mv	a0,a5
	call	BmIsBootManagerMenuFilePath
	mv	a5,a0
	.loc 1 1912 6 discriminator 1
	beq	a5,zero,.L268
	.loc 1 1914 5
	li	a1,0
	li	a0,0
	call	BmStopHotkeyService@plt
	j	.L269
.L268:
	.loc 1 1916 5
	call	EfiSignalEventReadyToBoot@plt
	.loc 1 1920 6
	call	ReportProgressCodeEnabled@plt
	mv	a5,a0
	.loc 1 1920 163 discriminator 1
	beq	a5,zero,.L270
	.loc 1 1920 82 discriminator 4
	li	a5,50663424
	addi	a1,a5,1
	li	a0,1
	call	ReportStatusCode@plt
	.loc 1 1920 163
	j	.L271
.L270:
	.loc 1 1920 166 discriminator 5
	call	ReportErrorCodeEnabled@plt
	.loc 1 1920 323 discriminator 9
	call	ReportDebugCodeEnabled@plt
.L271:
	.loc 1 1924 5
	li	a0,0
	call	BmRepairAllControllers@plt
.L269:
	.loc 1 1927 12
	call	PerformanceMeasurementEnabled@plt
	mv	a5,a0
	.loc 1 1927 11 discriminator 1
	beq	a5,zero,.L272
	.loc 1 1927 48 discriminator 2
	la	a5,gImageHandle
	ld	a5,0(a5)
	ld	a4,-32(s0)
	sext.w	a4,a4
	li	a3,0
	li	a2,0
	lla	a1,.LC5
	mv	a0,a5
	call	StartPerformanceMeasurementEx@plt
.L272:
	.loc 1 1934 26
	ld	a5,-120(s0)
	lw	a5,12(a5)
	.loc 1 1934 39
	mv	a4,a5
	li	a5,8192
	addi	a5,a5,-256
	and	a5,a4,a5
	sext.w	a5,a5
	.loc 1 1934 5
	seqz	a5,a5
	andi	a5,a5,0xff
	.loc 1 1933 3
	mv	a0,a5
	call	BmSetMemoryTypeInformationVariable@plt
	.loc 1 1940 12
	call	DebugCodeEnabled@plt
	.loc 1 1949 15
	sd	zero,-64(s0)
	.loc 1 1950 21
	sd	zero,-24(s0)
	.loc 1 1951 33
	ld	a5,-120(s0)
	ld	a5,24(a5)
	.loc 1 1951 7
	mv	a0,a5
	call	DevicePathType@plt
	mv	a5,a0
	.loc 1 1951 6 discriminator 1
	mv	a4,a5
	li	a5,5
	beq	a4,a5,.L274
	.loc 1 1952 12
	li	a5,-1
	slli	a5,a5,63
	addi	a5,a5,14
	sd	a5,-40(s0)
	.loc 1 1953 14
	sd	zero,-88(s0)
	.loc 1 1954 5
	ld	a5,-120(s0)
	ld	a5,24(a5)
	li	a1,0
	mv	a0,a5
	call	EfiBootManagerConnectDevicePath@plt
	.loc 1 1955 18
	ld	a5,-120(s0)
	ld	a5,24(a5)
	addi	a3,s0,-96
	addi	a4,s0,-88
	mv	a2,a4
	mv	a1,a5
	li	a0,2
	call	BmGetNextLoadOptionBuffer@plt
	sd	a0,-56(s0)
	.loc 1 1956 8
	ld	a5,-56(s0)
	beq	a5,zero,.L275
	.loc 1 1957 27
	ld	a5,-88(s0)
	mv	a0,a5
	call	BmGetRamDiskDevicePath
	sd	a0,-24(s0)
	.loc 1 1959 8
	call	ReportProgressCodeEnabled@plt
	mv	a5,a0
	.loc 1 1959 160 discriminator 1
	beq	a5,zero,.L276
	.loc 1 1959 84 discriminator 4
	la	a5,_gPcd_FixedAtBuild_PcdProgressCodeOsLoaderLoad
	lw	a5,0(a5)
	mv	a1,a5
	li	a0,1
	call	ReportStatusCode@plt
	.loc 1 1959 160
	j	.L277
.L276:
	.loc 1 1959 163 discriminator 5
	call	ReportErrorCodeEnabled@plt
	.loc 1 1959 315 discriminator 9
	call	ReportDebugCodeEnabled@plt
.L277:
	.loc 1 1960 19
	la	a5,gBS
	ld	a5,0(a5)
	ld	a6,200(a5)
	.loc 1 1960 16
	la	a5,gImageHandle
	ld	a1,0(a5)
	ld	a2,-88(s0)
	ld	a4,-96(s0)
	addi	a5,s0,-64
	ld	a3,-56(s0)
	li	a0,1
	jalr	a6
.LVL41:
	sd	a0,-40(s0)
.L275:
	.loc 1 1970 8
	ld	a5,-56(s0)
	beq	a5,zero,.L278
	.loc 1 1971 7
	ld	a0,-56(s0)
	call	FreePool@plt
.L278:
	.loc 1 1974 18
	ld	a5,-88(s0)
	.loc 1 1974 8
	beq	a5,zero,.L279
	.loc 1 1975 7
	ld	a5,-88(s0)
	mv	a0,a5
	call	FreePool@plt
.L279:
	.loc 1 1978 36
	ld	a5,-40(s0)
	.loc 1 1978 8
	bge	a5,zero,.L274
	.loc 1 1985 10
	ld	a4,-40(s0)
	li	a5,-1
	slli	a5,a5,63
	addi	a5,a5,26
	bne	a4,a5,.L280
	.loc 1 1986 12
	la	a5,gBS
	ld	a5,0(a5)
	ld	a5,224(a5)
	.loc 1 1986 9
	ld	a4,-64(s0)
	mv	a0,a4
	jalr	a5
.LVL42:
.L280:
	.loc 1 1992 10
	ld	a5,-24(s0)
	beq	a5,zero,.L281
	.loc 1 1993 9
	ld	a0,-24(s0)
	call	BmDestroyRamDisk
	.loc 1 1994 9
	ld	a0,-24(s0)
	call	FreePool@plt
.L281:
	.loc 1 2000 7
	ld	a1,-40(s0)
	li	a5,4096
	addi	a0,a5,2
	call	BmReportLoadFailure
	.loc 1 2001 26
	ld	a5,-120(s0)
	ld	a4,-40(s0)
	sd	a4,64(a5)
	.loc 1 2002 7
	j	.L261
.L274:
	.loc 1 2010 34
	ld	a5,-120(s0)
	ld	a5,24(a5)
	.loc 1 2010 8
	mv	a0,a5
	call	DevicePathType@plt
	mv	a5,a0
	.loc 1 2010 6 discriminator 1
	mv	a4,a5
	li	a5,5
	bne	a4,a5,.L282
	.loc 1 2010 88 discriminator 2
	ld	a5,-120(s0)
	ld	a5,24(a5)
	.loc 1 2010 59 discriminator 2
	mv	a0,a5
	call	DevicePathSubType@plt
	mv	a5,a0
	.loc 1 2010 55 discriminator 3
	mv	a4,a5
	li	a5,1
	bne	a4,a5,.L282
	.loc 1 2011 23
	lla	a5,mBmLegacyBoot
	ld	a5,0(a5)
	.loc 1 2011 8
	beq	a5,zero,.L283
	.loc 1 2015 16
	call	PerformanceMeasurementEnabled@plt
	mv	a5,a0
	.loc 1 2015 15 discriminator 1
	beq	a5,zero,.L284
	.loc 1 2015 95 discriminator 2
	addi	a5,s0,-112
	mv	a3,a5
	li	a2,0
	lla	a1,BmEndOfBdsPerfCode
	li	a0,16
	call	EfiCreateEventLegacyBootEx@plt
	sd	a0,-40(s0)
.L284:
	.loc 1 2028 7
	lla	a5,mBmLegacyBoot
	ld	a5,0(a5)
	ld	a0,-120(s0)
	jalr	a5
.LVL43:
	j	.L285
.L283:
	.loc 1 2030 26
	ld	a5,-120(s0)
	li	a4,-1
	slli	a4,a4,63
	addi	a4,a4,3
	sd	a4,64(a5)
.L285:
	.loc 1 2033 14
	call	PerformanceMeasurementEnabled@plt
	mv	a5,a0
	.loc 1 2033 13 discriminator 1
	beq	a5,zero,.L297
	.loc 1 2033 50 discriminator 2
	la	a5,gImageHandle
	ld	a5,0(a5)
	ld	a4,-32(s0)
	sext.w	a4,a4
	li	a3,0
	li	a2,0
	lla	a1,.LC5
	mv	a0,a5
	call	EndPerformanceMeasurementEx@plt
	.loc 1 2034 5
	j	.L297
.L282:
	.loc 1 2040 15
	la	a5,gBS
	ld	a5,0(a5)
	ld	a5,152(a5)
	.loc 1 2040 12
	ld	a4,-64(s0)
	addi	a3,s0,-72
	mv	a2,a3
	la	a1,gEfiLoadedImageProtocolGuid
	mv	a0,a4
	jalr	a5
.LVL44:
	sd	a0,-40(s0)
	.loc 1 2043 8
	ld	a0,-120(s0)
	call	BmIsAutoCreateBootOption
	mv	a5,a0
	.loc 1 2043 6 discriminator 1
	bne	a5,zero,.L287
	.loc 1 2044 14
	ld	a5,-72(s0)
	.loc 1 2044 44
	ld	a4,-120(s0)
	lw	a4,40(a4)
	.loc 1 2044 32
	sw	a4,48(a5)
	.loc 1 2045 14
	ld	a5,-72(s0)
	.loc 1 2045 40
	ld	a4,-120(s0)
	ld	a4,32(a4)
	.loc 1 2045 28
	sd	a4,56(a5)
.L287:
	.loc 1 2051 12
	ld	a5,-72(s0)
	.loc 1 2051 27
	sd	zero,8(a5)
	.loc 1 2056 6
	la	a5,gBS
	ld	a5,0(a5)
	ld	a5,256(a5)
	.loc 1 2056 3
	li	a3,0
	li	a2,0
	li	a1,0
	li	a0,300
	jalr	a5
.LVL45:
	.loc 1 2061 12
	call	PerformanceMeasurementEnabled@plt
	mv	a5,a0
	.loc 1 2061 11 discriminator 1
	beq	a5,zero,.L288
	.loc 1 2061 82 discriminator 2
	li	a1,0
	li	a0,0
	call	BmEndOfBdsPerfCode
.L288:
	.loc 1 2065 4
	call	ReportProgressCodeEnabled@plt
	mv	a5,a0
	.loc 1 2065 157 discriminator 1
	beq	a5,zero,.L289
	.loc 1 2065 80 discriminator 4
	la	a5,_gPcd_FixedAtBuild_PcdProgressCodeOsLoaderStart
	lw	a5,0(a5)
	mv	a1,a5
	li	a0,1
	call	ReportStatusCode@plt
	.loc 1 2065 157
	j	.L290
.L289:
	.loc 1 2065 160 discriminator 5
	call	ReportErrorCodeEnabled@plt
	.loc 1 2065 313 discriminator 9
	call	ReportDebugCodeEnabled@plt
.L290:
	.loc 1 2067 15
	la	a5,gBS
	ld	a5,0(a5)
	ld	a5,208(a5)
	.loc 1 2067 12
	ld	a3,-64(s0)
	ld	a4,-120(s0)
	addi	a1,a4,80
	ld	a4,-120(s0)
	addi	a4,a4,72
	mv	a2,a4
	mv	a0,a3
	jalr	a5
.LVL46:
	sd	a0,-40(s0)
	.loc 1 2069 22
	ld	a5,-120(s0)
	ld	a4,-40(s0)
	sd	a4,64(a5)
	.loc 1 2074 6
	ld	a5,-24(s0)
	beq	a5,zero,.L291
	.loc 1 2075 5
	ld	a0,-24(s0)
	call	BmDestroyRamDisk
	.loc 1 2076 5
	ld	a0,-24(s0)
	call	FreePool@plt
.L291:
	.loc 1 2079 34
	ld	a5,-40(s0)
	.loc 1 2079 6
	bge	a5,zero,.L292
	.loc 1 2083 5
	ld	a1,-40(s0)
	li	a5,4096
	addi	a0,a5,3
	call	BmReportLoadFailure
.L292:
	.loc 1 2086 12
	call	PerformanceMeasurementEnabled@plt
	mv	a5,a0
	.loc 1 2086 11 discriminator 1
	beq	a5,zero,.L293
	.loc 1 2086 48 discriminator 2
	la	a5,gImageHandle
	ld	a5,0(a5)
	ld	a4,-32(s0)
	sext.w	a4,a4
	li	a3,0
	li	a2,0
	lla	a1,.LC5
	mv	a0,a5
	call	EndPerformanceMeasurementEx@plt
.L293:
	.loc 1 2091 6
	la	a5,gBS
	ld	a5,0(a5)
	ld	a5,256(a5)
	.loc 1 2091 3
	li	a3,0
	li	a2,0
	li	a1,0
	li	a0,0
	jalr	a5
.LVL47:
	.loc 1 2096 12
	sd	zero,-104(s0)
	.loc 1 2097 15
	la	a5,gBS
	ld	a5,0(a5)
	ld	a5,320(a5)
	.loc 1 2097 12
	addi	a4,s0,-104
	mv	a2,a4
	li	a1,0
	la	a0,gEfiBootLogoProtocolGuid
	jalr	a5
.LVL48:
	sd	a0,-40(s0)
	.loc 1 2098 7
	ld	a5,-40(s0)
	.loc 1 2098 6
	blt	a5,zero,.L294
	.loc 1 2098 74 discriminator 1
	ld	a5,-104(s0)
	.loc 1 2098 61 discriminator 1
	beq	a5,zero,.L294
	.loc 1 2099 22
	ld	a5,-104(s0)
	ld	a6,0(a5)
	.loc 1 2099 14
	ld	a0,-104(s0)
	li	a5,0
	li	a4,0
	li	a3,0
	li	a2,0
	li	a1,0
	jalr	a6
.LVL49:
	sd	a0,-40(s0)
.L294:
	.loc 1 2106 15
	la	a5,gRT
	ld	a5,0(a5)
	ld	a5,88(a5)
	.loc 1 2106 12
	li	a4,0
	li	a3,0
	li	a2,0
	la	a1,gEfiGlobalVariableGuid
	lla	a0,.LC4
	jalr	a5
.LVL50:
	sd	a0,-40(s0)
	j	.L261
.L296:
	.loc 1 1864 5
	nop
	j	.L261
.L297:
	.loc 1 2034 5
	nop
.L261:
	.loc 1 2119 1
	ld	ra,120(sp)
	.cfi_restore 1
	ld	s0,112(sp)
	.cfi_restore 8
	.cfi_def_cfa 2, 128
	addi	sp,sp,128
	.cfi_def_cfa_offset 0
	jr	ra
	.cfi_endproc
.LFE26:
	.size	EfiBootManagerBoot, .-EfiBootManagerBoot
	.section	.text.BmMatchPartitionDevicePathNode,"ax",@progbits
	.align	1
	.globl	BmMatchPartitionDevicePathNode
	.type	BmMatchPartitionDevicePathNode, @function
BmMatchPartitionDevicePathNode:
.LFB27:
	.loc 1 2138 1
	.cfi_startproc
	addi	sp,sp,-48
	.cfi_def_cfa_offset 48
	sd	ra,40(sp)
	sd	s0,32(sp)
	.cfi_offset 1, -8
	.cfi_offset 8, -16
	addi	s0,sp,48
	.cfi_def_cfa 8, 0
	sd	a0,-40(s0)
	sd	a1,-48(s0)
	.loc 1 2141 6
	ld	a5,-40(s0)
	beq	a5,zero,.L299
	.loc 1 2141 43 discriminator 1
	ld	a5,-48(s0)
	bne	a5,zero,.L302
.L299:
	.loc 1 2142 12
	li	a5,0
	j	.L301
.L304:
	.loc 1 2149 10
	ld	a0,-40(s0)
	call	DevicePathType@plt
	mv	a5,a0
	.loc 1 2149 8 discriminator 1
	mv	a4,a5
	li	a5,4
	bne	a4,a5,.L303
	.loc 1 2150 10
	ld	a0,-40(s0)
	call	DevicePathSubType@plt
	mv	a5,a0
	.loc 1 2149 54 discriminator 2
	mv	a4,a5
	li	a5,1
	bne	a4,a5,.L303
	.loc 1 2156 12
	ld	a5,-40(s0)
	sd	a5,-24(s0)
	.loc 1 2162 16
	ld	a5,-24(s0)
	lbu	a4,4(a5)
	lbu	a3,5(a5)
	slli	a3,a3,8
	or	a4,a3,a4
	lbu	a3,6(a5)
	slli	a3,a3,16
	or	a4,a3,a4
	lbu	a5,7(a5)
	slli	a5,a5,24
	or	a5,a5,a4
	sext.w	a4,a5
	.loc 1 2162 56
	ld	a5,-48(s0)
	lbu	a3,4(a5)
	lbu	a2,5(a5)
	slli	a2,a2,8
	or	a3,a2,a3
	lbu	a2,6(a5)
	slli	a2,a2,16
	or	a3,a2,a3
	lbu	a5,7(a5)
	slli	a5,a5,24
	or	a5,a5,a3
	sext.w	a5,a5
	.loc 1 2162 10
	bne	a4,a5,.L303
	.loc 1 2163 16
	ld	a5,-24(s0)
	lbu	a4,40(a5)
	.loc 1 2163 48
	ld	a5,-48(s0)
	lbu	a5,40(a5)
	.loc 1 2162 75 discriminator 1
	bne	a4,a5,.L303
	.loc 1 2164 16
	ld	a5,-24(s0)
	lbu	a4,41(a5)
	.loc 1 2164 54
	ld	a5,-48(s0)
	lbu	a5,41(a5)
	.loc 1 2163 59
	bne	a4,a5,.L303
	.loc 1 2165 28
	ld	a5,-24(s0)
	addi	a4,a5,24
	.loc 1 2165 60
	ld	a5,-48(s0)
	addi	a5,a5,24
	.loc 1 2165 12
	li	a2,16
	mv	a1,a5
	mv	a0,a4
	call	CompareMem@plt
	mv	a5,a0
	.loc 1 2164 71
	bne	a5,zero,.L303
	.loc 1 2167 16
	li	a5,1
	j	.L301
.L303:
	.loc 1 2171 25
	ld	a0,-40(s0)
	call	NextDevicePathNode@plt
	sd	a0,-40(s0)
.L302:
	.loc 1 2148 11
	ld	a0,-40(s0)
	call	IsDevicePathEnd@plt
	mv	a5,a0
	.loc 1 2148 10 discriminator 1
	beq	a5,zero,.L304
	.loc 1 2174 10
	li	a5,0
.L301:
	.loc 1 2175 1
	mv	a0,a5
	ld	ra,40(sp)
	.cfi_restore 1
	ld	s0,32(sp)
	.cfi_restore 8
	.cfi_def_cfa 2, 48
	addi	sp,sp,48
	.cfi_def_cfa_offset 0
	jr	ra
	.cfi_endproc
.LFE27:
	.size	BmMatchPartitionDevicePathNode, .-BmMatchPartitionDevicePathNode
	.section	.text.BmEnumerateBootOptions,"ax",@progbits
	.align	1
	.globl	BmEnumerateBootOptions
	.type	BmEnumerateBootOptions, @function
BmEnumerateBootOptions:
.LFB28:
	.loc 1 2198 1
	.cfi_startproc
	addi	sp,sp,-112
	.cfi_def_cfa_offset 112
	sd	ra,104(sp)
	sd	s0,96(sp)
	sd	s1,88(sp)
	.cfi_offset 1, -8
	.cfi_offset 8, -16
	.cfi_offset 9, -24
	addi	s0,sp,112
	.cfi_def_cfa 8, 0
	sd	a0,-104(s0)
	.loc 1 2210 20
	ld	a5,-104(s0)
	sd	zero,0(a5)
	.loc 1 2211 15
	sd	zero,-40(s0)
	.loc 1 2216 6
	la	a5,gBS
	ld	a5,0(a5)
	ld	a5,312(a5)
	.loc 1 2216 3
	addi	a4,s0,-88
	addi	a3,s0,-80
	li	a2,0
	la	a1,gEfiBlockIoProtocolGuid
	li	a0,2
	jalr	a5
.LVL51:
	.loc 1 2224 18
	sd	zero,-48(s0)
	.loc 1 2224 3
	j	.L306
.L314:
	.loc 1 2225 16
	sd	zero,-56(s0)
	.loc 1 2225 5
	j	.L307
.L313:
	.loc 1 2226 19
	la	a5,gBS
	ld	a5,0(a5)
	ld	a5,152(a5)
	.loc 1 2227 30
	ld	a3,-88(s0)
	ld	a4,-56(s0)
	slli	a4,a4,3
	add	a4,a3,a4
	.loc 1 2226 16
	ld	a4,0(a4)
	addi	a3,s0,-96
	mv	a2,a3
	la	a1,gEfiBlockIoProtocolGuid
	mv	a0,a4
	jalr	a5
.LVL52:
	sd	a0,-72(s0)
	.loc 1 2231 38
	ld	a5,-72(s0)
	.loc 1 2231 10
	blt	a5,zero,.L327
	.loc 1 2238 16
	ld	a5,-96(s0)
	ld	a5,8(a5)
	.loc 1 2238 23
	lbu	a5,6(a5)
	.loc 1 2238 10
	bne	a5,zero,.L328
	.loc 1 2245 16
	ld	a5,-96(s0)
	ld	a5,8(a5)
	.loc 1 2245 23
	lbu	a5,4(a5)
	sext.w	a4,a5
	.loc 1 2245 81
	ld	a5,-48(s0)
	snez	a5,a5
	andi	a5,a5,0xff
	sext.w	a5,a5
	.loc 1 2245 10
	beq	a4,a5,.L329
	.loc 1 2252 17
	ld	a5,-96(s0)
	ld	a5,8(a5)
	.loc 1 2252 24
	lbu	a5,4(a5)
	.loc 1 2252 10
	mv	a4,a5
	li	a5,1
	bne	a4,a5,.L312
	.loc 1 2253 17
	ld	a5,-96(s0)
	ld	a5,8(a5)
	.loc 1 2253 24
	lbu	a5,5(a5)
	.loc 1 2252 63 discriminator 1
	beq	a5,zero,.L330
.L312:
	.loc 1 2258 50
	ld	a4,-88(s0)
	ld	a5,-56(s0)
	slli	a5,a5,3
	add	a5,a4,a5
	.loc 1 2258 21
	ld	a5,0(a5)
	mv	a0,a5
	call	BmGetBootDescription@plt
	sd	a0,-64(s0)
	.loc 1 2260 64
	ld	a5,-104(s0)
	ld	a4,0(a5)
	.loc 1 2260 61
	li	a5,88
	mul	a3,a4,a5
	.loc 1 2261 64
	ld	a5,-104(s0)
	ld	a5,0(a5)
	.loc 1 2259 21
	addi	a4,a5,1
	li	a5,88
	mul	a5,a4,a5
	ld	a2,-40(s0)
	mv	a1,a5
	mv	a0,a3
	call	ReallocatePool@plt
	sd	a0,-40(s0)
	.loc 1 2267 32
	ld	a5,-104(s0)
	ld	a5,0(a5)
	.loc 1 2267 49
	addi	a3,a5,1
	ld	a4,-104(s0)
	sd	a3,0(a4)
	.loc 1 2267 30
	li	a4,88
	mul	a5,a5,a4
	.loc 1 2266 16
	ld	a4,-40(s0)
	add	s1,a4,a5
	.loc 1 2272 47
	ld	a4,-88(s0)
	ld	a5,-56(s0)
	slli	a5,a5,3
	add	a5,a4,a5
	.loc 1 2266 16
	ld	a5,0(a5)
	mv	a0,a5
	call	DevicePathFromHandle@plt
	mv	a5,a0
	.loc 1 2266 16 is_stmt 0 discriminator 1
	li	a7,0
	li	a6,0
	ld	a4,-64(s0)
	li	a3,1
	li	a2,2
	li	a1,65536
	mv	a0,s1
	call	EfiBootManagerInitializeLoadOption@plt
	sd	a0,-72(s0)
	.loc 1 2278 7 is_stmt 1
	ld	a0,-64(s0)
	call	FreePool@plt
	j	.L309
.L327:
	.loc 1 2232 9
	nop
	j	.L309
.L328:
	.loc 1 2239 9
	nop
	j	.L309
.L329:
	.loc 1 2246 9
	nop
	j	.L309
.L330:
	.loc 1 2255 9
	nop
.L309:
	.loc 1 2225 47 discriminator 2
	ld	a5,-56(s0)
	addi	a5,a5,1
	sd	a5,-56(s0)
.L307:
	.loc 1 2225 27 discriminator 1
	ld	a5,-80(s0)
	ld	a4,-56(s0)
	bltu	a4,a5,.L313
	.loc 1 2224 47 discriminator 2
	ld	a5,-48(s0)
	addi	a5,a5,1
	sd	a5,-48(s0)
.L306:
	.loc 1 2224 33 discriminator 1
	ld	a4,-48(s0)
	li	a5,1
	bleu	a4,a5,.L314
	.loc 1 2282 19
	ld	a5,-80(s0)
	.loc 1 2282 6
	beq	a5,zero,.L315
	.loc 1 2283 5
	ld	a5,-88(s0)
	mv	a0,a5
	call	FreePool@plt
.L315:
	.loc 1 2289 6
	la	a5,gBS
	ld	a5,0(a5)
	ld	a5,312(a5)
	.loc 1 2289 3
	addi	a4,s0,-88
	addi	a3,s0,-80
	li	a2,0
	la	a1,gEfiSimpleFileSystemProtocolGuid
	li	a0,2
	jalr	a5
.LVL53:
	.loc 1 2296 14
	sd	zero,-56(s0)
	.loc 1 2296 3
	j	.L316
.L319:
	.loc 1 2297 17
	la	a5,gBS
	ld	a5,0(a5)
	ld	a5,152(a5)
	.loc 1 2298 28
	ld	a3,-88(s0)
	ld	a4,-56(s0)
	slli	a4,a4,3
	add	a4,a3,a4
	.loc 1 2297 14
	ld	a4,0(a4)
	addi	a3,s0,-96
	mv	a2,a3
	la	a1,gEfiBlockIoProtocolGuid
	mv	a0,a4
	jalr	a5
.LVL54:
	sd	a0,-72(s0)
	.loc 1 2302 9
	ld	a5,-72(s0)
	.loc 1 2302 8
	bge	a5,zero,.L331
	.loc 1 2309 48
	ld	a4,-88(s0)
	ld	a5,-56(s0)
	slli	a5,a5,3
	add	a5,a4,a5
	.loc 1 2309 19
	ld	a5,0(a5)
	mv	a0,a5
	call	BmGetBootDescription@plt
	sd	a0,-64(s0)
	.loc 1 2311 62
	ld	a5,-104(s0)
	ld	a4,0(a5)
	.loc 1 2311 59
	li	a5,88
	mul	a3,a4,a5
	.loc 1 2312 62
	ld	a5,-104(s0)
	ld	a5,0(a5)
	.loc 1 2310 19
	addi	a4,a5,1
	li	a5,88
	mul	a5,a4,a5
	ld	a2,-40(s0)
	mv	a1,a5
	mv	a0,a3
	call	ReallocatePool@plt
	sd	a0,-40(s0)
	.loc 1 2318 30
	ld	a5,-104(s0)
	ld	a5,0(a5)
	.loc 1 2318 47
	addi	a3,a5,1
	ld	a4,-104(s0)
	sd	a3,0(a4)
	.loc 1 2318 28
	li	a4,88
	mul	a5,a5,a4
	.loc 1 2317 14
	ld	a4,-40(s0)
	add	s1,a4,a5
	.loc 1 2323 45
	ld	a4,-88(s0)
	ld	a5,-56(s0)
	slli	a5,a5,3
	add	a5,a4,a5
	.loc 1 2317 14
	ld	a5,0(a5)
	mv	a0,a5
	call	DevicePathFromHandle@plt
	mv	a5,a0
	.loc 1 2317 14 is_stmt 0 discriminator 1
	li	a7,0
	li	a6,0
	ld	a4,-64(s0)
	li	a3,1
	li	a2,2
	li	a1,65536
	mv	a0,s1
	call	EfiBootManagerInitializeLoadOption@plt
	sd	a0,-72(s0)
	.loc 1 2328 5 is_stmt 1
	ld	a0,-64(s0)
	call	FreePool@plt
	j	.L318
.L331:
	.loc 1 2306 7
	nop
.L318:
	.loc 1 2296 45 discriminator 2
	ld	a5,-56(s0)
	addi	a5,a5,1
	sd	a5,-56(s0)
.L316:
	.loc 1 2296 25 discriminator 1
	ld	a5,-80(s0)
	ld	a4,-56(s0)
	bltu	a4,a5,.L319
	.loc 1 2331 19
	ld	a5,-80(s0)
	.loc 1 2331 6
	beq	a5,zero,.L320
	.loc 1 2332 5
	ld	a5,-88(s0)
	mv	a0,a5
	call	FreePool@plt
.L320:
	.loc 1 2338 6
	la	a5,gBS
	ld	a5,0(a5)
	ld	a5,312(a5)
	.loc 1 2338 3
	addi	a4,s0,-88
	addi	a3,s0,-80
	li	a2,0
	la	a1,gEfiLoadFileProtocolGuid
	li	a0,2
	jalr	a5
.LVL55:
	.loc 1 2345 14
	sd	zero,-56(s0)
	.loc 1 2345 3
	j	.L321
.L324:
	.loc 1 2349 67
	ld	a4,-88(s0)
	ld	a5,-56(s0)
	slli	a5,a5,3
	add	a5,a4,a5
	.loc 1 2349 9
	ld	a5,0(a5)
	mv	a0,a5
	call	DevicePathFromHandle@plt
	mv	a5,a0
	.loc 1 2349 9 is_stmt 0 discriminator 1
	mv	a0,a5
	call	BmIsBootManagerMenuFilePath
	mv	a5,a0
	.loc 1 2349 8 is_stmt 1 discriminator 2
	bne	a5,zero,.L332
	.loc 1 2353 48
	ld	a4,-88(s0)
	ld	a5,-56(s0)
	slli	a5,a5,3
	add	a5,a4,a5
	.loc 1 2353 19
	ld	a5,0(a5)
	mv	a0,a5
	call	BmGetBootDescription@plt
	sd	a0,-64(s0)
	.loc 1 2355 62
	ld	a5,-104(s0)
	ld	a4,0(a5)
	.loc 1 2355 59
	li	a5,88
	mul	a3,a4,a5
	.loc 1 2356 62
	ld	a5,-104(s0)
	ld	a5,0(a5)
	.loc 1 2354 19
	addi	a4,a5,1
	li	a5,88
	mul	a5,a4,a5
	ld	a2,-40(s0)
	mv	a1,a5
	mv	a0,a3
	call	ReallocatePool@plt
	sd	a0,-40(s0)
	.loc 1 2362 30
	ld	a5,-104(s0)
	ld	a5,0(a5)
	.loc 1 2362 47
	addi	a3,a5,1
	ld	a4,-104(s0)
	sd	a3,0(a4)
	.loc 1 2362 28
	li	a4,88
	mul	a5,a5,a4
	.loc 1 2361 14
	ld	a4,-40(s0)
	add	s1,a4,a5
	.loc 1 2367 45
	ld	a4,-88(s0)
	ld	a5,-56(s0)
	slli	a5,a5,3
	add	a5,a4,a5
	.loc 1 2361 14
	ld	a5,0(a5)
	mv	a0,a5
	call	DevicePathFromHandle@plt
	mv	a5,a0
	.loc 1 2361 14 is_stmt 0 discriminator 1
	li	a7,0
	li	a6,0
	ld	a4,-64(s0)
	li	a3,1
	li	a2,2
	li	a1,65536
	mv	a0,s1
	call	EfiBootManagerInitializeLoadOption@plt
	sd	a0,-72(s0)
	.loc 1 2372 5 is_stmt 1
	ld	a0,-64(s0)
	call	FreePool@plt
	j	.L323
.L332:
	.loc 1 2350 7
	nop
.L323:
	.loc 1 2345 45 discriminator 2
	ld	a5,-56(s0)
	addi	a5,a5,1
	sd	a5,-56(s0)
.L321:
	.loc 1 2345 25 discriminator 1
	ld	a5,-80(s0)
	ld	a4,-56(s0)
	bltu	a4,a5,.L324
	.loc 1 2375 19
	ld	a5,-80(s0)
	.loc 1 2375 6
	beq	a5,zero,.L325
	.loc 1 2376 5
	ld	a5,-88(s0)
	mv	a0,a5
	call	FreePool@plt
.L325:
	.loc 1 2379 3
	ld	a5,-104(s0)
	ld	a5,0(a5)
	mv	a1,a5
	ld	a0,-40(s0)
	call	BmMakeBootOptionDescriptionUnique@plt
	.loc 1 2380 10
	ld	a5,-40(s0)
	.loc 1 2381 1
	mv	a0,a5
	ld	ra,104(sp)
	.cfi_restore 1
	ld	s0,96(sp)
	.cfi_restore 8
	.cfi_def_cfa 2, 112
	ld	s1,88(sp)
	.cfi_restore 9
	addi	sp,sp,112
	.cfi_def_cfa_offset 0
	jr	ra
	.cfi_endproc
.LFE28:
	.size	BmEnumerateBootOptions, .-BmEnumerateBootOptions
	.section	.text.EfiBootManagerRefreshAllBootOption,"ax",@progbits
	.align	1
	.globl	EfiBootManagerRefreshAllBootOption
	.type	EfiBootManagerRefreshAllBootOption, @function
EfiBootManagerRefreshAllBootOption:
.LFB29:
	.loc 1 2391 1
	.cfi_startproc
	addi	sp,sp,-112
	.cfi_def_cfa_offset 112
	sd	ra,104(sp)
	sd	s0,96(sp)
	sd	s1,88(sp)
	.cfi_offset 1, -8
	.cfi_offset 8, -16
	.cfi_offset 9, -24
	addi	s0,sp,112
	.cfi_def_cfa 8, 0
	.loc 1 2405 34
	lla	a5,mBmRefreshLegacyBootOption
	ld	a5,0(a5)
	.loc 1 2405 6
	beq	a5,zero,.L334
	.loc 1 2406 5
	lla	a5,mBmRefreshLegacyBootOption
	ld	a5,0(a5)
	jalr	a5
.LVL56:
.L334:
	.loc 1 2409 17
	addi	a5,s0,-80
	mv	a0,a5
	call	BmEnumerateBootOptions
	sd	a0,-40(s0)
	.loc 1 2414 14
	sd	zero,-48(s0)
	.loc 1 2414 3
	j	.L335
.L336:
	.loc 1 2415 16
	ld	a4,-48(s0)
	li	a5,88
	mul	a5,a4,a5
	ld	a4,-40(s0)
	add	s1,a4,a5
	.loc 1 2415 39
	lla	a1,mBmAutoCreateBootOptionGuid
	li	a0,16
	call	AllocateCopyPool@plt
	mv	a5,a0
	.loc 1 2415 37 discriminator 1
	sd	a5,32(s1)
	.loc 1 2416 16
	ld	a4,-48(s0)
	li	a5,88
	mul	a5,a4,a5
	ld	a4,-40(s0)
	add	a5,a4,a5
	.loc 1 2416 41
	li	a4,16
	sw	a4,40(a5)
	.loc 1 2414 49 discriminator 3
	ld	a5,-48(s0)
	addi	a5,a5,1
	sd	a5,-48(s0)
.L335:
	.loc 1 2414 25 discriminator 1
	ld	a5,-80(s0)
	ld	a4,-48(s0)
	bltu	a4,a5,.L336
	.loc 1 2422 15
	la	a5,gBS
	ld	a5,0(a5)
	ld	a5,320(a5)
	.loc 1 2422 12
	addi	a4,s0,-104
	mv	a2,a4
	li	a1,0
	la	a0,gEdkiiPlatformBootManagerProtocolGuid
	jalr	a5
.LVL57:
	sd	a0,-56(s0)
	.loc 1 2427 7
	ld	a5,-56(s0)
	.loc 1 2427 6
	blt	a5,zero,.L337
	.loc 1 2432 33
	ld	a5,-104(s0)
	ld	a5,8(a5)
	.loc 1 2432 14
	ld	a4,-80(s0)
	addi	a3,s0,-96
	addi	a2,s0,-88
	mv	a1,a4
	ld	a0,-40(s0)
	jalr	a5
.LVL58:
	sd	a0,-56(s0)
	.loc 1 2438 9
	ld	a5,-56(s0)
	.loc 1 2438 8
	blt	a5,zero,.L337
	.loc 1 2439 7
	ld	a5,-80(s0)
	mv	a1,a5
	ld	a0,-40(s0)
	call	EfiBootManagerFreeLoadOptions@plt
	.loc 1 2440 19
	ld	a5,-88(s0)
	sd	a5,-40(s0)
	.loc 1 2441 23
	ld	a5,-96(s0)
	sd	a5,-80(s0)
.L337:
	.loc 1 2445 19
	addi	a5,s0,-72
	li	a1,2
	mv	a0,a5
	call	EfiBootManagerGetLoadOptions@plt
	sd	a0,-64(s0)
	.loc 1 2450 14
	sd	zero,-48(s0)
	.loc 1 2450 3
	j	.L338
.L341:
	.loc 1 2451 40
	ld	a4,-48(s0)
	li	a5,88
	mul	a5,a4,a5
	ld	a4,-64(s0)
	add	a5,a4,a5
	.loc 1 2451 47
	ld	a5,24(a5)
	.loc 1 2451 11
	mv	a0,a5
	call	DevicePathType@plt
	mv	a5,a0
	.loc 1 2451 8 discriminator 1
	mv	a4,a5
	li	a5,5
	bne	a4,a5,.L339
	.loc 1 2452 43
	ld	a4,-48(s0)
	li	a5,88
	mul	a5,a4,a5
	ld	a4,-64(s0)
	add	a5,a4,a5
	.loc 1 2452 50
	ld	a5,24(a5)
	.loc 1 2452 11
	mv	a0,a5
	call	DevicePathSubType@plt
	mv	a5,a0
	.loc 1 2451 67 discriminator 2
	mv	a4,a5
	li	a5,1
	beq	a4,a5,.L340
.L339:
	.loc 1 2453 55
	ld	a4,-48(s0)
	li	a5,88
	mul	a5,a4,a5
	.loc 1 2453 15
	ld	a4,-64(s0)
	add	a5,a4,a5
	mv	a0,a5
	call	BmIsAutoCreateBootOption
	mv	a5,a0
	.loc 1 2453 12 discriminator 1
	beq	a5,zero,.L340
	.loc 1 2460 55
	ld	a4,-48(s0)
	li	a5,88
	mul	a5,a4,a5
	.loc 1 2460 41
	ld	a4,-64(s0)
	add	a5,a4,a5
	.loc 1 2460 11
	ld	a4,-80(s0)
	mv	a2,a4
	ld	a1,-40(s0)
	mv	a0,a5
	call	EfiBootManagerFindLoadOption@plt
	mv	a4,a0
	.loc 1 2460 10 discriminator 1
	li	a5,-1
	bne	a4,a5,.L340
	.loc 1 2461 71
	ld	a4,-48(s0)
	li	a5,88
	mul	a5,a4,a5
	ld	a4,-64(s0)
	add	a5,a4,a5
	.loc 1 2461 18
	ld	a5,0(a5)
	li	a1,2
	mv	a0,a5
	call	EfiBootManagerDeleteLoadOptionVariable@plt
	sd	a0,-56(s0)
.L340:
	.loc 1 2450 51 discriminator 2
	ld	a5,-48(s0)
	addi	a5,a5,1
	sd	a5,-48(s0)
.L338:
	.loc 1 2450 25 discriminator 1
	ld	a5,-72(s0)
	ld	a4,-48(s0)
	bltu	a4,a5,.L341
	.loc 1 2473 14
	sd	zero,-48(s0)
	.loc 1 2473 3
	j	.L342
.L344:
	.loc 1 2474 51
	ld	a4,-48(s0)
	li	a5,88
	mul	a5,a4,a5
	.loc 1 2474 39
	ld	a4,-40(s0)
	add	a5,a4,a5
	.loc 1 2474 9
	ld	a4,-72(s0)
	mv	a2,a4
	ld	a1,-64(s0)
	mv	a0,a5
	call	EfiBootManagerFindLoadOption@plt
	mv	a4,a0
	.loc 1 2474 8 discriminator 1
	li	a5,-1
	bne	a4,a5,.L343
	.loc 1 2475 56
	ld	a4,-48(s0)
	li	a5,88
	mul	a5,a4,a5
	.loc 1 2475 7
	ld	a4,-40(s0)
	add	a5,a4,a5
	li	a1,-1
	mv	a0,a5
	call	EfiBootManagerAddLoadOptionVariable@plt
.L343:
	.loc 1 2473 49 discriminator 2
	ld	a5,-48(s0)
	addi	a5,a5,1
	sd	a5,-48(s0)
.L342:
	.loc 1 2473 25 discriminator 1
	ld	a5,-80(s0)
	ld	a4,-48(s0)
	bltu	a4,a5,.L344
	.loc 1 2482 3
	ld	a5,-80(s0)
	mv	a1,a5
	ld	a0,-40(s0)
	call	EfiBootManagerFreeLoadOptions@plt
	.loc 1 2483 3
	ld	a5,-72(s0)
	mv	a1,a5
	ld	a0,-64(s0)
	call	EfiBootManagerFreeLoadOptions@plt
	.loc 1 2484 1
	nop
	ld	ra,104(sp)
	.cfi_restore 1
	ld	s0,96(sp)
	.cfi_restore 8
	.cfi_def_cfa 2, 112
	ld	s1,88(sp)
	.cfi_restore 9
	addi	sp,sp,112
	.cfi_def_cfa_offset 0
	jr	ra
	.cfi_endproc
.LFE29:
	.size	EfiBootManagerRefreshAllBootOption, .-EfiBootManagerRefreshAllBootOption
	.section	.rodata
	.align	3
.LC6:
	.string	"B"
	.string	"o"
	.string	"o"
	.string	"t"
	.string	" "
	.string	"M"
	.string	"a"
	.string	"n"
	.string	"a"
	.string	"g"
	.string	"e"
	.string	"r"
	.string	" "
	.string	"M"
	.string	"e"
	.string	"n"
	.string	"u"
	.zero	2
	.section	.text.BmRegisterBootManagerMenu,"ax",@progbits
	.align	1
	.globl	BmRegisterBootManagerMenu
	.type	BmRegisterBootManagerMenu, @function
BmRegisterBootManagerMenu:
.LFB30:
	.loc 1 2505 1
	.cfi_startproc
	addi	sp,sp,-112
	.cfi_def_cfa_offset 112
	sd	ra,104(sp)
	sd	s0,96(sp)
	.cfi_offset 1, -8
	.cfi_offset 8, -16
	addi	s0,sp,112
	.cfi_def_cfa 8, 0
	sd	a0,-104(s0)
	.loc 1 2514 14
	sd	zero,-64(s0)
	.loc 1 2515 15
	sd	zero,-48(s0)
	.loc 1 2519 6
	la	a5,gBS
	ld	a5,0(a5)
	ld	a5,312(a5)
	.loc 1 2519 3
	addi	a4,s0,-80
	addi	a3,s0,-72
	li	a2,0
	la	a1,gEfiLoadFileProtocolGuid
	li	a0,2
	jalr	a5
.LVL59:
	.loc 1 2526 14
	sd	zero,-24(s0)
	.loc 1 2526 3
	j	.L346
.L349:
	.loc 1 2527 67
	ld	a4,-80(s0)
	ld	a5,-24(s0)
	slli	a5,a5,3
	add	a5,a4,a5
	.loc 1 2527 9
	ld	a5,0(a5)
	mv	a0,a5
	call	DevicePathFromHandle@plt
	mv	a5,a0
	.loc 1 2527 9 is_stmt 0 discriminator 1
	mv	a0,a5
	call	BmIsBootManagerMenuFilePath
	mv	a5,a0
	.loc 1 2527 8 is_stmt 1 discriminator 2
	beq	a5,zero,.L347
	.loc 1 2528 70
	ld	a4,-80(s0)
	ld	a5,-24(s0)
	slli	a5,a5,3
	add	a5,a4,a5
	.loc 1 2528 41
	ld	a5,0(a5)
	mv	a0,a5
	call	DevicePathFromHandle@plt
	mv	a5,a0
	.loc 1 2528 20 discriminator 1
	mv	a0,a5
	call	DuplicateDevicePath@plt
	mv	a5,a0
	.loc 1 2528 18 discriminator 2
	sd	a5,-64(s0)
	.loc 1 2529 50
	ld	a4,-80(s0)
	ld	a5,-24(s0)
	slli	a5,a5,3
	add	a5,a4,a5
	.loc 1 2529 21
	ld	a5,0(a5)
	mv	a0,a5
	call	BmGetBootDescription@plt
	mv	a5,a0
	.loc 1 2529 19 discriminator 1
	sd	a5,-48(s0)
	.loc 1 2530 7
	j	.L348
.L347:
	.loc 1 2526 45 discriminator 2
	ld	a5,-24(s0)
	addi	a5,a5,1
	sd	a5,-24(s0)
.L346:
	.loc 1 2526 25 discriminator 1
	ld	a5,-72(s0)
	ld	a4,-24(s0)
	bltu	a4,a5,.L349
.L348:
	.loc 1 2534 19
	ld	a5,-72(s0)
	.loc 1 2534 6
	beq	a5,zero,.L350
	.loc 1 2535 5
	ld	a5,-80(s0)
	mv	a0,a5
	call	FreePool@plt
.L350:
	.loc 1 2538 18
	ld	a5,-64(s0)
	.loc 1 2538 6
	bne	a5,zero,.L351
	.loc 1 2539 14
	addi	a5,s0,-64
	mv	a3,a5
	li	a2,0
	li	a1,16
	la	a0,_gPcd_FixedAtBuild_PcdBootManagerMenuFile
	call	GetFileDevicePathFromAnyFv@plt
	sd	a0,-32(s0)
	.loc 1 2545 36
	ld	a5,-32(s0)
	.loc 1 2545 8
	bge	a5,zero,.L352
	.loc 1 2547 14
	li	a5,-1
	slli	a5,a5,63
	addi	a5,a5,14
	j	.L358
.L352:
	.loc 1 2554 14
	addi	a4,s0,-56
	addi	a5,s0,-48
	mv	a3,a5
	li	a2,0
	li	a1,21
	la	a0,_gPcd_FixedAtBuild_PcdBootManagerMenuFile
	call	GetSectionFromAnyFv@plt
	sd	a0,-32(s0)
	.loc 1 2561 36
	ld	a5,-32(s0)
	.loc 1 2561 8
	bge	a5,zero,.L351
	.loc 1 2562 19
	sd	zero,-48(s0)
.L351:
	.loc 1 2571 27
	ld	a5,-48(s0)
	.loc 1 2566 12
	beq	a5,zero,.L354
	.loc 1 2566 12 is_stmt 0 discriminator 1
	ld	a4,-48(s0)
	j	.L355
.L354:
	.loc 1 2566 12 discriminator 2
	lla	a4,.LC6
.L355:
	.loc 1 2566 12 discriminator 4
	ld	a5,-64(s0)
	li	a7,0
	li	a6,0
	li	a3,265
	li	a2,2
	li	a1,65536
	ld	a0,-104(s0)
	call	EfiBootManagerInitializeLoadOption@plt
	sd	a0,-32(s0)
	.loc 1 2577 3 is_stmt 1
	ld	a5,-64(s0)
	mv	a0,a5
	call	FreePool@plt
	.loc 1 2578 19
	ld	a5,-48(s0)
	.loc 1 2578 6
	beq	a5,zero,.L356
	.loc 1 2579 5
	ld	a5,-48(s0)
	mv	a0,a5
	call	FreePool@plt
.L356:
	.loc 1 2582 12
	call	DebugCodeEnabled@plt
	mv	a5,a0
	.loc 1 2582 11 discriminator 1
	beq	a5,zero,.L357
.LBB3:
	.loc 1 2582 149 discriminator 2
	addi	a5,s0,-88
	li	a1,2
	mv	a0,a5
	call	EfiBootManagerGetLoadOptions@plt
	sd	a0,-40(s0)
	.loc 1 2582 367 discriminator 7
	ld	a5,-88(s0)
	mv	a1,a5
	ld	a0,-40(s0)
	call	EfiBootManagerFreeLoadOptions@plt
.L357:
.LBE3:
	.loc 1 2591 10
	li	a1,-1
	ld	a0,-104(s0)
	call	EfiBootManagerAddLoadOptionVariable@plt
	mv	a5,a0
.L358:
	.loc 1 2592 1
	mv	a0,a5
	ld	ra,104(sp)
	.cfi_restore 1
	ld	s0,96(sp)
	.cfi_restore 8
	.cfi_def_cfa 2, 112
	addi	sp,sp,112
	.cfi_def_cfa_offset 0
	jr	ra
	.cfi_endproc
.LFE30:
	.size	BmRegisterBootManagerMenu, .-BmRegisterBootManagerMenu
	.section	.text.EfiBootManagerGetBootManagerMenu,"ax",@progbits
	.align	1
	.globl	EfiBootManagerGetBootManagerMenu
	.type	EfiBootManagerGetBootManagerMenu, @function
EfiBootManagerGetBootManagerMenu:
.LFB31:
	.loc 1 2611 1
	.cfi_startproc
	addi	sp,sp,-64
	.cfi_def_cfa_offset 64
	sd	ra,56(sp)
	sd	s0,48(sp)
	.cfi_offset 1, -8
	.cfi_offset 8, -16
	addi	s0,sp,64
	.cfi_def_cfa 8, 0
	sd	a0,-56(s0)
	.loc 1 2617 17
	addi	a5,s0,-48
	li	a1,2
	mv	a0,a5
	call	EfiBootManagerGetLoadOptions@plt
	sd	a0,-32(s0)
	.loc 1 2619 14
	sd	zero,-24(s0)
	.loc 1 2619 3
	j	.L360
.L363:
	.loc 1 2620 49
	ld	a4,-24(s0)
	li	a5,88
	mul	a5,a4,a5
	ld	a4,-32(s0)
	add	a5,a4,a5
	.loc 1 2620 9
	ld	a5,24(a5)
	mv	a0,a5
	call	BmIsBootManagerMenuFilePath
	mv	a5,a0
	.loc 1 2620 8 discriminator 1
	beq	a5,zero,.L361
	.loc 1 2623 29
	ld	a4,-24(s0)
	li	a5,88
	mul	a5,a4,a5
	ld	a4,-32(s0)
	add	a5,a4,a5
	.loc 1 2621 16
	ld	a1,0(a5)
	.loc 1 2624 29
	ld	a4,-24(s0)
	li	a5,88
	mul	a5,a4,a5
	ld	a4,-32(s0)
	add	a5,a4,a5
	.loc 1 2621 16
	lw	a2,8(a5)
	.loc 1 2625 29
	ld	a4,-24(s0)
	li	a5,88
	mul	a5,a4,a5
	ld	a4,-32(s0)
	add	a5,a4,a5
	.loc 1 2621 16
	lw	a3,12(a5)
	.loc 1 2626 29
	ld	a4,-24(s0)
	li	a5,88
	mul	a5,a4,a5
	ld	a4,-32(s0)
	add	a5,a4,a5
	.loc 1 2621 16
	ld	a0,16(a5)
	.loc 1 2627 29
	ld	a4,-24(s0)
	li	a5,88
	mul	a5,a4,a5
	ld	a4,-32(s0)
	add	a5,a4,a5
	.loc 1 2621 16
	ld	t1,24(a5)
	.loc 1 2628 29
	ld	a4,-24(s0)
	li	a5,88
	mul	a5,a4,a5
	ld	a4,-32(s0)
	add	a5,a4,a5
	.loc 1 2621 16
	ld	a6,32(a5)
	.loc 1 2629 29
	ld	a4,-24(s0)
	li	a5,88
	mul	a5,a4,a5
	ld	a4,-32(s0)
	add	a5,a4,a5
	.loc 1 2621 16
	lw	a5,40(a5)
	mv	a7,a5
	mv	a5,t1
	mv	a4,a0
	ld	a0,-56(s0)
	call	EfiBootManagerInitializeLoadOption@plt
	sd	a0,-40(s0)
	.loc 1 2632 7
	j	.L362
.L361:
	.loc 1 2619 49 discriminator 2
	ld	a5,-24(s0)
	addi	a5,a5,1
	sd	a5,-24(s0)
.L360:
	.loc 1 2619 25 discriminator 1
	ld	a5,-48(s0)
	ld	a4,-24(s0)
	bltu	a4,a5,.L363
.L362:
	.loc 1 2636 3
	ld	a5,-48(s0)
	mv	a1,a5
	ld	a0,-32(s0)
	call	EfiBootManagerFreeLoadOptions@plt
	.loc 1 2641 13
	ld	a5,-48(s0)
	.loc 1 2641 6
	ld	a4,-24(s0)
	bne	a4,a5,.L364
	.loc 1 2642 12
	ld	a0,-56(s0)
	call	BmRegisterBootManagerMenu
	mv	a5,a0
	j	.L366
.L364:
	.loc 1 2644 12
	li	a5,0
.L366:
	.loc 1 2646 1
	mv	a0,a5
	ld	ra,56(sp)
	.cfi_restore 1
	ld	s0,48(sp)
	.cfi_restore 8
	.cfi_def_cfa 2, 64
	addi	sp,sp,64
	.cfi_def_cfa_offset 0
	jr	ra
	.cfi_endproc
.LFE31:
	.size	EfiBootManagerGetBootManagerMenu, .-EfiBootManagerGetBootManagerMenu
	.section	.text.EfiBootManagerGetNextLoadOptionDevicePath,"ax",@progbits
	.align	1
	.globl	EfiBootManagerGetNextLoadOptionDevicePath
	.type	EfiBootManagerGetNextLoadOptionDevicePath, @function
EfiBootManagerGetNextLoadOptionDevicePath:
.LFB32:
	.loc 1 2668 1
	.cfi_startproc
	addi	sp,sp,-32
	.cfi_def_cfa_offset 32
	sd	ra,24(sp)
	sd	s0,16(sp)
	.cfi_offset 1, -8
	.cfi_offset 8, -16
	addi	s0,sp,32
	.cfi_def_cfa 8, 0
	sd	a0,-24(s0)
	sd	a1,-32(s0)
	.loc 1 2669 10
	ld	a1,-32(s0)
	ld	a0,-24(s0)
	call	BmGetNextLoadOptionDevicePath
	mv	a5,a0
	.loc 1 2670 1
	mv	a0,a5
	ld	ra,24(sp)
	.cfi_restore 1
	ld	s0,16(sp)
	.cfi_restore 8
	.cfi_def_cfa 2, 32
	addi	sp,sp,32
	.cfi_def_cfa_offset 0
	jr	ra
	.cfi_endproc
.LFE32:
	.size	EfiBootManagerGetNextLoadOptionDevicePath, .-EfiBootManagerGetNextLoadOptionDevicePath
	.text
.Letext0:
	.file 2 "/home/kapoagaeming/Downloads/spacemit-image-builder/components/edk2/MdePkg/Include/RiscV64/ProcessorBind.h"
	.file 3 "/home/kapoagaeming/Downloads/spacemit-image-builder/components/edk2/MdePkg/Include/Base.h"
	.file 4 "/home/kapoagaeming/Downloads/spacemit-image-builder/components/edk2/MdePkg/Include/Uefi/UefiBaseType.h"
	.file 5 "/home/kapoagaeming/Downloads/spacemit-image-builder/components/edk2/MdePkg/Include/Uefi/UefiMultiPhase.h"
	.file 6 "/home/kapoagaeming/Downloads/spacemit-image-builder/components/edk2/MdePkg/Include/Protocol/DevicePath.h"
	.file 7 "/home/kapoagaeming/Downloads/spacemit-image-builder/components/edk2/MdePkg/Include/Protocol/SimpleTextIn.h"
	.file 8 "/home/kapoagaeming/Downloads/spacemit-image-builder/components/edk2/MdePkg/Include/Protocol/SimpleTextOut.h"
	.file 9 "/home/kapoagaeming/Downloads/spacemit-image-builder/components/edk2/MdePkg/Include/Uefi/UefiSpec.h"
	.file 10 "/home/kapoagaeming/Downloads/spacemit-image-builder/components/edk2/MdePkg/Include/Pi/PiFirmwareFile.h"
	.file 11 "/home/kapoagaeming/Downloads/spacemit-image-builder/components/edk2/MdePkg/Include/Pi/PiStatusCode.h"
	.file 12 "/home/kapoagaeming/Downloads/spacemit-image-builder/components/Build/Milk-V-Jupiter/RELEASE_GCC5/RISCV64/MdeModulePkg/Library/UefiBootManagerLib/UefiBootManagerLib/DEBUG/AutoGen.h"
	.file 13 "/home/kapoagaeming/Downloads/spacemit-image-builder/components/edk2/MdePkg/Include/Protocol/BlockIo.h"
	.file 14 "/home/kapoagaeming/Downloads/spacemit-image-builder/components/edk2/MdePkg/Include/Protocol/LoadedImage.h"
	.file 15 "/home/kapoagaeming/Downloads/spacemit-image-builder/components/edk2/MdePkg/Include/Protocol/LoadFile.h"
	.file 16 "/home/kapoagaeming/Downloads/spacemit-image-builder/components/edk2/MdePkg/Include/Protocol/GraphicsOutput.h"
	.file 17 "/home/kapoagaeming/Downloads/spacemit-image-builder/components/edk2/MdePkg/Include/IndustryStandard/Usb.h"
	.file 18 "/home/kapoagaeming/Downloads/spacemit-image-builder/components/edk2/MdePkg/Include/Protocol/UsbIo.h"
	.file 19 "/home/kapoagaeming/Downloads/spacemit-image-builder/components/edk2/MdeModulePkg/Include/Protocol/BootLogo.h"
	.file 20 "/home/kapoagaeming/Downloads/spacemit-image-builder/components/edk2/MdePkg/Include/Protocol/RamDisk.h"
	.file 21 "/home/kapoagaeming/Downloads/spacemit-image-builder/components/edk2/MdeModulePkg/Include/Library/UefiBootManagerLib.h"
	.file 22 "/home/kapoagaeming/Downloads/spacemit-image-builder/components/edk2/MdeModulePkg/Include/Protocol/PlatformBootManager.h"
	.file 23 "/home/kapoagaeming/Downloads/spacemit-image-builder/components/edk2/MdePkg/Include/Guid/StatusCodeDataTypeId.h"
	.file 24 "/home/kapoagaeming/Downloads/spacemit-image-builder/components/edk2/MdePkg/Include/Library/UefiBootServicesTableLib.h"
	.file 25 "/home/kapoagaeming/Downloads/spacemit-image-builder/components/edk2/MdePkg/Include/Library/UefiRuntimeServicesTableLib.h"
	.file 26 "/home/kapoagaeming/Downloads/spacemit-image-builder/components/edk2/MdeModulePkg/Library/UefiBootManagerLib/InternalBm.h"
	.file 27 "/home/kapoagaeming/Downloads/spacemit-image-builder/components/edk2/MdePkg/Include/Library/DxeServicesLib.h"
	.file 28 "/home/kapoagaeming/Downloads/spacemit-image-builder/components/edk2/MdePkg/Include/Library/MemoryAllocationLib.h"
	.file 29 "/home/kapoagaeming/Downloads/spacemit-image-builder/components/edk2/MdePkg/Include/Library/PerformanceLib.h"
	.file 30 "/home/kapoagaeming/Downloads/spacemit-image-builder/components/edk2/MdePkg/Include/Library/UefiLib.h"
	.file 31 "/home/kapoagaeming/Downloads/spacemit-image-builder/components/edk2/MdePkg/Include/Library/ReportStatusCodeLib.h"
	.file 32 "/home/kapoagaeming/Downloads/spacemit-image-builder/components/edk2/MdePkg/Include/Library/BaseMemoryLib.h"
	.file 33 "/home/kapoagaeming/Downloads/spacemit-image-builder/components/edk2/MdePkg/Include/Library/DevicePathLib.h"
	.file 34 "/home/kapoagaeming/Downloads/spacemit-image-builder/components/edk2/MdePkg/Include/Library/DebugLib.h"
	.file 35 "/home/kapoagaeming/Downloads/spacemit-image-builder/components/edk2/MdePkg/Include/Library/BaseLib.h"
	.file 36 "/home/kapoagaeming/Downloads/spacemit-image-builder/components/edk2/MdePkg/Include/Library/PrintLib.h"
	.section	.note.GNU-stack,"",@progbits
