	.file	"BmBootDescription.c"
	.option pic
	.option norelax
	.attribute arch, "rv64i2p1_m2p0_a2p1_f2p2_d2p2_c2p0_zicsr2p0_zifencei2p0_zmmul1p0_zaamo1p0_zalrsc1p0_zca1p0_zcd1p0"
	.attribute unaligned_access, 0
	.attribute stack_align, 16
	.text
.Ltext0:
	.cfi_sections	.debug_frame
	.file 0 "/home/kapoagaeming/Downloads/spacemit-image-builder/components/Build/Milk-V-Jupiter/RELEASE_GCC5/RISCV64/MdeModulePkg/Library/UefiBootManagerLib/UefiBootManagerLib" "/home/kapoagaeming/Downloads/spacemit-image-builder/components/edk2/MdeModulePkg/Library/UefiBootManagerLib/BmBootDescription.c"
	.globl	mBmUsbLangId
	.section	.rodata.mBmUsbLangId,"a"
	.align	1
	.type	mBmUsbLangId, @object
	.size	mBmUsbLangId, 2
mBmUsbLangId:
	.half	1033
	.globl	mBmUefiPrefix
	.section	.data.mBmUefiPrefix,"aw"
	.align	3
	.type	mBmUefiPrefix, @object
	.size	mBmUefiPrefix, 12
mBmUefiPrefix:
	.string	"U"
	.string	"E"
	.string	"F"
	.string	"I"
	.string	" "
	.zero	2
	.globl	mBootDescGenericManufacturer
	.section	.data.mBootDescGenericManufacturer,"aw"
	.align	3
	.type	mBootDescGenericManufacturer, @object
	.size	mBootDescGenericManufacturer, 16
mBootDescGenericManufacturer:
	.string	"G"
	.string	"e"
	.string	"n"
	.string	"e"
	.string	"r"
	.string	"i"
	.string	"c"
	.zero	2
	.globl	mBootDescSd
	.section	.data.mBootDescSd,"aw"
	.align	3
	.type	mBootDescSd, @object
	.size	mBootDescSd, 20
mBootDescSd:
	.string	"S"
	.string	"D"
	.string	" "
	.string	"D"
	.string	"e"
	.string	"v"
	.string	"i"
	.string	"c"
	.string	"e"
	.zero	2
	.globl	mBootDescEmmc
	.section	.data.mBootDescEmmc,"aw"
	.align	3
	.type	mBootDescEmmc, @object
	.size	mBootDescEmmc, 24
mBootDescEmmc:
	.string	"e"
	.string	"M"
	.string	"M"
	.string	"C"
	.string	" "
	.string	"D"
	.string	"e"
	.string	"v"
	.string	"i"
	.string	"c"
	.string	"e"
	.zero	2
	.globl	mBootDescEmmcUserData
	.section	.data.mBootDescEmmcUserData,"aw"
	.align	3
	.type	mBootDescEmmcUserData, @object
	.size	mBootDescEmmcUserData, 30
mBootDescEmmcUserData:
	.string	"e"
	.string	"M"
	.string	"M"
	.string	"C"
	.string	" "
	.string	"U"
	.string	"s"
	.string	"e"
	.string	"r"
	.string	" "
	.string	"D"
	.string	"a"
	.string	"t"
	.string	"a"
	.zero	2
	.globl	mBootDescEmmcBoot1
	.section	.data.mBootDescEmmcBoot1,"aw"
	.align	3
	.type	mBootDescEmmcBoot1, @object
	.size	mBootDescEmmcBoot1, 24
mBootDescEmmcBoot1:
	.string	"e"
	.string	"M"
	.string	"M"
	.string	"C"
	.string	" "
	.string	"B"
	.string	"o"
	.string	"o"
	.string	"t"
	.string	" "
	.string	"1"
	.zero	2
	.globl	mBootDescEmmcBoot2
	.section	.data.mBootDescEmmcBoot2,"aw"
	.align	3
	.type	mBootDescEmmcBoot2, @object
	.size	mBootDescEmmcBoot2, 24
mBootDescEmmcBoot2:
	.string	"e"
	.string	"M"
	.string	"M"
	.string	"C"
	.string	" "
	.string	"B"
	.string	"o"
	.string	"o"
	.string	"t"
	.string	" "
	.string	"2"
	.zero	2
	.globl	mBootDescEmmcGp1
	.section	.data.mBootDescEmmcGp1,"aw"
	.align	3
	.type	mBootDescEmmcGp1, @object
	.size	mBootDescEmmcGp1, 20
mBootDescEmmcGp1:
	.string	"e"
	.string	"M"
	.string	"M"
	.string	"C"
	.string	" "
	.string	"G"
	.string	"P"
	.string	" "
	.string	"1"
	.zero	2
	.globl	mBootDescEmmcGp2
	.section	.data.mBootDescEmmcGp2,"aw"
	.align	3
	.type	mBootDescEmmcGp2, @object
	.size	mBootDescEmmcGp2, 20
mBootDescEmmcGp2:
	.string	"e"
	.string	"M"
	.string	"M"
	.string	"C"
	.string	" "
	.string	"G"
	.string	"P"
	.string	" "
	.string	"2"
	.zero	2
	.globl	mBootDescEmmcGp3
	.section	.data.mBootDescEmmcGp3,"aw"
	.align	3
	.type	mBootDescEmmcGp3, @object
	.size	mBootDescEmmcGp3, 20
mBootDescEmmcGp3:
	.string	"e"
	.string	"M"
	.string	"M"
	.string	"C"
	.string	" "
	.string	"G"
	.string	"P"
	.string	" "
	.string	"3"
	.zero	2
	.globl	mBootDescEmmcGp4
	.section	.data.mBootDescEmmcGp4,"aw"
	.align	3
	.type	mBootDescEmmcGp4, @object
	.size	mBootDescEmmcGp4, 20
mBootDescEmmcGp4:
	.string	"e"
	.string	"M"
	.string	"M"
	.string	"C"
	.string	" "
	.string	"G"
	.string	"P"
	.string	" "
	.string	"4"
	.zero	2
	.globl	mSdManufacturers
	.section	.rodata
	.align	3
.LC0:
	.string	"P"
	.string	"a"
	.string	"n"
	.string	"a"
	.string	"s"
	.string	"o"
	.string	"n"
	.string	"i"
	.string	"c"
	.zero	2
	.align	3
.LC1:
	.string	"T"
	.string	"o"
	.string	"s"
	.string	"h"
	.string	"i"
	.string	"b"
	.string	"a"
	.string	"/"
	.string	"K"
	.string	"i"
	.string	"n"
	.string	"g"
	.string	"s"
	.string	"t"
	.string	"o"
	.string	"n"
	.string	"/"
	.string	"V"
	.string	"i"
	.string	"k"
	.string	"i"
	.string	"n"
	.string	"g"
	.zero	2
	.align	3
.LC2:
	.string	"S"
	.string	"a"
	.string	"n"
	.string	"D"
	.string	"i"
	.string	"s"
	.string	"k"
	.zero	2
	.align	3
.LC3:
	.string	"S"
	.string	"i"
	.string	"l"
	.string	"i"
	.string	"c"
	.string	"o"
	.string	"n"
	.string	" "
	.string	"P"
	.string	"o"
	.string	"w"
	.string	"e"
	.string	"r"
	.zero	2
	.align	3
.LC4:
	.string	"I"
	.string	"n"
	.string	"f"
	.string	"i"
	.string	"n"
	.string	"e"
	.string	"o"
	.string	"n"
	.zero	2
	.align	3
.LC5:
	.string	"T"
	.string	"r"
	.string	"a"
	.string	"n"
	.string	"s"
	.string	"c"
	.string	"e"
	.string	"n"
	.string	"d"
	.string	"/"
	.string	"S"
	.string	"a"
	.string	"m"
	.string	"s"
	.string	"u"
	.string	"n"
	.string	"g"
	.zero	2
	.align	3
.LC6:
	.string	"T"
	.string	"r"
	.string	"a"
	.string	"n"
	.string	"s"
	.string	"c"
	.string	"e"
	.string	"n"
	.string	"d"
	.zero	2
	.align	3
.LC7:
	.string	"C"
	.string	"o"
	.string	"r"
	.string	"s"
	.string	"a"
	.string	"i"
	.string	"r"
	.string	"/"
	.string	"A"
	.string	"D"
	.string	"a"
	.string	"t"
	.string	"a"
	.zero	2
	.align	3
.LC8:
	.string	"K"
	.string	"i"
	.string	"n"
	.string	"g"
	.string	"s"
	.string	"t"
	.string	"o"
	.string	"n"
	.zero	2
	.align	3
.LC9:
	.string	"D"
	.string	"e"
	.string	"l"
	.string	"k"
	.string	"i"
	.string	"n"
	.string	"/"
	.string	"P"
	.string	"h"
	.string	"i"
	.string	"s"
	.string	"o"
	.string	"n"
	.zero	2
	.align	3
.LC10:
	.string	"L"
	.string	"e"
	.string	"x"
	.string	"a"
	.string	"r"
	.zero	2
	.align	3
.LC11:
	.string	"S"
	.string	"T"
	.string	"M"
	.string	"i"
	.string	"c"
	.string	"r"
	.string	"o"
	.string	"e"
	.string	"l"
	.string	"e"
	.string	"c"
	.string	"t"
	.string	"r"
	.string	"o"
	.string	"n"
	.string	"i"
	.string	"c"
	.string	"s"
	.zero	2
	.align	3
.LC12:
	.string	"P"
	.string	"a"
	.string	"t"
	.string	"r"
	.string	"i"
	.string	"o"
	.string	"t"
	.zero	2
	.align	3
.LC13:
	.string	"G"
	.string	"o"
	.string	"b"
	.string	"e"
	.string	"/"
	.string	"S"
	.string	"o"
	.string	"n"
	.string	"y"
	.zero	2
	.align	3
.LC14:
	.string	"A"
	.string	"n"
	.string	"g"
	.string	"e"
	.string	"l"
	.string	"b"
	.string	"i"
	.string	"r"
	.string	"d"
	.string	"/"
	.string	"H"
	.string	"o"
	.string	"o"
	.string	"d"
	.string	"m"
	.string	"a"
	.string	"n"
	.zero	2
	.section	.data.rel.local.mSdManufacturers,"aw"
	.align	3
	.type	mSdManufacturers, @object
	.size	mSdManufacturers, 336
mSdManufacturers:
	.byte	1
	.zero	7
	.dword	.LC0
	.byte	2
	.zero	7
	.dword	.LC1
	.byte	3
	.zero	7
	.dword	.LC2
	.byte	8
	.zero	7
	.dword	.LC3
	.byte	24
	.zero	7
	.dword	.LC4
	.byte	27
	.zero	7
	.dword	.LC5
	.byte	28
	.zero	7
	.dword	.LC6
	.byte	29
	.zero	7
	.dword	.LC7
	.byte	30
	.zero	7
	.dword	.LC6
	.byte	31
	.zero	7
	.dword	.LC8
	.byte	39
	.zero	7
	.dword	.LC9
	.byte	40
	.zero	7
	.dword	.LC10
	.byte	48
	.zero	7
	.dword	.LC2
	.byte	49
	.zero	7
	.dword	.LC3
	.byte	51
	.zero	7
	.dword	.LC11
	.byte	65
	.zero	7
	.dword	.LC8
	.byte	111
	.zero	7
	.dword	.LC11
	.byte	116
	.zero	7
	.dword	.LC6
	.byte	118
	.zero	7
	.dword	.LC12
	.byte	-126
	.zero	7
	.dword	.LC13
	.byte	-100
	.zero	7
	.dword	.LC14
	.globl	mMmcManufacturers
	.section	.rodata
	.align	3
.LC15:
	.string	"K"
	.string	"i"
	.string	"n"
	.string	"g"
	.string	"s"
	.string	"t"
	.string	"o"
	.string	"n"
	.string	"/"
	.string	"S"
	.string	"a"
	.string	"n"
	.string	"D"
	.string	"i"
	.string	"s"
	.string	"k"
	.zero	2
	.align	3
.LC16:
	.string	"T"
	.string	"o"
	.string	"s"
	.string	"h"
	.string	"i"
	.string	"b"
	.string	"a"
	.zero	2
	.align	3
.LC17:
	.string	"M"
	.string	"i"
	.string	"c"
	.string	"r"
	.string	"o"
	.string	"n"
	.zero	2
	.align	3
.LC18:
	.string	"S"
	.string	"a"
	.string	"m"
	.string	"s"
	.string	"u"
	.string	"n"
	.string	"g"
	.zero	2
	.align	3
.LC19:
	.string	"K"
	.string	"i"
	.string	"n"
	.string	"g"
	.string	"M"
	.string	"a"
	.string	"x"
	.zero	2
	.align	3
.LC20:
	.string	"A"
	.string	"T"
	.string	"P"
	.zero	2
	.align	3
.LC21:
	.string	"F"
	.string	"o"
	.string	"r"
	.string	"e"
	.string	"s"
	.string	"e"
	.string	"e"
	.zero	2
	.align	3
.LC22:
	.string	"Y"
	.string	"M"
	.string	"T"
	.string	"C"
	.zero	2
	.section	.data.rel.local.mMmcManufacturers,"aw"
	.align	3
	.type	mMmcManufacturers, @object
	.size	mMmcManufacturers, 240
mMmcManufacturers:
	.byte	0
	.zero	7
	.dword	.LC2
	.byte	2
	.zero	7
	.dword	.LC15
	.byte	3
	.zero	7
	.dword	.LC16
	.byte	17
	.zero	7
	.dword	.LC16
	.byte	19
	.zero	7
	.dword	.LC17
	.byte	21
	.zero	7
	.dword	.LC18
	.byte	55
	.zero	7
	.dword	.LC19
	.byte	68
	.zero	7
	.dword	.LC20
	.byte	69
	.zero	7
	.dword	.LC2
	.byte	44
	.zero	7
	.dword	.LC8
	.byte	112
	.zero	7
	.dword	.LC8
	.byte	-120
	.zero	7
	.dword	.LC21
	.byte	-101
	.zero	7
	.dword	.LC22
	.byte	-42
	.zero	7
	.dword	.LC21
	.byte	-2
	.zero	7
	.dword	.LC17
	.globl	mPlatformBootDescriptionHandlers
	.section	.data.rel.local.mPlatformBootDescriptionHandlers,"aw"
	.align	3
	.type	mPlatformBootDescriptionHandlers, @object
	.size	mPlatformBootDescriptionHandlers, 16
mPlatformBootDescriptionHandlers:
	.dword	mPlatformBootDescriptionHandlers
	.dword	mPlatformBootDescriptionHandlers
	.section	.text.BmDevicePathType,"ax",@progbits
	.align	1
	.globl	BmDevicePathType
	.type	BmDevicePathType, @function
BmDevicePathType:
.LFB0:
	.file 1 "/home/kapoagaeming/Downloads/spacemit-image-builder/components/edk2/MdeModulePkg/Library/UefiBootManagerLib/BmBootDescription.c"
	.loc 1 102 1
	.cfi_startproc
	addi	sp,sp,-48
	.cfi_def_cfa_offset 48
	sd	ra,40(sp)
	sd	s0,32(sp)
	.cfi_offset 1, -8
	.cfi_offset 8, -16
	addi	s0,sp,48
	.cfi_def_cfa 8, 0
	sd	a0,-40(s0)
	.loc 1 108 13
	ld	a5,-40(s0)
	sd	a5,-24(s0)
	.loc 1 108 3
	j	.L2
.L16:
	.loc 1 109 13
	ld	a0,-24(s0)
	call	DevicePathType@plt
	mv	a5,a0
	.loc 1 109 13 is_stmt 0 discriminator 1
	sext.w	a5,a5
	.loc 1 109 5 is_stmt 1 discriminator 1
	li	a4,3
	beq	a5,a4,.L3
	li	a4,3
	bgt	a5,a4,.L4
	li	a4,1
	beq	a5,a4,.L5
	li	a4,2
	bne	a5,a4,.L4
	.loc 1 111 45
	ld	a5,-24(s0)
	lbu	a4,4(a5)
	lbu	a3,5(a5)
	slli	a3,a3,8
	or	a4,a3,a4
	lbu	a3,6(a5)
	slli	a3,a3,16
	or	a4,a3,a4
	lbu	a5,7(a5)
	slli	a5,a5,24
	or	a5,a5,a4
	sext.w	a5,a5
	.loc 1 111 52
	srliw	a5,a5,16
	sext.w	a4,a5
	.loc 1 111 12
	li	a5,1540
	bne	a4,a5,.L17
	.loc 1 112 18
	li	a5,0
	j	.L7
.L5:
	.loc 1 118 13
	ld	a0,-24(s0)
	call	DevicePathSubType@plt
	mv	a5,a0
	.loc 1 118 12 discriminator 1
	mv	a4,a5
	li	a5,5
	bne	a4,a5,.L18
	.loc 1 119 18
	li	a5,1
	j	.L7
.L3:
	.loc 1 128 18
	ld	a5,-24(s0)
	sd	a5,-32(s0)
.L10:
	.loc 1 130 22
	ld	a0,-32(s0)
	call	NextDevicePathNode@plt
	sd	a0,-32(s0)
	.loc 1 132 19 discriminator 3
	ld	a0,-32(s0)
	call	DevicePathType@plt
	mv	a5,a0
	.loc 1 132 54 discriminator 3
	mv	a4,a5
	li	a5,3
	bne	a4,a5,.L9
	.loc 1 133 19
	ld	a0,-32(s0)
	call	DevicePathSubType@plt
	mv	a5,a0
	.loc 1 132 54 discriminator 2
	mv	a4,a5
	li	a5,17
	beq	a4,a5,.L10
.L9:
	.loc 1 139 14
	ld	a0,-32(s0)
	call	IsDevicePathEndType@plt
	mv	a5,a0
	.loc 1 139 12 discriminator 1
	beq	a5,zero,.L19
	.loc 1 143 17
	ld	a0,-24(s0)
	call	DevicePathSubType@plt
	mv	a5,a0
	.loc 1 143 17 is_stmt 0 discriminator 1
	sext.w	a5,a5
	.loc 1 143 9 is_stmt 1 discriminator 1
	li	a4,18
	beq	a5,a4,.L12
	li	a4,18
	bgt	a5,a4,.L4
	li	a4,5
	beq	a5,a4,.L13
	li	a4,5
	bgt	a5,a4,.L4
	li	a4,1
	beq	a5,a4,.L14
	li	a4,2
	beq	a5,a4,.L15
	j	.L4
.L14:
	.loc 1 145 20
	li	a5,2
	j	.L7
.L12:
	.loc 1 149 20
	li	a5,3
	j	.L7
.L13:
	.loc 1 153 20
	li	a5,4
	j	.L7
.L15:
	.loc 1 157 20
	li	a5,5
	j	.L7
.L17:
	.loc 1 115 9
	nop
	j	.L4
.L18:
	.loc 1 122 9
	nop
	j	.L4
.L19:
	.loc 1 140 11
	nop
.L4:
	.loc 1 108 63 discriminator 3
	ld	a0,-24(s0)
	call	NextDevicePathNode@plt
	sd	a0,-24(s0)
.L2:
	.loc 1 108 28 discriminator 1
	ld	a0,-24(s0)
	call	IsDevicePathEndType@plt
	mv	a5,a0
	.loc 1 108 27 discriminator 4
	beq	a5,zero,.L16
	.loc 1 163 10
	li	a5,6
.L7:
	.loc 1 164 1
	mv	a0,a5
	ld	ra,40(sp)
	.cfi_restore 1
	ld	s0,32(sp)
	.cfi_restore 8
	.cfi_def_cfa 2, 48
	addi	sp,sp,48
	.cfi_def_cfa_offset 0
	jr	ra
	.cfi_endproc
.LFE0:
	.size	BmDevicePathType, .-BmDevicePathType
	.section	.text.BmEliminateExtraSpaces,"ax",@progbits
	.align	1
	.globl	BmEliminateExtraSpaces
	.type	BmEliminateExtraSpaces, @function
BmEliminateExtraSpaces:
.LFB1:
	.loc 1 175 1
	.cfi_startproc
	addi	sp,sp,-48
	.cfi_def_cfa_offset 48
	sd	ra,40(sp)
	sd	s0,32(sp)
	.cfi_offset 1, -8
	.cfi_offset 8, -16
	addi	s0,sp,48
	.cfi_def_cfa 8, 0
	sd	a0,-40(s0)
	.loc 1 179 14
	sd	zero,-24(s0)
	.loc 1 179 31
	sd	zero,-32(s0)
	.loc 1 179 3
	j	.L21
.L24:
	.loc 1 180 13
	ld	a5,-24(s0)
	slli	a5,a5,1
	ld	a4,-40(s0)
	add	a5,a4,a5
	lhu	a5,0(a5)
	.loc 1 180 8
	sext.w	a4,a5
	li	a5,32
	bne	a4,a5,.L22
	.loc 1 180 30 discriminator 1
	ld	a5,-32(s0)
	beq	a5,zero,.L23
	.loc 1 180 59 discriminator 2
	ld	a5,-32(s0)
	slli	a5,a5,1
	addi	a5,a5,-2
	ld	a4,-40(s0)
	add	a5,a4,a5
	lhu	a5,0(a5)
	.loc 1 180 52 discriminator 2
	sext.w	a4,a5
	li	a5,32
	beq	a4,a5,.L23
.L22:
	.loc 1 181 31
	ld	a5,-24(s0)
	slli	a5,a5,1
	ld	a4,-40(s0)
	add	a4,a4,a5
	.loc 1 181 22
	ld	a5,-32(s0)
	addi	a3,a5,1
	sd	a3,-32(s0)
	.loc 1 181 10
	slli	a5,a5,1
	ld	a3,-40(s0)
	add	a5,a3,a5
	.loc 1 181 31
	lhu	a4,0(a4)
	.loc 1 181 26
	sh	a4,0(a5)
.L23:
	.loc 1 179 62 discriminator 2
	ld	a5,-24(s0)
	addi	a5,a5,1
	sd	a5,-24(s0)
.L21:
	.loc 1 179 39 discriminator 1
	ld	a5,-24(s0)
	slli	a5,a5,1
	ld	a4,-40(s0)
	add	a5,a4,a5
	lhu	a5,0(a5)
	.loc 1 179 47 discriminator 1
	bne	a5,zero,.L24
	.loc 1 185 6
	ld	a5,-32(s0)
	slli	a5,a5,1
	ld	a4,-40(s0)
	add	a5,a4,a5
	.loc 1 185 20
	sh	zero,0(a5)
	.loc 1 186 1
	nop
	ld	ra,40(sp)
	.cfi_restore 1
	ld	s0,32(sp)
	.cfi_restore 8
	.cfi_def_cfa 2, 48
	addi	sp,sp,48
	.cfi_def_cfa_offset 0
	jr	ra
	.cfi_endproc
.LFE1:
	.size	BmEliminateExtraSpaces, .-BmEliminateExtraSpaces
	.section	.text.BmSwapBytes,"ax",@progbits
	.align	1
	.globl	BmSwapBytes
	.type	BmSwapBytes, @function
BmSwapBytes:
.LFB2:
	.loc 1 199 1
	.cfi_startproc
	addi	sp,sp,-64
	.cfi_def_cfa_offset 64
	sd	ra,56(sp)
	sd	s0,48(sp)
	.cfi_offset 1, -8
	.cfi_offset 8, -16
	addi	s0,sp,64
	.cfi_def_cfa 8, 0
	sd	a0,-56(s0)
	sd	a1,-64(s0)
	.loc 1 204 9
	ld	a5,-64(s0)
	srli	a5,a5,1
	sd	a5,-32(s0)
	.loc 1 205 14
	sd	zero,-24(s0)
	.loc 1 205 3
	j	.L26
.L27:
	.loc 1 206 18
	ld	a4,-56(s0)
	ld	a5,-24(s0)
	add	a5,a4,a5
	.loc 1 206 10
	lbu	a5,0(a5)
	sb	a5,-33(s0)
	.loc 1 207 39
	ld	a4,-64(s0)
	ld	a5,-24(s0)
	sub	a5,a4,a5
	addi	a5,a5,-1
	.loc 1 207 27
	ld	a4,-56(s0)
	add	a4,a4,a5
	.loc 1 207 11
	ld	a3,-56(s0)
	ld	a5,-24(s0)
	add	a5,a3,a5
	.loc 1 207 27
	lbu	a4,0(a4)
	.loc 1 207 19
	sb	a4,0(a5)
	.loc 1 208 23
	ld	a4,-64(s0)
	ld	a5,-24(s0)
	sub	a5,a4,a5
	addi	a5,a5,-1
	.loc 1 208 11
	ld	a4,-56(s0)
	add	a5,a4,a5
	.loc 1 208 32
	lbu	a4,-33(s0)
	sb	a4,0(a5)
	.loc 1 205 34 discriminator 3
	ld	a5,-24(s0)
	addi	a5,a5,1
	sd	a5,-24(s0)
.L26:
	.loc 1 205 25 discriminator 1
	ld	a4,-24(s0)
	ld	a5,-32(s0)
	bltu	a4,a5,.L27
	.loc 1 210 1
	nop
	nop
	ld	ra,56(sp)
	.cfi_restore 1
	ld	s0,48(sp)
	.cfi_restore 8
	.cfi_def_cfa 2, 64
	addi	sp,sp,64
	.cfi_def_cfa_offset 0
	jr	ra
	.cfi_endproc
.LFE2:
	.size	BmSwapBytes, .-BmSwapBytes
	.section	.text.BmGetSdMmcManufacturerName,"ax",@progbits
	.align	1
	.globl	BmGetSdMmcManufacturerName
	.type	BmGetSdMmcManufacturerName, @function
BmGetSdMmcManufacturerName:
.LFB3:
	.loc 1 225 1
	.cfi_startproc
	addi	sp,sp,-64
	.cfi_def_cfa_offset 64
	sd	ra,56(sp)
	sd	s0,48(sp)
	.cfi_offset 1, -8
	.cfi_offset 8, -16
	addi	s0,sp,64
	.cfi_def_cfa 8, 0
	mv	a5,a0
	mv	a4,a1
	sb	a5,-49(s0)
	mv	a5,a4
	sb	a5,-50(s0)
	.loc 1 230 36
	lbu	a5,-50(s0)
	andi	a5,a5,0xff
	beq	a5,zero,.L29
	.loc 1 230 8 discriminator 1
	lla	a5,mMmcManufacturers
	sd	a5,-24(s0)
	j	.L30
.L29:
	.loc 1 230 8 is_stmt 0 discriminator 2
	lla	a5,mSdManufacturers
	sd	a5,-24(s0)
.L30:
	.loc 1 231 9 is_stmt 1
	lbu	a5,-50(s0)
	andi	a5,a5,0xff
	beq	a5,zero,.L31
	.loc 1 231 9 is_stmt 0 discriminator 1
	li	a5,15
	sb	a5,-25(s0)
	j	.L32
.L31:
	.loc 1 231 9 discriminator 2
	li	a5,21
	sb	a5,-25(s0)
.L32:
	.loc 1 234 14 is_stmt 1
	sd	zero,-40(s0)
	.loc 1 234 3
	j	.L33
.L36:
	.loc 1 235 13
	ld	a5,-40(s0)
	slli	a5,a5,4
	ld	a4,-24(s0)
	add	a5,a4,a5
	.loc 1 235 20
	lbu	a4,0(a5)
	.loc 1 235 8
	lbu	a5,-49(s0)
	andi	a5,a5,0xff
	bne	a5,a4,.L34
	.loc 1 236 18
	ld	a5,-40(s0)
	slli	a5,a5,4
	ld	a4,-24(s0)
	add	a5,a4,a5
	.loc 1 236 25
	ld	a5,8(a5)
	j	.L35
.L34:
	.loc 1 234 34 discriminator 2
	ld	a5,-40(s0)
	addi	a5,a5,1
	sd	a5,-40(s0)
.L33:
	.loc 1 234 25 discriminator 1
	lbu	a5,-25(s0)
	ld	a4,-40(s0)
	bltu	a4,a5,.L36
	.loc 1 240 10
	lla	a5,mBootDescGenericManufacturer
.L35:
	.loc 1 241 1
	mv	a0,a5
	ld	ra,56(sp)
	.cfi_restore 1
	ld	s0,48(sp)
	.cfi_restore 8
	.cfi_def_cfa 2, 64
	addi	sp,sp,64
	.cfi_def_cfa_offset 0
	jr	ra
	.cfi_endproc
.LFE3:
	.size	BmGetSdMmcManufacturerName, .-BmGetSdMmcManufacturerName
	.section	.text.BmGetEmmcTypeDescription,"ax",@progbits
	.align	1
	.globl	BmGetEmmcTypeDescription
	.type	BmGetEmmcTypeDescription, @function
BmGetEmmcTypeDescription:
.LFB4:
	.loc 1 254 1
	.cfi_startproc
	addi	sp,sp,-32
	.cfi_def_cfa_offset 32
	sd	ra,24(sp)
	sd	s0,16(sp)
	.cfi_offset 1, -8
	.cfi_offset 8, -16
	addi	s0,sp,32
	.cfi_def_cfa 8, 0
	sd	a0,-24(s0)
	.loc 1 255 21
	ld	a5,-24(s0)
	lbu	a4,4(a5)
	lbu	a3,5(a5)
	slli	a3,a3,8
	or	a4,a3,a4
	lbu	a3,6(a5)
	slli	a3,a3,16
	or	a4,a3,a4
	lbu	a5,7(a5)
	slli	a5,a5,24
	or	a5,a5,a4
	sext.w	a5,a5
	.loc 1 255 3
	li	a4,7
	beq	a5,a4,.L38
	li	a4,7
	bgtu	a5,a4,.L48
	li	a4,6
	beq	a5,a4,.L40
	li	a4,6
	bgtu	a5,a4,.L48
	li	a4,5
	beq	a5,a4,.L41
	li	a4,5
	bgtu	a5,a4,.L48
	li	a4,4
	beq	a5,a4,.L42
	li	a4,4
	bgtu	a5,a4,.L48
	li	a4,2
	beq	a5,a4,.L43
	li	a4,2
	bgtu	a5,a4,.L48
	beq	a5,zero,.L44
	li	a4,1
	beq	a5,a4,.L45
	.loc 1 271 7
	j	.L48
.L44:
	.loc 1 257 14
	lla	a5,mBootDescEmmcUserData
	j	.L46
.L45:
	.loc 1 259 14
	lla	a5,mBootDescEmmcBoot1
	j	.L46
.L43:
	.loc 1 261 14
	lla	a5,mBootDescEmmcBoot2
	j	.L46
.L42:
	.loc 1 263 14
	lla	a5,mBootDescEmmcGp1
	j	.L46
.L41:
	.loc 1 265 14
	lla	a5,mBootDescEmmcGp2
	j	.L46
.L40:
	.loc 1 267 14
	lla	a5,mBootDescEmmcGp3
	j	.L46
.L38:
	.loc 1 269 14
	lla	a5,mBootDescEmmcGp4
	j	.L46
.L48:
	.loc 1 271 7
	nop
	.loc 1 274 10
	lla	a5,mBootDescEmmc
.L46:
	.loc 1 275 1
	mv	a0,a5
	ld	ra,24(sp)
	.cfi_restore 1
	ld	s0,16(sp)
	.cfi_restore 8
	.cfi_def_cfa 2, 32
	addi	sp,sp,32
	.cfi_def_cfa_offset 0
	jr	ra
	.cfi_endproc
.LFE4:
	.size	BmGetEmmcTypeDescription, .-BmGetEmmcTypeDescription
	.section	.rodata
	.align	3
.LC23:
	.string	"%"
	.string	"s"
	.string	" "
	.string	"%"
	.string	"."
	.string	"*"
	.string	"a"
	.string	" "
	.string	"%"
	.string	"0"
	.string	"2"
	.string	"x"
	.string	"%"
	.string	"0"
	.string	"2"
	.string	"x"
	.string	"%"
	.string	"0"
	.string	"2"
	.string	"x"
	.string	"%"
	.string	"0"
	.string	"2"
	.string	"x"
	.string	" "
	.string	"%"
	.string	"s"
	.zero	2
	.section	.text.BmGetSdMmcDescription,"ax",@progbits
	.align	1
	.globl	BmGetSdMmcDescription
	.type	BmGetSdMmcDescription, @function
BmGetSdMmcDescription:
.LFB5:
	.loc 1 296 1
	.cfi_startproc
	addi	sp,sp,-128
	.cfi_def_cfa_offset 128
	sd	ra,120(sp)
	sd	s0,112(sp)
	sd	s1,104(sp)
	.cfi_offset 1, -8
	.cfi_offset 8, -16
	.cfi_offset 9, -24
	addi	s0,sp,128
	.cfi_def_cfa 8, 0
	sd	a0,-56(s0)
	sd	a1,-64(s0)
	mv	a5,a2
	sd	a3,-80(s0)
	sd	a4,-88(s0)
	sb	a5,-65(s0)
	.loc 1 300 14
	ld	a0,-56(s0)
	call	StrSize@plt
	mv	a4,a0
	.loc 1 302 34
	lbu	a5,-65(s0)
	slli	a5,a5,1
	.loc 1 302 14
	add	s1,a4,a5
	.loc 1 306 16
	ld	a0,-88(s0)
	call	StrSize@plt
	mv	a5,a0
	.loc 1 306 14 discriminator 1
	add	a5,s1,a5
	.loc 1 300 12
	addi	a5,a5,20
	sd	a5,-40(s0)
	.loc 1 308 10
	ld	a0,-40(s0)
	call	AllocateZeroPool@plt
	sd	a0,-48(s0)
	.loc 1 309 6
	ld	a5,-48(s0)
	bne	a5,zero,.L50
	.loc 1 310 12
	li	a5,0
	j	.L51
.L50:
	.loc 1 313 3
	lbu	a5,-65(s0)
	mv	a1,a5
	ld	a0,-64(s0)
	call	BmSwapBytes
	.loc 1 315 3
	lbu	a5,-65(s0)
	sext.w	a2,a5
	.loc 1 322 17
	ld	a5,-80(s0)
	lbu	a5,0(a5)
	.loc 1 315 3
	sext.w	a1,a5
	.loc 1 323 17
	ld	a5,-80(s0)
	addi	a5,a5,1
	lbu	a5,0(a5)
	.loc 1 315 3
	sext.w	a0,a5
	.loc 1 324 17
	ld	a5,-80(s0)
	addi	a5,a5,2
	lbu	a5,0(a5)
	.loc 1 315 3
	sext.w	a5,a5
	.loc 1 325 17
	ld	a4,-80(s0)
	addi	a4,a4,3
	lbu	a4,0(a4)
	.loc 1 315 3
	sext.w	a4,a4
	ld	a3,-88(s0)
	sd	a3,16(sp)
	sd	a4,8(sp)
	sd	a5,0(sp)
	mv	a7,a0
	mv	a6,a1
	ld	a5,-64(s0)
	mv	a4,a2
	ld	a3,-56(s0)
	lla	a2,.LC23
	ld	a1,-40(s0)
	ld	a0,-48(s0)
	call	UnicodeSPrint@plt
	.loc 1 329 10
	ld	a5,-48(s0)
.L51:
	.loc 1 330 1
	mv	a0,a5
	ld	ra,120(sp)
	.cfi_restore 1
	ld	s0,112(sp)
	.cfi_restore 8
	.cfi_def_cfa 2, 128
	ld	s1,104(sp)
	.cfi_restore 9
	addi	sp,sp,128
	.cfi_def_cfa_offset 0
	jr	ra
	.cfi_endproc
.LFE5:
	.size	BmGetSdMmcDescription, .-BmGetSdMmcDescription
	.section	.text.BmGetDescriptionFromDiskInfo,"ax",@progbits
	.align	1
	.globl	BmGetDescriptionFromDiskInfo
	.type	BmGetDescriptionFromDiskInfo, @function
BmGetDescriptionFromDiskInfo:
.LFB6:
	.loc 1 343 1
	.cfi_startproc
	addi	sp,sp,-768
	.cfi_def_cfa_offset 768
	sd	ra,760(sp)
	sd	s0,752(sp)
	.cfi_offset 1, -8
	.cfi_offset 8, -16
	addi	s0,sp,768
	.cfi_def_cfa 8, 0
	sd	a0,-760(s0)
	.loc 1 354 15
	li	a5,40
	sd	a5,-48(s0)
	.loc 1 355 15
	li	a5,20
	sd	a5,-56(s0)
	.loc 1 360 15
	sd	zero,-32(s0)
	.loc 1 362 15
	la	a5,gBS
	ld	a5,0(a5)
	ld	a5,152(a5)
	.loc 1 362 12
	addi	a4,s0,-96
	mv	a2,a4
	la	a1,gEfiDiskInfoProtocolGuid
	ld	a0,-760(s0)
	jalr	a5
.LVL0:
	sd	a0,-64(s0)
	.loc 1 367 34
	ld	a5,-64(s0)
	.loc 1 367 6
	bge	a5,zero,.L53
	.loc 1 368 12
	li	a5,0
	j	.L77
.L53:
	.loc 1 371 29
	ld	a5,-96(s0)
	.loc 1 371 7
	la	a1,gEfiDiskInfoAhciInterfaceGuid
	mv	a0,a5
	call	CompareGuid@plt
	mv	a5,a0
	.loc 1 371 6 discriminator 1
	bne	a5,zero,.L55
	.loc 1 372 29
	ld	a5,-96(s0)
	.loc 1 372 7
	la	a1,gEfiDiskInfoIdeInterfaceGuid
	mv	a0,a5
	call	CompareGuid@plt
	mv	a5,a0
	.loc 1 371 74 discriminator 2
	beq	a5,zero,.L56
.L55:
	.loc 1 374 16
	li	a5,512
	sw	a5,-100(s0)
	.loc 1 375 22
	ld	a5,-96(s0)
	ld	a5,24(a5)
	.loc 1 375 14
	ld	a4,-96(s0)
	addi	a2,s0,-100
	addi	a3,s0,-616
	mv	a1,a3
	mv	a0,a4
	jalr	a5
.LVL1:
	sd	a0,-64(s0)
	.loc 1 380 9
	ld	a5,-64(s0)
	.loc 1 380 8
	blt	a5,zero,.L62
	.loc 1 381 56
	ld	a4,-48(s0)
	ld	a5,-56(s0)
	add	a5,a4,a5
	.loc 1 381 77
	addi	a5,a5,2
	.loc 1 381 82
	slli	a5,a5,1
	.loc 1 381 21
	mv	a0,a5
	call	AllocateZeroPool@plt
	sd	a0,-32(s0)
	.loc 1 383 18
	sd	zero,-24(s0)
	.loc 1 383 7
	j	.L58
.L59:
	.loc 1 384 67
	ld	a5,-24(s0)
	addi	a5,a5,1
	.loc 1 384 60
	addi	a5,a5,-16
	add	a5,a5,s0
	lbu	a3,-546(a5)
	.loc 1 384 20
	ld	a5,-24(s0)
	slli	a5,a5,1
	ld	a4,-32(s0)
	add	a5,a4,a5
	.loc 1 384 30
	mv	a4,a3
	.loc 1 384 28
	sh	a4,0(a5)
	.loc 1 385 64
	ld	a5,-24(s0)
	addi	a5,a5,-16
	add	a5,a5,s0
	lbu	a3,-546(a5)
	.loc 1 385 20
	ld	a5,-24(s0)
	addi	a5,a5,1
	slli	a5,a5,1
	ld	a4,-32(s0)
	add	a5,a4,a5
	.loc 1 385 34
	mv	a4,a3
	.loc 1 385 32
	sh	a4,0(a5)
	.loc 1 383 58 discriminator 3
	ld	a5,-24(s0)
	addi	a5,a5,2
	sd	a5,-24(s0)
.L58:
	.loc 1 383 29 discriminator 1
	ld	a5,-24(s0)
	addi	a5,a5,1
	.loc 1 383 33 discriminator 1
	ld	a4,-48(s0)
	bgtu	a4,a5,.L59
	.loc 1 388 14
	ld	a5,-24(s0)
	sd	a5,-88(s0)
	.loc 1 389 25
	ld	a5,-88(s0)
	addi	a4,a5,1
	sd	a4,-88(s0)
	.loc 1 389 18
	slli	a5,a5,1
	ld	a4,-32(s0)
	add	a5,a4,a5
	.loc 1 389 29
	li	a4,32
	sh	a4,0(a5)
	.loc 1 391 18
	sd	zero,-24(s0)
	.loc 1 391 7
	j	.L60
.L61:
	.loc 1 392 75
	ld	a5,-24(s0)
	addi	a5,a5,1
	.loc 1 392 68
	addi	a5,a5,-16
	add	a5,a5,s0
	lbu	a3,-580(a5)
	.loc 1 392 28
	ld	a4,-88(s0)
	ld	a5,-24(s0)
	add	a5,a4,a5
	.loc 1 392 20
	slli	a5,a5,1
	ld	a4,-32(s0)
	add	a5,a4,a5
	.loc 1 392 39
	mv	a4,a3
	.loc 1 392 37
	sh	a4,0(a5)
	.loc 1 393 72
	ld	a5,-24(s0)
	addi	a5,a5,-16
	add	a5,a5,s0
	lbu	a3,-580(a5)
	.loc 1 393 28
	ld	a4,-88(s0)
	ld	a5,-24(s0)
	add	a5,a4,a5
	.loc 1 393 20
	addi	a5,a5,1
	slli	a5,a5,1
	ld	a4,-32(s0)
	add	a5,a4,a5
	.loc 1 393 43
	mv	a4,a3
	.loc 1 393 41
	sh	a4,0(a5)
	.loc 1 391 61 discriminator 3
	ld	a5,-24(s0)
	addi	a5,a5,2
	sd	a5,-24(s0)
.L60:
	.loc 1 391 29 discriminator 1
	ld	a5,-24(s0)
	addi	a5,a5,1
	.loc 1 391 33 discriminator 1
	ld	a4,-56(s0)
	bgtu	a4,a5,.L61
	.loc 1 396 14
	ld	a4,-88(s0)
	ld	a5,-24(s0)
	add	a5,a4,a5
	sd	a5,-88(s0)
	.loc 1 397 25
	ld	a5,-88(s0)
	addi	a4,a5,1
	sd	a4,-88(s0)
	.loc 1 397 18
	slli	a5,a5,1
	ld	a4,-32(s0)
	add	a5,a4,a5
	.loc 1 397 29
	sh	zero,0(a5)
	.loc 1 400 7
	ld	a0,-32(s0)
	call	BmEliminateExtraSpaces
	.loc 1 380 8
	j	.L62
.L56:
	.loc 1 402 36
	ld	a5,-96(s0)
	.loc 1 402 14
	la	a1,gEfiDiskInfoScsiInterfaceGuid
	mv	a0,a5
	call	CompareGuid@plt
	mv	a5,a0
	.loc 1 402 13 discriminator 1
	bne	a5,zero,.L63
	.loc 1 403 36
	ld	a5,-96(s0)
	.loc 1 403 14
	la	a1,gEfiDiskInfoUfsInterfaceGuid
	mv	a0,a5
	call	CompareGuid@plt
	mv	a5,a0
	.loc 1 402 81 discriminator 2
	beq	a5,zero,.L64
.L63:
	.loc 1 405 16
	li	a5,96
	sw	a5,-100(s0)
	.loc 1 406 22
	ld	a5,-96(s0)
	ld	a5,16(a5)
	.loc 1 406 14
	ld	a4,-96(s0)
	addi	a2,s0,-100
	addi	a3,s0,-712
	mv	a1,a3
	mv	a0,a4
	jalr	a5
.LVL2:
	sd	a0,-64(s0)
	.loc 1 411 9
	ld	a5,-64(s0)
	.loc 1 411 8
	blt	a5,zero,.L62
	.loc 1 412 21
	li	a0,52
	call	AllocateZeroPool@plt
	sd	a0,-32(s0)
	.loc 1 420 14
	addi	a5,s0,-712
	addi	a5,a5,8
	sd	a5,-72(s0)
	.loc 1 421 20
	ld	a5,-72(s0)
	addi	a5,a5,8
	.loc 1 421 12
	lbu	a5,0(a5)
	sb	a5,-73(s0)
	.loc 1 422 13
	ld	a5,-72(s0)
	addi	a5,a5,8
	.loc 1 422 17
	sb	zero,0(a5)
	.loc 1 423 7
	li	a2,9
	ld	a1,-32(s0)
	ld	a0,-72(s0)
	call	AsciiStrToUnicodeStrS@plt
	.loc 1 424 13
	ld	a5,-72(s0)
	addi	a5,a5,8
	.loc 1 424 17
	lbu	a4,-73(s0)
	sb	a4,0(a5)
	.loc 1 429 18
	ld	a5,-32(s0)
	addi	a5,a5,16
	.loc 1 429 22
	li	a4,32
	sh	a4,0(a5)
	.loc 1 431 14
	addi	a5,s0,-712
	addi	a5,a5,16
	sd	a5,-72(s0)
	.loc 1 432 13
	ld	a5,-72(s0)
	addi	a5,a5,16
	.loc 1 432 18
	sb	zero,0(a5)
	.loc 1 433 7
	ld	a5,-32(s0)
	addi	a5,a5,18
	li	a2,17
	mv	a1,a5
	ld	a0,-72(s0)
	call	AsciiStrToUnicodeStrS@plt
	.loc 1 435 7
	ld	a0,-32(s0)
	call	BmEliminateExtraSpaces
	.loc 1 411 8
	j	.L62
.L64:
	.loc 1 437 36
	ld	a5,-96(s0)
	.loc 1 437 14
	la	a1,gEfiDiskInfoSdMmcInterfaceGuid
	mv	a0,a5
	call	CompareGuid@plt
	mv	a5,a0
	.loc 1 437 13 discriminator 1
	beq	a5,zero,.L62
	.loc 1 438 18
	ld	a0,-760(s0)
	call	DevicePathFromHandle@plt
	sd	a0,-40(s0)
	.loc 1 439 8
	ld	a5,-40(s0)
	bne	a5,zero,.L67
	.loc 1 440 14
	li	a5,0
	j	.L77
.L69:
	.loc 1 444 20
	ld	a0,-40(s0)
	call	NextDevicePathNode@plt
	sd	a0,-40(s0)
.L67:
	.loc 1 443 13
	ld	a0,-40(s0)
	call	IsDevicePathEnd@plt
	mv	a5,a0
	.loc 1 443 42 discriminator 1
	bne	a5,zero,.L68
	.loc 1 443 46 discriminator 2
	ld	a0,-40(s0)
	call	DevicePathType@plt
	mv	a5,a0
	.loc 1 443 42 discriminator 3
	mv	a4,a5
	li	a5,3
	bne	a4,a5,.L69
.L68:
	.loc 1 447 9
	ld	a0,-40(s0)
	call	IsDevicePathEnd@plt
	mv	a5,a0
	.loc 1 447 8 discriminator 1
	beq	a5,zero,.L70
	.loc 1 448 14
	li	a5,0
	j	.L77
.L70:
	.loc 1 451 9
	ld	a0,-40(s0)
	call	DevicePathSubType@plt
	mv	a5,a0
	.loc 1 451 8 discriminator 1
	mv	a4,a5
	li	a5,26
	bne	a4,a5,.L71
	.loc 1 452 18
	li	a5,16
	sw	a5,-100(s0)
	.loc 1 453 24
	ld	a5,-96(s0)
	ld	a5,16(a5)
	.loc 1 453 16
	ld	a4,-96(s0)
	addi	a2,s0,-100
	addi	a3,s0,-728
	mv	a1,a3
	mv	a0,a4
	jalr	a5
.LVL3:
	sd	a0,-64(s0)
	.loc 1 454 38
	ld	a5,-64(s0)
	.loc 1 454 10
	bge	a5,zero,.L72
	.loc 1 455 16
	li	a5,0
	j	.L77
.L72:
	.loc 1 458 21
	lbu	a5,-713(s0)
	li	a1,0
	mv	a0,a5
	call	BmGetSdMmcManufacturerName
	.loc 1 458 21 is_stmt 0 discriminator 1
	addi	a5,s0,-728
	addi	a3,a5,3
	addi	a5,s0,-728
	addi	a5,a5,8
	lla	a4,mBootDescSd
	li	a2,5
	mv	a1,a5
	call	BmGetSdMmcDescription
	sd	a0,-32(s0)
	j	.L73
.L71:
	.loc 1 465 16 is_stmt 1
	ld	a0,-40(s0)
	call	DevicePathSubType@plt
	mv	a5,a0
	.loc 1 465 15 discriminator 1
	mv	a4,a5
	li	a5,29
	bne	a4,a5,.L74
	.loc 1 466 18
	li	a5,16
	sw	a5,-100(s0)
	.loc 1 467 24
	ld	a5,-96(s0)
	ld	a5,16(a5)
	.loc 1 467 16
	ld	a4,-96(s0)
	addi	a2,s0,-100
	addi	a3,s0,-744
	mv	a1,a3
	mv	a0,a4
	jalr	a5
.LVL4:
	sd	a0,-64(s0)
	.loc 1 468 38
	ld	a5,-64(s0)
	.loc 1 468 10
	bge	a5,zero,.L75
	.loc 1 469 16
	li	a5,0
	j	.L77
.L75:
	.loc 1 472 19
	lla	a5,mBootDescEmmc
	sd	a5,-32(s0)
	.loc 1 474 20
	ld	a0,-40(s0)
	call	NextDevicePathNode@plt
	sd	a0,-40(s0)
	.loc 1 475 21
	ld	a5,-40(s0)
	lbu	a5,1(a5)
	.loc 1 475 10
	mv	a4,a5
	li	a5,5
	bne	a4,a5,.L76
	.loc 1 476 23
	ld	a0,-40(s0)
	call	BmGetEmmcTypeDescription
	sd	a0,-32(s0)
.L76:
	.loc 1 479 21
	lbu	a5,-729(s0)
	li	a1,1
	mv	a0,a5
	call	BmGetSdMmcManufacturerName
	.loc 1 479 21 is_stmt 0 discriminator 1
	addi	a5,s0,-744
	addi	a3,a5,2
	addi	a5,s0,-744
	addi	a5,a5,7
	ld	a4,-32(s0)
	li	a2,6
	mv	a1,a5
	call	BmGetSdMmcDescription
	sd	a0,-32(s0)
	j	.L73
.L74:
	.loc 1 487 14 is_stmt 1
	li	a5,0
	j	.L77
.L73:
	.loc 1 490 19
	ld	a0,-32(s0)
	call	StrSize@plt
	mv	a5,a0
	.loc 1 490 19 is_stmt 0 discriminator 1
	ld	a1,-32(s0)
	mv	a0,a5
	call	AllocateCopyPool@plt
	sd	a0,-32(s0)
.L62:
	.loc 1 493 10 is_stmt 1
	ld	a5,-32(s0)
.L77:
	.loc 1 494 1
	mv	a0,a5
	ld	ra,760(sp)
	.cfi_restore 1
	ld	s0,752(sp)
	.cfi_restore 8
	.cfi_def_cfa 2, 768
	addi	sp,sp,768
	.cfi_def_cfa_offset 0
	jr	ra
	.cfi_endproc
.LFE6:
	.size	BmGetDescriptionFromDiskInfo, .-BmGetDescriptionFromDiskInfo
	.section	.rodata
	.align	3
.LC24:
	.string	" "
	.zero	2
	.section	.text.BmGetUsbDescription,"ax",@progbits
	.align	1
	.globl	BmGetUsbDescription
	.type	BmGetUsbDescription, @function
BmGetUsbDescription:
.LFB7:
	.loc 1 507 1
	.cfi_startproc
	addi	sp,sp,-144
	.cfi_def_cfa_offset 144
	sd	ra,136(sp)
	sd	s0,128(sp)
	sd	s1,120(sp)
	.cfi_offset 1, -8
	.cfi_offset 8, -16
	.cfi_offset 9, -24
	addi	s0,sp,144
	.cfi_def_cfa 8, 0
	sd	a0,-136(s0)
	.loc 1 518 15
	la	a5,gBS
	ld	a5,0(a5)
	ld	a5,152(a5)
	.loc 1 518 12
	addi	a4,s0,-64
	mv	a2,a4
	la	a1,gEfiUsbIoProtocolGuid
	ld	a0,-136(s0)
	jalr	a5
.LVL5:
	sd	a0,-40(s0)
	.loc 1 523 34
	ld	a5,-40(s0)
	.loc 1 523 6
	bge	a5,zero,.L79
	.loc 1 524 12
	li	a5,0
	j	.L89
.L79:
	.loc 1 527 12
	sh	zero,-66(s0)
	.loc 1 529 17
	ld	a5,-64(s0)
	ld	a5,48(a5)
	.loc 1 529 12
	ld	a4,-64(s0)
	addi	a3,s0,-120
	mv	a1,a3
	mv	a0,a4
	jalr	a5
.LVL6:
	sd	a0,-40(s0)
	.loc 1 530 34
	ld	a5,-40(s0)
	.loc 1 530 6
	bge	a5,zero,.L81
	.loc 1 531 12
	li	a5,0
	j	.L89
.L81:
	.loc 1 534 17
	ld	a5,-64(s0)
	ld	a5,80(a5)
	.loc 1 534 12
	ld	a4,-64(s0)
	li	a1,1033
	lbu	a2,-106(s0)
	addi	a3,s0,-80
	mv	a0,a4
	jalr	a5
.LVL7:
	sd	a0,-40(s0)
	.loc 1 540 34
	ld	a5,-40(s0)
	.loc 1 540 6
	bge	a5,zero,.L82
	.loc 1 541 18
	addi	a5,s0,-66
	sd	a5,-80(s0)
.L82:
	.loc 1 544 17
	ld	a5,-64(s0)
	ld	a5,80(a5)
	.loc 1 544 12
	ld	a4,-64(s0)
	li	a1,1033
	lbu	a2,-105(s0)
	addi	a3,s0,-88
	mv	a0,a4
	jalr	a5
.LVL8:
	sd	a0,-40(s0)
	.loc 1 550 34
	ld	a5,-40(s0)
	.loc 1 550 6
	bge	a5,zero,.L83
	.loc 1 551 13
	addi	a5,s0,-66
	sd	a5,-88(s0)
.L83:
	.loc 1 554 17
	ld	a5,-64(s0)
	ld	a5,80(a5)
	.loc 1 554 12
	ld	a4,-64(s0)
	li	a1,1033
	lbu	a2,-104(s0)
	addi	a3,s0,-96
	mv	a0,a4
	jalr	a5
.LVL9:
	sd	a0,-40(s0)
	.loc 1 560 34
	ld	a5,-40(s0)
	.loc 1 560 6
	bge	a5,zero,.L84
	.loc 1 561 18
	addi	a5,s0,-66
	sd	a5,-96(s0)
.L84:
	.loc 1 564 21
	ld	a4,-80(s0)
	.loc 1 564 6
	addi	a5,s0,-66
	bne	a4,a5,.L85
	.loc 1 565 16
	ld	a4,-88(s0)
	.loc 1 564 35 discriminator 1
	addi	a5,s0,-66
	bne	a4,a5,.L85
	.loc 1 566 21
	ld	a4,-96(s0)
	.loc 1 565 30
	addi	a5,s0,-66
	bne	a4,a5,.L85
	.loc 1 569 12
	li	a5,0
	j	.L89
.L85:
	.loc 1 572 17
	ld	a5,-80(s0)
	mv	a0,a5
	call	StrSize@plt
	mv	s1,a0
	.loc 1 572 42 discriminator 1
	ld	a5,-88(s0)
	mv	a0,a5
	call	StrSize@plt
	mv	a5,a0
	.loc 1 572 40 discriminator 2
	add	s1,s1,a5
	.loc 1 572 62 discriminator 2
	ld	a5,-96(s0)
	mv	a0,a5
	call	StrSize@plt
	mv	a5,a0
	.loc 1 572 15 discriminator 3
	add	a5,s1,a5
	sd	a5,-48(s0)
	.loc 1 573 17
	ld	a0,-48(s0)
	call	AllocateZeroPool@plt
	sd	a0,-56(s0)
	.loc 1 575 36
	ld	a5,-48(s0)
	srli	a5,a5,1
	.loc 1 575 3
	ld	a4,-80(s0)
	mv	a2,a4
	mv	a1,a5
	ld	a0,-56(s0)
	call	StrCatS@plt
	.loc 1 576 36
	ld	a5,-48(s0)
	srli	a5,a5,1
	.loc 1 576 3
	lla	a2,.LC24
	mv	a1,a5
	ld	a0,-56(s0)
	call	StrCatS@plt
	.loc 1 578 36
	ld	a5,-48(s0)
	srli	a5,a5,1
	.loc 1 578 3
	ld	a4,-88(s0)
	mv	a2,a4
	mv	a1,a5
	ld	a0,-56(s0)
	call	StrCatS@plt
	.loc 1 579 36
	ld	a5,-48(s0)
	srli	a5,a5,1
	.loc 1 579 3
	lla	a2,.LC24
	mv	a1,a5
	ld	a0,-56(s0)
	call	StrCatS@plt
	.loc 1 581 36
	ld	a5,-48(s0)
	srli	a5,a5,1
	.loc 1 581 3
	ld	a4,-96(s0)
	mv	a2,a4
	mv	a1,a5
	ld	a0,-56(s0)
	call	StrCatS@plt
	.loc 1 583 20
	ld	a4,-80(s0)
	.loc 1 583 6
	addi	a5,s0,-66
	beq	a4,a5,.L86
	.loc 1 584 5
	ld	a5,-80(s0)
	mv	a0,a5
	call	FreePool@plt
.L86:
	.loc 1 587 15
	ld	a4,-88(s0)
	.loc 1 587 6
	addi	a5,s0,-66
	beq	a4,a5,.L87
	.loc 1 588 5
	ld	a5,-88(s0)
	mv	a0,a5
	call	FreePool@plt
.L87:
	.loc 1 591 20
	ld	a4,-96(s0)
	.loc 1 591 6
	addi	a5,s0,-66
	beq	a4,a5,.L88
	.loc 1 592 5
	ld	a5,-96(s0)
	mv	a0,a5
	call	FreePool@plt
.L88:
	.loc 1 595 3
	ld	a0,-56(s0)
	call	BmEliminateExtraSpaces
	.loc 1 597 10
	ld	a5,-56(s0)
.L89:
	.loc 1 598 1
	mv	a0,a5
	ld	ra,136(sp)
	.cfi_restore 1
	ld	s0,128(sp)
	.cfi_restore 8
	.cfi_def_cfa 2, 144
	ld	s1,120(sp)
	.cfi_restore 9
	addi	sp,sp,144
	.cfi_def_cfa_offset 0
	jr	ra
	.cfi_endproc
.LFE7:
	.size	BmGetUsbDescription, .-BmGetUsbDescription
	.section	.rodata
	.align	3
.LC25:
	.string	"%"
	.string	"s"
	.string	"v"
	.string	"%"
	.string	"d"
	.string	" "
	.string	"("
	.string	"M"
	.string	"A"
	.string	"C"
	.string	":"
	.string	"%"
	.string	"0"
	.string	"2"
	.string	"x"
	.string	"%"
	.string	"0"
	.string	"2"
	.string	"x"
	.string	"%"
	.string	"0"
	.string	"2"
	.string	"x"
	.string	"%"
	.string	"0"
	.string	"2"
	.string	"x"
	.string	"%"
	.string	"0"
	.string	"2"
	.string	"x"
	.string	"%"
	.string	"0"
	.string	"2"
	.string	"x"
	.string	")"
	.zero	2
	.align	3
.LC26:
	.string	"%"
	.string	"s"
	.string	"v"
	.string	"%"
	.string	"d"
	.string	" "
	.string	"("
	.string	"M"
	.string	"A"
	.string	"C"
	.string	":"
	.string	"%"
	.string	"0"
	.string	"2"
	.string	"x"
	.string	"%"
	.string	"0"
	.string	"2"
	.string	"x"
	.string	"%"
	.string	"0"
	.string	"2"
	.string	"x"
	.string	"%"
	.string	"0"
	.string	"2"
	.string	"x"
	.string	"%"
	.string	"0"
	.string	"2"
	.string	"x"
	.string	"%"
	.string	"0"
	.string	"2"
	.string	"x"
	.string	" "
	.string	"V"
	.string	"L"
	.string	"A"
	.string	"N"
	.string	"%"
	.string	"d"
	.string	")"
	.zero	2
	.align	3
.LC27:
	.string	"P"
	.string	"X"
	.string	"E"
	.zero	2
	.align	3
.LC28:
	.string	"H"
	.string	"T"
	.string	"T"
	.string	"P"
	.zero	2
	.section	.text.BmGetNetworkDescription,"ax",@progbits
	.align	1
	.globl	BmGetNetworkDescription
	.type	BmGetNetworkDescription, @function
BmGetNetworkDescription:
.LFB8:
	.loc 1 611 1
	.cfi_startproc
	addi	sp,sp,-144
	.cfi_def_cfa_offset 144
	sd	ra,136(sp)
	sd	s0,128(sp)
	sd	s1,120(sp)
	sd	s2,112(sp)
	.cfi_offset 1, -8
	.cfi_offset 8, -16
	.cfi_offset 9, -24
	.cfi_offset 18, -32
	addi	s0,sp,144
	.cfi_def_cfa 8, 0
	sd	a0,-104(s0)
	.loc 1 621 15
	la	a5,gBS
	ld	a5,0(a5)
	ld	a6,280(a5)
	.loc 1 621 12
	la	a5,gImageHandle
	ld	a3,0(a5)
	li	a5,4
	ld	a4,-104(s0)
	li	a2,0
	la	a1,gEfiLoadFileProtocolGuid
	ld	a0,-104(s0)
	jalr	a6
.LVL10:
	sd	a0,-64(s0)
	.loc 1 629 34
	ld	a5,-64(s0)
	.loc 1 629 6
	bge	a5,zero,.L91
	.loc 1 630 12
	li	a5,0
	j	.L117
.L91:
	.loc 1 633 15
	la	a5,gBS
	ld	a5,0(a5)
	ld	a6,280(a5)
	.loc 1 633 12
	la	a5,gImageHandle
	ld	a3,0(a5)
	addi	a2,s0,-96
	li	a5,2
	ld	a4,-104(s0)
	la	a1,gEfiDevicePathProtocolGuid
	ld	a0,-104(s0)
	jalr	a6
.LVL11:
	sd	a0,-64(s0)
	.loc 1 641 34
	ld	a5,-64(s0)
	.loc 1 641 6
	blt	a5,zero,.L93
	.loc 1 641 75 discriminator 1
	ld	a5,-96(s0)
	.loc 1 641 60 discriminator 1
	bne	a5,zero,.L95
.L93:
	.loc 1 642 12
	li	a5,0
	j	.L117
.L97:
	.loc 1 660 18
	ld	a5,-96(s0)
	mv	a0,a5
	call	NextDevicePathNode@plt
	mv	a5,a0
	.loc 1 660 16 discriminator 1
	sd	a5,-96(s0)
.L95:
	.loc 1 655 11
	ld	a5,-96(s0)
	mv	a0,a5
	call	IsDevicePathEnd@plt
	mv	a5,a0
	.loc 1 655 40 discriminator 1
	bne	a5,zero,.L96
	.loc 1 656 12
	ld	a5,-96(s0)
	mv	a0,a5
	call	DevicePathType@plt
	mv	a5,a0
	.loc 1 655 40 discriminator 2
	mv	a4,a5
	li	a5,3
	bne	a4,a5,.L97
	.loc 1 657 12
	ld	a5,-96(s0)
	mv	a0,a5
	call	DevicePathSubType@plt
	mv	a5,a0
	.loc 1 656 49
	mv	a4,a5
	li	a5,11
	bne	a4,a5,.L97
.L96:
	.loc 1 663 7
	ld	a5,-96(s0)
	mv	a0,a5
	call	IsDevicePathEnd@plt
	mv	a5,a0
	.loc 1 663 6 discriminator 1
	beq	a5,zero,.L98
	.loc 1 664 12
	li	a5,0
	j	.L117
.L98:
	.loc 1 667 7
	ld	a5,-96(s0)
	sd	a5,-72(s0)
	.loc 1 668 16
	ld	a5,-96(s0)
	mv	a0,a5
	call	NextDevicePathNode@plt
	mv	a5,a0
	.loc 1 668 14 discriminator 1
	sd	a5,-96(s0)
	.loc 1 673 8
	ld	a5,-96(s0)
	mv	a0,a5
	call	DevicePathType@plt
	mv	a5,a0
	.loc 1 673 6 discriminator 1
	mv	a4,a5
	li	a5,3
	bne	a4,a5,.L99
	.loc 1 674 8
	ld	a5,-96(s0)
	mv	a0,a5
	call	DevicePathSubType@plt
	mv	a5,a0
	.loc 1 673 45 discriminator 2
	mv	a4,a5
	li	a5,20
	bne	a4,a5,.L99
	.loc 1 677 10
	ld	a5,-96(s0)
	sd	a5,-40(s0)
	.loc 1 678 18
	ld	a5,-96(s0)
	mv	a0,a5
	call	NextDevicePathNode@plt
	mv	a5,a0
	.loc 1 678 16 discriminator 1
	sd	a5,-96(s0)
	.loc 1 678 16 is_stmt 0
	j	.L100
.L99:
	.loc 1 680 10 is_stmt 1
	sd	zero,-40(s0)
.L100:
	.loc 1 686 8
	ld	a5,-96(s0)
	mv	a0,a5
	call	DevicePathType@plt
	mv	a5,a0
	.loc 1 686 6 discriminator 1
	mv	a4,a5
	li	a5,3
	bne	a4,a5,.L101
	.loc 1 687 8
	ld	a5,-96(s0)
	mv	a0,a5
	call	DevicePathSubType@plt
	mv	a5,a0
	.loc 1 686 45 discriminator 2
	mv	a4,a5
	li	a5,28
	bne	a4,a5,.L101
	.loc 1 690 18
	ld	a5,-96(s0)
	mv	a0,a5
	call	NextDevicePathNode@plt
	mv	a5,a0
	.loc 1 690 16 discriminator 1
	sd	a5,-96(s0)
.L101:
	.loc 1 696 8
	ld	a5,-96(s0)
	mv	a0,a5
	call	DevicePathType@plt
	mv	a5,a0
	.loc 1 696 6 discriminator 1
	mv	a4,a5
	li	a5,3
	bne	a4,a5,.L102
	.loc 1 697 9
	ld	a5,-96(s0)
	mv	a0,a5
	call	DevicePathSubType@plt
	mv	a5,a0
	.loc 1 696 45 discriminator 2
	mv	a4,a5
	li	a5,12
	beq	a4,a5,.L103
	.loc 1 698 9
	ld	a5,-96(s0)
	mv	a0,a5
	call	DevicePathSubType@plt
	mv	a5,a0
	.loc 1 697 49
	mv	a4,a5
	li	a5,13
	bne	a4,a5,.L102
.L103:
	.loc 1 701 8
	ld	a5,-96(s0)
	sd	a5,-48(s0)
	.loc 1 702 18
	ld	a5,-96(s0)
	mv	a0,a5
	call	NextDevicePathNode@plt
	mv	a5,a0
	.loc 1 702 16 discriminator 1
	sd	a5,-96(s0)
	.loc 1 702 16 is_stmt 0
	j	.L104
.L102:
	.loc 1 704 8 is_stmt 1
	sd	zero,-48(s0)
.L104:
	.loc 1 710 8
	ld	a5,-96(s0)
	mv	a0,a5
	call	DevicePathType@plt
	mv	a5,a0
	.loc 1 710 6 discriminator 1
	mv	a4,a5
	li	a5,3
	bne	a4,a5,.L105
	.loc 1 711 8
	ld	a5,-96(s0)
	mv	a0,a5
	call	DevicePathSubType@plt
	mv	a5,a0
	.loc 1 710 45 discriminator 2
	mv	a4,a5
	li	a5,31
	bne	a4,a5,.L105
	.loc 1 714 18
	ld	a5,-96(s0)
	mv	a0,a5
	call	NextDevicePathNode@plt
	mv	a5,a0
	.loc 1 714 16 discriminator 1
	sd	a5,-96(s0)
.L105:
	.loc 1 720 8
	ld	a5,-96(s0)
	mv	a0,a5
	call	DevicePathType@plt
	mv	a5,a0
	.loc 1 720 6 discriminator 1
	mv	a4,a5
	li	a5,3
	bne	a4,a5,.L106
	.loc 1 721 8
	ld	a5,-96(s0)
	mv	a0,a5
	call	DevicePathSubType@plt
	mv	a5,a0
	.loc 1 720 45 discriminator 2
	mv	a4,a5
	li	a5,24
	bne	a4,a5,.L106
	.loc 1 724 9
	ld	a5,-96(s0)
	sd	a5,-56(s0)
	.loc 1 725 18
	ld	a5,-96(s0)
	mv	a0,a5
	call	NextDevicePathNode@plt
	mv	a5,a0
	.loc 1 725 16 discriminator 1
	sd	a5,-96(s0)
	.loc 1 725 16 is_stmt 0
	j	.L107
.L106:
	.loc 1 727 9 is_stmt 1
	sd	zero,-56(s0)
.L107:
	.loc 1 735 19
	li	a5,72
	sd	a5,-80(s0)
	.loc 1 736 17
	ld	a0,-80(s0)
	call	AllocatePool@plt
	sd	a0,-88(s0)
	.loc 1 738 3
	ld	a5,-40(s0)
	bne	a5,zero,.L108
	.loc 1 738 3 is_stmt 0 discriminator 1
	lla	s1,.LC25
	j	.L109
.L108:
	.loc 1 738 3 discriminator 2
	lla	s1,.LC26
.L109:
	.loc 1 738 3 discriminator 4
	ld	a5,-56(s0)
	bne	a5,zero,.L110
	.loc 1 738 3 discriminator 5
	lla	s2,.LC27
	j	.L111
.L110:
	.loc 1 738 3 discriminator 6
	lla	s2,.LC28
.L111:
	.loc 1 738 3 discriminator 8
	ld	a5,-48(s0)
	beq	a5,zero,.L112
	.loc 1 745 31 is_stmt 1
	ld	a0,-48(s0)
	call	DevicePathSubType@plt
	mv	a5,a0
	.loc 1 745 27 discriminator 1
	mv	a4,a5
	li	a5,12
	bne	a4,a5,.L113
.L112:
	.loc 1 738 3 discriminator 9
	li	a4,4
	.loc 1 738 3 is_stmt 0
	j	.L114
.L113:
	.loc 1 738 3 discriminator 11
	li	a4,6
.L114:
	.loc 1 746 25 is_stmt 1
	ld	a5,-72(s0)
	lbu	a5,4(a5)
	.loc 1 738 3 discriminator 10
	sext.w	t1,a5
	.loc 1 747 25
	ld	a5,-72(s0)
	lbu	a5,5(a5)
	.loc 1 738 3 discriminator 10
	sext.w	a6,a5
	.loc 1 748 25
	ld	a5,-72(s0)
	lbu	a5,6(a5)
	.loc 1 738 3 discriminator 10
	sext.w	a7,a5
	.loc 1 749 25
	ld	a5,-72(s0)
	lbu	a5,7(a5)
	.loc 1 738 3 discriminator 10
	sext.w	a3,a5
	.loc 1 750 25
	ld	a5,-72(s0)
	lbu	a5,8(a5)
	.loc 1 738 3 discriminator 10
	sext.w	a2,a5
	.loc 1 751 25
	ld	a5,-72(s0)
	lbu	a5,9(a5)
	.loc 1 738 3 discriminator 10
	sext.w	a1,a5
	ld	a5,-40(s0)
	beq	a5,zero,.L115
	.loc 1 752 38
	ld	a5,-40(s0)
	lbu	a0,4(a5)
	lbu	a5,5(a5)
	slli	a5,a5,8
	or	a5,a5,a0
	slli	a5,a5,48
	srli	a5,a5,48
	.loc 1 738 3 discriminator 12
	sext.w	a5,a5
	j	.L116
.L115:
	.loc 1 738 3 is_stmt 0 discriminator 13
	li	a5,0
.L116:
	.loc 1 738 3 discriminator 15
	sd	a5,24(sp)
	sd	a1,16(sp)
	sd	a2,8(sp)
	sd	a3,0(sp)
	mv	a5,t1
	mv	a3,s2
	mv	a2,s1
	ld	a1,-80(s0)
	ld	a0,-88(s0)
	call	UnicodeSPrint@plt
	.loc 1 754 10 is_stmt 1
	ld	a5,-88(s0)
.L117:
	.loc 1 755 1
	mv	a0,a5
	ld	ra,136(sp)
	.cfi_restore 1
	ld	s0,128(sp)
	.cfi_restore 8
	.cfi_def_cfa 2, 144
	ld	s1,120(sp)
	.cfi_restore 9
	ld	s2,112(sp)
	.cfi_restore 18
	addi	sp,sp,144
	.cfi_def_cfa_offset 0
	jr	ra
	.cfi_endproc
.LFE8:
	.size	BmGetNetworkDescription, .-BmGetNetworkDescription
	.section	.text.BmGetLoadFileDescription,"ax",@progbits
	.align	1
	.globl	BmGetLoadFileDescription
	.type	BmGetLoadFileDescription, @function
BmGetLoadFileDescription:
.LFB9:
	.loc 1 768 1
	.cfi_startproc
	addi	sp,sp,-80
	.cfi_def_cfa_offset 80
	sd	ra,72(sp)
	sd	s0,64(sp)
	.cfi_offset 1, -8
	.cfi_offset 8, -16
	addi	s0,sp,80
	.cfi_def_cfa 8, 0
	sd	a0,-72(s0)
	.loc 1 775 15
	la	a5,gBS
	ld	a5,0(a5)
	ld	a5,152(a5)
	.loc 1 775 12
	addi	a4,s0,-56
	mv	a2,a4
	la	a1,gEfiLoadFileProtocolGuid
	ld	a0,-72(s0)
	jalr	a5
.LVL12:
	sd	a0,-40(s0)
	.loc 1 776 34
	ld	a5,-40(s0)
	.loc 1 776 6
	bge	a5,zero,.L119
	.loc 1 777 12
	li	a5,0
	j	.L126
.L119:
	.loc 1 783 15
	sd	zero,-32(s0)
	.loc 1 784 15
	la	a5,gBS
	ld	a5,0(a5)
	ld	a5,152(a5)
	.loc 1 784 12
	addi	a4,s0,-48
	mv	a2,a4
	la	a1,gEfiDevicePathProtocolGuid
	ld	a0,-72(s0)
	jalr	a5
.LVL13:
	sd	a0,-40(s0)
	.loc 1 785 7
	ld	a5,-40(s0)
	.loc 1 785 6
	blt	a5,zero,.L121
	.loc 1 786 20
	ld	a5,-48(s0)
	sd	a5,-24(s0)
	.loc 1 787 11
	j	.L122
.L124:
	.loc 1 788 26
	ld	a5,-24(s0)
	lbu	a5,0(a5)
	.loc 1 788 10
	mv	a4,a5
	li	a5,4
	bne	a4,a5,.L123
	.loc 1 788 60 discriminator 1
	ld	a5,-24(s0)
	lbu	a5,1(a5)
	.loc 1 788 42 discriminator 1
	mv	a4,a5
	li	a5,4
	bne	a4,a5,.L123
	.loc 1 789 21
	ld	a5,-24(s0)
	addi	a5,a5,4
	sd	a5,-32(s0)
	.loc 1 790 9
	j	.L121
.L123:
	.loc 1 793 24
	ld	a0,-24(s0)
	call	NextDevicePathNode@plt
	sd	a0,-24(s0)
.L122:
	.loc 1 787 13
	ld	a0,-24(s0)
	call	IsDevicePathEnd@plt
	mv	a5,a0
	.loc 1 787 12 discriminator 1
	beq	a5,zero,.L124
.L121:
	.loc 1 797 6
	ld	a5,-32(s0)
	beq	a5,zero,.L125
	.loc 1 798 12
	ld	a0,-32(s0)
	call	StrSize@plt
	mv	a5,a0
	.loc 1 798 12 is_stmt 0 discriminator 1
	ld	a1,-32(s0)
	mv	a0,a5
	call	AllocateCopyPool@plt
	mv	a5,a0
	.loc 1 798 12
	j	.L126
.L125:
	.loc 1 801 10 is_stmt 1
	li	a5,0
.L126:
	.loc 1 802 1
	mv	a0,a5
	ld	ra,72(sp)
	.cfi_restore 1
	ld	s0,64(sp)
	.cfi_restore 8
	.cfi_def_cfa 2, 80
	addi	sp,sp,80
	.cfi_def_cfa_offset 0
	jr	ra
	.cfi_endproc
.LFE9:
	.size	BmGetLoadFileDescription, .-BmGetLoadFileDescription
	.section	.text.BmGetNvmeDescription,"ax",@progbits
	.align	1
	.globl	BmGetNvmeDescription
	.type	BmGetNvmeDescription, @function
BmGetNvmeDescription:
.LFB10:
	.loc 1 815 1
	.cfi_startproc
	addi	sp,sp,-208
	.cfi_def_cfa_offset 208
	sd	ra,200(sp)
	sd	s0,192(sp)
	.cfi_offset 1, -8
	.cfi_offset 8, -16
	addi	s0,sp,208
	.cfi_def_cfa 8, 0
	addi	sp,sp,-2048
	addi	sp,sp,-2048
	li	a5,-4096
	addi	a5,a5,-16
	add	a5,a5,s0
	sd	a0,-184(a5)
	.loc 1 827 15
	la	a5,gBS
	ld	a5,0(a5)
	ld	a5,152(a5)
	.loc 1 827 12
	li	a4,-4096
	addi	a4,a4,-16
	add	a4,a4,s0
	ld	a4,-184(a4)
	addi	a3,s0,-64
	mv	a2,a3
	la	a1,gEfiDevicePathProtocolGuid
	mv	a0,a4
	jalr	a5
.LVL14:
	sd	a0,-40(s0)
	.loc 1 828 34
	ld	a5,-40(s0)
	.loc 1 828 6
	bge	a5,zero,.L128
	.loc 1 829 12
	li	a5,0
	j	.L138
.L128:
	.loc 1 832 15
	la	a5,gBS
	ld	a5,0(a5)
	ld	a5,184(a5)
	.loc 1 832 12
	li	a4,-4096
	addi	a4,a4,-184
	addi	a4,a4,-16
	add	a3,a4,s0
	addi	a4,s0,-64
	mv	a2,a3
	mv	a1,a4
	la	a0,gEfiNvmExpressPassThruProtocolGuid
	jalr	a5
.LVL15:
	sd	a0,-40(s0)
	.loc 1 833 34
	ld	a5,-40(s0)
	.loc 1 833 6
	blt	a5,zero,.L130
	.loc 1 834 34
	ld	a5,-64(s0)
	.loc 1 834 8
	mv	a0,a5
	call	DevicePathType@plt
	mv	a5,a0
	.loc 1 833 60 discriminator 1
	mv	a4,a5
	li	a5,3
	bne	a4,a5,.L130
	.loc 1 835 37
	ld	a5,-64(s0)
	.loc 1 835 8
	mv	a0,a5
	call	DevicePathSubType@plt
	mv	a5,a0
	.loc 1 834 53
	mv	a4,a5
	li	a5,23
	beq	a4,a5,.L131
.L130:
	.loc 1 840 12
	li	a5,0
	j	.L138
.L131:
	.loc 1 846 15
	la	a5,gBS
	ld	a5,0(a5)
	ld	a5,152(a5)
	.loc 1 846 12
	li	a4,-4096
	addi	a4,a4,-16
	add	a4,a4,s0
	ld	a4,-184(a4)
	addi	a3,s0,-56
	mv	a2,a3
	la	a1,gEfiNvmExpressPassThruProtocolGuid
	mv	a0,a4
	jalr	a5
.LVL16:
	sd	a0,-40(s0)
	.loc 1 849 3
	addi	a5,s0,-120
	li	a1,56
	mv	a0,a5
	call	ZeroMem@plt
	.loc 1 850 3
	addi	a5,s0,-168
	li	a1,44
	mv	a0,a5
	call	ZeroMem@plt
	.loc 1 851 3
	addi	a5,s0,-184
	li	a1,16
	mv	a0,a5
	call	ZeroMem@plt
	.loc 1 853 23
	li	a5,6
	sb	a5,-168(s0)
	.loc 1 858 16
	sw	zero,-160(s0)
	.loc 1 859 25
	addi	a5,s0,-168
	sd	a5,-80(s0)
	.loc 1 860 32
	addi	a5,s0,-184
	sd	a5,-72(s0)
	.loc 1 861 32
	li	a5,-4096
	addi	a5,a5,-168
	addi	a5,a5,-16
	add	a5,a5,s0
	sd	a5,-112(s0)
	.loc 1 862 32
	li	a5,4096
	sw	a5,-104(s0)
	.loc 1 863 34
	li	a5,9998336
	addi	a1,a5,1664
	li	a0,5
	call	MultU64x32@plt
	mv	a5,a0
	.loc 1 863 32 discriminator 1
	sd	a5,-120(s0)
	.loc 1 864 27
	sb	zero,-84(s0)
	.loc 1 868 17
	li	a5,1
	sw	a5,-148(s0)
	.loc 1 869 17
	li	a5,4
	sb	a5,-164(s0)
	.loc 1 871 24
	ld	a5,-56(s0)
	ld	a5,8(a5)
	.loc 1 871 12
	ld	a4,-56(s0)
	addi	a2,s0,-120
	li	a3,0
	li	a1,0
	mv	a0,a4
	jalr	a5
.LVL17:
	sd	a0,-40(s0)
	.loc 1 877 34
	ld	a5,-40(s0)
	.loc 1 877 6
	bge	a5,zero,.L132
	.loc 1 878 12
	li	a5,0
	j	.L138
.L132:
	.loc 1 881 17
	li	a0,202
	call	AllocateZeroPool@plt
	sd	a0,-48(s0)
	.loc 1 887 6
	ld	a5,-48(s0)
	beq	a5,zero,.L133
	.loc 1 888 10
	ld	a5,-48(s0)
	sd	a5,-24(s0)
	.loc 1 889 16
	sd	zero,-32(s0)
	.loc 1 889 5
	j	.L134
.L135:
	.loc 1 890 44
	li	a5,-4096
	addi	a5,a5,-16
	add	a4,a5,s0
	ld	a5,-32(s0)
	add	a5,a4,a5
	lbu	a3,-144(a5)
	.loc 1 890 13
	ld	a5,-24(s0)
	addi	a4,a5,2
	sd	a4,-24(s0)
	.loc 1 890 19
	mv	a4,a3
	.loc 1 890 17
	sh	a4,0(a5)
	.loc 1 889 98 discriminator 3
	ld	a5,-32(s0)
	addi	a5,a5,1
	sd	a5,-32(s0)
.L134:
	.loc 1 889 27 discriminator 1
	ld	a4,-32(s0)
	li	a5,39
	bleu	a4,a5,.L135
	.loc 1 893 11
	ld	a5,-24(s0)
	addi	a4,a5,2
	sd	a4,-24(s0)
	.loc 1 893 15
	li	a4,32
	sh	a4,0(a5)
	.loc 1 894 16
	sd	zero,-32(s0)
	.loc 1 894 5
	j	.L136
.L137:
	.loc 1 895 44
	li	a5,-4096
	addi	a5,a5,-16
	add	a4,a5,s0
	ld	a5,-32(s0)
	add	a5,a4,a5
	lbu	a3,-164(a5)
	.loc 1 895 13
	ld	a5,-24(s0)
	addi	a4,a5,2
	sd	a4,-24(s0)
	.loc 1 895 19
	mv	a4,a3
	.loc 1 895 17
	sh	a4,0(a5)
	.loc 1 894 98 discriminator 3
	ld	a5,-32(s0)
	addi	a5,a5,1
	sd	a5,-32(s0)
.L136:
	.loc 1 894 27 discriminator 1
	ld	a4,-32(s0)
	li	a5,19
	bleu	a4,a5,.L137
	.loc 1 898 11
	ld	a5,-24(s0)
	addi	a4,a5,2
	sd	a4,-24(s0)
	.loc 1 898 15
	li	a4,32
	sh	a4,0(a5)
	.loc 1 903 17
	ld	a5,-64(s0)
	.loc 1 903 31
	lbu	a4,4(a5)
	lbu	a3,5(a5)
	slli	a3,a3,8
	or	a4,a3,a4
	lbu	a3,6(a5)
	slli	a3,a3,16
	or	a4,a3,a4
	lbu	a5,7(a5)
	slli	a5,a5,24
	or	a5,a5,a4
	sext.w	a5,a5
	.loc 1 899 5
	slli	a5,a5,32
	srli	a5,a5,32
	li	a4,0
	mv	a3,a5
	li	a2,0
	li	a1,78
	ld	a0,-24(s0)
	call	UnicodeValueToStringS@plt
	.loc 1 906 5
	ld	a0,-48(s0)
	call	BmEliminateExtraSpaces
.L133:
	.loc 1 909 10
	ld	a5,-48(s0)
.L138:
	.loc 1 910 1
	mv	a0,a5
	li	t0,4096
	add	sp,sp,t0
	.cfi_def_cfa 2, 208
	ld	ra,200(sp)
	.cfi_restore 1
	ld	s0,192(sp)
	.cfi_restore 8
	addi	sp,sp,208
	.cfi_def_cfa_offset 0
	jr	ra
	.cfi_endproc
.LFE10:
	.size	BmGetNvmeDescription, .-BmGetNvmeDescription
	.section	.rodata
	.align	3
.LC29:
	.string	"F"
	.string	"l"
	.string	"o"
	.string	"p"
	.string	"p"
	.string	"y"
	.zero	2
	.align	3
.LC30:
	.string	"D"
	.string	"V"
	.string	"D"
	.string	"/"
	.string	"C"
	.string	"D"
	.string	"R"
	.string	"O"
	.string	"M"
	.zero	2
	.align	3
.LC31:
	.string	"H"
	.string	"a"
	.string	"r"
	.string	"d"
	.string	" "
	.string	"D"
	.string	"r"
	.string	"i"
	.string	"v"
	.string	"e"
	.zero	2
	.align	3
.LC32:
	.string	"U"
	.string	"S"
	.string	"B"
	.string	" "
	.string	"D"
	.string	"e"
	.string	"v"
	.string	"i"
	.string	"c"
	.string	"e"
	.zero	2
	.align	3
.LC33:
	.string	"S"
	.string	"C"
	.string	"S"
	.string	"I"
	.string	" "
	.string	"D"
	.string	"e"
	.string	"v"
	.string	"i"
	.string	"c"
	.string	"e"
	.zero	2
	.align	3
.LC34:
	.string	"R"
	.string	"e"
	.string	"m"
	.string	"o"
	.string	"v"
	.string	"a"
	.string	"b"
	.string	"l"
	.string	"e"
	.string	" "
	.string	"D"
	.string	"i"
	.string	"s"
	.string	"k"
	.zero	2
	.align	3
.LC35:
	.string	"M"
	.string	"i"
	.string	"s"
	.string	"c"
	.string	" "
	.string	"D"
	.string	"e"
	.string	"v"
	.string	"i"
	.string	"c"
	.string	"e"
	.zero	2
	.align	3
.LC36:
	.string	"N"
	.string	"o"
	.string	"n"
	.string	"-"
	.string	"B"
	.string	"l"
	.string	"o"
	.string	"c"
	.string	"k"
	.string	" "
	.string	"B"
	.string	"o"
	.string	"o"
	.string	"t"
	.string	" "
	.string	"D"
	.string	"e"
	.string	"v"
	.string	"i"
	.string	"c"
	.string	"e"
	.zero	2
	.section	.text.BmGetMiscDescription,"ax",@progbits
	.align	1
	.globl	BmGetMiscDescription
	.type	BmGetMiscDescription, @function
BmGetMiscDescription:
.LFB11:
	.loc 1 923 1
	.cfi_startproc
	addi	sp,sp,-64
	.cfi_def_cfa_offset 64
	sd	ra,56(sp)
	sd	s0,48(sp)
	.cfi_offset 1, -8
	.cfi_offset 8, -16
	addi	s0,sp,64
	.cfi_def_cfa 8, 0
	sd	a0,-56(s0)
	.loc 1 929 11
	ld	a0,-56(s0)
	call	DevicePathFromHandle@plt
	mv	a5,a0
	.loc 1 929 11 is_stmt 0 discriminator 1
	mv	a0,a5
	call	BmDevicePathType
	mv	a5,a0
	.loc 1 929 3 is_stmt 1 discriminator 2
	li	a4,5
	beq	a5,a4,.L140
	li	a4,5
	bgtu	a5,a4,.L141
	li	a4,4
	beq	a5,a4,.L142
	li	a4,4
	bgtu	a5,a4,.L141
	li	a4,3
	bgtu	a5,a4,.L141
	li	a4,2
	bgeu	a5,a4,.L143
	beq	a5,zero,.L144
	li	a4,1
	beq	a5,a4,.L145
	j	.L141
.L144:
	.loc 1 931 19
	lla	a5,.LC29
	sd	a5,-24(s0)
	.loc 1 932 7
	j	.L146
.L143:
	.loc 1 936 19
	la	a5,gBS
	ld	a5,0(a5)
	ld	a5,152(a5)
	.loc 1 936 16
	addi	a4,s0,-40
	mv	a2,a4
	la	a1,gEfiBlockIoProtocolGuid
	ld	a0,-56(s0)
	jalr	a5
.LVL18:
	sd	a0,-32(s0)
	.loc 1 941 28
	ld	a5,-40(s0)
	ld	a5,8(a5)
	.loc 1 941 35
	lbu	a5,4(a5)
	.loc 1 941 67
	beq	a5,zero,.L147
	.loc 1 941 19 discriminator 1
	lla	a5,.LC30
	sd	a5,-24(s0)
	.loc 1 942 7
	j	.L146
.L147:
	.loc 1 941 19 discriminator 2
	lla	a5,.LC31
	sd	a5,-24(s0)
	.loc 1 942 7
	j	.L146
.L142:
	.loc 1 945 19
	lla	a5,.LC32
	sd	a5,-24(s0)
	.loc 1 946 7
	j	.L146
.L140:
	.loc 1 949 19
	lla	a5,.LC33
	sd	a5,-24(s0)
	.loc 1 950 7
	j	.L146
.L145:
	.loc 1 953 19
	la	a5,gBS
	ld	a5,0(a5)
	ld	a5,152(a5)
	.loc 1 953 16
	addi	a4,s0,-40
	mv	a2,a4
	la	a1,gEfiBlockIoProtocolGuid
	ld	a0,-56(s0)
	jalr	a5
.LVL19:
	sd	a0,-32(s0)
	.loc 1 954 11
	ld	a5,-32(s0)
	.loc 1 954 10
	blt	a5,zero,.L149
	.loc 1 955 30
	ld	a5,-40(s0)
	ld	a5,8(a5)
	.loc 1 955 37
	lbu	a5,4(a5)
	.loc 1 955 74
	beq	a5,zero,.L150
	.loc 1 955 21 discriminator 1
	lla	a5,.LC34
	sd	a5,-24(s0)
	.loc 1 960 7
	j	.L146
.L150:
	.loc 1 955 21 discriminator 2
	lla	a5,.LC31
	sd	a5,-24(s0)
	.loc 1 960 7
	j	.L146
.L149:
	.loc 1 957 21
	lla	a5,.LC35
	sd	a5,-24(s0)
	.loc 1 960 7
	j	.L146
.L141:
	.loc 1 963 19
	la	a5,gBS
	ld	a5,0(a5)
	ld	a5,152(a5)
	.loc 1 963 16
	addi	a4,s0,-48
	mv	a2,a4
	la	a1,gEfiSimpleFileSystemProtocolGuid
	ld	a0,-56(s0)
	jalr	a5
.LVL20:
	sd	a0,-32(s0)
	.loc 1 964 11
	ld	a5,-32(s0)
	.loc 1 964 10
	blt	a5,zero,.L152
	.loc 1 965 21
	lla	a5,.LC36
	sd	a5,-24(s0)
	.loc 1 970 7
	j	.L155
.L152:
	.loc 1 967 21
	lla	a5,.LC35
	sd	a5,-24(s0)
.L155:
	.loc 1 970 7
	nop
.L146:
	.loc 1 973 10
	ld	a0,-24(s0)
	call	StrSize@plt
	mv	a5,a0
	.loc 1 973 10 is_stmt 0 discriminator 1
	ld	a1,-24(s0)
	mv	a0,a5
	call	AllocateCopyPool@plt
	mv	a5,a0
	.loc 1 974 1 is_stmt 1
	mv	a0,a5
	ld	ra,56(sp)
	.cfi_restore 1
	ld	s0,48(sp)
	.cfi_restore 8
	.cfi_def_cfa 2, 64
	addi	sp,sp,64
	.cfi_def_cfa_offset 0
	jr	ra
	.cfi_endproc
.LFE11:
	.size	BmGetMiscDescription, .-BmGetMiscDescription
	.section	.text.EfiBootManagerRegisterBootDescriptionHandler,"ax",@progbits
	.align	1
	.globl	EfiBootManagerRegisterBootDescriptionHandler
	.type	EfiBootManagerRegisterBootDescriptionHandler, @function
EfiBootManagerRegisterBootDescriptionHandler:
.LFB12:
	.loc 1 990 1
	.cfi_startproc
	addi	sp,sp,-48
	.cfi_def_cfa_offset 48
	sd	ra,40(sp)
	sd	s0,32(sp)
	.cfi_offset 1, -8
	.cfi_offset 8, -16
	addi	s0,sp,48
	.cfi_def_cfa 8, 0
	sd	a0,-40(s0)
	.loc 1 994 16
	lla	a0,mPlatformBootDescriptionHandlers
	call	GetFirstNode@plt
	sd	a0,-24(s0)
	.loc 1 994 3
	j	.L157
.L162:
	.loc 1 999 15
	ld	a5,-24(s0)
	addi	a5,a5,-8
	.loc 1 999 137
	lw	a4,0(a5)
	.loc 1 999 222
	li	a5,1751412736
	addi	a5,a5,-670
	bne	a4,a5,.L158
	.loc 1 999 11 discriminator 1
	ld	a5,-24(s0)
	addi	a5,a5,-8
	sd	a5,-32(s0)
	j	.L159
.L158:
	.loc 1 999 11 is_stmt 0 discriminator 2
	sd	zero,-32(s0)
.L159:
	.loc 1 1000 14 is_stmt 1
	ld	a5,-32(s0)
	ld	a5,24(a5)
	.loc 1 1000 8
	ld	a4,-40(s0)
	bne	a4,a5,.L160
	.loc 1 1001 14
	li	a5,-1
	slli	a5,a5,63
	addi	a5,a5,20
	j	.L161
.L160:
	.loc 1 996 18
	ld	a1,-24(s0)
	lla	a0,mPlatformBootDescriptionHandlers
	call	GetNextNode@plt
	sd	a0,-24(s0)
.L157:
	.loc 1 995 12
	ld	a1,-24(s0)
	lla	a0,mPlatformBootDescriptionHandlers
	call	IsNull@plt
	mv	a5,a0
	.loc 1 995 11 discriminator 1
	beq	a5,zero,.L162
	.loc 1 1005 11
	li	a0,32
	call	AllocatePool@plt
	sd	a0,-32(s0)
	.loc 1 1006 6
	ld	a5,-32(s0)
	bne	a5,zero,.L163
	.loc 1 1007 12
	li	a5,-1
	slli	a5,a5,63
	addi	a5,a5,9
	j	.L161
.L163:
	.loc 1 1010 20
	ld	a5,-32(s0)
	li	a4,1751412736
	addi	a4,a4,-670
	sw	a4,0(a5)
	.loc 1 1011 18
	ld	a5,-32(s0)
	ld	a4,-40(s0)
	sd	a4,24(a5)
	.loc 1 1012 3
	ld	a5,-32(s0)
	addi	a5,a5,8
	mv	a1,a5
	lla	a0,mPlatformBootDescriptionHandlers
	call	InsertTailList@plt
	.loc 1 1013 10
	li	a5,0
.L161:
	.loc 1 1014 1
	mv	a0,a5
	ld	ra,40(sp)
	.cfi_restore 1
	ld	s0,32(sp)
	.cfi_restore 8
	.cfi_def_cfa 2, 48
	addi	sp,sp,48
	.cfi_def_cfa_offset 0
	jr	ra
	.cfi_endproc
.LFE12:
	.size	EfiBootManagerRegisterBootDescriptionHandler, .-EfiBootManagerRegisterBootDescriptionHandler
	.globl	mBmBootDescriptionHandlers
	.section	.data.rel.local.mBmBootDescriptionHandlers,"aw"
	.align	3
	.type	mBmBootDescriptionHandlers, @object
	.size	mBmBootDescriptionHandlers, 48
mBmBootDescriptionHandlers:
	.dword	BmGetUsbDescription
	.dword	BmGetDescriptionFromDiskInfo
	.dword	BmGetNetworkDescription
	.dword	BmGetLoadFileDescription
	.dword	BmGetNvmeDescription
	.dword	BmGetMiscDescription
	.section	.text.BmGetBootDescription,"ax",@progbits
	.align	1
	.globl	BmGetBootDescription
	.type	BmGetBootDescription, @function
BmGetBootDescription:
.LFB13:
	.loc 1 1036 1
	.cfi_startproc
	addi	sp,sp,-80
	.cfi_def_cfa_offset 80
	sd	ra,72(sp)
	sd	s0,64(sp)
	.cfi_offset 1, -8
	.cfi_offset 8, -16
	addi	s0,sp,80
	.cfi_def_cfa 8, 0
	sd	a0,-72(s0)
	.loc 1 1047 22
	sd	zero,-40(s0)
	.loc 1 1048 14
	sd	zero,-48(s0)
	.loc 1 1048 3
	j	.L165
.L168:
	.loc 1 1049 52
	lla	a4,mBmBootDescriptionHandlers
	ld	a5,-48(s0)
	slli	a5,a5,3
	add	a5,a4,a5
	ld	a5,0(a5)
	.loc 1 1049 26
	ld	a0,-72(s0)
	jalr	a5
.LVL21:
	sd	a0,-40(s0)
	.loc 1 1050 8
	ld	a5,-40(s0)
	beq	a5,zero,.L166
	.loc 1 1055 28
	ld	a0,-40(s0)
	call	StrSize@plt
	mv	a5,a0
	.loc 1 1055 57 discriminator 1
	addi	a5,a5,12
	.loc 1 1055 14 discriminator 1
	mv	a0,a5
	call	AllocatePool@plt
	sd	a0,-56(s0)
	.loc 1 1057 23
	ld	a0,-40(s0)
	call	StrSize@plt
	mv	a5,a0
	.loc 1 1057 52 discriminator 1
	addi	a5,a5,12
	.loc 1 1057 78 discriminator 1
	srli	a5,a5,1
	.loc 1 1057 7 discriminator 1
	lla	a2,mBmUefiPrefix
	mv	a1,a5
	ld	a0,-56(s0)
	call	StrCpyS@plt
	.loc 1 1058 23
	ld	a0,-40(s0)
	call	StrSize@plt
	mv	a5,a0
	.loc 1 1058 52 discriminator 1
	addi	a5,a5,12
	.loc 1 1058 78 discriminator 1
	srli	a5,a5,1
	.loc 1 1058 7 discriminator 1
	ld	a2,-40(s0)
	mv	a1,a5
	ld	a0,-56(s0)
	call	StrCatS@plt
	.loc 1 1059 7
	ld	a0,-40(s0)
	call	FreePool@plt
	.loc 1 1060 26
	ld	a5,-56(s0)
	sd	a5,-40(s0)
	.loc 1 1061 7
	j	.L167
.L166:
	.loc 1 1048 114 discriminator 2
	ld	a5,-48(s0)
	addi	a5,a5,1
	sd	a5,-48(s0)
.L165:
	.loc 1 1048 25 discriminator 1
	ld	a4,-48(s0)
	li	a5,5
	bleu	a4,a5,.L168
.L167:
	.loc 1 1070 16
	lla	a0,mPlatformBootDescriptionHandlers
	call	GetFirstNode@plt
	sd	a0,-24(s0)
	.loc 1 1070 3
	j	.L169
.L174:
	.loc 1 1075 15
	ld	a5,-24(s0)
	addi	a5,a5,-8
	.loc 1 1075 137
	lw	a4,0(a5)
	.loc 1 1075 222
	li	a5,1751412736
	addi	a5,a5,-670
	bne	a4,a5,.L170
	.loc 1 1075 11 discriminator 1
	ld	a5,-24(s0)
	addi	a5,a5,-8
	sd	a5,-32(s0)
	j	.L171
.L170:
	.loc 1 1075 11 is_stmt 0 discriminator 2
	sd	zero,-32(s0)
.L171:
	.loc 1 1076 24 is_stmt 1
	ld	a5,-32(s0)
	ld	a5,24(a5)
	.loc 1 1076 19
	ld	a1,-40(s0)
	ld	a0,-72(s0)
	jalr	a5
.LVL22:
	sd	a0,-64(s0)
	.loc 1 1077 8
	ld	a5,-64(s0)
	beq	a5,zero,.L172
	.loc 1 1078 7
	ld	a0,-40(s0)
	call	FreePool@plt
	.loc 1 1079 14
	ld	a5,-64(s0)
	j	.L173
.L172:
	.loc 1 1072 18
	ld	a1,-24(s0)
	lla	a0,mPlatformBootDescriptionHandlers
	call	GetNextNode@plt
	sd	a0,-24(s0)
.L169:
	.loc 1 1071 12
	ld	a1,-24(s0)
	lla	a0,mPlatformBootDescriptionHandlers
	call	IsNull@plt
	mv	a5,a0
	.loc 1 1071 11 discriminator 1
	beq	a5,zero,.L174
	.loc 1 1083 10
	ld	a5,-40(s0)
.L173:
	.loc 1 1084 1
	mv	a0,a5
	ld	ra,72(sp)
	.cfi_restore 1
	ld	s0,64(sp)
	.cfi_restore 8
	.cfi_def_cfa 2, 80
	addi	sp,sp,80
	.cfi_def_cfa_offset 0
	jr	ra
	.cfi_endproc
.LFE13:
	.size	BmGetBootDescription, .-BmGetBootDescription
	.section	.rodata
	.align	3
.LC38:
	.string	"%"
	.string	"s"
	.string	" "
	.string	"%"
	.string	"d"
	.zero	2
	.section	.text.BmMakeBootOptionDescriptionUnique,"ax",@progbits
	.align	1
	.globl	BmMakeBootOptionDescriptionUnique
	.type	BmMakeBootOptionDescriptionUnique, @function
BmMakeBootOptionDescriptionUnique:
.LFB14:
	.loc 1 1098 1
	.cfi_startproc
	addi	sp,sp,-96
	.cfi_def_cfa_offset 96
	sd	ra,88(sp)
	sd	s0,80(sp)
	sd	s1,72(sp)
	.cfi_offset 1, -8
	.cfi_offset 8, -16
	.cfi_offset 9, -24
	addi	s0,sp,96
	.cfi_def_cfa 8, 0
	sd	a0,-88(s0)
	sd	a1,-96(s0)
	.loc 1 1106 6
	ld	a5,-96(s0)
	beq	a5,zero,.L186
	.loc 1 1114 17
	li	a5,2
	sd	a5,-56(s0)
	.loc 1 1115 14
	ld	a5,-96(s0)
	sd	a5,-48(s0)
	.loc 1 1115 3
	j	.L178
.L179:
	.loc 1 1116 19
	ld	a5,-56(s0)
	addi	a5,a5,2
	sd	a5,-56(s0)
	.loc 1 1115 51 discriminator 3
	ld	a4,-48(s0)
	lla	a5,.LC37
	ld	a5,0(a5)
	mulhu	a5,a4,a5
	srli	a5,a5,3
	sd	a5,-48(s0)
.L178:
	.loc 1 1115 39 discriminator 1
	ld	a5,-48(s0)
	bne	a5,zero,.L179
	.loc 1 1119 13
	ld	a0,-96(s0)
	call	AllocateZeroPool@plt
	sd	a0,-72(s0)
	.loc 1 1122 13
	sd	zero,-40(s0)
	.loc 1 1122 3
	j	.L180
.L185:
	.loc 1 1123 17
	ld	a4,-72(s0)
	ld	a5,-40(s0)
	add	a5,a4,a5
	lbu	a5,0(a5)
	.loc 1 1123 8
	bne	a5,zero,.L181
	.loc 1 1124 18
	li	a5,1
	sd	a5,-64(s0)
	.loc 1 1125 14
	ld	a4,-72(s0)
	ld	a5,-40(s0)
	add	a5,a4,a5
	.loc 1 1125 21
	li	a4,1
	sb	a4,0(a5)
	.loc 1 1126 45
	ld	a4,-40(s0)
	li	a5,88
	mul	a5,a4,a5
	ld	a4,-88(s0)
	add	a5,a4,a5
	.loc 1 1126 51
	ld	a5,16(a5)
	.loc 1 1126 25
	mv	a0,a5
	call	StrSize@plt
	sd	a0,-80(s0)
	.loc 1 1127 18
	ld	a5,-40(s0)
	addi	a5,a5,1
	sd	a5,-48(s0)
	.loc 1 1127 7
	j	.L182
.L184:
	.loc 1 1128 21
	ld	a4,-72(s0)
	ld	a5,-48(s0)
	add	a5,a4,a5
	lbu	a5,0(a5)
	.loc 1 1128 12
	bne	a5,zero,.L183
	.loc 1 1128 52 discriminator 1
	ld	a4,-40(s0)
	li	a5,88
	mul	a5,a4,a5
	ld	a4,-88(s0)
	add	a5,a4,a5
	.loc 1 1128 58 discriminator 1
	ld	a3,16(a5)
	.loc 1 1128 83 discriminator 1
	ld	a4,-48(s0)
	li	a5,88
	mul	a5,a4,a5
	ld	a4,-88(s0)
	add	a5,a4,a5
	.loc 1 1128 90 discriminator 1
	ld	a5,16(a5)
	.loc 1 1128 33 discriminator 1
	mv	a1,a5
	mv	a0,a3
	call	StrCmp@plt
	mv	a5,a0
	.loc 1 1128 29 discriminator 2
	bne	a5,zero,.L183
	.loc 1 1129 18
	ld	a4,-72(s0)
	ld	a5,-48(s0)
	add	a5,a4,a5
	.loc 1 1129 26
	li	a4,1
	sb	a4,0(a5)
	.loc 1 1130 21
	ld	a5,-64(s0)
	addi	a5,a5,1
	sd	a5,-64(s0)
	.loc 1 1131 32
	ld	a4,-48(s0)
	li	a5,88
	mul	a5,a4,a5
	ld	a4,-88(s0)
	add	a5,a4,a5
	.loc 1 1131 39
	ld	a5,16(a5)
	.loc 1 1131 11
	mv	a0,a5
	call	FreePool@plt
	.loc 1 1132 44
	ld	a4,-80(s0)
	ld	a5,-56(s0)
	add	a3,a4,a5
	.loc 1 1132 22
	ld	a4,-48(s0)
	li	a5,88
	mul	a5,a4,a5
	ld	a4,-88(s0)
	add	s1,a4,a5
	.loc 1 1132 44
	mv	a0,a3
	call	AllocatePool@plt
	mv	a5,a0
	.loc 1 1132 42 discriminator 1
	sd	a5,16(s1)
	.loc 1 1134 24
	ld	a4,-48(s0)
	li	a5,88
	mul	a5,a4,a5
	ld	a4,-88(s0)
	add	a5,a4,a5
	.loc 1 1133 11
	ld	a0,16(a5)
	ld	a4,-80(s0)
	ld	a5,-56(s0)
	add	a1,a4,a5
	.loc 1 1137 24
	ld	a4,-40(s0)
	li	a5,88
	mul	a5,a4,a5
	ld	a4,-88(s0)
	add	a5,a4,a5
	.loc 1 1133 11
	ld	a5,16(a5)
	ld	a4,-64(s0)
	mv	a3,a5
	lla	a2,.LC38
	call	UnicodeSPrint@plt
.L183:
	.loc 1 1127 60 discriminator 2
	ld	a5,-48(s0)
	addi	a5,a5,1
	sd	a5,-48(s0)
.L182:
	.loc 1 1127 36 discriminator 1
	ld	a4,-48(s0)
	ld	a5,-96(s0)
	bltu	a4,a5,.L184
.L181:
	.loc 1 1122 46 discriminator 2
	ld	a5,-40(s0)
	addi	a5,a5,1
	sd	a5,-40(s0)
.L180:
	.loc 1 1122 23 discriminator 1
	ld	a4,-40(s0)
	ld	a5,-96(s0)
	bltu	a4,a5,.L185
	.loc 1 1145 3
	ld	a0,-72(s0)
	call	FreePool@plt
	j	.L175
.L186:
	.loc 1 1107 5
	nop
.L175:
	.loc 1 1146 1
	ld	ra,88(sp)
	.cfi_restore 1
	ld	s0,80(sp)
	.cfi_restore 8
	.cfi_def_cfa 2, 96
	ld	s1,72(sp)
	.cfi_restore 9
	addi	sp,sp,96
	.cfi_def_cfa_offset 0
	jr	ra
	.cfi_endproc
.LFE14:
	.size	BmMakeBootOptionDescriptionUnique, .-BmMakeBootOptionDescriptionUnique
	.section	.rodata
	.align	3
.LC37:
	.dword	-3689348814741910323
	.text
.Letext0:
	.file 2 "/home/kapoagaeming/Downloads/spacemit-image-builder/components/edk2/MdePkg/Include/RiscV64/ProcessorBind.h"
	.file 3 "/home/kapoagaeming/Downloads/spacemit-image-builder/components/edk2/MdePkg/Include/Base.h"
	.file 4 "/home/kapoagaeming/Downloads/spacemit-image-builder/components/edk2/MdePkg/Include/Uefi/UefiBaseType.h"
	.file 5 "/home/kapoagaeming/Downloads/spacemit-image-builder/components/edk2/MdePkg/Include/Uefi/UefiMultiPhase.h"
	.file 6 "/home/kapoagaeming/Downloads/spacemit-image-builder/components/edk2/MdePkg/Include/IndustryStandard/Bluetooth.h"
	.file 7 "/home/kapoagaeming/Downloads/spacemit-image-builder/components/edk2/MdePkg/Include/Protocol/DevicePath.h"
	.file 8 "/home/kapoagaeming/Downloads/spacemit-image-builder/components/edk2/MdePkg/Include/Uefi/UefiSpec.h"
	.file 9 "/home/kapoagaeming/Downloads/spacemit-image-builder/components/Build/Milk-V-Jupiter/RELEASE_GCC5/RISCV64/MdeModulePkg/Library/UefiBootManagerLib/UefiBootManagerLib/DEBUG/AutoGen.h"
	.file 10 "/home/kapoagaeming/Downloads/spacemit-image-builder/components/edk2/MdePkg/Include/IndustryStandard/Atapi.h"
	.file 11 "/home/kapoagaeming/Downloads/spacemit-image-builder/components/edk2/MdePkg/Include/IndustryStandard/Scsi.h"
	.file 12 "/home/kapoagaeming/Downloads/spacemit-image-builder/components/edk2/MdePkg/Include/IndustryStandard/Nvme.h"
	.file 13 "/home/kapoagaeming/Downloads/spacemit-image-builder/components/edk2/MdePkg/Include/IndustryStandard/Sd.h"
	.file 14 "/home/kapoagaeming/Downloads/spacemit-image-builder/components/edk2/MdePkg/Include/IndustryStandard/Emmc.h"
	.file 15 "/home/kapoagaeming/Downloads/spacemit-image-builder/components/edk2/MdePkg/Include/Protocol/BlockIo.h"
	.file 16 "/home/kapoagaeming/Downloads/spacemit-image-builder/components/edk2/MdePkg/Include/Protocol/SimpleFileSystem.h"
	.file 17 "/home/kapoagaeming/Downloads/spacemit-image-builder/components/edk2/MdePkg/Include/Protocol/LoadFile.h"
	.file 18 "/home/kapoagaeming/Downloads/spacemit-image-builder/components/edk2/MdePkg/Include/IndustryStandard/Usb.h"
	.file 19 "/home/kapoagaeming/Downloads/spacemit-image-builder/components/edk2/MdePkg/Include/Protocol/UsbIo.h"
	.file 20 "/home/kapoagaeming/Downloads/spacemit-image-builder/components/edk2/MdePkg/Include/Protocol/DiskInfo.h"
	.file 21 "/home/kapoagaeming/Downloads/spacemit-image-builder/components/edk2/MdePkg/Include/Protocol/NvmExpressPassthru.h"
	.file 22 "/home/kapoagaeming/Downloads/spacemit-image-builder/components/edk2/MdePkg/Include/Protocol/IdeControllerInit.h"
	.file 23 "/home/kapoagaeming/Downloads/spacemit-image-builder/components/edk2/MdeModulePkg/Include/Library/UefiBootManagerLib.h"
	.file 24 "/home/kapoagaeming/Downloads/spacemit-image-builder/components/edk2/MdePkg/Include/Library/UefiBootServicesTableLib.h"
	.file 25 "/home/kapoagaeming/Downloads/spacemit-image-builder/components/edk2/MdeModulePkg/Library/UefiBootManagerLib/InternalBm.h"
	.file 26 "/home/kapoagaeming/Downloads/spacemit-image-builder/components/edk2/MdePkg/Include/Library/BaseLib.h"
	.file 27 "/home/kapoagaeming/Downloads/spacemit-image-builder/components/edk2/MdePkg/Include/Library/PrintLib.h"
	.file 28 "/home/kapoagaeming/Downloads/spacemit-image-builder/components/edk2/MdePkg/Include/Library/BaseMemoryLib.h"
	.file 29 "/home/kapoagaeming/Downloads/spacemit-image-builder/components/edk2/MdePkg/Include/Library/MemoryAllocationLib.h"
	.file 30 "/home/kapoagaeming/Downloads/spacemit-image-builder/components/edk2/MdePkg/Include/Library/DevicePathLib.h"
	.section	.note.GNU-stack,"",@progbits
