	.file	"BmConnect.c"
	.option pic
	.option norelax
	.attribute arch, "rv64i2p1_m2p0_a2p1_f2p2_d2p2_c2p0_zicsr2p0_zifencei2p0_zmmul1p0_zaamo1p0_zalrsc1p0_zca1p0_zcd1p0"
	.attribute unaligned_access, 0
	.attribute stack_align, 16
	.text
.Ltext0:
	.cfi_sections	.debug_frame
	.file 0 "/home/kapoagaeming/spacemit-image-builder/components/Build/Milk-V-Jupiter/RELEASE_GCC5/RISCV64/MdeModulePkg/Library/UefiBootManagerLib/UefiBootManagerLib" "/home/kapoagaeming/spacemit-image-builder/components/edk2/MdeModulePkg/Library/UefiBootManagerLib/BmConnect.c"
	.section	.text.BmConnectAllDriversToAllControllers,"ax",@progbits
	.align	1
	.globl	BmConnectAllDriversToAllControllers
	.type	BmConnectAllDriversToAllControllers, @function
BmConnectAllDriversToAllControllers:
.LFB0:
	.file 1 "/home/kapoagaeming/spacemit-image-builder/components/edk2/MdeModulePkg/Library/UefiBootManagerLib/BmConnect.c"
	.loc 1 22 1
	.cfi_startproc
	addi	sp,sp,-48
	.cfi_def_cfa_offset 48
	sd	ra,40(sp)
	sd	s0,32(sp)
	.cfi_offset 1, -8
	.cfi_offset 8, -16
	addi	s0,sp,48
	.cfi_def_cfa 8, 0
.L5:
	.loc 1 32 8
	la	a5,gBS
	ld	a5,0(a5)
	ld	a5,312(a5)
	.loc 1 32 5
	addi	a4,s0,-48
	addi	a3,s0,-40
	li	a2,0
	li	a1,0
	li	a0,0
	jalr	a5
.LVL0:
	.loc 1 40 16
	sd	zero,-24(s0)
	.loc 1 40 5
	j	.L2
.L3:
	.loc 1 41 10
	la	a5,gBS
	ld	a5,0(a5)
	ld	a5,264(a5)
	.loc 1 41 43
	ld	a3,-48(s0)
	ld	a4,-24(s0)
	slli	a4,a4,3
	add	a4,a3,a4
	.loc 1 41 7
	ld	a4,0(a4)
	li	a3,1
	li	a2,0
	li	a1,0
	mv	a0,a4
	jalr	a5
.LVL1:
	.loc 1 40 47 discriminator 3
	ld	a5,-24(s0)
	addi	a5,a5,1
	sd	a5,-24(s0)
.L2:
	.loc 1 40 27 discriminator 1
	ld	a5,-40(s0)
	ld	a4,-24(s0)
	bltu	a4,a5,.L3
	.loc 1 44 22
	ld	a5,-48(s0)
	.loc 1 44 8
	beq	a5,zero,.L4
	.loc 1 45 7
	ld	a5,-48(s0)
	mv	a0,a5
	call	FreePool@plt
.L4:
	.loc 1 54 17
	la	a5,gDS
	ld	a5,0(a5)
	ld	a5,128(a5)
	.loc 1 54 14
	jalr	a5
.LVL2:
	sd	a0,-32(s0)
	.loc 1 55 12
	ld	a5,-32(s0)
	bge	a5,zero,.L5
	.loc 1 56 1
	nop
	nop
	ld	ra,40(sp)
	.cfi_restore 1
	ld	s0,32(sp)
	.cfi_restore 8
	.cfi_def_cfa 2, 48
	addi	sp,sp,48
	.cfi_def_cfa_offset 0
	jr	ra
	.cfi_endproc
.LFE0:
	.size	BmConnectAllDriversToAllControllers, .-BmConnectAllDriversToAllControllers
	.section	.text.EfiBootManagerConnectAll,"ax",@progbits
	.align	1
	.globl	EfiBootManagerConnectAll
	.type	EfiBootManagerConnectAll, @function
EfiBootManagerConnectAll:
.LFB1:
	.loc 1 70 1
	.cfi_startproc
	addi	sp,sp,-16
	.cfi_def_cfa_offset 16
	sd	ra,8(sp)
	sd	s0,0(sp)
	.cfi_offset 1, -8
	.cfi_offset 8, -16
	addi	s0,sp,16
	.cfi_def_cfa 8, 0
	.loc 1 74 3
	call	EfiBootManagerConnectAllDefaultConsoles@plt
	.loc 1 79 3
	call	BmConnectAllDriversToAllControllers
	.loc 1 85 3
	call	EfiBootManagerConnectAllDefaultConsoles@plt
	.loc 1 86 1
	nop
	ld	ra,8(sp)
	.cfi_restore 1
	ld	s0,0(sp)
	.cfi_restore 8
	.cfi_def_cfa 2, 16
	addi	sp,sp,16
	.cfi_def_cfa_offset 0
	jr	ra
	.cfi_endproc
.LFE1:
	.size	EfiBootManagerConnectAll, .-EfiBootManagerConnectAll
	.section	.text.EfiBootManagerConnectDevicePath,"ax",@progbits
	.align	1
	.globl	EfiBootManagerConnectDevicePath
	.type	EfiBootManagerConnectDevicePath, @function
EfiBootManagerConnectDevicePath:
.LFB2:
	.loc 1 112 1
	.cfi_startproc
	addi	sp,sp,-80
	.cfi_def_cfa_offset 80
	sd	ra,72(sp)
	sd	s0,64(sp)
	.cfi_offset 1, -8
	.cfi_offset 8, -16
	addi	s0,sp,80
	.cfi_def_cfa 8, 0
	sd	a0,-72(s0)
	sd	a1,-80(s0)
	.loc 1 119 6
	ld	a5,-72(s0)
	bne	a5,zero,.L8
	.loc 1 120 12
	li	a5,-1
	slli	a5,a5,63
	addi	a5,a5,2
	j	.L16
.L8:
	.loc 1 123 16
	call	EfiGetCurrentTpl@plt
	sd	a0,-40(s0)
	.loc 1 127 18
	sd	zero,-32(s0)
.L15:
	.loc 1 134 25
	ld	a5,-72(s0)
	sd	a5,-48(s0)
	.loc 1 135 17
	la	a5,gBS
	ld	a5,0(a5)
	ld	a5,184(a5)
	.loc 1 135 14
	addi	a3,s0,-56
	addi	a4,s0,-48
	mv	a2,a3
	mv	a1,a4
	la	a0,gEfiDevicePathProtocolGuid
	jalr	a5
.LVL3:
	sd	a0,-24(s0)
	.loc 1 136 9
	ld	a5,-24(s0)
	.loc 1 136 8
	blt	a5,zero,.L10
	.loc 1 137 18
	ld	a5,-56(s0)
	.loc 1 137 10
	ld	a4,-32(s0)
	bne	a4,a5,.L11
	.loc 1 145 12
	ld	a4,-40(s0)
	li	a5,4
	bne	a4,a5,.L12
	.loc 1 146 23
	la	a5,gDS
	ld	a5,0(a5)
	ld	a5,128(a5)
	.loc 1 146 20
	jalr	a5
.LVL4:
	sd	a0,-24(s0)
	j	.L11
.L12:
	.loc 1 152 18
	li	a5,-1
	slli	a5,a5,63
	addi	a5,a5,14
	sd	a5,-24(s0)
.L11:
	.loc 1 156 11
	ld	a5,-24(s0)
	.loc 1 156 10
	blt	a5,zero,.L10
	.loc 1 157 24
	ld	a5,-56(s0)
	sd	a5,-32(s0)
	.loc 1 172 21
	la	a5,gBS
	ld	a5,0(a5)
	ld	a5,264(a5)
	.loc 1 172 18
	ld	a4,-56(s0)
	ld	a2,-48(s0)
	li	a3,0
	li	a1,0
	mv	a0,a4
	jalr	a5
.LVL5:
	sd	a0,-24(s0)
	.loc 1 173 12
	ld	a4,-24(s0)
	li	a5,-1
	slli	a5,a5,63
	addi	a5,a5,14
	bne	a4,a5,.L13
	.loc 1 174 18
	sd	zero,-24(s0)
.L13:
	.loc 1 177 12
	ld	a5,-80(s0)
	beq	a5,zero,.L10
	.loc 1 178 27
	ld	a4,-56(s0)
	ld	a5,-80(s0)
	sd	a4,0(a5)
.L10:
	.loc 1 186 12
	ld	a5,-24(s0)
	.loc 1 186 66
	blt	a5,zero,.L14
	.loc 1 186 70 discriminator 1
	ld	a5,-48(s0)
	mv	a0,a5
	call	IsDevicePathEnd@plt
	mv	a5,a0
	.loc 1 186 66 discriminator 2
	beq	a5,zero,.L15
.L14:
	.loc 1 190 10
	ld	a5,-24(s0)
.L16:
	.loc 1 191 1
	mv	a0,a5
	ld	ra,72(sp)
	.cfi_restore 1
	ld	s0,64(sp)
	.cfi_restore 8
	.cfi_def_cfa 2, 80
	addi	sp,sp,80
	.cfi_def_cfa_offset 0
	jr	ra
	.cfi_endproc
.LFE2:
	.size	EfiBootManagerConnectDevicePath, .-EfiBootManagerConnectDevicePath
	.section	.text.EfiBootManagerDisconnectAll,"ax",@progbits
	.align	1
	.globl	EfiBootManagerDisconnectAll
	.type	EfiBootManagerDisconnectAll, @function
EfiBootManagerDisconnectAll:
.LFB3:
	.loc 1 205 1
	.cfi_startproc
	addi	sp,sp,-48
	.cfi_def_cfa_offset 48
	sd	ra,40(sp)
	sd	s0,32(sp)
	.cfi_offset 1, -8
	.cfi_offset 8, -16
	addi	s0,sp,48
	.cfi_def_cfa 8, 0
	.loc 1 213 6
	la	a5,gBS
	ld	a5,0(a5)
	ld	a5,312(a5)
	.loc 1 213 3
	addi	a4,s0,-40
	addi	a3,s0,-32
	li	a2,0
	li	a1,0
	li	a0,0
	jalr	a5
.LVL6:
	.loc 1 220 14
	sd	zero,-24(s0)
	.loc 1 220 3
	j	.L18
.L19:
	.loc 1 221 8
	la	a5,gBS
	ld	a5,0(a5)
	ld	a5,272(a5)
	.loc 1 221 44
	ld	a3,-40(s0)
	ld	a4,-24(s0)
	slli	a4,a4,3
	add	a4,a3,a4
	.loc 1 221 5
	ld	a4,0(a4)
	li	a2,0
	li	a1,0
	mv	a0,a4
	jalr	a5
.LVL7:
	.loc 1 220 45 discriminator 3
	ld	a5,-24(s0)
	addi	a5,a5,1
	sd	a5,-24(s0)
.L18:
	.loc 1 220 25 discriminator 1
	ld	a5,-32(s0)
	ld	a4,-24(s0)
	bltu	a4,a5,.L19
	.loc 1 224 20
	ld	a5,-40(s0)
	.loc 1 224 6
	beq	a5,zero,.L21
	.loc 1 225 5
	ld	a5,-40(s0)
	mv	a0,a5
	call	FreePool@plt
.L21:
	.loc 1 227 1
	nop
	ld	ra,40(sp)
	.cfi_restore 1
	ld	s0,32(sp)
	.cfi_restore 8
	.cfi_def_cfa 2, 48
	addi	sp,sp,48
	.cfi_def_cfa_offset 0
	jr	ra
	.cfi_endproc
.LFE3:
	.size	EfiBootManagerDisconnectAll, .-EfiBootManagerDisconnectAll
	.section	.text.BmConnectUsbShortFormDevicePath,"ax",@progbits
	.align	1
	.globl	BmConnectUsbShortFormDevicePath
	.type	BmConnectUsbShortFormDevicePath, @function
BmConnectUsbShortFormDevicePath:
.LFB4:
	.loc 1 248 1
	.cfi_startproc
	addi	sp,sp,-96
	.cfi_def_cfa_offset 96
	sd	ra,88(sp)
	sd	s0,80(sp)
	.cfi_offset 1, -8
	.cfi_offset 8, -16
	addi	s0,sp,96
	.cfi_def_cfa 8, 0
	sd	a0,-88(s0)
	.loc 1 260 6
	ld	a5,-88(s0)
	bne	a5,zero,.L23
	.loc 1 261 12
	li	a5,-1
	slli	a5,a5,63
	addi	a5,a5,2
	j	.L33
.L23:
	.loc 1 264 8
	ld	a0,-88(s0)
	call	DevicePathType@plt
	mv	a5,a0
	.loc 1 264 6 discriminator 1
	mv	a4,a5
	li	a5,3
	bne	a4,a5,.L25
	.loc 1 265 9
	ld	a0,-88(s0)
	call	DevicePathSubType@plt
	mv	a5,a0
	.loc 1 264 45 discriminator 2
	mv	a4,a5
	li	a5,15
	beq	a4,a5,.L26
	.loc 1 265 53
	ld	a0,-88(s0)
	call	DevicePathSubType@plt
	mv	a5,a0
	.loc 1 265 49 discriminator 2
	mv	a4,a5
	li	a5,16
	beq	a4,a5,.L26
.L25:
	.loc 1 268 12
	li	a5,-1
	slli	a5,a5,63
	addi	a5,a5,2
	j	.L33
.L26:
	.loc 1 274 23
	sb	zero,-25(s0)
	.loc 1 275 15
	la	a5,gBS
	ld	a5,0(a5)
	ld	a5,312(a5)
	.loc 1 275 12
	addi	a4,s0,-48
	addi	a3,s0,-56
	li	a2,0
	la	a1,gEfiPciIoProtocolGuid
	li	a0,2
	jalr	a5
.LVL8:
	sd	a0,-40(s0)
	.loc 1 282 7
	ld	a5,-40(s0)
	.loc 1 282 6
	blt	a5,zero,.L27
	.loc 1 283 16
	sd	zero,-24(s0)
	.loc 1 283 5
	j	.L28
.L30:
	.loc 1 284 19
	la	a5,gBS
	ld	a5,0(a5)
	ld	a5,152(a5)
	.loc 1 285 30
	ld	a3,-48(s0)
	ld	a4,-24(s0)
	slli	a4,a4,3
	add	a4,a3,a4
	.loc 1 284 16
	ld	a4,0(a4)
	addi	a3,s0,-64
	mv	a2,a3
	la	a1,gEfiPciIoProtocolGuid
	mv	a0,a4
	jalr	a5
.LVL9:
	sd	a0,-40(s0)
	.loc 1 289 11
	ld	a5,-40(s0)
	.loc 1 289 10
	blt	a5,zero,.L29
	.loc 1 293 23
	ld	a5,-64(s0)
	.loc 1 293 28
	ld	a5,48(a5)
	.loc 1 293 18
	ld	a0,-64(s0)
	addi	a4,s0,-72
	li	a3,3
	li	a2,9
	li	a1,0
	jalr	a5
.LVL10:
	sd	a0,-40(s0)
	.loc 1 294 13
	ld	a5,-40(s0)
	.loc 1 294 12
	blt	a5,zero,.L29
	.loc 1 295 28
	lbu	a5,-70(s0)
	.loc 1 294 67 discriminator 1
	mv	a4,a5
	li	a5,12
	bne	a4,a5,.L29
	.loc 1 295 50
	lbu	a5,-71(s0)
	.loc 1 295 33
	mv	a4,a5
	li	a5,3
	bne	a4,a5,.L29
	.loc 1 298 23
	la	a5,gBS
	ld	a5,0(a5)
	ld	a5,264(a5)
	.loc 1 299 34
	ld	a3,-48(s0)
	ld	a4,-24(s0)
	slli	a4,a4,3
	add	a4,a3,a4
	.loc 1 298 20
	ld	a4,0(a4)
	li	a3,0
	ld	a2,-88(s0)
	li	a1,0
	mv	a0,a4
	jalr	a5
.LVL11:
	sd	a0,-40(s0)
	.loc 1 304 15
	ld	a5,-40(s0)
	.loc 1 304 14
	blt	a5,zero,.L29
	.loc 1 305 33
	li	a5,1
	sb	a5,-25(s0)
.L29:
	.loc 1 283 47 discriminator 2
	ld	a5,-24(s0)
	addi	a5,a5,1
	sd	a5,-24(s0)
.L28:
	.loc 1 283 27 discriminator 1
	ld	a5,-56(s0)
	ld	a4,-24(s0)
	bltu	a4,a5,.L30
	.loc 1 311 17
	ld	a5,-48(s0)
	.loc 1 311 8
	beq	a5,zero,.L27
	.loc 1 312 7
	ld	a5,-48(s0)
	mv	a0,a5
	call	FreePool@plt
.L27:
	.loc 1 316 51
	lbu	a5,-25(s0)
	andi	a5,a5,0xff
	beq	a5,zero,.L31
	.loc 1 316 51 is_stmt 0 discriminator 1
	li	a5,0
	.loc 1 316 51
	j	.L33
.L31:
	.loc 1 316 51 discriminator 2
	li	a5,-1
	slli	a5,a5,63
	addi	a5,a5,14
.L33:
	.loc 1 317 1 is_stmt 1
	mv	a0,a5
	ld	ra,88(sp)
	.cfi_restore 1
	ld	s0,80(sp)
	.cfi_restore 8
	.cfi_def_cfa 2, 96
	addi	sp,sp,96
	.cfi_def_cfa_offset 0
	jr	ra
	.cfi_endproc
.LFE4:
	.size	BmConnectUsbShortFormDevicePath, .-BmConnectUsbShortFormDevicePath
	.text
.Letext0:
	.file 2 "/home/kapoagaeming/spacemit-image-builder/components/edk2/MdePkg/Include/RiscV64/ProcessorBind.h"
	.file 3 "/home/kapoagaeming/spacemit-image-builder/components/edk2/MdePkg/Include/Base.h"
	.file 4 "/home/kapoagaeming/spacemit-image-builder/components/edk2/MdePkg/Include/Uefi/UefiBaseType.h"
	.file 5 "/home/kapoagaeming/spacemit-image-builder/components/edk2/MdePkg/Include/Uefi/UefiMultiPhase.h"
	.file 6 "/home/kapoagaeming/spacemit-image-builder/components/edk2/MdePkg/Include/Protocol/DevicePath.h"
	.file 7 "/home/kapoagaeming/spacemit-image-builder/components/edk2/MdePkg/Include/Uefi/UefiSpec.h"
	.file 8 "/home/kapoagaeming/spacemit-image-builder/components/edk2/MdePkg/Include/Pi/PiDxeCis.h"
	.file 9 "/home/kapoagaeming/spacemit-image-builder/components/Build/Milk-V-Jupiter/RELEASE_GCC5/RISCV64/MdeModulePkg/Library/UefiBootManagerLib/UefiBootManagerLib/DEBUG/AutoGen.h"
	.file 10 "/home/kapoagaeming/spacemit-image-builder/components/edk2/MdePkg/Include/Protocol/PciIo.h"
	.file 11 "/home/kapoagaeming/spacemit-image-builder/components/edk2/MdePkg/Include/Library/UefiBootServicesTableLib.h"
	.file 12 "/home/kapoagaeming/spacemit-image-builder/components/edk2/MdePkg/Include/Library/DxeServicesTableLib.h"
	.file 13 "/home/kapoagaeming/spacemit-image-builder/components/edk2/MdePkg/Include/Library/DevicePathLib.h"
	.file 14 "/home/kapoagaeming/spacemit-image-builder/components/edk2/MdePkg/Include/Library/UefiLib.h"
	.file 15 "/home/kapoagaeming/spacemit-image-builder/components/edk2/MdeModulePkg/Include/Library/UefiBootManagerLib.h"
	.file 16 "/home/kapoagaeming/spacemit-image-builder/components/edk2/MdePkg/Include/Library/MemoryAllocationLib.h"
	.section	.note.GNU-stack,"",@progbits
