	.file	"BmConsole.c"
	.option pic
	.option norelax
	.attribute arch, "rv64i2p1_m2p0_a2p1_f2p2_d2p2_c2p0_zicsr2p0_zifencei2p0_zmmul1p0_zaamo1p0_zalrsc1p0_zca1p0_zcd1p0"
	.attribute unaligned_access, 0
	.attribute stack_align, 16
	.text
.Ltext0:
	.cfi_sections	.debug_frame
	.file 0 "/home/kapoagaeming/Downloads/spacemit-image-builder/components/Build/Milk-V-Jupiter/RELEASE_GCC5/RISCV64/MdeModulePkg/Library/UefiBootManagerLib/UefiBootManagerLib" "/home/kapoagaeming/Downloads/spacemit-image-builder/components/edk2/MdeModulePkg/Library/UefiBootManagerLib/BmConsole.c"
	.globl	mConVarName
	.section	.rodata
	.align	3
.LC0:
	.string	"C"
	.string	"o"
	.string	"n"
	.string	"I"
	.string	"n"
	.zero	2
	.align	3
.LC1:
	.string	"C"
	.string	"o"
	.string	"n"
	.string	"O"
	.string	"u"
	.string	"t"
	.zero	2
	.align	3
.LC2:
	.string	"E"
	.string	"r"
	.string	"r"
	.string	"O"
	.string	"u"
	.string	"t"
	.zero	2
	.align	3
.LC3:
	.string	"C"
	.string	"o"
	.string	"n"
	.string	"I"
	.string	"n"
	.string	"D"
	.string	"e"
	.string	"v"
	.zero	2
	.align	3
.LC4:
	.string	"C"
	.string	"o"
	.string	"n"
	.string	"O"
	.string	"u"
	.string	"t"
	.string	"D"
	.string	"e"
	.string	"v"
	.zero	2
	.align	3
.LC5:
	.string	"E"
	.string	"r"
	.string	"r"
	.string	"O"
	.string	"u"
	.string	"t"
	.string	"D"
	.string	"e"
	.string	"v"
	.zero	2
	.section	.data.rel.local.mConVarName,"aw"
	.align	3
	.type	mConVarName, @object
	.size	mConVarName, 48
mConVarName:
	.dword	.LC0
	.dword	.LC1
	.dword	.LC2
	.dword	.LC3
	.dword	.LC4
	.dword	.LC5
	.section	.text.BmGetVideoController,"ax",@progbits
	.align	1
	.globl	BmGetVideoController
	.type	BmGetVideoController, @function
BmGetVideoController:
.LFB0:
	.file 1 "/home/kapoagaeming/Downloads/spacemit-image-builder/components/edk2/MdeModulePkg/Library/UefiBootManagerLib/BmConsole.c"
	.loc 1 30 1
	.cfi_startproc
	addi	sp,sp,-160
	.cfi_def_cfa_offset 160
	sd	ra,152(sp)
	sd	s0,144(sp)
	.cfi_offset 1, -8
	.cfi_offset 8, -16
	addi	s0,sp,160
	.cfi_def_cfa 8, 0
	.loc 1 45 15
	la	a5,gBS
	ld	a5,0(a5)
	ld	a5,312(a5)
	.loc 1 45 12
	addi	a4,s0,-64
	addi	a3,s0,-56
	li	a2,0
	la	a1,gEfiPciRootBridgeIoProtocolGuid
	li	a0,2
	jalr	a5
.LVL0:
	sd	a0,-48(s0)
	.loc 1 52 34
	ld	a5,-48(s0)
	.loc 1 52 6
	blt	a5,zero,.L2
	.loc 1 52 86 discriminator 1
	ld	a5,-56(s0)
	.loc 1 52 60 discriminator 1
	bne	a5,zero,.L3
.L2:
	.loc 1 53 12
	li	a5,0
	j	.L14
.L3:
	.loc 1 56 19
	sd	zero,-40(s0)
	.loc 1 57 24
	sd	zero,-24(s0)
	.loc 1 57 3
	j	.L5
.L13:
	.loc 1 58 8
	la	a5,gBS
	ld	a5,0(a5)
	ld	a5,264(a5)
	.loc 1 58 51
	ld	a3,-64(s0)
	ld	a4,-24(s0)
	slli	a4,a4,3
	add	a4,a3,a4
	.loc 1 58 5
	ld	a4,0(a4)
	li	a3,0
	li	a2,0
	li	a1,0
	mv	a0,a4
	jalr	a5
.LVL1:
	.loc 1 63 17
	la	a5,gBS
	ld	a5,0(a5)
	ld	a5,312(a5)
	.loc 1 63 14
	addi	a4,s0,-80
	addi	a3,s0,-72
	li	a2,0
	la	a1,gEfiPciIoProtocolGuid
	li	a0,2
	jalr	a5
.LVL2:
	sd	a0,-48(s0)
	.loc 1 70 36
	ld	a5,-48(s0)
	.loc 1 70 8
	blt	a5,zero,.L15
	.loc 1 74 16
	sd	zero,-32(s0)
	.loc 1 74 5
	j	.L8
.L11:
	.loc 1 75 19
	la	a5,gBS
	ld	a5,0(a5)
	ld	a5,152(a5)
	.loc 1 75 49
	ld	a3,-80(s0)
	ld	a4,-32(s0)
	slli	a4,a4,3
	add	a4,a3,a4
	.loc 1 75 16
	ld	a4,0(a4)
	addi	a3,s0,-88
	mv	a2,a3
	la	a1,gEfiPciIoProtocolGuid
	mv	a0,a4
	jalr	a5
.LVL3:
	sd	a0,-48(s0)
	.loc 1 76 11
	ld	a5,-48(s0)
	.loc 1 76 10
	blt	a5,zero,.L9
	.loc 1 80 23
	ld	a5,-88(s0)
	.loc 1 80 28
	ld	a5,48(a5)
	.loc 1 80 18
	ld	a0,-88(s0)
	addi	a4,s0,-152
	li	a3,16
	li	a2,0
	li	a1,2
	jalr	a5
.LVL4:
	sd	a0,-48(s0)
	.loc 1 87 13
	ld	a5,-48(s0)
	.loc 1 87 12
	blt	a5,zero,.L9
	.loc 1 87 94 discriminator 1
	lbu	a5,-141(s0)
	.loc 1 87 67 discriminator 1
	mv	a4,a5
	li	a5,3
	bne	a4,a5,.L9
	.loc 1 87 134 discriminator 2
	lbu	a5,-142(s0)
	.loc 1 87 109 discriminator 2
	bne	a5,zero,.L9
	.loc 1 87 175 discriminator 3
	lbu	a5,-143(s0)
	.loc 1 87 150 discriminator 3
	bne	a5,zero,.L9
	.loc 1 89 41
	ld	a4,-80(s0)
	ld	a5,-32(s0)
	slli	a5,a5,3
	add	a5,a4,a5
	.loc 1 89 27
	ld	a5,0(a5)
	sd	a5,-40(s0)
	.loc 1 90 11
	j	.L10
.L9:
	.loc 1 74 47 discriminator 2
	ld	a5,-32(s0)
	addi	a5,a5,1
	sd	a5,-32(s0)
.L8:
	.loc 1 74 27 discriminator 1
	ld	a5,-72(s0)
	ld	a4,-32(s0)
	bltu	a4,a5,.L11
.L10:
	.loc 1 95 5
	ld	a5,-80(s0)
	mv	a0,a5
	call	FreePool@plt
	.loc 1 97 8
	ld	a5,-40(s0)
	bne	a5,zero,.L16
	j	.L7
.L15:
	.loc 1 71 7
	nop
.L7:
	.loc 1 57 85 discriminator 2
	ld	a5,-24(s0)
	addi	a5,a5,1
	sd	a5,-24(s0)
.L5:
	.loc 1 57 45 discriminator 1
	ld	a5,-56(s0)
	ld	a4,-24(s0)
	bltu	a4,a5,.L13
	j	.L12
.L16:
	.loc 1 98 7
	nop
.L12:
	.loc 1 102 3
	ld	a5,-64(s0)
	mv	a0,a5
	call	FreePool@plt
	.loc 1 104 10
	ld	a5,-40(s0)
.L14:
	.loc 1 105 1
	mv	a0,a5
	ld	ra,152(sp)
	.cfi_restore 1
	ld	s0,144(sp)
	.cfi_restore 8
	.cfi_def_cfa 2, 160
	addi	sp,sp,160
	.cfi_def_cfa_offset 0
	jr	ra
	.cfi_endproc
.LFE0:
	.size	BmGetVideoController, .-BmGetVideoController
	.section	.text.EfiBootManagerGetGopDevicePath,"ax",@progbits
	.align	1
	.globl	EfiBootManagerGetGopDevicePath
	.type	EfiBootManagerGetGopDevicePath, @function
EfiBootManagerGetGopDevicePath:
.LFB1:
	.loc 1 120 1
	.cfi_startproc
	addi	sp,sp,-144
	.cfi_def_cfa_offset 144
	sd	ra,136(sp)
	sd	s0,128(sp)
	.cfi_offset 1, -8
	.cfi_offset 8, -16
	addi	s0,sp,144
	.cfi_def_cfa 8, 0
	sd	a0,-136(s0)
	.loc 1 135 15
	la	a5,gBS
	ld	a5,0(a5)
	ld	a5,304(a5)
	.loc 1 135 12
	addi	a3,s0,-96
	addi	a4,s0,-88
	mv	a2,a3
	mv	a1,a4
	ld	a0,-136(s0)
	jalr	a5
.LVL5:
	sd	a0,-64(s0)
	.loc 1 140 34
	ld	a5,-64(s0)
	.loc 1 140 6
	bge	a5,zero,.L18
	.loc 1 141 12
	li	a5,0
	j	.L31
.L18:
	.loc 1 144 11
	sd	zero,-56(s0)
	.loc 1 146 22
	sd	zero,-32(s0)
	.loc 1 146 3
	j	.L20
.L30:
	.loc 1 147 17
	la	a5,gBS
	ld	a5,0(a5)
	ld	a5,296(a5)
	.loc 1 149 35
	ld	a3,-88(s0)
	ld	a4,-32(s0)
	slli	a4,a4,3
	add	a4,a3,a4
	.loc 1 147 14
	ld	a4,0(a4)
	addi	a3,s0,-112
	addi	a2,s0,-104
	mv	a1,a4
	ld	a0,-136(s0)
	jalr	a5
.LVL6:
	sd	a0,-64(s0)
	.loc 1 153 36
	ld	a5,-64(s0)
	.loc 1 153 8
	blt	a5,zero,.L32
	.loc 1 157 16
	sd	zero,-24(s0)
	.loc 1 157 5
	j	.L23
.L29:
	.loc 1 161 26
	ld	a3,-104(s0)
	ld	a4,-24(s0)
	mv	a5,a4
	slli	a5,a5,1
	add	a5,a5,a4
	slli	a5,a5,3
	add	a5,a3,a5
	.loc 1 161 33
	lw	a5,16(a5)
	.loc 1 161 45
	andi	a5,a5,8
	sext.w	a5,a5
	.loc 1 161 10
	beq	a5,zero,.L24
	.loc 1 162 21
	la	a5,gBS
	ld	a5,0(a5)
	ld	a6,280(a5)
	.loc 1 163 39
	ld	a3,-104(s0)
	ld	a4,-24(s0)
	mv	a5,a4
	slli	a5,a5,1
	add	a5,a5,a4
	slli	a5,a5,3
	add	a5,a3,a5
	.loc 1 162 18
	ld	a0,8(a5)
	addi	a2,s0,-120
	li	a5,2
	li	a4,0
	li	a3,0
	la	a1,gEfiDevicePathProtocolGuid
	jalr	a6
.LVL7:
	sd	a0,-64(s0)
	.loc 1 170 40
	ld	a5,-64(s0)
	.loc 1 170 12
	blt	a5,zero,.L33
	.loc 1 174 18
	sd	zero,-48(s0)
	.loc 1 175 19
	ld	a5,-120(s0)
	sd	a5,-40(s0)
	.loc 1 175 9
	j	.L26
.L27:
	.loc 1 176 20
	ld	a5,-40(s0)
	sd	a5,-48(s0)
	.loc 1 175 65 discriminator 5
	ld	a0,-40(s0)
	call	NextDevicePathNode@plt
	sd	a0,-40(s0)
.L26:
	.loc 1 175 34 discriminator 1
	ld	a0,-40(s0)
	call	IsDevicePathEnd@plt
	mv	a5,a0
	.loc 1 175 33 discriminator 4
	beq	a5,zero,.L27
	.loc 1 181 14
	ld	a0,-48(s0)
	call	DevicePathType@plt
	mv	a5,a0
	.loc 1 181 12 discriminator 1
	mv	a4,a5
	li	a5,2
	bne	a4,a5,.L28
	.loc 1 181 53 discriminator 2
	ld	a0,-48(s0)
	call	DevicePathSubType@plt
	mv	a5,a0
	.loc 1 181 49 discriminator 3
	mv	a4,a5
	li	a5,3
	bne	a4,a5,.L28
	.loc 1 182 23
	la	a5,gBS
	ld	a5,0(a5)
	ld	a6,280(a5)
	.loc 1 183 41
	ld	a3,-104(s0)
	ld	a4,-24(s0)
	mv	a5,a4
	slli	a5,a5,1
	add	a5,a5,a4
	slli	a5,a5,3
	add	a5,a3,a5
	.loc 1 182 20
	ld	a0,8(a5)
	li	a5,4
	li	a4,0
	li	a3,0
	li	a2,0
	la	a1,gEfiGraphicsOutputProtocolGuid
	jalr	a6
.LVL8:
	sd	a0,-64(s0)
	.loc 1 190 15
	ld	a5,-64(s0)
	.loc 1 190 14
	blt	a5,zero,.L28
	.loc 1 194 28
	ld	a5,-56(s0)
	sd	a5,-72(s0)
	.loc 1 195 23
	ld	a5,-120(s0)
	mv	a1,a5
	ld	a0,-56(s0)
	call	AppendDevicePathInstance@plt
	sd	a0,-56(s0)
	.loc 1 196 16
	la	a5,gBS
	ld	a5,0(a5)
	ld	a5,72(a5)
	.loc 1 196 13
	ld	a0,-72(s0)
	jalr	a5
.LVL9:
.L28:
	.loc 1 200 14
	ld	a0,-48(s0)
	call	DevicePathType@plt
	mv	a5,a0
	.loc 1 200 12 discriminator 1
	mv	a4,a5
	li	a5,1
	bne	a4,a5,.L24
	.loc 1 200 53 discriminator 2
	ld	a0,-48(s0)
	call	DevicePathSubType@plt
	mv	a5,a0
	.loc 1 200 49 discriminator 3
	mv	a4,a5
	li	a5,5
	bne	a4,a5,.L24
	.loc 1 205 26
	ld	a5,-56(s0)
	sd	a5,-72(s0)
	.loc 1 206 76
	ld	a3,-104(s0)
	ld	a4,-24(s0)
	mv	a5,a4
	slli	a5,a5,1
	add	a5,a5,a4
	slli	a5,a5,3
	add	a5,a3,a5
	.loc 1 206 30
	ld	a5,8(a5)
	mv	a0,a5
	call	EfiBootManagerGetGopDevicePath
	sd	a0,-80(s0)
	.loc 1 207 21
	ld	a1,-80(s0)
	ld	a0,-56(s0)
	call	AppendDevicePathInstance@plt
	sd	a0,-56(s0)
	.loc 1 208 14
	la	a5,gBS
	ld	a5,0(a5)
	ld	a5,72(a5)
	.loc 1 208 11
	ld	a0,-80(s0)
	jalr	a5
.LVL10:
	.loc 1 209 14
	la	a5,gBS
	ld	a5,0(a5)
	ld	a5,72(a5)
	.loc 1 209 11
	ld	a0,-72(s0)
	jalr	a5
.LVL11:
	j	.L24
.L33:
	.loc 1 171 11
	nop
.L24:
	.loc 1 157 46 discriminator 2
	ld	a5,-24(s0)
	addi	a5,a5,1
	sd	a5,-24(s0)
.L23:
	.loc 1 157 27 discriminator 1
	ld	a5,-112(s0)
	ld	a4,-24(s0)
	bltu	a4,a5,.L29
	.loc 1 214 5
	ld	a5,-104(s0)
	mv	a0,a5
	call	FreePool@plt
	j	.L22
.L32:
	.loc 1 154 7
	nop
.L22:
	.loc 1 146 77 discriminator 2
	ld	a5,-32(s0)
	addi	a5,a5,1
	sd	a5,-32(s0)
.L20:
	.loc 1 146 41 discriminator 1
	ld	a5,-96(s0)
	ld	a4,-32(s0)
	bltu	a4,a5,.L30
	.loc 1 217 3
	ld	a5,-88(s0)
	mv	a0,a5
	call	FreePool@plt
	.loc 1 219 10
	ld	a5,-56(s0)
.L31:
	.loc 1 220 1
	mv	a0,a5
	ld	ra,136(sp)
	.cfi_restore 1
	ld	s0,128(sp)
	.cfi_restore 8
	.cfi_def_cfa 2, 144
	addi	sp,sp,144
	.cfi_def_cfa_offset 0
	jr	ra
	.cfi_endproc
.LFE1:
	.size	EfiBootManagerGetGopDevicePath, .-EfiBootManagerGetGopDevicePath
	.section	.text.EfiBootManagerConnectVideoController,"ax",@progbits
	.align	1
	.globl	EfiBootManagerConnectVideoController
	.type	EfiBootManagerConnectVideoController, @function
EfiBootManagerConnectVideoController:
.LFB2:
	.loc 1 235 1
	.cfi_startproc
	addi	sp,sp,-48
	.cfi_def_cfa_offset 48
	sd	ra,40(sp)
	sd	s0,32(sp)
	.cfi_offset 1, -8
	.cfi_offset 8, -16
	addi	s0,sp,48
	.cfi_def_cfa 8, 0
	sd	a0,-40(s0)
	.loc 1 238 6
	ld	a5,-40(s0)
	bne	a5,zero,.L35
	.loc 1 242 23
	call	BmGetVideoController
	sd	a0,-40(s0)
.L35:
	.loc 1 245 6
	ld	a5,-40(s0)
	bne	a5,zero,.L36
	.loc 1 246 12
	li	a5,-1
	slli	a5,a5,63
	addi	a5,a5,14
	j	.L37
.L36:
	.loc 1 255 6
	la	a5,gBS
	ld	a5,0(a5)
	ld	a5,264(a5)
	.loc 1 255 3
	li	a3,0
	li	a2,0
	li	a1,0
	ld	a0,-40(s0)
	jalr	a5
.LVL12:
	.loc 1 257 9
	ld	a0,-40(s0)
	call	EfiBootManagerGetGopDevicePath
	sd	a0,-24(s0)
	.loc 1 258 6
	ld	a5,-24(s0)
	bne	a5,zero,.L38
	.loc 1 259 12
	li	a5,-1
	slli	a5,a5,63
	addi	a5,a5,14
	j	.L37
.L38:
	.loc 1 262 3
	li	a2,0
	ld	a1,-24(s0)
	li	a0,1
	call	EfiBootManagerUpdateConsoleVariable
	.loc 1 263 3
	ld	a0,-24(s0)
	call	FreePool@plt
	.loc 1 268 13
	la	a5,gBS
	ld	a5,0(a5)
	ld	a5,264(a5)
	.loc 1 268 10
	li	a3,1
	li	a2,0
	li	a1,0
	ld	a0,-40(s0)
	jalr	a5
.LVL13:
	mv	a5,a0
.L37:
	.loc 1 269 1
	mv	a0,a5
	ld	ra,40(sp)
	.cfi_restore 1
	ld	s0,32(sp)
	.cfi_restore 8
	.cfi_def_cfa 2, 48
	addi	sp,sp,48
	.cfi_def_cfa_offset 0
	jr	ra
	.cfi_endproc
.LFE2:
	.size	EfiBootManagerConnectVideoController, .-EfiBootManagerConnectVideoController
	.section	.text.BmUpdateSystemTableConsole,"ax",@progbits
	.align	1
	.globl	BmUpdateSystemTableConsole
	.type	BmUpdateSystemTableConsole, @function
BmUpdateSystemTableConsole:
.LFB3:
	.loc 1 295 1
	.cfi_startproc
	addi	sp,sp,-128
	.cfi_def_cfa_offset 128
	sd	ra,120(sp)
	sd	s0,112(sp)
	.cfi_offset 1, -8
	.cfi_offset 8, -16
	addi	s0,sp,128
	.cfi_def_cfa 8, 0
	sd	a0,-104(s0)
	sd	a1,-112(s0)
	sd	a2,-120(s0)
	sd	a3,-128(s0)
	.loc 1 311 7
	ld	a5,-120(s0)
	ld	a5,0(a5)
	.loc 1 311 6
	beq	a5,zero,.L40
	.loc 1 312 17
	la	a5,gBS
	ld	a5,0(a5)
	ld	a5,152(a5)
	.loc 1 312 14
	ld	a4,-120(s0)
	ld	a4,0(a4)
	addi	a3,s0,-80
	mv	a2,a3
	ld	a1,-112(s0)
	mv	a0,a4
	jalr	a5
.LVL14:
	sd	a0,-24(s0)
	.loc 1 317 8
	ld	a5,-24(s0)
	bne	a5,zero,.L40
	.loc 1 317 57 discriminator 1
	ld	a5,-128(s0)
	ld	a4,0(a5)
	.loc 1 317 54 discriminator 1
	ld	a5,-80(s0)
	.loc 1 317 40 discriminator 1
	bne	a4,a5,.L40
	.loc 1 322 14
	li	a5,0
	j	.L47
.L40:
	.loc 1 329 3
	addi	a5,s0,-64
	li	a2,0
	mv	a1,a5
	ld	a0,-104(s0)
	call	GetEfiGlobalVariable2@plt
	.loc 1 330 18
	ld	a5,-64(s0)
	.loc 1 330 6
	bne	a5,zero,.L42
	.loc 1 334 12
	li	a5,0
	j	.L47
.L42:
	.loc 1 337 18
	ld	a5,-64(s0)
	sd	a5,-32(s0)
.L46:
	.loc 1 343 16
	addi	a4,s0,-56
	addi	a5,s0,-64
	mv	a1,a4
	mv	a0,a5
	call	GetNextDevicePathInstance@plt
	mv	a5,a0
	.loc 1 343 14 discriminator 1
	sd	a5,-72(s0)
	.loc 1 344 18
	ld	a5,-72(s0)
	.loc 1 344 8
	bne	a5,zero,.L43
	.loc 1 348 7
	ld	a0,-32(s0)
	call	FreePool@plt
	.loc 1 349 14
	li	a5,0
	j	.L47
.L43:
	.loc 1 355 18
	ld	a5,-72(s0)
	sd	a5,-40(s0)
	.loc 1 356 17
	la	a5,gBS
	ld	a5,0(a5)
	ld	a5,184(a5)
	.loc 1 356 14
	addi	a3,s0,-88
	addi	a4,s0,-72
	mv	a2,a3
	mv	a1,a4
	ld	a0,-112(s0)
	jalr	a5
.LVL15:
	sd	a0,-24(s0)
	.loc 1 361 5
	ld	a0,-40(s0)
	call	FreePool@plt
	.loc 1 362 9
	ld	a5,-24(s0)
	.loc 1 362 8
	blt	a5,zero,.L44
	.loc 1 366 19
	la	a5,gBS
	ld	a5,0(a5)
	ld	a5,152(a5)
	.loc 1 366 16
	ld	a4,-88(s0)
	addi	a3,s0,-80
	mv	a2,a3
	ld	a1,-112(s0)
	mv	a0,a4
	jalr	a5
.LVL16:
	sd	a0,-24(s0)
	.loc 1 371 11
	ld	a5,-24(s0)
	.loc 1 371 10
	blt	a5,zero,.L44
	.loc 1 375 24
	ld	a4,-88(s0)
	ld	a5,-120(s0)
	sd	a4,0(a5)
	.loc 1 376 28
	ld	a4,-80(s0)
	ld	a5,-128(s0)
	sd	a4,0(a5)
	.loc 1 377 13
	la	a1,gEfiSimpleTextOutProtocolGuid
	ld	a0,-112(s0)
	call	CompareGuid@plt
	mv	a5,a0
	.loc 1 377 12 discriminator 1
	beq	a5,zero,.L45
	.loc 1 381 19
	ld	a5,-80(s0)
	sd	a5,-48(s0)
	.loc 1 382 22
	ld	a5,-48(s0)
	ld	a5,72(a5)
	.loc 1 382 28
	lw	a4,4(a5)
	.loc 1 382 14
	li	a5,-1
	bne	a4,a5,.L45
	.loc 1 383 20
	ld	a5,-48(s0)
	ld	a5,32(a5)
	.loc 1 383 13
	li	a1,0
	ld	a0,-48(s0)
	jalr	a5
.LVL17:
.L45:
	.loc 1 387 9
	ld	a0,-32(s0)
	call	FreePool@plt
	.loc 1 388 16
	li	a5,1
	j	.L47
.L44:
	.loc 1 391 21
	ld	a5,-72(s0)
	bne	a5,zero,.L46
	.loc 1 396 3
	ld	a0,-32(s0)
	call	FreePool@plt
	.loc 1 397 10
	li	a5,0
.L47:
	.loc 1 398 1
	mv	a0,a5
	ld	ra,120(sp)
	.cfi_restore 1
	ld	s0,112(sp)
	.cfi_restore 8
	.cfi_def_cfa 2, 128
	addi	sp,sp,128
	.cfi_def_cfa_offset 0
	jr	ra
	.cfi_endproc
.LFE3:
	.size	BmUpdateSystemTableConsole, .-BmUpdateSystemTableConsole
	.section	.text.EfiBootManagerUpdateConsoleVariable,"ax",@progbits
	.align	1
	.globl	EfiBootManagerUpdateConsoleVariable
	.type	EfiBootManagerUpdateConsoleVariable, @function
EfiBootManagerUpdateConsoleVariable:
.LFB4:
	.loc 1 423 1
	.cfi_startproc
	addi	sp,sp,-112
	.cfi_def_cfa_offset 112
	sd	ra,104(sp)
	sd	s0,96(sp)
	sd	s1,88(sp)
	sd	s2,80(sp)
	sd	s3,72(sp)
	.cfi_offset 1, -8
	.cfi_offset 8, -16
	.cfi_offset 9, -24
	.cfi_offset 18, -32
	.cfi_offset 19, -40
	addi	s0,sp,112
	.cfi_def_cfa 8, 0
	mv	a5,a0
	sd	a1,-96(s0)
	sd	a2,-104(s0)
	sw	a5,-84(s0)
	.loc 1 429 6
	lw	a5,-84(s0)
	sext.w	a4,a5
	li	a5,5
	bleu	a4,a5,.L49
	.loc 1 430 12
	li	a5,-1
	slli	a5,a5,63
	addi	a5,a5,2
	j	.L59
.L49:
	.loc 1 437 6
	ld	a4,-96(s0)
	ld	a5,-104(s0)
	bne	a4,a5,.L51
	.loc 1 438 12
	li	a5,-1
	slli	a5,a5,63
	addi	a5,a5,3
	j	.L59
.L51:
	.loc 1 444 37
	lla	a4,mConVarName
	lwu	a5,-84(s0)
	slli	a5,a5,3
	add	a5,a4,a5
	ld	a5,0(a5)
	.loc 1 444 3
	addi	a4,s0,-80
	li	a2,0
	mv	a1,a4
	mv	a0,a5
	call	GetEfiGlobalVariable2@plt
	.loc 1 448 17
	ld	a5,-80(s0)
	sd	a5,-56(s0)
	.loc 1 454 6
	ld	a5,-104(s0)
	beq	a5,zero,.L52
	.loc 1 454 60 discriminator 1
	ld	a5,-80(s0)
	.loc 1 454 45 discriminator 1
	beq	a5,zero,.L52
	.loc 1 455 21
	ld	a5,-80(s0)
	ld	a1,-104(s0)
	mv	a0,a5
	call	BmDelPartMatchInstance@plt
	sd	a0,-56(s0)
.L52:
	.loc 1 461 6
	ld	a5,-96(s0)
	beq	a5,zero,.L53
	.loc 1 462 10
	ld	a1,-96(s0)
	ld	a0,-56(s0)
	call	BmMatchDevicePaths@plt
	mv	a5,a0
	.loc 1 462 8 discriminator 1
	bne	a5,zero,.L53
	.loc 1 466 23
	ld	a1,-96(s0)
	ld	a0,-56(s0)
	call	BmDelPartMatchInstance@plt
	sd	a0,-56(s0)
	.loc 1 471 25
	ld	a5,-56(s0)
	sd	a5,-64(s0)
	.loc 1 472 23
	ld	a1,-96(s0)
	ld	a0,-56(s0)
	call	AppendDevicePathInstance@plt
	sd	a0,-56(s0)
	.loc 1 473 10
	ld	a5,-64(s0)
	beq	a5,zero,.L53
	.loc 1 474 9
	ld	a0,-64(s0)
	call	FreePool@plt
.L53:
	.loc 1 482 15
	la	a5,gRT
	ld	a5,0(a5)
	ld	s2,88(a5)
	.loc 1 482 12
	lla	a4,mConVarName
	lwu	a5,-84(s0)
	slli	a5,a5,3
	add	a5,a4,a5
	ld	s3,0(a5)
	lw	a5,-84(s0)
	sext.w	a4,a5
	li	a5,2
	bgtu	a4,a5,.L54
	.loc 1 482 12 is_stmt 0 discriminator 1
	li	s1,7
	j	.L55
.L54:
	.loc 1 482 12 discriminator 2
	li	s1,6
.L55:
	.loc 1 482 12 discriminator 4
	ld	a0,-56(s0)
	call	GetDevicePathSize@plt
	mv	a5,a0
	.loc 1 482 12 discriminator 5
	ld	a4,-56(s0)
	mv	a3,a5
	mv	a2,s1
	la	a1,gEfiGlobalVariableGuid
	mv	a0,s3
	jalr	s2
.LVL18:
	sd	a0,-72(s0)
	.loc 1 491 18 is_stmt 1
	ld	a5,-80(s0)
	.loc 1 491 6
	ld	a4,-56(s0)
	bne	a4,a5,.L56
	.loc 1 492 20
	ld	a5,-80(s0)
	.loc 1 492 8
	beq	a5,zero,.L57
	.loc 1 493 7
	ld	a5,-80(s0)
	mv	a0,a5
	call	FreePool@plt
	j	.L57
.L56:
	.loc 1 496 20
	ld	a5,-80(s0)
	.loc 1 496 8
	beq	a5,zero,.L58
	.loc 1 497 7
	ld	a5,-80(s0)
	mv	a0,a5
	call	FreePool@plt
.L58:
	.loc 1 500 8
	ld	a5,-56(s0)
	beq	a5,zero,.L57
	.loc 1 501 7
	ld	a0,-56(s0)
	call	FreePool@plt
.L57:
	.loc 1 505 10
	ld	a5,-72(s0)
.L59:
	.loc 1 506 1
	mv	a0,a5
	ld	ra,104(sp)
	.cfi_restore 1
	ld	s0,96(sp)
	.cfi_restore 8
	.cfi_def_cfa 2, 112
	ld	s1,88(sp)
	.cfi_restore 9
	ld	s2,80(sp)
	.cfi_restore 18
	ld	s3,72(sp)
	.cfi_restore 19
	addi	sp,sp,112
	.cfi_def_cfa_offset 0
	jr	ra
	.cfi_endproc
.LFE4:
	.size	EfiBootManagerUpdateConsoleVariable, .-EfiBootManagerUpdateConsoleVariable
	.section	.text.EfiBootManagerConnectConsoleVariable,"ax",@progbits
	.align	1
	.globl	EfiBootManagerConnectConsoleVariable
	.type	EfiBootManagerConnectConsoleVariable, @function
EfiBootManagerConnectConsoleVariable:
.LFB5:
	.loc 1 524 1
	.cfi_startproc
	addi	sp,sp,-96
	.cfi_def_cfa_offset 96
	sd	ra,88(sp)
	sd	s0,80(sp)
	.cfi_offset 1, -8
	.cfi_offset 8, -16
	addi	s0,sp,96
	.cfi_def_cfa 8, 0
	mv	a5,a0
	sw	a5,-84(s0)
	.loc 1 534 6
	lw	a5,-84(s0)
	sext.w	a5,a5
	beq	a5,zero,.L61
	.loc 1 534 30 discriminator 1
	lw	a5,-84(s0)
	sext.w	a4,a5
	li	a5,1
	beq	a4,a5,.L61
	.loc 1 534 57 discriminator 2
	lw	a5,-84(s0)
	sext.w	a4,a5
	li	a5,2
	beq	a4,a5,.L61
	.loc 1 535 12
	li	a5,-1
	slli	a5,a5,63
	addi	a5,a5,2
	j	.L81
.L61:
	.loc 1 538 10
	sd	zero,-24(s0)
	.loc 1 539 15
	sb	zero,-33(s0)
	.loc 1 540 10
	sd	zero,-80(s0)
	.loc 1 545 37
	lla	a4,mConVarName
	lwu	a5,-84(s0)
	slli	a5,a5,3
	add	a5,a4,a5
	ld	a5,0(a5)
	.loc 1 545 3
	addi	a4,s0,-56
	li	a2,0
	mv	a1,a4
	mv	a0,a5
	call	GetEfiGlobalVariable2@plt
	.loc 1 546 23
	ld	a5,-56(s0)
	.loc 1 546 6
	bne	a5,zero,.L63
	.loc 1 547 12
	li	a5,-1
	slli	a5,a5,63
	addi	a5,a5,3
	j	.L81
.L63:
	.loc 1 550 20
	ld	a5,-56(s0)
	sd	a5,-64(s0)
.L79:
	.loc 1 555 16
	addi	a4,s0,-72
	addi	a5,s0,-64
	mv	a1,a4
	mv	a0,a5
	call	GetNextDevicePathInstance@plt
	sd	a0,-48(s0)
	.loc 1 556 8
	ld	a5,-48(s0)
	bne	a5,zero,.L64
	.loc 1 557 7
	ld	a5,-56(s0)
	mv	a0,a5
	call	FreePool@plt
	.loc 1 558 14
	li	a5,-1
	slli	a5,a5,63
	addi	a5,a5,3
	j	.L81
.L64:
	.loc 1 561 10
	ld	a5,-48(s0)
	sd	a5,-32(s0)
	.loc 1 562 11
	j	.L65
.L66:
	.loc 1 563 14
	ld	a0,-32(s0)
	call	NextDevicePathNode@plt
	sd	a0,-32(s0)
.L65:
	.loc 1 562 13
	ld	a0,-32(s0)
	call	IsDevicePathEndType@plt
	mv	a5,a0
	.loc 1 562 12 discriminator 1
	beq	a5,zero,.L66
	.loc 1 566 5
	ld	a0,-32(s0)
	call	SetDevicePathEndNode@plt
	.loc 1 573 10
	ld	a0,-48(s0)
	call	DevicePathType@plt
	mv	a5,a0
	.loc 1 573 8 discriminator 1
	mv	a4,a5
	li	a5,3
	bne	a4,a5,.L67
	.loc 1 574 11
	ld	a0,-48(s0)
	call	DevicePathSubType@plt
	mv	a5,a0
	.loc 1 573 45 discriminator 2
	mv	a4,a5
	li	a5,15
	beq	a4,a5,.L68
	.loc 1 574 53
	ld	a0,-48(s0)
	call	DevicePathSubType@plt
	mv	a5,a0
	.loc 1 574 49 discriminator 2
	mv	a4,a5
	li	a5,16
	bne	a4,a5,.L67
.L68:
	.loc 1 577 16
	ld	a0,-48(s0)
	call	BmConnectUsbShortFormDevicePath@plt
	sd	a0,-24(s0)
	.loc 1 578 11
	ld	a5,-24(s0)
	.loc 1 578 10
	blt	a5,zero,.L70
	.loc 1 579 21
	li	a5,1
	sb	a5,-33(s0)
	.loc 1 578 10
	j	.L70
.L67:
	.loc 1 582 17
	ld	a5,-48(s0)
	sd	a5,-32(s0)
	.loc 1 582 7
	j	.L71
.L75:
	.loc 1 583 14
	ld	a0,-32(s0)
	call	DevicePathType@plt
	mv	a5,a0
	.loc 1 583 12 discriminator 1
	mv	a4,a5
	li	a5,2
	bne	a4,a5,.L72
	.loc 1 583 49 discriminator 2
	ld	a0,-32(s0)
	call	DevicePathSubType@plt
	mv	a5,a0
	.loc 1 583 45 discriminator 3
	mv	a4,a5
	li	a5,3
	beq	a4,a5,.L73
.L72:
	.loc 1 585 21
	ld	a0,-32(s0)
	call	DevicePathType@plt
	mv	a5,a0
	.loc 1 585 19 discriminator 1
	mv	a4,a5
	li	a5,1
	bne	a4,a5,.L74
	.loc 1 586 21
	ld	a0,-32(s0)
	call	DevicePathSubType@plt
	mv	a5,a0
	.loc 1 585 52 discriminator 2
	mv	a4,a5
	li	a5,5
	bne	a4,a5,.L74
	.loc 1 587 37
	ld	a0,-32(s0)
	call	NextDevicePathNode@plt
	mv	a5,a0
	.loc 1 587 21 discriminator 1
	mv	a0,a5
	call	DevicePathType@plt
	mv	a5,a0
	.loc 1 586 55
	mv	a4,a5
	li	a5,2
	bne	a4,a5,.L74
	.loc 1 588 40
	ld	a0,-32(s0)
	call	NextDevicePathNode@plt
	mv	a5,a0
	.loc 1 588 21 discriminator 1
	mv	a0,a5
	call	DevicePathSubType@plt
	mv	a5,a0
	.loc 1 587 73
	mv	a4,a5
	li	a5,3
	beq	a4,a5,.L82
.L74:
	.loc 1 582 61 discriminator 3
	ld	a0,-32(s0)
	call	NextDevicePathNode@plt
	sd	a0,-32(s0)
.L71:
	.loc 1 582 30 discriminator 1
	ld	a0,-32(s0)
	call	IsDevicePathEnd@plt
	mv	a5,a0
	.loc 1 582 29 discriminator 4
	beq	a5,zero,.L75
	j	.L73
.L82:
	.loc 1 591 11
	nop
.L73:
	.loc 1 595 12
	ld	a0,-32(s0)
	call	IsDevicePathEnd@plt
	mv	a5,a0
	.loc 1 595 10 discriminator 1
	bne	a5,zero,.L76
	.loc 1 599 9
	ld	a0,-32(s0)
	call	SetDevicePathEndNode@plt
	.loc 1 600 18
	addi	a5,s0,-80
	mv	a1,a5
	ld	a0,-48(s0)
	call	EfiBootManagerConnectDevicePath@plt
	sd	a0,-24(s0)
	.loc 1 601 13
	ld	a5,-24(s0)
	.loc 1 601 12
	blt	a5,zero,.L77
	.loc 1 602 14
	la	a5,gBS
	ld	a5,0(a5)
	ld	a5,264(a5)
	.loc 1 602 11
	ld	a4,-80(s0)
	li	a3,1
	li	a2,0
	li	a1,0
	mv	a0,a4
	jalr	a5
.LVL19:
	j	.L77
.L76:
	.loc 1 605 18
	li	a1,0
	ld	a0,-48(s0)
	call	EfiBootManagerConnectDevicePath@plt
	sd	a0,-24(s0)
.L77:
	.loc 1 608 38
	ld	a5,-24(s0)
	.loc 1 608 10
	bge	a5,zero,.L78
	.loc 1 612 9
	lw	a5,-84(s0)
	ld	a2,-48(s0)
	li	a1,0
	mv	a0,a5
	call	EfiBootManagerUpdateConsoleVariable
	j	.L70
.L78:
	.loc 1 614 21
	li	a5,1
	sb	a5,-33(s0)
.L70:
	.loc 1 618 5
	ld	a0,-48(s0)
	call	FreePool@plt
	.loc 1 619 29
	ld	a5,-64(s0)
	bne	a5,zero,.L79
	.loc 1 621 3
	ld	a5,-56(s0)
	mv	a0,a5
	call	FreePool@plt
	.loc 1 623 6
	lbu	a5,-33(s0)
	andi	a5,a5,0xff
	bne	a5,zero,.L80
	.loc 1 624 12
	li	a5,-1
	slli	a5,a5,63
	addi	a5,a5,14
	j	.L81
.L80:
	.loc 1 627 10
	li	a5,0
.L81:
	.loc 1 628 1
	mv	a0,a5
	ld	ra,88(sp)
	.cfi_restore 1
	ld	s0,80(sp)
	.cfi_restore 8
	.cfi_def_cfa 2, 96
	addi	sp,sp,96
	.cfi_def_cfa_offset 0
	jr	ra
	.cfi_endproc
.LFE5:
	.size	EfiBootManagerConnectConsoleVariable, .-EfiBootManagerConnectConsoleVariable
	.section	.text.EfiBootManagerConnectAllConsoles,"ax",@progbits
	.align	1
	.globl	EfiBootManagerConnectAllConsoles
	.type	EfiBootManagerConnectAllConsoles, @function
EfiBootManagerConnectAllConsoles:
.LFB6:
	.loc 1 639 1
	.cfi_startproc
	addi	sp,sp,-48
	.cfi_def_cfa_offset 48
	sd	ra,40(sp)
	sd	s0,32(sp)
	.cfi_offset 1, -8
	.cfi_offset 8, -16
	addi	s0,sp,48
	.cfi_def_cfa 8, 0
	.loc 1 645 9
	sd	zero,-24(s0)
	.loc 1 646 15
	sd	zero,-40(s0)
	.loc 1 647 16
	sd	zero,-48(s0)
	.loc 1 648 17
	sd	zero,-32(s0)
	.loc 1 653 6
	la	a5,gBS
	ld	a5,0(a5)
	ld	a5,312(a5)
	.loc 1 653 3
	addi	a4,s0,-48
	addi	a3,s0,-40
	li	a2,0
	la	a1,gEfiSimpleTextInProtocolGuid
	li	a0,2
	jalr	a5
.LVL20:
	.loc 1 661 14
	sd	zero,-24(s0)
	.loc 1 661 3
	j	.L84
.L85:
	.loc 1 662 8
	la	a5,gBS
	ld	a5,0(a5)
	ld	a5,152(a5)
	.loc 1 663 24
	ld	a3,-48(s0)
	ld	a4,-24(s0)
	slli	a4,a4,3
	add	a4,a3,a4
	.loc 1 662 5
	ld	a4,0(a4)
	addi	a3,s0,-32
	mv	a2,a3
	la	a1,gEfiDevicePathProtocolGuid
	mv	a0,a4
	jalr	a5
.LVL21:
	.loc 1 667 5
	ld	a5,-32(s0)
	li	a2,0
	mv	a1,a5
	li	a0,0
	call	EfiBootManagerUpdateConsoleVariable
	.loc 1 661 45 discriminator 3
	ld	a5,-24(s0)
	addi	a5,a5,1
	sd	a5,-24(s0)
.L84:
	.loc 1 661 25 discriminator 1
	ld	a5,-40(s0)
	ld	a4,-24(s0)
	bltu	a4,a5,.L85
	.loc 1 670 20
	ld	a5,-48(s0)
	.loc 1 670 6
	beq	a5,zero,.L86
	.loc 1 671 5
	ld	a5,-48(s0)
	mv	a0,a5
	call	FreePool@plt
	.loc 1 672 18
	sd	zero,-48(s0)
.L86:
	.loc 1 675 6
	la	a5,gBS
	ld	a5,0(a5)
	ld	a5,312(a5)
	.loc 1 675 3
	addi	a4,s0,-48
	addi	a3,s0,-40
	li	a2,0
	la	a1,gEfiSimpleTextOutProtocolGuid
	li	a0,2
	jalr	a5
.LVL22:
	.loc 1 682 14
	sd	zero,-24(s0)
	.loc 1 682 3
	j	.L87
.L88:
	.loc 1 683 8
	la	a5,gBS
	ld	a5,0(a5)
	ld	a5,152(a5)
	.loc 1 684 24
	ld	a3,-48(s0)
	ld	a4,-24(s0)
	slli	a4,a4,3
	add	a4,a3,a4
	.loc 1 683 5
	ld	a4,0(a4)
	addi	a3,s0,-32
	mv	a2,a3
	la	a1,gEfiDevicePathProtocolGuid
	mv	a0,a4
	jalr	a5
.LVL23:
	.loc 1 688 5
	ld	a5,-32(s0)
	li	a2,0
	mv	a1,a5
	li	a0,1
	call	EfiBootManagerUpdateConsoleVariable
	.loc 1 689 5
	ld	a5,-32(s0)
	li	a2,0
	mv	a1,a5
	li	a0,2
	call	EfiBootManagerUpdateConsoleVariable
	.loc 1 682 45 discriminator 3
	ld	a5,-24(s0)
	addi	a5,a5,1
	sd	a5,-24(s0)
.L87:
	.loc 1 682 25 discriminator 1
	ld	a5,-40(s0)
	ld	a4,-24(s0)
	bltu	a4,a5,.L88
	.loc 1 692 20
	ld	a5,-48(s0)
	.loc 1 692 6
	beq	a5,zero,.L89
	.loc 1 693 5
	ld	a5,-48(s0)
	mv	a0,a5
	call	FreePool@plt
.L89:
	.loc 1 699 3
	call	EfiBootManagerConnectAllDefaultConsoles
	.loc 1 700 1
	nop
	ld	ra,40(sp)
	.cfi_restore 1
	ld	s0,32(sp)
	.cfi_restore 8
	.cfi_def_cfa 2, 48
	addi	sp,sp,48
	.cfi_def_cfa_offset 0
	jr	ra
	.cfi_endproc
.LFE6:
	.size	EfiBootManagerConnectAllConsoles, .-EfiBootManagerConnectAllConsoles
	.section	.rodata
	.align	3
.LC6:
	.string	"ConOutReady"
	.align	3
.LC7:
	.string	"ConInReady"
	.align	3
.LC8:
	.string	"ErrOutReady"
	.section	.text.EfiBootManagerConnectAllDefaultConsoles,"ax",@progbits
	.align	1
	.globl	EfiBootManagerConnectAllDefaultConsoles
	.type	EfiBootManagerConnectAllDefaultConsoles, @function
EfiBootManagerConnectAllDefaultConsoles:
.LFB7:
	.loc 1 715 1
	.cfi_startproc
	addi	sp,sp,-32
	.cfi_def_cfa_offset 32
	sd	ra,24(sp)
	sd	s0,16(sp)
	.cfi_offset 1, -8
	.cfi_offset 8, -16
	addi	s0,sp,32
	.cfi_def_cfa 8, 0
	.loc 1 720 16
	sb	zero,-17(s0)
	.loc 1 722 12
	li	a0,1
	call	EfiBootManagerConnectConsoleVariable
	sd	a0,-32(s0)
	.loc 1 723 7
	ld	a5,-32(s0)
	.loc 1 723 6
	blt	a5,zero,.L91
	.loc 1 724 18
	li	a5,1
	sb	a5,-17(s0)
.L91:
	.loc 1 727 12
	li	a0,64
	call	LogPerformanceMeasurementEnabled@plt
	mv	a5,a0
	.loc 1 727 11 discriminator 1
	beq	a5,zero,.L92
	.loc 1 727 57 discriminator 2
	li	a4,0
	li	a3,0
	lla	a2,.LC6
	li	a1,0
	la	a0,gEfiCallerIdGuid
	call	LogPerformanceMeasurement@plt
.L92:
	.loc 1 729 12
	li	a0,0
	call	EfiBootManagerConnectConsoleVariable
	sd	a0,-32(s0)
	.loc 1 730 7
	ld	a5,-32(s0)
	.loc 1 730 6
	blt	a5,zero,.L93
	.loc 1 731 18
	li	a5,1
	sb	a5,-17(s0)
.L93:
	.loc 1 734 12
	li	a0,64
	call	LogPerformanceMeasurementEnabled@plt
	mv	a5,a0
	.loc 1 734 11 discriminator 1
	beq	a5,zero,.L94
	.loc 1 734 57 discriminator 2
	li	a4,0
	li	a3,0
	lla	a2,.LC7
	li	a1,0
	la	a0,gEfiCallerIdGuid
	call	LogPerformanceMeasurement@plt
.L94:
	.loc 1 736 12
	li	a0,2
	call	EfiBootManagerConnectConsoleVariable
	sd	a0,-32(s0)
	.loc 1 737 7
	ld	a5,-32(s0)
	.loc 1 737 6
	blt	a5,zero,.L95
	.loc 1 738 18
	li	a5,1
	sb	a5,-17(s0)
.L95:
	.loc 1 741 12
	li	a0,64
	call	LogPerformanceMeasurementEnabled@plt
	mv	a5,a0
	.loc 1 741 11 discriminator 1
	beq	a5,zero,.L96
	.loc 1 741 57 discriminator 2
	li	a4,0
	li	a3,0
	lla	a2,.LC8
	li	a1,0
	la	a0,gEfiCallerIdGuid
	call	LogPerformanceMeasurement@plt
.L96:
	.loc 1 743 22
	sb	zero,-18(s0)
	.loc 1 747 80
	la	a5,gST
	ld	a5,0(a5)
	.loc 1 747 7
	addi	a4,a5,40
	.loc 1 747 112
	la	a5,gST
	ld	a5,0(a5)
	.loc 1 747 108
	addi	a5,a5,48
	.loc 1 747 7
	mv	a3,a5
	mv	a2,a4
	la	a1,gEfiSimpleTextInProtocolGuid
	lla	a0,.LC0
	call	BmUpdateSystemTableConsole
	mv	a5,a0
	.loc 1 747 6 discriminator 1
	beq	a5,zero,.L97
	.loc 1 748 24
	li	a5,1
	sb	a5,-18(s0)
.L97:
	.loc 1 751 82
	la	a5,gST
	ld	a5,0(a5)
	.loc 1 751 7
	addi	a4,a5,56
	.loc 1 751 115
	la	a5,gST
	ld	a5,0(a5)
	.loc 1 751 111
	addi	a5,a5,64
	.loc 1 751 7
	mv	a3,a5
	mv	a2,a4
	la	a1,gEfiSimpleTextOutProtocolGuid
	lla	a0,.LC1
	call	BmUpdateSystemTableConsole
	mv	a5,a0
	.loc 1 751 6 discriminator 1
	beq	a5,zero,.L98
	.loc 1 752 24
	li	a5,1
	sb	a5,-18(s0)
.L98:
	.loc 1 755 82
	la	a5,gST
	ld	a5,0(a5)
	.loc 1 755 7
	addi	a4,a5,72
	.loc 1 755 118
	la	a5,gST
	ld	a5,0(a5)
	.loc 1 755 114
	addi	a5,a5,80
	.loc 1 755 7
	mv	a3,a5
	mv	a2,a4
	la	a1,gEfiSimpleTextOutProtocolGuid
	lla	a0,.LC2
	call	BmUpdateSystemTableConsole
	mv	a5,a0
	.loc 1 755 6 discriminator 1
	beq	a5,zero,.L99
	.loc 1 756 24
	li	a5,1
	sb	a5,-18(s0)
.L99:
	.loc 1 759 6
	lbu	a5,-18(s0)
	andi	a5,a5,0xff
	beq	a5,zero,.L100
	.loc 1 763 8
	la	a5,gST
	ld	a5,0(a5)
	.loc 1 763 20
	sw	zero,16(a5)
	.loc 1 764 8
	la	a5,gBS
	ld	a5,0(a5)
	ld	a5,344(a5)
	.loc 1 765 25
	la	a4,gST
	ld	a4,0(a4)
	.loc 1 765 21
	mv	a0,a4
	.loc 1 766 15
	la	a4,gST
	ld	a4,0(a4)
	.loc 1 766 20
	lw	a4,12(a4)
	.loc 1 764 5
	slli	a3,a4,32
	srli	a3,a3,32
	.loc 1 767 16
	la	a4,gST
	ld	a4,0(a4)
	.loc 1 764 5
	addi	a4,a4,16
	mv	a2,a4
	mv	a1,a3
	jalr	a5
.LVL24:
.L100:
	.loc 1 771 44
	lbu	a5,-17(s0)
	andi	a5,a5,0xff
	beq	a5,zero,.L101
	.loc 1 771 44 is_stmt 0 discriminator 1
	li	a5,0
	.loc 1 771 44
	j	.L103
.L101:
	.loc 1 771 44 discriminator 2
	li	a5,-1
	slli	a5,a5,63
	addi	a5,a5,7
.L103:
	.loc 1 772 1 is_stmt 1
	mv	a0,a5
	ld	ra,24(sp)
	.cfi_restore 1
	ld	s0,16(sp)
	.cfi_restore 8
	.cfi_def_cfa 2, 32
	addi	sp,sp,32
	.cfi_def_cfa_offset 0
	jr	ra
	.cfi_endproc
.LFE7:
	.size	EfiBootManagerConnectAllDefaultConsoles, .-EfiBootManagerConnectAllDefaultConsoles
	.text
.Letext0:
	.file 2 "/home/kapoagaeming/Downloads/spacemit-image-builder/components/edk2/MdePkg/Include/RiscV64/ProcessorBind.h"
	.file 3 "/home/kapoagaeming/Downloads/spacemit-image-builder/components/edk2/MdePkg/Include/Base.h"
	.file 4 "/home/kapoagaeming/Downloads/spacemit-image-builder/components/edk2/MdePkg/Include/Uefi/UefiBaseType.h"
	.file 5 "/home/kapoagaeming/Downloads/spacemit-image-builder/components/edk2/MdePkg/Include/Uefi/UefiMultiPhase.h"
	.file 6 "/home/kapoagaeming/Downloads/spacemit-image-builder/components/edk2/MdePkg/Include/Protocol/DevicePath.h"
	.file 7 "/home/kapoagaeming/Downloads/spacemit-image-builder/components/edk2/MdePkg/Include/Protocol/SimpleTextIn.h"
	.file 8 "/home/kapoagaeming/Downloads/spacemit-image-builder/components/edk2/MdePkg/Include/Protocol/SimpleTextOut.h"
	.file 9 "/home/kapoagaeming/Downloads/spacemit-image-builder/components/edk2/MdePkg/Include/Uefi/UefiSpec.h"
	.file 10 "/home/kapoagaeming/Downloads/spacemit-image-builder/components/Build/Milk-V-Jupiter/RELEASE_GCC5/RISCV64/MdeModulePkg/Library/UefiBootManagerLib/UefiBootManagerLib/DEBUG/AutoGen.h"
	.file 11 "/home/kapoagaeming/Downloads/spacemit-image-builder/components/edk2/MdePkg/Include/IndustryStandard/Pci22.h"
	.file 12 "/home/kapoagaeming/Downloads/spacemit-image-builder/components/edk2/MdePkg/Include/Protocol/PciIo.h"
	.file 13 "/home/kapoagaeming/Downloads/spacemit-image-builder/components/edk2/MdeModulePkg/Include/Library/UefiBootManagerLib.h"
	.file 14 "/home/kapoagaeming/Downloads/spacemit-image-builder/components/edk2/MdePkg/Include/Library/UefiBootServicesTableLib.h"
	.file 15 "/home/kapoagaeming/Downloads/spacemit-image-builder/components/edk2/MdePkg/Include/Library/UefiRuntimeServicesTableLib.h"
	.file 16 "/home/kapoagaeming/Downloads/spacemit-image-builder/components/edk2/MdePkg/Include/Library/PerformanceLib.h"
	.file 17 "/home/kapoagaeming/Downloads/spacemit-image-builder/components/edk2/MdeModulePkg/Library/UefiBootManagerLib/InternalBm.h"
	.file 18 "/home/kapoagaeming/Downloads/spacemit-image-builder/components/edk2/MdePkg/Include/Library/DevicePathLib.h"
	.file 19 "/home/kapoagaeming/Downloads/spacemit-image-builder/components/edk2/MdePkg/Include/Library/BaseMemoryLib.h"
	.file 20 "/home/kapoagaeming/Downloads/spacemit-image-builder/components/edk2/MdePkg/Include/Library/UefiLib.h"
	.file 21 "/home/kapoagaeming/Downloads/spacemit-image-builder/components/edk2/MdePkg/Include/Library/MemoryAllocationLib.h"
	.section	.note.GNU-stack,"",@progbits
