	.file	"BmLoadOption.c"
	.option pic
	.option norelax
	.attribute arch, "rv64i2p1_m2p0_a2p1_f2p2_d2p2_c2p0_zicsr2p0_zifencei2p0_zmmul1p0_zaamo1p0_zalrsc1p0_zca1p0_zcd1p0"
	.attribute unaligned_access, 0
	.attribute stack_align, 16
	.text
.Ltext0:
	.cfi_sections	.debug_frame
	.file 0 "/home/kapoagaeming/spacemit-image-builder/components/Build/Milk-V-Jupiter/RELEASE_GCC5/RISCV64/MdeModulePkg/Library/UefiBootManagerLib/UefiBootManagerLib" "/home/kapoagaeming/spacemit-image-builder/components/edk2/MdeModulePkg/Library/UefiBootManagerLib/BmLoadOption.c"
	.globl	mBmLoadOptionName
	.section	.rodata
	.align	3
.LC0:
	.string	"D"
	.string	"r"
	.string	"i"
	.string	"v"
	.string	"e"
	.string	"r"
	.zero	2
	.align	3
.LC1:
	.string	"S"
	.string	"y"
	.string	"s"
	.string	"P"
	.string	"r"
	.string	"e"
	.string	"p"
	.zero	2
	.align	3
.LC2:
	.string	"B"
	.string	"o"
	.string	"o"
	.string	"t"
	.zero	2
	.align	3
.LC3:
	.string	"P"
	.string	"l"
	.string	"a"
	.string	"t"
	.string	"f"
	.string	"o"
	.string	"r"
	.string	"m"
	.string	"R"
	.string	"e"
	.string	"c"
	.string	"o"
	.string	"v"
	.string	"e"
	.string	"r"
	.string	"y"
	.zero	2
	.section	.data.rel.local.mBmLoadOptionName,"aw"
	.align	3
	.type	mBmLoadOptionName, @object
	.size	mBmLoadOptionName, 32
mBmLoadOptionName:
	.dword	.LC0
	.dword	.LC1
	.dword	.LC2
	.dword	.LC3
	.globl	mBmLoadOptionOrderName
	.section	.rodata
	.align	3
.LC4:
	.string	"D"
	.string	"r"
	.string	"i"
	.string	"v"
	.string	"e"
	.string	"r"
	.string	"O"
	.string	"r"
	.string	"d"
	.string	"e"
	.string	"r"
	.zero	2
	.align	3
.LC5:
	.string	"S"
	.string	"y"
	.string	"s"
	.string	"P"
	.string	"r"
	.string	"e"
	.string	"p"
	.string	"O"
	.string	"r"
	.string	"d"
	.string	"e"
	.string	"r"
	.zero	2
	.align	3
.LC6:
	.string	"B"
	.string	"o"
	.string	"o"
	.string	"t"
	.string	"O"
	.string	"r"
	.string	"d"
	.string	"e"
	.string	"r"
	.zero	2
	.section	.data.rel.local.mBmLoadOptionOrderName,"aw"
	.align	3
	.type	mBmLoadOptionOrderName, @object
	.size	mBmLoadOptionOrderName, 32
mBmLoadOptionOrderName:
	.dword	.LC4
	.dword	.LC5
	.dword	.LC6
	.dword	0
	.section	.text.BmForEachVariable,"ax",@progbits
	.align	1
	.globl	BmForEachVariable
	.type	BmForEachVariable, @function
BmForEachVariable:
.LFB0:
	.file 1 "/home/kapoagaeming/spacemit-image-builder/components/edk2/MdeModulePkg/Library/UefiBootManagerLib/BmLoadOption.c"
	.loc 1 41 1
	.cfi_startproc
	addi	sp,sp,-80
	.cfi_def_cfa_offset 80
	sd	ra,72(sp)
	sd	s0,64(sp)
	.cfi_offset 1, -8
	.cfi_offset 8, -16
	addi	s0,sp,80
	.cfi_def_cfa 8, 0
	sd	a0,-72(s0)
	sd	a1,-80(s0)
	.loc 1 48 12
	li	a5,2
	sd	a5,-40(s0)
	.loc 1 49 10
	ld	a0,-40(s0)
	call	AllocateZeroPool@plt
	sd	a0,-32(s0)
.L5:
	.loc 1 52 17
	ld	a5,-40(s0)
	sd	a5,-64(s0)
	.loc 1 53 17
	la	a5,gRT
	ld	a5,0(a5)
	ld	a5,80(a5)
	.loc 1 53 14
	addi	a3,s0,-56
	addi	a4,s0,-64
	mv	a2,a3
	ld	a1,-32(s0)
	mv	a0,a4
	jalr	a5
.LVL0:
	sd	a0,-24(s0)
	.loc 1 54 8
	ld	a4,-24(s0)
	li	a5,-1
	slli	a5,a5,63
	addi	a5,a5,5
	bne	a4,a5,.L2
	.loc 1 55 14
	ld	a5,-64(s0)
	ld	a2,-32(s0)
	mv	a1,a5
	ld	a0,-40(s0)
	call	ReallocatePool@plt
	sd	a0,-32(s0)
	.loc 1 57 19
	la	a5,gRT
	ld	a5,0(a5)
	ld	a5,80(a5)
	.loc 1 57 16
	addi	a3,s0,-56
	addi	a4,s0,-64
	mv	a2,a3
	ld	a1,-32(s0)
	mv	a0,a4
	jalr	a5
.LVL1:
	sd	a0,-24(s0)
	.loc 1 58 16
	ld	a5,-64(s0)
	sd	a5,-40(s0)
.L2:
	.loc 1 61 8
	ld	a4,-24(s0)
	li	a5,-1
	slli	a5,a5,63
	addi	a5,a5,14
	beq	a4,a5,.L7
	.loc 1 67 5
	addi	a4,s0,-56
	ld	a5,-72(s0)
	ld	a2,-80(s0)
	mv	a1,a4
	ld	a0,-32(s0)
	jalr	a5
.LVL2:
	.loc 1 52 17
	j	.L5
.L7:
	.loc 1 62 7
	nop
	.loc 1 70 3
	ld	a0,-32(s0)
	call	FreePool@plt
	.loc 1 71 1
	nop
	ld	ra,72(sp)
	.cfi_restore 1
	ld	s0,64(sp)
	.cfi_restore 8
	.cfi_def_cfa 2, 80
	addi	sp,sp,80
	.cfi_def_cfa_offset 0
	jr	ra
	.cfi_endproc
.LFE0:
	.size	BmForEachVariable, .-BmForEachVariable
	.section	.rodata
	.align	3
.LC7:
	.string	"B"
	.string	"o"
	.string	"o"
	.string	"t"
	.string	"N"
	.string	"e"
	.string	"x"
	.string	"t"
	.zero	2
	.section	.text.BmGetFreeOptionNumber,"ax",@progbits
	.align	1
	.globl	BmGetFreeOptionNumber
	.type	BmGetFreeOptionNumber, @function
BmGetFreeOptionNumber:
.LFB1:
	.loc 1 89 1
	.cfi_startproc
	addi	sp,sp,-80
	.cfi_def_cfa_offset 80
	sd	ra,72(sp)
	sd	s0,64(sp)
	.cfi_offset 1, -8
	.cfi_offset 8, -16
	addi	s0,sp,80
	.cfi_def_cfa 8, 0
	mv	a5,a0
	sd	a1,-80(s0)
	sw	a5,-68(s0)
	.loc 1 103 48
	lla	a4,mBmLoadOptionOrderName
	lwu	a5,-68(s0)
	slli	a5,a5,3
	add	a5,a4,a5
	ld	a5,0(a5)
	.loc 1 103 3
	addi	a3,s0,-48
	addi	a4,s0,-40
	mv	a2,a3
	mv	a1,a4
	mv	a0,a5
	call	GetEfiGlobalVariable2@plt
	.loc 1 106 12
	sd	zero,-56(s0)
	.loc 1 107 6
	lw	a5,-68(s0)
	sext.w	a4,a5
	li	a5,2
	bne	a4,a5,.L9
	.loc 1 108 5
	addi	a5,s0,-56
	li	a2,0
	mv	a1,a5
	lla	a0,.LC7
	call	GetEfiGlobalVariable2@plt
.L9:
	.loc 1 111 21
	sd	zero,-24(s0)
	.loc 1 111 3
	j	.L10
.L19:
	.loc 1 120 16
	sd	zero,-32(s0)
	.loc 1 120 5
	j	.L11
.L14:
	.loc 1 121 38
	ld	a4,-40(s0)
	ld	a5,-32(s0)
	slli	a5,a5,1
	add	a5,a4,a5
	lhu	a5,0(a5)
	mv	a4,a5
	.loc 1 121 10
	ld	a5,-24(s0)
	beq	a5,a4,.L25
	.loc 1 120 69 discriminator 2
	ld	a5,-32(s0)
	addi	a5,a5,1
	sd	a5,-32(s0)
.L11:
	.loc 1 120 45 discriminator 1
	ld	a5,-48(s0)
	srli	a5,a5,1
	.loc 1 120 27 discriminator 1
	ld	a4,-32(s0)
	bltu	a4,a5,.L14
	j	.L13
.L25:
	.loc 1 122 9
	nop
.L13:
	.loc 1 130 35
	ld	a5,-48(s0)
	srli	a5,a5,1
	.loc 1 130 8
	ld	a4,-32(s0)
	bne	a4,a5,.L15
	.loc 1 131 20
	ld	a5,-56(s0)
	.loc 1 130 54 discriminator 1
	beq	a5,zero,.L16
	.loc 1 131 57
	ld	a5,-56(s0)
	lhu	a5,0(a5)
	mv	a4,a5
	.loc 1 131 37
	ld	a5,-24(s0)
	bne	a5,a4,.L16
.L15:
	.loc 1 114 20
	ld	a5,-24(s0)
	addi	a5,a5,1
	sd	a5,-24(s0)
.L10:
	.loc 1 112 39
	ld	a5,-48(s0)
	srli	a4,a5,1
	.loc 1 113 21
	ld	a5,-56(s0)
	.loc 1 113 42
	beq	a5,zero,.L17
	.loc 1 113 42 is_stmt 0 discriminator 1
	li	a5,1
	j	.L18
.L17:
	.loc 1 113 42 discriminator 2
	li	a5,0
.L18:
	.loc 1 113 8 is_stmt 1 discriminator 4
	add	a5,a5,a4
	.loc 1 112 21
	ld	a4,-24(s0)
	bltu	a4,a5,.L19
.L16:
	.loc 1 138 19
	ld	a5,-40(s0)
	.loc 1 138 6
	beq	a5,zero,.L20
	.loc 1 139 5
	ld	a5,-40(s0)
	mv	a0,a5
	call	FreePool@plt
.L20:
	.loc 1 142 16
	ld	a5,-56(s0)
	.loc 1 142 6
	beq	a5,zero,.L21
	.loc 1 143 5
	ld	a5,-56(s0)
	mv	a0,a5
	call	FreePool@plt
.L21:
	.loc 1 151 6
	ld	a4,-24(s0)
	li	a5,65536
	bne	a4,a5,.L22
	.loc 1 152 12
	li	a5,-1
	slli	a5,a5,63
	addi	a5,a5,9
	j	.L24
.L22:
	.loc 1 154 25
	ld	a5,-24(s0)
	slli	a4,a5,48
	srli	a4,a4,48
	.loc 1 154 23
	ld	a5,-80(s0)
	sh	a4,0(a5)
	.loc 1 155 12
	li	a5,0
.L24:
	.loc 1 157 1
	mv	a0,a5
	ld	ra,72(sp)
	.cfi_restore 1
	ld	s0,64(sp)
	.cfi_restore 8
	.cfi_def_cfa 2, 80
	addi	sp,sp,80
	.cfi_def_cfa_offset 0
	jr	ra
	.cfi_endproc
.LFE1:
	.size	BmGetFreeOptionNumber, .-BmGetFreeOptionNumber
	.section	.rodata
	.align	3
.LC8:
	.string	"%"
	.string	"s"
	.string	"%"
	.string	"0"
	.string	"4"
	.string	"x"
	.zero	2
	.section	.text.EfiBootManagerLoadOptionToVariable,"ax",@progbits
	.align	1
	.globl	EfiBootManagerLoadOptionToVariable
	.type	EfiBootManagerLoadOptionToVariable, @function
EfiBootManagerLoadOptionToVariable:
.LFB2:
	.loc 1 173 1
	.cfi_startproc
	addi	sp,sp,-160
	.cfi_def_cfa_offset 160
	sd	ra,152(sp)
	sd	s0,144(sp)
	sd	s1,136(sp)
	.cfi_offset 1, -8
	.cfi_offset 8, -16
	.cfi_offset 9, -24
	addi	s0,sp,160
	.cfi_def_cfa 8, 0
	sd	a0,-152(s0)
	.loc 1 184 14
	ld	a5,-152(s0)
	ld	a4,0(a5)
	.loc 1 184 6
	li	a5,65536
	beq	a4,a5,.L27
	.loc 1 185 14
	ld	a5,-152(s0)
	ld	a5,24(a5)
	.loc 1 184 60 discriminator 1
	beq	a5,zero,.L27
	.loc 1 186 22
	ld	a5,-152(s0)
	lw	a4,8(a5)
	.loc 1 185 42
	li	a5,3
	bleu	a4,a5,.L28
.L27:
	.loc 1 189 12
	li	a5,-1
	slli	a5,a5,63
	addi	a5,a5,2
	j	.L33
.L28:
	.loc 1 195 12
	sh	zero,-130(s0)
	.loc 1 196 15
	ld	a5,-152(s0)
	ld	a5,16(a5)
	sd	a5,-40(s0)
	.loc 1 197 6
	ld	a5,-40(s0)
	bne	a5,zero,.L30
	.loc 1 198 17
	addi	a5,s0,-130
	sd	a5,-40(s0)
.L30:
	.loc 1 218 20
	ld	a0,-40(s0)
	call	StrSize@plt
	mv	s1,a0
	.loc 1 219 45
	ld	a5,-152(s0)
	ld	a5,24(a5)
	.loc 1 219 20
	mv	a0,a5
	call	GetDevicePathSize@plt
	mv	a5,a0
	.loc 1 219 18 discriminator 1
	add	a4,s1,a5
	.loc 1 220 26
	ld	a5,-152(s0)
	lw	a5,40(a5)
	slli	a5,a5,32
	srli	a5,a5,32
	.loc 1 220 18
	add	a5,a4,a5
	.loc 1 216 16
	addi	a5,a5,6
	sd	a5,-56(s0)
	.loc 1 222 14
	ld	a0,-56(s0)
	call	AllocatePool@plt
	sd	a0,-64(s0)
	.loc 1 225 7
	ld	a5,-64(s0)
	sd	a5,-72(s0)
	.loc 1 226 42
	ld	a5,-152(s0)
	lw	a5,12(a5)
	.loc 1 226 3
	mv	a1,a5
	ld	a0,-72(s0)
	call	WriteUnaligned32@plt
	.loc 1 227 7
	ld	a5,-72(s0)
	addi	a5,a5,4
	sd	a5,-72(s0)
	.loc 1 229 69
	ld	a5,-152(s0)
	ld	a5,24(a5)
	.loc 1 229 44
	mv	a0,a5
	call	GetDevicePathSize@plt
	mv	a5,a0
	.loc 1 229 3 discriminator 1
	slli	a5,a5,48
	srli	a5,a5,48
	mv	a1,a5
	ld	a0,-72(s0)
	call	WriteUnaligned16@plt
	.loc 1 230 7
	ld	a5,-72(s0)
	addi	a5,a5,2
	sd	a5,-72(s0)
	.loc 1 232 3
	ld	a0,-40(s0)
	call	StrSize@plt
	mv	a5,a0
	.loc 1 232 3 is_stmt 0 discriminator 1
	mv	a2,a5
	ld	a1,-40(s0)
	ld	a0,-72(s0)
	call	CopyMem@plt
	.loc 1 233 10 is_stmt 1
	ld	a0,-40(s0)
	call	StrSize@plt
	mv	a4,a0
	.loc 1 233 7 discriminator 1
	ld	a5,-72(s0)
	add	a5,a5,a4
	sd	a5,-72(s0)
	.loc 1 235 23
	ld	a5,-152(s0)
	ld	s1,24(a5)
	.loc 1 235 60
	ld	a5,-152(s0)
	ld	a5,24(a5)
	.loc 1 235 3
	mv	a0,a5
	call	GetDevicePathSize@plt
	mv	a5,a0
	.loc 1 235 3 is_stmt 0 discriminator 1
	mv	a2,a5
	mv	a1,s1
	ld	a0,-72(s0)
	call	CopyMem@plt
	.loc 1 236 35 is_stmt 1
	ld	a5,-152(s0)
	ld	a5,24(a5)
	.loc 1 236 10
	mv	a0,a5
	call	GetDevicePathSize@plt
	mv	a4,a0
	.loc 1 236 7 discriminator 1
	ld	a5,-72(s0)
	add	a5,a5,a4
	sd	a5,-72(s0)
	.loc 1 238 23
	ld	a5,-152(s0)
	ld	a4,32(a5)
	.loc 1 238 45
	ld	a5,-152(s0)
	lw	a5,40(a5)
	.loc 1 238 3
	slli	a5,a5,32
	srli	a5,a5,32
	mv	a2,a5
	mv	a1,a4
	ld	a0,-72(s0)
	call	CopyMem@plt
	.loc 1 240 86
	ld	a5,-152(s0)
	lw	a5,8(a5)
	.loc 1 240 3
	lla	a4,mBmLoadOptionName
	slli	a5,a5,32
	srli	a5,a5,32
	slli	a5,a5,3
	add	a5,a4,a5
	ld	a3,0(a5)
	.loc 1 240 107
	ld	a5,-152(s0)
	ld	a4,0(a5)
	.loc 1 240 3
	addi	a5,s0,-128
	lla	a2,.LC8
	li	a1,42
	mv	a0,a5
	call	UnicodeSPrint@plt
	.loc 1 242 22
	li	a5,7
	sw	a5,-44(s0)
	.loc 1 243 13
	ld	a5,-152(s0)
	lw	a4,8(a5)
	.loc 1 243 6
	li	a5,3
	bne	a4,a5,.L31
	.loc 1 247 17
	la	a5,gBS
	ld	a5,0(a5)
	ld	a5,320(a5)
	.loc 1 247 14
	addi	a4,s0,-144
	mv	a2,a4
	li	a1,0
	la	a0,gEdkiiVariablePolicyProtocolGuid
	jalr	a5
.LVL3:
	sd	a0,-80(s0)
	.loc 1 248 9
	ld	a5,-80(s0)
	.loc 1 248 8
	blt	a5,zero,.L32
	.loc 1 249 16
	ld	a0,-144(s0)
	addi	a2,s0,-128
	li	a7,1
	li	a6,0
	li	a5,0
	li	a4,-1
	li	a3,0
	la	a1,gEfiGlobalVariableGuid
	call	RegisterBasicVariablePolicy@plt
	sd	a0,-80(s0)
.L32:
	.loc 1 262 24
	li	a5,6
	sw	a5,-44(s0)
.L31:
	.loc 1 265 15
	la	a5,gRT
	ld	a5,0(a5)
	ld	a5,88(a5)
	.loc 1 265 12
	lw	a2,-44(s0)
	addi	a0,s0,-128
	ld	a4,-64(s0)
	ld	a3,-56(s0)
	la	a1,gEfiGlobalVariableGuid
	jalr	a5
.LVL4:
	sd	a0,-80(s0)
	.loc 1 272 3
	ld	a0,-64(s0)
	call	FreePool@plt
	.loc 1 274 10
	ld	a5,-80(s0)
.L33:
	.loc 1 275 1
	mv	a0,a5
	ld	ra,152(sp)
	.cfi_restore 1
	ld	s0,144(sp)
	.cfi_restore 8
	.cfi_def_cfa 2, 160
	ld	s1,136(sp)
	.cfi_restore 9
	addi	sp,sp,160
	.cfi_def_cfa_offset 0
	jr	ra
	.cfi_endproc
.LFE2:
	.size	EfiBootManagerLoadOptionToVariable, .-EfiBootManagerLoadOptionToVariable
	.section	.text.BmAddOptionNumberToOrderVariable,"ax",@progbits
	.align	1
	.globl	BmAddOptionNumberToOrderVariable
	.type	BmAddOptionNumberToOrderVariable, @function
BmAddOptionNumberToOrderVariable:
.LFB3:
	.loc 1 295 1
	.cfi_startproc
	addi	sp,sp,-96
	.cfi_def_cfa_offset 96
	sd	ra,88(sp)
	sd	s0,80(sp)
	.cfi_offset 1, -8
	.cfi_offset 8, -16
	addi	s0,sp,96
	.cfi_def_cfa 8, 0
	sd	a0,-72(s0)
	mv	a5,a1
	sd	a2,-88(s0)
	sh	a5,-74(s0)
	.loc 1 305 3
	addi	a4,s0,-56
	addi	a5,s0,-48
	mv	a2,a4
	mv	a1,a5
	ld	a0,-72(s0)
	call	GetEfiGlobalVariable2@plt
	.loc 1 308 10
	sd	zero,-24(s0)
	.loc 1 309 14
	sd	zero,-32(s0)
	.loc 1 309 3
	j	.L35
.L38:
	.loc 1 310 20
	ld	a4,-48(s0)
	ld	a5,-32(s0)
	slli	a5,a5,1
	add	a5,a4,a5
	lhu	a5,0(a5)
	.loc 1 310 8
	lhu	a4,-74(s0)
	sext.w	a4,a4
	sext.w	a5,a5
	bne	a4,a5,.L36
	.loc 1 311 14
	li	a5,-1
	slli	a5,a5,63
	addi	a5,a5,20
	sd	a5,-24(s0)
	.loc 1 312 7
	j	.L37
.L36:
	.loc 1 309 67 discriminator 2
	ld	a5,-32(s0)
	addi	a5,a5,1
	sd	a5,-32(s0)
.L35:
	.loc 1 309 43 discriminator 1
	ld	a5,-56(s0)
	srli	a5,a5,1
	.loc 1 309 25 discriminator 1
	ld	a4,-32(s0)
	bltu	a4,a5,.L38
.L37:
	.loc 1 316 7
	ld	a5,-24(s0)
	.loc 1 316 6
	blt	a5,zero,.L39
	.loc 1 317 48
	ld	a5,-56(s0)
	srli	a4,a5,1
	.loc 1 317 14
	ld	a5,-88(s0)
	bleu	a5,a4,.L40
	mv	a5,a4
.L40:
	sd	a5,-88(s0)
	.loc 1 319 22
	ld	a5,-56(s0)
	.loc 1 319 52
	addi	a5,a5,2
	.loc 1 319 22
	mv	a0,a5
	call	AllocatePool@plt
	sd	a0,-40(s0)
	.loc 1 321 25
	ld	a5,-56(s0)
	.loc 1 321 8
	beq	a5,zero,.L41
	.loc 1 322 7
	ld	a4,-48(s0)
	.loc 1 322 54
	ld	a5,-88(s0)
	slli	a5,a5,1
	.loc 1 322 7
	mv	a2,a5
	mv	a1,a4
	ld	a0,-40(s0)
	call	CopyMem@plt
	.loc 1 323 31
	ld	a5,-88(s0)
	addi	a5,a5,1
	slli	a5,a5,1
	.loc 1 323 16
	ld	a4,-40(s0)
	add	a3,a4,a5
	.loc 1 323 7
	ld	a4,-48(s0)
	.loc 1 323 59
	ld	a5,-88(s0)
	slli	a5,a5,1
	.loc 1 323 47
	add	a1,a4,a5
	.loc 1 323 7
	ld	a4,-56(s0)
	.loc 1 323 98
	ld	a5,-88(s0)
	slli	a5,a5,1
	.loc 1 323 87
	sub	a5,a4,a5
	.loc 1 323 7
	mv	a2,a5
	mv	a0,a3
	call	CopyMem@plt
.L41:
	.loc 1 326 19
	ld	a5,-88(s0)
	slli	a5,a5,1
	ld	a4,-40(s0)
	add	a5,a4,a5
	.loc 1 326 30
	lhu	a4,-74(s0)
	sh	a4,0(a5)
	.loc 1 328 17
	la	a5,gRT
	ld	a5,0(a5)
	ld	a5,88(a5)
	.loc 1 328 14
	ld	a4,-56(s0)
	.loc 1 332 37
	addi	a3,a4,2
	.loc 1 328 14
	ld	a4,-40(s0)
	li	a2,7
	la	a1,gEfiGlobalVariableGuid
	ld	a0,-72(s0)
	jalr	a5
.LVL5:
	sd	a0,-24(s0)
	.loc 1 335 5
	ld	a0,-40(s0)
	call	FreePool@plt
.L39:
	.loc 1 338 19
	ld	a5,-48(s0)
	.loc 1 338 6
	beq	a5,zero,.L42
	.loc 1 339 5
	ld	a5,-48(s0)
	mv	a0,a5
	call	FreePool@plt
.L42:
	.loc 1 342 10
	ld	a5,-24(s0)
	.loc 1 343 1
	mv	a0,a5
	ld	ra,88(sp)
	.cfi_restore 1
	ld	s0,80(sp)
	.cfi_restore 8
	.cfi_def_cfa 2, 96
	addi	sp,sp,96
	.cfi_def_cfa_offset 0
	jr	ra
	.cfi_endproc
.LFE3:
	.size	BmAddOptionNumberToOrderVariable, .-BmAddOptionNumberToOrderVariable
	.section	.text.EfiBootManagerAddLoadOptionVariable,"ax",@progbits
	.align	1
	.globl	EfiBootManagerAddLoadOptionVariable
	.type	EfiBootManagerAddLoadOptionVariable, @function
EfiBootManagerAddLoadOptionVariable:
.LFB4:
	.loc 1 371 1
	.cfi_startproc
	addi	sp,sp,-48
	.cfi_def_cfa_offset 48
	sd	ra,40(sp)
	sd	s0,32(sp)
	.cfi_offset 1, -8
	.cfi_offset 8, -16
	addi	s0,sp,48
	.cfi_def_cfa 8, 0
	sd	a0,-40(s0)
	sd	a1,-48(s0)
	.loc 1 375 6
	ld	a5,-40(s0)
	bne	a5,zero,.L45
	.loc 1 376 12
	li	a5,-1
	slli	a5,a5,63
	addi	a5,a5,2
	j	.L52
.L45:
	.loc 1 379 14
	ld	a5,-40(s0)
	lw	a5,8(a5)
	.loc 1 379 6
	beq	a5,zero,.L47
	.loc 1 380 14
	ld	a5,-40(s0)
	lw	a4,8(a5)
	.loc 1 379 52 discriminator 1
	li	a5,1
	beq	a4,a5,.L47
	.loc 1 381 14
	ld	a5,-40(s0)
	lw	a4,8(a5)
	.loc 1 380 53
	li	a5,2
	beq	a4,a5,.L47
	.loc 1 384 12
	li	a5,-1
	slli	a5,a5,63
	addi	a5,a5,2
	j	.L52
.L47:
	.loc 1 390 13
	ld	a5,-40(s0)
	ld	a4,0(a5)
	.loc 1 390 6
	li	a5,65536
	bne	a4,a5,.L48
	.loc 1 391 14
	ld	a5,-40(s0)
	lw	a5,8(a5)
	addi	a4,s0,-26
	mv	a1,a4
	mv	a0,a5
	call	BmGetFreeOptionNumber
	sd	a0,-24(s0)
	.loc 1 392 36
	ld	a5,-24(s0)
	.loc 1 392 8
	bge	a5,zero,.L49
	.loc 1 393 14
	ld	a5,-24(s0)
	j	.L52
.L49:
	.loc 1 396 26
	lhu	a5,-26(s0)
	mv	a4,a5
	ld	a5,-40(s0)
	sd	a4,0(a5)
.L48:
	.loc 1 399 13
	ld	a5,-40(s0)
	ld	a4,0(a5)
	.loc 1 399 6
	li	a5,65536
	bltu	a4,a5,.L50
	.loc 1 400 12
	li	a5,-1
	slli	a5,a5,63
	addi	a5,a5,2
	j	.L52
.L50:
	.loc 1 403 75
	ld	a5,-40(s0)
	lw	a5,8(a5)
	.loc 1 403 12
	lla	a4,mBmLoadOptionOrderName
	slli	a5,a5,32
	srli	a5,a5,32
	slli	a5,a5,3
	add	a5,a4,a5
	ld	a4,0(a5)
	.loc 1 403 104
	ld	a5,-40(s0)
	ld	a5,0(a5)
	.loc 1 403 12
	slli	a5,a5,48
	srli	a5,a5,48
	ld	a2,-48(s0)
	mv	a1,a5
	mv	a0,a4
	call	BmAddOptionNumberToOrderVariable
	sd	a0,-24(s0)
	.loc 1 404 7
	ld	a5,-24(s0)
	.loc 1 404 6
	blt	a5,zero,.L51
	.loc 1 408 14
	ld	a0,-40(s0)
	call	EfiBootManagerLoadOptionToVariable
	sd	a0,-24(s0)
	.loc 1 409 36
	ld	a5,-24(s0)
	.loc 1 409 8
	bge	a5,zero,.L51
	.loc 1 413 7
	ld	a5,-40(s0)
	ld	a4,0(a5)
	ld	a5,-40(s0)
	lw	a5,8(a5)
	mv	a1,a5
	mv	a0,a4
	call	EfiBootManagerDeleteLoadOptionVariable
.L51:
	.loc 1 417 10
	ld	a5,-24(s0)
.L52:
	.loc 1 418 1
	mv	a0,a5
	ld	ra,40(sp)
	.cfi_restore 1
	ld	s0,32(sp)
	.cfi_restore 8
	.cfi_def_cfa 2, 48
	addi	sp,sp,48
	.cfi_def_cfa_offset 0
	jr	ra
	.cfi_endproc
.LFE4:
	.size	EfiBootManagerAddLoadOptionVariable, .-EfiBootManagerAddLoadOptionVariable
	.section	.text.EfiBootManagerSortLoadOptionVariable,"ax",@progbits
	.align	1
	.globl	EfiBootManagerSortLoadOptionVariable
	.type	EfiBootManagerSortLoadOptionVariable, @function
EfiBootManagerSortLoadOptionVariable:
.LFB5:
	.loc 1 433 1
	.cfi_startproc
	addi	sp,sp,-80
	.cfi_def_cfa_offset 80
	sd	ra,72(sp)
	sd	s0,64(sp)
	.cfi_offset 1, -8
	.cfi_offset 8, -16
	addi	s0,sp,80
	.cfi_def_cfa 8, 0
	mv	a5,a0
	sd	a1,-80(s0)
	sw	a5,-68(s0)
	.loc 1 440 16
	lw	a4,-68(s0)
	addi	a5,s0,-56
	mv	a1,a4
	mv	a0,a5
	call	EfiBootManagerGetLoadOptions
	sd	a0,-32(s0)
	.loc 1 445 3
	ld	a5,-56(s0)
	ld	a3,-80(s0)
	li	a2,88
	mv	a1,a5
	ld	a0,-32(s0)
	call	PerformQuickSort@plt
	.loc 1 455 17
	ld	a5,-56(s0)
	.loc 1 455 47
	slli	a5,a5,1
	.loc 1 455 17
	mv	a0,a5
	call	AllocatePool@plt
	sd	a0,-40(s0)
	.loc 1 457 14
	sd	zero,-24(s0)
	.loc 1 457 3
	j	.L54
.L55:
	.loc 1 458 44
	ld	a4,-24(s0)
	li	a5,88
	mul	a5,a4,a5
	ld	a4,-32(s0)
	add	a5,a4,a5
	.loc 1 458 51
	ld	a3,0(a5)
	.loc 1 458 16
	ld	a5,-24(s0)
	slli	a5,a5,1
	ld	a4,-40(s0)
	add	a5,a4,a5
	.loc 1 458 26
	slli	a4,a3,48
	srli	a4,a4,48
	.loc 1 458 24
	sh	a4,0(a5)
	.loc 1 457 49 discriminator 3
	ld	a5,-24(s0)
	addi	a5,a5,1
	sd	a5,-24(s0)
.L54:
	.loc 1 457 25 discriminator 1
	ld	a5,-56(s0)
	ld	a4,-24(s0)
	bltu	a4,a5,.L55
	.loc 1 461 15
	la	a5,gRT
	ld	a5,0(a5)
	ld	a5,88(a5)
	.loc 1 461 12
	lla	a3,mBmLoadOptionOrderName
	lwu	a4,-68(s0)
	slli	a4,a4,3
	add	a4,a3,a4
	ld	a0,0(a4)
	ld	a4,-56(s0)
	.loc 1 465 35
	slli	a3,a4,1
	.loc 1 461 12
	ld	a4,-40(s0)
	li	a2,7
	la	a1,gEfiGlobalVariableGuid
	jalr	a5
.LVL6:
	sd	a0,-48(s0)
	.loc 1 473 3
	ld	a0,-40(s0)
	call	FreePool@plt
	.loc 1 474 3
	ld	a5,-56(s0)
	mv	a1,a5
	ld	a0,-32(s0)
	call	EfiBootManagerFreeLoadOptions
	.loc 1 475 1
	nop
	ld	ra,72(sp)
	.cfi_restore 1
	ld	s0,64(sp)
	.cfi_restore 8
	.cfi_def_cfa 2, 80
	addi	sp,sp,80
	.cfi_def_cfa_offset 0
	jr	ra
	.cfi_endproc
.LFE5:
	.size	EfiBootManagerSortLoadOptionVariable, .-EfiBootManagerSortLoadOptionVariable
	.section	.text.EfiBootManagerInitializeLoadOption,"ax",@progbits
	.align	1
	.globl	EfiBootManagerInitializeLoadOption
	.type	EfiBootManagerInitializeLoadOption, @function
EfiBootManagerInitializeLoadOption:
.LFB6:
	.loc 1 504 1
	.cfi_startproc
	addi	sp,sp,-80
	.cfi_def_cfa_offset 80
	sd	ra,72(sp)
	sd	s0,64(sp)
	.cfi_offset 1, -8
	.cfi_offset 8, -16
	addi	s0,sp,80
	.cfi_def_cfa 8, 0
	sd	a0,-24(s0)
	sd	a1,-32(s0)
	sd	a4,-48(s0)
	sd	a5,-56(s0)
	sd	a6,-64(s0)
	mv	a4,a7
	mv	a5,a2
	sw	a5,-36(s0)
	mv	a5,a3
	sw	a5,-40(s0)
	mv	a5,a4
	sw	a5,-68(s0)
	.loc 1 505 6
	ld	a5,-24(s0)
	beq	a5,zero,.L57
	.loc 1 505 32 discriminator 1
	ld	a5,-48(s0)
	beq	a5,zero,.L57
	.loc 1 505 65 discriminator 2
	ld	a5,-56(s0)
	bne	a5,zero,.L58
.L57:
	.loc 1 506 12
	li	a5,-1
	slli	a5,a5,63
	addi	a5,a5,2
	j	.L59
.L58:
	.loc 1 509 6
	ld	a5,-64(s0)
	beq	a5,zero,.L60
	.loc 1 509 39 discriminator 1
	lw	a5,-68(s0)
	sext.w	a5,a5
	beq	a5,zero,.L61
.L60:
	.loc 1 509 67 discriminator 3
	ld	a5,-64(s0)
	bne	a5,zero,.L62
	.loc 1 510 39
	lw	a5,-68(s0)
	sext.w	a5,a5
	beq	a5,zero,.L62
.L61:
	.loc 1 512 12
	li	a5,-1
	slli	a5,a5,63
	addi	a5,a5,2
	j	.L59
.L62:
	.loc 1 515 6
	lw	a5,-36(s0)
	sext.w	a4,a5
	li	a5,3
	bleu	a4,a5,.L63
	.loc 1 516 12
	li	a5,-1
	slli	a5,a5,63
	addi	a5,a5,2
	j	.L59
.L63:
	.loc 1 519 3
	li	a1,88
	ld	a0,-24(s0)
	call	ZeroMem@plt
	.loc 1 520 24
	ld	a5,-24(s0)
	ld	a4,-32(s0)
	sd	a4,0(a5)
	.loc 1 521 22
	ld	a5,-24(s0)
	lw	a4,-36(s0)
	sw	a4,8(a5)
	.loc 1 522 22
	ld	a5,-24(s0)
	lw	a4,-40(s0)
	sw	a4,12(a5)
	.loc 1 523 25
	ld	a0,-48(s0)
	call	StrSize@plt
	mv	a5,a0
	.loc 1 523 25 is_stmt 0 discriminator 1
	ld	a1,-48(s0)
	mv	a0,a5
	call	AllocateCopyPool@plt
	mv	a4,a0
	.loc 1 523 23 is_stmt 1 discriminator 2
	ld	a5,-24(s0)
	sd	a4,16(a5)
	.loc 1 524 22
	ld	a0,-56(s0)
	call	DuplicateDevicePath@plt
	mv	a4,a0
	.loc 1 524 20 discriminator 1
	ld	a5,-24(s0)
	sd	a4,24(a5)
	.loc 1 525 6
	ld	a5,-64(s0)
	beq	a5,zero,.L64
	.loc 1 526 28
	lwu	a5,-68(s0)
	ld	a1,-64(s0)
	mv	a0,a5
	call	AllocateCopyPool@plt
	mv	a4,a0
	.loc 1 526 26 discriminator 1
	ld	a5,-24(s0)
	sd	a4,32(a5)
	.loc 1 527 30
	ld	a5,-24(s0)
	lw	a4,-68(s0)
	sw	a4,40(a5)
.L64:
	.loc 1 530 10
	li	a5,0
.L59:
	.loc 1 531 1
	mv	a0,a5
	ld	ra,72(sp)
	.cfi_restore 1
	ld	s0,64(sp)
	.cfi_restore 8
	.cfi_def_cfa 2, 80
	addi	sp,sp,80
	.cfi_def_cfa_offset 0
	jr	ra
	.cfi_endproc
.LFE6:
	.size	EfiBootManagerInitializeLoadOption, .-EfiBootManagerInitializeLoadOption
	.section	.text.EfiBootManagerFindLoadOption,"ax",@progbits
	.align	1
	.globl	EfiBootManagerFindLoadOption
	.type	EfiBootManagerFindLoadOption, @function
EfiBootManagerFindLoadOption:
.LFB7:
	.loc 1 553 1
	.cfi_startproc
	addi	sp,sp,-80
	.cfi_def_cfa_offset 80
	sd	ra,72(sp)
	sd	s0,64(sp)
	sd	s1,56(sp)
	sd	s2,48(sp)
	.cfi_offset 1, -8
	.cfi_offset 8, -16
	.cfi_offset 9, -24
	.cfi_offset 18, -32
	addi	s0,sp,80
	.cfi_def_cfa 8, 0
	sd	a0,-56(s0)
	sd	a1,-64(s0)
	sd	a2,-72(s0)
	.loc 1 556 14
	sd	zero,-40(s0)
	.loc 1 556 3
	j	.L66
.L69:
	.loc 1 557 13
	ld	a5,-56(s0)
	lw	a4,8(a5)
	.loc 1 557 34
	ld	a3,-40(s0)
	li	a5,88
	mul	a5,a3,a5
	ld	a3,-64(s0)
	add	a5,a3,a5
	.loc 1 557 41
	lw	a5,8(a5)
	.loc 1 557 8
	bne	a4,a5,.L67
	.loc 1 558 13
	ld	a5,-56(s0)
	lw	a4,12(a5)
	.loc 1 558 34
	ld	a3,-40(s0)
	li	a5,88
	mul	a5,a3,a5
	ld	a3,-64(s0)
	add	a5,a3,a5
	.loc 1 558 41
	lw	a5,12(a5)
	.loc 1 557 54 discriminator 1
	bne	a4,a5,.L67
	.loc 1 559 21
	ld	a5,-56(s0)
	ld	a3,16(a5)
	.loc 1 559 41
	ld	a4,-40(s0)
	li	a5,88
	mul	a5,a4,a5
	ld	a4,-64(s0)
	add	a5,a4,a5
	.loc 1 559 48
	ld	a5,16(a5)
	.loc 1 559 10
	mv	a1,a5
	mv	a0,a3
	call	StrCmp@plt
	mv	a5,a0
	.loc 1 558 54
	bne	a5,zero,.L67
	.loc 1 560 25
	ld	a5,-56(s0)
	ld	s1,24(a5)
	.loc 1 560 42
	ld	a4,-40(s0)
	li	a5,88
	mul	a5,a4,a5
	ld	a4,-64(s0)
	add	a5,a4,a5
	.loc 1 560 49
	ld	s2,24(a5)
	.loc 1 560 82
	ld	a5,-56(s0)
	ld	a5,24(a5)
	.loc 1 560 10
	mv	a0,a5
	call	GetDevicePathSize@plt
	mv	a5,a0
	.loc 1 560 10 is_stmt 0 discriminator 1
	mv	a2,a5
	mv	a1,s2
	mv	a0,s1
	call	CompareMem@plt
	mv	a5,a0
	.loc 1 559 68 is_stmt 1
	bne	a5,zero,.L67
	.loc 1 561 13
	ld	a5,-56(s0)
	lw	a4,40(a5)
	.loc 1 561 40
	ld	a3,-40(s0)
	li	a5,88
	mul	a5,a3,a5
	ld	a3,-64(s0)
	add	a5,a3,a5
	.loc 1 561 47
	lw	a5,40(a5)
	.loc 1 560 101
	bne	a4,a5,.L67
	.loc 1 562 25
	ld	a5,-56(s0)
	ld	a3,32(a5)
	.loc 1 562 46
	ld	a4,-40(s0)
	li	a5,88
	mul	a5,a4,a5
	ld	a4,-64(s0)
	add	a5,a4,a5
	.loc 1 562 53
	ld	a4,32(a5)
	.loc 1 562 71
	ld	a5,-56(s0)
	lw	a5,40(a5)
	.loc 1 562 10
	slli	a5,a5,32
	srli	a5,a5,32
	mv	a2,a5
	mv	a1,a4
	mv	a0,a3
	call	CompareMem@plt
	mv	a5,a0
	.loc 1 561 66
	bne	a5,zero,.L67
	.loc 1 564 14
	ld	a5,-40(s0)
	j	.L68
.L67:
	.loc 1 556 39 discriminator 2
	ld	a5,-40(s0)
	addi	a5,a5,1
	sd	a5,-40(s0)
.L66:
	.loc 1 556 25 discriminator 1
	ld	a4,-40(s0)
	ld	a5,-72(s0)
	bltu	a4,a5,.L69
	.loc 1 568 10
	li	a5,-1
.L68:
	.loc 1 569 1
	mv	a0,a5
	ld	ra,72(sp)
	.cfi_restore 1
	ld	s0,64(sp)
	.cfi_restore 8
	.cfi_def_cfa 2, 80
	ld	s1,56(sp)
	.cfi_restore 9
	ld	s2,48(sp)
	.cfi_restore 18
	addi	sp,sp,80
	.cfi_def_cfa_offset 0
	jr	ra
	.cfi_endproc
.LFE7:
	.size	EfiBootManagerFindLoadOption, .-EfiBootManagerFindLoadOption
	.section	.text.EfiBootManagerDeleteLoadOptionVariable,"ax",@progbits
	.align	1
	.globl	EfiBootManagerDeleteLoadOptionVariable
	.type	EfiBootManagerDeleteLoadOptionVariable, @function
EfiBootManagerDeleteLoadOptionVariable:
.LFB8:
	.loc 1 588 1
	.cfi_startproc
	addi	sp,sp,-112
	.cfi_def_cfa_offset 112
	sd	ra,104(sp)
	sd	s0,96(sp)
	.cfi_offset 1, -8
	.cfi_offset 8, -16
	addi	s0,sp,112
	.cfi_def_cfa 8, 0
	sd	a0,-104(s0)
	mv	a5,a1
	sw	a5,-108(s0)
	.loc 1 594 6
	lw	a5,-108(s0)
	sext.w	a4,a5
	li	a5,3
	bgtu	a4,a5,.L71
	.loc 1 594 49 discriminator 1
	ld	a4,-104(s0)
	li	a5,65536
	bltu	a4,a5,.L72
.L71:
	.loc 1 595 12
	li	a5,-1
	slli	a5,a5,63
	addi	a5,a5,2
	j	.L80
.L72:
	.loc 1 598 6
	lw	a5,-108(s0)
	sext.w	a5,a5
	beq	a5,zero,.L74
	.loc 1 598 44 discriminator 1
	lw	a5,-108(s0)
	sext.w	a4,a5
	li	a5,1
	beq	a4,a5,.L74
	.loc 1 598 85 discriminator 2
	lw	a5,-108(s0)
	sext.w	a4,a5
	li	a5,2
	bne	a4,a5,.L75
.L74:
	.loc 1 603 50
	lla	a4,mBmLoadOptionOrderName
	lwu	a5,-108(s0)
	slli	a5,a5,3
	add	a5,a4,a5
	ld	a5,0(a5)
	.loc 1 603 5
	addi	a3,s0,-40
	addi	a4,s0,-32
	mv	a2,a3
	mv	a1,a4
	mv	a0,a5
	call	GetEfiGlobalVariable2@plt
	.loc 1 606 16
	sd	zero,-24(s0)
	.loc 1 606 5
	j	.L76
.L79:
	.loc 1 607 22
	ld	a4,-32(s0)
	ld	a5,-24(s0)
	slli	a5,a5,1
	add	a5,a4,a5
	lhu	a5,0(a5)
	mv	a4,a5
	.loc 1 607 10
	ld	a5,-104(s0)
	bne	a5,a4,.L77
	.loc 1 608 25
	ld	a5,-40(s0)
	addi	a5,a5,-2
	sd	a5,-40(s0)
	.loc 1 609 9
	ld	a4,-32(s0)
	.loc 1 609 30
	ld	a5,-24(s0)
	slli	a5,a5,1
	.loc 1 609 18
	add	a3,a4,a5
	.loc 1 609 9
	ld	a4,-32(s0)
	.loc 1 609 51
	ld	a5,-24(s0)
	addi	a5,a5,1
	slli	a5,a5,1
	.loc 1 609 39
	add	a1,a4,a5
	.loc 1 609 9
	ld	a4,-40(s0)
	.loc 1 609 88
	ld	a5,-24(s0)
	slli	a5,a5,1
	.loc 1 609 80
	sub	a5,a4,a5
	.loc 1 609 9
	mv	a2,a5
	mv	a0,a3
	call	CopyMem@plt
	.loc 1 610 12
	la	a5,gRT
	ld	a5,0(a5)
	ld	a5,88(a5)
	.loc 1 610 9
	lla	a3,mBmLoadOptionOrderName
	lwu	a4,-108(s0)
	slli	a4,a4,3
	add	a4,a3,a4
	ld	a0,0(a4)
	ld	a3,-40(s0)
	ld	a4,-32(s0)
	li	a2,7
	la	a1,gEfiGlobalVariableGuid
	jalr	a5
.LVL7:
	.loc 1 617 9
	j	.L78
.L77:
	.loc 1 606 69 discriminator 2
	ld	a5,-24(s0)
	addi	a5,a5,1
	sd	a5,-24(s0)
.L76:
	.loc 1 606 45 discriminator 1
	ld	a5,-40(s0)
	srli	a5,a5,1
	.loc 1 606 27 discriminator 1
	ld	a4,-24(s0)
	bltu	a4,a5,.L79
.L78:
	.loc 1 621 21
	ld	a5,-32(s0)
	.loc 1 621 8
	beq	a5,zero,.L75
	.loc 1 622 7
	ld	a5,-32(s0)
	mv	a0,a5
	call	FreePool@plt
.L75:
	.loc 1 629 3
	lla	a4,mBmLoadOptionName
	lwu	a5,-108(s0)
	slli	a5,a5,3
	add	a5,a4,a5
	ld	a3,0(a5)
	addi	a5,s0,-88
	ld	a4,-104(s0)
	lla	a2,.LC8
	li	a1,42
	mv	a0,a5
	call	UnicodeSPrint@plt
	.loc 1 630 13
	la	a5,gRT
	ld	a5,0(a5)
	ld	a5,88(a5)
	.loc 1 630 10
	addi	a0,s0,-88
	li	a4,0
	li	a3,0
	li	a2,0
	la	a1,gEfiGlobalVariableGuid
	jalr	a5
.LVL8:
	mv	a5,a0
.L80:
	.loc 1 637 1
	mv	a0,a5
	ld	ra,104(sp)
	.cfi_restore 1
	ld	s0,96(sp)
	.cfi_restore 8
	.cfi_def_cfa 2, 112
	addi	sp,sp,112
	.cfi_def_cfa_offset 0
	jr	ra
	.cfi_endproc
.LFE8:
	.size	EfiBootManagerDeleteLoadOptionVariable, .-EfiBootManagerDeleteLoadOptionVariable
	.section	.text.BmGetDevicePathSizeEx,"ax",@progbits
	.align	1
	.globl	BmGetDevicePathSizeEx
	.type	BmGetDevicePathSizeEx, @function
BmGetDevicePathSizeEx:
.LFB9:
	.loc 1 660 1
	.cfi_startproc
	addi	sp,sp,-48
	.cfi_def_cfa_offset 48
	sd	ra,40(sp)
	sd	s0,32(sp)
	.cfi_offset 1, -8
	.cfi_offset 8, -16
	addi	s0,sp,48
	.cfi_def_cfa 8, 0
	sd	a0,-40(s0)
	sd	a1,-48(s0)
	.loc 1 664 6
	ld	a5,-40(s0)
	bne	a5,zero,.L82
	.loc 1 665 12
	li	a5,0
	j	.L83
.L82:
	.loc 1 671 8
	sd	zero,-24(s0)
	.loc 1 672 9
	j	.L84
.L87:
	.loc 1 673 16
	ld	a0,-40(s0)
	call	DevicePathNodeLength@plt
	sd	a0,-32(s0)
	.loc 1 674 8
	ld	a5,-32(s0)
	bne	a5,zero,.L85
	.loc 1 675 14
	li	a5,0
	j	.L83
.L85:
	.loc 1 678 10
	ld	a4,-24(s0)
	ld	a5,-32(s0)
	add	a5,a4,a5
	sd	a5,-24(s0)
	.loc 1 679 8
	ld	a4,-24(s0)
	ld	a5,-48(s0)
	bleu	a4,a5,.L86
	.loc 1 680 14
	li	a5,0
	j	.L83
.L86:
	.loc 1 683 18
	ld	a0,-40(s0)
	call	NextDevicePathNode@plt
	sd	a0,-40(s0)
.L84:
	.loc 1 672 11
	ld	a0,-40(s0)
	call	IsDevicePathEnd@plt
	mv	a5,a0
	.loc 1 672 10 discriminator 1
	beq	a5,zero,.L87
	.loc 1 686 11
	ld	a0,-40(s0)
	call	DevicePathNodeLength@plt
	mv	a4,a0
	.loc 1 686 8 discriminator 1
	ld	a5,-24(s0)
	add	a5,a5,a4
	sd	a5,-24(s0)
	.loc 1 687 6
	ld	a4,-24(s0)
	ld	a5,-48(s0)
	bleu	a4,a5,.L88
	.loc 1 688 12
	li	a5,0
	j	.L83
.L88:
	.loc 1 691 10
	ld	a5,-24(s0)
.L83:
	.loc 1 692 1
	mv	a0,a5
	ld	ra,40(sp)
	.cfi_restore 1
	ld	s0,32(sp)
	.cfi_restore 8
	.cfi_def_cfa 2, 48
	addi	sp,sp,48
	.cfi_def_cfa_offset 0
	jr	ra
	.cfi_endproc
.LFE9:
	.size	BmGetDevicePathSizeEx, .-BmGetDevicePathSizeEx
	.section	.text.BmStrSizeEx,"ax",@progbits
	.align	1
	.globl	BmStrSizeEx
	.type	BmStrSizeEx, @function
BmStrSizeEx:
.LFB10:
	.loc 1 717 1
	.cfi_startproc
	addi	sp,sp,-48
	.cfi_def_cfa_offset 48
	sd	ra,40(sp)
	sd	s0,32(sp)
	.cfi_offset 1, -8
	.cfi_offset 8, -16
	addi	s0,sp,48
	.cfi_def_cfa 8, 0
	sd	a0,-40(s0)
	sd	a1,-48(s0)
	.loc 1 723 15
	sd	zero,-24(s0)
	.loc 1 723 3
	j	.L90
.L92:
	.loc 1 723 70 discriminator 4
	ld	a5,-40(s0)
	addi	a5,a5,2
	sd	a5,-40(s0)
	.loc 1 723 81 discriminator 4
	ld	a5,-24(s0)
	addi	a5,a5,2
	sd	a5,-24(s0)
.L90:
	.loc 1 723 20 discriminator 1
	ld	a5,-40(s0)
	lhu	a5,0(a5)
	.loc 1 723 37 discriminator 1
	beq	a5,zero,.L91
	.loc 1 723 37 is_stmt 0 discriminator 3
	ld	a4,-48(s0)
	ld	a5,-24(s0)
	bne	a4,a5,.L92
.L91:
	.loc 1 726 8 is_stmt 1
	ld	a5,-40(s0)
	lhu	a5,0(a5)
	.loc 1 726 6
	beq	a5,zero,.L93
	.loc 1 726 26 discriminator 1
	ld	a4,-48(s0)
	ld	a5,-24(s0)
	bne	a4,a5,.L93
	.loc 1 727 12
	li	a5,0
	j	.L94
.L93:
	.loc 1 730 17
	ld	a5,-24(s0)
	addi	a5,a5,2
.L94:
	.loc 1 731 1
	mv	a0,a5
	ld	ra,40(sp)
	.cfi_restore 1
	ld	s0,32(sp)
	.cfi_restore 8
	.cfi_def_cfa 2, 48
	addi	sp,sp,48
	.cfi_def_cfa_offset 0
	jr	ra
	.cfi_endproc
.LFE10:
	.size	BmStrSizeEx, .-BmStrSizeEx
	.section	.text.BmValidateOption,"ax",@progbits
	.align	1
	.globl	BmValidateOption
	.type	BmValidateOption, @function
BmValidateOption:
.LFB11:
	.loc 1 749 1
	.cfi_startproc
	addi	sp,sp,-64
	.cfi_def_cfa_offset 64
	sd	ra,56(sp)
	sd	s0,48(sp)
	.cfi_offset 1, -8
	.cfi_offset 8, -16
	addi	s0,sp,64
	.cfi_def_cfa 8, 0
	sd	a0,-56(s0)
	sd	a1,-64(s0)
	.loc 1 754 6
	ld	a4,-64(s0)
	li	a5,6
	bgtu	a4,a5,.L96
	.loc 1 755 12
	li	a5,0
	j	.L97
.L96:
	.loc 1 761 12
	ld	a5,-56(s0)
	addi	a5,a5,4
	sd	a5,-56(s0)
	.loc 1 766 18
	ld	a0,-56(s0)
	call	ReadUnaligned16@plt
	mv	a5,a0
	sh	a5,-18(s0)
	.loc 1 767 12
	ld	a5,-56(s0)
	addi	a5,a5,2
	sd	a5,-56(s0)
	.loc 1 772 85
	ld	a5,-64(s0)
	addi	a5,a5,-6
	.loc 1 772 21
	mv	a1,a5
	ld	a0,-56(s0)
	call	BmStrSizeEx
	sd	a0,-32(s0)
	.loc 1 773 12
	ld	a4,-56(s0)
	ld	a5,-32(s0)
	add	a5,a4,a5
	sd	a5,-56(s0)
	.loc 1 778 14
	ld	a5,-56(s0)
	sd	a5,-40(s0)
	.loc 1 783 6
	lhu	a5,-18(s0)
	sext.w	a5,a5
	beq	a5,zero,.L98
	.loc 1 783 27 discriminator 1
	ld	a5,-32(s0)
	bne	a5,zero,.L99
.L98:
	.loc 1 784 12
	li	a5,0
	j	.L97
.L99:
	.loc 1 787 59
	lhu	a4,-18(s0)
	ld	a5,-32(s0)
	add	a5,a4,a5
	addi	a5,a5,6
	.loc 1 787 6
	ld	a4,-64(s0)
	bgeu	a4,a5,.L100
	.loc 1 788 12
	li	a5,0
	j	.L97
.L100:
	.loc 1 791 20
	lhu	a5,-18(s0)
	mv	a1,a5
	ld	a0,-40(s0)
	call	BmGetDevicePathSizeEx
	mv	a5,a0
	.loc 1 791 10 discriminator 1
	snez	a5,a5
	andi	a5,a5,0xff
.L97:
	.loc 1 792 1
	mv	a0,a5
	ld	ra,56(sp)
	.cfi_restore 1
	ld	s0,48(sp)
	.cfi_restore 8
	.cfi_def_cfa 2, 64
	addi	sp,sp,64
	.cfi_def_cfa_offset 0
	jr	ra
	.cfi_endproc
.LFE11:
	.size	BmValidateOption, .-BmValidateOption
	.section	.text.EfiBootManagerIsValidLoadOptionVariableName,"ax",@progbits
	.align	1
	.globl	EfiBootManagerIsValidLoadOptionVariableName
	.type	EfiBootManagerIsValidLoadOptionVariableName, @function
EfiBootManagerIsValidLoadOptionVariableName:
.LFB12:
	.loc 1 813 1
	.cfi_startproc
	addi	sp,sp,-96
	.cfi_def_cfa_offset 96
	sd	ra,88(sp)
	sd	s0,80(sp)
	sd	s1,72(sp)
	.cfi_offset 1, -8
	.cfi_offset 8, -16
	.cfi_offset 9, -24
	addi	s0,sp,96
	.cfi_def_cfa 8, 0
	sd	a0,-72(s0)
	sd	a1,-80(s0)
	sd	a2,-88(s0)
	.loc 1 820 6
	ld	a5,-72(s0)
	bne	a5,zero,.L102
	.loc 1 821 12
	li	a5,0
	j	.L103
.L102:
	.loc 1 824 21
	ld	a0,-72(s0)
	call	StrLen@plt
	sd	a0,-56(s0)
	.loc 1 829 6
	ld	a4,-56(s0)
	li	a5,4
	bgtu	a4,a5,.L104
	.loc 1 830 12
	li	a5,0
	j	.L103
.L104:
	.loc 1 836 24
	sw	zero,-44(s0)
	.loc 1 836 3
	j	.L105
.L108:
	.loc 1 837 26
	ld	a5,-56(s0)
	addi	s1,a5,-4
	.loc 1 837 58
	lla	a4,mBmLoadOptionName
	lwu	a5,-44(s0)
	slli	a5,a5,3
	add	a5,a4,a5
	ld	a5,0(a5)
	.loc 1 837 33
	mv	a0,a5
	call	StrLen@plt
	mv	a5,a0
	.loc 1 837 8 discriminator 1
	bne	s1,a5,.L106
	.loc 1 838 50
	lla	a4,mBmLoadOptionName
	lwu	a5,-44(s0)
	slli	a5,a5,3
	add	a5,a4,a5
	ld	a4,0(a5)
	.loc 1 838 10
	ld	a5,-56(s0)
	addi	a5,a5,-4
	mv	a2,a5
	mv	a1,a4
	ld	a0,-72(s0)
	call	StrnCmp@plt
	mv	a5,a0
	.loc 1 837 78 discriminator 2
	beq	a5,zero,.L117
.L106:
	.loc 1 836 126 discriminator 2
	lw	a5,-44(s0)
	addiw	a5,a5,1
	sw	a5,-44(s0)
.L105:
	.loc 1 836 45 discriminator 1
	lw	a5,-44(s0)
	sext.w	a4,a5
	li	a5,3
	bleu	a4,a5,.L108
	j	.L107
.L117:
	.loc 1 841 7
	nop
.L107:
	.loc 1 845 6
	lw	a5,-44(s0)
	sext.w	a4,a5
	li	a5,4
	bne	a4,a5,.L109
	.loc 1 846 12
	li	a5,0
	j	.L103
.L109:
	.loc 1 852 21
	sh	zero,-46(s0)
	.loc 1 853 14
	ld	a5,-56(s0)
	addi	a5,a5,-4
	sd	a5,-40(s0)
	.loc 1 853 3
	j	.L110
.L113:
	.loc 1 854 38
	ld	a5,-40(s0)
	slli	a5,a5,1
	ld	a4,-72(s0)
	add	a5,a4,a5
	.loc 1 854 12
	lhu	a5,0(a5)
	mv	a0,a5
	call	BmCharToUint@plt
	sd	a0,-64(s0)
	.loc 1 855 8
	ld	a4,-64(s0)
	li	a5,-1
	beq	a4,a5,.L118
	.loc 1 858 27
	ld	a5,-64(s0)
	slli	a4,a5,48
	srli	a4,a4,48
	.loc 1 858 40
	lhu	a5,-46(s0)
	slliw	a5,a5,4
	slli	a5,a5,48
	srli	a5,a5,48
	.loc 1 858 25
	addw	a5,a4,a5
	sh	a5,-46(s0)
	.loc 1 853 67 discriminator 2
	ld	a5,-40(s0)
	addi	a5,a5,1
	sd	a5,-40(s0)
.L110:
	.loc 1 853 43 discriminator 1
	ld	a4,-40(s0)
	ld	a5,-56(s0)
	bltu	a4,a5,.L113
	j	.L112
.L118:
	.loc 1 856 7
	nop
.L112:
	.loc 1 862 6
	ld	a4,-40(s0)
	ld	a5,-56(s0)
	beq	a4,a5,.L114
	.loc 1 863 12
	li	a5,0
	j	.L103
.L114:
	.loc 1 866 6
	ld	a5,-80(s0)
	beq	a5,zero,.L115
	.loc 1 867 17
	ld	a5,-80(s0)
	lw	a4,-44(s0)
	sw	a4,0(a5)
.L115:
	.loc 1 870 6
	ld	a5,-88(s0)
	beq	a5,zero,.L116
	.loc 1 871 19
	ld	a5,-88(s0)
	lhu	a4,-46(s0)
	sh	a4,0(a5)
.L116:
	.loc 1 874 10
	li	a5,1
.L103:
	.loc 1 875 1
	mv	a0,a5
	ld	ra,88(sp)
	.cfi_restore 1
	ld	s0,80(sp)
	.cfi_restore 8
	.cfi_def_cfa 2, 96
	ld	s1,72(sp)
	.cfi_restore 9
	addi	sp,sp,96
	.cfi_def_cfa_offset 0
	jr	ra
	.cfi_endproc
.LFE12:
	.size	EfiBootManagerIsValidLoadOptionVariableName, .-EfiBootManagerIsValidLoadOptionVariableName
	.section	.text.EfiBootManagerVariableToLoadOptionEx,"ax",@progbits
	.align	1
	.globl	EfiBootManagerVariableToLoadOptionEx
	.type	EfiBootManagerVariableToLoadOptionEx, @function
EfiBootManagerVariableToLoadOptionEx:
.LFB13:
	.loc 1 895 1
	.cfi_startproc
	addi	sp,sp,-128
	.cfi_def_cfa_offset 128
	sd	ra,120(sp)
	sd	s0,112(sp)
	.cfi_offset 1, -8
	.cfi_offset 8, -16
	addi	s0,sp,128
	.cfi_def_cfa 8, 0
	sd	a0,-104(s0)
	sd	a1,-112(s0)
	sd	a2,-120(s0)
	.loc 1 909 6
	ld	a5,-104(s0)
	beq	a5,zero,.L120
	.loc 1 909 38 discriminator 1
	ld	a5,-120(s0)
	bne	a5,zero,.L121
.L120:
	.loc 1 910 12
	li	a5,-1
	slli	a5,a5,63
	addi	a5,a5,2
	j	.L128
.L121:
	.loc 1 913 8
	addi	a4,s0,-94
	addi	a5,s0,-92
	mv	a2,a4
	mv	a1,a5
	ld	a0,-104(s0)
	call	EfiBootManagerIsValidLoadOptionVariableName
	mv	a5,a0
	.loc 1 913 6 discriminator 1
	bne	a5,zero,.L123
	.loc 1 914 12
	li	a5,-1
	slli	a5,a5,63
	addi	a5,a5,2
	j	.L128
.L123:
	.loc 1 920 3
	addi	a4,s0,-88
	addi	a5,s0,-80
	mv	a3,a4
	mv	a2,a5
	ld	a1,-112(s0)
	ld	a0,-104(s0)
	call	GetVariable2@plt
	.loc 1 921 16
	ld	a5,-80(s0)
	.loc 1 921 6
	bne	a5,zero,.L124
	.loc 1 922 12
	li	a5,-1
	slli	a5,a5,63
	addi	a5,a5,14
	j	.L128
.L124:
	.loc 1 928 8
	ld	a5,-80(s0)
	ld	a4,-88(s0)
	mv	a1,a4
	mv	a0,a5
	call	BmValidateOption
	mv	a5,a0
	.loc 1 928 6 discriminator 1
	bne	a5,zero,.L125
	.loc 1 929 5
	ld	a5,-80(s0)
	mv	a0,a5
	call	FreePool@plt
	.loc 1 930 12
	li	a5,-1
	slli	a5,a5,63
	addi	a5,a5,2
	j	.L128
.L125:
	.loc 1 936 15
	ld	a5,-80(s0)
	sd	a5,-32(s0)
	.loc 1 937 15
	ld	a0,-32(s0)
	call	ReadUnaligned32@plt
	mv	a5,a0
	sw	a5,-36(s0)
	.loc 1 938 15
	ld	a5,-32(s0)
	addi	a5,a5,4
	sd	a5,-32(s0)
	.loc 1 943 18
	ld	a0,-32(s0)
	call	ReadUnaligned16@plt
	mv	a5,a0
	sh	a5,-38(s0)
	.loc 1 944 15
	ld	a5,-32(s0)
	addi	a5,a5,2
	sd	a5,-32(s0)
	.loc 1 949 15
	ld	a5,-32(s0)
	sd	a5,-48(s0)
	.loc 1 954 18
	ld	a0,-32(s0)
	call	StrSize@plt
	mv	a4,a0
	.loc 1 954 15 discriminator 1
	ld	a5,-32(s0)
	add	a5,a5,a4
	sd	a5,-32(s0)
	.loc 1 959 12
	ld	a5,-32(s0)
	sd	a5,-56(s0)
	.loc 1 960 15
	lhu	a5,-38(s0)
	ld	a4,-32(s0)
	add	a5,a4,a5
	sd	a5,-32(s0)
	.loc 1 962 22
	ld	a5,-88(s0)
	sext.w	a4,a5
	.loc 1 962 47
	ld	a5,-32(s0)
	.loc 1 962 68
	ld	a3,-80(s0)
	.loc 1 962 66
	sub	a5,a5,a3
	.loc 1 962 22
	sext.w	a5,a5
	.loc 1 962 20
	subw	a5,a4,a5
	sw	a5,-60(s0)
	.loc 1 963 6
	lw	a5,-60(s0)
	sext.w	a5,a5
	bne	a5,zero,.L126
	.loc 1 964 18
	sd	zero,-24(s0)
	j	.L127
.L126:
	.loc 1 966 18
	ld	a5,-32(s0)
	sd	a5,-24(s0)
.L127:
	.loc 1 969 12
	lhu	a5,-94(s0)
	mv	a1,a5
	lw	a2,-92(s0)
	lw	a5,-60(s0)
	lw	a3,-36(s0)
	mv	a7,a5
	ld	a6,-24(s0)
	ld	a5,-56(s0)
	ld	a4,-48(s0)
	ld	a0,-120(s0)
	call	EfiBootManagerInitializeLoadOption
	sd	a0,-72(s0)
	.loc 1 981 13
	ld	a5,-120(s0)
	addi	a5,a5,44
	.loc 1 981 3
	ld	a1,-112(s0)
	mv	a0,a5
	call	CopyGuid@plt
	.loc 1 983 3
	ld	a5,-80(s0)
	mv	a0,a5
	call	FreePool@plt
	.loc 1 984 10
	ld	a5,-72(s0)
.L128:
	.loc 1 985 1
	mv	a0,a5
	ld	ra,120(sp)
	.cfi_restore 1
	ld	s0,112(sp)
	.cfi_restore 8
	.cfi_def_cfa 2, 128
	addi	sp,sp,128
	.cfi_def_cfa_offset 0
	jr	ra
	.cfi_endproc
.LFE13:
	.size	EfiBootManagerVariableToLoadOptionEx, .-EfiBootManagerVariableToLoadOptionEx
	.section	.text.EfiBootManagerVariableToLoadOption,"ax",@progbits
	.align	1
	.globl	EfiBootManagerVariableToLoadOption
	.type	EfiBootManagerVariableToLoadOption, @function
EfiBootManagerVariableToLoadOption:
.LFB14:
	.loc 1 1002 1
	.cfi_startproc
	addi	sp,sp,-32
	.cfi_def_cfa_offset 32
	sd	ra,24(sp)
	sd	s0,16(sp)
	.cfi_offset 1, -8
	.cfi_offset 8, -16
	addi	s0,sp,32
	.cfi_def_cfa 8, 0
	sd	a0,-24(s0)
	sd	a1,-32(s0)
	.loc 1 1003 10
	ld	a2,-32(s0)
	la	a1,gEfiGlobalVariableGuid
	ld	a0,-24(s0)
	call	EfiBootManagerVariableToLoadOptionEx
	mv	a5,a0
	.loc 1 1004 1
	mv	a0,a5
	ld	ra,24(sp)
	.cfi_restore 1
	ld	s0,16(sp)
	.cfi_restore 8
	.cfi_def_cfa 2, 32
	addi	sp,sp,32
	.cfi_def_cfa_offset 0
	jr	ra
	.cfi_endproc
.LFE14:
	.size	EfiBootManagerVariableToLoadOption, .-EfiBootManagerVariableToLoadOption
	.section	.text.BmCollectLoadOptions,"ax",@progbits
	.align	1
	.globl	BmCollectLoadOptions
	.type	BmCollectLoadOptions, @function
BmCollectLoadOptions:
.LFB15:
	.loc 1 1027 1
	.cfi_startproc
	addi	sp,sp,-176
	.cfi_def_cfa_offset 176
	sd	ra,168(sp)
	sd	s0,160(sp)
	.cfi_offset 1, -8
	.cfi_offset 8, -16
	addi	s0,sp,176
	.cfi_def_cfa 8, 0
	sd	a0,-152(s0)
	sd	a1,-160(s0)
	sd	a2,-168(s0)
	.loc 1 1035 9
	ld	a5,-168(s0)
	sd	a5,-32(s0)
	.loc 1 1037 31
	ld	a5,-32(s0)
	ld	a5,8(a5)
	.loc 1 1037 7
	mv	a1,a5
	ld	a0,-160(s0)
	call	CompareGuid@plt
	mv	a5,a0
	.loc 1 1037 6 discriminator 1
	beq	a5,zero,.L137
	.loc 1 1038 49
	ld	a5,-32(s0)
	lw	a4,0(a5)
	.loc 1 1037 39 discriminator 2
	li	a5,3
	bne	a4,a5,.L137
	.loc 1 1039 43
	addi	a4,s0,-46
	addi	a5,s0,-44
	mv	a2,a4
	mv	a1,a5
	ld	a0,-152(s0)
	call	EfiBootManagerIsValidLoadOptionVariableName
	mv	a5,a0
	.loc 1 1038 97
	beq	a5,zero,.L137
	.loc 1 1040 55
	lw	a4,-44(s0)
	.loc 1 1039 122
	li	a5,3
	bne	a4,a5,.L137
	.loc 1 1043 14
	addi	a5,s0,-136
	mv	a2,a5
	ld	a1,-160(s0)
	ld	a0,-152(s0)
	call	EfiBootManagerVariableToLoadOptionEx
	sd	a0,-40(s0)
	.loc 1 1044 9
	ld	a5,-40(s0)
	.loc 1 1044 8
	blt	a5,zero,.L137
	.loc 1 1045 18
	sd	zero,-24(s0)
	.loc 1 1045 7
	j	.L133
.L136:
	.loc 1 1046 18
	ld	a5,-32(s0)
	ld	a4,16(a5)
	.loc 1 1046 27
	ld	a3,-24(s0)
	li	a5,88
	mul	a5,a3,a5
	add	a5,a4,a5
	.loc 1 1046 34
	ld	a4,0(a5)
	.loc 1 1046 56
	ld	a5,-136(s0)
	.loc 1 1046 12
	bgtu	a4,a5,.L138
	.loc 1 1045 56 discriminator 2
	ld	a5,-24(s0)
	addi	a5,a5,1
	sd	a5,-24(s0)
.L133:
	.loc 1 1045 36 discriminator 1
	ld	a5,-32(s0)
	ld	a5,24(a5)
	.loc 1 1045 29 discriminator 1
	ld	a4,-24(s0)
	bltu	a4,a5,.L136
	j	.L135
.L138:
	.loc 1 1047 11
	nop
.L135:
	.loc 1 1052 31
	ld	a5,-32(s0)
	ld	a4,24(a5)
	.loc 1 1052 45
	li	a5,88
	mul	a3,a4,a5
	.loc 1 1053 32
	ld	a5,-32(s0)
	ld	a5,24(a5)
	.loc 1 1051 24
	addi	a4,a5,1
	li	a5,88
	mul	a4,a4,a5
	.loc 1 1054 31
	ld	a5,-32(s0)
	ld	a5,16(a5)
	.loc 1 1051 24
	mv	a2,a5
	mv	a1,a4
	mv	a0,a3
	call	ReallocatePool@plt
	mv	a4,a0
	.loc 1 1051 22 discriminator 1
	ld	a5,-32(s0)
	sd	a4,16(a5)
	.loc 1 1057 22
	ld	a5,-32(s0)
	ld	a4,16(a5)
	.loc 1 1057 7
	ld	a5,-24(s0)
	addi	a3,a5,1
	li	a5,88
	mul	a5,a3,a5
	.loc 1 1057 16
	add	a0,a4,a5
	.loc 1 1057 50
	ld	a5,-32(s0)
	ld	a4,16(a5)
	.loc 1 1057 59
	ld	a3,-24(s0)
	li	a5,88
	mul	a5,a3,a5
	.loc 1 1057 44
	add	a3,a4,a5
	.loc 1 1057 74
	ld	a5,-32(s0)
	ld	a4,24(a5)
	.loc 1 1057 88
	ld	a5,-24(s0)
	sub	a4,a4,a5
	.loc 1 1057 97
	li	a5,88
	mul	a5,a4,a5
	.loc 1 1057 7
	mv	a2,a5
	mv	a1,a3
	call	CopyMem@plt
	.loc 1 1058 22
	ld	a5,-32(s0)
	ld	a4,16(a5)
	.loc 1 1058 31
	ld	a3,-24(s0)
	li	a5,88
	mul	a5,a3,a5
	.loc 1 1058 16
	add	a5,a4,a5
	.loc 1 1058 7
	addi	a4,s0,-136
	li	a2,88
	mv	a1,a4
	mv	a0,a5
	call	CopyMem@plt
	.loc 1 1059 12
	ld	a5,-32(s0)
	ld	a5,24(a5)
	.loc 1 1059 25
	addi	a4,a5,1
	ld	a5,-32(s0)
	sd	a4,24(a5)
.L137:
	.loc 1 1062 1
	nop
	ld	ra,168(sp)
	.cfi_restore 1
	ld	s0,160(sp)
	.cfi_restore 8
	.cfi_def_cfa 2, 176
	addi	sp,sp,176
	.cfi_def_cfa_offset 0
	jr	ra
	.cfi_endproc
.LFE15:
	.size	BmCollectLoadOptions, .-BmCollectLoadOptions
	.section	.text.EfiBootManagerGetLoadOptions,"ax",@progbits
	.align	1
	.globl	EfiBootManagerGetLoadOptions
	.type	EfiBootManagerGetLoadOptions, @function
EfiBootManagerGetLoadOptions:
.LFB16:
	.loc 1 1082 1
	.cfi_startproc
	addi	sp,sp,-176
	.cfi_def_cfa_offset 176
	sd	ra,168(sp)
	sd	s0,160(sp)
	.cfi_offset 1, -8
	.cfi_offset 8, -16
	addi	s0,sp,176
	.cfi_def_cfa 8, 0
	sd	a0,-168(s0)
	mv	a5,a1
	sw	a5,-172(s0)
	.loc 1 1093 16
	ld	a5,-168(s0)
	sd	zero,0(a5)
	.loc 1 1094 11
	sd	zero,-40(s0)
	.loc 1 1096 6
	lw	a5,-172(s0)
	sext.w	a5,a5
	beq	a5,zero,.L140
	.loc 1 1096 48 discriminator 1
	lw	a5,-172(s0)
	sext.w	a4,a5
	li	a5,1
	beq	a4,a5,.L140
	.loc 1 1096 93 discriminator 2
	lw	a5,-172(s0)
	sext.w	a4,a5
	li	a5,2
	bne	a4,a5,.L141
.L140:
	.loc 1 1100 50
	lla	a4,mBmLoadOptionOrderName
	lwu	a5,-172(s0)
	slli	a5,a5,3
	add	a5,a4,a5
	ld	a5,0(a5)
	.loc 1 1100 5
	addi	a3,s0,-72
	addi	a4,s0,-64
	mv	a2,a3
	mv	a1,a4
	mv	a0,a5
	call	GetEfiGlobalVariable2@plt
	.loc 1 1101 21
	ld	a5,-64(s0)
	.loc 1 1101 8
	bne	a5,zero,.L142
	.loc 1 1102 14
	li	a5,0
	j	.L151
.L142:
	.loc 1 1105 36
	ld	a5,-72(s0)
	srli	a4,a5,1
	.loc 1 1105 18
	ld	a5,-168(s0)
	sd	a4,0(a5)
	.loc 1 1107 29
	ld	a5,-168(s0)
	ld	a4,0(a5)
	.loc 1 1107 42
	li	a5,88
	mul	a5,a4,a5
	.loc 1 1107 15
	mv	a0,a5
	call	AllocatePool@plt
	sd	a0,-40(s0)
	.loc 1 1110 17
	sd	zero,-32(s0)
	.loc 1 1111 16
	sd	zero,-24(s0)
	.loc 1 1111 5
	j	.L144
.L147:
	.loc 1 1112 33
	ld	a4,-64(s0)
	ld	a5,-24(s0)
	slli	a5,a5,1
	add	a5,a4,a5
	.loc 1 1112 20
	lhu	a5,0(a5)
	sh	a5,-42(s0)
	.loc 1 1113 7
	lla	a4,mBmLoadOptionName
	lwu	a5,-172(s0)
	slli	a5,a5,3
	add	a5,a4,a5
	ld	a3,0(a5)
	lhu	a5,-42(s0)
	sext.w	a4,a5
	addi	a5,s0,-120
	lla	a2,.LC8
	li	a1,42
	mv	a0,a5
	call	UnicodeSPrint@plt
	.loc 1 1115 72
	ld	a4,-32(s0)
	li	a5,88
	mul	a5,a4,a5
	.loc 1 1115 16
	ld	a4,-40(s0)
	add	a4,a4,a5
	addi	a5,s0,-120
	mv	a1,a4
	mv	a0,a5
	call	EfiBootManagerVariableToLoadOption
	sd	a0,-56(s0)
	.loc 1 1116 38
	ld	a5,-56(s0)
	.loc 1 1116 10
	bge	a5,zero,.L145
	.loc 1 1118 9
	lhu	a5,-42(s0)
	lw	a4,-172(s0)
	mv	a1,a4
	mv	a0,a5
	call	EfiBootManagerDeleteLoadOptionVariable
	j	.L146
.L145:
	.loc 1 1121 20
	ld	a5,-32(s0)
	addi	a5,a5,1
	sd	a5,-32(s0)
.L146:
	.loc 1 1111 48 discriminator 2
	ld	a5,-24(s0)
	addi	a5,a5,1
	sd	a5,-24(s0)
.L144:
	.loc 1 1111 29 discriminator 1
	ld	a5,-168(s0)
	ld	a5,0(a5)
	.loc 1 1111 27 discriminator 1
	ld	a4,-24(s0)
	bltu	a4,a5,.L147
	.loc 1 1125 21
	ld	a5,-64(s0)
	.loc 1 1125 8
	beq	a5,zero,.L148
	.loc 1 1126 7
	ld	a5,-64(s0)
	mv	a0,a5
	call	FreePool@plt
.L148:
	.loc 1 1129 23
	ld	a5,-168(s0)
	ld	a5,0(a5)
	.loc 1 1129 8
	ld	a4,-32(s0)
	bgeu	a4,a5,.L150
	.loc 1 1130 33
	ld	a5,-168(s0)
	ld	a4,0(a5)
	.loc 1 1130 46
	li	a5,88
	mul	a3,a4,a5
	.loc 1 1130 99
	ld	a4,-32(s0)
	li	a5,88
	mul	a5,a4,a5
	.loc 1 1130 17
	ld	a2,-40(s0)
	mv	a1,a5
	mv	a0,a3
	call	ReallocatePool@plt
	sd	a0,-40(s0)
	.loc 1 1132 20
	ld	a5,-168(s0)
	ld	a4,-32(s0)
	sd	a4,0(a5)
	.loc 1 1129 8
	j	.L150
.L141:
	.loc 1 1134 13
	lw	a5,-172(s0)
	sext.w	a4,a5
	li	a5,3
	bne	a4,a5,.L150
	.loc 1 1135 22
	li	a5,3
	sw	a5,-152(s0)
	.loc 1 1136 19
	sd	zero,-136(s0)
	.loc 1 1137 23
	sd	zero,-128(s0)
	.loc 1 1138 16
	la	a5,gEfiGlobalVariableGuid
	sd	a5,-144(s0)
	.loc 1 1140 5
	addi	a5,s0,-152
	mv	a1,a5
	lla	a0,BmCollectLoadOptions
	call	BmForEachVariable
	.loc 1 1142 25
	ld	a4,-128(s0)
	.loc 1 1142 18
	ld	a5,-168(s0)
	sd	a4,0(a5)
	.loc 1 1143 13
	ld	a5,-136(s0)
	sd	a5,-40(s0)
.L150:
	.loc 1 1146 10
	ld	a5,-40(s0)
.L151:
	.loc 1 1147 1
	mv	a0,a5
	ld	ra,168(sp)
	.cfi_restore 1
	ld	s0,160(sp)
	.cfi_restore 8
	.cfi_def_cfa 2, 176
	addi	sp,sp,176
	.cfi_def_cfa_offset 0
	jr	ra
	.cfi_endproc
.LFE16:
	.size	EfiBootManagerGetLoadOptions, .-EfiBootManagerGetLoadOptions
	.section	.text.EfiBootManagerFreeLoadOption,"ax",@progbits
	.align	1
	.globl	EfiBootManagerFreeLoadOption
	.type	EfiBootManagerFreeLoadOption, @function
EfiBootManagerFreeLoadOption:
.LFB17:
	.loc 1 1163 1
	.cfi_startproc
	addi	sp,sp,-32
	.cfi_def_cfa_offset 32
	sd	ra,24(sp)
	sd	s0,16(sp)
	.cfi_offset 1, -8
	.cfi_offset 8, -16
	addi	s0,sp,32
	.cfi_def_cfa 8, 0
	sd	a0,-24(s0)
	.loc 1 1164 6
	ld	a5,-24(s0)
	bne	a5,zero,.L153
	.loc 1 1165 12
	li	a5,-1
	slli	a5,a5,63
	addi	a5,a5,14
	j	.L154
.L153:
	.loc 1 1168 17
	ld	a5,-24(s0)
	ld	a5,16(a5)
	.loc 1 1168 6
	beq	a5,zero,.L155
	.loc 1 1169 25
	ld	a5,-24(s0)
	ld	a5,16(a5)
	.loc 1 1169 5
	mv	a0,a5
	call	FreePool@plt
.L155:
	.loc 1 1172 17
	ld	a5,-24(s0)
	ld	a5,24(a5)
	.loc 1 1172 6
	beq	a5,zero,.L156
	.loc 1 1173 25
	ld	a5,-24(s0)
	ld	a5,24(a5)
	.loc 1 1173 5
	mv	a0,a5
	call	FreePool@plt
.L156:
	.loc 1 1176 17
	ld	a5,-24(s0)
	ld	a5,32(a5)
	.loc 1 1176 6
	beq	a5,zero,.L157
	.loc 1 1177 25
	ld	a5,-24(s0)
	ld	a5,32(a5)
	.loc 1 1177 5
	mv	a0,a5
	call	FreePool@plt
.L157:
	.loc 1 1180 10
	li	a5,0
.L154:
	.loc 1 1181 1
	mv	a0,a5
	ld	ra,24(sp)
	.cfi_restore 1
	ld	s0,16(sp)
	.cfi_restore 8
	.cfi_def_cfa 2, 32
	addi	sp,sp,32
	.cfi_def_cfa_offset 0
	jr	ra
	.cfi_endproc
.LFE17:
	.size	EfiBootManagerFreeLoadOption, .-EfiBootManagerFreeLoadOption
	.section	.text.EfiBootManagerFreeLoadOptions,"ax",@progbits
	.align	1
	.globl	EfiBootManagerFreeLoadOptions
	.type	EfiBootManagerFreeLoadOptions, @function
EfiBootManagerFreeLoadOptions:
.LFB18:
	.loc 1 1200 1
	.cfi_startproc
	addi	sp,sp,-48
	.cfi_def_cfa_offset 48
	sd	ra,40(sp)
	sd	s0,32(sp)
	.cfi_offset 1, -8
	.cfi_offset 8, -16
	addi	s0,sp,48
	.cfi_def_cfa 8, 0
	sd	a0,-40(s0)
	sd	a1,-48(s0)
	.loc 1 1203 6
	ld	a5,-40(s0)
	bne	a5,zero,.L159
	.loc 1 1204 12
	li	a5,-1
	slli	a5,a5,63
	addi	a5,a5,14
	j	.L160
.L159:
	.loc 1 1207 14
	sd	zero,-24(s0)
	.loc 1 1207 3
	j	.L161
.L162:
	.loc 1 1208 42
	ld	a4,-24(s0)
	li	a5,88
	mul	a5,a4,a5
	.loc 1 1208 5
	ld	a4,-40(s0)
	add	a5,a4,a5
	mv	a0,a5
	call	EfiBootManagerFreeLoadOption
	.loc 1 1207 45 discriminator 3
	ld	a5,-24(s0)
	addi	a5,a5,1
	sd	a5,-24(s0)
.L161:
	.loc 1 1207 25 discriminator 1
	ld	a4,-24(s0)
	ld	a5,-48(s0)
	bltu	a4,a5,.L162
	.loc 1 1211 3
	ld	a0,-40(s0)
	call	FreePool@plt
	.loc 1 1213 10
	li	a5,0
.L160:
	.loc 1 1214 1
	mv	a0,a5
	ld	ra,40(sp)
	.cfi_restore 1
	ld	s0,32(sp)
	.cfi_restore 8
	.cfi_def_cfa 2, 48
	addi	sp,sp,48
	.cfi_def_cfa_offset 0
	jr	ra
	.cfi_endproc
.LFE18:
	.size	EfiBootManagerFreeLoadOptions, .-EfiBootManagerFreeLoadOptions
	.section	.text.BmIsLoadOptionPeHeaderValid,"ax",@progbits
	.align	1
	.globl	BmIsLoadOptionPeHeaderValid
	.type	BmIsLoadOptionPeHeaderValid, @function
BmIsLoadOptionPeHeaderValid:
.LFB19:
	.loc 1 1236 1
	.cfi_startproc
	addi	sp,sp,-80
	.cfi_def_cfa_offset 80
	sd	ra,72(sp)
	sd	s0,64(sp)
	.cfi_offset 1, -8
	.cfi_offset 8, -16
	addi	s0,sp,80
	.cfi_def_cfa 8, 0
	mv	a5,a0
	sd	a1,-64(s0)
	sd	a2,-72(s0)
	sw	a5,-52(s0)
	.loc 1 1242 6
	ld	a5,-64(s0)
	beq	a5,zero,.L164
	.loc 1 1242 36 discriminator 1
	ld	a5,-72(s0)
	bne	a5,zero,.L165
.L164:
	.loc 1 1243 12
	li	a5,0
	j	.L166
.L165:
	.loc 1 1249 13
	ld	a5,-64(s0)
	sd	a5,-24(s0)
	.loc 1 1250 6
	ld	a4,-72(s0)
	li	a5,63
	bleu	a4,a5,.L167
	.loc 1 1251 28
	ld	a5,-24(s0)
	lw	a5,60(a5)
	slli	a5,a5,32
	srli	a5,a5,32
	.loc 1 1250 51 discriminator 1
	ld	a4,-72(s0)
	bleu	a4,a5,.L167
	.loc 1 1251 53
	ld	a5,-24(s0)
	lhu	a5,0(a5)
	.loc 1 1251 40
	sext.w	a4,a5
	li	a5,24576
	addi	a5,a5,-1459
	bne	a4,a5,.L167
	.loc 1 1257 83
	ld	a5,-24(s0)
	lw	a5,60(a5)
	slli	a5,a5,32
	srli	a5,a5,32
	.loc 1 1257 14
	ld	a4,-64(s0)
	add	a5,a4,a5
	sd	a5,-32(s0)
	.loc 1 1258 31
	ld	a5,-24(s0)
	lw	a5,60(a5)
	slli	a5,a5,32
	srli	a5,a5,32
	.loc 1 1258 42
	addi	a5,a5,264
	.loc 1 1258 8
	ld	a4,-72(s0)
	bltu	a4,a5,.L167
	.loc 1 1259 24
	ld	a5,-32(s0)
	lw	a4,0(a5)
	.loc 1 1258 86 discriminator 1
	li	a5,16384
	addi	a5,a5,1360
	bne	a4,a5,.L167
	.loc 1 1265 22
	ld	a5,-32(s0)
	addi	a5,a5,24
	sd	a5,-40(s0)
	.loc 1 1266 26
	ld	a5,-40(s0)
	lhu	a5,0(a5)
	.loc 1 1266 10
	sext.w	a4,a5
	li	a5,267
	beq	a4,a5,.L168
	.loc 1 1267 26
	ld	a5,-40(s0)
	lhu	a5,0(a5)
	.loc 1 1266 44 discriminator 1
	sext.w	a4,a5
	li	a5,523
	bne	a4,a5,.L167
.L168:
	.loc 1 1274 19
	ld	a5,-40(s0)
	lhu	a5,68(a5)
	sh	a5,-42(s0)
	.loc 1 1275 12
	lw	a5,-52(s0)
	sext.w	a4,a5
	li	a5,4
	beq	a4,a5,.L169
	.loc 1 1275 41 discriminator 1
	lw	a5,-52(s0)
	sext.w	a5,a5
	bne	a5,zero,.L170
	.loc 1 1276 45
	lhu	a5,-42(s0)
	sext.w	a4,a5
	li	a5,11
	beq	a4,a5,.L169
.L170:
	.loc 1 1276 67 discriminator 1
	lw	a5,-52(s0)
	sext.w	a5,a5
	bne	a5,zero,.L171
	.loc 1 1277 45
	lhu	a5,-42(s0)
	sext.w	a4,a5
	li	a5,12
	beq	a4,a5,.L169
.L171:
	.loc 1 1277 67 discriminator 1
	lw	a5,-52(s0)
	sext.w	a4,a5
	li	a5,1
	bne	a4,a5,.L172
	.loc 1 1278 46
	lhu	a5,-42(s0)
	sext.w	a4,a5
	li	a5,10
	beq	a4,a5,.L169
.L172:
	.loc 1 1278 68 discriminator 1
	lw	a5,-52(s0)
	sext.w	a4,a5
	li	a5,2
	bne	a4,a5,.L173
	.loc 1 1279 43
	lhu	a5,-42(s0)
	sext.w	a4,a5
	li	a5,10
	beq	a4,a5,.L169
.L173:
	.loc 1 1279 65 discriminator 1
	lw	a5,-52(s0)
	sext.w	a4,a5
	li	a5,3
	bne	a4,a5,.L167
	.loc 1 1280 55
	lhu	a5,-42(s0)
	sext.w	a4,a5
	li	a5,10
	bne	a4,a5,.L167
.L169:
	.loc 1 1283 18
	li	a5,1
	j	.L166
.L167:
	.loc 1 1289 10
	li	a5,0
.L166:
	.loc 1 1290 1
	mv	a0,a5
	ld	ra,72(sp)
	.cfi_restore 1
	ld	s0,64(sp)
	.cfi_restore 8
	.cfi_def_cfa 2, 80
	addi	sp,sp,80
	.cfi_def_cfa_offset 0
	jr	ra
	.cfi_endproc
.LFE19:
	.size	BmIsLoadOptionPeHeaderValid, .-BmIsLoadOptionPeHeaderValid
	.section	.text.BmGetNextLoadOptionBuffer,"ax",@progbits
	.align	1
	.globl	BmGetNextLoadOptionBuffer
	.type	BmGetNextLoadOptionBuffer, @function
BmGetNextLoadOptionBuffer:
.LFB20:
	.loc 1 1319 1
	.cfi_startproc
	addi	sp,sp,-96
	.cfi_def_cfa_offset 96
	sd	ra,88(sp)
	sd	s0,80(sp)
	.cfi_offset 1, -8
	.cfi_offset 8, -16
	addi	s0,sp,96
	.cfi_def_cfa 8, 0
	mv	a5,a0
	sd	a1,-80(s0)
	sd	a2,-88(s0)
	sd	a3,-96(s0)
	sw	a5,-68(s0)
	.loc 1 1327 17
	sd	zero,-56(s0)
	.loc 1 1328 14
	sd	zero,-24(s0)
	.loc 1 1329 15
	ld	a5,-88(s0)
	ld	a5,0(a5)
	sd	a5,-32(s0)
.L180:
	.loc 1 1331 17
	ld	a5,-32(s0)
	sd	a5,-40(s0)
	.loc 1 1332 19
	ld	a1,-32(s0)
	ld	a0,-80(s0)
	call	BmGetNextLoadOptionDevicePath@plt
	sd	a0,-32(s0)
	.loc 1 1336 8
	ld	a5,-40(s0)
	beq	a5,zero,.L175
	.loc 1 1336 58 discriminator 1
	ld	a5,-88(s0)
	ld	a5,0(a5)
	.loc 1 1336 39 discriminator 1
	ld	a4,-40(s0)
	beq	a4,a5,.L175
	.loc 1 1337 7
	ld	a0,-40(s0)
	call	FreePool@plt
.L175:
	.loc 1 1340 8
	ld	a5,-32(s0)
	beq	a5,zero,.L183
	.loc 1 1344 18
	addi	a4,s0,-60
	addi	a5,s0,-56
	mv	a3,a4
	mv	a2,a5
	ld	a1,-32(s0)
	li	a0,1
	call	GetFileBufferByFilePath@plt
	sd	a0,-24(s0)
	.loc 1 1345 8
	ld	a5,-24(s0)
	beq	a5,zero,.L178
	.loc 1 1345 42 discriminator 1
	ld	a4,-56(s0)
	lw	a5,-68(s0)
	mv	a2,a4
	ld	a1,-24(s0)
	mv	a0,a5
	call	BmIsLoadOptionPeHeaderValid
	mv	a5,a0
	.loc 1 1345 38 discriminator 2
	bne	a5,zero,.L178
	.loc 1 1349 27
	ld	a0,-80(s0)
	call	BmGetRamDiskDevicePath@plt
	sd	a0,-48(s0)
	.loc 1 1350 10
	ld	a5,-48(s0)
	beq	a5,zero,.L179
	.loc 1 1351 9
	ld	a0,-48(s0)
	call	BmDestroyRamDisk@plt
	.loc 1 1352 9
	ld	a0,-48(s0)
	call	FreePool@plt
.L179:
	.loc 1 1358 7
	ld	a0,-24(s0)
	call	FreePool@plt
	.loc 1 1359 18
	sd	zero,-24(s0)
.L178:
	.loc 1 1361 23
	ld	a5,-24(s0)
	beq	a5,zero,.L180
	j	.L177
.L183:
	.loc 1 1341 7
	nop
.L177:
	.loc 1 1363 6
	ld	a5,-24(s0)
	bne	a5,zero,.L181
	.loc 1 1364 17
	sd	zero,-32(s0)
	.loc 1 1365 19
	sd	zero,-56(s0)
.L181:
	.loc 1 1369 3
	ld	a0,-80(s0)
	call	BmPrintDp@plt
	.loc 1 1371 3
	ld	a0,-32(s0)
	call	BmPrintDp@plt
	.loc 1 1374 13
	ld	a5,-88(s0)
	ld	a4,-32(s0)
	sd	a4,0(a5)
	.loc 1 1375 13
	ld	a4,-56(s0)
	ld	a5,-96(s0)
	sd	a4,0(a5)
	.loc 1 1376 10
	ld	a5,-24(s0)
	.loc 1 1377 1
	mv	a0,a5
	ld	ra,88(sp)
	.cfi_restore 1
	ld	s0,80(sp)
	.cfi_restore 8
	.cfi_def_cfa 2, 96
	addi	sp,sp,96
	.cfi_def_cfa_offset 0
	jr	ra
	.cfi_endproc
.LFE20:
	.size	BmGetNextLoadOptionBuffer, .-BmGetNextLoadOptionBuffer
	.section	.text.EfiBootManagerProcessLoadOption,"ax",@progbits
	.align	1
	.globl	EfiBootManagerProcessLoadOption
	.type	EfiBootManagerProcessLoadOption, @function
EfiBootManagerProcessLoadOption:
.LFB21:
	.loc 1 1394 1
	.cfi_startproc
	addi	sp,sp,-96
	.cfi_def_cfa_offset 96
	sd	ra,88(sp)
	sd	s0,80(sp)
	.cfi_offset 1, -8
	.cfi_offset 8, -16
	addi	s0,sp,96
	.cfi_def_cfa 8, 0
	sd	a0,-88(s0)
	.loc 1 1403 25
	ld	a5,-88(s0)
	lw	a4,8(a5)
	.loc 1 1403 6
	li	a5,3
	bleu	a4,a5,.L185
	.loc 1 1404 12
	li	a5,-1
	slli	a5,a5,63
	addi	a5,a5,2
	j	.L198
.L185:
	.loc 1 1407 17
	ld	a5,-88(s0)
	lw	a4,8(a5)
	.loc 1 1407 6
	li	a5,2
	bne	a4,a5,.L187
	.loc 1 1408 12
	li	a5,-1
	slli	a5,a5,63
	addi	a5,a5,3
	j	.L198
.L187:
	.loc 1 1415 18
	ld	a5,-88(s0)
	lw	a5,12(a5)
	.loc 1 1415 31
	andi	a5,a5,1
	sext.w	a5,a5
	.loc 1 1415 6
	bne	a5,zero,.L188
	.loc 1 1416 12
	li	a5,0
	j	.L198
.L188:
	.loc 1 1419 17
	ld	a5,-88(s0)
	lw	a4,8(a5)
	.loc 1 1419 6
	li	a5,3
	bne	a4,a5,.L199
	.loc 1 1423 5
	call	EfiSignalEventReadyToBoot@plt
	.loc 1 1427 6
	call	ReportProgressCodeEnabled@plt
	mv	a5,a0
	.loc 1 1427 163 discriminator 1
	beq	a5,zero,.L190
	.loc 1 1427 82 discriminator 4
	li	a5,50663424
	addi	a1,a5,1
	li	a0,1
	call	ReportStatusCode@plt
	.loc 1 1427 163
	j	.L199
.L190:
	.loc 1 1427 166 discriminator 5
	call	ReportErrorCodeEnabled@plt
	.loc 1 1427 323 discriminator 9
	call	ReportDebugCodeEnabled@plt
.L199:
	.loc 1 1440 15
	sd	zero,-56(s0)
	.loc 1 1441 15
	sd	zero,-48(s0)
	.loc 1 1442 3
	ld	a5,-88(s0)
	ld	a5,24(a5)
	li	a1,0
	mv	a0,a5
	call	EfiBootManagerConnectDevicePath@plt
.L196:
	.loc 1 1448 12
	li	a5,-1
	slli	a5,a5,63
	addi	a5,a5,2
	sd	a5,-24(s0)
	.loc 1 1449 17
	ld	a5,-48(s0)
	sd	a5,-32(s0)
	.loc 1 1450 18
	ld	a5,-88(s0)
	lw	a4,8(a5)
	ld	a5,-88(s0)
	ld	a5,24(a5)
	addi	a3,s0,-72
	addi	a2,s0,-48
	mv	a1,a5
	mv	a0,a4
	call	BmGetNextLoadOptionBuffer
	sd	a0,-40(s0)
	.loc 1 1451 8
	ld	a5,-32(s0)
	beq	a5,zero,.L191
	.loc 1 1452 7
	ld	a0,-32(s0)
	call	FreePool@plt
.L191:
	.loc 1 1455 8
	ld	a5,-40(s0)
	beq	a5,zero,.L200
	.loc 1 1459 17
	la	a5,gBS
	ld	a5,0(a5)
	ld	a6,200(a5)
	.loc 1 1459 14
	la	a5,gImageHandle
	ld	a1,0(a5)
	ld	a2,-48(s0)
	ld	a4,-72(s0)
	addi	a5,s0,-56
	ld	a3,-40(s0)
	li	a0,0
	jalr	a6
.LVL9:
	sd	a0,-24(s0)
	.loc 1 1467 5
	ld	a0,-40(s0)
	call	FreePool@plt
	.loc 1 1469 36
	ld	a5,-24(s0)
	.loc 1 1469 8
	bge	a5,zero,.L194
	.loc 1 1476 10
	ld	a4,-24(s0)
	li	a5,-1
	slli	a5,a5,63
	addi	a5,a5,26
	bne	a4,a5,.L196
	.loc 1 1477 12
	la	a5,gBS
	ld	a5,0(a5)
	ld	a5,224(a5)
	.loc 1 1477 9
	ld	a4,-56(s0)
	mv	a0,a4
	jalr	a5
.LVL10:
	j	.L196
.L194:
	.loc 1 1480 19
	la	a5,gBS
	ld	a5,0(a5)
	ld	a5,152(a5)
	.loc 1 1480 16
	ld	a4,-56(s0)
	addi	a3,s0,-64
	mv	a2,a3
	la	a1,gEfiLoadedImageProtocolGuid
	mv	a0,a4
	jalr	a5
.LVL11:
	sd	a0,-24(s0)
	.loc 1 1483 16
	ld	a5,-64(s0)
	.loc 1 1483 46
	ld	a4,-88(s0)
	lw	a4,40(a4)
	.loc 1 1483 34
	sw	a4,48(a5)
	.loc 1 1484 16
	ld	a5,-64(s0)
	.loc 1 1484 42
	ld	a4,-88(s0)
	ld	a4,32(a4)
	.loc 1 1484 30
	sd	a4,56(a5)
	.loc 1 1488 10
	la	a5,gBS
	ld	a5,0(a5)
	ld	a5,256(a5)
	.loc 1 1488 7
	li	a3,0
	li	a2,0
	li	a1,0
	li	a0,300
	jalr	a5
.LVL12:
	.loc 1 1490 31
	la	a5,gBS
	ld	a5,0(a5)
	ld	a5,208(a5)
	.loc 1 1490 28
	ld	a3,-56(s0)
	ld	a4,-88(s0)
	addi	a1,a4,80
	ld	a4,-88(s0)
	addi	a4,a4,72
	mv	a2,a4
	mv	a0,a3
	jalr	a5
.LVL13:
	mv	a4,a0
	.loc 1 1490 26 discriminator 1
	ld	a5,-88(s0)
	sd	a4,64(a5)
	.loc 1 1502 10
	la	a5,gBS
	ld	a5,0(a5)
	ld	a5,256(a5)
	.loc 1 1502 7
	li	a3,0
	li	a2,0
	li	a1,0
	li	a0,0
	jalr	a5
.LVL14:
	.loc 1 1504 22
	ld	a5,-88(s0)
	lw	a4,8(a5)
	.loc 1 1504 10
	li	a5,3
	bne	a4,a5,.L193
	.loc 1 1504 84 discriminator 1
	ld	a5,-88(s0)
	ld	a5,64(a5)
	.loc 1 1504 70 discriminator 1
	beq	a5,zero,.L193
	.loc 1 1448 12
	j	.L196
.L200:
	.loc 1 1456 7
	nop
.L193:
	.loc 1 1510 19
	ld	a5,-48(s0)
	.loc 1 1510 6
	beq	a5,zero,.L197
	.loc 1 1511 5
	ld	a5,-48(s0)
	mv	a0,a5
	call	FreePool@plt
.L197:
	.loc 1 1514 10
	ld	a5,-24(s0)
.L198:
	.loc 1 1515 1
	mv	a0,a5
	ld	ra,88(sp)
	.cfi_restore 1
	ld	s0,80(sp)
	.cfi_restore 8
	.cfi_def_cfa 2, 96
	addi	sp,sp,96
	.cfi_def_cfa_offset 0
	jr	ra
	.cfi_endproc
.LFE21:
	.size	EfiBootManagerProcessLoadOption, .-EfiBootManagerProcessLoadOption
	.text
.Letext0:
	.file 2 "/home/kapoagaeming/spacemit-image-builder/components/edk2/MdePkg/Include/RiscV64/ProcessorBind.h"
	.file 3 "/home/kapoagaeming/spacemit-image-builder/components/edk2/MdePkg/Include/Base.h"
	.file 4 "/home/kapoagaeming/spacemit-image-builder/components/edk2/MdePkg/Include/Uefi/UefiBaseType.h"
	.file 5 "/home/kapoagaeming/spacemit-image-builder/components/edk2/MdePkg/Include/Uefi/UefiMultiPhase.h"
	.file 6 "/home/kapoagaeming/spacemit-image-builder/components/edk2/MdePkg/Include/Protocol/DevicePath.h"
	.file 7 "/home/kapoagaeming/spacemit-image-builder/components/edk2/MdePkg/Include/Protocol/SimpleTextIn.h"
	.file 8 "/home/kapoagaeming/spacemit-image-builder/components/edk2/MdePkg/Include/Protocol/SimpleTextOut.h"
	.file 9 "/home/kapoagaeming/spacemit-image-builder/components/edk2/MdePkg/Include/Uefi/UefiSpec.h"
	.file 10 "/home/kapoagaeming/spacemit-image-builder/components/edk2/MdePkg/Include/IndustryStandard/PeImage.h"
	.file 11 "/home/kapoagaeming/spacemit-image-builder/components/edk2/MdePkg/Include/Pi/PiStatusCode.h"
	.file 12 "/home/kapoagaeming/spacemit-image-builder/components/Build/Milk-V-Jupiter/RELEASE_GCC5/RISCV64/MdeModulePkg/Library/UefiBootManagerLib/UefiBootManagerLib/DEBUG/AutoGen.h"
	.file 13 "/home/kapoagaeming/spacemit-image-builder/components/edk2/MdePkg/Include/Protocol/LoadedImage.h"
	.file 14 "/home/kapoagaeming/spacemit-image-builder/components/edk2/MdeModulePkg/Include/Library/SortLib.h"
	.file 15 "/home/kapoagaeming/spacemit-image-builder/components/edk2/MdeModulePkg/Include/Library/UefiBootManagerLib.h"
	.file 16 "/home/kapoagaeming/spacemit-image-builder/components/edk2/MdePkg/Include/Library/UefiBootServicesTableLib.h"
	.file 17 "/home/kapoagaeming/spacemit-image-builder/components/edk2/MdePkg/Include/Library/UefiRuntimeServicesTableLib.h"
	.file 18 "/home/kapoagaeming/spacemit-image-builder/components/edk2/MdeModulePkg/Library/UefiBootManagerLib/InternalBm.h"
	.file 19 "/home/kapoagaeming/spacemit-image-builder/components/edk2/MdeModulePkg/Include/Protocol/VariablePolicy.h"
	.file 20 "/home/kapoagaeming/spacemit-image-builder/components/edk2/MdePkg/Include/Library/ReportStatusCodeLib.h"
	.file 21 "/home/kapoagaeming/spacemit-image-builder/components/edk2/MdePkg/Include/Library/DxeServicesLib.h"
	.file 22 "/home/kapoagaeming/spacemit-image-builder/components/edk2/MdePkg/Include/Library/BaseMemoryLib.h"
	.file 23 "/home/kapoagaeming/spacemit-image-builder/components/edk2/MdePkg/Include/Library/BaseLib.h"
	.file 24 "/home/kapoagaeming/spacemit-image-builder/components/edk2/MdePkg/Include/Library/UefiLib.h"
	.file 25 "/home/kapoagaeming/spacemit-image-builder/components/edk2/MdePkg/Include/Library/DevicePathLib.h"
	.file 26 "/home/kapoagaeming/spacemit-image-builder/components/edk2/MdePkg/Include/Library/MemoryAllocationLib.h"
	.file 27 "/home/kapoagaeming/spacemit-image-builder/components/edk2/MdeModulePkg/Include/Library/VariablePolicyHelperLib.h"
	.file 28 "/home/kapoagaeming/spacemit-image-builder/components/edk2/MdePkg/Include/Library/PrintLib.h"
	.section	.note.GNU-stack,"",@progbits
