	.file	"BmMisc.c"
	.option pic
	.option norelax
	.attribute arch, "rv64i2p1_m2p0_a2p1_f2p2_d2p2_c2p0_zicsr2p0_zifencei2p0_zmmul1p0_zaamo1p0_zalrsc1p0_zca1p0_zcd1p0"
	.attribute unaligned_access, 0
	.attribute stack_align, 16
	.text
.Ltext0:
	.cfi_sections	.debug_frame
	.file 0 "/home/kapoagaeming/spacemit-image-builder/components/Build/Milk-V-Jupiter/RELEASE_GCC5/RISCV64/MdeModulePkg/Library/UefiBootManagerLib/UefiBootManagerLib" "/home/kapoagaeming/spacemit-image-builder/components/edk2/MdeModulePkg/Library/UefiBootManagerLib/BmMisc.c"
	.section	.text.BmDelPartMatchInstance,"ax",@progbits
	.align	1
	.globl	BmDelPartMatchInstance
	.type	BmDelPartMatchInstance, @function
BmDelPartMatchInstance:
.LFB0:
	.file 1 "/home/kapoagaeming/spacemit-image-builder/components/edk2/MdeModulePkg/Library/UefiBootManagerLib/BmMisc.c"
	.loc 1 30 1
	.cfi_startproc
	addi	sp,sp,-80
	.cfi_def_cfa_offset 80
	sd	ra,72(sp)
	sd	s0,64(sp)
	.cfi_offset 1, -8
	.cfi_offset 8, -16
	addi	s0,sp,80
	.cfi_def_cfa 8, 0
	sd	a0,-72(s0)
	sd	a1,-80(s0)
	.loc 1 37 17
	sd	zero,-32(s0)
	.loc 1 38 21
	sd	zero,-40(s0)
	.loc 1 40 14
	ld	a5,-72(s0)
	.loc 1 40 6
	beq	a5,zero,.L2
	.loc 1 40 31 discriminator 1
	ld	a5,-80(s0)
	bne	a5,zero,.L3
.L2:
	.loc 1 41 12
	ld	a5,-72(s0)
	j	.L9
.L3:
	.loc 1 44 14
	addi	a4,s0,-56
	addi	a5,s0,-72
	mv	a1,a4
	mv	a0,a5
	call	GetNextDevicePathInstance@plt
	sd	a0,-24(s0)
	.loc 1 45 18
	ld	a0,-80(s0)
	call	GetDevicePathSize@plt
	mv	a5,a0
	.loc 1 45 16 discriminator 1
	addi	a5,a5,-4
	sd	a5,-48(s0)
	.loc 1 46 16
	ld	a5,-56(s0)
	addi	a5,a5,-4
	sd	a5,-56(s0)
	.loc 1 48 9
	j	.L5
.L8:
	.loc 1 49 9
	ld	a4,-56(s0)
	ld	a5,-48(s0)
	bleu	a5,a4,.L6
	mv	a5,a4
.L6:
	mv	a2,a5
	ld	a1,-80(s0)
	ld	a0,-24(s0)
	call	CompareMem@plt
	mv	a5,a0
	.loc 1 49 8 discriminator 1
	beq	a5,zero,.L7
	.loc 1 53 25
	ld	a5,-32(s0)
	sd	a5,-40(s0)
	.loc 1 54 23
	ld	a1,-24(s0)
	ld	a0,-32(s0)
	call	AppendDevicePathInstance@plt
	sd	a0,-32(s0)
	.loc 1 55 10
	ld	a5,-40(s0)
	beq	a5,zero,.L7
	.loc 1 56 9
	ld	a0,-40(s0)
	call	FreePool@plt
.L7:
	.loc 1 60 5
	ld	a0,-24(s0)
	call	FreePool@plt
	.loc 1 61 16
	addi	a4,s0,-56
	addi	a5,s0,-72
	mv	a1,a4
	mv	a0,a5
	call	GetNextDevicePathInstance@plt
	sd	a0,-24(s0)
	.loc 1 62 18
	ld	a5,-56(s0)
	addi	a5,a5,-4
	sd	a5,-56(s0)
.L5:
	.loc 1 48 19
	ld	a5,-24(s0)
	bne	a5,zero,.L8
	.loc 1 65 10
	ld	a5,-32(s0)
.L9:
	.loc 1 66 1
	mv	a0,a5
	ld	ra,72(sp)
	.cfi_restore 1
	ld	s0,64(sp)
	.cfi_restore 8
	.cfi_def_cfa 2, 80
	addi	sp,sp,80
	.cfi_def_cfa_offset 0
	jr	ra
	.cfi_endproc
.LFE0:
	.size	BmDelPartMatchInstance, .-BmDelPartMatchInstance
	.section	.text.BmMatchDevicePaths,"ax",@progbits
	.align	1
	.globl	BmMatchDevicePaths
	.type	BmMatchDevicePaths, @function
BmMatchDevicePaths:
.LFB1:
	.loc 1 86 1
	.cfi_startproc
	addi	sp,sp,-64
	.cfi_def_cfa_offset 64
	sd	ra,56(sp)
	sd	s0,48(sp)
	.cfi_offset 1, -8
	.cfi_offset 8, -16
	addi	s0,sp,64
	.cfi_def_cfa 8, 0
	sd	a0,-56(s0)
	sd	a1,-64(s0)
	.loc 1 91 6
	ld	a5,-56(s0)
	beq	a5,zero,.L11
	.loc 1 91 31 discriminator 1
	ld	a5,-64(s0)
	bne	a5,zero,.L12
.L11:
	.loc 1 92 12
	li	a5,0
	j	.L17
.L12:
	.loc 1 95 14
	ld	a5,-56(s0)
	sd	a5,-32(s0)
	.loc 1 96 20
	addi	a4,s0,-40
	addi	a5,s0,-32
	mv	a1,a4
	mv	a0,a5
	call	GetNextDevicePathInstance@plt
	sd	a0,-24(s0)
	.loc 1 101 9
	j	.L14
.L16:
	.loc 1 106 9
	ld	a5,-40(s0)
	mv	a2,a5
	ld	a1,-24(s0)
	ld	a0,-64(s0)
	call	CompareMem@plt
	mv	a5,a0
	.loc 1 106 8 discriminator 1
	bne	a5,zero,.L15
	.loc 1 107 7
	ld	a0,-24(s0)
	call	FreePool@plt
	.loc 1 108 14
	li	a5,1
	j	.L17
.L15:
	.loc 1 111 5
	ld	a0,-24(s0)
	call	FreePool@plt
	.loc 1 112 22
	addi	a4,s0,-40
	addi	a5,s0,-32
	mv	a1,a4
	mv	a0,a5
	call	GetNextDevicePathInstance@plt
	sd	a0,-24(s0)
.L14:
	.loc 1 101 25
	ld	a5,-24(s0)
	bne	a5,zero,.L16
	.loc 1 115 10
	li	a5,0
.L17:
	.loc 1 116 1
	mv	a0,a5
	ld	ra,56(sp)
	.cfi_restore 1
	ld	s0,48(sp)
	.cfi_restore 8
	.cfi_def_cfa 2, 64
	addi	sp,sp,64
	.cfi_def_cfa_offset 0
	jr	ra
	.cfi_endproc
.LFE1:
	.size	BmMatchDevicePaths, .-BmMatchDevicePaths
	.section	.rodata
	.align	3
.LC0:
	.string	"M"
	.string	"e"
	.string	"m"
	.string	"o"
	.string	"r"
	.string	"y"
	.string	"T"
	.string	"y"
	.string	"p"
	.string	"e"
	.string	"I"
	.string	"n"
	.string	"f"
	.string	"o"
	.string	"r"
	.string	"m"
	.string	"a"
	.string	"t"
	.string	"i"
	.string	"o"
	.string	"n"
	.zero	2
	.section	.text.BmSetMemoryTypeInformationVariable,"ax",@progbits
	.align	1
	.globl	BmSetMemoryTypeInformationVariable
	.type	BmSetMemoryTypeInformationVariable, @function
BmSetMemoryTypeInformationVariable:
.LFB2:
	.loc 1 132 1
	.cfi_startproc
	addi	sp,sp,-128
	.cfi_def_cfa_offset 128
	sd	ra,120(sp)
	sd	s0,112(sp)
	.cfi_offset 1, -8
	.cfi_offset 8, -16
	addi	s0,sp,128
	.cfi_def_cfa 8, 0
	mv	a5,a0
	sb	a5,-113(s0)
	.loc 1 147 33
	sb	zero,-25(s0)
	.loc 1 148 39
	sb	zero,-17(s0)
	.loc 1 150 14
	call	GetBootModeHob@plt
	mv	a5,a0
	sw	a5,-52(s0)
	.loc 1 154 6
	lw	a5,-52(s0)
	sext.w	a4,a5
	li	a5,32
	beq	a4,a5,.L40
	.loc 1 163 6
	lw	a5,-52(s0)
	sext.w	a4,a5
	li	a5,4
	beq	a4,a5,.L21
	.loc 1 164 18
	sd	zero,-96(s0)
	.loc 1 165 17
	la	a5,gRT
	ld	a5,0(a5)
	ld	a5,72(a5)
	.loc 1 165 14
	addi	a3,s0,-96
	li	a4,0
	li	a2,0
	la	a1,gEfiMemoryTypeInformationGuid
	lla	a0,.LC0
	jalr	a5
.LVL0:
	sd	a0,-64(s0)
	.loc 1 172 8
	ld	a4,-64(s0)
	li	a5,-1
	slli	a5,a5,63
	addi	a5,a5,5
	bne	a4,a5,.L21
	.loc 1 173 43
	li	a5,1
	sb	a5,-17(s0)
.L21:
	.loc 1 181 12
	addi	a5,s0,-88
	mv	a1,a5
	la	a0,gEfiMemoryTypeInformationGuid
	call	EfiGetSystemConfigurationTable@plt
	sd	a0,-64(s0)
	.loc 1 185 34
	ld	a5,-64(s0)
	.loc 1 185 6
	blt	a5,zero,.L41
	.loc 1 185 93 discriminator 1
	ld	a5,-88(s0)
	.loc 1 185 60 discriminator 1
	beq	a5,zero,.L41
	.loc 1 194 13
	la	a0,gEfiMemoryTypeInformationGuid
	call	GetFirstGuidHob@plt
	mv	a5,a0
	.loc 1 194 11 discriminator 1
	sd	a5,-104(s0)
	.loc 1 195 15
	ld	a5,-104(s0)
	.loc 1 195 6
	beq	a5,zero,.L42
	.loc 1 202 57
	addi	a5,s0,-104
	.loc 1 202 29
	ld	a5,0(a5)
	.loc 1 202 68
	lhu	a5,2(a5)
	.loc 1 202 18
	addiw	a5,a5,-24
	slli	a5,a5,48
	srli	a5,a5,48
	.loc 1 202 16
	sd	a5,-96(s0)
	.loc 1 203 35
	ld	a4,-96(s0)
	.loc 1 203 87
	addi	a5,s0,-104
	.loc 1 203 76
	ld	a5,0(a5)
	.loc 1 203 98
	addi	a5,a5,24
	.loc 1 203 35
	mv	a1,a5
	mv	a0,a4
	call	AllocateCopyPool@plt
	sd	a0,-72(s0)
	.loc 1 204 6
	ld	a5,-72(s0)
	beq	a5,zero,.L43
	.loc 1 215 14
	sd	zero,-48(s0)
	.loc 1 215 3
	j	.L26
.L36:
	.loc 1 216 17
	sd	zero,-40(s0)
	.loc 1 216 5
	j	.L27
.L30:
	.loc 1 217 40
	ld	a5,-48(s0)
	slli	a5,a5,3
	ld	a4,-72(s0)
	add	a5,a4,a5
	.loc 1 217 47
	lw	a4,0(a5)
	.loc 1 217 84
	ld	a3,-88(s0)
	ld	a5,-40(s0)
	slli	a5,a5,3
	add	a5,a3,a5
	.loc 1 217 92
	lw	a5,0(a5)
	.loc 1 217 10
	beq	a4,a5,.L44
	.loc 1 216 91 discriminator 2
	ld	a5,-40(s0)
	addi	a5,a5,1
	sd	a5,-40(s0)
.L27:
	.loc 1 216 50 discriminator 1
	ld	a4,-88(s0)
	ld	a5,-40(s0)
	slli	a5,a5,3
	add	a5,a4,a5
	.loc 1 216 58 discriminator 1
	lw	a4,0(a5)
	.loc 1 216 64 discriminator 1
	li	a5,16
	bne	a4,a5,.L30
	j	.L29
.L44:
	.loc 1 218 9
	nop
.L29:
	.loc 1 222 37
	ld	a4,-88(s0)
	ld	a5,-40(s0)
	slli	a5,a5,3
	add	a5,a4,a5
	.loc 1 222 45
	lw	a4,0(a5)
	.loc 1 222 8
	li	a5,16
	beq	a4,a5,.L45
	.loc 1 230 45
	ld	a5,-48(s0)
	slli	a5,a5,3
	ld	a4,-72(s0)
	add	a5,a4,a5
	.loc 1 230 14
	lw	a5,4(a5)
	sw	a5,-76(s0)
	.loc 1 231 43
	ld	a4,-88(s0)
	ld	a5,-40(s0)
	slli	a5,a5,3
	add	a5,a4,a5
	.loc 1 231 13
	lw	a5,4(a5)
	sw	a5,-80(s0)
	.loc 1 232 10
	lw	a5,-76(s0)
	sw	a5,-24(s0)
	.loc 1 240 29
	lw	a5,-80(s0)
	srliw	a5,a5,1
	sext.w	a5,a5
	.loc 1 240 18
	lw	a4,-80(s0)
	addw	a5,a4,a5
	sext.w	a5,a5
	.loc 1 240 8
	lw	a4,-76(s0)
	sext.w	a4,a4
	bleu	a4,a5,.L33
	.loc 1 241 10
	lw	a5,-52(s0)
	sext.w	a4,a5
	li	a5,4
	bne	a4,a5,.L34
	.loc 1 242 35
	lw	a5,-80(s0)
	srliw	a5,a5,2
	sext.w	a5,a5
	.loc 1 242 14
	lw	a4,-80(s0)
	addw	a5,a4,a5
	sw	a5,-24(s0)
	j	.L34
.L33:
	.loc 1 244 15
	lw	a5,-80(s0)
	mv	a4,a5
	lw	a5,-76(s0)
	sext.w	a4,a4
	sext.w	a5,a5
	bleu	a4,a5,.L34
	.loc 1 245 33
	lw	a5,-80(s0)
	srliw	a5,a5,2
	sext.w	a5,a5
	.loc 1 245 12
	lw	a4,-80(s0)
	addw	a5,a4,a5
	sw	a5,-24(s0)
.L34:
	.loc 1 248 8
	lw	a5,-24(s0)
	sext.w	a5,a5
	beq	a5,zero,.L35
	.loc 1 248 20 discriminator 1
	lw	a5,-24(s0)
	sext.w	a4,a5
	li	a5,3
	bgtu	a4,a5,.L35
	.loc 1 249 12
	li	a5,4
	sw	a5,-24(s0)
.L35:
	.loc 1 252 8
	lw	a5,-24(s0)
	mv	a4,a5
	lw	a5,-76(s0)
	sext.w	a4,a4
	sext.w	a5,a5
	beq	a4,a5,.L32
	.loc 1 253 36
	ld	a5,-48(s0)
	slli	a5,a5,3
	ld	a4,-72(s0)
	add	a5,a4,a5
	.loc 1 253 58
	lw	a4,-24(s0)
	sw	a4,4(a5)
	.loc 1 254 37
	li	a5,1
	sb	a5,-25(s0)
	j	.L32
.L45:
	.loc 1 223 7
	nop
.L32:
	.loc 1 215 87 discriminator 2
	ld	a5,-48(s0)
	addi	a5,a5,1
	sd	a5,-48(s0)
.L26:
	.loc 1 215 48 discriminator 1
	ld	a5,-48(s0)
	slli	a5,a5,3
	ld	a4,-72(s0)
	add	a5,a4,a5
	.loc 1 215 55 discriminator 1
	lw	a4,0(a5)
	.loc 1 215 61 discriminator 1
	li	a5,16
	bne	a4,a5,.L36
	.loc 1 264 6
	lbu	a5,-25(s0)
	andi	a5,a5,0xff
	bne	a5,zero,.L37
	.loc 1 264 37 discriminator 1
	lbu	a5,-17(s0)
	andi	a5,a5,0xff
	bne	a5,zero,.L38
.L37:
	.loc 1 265 14
	ld	a5,-96(s0)
	ld	a4,-72(s0)
	mv	a3,a5
	li	a2,3
	la	a1,gEfiMemoryTypeInformationGuid
	lla	a0,.LC0
	call	BmSetVariableAndReportStatusCodeOnError
	sd	a0,-64(s0)
	.loc 1 273 9
	ld	a5,-64(s0)
	.loc 1 273 8
	blt	a5,zero,.L38
	.loc 1 279 10
	lbu	a5,-25(s0)
	andi	a5,a5,0xff
	beq	a5,zero,.L38
	.loc 1 281 12
	lbu	a5,-113(s0)
	andi	a5,a5,0xff
	beq	a5,zero,.L38
	.loc 1 281 18 discriminator 1
	la	a5,_gPcd_FixedAtBuild_PcdResetOnMemoryTypeInformationChange
	lbu	a5,0(a5)
	beq	a5,zero,.L38
	.loc 1 283 14
	la	a5,gRT
	ld	a5,0(a5)
	ld	a5,104(a5)
	.loc 1 283 11
	li	a3,0
	li	a2,0
	li	a1,0
	li	a0,1
	jalr	a5
.LVL1:
.L38:
	.loc 1 291 3
	ld	a0,-72(s0)
	call	FreePool@plt
	j	.L18
.L40:
	.loc 1 155 5
	nop
	j	.L18
.L41:
	.loc 1 186 5
	nop
	j	.L18
.L42:
	.loc 1 199 5
	nop
	j	.L18
.L43:
	.loc 1 205 5
	nop
.L18:
	.loc 1 292 1
	ld	ra,120(sp)
	.cfi_restore 1
	ld	s0,112(sp)
	.cfi_restore 8
	.cfi_def_cfa 2, 128
	addi	sp,sp,128
	.cfi_def_cfa_offset 0
	jr	ra
	.cfi_endproc
.LFE2:
	.size	BmSetMemoryTypeInformationVariable, .-BmSetMemoryTypeInformationVariable
	.section	.text.BmSetVariableAndReportStatusCodeOnError,"ax",@progbits
	.align	1
	.globl	BmSetVariableAndReportStatusCodeOnError
	.type	BmSetVariableAndReportStatusCodeOnError, @function
BmSetVariableAndReportStatusCodeOnError:
.LFB3:
	.loc 1 335 1
	.cfi_startproc
	addi	sp,sp,-96
	.cfi_def_cfa_offset 96
	sd	ra,88(sp)
	sd	s0,80(sp)
	.cfi_offset 1, -8
	.cfi_offset 8, -16
	addi	s0,sp,96
	.cfi_def_cfa 8, 0
	sd	a0,-56(s0)
	sd	a1,-64(s0)
	mv	a5,a2
	sd	a3,-80(s0)
	sd	a4,-88(s0)
	sw	a5,-68(s0)
	.loc 1 340 15
	la	a5,gRT
	ld	a5,0(a5)
	ld	a5,88(a5)
	.loc 1 340 12
	lw	a2,-68(s0)
	ld	a4,-88(s0)
	ld	a3,-80(s0)
	ld	a1,-64(s0)
	ld	a0,-56(s0)
	jalr	a5
.LVL2:
	sd	a0,-24(s0)
	.loc 1 347 34
	ld	a5,-24(s0)
	.loc 1 347 6
	bge	a5,zero,.L47
	.loc 1 348 16
	ld	a0,-56(s0)
	call	StrSize@plt
	sd	a0,-32(s0)
	.loc 1 349 85
	ld	a4,-32(s0)
	ld	a5,-80(s0)
	add	a5,a4,a5
	addi	a5,a5,48
	.loc 1 349 25
	mv	a0,a5
	call	AllocatePool@plt
	sd	a0,-40(s0)
	.loc 1 350 8
	ld	a5,-40(s0)
	beq	a5,zero,.L47
	.loc 1 351 17
	ld	a5,-40(s0)
	.loc 1 351 7
	ld	a1,-64(s0)
	mv	a0,a5
	call	CopyGuid@plt
	.loc 1 352 35
	ld	a5,-40(s0)
	ld	a4,-32(s0)
	sd	a4,16(a5)
	.loc 1 353 35
	ld	a5,-40(s0)
	ld	a4,-80(s0)
	sd	a4,24(a5)
	.loc 1 354 36
	ld	a5,-40(s0)
	ld	a4,-24(s0)
	sd	a4,32(a5)
	.loc 1 355 37
	ld	a5,-40(s0)
	lw	a4,-68(s0)
	sw	a4,40(a5)
	.loc 1 356 34
	ld	a5,-40(s0)
	addi	a5,a5,48
	.loc 1 356 7
	ld	a2,-32(s0)
	ld	a1,-56(s0)
	mv	a0,a5
	call	CopyMem@plt
	.loc 1 357 51
	ld	a5,-32(s0)
	addi	a5,a5,48
	ld	a4,-40(s0)
	add	a5,a4,a5
	.loc 1 357 7
	ld	a2,-80(s0)
	ld	a1,-88(s0)
	mv	a0,a5
	call	CopyMem@plt
	.loc 1 359 8
	call	ReportProgressCodeEnabled@plt
	.loc 1 359 289 discriminator 3
	call	ReportErrorCodeEnabled@plt
	mv	a5,a0
	.loc 1 359 564 discriminator 5
	beq	a5,zero,.L48
	.loc 1 359 362 discriminator 8
	la	a5,_gPcd_FixedAtBuild_PcdErrorCodeSetVariable
	lw	a1,0(a5)
	.loc 1 359 552 discriminator 8
	ld	a4,-32(s0)
	ld	a5,-80(s0)
	add	a5,a4,a5
	addi	a5,a5,48
	.loc 1 359 362 discriminator 8
	mv	a6,a5
	ld	a5,-40(s0)
	la	a4,gEdkiiStatusCodeDataTypeVariableGuid
	li	a3,0
	li	a2,0
	li	a0,2
	call	ReportStatusCodeEx@plt
	.loc 1 359 286
	j	.L49
.L48:
	.loc 1 359 567 discriminator 9
	call	ReportDebugCodeEnabled@plt
.L49:
	.loc 1 369 7
	ld	a0,-40(s0)
	call	FreePool@plt
.L47:
	.loc 1 373 10
	ld	a5,-24(s0)
	.loc 1 374 1
	mv	a0,a5
	ld	ra,88(sp)
	.cfi_restore 1
	ld	s0,80(sp)
	.cfi_restore 8
	.cfi_def_cfa 2, 96
	addi	sp,sp,96
	.cfi_def_cfa_offset 0
	jr	ra
	.cfi_endproc
.LFE3:
	.size	BmSetVariableAndReportStatusCodeOnError, .-BmSetVariableAndReportStatusCodeOnError
	.section	.text.BmPrintDp,"ax",@progbits
	.align	1
	.globl	BmPrintDp
	.type	BmPrintDp, @function
BmPrintDp:
.LFB4:
	.loc 1 385 1
	.cfi_startproc
	addi	sp,sp,-48
	.cfi_def_cfa_offset 48
	sd	ra,40(sp)
	sd	s0,32(sp)
	.cfi_offset 1, -8
	.cfi_offset 8, -16
	addi	s0,sp,48
	.cfi_def_cfa 8, 0
	sd	a0,-40(s0)
	.loc 1 388 9
	li	a2,0
	li	a1,0
	ld	a0,-40(s0)
	call	ConvertDevicePathToText@plt
	sd	a0,-24(s0)
	.loc 1 390 6
	ld	a5,-24(s0)
	beq	a5,zero,.L53
	.loc 1 391 5
	ld	a0,-24(s0)
	call	FreePool@plt
.L53:
	.loc 1 393 1
	nop
	ld	ra,40(sp)
	.cfi_restore 1
	ld	s0,32(sp)
	.cfi_restore 8
	.cfi_def_cfa 2, 48
	addi	sp,sp,48
	.cfi_def_cfa_offset 0
	jr	ra
	.cfi_endproc
.LFE4:
	.size	BmPrintDp, .-BmPrintDp
	.section	.text.BmCharToUint,"ax",@progbits
	.align	1
	.globl	BmCharToUint
	.type	BmCharToUint, @function
BmCharToUint:
.LFB5:
	.loc 1 407 1
	.cfi_startproc
	addi	sp,sp,-32
	.cfi_def_cfa_offset 32
	sd	ra,24(sp)
	sd	s0,16(sp)
	.cfi_offset 1, -8
	.cfi_offset 8, -16
	addi	s0,sp,32
	.cfi_def_cfa 8, 0
	mv	a5,a0
	sh	a5,-18(s0)
	.loc 1 408 6
	lhu	a5,-18(s0)
	sext.w	a4,a5
	li	a5,47
	bleu	a4,a5,.L55
	.loc 1 408 22 discriminator 1
	lhu	a5,-18(s0)
	sext.w	a4,a5
	li	a5,57
	bgtu	a4,a5,.L55
	.loc 1 409 18
	lhu	a5,-18(s0)
	sext.w	a5,a5
	addiw	a5,a5,-48
	sext.w	a5,a5
	j	.L56
.L55:
	.loc 1 412 6
	lhu	a5,-18(s0)
	sext.w	a4,a5
	li	a5,64
	bleu	a4,a5,.L57
	.loc 1 412 22 discriminator 1
	lhu	a5,-18(s0)
	sext.w	a4,a5
	li	a5,70
	bgtu	a4,a5,.L57
	.loc 1 413 25
	lhu	a5,-18(s0)
	sext.w	a5,a5
	addiw	a5,a5,-55
	sext.w	a5,a5
	j	.L56
.L57:
	.loc 1 416 10
	li	a5,-1
.L56:
	.loc 1 417 1
	mv	a0,a5
	ld	ra,24(sp)
	.cfi_restore 1
	ld	s0,16(sp)
	.cfi_restore 8
	.cfi_def_cfa 2, 32
	addi	sp,sp,32
	.cfi_def_cfa_offset 0
	jr	ra
	.cfi_endproc
.LFE5:
	.size	BmCharToUint, .-BmCharToUint
	.section	.text.EfiBootManagerDispatchDeferredImages,"ax",@progbits
	.align	1
	.globl	EfiBootManagerDispatchDeferredImages
	.type	EfiBootManagerDispatchDeferredImages, @function
EfiBootManagerDispatchDeferredImages:
.LFB6:
	.loc 1 431 1
	.cfi_startproc
	addi	sp,sp,-128
	.cfi_def_cfa_offset 128
	sd	ra,120(sp)
	sd	s0,112(sp)
	.cfi_offset 1, -8
	.cfi_offset 8, -16
	addi	s0,sp,128
	.cfi_def_cfa 8, 0
	.loc 1 449 15
	sd	zero,-72(s0)
	.loc 1 450 11
	sd	zero,-80(s0)
	.loc 1 451 15
	la	a5,gBS
	ld	a5,0(a5)
	ld	a5,312(a5)
	.loc 1 451 12
	addi	a4,s0,-80
	addi	a3,s0,-72
	li	a2,0
	la	a1,gEfiDeferredImageLoadProtocolGuid
	li	a0,2
	jalr	a5
.LVL3:
	sd	a0,-56(s0)
	.loc 1 458 34
	ld	a5,-56(s0)
	.loc 1 458 6
	bge	a5,zero,.L59
	.loc 1 459 12
	li	a5,-1
	slli	a5,a5,63
	addi	a5,a5,14
	j	.L72
.L59:
	.loc 1 462 14
	sd	zero,-40(s0)
	.loc 1 463 13
	sd	zero,-48(s0)
	.loc 1 464 14
	sd	zero,-24(s0)
	.loc 1 464 3
	j	.L61
.L68:
	.loc 1 465 17
	la	a5,gBS
	ld	a5,0(a5)
	ld	a5,152(a5)
	.loc 1 465 42
	ld	a3,-80(s0)
	ld	a4,-24(s0)
	slli	a4,a4,3
	add	a4,a3,a4
	.loc 1 465 14
	ld	a4,0(a4)
	addi	a3,s0,-64
	mv	a2,a3
	la	a1,gEfiDeferredImageLoadProtocolGuid
	mv	a0,a4
	jalr	a5
.LVL4:
	sd	a0,-56(s0)
	.loc 1 466 36
	ld	a5,-56(s0)
	.loc 1 466 8
	blt	a5,zero,.L73
	.loc 1 470 21
	sd	zero,-32(s0)
.L67:
	.loc 1 474 29
	ld	a5,-64(s0)
	ld	a6,0(a5)
	.loc 1 474 16
	ld	a0,-64(s0)
	addi	a5,s0,-105
	addi	a4,s0,-104
	addi	a3,s0,-96
	addi	a2,s0,-88
	ld	a1,-32(s0)
	jalr	a6
.LVL5:
	sd	a0,-56(s0)
	.loc 1 482 38
	ld	a5,-56(s0)
	.loc 1 482 10
	blt	a5,zero,.L74
	.loc 1 486 17
	ld	a5,-40(s0)
	addi	a5,a5,1
	sd	a5,-40(s0)
	.loc 1 490 19
	la	a5,gBS
	ld	a5,0(a5)
	ld	a6,200(a5)
	.loc 1 490 16
	lbu	a0,-105(s0)
	la	a5,gImageHandle
	ld	a1,0(a5)
	ld	a2,-88(s0)
	addi	a5,s0,-120
	li	a4,0
	li	a3,0
	jalr	a6
.LVL6:
	sd	a0,-56(s0)
	.loc 1 498 38
	ld	a5,-56(s0)
	.loc 1 498 10
	bge	a5,zero,.L65
	.loc 1 505 12
	ld	a4,-56(s0)
	li	a5,-1
	slli	a5,a5,63
	addi	a5,a5,26
	bne	a4,a5,.L66
	.loc 1 506 14
	la	a5,gBS
	ld	a5,0(a5)
	ld	a5,224(a5)
	.loc 1 506 11
	ld	a4,-120(s0)
	mv	a0,a4
	jalr	a5
.LVL7:
	j	.L66
.L65:
	.loc 1 509 18
	ld	a5,-48(s0)
	addi	a5,a5,1
	sd	a5,-48(s0)
	.loc 1 514 12
	la	a5,gBS
	ld	a5,0(a5)
	ld	a5,256(a5)
	.loc 1 514 9
	li	a3,0
	li	a2,0
	li	a1,0
	li	a0,300
	jalr	a5
.LVL8:
	.loc 1 515 12
	la	a5,gBS
	ld	a5,0(a5)
	ld	a5,208(a5)
	.loc 1 515 9
	ld	a4,-120(s0)
	li	a2,0
	li	a1,0
	mv	a0,a4
	jalr	a5
.LVL9:
	.loc 1 520 12
	la	a5,gBS
	ld	a5,0(a5)
	ld	a5,256(a5)
	.loc 1 520 9
	li	a3,0
	li	a2,0
	li	a1,0
	li	a0,0
	jalr	a5
.LVL10:
.L66:
	.loc 1 470 38
	ld	a5,-32(s0)
	addi	a5,a5,1
	sd	a5,-32(s0)
	.loc 1 474 14
	j	.L67
.L73:
	.loc 1 467 7
	nop
	j	.L63
.L74:
	.loc 1 483 9
	nop
.L63:
	.loc 1 464 45 discriminator 2
	ld	a5,-24(s0)
	addi	a5,a5,1
	sd	a5,-24(s0)
.L61:
	.loc 1 464 25 discriminator 1
	ld	a5,-72(s0)
	ld	a4,-24(s0)
	bltu	a4,a5,.L68
	.loc 1 525 15
	ld	a5,-80(s0)
	.loc 1 525 6
	beq	a5,zero,.L69
	.loc 1 526 5
	ld	a5,-80(s0)
	mv	a0,a5
	call	FreePool@plt
.L69:
	.loc 1 529 6
	ld	a5,-40(s0)
	bne	a5,zero,.L70
	.loc 1 530 12
	li	a5,-1
	slli	a5,a5,63
	addi	a5,a5,14
	j	.L72
.L70:
	.loc 1 532 8
	ld	a5,-48(s0)
	bne	a5,zero,.L71
	.loc 1 533 14
	li	a5,-1
	slli	a5,a5,63
	addi	a5,a5,15
	j	.L72
.L71:
	.loc 1 535 14
	li	a5,0
.L72:
	.loc 1 538 1
	mv	a0,a5
	ld	ra,120(sp)
	.cfi_restore 1
	ld	s0,112(sp)
	.cfi_restore 8
	.cfi_def_cfa 2, 128
	addi	sp,sp,128
	.cfi_def_cfa_offset 0
	jr	ra
	.cfi_endproc
.LFE6:
	.size	EfiBootManagerDispatchDeferredImages, .-EfiBootManagerDispatchDeferredImages
	.text
.Letext0:
	.file 2 "/home/kapoagaeming/spacemit-image-builder/components/edk2/MdePkg/Include/RiscV64/ProcessorBind.h"
	.file 3 "/home/kapoagaeming/spacemit-image-builder/components/edk2/MdePkg/Include/Base.h"
	.file 4 "/home/kapoagaeming/spacemit-image-builder/components/edk2/MdePkg/Include/Uefi/UefiBaseType.h"
	.file 5 "/home/kapoagaeming/spacemit-image-builder/components/edk2/MdePkg/Include/Uefi/UefiMultiPhase.h"
	.file 6 "/home/kapoagaeming/spacemit-image-builder/components/edk2/MdePkg/Include/Protocol/DevicePath.h"
	.file 7 "/home/kapoagaeming/spacemit-image-builder/components/edk2/MdePkg/Include/Uefi/UefiSpec.h"
	.file 8 "/home/kapoagaeming/spacemit-image-builder/components/edk2/MdePkg/Include/Pi/PiBootMode.h"
	.file 9 "/home/kapoagaeming/spacemit-image-builder/components/edk2/MdePkg/Include/Pi/PiHob.h"
	.file 10 "/home/kapoagaeming/spacemit-image-builder/components/edk2/MdePkg/Include/Pi/PiStatusCode.h"
	.file 11 "/home/kapoagaeming/spacemit-image-builder/components/Build/Milk-V-Jupiter/RELEASE_GCC5/RISCV64/MdeModulePkg/Library/UefiBootManagerLib/UefiBootManagerLib/DEBUG/AutoGen.h"
	.file 12 "/home/kapoagaeming/spacemit-image-builder/components/edk2/MdePkg/Include/Protocol/DeferredImageLoad.h"
	.file 13 "/home/kapoagaeming/spacemit-image-builder/components/edk2/MdeModulePkg/Include/Guid/MemoryTypeInformation.h"
	.file 14 "/home/kapoagaeming/spacemit-image-builder/components/edk2/MdeModulePkg/Include/Guid/StatusCodeDataTypeVariable.h"
	.file 15 "/home/kapoagaeming/spacemit-image-builder/components/edk2/MdePkg/Include/Library/UefiBootServicesTableLib.h"
	.file 16 "/home/kapoagaeming/spacemit-image-builder/components/edk2/MdePkg/Include/Library/UefiRuntimeServicesTableLib.h"
	.file 17 "/home/kapoagaeming/spacemit-image-builder/components/edk2/MdePkg/Include/Library/DevicePathLib.h"
	.file 18 "/home/kapoagaeming/spacemit-image-builder/components/edk2/MdePkg/Include/Library/ReportStatusCodeLib.h"
	.file 19 "/home/kapoagaeming/spacemit-image-builder/components/edk2/MdePkg/Include/Library/BaseMemoryLib.h"
	.file 20 "/home/kapoagaeming/spacemit-image-builder/components/edk2/MdePkg/Include/Library/MemoryAllocationLib.h"
	.file 21 "/home/kapoagaeming/spacemit-image-builder/components/edk2/MdePkg/Include/Library/BaseLib.h"
	.file 22 "/home/kapoagaeming/spacemit-image-builder/components/edk2/MdePkg/Include/Library/HobLib.h"
	.file 23 "/home/kapoagaeming/spacemit-image-builder/components/edk2/MdePkg/Include/Library/UefiLib.h"
	.section	.note.GNU-stack,"",@progbits
