	.file	"BufferImage.c"
	.option pic
	.option norelax
	.attribute arch, "rv64i2p1_m2p0_a2p1_f2p2_d2p2_c2p0_zicsr2p0_zifencei2p0_zmmul1p0_zaamo1p0_zalrsc1p0_zca1p0_zcd1p0"
	.attribute unaligned_access, 0
	.attribute stack_align, 16
	.text
.Ltext0:
	.cfi_sections	.debug_frame
	.file 0 "/home/kapoagaeming/Downloads/spacemit-image-builder/components/Build/Milk-V-Jupiter/RELEASE_GCC5/RISCV64/ShellPkg/Library/UefiShellDebug1CommandsLib/UefiShellDebug1CommandsLib" "/home/kapoagaeming/Downloads/spacemit-image-builder/components/edk2/ShellPkg/Library/UefiShellDebug1CommandsLib/HexEdit/BufferImage.c"
	.globl	HBufferImage
	.section	.bss.HBufferImage,"aw",@nobits
	.align	3
	.type	HBufferImage, @object
	.size	HBufferImage, 120
HBufferImage:
	.zero	120
	.globl	HBufferImageBackupVar
	.section	.bss.HBufferImageBackupVar,"aw",@nobits
	.align	3
	.type	HBufferImageBackupVar, @object
	.size	HBufferImageBackupVar, 120
HBufferImageBackupVar:
	.zero	120
	.globl	HBufferImageConst
	.section	.data.HBufferImageConst,"aw"
	.align	3
	.type	HBufferImageConst, @object
	.size	HBufferImageConst, 120
HBufferImageConst:
	.dword	0
	.dword	0
	.dword	0
	.dword	0
	.dword	0
	.dword	0
	.dword	0
	.dword	0
	.dword	0
	.dword	0
	.dword	0
	.byte	1
	.byte	0
	.zero	2
	.word	0
	.dword	0
	.dword	0
	.dword	0
	.globl	HBufferImageNeedRefresh
	.section	.bss.HBufferImageNeedRefresh,"aw",@nobits
	.type	HBufferImageNeedRefresh, @object
	.size	HBufferImageNeedRefresh, 1
HBufferImageNeedRefresh:
	.zero	1
	.globl	HBufferImageOnlyLineNeedRefresh
	.section	.bss.HBufferImageOnlyLineNeedRefresh,"aw",@nobits
	.type	HBufferImageOnlyLineNeedRefresh, @object
	.size	HBufferImageOnlyLineNeedRefresh, 1
HBufferImageOnlyLineNeedRefresh:
	.zero	1
	.globl	HBufferImageMouseNeedRefresh
	.section	.bss.HBufferImageMouseNeedRefresh,"aw",@nobits
	.type	HBufferImageMouseNeedRefresh, @object
	.size	HBufferImageMouseNeedRefresh, 1
HBufferImageMouseNeedRefresh:
	.zero	1
	.section	.text.HBufferImageInit,"ax",@progbits
	.align	1
	.globl	HBufferImageInit
	.type	HBufferImageInit, @function
HBufferImageInit:
.LFB0:
	.file 1 "/home/kapoagaeming/Downloads/spacemit-image-builder/components/edk2/ShellPkg/Library/UefiShellDebug1CommandsLib/HexEdit/BufferImage.c"
	.loc 1 81 1
	.cfi_startproc
	addi	sp,sp,-32
	.cfi_def_cfa_offset 32
	sd	ra,24(sp)
	sd	s0,16(sp)
	.cfi_offset 1, -8
	.cfi_offset 8, -16
	addi	s0,sp,32
	.cfi_def_cfa 8, 0
	.loc 1 87 3
	li	a2,120
	lla	a1,HBufferImageConst
	lla	a0,HBufferImage
	call	CopyMem@plt
	.loc 1 92 27
	li	a0,16
	call	AllocateZeroPool@plt
	mv	a4,a0
	.loc 1 92 25 discriminator 1
	lla	a5,HBufferImage
	sd	a4,0(a5)
	.loc 1 93 19
	lla	a5,HBufferImage
	ld	a5,0(a5)
	.loc 1 93 6
	bne	a5,zero,.L2
	.loc 1 94 12
	li	a5,-1
	slli	a5,a5,63
	addi	a5,a5,1
	j	.L3
.L2:
	.loc 1 97 3
	lla	a5,HBufferImage
	ld	a5,0(a5)
	mv	a0,a5
	call	InitializeListHead@plt
	.loc 1 99 36
	lla	a5,HBufferImage
	li	a4,2
	sd	a4,32(a5)
	.loc 1 100 39
	lla	a5,HBufferImage
	li	a4,10
	sd	a4,40(a5)
	.loc 1 101 34
	lla	a5,HBufferImage
	li	a4,2
	sd	a4,48(a5)
	.loc 1 102 37
	lla	a5,HBufferImage
	li	a4,10
	sd	a4,56(a5)
	.loc 1 104 26
	lla	a5,HBufferImage
	la	a4,HFileImage
	sd	a4,96(a5)
	.loc 1 105 26
	lla	a5,HBufferImage
	la	a4,HDiskImage
	sd	a4,104(a5)
	.loc 1 106 25
	lla	a5,HBufferImage
	la	a4,HMemImage
	sd	a4,112(a5)
	.loc 1 108 27
	lla	a5,HBufferImageNeedRefresh
	sb	zero,0(a5)
	.loc 1 109 35
	lla	a5,HBufferImageOnlyLineNeedRefresh
	sb	zero,0(a5)
	.loc 1 110 32
	lla	a5,HBufferImageMouseNeedRefresh
	sb	zero,0(a5)
	.loc 1 112 35
	lla	a5,HBufferImageBackupVar
	la	a4,HFileImageBackupVar
	sd	a4,96(a5)
	.loc 1 113 35
	lla	a5,HBufferImageBackupVar
	la	a4,HDiskImageBackupVar
	sd	a4,104(a5)
	.loc 1 114 34
	lla	a5,HBufferImageBackupVar
	la	a4,HMemImageBackupVar
	sd	a4,112(a5)
	.loc 1 116 12
	call	HFileImageInit@plt
	sd	a0,-24(s0)
	.loc 1 117 34
	ld	a5,-24(s0)
	.loc 1 117 6
	bge	a5,zero,.L4
	.loc 1 118 12
	li	a5,-1
	slli	a5,a5,63
	addi	a5,a5,1
	j	.L3
.L4:
	.loc 1 121 12
	call	HDiskImageInit@plt
	sd	a0,-24(s0)
	.loc 1 122 34
	ld	a5,-24(s0)
	.loc 1 122 6
	bge	a5,zero,.L5
	.loc 1 123 12
	li	a5,-1
	slli	a5,a5,63
	addi	a5,a5,1
	j	.L3
.L5:
	.loc 1 126 12
	call	HMemImageInit@plt
	sd	a0,-24(s0)
	.loc 1 127 34
	ld	a5,-24(s0)
	.loc 1 127 6
	bge	a5,zero,.L6
	.loc 1 128 12
	li	a5,-1
	slli	a5,a5,63
	addi	a5,a5,1
	j	.L3
.L6:
	.loc 1 131 10
	li	a5,0
.L3:
	.loc 1 132 1
	mv	a0,a5
	ld	ra,24(sp)
	.cfi_restore 1
	ld	s0,16(sp)
	.cfi_restore 8
	.cfi_def_cfa 2, 32
	addi	sp,sp,32
	.cfi_def_cfa_offset 0
	jr	ra
	.cfi_endproc
.LFE0:
	.size	HBufferImageInit, .-HBufferImageInit
	.section	.text.HBufferImageBackup,"ax",@progbits
	.align	1
	.globl	HBufferImageBackup
	.type	HBufferImageBackup, @function
HBufferImageBackup:
.LFB1:
	.loc 1 144 1
	.cfi_startproc
	addi	sp,sp,-16
	.cfi_def_cfa_offset 16
	sd	ra,8(sp)
	sd	s0,0(sp)
	.cfi_offset 1, -8
	.cfi_offset 8, -16
	addi	s0,sp,16
	.cfi_def_cfa 8, 0
	.loc 1 145 39
	lla	a5,HBufferImageBackupVar
	lla	a4,HBufferImage
	ld	a3,48(a4)
	sd	a3,48(a5)
	ld	a4,56(a4)
	sd	a4,56(a5)
	.loc 1 147 40
	lla	a5,HBufferImageBackupVar
	lla	a4,HBufferImage
	ld	a3,64(a4)
	sd	a3,64(a5)
	ld	a4,72(a4)
	sd	a4,72(a5)
	.loc 1 149 48
	lla	a5,HBufferImage
	lbu	a4,89(a5)
	.loc 1 149 34
	lla	a5,HBufferImageBackupVar
	sb	a4,89(a5)
	.loc 1 151 50
	lla	a5,HBufferImage
	lw	a4,92(a5)
	.loc 1 151 36
	lla	a5,HBufferImageBackupVar
	sw	a4,92(a5)
	.loc 1 152 53
	lla	a5,HBufferImage
	ld	a4,80(a5)
	.loc 1 152 39
	lla	a5,HBufferImageBackupVar
	sd	a4,80(a5)
	.loc 1 153 48
	lla	a5,HBufferImage
	lbu	a4,88(a5)
	.loc 1 153 34
	lla	a5,HBufferImageBackupVar
	sb	a4,88(a5)
	.loc 1 161 23
	lla	a5,HBufferImage
	lw	a5,92(a5)
	.loc 1 161 3
	li	a4,5
	beq	a5,a4,.L8
	li	a4,5
	bgtu	a5,a4,.L14
	li	a4,3
	beq	a5,a4,.L10
	li	a4,4
	beq	a5,a4,.L11
	.loc 1 175 7
	j	.L14
.L8:
	.loc 1 163 7
	call	HFileImageBackup@plt
	.loc 1 164 7
	j	.L12
.L10:
	.loc 1 167 7
	call	HDiskImageBackup@plt
	.loc 1 168 7
	j	.L12
.L11:
	.loc 1 171 7
	call	HMemImageBackup@plt
	.loc 1 172 7
	j	.L12
.L14:
	.loc 1 175 7
	nop
.L12:
	.loc 1 178 10
	li	a5,0
	.loc 1 179 1
	mv	a0,a5
	ld	ra,8(sp)
	.cfi_restore 1
	ld	s0,0(sp)
	.cfi_restore 8
	.cfi_def_cfa 2, 16
	addi	sp,sp,16
	.cfi_def_cfa_offset 0
	jr	ra
	.cfi_endproc
.LFE1:
	.size	HBufferImageBackup, .-HBufferImageBackup
	.section	.text.HBufferImageFreeLines,"ax",@progbits
	.align	1
	.globl	HBufferImageFreeLines
	.type	HBufferImageFreeLines, @function
HBufferImageFreeLines:
.LFB2:
	.loc 1 195 1
	.cfi_startproc
	addi	sp,sp,-16
	.cfi_def_cfa_offset 16
	sd	ra,8(sp)
	sd	s0,0(sp)
	.cfi_offset 1, -8
	.cfi_offset 8, -16
	addi	s0,sp,16
	.cfi_def_cfa 8, 0
	.loc 1 196 3
	lla	a5,HBufferImage
	ld	a4,0(a5)
	lla	a5,HBufferImage
	ld	a5,8(a5)
	mv	a1,a5
	mv	a0,a4
	call	HFreeLines@plt
	.loc 1 198 22
	lla	a5,HBufferImage
	sd	zero,8(a5)
	.loc 1 199 28
	lla	a5,HBufferImage
	sd	zero,24(a5)
	.loc 1 200 25
	lla	a5,HBufferImage
	sd	zero,16(a5)
	.loc 1 202 10
	li	a5,0
	.loc 1 203 1
	mv	a0,a5
	ld	ra,8(sp)
	.cfi_restore 1
	ld	s0,0(sp)
	.cfi_restore 8
	.cfi_def_cfa 2, 16
	addi	sp,sp,16
	.cfi_def_cfa_offset 0
	jr	ra
	.cfi_endproc
.LFE2:
	.size	HBufferImageFreeLines, .-HBufferImageFreeLines
	.section	.text.HBufferImageCleanup,"ax",@progbits
	.align	1
	.globl	HBufferImageCleanup
	.type	HBufferImageCleanup, @function
HBufferImageCleanup:
.LFB3:
	.loc 1 214 1
	.cfi_startproc
	addi	sp,sp,-32
	.cfi_def_cfa_offset 32
	sd	ra,24(sp)
	sd	s0,16(sp)
	.cfi_offset 1, -8
	.cfi_offset 8, -16
	addi	s0,sp,32
	.cfi_def_cfa 8, 0
	.loc 1 220 12
	call	HBufferImageFreeLines
	sd	a0,-24(s0)
	.loc 1 222 25
	lla	a5,HBufferImage
	ld	a5,0(a5)
	.loc 1 222 11
	beq	a5,zero,.L18
	.loc 1 222 77 discriminator 1
	lla	a5,HBufferImage
	ld	a5,0(a5)
	.loc 1 222 55 discriminator 1
	mv	a0,a5
	call	FreePool@plt
	.loc 1 222 114 discriminator 2
	lla	a5,HBufferImage
	sd	zero,0(a5)
.L18:
	.loc 1 223 25
	lla	a5,HBufferImage
	sd	zero,0(a5)
	.loc 1 225 3
	call	HFileImageCleanup@plt
	.loc 1 226 3
	call	HDiskImageCleanup@plt
	.loc 1 228 10
	ld	a5,-24(s0)
	.loc 1 229 1
	mv	a0,a5
	ld	ra,24(sp)
	.cfi_restore 1
	ld	s0,16(sp)
	.cfi_restore 8
	.cfi_def_cfa 2, 32
	addi	sp,sp,32
	.cfi_def_cfa_offset 0
	jr	ra
	.cfi_endproc
.LFE3:
	.size	HBufferImageCleanup, .-HBufferImageCleanup
	.section	.rodata
	.align	3
.LC0:
	.string	"%"
	.string	"8"
	.string	"X"
	.string	" "
	.zero	2
	.align	3
.LC1:
	.string	"0"
	.zero	2
	.align	3
.LC2:
	.string	"%"
	.string	"x"
	.string	" "
	.zero	2
	.align	3
.LC3:
	.string	"%"
	.string	"x"
	.string	" "
	.string	" "
	.zero	2
	.align	3
.LC4:
	.string	" "
	.string	" "
	.string	" "
	.string	" "
	.zero	2
	.align	3
.LC5:
	.string	" "
	.string	" "
	.string	" "
	.zero	2
	.align	3
.LC6:
	.string	"%"
	.string	"c"
	.zero	2
	.align	3
.LC7:
	.string	" "
	.zero	2
	.align	3
.LC8:
	.string	" "
	.string	" "
	.zero	2
	.section	.text.HBufferImagePrintLine,"ax",@progbits
	.align	1
	.globl	HBufferImagePrintLine
	.type	HBufferImagePrintLine, @function
HBufferImagePrintLine:
.LFB4:
	.loc 1 251 1
	.cfi_startproc
	addi	sp,sp,-128
	.cfi_def_cfa_offset 128
	sd	ra,120(sp)
	sd	s0,112(sp)
	.cfi_offset 1, -8
	.cfi_offset 8, -16
	addi	s0,sp,128
	.cfi_def_cfa 8, 0
	sd	a0,-88(s0)
	sd	a1,-96(s0)
	sd	a2,-104(s0)
	sd	a3,-112(s0)
	sd	a4,-120(s0)
	.loc 1 264 12
	sd	zero,-48(s0)
	.loc 1 265 10
	sd	zero,-56(s0)
	.loc 1 266 12
	sb	zero,-33(s0)
	.loc 1 271 19
	la	a5,HMainEditor
	ld	a5,64(a5)
	.loc 1 271 6
	beq	a5,zero,.L21
	.loc 1 271 53 discriminator 1
	la	a5,HMainEditor
	ld	a5,72(a5)
	.loc 1 271 38 discriminator 1
	beq	a5,zero,.L21
	.loc 1 272 28
	la	a5,HMainEditor
	ld	a5,64(a5)
	.loc 1 272 41
	addi	a5,a5,-1
	.loc 1 272 46
	srli	a5,a5,4
	.loc 1 272 14
	addi	a5,a5,1
	sd	a5,-64(s0)
	.loc 1 273 26
	la	a5,HMainEditor
	ld	a5,72(a5)
	.loc 1 273 37
	addi	a5,a5,-1
	.loc 1 273 42
	srli	a5,a5,4
	.loc 1 273 12
	addi	a5,a5,1
	sd	a5,-72(s0)
	.loc 1 275 28
	la	a5,HMainEditor
	ld	a5,64(a5)
	.loc 1 275 41
	addi	a5,a5,-1
	.loc 1 275 46
	andi	a5,a5,15
	.loc 1 275 14
	addi	a5,a5,1
	sd	a5,-48(s0)
	.loc 1 276 26
	la	a5,HMainEditor
	ld	a5,72(a5)
	.loc 1 276 37
	addi	a5,a5,-1
	.loc 1 276 42
	andi	a5,a5,15
	.loc 1 276 12
	addi	a5,a5,1
	sd	a5,-56(s0)
	.loc 1 278 8
	ld	a4,-104(s0)
	ld	a5,-64(s0)
	bltu	a4,a5,.L22
	.loc 1 278 28 discriminator 1
	ld	a4,-104(s0)
	ld	a5,-72(s0)
	bgtu	a4,a5,.L22
	.loc 1 279 16
	li	a5,1
	sb	a5,-33(s0)
.L22:
	.loc 1 282 8
	ld	a4,-104(s0)
	ld	a5,-64(s0)
	bleu	a4,a5,.L23
	.loc 1 283 16
	li	a5,1
	sd	a5,-48(s0)
.L23:
	.loc 1 286 8
	ld	a4,-104(s0)
	ld	a5,-72(s0)
	bgeu	a4,a5,.L21
	.loc 1 287 14
	li	a5,16
	sd	a5,-56(s0)
.L21:
	.loc 1 291 7
	la	a5,HEditorMouseAction
	lbu	a5,0(a5)
	.loc 1 291 6
	bne	a5,zero,.L24
	.loc 1 294 7
	ld	a5,-96(s0)
	sext.w	a5,a5
	.loc 1 294 18
	addiw	a5,a5,-1
	sext.w	a4,a5
	.loc 1 296 8
	ld	a5,-96(s0)
	sext.w	a5,a5
	.loc 1 296 19
	addiw	a5,a5,-2
	sext.w	a5,a5
	mv	a3,a5
	.loc 1 296 37
	lla	a5,HBufferImage
	ld	a5,80(a5)
	.loc 1 296 23
	add	a5,a3,a5
	.loc 1 296 52
	addi	a5,a5,-1
	.loc 1 292 5
	slli	a5,a5,4
	mv	a3,a5
	lla	a2,.LC0
	mv	a1,a4
	li	a0,0
	call	ShellPrintEx@plt
.L24:
	.loc 1 300 14
	sd	zero,-24(s0)
	.loc 1 300 3
	j	.L25
.L33:
	.loc 1 301 16
	sb	zero,-34(s0)
	.loc 1 303 8
	lbu	a5,-33(s0)
	andi	a5,a5,0xff
	beq	a5,zero,.L26
	.loc 1 304 18
	ld	a5,-24(s0)
	addi	a5,a5,1
	.loc 1 304 10
	ld	a4,-48(s0)
	bgtu	a4,a5,.L26
	.loc 1 304 45 discriminator 1
	ld	a5,-24(s0)
	addi	a5,a5,1
	.loc 1 304 35 discriminator 1
	ld	a4,-56(s0)
	bltu	a4,a5,.L26
	.loc 1 305 20
	li	a5,1
	sb	a5,-34(s0)
.L26:
	.loc 1 309 8
	lbu	a5,-34(s0)
	andi	a5,a5,0xff
	beq	a5,zero,.L27
	.loc 1 310 10
	la	a5,gST
	ld	a5,0(a5)
	ld	a5,64(a5)
	.loc 1 310 18
	ld	a5,40(a5)
	.loc 1 310 37
	la	a4,gST
	ld	a4,0(a4)
	.loc 1 310 7
	ld	a3,64(a4)
	.loc 1 310 50
	ld	a4,-120(s0)
	.loc 1 310 7
	andi	a4,a4,127
	mv	a1,a4
	mv	a0,a3
	jalr	a5
.LVL0:
	j	.L28
.L27:
	.loc 1 312 10
	la	a5,gST
	ld	a5,0(a5)
	ld	a5,64(a5)
	.loc 1 312 18
	ld	a5,40(a5)
	.loc 1 312 37
	la	a4,gST
	ld	a4,0(a4)
	.loc 1 312 7
	ld	a3,64(a4)
	.loc 1 312 51
	ld	a4,-112(s0)
	.loc 1 312 7
	andi	a4,a4,127
	mv	a1,a4
	mv	a0,a3
	jalr	a5
.LVL1:
.L28:
	.loc 1 315 23
	ld	a4,-24(s0)
	mv	a5,a4
	slli	a5,a5,1
	add	a5,a5,a4
	.loc 1 315 9
	addi	a5,a5,10
	sd	a5,-32(s0)
	.loc 1 316 21
	ld	a4,-88(s0)
	ld	a5,-24(s0)
	add	a5,a4,a5
	lbu	a5,8(a5)
	.loc 1 316 8
	mv	a4,a5
	li	a5,15
	bgtu	a4,a5,.L29
	.loc 1 317 21
	ld	a5,-32(s0)
	sext.w	a5,a5
	.loc 1 317 32
	addiw	a5,a5,-1
	sext.w	a4,a5
	.loc 1 317 37
	ld	a5,-96(s0)
	sext.w	a5,a5
	.loc 1 317 48
	addiw	a5,a5,-1
	sext.w	a5,a5
	.loc 1 317 7
	lla	a2,.LC1
	mv	a1,a5
	mv	a0,a4
	call	ShellPrintEx@plt
	.loc 1 318 10
	ld	a5,-32(s0)
	addi	a5,a5,1
	sd	a5,-32(s0)
.L29:
	.loc 1 321 8
	ld	a4,-24(s0)
	li	a5,6
	bgtu	a4,a5,.L30
	.loc 1 322 21
	ld	a5,-32(s0)
	sext.w	a5,a5
	.loc 1 322 32
	addiw	a5,a5,-1
	sext.w	a0,a5
	.loc 1 322 37
	ld	a5,-96(s0)
	sext.w	a5,a5
	.loc 1 322 48
	addiw	a5,a5,-1
	sext.w	a1,a5
	.loc 1 322 73
	ld	a4,-88(s0)
	ld	a5,-24(s0)
	add	a5,a4,a5
	lbu	a5,8(a5)
	.loc 1 322 7
	sext.w	a5,a5
	mv	a3,a5
	lla	a2,.LC2
	call	ShellPrintEx@plt
	j	.L31
.L30:
	.loc 1 324 21
	ld	a5,-32(s0)
	sext.w	a5,a5
	.loc 1 324 32
	addiw	a5,a5,-1
	sext.w	a0,a5
	.loc 1 324 37
	ld	a5,-96(s0)
	sext.w	a5,a5
	.loc 1 324 48
	addiw	a5,a5,-1
	sext.w	a1,a5
	.loc 1 324 74
	ld	a4,-88(s0)
	ld	a5,-24(s0)
	add	a5,a4,a5
	lbu	a5,8(a5)
	.loc 1 324 7
	sext.w	a5,a5
	mv	a3,a5
	lla	a2,.LC3
	call	ShellPrintEx@plt
.L31:
	.loc 1 300 60 discriminator 2
	ld	a5,-24(s0)
	addi	a5,a5,1
	sd	a5,-24(s0)
.L25:
	.loc 1 300 32 discriminator 1
	ld	a4,-24(s0)
	li	a5,7
	bgtu	a4,a5,.L32
	.loc 1 300 47 discriminator 3
	ld	a5,-88(s0)
	ld	a5,24(a5)
	.loc 1 300 32 discriminator 3
	ld	a4,-24(s0)
	bltu	a4,a5,.L33
.L32:
	.loc 1 328 6
	la	a5,gST
	ld	a5,0(a5)
	ld	a5,64(a5)
	.loc 1 328 14
	ld	a5,40(a5)
	.loc 1 328 33
	la	a4,gST
	ld	a4,0(a4)
	.loc 1 328 3
	ld	a3,64(a4)
	.loc 1 328 47
	ld	a4,-112(s0)
	.loc 1 328 3
	andi	a4,a4,127
	mv	a1,a4
	mv	a0,a3
	jalr	a5
.LVL2:
	.loc 1 329 9
	j	.L34
.L35:
	.loc 1 330 23
	ld	a4,-24(s0)
	mv	a5,a4
	slli	a5,a5,1
	add	a5,a5,a4
	.loc 1 330 9
	addi	a5,a5,10
	sd	a5,-32(s0)
	.loc 1 331 19
	ld	a5,-32(s0)
	sext.w	a5,a5
	.loc 1 331 30
	addiw	a5,a5,-1
	sext.w	a4,a5
	.loc 1 331 35
	ld	a5,-96(s0)
	sext.w	a5,a5
	.loc 1 331 46
	addiw	a5,a5,-1
	sext.w	a5,a5
	.loc 1 331 5
	lla	a2,.LC4
	mv	a1,a5
	mv	a0,a4
	call	ShellPrintEx@plt
	.loc 1 332 10
	ld	a5,-24(s0)
	addi	a5,a5,1
	sd	a5,-24(s0)
.L34:
	.loc 1 329 16
	ld	a4,-24(s0)
	li	a5,7
	bleu	a4,a5,.L35
	.loc 1 335 9
	j	.L36
.L42:
	.loc 1 336 16
	sb	zero,-34(s0)
	.loc 1 338 8
	lbu	a5,-33(s0)
	andi	a5,a5,0xff
	beq	a5,zero,.L37
	.loc 1 339 18
	ld	a5,-24(s0)
	addi	a5,a5,1
	.loc 1 339 10
	ld	a4,-48(s0)
	bgtu	a4,a5,.L37
	.loc 1 339 45 discriminator 1
	ld	a5,-24(s0)
	addi	a5,a5,1
	.loc 1 339 35 discriminator 1
	ld	a4,-56(s0)
	bltu	a4,a5,.L37
	.loc 1 340 20
	li	a5,1
	sb	a5,-34(s0)
.L37:
	.loc 1 344 8
	lbu	a5,-34(s0)
	andi	a5,a5,0xff
	beq	a5,zero,.L38
	.loc 1 345 10
	la	a5,gST
	ld	a5,0(a5)
	ld	a5,64(a5)
	.loc 1 345 18
	ld	a5,40(a5)
	.loc 1 345 37
	la	a4,gST
	ld	a4,0(a4)
	.loc 1 345 7
	ld	a3,64(a4)
	.loc 1 345 50
	ld	a4,-120(s0)
	.loc 1 345 7
	andi	a4,a4,127
	mv	a1,a4
	mv	a0,a3
	jalr	a5
.LVL3:
	j	.L39
.L38:
	.loc 1 347 10
	la	a5,gST
	ld	a5,0(a5)
	ld	a5,64(a5)
	.loc 1 347 18
	ld	a5,40(a5)
	.loc 1 347 37
	la	a4,gST
	ld	a4,0(a4)
	.loc 1 347 7
	ld	a3,64(a4)
	.loc 1 347 51
	ld	a4,-112(s0)
	.loc 1 347 7
	andi	a4,a4,127
	mv	a1,a4
	mv	a0,a3
	jalr	a5
.LVL4:
.L39:
	.loc 1 350 23
	ld	a4,-24(s0)
	mv	a5,a4
	slli	a5,a5,1
	add	a5,a5,a4
	.loc 1 350 9
	addi	a5,a5,11
	sd	a5,-32(s0)
	.loc 1 351 21
	ld	a4,-88(s0)
	ld	a5,-24(s0)
	add	a5,a4,a5
	lbu	a5,8(a5)
	.loc 1 351 8
	mv	a4,a5
	li	a5,15
	bgtu	a4,a5,.L40
	.loc 1 352 21
	ld	a5,-32(s0)
	sext.w	a5,a5
	.loc 1 352 32
	addiw	a5,a5,-1
	sext.w	a4,a5
	.loc 1 352 37
	ld	a5,-96(s0)
	sext.w	a5,a5
	.loc 1 352 48
	addiw	a5,a5,-1
	sext.w	a5,a5
	.loc 1 352 7
	lla	a2,.LC1
	mv	a1,a5
	mv	a0,a4
	call	ShellPrintEx@plt
	.loc 1 353 10
	ld	a5,-32(s0)
	addi	a5,a5,1
	sd	a5,-32(s0)
.L40:
	.loc 1 356 19
	ld	a5,-32(s0)
	sext.w	a5,a5
	.loc 1 356 30
	addiw	a5,a5,-1
	sext.w	a0,a5
	.loc 1 356 35
	ld	a5,-96(s0)
	sext.w	a5,a5
	.loc 1 356 46
	addiw	a5,a5,-1
	sext.w	a1,a5
	.loc 1 356 71
	ld	a4,-88(s0)
	ld	a5,-24(s0)
	add	a5,a4,a5
	lbu	a5,8(a5)
	.loc 1 356 5
	sext.w	a5,a5
	mv	a3,a5
	lla	a2,.LC2
	call	ShellPrintEx@plt
	.loc 1 357 10
	ld	a5,-24(s0)
	addi	a5,a5,1
	sd	a5,-24(s0)
.L36:
	.loc 1 335 23
	ld	a4,-24(s0)
	li	a5,15
	bgtu	a4,a5,.L41
	.loc 1 335 38 discriminator 1
	ld	a5,-88(s0)
	ld	a5,24(a5)
	.loc 1 335 23 discriminator 1
	ld	a4,-24(s0)
	bltu	a4,a5,.L42
.L41:
	.loc 1 360 6
	la	a5,gST
	ld	a5,0(a5)
	ld	a5,64(a5)
	.loc 1 360 14
	ld	a5,40(a5)
	.loc 1 360 33
	la	a4,gST
	ld	a4,0(a4)
	.loc 1 360 3
	ld	a3,64(a4)
	.loc 1 360 47
	ld	a4,-112(s0)
	.loc 1 360 3
	andi	a4,a4,127
	mv	a1,a4
	mv	a0,a3
	jalr	a5
.LVL5:
	.loc 1 361 9
	j	.L43
.L44:
	.loc 1 362 23
	ld	a4,-24(s0)
	mv	a5,a4
	slli	a5,a5,1
	add	a5,a5,a4
	.loc 1 362 9
	addi	a5,a5,11
	sd	a5,-32(s0)
	.loc 1 363 19
	ld	a5,-32(s0)
	sext.w	a5,a5
	.loc 1 363 30
	addiw	a5,a5,-1
	sext.w	a4,a5
	.loc 1 363 35
	ld	a5,-96(s0)
	sext.w	a5,a5
	.loc 1 363 46
	addiw	a5,a5,-1
	sext.w	a5,a5
	.loc 1 363 5
	lla	a2,.LC5
	mv	a1,a5
	mv	a0,a4
	call	ShellPrintEx@plt
	.loc 1 364 10
	ld	a5,-24(s0)
	addi	a5,a5,1
	sd	a5,-24(s0)
.L43:
	.loc 1 361 16
	ld	a4,-24(s0)
	li	a5,15
	bleu	a4,a5,.L44
	.loc 1 370 6
	la	a5,gST
	ld	a5,0(a5)
	ld	a5,64(a5)
	.loc 1 370 14
	ld	a5,40(a5)
	.loc 1 370 33
	la	a4,gST
	ld	a4,0(a4)
	.loc 1 370 3
	ld	a3,64(a4)
	.loc 1 370 47
	ld	a4,-112(s0)
	.loc 1 370 3
	andi	a4,a4,127
	mv	a1,a4
	mv	a0,a3
	jalr	a5
.LVL6:
	.loc 1 375 7
	la	a5,HEditorMouseAction
	lbu	a5,0(a5)
	.loc 1 375 6
	bne	a5,zero,.L45
	.loc 1 376 16
	sd	zero,-24(s0)
	.loc 1 376 5
	j	.L46
.L50:
	.loc 1 377 11
	ld	a5,-24(s0)
	addi	a5,a5,60
	sd	a5,-32(s0)
	.loc 1 382 23
	ld	a4,-88(s0)
	ld	a5,-24(s0)
	add	a5,a4,a5
	lbu	a5,8(a5)
	.loc 1 382 10
	mv	a4,a5
	li	a5,31
	bleu	a4,a5,.L47
	.loc 1 383 23
	ld	a5,-32(s0)
	sext.w	a5,a5
	.loc 1 383 34
	addiw	a5,a5,-1
	sext.w	a0,a5
	.loc 1 383 39
	ld	a5,-96(s0)
	sext.w	a5,a5
	.loc 1 383 50
	addiw	a5,a5,-1
	sext.w	a1,a5
	.loc 1 383 82
	ld	a4,-88(s0)
	ld	a5,-24(s0)
	add	a5,a4,a5
	lbu	a5,8(a5)
	.loc 1 383 9
	sext.w	a5,a5
	mv	a3,a5
	lla	a2,.LC6
	call	ShellPrintEx@plt
	j	.L48
.L47:
	.loc 1 385 23
	ld	a5,-32(s0)
	sext.w	a5,a5
	.loc 1 385 34
	addiw	a5,a5,-1
	sext.w	a4,a5
	.loc 1 385 39
	ld	a5,-96(s0)
	sext.w	a5,a5
	.loc 1 385 50
	addiw	a5,a5,-1
	sext.w	a5,a5
	.loc 1 385 9
	li	a3,46
	lla	a2,.LC6
	mv	a1,a5
	mv	a0,a4
	call	ShellPrintEx@plt
.L48:
	.loc 1 376 62 discriminator 2
	ld	a5,-24(s0)
	addi	a5,a5,1
	sd	a5,-24(s0)
.L46:
	.loc 1 376 34 discriminator 1
	ld	a4,-24(s0)
	li	a5,15
	bgtu	a4,a5,.L51
	.loc 1 376 49 discriminator 3
	ld	a5,-88(s0)
	ld	a5,24(a5)
	.loc 1 376 34 discriminator 3
	ld	a4,-24(s0)
	bltu	a4,a5,.L50
	.loc 1 389 11
	j	.L51
.L52:
	.loc 1 390 11
	ld	a5,-24(s0)
	addi	a5,a5,60
	sd	a5,-32(s0)
	.loc 1 391 21
	ld	a5,-32(s0)
	sext.w	a5,a5
	.loc 1 391 32
	addiw	a5,a5,-1
	sext.w	a4,a5
	.loc 1 391 37
	ld	a5,-96(s0)
	sext.w	a5,a5
	.loc 1 391 48
	addiw	a5,a5,-1
	sext.w	a5,a5
	.loc 1 391 7
	lla	a2,.LC7
	mv	a1,a5
	mv	a0,a4
	call	ShellPrintEx@plt
	.loc 1 392 12
	ld	a5,-24(s0)
	addi	a5,a5,1
	sd	a5,-24(s0)
.L51:
	.loc 1 389 18
	ld	a4,-24(s0)
	li	a5,15
	bleu	a4,a5,.L52
.L45:
	.loc 1 399 6
	lbu	a5,-33(s0)
	andi	a5,a5,0xff
	beq	a5,zero,.L53
	.loc 1 400 8
	ld	a4,-56(s0)
	li	a5,7
	bgtu	a4,a5,.L54
	.loc 1 401 16
	ld	a4,-56(s0)
	mv	a5,a4
	slli	a5,a5,1
	add	a5,a5,a4
	.loc 1 401 11
	addi	a5,a5,9
	sd	a5,-32(s0)
	.loc 1 402 21
	ld	a5,-32(s0)
	sext.w	a5,a5
	.loc 1 402 32
	addiw	a5,a5,-1
	sext.w	a4,a5
	.loc 1 402 37
	ld	a5,-96(s0)
	sext.w	a5,a5
	.loc 1 402 48
	addiw	a5,a5,-1
	sext.w	a5,a5
	.loc 1 402 7
	lla	a2,.LC7
	mv	a1,a5
	mv	a0,a4
	call	ShellPrintEx@plt
	j	.L53
.L54:
	.loc 1 403 15
	ld	a4,-56(s0)
	li	a5,8
	bne	a4,a5,.L55
	.loc 1 404 16
	ld	a4,-56(s0)
	mv	a5,a4
	slli	a5,a5,1
	add	a5,a5,a4
	.loc 1 404 11
	addi	a5,a5,9
	sd	a5,-32(s0)
	.loc 1 405 21
	ld	a5,-32(s0)
	sext.w	a5,a5
	.loc 1 405 32
	addiw	a5,a5,-1
	sext.w	a4,a5
	.loc 1 405 37
	ld	a5,-96(s0)
	sext.w	a5,a5
	.loc 1 405 48
	addiw	a5,a5,-1
	sext.w	a5,a5
	.loc 1 405 7
	lla	a2,.LC8
	mv	a1,a5
	mv	a0,a4
	call	ShellPrintEx@plt
	j	.L53
.L55:
	.loc 1 407 16
	ld	a4,-56(s0)
	mv	a5,a4
	slli	a5,a5,1
	add	a5,a5,a4
	.loc 1 407 11
	addi	a5,a5,10
	sd	a5,-32(s0)
	.loc 1 408 21
	ld	a5,-32(s0)
	sext.w	a5,a5
	.loc 1 408 32
	addiw	a5,a5,-1
	sext.w	a4,a5
	.loc 1 408 37
	ld	a5,-96(s0)
	sext.w	a5,a5
	.loc 1 408 48
	addiw	a5,a5,-1
	sext.w	a5,a5
	.loc 1 408 7
	lla	a2,.LC7
	mv	a1,a5
	mv	a0,a4
	call	ShellPrintEx@plt
.L53:
	.loc 1 412 10
	li	a5,0
	.loc 1 413 1
	mv	a0,a5
	ld	ra,120(sp)
	.cfi_restore 1
	ld	s0,112(sp)
	.cfi_restore 8
	.cfi_def_cfa 2, 128
	addi	sp,sp,128
	.cfi_def_cfa_offset 0
	jr	ra
	.cfi_endproc
.LFE4:
	.size	HBufferImagePrintLine, .-HBufferImagePrintLine
	.section	.text.HBufferImageIsAtHighBits,"ax",@progbits
	.align	1
	.globl	HBufferImageIsAtHighBits
	.type	HBufferImageIsAtHighBits, @function
HBufferImageIsAtHighBits:
.LFB5:
	.loc 1 429 1
	.cfi_startproc
	addi	sp,sp,-32
	.cfi_def_cfa_offset 32
	sd	ra,24(sp)
	sd	s0,16(sp)
	.cfi_offset 1, -8
	.cfi_offset 8, -16
	addi	s0,sp,32
	.cfi_def_cfa 8, 0
	sd	a0,-24(s0)
	sd	a1,-32(s0)
	.loc 1 430 10
	ld	a5,-24(s0)
	addi	a5,a5,-10
	sd	a5,-24(s0)
	.loc 1 436 6
	ld	a4,-24(s0)
	li	a5,24
	bne	a4,a5,.L58
	.loc 1 437 11
	ld	a5,-32(s0)
	sd	zero,0(a5)
	.loc 1 438 12
	li	a5,0
	j	.L59
.L58:
	.loc 1 441 6
	ld	a4,-24(s0)
	li	a5,24
	bleu	a4,a5,.L60
	.loc 1 442 11
	ld	a5,-24(s0)
	addi	a5,a5,-1
	sd	a5,-24(s0)
.L60:
	.loc 1 445 19
	ld	a4,-24(s0)
	lla	a5,.LC9
	ld	a5,0(a5)
	mulhu	a5,a4,a5
	srli	a5,a5,1
	.loc 1 445 24
	addi	a4,a5,1
	.loc 1 445 9
	ld	a5,-32(s0)
	sd	a4,0(a5)
	.loc 1 447 14
	ld	a3,-24(s0)
	lla	a5,.LC9
	ld	a5,0(a5)
	mulhu	a5,a3,a5
	srli	a4,a5,1
	mv	a5,a4
	slli	a5,a5,1
	add	a5,a5,a4
	sub	a4,a3,a5
	.loc 1 447 6
	bne	a4,zero,.L61
	.loc 1 448 12
	li	a5,1
	j	.L59
.L61:
	.loc 1 451 15
	ld	a3,-24(s0)
	lla	a5,.LC9
	ld	a5,0(a5)
	mulhu	a5,a3,a5
	srli	a4,a5,1
	mv	a5,a4
	slli	a5,a5,1
	add	a5,a5,a4
	sub	a4,a3,a5
	.loc 1 451 6
	li	a5,2
	bne	a4,a5,.L62
	.loc 1 452 11
	ld	a5,-32(s0)
	sd	zero,0(a5)
.L62:
	.loc 1 455 10
	li	a5,0
.L59:
	.loc 1 456 1
	mv	a0,a5
	ld	ra,24(sp)
	.cfi_restore 1
	ld	s0,16(sp)
	.cfi_restore 8
	.cfi_def_cfa 2, 32
	addi	sp,sp,32
	.cfi_def_cfa_offset 0
	jr	ra
	.cfi_endproc
.LFE5:
	.size	HBufferImageIsAtHighBits, .-HBufferImageIsAtHighBits
	.section	.text.HBufferImageIsInSelectedArea,"ax",@progbits
	.align	1
	.globl	HBufferImageIsInSelectedArea
	.type	HBufferImageIsInSelectedArea, @function
HBufferImageIsInSelectedArea:
.LFB6:
	.loc 1 472 1
	.cfi_startproc
	addi	sp,sp,-96
	.cfi_def_cfa_offset 96
	sd	ra,88(sp)
	sd	s0,80(sp)
	.cfi_offset 1, -8
	.cfi_offset 8, -16
	addi	s0,sp,96
	.cfi_def_cfa 8, 0
	sd	a0,-88(s0)
	sd	a1,-96(s0)
	.loc 1 487 19
	la	a5,HMainEditor
	ld	a5,64(a5)
	.loc 1 487 6
	beq	a5,zero,.L64
	.loc 1 487 53 discriminator 1
	la	a5,HMainEditor
	ld	a5,72(a5)
	.loc 1 487 38 discriminator 1
	bne	a5,zero,.L65
.L64:
	.loc 1 488 12
	li	a5,0
	j	.L66
.L65:
	.loc 1 494 26
	la	a5,HMainEditor
	ld	a5,64(a5)
	.loc 1 494 39
	addi	a5,a5,-1
	.loc 1 494 44
	srli	a5,a5,4
	.loc 1 494 12
	addi	a5,a5,1
	sd	a5,-56(s0)
	.loc 1 495 24
	la	a5,HMainEditor
	ld	a5,72(a5)
	.loc 1 495 35
	addi	a5,a5,-1
	.loc 1 495 40
	srli	a5,a5,4
	.loc 1 495 10
	addi	a5,a5,1
	sd	a5,-64(s0)
	.loc 1 497 26
	la	a5,HMainEditor
	ld	a5,64(a5)
	.loc 1 497 39
	addi	a5,a5,-1
	.loc 1 497 44
	andi	a5,a5,15
	.loc 1 497 12
	addi	a5,a5,1
	sd	a5,-24(s0)
	.loc 1 498 24
	la	a5,HMainEditor
	ld	a5,72(a5)
	.loc 1 498 35
	addi	a5,a5,-1
	.loc 1 498 40
	andi	a5,a5,15
	.loc 1 498 10
	addi	a5,a5,1
	sd	a5,-32(s0)
	.loc 1 500 22
	lla	a5,HBufferImage
	ld	a4,80(a5)
	.loc 1 500 37
	ld	a5,-88(s0)
	add	a5,a4,a5
	.loc 1 500 8
	addi	a5,a5,-2
	sd	a5,-72(s0)
	.loc 1 501 6
	ld	a4,-72(s0)
	ld	a5,-56(s0)
	bltu	a4,a5,.L67
	.loc 1 501 25 discriminator 1
	ld	a4,-72(s0)
	ld	a5,-64(s0)
	bleu	a4,a5,.L68
.L67:
	.loc 1 502 12
	li	a5,0
	j	.L66
.L68:
	.loc 1 505 6
	ld	a4,-72(s0)
	ld	a5,-56(s0)
	bleu	a4,a5,.L69
	.loc 1 506 14
	li	a5,1
	sd	a5,-24(s0)
.L69:
	.loc 1 509 6
	ld	a4,-72(s0)
	ld	a5,-64(s0)
	bgeu	a4,a5,.L70
	.loc 1 510 12
	li	a5,16
	sd	a5,-32(s0)
.L70:
	.loc 1 513 22
	ld	a4,-24(s0)
	mv	a5,a4
	slli	a5,a5,1
	add	a5,a5,a4
	.loc 1 513 17
	addi	a5,a5,7
	sd	a5,-40(s0)
	.loc 1 514 6
	ld	a4,-24(s0)
	li	a5,8
	bleu	a4,a5,.L71
	.loc 1 515 18
	ld	a5,-40(s0)
	addi	a5,a5,1
	sd	a5,-40(s0)
.L71:
	.loc 1 518 20
	ld	a4,-32(s0)
	mv	a5,a4
	slli	a5,a5,1
	add	a5,a5,a4
	.loc 1 518 15
	addi	a5,a5,8
	sd	a5,-48(s0)
	.loc 1 519 6
	ld	a4,-32(s0)
	li	a5,8
	bleu	a4,a5,.L72
	.loc 1 520 16
	ld	a5,-48(s0)
	addi	a5,a5,1
	sd	a5,-48(s0)
.L72:
	.loc 1 523 6
	ld	a4,-96(s0)
	ld	a5,-40(s0)
	bltu	a4,a5,.L73
	.loc 1 523 34 discriminator 1
	ld	a4,-96(s0)
	ld	a5,-48(s0)
	bleu	a4,a5,.L74
.L73:
	.loc 1 524 12
	li	a5,0
	j	.L66
.L74:
	.loc 1 527 10
	li	a5,1
.L66:
	.loc 1 528 1
	mv	a0,a5
	ld	ra,88(sp)
	.cfi_restore 1
	ld	s0,80(sp)
	.cfi_restore 8
	.cfi_def_cfa 2, 96
	addi	sp,sp,96
	.cfi_def_cfa_offset 0
	jr	ra
	.cfi_endproc
.LFE6:
	.size	HBufferImageIsInSelectedArea, .-HBufferImageIsInSelectedArea
	.section	.rodata
	.align	3
.LC10:
	.string	"%"
	.string	"x"
	.zero	2
	.section	.text.HBufferImageRestoreMousePosition,"ax",@progbits
	.align	1
	.globl	HBufferImageRestoreMousePosition
	.type	HBufferImageRestoreMousePosition, @function
HBufferImageRestoreMousePosition:
.LFB7:
	.loc 1 539 1
	.cfi_startproc
	addi	sp,sp,-96
	.cfi_def_cfa_offset 96
	sd	ra,88(sp)
	sd	s0,80(sp)
	.cfi_offset 1, -8
	.cfi_offset 8, -16
	addi	s0,sp,96
	.cfi_def_cfa 8, 0
	.loc 1 550 8
	sd	zero,-32(s0)
	.loc 1 551 18
	la	a5,HMainEditor
	lbu	a5,40(a5)
	.loc 1 551 6
	beq	a5,zero,.L76
	.loc 1 552 9
	lla	a5,HBufferImageMouseNeedRefresh
	lbu	a5,0(a5)
	.loc 1 552 8
	beq	a5,zero,.L76
	.loc 1 553 36
	lla	a5,HBufferImageMouseNeedRefresh
	sb	zero,0(a5)
	.loc 1 560 39
	lla	a5,HBufferImage
	ld	a4,48(a5)
	.loc 1 560 82
	lla	a5,HBufferImageBackupVar
	ld	a5,48(a5)
	.loc 1 559 10
	bne	a4,a5,.L77
	.loc 1 561 39
	lla	a5,HBufferImage
	ld	a4,56(a5)
	.loc 1 561 85
	lla	a5,HBufferImageBackupVar
	ld	a5,56(a5)
	.loc 1 560 88
	bne	a4,a5,.L77
	.loc 1 562 14
	la	a5,HEditorMouseAction
	lbu	a5,0(a5)
	beq	a5,zero,.L77
	.loc 1 566 16
	li	a5,0
	j	.L99
.L77:
	.loc 1 572 12
	la	a5,HMainEditor
	ld	a5,8(a5)
	sd	a5,-72(s0)
	.loc 1 573 16
	sd	zero,-80(s0)
	.loc 1 574 42
	ld	a5,-72(s0)
	srli	a5,a5,4
	andi	a5,a5,15
	andi	a5,a5,0xff
	.loc 1 574 29
	andi	a5,a5,15
	lbu	a4,-80(s0)
	andi	a4,a4,-16
	or	a5,a4,a5
	sb	a5,-80(s0)
	.loc 1 575 42
	ld	a5,-72(s0)
	andi	a5,a5,15
	andi	a5,a5,0xff
	.loc 1 575 54
	andi	a5,a5,7
	andi	a5,a5,0xff
	.loc 1 575 29
	slliw	a5,a5,4
	mv	a3,a5
	lbu	a5,-80(s0)
	andi	a5,a5,15
	mv	a4,a5
	mv	a5,a3
	or	a5,a4,a5
	sb	a5,-80(s0)
	.loc 1 581 12
	lla	a5,HBufferImageBackupVar
	ld	a4,48(a5)
	lla	a5,HBufferImageBackupVar
	ld	a5,56(a5)
	mv	a1,a5
	mv	a0,a4
	call	HBufferImageIsInSelectedArea
	mv	a5,a0
	.loc 1 581 10 discriminator 1
	bne	a5,zero,.L79
	.loc 1 586 12
	la	a5,gST
	ld	a5,0(a5)
	ld	a5,64(a5)
	.loc 1 586 20
	ld	a5,40(a5)
	.loc 1 586 39
	la	a4,gST
	ld	a4,0(a4)
	.loc 1 586 9
	ld	a4,64(a4)
	ld	a3,-72(s0)
	mv	a1,a3
	mv	a0,a4
	jalr	a5
.LVL7:
	j	.L80
.L79:
	.loc 1 588 12
	la	a5,gST
	ld	a5,0(a5)
	ld	a5,64(a5)
	.loc 1 588 20
	ld	a5,40(a5)
	.loc 1 588 39
	la	a4,gST
	ld	a4,0(a4)
	.loc 1 588 9
	ld	a3,64(a4)
	.loc 1 588 52
	ld	a4,-80(s0)
	.loc 1 588 9
	andi	a4,a4,127
	mv	a1,a4
	mv	a0,a3
	jalr	a5
.LVL8:
.L80:
	.loc 1 594 26
	lla	a5,HBufferImage
	ld	a4,80(a5)
	.loc 1 594 78
	lla	a5,HBufferImageBackupVar
	ld	a5,48(a5)
	.loc 1 594 41
	add	a5,a4,a5
	.loc 1 594 12
	addi	a5,a5,-2
	sd	a5,-48(s0)
	.loc 1 596 18
	lla	a5,HBufferImageBackupVar
	ld	a5,56(a5)
	addi	a4,s0,-88
	mv	a1,a4
	mv	a0,a5
	call	HBufferImageIsAtHighBits
	mv	a5,a0
	sb	a5,-49(s0)
	.loc 1 601 20
	li	a5,1
	sb	a5,-17(s0)
	.loc 1 602 31
	lla	a5,HBufferImage
	ld	a5,16(a5)
	.loc 1 602 10
	ld	a4,-48(s0)
	bgtu	a4,a5,.L81
	.loc 1 602 54 discriminator 1
	ld	a5,-88(s0)
	.loc 1 602 42 discriminator 1
	bne	a5,zero,.L82
.L81:
	.loc 1 603 22
	sb	zero,-17(s0)
	j	.L83
.L82:
	.loc 1 605 21
	lla	a5,HBufferImage
	ld	a5,24(a5)
	sd	a5,-64(s0)
	.loc 1 606 61
	lla	a5,HBufferImage
	ld	a5,64(a5)
	.loc 1 606 32
	ld	a4,-48(s0)
	sub	a5,a4,a5
	.loc 1 606 16
	mv	a0,a5
	call	HMoveLine@plt
	sd	a0,-32(s0)
	.loc 1 608 12
	ld	a5,-32(s0)
	beq	a5,zero,.L84
	.loc 1 608 54 discriminator 1
	ld	a5,-32(s0)
	ld	a4,24(a5)
	.loc 1 608 48 discriminator 1
	ld	a5,-88(s0)
	.loc 1 608 36 discriminator 1
	bgeu	a4,a5,.L85
.L84:
	.loc 1 609 24
	sb	zero,-17(s0)
.L85:
	.loc 1 612 34
	lla	a5,HBufferImage
	ld	a4,-64(s0)
	sd	a4,24(a5)
.L83:
	.loc 1 616 51
	lla	a5,HBufferImageBackupVar
	ld	a5,56(a5)
	.loc 1 616 9
	sext.w	a5,a5
	.loc 1 616 59
	addiw	a5,a5,-1
	sext.w	a4,a5
	.loc 1 617 51
	lla	a5,HBufferImageBackupVar
	ld	a5,48(a5)
	.loc 1 617 9
	sext.w	a5,a5
	.loc 1 617 56
	addiw	a5,a5,-1
	sext.w	a5,a5
	.loc 1 615 7
	lla	a2,.LC7
	mv	a1,a5
	mv	a0,a4
	call	ShellPrintEx@plt
	.loc 1 621 10
	lbu	a5,-17(s0)
	andi	a5,a5,0xff
	beq	a5,zero,.L86
	.loc 1 622 12
	lbu	a5,-49(s0)
	andi	a5,a5,0xff
	beq	a5,zero,.L87
	.loc 1 623 48
	ld	a5,-88(s0)
	addi	a5,a5,-1
	.loc 1 623 39
	ld	a4,-32(s0)
	add	a5,a4,a5
	lbu	a5,8(a5)
	.loc 1 623 17
	andi	a5,a5,-16
	sb	a5,-33(s0)
	.loc 1 624 17
	lbu	a5,-33(s0)
	srliw	a5,a5,4
	sb	a5,-33(s0)
	j	.L88
.L87:
	.loc 1 626 48
	ld	a5,-88(s0)
	addi	a5,a5,-1
	.loc 1 626 39
	ld	a4,-32(s0)
	add	a5,a4,a5
	lbu	a5,8(a5)
	.loc 1 626 17
	andi	a5,a5,15
	sb	a5,-33(s0)
.L88:
	.loc 1 630 53
	lla	a5,HBufferImageBackupVar
	ld	a5,56(a5)
	.loc 1 630 11
	sext.w	a5,a5
	.loc 1 630 61
	addiw	a5,a5,-1
	sext.w	a4,a5
	.loc 1 631 53
	lla	a5,HBufferImageBackupVar
	ld	a5,48(a5)
	.loc 1 631 11
	sext.w	a5,a5
	.loc 1 631 58
	addiw	a5,a5,-1
	sext.w	a5,a5
	.loc 1 629 9
	lbu	a3,-33(s0)
	sext.w	a3,a3
	lla	a2,.LC10
	mv	a1,a5
	mv	a0,a4
	call	ShellPrintEx@plt
.L86:
	.loc 1 637 12
	lla	a5,HBufferImage
	ld	a4,48(a5)
	lla	a5,HBufferImage
	ld	a5,56(a5)
	mv	a1,a5
	mv	a0,a4
	call	HBufferImageIsInSelectedArea
	mv	a5,a0
	.loc 1 637 10 discriminator 1
	bne	a5,zero,.L89
	.loc 1 642 12
	la	a5,gST
	ld	a5,0(a5)
	ld	a5,64(a5)
	.loc 1 642 20
	ld	a5,40(a5)
	.loc 1 642 39
	la	a4,gST
	ld	a4,0(a4)
	.loc 1 642 9
	ld	a3,64(a4)
	.loc 1 642 52
	ld	a4,-80(s0)
	.loc 1 642 9
	andi	a4,a4,127
	mv	a1,a4
	mv	a0,a3
	jalr	a5
.LVL9:
	j	.L90
.L89:
	.loc 1 644 12
	la	a5,gST
	ld	a5,0(a5)
	ld	a5,64(a5)
	.loc 1 644 20
	ld	a5,40(a5)
	.loc 1 644 39
	la	a4,gST
	ld	a4,0(a4)
	.loc 1 644 9
	ld	a4,64(a4)
	ld	a3,-72(s0)
	mv	a1,a3
	mv	a0,a4
	jalr	a5
.LVL10:
.L90:
	.loc 1 650 26
	lla	a5,HBufferImage
	ld	a4,80(a5)
	.loc 1 650 69
	lla	a5,HBufferImage
	ld	a5,48(a5)
	.loc 1 650 41
	add	a5,a4,a5
	.loc 1 650 12
	addi	a5,a5,-2
	sd	a5,-48(s0)
	.loc 1 652 18
	lla	a5,HBufferImage
	ld	a5,56(a5)
	addi	a4,s0,-88
	mv	a1,a4
	mv	a0,a5
	call	HBufferImageIsAtHighBits
	mv	a5,a0
	sb	a5,-49(s0)
	.loc 1 657 20
	li	a5,1
	sb	a5,-17(s0)
	.loc 1 658 31
	lla	a5,HBufferImage
	ld	a5,16(a5)
	.loc 1 658 10
	ld	a4,-48(s0)
	bgtu	a4,a5,.L91
	.loc 1 658 54 discriminator 1
	ld	a5,-88(s0)
	.loc 1 658 42 discriminator 1
	bne	a5,zero,.L92
.L91:
	.loc 1 659 22
	sb	zero,-17(s0)
	j	.L93
.L92:
	.loc 1 661 21
	lla	a5,HBufferImage
	ld	a5,24(a5)
	sd	a5,-64(s0)
	.loc 1 662 61
	lla	a5,HBufferImage
	ld	a5,64(a5)
	.loc 1 662 32
	ld	a4,-48(s0)
	sub	a5,a4,a5
	.loc 1 662 16
	mv	a0,a5
	call	HMoveLine@plt
	sd	a0,-32(s0)
	.loc 1 664 12
	ld	a5,-32(s0)
	beq	a5,zero,.L94
	.loc 1 664 54 discriminator 1
	ld	a5,-32(s0)
	ld	a4,24(a5)
	.loc 1 664 48 discriminator 1
	ld	a5,-88(s0)
	.loc 1 664 36 discriminator 1
	bgeu	a4,a5,.L95
.L94:
	.loc 1 665 24
	sb	zero,-17(s0)
.L95:
	.loc 1 668 34
	lla	a5,HBufferImage
	ld	a4,-64(s0)
	sd	a4,24(a5)
.L93:
	.loc 1 672 42
	lla	a5,HBufferImage
	ld	a5,56(a5)
	.loc 1 672 9
	sext.w	a5,a5
	.loc 1 672 50
	addiw	a5,a5,-1
	sext.w	a4,a5
	.loc 1 673 42
	lla	a5,HBufferImage
	ld	a5,48(a5)
	.loc 1 673 9
	sext.w	a5,a5
	.loc 1 673 47
	addiw	a5,a5,-1
	sext.w	a5,a5
	.loc 1 671 7
	lla	a2,.LC7
	mv	a1,a5
	mv	a0,a4
	call	ShellPrintEx@plt
	.loc 1 677 10
	lbu	a5,-17(s0)
	andi	a5,a5,0xff
	beq	a5,zero,.L96
	.loc 1 678 12
	lbu	a5,-49(s0)
	andi	a5,a5,0xff
	beq	a5,zero,.L97
	.loc 1 679 48
	ld	a5,-88(s0)
	addi	a5,a5,-1
	.loc 1 679 39
	ld	a4,-32(s0)
	add	a5,a4,a5
	lbu	a5,8(a5)
	.loc 1 679 17
	andi	a5,a5,-16
	sb	a5,-33(s0)
	.loc 1 680 17
	lbu	a5,-33(s0)
	srliw	a5,a5,4
	sb	a5,-33(s0)
	j	.L98
.L97:
	.loc 1 682 48
	ld	a5,-88(s0)
	addi	a5,a5,-1
	.loc 1 682 39
	ld	a4,-32(s0)
	add	a5,a4,a5
	lbu	a5,8(a5)
	.loc 1 682 17
	andi	a5,a5,15
	sb	a5,-33(s0)
.L98:
	.loc 1 686 44
	lla	a5,HBufferImage
	ld	a5,56(a5)
	.loc 1 686 11
	sext.w	a5,a5
	.loc 1 686 52
	addiw	a5,a5,-1
	sext.w	a4,a5
	.loc 1 687 44
	lla	a5,HBufferImage
	ld	a5,48(a5)
	.loc 1 687 11
	sext.w	a5,a5
	.loc 1 687 49
	addiw	a5,a5,-1
	sext.w	a5,a5
	.loc 1 685 9
	lbu	a3,-33(s0)
	sext.w	a3,a3
	lla	a2,.LC10
	mv	a1,a5
	mv	a0,a4
	call	ShellPrintEx@plt
.L96:
	.loc 1 696 10
	la	a5,gST
	ld	a5,0(a5)
	ld	a5,64(a5)
	.loc 1 696 18
	ld	a5,40(a5)
	.loc 1 696 37
	la	a4,gST
	ld	a4,0(a4)
	.loc 1 696 7
	ld	a4,64(a4)
	ld	a3,-72(s0)
	mv	a1,a3
	mv	a0,a4
	jalr	a5
.LVL11:
.L76:
	.loc 1 707 10
	li	a5,0
.L99:
	.loc 1 708 1
	mv	a0,a5
	ld	ra,88(sp)
	.cfi_restore 1
	ld	s0,80(sp)
	.cfi_restore 8
	.cfi_def_cfa 2, 96
	addi	sp,sp,96
	.cfi_def_cfa_offset 0
	jr	ra
	.cfi_endproc
.LFE7:
	.size	HBufferImageRestoreMousePosition, .-HBufferImageRestoreMousePosition
	.section	.text.HBufferImageRestorePosition,"ax",@progbits
	.align	1
	.globl	HBufferImageRestorePosition
	.type	HBufferImageRestorePosition, @function
HBufferImageRestorePosition:
.LFB8:
	.loc 1 719 1
	.cfi_startproc
	addi	sp,sp,-16
	.cfi_def_cfa_offset 16
	sd	ra,8(sp)
	sd	s0,0(sp)
	.cfi_offset 1, -8
	.cfi_offset 8, -16
	addi	s0,sp,16
	.cfi_def_cfa 8, 0
	.loc 1 723 6
	la	a5,gST
	ld	a5,0(a5)
	ld	a5,64(a5)
	.loc 1 723 14
	ld	a5,56(a5)
	.loc 1 724 21
	la	a4,gST
	ld	a4,0(a4)
	.loc 1 723 3
	ld	a3,64(a4)
	.loc 1 725 46
	lla	a4,HBufferImage
	ld	a4,40(a4)
	.loc 1 723 3
	addi	a1,a4,-1
	.loc 1 726 46
	lla	a4,HBufferImage
	ld	a4,32(a4)
	.loc 1 723 3
	addi	a4,a4,-1
	mv	a2,a4
	mv	a0,a3
	jalr	a5
.LVL12:
	.loc 1 729 10
	li	a5,0
	.loc 1 730 1
	mv	a0,a5
	ld	ra,8(sp)
	.cfi_restore 1
	ld	s0,0(sp)
	.cfi_restore 8
	.cfi_def_cfa 2, 16
	addi	sp,sp,16
	.cfi_def_cfa_offset 0
	jr	ra
	.cfi_endproc
.LFE8:
	.size	HBufferImageRestorePosition, .-HBufferImageRestorePosition
	.section	.text.HBufferImageRefresh,"ax",@progbits
	.align	1
	.globl	HBufferImageRefresh
	.type	HBufferImageRefresh, @function
HBufferImageRefresh:
.LFB9:
	.loc 1 743 1
	.cfi_startproc
	addi	sp,sp,-96
	.cfi_def_cfa_offset 96
	sd	ra,88(sp)
	sd	s0,80(sp)
	.cfi_offset 1, -8
	.cfi_offset 8, -16
	addi	s0,sp,96
	.cfi_def_cfa 8, 0
	.loc 1 755 8
	la	a5,HMainEditor
	ld	a5,8(a5)
	sd	a5,-80(s0)
	.loc 1 756 12
	sd	zero,-88(s0)
	.loc 1 757 38
	ld	a5,-80(s0)
	srli	a5,a5,4
	andi	a5,a5,15
	andi	a5,a5,0xff
	.loc 1 757 25
	andi	a5,a5,15
	lbu	a4,-88(s0)
	andi	a4,a4,-16
	or	a5,a4,a5
	sb	a5,-88(s0)
	.loc 1 758 38
	ld	a5,-80(s0)
	andi	a5,a5,15
	andi	a5,a5,0xff
	.loc 1 758 25
	slliw	a5,a5,4
	mv	a3,a5
	lbu	a5,-88(s0)
	andi	a5,a5,15
	mv	a4,a5
	mv	a5,a3
	or	a5,a4,a5
	sb	a5,-88(s0)
	.loc 1 763 20
	la	a5,HEditorFirst
	lbu	a5,0(a5)
	.loc 1 763 6
	bne	a5,zero,.L103
	.loc 1 768 9
	lla	a5,HBufferImageNeedRefresh
	lbu	a5,0(a5)
	.loc 1 768 8
	bne	a5,zero,.L103
	.loc 1 769 9
	lla	a5,HBufferImageOnlyLineNeedRefresh
	lbu	a5,0(a5)
	.loc 1 768 34 discriminator 1
	bne	a5,zero,.L103
	.loc 1 770 31
	lla	a5,HBufferImageBackupVar
	ld	a4,80(a5)
	.loc 1 770 61
	lla	a5,HBufferImage
	ld	a5,80(a5)
	.loc 1 769 42
	bne	a4,a5,.L103
	.loc 1 773 7
	call	HBufferImageRestoreMousePosition
	.loc 1 774 7
	call	HBufferImageRestorePosition
	.loc 1 775 14
	li	a5,0
	j	.L124
.L103:
	.loc 1 779 6
	la	a5,gST
	ld	a5,0(a5)
	ld	a5,64(a5)
	.loc 1 779 14
	ld	a5,64(a5)
	.loc 1 779 33
	la	a4,gST
	ld	a4,0(a4)
	.loc 1 779 3
	ld	a4,64(a4)
	li	a1,0
	mv	a0,a4
	jalr	a5
.LVL13:
	.loc 1 784 7
	lla	a5,HBufferImageOnlyLineNeedRefresh
	lbu	a5,0(a5)
	.loc 1 784 6
	beq	a5,zero,.L105
	.loc 1 784 64 discriminator 1
	lla	a5,HBufferImageBackupVar
	ld	a4,80(a5)
	.loc 1 784 94 discriminator 1
	lla	a5,HBufferImage
	ld	a5,80(a5)
	.loc 1 784 39 discriminator 1
	bne	a4,a5,.L105
	.loc 1 785 5
	lla	a5,HBufferImage
	ld	a0,24(a5)
	lla	a5,HBufferImage
	ld	a1,32(a5)
	lla	a5,HBufferImage
	ld	a5,64(a5)
	ld	a4,-88(s0)
	ld	a3,-80(s0)
	mv	a2,a5
	call	HBufferImagePrintLine
	j	.L106
.L105:
	.loc 1 796 9
	la	a5,HEditorMouseAction
	lbu	a5,0(a5)
	.loc 1 796 8
	beq	a5,zero,.L107
	.loc 1 796 43 discriminator 1
	la	a5,HMainEditor
	ld	a5,64(a5)
	.loc 1 796 28 discriminator 1
	beq	a5,zero,.L107
	.loc 1 796 77 discriminator 2
	la	a5,HMainEditor
	ld	a5,72(a5)
	.loc 1 796 62 discriminator 2
	beq	a5,zero,.L107
	.loc 1 797 22
	la	a5,HMainEditor
	ld	a4,64(a5)
	.loc 1 797 58
	la	a5,HMainEditorBackupVar
	ld	a5,64(a5)
	.loc 1 797 10
	beq	a4,a5,.L108
	.loc 1 798 25
	la	a5,HMainEditor
	ld	a4,64(a5)
	.loc 1 798 61
	la	a5,HMainEditorBackupVar
	ld	a5,64(a5)
	.loc 1 798 12
	bltu	a4,a5,.L109
	.loc 1 798 99 discriminator 1
	la	a5,HMainEditorBackupVar
	ld	a5,64(a5)
	.loc 1 798 75 discriminator 1
	beq	a5,zero,.L109
	.loc 1 799 43
	la	a5,HMainEditorBackupVar
	ld	a5,64(a5)
	.loc 1 799 56
	addi	a5,a5,-1
	.loc 1 799 61
	srli	a5,a5,4
	.loc 1 799 20
	addi	a5,a5,1
	sd	a5,-48(s0)
	j	.L111
.L109:
	.loc 1 801 34
	la	a5,HMainEditor
	ld	a5,64(a5)
	.loc 1 801 47
	addi	a5,a5,-1
	.loc 1 801 52
	srli	a5,a5,4
	.loc 1 801 20
	addi	a5,a5,1
	sd	a5,-48(s0)
	j	.L111
.L108:
	.loc 1 804 32
	la	a5,HMainEditor
	ld	a5,64(a5)
	.loc 1 804 45
	addi	a5,a5,-1
	.loc 1 804 50
	srli	a5,a5,4
	.loc 1 804 18
	addi	a5,a5,1
	sd	a5,-48(s0)
.L111:
	.loc 1 807 22
	la	a5,HMainEditor
	ld	a4,72(a5)
	.loc 1 807 56
	la	a5,HMainEditorBackupVar
	ld	a5,72(a5)
	.loc 1 807 10
	bgtu	a4,a5,.L112
	.loc 1 808 39
	la	a5,HMainEditorBackupVar
	ld	a5,72(a5)
	.loc 1 808 50
	addi	a5,a5,-1
	.loc 1 808 55
	srli	a5,a5,4
	.loc 1 808 16
	addi	a5,a5,1
	sd	a5,-56(s0)
	j	.L113
.L112:
	.loc 1 810 30
	la	a5,HMainEditor
	ld	a5,72(a5)
	.loc 1 810 41
	addi	a5,a5,-1
	.loc 1 810 46
	srli	a5,a5,4
	.loc 1 810 16
	addi	a5,a5,1
	sd	a5,-56(s0)
.L113:
	.loc 1 816 10
	ld	a4,-48(s0)
	ld	a5,-56(s0)
	bleu	a4,a5,.L114
	.loc 1 817 13
	ld	a5,-48(s0)
	sd	a5,-72(s0)
	.loc 1 818 18
	ld	a5,-56(s0)
	sd	a5,-48(s0)
	.loc 1 819 16
	ld	a5,-72(s0)
	sd	a5,-56(s0)
.L114:
	.loc 1 822 17
	ld	a5,-48(s0)
	sd	a5,-64(s0)
	.loc 1 824 45
	lla	a5,HBufferImage
	ld	a5,80(a5)
	.loc 1 824 31
	ld	a4,-48(s0)
	sub	a5,a4,a5
	.loc 1 824 16
	addi	a5,a5,2
	sd	a5,-48(s0)
	.loc 1 825 41
	lla	a5,HBufferImage
	ld	a5,80(a5)
	.loc 1 825 27
	ld	a4,-56(s0)
	sub	a5,a4,a5
	.loc 1 825 14
	addi	a5,a5,2
	sd	a5,-56(s0)
	j	.L115
.L107:
	.loc 1 830 17
	lla	a5,HBufferImage
	ld	a5,80(a5)
	sd	a5,-64(s0)
	.loc 1 831 16
	li	a5,2
	sd	a5,-48(s0)
	.loc 1 832 39
	la	a5,HMainEditor
	ld	a5,16(a5)
	.loc 1 832 14
	addi	a5,a5,-1
	sd	a5,-56(s0)
.L115:
	.loc 1 838 21
	lla	a5,HBufferImage
	ld	a5,8(a5)
	.loc 1 838 8
	bne	a5,zero,.L116
	.loc 1 839 7
	call	HBufferImageRestoreMousePosition
	.loc 1 840 7
	call	HBufferImageRestorePosition
	.loc 1 841 10
	la	a5,gST
	ld	a5,0(a5)
	ld	a5,64(a5)
	.loc 1 841 18
	ld	a5,64(a5)
	.loc 1 841 37
	la	a4,gST
	ld	a4,0(a4)
	.loc 1 841 7
	ld	a4,64(a4)
	li	a1,1
	mv	a0,a4
	jalr	a5
.LVL14:
	.loc 1 842 14
	li	a5,0
	j	.L124
.L116:
	.loc 1 848 62
	lla	a5,HBufferImage
	ld	a5,64(a5)
	.loc 1 848 33
	ld	a4,-64(s0)
	sub	a5,a4,a5
	.loc 1 848 12
	mv	a0,a5
	call	HMoveLine@plt
	sd	a0,-32(s0)
	.loc 1 849 8
	ld	a5,-32(s0)
	bne	a5,zero,.L117
	.loc 1 850 10
	la	a5,gST
	ld	a5,0(a5)
	ld	a5,64(a5)
	.loc 1 850 18
	ld	a5,64(a5)
	.loc 1 850 37
	la	a4,gST
	ld	a4,0(a4)
	.loc 1 850 7
	ld	a4,64(a4)
	li	a1,1
	mv	a0,a4
	jalr	a5
.LVL15:
	.loc 1 851 14
	li	a5,-1
	slli	a5,a5,63
	addi	a5,a5,1
	j	.L124
.L117:
	.loc 1 854 10
	ld	a5,-32(s0)
	addi	a5,a5,32
	sd	a5,-24(s0)
	.loc 1 855 9
	ld	a5,-48(s0)
	sd	a5,-40(s0)
.L121:
	.loc 1 857 16
	ld	a5,-24(s0)
	addi	a5,a5,-32
	.loc 1 857 120
	ld	a4,0(a5)
	.loc 1 857 205
	li	a5,1819041792
	addi	a5,a5,1381
	bne	a4,a5,.L118
	.loc 1 857 12 discriminator 1
	ld	a5,-24(s0)
	addi	a5,a5,-32
	sd	a5,-32(s0)
	j	.L119
.L118:
	.loc 1 857 12 is_stmt 0 discriminator 2
	sd	zero,-32(s0)
.L119:
	.loc 1 865 21 is_stmt 1
	lla	a5,HBufferImage
	ld	a4,80(a5)
	.loc 1 865 36
	ld	a5,-40(s0)
	add	a5,a4,a5
	.loc 1 862 7
	addi	a5,a5,-2
	ld	a4,-88(s0)
	ld	a3,-80(s0)
	mv	a2,a5
	ld	a1,-40(s0)
	ld	a0,-32(s0)
	call	HBufferImagePrintLine
	.loc 1 870 12
	ld	a5,-24(s0)
	ld	a5,0(a5)
	sd	a5,-24(s0)
	.loc 1 871 10
	ld	a5,-40(s0)
	addi	a5,a5,1
	sd	a5,-40(s0)
	.loc 1 872 34
	lla	a5,HBufferImage
	ld	a5,0(a5)
	.loc 1 872 44
	ld	a4,-24(s0)
	beq	a4,a5,.L122
	.loc 1 872 44 is_stmt 0 discriminator 1
	ld	a4,-40(s0)
	ld	a5,-56(s0)
	bleu	a4,a5,.L121
	.loc 1 874 11 is_stmt 1
	j	.L122
.L123:
	.loc 1 875 7
	la	a5,HMainEditor
	ld	a4,24(a5)
	la	a5,HMainEditor
	ld	a5,16(a5)
	mv	a2,a5
	mv	a1,a4
	ld	a0,-40(s0)
	call	EditorClearLine@plt
	.loc 1 876 10
	ld	a5,-40(s0)
	addi	a5,a5,1
	sd	a5,-40(s0)
.L122:
	.loc 1 874 16
	ld	a4,-40(s0)
	ld	a5,-56(s0)
	bleu	a4,a5,.L123
.L106:
	.loc 1 884 3
	call	HBufferImageRestoreMousePosition
	.loc 1 885 3
	call	HBufferImageRestorePosition
	.loc 1 887 27
	lla	a5,HBufferImageNeedRefresh
	sb	zero,0(a5)
	.loc 1 888 35
	lla	a5,HBufferImageOnlyLineNeedRefresh
	sb	zero,0(a5)
	.loc 1 889 6
	la	a5,gST
	ld	a5,0(a5)
	ld	a5,64(a5)
	.loc 1 889 14
	ld	a5,64(a5)
	.loc 1 889 33
	la	a4,gST
	ld	a4,0(a4)
	.loc 1 889 3
	ld	a4,64(a4)
	li	a1,1
	mv	a0,a4
	jalr	a5
.LVL16:
	.loc 1 891 10
	li	a5,0
.L124:
	.loc 1 892 1
	mv	a0,a5
	ld	ra,88(sp)
	.cfi_restore 1
	ld	s0,80(sp)
	.cfi_restore 8
	.cfi_def_cfa 2, 96
	addi	sp,sp,96
	.cfi_def_cfa_offset 0
	jr	ra
	.cfi_endproc
.LFE9:
	.size	HBufferImageRefresh, .-HBufferImageRefresh
	.section	.text.HBufferImageRead,"ax",@progbits
	.align	1
	.globl	HBufferImageRead
	.type	HBufferImageRead, @function
HBufferImageRead:
.LFB10:
	.loc 1 919 1
	.cfi_startproc
	addi	sp,sp,-96
	.cfi_def_cfa_offset 96
	sd	ra,88(sp)
	sd	s0,80(sp)
	.cfi_offset 1, -8
	.cfi_offset 8, -16
	addi	s0,sp,96
	.cfi_def_cfa 8, 0
	sd	a0,-40(s0)
	sd	a1,-48(s0)
	sd	a2,-56(s0)
	sd	a3,-64(s0)
	sd	a4,-72(s0)
	sd	a5,-80(s0)
	mv	a5,a6
	mv	a4,a7
	sw	a5,-84(s0)
	mv	a5,a4
	sb	a5,-85(s0)
	.loc 1 926 10
	sd	zero,-24(s0)
	.loc 1 927 27
	lla	a5,HBufferImage
	lw	a4,-84(s0)
	sw	a4,92(a5)
	.loc 1 935 20
	lla	a5,HBufferImage
	lw	a5,92(a5)
	sw	a5,-28(s0)
	.loc 1 937 3
	lw	a5,-84(s0)
	sext.w	a4,a5
	li	a5,5
	beq	a4,a5,.L126
	lw	a5,-84(s0)
	sext.w	a4,a5
	li	a5,5
	bgtu	a4,a5,.L127
	lw	a5,-84(s0)
	sext.w	a4,a5
	li	a5,3
	beq	a4,a5,.L128
	lw	a5,-84(s0)
	sext.w	a4,a5
	li	a5,4
	beq	a4,a5,.L129
	j	.L127
.L126:
	.loc 1 939 16
	lbu	a5,-85(s0)
	mv	a1,a5
	ld	a0,-40(s0)
	call	HFileImageRead@plt
	sd	a0,-24(s0)
	.loc 1 940 7
	j	.L130
.L128:
	.loc 1 943 16
	lbu	a5,-85(s0)
	mv	a3,a5
	ld	a2,-64(s0)
	ld	a1,-56(s0)
	ld	a0,-48(s0)
	call	HDiskImageRead@plt
	sd	a0,-24(s0)
	.loc 1 944 7
	j	.L130
.L129:
	.loc 1 947 16
	lbu	a5,-85(s0)
	mv	a2,a5
	ld	a1,-80(s0)
	ld	a0,-72(s0)
	call	HMemImageRead@plt
	sd	a0,-24(s0)
	.loc 1 948 7
	j	.L130
.L127:
	.loc 1 951 14
	li	a5,-1
	slli	a5,a5,63
	addi	a5,a5,14
	sd	a5,-24(s0)
	.loc 1 952 7
	nop
.L130:
	.loc 1 955 34
	ld	a5,-24(s0)
	.loc 1 955 6
	bge	a5,zero,.L131
	.loc 1 956 29
	lla	a5,HBufferImage
	lw	a4,-28(s0)
	sw	a4,92(a5)
.L131:
	.loc 1 959 10
	ld	a5,-24(s0)
	.loc 1 960 1
	mv	a0,a5
	ld	ra,88(sp)
	.cfi_restore 1
	ld	s0,80(sp)
	.cfi_restore 8
	.cfi_def_cfa 2, 96
	addi	sp,sp,96
	.cfi_def_cfa_offset 0
	jr	ra
	.cfi_endproc
.LFE10:
	.size	HBufferImageRead, .-HBufferImageRead
	.section	.text.HBufferImageSave,"ax",@progbits
	.align	1
	.globl	HBufferImageSave
	.type	HBufferImageSave, @function
HBufferImageSave:
.LFB11:
	.loc 1 985 1
	.cfi_startproc
	addi	sp,sp,-96
	.cfi_def_cfa_offset 96
	sd	ra,88(sp)
	sd	s0,80(sp)
	.cfi_offset 1, -8
	.cfi_offset 8, -16
	addi	s0,sp,96
	.cfi_def_cfa 8, 0
	sd	a0,-40(s0)
	sd	a1,-48(s0)
	sd	a2,-56(s0)
	sd	a3,-64(s0)
	sd	a4,-72(s0)
	sd	a5,-80(s0)
	mv	a5,a6
	sw	a5,-84(s0)
	.loc 1 992 10
	sd	zero,-24(s0)
	.loc 1 993 20
	lla	a5,HBufferImage
	lw	a5,92(a5)
	sw	a5,-28(s0)
	.loc 1 995 23
	lla	a5,HBufferImage
	lw	a5,92(a5)
	.loc 1 995 3
	li	a4,5
	beq	a5,a4,.L134
	li	a4,5
	bgtu	a5,a4,.L135
	li	a4,3
	beq	a5,a4,.L136
	li	a4,4
	beq	a5,a4,.L137
	j	.L135
.L134:
	.loc 1 1000 16
	ld	a0,-40(s0)
	call	HFileImageSave@plt
	sd	a0,-24(s0)
	.loc 1 1001 7
	j	.L138
.L136:
	.loc 1 1007 16
	ld	a2,-64(s0)
	ld	a1,-56(s0)
	ld	a0,-48(s0)
	call	HDiskImageSave@plt
	sd	a0,-24(s0)
	.loc 1 1008 7
	j	.L138
.L137:
	.loc 1 1014 16
	ld	a1,-80(s0)
	ld	a0,-72(s0)
	call	HMemImageSave@plt
	sd	a0,-24(s0)
	.loc 1 1015 7
	j	.L138
.L135:
	.loc 1 1018 14
	li	a5,-1
	slli	a5,a5,63
	addi	a5,a5,14
	sd	a5,-24(s0)
	.loc 1 1019 7
	nop
.L138:
	.loc 1 1022 34
	ld	a5,-24(s0)
	.loc 1 1022 6
	bge	a5,zero,.L139
	.loc 1 1023 29
	lla	a5,HBufferImage
	lw	a4,-28(s0)
	sw	a4,92(a5)
.L139:
	.loc 1 1026 10
	ld	a5,-24(s0)
	.loc 1 1027 1
	mv	a0,a5
	ld	ra,88(sp)
	.cfi_restore 1
	ld	s0,80(sp)
	.cfi_restore 8
	.cfi_def_cfa 2, 96
	addi	sp,sp,96
	.cfi_def_cfa_offset 0
	jr	ra
	.cfi_endproc
.LFE11:
	.size	HBufferImageSave, .-HBufferImageSave
	.section	.text.HBufferImageCreateLine,"ax",@progbits
	.align	1
	.globl	HBufferImageCreateLine
	.type	HBufferImageCreateLine, @function
HBufferImageCreateLine:
.LFB12:
	.loc 1 1043 1
	.cfi_startproc
	addi	sp,sp,-32
	.cfi_def_cfa_offset 32
	sd	ra,24(sp)
	sd	s0,16(sp)
	.cfi_offset 1, -8
	.cfi_offset 8, -16
	addi	s0,sp,32
	.cfi_def_cfa 8, 0
	.loc 1 1049 10
	li	a0,48
	call	AllocateZeroPool@plt
	sd	a0,-24(s0)
	.loc 1 1050 6
	ld	a5,-24(s0)
	bne	a5,zero,.L142
	.loc 1 1051 12
	li	a5,0
	j	.L143
.L142:
	.loc 1 1054 19
	ld	a5,-24(s0)
	li	a4,1819041792
	addi	a4,a4,1381
	sd	a4,0(a5)
	.loc 1 1055 14
	ld	a5,-24(s0)
	sd	zero,24(a5)
	.loc 1 1057 15
	lla	a5,HBufferImage
	ld	a5,16(a5)
	.loc 1 1057 24
	addi	a4,a5,1
	lla	a5,HBufferImage
	sd	a4,16(a5)
	.loc 1 1062 3
	lla	a5,HBufferImage
	ld	a4,0(a5)
	ld	a5,-24(s0)
	addi	a5,a5,32
	mv	a1,a5
	mv	a0,a4
	call	InsertTailList@plt
	.loc 1 1064 19
	lla	a5,HBufferImage
	ld	a5,8(a5)
	.loc 1 1064 6
	bne	a5,zero,.L144
	.loc 1 1065 82
	lla	a5,HBufferImage
	ld	a5,0(a5)
	.loc 1 1065 91
	ld	a5,0(a5)
	.loc 1 1065 28
	addi	a5,a5,-32
	.loc 1 1065 162
	ld	a4,0(a5)
	.loc 1 1065 247
	li	a5,1819041792
	addi	a5,a5,1381
	bne	a4,a5,.L145
	.loc 1 1065 304 discriminator 1
	lla	a5,HBufferImage
	ld	a5,0(a5)
	.loc 1 1065 313 discriminator 1
	ld	a5,0(a5)
	.loc 1 1065 247 discriminator 1
	addi	a5,a5,-32
	j	.L146
.L145:
	.loc 1 1065 247 is_stmt 0 discriminator 2
	li	a5,0
.L146:
	.loc 1 1065 24 is_stmt 1 discriminator 4
	lla	a4,HBufferImage
	sd	a5,8(a4)
.L144:
	.loc 1 1073 10
	ld	a5,-24(s0)
.L143:
	.loc 1 1074 1
	mv	a0,a5
	ld	ra,24(sp)
	.cfi_restore 1
	ld	s0,16(sp)
	.cfi_restore 8
	.cfi_def_cfa 2, 32
	addi	sp,sp,32
	.cfi_def_cfa_offset 0
	jr	ra
	.cfi_endproc
.LFE12:
	.size	HBufferImageCreateLine, .-HBufferImageCreateLine
	.section	.text.HBufferImageFree,"ax",@progbits
	.align	1
	.globl	HBufferImageFree
	.type	HBufferImageFree, @function
HBufferImageFree:
.LFB13:
	.loc 1 1085 1
	.cfi_startproc
	addi	sp,sp,-16
	.cfi_def_cfa_offset 16
	sd	ra,8(sp)
	sd	s0,0(sp)
	.cfi_offset 1, -8
	.cfi_offset 8, -16
	addi	s0,sp,16
	.cfi_def_cfa 8, 0
	.loc 1 1089 3
	call	HBufferImageFreeLines
	.loc 1 1091 10
	li	a5,0
	.loc 1 1092 1
	mv	a0,a5
	ld	ra,8(sp)
	.cfi_restore 1
	ld	s0,0(sp)
	.cfi_restore 8
	.cfi_def_cfa 2, 16
	addi	sp,sp,16
	.cfi_def_cfa_offset 0
	jr	ra
	.cfi_endproc
.LFE13:
	.size	HBufferImageFree, .-HBufferImageFree
	.section	.text.HBufferImageCharToHex,"ax",@progbits
	.align	1
	.globl	HBufferImageCharToHex
	.type	HBufferImageCharToHex, @function
HBufferImageCharToHex:
.LFB14:
	.loc 1 1106 1
	.cfi_startproc
	addi	sp,sp,-32
	.cfi_def_cfa_offset 32
	sd	ra,24(sp)
	sd	s0,16(sp)
	.cfi_offset 1, -8
	.cfi_offset 8, -16
	addi	s0,sp,32
	.cfi_def_cfa 8, 0
	mv	a5,a0
	sh	a5,-18(s0)
	.loc 1 1110 6
	lhu	a5,-18(s0)
	sext.w	a4,a5
	li	a5,47
	bleu	a4,a5,.L150
	.loc 1 1110 22 discriminator 1
	lhu	a5,-18(s0)
	sext.w	a4,a5
	li	a5,57
	bgtu	a4,a5,.L150
	.loc 1 1111 18
	lhu	a5,-18(s0)
	sext.w	a5,a5
	addiw	a5,a5,-48
	sext.w	a5,a5
	j	.L151
.L150:
	.loc 1 1114 6
	lhu	a5,-18(s0)
	sext.w	a4,a5
	li	a5,96
	bleu	a4,a5,.L152
	.loc 1 1114 22 discriminator 1
	lhu	a5,-18(s0)
	sext.w	a4,a5
	li	a5,102
	bgtu	a4,a5,.L152
	.loc 1 1115 25
	lhu	a5,-18(s0)
	sext.w	a5,a5
	addiw	a5,a5,-87
	sext.w	a5,a5
	j	.L151
.L152:
	.loc 1 1118 6
	lhu	a5,-18(s0)
	sext.w	a4,a5
	li	a5,64
	bleu	a4,a5,.L153
	.loc 1 1118 22 discriminator 1
	lhu	a5,-18(s0)
	sext.w	a4,a5
	li	a5,70
	bgtu	a4,a5,.L153
	.loc 1 1119 25
	lhu	a5,-18(s0)
	sext.w	a5,a5
	addiw	a5,a5,-55
	sext.w	a5,a5
	j	.L151
.L153:
	.loc 1 1122 10
	li	a5,-1
.L151:
	.loc 1 1123 1
	mv	a0,a5
	ld	ra,24(sp)
	.cfi_restore 1
	ld	s0,16(sp)
	.cfi_restore 8
	.cfi_def_cfa 2, 32
	addi	sp,sp,32
	.cfi_def_cfa_offset 0
	jr	ra
	.cfi_endproc
.LFE14:
	.size	HBufferImageCharToHex, .-HBufferImageCharToHex
	.section	.text.HBufferImageAddChar,"ax",@progbits
	.align	1
	.globl	HBufferImageAddChar
	.type	HBufferImageAddChar, @function
HBufferImageAddChar:
.LFB15:
	.loc 1 1137 1
	.cfi_startproc
	addi	sp,sp,-96
	.cfi_def_cfa_offset 96
	sd	ra,88(sp)
	sd	s0,80(sp)
	.cfi_offset 1, -8
	.cfi_offset 8, -16
	addi	s0,sp,96
	.cfi_def_cfa 8, 0
	mv	a5,a0
	sh	a5,-82(s0)
	.loc 1 1146 11
	lhu	a5,-82(s0)
	mv	a0,a5
	call	HBufferImageCharToHex
	sd	a0,-48(s0)
	.loc 1 1151 6
	ld	a4,-48(s0)
	li	a5,-1
	bne	a4,a5,.L155
	.loc 1 1152 12
	li	a5,0
	j	.L156
.L155:
	.loc 1 1155 8
	lla	a5,HBufferImage
	ld	a5,24(a5)
	sd	a5,-56(s0)
	.loc 1 1156 8
	lla	a5,HBufferImage
	ld	a5,64(a5)
	sd	a5,-24(s0)
	.loc 1 1157 8
	lla	a5,HBufferImage
	ld	a5,72(a5)
	sd	a5,-32(s0)
	.loc 1 1158 8
	lla	a5,HBufferImage
	lbu	a5,88(a5)
	sb	a5,-33(s0)
	.loc 1 1163 35
	lla	a5,HBufferImageOnlyLineNeedRefresh
	li	a4,1
	sb	a4,0(a5)
	.loc 1 1168 18
	ld	a5,-56(s0)
	ld	a5,24(a5)
	.loc 1 1168 6
	ld	a4,-32(s0)
	bleu	a4,a5,.L157
	.loc 1 1173 22
	ld	a5,-56(s0)
	ld	a5,24(a5)
	.loc 1 1173 32
	ld	a4,-48(s0)
	andi	a4,a4,0xff
	.loc 1 1173 30
	ld	a3,-56(s0)
	add	a5,a3,a5
	sb	a4,8(a5)
	.loc 1 1174 9
	ld	a5,-56(s0)
	ld	a5,24(a5)
	.loc 1 1174 15
	addi	a4,a5,1
	ld	a5,-56(s0)
	sd	a4,24(a5)
	.loc 1 1175 10
	sb	zero,-33(s0)
	j	.L158
.L157:
	.loc 1 1177 29
	ld	a5,-32(s0)
	addi	a5,a5,-1
	.loc 1 1177 9
	ld	a4,-56(s0)
	add	a5,a4,a5
	lbu	a5,8(a5)
	sb	a5,-57(s0)
	.loc 1 1182 9
	lbu	a5,-57(s0)
	andi	a5,a5,15
	sb	a5,-57(s0)
	.loc 1 1183 9
	lbu	a5,-57(s0)
	slliw	a5,a5,4
	sb	a5,-57(s0)
	.loc 1 1184 11
	ld	a5,-48(s0)
	andi	a5,a5,0xff
	.loc 1 1184 9
	lbu	a4,-57(s0)
	addw	a5,a4,a5
	sb	a5,-57(s0)
	.loc 1 1185 23
	ld	a5,-32(s0)
	addi	a5,a5,-1
	.loc 1 1185 28
	ld	a4,-56(s0)
	add	a5,a4,a5
	lbu	a4,-57(s0)
	sb	a4,8(a5)
	.loc 1 1191 8
	lbu	a5,-33(s0)
	andi	a5,a5,0xff
	bne	a5,zero,.L159
	.loc 1 1191 15 discriminator 1
	ld	a4,-32(s0)
	li	a5,16
	bne	a4,a5,.L159
	.loc 1 1192 39
	lla	a5,HBufferImageOnlyLineNeedRefresh
	sb	zero,0(a5)
	.loc 1 1193 31
	lla	a5,HBufferImageNeedRefresh
	li	a4,1
	sb	a4,0(a5)
	.loc 1 1195 21
	ld	a5,-56(s0)
	ld	a4,32(a5)
	.loc 1 1195 49
	lla	a5,HBufferImage
	ld	a5,0(a5)
	.loc 1 1195 10
	bne	a4,a5,.L159
	.loc 1 1201 19
	call	HBufferImageCreateLine
	sd	a0,-72(s0)
	.loc 1 1202 12
	ld	a5,-72(s0)
	bne	a5,zero,.L159
	.loc 1 1203 18
	li	a5,-1
	slli	a5,a5,63
	addi	a5,a5,9
	j	.L156
.L159:
	.loc 1 1221 8
	ld	a4,-32(s0)
	li	a5,16
	bne	a4,a5,.L160
	.loc 1 1221 24 discriminator 1
	lbu	a5,-33(s0)
	andi	a5,a5,0xff
	bne	a5,zero,.L160
	.loc 1 1225 11
	ld	a5,-24(s0)
	addi	a5,a5,1
	sd	a5,-24(s0)
	.loc 1 1226 12
	li	a5,1
	sd	a5,-32(s0)
	.loc 1 1227 12
	li	a5,1
	sb	a5,-33(s0)
	j	.L158
.L160:
	.loc 1 1232 10
	lbu	a5,-33(s0)
	andi	a5,a5,0xff
	bne	a5,zero,.L161
	.loc 1 1233 13
	ld	a5,-32(s0)
	addi	a5,a5,1
	sd	a5,-32(s0)
.L161:
	.loc 1 1236 10
	lbu	a5,-33(s0)
	andi	a5,a5,0xff
	beq	a5,zero,.L162
	.loc 1 1237 14
	sb	zero,-33(s0)
	j	.L158
.L162:
	.loc 1 1239 14
	li	a5,1
	sb	a5,-33(s0)
.L158:
	.loc 1 1251 3
	lbu	a5,-33(s0)
	mv	a2,a5
	ld	a1,-32(s0)
	ld	a0,-24(s0)
	call	HBufferImageMovePosition
	.loc 1 1253 20
	lla	a5,HBufferImage
	lbu	a5,89(a5)
	.loc 1 1253 6
	bne	a5,zero,.L163
	.loc 1 1254 27
	lla	a5,HBufferImage
	li	a4,1
	sb	a4,89(a5)
.L163:
	.loc 1 1257 10
	li	a5,0
.L156:
	.loc 1 1258 1
	mv	a0,a5
	ld	ra,88(sp)
	.cfi_restore 1
	ld	s0,80(sp)
	.cfi_restore 8
	.cfi_def_cfa 2, 96
	addi	sp,sp,96
	.cfi_def_cfa_offset 0
	jr	ra
	.cfi_endproc
.LFE15:
	.size	HBufferImageAddChar, .-HBufferImageAddChar
	.section	.text.HBufferImageDoBackspace,"ax",@progbits
	.align	1
	.globl	HBufferImageDoBackspace
	.type	HBufferImageDoBackspace, @function
HBufferImageDoBackspace:
.LFB16:
	.loc 1 1269 1
	.cfi_startproc
	addi	sp,sp,-48
	.cfi_def_cfa_offset 48
	sd	ra,40(sp)
	sd	s0,32(sp)
	.cfi_offset 1, -8
	.cfi_offset 8, -16
	addi	s0,sp,48
	.cfi_def_cfa 8, 0
	.loc 1 1279 12
	sb	zero,-17(s0)
	.loc 1 1284 35
	lla	a5,HBufferImage
	ld	a4,64(a5)
	.loc 1 1284 6
	li	a5,1
	bne	a4,a5,.L165
	.loc 1 1284 77 discriminator 1
	lla	a5,HBufferImage
	ld	a4,72(a5)
	.loc 1 1284 46 discriminator 1
	li	a5,1
	bne	a4,a5,.L165
	.loc 1 1285 12
	li	a5,0
	j	.L166
.L165:
	.loc 1 1288 38
	lla	a5,HBufferImage
	ld	a5,64(a5)
	.loc 1 1288 43
	addi	a5,a5,-1
	.loc 1 1288 48
	slli	a4,a5,4
	.loc 1 1288 84
	lla	a5,HBufferImage
	ld	a5,72(a5)
	.loc 1 1288 55
	add	a5,a4,a5
	.loc 1 1288 8
	addi	a5,a5,-1
	sd	a5,-32(s0)
	.loc 1 1290 14
	lla	a5,HBufferImage
	ld	a5,72(a5)
	sd	a5,-40(s0)
	.loc 1 1292 8
	lla	a5,HBufferImage
	ld	a5,24(a5)
	sd	a5,-48(s0)
	.loc 1 1293 12
	sb	zero,-17(s0)
	.loc 1 1294 18
	ld	a5,-48(s0)
	ld	a4,32(a5)
	.loc 1 1294 46
	lla	a5,HBufferImage
	ld	a5,0(a5)
	.loc 1 1294 6
	bne	a4,a5,.L167
	.loc 1 1294 57 discriminator 1
	ld	a4,-40(s0)
	li	a5,1
	bleu	a4,a5,.L167
	.loc 1 1295 14
	li	a5,1
	sb	a5,-17(s0)
.L167:
	.loc 1 1298 3
	ld	a5,-32(s0)
	addi	a5,a5,-1
	li	a2,0
	li	a1,1
	mv	a0,a5
	call	HBufferImageDeleteCharacterFromBuffer
	.loc 1 1304 6
	lbu	a5,-17(s0)
	andi	a5,a5,0xff
	beq	a5,zero,.L168
	.loc 1 1305 29
	lla	a5,HBufferImageNeedRefresh
	sb	zero,0(a5)
	.loc 1 1306 37
	lla	a5,HBufferImageOnlyLineNeedRefresh
	li	a4,1
	sb	a4,0(a5)
	j	.L169
.L168:
	.loc 1 1308 29
	lla	a5,HBufferImageNeedRefresh
	li	a4,1
	sb	a4,0(a5)
	.loc 1 1309 37
	lla	a5,HBufferImageOnlyLineNeedRefresh
	sb	zero,0(a5)
.L169:
	.loc 1 1312 20
	lla	a5,HBufferImage
	lbu	a5,89(a5)
	.loc 1 1312 6
	bne	a5,zero,.L170
	.loc 1 1313 27
	lla	a5,HBufferImage
	li	a4,1
	sb	a4,89(a5)
.L170:
	.loc 1 1316 10
	li	a5,0
.L166:
	.loc 1 1317 1
	mv	a0,a5
	ld	ra,40(sp)
	.cfi_restore 1
	ld	s0,32(sp)
	.cfi_restore 8
	.cfi_def_cfa 2, 48
	addi	sp,sp,48
	.cfi_def_cfa_offset 0
	jr	ra
	.cfi_endproc
.LFE16:
	.size	HBufferImageDoBackspace, .-HBufferImageDoBackspace
	.section	.rodata
	.align	3
.LC11:
	.string	"U"
	.string	"n"
	.string	"k"
	.string	"n"
	.string	"o"
	.string	"w"
	.string	"n"
	.string	" "
	.string	"C"
	.string	"o"
	.string	"m"
	.string	"m"
	.string	"a"
	.string	"n"
	.string	"d"
	.zero	2
	.section	.text.HBufferImageDoCharInput,"ax",@progbits
	.align	1
	.globl	HBufferImageDoCharInput
	.type	HBufferImageDoCharInput, @function
HBufferImageDoCharInput:
.LFB17:
	.loc 1 1332 1
	.cfi_startproc
	addi	sp,sp,-48
	.cfi_def_cfa_offset 48
	sd	ra,40(sp)
	sd	s0,32(sp)
	.cfi_offset 1, -8
	.cfi_offset 8, -16
	addi	s0,sp,48
	.cfi_def_cfa 8, 0
	mv	a5,a0
	sh	a5,-34(s0)
	.loc 1 1335 10
	sd	zero,-24(s0)
	.loc 1 1337 3
	lhu	a5,-34(s0)
	sext.w	a5,a5
	li	a4,13
	beq	a5,a4,.L181
	li	a4,13
	bgt	a5,a4,.L173
	li	a4,10
	bgt	a5,a4,.L173
	li	a4,9
	bge	a5,a4,.L181
	beq	a5,zero,.L182
	li	a4,8
	bne	a5,a4,.L173
	.loc 1 1342 16
	call	HBufferImageDoBackspace
	sd	a0,-24(s0)
	.loc 1 1343 7
	j	.L176
.L173:
	.loc 1 1357 10
	lhu	a5,-34(s0)
	sext.w	a4,a5
	li	a5,127
	bgtu	a4,a5,.L177
	.loc 1 1357 24 discriminator 1
	lhu	a5,-34(s0)
	sext.w	a4,a5
	li	a5,31
	bgtu	a4,a5,.L178
.L177:
	.loc 1 1358 18
	lla	a0,.LC11
	call	StatusBarSetStatusString@plt
	sd	a0,-24(s0)
	.loc 1 1358 16
	nop
	.loc 1 1363 7
	j	.L176
.L178:
	.loc 1 1360 18
	lhu	a5,-34(s0)
	mv	a0,a5
	call	HBufferImageAddChar
	sd	a0,-24(s0)
	.loc 1 1363 7
	j	.L176
.L181:
	.loc 1 1351 7
	nop
	j	.L176
.L182:
	.loc 1 1339 7
	nop
.L176:
	.loc 1 1366 10
	ld	a5,-24(s0)
	.loc 1 1367 1
	mv	a0,a5
	ld	ra,40(sp)
	.cfi_restore 1
	ld	s0,32(sp)
	.cfi_restore 8
	.cfi_def_cfa 2, 48
	addi	sp,sp,48
	.cfi_def_cfa_offset 0
	jr	ra
	.cfi_endproc
.LFE17:
	.size	HBufferImageDoCharInput, .-HBufferImageDoCharInput
	.section	.text.HAboveCurrentScreen,"ax",@progbits
	.align	1
	.globl	HAboveCurrentScreen
	.type	HAboveCurrentScreen, @function
HAboveCurrentScreen:
.LFB18:
	.loc 1 1382 1
	.cfi_startproc
	addi	sp,sp,-32
	.cfi_def_cfa_offset 32
	sd	ra,24(sp)
	sd	s0,16(sp)
	.cfi_offset 1, -8
	.cfi_offset 8, -16
	addi	s0,sp,32
	.cfi_def_cfa 8, 0
	sd	a0,-24(s0)
	.loc 1 1383 29
	lla	a5,HBufferImage
	ld	a5,80(a5)
	.loc 1 1383 6
	ld	a4,-24(s0)
	bgeu	a4,a5,.L184
	.loc 1 1384 12
	li	a5,1
	j	.L185
.L184:
	.loc 1 1387 10
	li	a5,0
.L185:
	.loc 1 1388 1
	mv	a0,a5
	ld	ra,24(sp)
	.cfi_restore 1
	ld	s0,16(sp)
	.cfi_restore 8
	.cfi_def_cfa 2, 32
	addi	sp,sp,32
	.cfi_def_cfa_offset 0
	jr	ra
	.cfi_endproc
.LFE18:
	.size	HAboveCurrentScreen, .-HAboveCurrentScreen
	.section	.text.HUnderCurrentScreen,"ax",@progbits
	.align	1
	.globl	HUnderCurrentScreen
	.type	HUnderCurrentScreen, @function
HUnderCurrentScreen:
.LFB19:
	.loc 1 1403 1
	.cfi_startproc
	addi	sp,sp,-32
	.cfi_def_cfa_offset 32
	sd	ra,24(sp)
	sd	s0,16(sp)
	.cfi_offset 1, -8
	.cfi_offset 8, -16
	addi	s0,sp,32
	.cfi_def_cfa 8, 0
	sd	a0,-24(s0)
	.loc 1 1404 29
	lla	a5,HBufferImage
	ld	a4,80(a5)
	.loc 1 1404 69
	la	a5,HMainEditor
	ld	a5,16(a5)
	.loc 1 1404 44
	add	a5,a4,a5
	.loc 1 1404 79
	addi	a5,a5,-3
	.loc 1 1404 6
	ld	a4,-24(s0)
	bleu	a4,a5,.L187
	.loc 1 1405 12
	li	a5,1
	j	.L188
.L187:
	.loc 1 1408 10
	li	a5,0
.L188:
	.loc 1 1409 1
	mv	a0,a5
	ld	ra,24(sp)
	.cfi_restore 1
	ld	s0,16(sp)
	.cfi_restore 8
	.cfi_def_cfa 2, 32
	addi	sp,sp,32
	.cfi_def_cfa_offset 0
	jr	ra
	.cfi_endproc
.LFE19:
	.size	HUnderCurrentScreen, .-HUnderCurrentScreen
	.section	.text.HBufferImageMovePosition,"ax",@progbits
	.align	1
	.globl	HBufferImageMovePosition
	.type	HBufferImageMovePosition, @function
HBufferImageMovePosition:
.LFB20:
	.loc 1 1424 1
	.cfi_startproc
	addi	sp,sp,-80
	.cfi_def_cfa_offset 80
	sd	ra,72(sp)
	sd	s0,64(sp)
	.cfi_offset 1, -8
	.cfi_offset 8, -16
	addi	s0,sp,80
	.cfi_def_cfa 8, 0
	sd	a0,-56(s0)
	sd	a1,-64(s0)
	mv	a5,a2
	sb	a5,-65(s0)
	.loc 1 1434 55
	lla	a5,HBufferImage
	ld	a5,64(a5)
	.loc 1 1434 26
	ld	a4,-56(s0)
	sub	a5,a4,a5
	.loc 1 1434 10
	sd	a5,-32(s0)
	.loc 1 1436 11
	ld	a0,-56(s0)
	call	HUnderCurrentScreen
	mv	a5,a0
	sb	a5,-33(s0)
	.loc 1 1437 11
	ld	a0,-56(s0)
	call	HAboveCurrentScreen
	mv	a5,a0
	sb	a5,-34(s0)
	.loc 1 1439 25
	lla	a5,HBufferImage
	lbu	a4,-65(s0)
	sb	a4,88(a5)
	.loc 1 1444 6
	lbu	a5,-33(s0)
	andi	a5,a5,0xff
	beq	a5,zero,.L190
	.loc 1 1448 37
	lla	a5,HBufferImage
	ld	a4,-56(s0)
	sd	a4,64(a5)
	j	.L191
.L190:
	.loc 1 1450 8
	lbu	a5,-34(s0)
	andi	a5,a5,0xff
	beq	a5,zero,.L192
	.loc 1 1456 56
	lla	a5,HBufferImage
	ld	a5,32(a5)
	.loc 1 1456 65
	addi	a5,a5,-1
	.loc 1 1456 10
	ld	a4,-56(s0)
	bgeu	a4,a5,.L193
	.loc 1 1457 62
	ld	a5,-56(s0)
	addi	a4,a5,1
	.loc 1 1457 42
	lla	a5,HBufferImage
	sd	a4,32(a5)
.L193:
	.loc 1 1460 39
	lla	a5,HBufferImage
	ld	a4,-56(s0)
	sd	a4,64(a5)
	j	.L191
.L192:
	.loc 1 1465 39
	lla	a5,HBufferImage
	ld	a4,-56(s0)
	sd	a4,64(a5)
	.loc 1 1466 10
	ld	a5,-32(s0)
	bgt	a5,zero,.L194
	.loc 1 1467 15
	ld	a5,-32(s0)
	srai	a4,a5,63
	ld	a5,-32(s0)
	xor	a5,a4,a5
	sub	a5,a5,a4
	.loc 1 1467 13
	sd	a5,-48(s0)
	.loc 1 1468 37
	lla	a5,HBufferImage
	ld	a4,32(a5)
	.loc 1 1468 42
	ld	a5,-48(s0)
	sub	a4,a4,a5
	lla	a5,HBufferImage
	sd	a4,32(a5)
	j	.L191
.L194:
	.loc 1 1470 37
	lla	a5,HBufferImage
	ld	a4,32(a5)
	.loc 1 1470 42
	ld	a5,-32(s0)
	add	a4,a4,a5
	lla	a5,HBufferImage
	sd	a4,32(a5)
.L191:
	.loc 1 1475 59
	lla	a5,HBufferImage
	ld	a4,64(a5)
	.loc 1 1475 95
	lla	a5,HBufferImage
	ld	a5,32(a5)
	.loc 1 1475 64
	sub	a5,a4,a5
	addi	a4,a5,2
	.loc 1 1475 30
	lla	a5,HBufferImage
	sd	a4,80(a5)
	.loc 1 1480 38
	lla	a5,HBufferImage
	ld	a4,-64(s0)
	sd	a4,72(a5)
	.loc 1 1482 22
	ld	a4,-64(s0)
	mv	a5,a4
	slli	a5,a5,1
	add	a5,a5,a4
	.loc 1 1482 17
	addi	a5,a5,7
	sd	a5,-24(s0)
	.loc 1 1483 6
	ld	a4,-64(s0)
	li	a5,8
	bleu	a4,a5,.L195
	.loc 1 1484 18
	ld	a5,-24(s0)
	addi	a5,a5,1
	sd	a5,-24(s0)
.L195:
	.loc 1 1487 6
	lbu	a5,-65(s0)
	andi	a5,a5,0xff
	bne	a5,zero,.L196
	.loc 1 1488 18
	ld	a5,-24(s0)
	addi	a5,a5,1
	sd	a5,-24(s0)
.L196:
	.loc 1 1491 39
	lla	a5,HBufferImage
	ld	a4,-24(s0)
	sd	a4,40(a5)
	.loc 1 1496 30
	ld	a0,-32(s0)
	call	HMoveCurrentLine@plt
	mv	a4,a0
	.loc 1 1496 28 discriminator 1
	lla	a5,HBufferImage
	sd	a4,24(a5)
	.loc 1 1497 1
	nop
	ld	ra,72(sp)
	.cfi_restore 1
	ld	s0,64(sp)
	.cfi_restore 8
	.cfi_def_cfa 2, 80
	addi	sp,sp,80
	.cfi_def_cfa_offset 0
	jr	ra
	.cfi_endproc
.LFE20:
	.size	HBufferImageMovePosition, .-HBufferImageMovePosition
	.section	.text.HBufferImageScrollRight,"ax",@progbits
	.align	1
	.globl	HBufferImageScrollRight
	.type	HBufferImageScrollRight, @function
HBufferImageScrollRight:
.LFB21:
	.loc 1 1508 1
	.cfi_startproc
	addi	sp,sp,-48
	.cfi_def_cfa_offset 48
	sd	ra,40(sp)
	sd	s0,32(sp)
	.cfi_offset 1, -8
	.cfi_offset 8, -16
	addi	s0,sp,48
	.cfi_def_cfa 8, 0
	.loc 1 1516 27
	lla	a5,HBufferImageNeedRefresh
	sb	zero,0(a5)
	.loc 1 1517 35
	lla	a5,HBufferImageOnlyLineNeedRefresh
	sb	zero,0(a5)
	.loc 1 1519 8
	lla	a5,HBufferImage
	ld	a5,24(a5)
	sd	a5,-40(s0)
	.loc 1 1521 8
	lla	a5,HBufferImage
	ld	a5,64(a5)
	sd	a5,-24(s0)
	.loc 1 1522 8
	lla	a5,HBufferImage
	ld	a5,72(a5)
	sd	a5,-32(s0)
	.loc 1 1527 18
	ld	a5,-40(s0)
	ld	a5,24(a5)
	.loc 1 1527 6
	ld	a4,-32(s0)
	bleu	a4,a5,.L198
	.loc 1 1528 12
	li	a5,0
	j	.L199
.L198:
	.loc 1 1534 6
	ld	a4,-32(s0)
	li	a5,16
	bne	a4,a5,.L200
	.loc 1 1538 19
	ld	a5,-40(s0)
	ld	a4,32(a5)
	.loc 1 1538 47
	lla	a5,HBufferImage
	ld	a5,0(a5)
	.loc 1 1538 8
	beq	a4,a5,.L201
	.loc 1 1539 11
	ld	a5,-24(s0)
	addi	a5,a5,1
	sd	a5,-24(s0)
	.loc 1 1540 12
	li	a5,1
	sd	a5,-32(s0)
	j	.L202
.L201:
	.loc 1 1542 14
	li	a5,0
	j	.L199
.L200:
	.loc 1 1548 9
	ld	a5,-32(s0)
	addi	a5,a5,1
	sd	a5,-32(s0)
.L202:
	.loc 1 1551 3
	li	a2,1
	ld	a1,-32(s0)
	ld	a0,-24(s0)
	call	HBufferImageMovePosition
	.loc 1 1553 10
	li	a5,0
.L199:
	.loc 1 1554 1
	mv	a0,a5
	ld	ra,40(sp)
	.cfi_restore 1
	ld	s0,32(sp)
	.cfi_restore 8
	.cfi_def_cfa 2, 48
	addi	sp,sp,48
	.cfi_def_cfa_offset 0
	jr	ra
	.cfi_endproc
.LFE21:
	.size	HBufferImageScrollRight, .-HBufferImageScrollRight
	.section	.text.HBufferImageScrollLeft,"ax",@progbits
	.align	1
	.globl	HBufferImageScrollLeft
	.type	HBufferImageScrollLeft, @function
HBufferImageScrollLeft:
.LFB22:
	.loc 1 1565 1
	.cfi_startproc
	addi	sp,sp,-48
	.cfi_def_cfa_offset 48
	sd	ra,40(sp)
	sd	s0,32(sp)
	.cfi_offset 1, -8
	.cfi_offset 8, -16
	addi	s0,sp,48
	.cfi_def_cfa 8, 0
	.loc 1 1570 27
	lla	a5,HBufferImageNeedRefresh
	sb	zero,0(a5)
	.loc 1 1571 35
	lla	a5,HBufferImageOnlyLineNeedRefresh
	sb	zero,0(a5)
	.loc 1 1573 8
	lla	a5,HBufferImage
	ld	a5,24(a5)
	sd	a5,-24(s0)
	.loc 1 1575 8
	lla	a5,HBufferImage
	ld	a5,64(a5)
	sd	a5,-32(s0)
	.loc 1 1576 8
	lla	a5,HBufferImage
	ld	a5,72(a5)
	sd	a5,-40(s0)
	.loc 1 1581 6
	ld	a4,-40(s0)
	li	a5,1
	bgtu	a4,a5,.L204
	.loc 1 1585 19
	ld	a5,-24(s0)
	ld	a4,40(a5)
	.loc 1 1585 44
	lla	a5,HBufferImage
	ld	a5,0(a5)
	.loc 1 1585 8
	beq	a4,a5,.L205
	.loc 1 1586 11
	ld	a5,-32(s0)
	addi	a5,a5,-1
	sd	a5,-32(s0)
	.loc 1 1587 68
	ld	a5,-24(s0)
	ld	a5,40(a5)
	.loc 1 1587 16
	addi	a5,a5,-32
	.loc 1 1587 135
	ld	a4,0(a5)
	.loc 1 1587 220
	li	a5,1819041792
	addi	a5,a5,1381
	bne	a4,a5,.L206
	.loc 1 1587 275 discriminator 1
	ld	a5,-24(s0)
	ld	a5,40(a5)
	.loc 1 1587 12 discriminator 1
	addi	a5,a5,-32
	sd	a5,-24(s0)
	j	.L207
.L206:
	.loc 1 1587 12 is_stmt 0 discriminator 2
	sd	zero,-24(s0)
.L207:
	.loc 1 1588 12 is_stmt 1
	ld	a5,-24(s0)
	ld	a5,24(a5)
	sd	a5,-40(s0)
	j	.L208
.L205:
	.loc 1 1590 14
	li	a5,0
	j	.L209
.L204:
	.loc 1 1596 9
	ld	a5,-40(s0)
	addi	a5,a5,-1
	sd	a5,-40(s0)
.L208:
	.loc 1 1599 3
	li	a2,1
	ld	a1,-40(s0)
	ld	a0,-32(s0)
	call	HBufferImageMovePosition
	.loc 1 1601 10
	li	a5,0
.L209:
	.loc 1 1602 1
	mv	a0,a5
	ld	ra,40(sp)
	.cfi_restore 1
	ld	s0,32(sp)
	.cfi_restore 8
	.cfi_def_cfa 2, 48
	addi	sp,sp,48
	.cfi_def_cfa_offset 0
	jr	ra
	.cfi_endproc
.LFE22:
	.size	HBufferImageScrollLeft, .-HBufferImageScrollLeft
	.section	.text.HBufferImageScrollDown,"ax",@progbits
	.align	1
	.globl	HBufferImageScrollDown
	.type	HBufferImageScrollDown, @function
HBufferImageScrollDown:
.LFB23:
	.loc 1 1613 1
	.cfi_startproc
	addi	sp,sp,-48
	.cfi_def_cfa_offset 48
	sd	ra,40(sp)
	sd	s0,32(sp)
	.cfi_offset 1, -8
	.cfi_offset 8, -16
	addi	s0,sp,48
	.cfi_def_cfa 8, 0
	.loc 1 1619 8
	lla	a5,HBufferImage
	ld	a5,24(a5)
	sd	a5,-24(s0)
	.loc 1 1621 8
	lla	a5,HBufferImage
	ld	a5,64(a5)
	sd	a5,-48(s0)
	.loc 1 1622 8
	lla	a5,HBufferImage
	ld	a5,72(a5)
	sd	a5,-32(s0)
	.loc 1 1623 12
	lla	a5,HBufferImage
	lbu	a5,88(a5)
	sb	a5,-33(s0)
	.loc 1 1628 17
	ld	a5,-24(s0)
	ld	a4,32(a5)
	.loc 1 1628 45
	lla	a5,HBufferImage
	ld	a5,0(a5)
	.loc 1 1628 6
	beq	a4,a5,.L211
	.loc 1 1629 9
	ld	a5,-48(s0)
	addi	a5,a5,1
	sd	a5,-48(s0)
	.loc 1 1630 66
	ld	a5,-24(s0)
	ld	a5,32(a5)
	.loc 1 1630 14
	addi	a5,a5,-32
	.loc 1 1630 136
	ld	a4,0(a5)
	.loc 1 1630 221
	li	a5,1819041792
	addi	a5,a5,1381
	bne	a4,a5,.L212
	.loc 1 1630 276 discriminator 1
	ld	a5,-24(s0)
	ld	a5,32(a5)
	.loc 1 1630 10 discriminator 1
	addi	a5,a5,-32
	sd	a5,-24(s0)
	j	.L213
.L212:
	.loc 1 1630 10 is_stmt 0 discriminator 2
	sd	zero,-24(s0)
.L213:
	.loc 1 1635 20 is_stmt 1
	ld	a5,-24(s0)
	ld	a5,24(a5)
	.loc 1 1635 8
	ld	a4,-32(s0)
	bleu	a4,a5,.L214
	.loc 1 1636 18
	ld	a5,-24(s0)
	ld	a5,24(a5)
	.loc 1 1636 12
	addi	a5,a5,1
	sd	a5,-32(s0)
	.loc 1 1637 16
	li	a5,1
	sb	a5,-33(s0)
	j	.L214
.L211:
	.loc 1 1640 12
	li	a5,0
	j	.L215
.L214:
	.loc 1 1643 3
	lbu	a5,-33(s0)
	mv	a2,a5
	ld	a1,-32(s0)
	ld	a0,-48(s0)
	call	HBufferImageMovePosition
	.loc 1 1645 10
	li	a5,0
.L215:
	.loc 1 1646 1
	mv	a0,a5
	ld	ra,40(sp)
	.cfi_restore 1
	ld	s0,32(sp)
	.cfi_restore 8
	.cfi_def_cfa 2, 48
	addi	sp,sp,48
	.cfi_def_cfa_offset 0
	jr	ra
	.cfi_endproc
.LFE23:
	.size	HBufferImageScrollDown, .-HBufferImageScrollDown
	.section	.text.HBufferImageScrollUp,"ax",@progbits
	.align	1
	.globl	HBufferImageScrollUp
	.type	HBufferImageScrollUp, @function
HBufferImageScrollUp:
.LFB24:
	.loc 1 1657 1
	.cfi_startproc
	addi	sp,sp,-48
	.cfi_def_cfa_offset 48
	sd	ra,40(sp)
	sd	s0,32(sp)
	.cfi_offset 1, -8
	.cfi_offset 8, -16
	addi	s0,sp,48
	.cfi_def_cfa 8, 0
	.loc 1 1662 8
	lla	a5,HBufferImage
	ld	a5,24(a5)
	sd	a5,-24(s0)
	.loc 1 1664 8
	lla	a5,HBufferImage
	ld	a5,64(a5)
	sd	a5,-32(s0)
	.loc 1 1665 8
	lla	a5,HBufferImage
	ld	a5,72(a5)
	sd	a5,-40(s0)
	.loc 1 1670 17
	ld	a5,-24(s0)
	ld	a4,40(a5)
	.loc 1 1670 42
	lla	a5,HBufferImage
	ld	a5,0(a5)
	.loc 1 1670 6
	beq	a4,a5,.L217
	.loc 1 1671 9
	ld	a5,-32(s0)
	addi	a5,a5,-1
	sd	a5,-32(s0)
	.loc 1 1676 3
	lla	a5,HBufferImage
	lbu	a5,88(a5)
	mv	a2,a5
	ld	a1,-40(s0)
	ld	a0,-32(s0)
	call	HBufferImageMovePosition
	.loc 1 1678 10
	li	a5,0
	j	.L219
.L217:
	.loc 1 1673 12
	li	a5,0
.L219:
	.loc 1 1679 1
	mv	a0,a5
	ld	ra,40(sp)
	.cfi_restore 1
	ld	s0,32(sp)
	.cfi_restore 8
	.cfi_def_cfa 2, 48
	addi	sp,sp,48
	.cfi_def_cfa_offset 0
	jr	ra
	.cfi_endproc
.LFE24:
	.size	HBufferImageScrollUp, .-HBufferImageScrollUp
	.section	.text.HBufferImagePageDown,"ax",@progbits
	.align	1
	.globl	HBufferImagePageDown
	.type	HBufferImagePageDown, @function
HBufferImagePageDown:
.LFB25:
	.loc 1 1690 1
	.cfi_startproc
	addi	sp,sp,-64
	.cfi_def_cfa_offset 64
	sd	ra,56(sp)
	sd	s0,48(sp)
	.cfi_offset 1, -8
	.cfi_offset 8, -16
	addi	s0,sp,64
	.cfi_def_cfa 8, 0
	.loc 1 1697 8
	lla	a5,HBufferImage
	ld	a5,24(a5)
	sd	a5,-48(s0)
	.loc 1 1699 8
	lla	a5,HBufferImage
	ld	a5,64(a5)
	sd	a5,-56(s0)
	.loc 1 1700 8
	lla	a5,HBufferImage
	ld	a5,72(a5)
	sd	a5,-24(s0)
	.loc 1 1701 12
	lla	a5,HBufferImage
	lbu	a5,88(a5)
	sb	a5,-33(s0)
	.loc 1 1706 19
	lla	a5,HBufferImage
	ld	a4,16(a5)
	.loc 1 1706 62
	la	a5,HMainEditor
	ld	a3,16(a5)
	.loc 1 1706 37
	ld	a5,-56(s0)
	add	a5,a3,a5
	addi	a5,a5,-2
	.loc 1 1706 6
	bltu	a4,a5,.L221
	.loc 1 1707 34
	la	a5,HMainEditor
	ld	a5,16(a5)
	.loc 1 1707 9
	addi	a5,a5,-2
	sd	a5,-32(s0)
	j	.L222
.L221:
	.loc 1 1712 23
	lla	a5,HBufferImage
	ld	a4,16(a5)
	.loc 1 1712 9
	ld	a5,-56(s0)
	sub	a5,a4,a5
	sd	a5,-32(s0)
.L222:
	.loc 1 1718 10
	ld	a5,-32(s0)
	mv	a0,a5
	call	HMoveLine@plt
	sd	a0,-48(s0)
	.loc 1 1723 6
	ld	a5,-48(s0)
	beq	a5,zero,.L223
	.loc 1 1723 45 discriminator 1
	ld	a5,-48(s0)
	ld	a5,24(a5)
	.loc 1 1723 30 discriminator 1
	ld	a4,-24(s0)
	bleu	a4,a5,.L223
	.loc 1 1724 16
	ld	a5,-48(s0)
	ld	a5,24(a5)
	.loc 1 1724 10
	addi	a5,a5,1
	sd	a5,-24(s0)
	.loc 1 1725 14
	li	a5,1
	sb	a5,-33(s0)
.L223:
	.loc 1 1728 8
	ld	a4,-56(s0)
	ld	a5,-32(s0)
	add	a5,a4,a5
	sd	a5,-56(s0)
	.loc 1 1730 3
	lbu	a5,-33(s0)
	mv	a2,a5
	ld	a1,-24(s0)
	ld	a0,-56(s0)
	call	HBufferImageMovePosition
	.loc 1 1732 10
	li	a5,0
	.loc 1 1733 1
	mv	a0,a5
	ld	ra,56(sp)
	.cfi_restore 1
	ld	s0,48(sp)
	.cfi_restore 8
	.cfi_def_cfa 2, 64
	addi	sp,sp,64
	.cfi_def_cfa_offset 0
	jr	ra
	.cfi_endproc
.LFE25:
	.size	HBufferImagePageDown, .-HBufferImagePageDown
	.section	.text.HBufferImagePageUp,"ax",@progbits
	.align	1
	.globl	HBufferImagePageUp
	.type	HBufferImagePageUp, @function
HBufferImagePageUp:
.LFB26:
	.loc 1 1744 1
	.cfi_startproc
	addi	sp,sp,-48
	.cfi_def_cfa_offset 48
	sd	ra,40(sp)
	sd	s0,32(sp)
	.cfi_offset 1, -8
	.cfi_offset 8, -16
	addi	s0,sp,48
	.cfi_def_cfa 8, 0
	.loc 1 1750 8
	lla	a5,HBufferImage
	ld	a5,64(a5)
	sd	a5,-32(s0)
	.loc 1 1751 8
	lla	a5,HBufferImage
	ld	a5,72(a5)
	sd	a5,-40(s0)
	.loc 1 1756 37
	la	a5,HMainEditor
	ld	a5,16(a5)
	.loc 1 1756 42
	addi	a5,a5,-2
	.loc 1 1756 6
	ld	a4,-32(s0)
	bleu	a4,a5,.L226
	.loc 1 1757 34
	la	a5,HMainEditor
	ld	a5,16(a5)
	.loc 1 1757 9
	addi	a5,a5,-2
	sd	a5,-24(s0)
	j	.L227
.L226:
	.loc 1 1762 9
	ld	a5,-32(s0)
	addi	a5,a5,-1
	sd	a5,-24(s0)
.L227:
	.loc 1 1765 11
	ld	a5,-24(s0)
	sd	a5,-48(s0)
	.loc 1 1766 11
	ld	a5,-48(s0)
	neg	a5,a5
	sd	a5,-48(s0)
	.loc 1 1768 8
	ld	a4,-32(s0)
	ld	a5,-24(s0)
	sub	a5,a4,a5
	sd	a5,-32(s0)
	.loc 1 1770 3
	lla	a5,HBufferImage
	lbu	a5,88(a5)
	mv	a2,a5
	ld	a1,-40(s0)
	ld	a0,-32(s0)
	call	HBufferImageMovePosition
	.loc 1 1772 10
	li	a5,0
	.loc 1 1773 1
	mv	a0,a5
	ld	ra,40(sp)
	.cfi_restore 1
	ld	s0,32(sp)
	.cfi_restore 8
	.cfi_def_cfa 2, 48
	addi	sp,sp,48
	.cfi_def_cfa_offset 0
	jr	ra
	.cfi_endproc
.LFE26:
	.size	HBufferImagePageUp, .-HBufferImagePageUp
	.section	.text.HBufferImageHome,"ax",@progbits
	.align	1
	.globl	HBufferImageHome
	.type	HBufferImageHome, @function
HBufferImageHome:
.LFB27:
	.loc 1 1784 1
	.cfi_startproc
	addi	sp,sp,-48
	.cfi_def_cfa_offset 48
	sd	ra,40(sp)
	sd	s0,32(sp)
	.cfi_offset 1, -8
	.cfi_offset 8, -16
	addi	s0,sp,48
	.cfi_def_cfa 8, 0
	.loc 1 1792 8
	lla	a5,HBufferImage
	ld	a5,64(a5)
	sd	a5,-24(s0)
	.loc 1 1793 8
	li	a5,1
	sd	a5,-32(s0)
	.loc 1 1794 12
	li	a5,1
	sb	a5,-33(s0)
	.loc 1 1799 3
	lbu	a5,-33(s0)
	mv	a2,a5
	ld	a1,-32(s0)
	ld	a0,-24(s0)
	call	HBufferImageMovePosition
	.loc 1 1801 10
	li	a5,0
	.loc 1 1802 1
	mv	a0,a5
	ld	ra,40(sp)
	.cfi_restore 1
	ld	s0,32(sp)
	.cfi_restore 8
	.cfi_def_cfa 2, 48
	addi	sp,sp,48
	.cfi_def_cfa_offset 0
	jr	ra
	.cfi_endproc
.LFE27:
	.size	HBufferImageHome, .-HBufferImageHome
	.section	.text.HBufferImageEnd,"ax",@progbits
	.align	1
	.globl	HBufferImageEnd
	.type	HBufferImageEnd, @function
HBufferImageEnd:
.LFB28:
	.loc 1 1813 1
	.cfi_startproc
	addi	sp,sp,-48
	.cfi_def_cfa_offset 48
	sd	ra,40(sp)
	sd	s0,32(sp)
	.cfi_offset 1, -8
	.cfi_offset 8, -16
	addi	s0,sp,48
	.cfi_def_cfa 8, 0
	.loc 1 1822 32
	lla	a5,HBufferImageMouseNeedRefresh
	li	a4,1
	sb	a4,0(a5)
	.loc 1 1824 8
	lla	a5,HBufferImage
	ld	a5,24(a5)
	sd	a5,-40(s0)
	.loc 1 1826 8
	lla	a5,HBufferImage
	ld	a5,64(a5)
	sd	a5,-48(s0)
	.loc 1 1828 11
	ld	a5,-40(s0)
	ld	a4,24(a5)
	.loc 1 1828 6
	li	a5,16
	bne	a4,a5,.L232
	.loc 1 1829 10
	ld	a5,-40(s0)
	ld	a5,24(a5)
	sd	a5,-24(s0)
	.loc 1 1830 14
	sb	zero,-25(s0)
	j	.L233
.L232:
	.loc 1 1832 16
	ld	a5,-40(s0)
	ld	a5,24(a5)
	.loc 1 1832 10
	addi	a5,a5,1
	sd	a5,-24(s0)
	.loc 1 1833 14
	li	a5,1
	sb	a5,-25(s0)
.L233:
	.loc 1 1839 3
	lbu	a5,-25(s0)
	mv	a2,a5
	ld	a1,-24(s0)
	ld	a0,-48(s0)
	call	HBufferImageMovePosition
	.loc 1 1841 10
	li	a5,0
	.loc 1 1842 1
	mv	a0,a5
	ld	ra,40(sp)
	.cfi_restore 1
	ld	s0,32(sp)
	.cfi_restore 8
	.cfi_def_cfa 2, 48
	addi	sp,sp,48
	.cfi_def_cfa_offset 0
	jr	ra
	.cfi_endproc
.LFE28:
	.size	HBufferImageEnd, .-HBufferImageEnd
	.section	.text.HBufferImageGetTotalSize,"ax",@progbits
	.align	1
	.globl	HBufferImageGetTotalSize
	.type	HBufferImageGetTotalSize, @function
HBufferImageGetTotalSize:
.LFB29:
	.loc 1 1853 1
	.cfi_startproc
	addi	sp,sp,-32
	.cfi_def_cfa_offset 32
	sd	ra,24(sp)
	sd	s0,16(sp)
	.cfi_offset 1, -8
	.cfi_offset 8, -16
	addi	s0,sp,32
	.cfi_def_cfa 8, 0
	.loc 1 1861 19
	lla	a5,HBufferImage
	ld	a5,8(a5)
	.loc 1 1861 6
	bne	a5,zero,.L236
	.loc 1 1862 12
	li	a5,0
	j	.L237
.L236:
	.loc 1 1865 66
	lla	a5,HBufferImage
	ld	a5,0(a5)
	.loc 1 1865 75
	ld	a5,8(a5)
	.loc 1 1865 12
	addi	a5,a5,-32
	.loc 1 1865 143
	ld	a4,0(a5)
	.loc 1 1865 228
	li	a5,1819041792
	addi	a5,a5,1381
	bne	a4,a5,.L238
	.loc 1 1865 285 discriminator 1
	lla	a5,HBufferImage
	ld	a5,0(a5)
	.loc 1 1865 294 discriminator 1
	ld	a5,8(a5)
	.loc 1 1865 8 discriminator 1
	addi	a5,a5,-32
	sd	a5,-24(s0)
	j	.L239
.L238:
	.loc 1 1865 8 is_stmt 0 discriminator 2
	sd	zero,-24(s0)
.L239:
	.loc 1 1874 30 is_stmt 1
	lla	a5,HBufferImage
	ld	a5,16(a5)
	.loc 1 1874 40
	addi	a5,a5,-1
	.loc 1 1874 15
	slli	a4,a5,4
	.loc 1 1874 51
	ld	a5,-24(s0)
	ld	a5,24(a5)
	.loc 1 1874 8
	add	a5,a4,a5
	sd	a5,-32(s0)
	.loc 1 1876 10
	ld	a5,-32(s0)
.L237:
	.loc 1 1877 1
	mv	a0,a5
	ld	ra,24(sp)
	.cfi_restore 1
	ld	s0,16(sp)
	.cfi_restore 8
	.cfi_def_cfa 2, 32
	addi	sp,sp,32
	.cfi_def_cfa_offset 0
	jr	ra
	.cfi_endproc
.LFE29:
	.size	HBufferImageGetTotalSize, .-HBufferImageGetTotalSize
	.section	.text.HBufferImageDeleteCharacterFromBuffer,"ax",@progbits
	.align	1
	.globl	HBufferImageDeleteCharacterFromBuffer
	.type	HBufferImageDeleteCharacterFromBuffer, @function
HBufferImageDeleteCharacterFromBuffer:
.LFB30:
	.loc 1 1894 1
	.cfi_startproc
	addi	sp,sp,-144
	.cfi_def_cfa_offset 144
	sd	ra,136(sp)
	sd	s0,128(sp)
	.cfi_offset 1, -8
	.cfi_offset 8, -16
	addi	s0,sp,144
	.cfi_def_cfa 8, 0
	sd	a0,-120(s0)
	sd	a1,-128(s0)
	sd	a2,-136(s0)
	.loc 1 1912 10
	call	HBufferImageGetTotalSize
	sd	a0,-56(s0)
	.loc 1 1914 6
	ld	a4,-56(s0)
	ld	a5,-128(s0)
	bgeu	a4,a5,.L241
	.loc 1 1915 12
	li	a5,-1
	slli	a5,a5,63
	addi	a5,a5,1
	j	.L242
.L241:
	.loc 1 1918 6
	ld	a5,-56(s0)
	bne	a5,zero,.L243
	.loc 1 1919 12
	li	a5,0
	j	.L242
.L243:
	.loc 1 1925 11
	lla	a5,HBufferImage
	ld	a5,64(a5)
	sd	a5,-64(s0)
	.loc 1 1926 11
	lla	a5,HBufferImage
	ld	a5,72(a5)
	sd	a5,-72(s0)
	.loc 1 1927 21
	ld	a5,-64(s0)
	addi	a5,a5,-1
	.loc 1 1927 26
	slli	a4,a5,4
	.loc 1 1927 33
	ld	a5,-72(s0)
	add	a5,a4,a5
	.loc 1 1927 10
	addi	a5,a5,-1
	sd	a5,-80(s0)
	.loc 1 1929 6
	ld	a5,-120(s0)
	beq	a5,zero,.L244
	.loc 1 1934 12
	ld	a5,-120(s0)
	addi	a5,a5,-1
	sd	a5,-48(s0)
	j	.L245
.L244:
	.loc 1 1940 12
	sd	zero,-48(s0)
.L245:
	.loc 1 1943 36
	ld	a5,-48(s0)
	srli	a5,a5,4
	.loc 1 1943 3
	addi	a4,a5,1
	.loc 1 1943 55
	ld	a5,-48(s0)
	andi	a5,a5,15
	.loc 1 1943 3
	addi	a5,a5,1
	li	a2,1
	mv	a1,a5
	mv	a0,a4
	call	HBufferImageMovePosition
	.loc 1 1945 12
	ld	a0,-56(s0)
	call	AllocateZeroPool@plt
	sd	a0,-88(s0)
	.loc 1 1946 6
	ld	a5,-88(s0)
	bne	a5,zero,.L246
	.loc 1 1947 12
	li	a5,-1
	slli	a5,a5,63
	addi	a5,a5,9
	j	.L242
.L246:
	.loc 1 1950 3
	ld	a1,-56(s0)
	ld	a0,-88(s0)
	call	HBufferImageListToBuffer
	.loc 1 1952 13
	ld	a5,-88(s0)
	sd	a5,-96(s0)
	.loc 1 1957 6
	ld	a5,-136(s0)
	beq	a5,zero,.L247
	.loc 1 1958 16
	sd	zero,-24(s0)
	.loc 1 1958 5
	j	.L248
.L249:
	.loc 1 1959 43
	ld	a4,-120(s0)
	ld	a5,-24(s0)
	add	a5,a4,a5
	.loc 1 1959 38
	ld	a4,-96(s0)
	add	a4,a4,a5
	.loc 1 1959 19
	ld	a3,-136(s0)
	ld	a5,-24(s0)
	add	a5,a3,a5
	.loc 1 1959 38
	lbu	a4,0(a4)
	.loc 1 1959 27
	sb	a4,0(a5)
	.loc 1 1958 41 discriminator 3
	ld	a5,-24(s0)
	addi	a5,a5,1
	sd	a5,-24(s0)
.L248:
	.loc 1 1958 27 discriminator 1
	ld	a4,-24(s0)
	ld	a5,-128(s0)
	bltu	a4,a5,.L249
.L247:
	.loc 1 1966 14
	ld	a5,-120(s0)
	sd	a5,-24(s0)
	.loc 1 1966 3
	j	.L250
.L251:
	.loc 1 1967 40
	ld	a4,-24(s0)
	ld	a5,-128(s0)
	add	a5,a4,a5
	.loc 1 1967 33
	ld	a4,-96(s0)
	add	a4,a4,a5
	.loc 1 1967 14
	ld	a3,-96(s0)
	ld	a5,-24(s0)
	add	a5,a3,a5
	.loc 1 1967 33
	lbu	a4,0(a4)
	.loc 1 1967 22
	sb	a4,0(a5)
	.loc 1 1966 48 discriminator 3
	ld	a5,-24(s0)
	addi	a5,a5,1
	sd	a5,-24(s0)
.L250:
	.loc 1 1966 34 discriminator 1
	ld	a4,-56(s0)
	ld	a5,-128(s0)
	sub	a5,a4,a5
	.loc 1 1966 27 discriminator 1
	ld	a4,-24(s0)
	bltu	a4,a5,.L251
	.loc 1 1970 8
	ld	a4,-56(s0)
	ld	a5,-128(s0)
	sub	a5,a4,a5
	sd	a5,-56(s0)
	.loc 1 1972 3
	call	HBufferImageFreeLines
	.loc 1 1974 12
	ld	a1,-56(s0)
	ld	a0,-88(s0)
	call	HBufferImageBufferToList
	sd	a0,-104(s0)
	.loc 1 1975 3
	ld	a0,-88(s0)
	call	FreePool@plt
	.loc 1 1977 34
	ld	a5,-104(s0)
	.loc 1 1977 6
	bge	a5,zero,.L252
	.loc 1 1978 12
	ld	a5,-104(s0)
	j	.L242
.L252:
	.loc 1 1981 21
	la	a5,HMainEditor
	ld	a5,0(a5)
	.loc 1 1981 33
	ld	a5,0(a5)
	.loc 1 1981 8
	ld	a5,0(a5)
	sd	a5,-40(s0)
	.loc 1 1982 14
	sd	zero,-24(s0)
	.loc 1 1982 3
	j	.L253
.L254:
	.loc 1 1983 10
	ld	a5,-40(s0)
	ld	a5,0(a5)
	sd	a5,-40(s0)
	.loc 1 1982 47 discriminator 3
	ld	a5,-24(s0)
	addi	a5,a5,1
	sd	a5,-24(s0)
.L253:
	.loc 1 1982 34 discriminator 1
	ld	a5,-48(s0)
	srli	a5,a5,4
	.loc 1 1982 25 discriminator 1
	ld	a4,-24(s0)
	bltu	a4,a5,.L254
	.loc 1 1986 12
	ld	a5,-40(s0)
	addi	a5,a5,-32
	.loc 1 1986 116
	ld	a4,0(a5)
	.loc 1 1986 201
	li	a5,1819041792
	addi	a5,a5,1381
	bne	a4,a5,.L255
	.loc 1 1986 8 discriminator 1
	ld	a5,-40(s0)
	addi	a5,a5,-32
	sd	a5,-32(s0)
	j	.L256
.L255:
	.loc 1 1986 8 is_stmt 0 discriminator 2
	sd	zero,-32(s0)
.L256:
	.loc 1 1987 28 is_stmt 1
	lla	a5,HBufferImage
	ld	a4,-32(s0)
	sd	a4,24(a5)
	.loc 1 1993 6
	ld	a4,-80(s0)
	ld	a5,-120(s0)
	bltu	a4,a5,.L257
	.loc 1 1993 41 discriminator 1
	ld	a4,-120(s0)
	ld	a5,-128(s0)
	add	a5,a4,a5
	.loc 1 1993 23 discriminator 1
	ld	a4,-80(s0)
	bgeu	a4,a5,.L257
	.loc 1 1994 12
	ld	a5,-120(s0)
	sd	a5,-48(s0)
	j	.L258
.L257:
	.loc 1 1996 8
	ld	a4,-80(s0)
	ld	a5,-120(s0)
	bgeu	a4,a5,.L259
	.loc 1 1997 14
	ld	a5,-80(s0)
	sd	a5,-48(s0)
	j	.L258
.L259:
	.loc 1 1999 14
	ld	a4,-80(s0)
	ld	a5,-128(s0)
	sub	a5,a4,a5
	sd	a5,-48(s0)
.L258:
	.loc 1 2003 36
	ld	a5,-48(s0)
	srli	a5,a5,4
	.loc 1 2003 3
	addi	a4,a5,1
	.loc 1 2003 55
	ld	a5,-48(s0)
	andi	a5,a5,15
	.loc 1 2003 3
	addi	a5,a5,1
	li	a2,1
	mv	a1,a5
	mv	a0,a4
	call	HBufferImageMovePosition
	.loc 1 2005 10
	li	a5,0
.L242:
	.loc 1 2006 1
	mv	a0,a5
	ld	ra,136(sp)
	.cfi_restore 1
	ld	s0,128(sp)
	.cfi_restore 8
	.cfi_def_cfa 2, 144
	addi	sp,sp,144
	.cfi_def_cfa_offset 0
	jr	ra
	.cfi_endproc
.LFE30:
	.size	HBufferImageDeleteCharacterFromBuffer, .-HBufferImageDeleteCharacterFromBuffer
	.section	.text.HBufferImageAddCharacterToBuffer,"ax",@progbits
	.align	1
	.globl	HBufferImageAddCharacterToBuffer
	.type	HBufferImageAddCharacterToBuffer, @function
HBufferImageAddCharacterToBuffer:
.LFB31:
	.loc 1 2023 1
	.cfi_startproc
	addi	sp,sp,-128
	.cfi_def_cfa_offset 128
	sd	ra,120(sp)
	sd	s0,112(sp)
	.cfi_offset 1, -8
	.cfi_offset 8, -16
	addi	s0,sp,128
	.cfi_def_cfa 8, 0
	sd	a0,-104(s0)
	sd	a1,-112(s0)
	sd	a2,-120(s0)
	.loc 1 2040 10
	call	HBufferImageGetTotalSize
	sd	a0,-56(s0)
	.loc 1 2045 11
	lla	a5,HBufferImage
	ld	a5,64(a5)
	sd	a5,-64(s0)
	.loc 1 2046 11
	lla	a5,HBufferImage
	ld	a5,72(a5)
	sd	a5,-72(s0)
	.loc 1 2047 21
	ld	a5,-64(s0)
	addi	a5,a5,-1
	.loc 1 2047 26
	slli	a4,a5,4
	.loc 1 2047 33
	ld	a5,-72(s0)
	add	a5,a4,a5
	.loc 1 2047 10
	addi	a5,a5,-1
	sd	a5,-80(s0)
	.loc 1 2052 6
	ld	a5,-104(s0)
	beq	a5,zero,.L261
	.loc 1 2053 12
	ld	a5,-104(s0)
	addi	a5,a5,-1
	sd	a5,-48(s0)
	j	.L262
.L261:
	.loc 1 2055 12
	sd	zero,-48(s0)
.L262:
	.loc 1 2058 36
	ld	a5,-48(s0)
	srli	a5,a5,4
	.loc 1 2058 3
	addi	a4,a5,1
	.loc 1 2058 55
	ld	a5,-48(s0)
	andi	a5,a5,15
	.loc 1 2058 3
	addi	a5,a5,1
	li	a2,1
	mv	a1,a5
	mv	a0,a4
	call	HBufferImageMovePosition
	.loc 1 2060 12
	ld	a4,-56(s0)
	ld	a5,-112(s0)
	add	a5,a4,a5
	mv	a0,a5
	call	AllocateZeroPool@plt
	sd	a0,-88(s0)
	.loc 1 2061 6
	ld	a5,-88(s0)
	bne	a5,zero,.L263
	.loc 1 2062 12
	li	a5,-1
	slli	a5,a5,63
	addi	a5,a5,9
	j	.L264
.L263:
	.loc 1 2065 3
	ld	a1,-56(s0)
	ld	a0,-88(s0)
	call	HBufferImageListToBuffer
	.loc 1 2067 13
	ld	a5,-88(s0)
	sd	a5,-96(s0)
	.loc 1 2072 28
	ld	a4,-56(s0)
	ld	a5,-112(s0)
	add	a5,a4,a5
	.loc 1 2072 36
	addi	a5,a5,-1
	.loc 1 2072 14
	sd	a5,-24(s0)
	.loc 1 2072 3
	j	.L265
.L266:
	.loc 1 2073 40
	ld	a4,-24(s0)
	ld	a5,-112(s0)
	sub	a5,a4,a5
	.loc 1 2073 33
	ld	a4,-96(s0)
	add	a4,a4,a5
	.loc 1 2073 14
	ld	a5,-24(s0)
	ld	a3,-96(s0)
	add	a5,a3,a5
	.loc 1 2073 33
	lbu	a4,0(a4)
	.loc 1 2073 22
	sb	a4,0(a5)
	.loc 1 2072 67 discriminator 3
	ld	a5,-24(s0)
	addi	a5,a5,-1
	sd	a5,-24(s0)
.L265:
	.loc 1 2072 48 discriminator 1
	ld	a5,-104(s0)
	ld	a4,-24(s0)
	bge	a4,a5,.L266
	.loc 1 2079 14
	sd	zero,-24(s0)
	.loc 1 2079 3
	j	.L267
.L268:
	.loc 1 2080 39
	ld	a5,-24(s0)
	ld	a4,-120(s0)
	add	a4,a4,a5
	.loc 1 2080 21
	ld	a3,-24(s0)
	ld	a5,-104(s0)
	add	a5,a3,a5
	.loc 1 2080 14
	ld	a3,-96(s0)
	add	a5,a3,a5
	.loc 1 2080 39
	lbu	a4,0(a4)
	.loc 1 2080 28
	sb	a4,0(a5)
	.loc 1 2079 51 discriminator 3
	ld	a5,-24(s0)
	addi	a5,a5,1
	sd	a5,-24(s0)
.L267:
	.loc 1 2079 31 discriminator 1
	ld	a5,-112(s0)
	ld	a4,-24(s0)
	blt	a4,a5,.L268
	.loc 1 2083 8
	ld	a4,-56(s0)
	ld	a5,-112(s0)
	add	a5,a4,a5
	sd	a5,-56(s0)
	.loc 1 2085 3
	call	HBufferImageFreeLines
	.loc 1 2087 3
	ld	a1,-56(s0)
	ld	a0,-88(s0)
	call	HBufferImageBufferToList
	.loc 1 2089 3
	ld	a0,-88(s0)
	call	FreePool@plt
	.loc 1 2091 21
	la	a5,HMainEditor
	ld	a5,0(a5)
	.loc 1 2091 33
	ld	a5,0(a5)
	.loc 1 2091 8
	ld	a5,0(a5)
	sd	a5,-40(s0)
	.loc 1 2092 14
	sd	zero,-24(s0)
	.loc 1 2092 3
	j	.L269
.L270:
	.loc 1 2093 10
	ld	a5,-40(s0)
	ld	a5,0(a5)
	sd	a5,-40(s0)
	.loc 1 2092 53 discriminator 3
	ld	a5,-24(s0)
	addi	a5,a5,1
	sd	a5,-24(s0)
.L269:
	.loc 1 2092 27 discriminator 1
	ld	a5,-48(s0)
	.loc 1 2092 40 discriminator 1
	srai	a4,a5,63
	andi	a4,a4,15
	add	a5,a4,a5
	srai	a5,a5,4
	mv	a4,a5
	.loc 1 2092 25 discriminator 1
	ld	a5,-24(s0)
	blt	a5,a4,.L270
	.loc 1 2096 12
	ld	a5,-40(s0)
	addi	a5,a5,-32
	.loc 1 2096 116
	ld	a4,0(a5)
	.loc 1 2096 201
	li	a5,1819041792
	addi	a5,a5,1381
	bne	a4,a5,.L271
	.loc 1 2096 8 discriminator 1
	ld	a5,-40(s0)
	addi	a5,a5,-32
	sd	a5,-32(s0)
	j	.L272
.L271:
	.loc 1 2096 8 is_stmt 0 discriminator 2
	sd	zero,-32(s0)
.L272:
	.loc 1 2097 28 is_stmt 1
	lla	a5,HBufferImage
	ld	a4,-32(s0)
	sd	a4,24(a5)
	.loc 1 2099 6
	ld	a4,-80(s0)
	ld	a5,-104(s0)
	bltu	a4,a5,.L273
	.loc 1 2100 12
	ld	a4,-80(s0)
	ld	a5,-112(s0)
	add	a5,a4,a5
	sd	a5,-48(s0)
	j	.L274
.L273:
	.loc 1 2102 12
	ld	a5,-80(s0)
	sd	a5,-48(s0)
.L274:
	.loc 1 2105 36
	ld	a5,-48(s0)
	srli	a5,a5,4
	.loc 1 2105 3
	addi	a4,a5,1
	.loc 1 2105 55
	ld	a5,-48(s0)
	andi	a5,a5,15
	.loc 1 2105 3
	addi	a5,a5,1
	li	a2,1
	mv	a1,a5
	mv	a0,a4
	call	HBufferImageMovePosition
	.loc 1 2107 10
	li	a5,0
.L264:
	.loc 1 2108 1
	mv	a0,a5
	ld	ra,120(sp)
	.cfi_restore 1
	ld	s0,112(sp)
	.cfi_restore 8
	.cfi_def_cfa 2, 128
	addi	sp,sp,128
	.cfi_def_cfa_offset 0
	jr	ra
	.cfi_endproc
.LFE31:
	.size	HBufferImageAddCharacterToBuffer, .-HBufferImageAddCharacterToBuffer
	.section	.text.HBufferImageDoDelete,"ax",@progbits
	.align	1
	.globl	HBufferImageDoDelete
	.type	HBufferImageDoDelete, @function
HBufferImageDoDelete:
.LFB32:
	.loc 1 2119 1
	.cfi_startproc
	addi	sp,sp,-48
	.cfi_def_cfa_offset 48
	sd	ra,40(sp)
	sd	s0,32(sp)
	.cfi_offset 1, -8
	.cfi_offset 8, -16
	addi	s0,sp,48
	.cfi_def_cfa 8, 0
	.loc 1 2126 38
	lla	a5,HBufferImage
	ld	a5,64(a5)
	.loc 1 2126 43
	addi	a5,a5,-1
	.loc 1 2126 48
	slli	a4,a5,4
	.loc 1 2126 84
	lla	a5,HBufferImage
	ld	a5,72(a5)
	.loc 1 2126 55
	add	a5,a4,a5
	.loc 1 2126 8
	addi	a5,a5,-1
	sd	a5,-32(s0)
	.loc 1 2128 14
	lla	a5,HBufferImage
	ld	a5,72(a5)
	sd	a5,-40(s0)
	.loc 1 2130 8
	lla	a5,HBufferImage
	ld	a5,24(a5)
	sd	a5,-48(s0)
	.loc 1 2135 24
	ld	a5,-48(s0)
	ld	a5,24(a5)
	.loc 1 2135 6
	ld	a4,-40(s0)
	bleu	a4,a5,.L276
	.loc 1 2136 12
	li	a5,0
	j	.L277
.L276:
	.loc 1 2139 12
	sb	zero,-17(s0)
	.loc 1 2140 17
	ld	a5,-48(s0)
	ld	a4,32(a5)
	.loc 1 2140 45
	lla	a5,HBufferImage
	ld	a5,0(a5)
	.loc 1 2140 6
	bne	a4,a5,.L278
	.loc 1 2141 14
	li	a5,1
	sb	a5,-17(s0)
.L278:
	.loc 1 2144 3
	li	a2,0
	li	a1,1
	ld	a0,-32(s0)
	call	HBufferImageDeleteCharacterFromBuffer
	.loc 1 2150 6
	lbu	a5,-17(s0)
	andi	a5,a5,0xff
	beq	a5,zero,.L279
	.loc 1 2151 29
	lla	a5,HBufferImageNeedRefresh
	sb	zero,0(a5)
	.loc 1 2152 37
	lla	a5,HBufferImageOnlyLineNeedRefresh
	li	a4,1
	sb	a4,0(a5)
	j	.L280
.L279:
	.loc 1 2154 29
	lla	a5,HBufferImageNeedRefresh
	li	a4,1
	sb	a4,0(a5)
	.loc 1 2155 37
	lla	a5,HBufferImageOnlyLineNeedRefresh
	sb	zero,0(a5)
.L280:
	.loc 1 2158 20
	lla	a5,HBufferImage
	lbu	a5,89(a5)
	.loc 1 2158 6
	bne	a5,zero,.L281
	.loc 1 2159 27
	lla	a5,HBufferImage
	li	a4,1
	sb	a4,89(a5)
.L281:
	.loc 1 2162 10
	li	a5,0
.L277:
	.loc 1 2163 1
	mv	a0,a5
	ld	ra,40(sp)
	.cfi_restore 1
	ld	s0,32(sp)
	.cfi_restore 8
	.cfi_def_cfa 2, 48
	addi	sp,sp,48
	.cfi_def_cfa_offset 0
	jr	ra
	.cfi_endproc
.LFE32:
	.size	HBufferImageDoDelete, .-HBufferImageDoDelete
	.section	.text.HBufferImageBufferToList,"ax",@progbits
	.align	1
	.globl	HBufferImageBufferToList
	.type	HBufferImageBufferToList, @function
HBufferImageBufferToList:
.LFB33:
	.loc 1 2179 1
	.cfi_startproc
	addi	sp,sp,-80
	.cfi_def_cfa_offset 80
	sd	ra,72(sp)
	sd	s0,64(sp)
	.cfi_offset 1, -8
	.cfi_offset 8, -16
	addi	s0,sp,80
	.cfi_def_cfa 8, 0
	sd	a0,-72(s0)
	sd	a1,-80(s0)
	.loc 1 2186 9
	sd	zero,-24(s0)
	.loc 1 2187 8
	sd	zero,-40(s0)
	.loc 1 2188 13
	ld	a5,-72(s0)
	sd	a5,-48(s0)
	.loc 1 2193 9
	j	.L283
.L290:
	.loc 1 2194 15
	ld	a4,-80(s0)
	ld	a5,-24(s0)
	sub	a4,a4,a5
	.loc 1 2194 8
	li	a5,15
	bleu	a4,a5,.L284
	.loc 1 2195 12
	li	a5,16
	sd	a5,-40(s0)
	j	.L285
.L284:
	.loc 1 2197 12
	ld	a4,-80(s0)
	ld	a5,-24(s0)
	sub	a5,a4,a5
	sd	a5,-40(s0)
.L285:
	.loc 1 2203 12
	call	HBufferImageCreateLine
	sd	a0,-56(s0)
	.loc 1 2204 8
	ld	a5,-56(s0)
	bne	a5,zero,.L286
	.loc 1 2205 14
	li	a5,-1
	slli	a5,a5,63
	addi	a5,a5,9
	j	.L287
.L286:
	.loc 1 2208 16
	ld	a5,-56(s0)
	ld	a4,-40(s0)
	sd	a4,24(a5)
	.loc 1 2210 16
	sd	zero,-32(s0)
	.loc 1 2210 5
	j	.L288
.L289:
	.loc 1 2211 38
	ld	a4,-48(s0)
	ld	a5,-24(s0)
	add	a5,a4,a5
	lbu	a4,0(a5)
	.loc 1 2211 27
	ld	a3,-56(s0)
	ld	a5,-32(s0)
	add	a5,a3,a5
	sb	a4,8(a5)
	.loc 1 2212 12
	ld	a5,-24(s0)
	addi	a5,a5,1
	sd	a5,-24(s0)
	.loc 1 2210 40 discriminator 3
	ld	a5,-32(s0)
	addi	a5,a5,1
	sd	a5,-32(s0)
.L288:
	.loc 1 2210 27 discriminator 1
	ld	a4,-32(s0)
	ld	a5,-40(s0)
	bltu	a4,a5,.L289
.L283:
	.loc 1 2193 16
	ld	a4,-24(s0)
	ld	a5,-80(s0)
	bltu	a4,a5,.L290
	.loc 1 2219 6
	ld	a4,-40(s0)
	li	a5,16
	beq	a4,a5,.L291
	.loc 1 2219 22 discriminator 1
	ld	a5,-80(s0)
	bne	a5,zero,.L292
.L291:
	.loc 1 2220 12
	call	HBufferImageCreateLine
	sd	a0,-56(s0)
	.loc 1 2221 8
	ld	a5,-56(s0)
	bne	a5,zero,.L292
	.loc 1 2222 14
	li	a5,-1
	slli	a5,a5,63
	addi	a5,a5,9
	j	.L287
.L292:
	.loc 1 2226 10
	li	a5,0
.L287:
	.loc 1 2227 1
	mv	a0,a5
	ld	ra,72(sp)
	.cfi_restore 1
	ld	s0,64(sp)
	.cfi_restore 8
	.cfi_def_cfa 2, 80
	addi	sp,sp,80
	.cfi_def_cfa_offset 0
	jr	ra
	.cfi_endproc
.LFE33:
	.size	HBufferImageBufferToList, .-HBufferImageBufferToList
	.section	.text.HBufferImageListToBuffer,"ax",@progbits
	.align	1
	.globl	HBufferImageListToBuffer
	.type	HBufferImageListToBuffer, @function
HBufferImageListToBuffer:
.LFB34:
	.loc 1 2242 1
	.cfi_startproc
	addi	sp,sp,-80
	.cfi_def_cfa_offset 80
	sd	ra,72(sp)
	sd	s0,64(sp)
	.cfi_offset 1, -8
	.cfi_offset 8, -16
	addi	s0,sp,80
	.cfi_def_cfa 8, 0
	sd	a0,-72(s0)
	sd	a1,-80(s0)
	.loc 1 2252 19
	lla	a5,HBufferImage
	ld	a5,8(a5)
	.loc 1 2252 6
	bne	a5,zero,.L294
	.loc 1 2253 12
	li	a5,0
	j	.L295
.L294:
	.loc 1 2256 23
	lla	a5,HBufferImage
	ld	a5,8(a5)
	.loc 1 2256 8
	addi	a5,a5,32
	sd	a5,-48(s0)
	.loc 1 2257 9
	sd	zero,-24(s0)
	.loc 1 2258 13
	ld	a5,-72(s0)
	sd	a5,-56(s0)
	.loc 1 2263 9
	j	.L296
.L302:
	.loc 1 2264 14
	ld	a5,-48(s0)
	addi	a5,a5,-32
	.loc 1 2264 118
	ld	a4,0(a5)
	.loc 1 2264 203
	li	a5,1819041792
	addi	a5,a5,1381
	bne	a4,a5,.L297
	.loc 1 2264 10 discriminator 1
	ld	a5,-48(s0)
	addi	a5,a5,-32
	sd	a5,-40(s0)
	j	.L298
.L297:
	.loc 1 2264 10 is_stmt 0 discriminator 2
	sd	zero,-40(s0)
.L298:
	.loc 1 2267 21 is_stmt 1
	ld	a5,-40(s0)
	ld	a4,24(a5)
	.loc 1 2267 15
	ld	a5,-24(s0)
	add	a5,a4,a5
	.loc 1 2267 8
	ld	a4,-80(s0)
	bgeu	a4,a5,.L299
	.loc 1 2268 14
	li	a5,0
	j	.L295
.L299:
	.loc 1 2271 16
	sd	zero,-32(s0)
	.loc 1 2271 5
	j	.L300
.L301:
	.loc 1 2272 16
	ld	a4,-56(s0)
	ld	a5,-32(s0)
	add	a5,a4,a5
	.loc 1 2272 38
	ld	a3,-40(s0)
	ld	a4,-32(s0)
	add	a4,a3,a4
	lbu	a4,8(a4)
	.loc 1 2272 24
	sb	a4,0(a5)
	.loc 1 2271 46 discriminator 3
	ld	a5,-32(s0)
	addi	a5,a5,1
	sd	a5,-32(s0)
.L300:
	.loc 1 2271 33 discriminator 1
	ld	a5,-40(s0)
	ld	a5,24(a5)
	.loc 1 2271 27 discriminator 1
	ld	a4,-32(s0)
	bltu	a4,a5,.L301
	.loc 1 2275 18
	ld	a5,-40(s0)
	ld	a5,24(a5)
	.loc 1 2275 11
	ld	a4,-24(s0)
	add	a5,a4,a5
	sd	a5,-24(s0)
	.loc 1 2276 22
	ld	a5,-40(s0)
	ld	a5,24(a5)
	.loc 1 2276 15
	ld	a4,-56(s0)
	add	a5,a4,a5
	sd	a5,-56(s0)
	.loc 1 2278 10
	ld	a5,-48(s0)
	ld	a5,0(a5)
	sd	a5,-48(s0)
.L296:
	.loc 1 2263 30
	lla	a5,HBufferImage
	ld	a5,0(a5)
	.loc 1 2263 15
	ld	a4,-48(s0)
	bne	a4,a5,.L302
	.loc 1 2281 10
	li	a5,0
.L295:
	.loc 1 2282 1
	mv	a0,a5
	ld	ra,72(sp)
	.cfi_restore 1
	ld	s0,64(sp)
	.cfi_restore 8
	.cfi_def_cfa 2, 80
	addi	sp,sp,80
	.cfi_def_cfa_offset 0
	jr	ra
	.cfi_endproc
.LFE34:
	.size	HBufferImageListToBuffer, .-HBufferImageListToBuffer
	.section	.text.HBufferImageAdjustMousePosition,"ax",@progbits
	.align	1
	.globl	HBufferImageAdjustMousePosition
	.type	HBufferImageAdjustMousePosition, @function
HBufferImageAdjustMousePosition:
.LFB35:
	.loc 1 2295 1
	.cfi_startproc
	addi	sp,sp,-64
	.cfi_def_cfa_offset 64
	sd	ra,56(sp)
	sd	s0,48(sp)
	.cfi_offset 1, -8
	.cfi_offset 8, -16
	addi	s0,sp,64
	.cfi_def_cfa 8, 0
	mv	a5,a0
	mv	a4,a1
	sw	a5,-52(s0)
	mv	a5,a4
	sw	a5,-56(s0)
	.loc 1 2308 6
	lw	a5,-52(s0)
	sext.w	a5,a5
	blt	a5,zero,.L304
	.loc 1 2309 10
	lw	a5,-52(s0)
	sd	a5,-40(s0)
	j	.L305
.L304:
	.loc 1 2311 12
	lw	a5,-52(s0)
	negw	a5,a5
	sext.w	a5,a5
	.loc 1 2311 10
	sd	a5,-40(s0)
.L305:
	.loc 1 2317 6
	lw	a5,-56(s0)
	sext.w	a5,a5
	blt	a5,zero,.L306
	.loc 1 2318 10
	lw	a5,-56(s0)
	sd	a5,-48(s0)
	j	.L307
.L306:
	.loc 1 2320 12
	lw	a5,-56(s0)
	negw	a5,a5
	sext.w	a5,a5
	.loc 1 2320 10
	sd	a5,-48(s0)
.L307:
	.loc 1 2323 9
	lla	a5,HBufferImage
	ld	a5,56(a5)
	sd	a5,-24(s0)
	.loc 1 2324 9
	lla	a5,HBufferImage
	ld	a5,48(a5)
	sd	a5,-32(s0)
	.loc 1 2326 6
	lw	a5,-52(s0)
	sext.w	a5,a5
	blt	a5,zero,.L308
	.loc 1 2327 11
	lw	a5,-52(s0)
	ld	a4,-24(s0)
	add	a5,a4,a5
	sd	a5,-24(s0)
	j	.L309
.L308:
	.loc 1 2329 8
	ld	a4,-24(s0)
	ld	a5,-40(s0)
	bltu	a4,a5,.L310
	.loc 1 2330 13
	ld	a4,-24(s0)
	ld	a5,-40(s0)
	sub	a5,a4,a5
	sd	a5,-24(s0)
	j	.L309
.L310:
	.loc 1 2332 13
	sd	zero,-24(s0)
.L309:
	.loc 1 2336 6
	lw	a5,-56(s0)
	sext.w	a5,a5
	blt	a5,zero,.L311
	.loc 1 2337 11
	lw	a5,-56(s0)
	ld	a4,-32(s0)
	add	a5,a4,a5
	sd	a5,-32(s0)
	j	.L312
.L311:
	.loc 1 2339 8
	ld	a4,-32(s0)
	ld	a5,-48(s0)
	bltu	a4,a5,.L313
	.loc 1 2340 13
	ld	a4,-32(s0)
	ld	a5,-48(s0)
	sub	a5,a4,a5
	sd	a5,-32(s0)
	j	.L312
.L313:
	.loc 1 2342 13
	sd	zero,-32(s0)
.L312:
	.loc 1 2350 6
	ld	a4,-24(s0)
	li	a5,9
	bleu	a4,a5,.L314
	.loc 1 2350 21 discriminator 1
	ld	a4,-24(s0)
	li	a5,57
	bgtu	a4,a5,.L314
	.loc 1 2351 39
	lla	a5,HBufferImage
	ld	a4,-24(s0)
	sd	a4,56(a5)
	j	.L315
.L314:
	.loc 1 2352 13
	ld	a4,-24(s0)
	li	a5,9
	bgtu	a4,a5,.L316
	.loc 1 2353 39
	lla	a5,HBufferImage
	li	a4,10
	sd	a4,56(a5)
	j	.L315
.L316:
	.loc 1 2354 13
	ld	a4,-24(s0)
	li	a5,57
	bleu	a4,a5,.L315
	.loc 1 2355 39
	lla	a5,HBufferImage
	li	a4,57
	sd	a4,56(a5)
.L315:
	.loc 1 2362 6
	ld	a4,-32(s0)
	li	a5,1
	bleu	a4,a5,.L317
	.loc 1 2362 56 discriminator 1
	la	a5,HMainEditor
	ld	a5,16(a5)
	.loc 1 2362 61 discriminator 1
	addi	a5,a5,-1
	.loc 1 2362 20 discriminator 1
	ld	a4,-32(s0)
	bgtu	a4,a5,.L317
	.loc 1 2363 36
	lla	a5,HBufferImage
	ld	a4,-32(s0)
	sd	a4,48(a5)
	.loc 1 2369 1
	j	.L320
.L317:
	.loc 1 2364 13
	ld	a4,-32(s0)
	li	a5,1
	bgtu	a4,a5,.L319
	.loc 1 2365 36
	lla	a5,HBufferImage
	li	a4,2
	sd	a4,48(a5)
	.loc 1 2369 1
	j	.L320
.L319:
	.loc 1 2366 45
	la	a5,HMainEditor
	ld	a5,16(a5)
	.loc 1 2366 50
	addi	a5,a5,-1
	.loc 1 2366 13
	ld	a4,-32(s0)
	bleu	a4,a5,.L320
	.loc 1 2367 61
	la	a5,HMainEditor
	ld	a5,16(a5)
	.loc 1 2367 66
	addi	a4,a5,-1
	.loc 1 2367 36
	lla	a5,HBufferImage
	sd	a4,48(a5)
.L320:
	.loc 1 2369 1
	nop
	ld	ra,56(sp)
	.cfi_restore 1
	ld	s0,48(sp)
	.cfi_restore 8
	.cfi_def_cfa 2, 64
	addi	sp,sp,64
	.cfi_def_cfa_offset 0
	jr	ra
	.cfi_endproc
.LFE35:
	.size	HBufferImageAdjustMousePosition, .-HBufferImageAdjustMousePosition
	.section	.text.HBufferImageHandleInput,"ax",@progbits
	.align	1
	.globl	HBufferImageHandleInput
	.type	HBufferImageHandleInput, @function
HBufferImageHandleInput:
.LFB36:
	.loc 1 2390 1
	.cfi_startproc
	addi	sp,sp,-48
	.cfi_def_cfa_offset 48
	sd	ra,40(sp)
	sd	s0,32(sp)
	.cfi_offset 1, -8
	.cfi_offset 8, -16
	addi	s0,sp,48
	.cfi_def_cfa 8, 0
	sd	a0,-40(s0)
	.loc 1 2393 10
	sd	zero,-24(s0)
	.loc 1 2395 14
	ld	a5,-40(s0)
	lhu	a5,0(a5)
	sext.w	a5,a5
	.loc 1 2395 3
	li	a4,10
	beq	a5,a4,.L322
	li	a4,10
	bgt	a5,a4,.L323
	li	a4,9
	beq	a5,a4,.L324
	li	a4,9
	bgt	a5,a4,.L323
	li	a4,8
	beq	a5,a4,.L325
	li	a4,8
	bgt	a5,a4,.L323
	li	a4,6
	beq	a5,a4,.L326
	li	a4,6
	bgt	a5,a4,.L323
	li	a4,5
	beq	a5,a4,.L327
	li	a4,5
	bgt	a5,a4,.L323
	li	a4,4
	beq	a5,a4,.L328
	li	a4,4
	bgt	a5,a4,.L323
	li	a4,3
	beq	a5,a4,.L329
	li	a4,3
	bgt	a5,a4,.L323
	li	a4,2
	beq	a5,a4,.L330
	li	a4,2
	bgt	a5,a4,.L323
	beq	a5,zero,.L331
	li	a4,1
	beq	a5,a4,.L332
	j	.L323
.L331:
	.loc 1 2400 16
	ld	a5,-40(s0)
	lhu	a5,2(a5)
	mv	a0,a5
	call	HBufferImageDoCharInput
	sd	a0,-24(s0)
	.loc 1 2401 7
	j	.L333
.L332:
	.loc 1 2407 16
	call	HBufferImageScrollUp
	sd	a0,-24(s0)
	.loc 1 2408 7
	j	.L333
.L330:
	.loc 1 2414 16
	call	HBufferImageScrollDown
	sd	a0,-24(s0)
	.loc 1 2415 7
	j	.L333
.L329:
	.loc 1 2421 16
	call	HBufferImageScrollRight
	sd	a0,-24(s0)
	.loc 1 2422 7
	j	.L333
.L328:
	.loc 1 2428 16
	call	HBufferImageScrollLeft
	sd	a0,-24(s0)
	.loc 1 2429 7
	j	.L333
.L324:
	.loc 1 2435 16
	call	HBufferImagePageUp
	sd	a0,-24(s0)
	.loc 1 2436 7
	j	.L333
.L322:
	.loc 1 2442 16
	call	HBufferImagePageDown
	sd	a0,-24(s0)
	.loc 1 2443 7
	j	.L333
.L325:
	.loc 1 2449 16
	call	HBufferImageDoDelete
	sd	a0,-24(s0)
	.loc 1 2450 7
	j	.L333
.L327:
	.loc 1 2456 16
	call	HBufferImageHome
	sd	a0,-24(s0)
	.loc 1 2457 7
	j	.L333
.L326:
	.loc 1 2463 16
	call	HBufferImageEnd
	sd	a0,-24(s0)
	.loc 1 2464 7
	j	.L333
.L323:
	.loc 1 2467 16
	lla	a0,.LC11
	call	StatusBarSetStatusString@plt
	sd	a0,-24(s0)
	.loc 1 2468 7
	nop
.L333:
	.loc 1 2471 10
	ld	a5,-24(s0)
	.loc 1 2472 1
	mv	a0,a5
	ld	ra,40(sp)
	.cfi_restore 1
	ld	s0,32(sp)
	.cfi_restore 8
	.cfi_def_cfa 2, 48
	addi	sp,sp,48
	.cfi_def_cfa_offset 0
	jr	ra
	.cfi_endproc
.LFE36:
	.size	HBufferImageHandleInput, .-HBufferImageHandleInput
	.section	.rodata
	.align	3
.LC9:
	.dword	-6148914691236517205
	.text
.Letext0:
	.file 2 "/home/kapoagaeming/Downloads/spacemit-image-builder/components/edk2/MdePkg/Include/RiscV64/ProcessorBind.h"
	.file 3 "/home/kapoagaeming/Downloads/spacemit-image-builder/components/edk2/MdePkg/Include/Base.h"
	.file 4 "/home/kapoagaeming/Downloads/spacemit-image-builder/components/edk2/MdePkg/Include/Uefi/UefiBaseType.h"
	.file 5 "/home/kapoagaeming/Downloads/spacemit-image-builder/components/edk2/MdePkg/Include/Uefi/UefiMultiPhase.h"
	.file 6 "/home/kapoagaeming/Downloads/spacemit-image-builder/components/edk2/MdePkg/Include/Protocol/DevicePath.h"
	.file 7 "/home/kapoagaeming/Downloads/spacemit-image-builder/components/edk2/MdePkg/Include/Protocol/SimpleTextIn.h"
	.file 8 "/home/kapoagaeming/Downloads/spacemit-image-builder/components/edk2/MdePkg/Include/Protocol/SimpleTextInEx.h"
	.file 9 "/home/kapoagaeming/Downloads/spacemit-image-builder/components/edk2/MdePkg/Include/Protocol/SimpleTextOut.h"
	.file 10 "/home/kapoagaeming/Downloads/spacemit-image-builder/components/edk2/MdePkg/Include/Uefi/UefiSpec.h"
	.file 11 "/home/kapoagaeming/Downloads/spacemit-image-builder/components/edk2/MdePkg/Include/Protocol/SimplePointer.h"
	.file 12 "/home/kapoagaeming/Downloads/spacemit-image-builder/components/edk2/MdePkg/Include/Protocol/CpuIo2.h"
	.file 13 "/home/kapoagaeming/Downloads/spacemit-image-builder/components/edk2/ShellPkg/Library/UefiShellDebug1CommandsLib/EditTitleBar.h"
	.file 14 "/home/kapoagaeming/Downloads/spacemit-image-builder/components/edk2/ShellPkg/Library/UefiShellDebug1CommandsLib/HexEdit/HexEditorTypes.h"
	.file 15 "/home/kapoagaeming/Downloads/spacemit-image-builder/components/edk2/ShellPkg/Library/UefiShellDebug1CommandsLib/HexEdit/HexEditor.h"
	.file 16 "/home/kapoagaeming/Downloads/spacemit-image-builder/components/edk2/ShellPkg/Library/UefiShellDebug1CommandsLib/HexEdit/Misc.h"
	.file 17 "/home/kapoagaeming/Downloads/spacemit-image-builder/components/edk2/ShellPkg/Library/UefiShellDebug1CommandsLib/EditStatusBar.h"
	.file 18 "/home/kapoagaeming/Downloads/spacemit-image-builder/components/edk2/MdePkg/Include/Library/BaseLib.h"
	.file 19 "/home/kapoagaeming/Downloads/spacemit-image-builder/components/edk2/ShellPkg/Library/UefiShellDebug1CommandsLib/HexEdit/MemImage.h"
	.file 20 "/home/kapoagaeming/Downloads/spacemit-image-builder/components/edk2/ShellPkg/Library/UefiShellDebug1CommandsLib/HexEdit/DiskImage.h"
	.file 21 "/home/kapoagaeming/Downloads/spacemit-image-builder/components/edk2/ShellPkg/Library/UefiShellDebug1CommandsLib/HexEdit/FileImage.h"
	.file 22 "/home/kapoagaeming/Downloads/spacemit-image-builder/components/edk2/ShellPkg/Include/Library/ShellLib.h"
	.file 23 "/home/kapoagaeming/Downloads/spacemit-image-builder/components/edk2/ShellPkg/Library/UefiShellDebug1CommandsLib/UefiShellDebug1CommandsLib.h"
	.file 24 "/home/kapoagaeming/Downloads/spacemit-image-builder/components/edk2/MdePkg/Include/Library/MemoryAllocationLib.h"
	.file 25 "/home/kapoagaeming/Downloads/spacemit-image-builder/components/edk2/MdePkg/Include/Library/BaseMemoryLib.h"
	.file 26 "/home/kapoagaeming/Downloads/spacemit-image-builder/components/edk2/MdePkg/Include/Library/UefiBootServicesTableLib.h"
	.section	.note.GNU-stack,"",@progbits
