	.file	"FileImage.c"
	.option pic
	.option norelax
	.attribute arch, "rv64i2p1_m2p0_a2p1_f2p2_d2p2_c2p0_zicsr2p0_zifencei2p0_zmmul1p0_zaamo1p0_zalrsc1p0_zca1p0_zcd1p0"
	.attribute unaligned_access, 0
	.attribute stack_align, 16
	.text
.Ltext0:
	.cfi_sections	.debug_frame
	.file 0 "/home/kapoagaeming/Downloads/spacemit-image-builder/components/Build/Milk-V-Jupiter/RELEASE_GCC5/RISCV64/ShellPkg/Library/UefiShellDebug1CommandsLib/UefiShellDebug1CommandsLib" "/home/kapoagaeming/Downloads/spacemit-image-builder/components/edk2/ShellPkg/Library/UefiShellDebug1CommandsLib/HexEdit/FileImage.c"
	.globl	HFileImage
	.section	.bss.HFileImage,"aw",@nobits
	.align	3
	.type	HFileImage, @object
	.size	HFileImage, 24
HFileImage:
	.zero	24
	.globl	HFileImageBackupVar
	.section	.bss.HFileImageBackupVar,"aw",@nobits
	.align	3
	.type	HFileImageBackupVar, @object
	.size	HFileImageBackupVar, 24
HFileImageBackupVar:
	.zero	24
	.globl	HFileImageConst
	.section	.bss.HFileImageConst,"aw",@nobits
	.align	3
	.type	HFileImageConst, @object
	.size	HFileImageConst, 120
HFileImageConst:
	.zero	120
	.section	.text.HFileImageInit,"ax",@progbits
	.align	1
	.globl	HFileImageInit
	.type	HFileImageInit, @function
HFileImageInit:
.LFB0:
	.file 1 "/home/kapoagaeming/Downloads/spacemit-image-builder/components/edk2/ShellPkg/Library/UefiShellDebug1CommandsLib/HexEdit/FileImage.c"
	.loc 1 41 1
	.cfi_startproc
	addi	sp,sp,-16
	.cfi_def_cfa_offset 16
	sd	ra,8(sp)
	sd	s0,0(sp)
	.cfi_offset 1, -8
	.cfi_offset 8, -16
	addi	s0,sp,16
	.cfi_def_cfa 8, 0
	.loc 1 45 3
	li	a2,24
	lla	a1,HFileImageConst
	lla	a0,HFileImage
	call	CopyMem@plt
	.loc 1 47 3
	li	a2,24
	lla	a1,HFileImageConst
	lla	a0,HFileImageBackupVar
	call	CopyMem@plt
	.loc 1 53 10
	li	a5,0
	.loc 1 54 1
	mv	a0,a5
	ld	ra,8(sp)
	.cfi_restore 1
	ld	s0,0(sp)
	.cfi_restore 8
	.cfi_def_cfa 2, 16
	addi	sp,sp,16
	.cfi_def_cfa_offset 0
	jr	ra
	.cfi_endproc
.LFE0:
	.size	HFileImageInit, .-HFileImageInit
	.section	.rodata
	.align	3
.LC0:
	.string	"%"
	.string	"s"
	.zero	2
	.section	.text.HFileImageBackup,"ax",@progbits
	.align	1
	.globl	HFileImageBackup
	.type	HFileImageBackup, @function
HFileImageBackup:
.LFB1:
	.loc 1 67 1
	.cfi_startproc
	addi	sp,sp,-16
	.cfi_def_cfa_offset 16
	sd	ra,8(sp)
	sd	s0,0(sp)
	.cfi_offset 1, -8
	.cfi_offset 8, -16
	addi	s0,sp,16
	.cfi_def_cfa 8, 0
	.loc 1 68 32
	lla	a5,HFileImageBackupVar
	ld	a5,0(a5)
	.loc 1 68 11
	beq	a5,zero,.L4
	.loc 1 68 91 discriminator 1
	lla	a5,HFileImageBackupVar
	ld	a5,0(a5)
	.loc 1 68 62 discriminator 1
	mv	a0,a5
	call	FreePool@plt
	.loc 1 68 135 discriminator 2
	lla	a5,HFileImageBackupVar
	sd	zero,0(a5)
.L4:
	.loc 1 69 34
	lla	a5,HFileImage
	ld	a5,0(a5)
	mv	a2,a5
	lla	a1,.LC0
	li	a0,0
	call	CatSPrint@plt
	mv	a4,a0
	.loc 1 69 32 discriminator 1
	lla	a5,HFileImageBackupVar
	sd	a4,0(a5)
	.loc 1 70 26
	lla	a5,HFileImageBackupVar
	ld	a5,0(a5)
	.loc 1 70 6
	bne	a5,zero,.L5
	.loc 1 71 12
	li	a5,-1
	slli	a5,a5,63
	addi	a5,a5,9
	j	.L6
.L5:
	.loc 1 74 10
	li	a5,0
.L6:
	.loc 1 75 1
	mv	a0,a5
	ld	ra,8(sp)
	.cfi_restore 1
	ld	s0,0(sp)
	.cfi_restore 8
	.cfi_def_cfa 2, 16
	addi	sp,sp,16
	.cfi_def_cfa_offset 0
	jr	ra
	.cfi_endproc
.LFE1:
	.size	HFileImageBackup, .-HFileImageBackup
	.section	.text.HFileImageCleanup,"ax",@progbits
	.align	1
	.globl	HFileImageCleanup
	.type	HFileImageCleanup, @function
HFileImageCleanup:
.LFB2:
	.loc 1 86 1
	.cfi_startproc
	addi	sp,sp,-16
	.cfi_def_cfa_offset 16
	sd	ra,8(sp)
	sd	s0,0(sp)
	.cfi_offset 1, -8
	.cfi_offset 8, -16
	addi	s0,sp,16
	.cfi_def_cfa 8, 0
	.loc 1 87 23
	lla	a5,HFileImage
	ld	a5,0(a5)
	.loc 1 87 11
	beq	a5,zero,.L8
	.loc 1 87 73 discriminator 1
	lla	a5,HFileImage
	ld	a5,0(a5)
	.loc 1 87 53 discriminator 1
	mv	a0,a5
	call	FreePool@plt
	.loc 1 87 108 discriminator 2
	lla	a5,HFileImage
	sd	zero,0(a5)
.L8:
	.loc 1 88 32
	lla	a5,HFileImageBackupVar
	ld	a5,0(a5)
	.loc 1 88 11
	beq	a5,zero,.L9
	.loc 1 88 91 discriminator 1
	lla	a5,HFileImageBackupVar
	ld	a5,0(a5)
	.loc 1 88 62 discriminator 1
	mv	a0,a5
	call	FreePool@plt
	.loc 1 88 135 discriminator 2
	lla	a5,HFileImageBackupVar
	sd	zero,0(a5)
.L9:
	.loc 1 90 10
	li	a5,0
	.loc 1 91 1
	mv	a0,a5
	ld	ra,8(sp)
	.cfi_restore 1
	ld	s0,0(sp)
	.cfi_restore 8
	.cfi_def_cfa 2, 16
	addi	sp,sp,16
	.cfi_def_cfa_offset 0
	jr	ra
	.cfi_endproc
.LFE2:
	.size	HFileImageCleanup, .-HFileImageCleanup
	.section	.text.HFileImageSetFileName,"ax",@progbits
	.align	1
	.globl	HFileImageSetFileName
	.type	HFileImageSetFileName, @function
HFileImageSetFileName:
.LFB3:
	.loc 1 105 1
	.cfi_startproc
	addi	sp,sp,-32
	.cfi_def_cfa_offset 32
	sd	ra,24(sp)
	sd	s0,16(sp)
	.cfi_offset 1, -8
	.cfi_offset 8, -16
	addi	s0,sp,32
	.cfi_def_cfa 8, 0
	sd	a0,-24(s0)
	.loc 1 106 24
	lla	a5,HFileImage
	ld	a5,0(a5)
	.loc 1 106 6
	ld	a4,-24(s0)
	bne	a4,a5,.L12
	.loc 1 111 12
	li	a5,0
	j	.L13
.L12:
	.loc 1 117 23
	lla	a5,HFileImage
	ld	a5,0(a5)
	.loc 1 117 11
	beq	a5,zero,.L14
	.loc 1 117 73 discriminator 1
	lla	a5,HFileImage
	ld	a5,0(a5)
	.loc 1 117 53 discriminator 1
	mv	a0,a5
	call	FreePool@plt
	.loc 1 117 108 discriminator 2
	lla	a5,HFileImage
	sd	zero,0(a5)
.L14:
	.loc 1 118 25
	ld	a0,-24(s0)
	call	StrSize@plt
	mv	a5,a0
	.loc 1 118 25 is_stmt 0 discriminator 1
	ld	a1,-24(s0)
	mv	a0,a5
	call	AllocateCopyPool@plt
	mv	a4,a0
	.loc 1 118 23 is_stmt 1 discriminator 2
	lla	a5,HFileImage
	sd	a4,0(a5)
	.loc 1 119 17
	lla	a5,HFileImage
	ld	a5,0(a5)
	.loc 1 119 6
	bne	a5,zero,.L15
	.loc 1 120 12
	li	a5,-1
	slli	a5,a5,63
	addi	a5,a5,9
	j	.L13
.L15:
	.loc 1 123 10
	li	a5,0
.L13:
	.loc 1 124 1
	mv	a0,a5
	ld	ra,24(sp)
	.cfi_restore 1
	ld	s0,16(sp)
	.cfi_restore 8
	.cfi_def_cfa 2, 32
	addi	sp,sp,32
	.cfi_def_cfa_offset 0
	jr	ra
	.cfi_endproc
.LFE3:
	.size	HFileImageSetFileName, .-HFileImageSetFileName
	.section	.rodata
	.align	3
.LC1:
	.string	"R"
	.string	"e"
	.string	"a"
	.string	"d"
	.string	" "
	.string	"e"
	.string	"r"
	.string	"r"
	.string	"o"
	.string	"r"
	.string	" "
	.string	"o"
	.string	"n"
	.string	" "
	.string	"f"
	.string	"i"
	.string	"l"
	.string	"e"
	.string	" "
	.string	"%"
	.string	"s"
	.string	":"
	.string	" "
	.string	"%"
	.string	"r"
	.zero	2
	.align	3
.LC2:
	.string	"E"
	.string	"r"
	.string	"r"
	.string	"o"
	.string	"r"
	.string	" "
	.string	"p"
	.string	"a"
	.string	"r"
	.string	"s"
	.string	"i"
	.string	"n"
	.string	"g"
	.string	" "
	.string	"f"
	.string	"i"
	.string	"l"
	.string	"e"
	.string	"."
	.zero	2
	.align	3
.LC3:
	.string	"%"
	.string	"d"
	.string	" "
	.string	"L"
	.string	"i"
	.string	"n"
	.string	"e"
	.string	"s"
	.string	" "
	.string	"R"
	.string	"e"
	.string	"a"
	.string	"d"
	.zero	2
	.section	.text.HFileImageRead,"ax",@progbits
	.align	1
	.globl	HFileImageRead
	.type	HFileImageRead, @function
HFileImageRead:
.LFB4:
	.loc 1 141 1
	.cfi_startproc
	addi	sp,sp,-64
	.cfi_def_cfa_offset 64
	sd	ra,56(sp)
	sd	s0,48(sp)
	.cfi_offset 1, -8
	.cfi_offset 8, -16
	addi	s0,sp,64
	.cfi_def_cfa 8, 0
	sd	a0,-56(s0)
	mv	a5,a1
	sb	a5,-57(s0)
	.loc 1 150 8
	sd	zero,-24(s0)
	.loc 1 160 12
	addi	a5,s0,-48
	lla	a3,HFileImage+16
	lla	a2,HFileImage+8
	mv	a1,a5
	ld	a0,-56(s0)
	call	ReadFileIntoBuffer@plt
	sd	a0,-32(s0)
	.loc 1 164 35
	ld	a5,-32(s0)
	.loc 1 164 6
	blt	a5,zero,.L17
	.loc 1 164 74 discriminator 1
	ld	a5,-48(s0)
	.loc 1 164 62 discriminator 1
	bne	a5,zero,.L18
	.loc 1 164 105 discriminator 2
	lla	a5,HFileImage
	ld	a5,8(a5)
	.loc 1 164 91 discriminator 2
	beq	a5,zero,.L18
.L17:
	.loc 1 165 21
	ld	a3,-32(s0)
	ld	a2,-56(s0)
	lla	a1,.LC1
	li	a0,0
	call	CatSPrint@plt
	sd	a0,-40(s0)
	.loc 1 166 8
	ld	a5,-40(s0)
	bne	a5,zero,.L19
	.loc 1 167 25
	ld	a5,-48(s0)
	.loc 1 167 15
	beq	a5,zero,.L20
	.loc 1 167 44 discriminator 1
	ld	a5,-48(s0)
	mv	a0,a5
	call	FreePool@plt
	.loc 1 167 73 discriminator 2
	sd	zero,-48(s0)
.L20:
	.loc 1 168 14
	li	a5,-1
	slli	a5,a5,63
	addi	a5,a5,9
	j	.L33
.L19:
	.loc 1 171 5
	ld	a0,-40(s0)
	call	StatusBarSetStatusString@plt
	.loc 1 172 5
	ld	a0,-40(s0)
	call	FreePool@plt
	.loc 1 173 12
	li	a5,-1
	slli	a5,a5,63
	addi	a5,a5,9
	j	.L33
.L18:
	.loc 1 176 3
	ld	a0,-56(s0)
	call	HFileImageSetFileName
	.loc 1 181 3
	call	HBufferImageFree@plt
	.loc 1 183 12
	ld	a4,-48(s0)
	lla	a5,HFileImage
	ld	a5,8(a5)
	mv	a1,a5
	mv	a0,a4
	call	HBufferImageBufferToList@plt
	sd	a0,-32(s0)
	.loc 1 184 21
	ld	a5,-48(s0)
	.loc 1 184 11
	beq	a5,zero,.L22
	.loc 1 184 40 discriminator 1
	ld	a5,-48(s0)
	mv	a0,a5
	call	FreePool@plt
	.loc 1 184 69 discriminator 2
	sd	zero,-48(s0)
.L22:
	.loc 1 185 34
	ld	a5,-32(s0)
	.loc 1 185 6
	bge	a5,zero,.L23
	.loc 1 186 5
	lla	a0,.LC2
	call	StatusBarSetStatusString@plt
	.loc 1 187 12
	ld	a5,-32(s0)
	j	.L33
.L23:
	.loc 1 190 36
	la	a5,HBufferImage
	li	a4,2
	sd	a4,32(a5)
	.loc 1 191 39
	la	a5,HBufferImage
	li	a4,10
	sd	a4,40(a5)
	.loc 1 192 34
	la	a5,HBufferImage
	li	a4,2
	sd	a4,48(a5)
	.loc 1 193 37
	la	a5,HBufferImage
	li	a4,10
	sd	a4,56(a5)
	.loc 1 194 30
	la	a5,HBufferImage
	li	a4,1
	sd	a4,80(a5)
	.loc 1 195 25
	la	a5,HBufferImage
	li	a4,1
	sb	a4,88(a5)
	.loc 1 196 35
	la	a5,HBufferImage
	li	a4,1
	sd	a4,64(a5)
	.loc 1 197 38
	la	a5,HBufferImage
	li	a4,1
	sd	a4,72(a5)
	.loc 1 198 27
	la	a5,HBufferImage
	li	a4,5
	sw	a4,92(a5)
	.loc 1 200 6
	lbu	a5,-57(s0)
	andi	a5,a5,0xff
	bne	a5,zero,.L24
	.loc 1 201 21
	la	a5,HBufferImage
	ld	a5,16(a5)
	mv	a2,a5
	lla	a1,.LC3
	li	a0,0
	call	CatSPrint@plt
	sd	a0,-40(s0)
	.loc 1 202 8
	ld	a5,-40(s0)
	bne	a5,zero,.L25
	.loc 1 203 25
	ld	a5,-48(s0)
	.loc 1 203 15
	beq	a5,zero,.L26
	.loc 1 203 44 discriminator 1
	ld	a5,-48(s0)
	mv	a0,a5
	call	FreePool@plt
	.loc 1 203 73 discriminator 2
	sd	zero,-48(s0)
.L26:
	.loc 1 204 14
	li	a5,-1
	slli	a5,a5,63
	addi	a5,a5,9
	j	.L33
.L25:
	.loc 1 207 5
	ld	a0,-40(s0)
	call	StatusBarSetStatusString@plt
	.loc 1 208 5
	ld	a0,-40(s0)
	call	FreePool@plt
	.loc 1 210 29
	la	a5,HMainEditor
	sd	zero,64(a5)
	.loc 1 211 27
	la	a5,HMainEditor
	sd	zero,72(a5)
.L24:
	.loc 1 217 19
	la	a5,HBufferImage
	ld	a5,8(a5)
	.loc 1 217 6
	beq	a5,zero,.L27
	.loc 1 218 88
	la	a5,HBufferImage
	ld	a5,0(a5)
	.loc 1 218 97
	ld	a5,0(a5)
	.loc 1 218 34
	addi	a5,a5,-32
	.loc 1 218 168
	ld	a4,0(a5)
	.loc 1 218 253
	li	a5,1819041792
	addi	a5,a5,1381
	bne	a4,a5,.L28
	.loc 1 218 310 discriminator 1
	la	a5,HBufferImage
	ld	a5,0(a5)
	.loc 1 218 319 discriminator 1
	ld	a5,0(a5)
	.loc 1 218 253 discriminator 1
	addi	a5,a5,-32
	j	.L29
.L28:
	.loc 1 218 253 is_stmt 0 discriminator 2
	li	a5,0
.L29:
	.loc 1 218 30 is_stmt 1 discriminator 4
	la	a4,HBufferImage
	sd	a5,24(a4)
	j	.L30
.L27:
	.loc 1 223 12
	call	HBufferImageCreateLine@plt
	sd	a0,-24(s0)
	.loc 1 224 8
	ld	a5,-24(s0)
	bne	a5,zero,.L31
	.loc 1 225 25
	ld	a5,-48(s0)
	.loc 1 225 15
	beq	a5,zero,.L32
	.loc 1 225 44 discriminator 1
	ld	a5,-48(s0)
	mv	a0,a5
	call	FreePool@plt
	.loc 1 225 73 discriminator 2
	sd	zero,-48(s0)
.L32:
	.loc 1 226 14
	li	a5,-1
	slli	a5,a5,63
	addi	a5,a5,9
	j	.L33
.L31:
	.loc 1 229 30
	la	a5,HBufferImage
	ld	a4,-24(s0)
	sd	a4,24(a5)
.L30:
	.loc 1 232 25
	la	a5,HBufferImage
	sb	zero,89(a5)
	.loc 1 233 27
	la	a5,HBufferImageNeedRefresh
	li	a4,1
	sb	a4,0(a5)
	.loc 1 234 35
	la	a5,HBufferImageOnlyLineNeedRefresh
	sb	zero,0(a5)
	.loc 1 235 32
	la	a5,HBufferImageMouseNeedRefresh
	li	a4,1
	sb	a4,0(a5)
	.loc 1 237 10
	li	a5,0
.L33:
	.loc 1 238 1
	mv	a0,a5
	ld	ra,56(sp)
	.cfi_restore 1
	ld	s0,48(sp)
	.cfi_restore 8
	.cfi_def_cfa 2, 64
	addi	sp,sp,64
	.cfi_def_cfa_offset 0
	jr	ra
	.cfi_endproc
.LFE4:
	.size	HFileImageRead, .-HFileImageRead
	.section	.rodata
	.align	3
.LC4:
	.string	"R"
	.string	"e"
	.string	"a"
	.string	"d"
	.string	" "
	.string	"O"
	.string	"n"
	.string	"l"
	.string	"y"
	.string	" "
	.string	"F"
	.string	"i"
	.string	"l"
	.string	"e"
	.string	" "
	.string	"C"
	.string	"a"
	.string	"n"
	.string	" "
	.string	"N"
	.string	"o"
	.string	"t"
	.string	" "
	.string	"B"
	.string	"e"
	.string	" "
	.string	"S"
	.string	"a"
	.string	"v"
	.string	"e"
	.string	"d"
	.zero	2
	.align	3
.LC5:
	.string	"D"
	.string	"i"
	.string	"r"
	.string	"e"
	.string	"c"
	.string	"t"
	.string	"o"
	.string	"r"
	.string	"y"
	.string	" "
	.string	"C"
	.string	"a"
	.string	"n"
	.string	" "
	.string	"N"
	.string	"o"
	.string	"t"
	.string	" "
	.string	"B"
	.string	"e"
	.string	" "
	.string	"S"
	.string	"a"
	.string	"v"
	.string	"e"
	.string	"d"
	.zero	2
	.align	3
.LC6:
	.string	"W"
	.string	"r"
	.string	"i"
	.string	"t"
	.string	"e"
	.string	" "
	.string	"F"
	.string	"i"
	.string	"l"
	.string	"e"
	.string	" "
	.string	"F"
	.string	"a"
	.string	"i"
	.string	"l"
	.string	"e"
	.string	"d"
	.zero	2
	.align	3
.LC7:
	.string	"C"
	.string	"r"
	.string	"e"
	.string	"a"
	.string	"t"
	.string	"e"
	.string	" "
	.string	"F"
	.string	"i"
	.string	"l"
	.string	"e"
	.string	" "
	.string	"F"
	.string	"a"
	.string	"i"
	.string	"l"
	.string	"e"
	.string	"d"
	.zero	2
	.align	3
.LC8:
	.string	"%"
	.string	"d"
	.string	" "
	.string	"L"
	.string	"i"
	.string	"n"
	.string	"e"
	.string	"s"
	.string	" "
	.string	"W"
	.string	"r"
	.string	"i"
	.string	"t"
	.string	"t"
	.string	"e"
	.string	"n"
	.zero	2
	.section	.text.HFileImageSave,"ax",@progbits
	.align	1
	.globl	HFileImageSave
	.type	HFileImageSave, @function
HFileImageSave:
.LFB5:
	.loc 1 253 1
	.cfi_startproc
	addi	sp,sp,-112
	.cfi_def_cfa_offset 112
	sd	ra,104(sp)
	sd	s0,96(sp)
	.cfi_offset 1, -8
	.cfi_offset 8, -16
	addi	s0,sp,112
	.cfi_def_cfa 8, 0
	sd	a0,-104(s0)
	.loc 1 265 20
	la	a5,HBufferImage
	lw	a5,92(a5)
	sw	a5,-52(s0)
	.loc 1 266 27
	la	a5,HBufferImage
	li	a4,5
	sw	a4,92(a5)
	.loc 1 271 18
	lla	a5,HFileImage
	ld	a5,0(a5)
	.loc 1 271 6
	beq	a5,zero,.L35
	.loc 1 271 58 discriminator 1
	ld	a5,-104(s0)
	.loc 1 271 45 discriminator 1
	beq	a5,zero,.L35
	.loc 1 271 79 discriminator 2
	ld	a4,-104(s0)
	.loc 1 271 107 discriminator 2
	lla	a5,HFileImage
	ld	a5,0(a5)
	.loc 1 271 79 discriminator 2
	mv	a1,a5
	mv	a0,a4
	call	StrCmp@plt
	mv	a5,a0
	.loc 1 271 75 discriminator 3
	bne	a5,zero,.L35
	.loc 1 275 9
	ld	a5,-104(s0)
	mv	a0,a5
	call	ShellIsFile@plt
	mv	a5,a0
	.loc 1 275 8 discriminator 1
	bne	a5,zero,.L35
	.loc 1 280 23
	la	a5,HBufferImage
	lbu	a5,89(a5)
	.loc 1 280 10
	bne	a5,zero,.L36
	.loc 1 281 16
	li	a5,0
	j	.L58
.L36:
	.loc 1 287 21
	lla	a5,HFileImage
	lbu	a5,16(a5)
	.loc 1 287 10
	mv	a4,a5
	li	a5,1
	bne	a4,a5,.L35
	.loc 1 288 9
	lla	a0,.LC4
	call	StatusBarSetStatusString@plt
	.loc 1 289 16
	li	a5,0
	j	.L58
.L35:
	.loc 1 294 7
	ld	a5,-104(s0)
	mv	a0,a5
	call	ShellIsDirectory@plt
	mv	a5,a0
	.loc 1 294 6 discriminator 1
	bne	a5,zero,.L38
	.loc 1 295 5
	lla	a0,.LC5
	call	StatusBarSetStatusString@plt
	.loc 1 296 12
	li	a5,-1
	slli	a5,a5,63
	addi	a5,a5,1
	j	.L58
.L38:
	.loc 1 299 12
	ld	a5,-104(s0)
	addi	a4,s0,-88
	li	a3,0
	li	a2,3
	mv	a1,a4
	mv	a0,a5
	call	ShellOpenFileByName@plt
	sd	a0,-64(s0)
	.loc 1 301 7
	ld	a5,-64(s0)
	.loc 1 301 6
	blt	a5,zero,.L39
	.loc 1 305 14
	addi	a5,s0,-88
	mv	a0,a5
	call	ShellDeleteFile@plt
	sd	a0,-64(s0)
	.loc 1 306 36
	ld	a5,-64(s0)
	.loc 1 306 8
	blt	a5,zero,.L40
	.loc 1 306 62 discriminator 1
	ld	a4,-64(s0)
	li	a5,2
	bne	a4,a5,.L39
.L40:
	.loc 1 307 7
	lla	a0,.LC6
	call	StatusBarSetStatusString@plt
	.loc 1 308 14
	li	a5,-1
	slli	a5,a5,63
	addi	a5,a5,1
	j	.L58
.L39:
	.loc 1 315 12
	sd	zero,-40(s0)
	.loc 1 316 13
	sd	zero,-96(s0)
	.loc 1 317 27
	la	a5,HBufferImage
	ld	a5,0(a5)
	.loc 1 317 13
	ld	a5,0(a5)
	sd	a5,-24(s0)
	.loc 1 317 3
	j	.L41
.L45:
	.loc 1 318 14
	ld	a5,-24(s0)
	addi	a5,a5,-32
	.loc 1 318 118
	ld	a4,0(a5)
	.loc 1 318 203
	li	a5,1819041792
	addi	a5,a5,1381
	bne	a4,a5,.L42
	.loc 1 318 10 discriminator 1
	ld	a5,-24(s0)
	addi	a5,a5,-32
	sd	a5,-32(s0)
	j	.L43
.L42:
	.loc 1 318 10 is_stmt 0 discriminator 2
	sd	zero,-32(s0)
.L43:
	.loc 1 320 13 is_stmt 1
	ld	a5,-32(s0)
	ld	a5,24(a5)
	.loc 1 320 8
	beq	a5,zero,.L44
	.loc 1 321 24
	ld	a5,-32(s0)
	ld	a4,24(a5)
	.loc 1 321 17
	ld	a5,-96(s0)
	add	a5,a4,a5
	sd	a5,-96(s0)
.L44:
	.loc 1 327 13
	ld	a5,-40(s0)
	addi	a5,a5,1
	sd	a5,-40(s0)
	.loc 1 317 87 discriminator 2
	ld	a5,-24(s0)
	ld	a5,0(a5)
	sd	a5,-24(s0)
.L41:
	.loc 1 317 71 discriminator 1
	la	a5,HBufferImage
	ld	a5,0(a5)
	.loc 1 317 56 discriminator 1
	ld	a4,-24(s0)
	bne	a4,a5,.L45
	.loc 1 333 12
	ld	a5,-96(s0)
	mv	a0,a5
	call	AllocateZeroPool@plt
	sd	a0,-72(s0)
	.loc 1 334 6
	ld	a5,-72(s0)
	bne	a5,zero,.L46
	.loc 1 335 12
	li	a5,-1
	slli	a5,a5,63
	addi	a5,a5,9
	j	.L58
.L46:
	.loc 1 338 7
	ld	a5,-72(s0)
	sd	a5,-48(s0)
	.loc 1 339 27
	la	a5,HBufferImage
	ld	a5,0(a5)
	.loc 1 339 13
	ld	a5,0(a5)
	sd	a5,-24(s0)
	.loc 1 339 3
	j	.L47
.L51:
	.loc 1 340 14
	ld	a5,-24(s0)
	addi	a5,a5,-32
	.loc 1 340 118
	ld	a4,0(a5)
	.loc 1 340 203
	li	a5,1819041792
	addi	a5,a5,1381
	bne	a4,a5,.L48
	.loc 1 340 10 discriminator 1
	ld	a5,-24(s0)
	addi	a5,a5,-32
	sd	a5,-32(s0)
	j	.L49
.L48:
	.loc 1 340 10 is_stmt 0 discriminator 2
	sd	zero,-32(s0)
.L49:
	.loc 1 342 13 is_stmt 1
	ld	a5,-32(s0)
	ld	a5,24(a5)
	.loc 1 342 8
	beq	a5,zero,.L50
	.loc 1 343 25
	ld	a5,-32(s0)
	addi	a4,a5,8
	.loc 1 343 7
	ld	a5,-32(s0)
	ld	a5,24(a5)
	mv	a2,a5
	mv	a1,a4
	ld	a0,-48(s0)
	call	CopyMem@plt
	.loc 1 344 18
	ld	a5,-32(s0)
	ld	a5,24(a5)
	.loc 1 344 11
	ld	a4,-48(s0)
	add	a5,a4,a5
	sd	a5,-48(s0)
.L50:
	.loc 1 339 87 discriminator 2
	ld	a5,-24(s0)
	ld	a5,0(a5)
	sd	a5,-24(s0)
.L47:
	.loc 1 339 71 discriminator 1
	la	a5,HBufferImage
	ld	a5,0(a5)
	.loc 1 339 56 discriminator 1
	ld	a4,-24(s0)
	bne	a4,a5,.L51
	.loc 1 352 12
	ld	a4,-104(s0)
	addi	a1,s0,-88
	li	a3,0
	li	a5,-1
	slli	a5,a5,63
	addi	a2,a5,3
	mv	a0,a4
	call	ShellOpenFileByName@plt
	sd	a0,-64(s0)
	.loc 1 354 34
	ld	a5,-64(s0)
	.loc 1 354 6
	bge	a5,zero,.L52
	.loc 1 355 5
	lla	a0,.LC7
	call	StatusBarSetStatusString@plt
	.loc 1 356 12
	li	a5,-1
	slli	a5,a5,63
	addi	a5,a5,1
	j	.L58
.L52:
	.loc 1 359 12
	ld	a5,-88(s0)
	addi	a4,s0,-96
	ld	a2,-72(s0)
	mv	a1,a4
	mv	a0,a5
	call	ShellWriteFile@plt
	sd	a0,-64(s0)
	.loc 1 360 3
	ld	a0,-72(s0)
	call	FreePool@plt
	.loc 1 361 34
	ld	a5,-64(s0)
	.loc 1 361 6
	bge	a5,zero,.L53
	.loc 1 362 5
	addi	a5,s0,-88
	mv	a0,a5
	call	ShellDeleteFile@plt
	.loc 1 363 12
	li	a5,-1
	slli	a5,a5,63
	addi	a5,a5,1
	j	.L58
.L53:
	.loc 1 366 3
	addi	a5,s0,-88
	mv	a0,a5
	call	ShellCloseFile@plt
	.loc 1 368 25
	la	a5,HBufferImage
	sb	zero,89(a5)
	.loc 1 373 9
	ld	a2,-40(s0)
	lla	a1,.LC8
	li	a0,0
	call	CatSPrint@plt
	sd	a0,-80(s0)
	.loc 1 374 6
	ld	a5,-80(s0)
	bne	a5,zero,.L54
	.loc 1 375 12
	li	a5,-1
	slli	a5,a5,63
	addi	a5,a5,9
	j	.L58
.L54:
	.loc 1 378 3
	ld	a0,-80(s0)
	call	StatusBarSetStatusString@plt
	.loc 1 379 3
	ld	a0,-80(s0)
	call	FreePool@plt
	.loc 1 384 6
	lw	a5,-52(s0)
	sext.w	a4,a5
	li	a5,5
	beq	a4,a5,.L55
	.loc 1 384 62 discriminator 1
	ld	a5,-104(s0)
	.loc 1 384 49 discriminator 1
	bne	a5,zero,.L56
.L55:
	.loc 1 385 18
	ld	a5,-104(s0)
	.loc 1 384 80 discriminator 3
	beq	a5,zero,.L57
	.loc 1 385 49
	lla	a5,HFileImage
	ld	a5,0(a5)
	.loc 1 385 35
	beq	a5,zero,.L57
	.loc 1 385 80 discriminator 1
	addi	a5,s0,-104
	lla	a1,HFileImage
	mv	a0,a5
	call	StringNoCaseCompare@plt
	mv	a5,a0
	.loc 1 385 76 discriminator 2
	beq	a5,zero,.L57
.L56:
	.loc 1 390 5
	ld	a5,-104(s0)
	mv	a0,a5
	call	HFileImageSetFileName
	.loc 1 391 19
	lla	a5,HFileImage
	ld	a5,0(a5)
	.loc 1 391 8
	bne	a5,zero,.L57
	.loc 1 392 14
	li	a5,-1
	slli	a5,a5,63
	addi	a5,a5,9
	j	.L58
.L57:
	.loc 1 396 23
	lla	a5,HFileImage
	sb	zero,16(a5)
	.loc 1 398 10
	li	a5,0
.L58:
	.loc 1 399 1
	mv	a0,a5
	ld	ra,104(sp)
	.cfi_restore 1
	ld	s0,96(sp)
	.cfi_restore 8
	.cfi_def_cfa 2, 112
	addi	sp,sp,112
	.cfi_def_cfa_offset 0
	jr	ra
	.cfi_endproc
.LFE5:
	.size	HFileImageSave, .-HFileImageSave
	.text
.Letext0:
	.file 2 "/home/kapoagaeming/Downloads/spacemit-image-builder/components/edk2/MdePkg/Include/RiscV64/ProcessorBind.h"
	.file 3 "/home/kapoagaeming/Downloads/spacemit-image-builder/components/edk2/MdePkg/Include/Base.h"
	.file 4 "/home/kapoagaeming/Downloads/spacemit-image-builder/components/edk2/MdePkg/Include/Uefi/UefiBaseType.h"
	.file 5 "/home/kapoagaeming/Downloads/spacemit-image-builder/components/edk2/MdePkg/Include/Protocol/SimpleTextIn.h"
	.file 6 "/home/kapoagaeming/Downloads/spacemit-image-builder/components/edk2/MdePkg/Include/Protocol/SimpleTextInEx.h"
	.file 7 "/home/kapoagaeming/Downloads/spacemit-image-builder/components/edk2/MdePkg/Include/Protocol/Shell.h"
	.file 8 "/home/kapoagaeming/Downloads/spacemit-image-builder/components/edk2/MdePkg/Include/Protocol/SimplePointer.h"
	.file 9 "/home/kapoagaeming/Downloads/spacemit-image-builder/components/edk2/MdePkg/Include/Protocol/CpuIo2.h"
	.file 10 "/home/kapoagaeming/Downloads/spacemit-image-builder/components/edk2/ShellPkg/Library/UefiShellDebug1CommandsLib/EditTitleBar.h"
	.file 11 "/home/kapoagaeming/Downloads/spacemit-image-builder/components/edk2/ShellPkg/Library/UefiShellDebug1CommandsLib/HexEdit/HexEditorTypes.h"
	.file 12 "/home/kapoagaeming/Downloads/spacemit-image-builder/components/edk2/ShellPkg/Library/UefiShellDebug1CommandsLib/HexEdit/HexEditor.h"
	.file 13 "/home/kapoagaeming/Downloads/spacemit-image-builder/components/edk2/MdeModulePkg/Include/Library/SortLib.h"
	.file 14 "/home/kapoagaeming/Downloads/spacemit-image-builder/components/edk2/ShellPkg/Include/Library/ShellLib.h"
	.file 15 "/home/kapoagaeming/Downloads/spacemit-image-builder/components/edk2/MdePkg/Include/Library/MemoryAllocationLib.h"
	.file 16 "/home/kapoagaeming/Downloads/spacemit-image-builder/components/edk2/MdePkg/Include/Library/BaseLib.h"
	.file 17 "/home/kapoagaeming/Downloads/spacemit-image-builder/components/edk2/ShellPkg/Library/UefiShellDebug1CommandsLib/HexEdit/BufferImage.h"
	.file 18 "/home/kapoagaeming/Downloads/spacemit-image-builder/components/edk2/ShellPkg/Library/UefiShellDebug1CommandsLib/EditStatusBar.h"
	.file 19 "/home/kapoagaeming/Downloads/spacemit-image-builder/components/edk2/ShellPkg/Library/UefiShellDebug1CommandsLib/UefiShellDebug1CommandsLib.h"
	.file 20 "/home/kapoagaeming/Downloads/spacemit-image-builder/components/edk2/MdePkg/Include/Library/UefiLib.h"
	.file 21 "/home/kapoagaeming/Downloads/spacemit-image-builder/components/edk2/MdePkg/Include/Library/BaseMemoryLib.h"
	.section	.note.GNU-stack,"",@progbits
