	.file	"Dispatcher.c"
	.option pic
	.option norelax
	.attribute arch, "rv64i2p1_m2p0_a2p1_f2p2_d2p2_c2p0_zicsr2p0_zifencei2p0_zmmul1p0_zaamo1p0_zalrsc1p0_zca1p0_zcd1p0"
	.attribute unaligned_access, 0
	.attribute stack_align, 16
	.text
.Ltext0:
	.cfi_sections	.debug_frame
	.file 0 "/home/kapoagaeming/spacemit-image-builder/components/Build/Milk-V-Jupiter/RELEASE_GCC5/RISCV64/MdeModulePkg/Core/Dxe/DxeMain" "/home/kapoagaeming/spacemit-image-builder/components/edk2/MdeModulePkg/Core/Dxe/Dispatcher/Dispatcher.c"
	.globl	mDiscoveredList
	.section	.data.rel.local.mDiscoveredList,"aw"
	.align	3
	.type	mDiscoveredList, @object
	.size	mDiscoveredList, 16
mDiscoveredList:
	.dword	mDiscoveredList
	.dword	mDiscoveredList
	.globl	mScheduledQueue
	.section	.data.rel.local.mScheduledQueue,"aw"
	.align	3
	.type	mScheduledQueue, @object
	.size	mScheduledQueue, 16
mScheduledQueue:
	.dword	mScheduledQueue
	.dword	mScheduledQueue
	.globl	mFvHandleList
	.section	.data.rel.local.mFvHandleList,"aw"
	.align	3
	.type	mFvHandleList, @object
	.size	mFvHandleList, 16
mFvHandleList:
	.dword	mFvHandleList
	.dword	mFvHandleList
	.globl	mDispatcherLock
	.section	.data.mDispatcherLock,"aw"
	.align	3
	.type	mDispatcherLock, @object
	.size	mDispatcherLock, 24
mDispatcherLock:
	.dword	31
	.dword	4
	.word	1
	.zero	4
	.globl	gDispatcherRunning
	.section	.bss.gDispatcherRunning,"aw",@nobits
	.type	gDispatcherRunning, @object
	.size	gDispatcherRunning, 1
gDispatcherRunning:
	.zero	1
	.globl	mFwVolEvent
	.section	.bss.mFwVolEvent,"aw",@nobits
	.align	3
	.type	mFwVolEvent, @object
	.size	mFwVolEvent, 8
mFwVolEvent:
	.zero	8
	.globl	mFwVolEventRegistration
	.section	.bss.mFwVolEventRegistration,"aw",@nobits
	.align	3
	.type	mFwVolEventRegistration, @object
	.size	mFwVolEventRegistration, 8
mFwVolEventRegistration:
	.zero	8
	.globl	mDxeFileTypes
	.section	.data.mDxeFileTypes,"aw"
	.align	3
	.type	mDxeFileTypes, @object
	.size	mDxeFileTypes, 5
mDxeFileTypes:
	.base64	"BwwIBQs="
	.globl	mFvDevicePath
	.section	.bss.mFvDevicePath,"aw",@nobits
	.align	3
	.type	mFvDevicePath, @object
	.size	mFvDevicePath, 24
mFvDevicePath:
	.zero	24
	.section	.text.CoreAcquireDispatcherLock,"ax",@progbits
	.align	1
	.globl	CoreAcquireDispatcherLock
	.type	CoreAcquireDispatcherLock, @function
CoreAcquireDispatcherLock:
.LFB0:
	.file 1 "/home/kapoagaeming/spacemit-image-builder/components/edk2/MdeModulePkg/Core/Dxe/Dispatcher/Dispatcher.c"
	.loc 1 206 1
	.cfi_startproc
	addi	sp,sp,-16
	.cfi_def_cfa_offset 16
	sd	ra,8(sp)
	sd	s0,0(sp)
	.cfi_offset 1, -8
	.cfi_offset 8, -16
	addi	s0,sp,16
	.cfi_def_cfa 8, 0
	.loc 1 207 3
	lla	a0,mDispatcherLock
	call	CoreAcquireLock@plt
	.loc 1 208 1
	nop
	ld	ra,8(sp)
	.cfi_restore 1
	ld	s0,0(sp)
	.cfi_restore 8
	.cfi_def_cfa 2, 16
	addi	sp,sp,16
	.cfi_def_cfa_offset 0
	jr	ra
	.cfi_endproc
.LFE0:
	.size	CoreAcquireDispatcherLock, .-CoreAcquireDispatcherLock
	.section	.text.CoreReleaseDispatcherLock,"ax",@progbits
	.align	1
	.globl	CoreReleaseDispatcherLock
	.type	CoreReleaseDispatcherLock, @function
CoreReleaseDispatcherLock:
.LFB1:
	.loc 1 218 1
	.cfi_startproc
	addi	sp,sp,-16
	.cfi_def_cfa_offset 16
	sd	ra,8(sp)
	sd	s0,0(sp)
	.cfi_offset 1, -8
	.cfi_offset 8, -16
	addi	s0,sp,16
	.cfi_def_cfa 8, 0
	.loc 1 219 3
	lla	a0,mDispatcherLock
	call	CoreReleaseLock@plt
	.loc 1 220 1
	nop
	ld	ra,8(sp)
	.cfi_restore 1
	ld	s0,0(sp)
	.cfi_restore 8
	.cfi_def_cfa 2, 16
	addi	sp,sp,16
	.cfi_def_cfa_offset 0
	jr	ra
	.cfi_endproc
.LFE1:
	.size	CoreReleaseDispatcherLock, .-CoreReleaseDispatcherLock
	.section	.text.CoreGetDepexSectionAndPreProccess,"ax",@progbits
	.align	1
	.globl	CoreGetDepexSectionAndPreProccess
	.type	CoreGetDepexSectionAndPreProccess, @function
CoreGetDepexSectionAndPreProccess:
.LFB2:
	.loc 1 238 1
	.cfi_startproc
	addi	sp,sp,-64
	.cfi_def_cfa_offset 64
	sd	ra,56(sp)
	sd	s0,48(sp)
	.cfi_offset 1, -8
	.cfi_offset 8, -16
	addi	s0,sp,64
	.cfi_def_cfa 8, 0
	sd	a0,-56(s0)
	.loc 1 244 6
	ld	a5,-56(s0)
	ld	a5,72(a5)
	sd	a5,-24(s0)
	.loc 1 249 15
	li	a5,19
	sb	a5,-25(s0)
	.loc 1 250 14
	ld	a5,-24(s0)
	ld	a7,24(a5)
	.loc 1 251 34
	ld	a5,-56(s0)
	ld	a0,72(a5)
	.loc 1 252 23
	ld	a5,-56(s0)
	addi	a1,a5,48
	.loc 1 250 12
	ld	a5,-56(s0)
	addi	a4,a5,80
	ld	a5,-56(s0)
	addi	a5,a5,88
	addi	a3,s0,-44
	lbu	a2,-25(s0)
	mv	a6,a3
	li	a3,0
	jalr	a7
.LVL0:
	sd	a0,-40(s0)
	.loc 1 259 34
	ld	a5,-40(s0)
	.loc 1 259 6
	bge	a5,zero,.L4
	.loc 1 260 8
	ld	a4,-40(s0)
	li	a5,-1
	slli	a5,a5,63
	addi	a5,a5,24
	bne	a4,a5,.L5
	.loc 1 264 39
	ld	a5,-56(s0)
	li	a4,1
	sb	a4,121(a5)
	j	.L6
.L5:
	.loc 1 269 26
	ld	a5,-56(s0)
	sd	zero,80(a5)
	.loc 1 270 30
	ld	a5,-56(s0)
	li	a4,1
	sb	a4,116(a5)
	.loc 1 271 39
	ld	a5,-56(s0)
	sb	zero,121(a5)
	j	.L6
.L4:
	.loc 1 278 5
	ld	a0,-56(s0)
	call	CorePreProcessDepex@plt
	.loc 1 279 37
	ld	a5,-56(s0)
	sb	zero,121(a5)
.L6:
	.loc 1 282 10
	ld	a5,-40(s0)
	.loc 1 283 1
	mv	a0,a5
	ld	ra,56(sp)
	.cfi_restore 1
	ld	s0,48(sp)
	.cfi_restore 8
	.cfi_def_cfa 2, 64
	addi	sp,sp,64
	.cfi_def_cfa_offset 0
	jr	ra
	.cfi_endproc
.LFE2:
	.size	CoreGetDepexSectionAndPreProccess, .-CoreGetDepexSectionAndPreProccess
	.section	.text.CoreSchedule,"ax",@progbits
	.align	1
	.globl	CoreSchedule
	.type	CoreSchedule, @function
CoreSchedule:
.LFB3:
	.loc 1 305 1
	.cfi_startproc
	addi	sp,sp,-48
	.cfi_def_cfa_offset 48
	sd	ra,40(sp)
	sd	s0,32(sp)
	.cfi_offset 1, -8
	.cfi_offset 8, -16
	addi	s0,sp,48
	.cfi_def_cfa 8, 0
	sd	a0,-40(s0)
	sd	a1,-48(s0)
	.loc 1 312 13
	lla	a5,mDiscoveredList
	ld	a5,0(a5)
	sd	a5,-32(s0)
	.loc 1 312 3
	j	.L9
.L14:
	.loc 1 313 21
	ld	a5,-32(s0)
	addi	a5,a5,-8
	.loc 1 313 135
	ld	a4,0(a5)
	.loc 1 313 220
	li	a5,1920364544
	addi	a5,a5,612
	bne	a4,a5,.L10
	.loc 1 313 17 discriminator 1
	ld	a5,-32(s0)
	addi	a5,a5,-8
	sd	a5,-24(s0)
	j	.L11
.L10:
	.loc 1 313 17 is_stmt 0 discriminator 2
	sd	zero,-24(s0)
.L11:
	.loc 1 314 21 is_stmt 1
	ld	a5,-24(s0)
	ld	a5,40(a5)
	.loc 1 314 8
	ld	a4,-40(s0)
	bne	a4,a5,.L12
	.loc 1 315 20
	ld	a5,-24(s0)
	lbu	a5,117(a5)
	.loc 1 314 57 discriminator 1
	beq	a5,zero,.L12
	.loc 1 316 34
	ld	a5,-24(s0)
	addi	a5,a5,48
	.loc 1 316 9
	mv	a1,a5
	ld	a0,-48(s0)
	call	CompareGuid@plt
	mv	a5,a0
	.loc 1 315 34
	beq	a5,zero,.L12
	.loc 1 321 7
	call	CoreAcquireDispatcherLock
	.loc 1 322 32
	ld	a5,-24(s0)
	sb	zero,117(a5)
	.loc 1 323 30
	ld	a5,-24(s0)
	li	a4,1
	sb	a4,116(a5)
	.loc 1 324 7
	call	CoreReleaseDispatcherLock
	.loc 1 328 14
	li	a5,0
	j	.L13
.L12:
	.loc 1 312 75 discriminator 2
	ld	a5,-32(s0)
	ld	a5,0(a5)
	sd	a5,-32(s0)
.L9:
	.loc 1 312 49 discriminator 1
	ld	a4,-32(s0)
	lla	a5,mDiscoveredList
	bne	a4,a5,.L14
	.loc 1 334 10
	li	a5,-1
	slli	a5,a5,63
	addi	a5,a5,14
.L13:
	.loc 1 335 1
	mv	a0,a5
	ld	ra,40(sp)
	.cfi_restore 1
	ld	s0,32(sp)
	.cfi_restore 8
	.cfi_def_cfa 2, 48
	addi	sp,sp,48
	.cfi_def_cfa_offset 0
	jr	ra
	.cfi_endproc
.LFE3:
	.size	CoreSchedule, .-CoreSchedule
	.section	.text.CoreTrust,"ax",@progbits
	.align	1
	.globl	CoreTrust
	.type	CoreTrust, @function
CoreTrust:
.LFB4:
	.loc 1 355 1
	.cfi_startproc
	addi	sp,sp,-48
	.cfi_def_cfa_offset 48
	sd	ra,40(sp)
	sd	s0,32(sp)
	.cfi_offset 1, -8
	.cfi_offset 8, -16
	addi	s0,sp,48
	.cfi_def_cfa 8, 0
	sd	a0,-40(s0)
	sd	a1,-48(s0)
	.loc 1 362 13
	lla	a5,mDiscoveredList
	ld	a5,0(a5)
	sd	a5,-24(s0)
	.loc 1 362 3
	j	.L16
.L21:
	.loc 1 363 21
	ld	a5,-24(s0)
	addi	a5,a5,-8
	.loc 1 363 135
	ld	a4,0(a5)
	.loc 1 363 220
	li	a5,1920364544
	addi	a5,a5,612
	bne	a4,a5,.L17
	.loc 1 363 17 discriminator 1
	ld	a5,-24(s0)
	addi	a5,a5,-8
	sd	a5,-32(s0)
	j	.L18
.L17:
	.loc 1 363 17 is_stmt 0 discriminator 2
	sd	zero,-32(s0)
.L18:
	.loc 1 364 21 is_stmt 1
	ld	a5,-32(s0)
	ld	a5,40(a5)
	.loc 1 364 8
	ld	a4,-40(s0)
	bne	a4,a5,.L19
	.loc 1 365 20
	ld	a5,-32(s0)
	lbu	a5,119(a5)
	.loc 1 364 57 discriminator 1
	beq	a5,zero,.L19
	.loc 1 366 34
	ld	a5,-32(s0)
	addi	a5,a5,48
	.loc 1 366 9
	mv	a1,a5
	ld	a0,-48(s0)
	call	CompareGuid@plt
	mv	a5,a0
	.loc 1 365 32
	beq	a5,zero,.L19
	.loc 1 371 7
	call	CoreAcquireDispatcherLock
	.loc 1 372 30
	ld	a5,-32(s0)
	sb	zero,119(a5)
	.loc 1 373 30
	ld	a5,-32(s0)
	li	a4,1
	sb	a4,118(a5)
	.loc 1 374 7
	ld	a5,-32(s0)
	addi	a5,a5,24
	mv	a1,a5
	lla	a0,mScheduledQueue
	call	InsertTailList@plt
	.loc 1 375 7
	call	CoreReleaseDispatcherLock
	.loc 1 377 14
	li	a5,0
	j	.L20
.L19:
	.loc 1 362 75 discriminator 2
	ld	a5,-24(s0)
	ld	a5,0(a5)
	sd	a5,-24(s0)
.L16:
	.loc 1 362 49 discriminator 1
	ld	a4,-24(s0)
	lla	a5,mDiscoveredList
	bne	a4,a5,.L21
	.loc 1 381 10
	li	a5,-1
	slli	a5,a5,63
	addi	a5,a5,14
.L20:
	.loc 1 382 1
	mv	a0,a5
	ld	ra,40(sp)
	.cfi_restore 1
	ld	s0,32(sp)
	.cfi_restore 8
	.cfi_def_cfa 2, 48
	addi	sp,sp,48
	.cfi_def_cfa_offset 0
	jr	ra
	.cfi_endproc
.LFE4:
	.size	CoreTrust, .-CoreTrust
	.section	.text.CoreDispatcher,"ax",@progbits
	.align	1
	.globl	CoreDispatcher
	.type	CoreDispatcher, @function
CoreDispatcher:
.LFB5:
	.loc 1 403 1
	.cfi_startproc
	addi	sp,sp,-64
	.cfi_def_cfa_offset 64
	sd	ra,56(sp)
	sd	s0,48(sp)
	.cfi_offset 1, -8
	.cfi_offset 8, -16
	addi	s0,sp,64
	.cfi_def_cfa 8, 0
	.loc 1 411 12
	li	a0,64
	call	LogPerformanceMeasurementEnabled@plt
	mv	a5,a0
	.loc 1 411 11 discriminator 1
	beq	a5,zero,.L23
	.loc 1 411 57 discriminator 2
	li	a4,48
	li	a3,0
	lla	a2,__func__.1
	li	a1,0
	la	a0,gEfiCallerIdGuid
	call	LogPerformanceMeasurement@plt
.L23:
	.loc 1 413 7
	lla	a5,gDispatcherRunning
	lbu	a5,0(a5)
	.loc 1 413 6
	beq	a5,zero,.L24
	.loc 1 417 12
	li	a5,-1
	slli	a5,a5,63
	addi	a5,a5,20
	j	.L50
.L24:
	.loc 1 420 22
	lla	a5,gDispatcherRunning
	li	a4,1
	sb	a4,0(a5)
	.loc 1 422 12
	addi	a5,s0,-64
	la	a4,gEfiEventDxeDispatchGuid
	li	a3,0
	la	a2,EfiEventEmptyFunction
	li	a1,16
	li	a0,512
	call	CoreCreateEventEx@plt
	sd	a0,-56(s0)
	.loc 1 430 34
	ld	a5,-56(s0)
	.loc 1 430 6
	bge	a5,zero,.L26
	.loc 1 431 12
	ld	a5,-56(s0)
	j	.L50
.L26:
	.loc 1 434 16
	li	a5,-1
	slli	a5,a5,63
	addi	a5,a5,14
	sd	a5,-48(s0)
	.loc 1 439 11
	j	.L27
.L39:
	.loc 1 440 85
	lla	a5,mScheduledQueue
	ld	a5,0(a5)
	.loc 1 440 23
	addi	a5,a5,-24
	.loc 1 440 169
	ld	a4,0(a5)
	.loc 1 440 254
	li	a5,1920364544
	addi	a5,a5,612
	bne	a4,a5,.L28
	.loc 1 440 319 discriminator 1
	lla	a5,mScheduledQueue
	ld	a5,0(a5)
	.loc 1 440 19 discriminator 1
	addi	a5,a5,-24
	sd	a5,-32(s0)
	j	.L29
.L28:
	.loc 1 440 19 is_stmt 0 discriminator 2
	sd	zero,-32(s0)
.L29:
	.loc 1 452 23 is_stmt 1
	ld	a5,-32(s0)
	ld	a5,128(a5)
	.loc 1 452 10
	bne	a5,zero,.L30
	.loc 1 452 69 discriminator 1
	ld	a5,-32(s0)
	lbu	a5,136(a5)
	.loc 1 452 54 discriminator 1
	bne	a5,zero,.L30
	.loc 1 454 18
	la	a5,gDxeCoreImageHandle
	ld	a1,0(a5)
	ld	a5,-32(s0)
	ld	a2,64(a5)
	ld	a5,-32(s0)
	addi	a5,a5,128
	li	a4,0
	li	a3,0
	li	a0,0
	call	CoreLoadImage@plt
	sd	a0,-56(s0)
	.loc 1 466 40
	ld	a5,-56(s0)
	.loc 1 466 12
	bge	a5,zero,.L30
	.loc 1 467 11
	call	CoreAcquireDispatcherLock
	.loc 1 469 14
	ld	a4,-56(s0)
	li	a5,-1
	slli	a5,a5,63
	addi	a5,a5,26
	bne	a4,a5,.L31
	.loc 1 473 36
	ld	a5,-32(s0)
	li	a4,1
	sb	a4,119(a5)
	j	.L32
.L31:
	.loc 1 481 38
	ld	a5,-32(s0)
	li	a4,1
	sb	a4,120(a5)
.L32:
	.loc 1 484 34
	ld	a5,-32(s0)
	sb	zero,118(a5)
	.loc 1 485 28
	ld	a5,-32(s0)
	addi	a5,a5,24
	.loc 1 485 11
	mv	a0,a5
	call	RemoveEntryList@plt
	.loc 1 487 11
	call	CoreReleaseDispatcherLock
	.loc 1 492 11
	j	.L27
.L30:
	.loc 1 496 7
	call	CoreAcquireDispatcherLock
	.loc 1 498 30
	ld	a5,-32(s0)
	sb	zero,118(a5)
	.loc 1 499 32
	ld	a5,-32(s0)
	li	a4,1
	sb	a4,120(a5)
	.loc 1 500 24
	ld	a5,-32(s0)
	addi	a5,a5,24
	.loc 1 500 7
	mv	a0,a5
	call	RemoveEntryList@plt
	.loc 1 502 7
	call	CoreReleaseDispatcherLock
	.loc 1 504 22
	ld	a5,-32(s0)
	lbu	a5,136(a5)
	.loc 1 504 10
	beq	a5,zero,.L34
	.loc 1 508 18
	ld	a5,-32(s0)
	ld	a4,72(a5)
	ld	a5,-32(s0)
	ld	a3,40(a5)
	ld	a5,-32(s0)
	addi	a5,a5,48
	mv	a2,a5
	mv	a1,a3
	mv	a0,a4
	call	CoreProcessFvImageFile
	sd	a0,-56(s0)
	j	.L35
.L34:
	.loc 1 510 10
	call	ReportProgressCodeEnabled@plt
	mv	a5,a0
	.loc 1 510 232 discriminator 1
	beq	a5,zero,.L36
	.loc 1 510 171 discriminator 4
	ld	a5,-32(s0)
	addi	a5,a5,128
	.loc 1 510 86 discriminator 4
	li	a3,8
	mv	a2,a5
	li	a5,50593792
	addi	a1,a5,2
	li	a0,1
	call	ReportStatusCodeWithExtendedData@plt
	.loc 1 510 232
	j	.L37
.L36:
	.loc 1 510 235 discriminator 5
	call	ReportErrorCodeEnabled@plt
	.loc 1 510 457 discriminator 9
	call	ReportDebugCodeEnabled@plt
.L37:
	.loc 1 518 18
	ld	a5,-32(s0)
	ld	a5,128(a5)
	li	a2,0
	li	a1,0
	mv	a0,a5
	call	CoreStartImage@plt
	sd	a0,-56(s0)
	.loc 1 520 10
	call	ReportProgressCodeEnabled@plt
	mv	a5,a0
	.loc 1 520 232 discriminator 1
	beq	a5,zero,.L38
	.loc 1 520 171 discriminator 4
	ld	a5,-32(s0)
	addi	a5,a5,128
	.loc 1 520 86 discriminator 4
	li	a3,8
	mv	a2,a5
	li	a5,50593792
	addi	a1,a5,3
	li	a0,1
	call	ReportStatusCodeWithExtendedData@plt
	.loc 1 520 232
	j	.L35
.L38:
	.loc 1 520 235 discriminator 5
	call	ReportErrorCodeEnabled@plt
	.loc 1 520 457 discriminator 9
	call	ReportDebugCodeEnabled@plt
.L35:
	.loc 1 528 20
	sd	zero,-48(s0)
.L27:
	.loc 1 439 13
	lla	a0,mScheduledQueue
	call	IsListEmpty@plt
	mv	a5,a0
	.loc 1 439 12 discriminator 1
	beq	a5,zero,.L39
	.loc 1 536 9
	ld	a5,-48(s0)
	.loc 1 536 8
	blt	a5,zero,.L40
	.loc 1 537 7
	ld	a5,-64(s0)
	mv	a0,a5
	call	CoreSignalEvent@plt
.L40:
	.loc 1 543 16
	sb	zero,-17(s0)
	.loc 1 544 15
	lla	a5,mDiscoveredList
	ld	a5,0(a5)
	sd	a5,-40(s0)
	.loc 1 544 5
	j	.L41
.L47:
	.loc 1 545 23
	ld	a5,-40(s0)
	addi	a5,a5,-8
	.loc 1 545 137
	ld	a4,0(a5)
	.loc 1 545 222
	li	a5,1920364544
	addi	a5,a5,612
	bne	a4,a5,.L42
	.loc 1 545 19 discriminator 1
	ld	a5,-40(s0)
	addi	a5,a5,-8
	sd	a5,-32(s0)
	j	.L43
.L42:
	.loc 1 545 19 is_stmt 0 discriminator 2
	sd	zero,-32(s0)
.L43:
	.loc 1 547 22 is_stmt 1
	ld	a5,-32(s0)
	lbu	a5,121(a5)
	.loc 1 547 10
	beq	a5,zero,.L44
	.loc 1 551 18
	ld	a0,-32(s0)
	call	CoreGetDepexSectionAndPreProccess
	sd	a0,-56(s0)
.L44:
	.loc 1 554 22
	ld	a5,-32(s0)
	lbu	a5,116(a5)
	.loc 1 554 10
	beq	a5,zero,.L46
	.loc 1 555 13
	ld	a0,-32(s0)
	call	CoreIsSchedulable@plt
	mv	a5,a0
	.loc 1 555 12 discriminator 1
	beq	a5,zero,.L46
	.loc 1 556 11
	ld	a0,-32(s0)
	call	CoreInsertOnScheduledQueueWhileProcessingBeforeAndAfter
	.loc 1 557 22
	li	a5,1
	sb	a5,-17(s0)
.L46:
	.loc 1 544 77 discriminator 2
	ld	a5,-40(s0)
	ld	a5,0(a5)
	sd	a5,-40(s0)
.L41:
	.loc 1 544 51 discriminator 1
	ld	a4,-40(s0)
	lla	a5,mDiscoveredList
	bne	a4,a5,.L47
	.loc 1 567 12
	lbu	a5,-17(s0)
	andi	a5,a5,0xff
	bne	a5,zero,.L27
	.loc 1 572 3
	ld	a5,-64(s0)
	mv	a0,a5
	call	CoreCloseEvent@plt
	.loc 1 574 22
	lla	a5,gDispatcherRunning
	sb	zero,0(a5)
	.loc 1 576 12
	li	a0,64
	call	LogPerformanceMeasurementEnabled@plt
	mv	a5,a0
	.loc 1 576 11 discriminator 1
	beq	a5,zero,.L49
	.loc 1 576 57 discriminator 2
	li	a4,49
	li	a3,0
	lla	a2,__func__.1
	li	a1,0
	la	a0,gEfiCallerIdGuid
	call	LogPerformanceMeasurement@plt
.L49:
	.loc 1 578 10
	ld	a5,-48(s0)
.L50:
	.loc 1 579 1
	mv	a0,a5
	ld	ra,56(sp)
	.cfi_restore 1
	ld	s0,48(sp)
	.cfi_restore 8
	.cfi_def_cfa 2, 64
	addi	sp,sp,64
	.cfi_def_cfa_offset 0
	jr	ra
	.cfi_endproc
.LFE5:
	.size	CoreDispatcher, .-CoreDispatcher
	.section	.text.CoreInsertOnScheduledQueueWhileProcessingBeforeAndAfter,"ax",@progbits
	.align	1
	.globl	CoreInsertOnScheduledQueueWhileProcessingBeforeAndAfter
	.type	CoreInsertOnScheduledQueueWhileProcessingBeforeAndAfter, @function
CoreInsertOnScheduledQueueWhileProcessingBeforeAndAfter:
.LFB6:
	.loc 1 596 1
	.cfi_startproc
	addi	sp,sp,-48
	.cfi_def_cfa_offset 48
	sd	ra,40(sp)
	sd	s0,32(sp)
	.cfi_offset 1, -8
	.cfi_offset 8, -16
	addi	s0,sp,48
	.cfi_def_cfa 8, 0
	sd	a0,-40(s0)
	.loc 1 603 13
	lla	a5,mDiscoveredList
	ld	a5,0(a5)
	sd	a5,-24(s0)
	.loc 1 603 3
	j	.L52
.L56:
	.loc 1 604 21
	ld	a5,-24(s0)
	addi	a5,a5,-8
	.loc 1 604 135
	ld	a4,0(a5)
	.loc 1 604 220
	li	a5,1920364544
	addi	a5,a5,612
	bne	a4,a5,.L53
	.loc 1 604 17 discriminator 1
	ld	a5,-24(s0)
	addi	a5,a5,-8
	sd	a5,-32(s0)
	j	.L54
.L53:
	.loc 1 604 17 is_stmt 0 discriminator 2
	sd	zero,-32(s0)
.L54:
	.loc 1 605 20 is_stmt 1
	ld	a5,-32(s0)
	lbu	a5,96(a5)
	.loc 1 605 8
	beq	a5,zero,.L55
	.loc 1 605 43 discriminator 1
	ld	a5,-32(s0)
	lbu	a5,116(a5)
	.loc 1 605 29 discriminator 1
	beq	a5,zero,.L55
	.loc 1 605 55 discriminator 2
	ld	a4,-32(s0)
	ld	a5,-40(s0)
	beq	a4,a5,.L55
	.loc 1 608 24
	ld	a5,-40(s0)
	addi	a4,a5,48
	.loc 1 608 56
	ld	a5,-32(s0)
	addi	a5,a5,100
	.loc 1 608 11
	mv	a1,a5
	mv	a0,a4
	call	CompareGuid@plt
	mv	a5,a0
	.loc 1 608 10 discriminator 1
	beq	a5,zero,.L55
	.loc 1 613 9
	ld	a0,-32(s0)
	call	CoreInsertOnScheduledQueueWhileProcessingBeforeAndAfter
.L55:
	.loc 1 603 75 discriminator 2
	ld	a5,-24(s0)
	ld	a5,0(a5)
	sd	a5,-24(s0)
.L52:
	.loc 1 603 49 discriminator 1
	ld	a4,-24(s0)
	lla	a5,mDiscoveredList
	bne	a4,a5,.L56
	.loc 1 623 3
	call	CoreAcquireDispatcherLock
	.loc 1 625 34
	ld	a5,-40(s0)
	sb	zero,116(a5)
	.loc 1 626 34
	ld	a5,-40(s0)
	li	a4,1
	sb	a4,118(a5)
	.loc 1 627 3
	ld	a5,-40(s0)
	addi	a5,a5,24
	mv	a1,a5
	lla	a0,mScheduledQueue
	call	InsertTailList@plt
	.loc 1 629 3
	call	CoreReleaseDispatcherLock
	.loc 1 634 13
	lla	a5,mDiscoveredList
	ld	a5,0(a5)
	sd	a5,-24(s0)
	.loc 1 634 3
	j	.L57
.L61:
	.loc 1 635 21
	ld	a5,-24(s0)
	addi	a5,a5,-8
	.loc 1 635 135
	ld	a4,0(a5)
	.loc 1 635 220
	li	a5,1920364544
	addi	a5,a5,612
	bne	a4,a5,.L58
	.loc 1 635 17 discriminator 1
	ld	a5,-24(s0)
	addi	a5,a5,-8
	sd	a5,-32(s0)
	j	.L59
.L58:
	.loc 1 635 17 is_stmt 0 discriminator 2
	sd	zero,-32(s0)
.L59:
	.loc 1 636 20 is_stmt 1
	ld	a5,-32(s0)
	lbu	a5,97(a5)
	.loc 1 636 8
	beq	a5,zero,.L60
	.loc 1 636 42 discriminator 1
	ld	a5,-32(s0)
	lbu	a5,116(a5)
	.loc 1 636 28 discriminator 1
	beq	a5,zero,.L60
	.loc 1 636 54 discriminator 2
	ld	a4,-32(s0)
	ld	a5,-40(s0)
	beq	a4,a5,.L60
	.loc 1 639 24
	ld	a5,-40(s0)
	addi	a4,a5,48
	.loc 1 639 56
	ld	a5,-32(s0)
	addi	a5,a5,100
	.loc 1 639 11
	mv	a1,a5
	mv	a0,a4
	call	CompareGuid@plt
	mv	a5,a0
	.loc 1 639 10 discriminator 1
	beq	a5,zero,.L60
	.loc 1 644 9
	ld	a0,-32(s0)
	call	CoreInsertOnScheduledQueueWhileProcessingBeforeAndAfter
.L60:
	.loc 1 634 75 discriminator 2
	ld	a5,-24(s0)
	ld	a5,0(a5)
	sd	a5,-24(s0)
.L57:
	.loc 1 634 49 discriminator 1
	ld	a4,-24(s0)
	lla	a5,mDiscoveredList
	bne	a4,a5,.L61
	.loc 1 650 1
	nop
	nop
	ld	ra,40(sp)
	.cfi_restore 1
	ld	s0,32(sp)
	.cfi_restore 8
	.cfi_def_cfa 2, 48
	addi	sp,sp,48
	.cfi_def_cfa_offset 0
	jr	ra
	.cfi_endproc
.LFE6:
	.size	CoreInsertOnScheduledQueueWhileProcessingBeforeAndAfter, .-CoreInsertOnScheduledQueueWhileProcessingBeforeAndAfter
	.section	.text.FvHasBeenProcessed,"ax",@progbits
	.align	1
	.globl	FvHasBeenProcessed
	.type	FvHasBeenProcessed, @function
FvHasBeenProcessed:
.LFB7:
	.loc 1 665 1
	.cfi_startproc
	addi	sp,sp,-48
	.cfi_def_cfa_offset 48
	sd	ra,40(sp)
	sd	s0,32(sp)
	.cfi_offset 1, -8
	.cfi_offset 8, -16
	addi	s0,sp,48
	.cfi_def_cfa 8, 0
	sd	a0,-40(s0)
	.loc 1 669 13
	lla	a5,mFvHandleList
	ld	a5,0(a5)
	sd	a5,-24(s0)
	.loc 1 669 3
	j	.L63
.L68:
	.loc 1 670 21
	ld	a5,-24(s0)
	addi	a5,a5,-8
	.loc 1 670 117
	ld	a4,0(a5)
	.loc 1 670 202
	li	a5,2003791872
	addi	a5,a5,-405
	bne	a4,a5,.L64
	.loc 1 670 17 discriminator 1
	ld	a5,-24(s0)
	addi	a5,a5,-8
	sd	a5,-32(s0)
	j	.L65
.L64:
	.loc 1 670 17 is_stmt 0 discriminator 2
	sd	zero,-32(s0)
.L65:
	.loc 1 671 20 is_stmt 1
	ld	a5,-32(s0)
	ld	a5,24(a5)
	.loc 1 671 8
	ld	a4,-40(s0)
	bne	a4,a5,.L66
	.loc 1 672 14
	li	a5,1
	j	.L67
.L66:
	.loc 1 669 71 discriminator 2
	ld	a5,-24(s0)
	ld	a5,0(a5)
	sd	a5,-24(s0)
.L63:
	.loc 1 669 47 discriminator 1
	ld	a4,-24(s0)
	lla	a5,mFvHandleList
	bne	a4,a5,.L68
	.loc 1 676 10
	li	a5,0
.L67:
	.loc 1 677 1
	mv	a0,a5
	ld	ra,40(sp)
	.cfi_restore 1
	ld	s0,32(sp)
	.cfi_restore 8
	.cfi_def_cfa 2, 48
	addi	sp,sp,48
	.cfi_def_cfa_offset 0
	jr	ra
	.cfi_endproc
.LFE7:
	.size	FvHasBeenProcessed, .-FvHasBeenProcessed
	.section	.text.FvIsBeingProcessed,"ax",@progbits
	.align	1
	.globl	FvIsBeingProcessed
	.type	FvIsBeingProcessed, @function
FvIsBeingProcessed:
.LFB8:
	.loc 1 695 1
	.cfi_startproc
	addi	sp,sp,-128
	.cfi_def_cfa_offset 128
	sd	ra,120(sp)
	sd	s0,112(sp)
	.cfi_offset 1, -8
	.cfi_offset 8, -16
	addi	s0,sp,128
	.cfi_def_cfa 8, 0
	sd	a0,-120(s0)
	.loc 1 709 15
	sd	zero,-96(s0)
	.loc 1 714 21
	sb	zero,-17(s0)
	.loc 1 715 12
	addi	a5,s0,-88
	mv	a2,a5
	la	a1,gEfiFirmwareVolumeBlockProtocolGuid
	ld	a0,-120(s0)
	call	CoreHandleProtocol@plt
	sd	a0,-64(s0)
	.loc 1 716 7
	ld	a5,-64(s0)
	.loc 1 716 6
	blt	a5,zero,.L70
	.loc 1 721 14
	ld	a5,-88(s0)
	addi	a4,s0,-96
	mv	a1,a4
	mv	a0,a5
	call	GetFwVolHeader@plt
	sd	a0,-64(s0)
	.loc 1 722 9
	ld	a5,-64(s0)
	.loc 1 722 8
	blt	a5,zero,.L70
	.loc 1 724 11
	ld	a5,-96(s0)
	mv	a0,a5
	call	VerifyFvHeaderChecksum@plt
	mv	a5,a0
	.loc 1 724 10 discriminator 1
	beq	a5,zero,.L71
	.loc 1 724 63 discriminator 2
	ld	a5,-96(s0)
	lhu	a5,52(a5)
	.loc 1 724 48 discriminator 2
	beq	a5,zero,.L71
	.loc 1 725 46
	ld	a5,-96(s0)
	lhu	a5,52(a5)
	.loc 1 725 25
	sw	a5,-24(s0)
	.loc 1 726 31
	ld	a5,-96(s0)
	.loc 1 726 18
	addi	a5,a5,56
	sd	a5,-32(s0)
	.loc 1 727 18
	sd	zero,-112(s0)
	.loc 1 728 19
	sd	zero,-104(s0)
	.loc 1 732 15
	j	.L72
.L78:
	.loc 1 733 22
	sd	zero,-40(s0)
	.loc 1 733 11
	j	.L73
.L75:
	.loc 1 734 40
	ld	a5,-32(s0)
	lw	a5,4(a5)
	.loc 1 734 29
	lw	a4,-24(s0)
	subw	a5,a4,a5
	sw	a5,-24(s0)
	.loc 1 735 21
	ld	a5,-112(s0)
	addi	a5,a5,1
	sd	a5,-112(s0)
	.loc 1 733 100 discriminator 4
	ld	a5,-40(s0)
	addi	a5,a5,1
	sd	a5,-40(s0)
.L73:
	.loc 1 733 43 discriminator 1
	ld	a5,-32(s0)
	lw	a5,0(a5)
	slli	a5,a5,32
	srli	a5,a5,32
	.loc 1 733 55 discriminator 1
	ld	a4,-40(s0)
	bgeu	a4,a5,.L74
	.loc 1 733 85 discriminator 3
	ld	a5,-32(s0)
	lw	a5,4(a5)
	.loc 1 733 55 discriminator 3
	lw	a4,-24(s0)
	sext.w	a4,a4
	bgeu	a4,a5,.L75
.L74:
	.loc 1 741 31
	ld	a5,-32(s0)
	lw	a5,0(a5)
	slli	a5,a5,32
	srli	a5,a5,32
	.loc 1 741 14
	ld	a4,-40(s0)
	bgeu	a4,a5,.L76
	.loc 1 742 23
	lwu	a5,-24(s0)
	sd	a5,-104(s0)
	.loc 1 743 13
	j	.L77
.L76:
	.loc 1 746 19
	ld	a5,-32(s0)
	addi	a5,a5,8
	sd	a5,-32(s0)
.L72:
	.loc 1 732 25
	ld	a5,-32(s0)
	lw	a5,0(a5)
	.loc 1 732 43
	bne	a5,zero,.L78
	.loc 1 732 55 discriminator 1
	ld	a5,-32(s0)
	lw	a5,4(a5)
	.loc 1 732 43 discriminator 1
	bne	a5,zero,.L78
.L77:
	.loc 1 752 18
	ld	a5,-88(s0)
	addi	a4,s0,-80
	addi	a2,s0,-104
	addi	a1,s0,-112
	li	a3,16
	mv	a0,a5
	call	ReadFvbData@plt
	sd	a0,-64(s0)
	.loc 1 753 13
	ld	a5,-64(s0)
	.loc 1 753 12
	blt	a5,zero,.L71
	.loc 1 754 29
	li	a5,1
	sb	a5,-17(s0)
.L71:
	.loc 1 758 7
	ld	a5,-96(s0)
	mv	a0,a5
	call	CoreFreePool@plt
.L70:
	.loc 1 762 6
	lbu	a5,-17(s0)
	andi	a5,a5,0xff
	beq	a5,zero,.L79
	.loc 1 766 15
	lla	a5,mFvHandleList
	ld	a5,0(a5)
	sd	a5,-48(s0)
	.loc 1 766 5
	j	.L80
.L85:
	.loc 1 767 23
	ld	a5,-48(s0)
	addi	a5,a5,-8
	.loc 1 767 119
	ld	a4,0(a5)
	.loc 1 767 204
	li	a5,2003791872
	addi	a5,a5,-405
	bne	a4,a5,.L81
	.loc 1 767 19 discriminator 1
	ld	a5,-48(s0)
	addi	a5,a5,-8
	sd	a5,-56(s0)
	j	.L82
.L81:
	.loc 1 767 19 is_stmt 0 discriminator 2
	sd	zero,-56(s0)
.L82:
	.loc 1 768 37 is_stmt 1
	ld	a5,-56(s0)
	addi	a4,a5,32
	.loc 1 768 11
	addi	a5,s0,-80
	mv	a1,a4
	mv	a0,a5
	call	CompareGuid@plt
	mv	a5,a0
	.loc 1 768 10 discriminator 1
	beq	a5,zero,.L83
	.loc 1 770 16
	li	a5,0
	j	.L87
.L83:
	.loc 1 766 73 discriminator 2
	ld	a5,-48(s0)
	ld	a5,0(a5)
	sd	a5,-48(s0)
.L80:
	.loc 1 766 49 discriminator 1
	ld	a4,-48(s0)
	lla	a5,mFvHandleList
	bne	a4,a5,.L85
.L79:
	.loc 1 775 17
	li	a0,48
	call	AllocateZeroPool@plt
	sd	a0,-56(s0)
	.loc 1 778 26
	ld	a5,-56(s0)
	li	a4,2003791872
	addi	a4,a4,-405
	sd	a4,0(a5)
	.loc 1 779 23
	ld	a5,-56(s0)
	ld	a4,-120(s0)
	sd	a4,24(a5)
	.loc 1 780 6
	lbu	a5,-17(s0)
	andi	a5,a5,0xff
	beq	a5,zero,.L86
	.loc 1 781 15
	ld	a5,-56(s0)
	addi	a5,a5,32
	.loc 1 781 5
	addi	a4,s0,-80
	mv	a1,a4
	mv	a0,a5
	call	CopyGuid@plt
.L86:
	.loc 1 784 3
	ld	a5,-56(s0)
	addi	a5,a5,8
	mv	a1,a5
	lla	a0,mFvHandleList
	call	InsertTailList@plt
	.loc 1 785 10
	ld	a5,-56(s0)
.L87:
	.loc 1 786 1
	mv	a0,a5
	ld	ra,120(sp)
	.cfi_restore 1
	ld	s0,112(sp)
	.cfi_restore 8
	.cfi_def_cfa 2, 128
	addi	sp,sp,128
	.cfi_def_cfa_offset 0
	jr	ra
	.cfi_endproc
.LFE8:
	.size	FvIsBeingProcessed, .-FvIsBeingProcessed
	.section	.text.CoreFvToDevicePath,"ax",@progbits
	.align	1
	.globl	CoreFvToDevicePath
	.type	CoreFvToDevicePath, @function
CoreFvToDevicePath:
.LFB9:
	.loc 1 807 1
	.cfi_startproc
	addi	sp,sp,-80
	.cfi_def_cfa_offset 80
	sd	ra,72(sp)
	sd	s0,64(sp)
	.cfi_offset 1, -8
	.cfi_offset 8, -16
	addi	s0,sp,80
	.cfi_def_cfa 8, 0
	sd	a0,-56(s0)
	sd	a1,-64(s0)
	sd	a2,-72(s0)
	.loc 1 815 12
	addi	a5,s0,-40
	mv	a2,a5
	la	a1,gEfiDevicePathProtocolGuid
	ld	a0,-64(s0)
	call	CoreHandleProtocol@plt
	sd	a0,-32(s0)
	.loc 1 816 34
	ld	a5,-32(s0)
	.loc 1 816 6
	bge	a5,zero,.L89
	.loc 1 817 24
	sd	zero,-24(s0)
	j	.L90
.L89:
	.loc 1 822 5
	ld	a1,-72(s0)
	lla	a0,mFvDevicePath
	call	EfiInitializeFwVolDevicepathNode@plt
	.loc 1 823 5
	lla	a0,mFvDevicePath+20
	call	SetDevicePathEndNode@plt
	.loc 1 825 26
	ld	a5,-40(s0)
	lla	a1,mFvDevicePath
	mv	a0,a5
	call	AppendDevicePath@plt
	sd	a0,-24(s0)
.L90:
	.loc 1 831 10
	ld	a5,-24(s0)
	.loc 1 832 1
	mv	a0,a5
	ld	ra,72(sp)
	.cfi_restore 1
	ld	s0,64(sp)
	.cfi_restore 8
	.cfi_def_cfa 2, 80
	addi	sp,sp,80
	.cfi_def_cfa_offset 0
	jr	ra
	.cfi_endproc
.LFE9:
	.size	CoreFvToDevicePath, .-CoreFvToDevicePath
	.section	.text.CoreAddToDriverList,"ax",@progbits
	.align	1
	.globl	CoreAddToDriverList
	.type	CoreAddToDriverList, @function
CoreAddToDriverList:
.LFB10:
	.loc 1 862 1
	.cfi_startproc
	addi	sp,sp,-64
	.cfi_def_cfa_offset 64
	sd	ra,56(sp)
	sd	s0,48(sp)
	.cfi_offset 1, -8
	.cfi_offset 8, -16
	addi	s0,sp,64
	.cfi_def_cfa 8, 0
	sd	a0,-40(s0)
	sd	a1,-48(s0)
	sd	a2,-56(s0)
	mv	a5,a3
	sb	a5,-57(s0)
	.loc 1 869 17
	li	a0,144
	call	AllocateZeroPool@plt
	sd	a0,-24(s0)
	.loc 1 871 6
	lbu	a5,-57(s0)
	andi	a4,a5,0xff
	li	a5,11
	bne	a4,a5,.L93
	.loc 1 872 28
	ld	a5,-24(s0)
	li	a4,1
	sb	a4,136(a5)
.L93:
	.loc 1 875 26
	ld	a5,-24(s0)
	li	a4,1920364544
	addi	a4,a4,612
	sd	a4,0(a5)
	.loc 1 876 13
	ld	a5,-24(s0)
	addi	a5,a5,48
	.loc 1 876 3
	ld	a1,-56(s0)
	mv	a0,a5
	call	CopyGuid@plt
	.loc 1 877 25
	ld	a5,-24(s0)
	ld	a4,-48(s0)
	sd	a4,40(a5)
	.loc 1 878 19
	ld	a5,-24(s0)
	ld	a4,-40(s0)
	sd	a4,72(a5)
	.loc 1 879 35
	ld	a2,-56(s0)
	ld	a1,-48(s0)
	ld	a0,-40(s0)
	call	CoreFvToDevicePath
	mv	a4,a0
	.loc 1 879 33 discriminator 1
	ld	a5,-24(s0)
	sd	a4,64(a5)
	.loc 1 881 3
	ld	a0,-24(s0)
	call	CoreGetDepexSectionAndPreProccess
	.loc 1 883 3
	call	CoreAcquireDispatcherLock
	.loc 1 885 3
	ld	a5,-24(s0)
	addi	a5,a5,8
	mv	a1,a5
	lla	a0,mDiscoveredList
	call	InsertTailList@plt
	.loc 1 887 3
	call	CoreReleaseDispatcherLock
	.loc 1 889 10
	li	a5,0
	.loc 1 890 1
	mv	a0,a5
	ld	ra,56(sp)
	.cfi_restore 1
	ld	s0,48(sp)
	.cfi_restore 8
	.cfi_def_cfa 2, 64
	addi	sp,sp,64
	.cfi_def_cfa_offset 0
	jr	ra
	.cfi_endproc
.LFE10:
	.size	CoreAddToDriverList, .-CoreAddToDriverList
	.section	.text.FvFoundInHobFv2,"ax",@progbits
	.align	1
	.globl	FvFoundInHobFv2
	.type	FvFoundInHobFv2, @function
FvFoundInHobFv2:
.LFB11:
	.loc 1 909 1
	.cfi_startproc
	addi	sp,sp,-48
	.cfi_def_cfa_offset 48
	sd	ra,40(sp)
	sd	s0,32(sp)
	.cfi_offset 1, -8
	.cfi_offset 8, -16
	addi	s0,sp,48
	.cfi_def_cfa 8, 0
	sd	a0,-40(s0)
	sd	a1,-48(s0)
	.loc 1 912 16
	call	GetHobList@plt
	mv	a5,a0
	.loc 1 912 14 discriminator 1
	sd	a5,-24(s0)
	.loc 1 914 9
	j	.L96
.L99:
	.loc 1 918 41
	ld	a5,-24(s0)
	.loc 1 918 34
	addi	a5,a5,40
	.loc 1 918 9
	mv	a1,a5
	ld	a0,-48(s0)
	call	CompareGuid@plt
	mv	a5,a0
	.loc 1 918 8 discriminator 1
	beq	a5,zero,.L97
	.loc 1 919 41
	ld	a5,-24(s0)
	.loc 1 919 34
	addi	a5,a5,24
	.loc 1 919 9
	mv	a1,a5
	ld	a0,-40(s0)
	call	CompareGuid@plt
	mv	a5,a0
	.loc 1 918 69 discriminator 2
	beq	a5,zero,.L97
	.loc 1 921 14
	li	a5,1
	j	.L100
.L97:
	.loc 1 924 38
	addi	a5,s0,-24
	.loc 1 924 27
	ld	a5,0(a5)
	.loc 1 924 80
	addi	a4,s0,-24
	.loc 1 924 52
	ld	a4,0(a4)
	.loc 1 924 90
	lhu	a4,2(a4)
	.loc 1 924 48
	add	a5,a5,a4
	.loc 1 924 16
	sd	a5,-24(s0)
.L96:
	.loc 1 914 50
	ld	a5,-24(s0)
	.loc 1 914 24
	mv	a1,a5
	li	a0,9
	call	GetNextHob@plt
	mv	a5,a0
	.loc 1 914 22 discriminator 1
	sd	a5,-24(s0)
	.loc 1 914 17 discriminator 1
	ld	a5,-24(s0)
	.loc 1 914 57 discriminator 1
	bne	a5,zero,.L99
	.loc 1 927 10
	li	a5,0
.L100:
	.loc 1 928 1
	mv	a0,a5
	ld	ra,40(sp)
	.cfi_restore 1
	ld	s0,32(sp)
	.cfi_restore 8
	.cfi_def_cfa 2, 48
	addi	sp,sp,48
	.cfi_def_cfa_offset 0
	jr	ra
	.cfi_endproc
.LFE11:
	.size	FvFoundInHobFv2, .-FvFoundInHobFv2
	.section	.text.GetFvUsedSize,"ax",@progbits
	.align	1
	.globl	GetFvUsedSize
	.type	GetFvUsedSize, @function
GetFvUsedSize:
.LFB12:
	.loc 1 950 1
	.cfi_startproc
	addi	sp,sp,-80
	.cfi_def_cfa_offset 80
	sd	ra,72(sp)
	sd	s0,64(sp)
	.cfi_offset 1, -8
	.cfi_offset 8, -16
	addi	s0,sp,80
	.cfi_def_cfa 8, 0
	sd	a0,-56(s0)
	sd	a1,-64(s0)
	sd	a2,-72(s0)
	.loc 1 956 38
	ld	a5,-56(s0)
	addi	a5,a5,52
	.loc 1 956 21
	mv	a0,a5
	call	ReadUnaligned16@plt
	mv	a5,a0
	sh	a5,-26(s0)
	.loc 1 957 6
	lhu	a5,-26(s0)
	sext.w	a5,a5
	beq	a5,zero,.L102
	.loc 1 958 17
	lhu	a5,-26(s0)
	.loc 1 958 15
	ld	a4,-56(s0)
	add	a5,a4,a5
	sd	a5,-40(s0)
	.loc 1 959 18
	ld	a5,-40(s0)
	addi	a5,a5,20
	sd	a5,-24(s0)
	.loc 1 960 11
	j	.L103
.L108:
	.loc 1 961 28
	ld	a5,-24(s0)
	addi	a5,a5,2
	.loc 1 961 11
	mv	a0,a5
	call	ReadUnaligned16@plt
	mv	a5,a0
	.loc 1 961 10 discriminator 1
	sext.w	a4,a5
	li	a5,3
	bne	a4,a5,.L104
	.loc 1 965 26
	ld	a5,-24(s0)
	sd	a5,-48(s0)
	.loc 1 966 40
	ld	a5,-48(s0)
	addi	a5,a5,4
	.loc 1 966 23
	mv	a0,a5
	call	ReadUnaligned32@plt
	mv	a5,a0
	mv	a4,a5
	.loc 1 966 21 discriminator 1
	ld	a5,-64(s0)
	sw	a4,0(a5)
	.loc 1 967 31
	ld	a5,-56(s0)
	addi	a5,a5,44
	.loc 1 967 14
	mv	a0,a5
	call	ReadUnaligned32@plt
	mv	a5,a0
	.loc 1 967 54 discriminator 1
	mv	a4,a5
	li	a5,4096
	addi	a5,a5,-2048
	and	a5,a4,a5
	sext.w	a5,a5
	.loc 1 967 12 discriminator 1
	beq	a5,zero,.L105
	.loc 1 968 22
	ld	a5,-72(s0)
	li	a4,-1
	sb	a4,0(a5)
	j	.L106
.L105:
	.loc 1 970 22
	ld	a5,-72(s0)
	sb	zero,0(a5)
.L106:
	.loc 1 980 16
	li	a5,1
	j	.L107
.L104:
	.loc 1 984 64
	ld	a5,-24(s0)
	.loc 1 984 47
	mv	a0,a5
	call	ReadUnaligned16@plt
	mv	a5,a0
	.loc 1 984 47 is_stmt 0 discriminator 1
	mv	a4,a5
	.loc 1 983 20 is_stmt 1
	ld	a5,-24(s0)
	add	a5,a5,a4
	sd	a5,-24(s0)
.L103:
	.loc 1 960 71
	ld	a5,-40(s0)
	addi	a5,a5,16
	.loc 1 960 54
	mv	a0,a5
	call	ReadUnaligned32@plt
	mv	a5,a0
	.loc 1 960 54 is_stmt 0 discriminator 1
	slli	a4,a5,32
	srli	a4,a4,32
	.loc 1 960 35 is_stmt 1 discriminator 1
	ld	a5,-40(s0)
	.loc 1 960 52 discriminator 1
	add	a4,a4,a5
	.loc 1 960 12 discriminator 1
	ld	a5,-24(s0)
	.loc 1 960 32 discriminator 1
	bgtu	a4,a5,.L108
.L102:
	.loc 1 991 10
	li	a5,0
.L107:
	.loc 1 992 1
	mv	a0,a5
	ld	ra,72(sp)
	.cfi_restore 1
	ld	s0,64(sp)
	.cfi_restore 8
	.cfi_def_cfa 2, 80
	addi	sp,sp,80
	.cfi_def_cfa_offset 0
	jr	ra
	.cfi_endproc
.LFE12:
	.size	GetFvUsedSize, .-GetFvUsedSize
	.section	.text.CoreProcessFvImageFile,"ax",@progbits
	.align	1
	.globl	CoreProcessFvImageFile
	.type	CoreProcessFvImageFile, @function
CoreProcessFvImageFile:
.LFB13:
	.loc 1 1011 1
	.cfi_startproc
	addi	sp,sp,-144
	.cfi_def_cfa_offset 144
	sd	ra,136(sp)
	sd	s0,128(sp)
	.cfi_offset 1, -8
	.cfi_offset 8, -16
	addi	s0,sp,144
	.cfi_def_cfa 8, 0
	sd	a0,-120(s0)
	sd	a1,-128(s0)
	sd	a2,-136(s0)
	.loc 1 1028 15
	li	a5,23
	sb	a5,-57(s0)
	.loc 1 1030 9
	sd	zero,-56(s0)
.L127:
	.loc 1 1032 14
	sd	zero,-40(s0)
	.loc 1 1033 17
	sw	zero,-44(s0)
	.loc 1 1034 12
	sd	zero,-88(s0)
	.loc 1 1035 16
	sd	zero,-96(s0)
	.loc 1 1036 19
	sd	zero,-32(s0)
	.loc 1 1037 16
	ld	a5,-120(s0)
	ld	a7,24(a5)
	.loc 1 1037 14
	addi	a3,s0,-76
	addi	a5,s0,-96
	addi	a4,s0,-88
	lbu	a2,-57(s0)
	mv	a6,a3
	ld	a3,-56(s0)
	ld	a1,-136(s0)
	ld	a0,-120(s0)
	jalr	a7
.LVL1:
	sd	a0,-24(s0)
	.loc 1 1046 9
	ld	a5,-24(s0)
	.loc 1 1046 8
	blt	a5,zero,.L110
	.loc 1 1051 21
	la	a5,gSecurity
	ld	a5,0(a5)
	.loc 1 1051 10
	beq	a5,zero,.L111
	.loc 1 1052 28
	ld	a2,-136(s0)
	ld	a1,-128(s0)
	ld	a0,-120(s0)
	call	CoreFvToDevicePath
	sd	a0,-72(s0)
	.loc 1 1053 27
	la	a5,gSecurity
	ld	a5,0(a5)
	ld	a5,0(a5)
	.loc 1 1053 18
	la	a4,gSecurity
	ld	a4,0(a4)
	lw	a3,-76(s0)
	ld	a2,-72(s0)
	mv	a1,a3
	mv	a0,a4
	jalr	a5
.LVL2:
	sd	a0,-24(s0)
	.loc 1 1058 12
	ld	a5,-72(s0)
	beq	a5,zero,.L112
	.loc 1 1059 11
	ld	a0,-72(s0)
	call	FreePool@plt
.L112:
	.loc 1 1062 12
	ld	a5,-24(s0)
	beq	a5,zero,.L111
	.loc 1 1066 22
	ld	a5,-88(s0)
	.loc 1 1066 14
	beq	a5,zero,.L131
	.loc 1 1067 13
	ld	a5,-88(s0)
	mv	a0,a5
	call	FreePool@plt
	.loc 1 1070 11
	j	.L131
.L111:
	.loc 1 1077 16
	ld	a5,-88(s0)
	sd	a5,-40(s0)
	.loc 1 1083 29
	ld	a5,-40(s0)
	addi	a5,a5,44
	.loc 1 1083 12
	mv	a0,a5
	call	ReadUnaligned32@plt
	mv	a5,a0
	.loc 1 1083 52 discriminator 1
	mv	a4,a5
	li	a5,-2147483648
	and	a5,a4,a5
	sext.w	a4,a5
	.loc 1 1083 10 discriminator 1
	li	a5,-2147483648
	beq	a4,a5,.L115
	.loc 1 1087 47
	ld	a5,-40(s0)
	addi	a5,a5,44
	.loc 1 1087 30
	mv	a0,a5
	call	ReadUnaligned32@plt
	mv	a5,a0
	.loc 1 1087 84 discriminator 1
	srliw	a5,a5,16
	sext.w	a5,a5
	andi	a5,a5,31
	sext.w	a5,a5
	.loc 1 1087 25 discriminator 1
	li	a4,1
	sllw	a5,a4,a5
	sext.w	a5,a5
	.loc 1 1087 21 discriminator 1
	sw	a5,-44(s0)
	.loc 1 1091 12
	lw	a5,-44(s0)
	sext.w	a4,a5
	li	a5,7
	bgtu	a4,a5,.L116
	.loc 1 1092 23
	li	a5,8
	sw	a5,-44(s0)
.L116:
	.loc 1 1106 13
	ld	a4,-40(s0)
	.loc 1 1106 29
	lwu	a5,-44(s0)
	remu	a5,a4,a5
	.loc 1 1106 12
	beq	a5,zero,.L115
	.loc 1 1110 64
	ld	a5,-96(s0)
	srli	a4,a5,12
	.loc 1 1110 88
	ld	a3,-96(s0)
	li	a5,4096
	addi	a5,a5,-1
	and	a5,a3,a5
	.loc 1 1110 101
	beq	a5,zero,.L117
	.loc 1 1110 101 is_stmt 0 discriminator 1
	li	a5,1
	j	.L118
.L117:
	.loc 1 1110 101 discriminator 2
	li	a5,0
.L118:
	.loc 1 1110 27 is_stmt 1 discriminator 4
	add	a5,a5,a4
	lwu	a4,-44(s0)
	mv	a1,a4
	mv	a0,a5
	call	AllocateAlignedPages@plt
	sd	a0,-32(s0)
	.loc 1 1111 14
	ld	a5,-32(s0)
	bne	a5,zero,.L119
	.loc 1 1112 13
	ld	a5,-88(s0)
	mv	a0,a5
	call	FreePool@plt
	.loc 1 1113 20
	li	a5,-1
	slli	a5,a5,63
	addi	a5,a5,9
	sd	a5,-24(s0)
	.loc 1 1114 13
	j	.L114
.L119:
	.loc 1 1119 17
	addi	a4,s0,-101
	addi	a5,s0,-100
	mv	a2,a4
	mv	a1,a5
	ld	a0,-40(s0)
	call	GetFvUsedSize
	mv	a5,a0
	.loc 1 1119 16 discriminator 1
	beq	a5,zero,.L120
	.loc 1 1123 15
	lw	a5,-100(s0)
	slli	a5,a5,32
	srli	a5,a5,32
	mv	a2,a5
	ld	a1,-40(s0)
	ld	a0,-32(s0)
	call	CopyMem@plt
	.loc 1 1124 15
	lw	a5,-100(s0)
	slli	a5,a5,32
	srli	a5,a5,32
	ld	a4,-32(s0)
	add	a3,a4,a5
	ld	a4,-96(s0)
	lw	a5,-100(s0)
	slli	a5,a5,32
	srli	a5,a5,32
	sub	a5,a4,a5
	lbu	a4,-101(s0)
	mv	a2,a4
	mv	a1,a5
	mv	a0,a3
	call	SetMem@plt
	j	.L121
.L120:
	.loc 1 1130 15
	ld	a5,-88(s0)
	ld	a4,-96(s0)
	mv	a2,a4
	mv	a1,a5
	ld	a0,-32(s0)
	call	CopyMem@plt
.L121:
	.loc 1 1133 22
	ld	a5,-32(s0)
	sd	a5,-40(s0)
	.loc 1 1134 13
	ld	a5,-88(s0)
	mv	a0,a5
	call	FreePool@plt
	.loc 1 1135 20
	sd	zero,-88(s0)
.L115:
	.loc 1 1143 16
	ld	a5,-40(s0)
	ld	a1,-96(s0)
	lw	a3,-76(s0)
	li	a4,0
	ld	a2,-128(s0)
	mv	a0,a5
	call	ProduceFVBProtocolOnBuffer@plt
	sd	a0,-24(s0)
.L110:
	.loc 1 1152 36
	ld	a5,-24(s0)
	.loc 1 1152 8
	bge	a5,zero,.L122
	.loc 1 1156 18
	ld	a5,-88(s0)
	.loc 1 1156 10
	beq	a5,zero,.L123
	.loc 1 1157 9
	ld	a5,-88(s0)
	mv	a0,a5
	call	FreePool@plt
.L123:
	.loc 1 1160 10
	ld	a5,-32(s0)
	beq	a5,zero,.L132
	.loc 1 1161 57
	ld	a5,-96(s0)
	srli	a4,a5,12
	.loc 1 1161 81
	ld	a3,-96(s0)
	li	a5,4096
	addi	a5,a5,-1
	and	a5,a3,a5
	.loc 1 1161 94
	beq	a5,zero,.L125
	.loc 1 1161 94 is_stmt 0 discriminator 1
	li	a5,1
	j	.L126
.L125:
	.loc 1 1161 94 discriminator 2
	li	a5,0
.L126:
	.loc 1 1161 9 is_stmt 1 discriminator 4
	add	a5,a5,a4
	mv	a1,a5
	ld	a0,-32(s0)
	call	FreeAlignedPages@plt
	.loc 1 1164 7
	j	.L132
.L122:
	.loc 1 1166 12
	ld	a5,-56(s0)
	addi	a5,a5,1
	sd	a5,-56(s0)
	.loc 1 1032 14
	j	.L127
.L131:
	.loc 1 1070 11
	nop
	j	.L114
.L132:
	.loc 1 1164 7
	nop
.L114:
	.loc 1 1170 6
	ld	a5,-56(s0)
	beq	a5,zero,.L128
	.loc 1 1174 12
	li	a5,0
	j	.L130
.L128:
	.loc 1 1176 12
	ld	a5,-24(s0)
.L130:
	.loc 1 1178 1
	mv	a0,a5
	ld	ra,136(sp)
	.cfi_restore 1
	ld	s0,128(sp)
	.cfi_restore 8
	.cfi_def_cfa 2, 144
	addi	sp,sp,144
	.cfi_def_cfa_offset 0
	jr	ra
	.cfi_endproc
.LFE13:
	.size	CoreProcessFvImageFile, .-CoreProcessFvImageFile
	.section	.text.CoreFwVolEventProtocolNotify,"ax",@progbits
	.align	1
	.globl	CoreFwVolEventProtocolNotify
	.type	CoreFwVolEventProtocolNotify, @function
CoreFwVolEventProtocolNotify:
.LFB14:
	.loc 1 1203 1
	.cfi_startproc
	addi	sp,sp,-208
	.cfi_def_cfa_offset 208
	sd	ra,200(sp)
	sd	s0,192(sp)
	sd	s1,184(sp)
	.cfi_offset 1, -8
	.cfi_offset 8, -16
	.cfi_offset 9, -24
	addi	s0,sp,208
	.cfi_def_cfa 8, 0
	sd	a0,-200(s0)
	sd	a1,-208(s0)
	.loc 1 1225 12
	sd	zero,-112(s0)
.L161:
	.loc 1 1228 16
	li	a5,8
	sd	a5,-120(s0)
	.loc 1 1229 14
	lla	a5,mFwVolEventRegistration
	ld	a5,0(a5)
	addi	a4,s0,-112
	addi	a3,s0,-120
	mv	a2,a5
	li	a1,0
	li	a0,1
	call	CoreLocateHandle@plt
	sd	a0,-72(s0)
	.loc 1 1236 36
	ld	a5,-72(s0)
	.loc 1 1236 8
	blt	a5,zero,.L163
	.loc 1 1243 9
	ld	a5,-112(s0)
	mv	a0,a5
	call	FvHasBeenProcessed
	mv	a5,a0
	.loc 1 1243 8 discriminator 1
	bne	a5,zero,.L164
	.loc 1 1253 19
	ld	a5,-112(s0)
	mv	a0,a5
	call	FvIsBeingProcessed
	sd	a0,-80(s0)
	.loc 1 1254 8
	ld	a5,-80(s0)
	beq	a5,zero,.L165
	.loc 1 1262 14
	ld	a5,-112(s0)
	addi	a4,s0,-96
	mv	a2,a4
	la	a1,gEfiFirmwareVolume2ProtocolGuid
	mv	a0,a5
	call	CoreHandleProtocol@plt
	sd	a0,-72(s0)
	.loc 1 1263 36
	ld	a5,-72(s0)
	.loc 1 1263 8
	blt	a5,zero,.L166
	.loc 1 1263 69 discriminator 2
	ld	a5,-96(s0)
	.loc 1 1263 62 discriminator 2
	beq	a5,zero,.L166
	.loc 1 1271 14
	ld	a5,-112(s0)
	addi	a4,s0,-104
	mv	a2,a4
	la	a1,gEfiDevicePathProtocolGuid
	mv	a0,a5
	call	CoreHandleProtocol@plt
	sd	a0,-72(s0)
	.loc 1 1272 36
	ld	a5,-72(s0)
	.loc 1 1272 8
	blt	a5,zero,.L167
	.loc 1 1285 16
	sd	zero,-40(s0)
	.loc 1 1285 5
	j	.L142
.L150:
	.loc 1 1289 11
	sd	zero,-144(s0)
.L149:
	.loc 1 1291 29
	lla	a4,mDxeFileTypes
	ld	a5,-40(s0)
	add	a5,a4,a5
	lbu	a5,0(a5)
	.loc 1 1291 14
	sb	a5,-145(s0)
	.loc 1 1292 31
	ld	a5,-96(s0)
	ld	a6,40(a5)
	.loc 1 1292 29
	ld	a0,-96(s0)
	addi	a5,s0,-160
	addi	a4,s0,-152
	addi	a3,s0,-136
	addi	a2,s0,-145
	addi	a1,s0,-144
	jalr	a6
.LVL3:
	sd	a0,-88(s0)
	.loc 1 1300 13
	ld	a5,-88(s0)
	.loc 1 1300 12
	blt	a5,zero,.L143
	.loc 1 1301 20
	lbu	a5,-145(s0)
	.loc 1 1301 14
	mv	a4,a5
	li	a5,5
	bne	a4,a5,.L144
	.loc 1 1305 36
	la	a5,gDxeCoreLoadedImage
	ld	a5,0(a5)
	ld	a5,32(a5)
	.loc 1 1305 16
	bne	a5,zero,.L143
	.loc 1 1306 19
	la	a5,gDxeCoreFileName
	ld	a4,0(a5)
	addi	a5,s0,-136
	mv	a1,a4
	mv	a0,a5
	call	CompareGuid@plt
	mv	a5,a0
	.loc 1 1306 18 discriminator 1
	beq	a5,zero,.L143
	.loc 1 1311 17
	addi	a5,s0,-136
	mv	a1,a5
	lla	a0,mFvDevicePath
	call	EfiInitializeFwVolDevicepathNode@plt
	.loc 1 1312 17
	lla	a0,mFvDevicePath+20
	call	SetDevicePathEndNode@plt
	.loc 1 1314 36
	la	a5,gDxeCoreLoadedImage
	ld	s1,0(a5)
	.loc 1 1314 49
	lla	a0,mFvDevicePath
	call	DuplicateDevicePath@plt
	mv	a5,a0
	.loc 1 1314 47 discriminator 1
	sd	a5,32(s1)
	.loc 1 1317 36
	la	a5,gDxeCoreLoadedImage
	ld	a5,0(a5)
	.loc 1 1317 51
	ld	a4,-112(s0)
	sd	a4,24(a5)
	j	.L143
.L144:
	.loc 1 1320 27
	lbu	a5,-145(s0)
	.loc 1 1320 21
	mv	a4,a5
	li	a5,11
	bne	a4,a5,.L145
	.loc 1 1325 34
	ld	a5,-80(s0)
	addi	a5,a5,32
	.loc 1 1325 17
	addi	a4,s0,-136
	mv	a1,a4
	mv	a0,a5
	call	FvFoundInHobFv2
	mv	a5,a0
	.loc 1 1325 16 discriminator 1
	bne	a5,zero,.L168
	.loc 1 1332 25
	sd	zero,-192(s0)
	.loc 1 1333 26
	sd	zero,-184(s0)
	.loc 1 1334 24
	ld	a5,-96(s0)
	ld	a7,24(a5)
	.loc 1 1334 22
	ld	a0,-96(s0)
	addi	a3,s0,-172
	addi	a5,s0,-184
	addi	a4,s0,-192
	addi	a1,s0,-136
	mv	a6,a3
	li	a3,0
	li	a2,28
	jalr	a7
.LVL4:
	sd	a0,-72(s0)
	.loc 1 1343 17
	ld	a5,-72(s0)
	.loc 1 1343 16
	blt	a5,zero,.L147
	.loc 1 1348 15
	ld	a5,-192(s0)
	mv	a0,a5
	call	FreePool@plt
.L147:
	.loc 1 1355 25
	sd	zero,-192(s0)
	.loc 1 1356 26
	sd	zero,-184(s0)
	.loc 1 1357 24
	ld	a5,-96(s0)
	ld	a7,24(a5)
	.loc 1 1357 22
	ld	a0,-96(s0)
	addi	a3,s0,-172
	addi	a5,s0,-184
	addi	a4,s0,-192
	addi	a1,s0,-136
	mv	a6,a3
	li	a3,0
	li	a2,19
	jalr	a7
.LVL5:
	sd	a0,-72(s0)
	.loc 1 1366 44
	ld	a5,-72(s0)
	.loc 1 1366 16
	bge	a5,zero,.L148
	.loc 1 1370 15
	ld	a5,-96(s0)
	ld	a4,-112(s0)
	addi	a3,s0,-136
	mv	a2,a3
	mv	a1,a4
	mv	a0,a5
	call	CoreProcessFvImageFile
	j	.L143
.L148:
	.loc 1 1375 15
	ld	a5,-192(s0)
	mv	a0,a5
	call	FreePool@plt
	.loc 1 1376 15
	ld	a5,-96(s0)
	ld	a4,-112(s0)
	lbu	a3,-145(s0)
	addi	a2,s0,-136
	mv	a1,a4
	mv	a0,a5
	call	CoreAddToDriverList
	j	.L143
.L145:
	.loc 1 1382 13
	ld	a5,-96(s0)
	ld	a4,-112(s0)
	lbu	a3,-145(s0)
	addi	a2,s0,-136
	mv	a1,a4
	mv	a0,a5
	call	CoreAddToDriverList
	j	.L143
.L168:
	.loc 1 1326 15
	nop
.L143:
	.loc 1 1385 16
	ld	a5,-88(s0)
	bge	a5,zero,.L149
	.loc 1 1285 85 discriminator 2
	ld	a5,-40(s0)
	addi	a5,a5,1
	sd	a5,-40(s0)
.L142:
	.loc 1 1285 27 discriminator 1
	ld	a4,-40(s0)
	li	a5,4
	bleu	a4,a5,.L150
	.loc 1 1391 17
	sd	zero,-168(s0)
	.loc 1 1392 16
	ld	a5,-96(s0)
	ld	a7,24(a5)
	.loc 1 1392 14
	ld	a0,-96(s0)
	addi	a3,s0,-172
	addi	a5,s0,-184
	addi	a4,s0,-168
	mv	a6,a3
	li	a3,0
	li	a2,25
	la	a1,gAprioriGuid
	jalr	a7
.LVL6:
	sd	a0,-72(s0)
	.loc 1 1401 9
	ld	a5,-72(s0)
	.loc 1 1401 8
	blt	a5,zero,.L151
	.loc 1 1402 40
	ld	a5,-184(s0)
	.loc 1 1402 25
	srli	a5,a5,4
	sd	a5,-48(s0)
	j	.L152
.L151:
	.loc 1 1404 25
	sd	zero,-48(s0)
.L152:
	.loc 1 1413 16
	sd	zero,-40(s0)
	.loc 1 1413 5
	j	.L153
.L160:
	.loc 1 1414 17
	lla	a5,mDiscoveredList
	ld	a5,0(a5)
	sd	a5,-64(s0)
	.loc 1 1414 7
	j	.L154
.L159:
	.loc 1 1415 25
	ld	a5,-64(s0)
	addi	a5,a5,-8
	.loc 1 1415 139
	ld	a4,0(a5)
	.loc 1 1415 224
	li	a5,1920364544
	addi	a5,a5,612
	bne	a4,a5,.L155
	.loc 1 1415 21 discriminator 1
	ld	a5,-64(s0)
	addi	a5,a5,-8
	sd	a5,-56(s0)
	j	.L156
.L155:
	.loc 1 1415 21 is_stmt 0 discriminator 2
	sd	zero,-56(s0)
.L156:
	.loc 1 1416 26 is_stmt 1
	ld	a5,-56(s0)
	addi	a3,a5,48
	.loc 1 1416 13
	ld	a4,-168(s0)
	.loc 1 1416 62
	ld	a5,-40(s0)
	slli	a5,a5,4
	.loc 1 1416 50
	add	a5,a4,a5
	.loc 1 1416 13
	mv	a1,a5
	mv	a0,a3
	call	CompareGuid@plt
	mv	a5,a0
	.loc 1 1416 12 discriminator 1
	beq	a5,zero,.L157
	.loc 1 1417 37
	ld	a5,-56(s0)
	ld	a4,40(a5)
	.loc 1 1417 23
	ld	a5,-112(s0)
	.loc 1 1416 71 discriminator 2
	bne	a4,a5,.L157
	.loc 1 1419 11
	call	CoreAcquireDispatcherLock
	.loc 1 1420 34
	ld	a5,-56(s0)
	sb	zero,116(a5)
	.loc 1 1421 34
	ld	a5,-56(s0)
	li	a4,1
	sb	a4,118(a5)
	.loc 1 1422 11
	ld	a5,-56(s0)
	addi	a5,a5,24
	mv	a1,a5
	lla	a0,mScheduledQueue
	call	InsertTailList@plt
	.loc 1 1423 11
	call	CoreReleaseDispatcherLock
	.loc 1 1426 11
	j	.L158
.L157:
	.loc 1 1414 79 discriminator 2
	ld	a5,-64(s0)
	ld	a5,0(a5)
	sd	a5,-64(s0)
.L154:
	.loc 1 1414 53 discriminator 1
	ld	a4,-64(s0)
	lla	a5,mDiscoveredList
	bne	a4,a5,.L159
.L158:
	.loc 1 1413 53 discriminator 2
	ld	a5,-40(s0)
	addi	a5,a5,1
	sd	a5,-40(s0)
.L153:
	.loc 1 1413 27 discriminator 1
	ld	a4,-40(s0)
	ld	a5,-48(s0)
	bltu	a4,a5,.L160
	.loc 1 1434 5
	ld	a5,-168(s0)
	mv	a0,a5
	call	CoreFreePool@plt
	j	.L161
.L164:
	.loc 1 1247 7
	nop
	j	.L161
.L165:
	.loc 1 1259 7
	nop
	j	.L161
.L166:
	.loc 1 1268 7
	nop
	j	.L161
.L167:
	.loc 1 1276 7
	nop
	.loc 1 1228 16
	j	.L161
.L163:
	.loc 1 1240 7
	nop
	.loc 1 1436 1
	ld	ra,200(sp)
	.cfi_restore 1
	ld	s0,192(sp)
	.cfi_restore 8
	.cfi_def_cfa 2, 208
	ld	s1,184(sp)
	.cfi_restore 9
	addi	sp,sp,208
	.cfi_def_cfa_offset 0
	jr	ra
	.cfi_endproc
.LFE14:
	.size	CoreFwVolEventProtocolNotify, .-CoreFwVolEventProtocolNotify
	.section	.text.CoreInitializeDispatcher,"ax",@progbits
	.align	1
	.globl	CoreInitializeDispatcher
	.type	CoreInitializeDispatcher, @function
CoreInitializeDispatcher:
.LFB15:
	.loc 1 1447 1
	.cfi_startproc
	addi	sp,sp,-16
	.cfi_def_cfa_offset 16
	sd	ra,8(sp)
	sd	s0,0(sp)
	.cfi_offset 1, -8
	.cfi_offset 8, -16
	addi	s0,sp,16
	.cfi_def_cfa 8, 0
	.loc 1 1448 12
	li	a0,64
	call	LogPerformanceMeasurementEnabled@plt
	mv	a5,a0
	.loc 1 1448 11 discriminator 1
	beq	a5,zero,.L170
	.loc 1 1448 57 discriminator 2
	li	a4,48
	li	a3,0
	lla	a2,__func__.0
	li	a1,0
	la	a0,gEfiCallerIdGuid
	call	LogPerformanceMeasurement@plt
.L170:
	.loc 1 1450 17
	lla	a4,mFwVolEventRegistration
	li	a3,0
	lla	a2,CoreFwVolEventProtocolNotify
	li	a1,8
	la	a0,gEfiFirmwareVolume2ProtocolGuid
	call	EfiCreateProtocolNotifyEvent@plt
	mv	a4,a0
	.loc 1 1450 15 discriminator 1
	lla	a5,mFwVolEvent
	sd	a4,0(a5)
	.loc 1 1458 12
	li	a0,64
	call	LogPerformanceMeasurementEnabled@plt
	mv	a5,a0
	.loc 1 1458 11 discriminator 1
	beq	a5,zero,.L172
	.loc 1 1458 57 discriminator 2
	li	a4,49
	li	a3,0
	lla	a2,__func__.0
	li	a1,0
	la	a0,gEfiCallerIdGuid
	call	LogPerformanceMeasurement@plt
.L172:
	.loc 1 1459 1
	nop
	ld	ra,8(sp)
	.cfi_restore 1
	ld	s0,0(sp)
	.cfi_restore 8
	.cfi_def_cfa 2, 16
	addi	sp,sp,16
	.cfi_def_cfa_offset 0
	jr	ra
	.cfi_endproc
.LFE15:
	.size	CoreInitializeDispatcher, .-CoreInitializeDispatcher
	.section	.text.CoreDisplayDiscoveredNotDispatched,"ax",@progbits
	.align	1
	.globl	CoreDisplayDiscoveredNotDispatched
	.type	CoreDisplayDiscoveredNotDispatched, @function
CoreDisplayDiscoveredNotDispatched:
.LFB16:
	.loc 1 1474 1
	.cfi_startproc
	addi	sp,sp,-32
	.cfi_def_cfa_offset 32
	sd	ra,24(sp)
	sd	s0,16(sp)
	.cfi_offset 1, -8
	.cfi_offset 8, -16
	addi	s0,sp,32
	.cfi_def_cfa 8, 0
	.loc 1 1478 13
	lla	a5,mDiscoveredList
	ld	a5,0(a5)
	sd	a5,-32(s0)
	.loc 1 1478 3
	j	.L174
.L177:
	.loc 1 1479 21
	ld	a5,-32(s0)
	addi	a5,a5,-8
	.loc 1 1479 135
	ld	a4,0(a5)
	.loc 1 1479 220
	li	a5,1920364544
	addi	a5,a5,612
	bne	a4,a5,.L175
	.loc 1 1479 17 discriminator 1
	ld	a5,-32(s0)
	addi	a5,a5,-8
	sd	a5,-24(s0)
	j	.L178
.L175:
	.loc 1 1479 17 is_stmt 0 discriminator 2
	sd	zero,-24(s0)
.L178:
	.loc 1 1478 75 is_stmt 1 discriminator 2
	ld	a5,-32(s0)
	ld	a5,0(a5)
	sd	a5,-32(s0)
.L174:
	.loc 1 1478 49 discriminator 1
	ld	a4,-32(s0)
	lla	a5,mDiscoveredList
	bne	a4,a5,.L177
	.loc 1 1484 1
	nop
	nop
	ld	ra,24(sp)
	.cfi_restore 1
	ld	s0,16(sp)
	.cfi_restore 8
	.cfi_def_cfa 2, 32
	addi	sp,sp,32
	.cfi_def_cfa_offset 0
	jr	ra
	.cfi_endproc
.LFE16:
	.size	CoreDisplayDiscoveredNotDispatched, .-CoreDisplayDiscoveredNotDispatched
	.section	.rodata.__func__.1,"a"
	.align	3
	.type	__func__.1, @object
	.size	__func__.1, 15
__func__.1:
	.string	"CoreDispatcher"
	.section	.rodata.__func__.0,"a"
	.align	3
	.type	__func__.0, @object
	.size	__func__.0, 25
__func__.0:
	.string	"CoreInitializeDispatcher"
	.text
.Letext0:
	.file 2 "/home/kapoagaeming/spacemit-image-builder/components/edk2/MdePkg/Include/RiscV64/ProcessorBind.h"
	.file 3 "/home/kapoagaeming/spacemit-image-builder/components/edk2/MdePkg/Include/Base.h"
	.file 4 "/home/kapoagaeming/spacemit-image-builder/components/edk2/MdePkg/Include/Uefi/UefiBaseType.h"
	.file 5 "/home/kapoagaeming/spacemit-image-builder/components/edk2/MdePkg/Include/Uefi/UefiMultiPhase.h"
	.file 6 "/home/kapoagaeming/spacemit-image-builder/components/edk2/MdePkg/Include/Protocol/DevicePath.h"
	.file 7 "/home/kapoagaeming/spacemit-image-builder/components/edk2/MdePkg/Include/Protocol/SimpleTextIn.h"
	.file 8 "/home/kapoagaeming/spacemit-image-builder/components/edk2/MdePkg/Include/Protocol/SimpleTextOut.h"
	.file 9 "/home/kapoagaeming/spacemit-image-builder/components/edk2/MdePkg/Include/Uefi/UefiSpec.h"
	.file 10 "/home/kapoagaeming/spacemit-image-builder/components/edk2/MdePkg/Include/Pi/PiFirmwareVolume.h"
	.file 11 "/home/kapoagaeming/spacemit-image-builder/components/edk2/MdePkg/Include/Pi/PiFirmwareFile.h"
	.file 12 "/home/kapoagaeming/spacemit-image-builder/components/edk2/MdePkg/Include/Pi/PiBootMode.h"
	.file 13 "/home/kapoagaeming/spacemit-image-builder/components/edk2/MdePkg/Include/Pi/PiHob.h"
	.file 14 "/home/kapoagaeming/spacemit-image-builder/components/edk2/MdePkg/Include/Pi/PiStatusCode.h"
	.file 15 "/home/kapoagaeming/spacemit-image-builder/components/Build/Milk-V-Jupiter/RELEASE_GCC5/RISCV64/MdeModulePkg/Core/Dxe/DxeMain/DEBUG/AutoGen.h"
	.file 16 "/home/kapoagaeming/spacemit-image-builder/components/edk2/MdePkg/Include/Protocol/LoadedImage.h"
	.file 17 "/home/kapoagaeming/spacemit-image-builder/components/edk2/MdePkg/Include/Protocol/FirmwareVolume2.h"
	.file 18 "/home/kapoagaeming/spacemit-image-builder/components/edk2/MdePkg/Include/Protocol/Security.h"
	.file 19 "/home/kapoagaeming/spacemit-image-builder/components/edk2/MdePkg/Include/Protocol/FirmwareVolumeBlock.h"
	.file 20 "/home/kapoagaeming/spacemit-image-builder/components/edk2/MdePkg/Include/Library/UefiLib.h"
	.file 21 "/home/kapoagaeming/spacemit-image-builder/components/edk2/MdeModulePkg/Core/Dxe/DxeMain.h"
	.file 22 "/home/kapoagaeming/spacemit-image-builder/components/edk2/MdePkg/Include/Library/DevicePathLib.h"
	.file 23 "/home/kapoagaeming/spacemit-image-builder/components/edk2/MdePkg/Include/Library/BaseMemoryLib.h"
	.file 24 "/home/kapoagaeming/spacemit-image-builder/components/edk2/MdePkg/Include/Library/MemoryAllocationLib.h"
	.file 25 "/home/kapoagaeming/spacemit-image-builder/components/edk2/MdePkg/Include/Library/BaseLib.h"
	.file 26 "/home/kapoagaeming/spacemit-image-builder/components/edk2/MdePkg/Include/Library/HobLib.h"
	.file 27 "/home/kapoagaeming/spacemit-image-builder/components/edk2/MdePkg/Include/Library/ReportStatusCodeLib.h"
	.file 28 "/home/kapoagaeming/spacemit-image-builder/components/edk2/MdePkg/Include/Library/PerformanceLib.h"
	.section	.note.GNU-stack,"",@progbits
