	.file	"DesignWarePciSegmentLib.c"
	.option pic
	.option norelax
	.attribute arch, "rv64i2p1_m2p0_a2p1_f2p2_d2p2_c2p0_zicsr2p0_zifencei2p0_zmmul1p0_zaamo1p0_zalrsc1p0_zca1p0_zcd1p0"
	.attribute unaligned_access, 0
	.attribute stack_align, 16
	.text
.Ltext0:
	.cfi_sections	.debug_frame
	.file 0 "/home/kapoagaeming/spacemit-image-builder/components/Build/Milk-V-Jupiter/RELEASE_GCC5/RISCV64/Silicon/Spacemit/Library/DesignWarePciSegmentLib/DesignWarePciSegmentLib" "/home/kapoagaeming/spacemit-image-builder/components/edk2-platforms/Silicon/Spacemit/Library/DesignWarePciSegmentLib/DesignWarePciSegmentLib.c"
	.section	.text.PciSegmentRegisterForRuntimeAccess,"ax",@progbits
	.align	1
	.globl	PciSegmentRegisterForRuntimeAccess
	.type	PciSegmentRegisterForRuntimeAccess, @function
PciSegmentRegisterForRuntimeAccess:
.LFB10:
	.file 1 "/home/kapoagaeming/spacemit-image-builder/components/edk2-platforms/Silicon/Spacemit/Library/DesignWarePciSegmentLib/DesignWarePciSegmentLib.c"
	.loc 1 70 1
	.cfi_startproc
	addi	sp,sp,-32
	.cfi_def_cfa_offset 32
	sd	ra,24(sp)
	sd	s0,16(sp)
	.cfi_offset 1, -8
	.cfi_offset 8, -16
	addi	s0,sp,32
	.cfi_def_cfa 8, 0
	sd	a0,-24(s0)
	.loc 1 73 10
	li	a5,-1
	slli	a5,a5,63
	addi	a5,a5,3
	.loc 1 74 1
	mv	a0,a5
	ld	ra,24(sp)
	.cfi_restore 1
	ld	s0,16(sp)
	.cfi_restore 8
	.cfi_def_cfa 2, 32
	addi	sp,sp,32
	.cfi_def_cfa_offset 0
	jr	ra
	.cfi_endproc
.LFE10:
	.size	PciSegmentRegisterForRuntimeAccess, .-PciSegmentRegisterForRuntimeAccess
	.section	.text.PciSegmentLibAddrToCfgAddr,"ax",@progbits
	.align	1
	.type	PciSegmentLibAddrToCfgAddr, @function
PciSegmentLibAddrToCfgAddr:
.LFB11:
	.loc 1 92 1
	.cfi_startproc
	addi	sp,sp,-128
	.cfi_def_cfa_offset 128
	sd	ra,120(sp)
	sd	s0,112(sp)
	.cfi_offset 1, -8
	.cfi_offset 8, -16
	addi	s0,sp,128
	.cfi_def_cfa 8, 0
	sd	a0,-120(s0)
	.loc 1 103 30
	la	a5,gDwPcieRootPorts
	ld	a4,0(a5)
	.loc 1 103 43
	ld	a5,-120(s0)
	srli	a5,a5,32
	.loc 1 103 50
	slli	a5,a5,48
	srli	a5,a5,48
	.loc 1 103 30
	slli	a5,a5,3
	add	a5,a4,a5
	.loc 1 103 12
	ld	a5,0(a5)
	sd	a5,-40(s0)
	.loc 1 106 10
	ld	a5,-40(s0)
	addi	a5,a5,-104
	sd	a5,-48(s0)
	.loc 1 108 13
	ld	a5,-48(s0)
	lbu	a5,99(a5)
	.loc 1 108 6
	beq	a5,zero,.L4
	.loc 1 112 10
	ld	a5,-40(s0)
	ld	a5,0(a5)
	sd	a5,-32(s0)
	.loc 1 113 12
	ld	a5,-120(s0)
	slli	a5,a5,32
	srli	a5,a5,32
	sd	a5,-24(s0)
	j	.L5
.L4:
	.loc 1 119 23
	ld	a5,-120(s0)
	srli	a5,a5,20
	.loc 1 119 30
	sext.w	a5,a5
	.loc 1 119 9
	andi	a5,a5,255
	sw	a5,-52(s0)
	.loc 1 121 24
	ld	a5,-40(s0)
	lw	a5,16(a5)
	.loc 1 121 8
	lw	a4,-52(s0)
	sext.w	a4,a4
	bne	a4,a5,.L6
	.loc 1 128 38
	ld	a4,-120(s0)
	li	a5,1015808
	and	a5,a4,a5
	.loc 1 128 10
	bne	a5,zero,.L7
	.loc 1 129 38
	ld	a4,-120(s0)
	li	a5,28672
	and	a5,a4,a5
	.loc 1 128 43 discriminator 1
	beq	a5,zero,.L8
.L7:
	.loc 1 130 16
	li	a5,-1
	j	.L14
.L8:
	.loc 1 134 12
	ld	a5,-48(s0)
	ld	a5,0(a5)
	sd	a5,-32(s0)
	.loc 1 135 14
	ld	a5,-120(s0)
	slli	a5,a5,32
	srli	a5,a5,32
	sd	a5,-24(s0)
	j	.L5
.L6:
	.loc 1 142 12
	ld	a5,-40(s0)
	ld	a5,0(a5)
	sd	a5,-32(s0)
	.loc 1 144 17
	ld	a5,-48(s0)
	lbu	a5,98(a5)
	.loc 1 144 10
	beq	a5,zero,.L10
	.loc 1 151 16
	ld	a5,-120(s0)
	slli	a5,a5,32
	srli	a5,a5,32
	sd	a5,-24(s0)
	j	.L5
.L10:
	.loc 1 160 22
	sd	zero,-112(s0)
	.loc 1 161 9
	addi	a5,s0,-112
	li	a1,48
	mv	a0,a5
	call	ZeroMem@plt
	.loc 1 162 28
	ld	a5,-40(s0)
	lw	a5,16(a5)
	.loc 1 162 37
	addiw	a5,a5,1
	sext.w	a5,a5
	.loc 1 162 12
	lw	a4,-52(s0)
	sext.w	a4,a4
	bne	a4,a5,.L11
	.loc 1 164 23
	li	a5,4
	sd	a5,-104(s0)
	j	.L12
.L11:
	.loc 1 167 23
	li	a5,5
	sd	a5,-104(s0)
.L12:
	.loc 1 169 34
	ld	a5,-40(s0)
	ld	a5,0(a5)
	.loc 1 169 24
	sd	a5,-88(s0)
	.loc 1 170 42
	lw	a5,-52(s0)
	slliw	a5,a5,24
	sext.w	a5,a5
	slli	a4,a5,32
	srli	a4,a4,32
	.loc 1 171 41
	ld	a5,-120(s0)
	srli	a5,a5,15
	.loc 1 171 65
	slli	a3,a5,19
	li	a5,16252928
	and	a5,a3,a5
	.loc 1 170 49
	or	a4,a4,a5
	.loc 1 172 41
	ld	a5,-120(s0)
	srli	a5,a5,12
	.loc 1 172 65
	slli	a3,a5,16
	li	a5,458752
	and	a5,a3,a5
	.loc 1 171 72
	or	a5,a4,a5
	.loc 1 170 24
	sd	a5,-80(s0)
	.loc 1 173 31
	ld	a5,-40(s0)
	ld	a5,8(a5)
	.loc 1 173 21
	sd	a5,-72(s0)
	.loc 1 175 18
	addi	a5,s0,-112
	mv	a1,a5
	ld	a0,-48(s0)
	call	DwPcieProgOutboundAtu@plt
	sd	a0,-64(s0)
	.loc 1 176 12
	ld	a5,-64(s0)
	beq	a5,zero,.L13
	.loc 1 179 18
	li	a5,-1
	j	.L14
.L13:
	.loc 1 185 16
	ld	a4,-120(s0)
	li	a5,4096
	addi	a5,a5,-1
	and	a5,a4,a5
	sd	a5,-24(s0)
.L5:
	.loc 1 190 16
	ld	a4,-32(s0)
	ld	a5,-24(s0)
	add	a5,a4,a5
.L14:
	.loc 1 191 1
	mv	a0,a5
	ld	ra,120(sp)
	.cfi_restore 1
	ld	s0,112(sp)
	.cfi_restore 8
	.cfi_def_cfa 2, 128
	addi	sp,sp,128
	.cfi_def_cfa_offset 0
	jr	ra
	.cfi_endproc
.LFE11:
	.size	PciSegmentLibAddrToCfgAddr, .-PciSegmentLibAddrToCfgAddr
	.section	.text.PciSegmentLibReadWorker,"ax",@progbits
	.align	1
	.type	PciSegmentLibReadWorker, @function
PciSegmentLibReadWorker:
.LFB12:
	.loc 1 209 1
	.cfi_startproc
	addi	sp,sp,-48
	.cfi_def_cfa_offset 48
	sd	ra,40(sp)
	sd	s0,32(sp)
	.cfi_offset 1, -8
	.cfi_offset 8, -16
	addi	s0,sp,48
	.cfi_def_cfa 8, 0
	sd	a0,-40(s0)
	mv	a5,a1
	sw	a5,-44(s0)
	.loc 1 215 13
	ld	a0,-40(s0)
	call	PciSegmentLibAddrToCfgAddr
	sd	a0,-32(s0)
	.loc 1 216 6
	ld	a4,-32(s0)
	li	a5,-1
	bne	a4,a5,.L16
	.loc 1 218 12
	li	a5,-1
	j	.L17
.L16:
	.loc 1 223 3
	lw	a5,-44(s0)
	sext.w	a4,a5
	li	a5,2
	beq	a4,a5,.L18
	lw	a5,-44(s0)
	sext.w	a4,a5
	li	a5,2
	bgtu	a4,a5,.L22
	lw	a5,-44(s0)
	sext.w	a5,a5
	beq	a5,zero,.L20
	lw	a5,-44(s0)
	sext.w	a4,a5
	li	a5,1
	beq	a4,a5,.L21
	j	.L22
.L20:
	.loc 1 225 15
	ld	a0,-32(s0)
	call	MmioRead8@plt
	mv	a5,a0
	.loc 1 225 13 discriminator 1
	sw	a5,-20(s0)
	.loc 1 226 7
	j	.L22
.L21:
	.loc 1 228 15
	ld	a0,-32(s0)
	call	MmioRead16@plt
	mv	a5,a0
	.loc 1 228 13 discriminator 1
	sw	a5,-20(s0)
	.loc 1 229 7
	j	.L22
.L18:
	.loc 1 231 15
	ld	a0,-32(s0)
	call	MmioRead32@plt
	mv	a5,a0
	sw	a5,-20(s0)
	.loc 1 232 7
	nop
.L22:
	.loc 1 239 10
	lw	a5,-20(s0)
.L17:
	.loc 1 240 1
	mv	a0,a5
	ld	ra,40(sp)
	.cfi_restore 1
	ld	s0,32(sp)
	.cfi_restore 8
	.cfi_def_cfa 2, 48
	addi	sp,sp,48
	.cfi_def_cfa_offset 0
	jr	ra
	.cfi_endproc
.LFE12:
	.size	PciSegmentLibReadWorker, .-PciSegmentLibReadWorker
	.section	.text.PciSegmentLibWriteWorker,"ax",@progbits
	.align	1
	.type	PciSegmentLibWriteWorker, @function
PciSegmentLibWriteWorker:
.LFB13:
	.loc 1 260 1
	.cfi_startproc
	addi	sp,sp,-48
	.cfi_def_cfa_offset 48
	sd	ra,40(sp)
	sd	s0,32(sp)
	.cfi_offset 1, -8
	.cfi_offset 8, -16
	addi	s0,sp,48
	.cfi_def_cfa 8, 0
	sd	a0,-40(s0)
	mv	a5,a1
	mv	a4,a2
	sw	a5,-44(s0)
	mv	a5,a4
	sw	a5,-48(s0)
	.loc 1 265 13
	ld	a0,-40(s0)
	call	PciSegmentLibAddrToCfgAddr
	sd	a0,-24(s0)
	.loc 1 266 6
	ld	a4,-24(s0)
	li	a5,-1
	bne	a4,a5,.L24
	.loc 1 268 12
	lw	a5,-48(s0)
	j	.L25
.L24:
	.loc 1 273 3
	lw	a5,-44(s0)
	sext.w	a4,a5
	li	a5,2
	beq	a4,a5,.L26
	lw	a5,-44(s0)
	sext.w	a4,a5
	li	a5,2
	bgtu	a4,a5,.L27
	lw	a5,-44(s0)
	sext.w	a5,a5
	beq	a5,zero,.L28
	lw	a5,-44(s0)
	sext.w	a4,a5
	li	a5,1
	beq	a4,a5,.L29
	j	.L27
.L28:
	.loc 1 275 7
	lw	a5,-48(s0)
	andi	a5,a5,0xff
	mv	a1,a5
	ld	a0,-24(s0)
	call	MmioWrite8@plt
	.loc 1 276 7
	j	.L27
.L29:
	.loc 1 278 7
	lw	a5,-48(s0)
	slli	a5,a5,48
	srli	a5,a5,48
	mv	a1,a5
	ld	a0,-24(s0)
	call	MmioWrite16@plt
	.loc 1 279 7
	j	.L27
.L26:
	.loc 1 281 7
	lw	a5,-48(s0)
	mv	a1,a5
	ld	a0,-24(s0)
	call	MmioWrite32@plt
	.loc 1 282 7
	nop
.L27:
	.loc 1 287 10
	lw	a5,-48(s0)
.L25:
	.loc 1 288 1
	mv	a0,a5
	ld	ra,40(sp)
	.cfi_restore 1
	ld	s0,32(sp)
	.cfi_restore 8
	.cfi_def_cfa 2, 48
	addi	sp,sp,48
	.cfi_def_cfa_offset 0
	jr	ra
	.cfi_endproc
.LFE13:
	.size	PciSegmentLibWriteWorker, .-PciSegmentLibWriteWorker
	.section	.text.PciSegmentRead8,"ax",@progbits
	.align	1
	.globl	PciSegmentRead8
	.type	PciSegmentRead8, @function
PciSegmentRead8:
.LFB14:
	.loc 1 308 1
	.cfi_startproc
	addi	sp,sp,-32
	.cfi_def_cfa_offset 32
	sd	ra,24(sp)
	sd	s0,16(sp)
	.cfi_offset 1, -8
	.cfi_offset 8, -16
	addi	s0,sp,32
	.cfi_def_cfa 8, 0
	sd	a0,-24(s0)
	.loc 1 311 18
	li	a1,0
	ld	a0,-24(s0)
	call	PciSegmentLibReadWorker
	mv	a5,a0
	.loc 1 311 10 discriminator 1
	andi	a5,a5,0xff
	.loc 1 312 1
	mv	a0,a5
	ld	ra,24(sp)
	.cfi_restore 1
	ld	s0,16(sp)
	.cfi_restore 8
	.cfi_def_cfa 2, 32
	addi	sp,sp,32
	.cfi_def_cfa_offset 0
	jr	ra
	.cfi_endproc
.LFE14:
	.size	PciSegmentRead8, .-PciSegmentRead8
	.section	.text.PciSegmentWrite8,"ax",@progbits
	.align	1
	.globl	PciSegmentWrite8
	.type	PciSegmentWrite8, @function
PciSegmentWrite8:
.LFB15:
	.loc 1 334 1
	.cfi_startproc
	addi	sp,sp,-32
	.cfi_def_cfa_offset 32
	sd	ra,24(sp)
	sd	s0,16(sp)
	.cfi_offset 1, -8
	.cfi_offset 8, -16
	addi	s0,sp,32
	.cfi_def_cfa 8, 0
	sd	a0,-24(s0)
	mv	a5,a1
	sb	a5,-25(s0)
	.loc 1 337 18
	lbu	a5,-25(s0)
	sext.w	a5,a5
	mv	a2,a5
	li	a1,0
	ld	a0,-24(s0)
	call	PciSegmentLibWriteWorker
	mv	a5,a0
	.loc 1 337 10 discriminator 1
	andi	a5,a5,0xff
	.loc 1 338 1
	mv	a0,a5
	ld	ra,24(sp)
	.cfi_restore 1
	ld	s0,16(sp)
	.cfi_restore 8
	.cfi_def_cfa 2, 32
	addi	sp,sp,32
	.cfi_def_cfa_offset 0
	jr	ra
	.cfi_endproc
.LFE15:
	.size	PciSegmentWrite8, .-PciSegmentWrite8
	.section	.text.PciSegmentOr8,"ax",@progbits
	.align	1
	.globl	PciSegmentOr8
	.type	PciSegmentOr8, @function
PciSegmentOr8:
.LFB16:
	.loc 1 363 1
	.cfi_startproc
	addi	sp,sp,-32
	.cfi_def_cfa_offset 32
	sd	ra,24(sp)
	sd	s0,16(sp)
	.cfi_offset 1, -8
	.cfi_offset 8, -16
	addi	s0,sp,32
	.cfi_def_cfa 8, 0
	sd	a0,-24(s0)
	mv	a5,a1
	sb	a5,-25(s0)
	.loc 1 364 46
	ld	a0,-24(s0)
	call	PciSegmentRead8
	mv	a5,a0
	mv	a4,a5
	.loc 1 364 37 discriminator 1
	lbu	a5,-25(s0)
	or	a5,a4,a5
	andi	a5,a5,0xff
	.loc 1 364 10 discriminator 1
	mv	a1,a5
	ld	a0,-24(s0)
	call	PciSegmentWrite8
	mv	a5,a0
	.loc 1 365 1
	mv	a0,a5
	ld	ra,24(sp)
	.cfi_restore 1
	ld	s0,16(sp)
	.cfi_restore 8
	.cfi_def_cfa 2, 32
	addi	sp,sp,32
	.cfi_def_cfa_offset 0
	jr	ra
	.cfi_endproc
.LFE16:
	.size	PciSegmentOr8, .-PciSegmentOr8
	.section	.text.PciSegmentAnd8,"ax",@progbits
	.align	1
	.globl	PciSegmentAnd8
	.type	PciSegmentAnd8, @function
PciSegmentAnd8:
.LFB17:
	.loc 1 389 1
	.cfi_startproc
	addi	sp,sp,-32
	.cfi_def_cfa_offset 32
	sd	ra,24(sp)
	sd	s0,16(sp)
	.cfi_offset 1, -8
	.cfi_offset 8, -16
	addi	s0,sp,32
	.cfi_def_cfa 8, 0
	sd	a0,-24(s0)
	mv	a5,a1
	sb	a5,-25(s0)
	.loc 1 390 46
	ld	a0,-24(s0)
	call	PciSegmentRead8
	mv	a5,a0
	mv	a4,a5
	.loc 1 390 37 discriminator 1
	lbu	a5,-25(s0)
	and	a5,a4,a5
	andi	a5,a5,0xff
	.loc 1 390 10 discriminator 1
	mv	a1,a5
	ld	a0,-24(s0)
	call	PciSegmentWrite8
	mv	a5,a0
	.loc 1 391 1
	mv	a0,a5
	ld	ra,24(sp)
	.cfi_restore 1
	ld	s0,16(sp)
	.cfi_restore 8
	.cfi_def_cfa 2, 32
	addi	sp,sp,32
	.cfi_def_cfa_offset 0
	jr	ra
	.cfi_endproc
.LFE17:
	.size	PciSegmentAnd8, .-PciSegmentAnd8
	.section	.text.PciSegmentAndThenOr8,"ax",@progbits
	.align	1
	.globl	PciSegmentAndThenOr8
	.type	PciSegmentAndThenOr8, @function
PciSegmentAndThenOr8:
.LFB18:
	.loc 1 420 1
	.cfi_startproc
	addi	sp,sp,-32
	.cfi_def_cfa_offset 32
	sd	ra,24(sp)
	sd	s0,16(sp)
	.cfi_offset 1, -8
	.cfi_offset 8, -16
	addi	s0,sp,32
	.cfi_def_cfa 8, 0
	sd	a0,-24(s0)
	mv	a5,a1
	mv	a4,a2
	sb	a5,-25(s0)
	mv	a5,a4
	sb	a5,-26(s0)
	.loc 1 421 47
	ld	a0,-24(s0)
	call	PciSegmentRead8
	mv	a5,a0
	mv	a4,a5
	.loc 1 421 10 discriminator 1
	lbu	a5,-25(s0)
	and	a5,a4,a5
	andi	a5,a5,0xff
	.loc 1 421 37 discriminator 1
	lbu	a4,-26(s0)
	or	a5,a5,a4
	andi	a5,a5,0xff
	.loc 1 421 10 discriminator 1
	mv	a1,a5
	ld	a0,-24(s0)
	call	PciSegmentWrite8
	mv	a5,a0
	.loc 1 422 1
	mv	a0,a5
	ld	ra,24(sp)
	.cfi_restore 1
	ld	s0,16(sp)
	.cfi_restore 8
	.cfi_def_cfa 2, 32
	addi	sp,sp,32
	.cfi_def_cfa_offset 0
	jr	ra
	.cfi_endproc
.LFE18:
	.size	PciSegmentAndThenOr8, .-PciSegmentAndThenOr8
	.section	.text.PciSegmentBitFieldRead8,"ax",@progbits
	.align	1
	.globl	PciSegmentBitFieldRead8
	.type	PciSegmentBitFieldRead8, @function
PciSegmentBitFieldRead8:
.LFB19:
	.loc 1 452 1
	.cfi_startproc
	addi	sp,sp,-48
	.cfi_def_cfa_offset 48
	sd	ra,40(sp)
	sd	s0,32(sp)
	.cfi_offset 1, -8
	.cfi_offset 8, -16
	addi	s0,sp,48
	.cfi_def_cfa 8, 0
	sd	a0,-24(s0)
	sd	a1,-32(s0)
	sd	a2,-40(s0)
	.loc 1 453 10
	ld	a0,-24(s0)
	call	PciSegmentRead8
	mv	a5,a0
	.loc 1 453 10 is_stmt 0 discriminator 1
	ld	a2,-40(s0)
	ld	a1,-32(s0)
	mv	a0,a5
	call	BitFieldRead8@plt
	mv	a5,a0
	.loc 1 454 1 is_stmt 1
	mv	a0,a5
	ld	ra,40(sp)
	.cfi_restore 1
	ld	s0,32(sp)
	.cfi_restore 8
	.cfi_def_cfa 2, 48
	addi	sp,sp,48
	.cfi_def_cfa_offset 0
	jr	ra
	.cfi_endproc
.LFE19:
	.size	PciSegmentBitFieldRead8, .-PciSegmentBitFieldRead8
	.section	.text.PciSegmentBitFieldWrite8,"ax",@progbits
	.align	1
	.globl	PciSegmentBitFieldWrite8
	.type	PciSegmentBitFieldWrite8, @function
PciSegmentBitFieldWrite8:
.LFB20:
	.loc 1 488 1
	.cfi_startproc
	addi	sp,sp,-48
	.cfi_def_cfa_offset 48
	sd	ra,40(sp)
	sd	s0,32(sp)
	.cfi_offset 1, -8
	.cfi_offset 8, -16
	addi	s0,sp,48
	.cfi_def_cfa 8, 0
	sd	a0,-24(s0)
	sd	a1,-32(s0)
	sd	a2,-40(s0)
	mv	a5,a3
	sb	a5,-41(s0)
	.loc 1 489 10
	ld	a0,-24(s0)
	call	PciSegmentRead8
	mv	a5,a0
	mv	a4,a5
	.loc 1 489 10 is_stmt 0 discriminator 1
	lbu	a5,-41(s0)
	mv	a3,a5
	ld	a2,-40(s0)
	ld	a1,-32(s0)
	mv	a0,a4
	call	BitFieldWrite8@plt
	mv	a5,a0
	.loc 1 489 10 discriminator 2
	mv	a1,a5
	ld	a0,-24(s0)
	call	PciSegmentWrite8
	mv	a5,a0
	.loc 1 493 1 is_stmt 1
	mv	a0,a5
	ld	ra,40(sp)
	.cfi_restore 1
	ld	s0,32(sp)
	.cfi_restore 8
	.cfi_def_cfa 2, 48
	addi	sp,sp,48
	.cfi_def_cfa_offset 0
	jr	ra
	.cfi_endproc
.LFE20:
	.size	PciSegmentBitFieldWrite8, .-PciSegmentBitFieldWrite8
	.section	.text.PciSegmentBitFieldOr8,"ax",@progbits
	.align	1
	.globl	PciSegmentBitFieldOr8
	.type	PciSegmentBitFieldOr8, @function
PciSegmentBitFieldOr8:
.LFB21:
	.loc 1 530 1
	.cfi_startproc
	addi	sp,sp,-48
	.cfi_def_cfa_offset 48
	sd	ra,40(sp)
	sd	s0,32(sp)
	.cfi_offset 1, -8
	.cfi_offset 8, -16
	addi	s0,sp,48
	.cfi_def_cfa 8, 0
	sd	a0,-24(s0)
	sd	a1,-32(s0)
	sd	a2,-40(s0)
	mv	a5,a3
	sb	a5,-41(s0)
	.loc 1 531 10
	ld	a0,-24(s0)
	call	PciSegmentRead8
	mv	a5,a0
	mv	a4,a5
	.loc 1 531 10 is_stmt 0 discriminator 1
	lbu	a5,-41(s0)
	mv	a3,a5
	ld	a2,-40(s0)
	ld	a1,-32(s0)
	mv	a0,a4
	call	BitFieldOr8@plt
	mv	a5,a0
	.loc 1 531 10 discriminator 2
	mv	a1,a5
	ld	a0,-24(s0)
	call	PciSegmentWrite8
	mv	a5,a0
	.loc 1 535 1 is_stmt 1
	mv	a0,a5
	ld	ra,40(sp)
	.cfi_restore 1
	ld	s0,32(sp)
	.cfi_restore 8
	.cfi_def_cfa 2, 48
	addi	sp,sp,48
	.cfi_def_cfa_offset 0
	jr	ra
	.cfi_endproc
.LFE21:
	.size	PciSegmentBitFieldOr8, .-PciSegmentBitFieldOr8
	.section	.text.PciSegmentBitFieldAnd8,"ax",@progbits
	.align	1
	.globl	PciSegmentBitFieldAnd8
	.type	PciSegmentBitFieldAnd8, @function
PciSegmentBitFieldAnd8:
.LFB22:
	.loc 1 572 1
	.cfi_startproc
	addi	sp,sp,-48
	.cfi_def_cfa_offset 48
	sd	ra,40(sp)
	sd	s0,32(sp)
	.cfi_offset 1, -8
	.cfi_offset 8, -16
	addi	s0,sp,48
	.cfi_def_cfa 8, 0
	sd	a0,-24(s0)
	sd	a1,-32(s0)
	sd	a2,-40(s0)
	mv	a5,a3
	sb	a5,-41(s0)
	.loc 1 573 10
	ld	a0,-24(s0)
	call	PciSegmentRead8
	mv	a5,a0
	mv	a4,a5
	.loc 1 573 10 is_stmt 0 discriminator 1
	lbu	a5,-41(s0)
	mv	a3,a5
	ld	a2,-40(s0)
	ld	a1,-32(s0)
	mv	a0,a4
	call	BitFieldAnd8@plt
	mv	a5,a0
	.loc 1 573 10 discriminator 2
	mv	a1,a5
	ld	a0,-24(s0)
	call	PciSegmentWrite8
	mv	a5,a0
	.loc 1 577 1 is_stmt 1
	mv	a0,a5
	ld	ra,40(sp)
	.cfi_restore 1
	ld	s0,32(sp)
	.cfi_restore 8
	.cfi_def_cfa 2, 48
	addi	sp,sp,48
	.cfi_def_cfa_offset 0
	jr	ra
	.cfi_endproc
.LFE22:
	.size	PciSegmentBitFieldAnd8, .-PciSegmentBitFieldAnd8
	.section	.text.PciSegmentBitFieldAndThenOr8,"ax",@progbits
	.align	1
	.globl	PciSegmentBitFieldAndThenOr8
	.type	PciSegmentBitFieldAndThenOr8, @function
PciSegmentBitFieldAndThenOr8:
.LFB23:
	.loc 1 618 1
	.cfi_startproc
	addi	sp,sp,-48
	.cfi_def_cfa_offset 48
	sd	ra,40(sp)
	sd	s0,32(sp)
	.cfi_offset 1, -8
	.cfi_offset 8, -16
	addi	s0,sp,48
	.cfi_def_cfa 8, 0
	sd	a0,-24(s0)
	sd	a1,-32(s0)
	sd	a2,-40(s0)
	mv	a5,a3
	sb	a5,-41(s0)
	mv	a5,a4
	sb	a5,-42(s0)
	.loc 1 619 10
	ld	a0,-24(s0)
	call	PciSegmentRead8
	mv	a5,a0
	mv	a0,a5
	.loc 1 619 10 is_stmt 0 discriminator 1
	lbu	a4,-42(s0)
	lbu	a5,-41(s0)
	mv	a3,a5
	ld	a2,-40(s0)
	ld	a1,-32(s0)
	call	BitFieldAndThenOr8@plt
	mv	a5,a0
	.loc 1 619 10 discriminator 2
	mv	a1,a5
	ld	a0,-24(s0)
	call	PciSegmentWrite8
	mv	a5,a0
	.loc 1 623 1 is_stmt 1
	mv	a0,a5
	ld	ra,40(sp)
	.cfi_restore 1
	ld	s0,32(sp)
	.cfi_restore 8
	.cfi_def_cfa 2, 48
	addi	sp,sp,48
	.cfi_def_cfa_offset 0
	jr	ra
	.cfi_endproc
.LFE23:
	.size	PciSegmentBitFieldAndThenOr8, .-PciSegmentBitFieldAndThenOr8
	.section	.text.PciSegmentRead16,"ax",@progbits
	.align	1
	.globl	PciSegmentRead16
	.type	PciSegmentRead16, @function
PciSegmentRead16:
.LFB24:
	.loc 1 644 1
	.cfi_startproc
	addi	sp,sp,-32
	.cfi_def_cfa_offset 32
	sd	ra,24(sp)
	sd	s0,16(sp)
	.cfi_offset 1, -8
	.cfi_offset 8, -16
	addi	s0,sp,32
	.cfi_def_cfa 8, 0
	sd	a0,-24(s0)
	.loc 1 647 19
	li	a1,1
	ld	a0,-24(s0)
	call	PciSegmentLibReadWorker
	mv	a5,a0
	.loc 1 647 10 discriminator 1
	slli	a5,a5,48
	srli	a5,a5,48
	.loc 1 648 1
	mv	a0,a5
	ld	ra,24(sp)
	.cfi_restore 1
	ld	s0,16(sp)
	.cfi_restore 8
	.cfi_def_cfa 2, 32
	addi	sp,sp,32
	.cfi_def_cfa_offset 0
	jr	ra
	.cfi_endproc
.LFE24:
	.size	PciSegmentRead16, .-PciSegmentRead16
	.section	.text.PciSegmentWrite16,"ax",@progbits
	.align	1
	.globl	PciSegmentWrite16
	.type	PciSegmentWrite16, @function
PciSegmentWrite16:
.LFB25:
	.loc 1 671 1
	.cfi_startproc
	addi	sp,sp,-32
	.cfi_def_cfa_offset 32
	sd	ra,24(sp)
	sd	s0,16(sp)
	.cfi_offset 1, -8
	.cfi_offset 8, -16
	addi	s0,sp,32
	.cfi_def_cfa 8, 0
	sd	a0,-24(s0)
	mv	a5,a1
	sh	a5,-26(s0)
	.loc 1 674 19
	lhu	a5,-26(s0)
	sext.w	a5,a5
	mv	a2,a5
	li	a1,1
	ld	a0,-24(s0)
	call	PciSegmentLibWriteWorker
	mv	a5,a0
	.loc 1 674 10 discriminator 1
	slli	a5,a5,48
	srli	a5,a5,48
	.loc 1 675 1
	mv	a0,a5
	ld	ra,24(sp)
	.cfi_restore 1
	ld	s0,16(sp)
	.cfi_restore 8
	.cfi_def_cfa 2, 32
	addi	sp,sp,32
	.cfi_def_cfa_offset 0
	jr	ra
	.cfi_endproc
.LFE25:
	.size	PciSegmentWrite16, .-PciSegmentWrite16
	.section	.text.PciSegmentOr16,"ax",@progbits
	.align	1
	.globl	PciSegmentOr16
	.type	PciSegmentOr16, @function
PciSegmentOr16:
.LFB26:
	.loc 1 703 1
	.cfi_startproc
	addi	sp,sp,-32
	.cfi_def_cfa_offset 32
	sd	ra,24(sp)
	sd	s0,16(sp)
	.cfi_offset 1, -8
	.cfi_offset 8, -16
	addi	s0,sp,32
	.cfi_def_cfa 8, 0
	sd	a0,-24(s0)
	mv	a5,a1
	sh	a5,-26(s0)
	.loc 1 704 48
	ld	a0,-24(s0)
	call	PciSegmentRead16
	mv	a5,a0
	mv	a4,a5
	.loc 1 704 38 discriminator 1
	lhu	a5,-26(s0)
	or	a5,a4,a5
	slli	a5,a5,48
	srli	a5,a5,48
	.loc 1 704 10 discriminator 1
	mv	a1,a5
	ld	a0,-24(s0)
	call	PciSegmentWrite16
	mv	a5,a0
	.loc 1 705 1
	mv	a0,a5
	ld	ra,24(sp)
	.cfi_restore 1
	ld	s0,16(sp)
	.cfi_restore 8
	.cfi_def_cfa 2, 32
	addi	sp,sp,32
	.cfi_def_cfa_offset 0
	jr	ra
	.cfi_endproc
.LFE26:
	.size	PciSegmentOr16, .-PciSegmentOr16
	.section	.text.PciSegmentAnd16,"ax",@progbits
	.align	1
	.globl	PciSegmentAnd16
	.type	PciSegmentAnd16, @function
PciSegmentAnd16:
.LFB27:
	.loc 1 731 1
	.cfi_startproc
	addi	sp,sp,-32
	.cfi_def_cfa_offset 32
	sd	ra,24(sp)
	sd	s0,16(sp)
	.cfi_offset 1, -8
	.cfi_offset 8, -16
	addi	s0,sp,32
	.cfi_def_cfa 8, 0
	sd	a0,-24(s0)
	mv	a5,a1
	sh	a5,-26(s0)
	.loc 1 732 48
	ld	a0,-24(s0)
	call	PciSegmentRead16
	mv	a5,a0
	mv	a4,a5
	.loc 1 732 38 discriminator 1
	lhu	a5,-26(s0)
	and	a5,a4,a5
	slli	a5,a5,48
	srli	a5,a5,48
	.loc 1 732 10 discriminator 1
	mv	a1,a5
	ld	a0,-24(s0)
	call	PciSegmentWrite16
	mv	a5,a0
	.loc 1 733 1
	mv	a0,a5
	ld	ra,24(sp)
	.cfi_restore 1
	ld	s0,16(sp)
	.cfi_restore 8
	.cfi_def_cfa 2, 32
	addi	sp,sp,32
	.cfi_def_cfa_offset 0
	jr	ra
	.cfi_endproc
.LFE27:
	.size	PciSegmentAnd16, .-PciSegmentAnd16
	.section	.text.PciSegmentAndThenOr16,"ax",@progbits
	.align	1
	.globl	PciSegmentAndThenOr16
	.type	PciSegmentAndThenOr16, @function
PciSegmentAndThenOr16:
.LFB28:
	.loc 1 763 1
	.cfi_startproc
	addi	sp,sp,-32
	.cfi_def_cfa_offset 32
	sd	ra,24(sp)
	sd	s0,16(sp)
	.cfi_offset 1, -8
	.cfi_offset 8, -16
	addi	s0,sp,32
	.cfi_def_cfa 8, 0
	sd	a0,-24(s0)
	mv	a5,a1
	mv	a4,a2
	sh	a5,-26(s0)
	mv	a5,a4
	sh	a5,-28(s0)
	.loc 1 764 49
	ld	a0,-24(s0)
	call	PciSegmentRead16
	mv	a5,a0
	mv	a4,a5
	.loc 1 764 10 discriminator 1
	lhu	a5,-26(s0)
	and	a5,a4,a5
	slli	a5,a5,48
	srli	a5,a5,48
	.loc 1 764 38 discriminator 1
	lhu	a4,-28(s0)
	or	a5,a5,a4
	slli	a5,a5,48
	srli	a5,a5,48
	.loc 1 764 10 discriminator 1
	mv	a1,a5
	ld	a0,-24(s0)
	call	PciSegmentWrite16
	mv	a5,a0
	.loc 1 765 1
	mv	a0,a5
	ld	ra,24(sp)
	.cfi_restore 1
	ld	s0,16(sp)
	.cfi_restore 8
	.cfi_def_cfa 2, 32
	addi	sp,sp,32
	.cfi_def_cfa_offset 0
	jr	ra
	.cfi_endproc
.LFE28:
	.size	PciSegmentAndThenOr16, .-PciSegmentAndThenOr16
	.section	.text.PciSegmentBitFieldRead16,"ax",@progbits
	.align	1
	.globl	PciSegmentBitFieldRead16
	.type	PciSegmentBitFieldRead16, @function
PciSegmentBitFieldRead16:
.LFB29:
	.loc 1 796 1
	.cfi_startproc
	addi	sp,sp,-48
	.cfi_def_cfa_offset 48
	sd	ra,40(sp)
	sd	s0,32(sp)
	.cfi_offset 1, -8
	.cfi_offset 8, -16
	addi	s0,sp,48
	.cfi_def_cfa 8, 0
	sd	a0,-24(s0)
	sd	a1,-32(s0)
	sd	a2,-40(s0)
	.loc 1 797 10
	ld	a0,-24(s0)
	call	PciSegmentRead16
	mv	a5,a0
	.loc 1 797 10 is_stmt 0 discriminator 1
	ld	a2,-40(s0)
	ld	a1,-32(s0)
	mv	a0,a5
	call	BitFieldRead16@plt
	mv	a5,a0
	.loc 1 798 1 is_stmt 1
	mv	a0,a5
	ld	ra,40(sp)
	.cfi_restore 1
	ld	s0,32(sp)
	.cfi_restore 8
	.cfi_def_cfa 2, 48
	addi	sp,sp,48
	.cfi_def_cfa_offset 0
	jr	ra
	.cfi_endproc
.LFE29:
	.size	PciSegmentBitFieldRead16, .-PciSegmentBitFieldRead16
	.section	.text.PciSegmentBitFieldWrite16,"ax",@progbits
	.align	1
	.globl	PciSegmentBitFieldWrite16
	.type	PciSegmentBitFieldWrite16, @function
PciSegmentBitFieldWrite16:
.LFB30:
	.loc 1 833 1
	.cfi_startproc
	addi	sp,sp,-48
	.cfi_def_cfa_offset 48
	sd	ra,40(sp)
	sd	s0,32(sp)
	.cfi_offset 1, -8
	.cfi_offset 8, -16
	addi	s0,sp,48
	.cfi_def_cfa 8, 0
	sd	a0,-24(s0)
	sd	a1,-32(s0)
	sd	a2,-40(s0)
	mv	a5,a3
	sh	a5,-42(s0)
	.loc 1 834 10
	ld	a0,-24(s0)
	call	PciSegmentRead16
	mv	a5,a0
	mv	a4,a5
	.loc 1 834 10 is_stmt 0 discriminator 1
	lhu	a5,-42(s0)
	mv	a3,a5
	ld	a2,-40(s0)
	ld	a1,-32(s0)
	mv	a0,a4
	call	BitFieldWrite16@plt
	mv	a5,a0
	.loc 1 834 10 discriminator 2
	mv	a1,a5
	ld	a0,-24(s0)
	call	PciSegmentWrite16
	mv	a5,a0
	.loc 1 838 1 is_stmt 1
	mv	a0,a5
	ld	ra,40(sp)
	.cfi_restore 1
	ld	s0,32(sp)
	.cfi_restore 8
	.cfi_def_cfa 2, 48
	addi	sp,sp,48
	.cfi_def_cfa_offset 0
	jr	ra
	.cfi_endproc
.LFE30:
	.size	PciSegmentBitFieldWrite16, .-PciSegmentBitFieldWrite16
	.section	.text.PciSegmentBitFieldOr16,"ax",@progbits
	.align	1
	.globl	PciSegmentBitFieldOr16
	.type	PciSegmentBitFieldOr16, @function
PciSegmentBitFieldOr16:
.LFB31:
	.loc 1 876 1
	.cfi_startproc
	addi	sp,sp,-48
	.cfi_def_cfa_offset 48
	sd	ra,40(sp)
	sd	s0,32(sp)
	.cfi_offset 1, -8
	.cfi_offset 8, -16
	addi	s0,sp,48
	.cfi_def_cfa 8, 0
	sd	a0,-24(s0)
	sd	a1,-32(s0)
	sd	a2,-40(s0)
	mv	a5,a3
	sh	a5,-42(s0)
	.loc 1 877 10
	ld	a0,-24(s0)
	call	PciSegmentRead16
	mv	a5,a0
	mv	a4,a5
	.loc 1 877 10 is_stmt 0 discriminator 1
	lhu	a5,-42(s0)
	mv	a3,a5
	ld	a2,-40(s0)
	ld	a1,-32(s0)
	mv	a0,a4
	call	BitFieldOr16@plt
	mv	a5,a0
	.loc 1 877 10 discriminator 2
	mv	a1,a5
	ld	a0,-24(s0)
	call	PciSegmentWrite16
	mv	a5,a0
	.loc 1 881 1 is_stmt 1
	mv	a0,a5
	ld	ra,40(sp)
	.cfi_restore 1
	ld	s0,32(sp)
	.cfi_restore 8
	.cfi_def_cfa 2, 48
	addi	sp,sp,48
	.cfi_def_cfa_offset 0
	jr	ra
	.cfi_endproc
.LFE31:
	.size	PciSegmentBitFieldOr16, .-PciSegmentBitFieldOr16
	.section	.text.PciSegmentBitFieldAnd16,"ax",@progbits
	.align	1
	.globl	PciSegmentBitFieldAnd16
	.type	PciSegmentBitFieldAnd16, @function
PciSegmentBitFieldAnd16:
.LFB32:
	.loc 1 919 1
	.cfi_startproc
	addi	sp,sp,-48
	.cfi_def_cfa_offset 48
	sd	ra,40(sp)
	sd	s0,32(sp)
	.cfi_offset 1, -8
	.cfi_offset 8, -16
	addi	s0,sp,48
	.cfi_def_cfa 8, 0
	sd	a0,-24(s0)
	sd	a1,-32(s0)
	sd	a2,-40(s0)
	mv	a5,a3
	sh	a5,-42(s0)
	.loc 1 920 10
	ld	a0,-24(s0)
	call	PciSegmentRead16
	mv	a5,a0
	mv	a4,a5
	.loc 1 920 10 is_stmt 0 discriminator 1
	lhu	a5,-42(s0)
	mv	a3,a5
	ld	a2,-40(s0)
	ld	a1,-32(s0)
	mv	a0,a4
	call	BitFieldAnd16@plt
	mv	a5,a0
	.loc 1 920 10 discriminator 2
	mv	a1,a5
	ld	a0,-24(s0)
	call	PciSegmentWrite16
	mv	a5,a0
	.loc 1 924 1 is_stmt 1
	mv	a0,a5
	ld	ra,40(sp)
	.cfi_restore 1
	ld	s0,32(sp)
	.cfi_restore 8
	.cfi_def_cfa 2, 48
	addi	sp,sp,48
	.cfi_def_cfa_offset 0
	jr	ra
	.cfi_endproc
.LFE32:
	.size	PciSegmentBitFieldAnd16, .-PciSegmentBitFieldAnd16
	.section	.text.PciSegmentBitFieldAndThenOr16,"ax",@progbits
	.align	1
	.globl	PciSegmentBitFieldAndThenOr16
	.type	PciSegmentBitFieldAndThenOr16, @function
PciSegmentBitFieldAndThenOr16:
.LFB33:
	.loc 1 966 1
	.cfi_startproc
	addi	sp,sp,-48
	.cfi_def_cfa_offset 48
	sd	ra,40(sp)
	sd	s0,32(sp)
	.cfi_offset 1, -8
	.cfi_offset 8, -16
	addi	s0,sp,48
	.cfi_def_cfa 8, 0
	sd	a0,-24(s0)
	sd	a1,-32(s0)
	sd	a2,-40(s0)
	mv	a5,a3
	sh	a5,-42(s0)
	mv	a5,a4
	sh	a5,-44(s0)
	.loc 1 967 10
	ld	a0,-24(s0)
	call	PciSegmentRead16
	mv	a5,a0
	mv	a0,a5
	.loc 1 967 10 is_stmt 0 discriminator 1
	lhu	a4,-44(s0)
	lhu	a5,-42(s0)
	mv	a3,a5
	ld	a2,-40(s0)
	ld	a1,-32(s0)
	call	BitFieldAndThenOr16@plt
	mv	a5,a0
	.loc 1 967 10 discriminator 2
	mv	a1,a5
	ld	a0,-24(s0)
	call	PciSegmentWrite16
	mv	a5,a0
	.loc 1 971 1 is_stmt 1
	mv	a0,a5
	ld	ra,40(sp)
	.cfi_restore 1
	ld	s0,32(sp)
	.cfi_restore 8
	.cfi_def_cfa 2, 48
	addi	sp,sp,48
	.cfi_def_cfa_offset 0
	jr	ra
	.cfi_endproc
.LFE33:
	.size	PciSegmentBitFieldAndThenOr16, .-PciSegmentBitFieldAndThenOr16
	.section	.text.PciSegmentRead32,"ax",@progbits
	.align	1
	.globl	PciSegmentRead32
	.type	PciSegmentRead32, @function
PciSegmentRead32:
.LFB34:
	.loc 1 992 1
	.cfi_startproc
	addi	sp,sp,-32
	.cfi_def_cfa_offset 32
	sd	ra,24(sp)
	sd	s0,16(sp)
	.cfi_offset 1, -8
	.cfi_offset 8, -16
	addi	s0,sp,32
	.cfi_def_cfa 8, 0
	sd	a0,-24(s0)
	.loc 1 995 10
	li	a1,2
	ld	a0,-24(s0)
	call	PciSegmentLibReadWorker
	mv	a5,a0
	.loc 1 996 1
	mv	a0,a5
	ld	ra,24(sp)
	.cfi_restore 1
	ld	s0,16(sp)
	.cfi_restore 8
	.cfi_def_cfa 2, 32
	addi	sp,sp,32
	.cfi_def_cfa_offset 0
	jr	ra
	.cfi_endproc
.LFE34:
	.size	PciSegmentRead32, .-PciSegmentRead32
	.section	.text.PciSegmentWrite32,"ax",@progbits
	.align	1
	.globl	PciSegmentWrite32
	.type	PciSegmentWrite32, @function
PciSegmentWrite32:
.LFB35:
	.loc 1 1019 1
	.cfi_startproc
	addi	sp,sp,-32
	.cfi_def_cfa_offset 32
	sd	ra,24(sp)
	sd	s0,16(sp)
	.cfi_offset 1, -8
	.cfi_offset 8, -16
	addi	s0,sp,32
	.cfi_def_cfa 8, 0
	sd	a0,-24(s0)
	mv	a5,a1
	sw	a5,-28(s0)
	.loc 1 1022 10
	lw	a5,-28(s0)
	mv	a2,a5
	li	a1,2
	ld	a0,-24(s0)
	call	PciSegmentLibWriteWorker
	mv	a5,a0
	.loc 1 1023 1
	mv	a0,a5
	ld	ra,24(sp)
	.cfi_restore 1
	ld	s0,16(sp)
	.cfi_restore 8
	.cfi_def_cfa 2, 32
	addi	sp,sp,32
	.cfi_def_cfa_offset 0
	jr	ra
	.cfi_endproc
.LFE35:
	.size	PciSegmentWrite32, .-PciSegmentWrite32
	.section	.text.PciSegmentAnd32,"ax",@progbits
	.align	1
	.globl	PciSegmentAnd32
	.type	PciSegmentAnd32, @function
PciSegmentAnd32:
.LFB36:
	.loc 1 1074 1
	.cfi_startproc
	addi	sp,sp,-32
	.cfi_def_cfa_offset 32
	sd	ra,24(sp)
	sd	s0,16(sp)
	.cfi_offset 1, -8
	.cfi_offset 8, -16
	addi	s0,sp,32
	.cfi_def_cfa 8, 0
	sd	a0,-24(s0)
	mv	a5,a1
	sw	a5,-28(s0)
	.loc 1 1075 38
	ld	a0,-24(s0)
	call	PciSegmentRead32
	mv	a5,a0
	mv	a3,a5
	.loc 1 1075 10 discriminator 1
	lw	a5,-28(s0)
	mv	a4,a5
	mv	a5,a3
	and	a5,a4,a5
	sext.w	a5,a5
	mv	a1,a5
	ld	a0,-24(s0)
	call	PciSegmentWrite32
	mv	a5,a0
	.loc 1 1076 1
	mv	a0,a5
	ld	ra,24(sp)
	.cfi_restore 1
	ld	s0,16(sp)
	.cfi_restore 8
	.cfi_def_cfa 2, 32
	addi	sp,sp,32
	.cfi_def_cfa_offset 0
	jr	ra
	.cfi_endproc
.LFE36:
	.size	PciSegmentAnd32, .-PciSegmentAnd32
	.section	.text.PciSegmentAndThenOr32,"ax",@progbits
	.align	1
	.globl	PciSegmentAndThenOr32
	.type	PciSegmentAndThenOr32, @function
PciSegmentAndThenOr32:
.LFB37:
	.loc 1 1106 1
	.cfi_startproc
	addi	sp,sp,-32
	.cfi_def_cfa_offset 32
	sd	ra,24(sp)
	sd	s0,16(sp)
	.cfi_offset 1, -8
	.cfi_offset 8, -16
	addi	s0,sp,32
	.cfi_def_cfa 8, 0
	sd	a0,-24(s0)
	mv	a5,a1
	mv	a4,a2
	sw	a5,-28(s0)
	mv	a5,a4
	sw	a5,-32(s0)
	.loc 1 1107 39
	ld	a0,-24(s0)
	call	PciSegmentRead32
	mv	a5,a0
	mv	a3,a5
	.loc 1 1107 66 discriminator 1
	lw	a5,-28(s0)
	mv	a4,a5
	mv	a5,a3
	and	a5,a4,a5
	sext.w	a5,a5
	.loc 1 1107 10 discriminator 1
	lw	a4,-32(s0)
	or	a5,a4,a5
	sext.w	a5,a5
	mv	a1,a5
	ld	a0,-24(s0)
	call	PciSegmentWrite32
	mv	a5,a0
	.loc 1 1108 1
	mv	a0,a5
	ld	ra,24(sp)
	.cfi_restore 1
	ld	s0,16(sp)
	.cfi_restore 8
	.cfi_def_cfa 2, 32
	addi	sp,sp,32
	.cfi_def_cfa_offset 0
	jr	ra
	.cfi_endproc
.LFE37:
	.size	PciSegmentAndThenOr32, .-PciSegmentAndThenOr32
	.section	.text.PciSegmentBitFieldRead32,"ax",@progbits
	.align	1
	.globl	PciSegmentBitFieldRead32
	.type	PciSegmentBitFieldRead32, @function
PciSegmentBitFieldRead32:
.LFB38:
	.loc 1 1139 1
	.cfi_startproc
	addi	sp,sp,-48
	.cfi_def_cfa_offset 48
	sd	ra,40(sp)
	sd	s0,32(sp)
	.cfi_offset 1, -8
	.cfi_offset 8, -16
	addi	s0,sp,48
	.cfi_def_cfa 8, 0
	sd	a0,-24(s0)
	sd	a1,-32(s0)
	sd	a2,-40(s0)
	.loc 1 1140 10
	ld	a0,-24(s0)
	call	PciSegmentRead32
	mv	a5,a0
	.loc 1 1140 10 is_stmt 0 discriminator 1
	ld	a2,-40(s0)
	ld	a1,-32(s0)
	mv	a0,a5
	call	BitFieldRead32@plt
	mv	a5,a0
	.loc 1 1141 1 is_stmt 1
	mv	a0,a5
	ld	ra,40(sp)
	.cfi_restore 1
	ld	s0,32(sp)
	.cfi_restore 8
	.cfi_def_cfa 2, 48
	addi	sp,sp,48
	.cfi_def_cfa_offset 0
	jr	ra
	.cfi_endproc
.LFE38:
	.size	PciSegmentBitFieldRead32, .-PciSegmentBitFieldRead32
	.section	.text.PciSegmentBitFieldWrite32,"ax",@progbits
	.align	1
	.globl	PciSegmentBitFieldWrite32
	.type	PciSegmentBitFieldWrite32, @function
PciSegmentBitFieldWrite32:
.LFB39:
	.loc 1 1176 1
	.cfi_startproc
	addi	sp,sp,-48
	.cfi_def_cfa_offset 48
	sd	ra,40(sp)
	sd	s0,32(sp)
	.cfi_offset 1, -8
	.cfi_offset 8, -16
	addi	s0,sp,48
	.cfi_def_cfa 8, 0
	sd	a0,-24(s0)
	sd	a1,-32(s0)
	sd	a2,-40(s0)
	mv	a5,a3
	sw	a5,-44(s0)
	.loc 1 1177 10
	ld	a0,-24(s0)
	call	PciSegmentRead32
	mv	a5,a0
	mv	a4,a5
	.loc 1 1177 10 is_stmt 0 discriminator 1
	lw	a5,-44(s0)
	mv	a3,a5
	ld	a2,-40(s0)
	ld	a1,-32(s0)
	mv	a0,a4
	call	BitFieldWrite32@plt
	mv	a5,a0
	.loc 1 1177 10 discriminator 2
	mv	a1,a5
	ld	a0,-24(s0)
	call	PciSegmentWrite32
	mv	a5,a0
	.loc 1 1181 1 is_stmt 1
	mv	a0,a5
	ld	ra,40(sp)
	.cfi_restore 1
	ld	s0,32(sp)
	.cfi_restore 8
	.cfi_def_cfa 2, 48
	addi	sp,sp,48
	.cfi_def_cfa_offset 0
	jr	ra
	.cfi_endproc
.LFE39:
	.size	PciSegmentBitFieldWrite32, .-PciSegmentBitFieldWrite32
	.section	.text.PciSegmentBitFieldOr32,"ax",@progbits
	.align	1
	.globl	PciSegmentBitFieldOr32
	.type	PciSegmentBitFieldOr32, @function
PciSegmentBitFieldOr32:
.LFB40:
	.loc 1 1218 1
	.cfi_startproc
	addi	sp,sp,-48
	.cfi_def_cfa_offset 48
	sd	ra,40(sp)
	sd	s0,32(sp)
	.cfi_offset 1, -8
	.cfi_offset 8, -16
	addi	s0,sp,48
	.cfi_def_cfa 8, 0
	sd	a0,-24(s0)
	sd	a1,-32(s0)
	sd	a2,-40(s0)
	mv	a5,a3
	sw	a5,-44(s0)
	.loc 1 1219 10
	ld	a0,-24(s0)
	call	PciSegmentRead32
	mv	a5,a0
	mv	a4,a5
	.loc 1 1219 10 is_stmt 0 discriminator 1
	lw	a5,-44(s0)
	mv	a3,a5
	ld	a2,-40(s0)
	ld	a1,-32(s0)
	mv	a0,a4
	call	BitFieldOr32@plt
	mv	a5,a0
	.loc 1 1219 10 discriminator 2
	mv	a1,a5
	ld	a0,-24(s0)
	call	PciSegmentWrite32
	mv	a5,a0
	.loc 1 1223 1 is_stmt 1
	mv	a0,a5
	ld	ra,40(sp)
	.cfi_restore 1
	ld	s0,32(sp)
	.cfi_restore 8
	.cfi_def_cfa 2, 48
	addi	sp,sp,48
	.cfi_def_cfa_offset 0
	jr	ra
	.cfi_endproc
.LFE40:
	.size	PciSegmentBitFieldOr32, .-PciSegmentBitFieldOr32
	.section	.text.PciSegmentBitFieldAnd32,"ax",@progbits
	.align	1
	.globl	PciSegmentBitFieldAnd32
	.type	PciSegmentBitFieldAnd32, @function
PciSegmentBitFieldAnd32:
.LFB41:
	.loc 1 1260 1
	.cfi_startproc
	addi	sp,sp,-48
	.cfi_def_cfa_offset 48
	sd	ra,40(sp)
	sd	s0,32(sp)
	.cfi_offset 1, -8
	.cfi_offset 8, -16
	addi	s0,sp,48
	.cfi_def_cfa 8, 0
	sd	a0,-24(s0)
	sd	a1,-32(s0)
	sd	a2,-40(s0)
	mv	a5,a3
	sw	a5,-44(s0)
	.loc 1 1261 10
	ld	a0,-24(s0)
	call	PciSegmentRead32
	mv	a5,a0
	mv	a4,a5
	.loc 1 1261 10 is_stmt 0 discriminator 1
	lw	a5,-44(s0)
	mv	a3,a5
	ld	a2,-40(s0)
	ld	a1,-32(s0)
	mv	a0,a4
	call	BitFieldAnd32@plt
	mv	a5,a0
	.loc 1 1261 10 discriminator 2
	mv	a1,a5
	ld	a0,-24(s0)
	call	PciSegmentWrite32
	mv	a5,a0
	.loc 1 1265 1 is_stmt 1
	mv	a0,a5
	ld	ra,40(sp)
	.cfi_restore 1
	ld	s0,32(sp)
	.cfi_restore 8
	.cfi_def_cfa 2, 48
	addi	sp,sp,48
	.cfi_def_cfa_offset 0
	jr	ra
	.cfi_endproc
.LFE41:
	.size	PciSegmentBitFieldAnd32, .-PciSegmentBitFieldAnd32
	.section	.text.PciSegmentBitFieldAndThenOr32,"ax",@progbits
	.align	1
	.globl	PciSegmentBitFieldAndThenOr32
	.type	PciSegmentBitFieldAndThenOr32, @function
PciSegmentBitFieldAndThenOr32:
.LFB42:
	.loc 1 1307 1
	.cfi_startproc
	addi	sp,sp,-48
	.cfi_def_cfa_offset 48
	sd	ra,40(sp)
	sd	s0,32(sp)
	.cfi_offset 1, -8
	.cfi_offset 8, -16
	addi	s0,sp,48
	.cfi_def_cfa 8, 0
	sd	a0,-24(s0)
	sd	a1,-32(s0)
	sd	a2,-40(s0)
	mv	a5,a3
	sw	a5,-44(s0)
	mv	a5,a4
	sw	a5,-48(s0)
	.loc 1 1308 10
	ld	a0,-24(s0)
	call	PciSegmentRead32
	mv	a5,a0
	mv	a0,a5
	.loc 1 1308 10 is_stmt 0 discriminator 1
	lw	a4,-48(s0)
	lw	a5,-44(s0)
	mv	a3,a5
	ld	a2,-40(s0)
	ld	a1,-32(s0)
	call	BitFieldAndThenOr32@plt
	mv	a5,a0
	.loc 1 1308 10 discriminator 2
	mv	a1,a5
	ld	a0,-24(s0)
	call	PciSegmentWrite32
	mv	a5,a0
	.loc 1 1312 1 is_stmt 1
	mv	a0,a5
	ld	ra,40(sp)
	.cfi_restore 1
	ld	s0,32(sp)
	.cfi_restore 8
	.cfi_def_cfa 2, 48
	addi	sp,sp,48
	.cfi_def_cfa_offset 0
	jr	ra
	.cfi_endproc
.LFE42:
	.size	PciSegmentBitFieldAndThenOr32, .-PciSegmentBitFieldAndThenOr32
	.section	.text.PciSegmentReadBuffer,"ax",@progbits
	.align	1
	.globl	PciSegmentReadBuffer
	.type	PciSegmentReadBuffer, @function
PciSegmentReadBuffer:
.LFB43:
	.loc 1 1344 1
	.cfi_startproc
	addi	sp,sp,-64
	.cfi_def_cfa_offset 64
	sd	ra,56(sp)
	sd	s0,48(sp)
	.cfi_offset 1, -8
	.cfi_offset 8, -16
	addi	s0,sp,64
	.cfi_def_cfa 8, 0
	sd	a0,-40(s0)
	sd	a1,-48(s0)
	sd	a2,-56(s0)
	.loc 1 1350 6
	ld	a5,-48(s0)
	bne	a5,zero,.L89
	.loc 1 1351 12
	ld	a5,-48(s0)
	j	.L90
.L89:
	.loc 1 1359 15
	ld	a5,-48(s0)
	sd	a5,-24(s0)
	.loc 1 1361 21
	ld	a5,-40(s0)
	andi	a5,a5,1
	.loc 1 1361 6
	beq	a5,zero,.L91
	.loc 1 1365 33
	ld	a0,-40(s0)
	call	PciSegmentRead8
	mv	a5,a0
	mv	a4,a5
	.loc 1 1365 31 discriminator 1
	ld	a5,-56(s0)
	sb	a4,0(a5)
	.loc 1 1366 18
	ld	a5,-40(s0)
	addi	a5,a5,1
	sd	a5,-40(s0)
	.loc 1 1367 10
	ld	a5,-48(s0)
	addi	a5,a5,-1
	sd	a5,-48(s0)
	.loc 1 1368 12
	ld	a5,-56(s0)
	addi	a5,a5,1
	sd	a5,-56(s0)
.L91:
	.loc 1 1371 6
	ld	a4,-48(s0)
	li	a5,1
	bleu	a4,a5,.L93
	.loc 1 1371 51 discriminator 1
	ld	a5,-40(s0)
	andi	a5,a5,2
	.loc 1 1371 33 discriminator 1
	beq	a5,zero,.L93
	.loc 1 1375 5
	ld	a0,-40(s0)
	call	PciSegmentRead16
	mv	a5,a0
	.loc 1 1375 5 is_stmt 0 discriminator 1
	mv	a1,a5
	ld	a0,-56(s0)
	call	WriteUnaligned16@plt
	.loc 1 1376 18 is_stmt 1
	ld	a5,-40(s0)
	addi	a5,a5,2
	sd	a5,-40(s0)
	.loc 1 1377 10
	ld	a5,-48(s0)
	addi	a5,a5,-2
	sd	a5,-48(s0)
	.loc 1 1378 12
	ld	a5,-56(s0)
	addi	a5,a5,2
	sd	a5,-56(s0)
	.loc 1 1381 9
	j	.L93
.L94:
	.loc 1 1385 5
	ld	a0,-40(s0)
	call	PciSegmentRead32
	mv	a5,a0
	.loc 1 1385 5 is_stmt 0 discriminator 1
	mv	a1,a5
	ld	a0,-56(s0)
	call	WriteUnaligned32@plt
	.loc 1 1386 18 is_stmt 1
	ld	a5,-40(s0)
	addi	a5,a5,4
	sd	a5,-40(s0)
	.loc 1 1387 10
	ld	a5,-48(s0)
	addi	a5,a5,-4
	sd	a5,-48(s0)
	.loc 1 1388 12
	ld	a5,-56(s0)
	addi	a5,a5,4
	sd	a5,-56(s0)
.L93:
	.loc 1 1381 15
	ld	a4,-48(s0)
	li	a5,3
	bgtu	a4,a5,.L94
	.loc 1 1391 6
	ld	a4,-48(s0)
	li	a5,1
	bleu	a4,a5,.L95
	.loc 1 1395 5
	ld	a0,-40(s0)
	call	PciSegmentRead16
	mv	a5,a0
	.loc 1 1395 5 is_stmt 0 discriminator 1
	mv	a1,a5
	ld	a0,-56(s0)
	call	WriteUnaligned16@plt
	.loc 1 1396 18 is_stmt 1
	ld	a5,-40(s0)
	addi	a5,a5,2
	sd	a5,-40(s0)
	.loc 1 1397 10
	ld	a5,-48(s0)
	addi	a5,a5,-2
	sd	a5,-48(s0)
	.loc 1 1398 12
	ld	a5,-56(s0)
	addi	a5,a5,2
	sd	a5,-56(s0)
.L95:
	.loc 1 1401 6
	ld	a5,-48(s0)
	beq	a5,zero,.L96
	.loc 1 1405 33
	ld	a0,-40(s0)
	call	PciSegmentRead8
	mv	a5,a0
	mv	a4,a5
	.loc 1 1405 31 discriminator 1
	ld	a5,-56(s0)
	sb	a4,0(a5)
.L96:
	.loc 1 1408 10
	ld	a5,-24(s0)
.L90:
	.loc 1 1409 1
	mv	a0,a5
	ld	ra,56(sp)
	.cfi_restore 1
	ld	s0,48(sp)
	.cfi_restore 8
	.cfi_def_cfa 2, 64
	addi	sp,sp,64
	.cfi_def_cfa_offset 0
	jr	ra
	.cfi_endproc
.LFE43:
	.size	PciSegmentReadBuffer, .-PciSegmentReadBuffer
	.section	.text.PciSegmentWriteBuffer,"ax",@progbits
	.align	1
	.globl	PciSegmentWriteBuffer
	.type	PciSegmentWriteBuffer, @function
PciSegmentWriteBuffer:
.LFB44:
	.loc 1 1442 1
	.cfi_startproc
	addi	sp,sp,-64
	.cfi_def_cfa_offset 64
	sd	ra,56(sp)
	sd	s0,48(sp)
	.cfi_offset 1, -8
	.cfi_offset 8, -16
	addi	s0,sp,64
	.cfi_def_cfa 8, 0
	sd	a0,-40(s0)
	sd	a1,-48(s0)
	sd	a2,-56(s0)
	.loc 1 1448 6
	ld	a5,-48(s0)
	bne	a5,zero,.L98
	.loc 1 1449 12
	li	a5,0
	j	.L99
.L98:
	.loc 1 1457 15
	ld	a5,-48(s0)
	sd	a5,-24(s0)
	.loc 1 1459 21
	ld	a5,-40(s0)
	andi	a5,a5,1
	.loc 1 1459 6
	beq	a5,zero,.L100
	.loc 1 1463 5
	ld	a5,-56(s0)
	lbu	a5,0(a5)
	mv	a1,a5
	ld	a0,-40(s0)
	call	PciSegmentWrite8
	.loc 1 1464 18
	ld	a5,-40(s0)
	addi	a5,a5,1
	sd	a5,-40(s0)
	.loc 1 1465 10
	ld	a5,-48(s0)
	addi	a5,a5,-1
	sd	a5,-48(s0)
	.loc 1 1466 12
	ld	a5,-56(s0)
	addi	a5,a5,1
	sd	a5,-56(s0)
.L100:
	.loc 1 1469 6
	ld	a4,-48(s0)
	li	a5,1
	bleu	a4,a5,.L102
	.loc 1 1469 51 discriminator 1
	ld	a5,-40(s0)
	andi	a5,a5,2
	.loc 1 1469 33 discriminator 1
	beq	a5,zero,.L102
	.loc 1 1473 5
	ld	a0,-56(s0)
	call	ReadUnaligned16@plt
	mv	a5,a0
	.loc 1 1473 5 is_stmt 0 discriminator 1
	mv	a1,a5
	ld	a0,-40(s0)
	call	PciSegmentWrite16
	.loc 1 1474 18 is_stmt 1
	ld	a5,-40(s0)
	addi	a5,a5,2
	sd	a5,-40(s0)
	.loc 1 1475 10
	ld	a5,-48(s0)
	addi	a5,a5,-2
	sd	a5,-48(s0)
	.loc 1 1476 12
	ld	a5,-56(s0)
	addi	a5,a5,2
	sd	a5,-56(s0)
	.loc 1 1479 9
	j	.L102
.L103:
	.loc 1 1483 5
	ld	a0,-56(s0)
	call	ReadUnaligned32@plt
	mv	a5,a0
	.loc 1 1483 5 is_stmt 0 discriminator 1
	mv	a1,a5
	ld	a0,-40(s0)
	call	PciSegmentWrite32
	.loc 1 1484 18 is_stmt 1
	ld	a5,-40(s0)
	addi	a5,a5,4
	sd	a5,-40(s0)
	.loc 1 1485 10
	ld	a5,-48(s0)
	addi	a5,a5,-4
	sd	a5,-48(s0)
	.loc 1 1486 12
	ld	a5,-56(s0)
	addi	a5,a5,4
	sd	a5,-56(s0)
.L102:
	.loc 1 1479 15
	ld	a4,-48(s0)
	li	a5,3
	bgtu	a4,a5,.L103
	.loc 1 1489 6
	ld	a4,-48(s0)
	li	a5,1
	bleu	a4,a5,.L104
	.loc 1 1493 5
	ld	a0,-56(s0)
	call	ReadUnaligned16@plt
	mv	a5,a0
	.loc 1 1493 5 is_stmt 0 discriminator 1
	mv	a1,a5
	ld	a0,-40(s0)
	call	PciSegmentWrite16
	.loc 1 1494 18 is_stmt 1
	ld	a5,-40(s0)
	addi	a5,a5,2
	sd	a5,-40(s0)
	.loc 1 1495 10
	ld	a5,-48(s0)
	addi	a5,a5,-2
	sd	a5,-48(s0)
	.loc 1 1496 12
	ld	a5,-56(s0)
	addi	a5,a5,2
	sd	a5,-56(s0)
.L104:
	.loc 1 1499 6
	ld	a5,-48(s0)
	beq	a5,zero,.L105
	.loc 1 1503 5
	ld	a5,-56(s0)
	lbu	a5,0(a5)
	mv	a1,a5
	ld	a0,-40(s0)
	call	PciSegmentWrite8
.L105:
	.loc 1 1506 10
	ld	a5,-24(s0)
.L99:
	.loc 1 1507 1
	mv	a0,a5
	ld	ra,56(sp)
	.cfi_restore 1
	ld	s0,48(sp)
	.cfi_restore 8
	.cfi_def_cfa 2, 64
	addi	sp,sp,64
	.cfi_def_cfa_offset 0
	jr	ra
	.cfi_endproc
.LFE44:
	.size	PciSegmentWriteBuffer, .-PciSegmentWriteBuffer
	.text
.Letext0:
	.file 2 "/home/kapoagaeming/spacemit-image-builder/components/edk2/MdePkg/Include/RiscV64/ProcessorBind.h"
	.file 3 "/home/kapoagaeming/spacemit-image-builder/components/edk2/MdePkg/Include/Base.h"
	.file 4 "/home/kapoagaeming/spacemit-image-builder/components/edk2/MdePkg/Include/Uefi/UefiBaseType.h"
	.file 5 "/home/kapoagaeming/spacemit-image-builder/components/edk2-platforms/Silicon/Spacemit/Include/Library/DesignWarePcieControllerConfig.h"
	.file 6 "/home/kapoagaeming/spacemit-image-builder/components/edk2-platforms/Silicon/Spacemit/Include/Library/DesignWarePcieControllerLib.h"
	.file 7 "/home/kapoagaeming/spacemit-image-builder/components/edk2/MdePkg/Include/Library/BaseLib.h"
	.file 8 "/home/kapoagaeming/spacemit-image-builder/components/edk2/MdePkg/Include/Library/IoLib.h"
	.file 9 "/home/kapoagaeming/spacemit-image-builder/components/edk2/MdePkg/Include/Library/BaseMemoryLib.h"
	.section	.note.GNU-stack,"",@progbits
