	.file	"FaultTolerantWriteDxe.c"
	.option pic
	.option norelax
	.attribute arch, "rv64i2p1_m2p0_a2p1_f2p2_d2p2_c2p0_zicsr2p0_zifencei2p0_zmmul1p0_zaamo1p0_zalrsc1p0_zca1p0_zcd1p0"
	.attribute unaligned_access, 0
	.attribute stack_align, 16
	.text
.Ltext0:
	.cfi_sections	.debug_frame
	.file 0 "/home/kapoagaeming/Downloads/spacemit-image-builder/components/Build/Milk-V-Jupiter/RELEASE_GCC5/RISCV64/MdeModulePkg/Universal/FaultTolerantWriteDxe/FaultTolerantWriteDxe" "/home/kapoagaeming/Downloads/spacemit-image-builder/components/edk2/MdeModulePkg/Universal/FaultTolerantWriteDxe/FaultTolerantWriteDxe.c"
	.globl	mFvbRegistration
	.section	.bss.mFvbRegistration,"aw",@nobits
	.align	3
	.type	mFvbRegistration, @object
	.size	mFvbRegistration, 8
mFvbRegistration:
	.zero	8
	.section	.text.FtwGetFvbByHandle,"ax",@progbits
	.align	1
	.globl	FtwGetFvbByHandle
	.type	FtwGetFvbByHandle, @function
FtwGetFvbByHandle:
.LFB0:
	.file 1 "/home/kapoagaeming/Downloads/spacemit-image-builder/components/edk2/MdeModulePkg/Universal/FaultTolerantWriteDxe/FaultTolerantWriteDxe.c"
	.loc 1 69 1
	.cfi_startproc
	addi	sp,sp,-32
	.cfi_def_cfa_offset 32
	sd	ra,24(sp)
	sd	s0,16(sp)
	.cfi_offset 1, -8
	.cfi_offset 8, -16
	addi	s0,sp,32
	.cfi_def_cfa 8, 0
	sd	a0,-24(s0)
	sd	a1,-32(s0)
	.loc 1 73 13
	la	a5,gBS
	ld	a5,0(a5)
	ld	a5,152(a5)
	.loc 1 73 10
	ld	a2,-32(s0)
	la	a1,gEfiFirmwareVolumeBlockProtocolGuid
	ld	a0,-24(s0)
	jalr	a5
.LVL0:
	mv	a5,a0
	.loc 1 78 1
	mv	a0,a5
	ld	ra,24(sp)
	.cfi_restore 1
	ld	s0,16(sp)
	.cfi_restore 8
	.cfi_def_cfa 2, 32
	addi	sp,sp,32
	.cfi_def_cfa_offset 0
	jr	ra
	.cfi_endproc
.LFE0:
	.size	FtwGetFvbByHandle, .-FtwGetFvbByHandle
	.section	.text.FtwGetSarProtocol,"ax",@progbits
	.align	1
	.globl	FtwGetSarProtocol
	.type	FtwGetSarProtocol, @function
FtwGetSarProtocol:
.LFB1:
	.loc 1 94 1
	.cfi_startproc
	addi	sp,sp,-48
	.cfi_def_cfa_offset 48
	sd	ra,40(sp)
	sd	s0,32(sp)
	.cfi_offset 1, -8
	.cfi_offset 8, -16
	addi	s0,sp,48
	.cfi_def_cfa 8, 0
	sd	a0,-40(s0)
	.loc 1 100 15
	la	a5,gBS
	ld	a5,0(a5)
	ld	a5,320(a5)
	.loc 1 100 12
	ld	a2,-40(s0)
	li	a1,0
	la	a0,gEfiSwapAddressRangeProtocolGuid
	jalr	a5
.LVL1:
	sd	a0,-24(s0)
	.loc 1 105 10
	ld	a5,-24(s0)
	.loc 1 106 1
	mv	a0,a5
	ld	ra,40(sp)
	.cfi_restore 1
	ld	s0,32(sp)
	.cfi_restore 8
	.cfi_def_cfa 2, 48
	addi	sp,sp,48
	.cfi_def_cfa_offset 0
	jr	ra
	.cfi_endproc
.LFE1:
	.size	FtwGetSarProtocol, .-FtwGetSarProtocol
	.section	.text.GetFvbCountAndBuffer,"ax",@progbits
	.align	1
	.globl	GetFvbCountAndBuffer
	.type	GetFvbCountAndBuffer, @function
GetFvbCountAndBuffer:
.LFB2:
	.loc 1 128 1
	.cfi_startproc
	addi	sp,sp,-48
	.cfi_def_cfa_offset 48
	sd	ra,40(sp)
	sd	s0,32(sp)
	.cfi_offset 1, -8
	.cfi_offset 8, -16
	addi	s0,sp,48
	.cfi_def_cfa 8, 0
	sd	a0,-40(s0)
	sd	a1,-48(s0)
	.loc 1 134 15
	la	a5,gBS
	ld	a5,0(a5)
	ld	a5,312(a5)
	.loc 1 134 12
	ld	a4,-48(s0)
	ld	a3,-40(s0)
	li	a2,0
	la	a1,gEfiFirmwareVolumeBlockProtocolGuid
	li	a0,2
	jalr	a5
.LVL2:
	sd	a0,-24(s0)
	.loc 1 141 10
	ld	a5,-24(s0)
	.loc 1 142 1
	mv	a0,a5
	ld	ra,40(sp)
	.cfi_restore 1
	ld	s0,32(sp)
	.cfi_restore 8
	.cfi_def_cfa 2, 48
	addi	sp,sp,48
	.cfi_def_cfa_offset 0
	jr	ra
	.cfi_endproc
.LFE2:
	.size	GetFvbCountAndBuffer, .-GetFvbCountAndBuffer
	.section	.text.FvbNotificationEvent,"ax",@progbits
	.align	1
	.globl	FvbNotificationEvent
	.type	FvbNotificationEvent, @function
FvbNotificationEvent:
.LFB3:
	.loc 1 157 1
	.cfi_startproc
	addi	sp,sp,-64
	.cfi_def_cfa_offset 64
	sd	ra,56(sp)
	sd	s0,48(sp)
	.cfi_offset 1, -8
	.cfi_offset 8, -16
	addi	s0,sp,64
	.cfi_def_cfa 8, 0
	sd	a0,-56(s0)
	sd	a1,-64(s0)
	.loc 1 166 15
	la	a5,gBS
	ld	a5,0(a5)
	ld	a5,320(a5)
	.loc 1 166 12
	addi	a4,s0,-40
	mv	a2,a4
	li	a1,0
	la	a0,gEfiFaultTolerantWriteProtocolGuid
	jalr	a5
.LVL3:
	sd	a0,-24(s0)
	.loc 1 171 7
	ld	a5,-24(s0)
	.loc 1 171 6
	bge	a5,zero,.L12
	.loc 1 178 13
	ld	a5,-64(s0)
	sd	a5,-32(s0)
	.loc 1 179 12
	ld	a0,-32(s0)
	call	InitFtwProtocol@plt
	sd	a0,-24(s0)
	.loc 1 180 34
	ld	a5,-24(s0)
	.loc 1 180 6
	blt	a5,zero,.L13
	.loc 1 187 15
	la	a5,gBS
	ld	a5,0(a5)
	ld	a5,128(a5)
	.loc 1 187 12
	ld	a4,-32(s0)
	addi	a0,a4,8
	.loc 1 191 19
	ld	a4,-32(s0)
	addi	a4,a4,16
	.loc 1 187 12
	mv	a3,a4
	li	a2,0
	la	a1,gEfiFaultTolerantWriteProtocolGuid
	jalr	a5
.LVL4:
	sd	a0,-24(s0)
	.loc 1 195 15
	la	a5,gBS
	ld	a5,0(a5)
	ld	a5,112(a5)
	.loc 1 195 12
	ld	a0,-56(s0)
	jalr	a5
.LVL5:
	sd	a0,-24(s0)
	.loc 1 198 3
	j	.L7
.L12:
	.loc 1 172 5
	nop
	j	.L7
.L13:
	.loc 1 181 5
	nop
.L7:
	.loc 1 199 1
	ld	ra,56(sp)
	.cfi_restore 1
	ld	s0,48(sp)
	.cfi_restore 8
	.cfi_def_cfa 2, 64
	addi	sp,sp,64
	.cfi_def_cfa_offset 0
	jr	ra
	.cfi_endproc
.LFE3:
	.size	FvbNotificationEvent, .-FvbNotificationEvent
	.section	.text.FaultTolerantWriteInitialize,"ax",@progbits
	.align	1
	.globl	FaultTolerantWriteInitialize
	.type	FaultTolerantWriteInitialize, @function
FaultTolerantWriteInitialize:
.LFB4:
	.loc 1 218 1
	.cfi_startproc
	addi	sp,sp,-48
	.cfi_def_cfa_offset 48
	sd	ra,40(sp)
	sd	s0,32(sp)
	.cfi_offset 1, -8
	.cfi_offset 8, -16
	addi	s0,sp,48
	.cfi_def_cfa 8, 0
	sd	a0,-40(s0)
	sd	a1,-48(s0)
	.loc 1 222 13
	sd	zero,-32(s0)
	.loc 1 227 12
	addi	a5,s0,-32
	mv	a0,a5
	call	InitFtwDevice@plt
	sd	a0,-24(s0)
	.loc 1 228 34
	ld	a5,-24(s0)
	.loc 1 228 6
	bge	a5,zero,.L15
	.loc 1 229 12
	ld	a5,-24(s0)
	j	.L17
.L15:
	.loc 1 235 3
	ld	a5,-32(s0)
	lla	a4,mFvbRegistration
	mv	a3,a5
	lla	a2,FvbNotificationEvent
	li	a1,8
	la	a0,gEfiFirmwareVolumeBlockProtocolGuid
	call	EfiCreateProtocolNotifyEvent@plt
	.loc 1 243 10
	li	a5,0
.L17:
	.loc 1 244 1
	mv	a0,a5
	ld	ra,40(sp)
	.cfi_restore 1
	ld	s0,32(sp)
	.cfi_restore 8
	.cfi_def_cfa 2, 48
	addi	sp,sp,48
	.cfi_def_cfa_offset 0
	jr	ra
	.cfi_endproc
.LFE4:
	.size	FaultTolerantWriteInitialize, .-FaultTolerantWriteInitialize
	.section	.text.FtwCalculateCrc32,"ax",@progbits
	.align	1
	.globl	FtwCalculateCrc32
	.type	FtwCalculateCrc32, @function
FtwCalculateCrc32:
.LFB5:
	.loc 1 266 1
	.cfi_startproc
	addi	sp,sp,-48
	.cfi_def_cfa_offset 48
	sd	ra,40(sp)
	sd	s0,32(sp)
	.cfi_offset 1, -8
	.cfi_offset 8, -16
	addi	s0,sp,48
	.cfi_def_cfa 8, 0
	sd	a0,-40(s0)
	sd	a1,-48(s0)
	.loc 1 270 15
	la	a5,gBS
	ld	a5,0(a5)
	ld	a5,344(a5)
	.loc 1 270 12
	addi	a4,s0,-28
	mv	a2,a4
	ld	a1,-48(s0)
	ld	a0,-40(s0)
	jalr	a5
.LVL6:
	sd	a0,-24(s0)
	.loc 1 273 10
	lw	a5,-28(s0)
	.loc 1 274 1
	mv	a0,a5
	ld	ra,40(sp)
	.cfi_restore 1
	ld	s0,32(sp)
	.cfi_restore 8
	.cfi_def_cfa 2, 48
	addi	sp,sp,48
	.cfi_def_cfa_offset 0
	jr	ra
	.cfi_endproc
.LFE5:
	.size	FtwCalculateCrc32, .-FtwCalculateCrc32
	.text
.Letext0:
	.file 2 "/home/kapoagaeming/Downloads/spacemit-image-builder/components/edk2/MdePkg/Include/RiscV64/ProcessorBind.h"
	.file 3 "/home/kapoagaeming/Downloads/spacemit-image-builder/components/edk2/MdePkg/Include/Base.h"
	.file 4 "/home/kapoagaeming/Downloads/spacemit-image-builder/components/edk2/MdePkg/Include/Uefi/UefiBaseType.h"
	.file 5 "/home/kapoagaeming/Downloads/spacemit-image-builder/components/edk2/MdePkg/Include/Uefi/UefiMultiPhase.h"
	.file 6 "/home/kapoagaeming/Downloads/spacemit-image-builder/components/edk2/MdePkg/Include/Protocol/DevicePath.h"
	.file 7 "/home/kapoagaeming/Downloads/spacemit-image-builder/components/edk2/MdePkg/Include/Protocol/SimpleTextIn.h"
	.file 8 "/home/kapoagaeming/Downloads/spacemit-image-builder/components/edk2/MdePkg/Include/Protocol/SimpleTextOut.h"
	.file 9 "/home/kapoagaeming/Downloads/spacemit-image-builder/components/edk2/MdePkg/Include/Uefi/UefiSpec.h"
	.file 10 "/home/kapoagaeming/Downloads/spacemit-image-builder/components/edk2/MdePkg/Include/Pi/PiFirmwareVolume.h"
	.file 11 "/home/kapoagaeming/Downloads/spacemit-image-builder/components/Build/Milk-V-Jupiter/RELEASE_GCC5/RISCV64/MdeModulePkg/Universal/FaultTolerantWriteDxe/FaultTolerantWriteDxe/DEBUG/AutoGen.h"
	.file 12 "/home/kapoagaeming/Downloads/spacemit-image-builder/components/edk2/MdeModulePkg/Include/Guid/SystemNvDataGuid.h"
	.file 13 "/home/kapoagaeming/Downloads/spacemit-image-builder/components/edk2/MdeModulePkg/Include/Protocol/FaultTolerantWrite.h"
	.file 14 "/home/kapoagaeming/Downloads/spacemit-image-builder/components/edk2/MdePkg/Include/Protocol/FirmwareVolumeBlock.h"
	.file 15 "/home/kapoagaeming/Downloads/spacemit-image-builder/components/edk2/MdeModulePkg/Universal/FaultTolerantWriteDxe/FaultTolerantWrite.h"
	.file 16 "/home/kapoagaeming/Downloads/spacemit-image-builder/components/edk2/MdePkg/Include/Library/UefiLib.h"
	.file 17 "/home/kapoagaeming/Downloads/spacemit-image-builder/components/edk2/MdePkg/Include/Library/UefiBootServicesTableLib.h"
	.section	.note.GNU-stack,"",@progbits
