	.file	"ResetSystem.c"
	.option pic
	.option norelax
	.attribute arch, "rv64i2p1_m2p0_a2p1_f2p2_d2p2_c2p0_zicsr2p0_zifencei2p0_zmmul1p0_zaamo1p0_zalrsc1p0_zca1p0_zcd1p0"
	.attribute unaligned_access, 0
	.attribute stack_align, 16
	.text
.Ltext0:
	.cfi_sections	.debug_frame
	.file 0 "/home/kapoagaeming/spacemit-image-builder/components/Build/Milk-V-Jupiter/RELEASE_GCC5/RISCV64/MdeModulePkg/Universal/ResetSystemRuntimeDxe/ResetSystemRuntimeDxe" "/home/kapoagaeming/spacemit-image-builder/components/edk2/MdeModulePkg/Universal/ResetSystemRuntimeDxe/ResetSystem.c"
	.globl	mResetTypeStr
	.section	.rodata
	.align	3
.LC0:
	.string	"C"
	.string	"o"
	.string	"l"
	.string	"d"
	.zero	2
	.align	3
.LC1:
	.string	"W"
	.string	"a"
	.string	"r"
	.string	"m"
	.zero	2
	.align	3
.LC2:
	.string	"S"
	.string	"h"
	.string	"u"
	.string	"t"
	.string	"d"
	.string	"o"
	.string	"w"
	.string	"n"
	.zero	2
	.align	3
.LC3:
	.string	"P"
	.string	"l"
	.string	"a"
	.string	"t"
	.string	"f"
	.string	"o"
	.string	"r"
	.string	"m"
	.string	"S"
	.string	"p"
	.string	"e"
	.string	"c"
	.string	"i"
	.string	"f"
	.string	"i"
	.string	"c"
	.zero	2
	.section	.data.rel.local.mResetTypeStr,"aw"
	.align	3
	.type	mResetTypeStr, @object
	.size	mResetTypeStr, 32
mResetTypeStr:
	.dword	.LC0
	.dword	.LC1
	.dword	.LC2
	.dword	.LC3
	.globl	mResetNotifyDepth
	.section	.bss.mResetNotifyDepth,"aw",@nobits
	.align	3
	.type	mResetNotifyDepth, @object
	.size	mResetNotifyDepth, 8
mResetNotifyDepth:
	.zero	8
	.section	.text.RegisterResetNotify,"ax",@progbits
	.align	1
	.globl	RegisterResetNotify
	.type	RegisterResetNotify, @function
RegisterResetNotify:
.LFB0:
	.file 1 "/home/kapoagaeming/spacemit-image-builder/components/edk2/MdeModulePkg/Universal/ResetSystemRuntimeDxe/ResetSystem.c"
	.loc 1 48 1
	.cfi_startproc
	addi	sp,sp,-64
	.cfi_def_cfa_offset 64
	sd	ra,56(sp)
	sd	s0,48(sp)
	.cfi_offset 1, -8
	.cfi_offset 8, -16
	addi	s0,sp,64
	.cfi_def_cfa 8, 0
	sd	a0,-56(s0)
	sd	a1,-64(s0)
	.loc 1 53 6
	ld	a5,-64(s0)
	bne	a5,zero,.L2
	.loc 1 54 12
	li	a5,-1
	slli	a5,a5,63
	addi	a5,a5,2
	j	.L3
.L2:
	.loc 1 57 16
	ld	a5,-56(s0)
	addi	a5,a5,-8
	.loc 1 57 155
	lw	a4,0(a5)
	.loc 1 57 240
	li	a5,1769238528
	addi	a5,a5,882
	bne	a4,a5,.L4
	.loc 1 57 12 discriminator 1
	ld	a5,-56(s0)
	addi	a5,a5,-8
	sd	a5,-24(s0)
	j	.L5
.L4:
	.loc 1 57 12 is_stmt 0 discriminator 2
	sd	zero,-24(s0)
.L5:
	.loc 1 59 30 is_stmt 1
	ld	a5,-24(s0)
	addi	a5,a5,24
	.loc 1 59 16
	mv	a0,a5
	call	GetFirstNode@plt
	sd	a0,-32(s0)
	.loc 1 59 3
	j	.L6
.L10:
	.loc 1 64 15
	ld	a5,-32(s0)
	addi	a5,a5,-8
	.loc 1 64 123
	lw	a4,0(a5)
	.loc 1 64 208
	li	a5,1853124608
	addi	a5,a5,882
	bne	a4,a5,.L7
	.loc 1 64 11 discriminator 1
	ld	a5,-32(s0)
	addi	a5,a5,-8
	sd	a5,-40(s0)
	j	.L8
.L7:
	.loc 1 64 11 is_stmt 0 discriminator 2
	sd	zero,-40(s0)
.L8:
	.loc 1 65 14 is_stmt 1
	ld	a5,-40(s0)
	ld	a5,24(a5)
	.loc 1 65 8
	ld	a4,-64(s0)
	bne	a4,a5,.L9
	.loc 1 66 14
	li	a5,-1
	slli	a5,a5,63
	addi	a5,a5,20
	j	.L3
.L9:
	.loc 1 61 31
	ld	a5,-24(s0)
	addi	a5,a5,24
	.loc 1 61 18
	ld	a1,-32(s0)
	mv	a0,a5
	call	GetNextNode@plt
	sd	a0,-32(s0)
.L6:
	.loc 1 60 20
	ld	a5,-24(s0)
	addi	a5,a5,24
	.loc 1 60 12
	ld	a1,-32(s0)
	mv	a0,a5
	call	IsNull@plt
	mv	a5,a0
	.loc 1 60 11 discriminator 1
	beq	a5,zero,.L10
	.loc 1 71 11
	li	a0,32
	call	AllocatePool@plt
	sd	a0,-40(s0)
	.loc 1 72 6
	ld	a5,-40(s0)
	bne	a5,zero,.L11
	.loc 1 73 12
	li	a5,-1
	slli	a5,a5,63
	addi	a5,a5,9
	j	.L3
.L11:
	.loc 1 76 20
	ld	a5,-40(s0)
	li	a4,1853124608
	addi	a4,a4,882
	sw	a4,0(a5)
	.loc 1 77 22
	ld	a5,-40(s0)
	ld	a4,-64(s0)
	sd	a4,24(a5)
	.loc 1 78 3
	ld	a5,-24(s0)
	addi	a4,a5,24
	ld	a5,-40(s0)
	addi	a5,a5,8
	mv	a1,a5
	mv	a0,a4
	call	InsertTailList@plt
	.loc 1 79 10
	li	a5,0
.L3:
	.loc 1 80 1
	mv	a0,a5
	ld	ra,56(sp)
	.cfi_restore 1
	ld	s0,48(sp)
	.cfi_restore 8
	.cfi_def_cfa 2, 64
	addi	sp,sp,64
	.cfi_def_cfa_offset 0
	jr	ra
	.cfi_endproc
.LFE0:
	.size	RegisterResetNotify, .-RegisterResetNotify
	.section	.text.UnregisterResetNotify,"ax",@progbits
	.align	1
	.globl	UnregisterResetNotify
	.type	UnregisterResetNotify, @function
UnregisterResetNotify:
.LFB1:
	.loc 1 103 1
	.cfi_startproc
	addi	sp,sp,-64
	.cfi_def_cfa_offset 64
	sd	ra,56(sp)
	sd	s0,48(sp)
	.cfi_offset 1, -8
	.cfi_offset 8, -16
	addi	s0,sp,64
	.cfi_def_cfa 8, 0
	sd	a0,-56(s0)
	sd	a1,-64(s0)
	.loc 1 108 6
	ld	a5,-64(s0)
	bne	a5,zero,.L13
	.loc 1 109 12
	li	a5,-1
	slli	a5,a5,63
	addi	a5,a5,2
	j	.L14
.L13:
	.loc 1 112 16
	ld	a5,-56(s0)
	addi	a5,a5,-8
	.loc 1 112 155
	lw	a4,0(a5)
	.loc 1 112 240
	li	a5,1769238528
	addi	a5,a5,882
	bne	a4,a5,.L15
	.loc 1 112 12 discriminator 1
	ld	a5,-56(s0)
	addi	a5,a5,-8
	sd	a5,-24(s0)
	j	.L16
.L15:
	.loc 1 112 12 is_stmt 0 discriminator 2
	sd	zero,-24(s0)
.L16:
	.loc 1 114 30 is_stmt 1
	ld	a5,-24(s0)
	addi	a5,a5,24
	.loc 1 114 16
	mv	a0,a5
	call	GetFirstNode@plt
	sd	a0,-32(s0)
	.loc 1 114 3
	j	.L17
.L21:
	.loc 1 119 15
	ld	a5,-32(s0)
	addi	a5,a5,-8
	.loc 1 119 123
	lw	a4,0(a5)
	.loc 1 119 208
	li	a5,1853124608
	addi	a5,a5,882
	bne	a4,a5,.L18
	.loc 1 119 11 discriminator 1
	ld	a5,-32(s0)
	addi	a5,a5,-8
	sd	a5,-40(s0)
	j	.L19
.L18:
	.loc 1 119 11 is_stmt 0 discriminator 2
	sd	zero,-40(s0)
.L19:
	.loc 1 120 14 is_stmt 1
	ld	a5,-40(s0)
	ld	a5,24(a5)
	.loc 1 120 8
	ld	a4,-64(s0)
	bne	a4,a5,.L20
	.loc 1 121 24
	ld	a5,-40(s0)
	addi	a5,a5,8
	.loc 1 121 7
	mv	a0,a5
	call	RemoveEntryList@plt
	.loc 1 122 7
	ld	a0,-40(s0)
	call	FreePool@plt
	.loc 1 123 14
	li	a5,0
	j	.L14
.L20:
	.loc 1 116 31
	ld	a5,-24(s0)
	addi	a5,a5,24
	.loc 1 116 18
	ld	a1,-32(s0)
	mv	a0,a5
	call	GetNextNode@plt
	sd	a0,-32(s0)
.L17:
	.loc 1 115 20
	ld	a5,-24(s0)
	addi	a5,a5,24
	.loc 1 115 12
	ld	a1,-32(s0)
	mv	a0,a5
	call	IsNull@plt
	mv	a5,a0
	.loc 1 115 11 discriminator 1
	beq	a5,zero,.L21
	.loc 1 127 10
	li	a5,-1
	slli	a5,a5,63
	addi	a5,a5,2
.L14:
	.loc 1 128 1
	mv	a0,a5
	ld	ra,56(sp)
	.cfi_restore 1
	ld	s0,48(sp)
	.cfi_restore 8
	.cfi_def_cfa 2, 64
	addi	sp,sp,64
	.cfi_def_cfa_offset 0
	jr	ra
	.cfi_endproc
.LFE1:
	.size	UnregisterResetNotify, .-UnregisterResetNotify
	.globl	mResetNotification
	.section	.data.rel.local.mResetNotification,"aw"
	.align	3
	.type	mResetNotification, @object
	.size	mResetNotification, 40
mResetNotification:
	.word	1769239410
	.zero	4
	.dword	RegisterResetNotify
	.dword	UnregisterResetNotify
	.dword	mResetNotification+24
	.dword	mResetNotification+24
	.globl	mPlatformSpecificResetFilter
	.section	.data.rel.local.mPlatformSpecificResetFilter,"aw"
	.align	3
	.type	mPlatformSpecificResetFilter, @object
	.size	mPlatformSpecificResetFilter, 40
mPlatformSpecificResetFilter:
	.word	1769239410
	.zero	4
	.dword	RegisterResetNotify
	.dword	UnregisterResetNotify
	.dword	mPlatformSpecificResetFilter+24
	.dword	mPlatformSpecificResetFilter+24
	.globl	mPlatformSpecificResetHandler
	.section	.data.rel.local.mPlatformSpecificResetHandler,"aw"
	.align	3
	.type	mPlatformSpecificResetHandler, @object
	.size	mPlatformSpecificResetHandler, 40
mPlatformSpecificResetHandler:
	.word	1769239410
	.zero	4
	.dword	RegisterResetNotify
	.dword	UnregisterResetNotify
	.dword	mPlatformSpecificResetHandler+24
	.dword	mPlatformSpecificResetHandler+24
	.section	.text.InitializeResetSystem,"ax",@progbits
	.align	1
	.globl	InitializeResetSystem
	.type	InitializeResetSystem, @function
InitializeResetSystem:
.LFB2:
	.loc 1 175 1
	.cfi_startproc
	addi	sp,sp,-64
	.cfi_def_cfa_offset 64
	sd	ra,56(sp)
	sd	s0,48(sp)
	.cfi_offset 1, -8
	.cfi_offset 8, -16
	addi	s0,sp,64
	.cfi_def_cfa 8, 0
	sd	a0,-40(s0)
	sd	a1,-48(s0)
	.loc 1 187 6
	la	a5,gRT
	ld	a5,0(a5)
	.loc 1 187 20
	lla	a4,RuntimeServiceResetSystem
	sd	a4,104(a5)
	.loc 1 192 10
	sd	zero,-32(s0)
	.loc 1 193 15
	la	a5,gBS
	ld	a5,0(a5)
	ld	t1,328(a5)
	.loc 1 193 12
	addi	a0,s0,-32
	sd	zero,8(sp)
	lla	a5,mPlatformSpecificResetHandler+8
	sd	a5,0(sp)
	la	a7,gEdkiiPlatformSpecificResetHandlerProtocolGuid
	lla	a6,mPlatformSpecificResetFilter+8
	la	a5,gEdkiiPlatformSpecificResetFilterProtocolGuid
	lla	a4,mResetNotification+8
	la	a3,gEfiResetNotificationProtocolGuid
	li	a2,0
	la	a1,gEfiResetArchProtocolGuid
	jalr	t1
.LVL0:
	sd	a0,-24(s0)
	.loc 1 207 10
	ld	a5,-24(s0)
	.loc 1 208 1
	mv	a0,a5
	ld	ra,56(sp)
	.cfi_restore 1
	ld	s0,48(sp)
	.cfi_restore 8
	.cfi_def_cfa 2, 64
	addi	sp,sp,64
	.cfi_def_cfa_offset 0
	jr	ra
	.cfi_endproc
.LFE2:
	.size	InitializeResetSystem, .-InitializeResetSystem
	.section	.text.RuntimeServiceResetSystem,"ax",@progbits
	.align	1
	.globl	RuntimeServiceResetSystem
	.type	RuntimeServiceResetSystem, @function
RuntimeServiceResetSystem:
.LFB3:
	.loc 1 233 1
	.cfi_startproc
	addi	sp,sp,-64
	.cfi_def_cfa_offset 64
	sd	ra,56(sp)
	sd	s0,48(sp)
	.cfi_offset 1, -8
	.cfi_offset 8, -16
	addi	s0,sp,64
	.cfi_def_cfa 8, 0
	mv	a5,a0
	sd	a1,-48(s0)
	sd	a2,-56(s0)
	sd	a3,-64(s0)
	sw	a5,-36(s0)
	.loc 1 240 25
	lla	a5,mResetNotifyDepth
	ld	a5,0(a5)
	.loc 1 240 6
	bne	a5,zero,.L25
	.loc 1 244 6
	call	ReportProgressCodeEnabled@plt
	mv	a5,a0
	.loc 1 244 163 discriminator 1
	beq	a5,zero,.L26
	.loc 1 244 82 discriminator 4
	li	a5,51449856
	addi	a1,a5,10
	li	a0,1
	call	ReportStatusCode@plt
	.loc 1 244 163
	j	.L25
.L26:
	.loc 1 244 166 discriminator 5
	call	ReportErrorCodeEnabled@plt
	.loc 1 244 323 discriminator 9
	call	ReportDebugCodeEnabled@plt
.L25:
	.loc 1 247 20
	lla	a5,mResetNotifyDepth
	ld	a5,0(a5)
	addi	a4,a5,1
	lla	a5,mResetNotifyDepth
	sd	a4,0(a5)
	.loc 1 263 25
	lla	a5,mResetNotifyDepth
	ld	a4,0(a5)
	.loc 1 263 6
	li	a5,10
	bgtu	a4,a5,.L27
	.loc 1 264 10
	call	EfiAtRuntime@plt
	mv	a5,a0
	.loc 1 264 8 discriminator 1
	bne	a5,zero,.L27
	.loc 1 269 20
	lla	a0,mPlatformSpecificResetFilter+24
	call	GetFirstNode@plt
	sd	a0,-32(s0)
	.loc 1 269 7
	j	.L28
.L31:
	.loc 1 274 19
	ld	a5,-32(s0)
	addi	a5,a5,-8
	.loc 1 274 127
	lw	a4,0(a5)
	.loc 1 274 212
	li	a5,1853124608
	addi	a5,a5,882
	bne	a4,a5,.L29
	.loc 1 274 15 discriminator 1
	ld	a5,-32(s0)
	addi	a5,a5,-8
	sd	a5,-24(s0)
	j	.L30
.L29:
	.loc 1 274 15 is_stmt 0 discriminator 2
	sd	zero,-24(s0)
.L30:
	.loc 1 275 14 is_stmt 1
	ld	a5,-24(s0)
	ld	a5,24(a5)
	.loc 1 275 9
	lw	a4,-36(s0)
	ld	a3,-64(s0)
	ld	a2,-56(s0)
	ld	a1,-48(s0)
	mv	a0,a4
	jalr	a5
.LVL1:
	.loc 1 271 22
	ld	a1,-32(s0)
	lla	a0,mPlatformSpecificResetFilter+24
	call	GetNextNode@plt
	sd	a0,-32(s0)
.L28:
	.loc 1 270 16
	ld	a1,-32(s0)
	lla	a0,mPlatformSpecificResetFilter+24
	call	IsNull@plt
	mv	a5,a0
	.loc 1 270 15 discriminator 1
	beq	a5,zero,.L31
	.loc 1 282 20
	lla	a0,mResetNotification+24
	call	GetFirstNode@plt
	sd	a0,-32(s0)
	.loc 1 282 7
	j	.L32
.L35:
	.loc 1 287 19
	ld	a5,-32(s0)
	addi	a5,a5,-8
	.loc 1 287 127
	lw	a4,0(a5)
	.loc 1 287 212
	li	a5,1853124608
	addi	a5,a5,882
	bne	a4,a5,.L33
	.loc 1 287 15 discriminator 1
	ld	a5,-32(s0)
	addi	a5,a5,-8
	sd	a5,-24(s0)
	j	.L34
.L33:
	.loc 1 287 15 is_stmt 0 discriminator 2
	sd	zero,-24(s0)
.L34:
	.loc 1 288 14 is_stmt 1
	ld	a5,-24(s0)
	ld	a5,24(a5)
	.loc 1 288 9
	lw	a4,-36(s0)
	ld	a3,-64(s0)
	ld	a2,-56(s0)
	ld	a1,-48(s0)
	mv	a0,a4
	jalr	a5
.LVL2:
	.loc 1 284 22
	ld	a1,-32(s0)
	lla	a0,mResetNotification+24
	call	GetNextNode@plt
	sd	a0,-32(s0)
.L32:
	.loc 1 283 16
	ld	a1,-32(s0)
	lla	a0,mResetNotification+24
	call	IsNull@plt
	mv	a5,a0
	.loc 1 283 15 discriminator 1
	beq	a5,zero,.L35
	.loc 1 295 20
	lla	a0,mPlatformSpecificResetHandler+24
	call	GetFirstNode@plt
	sd	a0,-32(s0)
	.loc 1 295 7
	j	.L36
.L39:
	.loc 1 300 19
	ld	a5,-32(s0)
	addi	a5,a5,-8
	.loc 1 300 127
	lw	a4,0(a5)
	.loc 1 300 212
	li	a5,1853124608
	addi	a5,a5,882
	bne	a4,a5,.L37
	.loc 1 300 15 discriminator 1
	ld	a5,-32(s0)
	addi	a5,a5,-8
	sd	a5,-24(s0)
	j	.L38
.L37:
	.loc 1 300 15 is_stmt 0 discriminator 2
	sd	zero,-24(s0)
.L38:
	.loc 1 301 14 is_stmt 1
	ld	a5,-24(s0)
	ld	a5,24(a5)
	.loc 1 301 9
	lw	a4,-36(s0)
	ld	a3,-64(s0)
	ld	a2,-56(s0)
	ld	a1,-48(s0)
	mv	a0,a4
	jalr	a5
.LVL3:
	.loc 1 297 22
	ld	a1,-32(s0)
	lla	a0,mPlatformSpecificResetHandler+24
	call	GetNextNode@plt
	sd	a0,-32(s0)
.L36:
	.loc 1 296 16
	ld	a1,-32(s0)
	lla	a0,mPlatformSpecificResetHandler+24
	call	IsNull@plt
	mv	a5,a0
	.loc 1 296 15 discriminator 1
	beq	a5,zero,.L39
.L27:
	.loc 1 309 3
	lw	a5,-36(s0)
	sext.w	a4,a5
	li	a5,3
	beq	a4,a5,.L40
	lw	a5,-36(s0)
	sext.w	a4,a5
	li	a5,3
	bgtu	a4,a5,.L45
	lw	a5,-36(s0)
	sext.w	a4,a5
	li	a5,2
	beq	a4,a5,.L42
	lw	a5,-36(s0)
	sext.w	a4,a5
	li	a5,2
	bgtu	a4,a5,.L45
	lw	a5,-36(s0)
	sext.w	a5,a5
	beq	a5,zero,.L43
	lw	a5,-36(s0)
	sext.w	a4,a5
	li	a5,1
	bne	a4,a5,.L45
	.loc 1 312 7
	call	ResetWarm@plt
	.loc 1 313 7
	j	.L24
.L43:
	.loc 1 316 7
	call	ResetCold@plt
	.loc 1 317 7
	j	.L24
.L42:
	.loc 1 320 7
	call	ResetShutdown@plt
	.loc 1 321 7
	j	.L24
.L40:
	.loc 1 324 7
	ld	a1,-64(s0)
	ld	a0,-56(s0)
	call	ResetPlatformSpecific@plt
	.loc 1 325 7
	j	.L24
.L45:
	.loc 1 328 7
	nop
.L24:
	.loc 1 335 1
	ld	ra,56(sp)
	.cfi_restore 1
	ld	s0,48(sp)
	.cfi_restore 8
	.cfi_def_cfa 2, 64
	addi	sp,sp,64
	.cfi_def_cfa_offset 0
	jr	ra
	.cfi_endproc
.LFE3:
	.size	RuntimeServiceResetSystem, .-RuntimeServiceResetSystem
	.text
.Letext0:
	.file 2 "/home/kapoagaeming/spacemit-image-builder/components/edk2/MdePkg/Include/RiscV64/ProcessorBind.h"
	.file 3 "/home/kapoagaeming/spacemit-image-builder/components/edk2/MdePkg/Include/Base.h"
	.file 4 "/home/kapoagaeming/spacemit-image-builder/components/edk2/MdePkg/Include/Uefi/UefiBaseType.h"
	.file 5 "/home/kapoagaeming/spacemit-image-builder/components/edk2/MdePkg/Include/Uefi/UefiMultiPhase.h"
	.file 6 "/home/kapoagaeming/spacemit-image-builder/components/edk2/MdePkg/Include/Protocol/DevicePath.h"
	.file 7 "/home/kapoagaeming/spacemit-image-builder/components/edk2/MdePkg/Include/Protocol/SimpleTextIn.h"
	.file 8 "/home/kapoagaeming/spacemit-image-builder/components/edk2/MdePkg/Include/Protocol/SimpleTextOut.h"
	.file 9 "/home/kapoagaeming/spacemit-image-builder/components/edk2/MdePkg/Include/Uefi/UefiSpec.h"
	.file 10 "/home/kapoagaeming/spacemit-image-builder/components/edk2/MdePkg/Include/Pi/PiStatusCode.h"
	.file 11 "/home/kapoagaeming/spacemit-image-builder/components/Build/Milk-V-Jupiter/RELEASE_GCC5/RISCV64/MdeModulePkg/Universal/ResetSystemRuntimeDxe/ResetSystemRuntimeDxe/DEBUG/AutoGen.h"
	.file 12 "/home/kapoagaeming/spacemit-image-builder/components/edk2/MdePkg/Include/Protocol/ResetNotification.h"
	.file 13 "/home/kapoagaeming/spacemit-image-builder/components/edk2/MdePkg/Include/Library/UefiBootServicesTableLib.h"
	.file 14 "/home/kapoagaeming/spacemit-image-builder/components/edk2/MdePkg/Include/Library/UefiRuntimeServicesTableLib.h"
	.file 15 "/home/kapoagaeming/spacemit-image-builder/components/edk2/MdeModulePkg/Universal/ResetSystemRuntimeDxe/ResetSystem.h"
	.file 16 "/home/kapoagaeming/spacemit-image-builder/components/edk2/MdeModulePkg/Include/Library/ResetSystemLib.h"
	.file 17 "/home/kapoagaeming/spacemit-image-builder/components/edk2/MdePkg/Include/Library/UefiRuntimeLib.h"
	.file 18 "/home/kapoagaeming/spacemit-image-builder/components/edk2/MdePkg/Include/Library/ReportStatusCodeLib.h"
	.file 19 "/home/kapoagaeming/spacemit-image-builder/components/edk2/MdePkg/Include/Library/MemoryAllocationLib.h"
	.file 20 "/home/kapoagaeming/spacemit-image-builder/components/edk2/MdePkg/Include/Library/BaseLib.h"
	.section	.note.GNU-stack,"",@progbits
