	.file	"ComponentName.c"
	.option pic
	.option norelax
	.attribute arch, "rv64i2p1_m2p0_a2p1_f2p2_d2p2_c2p0_zicsr2p0_zifencei2p0_zmmul1p0_zaamo1p0_zalrsc1p0_zca1p0_zcd1p0"
	.attribute unaligned_access, 0
	.attribute stack_align, 16
	.text
.Ltext0:
	.cfi_sections	.debug_frame
	.file 0 "/home/kapoagaeming/Downloads/spacemit-image-builder/components/Build/Milk-V-Jupiter/RELEASE_GCC5/RISCV64/MdeModulePkg/Bus/Usb/UsbKbDxe/UsbKbDxe" "/home/kapoagaeming/Downloads/spacemit-image-builder/components/edk2/MdeModulePkg/Bus/Usb/UsbKbDxe/ComponentName.c"
	.globl	gUsbKeyboardComponentName
	.section	.rodata
	.align	3
.LC0:
	.string	"eng"
	.section	.data.rel.local.gUsbKeyboardComponentName,"aw"
	.align	3
	.type	gUsbKeyboardComponentName, @object
	.size	gUsbKeyboardComponentName, 24
gUsbKeyboardComponentName:
	.dword	UsbKeyboardComponentNameGetDriverName
	.dword	UsbKeyboardComponentNameGetControllerName
	.dword	.LC0
	.globl	gUsbKeyboardComponentName2
	.section	.rodata
	.align	3
.LC1:
	.string	"en"
	.section	.data.rel.local.gUsbKeyboardComponentName2,"aw"
	.align	3
	.type	gUsbKeyboardComponentName2, @object
	.size	gUsbKeyboardComponentName2, 24
gUsbKeyboardComponentName2:
	.dword	UsbKeyboardComponentNameGetDriverName
	.dword	UsbKeyboardComponentNameGetControllerName
	.dword	.LC1
	.globl	mUsbKeyboardDriverNameTable
	.section	.rodata
	.align	3
.LC2:
	.string	"eng;en"
	.align	3
.LC3:
	.string	"U"
	.string	"s"
	.string	"b"
	.string	" "
	.string	"K"
	.string	"e"
	.string	"y"
	.string	"b"
	.string	"o"
	.string	"a"
	.string	"r"
	.string	"d"
	.string	" "
	.string	"D"
	.string	"r"
	.string	"i"
	.string	"v"
	.string	"e"
	.string	"r"
	.zero	2
	.section	.data.rel.local.mUsbKeyboardDriverNameTable,"aw"
	.align	3
	.type	mUsbKeyboardDriverNameTable, @object
	.size	mUsbKeyboardDriverNameTable, 32
mUsbKeyboardDriverNameTable:
	.dword	.LC2
	.dword	.LC3
	.dword	0
	.dword	0
	.section	.text.UsbKeyboardComponentNameGetDriverName,"ax",@progbits
	.align	1
	.globl	UsbKeyboardComponentNameGetDriverName
	.type	UsbKeyboardComponentNameGetDriverName, @function
UsbKeyboardComponentNameGetDriverName:
.LFB0:
	.file 1 "/home/kapoagaeming/Downloads/spacemit-image-builder/components/edk2/MdeModulePkg/Bus/Usb/UsbKbDxe/ComponentName.c"
	.loc 1 75 1
	.cfi_startproc
	addi	sp,sp,-48
	.cfi_def_cfa_offset 48
	sd	ra,40(sp)
	sd	s0,32(sp)
	.cfi_offset 1, -8
	.cfi_offset 8, -16
	addi	s0,sp,48
	.cfi_def_cfa 8, 0
	sd	a0,-24(s0)
	sd	a1,-32(s0)
	sd	a2,-40(s0)
	.loc 1 78 16
	ld	a5,-24(s0)
	ld	a1,16(a5)
	.loc 1 81 12
	ld	a4,-24(s0)
	lla	a5,gUsbKeyboardComponentName
	sub	a5,a4,a5
	seqz	a5,a5
	andi	a5,a5,0xff
	.loc 1 76 10
	mv	a4,a5
	ld	a3,-40(s0)
	lla	a2,mUsbKeyboardDriverNameTable
	ld	a0,-32(s0)
	call	LookupUnicodeString2@plt
	mv	a5,a0
	.loc 1 83 1
	mv	a0,a5
	ld	ra,40(sp)
	.cfi_restore 1
	ld	s0,32(sp)
	.cfi_restore 8
	.cfi_def_cfa 2, 48
	addi	sp,sp,48
	.cfi_def_cfa_offset 0
	jr	ra
	.cfi_endproc
.LFE0:
	.size	UsbKeyboardComponentNameGetDriverName, .-UsbKeyboardComponentNameGetDriverName
	.section	.text.UsbKeyboardComponentNameGetControllerName,"ax",@progbits
	.align	1
	.globl	UsbKeyboardComponentNameGetControllerName
	.type	UsbKeyboardComponentNameGetControllerName, @function
UsbKeyboardComponentNameGetControllerName:
.LFB1:
	.loc 1 152 1
	.cfi_startproc
	addi	sp,sp,-96
	.cfi_def_cfa_offset 96
	sd	ra,88(sp)
	sd	s0,80(sp)
	.cfi_offset 1, -8
	.cfi_offset 8, -16
	addi	s0,sp,96
	.cfi_def_cfa 8, 0
	sd	a0,-56(s0)
	sd	a1,-64(s0)
	sd	a2,-72(s0)
	sd	a3,-80(s0)
	sd	a4,-88(s0)
	.loc 1 161 6
	ld	a5,-72(s0)
	beq	a5,zero,.L4
	.loc 1 162 12
	li	a5,-1
	slli	a5,a5,63
	addi	a5,a5,3
	j	.L11
.L4:
	.loc 1 168 15
	la	a5,gBS
	ld	a5,0(a5)
	ld	a6,280(a5)
	.loc 1 168 12
	la	a5,gUsbKeyboardDriverBinding
	ld	a3,40(a5)
	addi	a2,s0,-48
	li	a5,16
	ld	a4,-64(s0)
	la	a1,gEfiUsbIoProtocolGuid
	ld	a0,-64(s0)
	jalr	a6
.LVL0:
	sd	a0,-32(s0)
	.loc 1 176 7
	ld	a5,-32(s0)
	.loc 1 176 6
	blt	a5,zero,.L6
	.loc 1 177 8
	la	a5,gBS
	ld	a5,0(a5)
	ld	a5,288(a5)
	.loc 1 177 5
	la	a4,gUsbKeyboardDriverBinding
	ld	a4,40(a4)
	ld	a3,-64(s0)
	mv	a2,a4
	la	a1,gEfiUsbIoProtocolGuid
	ld	a0,-64(s0)
	jalr	a5
.LVL1:
	.loc 1 184 12
	li	a5,-1
	slli	a5,a5,63
	addi	a5,a5,3
	j	.L11
.L6:
	.loc 1 187 6
	ld	a4,-32(s0)
	li	a5,-1
	slli	a5,a5,63
	addi	a5,a5,20
	beq	a4,a5,.L7
	.loc 1 188 12
	li	a5,-1
	slli	a5,a5,63
	addi	a5,a5,3
	j	.L11
.L7:
	.loc 1 194 15
	la	a5,gBS
	ld	a5,0(a5)
	ld	a6,280(a5)
	.loc 1 194 12
	la	a5,gUsbKeyboardDriverBinding
	ld	a3,40(a5)
	addi	a2,s0,-40
	li	a5,2
	ld	a4,-64(s0)
	la	a1,gEfiSimpleTextInProtocolGuid
	ld	a0,-64(s0)
	jalr	a6
.LVL2:
	sd	a0,-32(s0)
	.loc 1 203 34
	ld	a5,-32(s0)
	.loc 1 203 6
	bge	a5,zero,.L8
	.loc 1 204 12
	ld	a5,-32(s0)
	j	.L11
.L8:
	.loc 1 207 31
	ld	a5,-40(s0)
	.loc 1 207 16
	addi	a5,a5,-32
	.loc 1 207 122
	ld	a4,0(a5)
	.loc 1 207 207
	li	a5,1684172800
	addi	a5,a5,-1163
	bne	a4,a5,.L9
	.loc 1 207 225 discriminator 1
	ld	a5,-40(s0)
	.loc 1 207 12 discriminator 1
	addi	a5,a5,-32
	sd	a5,-24(s0)
	j	.L10
.L9:
	.loc 1 207 12 is_stmt 0 discriminator 2
	sd	zero,-24(s0)
.L10:
	.loc 1 211 16 is_stmt 1
	ld	a5,-56(s0)
	ld	a1,16(a5)
	.loc 1 212 20
	ld	a5,-24(s0)
	ld	a2,1032(a5)
	.loc 1 214 12
	ld	a4,-56(s0)
	lla	a5,gUsbKeyboardComponentName
	sub	a5,a4,a5
	seqz	a5,a5
	andi	a5,a5,0xff
	.loc 1 209 10
	mv	a4,a5
	ld	a3,-88(s0)
	ld	a0,-80(s0)
	call	LookupUnicodeString2@plt
	mv	a5,a0
.L11:
	.loc 1 216 1
	mv	a0,a5
	ld	ra,88(sp)
	.cfi_restore 1
	ld	s0,80(sp)
	.cfi_restore 8
	.cfi_def_cfa 2, 96
	addi	sp,sp,96
	.cfi_def_cfa_offset 0
	jr	ra
	.cfi_endproc
.LFE1:
	.size	UsbKeyboardComponentNameGetControllerName, .-UsbKeyboardComponentNameGetControllerName
	.text
.Letext0:
	.file 2 "/home/kapoagaeming/Downloads/spacemit-image-builder/components/edk2/MdePkg/Include/RiscV64/ProcessorBind.h"
	.file 3 "/home/kapoagaeming/Downloads/spacemit-image-builder/components/edk2/MdePkg/Include/Base.h"
	.file 4 "/home/kapoagaeming/Downloads/spacemit-image-builder/components/edk2/MdePkg/Include/Uefi/UefiBaseType.h"
	.file 5 "/home/kapoagaeming/Downloads/spacemit-image-builder/components/edk2/MdePkg/Include/Uefi/UefiMultiPhase.h"
	.file 6 "/home/kapoagaeming/Downloads/spacemit-image-builder/components/edk2/MdePkg/Include/Protocol/DevicePath.h"
	.file 7 "/home/kapoagaeming/Downloads/spacemit-image-builder/components/edk2/MdePkg/Include/Protocol/SimpleTextIn.h"
	.file 8 "/home/kapoagaeming/Downloads/spacemit-image-builder/components/edk2/MdePkg/Include/Protocol/SimpleTextInEx.h"
	.file 9 "/home/kapoagaeming/Downloads/spacemit-image-builder/components/edk2/MdePkg/Include/Uefi/UefiSpec.h"
	.file 10 "/home/kapoagaeming/Downloads/spacemit-image-builder/components/edk2/MdePkg/Include/Uefi/UefiInternalFormRepresentation.h"
	.file 11 "/home/kapoagaeming/Downloads/spacemit-image-builder/components/Build/Milk-V-Jupiter/RELEASE_GCC5/RISCV64/MdeModulePkg/Bus/Usb/UsbKbDxe/UsbKbDxe/DEBUG/AutoGen.h"
	.file 12 "/home/kapoagaeming/Downloads/spacemit-image-builder/components/edk2/MdePkg/Include/IndustryStandard/Usb.h"
	.file 13 "/home/kapoagaeming/Downloads/spacemit-image-builder/components/edk2/MdePkg/Include/Protocol/UsbIo.h"
	.file 14 "/home/kapoagaeming/Downloads/spacemit-image-builder/components/edk2/MdePkg/Include/Protocol/DriverBinding.h"
	.file 15 "/home/kapoagaeming/Downloads/spacemit-image-builder/components/edk2/MdePkg/Include/Protocol/ComponentName.h"
	.file 16 "/home/kapoagaeming/Downloads/spacemit-image-builder/components/edk2/MdePkg/Include/Protocol/ComponentName2.h"
	.file 17 "/home/kapoagaeming/Downloads/spacemit-image-builder/components/edk2/MdePkg/Include/Library/UefiLib.h"
	.file 18 "/home/kapoagaeming/Downloads/spacemit-image-builder/components/edk2/MdeModulePkg/Bus/Usb/UsbKbDxe/EfiKey.h"
	.file 19 "/home/kapoagaeming/Downloads/spacemit-image-builder/components/edk2/MdePkg/Include/Library/UefiBootServicesTableLib.h"
	.section	.note.GNU-stack,"",@progbits
