	.file	"NvmExpressMediaSanitize.c"
	.option pic
	.option norelax
	.attribute arch, "rv64i2p1_m2p0_a2p1_f2p2_d2p2_c2p0_zicsr2p0_zifencei2p0_zmmul1p0_zaamo1p0_zalrsc1p0_zca1p0_zcd1p0"
	.attribute unaligned_access, 0
	.attribute stack_align, 16
	.text
.Ltext0:
	.cfi_sections	.debug_frame
	.file 0 "/home/kapoagaeming/spacemit-image-builder/components/Build/Milk-V-Jupiter/RELEASE_GCC5/RISCV64/MdeModulePkg/Bus/Pci/NvmExpressDxe/NvmExpressDxe" "/home/kapoagaeming/spacemit-image-builder/components/edk2/MdeModulePkg/Bus/Pci/NvmExpressDxe/NvmExpressMediaSanitize.c"
	.section	.text.NvmExpressFormatNvm,"ax",@progbits
	.align	1
	.globl	NvmExpressFormatNvm
	.type	NvmExpressFormatNvm, @function
NvmExpressFormatNvm:
.LFB0:
	.file 1 "/home/kapoagaeming/spacemit-image-builder/components/edk2/MdeModulePkg/Bus/Pci/NvmExpressDxe/NvmExpressMediaSanitize.c"
	.loc 1 58 1
	.cfi_startproc
	addi	sp,sp,-240
	.cfi_def_cfa_offset 240
	sd	ra,232(sp)
	sd	s0,224(sp)
	.cfi_offset 1, -8
	.cfi_offset 8, -16
	addi	s0,sp,240
	.cfi_def_cfa 8, 0
	sd	a0,-216(s0)
	mv	a5,a1
	mv	a4,a3
	sw	a5,-220(s0)
	mv	a5,a2
	sw	a5,-224(s0)
	mv	a5,a4
	sw	a5,-228(s0)
	.loc 1 74 10
	li	a5,-1
	slli	a5,a5,63
	addi	a5,a5,19
	sd	a5,-40(s0)
	.loc 1 75 13
	sw	zero,-20(s0)
	.loc 1 76 14
	ld	a5,-216(s0)
	addi	a5,a5,-112
	.loc 1 76 137
	lw	a4,0(a5)
	.loc 1 76 222
	li	a5,1146310656
	addi	a5,a5,856
	bne	a4,a5,.L2
	.loc 1 76 10 discriminator 1
	ld	a5,-216(s0)
	addi	a5,a5,-112
	sd	a5,-32(s0)
	j	.L3
.L2:
	.loc 1 76 10 is_stmt 0 discriminator 2
	sd	zero,-32(s0)
.L3:
	.loc 1 78 3 is_stmt 1
	addi	a5,s0,-128
	li	a1,56
	mv	a0,a5
	call	ZeroMem@plt
	.loc 1 79 3
	addi	a5,s0,-176
	li	a1,44
	mv	a0,a5
	call	ZeroMem@plt
	.loc 1 80 3
	addi	a5,s0,-192
	li	a1,16
	mv	a0,a5
	call	ZeroMem@plt
	.loc 1 81 3
	addi	a5,s0,-200
	li	a1,4
	mv	a0,a5
	call	ZeroMem@plt
	.loc 1 83 20
	sd	zero,-48(s0)
	.loc 1 84 9
	sw	zero,-52(s0)
	.loc 1 85 12
	sw	zero,-56(s0)
	.loc 1 86 13
	sw	zero,-60(s0)
	.loc 1 87 15
	sh	zero,-62(s0)
	.loc 1 88 7
	sh	zero,-64(s0)
	.loc 1 89 6
	sh	zero,-66(s0)
	.loc 1 91 25
	addi	a5,s0,-176
	sd	a5,-88(s0)
	.loc 1 92 32
	addi	a5,s0,-192
	sd	a5,-80(s0)
	.loc 1 93 34
	li	a5,9998336
	addi	a1,a5,1664
	li	a0,5
	call	MultU64x32@plt
	mv	a5,a0
	.loc 1 93 32 discriminator 1
	sd	a5,-128(s0)
	.loc 1 94 27
	sb	zero,-92(s0)
	.loc 1 95 23
	li	a5,-128
	sb	a5,-176(s0)
	.loc 1 96 16
	lw	a5,-220(s0)
	sw	a5,-168(s0)
	.loc 1 101 22
	lw	a5,-224(s0)
	andi	a5,a5,7
	andi	a5,a5,0xff
	andi	a5,a5,7
	slliw	a5,a5,9
	mv	a4,a5
	lw	a5,-200(s0)
	mv	a3,a5
	li	a5,-4096
	addi	a5,a5,511
	and	a5,a3,a5
	or	a5,a5,a4
	sw	a5,-200(s0)
	.loc 1 108 57
	lw	a5,-228(s0)
	sext.w	a5,a5
	bne	a5,zero,.L4
	.loc 1 108 50 discriminator 1
	ld	a5,-32(s0)
	lbu	a5,522(a5)
	.loc 1 108 13 discriminator 1
	sw	a5,-20(s0)
	j	.L5
.L4:
	.loc 1 108 13 is_stmt 0 discriminator 2
	lw	a5,-228(s0)
	sw	a5,-20(s0)
.L5:
	.loc 1 109 35 is_stmt 1
	lw	a5,-20(s0)
	andi	a5,a5,15
	andi	a5,a5,0xff
	.loc 1 109 23
	andi	a5,a5,15
	lw	a4,-200(s0)
	andi	a4,a4,-16
	or	a5,a4,a5
	sw	a5,-200(s0)
	.loc 1 110 26
	ld	a5,-88(s0)
	.loc 1 110 12
	addi	a5,a5,20
	.loc 1 110 3
	addi	a4,s0,-200
	li	a2,4
	mv	a1,a4
	mv	a0,a5
	call	CopyMem@plt
	.loc 1 118 18
	ld	a4,-32(s0)
	li	a5,4096
	add	a5,a4,a5
	ld	a5,496(a5)
	.loc 1 118 40
	ld	a5,80(a5)
	.loc 1 119 51
	ld	a3,-32(s0)
	li	a4,4096
	add	a4,a3,a4
	ld	a4,496(a4)
	.loc 1 118 12
	addi	a4,a4,72
	addi	a2,s0,-128
	lw	a1,-220(s0)
	li	a3,0
	mv	a0,a4
	jalr	a5
.LVL0:
	sd	a0,-40(s0)
	.loc 1 125 34
	ld	a5,-40(s0)
	.loc 1 125 6
	bge	a5,zero,.L6
	.loc 1 126 42
	ld	a5,-80(s0)
	.loc 1 126 57
	lw	a5,12(a5)
	.loc 1 126 77
	srliw	a5,a5,16
	sext.w	a5,a5
	.loc 1 126 17
	sh	a5,-62(s0)
	.loc 1 129 32
	lhu	a5,-62(s0)
	sext.w	a5,a5
	sraiw	a5,a5,1
	sext.w	a5,a5
	slli	a5,a5,48
	srli	a5,a5,48
	.loc 1 129 8
	andi	a5,a5,255
	sh	a5,-66(s0)
	.loc 1 130 34
	lhu	a5,-62(s0)
	sext.w	a5,a5
	sraiw	a5,a5,9
	sext.w	a5,a5
	slli	a5,a5,48
	srli	a5,a5,48
	.loc 1 130 9
	andi	a5,a5,7
	sh	a5,-64(s0)
	j	.L7
.L6:
	.loc 1 139 8
	lw	a5,-228(s0)
	sext.w	a5,a5
	beq	a5,zero,.L7
	.loc 1 140 26
	li	a0,4096
	call	AllocateZeroPool@plt
	sd	a0,-48(s0)
	.loc 1 141 10
	ld	a5,-48(s0)
	bne	a5,zero,.L8
	.loc 1 142 16
	li	a5,-1
	slli	a5,a5,63
	addi	a5,a5,9
	sd	a5,-40(s0)
	j	.L7
.L8:
	.loc 1 144 18
	ld	a4,-32(s0)
	li	a5,4096
	add	a5,a4,a5
	ld	a5,496(a5)
	lw	a4,-220(s0)
	ld	a2,-48(s0)
	mv	a1,a4
	mv	a0,a5
	call	NvmeIdentifyNamespace@plt
	sd	a0,-40(s0)
	.loc 1 150 13
	ld	a5,-40(s0)
	.loc 1 150 12
	blt	a5,zero,.L7
	.loc 1 154 38
	ld	a5,-48(s0)
	lbu	a5,26(a5)
	.loc 1 154 20
	sw	a5,-56(s0)
	.loc 1 155 21
	lw	a5,-56(s0)
	andi	a5,a5,15
	sw	a5,-60(s0)
	.loc 1 156 57
	ld	a4,-48(s0)
	lwu	a5,-60(s0)
	addi	a5,a5,32
	slli	a5,a5,2
	add	a5,a4,a5
	lbu	a5,2(a5)
	.loc 1 156 17
	sw	a5,-52(s0)
	.loc 1 157 47
	lw	a5,-52(s0)
	mv	a4,a5
	li	a5,1
	sllw	a5,a5,a4
	sext.w	a4,a5
	.loc 1 157 35
	ld	a5,-32(s0)
	sw	a4,76(a5)
	.loc 1 158 53
	ld	a5,-48(s0)
	lbu	a4,0(a5)
	lbu	a3,1(a5)
	slli	a3,a3,8
	or	a4,a3,a4
	lbu	a3,2(a5)
	slli	a3,a3,16
	or	a4,a3,a4
	lbu	a3,3(a5)
	slli	a3,a3,24
	or	a4,a3,a4
	lbu	a3,4(a5)
	slli	a3,a3,32
	or	a4,a3,a4
	lbu	a3,5(a5)
	slli	a3,a3,40
	or	a4,a3,a4
	lbu	a3,6(a5)
	slli	a3,a3,48
	or	a4,a3,a4
	lbu	a5,7(a5)
	slli	a5,a5,56
	or	a5,a5,a4
	.loc 1 158 60
	addi	a4,a5,-1
	.loc 1 158 35
	ld	a5,-32(s0)
	sd	a4,88(a5)
	.loc 1 160 20
	ld	a5,-32(s0)
	addi	a5,a5,496
	.loc 1 160 11
	li	a2,4096
	ld	a1,-48(s0)
	mv	a0,a5
	call	CopyMem@plt
.L7:
	.loc 1 166 10
	ld	a5,-40(s0)
	.loc 1 167 1
	mv	a0,a5
	ld	ra,232(sp)
	.cfi_restore 1
	ld	s0,224(sp)
	.cfi_restore 8
	.cfi_def_cfa 2, 240
	addi	sp,sp,240
	.cfi_def_cfa_offset 0
	jr	ra
	.cfi_endproc
.LFE0:
	.size	NvmExpressFormatNvm, .-NvmExpressFormatNvm
	.section	.text.NvmExpressSanitize,"ax",@progbits
	.align	1
	.globl	NvmExpressSanitize
	.type	NvmExpressSanitize, @function
NvmExpressSanitize:
.LFB1:
	.loc 1 203 1
	.cfi_startproc
	addi	sp,sp,-208
	.cfi_def_cfa_offset 208
	sd	ra,200(sp)
	sd	s0,192(sp)
	.cfi_offset 1, -8
	.cfi_offset 8, -16
	addi	s0,sp,208
	.cfi_def_cfa 8, 0
	sd	a0,-184(s0)
	mv	a5,a1
	sw	a5,-188(s0)
	mv	a5,a2
	sw	a5,-192(s0)
	mv	a5,a3
	sw	a5,-196(s0)
	mv	a5,a4
	sw	a5,-200(s0)
	.loc 1 215 14
	ld	a5,-184(s0)
	addi	a5,a5,-112
	.loc 1 215 137
	lw	a4,0(a5)
	.loc 1 215 222
	li	a5,1146310656
	addi	a5,a5,856
	bne	a4,a5,.L11
	.loc 1 215 10 discriminator 1
	ld	a5,-184(s0)
	addi	a5,a5,-112
	sd	a5,-32(s0)
	j	.L12
.L11:
	.loc 1 215 10 is_stmt 0 discriminator 2
	sd	zero,-32(s0)
.L12:
	.loc 1 217 3 is_stmt 1
	addi	a5,s0,-104
	li	a1,56
	mv	a0,a5
	call	ZeroMem@plt
	.loc 1 218 3
	addi	a5,s0,-152
	li	a1,44
	mv	a0,a5
	call	ZeroMem@plt
	.loc 1 219 3
	addi	a5,s0,-168
	li	a1,16
	mv	a0,a5
	call	ZeroMem@plt
	.loc 1 220 3
	addi	a5,s0,-176
	li	a1,8
	mv	a0,a5
	call	ZeroMem@plt
	.loc 1 222 15
	sh	zero,-42(s0)
	.loc 1 223 7
	sh	zero,-44(s0)
	.loc 1 224 6
	sh	zero,-46(s0)
	.loc 1 225 11
	sw	zero,-20(s0)
	.loc 1 227 25
	addi	a5,s0,-152
	sd	a5,-64(s0)
	.loc 1 228 32
	addi	a5,s0,-168
	sd	a5,-56(s0)
	.loc 1 229 34
	li	a5,9998336
	addi	a1,a5,1664
	li	a0,5
	call	MultU64x32@plt
	mv	a5,a0
	.loc 1 229 32 discriminator 1
	sd	a5,-104(s0)
	.loc 1 230 27
	sb	zero,-68(s0)
	.loc 1 231 23
	li	a5,-124
	sb	a5,-152(s0)
	.loc 1 232 16
	lw	a5,-188(s0)
	sw	a5,-144(s0)
	.loc 1 234 28
	lw	a5,-196(s0)
	andi	a5,a5,1
	andi	a5,a5,0xff
	andi	a5,a5,1
	slliw	a5,a5,9
	lw	a4,-176(s0)
	andi	a4,a4,-513
	or	a5,a4,a5
	sw	a5,-176(s0)
	.loc 1 235 29
	lw	a5,-192(s0)
	andi	a5,a5,7
	andi	a5,a5,0xff
	andi	a5,a5,7
	lw	a4,-176(s0)
	andi	a4,a4,-8
	or	a5,a4,a5
	sw	a5,-176(s0)
	.loc 1 236 29
	lw	a5,-200(s0)
	sw	a5,-172(s0)
	.loc 1 237 26
	ld	a5,-64(s0)
	.loc 1 237 12
	addi	a5,a5,20
	.loc 1 237 3
	addi	a4,s0,-176
	li	a2,8
	mv	a1,a4
	mv	a0,a5
	call	CopyMem@plt
	.loc 1 242 18
	ld	a4,-32(s0)
	li	a5,4096
	add	a5,a4,a5
	ld	a5,496(a5)
	.loc 1 242 40
	ld	a5,80(a5)
	.loc 1 243 51
	ld	a3,-32(s0)
	li	a4,4096
	add	a4,a3,a4
	ld	a4,496(a4)
	.loc 1 242 12
	addi	a4,a4,72
	addi	a2,s0,-104
	lw	a1,-188(s0)
	li	a3,0
	mv	a0,a4
	jalr	a5
.LVL1:
	sd	a0,-40(s0)
	.loc 1 249 34
	ld	a5,-40(s0)
	.loc 1 249 6
	bge	a5,zero,.L13
	.loc 1 250 42
	ld	a5,-56(s0)
	.loc 1 250 57
	lw	a5,12(a5)
	.loc 1 250 77
	srliw	a5,a5,16
	sext.w	a5,a5
	.loc 1 250 17
	sh	a5,-42(s0)
	.loc 1 253 32
	lhu	a5,-42(s0)
	sext.w	a5,a5
	sraiw	a5,a5,1
	sext.w	a5,a5
	slli	a5,a5,48
	srli	a5,a5,48
	.loc 1 253 8
	andi	a5,a5,255
	sh	a5,-46(s0)
	.loc 1 254 34
	lhu	a5,-42(s0)
	sext.w	a5,a5
	sraiw	a5,a5,9
	sext.w	a5,a5
	slli	a5,a5,48
	srli	a5,a5,48
	.loc 1 254 9
	andi	a5,a5,7
	sh	a5,-44(s0)
	.loc 1 264 8
	lhu	a5,-44(s0)
	sext.w	a5,a5
	bne	a5,zero,.L13
	.loc 1 264 22 discriminator 1
	lhu	a5,-46(s0)
	sext.w	a4,a5
	li	a5,1
	bne	a4,a5,.L13
	.loc 1 267 33
	ld	a5,-176(s0)
	andi	a5,a5,7
	andi	a5,a5,0xff
	sext.w	a5,a5
	.loc 1 267 7
	li	a4,2
	beq	a5,a4,.L14
	li	a4,4
	beq	a5,a4,.L15
	j	.L20
.L14:
	.loc 1 269 19
	li	a5,1
	sw	a5,-20(s0)
	.loc 1 270 11
	j	.L17
.L15:
	.loc 1 272 19
	li	a5,2
	sw	a5,-20(s0)
	.loc 1 273 11
	j	.L17
.L20:
	.loc 1 280 19
	sw	zero,-20(s0)
	.loc 1 281 11
	nop
.L17:
	.loc 1 284 10
	lw	a5,-20(s0)
	sext.w	a4,a5
	li	a5,1
	beq	a4,a5,.L18
	.loc 1 284 28 discriminator 1
	lw	a5,-20(s0)
	sext.w	a4,a5
	li	a5,2
	bne	a4,a5,.L13
.L18:
	.loc 1 285 18
	lw	a5,-20(s0)
	li	a3,0
	mv	a2,a5
	li	a1,-1
	ld	a0,-184(s0)
	call	NvmExpressFormatNvm
	sd	a0,-40(s0)
.L13:
	.loc 1 295 10
	ld	a5,-40(s0)
	.loc 1 296 1
	mv	a0,a5
	ld	ra,200(sp)
	.cfi_restore 1
	ld	s0,192(sp)
	.cfi_restore 8
	.cfi_def_cfa 2, 208
	addi	sp,sp,208
	.cfi_def_cfa_offset 0
	jr	ra
	.cfi_endproc
.LFE1:
	.size	NvmExpressSanitize, .-NvmExpressSanitize
	.section	.text.NvmExpressMediaClear,"ax",@progbits
	.align	1
	.globl	NvmExpressMediaClear
	.type	NvmExpressMediaClear, @function
NvmExpressMediaClear:
.LFB2:
	.loc 1 332 1
	.cfi_startproc
	addi	sp,sp,-96
	.cfi_def_cfa_offset 96
	sd	ra,88(sp)
	sd	s0,80(sp)
	.cfi_offset 1, -8
	.cfi_offset 8, -16
	addi	s0,sp,96
	.cfi_def_cfa 8, 0
	sd	a0,-72(s0)
	mv	a5,a1
	mv	a4,a2
	sd	a3,-88(s0)
	sw	a5,-76(s0)
	mv	a5,a4
	sw	a5,-80(s0)
	.loc 1 342 6
	ld	a5,-72(s0)
	bne	a5,zero,.L22
	.loc 1 343 12
	li	a5,-1
	slli	a5,a5,63
	addi	a5,a5,2
	j	.L23
.L22:
	.loc 1 346 14
	ld	a5,-72(s0)
	addi	a5,a5,-264
	.loc 1 346 143
	lw	a4,0(a5)
	.loc 1 346 228
	li	a5,1146310656
	addi	a5,a5,856
	bne	a4,a5,.L24
	.loc 1 346 10 discriminator 1
	ld	a5,-72(s0)
	addi	a5,a5,-264
	sd	a5,-24(s0)
	j	.L25
.L24:
	.loc 1 346 10 is_stmt 0 discriminator 2
	sd	zero,-24(s0)
.L25:
	.loc 1 347 9 is_stmt 1
	ld	a5,-24(s0)
	addi	a5,a5,64
	sd	a5,-56(s0)
	.loc 1 348 16
	sd	zero,-32(s0)
	.loc 1 350 24
	ld	a5,-56(s0)
	lw	a5,0(a5)
	.loc 1 350 6
	lw	a4,-76(s0)
	sext.w	a4,a4
	bne	a4,a5,.L26
	.loc 1 350 45 discriminator 1
	ld	a5,-56(s0)
	lbu	a5,5(a5)
	.loc 1 350 35 discriminator 1
	bne	a5,zero,.L27
.L26:
	.loc 1 351 12
	li	a5,-1
	slli	a5,a5,63
	addi	a5,a5,13
	j	.L23
.L27:
	.loc 1 359 6
	ld	a5,-88(s0)
	bne	a5,zero,.L28
	.loc 1 360 12
	li	a5,-1
	slli	a5,a5,63
	addi	a5,a5,2
	j	.L23
.L28:
	.loc 1 363 10
	sd	zero,-48(s0)
	.loc 1 368 23
	sw	zero,-36(s0)
	.loc 1 368 3
	j	.L29
.L32:
	.loc 1 369 23
	sd	zero,-32(s0)
	.loc 1 369 5
	j	.L30
.L31:
	.loc 1 370 31
	ld	a5,-24(s0)
	ld	a5,144(a5)
	.loc 1 370 16
	ld	a4,-24(s0)
	addi	a0,a4,112
	lw	a1,-76(s0)
	ld	a4,-88(s0)
	li	a3,1
	ld	a2,-32(s0)
	jalr	a5
.LVL2:
	sd	a0,-48(s0)
	.loc 1 369 73 discriminator 3
	ld	a5,-32(s0)
	addi	a5,a5,1
	sd	a5,-32(s0)
.L30:
	.loc 1 369 48 discriminator 1
	ld	a5,-56(s0)
	ld	a5,24(a5)
	.loc 1 369 41 discriminator 1
	ld	a4,-32(s0)
	bltu	a4,a5,.L31
	.loc 1 382 18
	sd	zero,-32(s0)
	.loc 1 368 70 discriminator 2
	lw	a5,-36(s0)
	addiw	a5,a5,1
	sw	a5,-36(s0)
.L29:
	.loc 1 368 43 discriminator 1
	lw	a5,-36(s0)
	mv	a4,a5
	lw	a5,-80(s0)
	sext.w	a4,a4
	sext.w	a5,a5
	bltu	a4,a5,.L32
	.loc 1 385 10
	ld	a5,-48(s0)
.L23:
	.loc 1 386 1
	mv	a0,a5
	ld	ra,88(sp)
	.cfi_restore 1
	ld	s0,80(sp)
	.cfi_restore 8
	.cfi_def_cfa 2, 96
	addi	sp,sp,96
	.cfi_def_cfa_offset 0
	jr	ra
	.cfi_endproc
.LFE2:
	.size	NvmExpressMediaClear, .-NvmExpressMediaClear
	.section	.text.NvmExpressMediaPurge,"ax",@progbits
	.align	1
	.globl	NvmExpressMediaPurge
	.type	NvmExpressMediaPurge, @function
NvmExpressMediaPurge:
.LFB3:
	.loc 1 421 1
	.cfi_startproc
	addi	sp,sp,-96
	.cfi_def_cfa_offset 96
	sd	ra,88(sp)
	sd	s0,80(sp)
	.cfi_offset 1, -8
	.cfi_offset 8, -16
	addi	s0,sp,96
	.cfi_def_cfa 8, 0
	sd	a0,-72(s0)
	mv	a5,a1
	mv	a4,a3
	sw	a5,-76(s0)
	mv	a5,a2
	sw	a5,-80(s0)
	mv	a5,a4
	sw	a5,-84(s0)
	.loc 1 433 6
	ld	a5,-72(s0)
	bne	a5,zero,.L34
	.loc 1 434 12
	li	a5,-1
	slli	a5,a5,63
	addi	a5,a5,2
	j	.L45
.L34:
	.loc 1 437 14
	ld	a5,-72(s0)
	addi	a5,a5,-264
	.loc 1 437 143
	lw	a4,0(a5)
	.loc 1 437 228
	li	a5,1146310656
	addi	a5,a5,856
	bne	a4,a5,.L36
	.loc 1 437 10 discriminator 1
	ld	a5,-72(s0)
	addi	a5,a5,-264
	sd	a5,-24(s0)
	j	.L37
.L36:
	.loc 1 437 10 is_stmt 0 discriminator 2
	sd	zero,-24(s0)
.L37:
	.loc 1 438 15 is_stmt 1
	ld	a5,-24(s0)
	lw	a5,48(a5)
	sw	a5,-36(s0)
	.loc 1 439 9
	ld	a5,-24(s0)
	addi	a5,a5,64
	sd	a5,-48(s0)
	.loc 1 440 19
	ld	a4,-24(s0)
	li	a5,4096
	add	a5,a4,a5
	ld	a5,496(a5)
	.loc 1 440 31
	ld	a5,112(a5)
	.loc 1 440 11
	lbu	a4,328(a5)
	mv	a2,a4
	lbu	a4,329(a5)
	mv	a3,a4
	lbu	a4,330(a5)
	sb	a2,-64(s0)
	sb	a3,-63(s0)
	sb	a4,-62(s0)
	lbu	a5,331(a5)
	sb	a5,-61(s0)
	.loc 1 441 16
	sw	zero,-32(s0)
	.loc 1 443 24
	ld	a5,-48(s0)
	lw	a5,0(a5)
	.loc 1 443 6
	lw	a4,-76(s0)
	sext.w	a4,a4
	bne	a4,a5,.L38
	.loc 1 443 45 discriminator 1
	ld	a5,-48(s0)
	lbu	a5,5(a5)
	.loc 1 443 35 discriminator 1
	bne	a5,zero,.L39
.L38:
	.loc 1 444 12
	li	a5,-1
	slli	a5,a5,63
	addi	a5,a5,13
	j	.L45
.L39:
	.loc 1 452 21
	lw	a5,-80(s0)
	andi	a5,a5,1
	sext.w	a5,a5
	.loc 1 452 6
	beq	a5,zero,.L40
	.loc 1 452 50 discriminator 1
	lbu	a5,-64(s0)
	andi	a5,a5,4
	andi	a5,a5,0xff
	beq	a5,zero,.L40
	.loc 1 453 20
	li	a5,3
	sw	a5,-28(s0)
	j	.L41
.L40:
	.loc 1 454 28
	lw	a5,-80(s0)
	andi	a5,a5,2
	sext.w	a5,a5
	.loc 1 454 13
	beq	a5,zero,.L42
	.loc 1 454 57 discriminator 1
	lbu	a5,-64(s0)
	andi	a5,a5,2
	andi	a5,a5,0xff
	beq	a5,zero,.L42
	.loc 1 455 20
	li	a5,2
	sw	a5,-28(s0)
	j	.L41
.L42:
	.loc 1 456 28
	lw	a5,-80(s0)
	andi	a5,a5,4
	sext.w	a5,a5
	.loc 1 456 13
	beq	a5,zero,.L43
	.loc 1 456 57 discriminator 1
	lbu	a5,-64(s0)
	andi	a5,a5,1
	andi	a5,a5,0xff
	beq	a5,zero,.L43
	.loc 1 457 20
	li	a5,4
	sw	a5,-28(s0)
	j	.L41
.L43:
	.loc 1 459 20
	sw	zero,-28(s0)
.L41:
	.loc 1 462 20
	lw	a5,-80(s0)
	andi	a5,a5,16
	sext.w	a5,a5
	.loc 1 462 6
	beq	a5,zero,.L44
	.loc 1 463 18
	li	a5,1
	sw	a5,-32(s0)
.L44:
	.loc 1 469 12
	ld	a5,-24(s0)
	addi	a5,a5,112
	lw	a4,-84(s0)
	lw	a3,-32(s0)
	lw	a2,-28(s0)
	lw	a1,-36(s0)
	mv	a0,a5
	call	NvmExpressSanitize
	sd	a0,-56(s0)
	.loc 1 477 10
	ld	a5,-56(s0)
.L45:
	.loc 1 478 1
	mv	a0,a5
	ld	ra,88(sp)
	.cfi_restore 1
	ld	s0,80(sp)
	.cfi_restore 8
	.cfi_def_cfa 2, 96
	addi	sp,sp,96
	.cfi_def_cfa_offset 0
	jr	ra
	.cfi_endproc
.LFE3:
	.size	NvmExpressMediaPurge, .-NvmExpressMediaPurge
	.section	.text.NvmExpressMediaFormat,"ax",@progbits
	.align	1
	.globl	NvmExpressMediaFormat
	.type	NvmExpressMediaFormat, @function
NvmExpressMediaFormat:
.LFB4:
	.loc 1 511 1
	.cfi_startproc
	addi	sp,sp,-96
	.cfi_def_cfa_offset 96
	sd	ra,88(sp)
	sd	s0,80(sp)
	.cfi_offset 1, -8
	.cfi_offset 8, -16
	addi	s0,sp,96
	.cfi_def_cfa 8, 0
	sd	a0,-72(s0)
	mv	a5,a1
	mv	a4,a3
	sw	a5,-76(s0)
	mv	a5,a2
	sw	a5,-80(s0)
	mv	a5,a4
	sw	a5,-84(s0)
	.loc 1 523 6
	ld	a5,-72(s0)
	bne	a5,zero,.L47
	.loc 1 524 12
	li	a5,-1
	slli	a5,a5,63
	addi	a5,a5,2
	j	.L48
.L47:
	.loc 1 527 14
	ld	a5,-72(s0)
	addi	a5,a5,-264
	.loc 1 527 143
	lw	a4,0(a5)
	.loc 1 527 228
	li	a5,1146310656
	addi	a5,a5,856
	bne	a4,a5,.L49
	.loc 1 527 10 discriminator 1
	ld	a5,-72(s0)
	addi	a5,a5,-264
	sd	a5,-24(s0)
	j	.L50
.L49:
	.loc 1 527 10 is_stmt 0 discriminator 2
	sd	zero,-24(s0)
.L50:
	.loc 1 528 15 is_stmt 1
	ld	a5,-24(s0)
	lw	a5,48(a5)
	sw	a5,-52(s0)
	.loc 1 529 9
	ld	a5,-24(s0)
	addi	a5,a5,64
	sd	a5,-64(s0)
	.loc 1 530 23
	sw	zero,-28(s0)
	.loc 1 531 13
	sw	zero,-32(s0)
	.loc 1 533 24
	ld	a5,-64(s0)
	lw	a5,0(a5)
	.loc 1 533 6
	lw	a4,-76(s0)
	sext.w	a4,a4
	bne	a4,a5,.L51
	.loc 1 533 45 discriminator 1
	ld	a5,-64(s0)
	lbu	a5,5(a5)
	.loc 1 533 35 discriminator 1
	bne	a5,zero,.L52
.L51:
	.loc 1 534 12
	li	a5,-1
	slli	a5,a5,63
	addi	a5,a5,13
	j	.L48
.L52:
	.loc 1 540 3
	lw	a5,-84(s0)
	sext.w	a4,a5
	li	a5,1
	beq	a4,a5,.L53
	lw	a5,-84(s0)
	sext.w	a4,a5
	li	a5,2
	beq	a4,a5,.L54
	j	.L63
.L53:
	.loc 1 542 27
	li	a5,1
	sw	a5,-28(s0)
	.loc 1 543 7
	j	.L56
.L54:
	.loc 1 545 27
	li	a5,2
	sw	a5,-28(s0)
	.loc 1 546 7
	j	.L56
.L63:
	.loc 1 552 27
	sw	zero,-28(s0)
	.loc 1 553 7
	nop
.L56:
	.loc 1 564 22
	sb	zero,-33(s0)
	.loc 1 565 18
	sw	zero,-32(s0)
	.loc 1 565 3
	j	.L57
.L60:
	.loc 1 566 51
	ld	a4,-24(s0)
	lwu	a5,-32(s0)
	addi	a5,a5,156
	slli	a5,a5,2
	add	a5,a4,a5
	lbu	a5,2(a5)
	sext.w	a5,a5
	.loc 1 566 8
	lw	a4,-80(s0)
	sext.w	a4,a4
	bne	a4,a5,.L58
	.loc 1 567 26
	li	a5,1
	sb	a5,-33(s0)
	.loc 1 568 7
	j	.L59
.L58:
	.loc 1 565 73 discriminator 2
	lw	a5,-32(s0)
	addiw	a5,a5,1
	sw	a5,-32(s0)
.L57:
	.loc 1 565 56 discriminator 1
	ld	a5,-24(s0)
	lbu	a5,521(a5)
	sext.w	a5,a5
	.loc 1 565 33 discriminator 1
	lw	a4,-32(s0)
	sext.w	a4,a4
	bltu	a4,a5,.L60
.L59:
	.loc 1 572 6
	lbu	a5,-33(s0)
	andi	a5,a5,0xff
	beq	a5,zero,.L61
	.loc 1 573 14
	ld	a5,-24(s0)
	addi	a5,a5,112
	lw	a3,-32(s0)
	lw	a2,-28(s0)
	lw	a4,-52(s0)
	mv	a1,a4
	mv	a0,a5
	call	NvmExpressFormatNvm
	sd	a0,-48(s0)
	j	.L62
.L61:
	.loc 1 580 12
	li	a5,-1
	slli	a5,a5,63
	addi	a5,a5,2
	sd	a5,-48(s0)
.L62:
	.loc 1 583 10
	ld	a5,-48(s0)
.L48:
	.loc 1 584 1
	mv	a0,a5
	ld	ra,88(sp)
	.cfi_restore 1
	ld	s0,80(sp)
	.cfi_restore 8
	.cfi_def_cfa 2, 96
	addi	sp,sp,96
	.cfi_def_cfa_offset 0
	jr	ra
	.cfi_endproc
.LFE4:
	.size	NvmExpressMediaFormat, .-NvmExpressMediaFormat
	.text
.Letext0:
	.file 2 "/home/kapoagaeming/spacemit-image-builder/components/edk2/MdePkg/Include/RiscV64/ProcessorBind.h"
	.file 3 "/home/kapoagaeming/spacemit-image-builder/components/edk2/MdePkg/Include/Base.h"
	.file 4 "/home/kapoagaeming/spacemit-image-builder/components/edk2/MdePkg/Include/Uefi/UefiBaseType.h"
	.file 5 "/home/kapoagaeming/spacemit-image-builder/components/edk2/MdePkg/Include/Uefi/UefiMultiPhase.h"
	.file 6 "/home/kapoagaeming/spacemit-image-builder/components/edk2/MdePkg/Include/Protocol/DevicePath.h"
	.file 7 "/home/kapoagaeming/spacemit-image-builder/components/edk2/MdePkg/Include/Uefi/UefiSpec.h"
	.file 8 "/home/kapoagaeming/spacemit-image-builder/components/edk2/MdePkg/Include/IndustryStandard/Nvme.h"
	.file 9 "/home/kapoagaeming/spacemit-image-builder/components/edk2/MdePkg/Include/Protocol/PciIo.h"
	.file 10 "/home/kapoagaeming/spacemit-image-builder/components/edk2/MdePkg/Include/Protocol/NvmExpressPassthru.h"
	.file 11 "/home/kapoagaeming/spacemit-image-builder/components/edk2/MdePkg/Include/Protocol/BlockIo.h"
	.file 12 "/home/kapoagaeming/spacemit-image-builder/components/edk2/MdePkg/Include/Protocol/BlockIo2.h"
	.file 13 "/home/kapoagaeming/spacemit-image-builder/components/edk2/MdePkg/Include/Protocol/DiskInfo.h"
	.file 14 "/home/kapoagaeming/spacemit-image-builder/components/edk2/MdePkg/Include/Protocol/StorageSecurityCommand.h"
	.file 15 "/home/kapoagaeming/spacemit-image-builder/components/edk2/MdeModulePkg/Include/Protocol/MediaSanitize.h"
	.file 16 "/home/kapoagaeming/spacemit-image-builder/components/edk2/MdePkg/Include/Library/UefiLib.h"
	.file 17 "/home/kapoagaeming/spacemit-image-builder/components/edk2/MdeModulePkg/Bus/Pci/NvmExpressDxe/NvmExpress.h"
	.file 18 "/home/kapoagaeming/spacemit-image-builder/components/edk2/MdeModulePkg/Bus/Pci/NvmExpressDxe/NvmExpressHci.h"
	.file 19 "/home/kapoagaeming/spacemit-image-builder/components/edk2/MdePkg/Include/Library/MemoryAllocationLib.h"
	.file 20 "/home/kapoagaeming/spacemit-image-builder/components/edk2/MdePkg/Include/Library/BaseMemoryLib.h"
	.file 21 "/home/kapoagaeming/spacemit-image-builder/components/edk2/MdePkg/Include/Library/BaseLib.h"
	.section	.note.GNU-stack,"",@progbits
