	.file	"NvmExpressPassthru.c"
	.option pic
	.option norelax
	.attribute arch, "rv64i2p1_m2p0_a2p1_f2p2_d2p2_c2p0_zicsr2p0_zifencei2p0_zmmul1p0_zaamo1p0_zalrsc1p0_zca1p0_zcd1p0"
	.attribute unaligned_access, 0
	.attribute stack_align, 16
	.text
.Ltext0:
	.cfi_sections	.debug_frame
	.file 0 "/home/kapoagaeming/spacemit-image-builder/components/Build/Milk-V-Jupiter/RELEASE_GCC5/RISCV64/MdeModulePkg/Bus/Pci/NvmExpressDxe/NvmExpressDxe" "/home/kapoagaeming/spacemit-image-builder/components/edk2/MdeModulePkg/Bus/Pci/NvmExpressDxe/NvmExpressPassthru.c"
	.section	.text.NvmeDumpStatus,"ax",@progbits
	.align	1
	.globl	NvmeDumpStatus
	.type	NvmeDumpStatus, @function
NvmeDumpStatus:
.LFB0:
	.file 1 "/home/kapoagaeming/spacemit-image-builder/components/edk2/MdeModulePkg/Bus/Pci/NvmExpressDxe/NvmExpressPassthru.c"
	.loc 1 23 1
	.cfi_startproc
	addi	sp,sp,-32
	.cfi_def_cfa_offset 32
	sd	ra,24(sp)
	sd	s0,16(sp)
	.cfi_offset 1, -8
	.cfi_offset 8, -16
	addi	s0,sp,32
	.cfi_def_cfa 8, 0
	sd	a0,-24(s0)
	.loc 1 30 13
	ld	a5,-24(s0)
	lbu	a5,15(a5)
	srliw	a5,a5,1
	andi	a5,a5,7
	andi	a5,a5,0xff
	sext.w	a5,a5
	.loc 1 30 3
	li	a4,2
	beq	a5,a4,.L2
	li	a4,2
	bgt	a5,a4,.L58
	beq	a5,zero,.L4
	li	a4,1
	beq	a5,a4,.L5
	.loc 1 194 7
	j	.L58
.L4:
	.loc 1 32 17
	ld	a5,-24(s0)
	lbu	a4,14(a5)
	srliw	a4,a4,1
	andi	a4,a4,0xff
	lbu	a5,15(a5)
	andi	a5,a5,1
	slli	a5,a5,7
	or	a5,a5,a4
	andi	a5,a5,0xff
	sext.w	a5,a5
	.loc 1 32 7
	li	a4,131
	beq	a5,a4,.L59
	li	a4,131
	bgt	a5,a4,.L60
	li	a4,130
	beq	a5,a4,.L61
	li	a4,130
	bgt	a5,a4,.L60
	li	a4,129
	beq	a5,a4,.L62
	li	a4,129
	bgt	a5,a4,.L60
	li	a4,128
	beq	a5,a4,.L63
	li	a4,128
	bgt	a5,a4,.L60
	li	a4,17
	beq	a5,a4,.L64
	li	a4,17
	bgt	a5,a4,.L60
	li	a4,16
	beq	a5,a4,.L65
	li	a4,16
	bgt	a5,a4,.L60
	li	a4,15
	beq	a5,a4,.L66
	li	a4,15
	bgt	a5,a4,.L60
	li	a4,14
	beq	a5,a4,.L67
	li	a4,14
	bgt	a5,a4,.L60
	li	a4,13
	beq	a5,a4,.L68
	li	a4,13
	bgt	a5,a4,.L60
	li	a4,12
	beq	a5,a4,.L69
	li	a4,12
	bgt	a5,a4,.L60
	li	a4,11
	beq	a5,a4,.L70
	li	a4,11
	bgt	a5,a4,.L60
	li	a4,10
	beq	a5,a4,.L71
	li	a4,10
	bgt	a5,a4,.L60
	li	a4,9
	beq	a5,a4,.L72
	li	a4,9
	bgt	a5,a4,.L60
	li	a4,8
	beq	a5,a4,.L73
	li	a4,8
	bgt	a5,a4,.L60
	li	a4,7
	beq	a5,a4,.L74
	li	a4,7
	bgt	a5,a4,.L60
	li	a4,6
	beq	a5,a4,.L75
	li	a4,6
	bgt	a5,a4,.L60
	li	a4,5
	beq	a5,a4,.L76
	li	a4,5
	bgt	a5,a4,.L60
	li	a4,4
	beq	a5,a4,.L77
	li	a4,4
	bgt	a5,a4,.L60
	li	a4,3
	beq	a5,a4,.L78
	li	a4,3
	bgt	a5,a4,.L60
	li	a4,2
	beq	a5,a4,.L79
	li	a4,2
	bgt	a5,a4,.L60
	.loc 1 35 11
	j	.L7
.L59:
	.loc 1 98 11
	nop
	j	.L60
.L61:
	.loc 1 95 11
	nop
	j	.L60
.L62:
	.loc 1 92 11
	nop
	j	.L60
.L63:
	.loc 1 89 11
	nop
	j	.L60
.L64:
	.loc 1 86 11
	nop
	j	.L60
.L65:
	.loc 1 83 11
	nop
	j	.L60
.L66:
	.loc 1 80 11
	nop
	j	.L60
.L67:
	.loc 1 77 11
	nop
	j	.L60
.L68:
	.loc 1 74 11
	nop
	j	.L60
.L69:
	.loc 1 71 11
	nop
	j	.L60
.L70:
	.loc 1 68 11
	nop
	j	.L60
.L71:
	.loc 1 65 11
	nop
	j	.L60
.L72:
	.loc 1 62 11
	nop
	j	.L60
.L73:
	.loc 1 59 11
	nop
	j	.L60
.L74:
	.loc 1 56 11
	nop
	j	.L60
.L75:
	.loc 1 53 11
	nop
	j	.L60
.L76:
	.loc 1 50 11
	nop
	j	.L60
.L77:
	.loc 1 47 11
	nop
	j	.L60
.L78:
	.loc 1 44 11
	nop
	j	.L60
.L79:
	.loc 1 41 11
	nop
.L7:
	.loc 1 101 7
	j	.L60
.L5:
	.loc 1 104 17
	ld	a5,-24(s0)
	lbu	a4,14(a5)
	srliw	a4,a4,1
	andi	a4,a4,0xff
	lbu	a5,15(a5)
	andi	a5,a5,1
	slli	a5,a5,7
	or	a5,a5,a4
	andi	a5,a5,0xff
	sext.w	a5,a5
	.loc 1 104 7
	li	a4,130
	beq	a5,a4,.L80
	li	a4,130
	bgt	a5,a4,.L81
	li	a4,129
	beq	a5,a4,.L82
	li	a4,129
	bgt	a5,a4,.L81
	li	a4,128
	beq	a5,a4,.L83
	li	a4,128
	bgt	a5,a4,.L81
	li	a4,16
	beq	a5,a4,.L84
	li	a4,16
	bgt	a5,a4,.L81
	li	a4,15
	beq	a5,a4,.L85
	li	a4,15
	bgt	a5,a4,.L81
	li	a4,14
	beq	a5,a4,.L86
	li	a4,14
	bgt	a5,a4,.L81
	li	a4,13
	beq	a5,a4,.L87
	li	a4,13
	bgt	a5,a4,.L81
	li	a4,12
	beq	a5,a4,.L88
	li	a4,12
	bgt	a5,a4,.L81
	li	a4,11
	beq	a5,a4,.L89
	li	a4,11
	bgt	a5,a4,.L81
	li	a4,10
	beq	a5,a4,.L90
	li	a4,10
	bgt	a5,a4,.L81
	li	a4,9
	beq	a5,a4,.L91
	li	a4,9
	bgt	a5,a4,.L81
	li	a4,8
	beq	a5,a4,.L92
	li	a4,8
	bgt	a5,a4,.L81
	li	a4,7
	beq	a5,a4,.L93
	li	a4,7
	bgt	a5,a4,.L81
	li	a4,6
	beq	a5,a4,.L94
	li	a4,6
	bgt	a5,a4,.L81
	li	a4,5
	beq	a5,a4,.L95
	li	a4,5
	bgt	a5,a4,.L81
	li	a4,3
	beq	a5,a4,.L96
	li	a4,3
	bgt	a5,a4,.L81
	li	a4,2
	beq	a5,a4,.L97
	li	a4,2
	bgt	a5,a4,.L81
	.loc 1 107 11
	j	.L31
.L80:
	.loc 1 161 11
	nop
	j	.L81
.L82:
	.loc 1 158 11
	nop
	j	.L81
.L83:
	.loc 1 155 11
	nop
	j	.L81
.L84:
	.loc 1 152 11
	nop
	j	.L81
.L85:
	.loc 1 149 11
	nop
	j	.L81
.L86:
	.loc 1 146 11
	nop
	j	.L81
.L87:
	.loc 1 143 11
	nop
	j	.L81
.L88:
	.loc 1 140 11
	nop
	j	.L81
.L89:
	.loc 1 137 11
	nop
	j	.L81
.L90:
	.loc 1 134 11
	nop
	j	.L81
.L91:
	.loc 1 131 11
	nop
	j	.L81
.L92:
	.loc 1 128 11
	nop
	j	.L81
.L93:
	.loc 1 125 11
	nop
	j	.L81
.L94:
	.loc 1 122 11
	nop
	j	.L81
.L95:
	.loc 1 119 11
	nop
	j	.L81
.L96:
	.loc 1 116 11
	nop
	j	.L81
.L97:
	.loc 1 113 11
	nop
.L31:
	.loc 1 164 7
	j	.L81
.L2:
	.loc 1 167 17
	ld	a5,-24(s0)
	lbu	a4,14(a5)
	srliw	a4,a4,1
	andi	a4,a4,0xff
	lbu	a5,15(a5)
	andi	a5,a5,1
	slli	a5,a5,7
	or	a5,a5,a4
	andi	a5,a5,0xff
	sext.w	a5,a5
	.loc 1 167 7
	li	a4,134
	beq	a5,a4,.L98
	li	a4,134
	bgt	a5,a4,.L99
	li	a4,133
	beq	a5,a4,.L100
	li	a4,133
	bgt	a5,a4,.L99
	li	a4,132
	beq	a5,a4,.L101
	li	a4,132
	bgt	a5,a4,.L99
	li	a4,131
	beq	a5,a4,.L102
	li	a4,131
	bgt	a5,a4,.L99
	li	a4,130
	beq	a5,a4,.L103
	li	a4,130
	bgt	a5,a4,.L99
	.loc 1 170 11
	j	.L51
.L98:
	.loc 1 188 11
	nop
	j	.L99
.L100:
	.loc 1 185 11
	nop
	j	.L99
.L101:
	.loc 1 182 11
	nop
	j	.L99
.L102:
	.loc 1 179 11
	nop
	j	.L99
.L103:
	.loc 1 176 11
	nop
.L51:
	.loc 1 191 7
	j	.L99
.L58:
	.loc 1 194 7
	nop
	j	.L104
.L60:
	.loc 1 101 7
	nop
	j	.L104
.L81:
	.loc 1 164 7
	nop
	j	.L104
.L99:
	.loc 1 191 7
	nop
.L104:
	.loc 1 196 1
	nop
	ld	ra,24(sp)
	.cfi_restore 1
	ld	s0,16(sp)
	.cfi_restore 8
	.cfi_def_cfa 2, 32
	addi	sp,sp,32
	.cfi_def_cfa_offset 0
	jr	ra
	.cfi_endproc
.LFE0:
	.size	NvmeDumpStatus, .-NvmeDumpStatus
	.section	.text.NvmeCreatePrpList,"ax",@progbits
	.align	1
	.globl	NvmeCreatePrpList
	.type	NvmeCreatePrpList, @function
NvmeCreatePrpList:
.LFB1:
	.loc 1 221 1
	.cfi_startproc
	addi	sp,sp,-128
	.cfi_def_cfa_offset 128
	sd	ra,120(sp)
	sd	s0,112(sp)
	.cfi_offset 1, -8
	.cfi_offset 8, -16
	addi	s0,sp,128
	.cfi_def_cfa 8, 0
	sd	a0,-88(s0)
	sd	a1,-96(s0)
	sd	a2,-104(s0)
	sd	a3,-112(s0)
	sd	a4,-120(s0)
	sd	a5,-128(s0)
	.loc 1 234 14
	li	a5,512
	sd	a5,-40(s0)
	.loc 1 239 77
	ld	a5,-40(s0)
	addi	a5,a5,-1
	.loc 1 239 23
	addi	a4,s0,-64
	mv	a2,a4
	mv	a1,a5
	ld	a0,-104(s0)
	call	DivU64x64Remainder@plt
	mv	a4,a0
	.loc 1 239 14 discriminator 1
	ld	a5,-120(s0)
	sd	a4,0(a5)
	.loc 1 240 7
	ld	a5,-120(s0)
	ld	a5,0(a5)
	.loc 1 240 6
	bne	a5,zero,.L106
	.loc 1 241 16
	ld	a5,-120(s0)
	li	a4,1
	sd	a4,0(a5)
	j	.L107
.L106:
	.loc 1 242 25
	ld	a5,-64(s0)
	.loc 1 242 13
	beq	a5,zero,.L108
	.loc 1 242 45 discriminator 1
	ld	a4,-64(s0)
	.loc 1 242 31 discriminator 1
	li	a5,1
	beq	a4,a5,.L108
	.loc 1 243 5
	ld	a5,-120(s0)
	ld	a5,0(a5)
	.loc 1 243 16
	addi	a4,a5,1
	ld	a5,-120(s0)
	sd	a4,0(a5)
	j	.L107
.L108:
	.loc 1 244 24
	ld	a4,-64(s0)
	.loc 1 244 13
	li	a5,1
	bne	a4,a5,.L109
	.loc 1 245 15
	ld	a5,-40(s0)
	sd	a5,-64(s0)
	j	.L107
.L109:
	.loc 1 246 24
	ld	a5,-64(s0)
	.loc 1 246 13
	bne	a5,zero,.L107
	.loc 1 247 28
	ld	a5,-40(s0)
	addi	a5,a5,-1
	.loc 1 247 15
	sd	a5,-64(s0)
.L107:
	.loc 1 250 17
	ld	a5,-88(s0)
	ld	a6,88(a5)
	.loc 1 250 12
	ld	a5,-120(s0)
	ld	a3,0(a5)
	li	a5,0
	ld	a4,-112(s0)
	li	a2,4
	li	a1,0
	ld	a0,-88(s0)
	jalr	a6
.LVL0:
	sd	a0,-48(s0)
	.loc 1 259 34
	ld	a5,-48(s0)
	.loc 1 259 6
	bge	a5,zero,.L110
	.loc 1 260 12
	li	a5,0
	j	.L123
.L110:
	.loc 1 263 13
	ld	a5,-120(s0)
	ld	a5,0(a5)
	.loc 1 263 25
	slli	a5,a5,12
	.loc 1 263 9
	sd	a5,-80(s0)
	.loc 1 264 17
	ld	a5,-88(s0)
	ld	a6,72(a5)
	.loc 1 264 12
	ld	a5,-112(s0)
	ld	a2,0(a5)
	addi	a4,s0,-72
	addi	a3,s0,-80
	ld	a5,-128(s0)
	li	a1,2
	ld	a0,-88(s0)
	jalr	a6
.LVL1:
	sd	a0,-48(s0)
	.loc 1 273 34
	ld	a5,-48(s0)
	.loc 1 273 6
	blt	a5,zero,.L124
	.loc 1 273 75 discriminator 1
	ld	a5,-120(s0)
	ld	a5,0(a5)
	.loc 1 273 87 discriminator 1
	slli	a4,a5,12
	.loc 1 273 70 discriminator 1
	ld	a5,-80(s0)
	.loc 1 273 60 discriminator 1
	bne	a4,a5,.L124
	.loc 1 281 3
	ld	a5,-112(s0)
	ld	a5,0(a5)
	ld	a4,-80(s0)
	mv	a1,a4
	mv	a0,a5
	call	ZeroMem@plt
	.loc 1 282 21
	sd	zero,-24(s0)
	.loc 1 282 3
	j	.L115
.L120:
	.loc 1 283 19
	ld	a5,-112(s0)
	ld	a4,0(a5)
	.loc 1 283 57
	ld	a5,-24(s0)
	slli	a5,a5,12
	.loc 1 283 17
	add	a5,a4,a5
	sd	a5,-56(s0)
	.loc 1 285 24
	sd	zero,-32(s0)
	.loc 1 285 5
	j	.L116
.L119:
	.loc 1 286 39
	ld	a5,-40(s0)
	addi	a5,a5,-1
	.loc 1 286 10
	ld	a4,-32(s0)
	beq	a4,a5,.L117
	.loc 1 290 40
	ld	a5,-32(s0)
	slli	a4,a5,3
	ld	a5,-56(s0)
	add	a5,a4,a5
	mv	a4,a5
	.loc 1 290 57
	ld	a5,-96(s0)
	sd	a5,0(a4)
	.loc 1 291 22
	ld	a4,-96(s0)
	li	a5,4096
	add	a5,a4,a5
	sd	a5,-96(s0)
	j	.L118
.L117:
	.loc 1 296 90
	ld	a5,-24(s0)
	addi	a5,a5,1
	.loc 1 296 95
	slli	a4,a5,12
	.loc 1 296 74
	ld	a5,-72(s0)
	.loc 1 296 40
	ld	a3,-32(s0)
	slli	a2,a3,3
	ld	a3,-56(s0)
	add	a3,a2,a3
	.loc 1 296 74
	add	a5,a4,a5
	.loc 1 296 57
	sd	a5,0(a3)
.L118:
	.loc 1 285 57 discriminator 2
	ld	a5,-32(s0)
	addi	a5,a5,1
	sd	a5,-32(s0)
.L116:
	.loc 1 285 43 discriminator 1
	ld	a4,-32(s0)
	ld	a5,-40(s0)
	bltu	a4,a5,.L119
	.loc 1 282 57 discriminator 2
	ld	a5,-24(s0)
	addi	a5,a5,1
	sd	a5,-24(s0)
.L115:
	.loc 1 282 41 discriminator 1
	ld	a5,-120(s0)
	ld	a5,0(a5)
	.loc 1 282 52 discriminator 1
	addi	a5,a5,-1
	.loc 1 282 39 discriminator 1
	ld	a4,-24(s0)
	bltu	a4,a5,.L120
	.loc 1 304 17
	ld	a5,-112(s0)
	ld	a4,0(a5)
	.loc 1 304 55
	ld	a5,-24(s0)
	slli	a5,a5,12
	.loc 1 304 15
	add	a5,a4,a5
	sd	a5,-56(s0)
	.loc 1 305 22
	sd	zero,-32(s0)
	.loc 1 305 3
	j	.L121
.L122:
	.loc 1 306 36
	ld	a5,-32(s0)
	slli	a4,a5,3
	ld	a5,-56(s0)
	add	a5,a4,a5
	mv	a4,a5
	.loc 1 306 53
	ld	a5,-96(s0)
	sd	a5,0(a4)
	.loc 1 307 18
	ld	a4,-96(s0)
	li	a5,4096
	add	a5,a4,a5
	sd	a5,-96(s0)
	.loc 1 305 54 discriminator 3
	ld	a5,-32(s0)
	addi	a5,a5,1
	sd	a5,-32(s0)
.L121:
	.loc 1 305 41 discriminator 1
	ld	a5,-64(s0)
	ld	a4,-32(s0)
	bltu	a4,a5,.L122
	.loc 1 310 10
	ld	a5,-72(s0)
	j	.L123
.L124:
	.loc 1 275 5
	nop
.L114:
	.loc 1 313 8
	ld	a5,-88(s0)
	ld	a5,96(a5)
	.loc 1 313 3
	ld	a4,-120(s0)
	ld	a3,0(a4)
	ld	a4,-112(s0)
	ld	a4,0(a4)
	mv	a2,a4
	mv	a1,a3
	ld	a0,-88(s0)
	jalr	a5
.LVL2:
	.loc 1 314 10
	li	a5,0
.L123:
	.loc 1 315 1
	mv	a0,a5
	ld	ra,120(sp)
	.cfi_restore 1
	ld	s0,112(sp)
	.cfi_restore 8
	.cfi_def_cfa 2, 128
	addi	sp,sp,128
	.cfi_def_cfa_offset 0
	jr	ra
	.cfi_endproc
.LFE1:
	.size	NvmeCreatePrpList, .-NvmeCreatePrpList
	.section	.text.AbortAsyncPassThruTasks,"ax",@progbits
	.align	1
	.globl	AbortAsyncPassThruTasks
	.type	AbortAsyncPassThruTasks, @function
AbortAsyncPassThruTasks:
.LFB2:
	.loc 1 331 1
	.cfi_startproc
	addi	sp,sp,-112
	.cfi_def_cfa_offset 112
	sd	ra,104(sp)
	sd	s0,96(sp)
	.cfi_offset 1, -8
	.cfi_offset 8, -16
	addi	s0,sp,112
	.cfi_def_cfa 8, 0
	sd	a0,-104(s0)
	.loc 1 342 9
	ld	a5,-104(s0)
	ld	a5,32(a5)
	sd	a5,-56(s0)
	.loc 1 343 15
	la	a5,gBS
	ld	a5,0(a5)
	ld	a5,24(a5)
	.loc 1 343 12
	li	a0,16
	jalr	a5
.LVL3:
	sd	a0,-64(s0)
	.loc 1 348 29
	ld	a5,-104(s0)
	addi	a5,a5,312
	.loc 1 348 15
	mv	a0,a5
	call	GetFirstNode@plt
	sd	a0,-24(s0)
	.loc 1 348 3
	j	.L126
.L130:
	.loc 1 352 29
	ld	a5,-104(s0)
	addi	a5,a5,312
	.loc 1 352 16
	ld	a1,-24(s0)
	mv	a0,a5
	call	GetNextNode@plt
	sd	a0,-72(s0)
	.loc 1 353 17
	ld	a5,-24(s0)
	addi	a5,a5,-8
	.loc 1 353 127
	lw	a4,0(a5)
	.loc 1 353 212
	li	a5,1395802112
	addi	a5,a5,590
	bne	a4,a5,.L127
	.loc 1 353 13 discriminator 1
	ld	a5,-24(s0)
	addi	a5,a5,-8
	sd	a5,-32(s0)
	j	.L128
.L127:
	.loc 1 353 13 is_stmt 0 discriminator 2
	sd	zero,-32(s0)
.L128:
	.loc 1 354 19 is_stmt 1
	ld	a5,-32(s0)
	ld	a5,48(a5)
	sd	a5,-80(s0)
	.loc 1 355 11
	ld	a5,-80(s0)
	ld	a5,24(a5)
	sd	a5,-88(s0)
	.loc 1 357 18
	ld	a5,-80(s0)
	ld	a5,32(a5)
	.loc 1 357 41
	addi	a4,a5,-1
	ld	a5,-80(s0)
	sd	a4,32(a5)
	.loc 1 358 16
	ld	a5,-32(s0)
	lbu	a5,24(a5)
	.loc 1 358 8
	beq	a5,zero,.L129
	.loc 1 359 43
	ld	a5,-80(s0)
	li	a4,1
	sb	a4,40(a5)
.L129:
	.loc 1 362 30
	ld	a5,-88(s0)
	li	a4,-1
	slli	a4,a4,63
	addi	a4,a4,21
	sd	a4,8(a5)
	.loc 1 364 5
	ld	a0,-24(s0)
	call	RemoveEntryList@plt
	.loc 1 365 5
	ld	a5,-80(s0)
	addi	a5,a5,48
	ld	a1,-24(s0)
	mv	a0,a5
	call	InsertTailList@plt
	.loc 1 366 8
	la	a5,gBS
	ld	a5,0(a5)
	ld	a5,104(a5)
	.loc 1 366 5
	ld	a4,-32(s0)
	ld	a4,32(a4)
	mv	a0,a4
	jalr	a5
.LVL4:
	.loc 1 350 13
	ld	a5,-72(s0)
	sd	a5,-24(s0)
.L126:
	.loc 1 349 17
	ld	a5,-104(s0)
	addi	a5,a5,312
	.loc 1 349 9
	ld	a1,-24(s0)
	mv	a0,a5
	call	IsNull@plt
	mv	a5,a0
	.loc 1 349 8 discriminator 1
	beq	a5,zero,.L130
	.loc 1 372 29
	ld	a5,-104(s0)
	addi	a5,a5,296
	.loc 1 372 15
	mv	a0,a5
	call	GetFirstNode@plt
	sd	a0,-24(s0)
	.loc 1 372 3
	j	.L131
.L138:
	.loc 1 376 29
	ld	a5,-104(s0)
	addi	a5,a5,296
	.loc 1 376 16
	ld	a1,-24(s0)
	mv	a0,a5
	call	GetNextNode@plt
	sd	a0,-72(s0)
	.loc 1 377 22
	ld	a5,-24(s0)
	addi	a5,a5,-8
	.loc 1 377 142
	lw	a4,0(a5)
	.loc 1 377 227
	li	a5,1380012032
	addi	a5,a5,78
	bne	a4,a5,.L132
	.loc 1 377 18 discriminator 1
	ld	a5,-24(s0)
	addi	a5,a5,-8
	sd	a5,-40(s0)
	j	.L133
.L132:
	.loc 1 377 18 is_stmt 0 discriminator 2
	sd	zero,-40(s0)
.L133:
	.loc 1 379 21 is_stmt 1
	ld	a5,-40(s0)
	ld	a5,64(a5)
	.loc 1 379 8
	beq	a5,zero,.L134
	.loc 1 380 12
	ld	a5,-56(s0)
	ld	a5,80(a5)
	.loc 1 380 7
	ld	a4,-40(s0)
	ld	a4,64(a4)
	mv	a1,a4
	ld	a0,-56(s0)
	jalr	a5
.LVL5:
.L134:
	.loc 1 383 21
	ld	a5,-40(s0)
	ld	a5,72(a5)
	.loc 1 383 8
	beq	a5,zero,.L135
	.loc 1 384 12
	ld	a5,-56(s0)
	ld	a5,80(a5)
	.loc 1 384 7
	ld	a4,-40(s0)
	ld	a4,72(a4)
	mv	a1,a4
	ld	a0,-56(s0)
	jalr	a5
.LVL6:
.L135:
	.loc 1 387 21
	ld	a5,-40(s0)
	ld	a5,40(a5)
	.loc 1 387 8
	beq	a5,zero,.L136
	.loc 1 388 12
	ld	a5,-56(s0)
	ld	a5,80(a5)
	.loc 1 388 7
	ld	a4,-40(s0)
	ld	a4,40(a4)
	mv	a1,a4
	ld	a0,-56(s0)
	jalr	a5
.LVL7:
.L136:
	.loc 1 391 21
	ld	a5,-40(s0)
	ld	a5,56(a5)
	.loc 1 391 8
	beq	a5,zero,.L137
	.loc 1 392 12
	ld	a5,-56(s0)
	ld	a5,96(a5)
	.loc 1 392 7
	ld	a4,-40(s0)
	ld	a3,48(a4)
	ld	a4,-40(s0)
	ld	a4,56(a4)
	mv	a2,a4
	mv	a1,a3
	ld	a0,-56(s0)
	jalr	a5
.LVL8:
.L137:
	.loc 1 399 5
	ld	a0,-24(s0)
	call	RemoveEntryList@plt
	.loc 1 400 8
	la	a5,gBS
	ld	a5,0(a5)
	ld	a5,104(a5)
	.loc 1 400 5
	ld	a4,-40(s0)
	ld	a4,80(a4)
	mv	a0,a4
	jalr	a5
.LVL9:
	.loc 1 401 5
	ld	a0,-40(s0)
	call	FreePool@plt
	.loc 1 374 13
	ld	a5,-72(s0)
	sd	a5,-24(s0)
.L131:
	.loc 1 373 17
	ld	a5,-104(s0)
	addi	a5,a5,296
	.loc 1 373 9
	ld	a1,-24(s0)
	mv	a0,a5
	call	IsNull@plt
	mv	a5,a0
	.loc 1 373 8 discriminator 1
	beq	a5,zero,.L138
	.loc 1 404 20
	ld	a5,-104(s0)
	addi	a5,a5,296
	.loc 1 404 7
	mv	a0,a5
	call	IsListEmpty@plt
	mv	a5,a0
	.loc 1 404 6 discriminator 1
	beq	a5,zero,.L139
	.loc 1 405 20
	ld	a5,-104(s0)
	addi	a5,a5,312
	.loc 1 405 7
	mv	a0,a5
	call	IsListEmpty@plt
	mv	a5,a0
	.loc 1 404 50 discriminator 2
	beq	a5,zero,.L139
	.loc 1 407 12
	sd	zero,-48(s0)
	j	.L140
.L139:
	.loc 1 409 12
	li	a5,-1
	slli	a5,a5,63
	addi	a5,a5,7
	sd	a5,-48(s0)
.L140:
	.loc 1 412 6
	la	a5,gBS
	ld	a5,0(a5)
	ld	a5,32(a5)
	.loc 1 412 3
	ld	a0,-64(s0)
	jalr	a5
.LVL10:
	.loc 1 414 10
	ld	a5,-48(s0)
	.loc 1 415 1
	mv	a0,a5
	ld	ra,104(sp)
	.cfi_restore 1
	ld	s0,96(sp)
	.cfi_restore 8
	.cfi_def_cfa 2, 112
	addi	sp,sp,112
	.cfi_def_cfa_offset 0
	jr	ra
	.cfi_endproc
.LFE2:
	.size	AbortAsyncPassThruTasks, .-AbortAsyncPassThruTasks
	.section	.text.NvmExpressPassThru,"ax",@progbits
	.align	1
	.globl	NvmExpressPassThru
	.type	NvmExpressPassThru, @function
NvmExpressPassThru:
.LFB3:
	.loc 1 457 1
	.cfi_startproc
	addi	sp,sp,-256
	.cfi_def_cfa_offset 256
	sd	ra,248(sp)
	sd	s0,240(sp)
	sd	s1,232(sp)
	sd	s2,224(sp)
	.cfi_offset 1, -8
	.cfi_offset 8, -16
	.cfi_offset 9, -24
	.cfi_offset 18, -32
	addi	s0,sp,256
	.cfi_def_cfa 8, 0
	sd	a0,-232(s0)
	mv	a5,a1
	sd	a2,-248(s0)
	sd	a3,-256(s0)
	sw	a5,-236(s0)
	.loc 1 488 6
	ld	a5,-232(s0)
	beq	a5,zero,.L143
	.loc 1 488 30 discriminator 1
	ld	a5,-248(s0)
	bne	a5,zero,.L144
.L143:
	.loc 1 489 12
	li	a5,-1
	slli	a5,a5,63
	addi	a5,a5,2
	j	.L215
.L144:
	.loc 1 492 14
	ld	a5,-248(s0)
	ld	a5,40(a5)
	.loc 1 492 6
	beq	a5,zero,.L146
	.loc 1 492 51 discriminator 1
	ld	a5,-248(s0)
	ld	a5,48(a5)
	.loc 1 492 41 discriminator 1
	bne	a5,zero,.L147
.L146:
	.loc 1 493 12
	li	a5,-1
	slli	a5,a5,63
	addi	a5,a5,2
	j	.L215
.L147:
	.loc 1 496 14
	ld	a5,-248(s0)
	lbu	a5,36(a5)
	.loc 1 496 6
	beq	a5,zero,.L148
	.loc 1 496 45 discriminator 1
	ld	a5,-248(s0)
	lbu	a5,36(a5)
	.loc 1 496 35 discriminator 1
	mv	a4,a5
	li	a5,1
	beq	a4,a5,.L148
	.loc 1 497 12
	li	a5,-1
	slli	a5,a5,63
	addi	a5,a5,2
	j	.L215
.L148:
	.loc 1 505 20
	ld	a5,-232(s0)
	ld	a5,0(a5)
	.loc 1 505 14
	lw	a5,0(a5)
	sw	a5,-68(s0)
	.loc 1 506 19
	lw	a5,-68(s0)
	andi	a5,a5,3
	sext.w	a5,a5
	.loc 1 506 6
	bne	a5,zero,.L149
	.loc 1 509 12
	li	a5,-1
	slli	a5,a5,63
	addi	a5,a5,2
	j	.L215
.L149:
	.loc 1 515 17
	ld	a5,-232(s0)
	ld	a5,0(a5)
	.loc 1 515 11
	lw	a5,4(a5)
	sw	a5,-72(s0)
	.loc 1 516 6
	lw	a5,-72(s0)
	sext.w	a5,a5
	beq	a5,zero,.L150
	.loc 1 516 39 discriminator 1
	ld	a5,-248(s0)
	ld	a5,8(a5)
	.loc 1 516 26 discriminator 1
	mv	a4,a5
	.loc 1 516 67 discriminator 1
	lw	a5,-72(s0)
	addiw	a5,a5,-1
	sext.w	a5,a5
	slli	a5,a5,32
	srli	a5,a5,32
	.loc 1 516 56 discriminator 1
	and	a5,a4,a5
	.loc 1 516 21 discriminator 1
	beq	a5,zero,.L150
	.loc 1 517 12
	li	a5,-1
	slli	a5,a5,63
	addi	a5,a5,2
	j	.L215
.L150:
	.loc 1 520 6
	lw	a5,-72(s0)
	sext.w	a5,a5
	beq	a5,zero,.L151
	.loc 1 520 39 discriminator 1
	ld	a5,-248(s0)
	ld	a5,24(a5)
	.loc 1 520 26 discriminator 1
	mv	a4,a5
	.loc 1 520 67 discriminator 1
	lw	a5,-72(s0)
	addiw	a5,a5,-1
	sext.w	a5,a5
	slli	a5,a5,32
	srli	a5,a5,32
	.loc 1 520 56 discriminator 1
	and	a5,a4,a5
	.loc 1 520 21 discriminator 1
	beq	a5,zero,.L151
	.loc 1 521 12
	li	a5,-1
	slli	a5,a5,63
	addi	a5,a5,2
	j	.L215
.L151:
	.loc 1 524 15
	ld	a5,-232(s0)
	addi	a5,a5,-72
	.loc 1 524 147
	lw	a4,0(a5)
	.loc 1 524 232
	li	a5,1162694656
	addi	a5,a5,1614
	bne	a4,a5,.L152
	.loc 1 524 11 discriminator 1
	ld	a5,-232(s0)
	addi	a5,a5,-72
	sd	a5,-48(s0)
	j	.L153
.L152:
	.loc 1 524 11 is_stmt 0 discriminator 2
	sd	zero,-48(s0)
.L153:
	.loc 1 529 29 is_stmt 1
	ld	a5,-48(s0)
	ld	a5,112(a5)
	.loc 1 529 45
	lbu	a4,516(a5)
	lbu	a3,517(a5)
	slli	a3,a3,8
	or	a4,a3,a4
	lbu	a3,518(a5)
	slli	a3,a3,16
	or	a4,a3,a4
	lbu	a5,519(a5)
	slli	a5,a5,24
	or	a5,a5,a4
	sext.w	a5,a5
	.loc 1 529 6
	lw	a4,-236(s0)
	sext.w	a4,a4
	bleu	a4,a5,.L154
	.loc 1 529 51 discriminator 1
	lw	a5,-236(s0)
	sext.w	a4,a5
	li	a5,-1
	beq	a4,a5,.L154
	.loc 1 532 12
	li	a5,-1
	slli	a5,a5,63
	addi	a5,a5,2
	j	.L215
.L154:
	.loc 1 538 14
	ld	a5,-48(s0)
	ld	a5,112(a5)
	.loc 1 538 30
	lbu	a5,77(a5)
	.loc 1 538 6
	beq	a5,zero,.L155
	.loc 1 539 33
	ld	a5,-48(s0)
	ld	a5,112(a5)
	.loc 1 539 49
	lbu	a5,77(a5)
	sext.w	a5,a5
	.loc 1 539 22
	li	a4,1
	sllw	a5,a4,a5
	sext.w	a4,a5
	.loc 1 540 38
	ld	a5,-48(s0)
	ld	a5,272(a5)
	srli	a5,a5,16
	andi	a5,a5,15
	andi	a5,a5,0xff
	sext.w	a5,a5
	.loc 1 540 46
	addiw	a5,a5,12
	sext.w	a5,a5
	.loc 1 539 58
	sllw	a5,a4,a5
	sext.w	a5,a5
	.loc 1 539 17
	sw	a5,-76(s0)
	.loc 1 541 15
	ld	a5,-248(s0)
	lw	a5,16(a5)
	.loc 1 541 8
	lw	a4,-76(s0)
	sext.w	a4,a4
	bgeu	a4,a5,.L155
	.loc 1 542 30
	ld	a5,-248(s0)
	lw	a4,-76(s0)
	sw	a4,16(a5)
	.loc 1 543 14
	li	a5,-1
	slli	a5,a5,63
	addi	a5,a5,4
	j	.L215
.L155:
	.loc 1 547 9
	ld	a5,-48(s0)
	ld	a5,32(a5)
	sd	a5,-88(s0)
	.loc 1 548 11
	sd	zero,-168(s0)
	.loc 1 549 11
	sd	zero,-176(s0)
	.loc 1 550 14
	sd	zero,-184(s0)
	.loc 1 551 15
	sd	zero,-200(s0)
	.loc 1 552 13
	sd	zero,-208(s0)
	.loc 1 553 7
	sd	zero,-64(s0)
	.loc 1 554 14
	sd	zero,-152(s0)
	.loc 1 555 10
	sd	zero,-40(s0)
	.loc 1 556 37
	ld	a5,-48(s0)
	lhu	a5,268(a5)
	.loc 1 556 52
	slliw	a4,a5,16
	srliw	a4,a4,16
	sext.w	a3,a4
	li	a4,63
	bleu	a3,a4,.L156
	li	a5,63
.L156:
	slli	a5,a5,48
	srli	a5,a5,48
	.loc 1 556 13
	addiw	a5,a5,1
	sh	a5,-90(s0)
	.loc 1 558 13
	ld	a5,-248(s0)
	lbu	a5,36(a5)
	.loc 1 558 6
	bne	a5,zero,.L157
	.loc 1 559 13
	sh	zero,-50(s0)
	j	.L158
.L157:
	.loc 1 561 8
	ld	a5,-256(s0)
	bne	a5,zero,.L159
	.loc 1 562 15
	li	a5,1
	sh	a5,-50(s0)
	j	.L158
.L159:
	.loc 1 564 15
	li	a5,2
	sh	a5,-50(s0)
	.loc 1 569 36
	lhu	a5,-50(s0)
	sext.w	a5,a5
	ld	a4,-48(s0)
	addi	a5,a5,56
	slli	a5,a5,2
	add	a5,a4,a5
	lhu	a5,8(a5)
	sext.w	a5,a5
	.loc 1 569 41
	addiw	a5,a5,1
	sext.w	a4,a5
	.loc 1 569 46
	lhu	a5,-90(s0)
	sext.w	a5,a5
	remw	a5,a4,a5
	sext.w	a4,a5
	.loc 1 570 18
	ld	a5,-48(s0)
	lhu	a5,256(a5)
	sext.w	a5,a5
	.loc 1 569 10
	bne	a4,a5,.L158
	.loc 1 572 16
	li	a5,-1
	slli	a5,a5,63
	addi	a5,a5,6
	j	.L215
.L158:
	.loc 1 577 25
	lhu	a5,-50(s0)
	sext.w	a5,a5
	ld	a4,-48(s0)
	addi	a5,a5,16
	slli	a5,a5,3
	add	a5,a4,a5
	ld	a4,8(a5)
	.loc 1 577 61
	lhu	a5,-50(s0)
	sext.w	a5,a5
	ld	a3,-48(s0)
	addi	a5,a5,56
	slli	a5,a5,2
	add	a5,a3,a5
	lhu	a5,8(a5)
	.loc 1 577 35
	slli	a5,a5,6
	.loc 1 577 6
	add	a5,a4,a5
	sd	a5,-104(s0)
	.loc 1 578 25
	lhu	a5,-50(s0)
	sext.w	a5,a5
	ld	a4,-48(s0)
	addi	a5,a5,20
	slli	a5,a5,3
	add	a5,a4,a5
	ld	a4,0(a5)
	.loc 1 578 61
	lhu	a5,-50(s0)
	sext.w	a5,a5
	ld	a3,-48(s0)
	addi	a5,a5,60
	slli	a5,a5,2
	add	a5,a3,a5
	lhu	a5,4(a5)
	.loc 1 578 35
	slli	a5,a5,4
	.loc 1 578 6
	add	a5,a4,a5
	sd	a5,-112(s0)
	.loc 1 580 13
	ld	a5,-248(s0)
	ld	a5,40(a5)
	.loc 1 580 22
	lw	a5,8(a5)
	.loc 1 580 6
	lw	a4,-236(s0)
	sext.w	a4,a4
	beq	a4,a5,.L160
	.loc 1 581 12
	li	a5,-1
	slli	a5,a5,63
	addi	a5,a5,2
	j	.L215
.L160:
	.loc 1 584 3
	li	a1,64
	ld	a0,-104(s0)
	call	ZeroMem@plt
	.loc 1 585 26
	ld	a5,-248(s0)
	ld	a5,40(a5)
	.loc 1 585 13
	lbu	a4,0(a5)
	.loc 1 585 11
	ld	a5,-104(s0)
	sb	a4,0(a5)
	.loc 1 586 27
	ld	a5,-248(s0)
	ld	a5,40(a5)
	.loc 1 586 42
	lw	a5,0(a5)
	srliw	a5,a5,8
	andi	a5,a5,3
	andi	a4,a5,0xff
	.loc 1 586 12
	ld	a5,-104(s0)
	andi	a4,a4,3
	lbu	a3,1(a5)
	andi	a3,a3,-4
	or	a4,a3,a4
	sb	a4,1(a5)
	.loc 1 587 25
	lhu	a5,-50(s0)
	sext.w	a3,a5
	ld	a4,-48(s0)
	addi	a5,a3,128
	slli	a5,a5,1
	add	a5,a4,a5
	lhu	a4,6(a5)
	.loc 1 587 34
	addiw	a5,a4,1
	slli	a2,a5,48
	srli	a2,a2,48
	ld	a1,-48(s0)
	addi	a5,a3,128
	slli	a5,a5,1
	add	a5,a1,a5
	sh	a2,6(a5)
	.loc 1 587 11
	ld	a5,-104(s0)
	andi	a3,a4,255
	lbu	a2,2(a5)
	andi	a2,a2,0
	or	a3,a2,a3
	sb	a3,2(a5)
	srliw	a4,a4,8
	slli	a4,a4,48
	srli	a4,a4,48
	lbu	a3,3(a5)
	andi	a3,a3,0
	or	a4,a3,a4
	sb	a4,3(a5)
	.loc 1 588 20
	ld	a5,-248(s0)
	ld	a5,40(a5)
	.loc 1 588 29
	lw	a4,8(a5)
	.loc 1 588 12
	ld	a5,-104(s0)
	slli	a3,a4,32
	srli	a3,a3,32
	andi	a3,a3,255
	lbu	a2,4(a5)
	andi	a2,a2,0
	or	a3,a2,a3
	sb	a3,4(a5)
	srliw	a3,a4,8
	slli	a3,a3,32
	srli	a3,a3,32
	andi	a3,a3,255
	lbu	a2,5(a5)
	andi	a2,a2,0
	or	a3,a2,a3
	sb	a3,5(a5)
	srliw	a3,a4,16
	slli	a3,a3,32
	srli	a3,a3,32
	andi	a3,a3,255
	lbu	a2,6(a5)
	andi	a2,a2,0
	or	a3,a2,a3
	sb	a3,6(a5)
	srliw	a4,a4,24
	slli	a4,a4,32
	srli	a4,a4,32
	lbu	a3,7(a5)
	andi	a3,a3,0
	or	a4,a3,a4
	sb	a4,7(a5)
	.loc 1 594 16
	ld	a5,-104(s0)
	lbu	a5,1(a5)
	andi	a5,a5,-128
	andi	a5,a5,0xff
	.loc 1 594 6
	beq	a5,zero,.L161
	.loc 1 596 12
	li	a5,-1
	slli	a5,a5,63
	addi	a5,a5,3
	j	.L215
.L161:
	.loc 1 599 37
	ld	a5,-248(s0)
	ld	a5,8(a5)
	.loc 1 599 16
	mv	a4,a5
	.loc 1 599 14
	ld	a5,-104(s0)
	andi	a3,a4,255
	lbu	a2,24(a5)
	andi	a2,a2,0
	or	a3,a2,a3
	sb	a3,24(a5)
	srli	a3,a4,8
	andi	a3,a3,255
	lbu	a2,25(a5)
	andi	a2,a2,0
	or	a3,a2,a3
	sb	a3,25(a5)
	srli	a3,a4,16
	andi	a3,a3,255
	lbu	a2,26(a5)
	andi	a2,a2,0
	or	a3,a2,a3
	sb	a3,26(a5)
	srli	a3,a4,24
	andi	a3,a3,255
	lbu	a2,27(a5)
	andi	a2,a2,0
	or	a3,a2,a3
	sb	a3,27(a5)
	srli	a3,a4,32
	andi	a3,a3,255
	lbu	a2,28(a5)
	andi	a2,a2,0
	or	a3,a2,a3
	sb	a3,28(a5)
	srli	a3,a4,40
	andi	a3,a3,255
	lbu	a2,29(a5)
	andi	a2,a2,0
	or	a3,a2,a3
	sb	a3,29(a5)
	srli	a3,a4,48
	andi	a3,a3,255
	lbu	a2,30(a5)
	andi	a2,a2,0
	or	a3,a2,a3
	sb	a3,30(a5)
	srli	a4,a4,56
	lbu	a3,31(a5)
	andi	a3,a3,0
	or	a4,a3,a4
	sb	a4,31(a5)
	.loc 1 600 14
	ld	a5,-248(s0)
	lbu	a5,36(a5)
	.loc 1 600 6
	bne	a5,zero,.L162
	.loc 1 601 11
	ld	a5,-104(s0)
	lbu	a5,0(a5)
	.loc 1 600 35 discriminator 1
	mv	a4,a5
	li	a5,5
	beq	a4,a5,.L163
	.loc 1 601 32
	ld	a5,-104(s0)
	lbu	a5,0(a5)
	.loc 1 601 26
	mv	a4,a5
	li	a5,1
	bne	a4,a5,.L162
.L163:
	.loc 1 610 17
	ld	a5,-48(s0)
	lbu	a5,258(a5)
	.loc 1 610 8
	bne	a5,zero,.L165
	.loc 1 612 14
	li	a5,-1
	slli	a5,a5,63
	addi	a5,a5,3
	j	.L215
.L162:
	.loc 1 614 17
	ld	a5,-104(s0)
	lbu	a5,0(a5)
	.loc 1 614 23
	sext.w	a5,a5
	andi	a5,a5,3
	sext.w	a5,a5
	.loc 1 614 13
	beq	a5,zero,.L165
	.loc 1 618 17
	ld	a5,-248(s0)
	lw	a5,16(a5)
	.loc 1 618 8
	beq	a5,zero,.L166
	.loc 1 618 50 discriminator 1
	ld	a5,-248(s0)
	ld	a5,8(a5)
	.loc 1 618 40 discriminator 1
	beq	a5,zero,.L167
.L166:
	.loc 1 619 17
	ld	a5,-248(s0)
	lw	a5,16(a5)
	.loc 1 618 85 discriminator 3
	bne	a5,zero,.L168
	.loc 1 619 50
	ld	a5,-248(s0)
	ld	a5,8(a5)
	.loc 1 619 40
	beq	a5,zero,.L168
.L167:
	.loc 1 621 14
	li	a5,-1
	slli	a5,a5,63
	addi	a5,a5,2
	j	.L215
.L168:
	.loc 1 624 12
	ld	a5,-104(s0)
	lbu	a5,0(a5)
	.loc 1 624 18
	sext.w	a5,a5
	andi	a5,a5,1
	sext.w	a5,a5
	.loc 1 624 8
	beq	a5,zero,.L169
	.loc 1 625 12
	sw	zero,-56(s0)
	j	.L170
.L169:
	.loc 1 627 12
	li	a5,1
	sw	a5,-56(s0)
.L170:
	.loc 1 630 16
	ld	a5,-248(s0)
	lw	a5,16(a5)
	.loc 1 630 8
	beq	a5,zero,.L171
	.loc 1 630 49 discriminator 1
	ld	a5,-248(s0)
	ld	a5,8(a5)
	.loc 1 630 39 discriminator 1
	beq	a5,zero,.L171
	.loc 1 631 25
	ld	a5,-248(s0)
	lw	a5,16(a5)
	slli	a5,a5,32
	srli	a5,a5,32
	.loc 1 631 17
	sd	a5,-192(s0)
	.loc 1 632 21
	ld	a5,-88(s0)
	ld	a6,72(a5)
	.loc 1 632 16
	ld	a5,-248(s0)
	ld	a2,8(a5)
	addi	a5,s0,-168
	addi	a4,s0,-160
	addi	a3,s0,-192
	lw	a1,-56(s0)
	ld	a0,-88(s0)
	jalr	a6
.LVL11:
	sd	a0,-40(s0)
	.loc 1 640 38
	ld	a5,-40(s0)
	.loc 1 640 10
	blt	a5,zero,.L172
	.loc 1 640 74 discriminator 1
	ld	a5,-248(s0)
	lw	a5,16(a5)
	slli	a4,a5,32
	srli	a4,a4,32
	.loc 1 640 91 discriminator 1
	ld	a5,-192(s0)
	.loc 1 640 64 discriminator 1
	beq	a4,a5,.L173
.L172:
	.loc 1 641 16
	li	a5,-1
	slli	a5,a5,63
	addi	a5,a5,9
	j	.L215
.L173:
	.loc 1 644 18
	ld	a4,-160(s0)
	ld	a5,-104(s0)
	andi	a3,a4,255
	lbu	a2,24(a5)
	andi	a2,a2,0
	or	a3,a2,a3
	sb	a3,24(a5)
	srli	a3,a4,8
	andi	a3,a3,255
	lbu	a2,25(a5)
	andi	a2,a2,0
	or	a3,a2,a3
	sb	a3,25(a5)
	srli	a3,a4,16
	andi	a3,a3,255
	lbu	a2,26(a5)
	andi	a2,a2,0
	or	a3,a2,a3
	sb	a3,26(a5)
	srli	a3,a4,24
	andi	a3,a3,255
	lbu	a2,27(a5)
	andi	a2,a2,0
	or	a3,a2,a3
	sb	a3,27(a5)
	srli	a3,a4,32
	andi	a3,a3,255
	lbu	a2,28(a5)
	andi	a2,a2,0
	or	a3,a2,a3
	sb	a3,28(a5)
	srli	a3,a4,40
	andi	a3,a3,255
	lbu	a2,29(a5)
	andi	a2,a2,0
	or	a3,a2,a3
	sb	a3,29(a5)
	srli	a3,a4,48
	andi	a3,a3,255
	lbu	a2,30(a5)
	andi	a2,a2,0
	or	a3,a2,a3
	sb	a3,30(a5)
	srli	a4,a4,56
	lbu	a3,31(a5)
	andi	a3,a3,0
	or	a4,a3,a4
	sb	a4,31(a5)
	.loc 1 645 18
	ld	a5,-104(s0)
	lbu	a4,32(a5)
	andi	a4,a4,0
	sb	a4,32(a5)
	lbu	a4,33(a5)
	andi	a4,a4,0
	sb	a4,33(a5)
	lbu	a4,34(a5)
	andi	a4,a4,0
	sb	a4,34(a5)
	lbu	a4,35(a5)
	andi	a4,a4,0
	sb	a4,35(a5)
	lbu	a4,36(a5)
	andi	a4,a4,0
	sb	a4,36(a5)
	lbu	a4,37(a5)
	andi	a4,a4,0
	sb	a4,37(a5)
	lbu	a4,38(a5)
	andi	a4,a4,0
	sb	a4,38(a5)
	lbu	a4,39(a5)
	andi	a4,a4,0
	sb	a4,39(a5)
.L171:
	.loc 1 648 16
	ld	a5,-248(s0)
	lw	a5,32(a5)
	.loc 1 648 8
	beq	a5,zero,.L165
	.loc 1 648 49 discriminator 1
	ld	a5,-248(s0)
	ld	a5,24(a5)
	.loc 1 648 39 discriminator 1
	beq	a5,zero,.L165
	.loc 1 649 25
	ld	a5,-248(s0)
	lw	a5,32(a5)
	slli	a5,a5,32
	srli	a5,a5,32
	.loc 1 649 17
	sd	a5,-192(s0)
	.loc 1 650 21
	ld	a5,-88(s0)
	ld	a6,72(a5)
	.loc 1 650 16
	ld	a5,-248(s0)
	ld	a2,24(a5)
	addi	a5,s0,-176
	addi	a4,s0,-160
	addi	a3,s0,-192
	lw	a1,-56(s0)
	ld	a0,-88(s0)
	jalr	a6
.LVL12:
	sd	a0,-40(s0)
	.loc 1 658 38
	ld	a5,-40(s0)
	.loc 1 658 10
	blt	a5,zero,.L174
	.loc 1 658 74 discriminator 1
	ld	a5,-248(s0)
	lw	a5,32(a5)
	slli	a4,a5,32
	srli	a4,a4,32
	.loc 1 658 91 discriminator 1
	ld	a5,-192(s0)
	.loc 1 658 64 discriminator 1
	beq	a4,a5,.L175
.L174:
	.loc 1 659 14
	ld	a5,-88(s0)
	ld	a5,80(a5)
	.loc 1 659 9
	ld	a4,-168(s0)
	mv	a1,a4
	ld	a0,-88(s0)
	jalr	a5
.LVL13:
	.loc 1 664 16
	li	a5,-1
	slli	a5,a5,63
	addi	a5,a5,9
	j	.L215
.L175:
	.loc 1 667 16
	ld	a4,-160(s0)
	ld	a5,-104(s0)
	andi	a3,a4,255
	lbu	a2,16(a5)
	andi	a2,a2,0
	or	a3,a2,a3
	sb	a3,16(a5)
	srli	a3,a4,8
	andi	a3,a3,255
	lbu	a2,17(a5)
	andi	a2,a2,0
	or	a3,a2,a3
	sb	a3,17(a5)
	srli	a3,a4,16
	andi	a3,a3,255
	lbu	a2,18(a5)
	andi	a2,a2,0
	or	a3,a2,a3
	sb	a3,18(a5)
	srli	a3,a4,24
	andi	a3,a3,255
	lbu	a2,19(a5)
	andi	a2,a2,0
	or	a3,a2,a3
	sb	a3,19(a5)
	srli	a3,a4,32
	andi	a3,a3,255
	lbu	a2,20(a5)
	andi	a2,a2,0
	or	a3,a2,a3
	sb	a3,20(a5)
	srli	a3,a4,40
	andi	a3,a3,255
	lbu	a2,21(a5)
	andi	a2,a2,0
	or	a3,a2,a3
	sb	a3,21(a5)
	srli	a3,a4,48
	andi	a3,a3,255
	lbu	a2,22(a5)
	andi	a2,a2,0
	or	a3,a2,a3
	sb	a3,22(a5)
	srli	a4,a4,56
	lbu	a3,23(a5)
	andi	a3,a3,0
	or	a4,a3,a4
	sb	a4,23(a5)
.L165:
	.loc 1 675 28
	ld	a5,-104(s0)
	lbu	a4,24(a5)
	lbu	a3,25(a5)
	slli	a3,a3,8
	or	a4,a3,a4
	lbu	a3,26(a5)
	slli	a3,a3,16
	or	a4,a3,a4
	lbu	a3,27(a5)
	slli	a3,a3,24
	or	a4,a3,a4
	lbu	a3,28(a5)
	slli	a3,a3,32
	or	a4,a3,a4
	lbu	a3,29(a5)
	slli	a3,a3,40
	or	a4,a3,a4
	lbu	a3,30(a5)
	slli	a3,a3,48
	or	a4,a3,a4
	lbu	a5,31(a5)
	slli	a5,a5,56
	or	a5,a5,a4
	.loc 1 675 33
	slli	a4,a5,48
	srli	a4,a4,48
	.loc 1 675 10
	li	a5,4096
	addi	a5,a5,-1
	and	a5,a4,a5
	sh	a5,-114(s0)
	.loc 1 676 9
	ld	a5,-248(s0)
	lw	a5,16(a5)
	sw	a5,-120(s0)
	.loc 1 678 15
	lhu	a5,-114(s0)
	sext.w	a5,a5
	lw	a4,-120(s0)
	addw	a5,a4,a5
	sext.w	a4,a5
	.loc 1 678 6
	li	a5,8192
	bleu	a4,a5,.L176
	.loc 1 682 23
	ld	a5,-104(s0)
	lbu	a4,24(a5)
	lbu	a3,25(a5)
	slli	a3,a3,8
	or	a4,a3,a4
	lbu	a3,26(a5)
	slli	a3,a3,16
	or	a4,a3,a4
	lbu	a3,27(a5)
	slli	a3,a3,24
	or	a4,a3,a4
	lbu	a3,28(a5)
	slli	a3,a3,32
	or	a4,a3,a4
	lbu	a3,29(a5)
	slli	a3,a3,40
	or	a4,a3,a4
	lbu	a3,30(a5)
	slli	a3,a3,48
	or	a4,a3,a4
	lbu	a5,31(a5)
	slli	a5,a5,56
	or	a5,a5,a4
	mv	a4,a5
	.loc 1 682 27
	li	a5,4096
	add	a4,a4,a5
	.loc 1 682 41
	li	a5,-4096
	and	a5,a4,a5
	.loc 1 682 13
	sd	a5,-160(s0)
	.loc 1 683 11
	ld	a1,-160(s0)
	.loc 1 683 56
	lhu	a5,-114(s0)
	sext.w	a5,a5
	lw	a4,-120(s0)
	addw	a5,a4,a5
	sext.w	a5,a5
	.loc 1 683 65
	srliw	a5,a5,12
	sext.w	a4,a5
	.loc 1 683 84
	lhu	a5,-114(s0)
	sext.w	a5,a5
	lw	a3,-120(s0)
	addw	a5,a3,a5
	sext.w	a5,a5
	.loc 1 683 93
	mv	a3,a5
	li	a5,4096
	addi	a5,a5,-1
	and	a5,a3,a5
	sext.w	a5,a5
	.loc 1 683 106
	beq	a5,zero,.L177
	.loc 1 683 106 is_stmt 0 discriminator 1
	li	a5,1
	j	.L178
.L177:
	.loc 1 683 106 discriminator 2
	li	a5,0
.L178:
	.loc 1 683 72 is_stmt 1 discriminator 4
	addw	a5,a5,a4
	sext.w	a5,a5
	.loc 1 683 112 discriminator 4
	addiw	a5,a5,-1
	sext.w	a5,a5
	.loc 1 683 11 discriminator 4
	slli	a2,a5,32
	srli	a2,a2,32
	addi	a5,s0,-184
	addi	a4,s0,-208
	addi	a3,s0,-200
	ld	a0,-88(s0)
	call	NvmeCreatePrpList
	sd	a0,-64(s0)
	.loc 1 684 8
	ld	a5,-64(s0)
	bne	a5,zero,.L179
	.loc 1 685 14
	li	a5,-1
	slli	a5,a5,63
	addi	a5,a5,9
	sd	a5,-40(s0)
	.loc 1 686 7
	j	.L180
.L179:
	.loc 1 689 18
	ld	a4,-64(s0)
	.loc 1 689 16
	ld	a5,-104(s0)
	andi	a3,a4,255
	lbu	a2,32(a5)
	andi	a2,a2,0
	or	a3,a2,a3
	sb	a3,32(a5)
	srli	a3,a4,8
	andi	a3,a3,255
	lbu	a2,33(a5)
	andi	a2,a2,0
	or	a3,a2,a3
	sb	a3,33(a5)
	srli	a3,a4,16
	andi	a3,a3,255
	lbu	a2,34(a5)
	andi	a2,a2,0
	or	a3,a2,a3
	sb	a3,34(a5)
	srli	a3,a4,24
	andi	a3,a3,255
	lbu	a2,35(a5)
	andi	a2,a2,0
	or	a3,a2,a3
	sb	a3,35(a5)
	srli	a3,a4,32
	andi	a3,a3,255
	lbu	a2,36(a5)
	andi	a2,a2,0
	or	a3,a2,a3
	sb	a3,36(a5)
	srli	a3,a4,40
	andi	a3,a3,255
	lbu	a2,37(a5)
	andi	a2,a2,0
	or	a3,a2,a3
	sb	a3,37(a5)
	srli	a3,a4,48
	andi	a3,a3,255
	lbu	a2,38(a5)
	andi	a2,a2,0
	or	a3,a2,a3
	sb	a3,38(a5)
	srli	a4,a4,56
	lbu	a3,39(a5)
	andi	a3,a3,0
	or	a4,a3,a4
	sb	a4,39(a5)
	j	.L181
.L176:
	.loc 1 690 22
	lhu	a5,-114(s0)
	sext.w	a5,a5
	lw	a4,-120(s0)
	addw	a5,a4,a5
	sext.w	a4,a5
	.loc 1 690 13
	li	a5,4096
	bleu	a4,a5,.L181
	.loc 1 691 26
	ld	a5,-104(s0)
	lbu	a4,24(a5)
	lbu	a3,25(a5)
	slli	a3,a3,8
	or	a4,a3,a4
	lbu	a3,26(a5)
	slli	a3,a3,16
	or	a4,a3,a4
	lbu	a3,27(a5)
	slli	a3,a3,24
	or	a4,a3,a4
	lbu	a3,28(a5)
	slli	a3,a3,32
	or	a4,a3,a4
	lbu	a3,29(a5)
	slli	a3,a3,40
	or	a4,a3,a4
	lbu	a3,30(a5)
	slli	a3,a3,48
	or	a4,a3,a4
	lbu	a5,31(a5)
	slli	a5,a5,56
	or	a5,a5,a4
	mv	a4,a5
	.loc 1 691 30
	li	a5,4096
	add	a4,a4,a5
	.loc 1 691 44
	li	a5,-4096
	and	a4,a4,a5
	.loc 1 691 16
	ld	a5,-104(s0)
	andi	a3,a4,255
	lbu	a2,32(a5)
	andi	a2,a2,0
	or	a3,a2,a3
	sb	a3,32(a5)
	srli	a3,a4,8
	andi	a3,a3,255
	lbu	a2,33(a5)
	andi	a2,a2,0
	or	a3,a2,a3
	sb	a3,33(a5)
	srli	a3,a4,16
	andi	a3,a3,255
	lbu	a2,34(a5)
	andi	a2,a2,0
	or	a3,a2,a3
	sb	a3,34(a5)
	srli	a3,a4,24
	andi	a3,a3,255
	lbu	a2,35(a5)
	andi	a2,a2,0
	or	a3,a2,a3
	sb	a3,35(a5)
	srli	a3,a4,32
	andi	a3,a3,255
	lbu	a2,36(a5)
	andi	a2,a2,0
	or	a3,a2,a3
	sb	a3,36(a5)
	srli	a3,a4,40
	andi	a3,a3,255
	lbu	a2,37(a5)
	andi	a2,a2,0
	or	a3,a2,a3
	sb	a3,37(a5)
	srli	a3,a4,48
	andi	a3,a3,255
	lbu	a2,38(a5)
	andi	a2,a2,0
	or	a3,a2,a3
	sb	a3,38(a5)
	srli	a4,a4,56
	lbu	a3,39(a5)
	andi	a3,a3,0
	or	a4,a3,a4
	sb	a4,39(a5)
.L181:
	.loc 1 694 13
	ld	a5,-248(s0)
	ld	a5,40(a5)
	.loc 1 694 22
	lbu	a5,4(a5)
	.loc 1 694 30
	sext.w	a5,a5
	andi	a5,a5,1
	sext.w	a5,a5
	.loc 1 694 6
	beq	a5,zero,.L182
	.loc 1 695 31
	ld	a5,-248(s0)
	ld	a5,40(a5)
	.loc 1 695 40
	lw	a5,12(a5)
	.loc 1 695 17
	slli	a4,a5,32
	srli	a4,a4,32
	.loc 1 695 15
	ld	a5,-104(s0)
	andi	a3,a4,255
	lbu	a2,8(a5)
	andi	a2,a2,0
	or	a3,a2,a3
	sb	a3,8(a5)
	srli	a3,a4,8
	andi	a3,a3,255
	lbu	a2,9(a5)
	andi	a2,a2,0
	or	a3,a2,a3
	sb	a3,9(a5)
	srli	a3,a4,16
	andi	a3,a3,255
	lbu	a2,10(a5)
	andi	a2,a2,0
	or	a3,a2,a3
	sb	a3,10(a5)
	srli	a3,a4,24
	andi	a3,a3,255
	lbu	a2,11(a5)
	andi	a2,a2,0
	or	a3,a2,a3
	sb	a3,11(a5)
	srli	a3,a4,32
	andi	a3,a3,255
	lbu	a2,12(a5)
	andi	a2,a2,0
	or	a3,a2,a3
	sb	a3,12(a5)
	srli	a3,a4,40
	andi	a3,a3,255
	lbu	a2,13(a5)
	andi	a2,a2,0
	or	a3,a2,a3
	sb	a3,13(a5)
	srli	a3,a4,48
	andi	a3,a3,255
	lbu	a2,14(a5)
	andi	a2,a2,0
	or	a3,a2,a3
	sb	a3,14(a5)
	srli	a4,a4,56
	lbu	a3,15(a5)
	andi	a3,a3,0
	or	a4,a3,a4
	sb	a4,15(a5)
.L182:
	.loc 1 698 13
	ld	a5,-248(s0)
	ld	a5,40(a5)
	.loc 1 698 22
	lbu	a5,4(a5)
	.loc 1 698 30
	sext.w	a5,a5
	andi	a5,a5,2
	sext.w	a5,a5
	.loc 1 698 6
	beq	a5,zero,.L183
	.loc 1 699 43
	ld	a5,-248(s0)
	ld	a5,40(a5)
	.loc 1 699 52
	lw	a5,16(a5)
	.loc 1 699 18
	slli	a5,a5,32
	srli	a5,a5,32
	li	a1,32
	mv	a0,a5
	call	LShiftU64@plt
	mv	a2,a0
	.loc 1 699 7 discriminator 1
	ld	a5,-104(s0)
	lbu	a4,8(a5)
	lbu	a3,9(a5)
	slli	a3,a3,8
	or	a4,a3,a4
	lbu	a3,10(a5)
	slli	a3,a3,16
	or	a4,a3,a4
	lbu	a3,11(a5)
	slli	a3,a3,24
	or	a4,a3,a4
	lbu	a3,12(a5)
	slli	a3,a3,32
	or	a4,a3,a4
	lbu	a3,13(a5)
	slli	a3,a3,40
	or	a4,a3,a4
	lbu	a3,14(a5)
	slli	a3,a3,48
	or	a4,a3,a4
	lbu	a5,15(a5)
	slli	a5,a5,56
	or	a5,a5,a4
	.loc 1 699 15 discriminator 1
	or	a4,a2,a5
	ld	a5,-104(s0)
	andi	a3,a4,255
	lbu	a2,8(a5)
	andi	a2,a2,0
	or	a3,a2,a3
	sb	a3,8(a5)
	srli	a3,a4,8
	andi	a3,a3,255
	lbu	a2,9(a5)
	andi	a2,a2,0
	or	a3,a2,a3
	sb	a3,9(a5)
	srli	a3,a4,16
	andi	a3,a3,255
	lbu	a2,10(a5)
	andi	a2,a2,0
	or	a3,a2,a3
	sb	a3,10(a5)
	srli	a3,a4,24
	andi	a3,a3,255
	lbu	a2,11(a5)
	andi	a2,a2,0
	or	a3,a2,a3
	sb	a3,11(a5)
	srli	a3,a4,32
	andi	a3,a3,255
	lbu	a2,12(a5)
	andi	a2,a2,0
	or	a3,a2,a3
	sb	a3,12(a5)
	srli	a3,a4,40
	andi	a3,a3,255
	lbu	a2,13(a5)
	andi	a2,a2,0
	or	a3,a2,a3
	sb	a3,13(a5)
	srli	a3,a4,48
	andi	a3,a3,255
	lbu	a2,14(a5)
	andi	a2,a2,0
	or	a3,a2,a3
	sb	a3,14(a5)
	srli	a4,a4,56
	lbu	a3,15(a5)
	andi	a3,a3,0
	or	a4,a3,a4
	sb	a4,15(a5)
.L183:
	.loc 1 702 13
	ld	a5,-248(s0)
	ld	a5,40(a5)
	.loc 1 702 22
	lbu	a5,4(a5)
	.loc 1 702 30
	sext.w	a5,a5
	andi	a5,a5,4
	sext.w	a5,a5
	.loc 1 702 6
	beq	a5,zero,.L184
	.loc 1 703 35
	ld	a5,-248(s0)
	ld	a5,40(a5)
	.loc 1 703 44
	lw	a4,20(a5)
	.loc 1 703 27
	ld	a5,-104(s0)
	slli	a3,a4,32
	srli	a3,a3,32
	andi	a3,a3,255
	lbu	a2,40(a5)
	andi	a2,a2,0
	or	a3,a2,a3
	sb	a3,40(a5)
	srliw	a3,a4,8
	slli	a3,a3,32
	srli	a3,a3,32
	andi	a3,a3,255
	lbu	a2,41(a5)
	andi	a2,a2,0
	or	a3,a2,a3
	sb	a3,41(a5)
	srliw	a3,a4,16
	slli	a3,a3,32
	srli	a3,a3,32
	andi	a3,a3,255
	lbu	a2,42(a5)
	andi	a2,a2,0
	or	a3,a2,a3
	sb	a3,42(a5)
	srliw	a4,a4,24
	slli	a4,a4,32
	srli	a4,a4,32
	lbu	a3,43(a5)
	andi	a3,a3,0
	or	a4,a3,a4
	sb	a4,43(a5)
.L184:
	.loc 1 706 13
	ld	a5,-248(s0)
	ld	a5,40(a5)
	.loc 1 706 22
	lbu	a5,4(a5)
	.loc 1 706 30
	sext.w	a5,a5
	andi	a5,a5,8
	sext.w	a5,a5
	.loc 1 706 6
	beq	a5,zero,.L185
	.loc 1 707 35
	ld	a5,-248(s0)
	ld	a5,40(a5)
	.loc 1 707 44
	lw	a4,24(a5)
	.loc 1 707 27
	ld	a5,-104(s0)
	slli	a3,a4,32
	srli	a3,a3,32
	andi	a3,a3,255
	lbu	a2,44(a5)
	andi	a2,a2,0
	or	a3,a2,a3
	sb	a3,44(a5)
	srliw	a3,a4,8
	slli	a3,a3,32
	srli	a3,a3,32
	andi	a3,a3,255
	lbu	a2,45(a5)
	andi	a2,a2,0
	or	a3,a2,a3
	sb	a3,45(a5)
	srliw	a3,a4,16
	slli	a3,a3,32
	srli	a3,a3,32
	andi	a3,a3,255
	lbu	a2,46(a5)
	andi	a2,a2,0
	or	a3,a2,a3
	sb	a3,46(a5)
	srliw	a4,a4,24
	slli	a4,a4,32
	srli	a4,a4,32
	lbu	a3,47(a5)
	andi	a3,a3,0
	or	a4,a3,a4
	sb	a4,47(a5)
.L185:
	.loc 1 710 13
	ld	a5,-248(s0)
	ld	a5,40(a5)
	.loc 1 710 22
	lbu	a5,4(a5)
	.loc 1 710 30
	sext.w	a5,a5
	andi	a5,a5,16
	sext.w	a5,a5
	.loc 1 710 6
	beq	a5,zero,.L186
	.loc 1 711 35
	ld	a5,-248(s0)
	ld	a5,40(a5)
	.loc 1 711 44
	lw	a4,28(a5)
	.loc 1 711 27
	ld	a5,-104(s0)
	slli	a3,a4,32
	srli	a3,a3,32
	andi	a3,a3,255
	lbu	a2,48(a5)
	andi	a2,a2,0
	or	a3,a2,a3
	sb	a3,48(a5)
	srliw	a3,a4,8
	slli	a3,a3,32
	srli	a3,a3,32
	andi	a3,a3,255
	lbu	a2,49(a5)
	andi	a2,a2,0
	or	a3,a2,a3
	sb	a3,49(a5)
	srliw	a3,a4,16
	slli	a3,a3,32
	srli	a3,a3,32
	andi	a3,a3,255
	lbu	a2,50(a5)
	andi	a2,a2,0
	or	a3,a2,a3
	sb	a3,50(a5)
	srliw	a4,a4,24
	slli	a4,a4,32
	srli	a4,a4,32
	lbu	a3,51(a5)
	andi	a3,a3,0
	or	a4,a3,a4
	sb	a4,51(a5)
.L186:
	.loc 1 714 13
	ld	a5,-248(s0)
	ld	a5,40(a5)
	.loc 1 714 22
	lbu	a5,4(a5)
	.loc 1 714 30
	sext.w	a5,a5
	andi	a5,a5,32
	sext.w	a5,a5
	.loc 1 714 6
	beq	a5,zero,.L187
	.loc 1 715 35
	ld	a5,-248(s0)
	ld	a5,40(a5)
	.loc 1 715 44
	lw	a4,32(a5)
	.loc 1 715 27
	ld	a5,-104(s0)
	slli	a3,a4,32
	srli	a3,a3,32
	andi	a3,a3,255
	lbu	a2,52(a5)
	andi	a2,a2,0
	or	a3,a2,a3
	sb	a3,52(a5)
	srliw	a3,a4,8
	slli	a3,a3,32
	srli	a3,a3,32
	andi	a3,a3,255
	lbu	a2,53(a5)
	andi	a2,a2,0
	or	a3,a2,a3
	sb	a3,53(a5)
	srliw	a3,a4,16
	slli	a3,a3,32
	srli	a3,a3,32
	andi	a3,a3,255
	lbu	a2,54(a5)
	andi	a2,a2,0
	or	a3,a2,a3
	sb	a3,54(a5)
	srliw	a4,a4,24
	slli	a4,a4,32
	srli	a4,a4,32
	lbu	a3,55(a5)
	andi	a3,a3,0
	or	a4,a3,a4
	sb	a4,55(a5)
.L187:
	.loc 1 718 13
	ld	a5,-248(s0)
	ld	a5,40(a5)
	.loc 1 718 22
	lbu	a5,4(a5)
	.loc 1 718 30
	sext.w	a5,a5
	andi	a5,a5,64
	sext.w	a5,a5
	.loc 1 718 6
	beq	a5,zero,.L188
	.loc 1 719 35
	ld	a5,-248(s0)
	ld	a5,40(a5)
	.loc 1 719 44
	lw	a4,36(a5)
	.loc 1 719 27
	ld	a5,-104(s0)
	slli	a3,a4,32
	srli	a3,a3,32
	andi	a3,a3,255
	lbu	a2,56(a5)
	andi	a2,a2,0
	or	a3,a2,a3
	sb	a3,56(a5)
	srliw	a3,a4,8
	slli	a3,a3,32
	srli	a3,a3,32
	andi	a3,a3,255
	lbu	a2,57(a5)
	andi	a2,a2,0
	or	a3,a2,a3
	sb	a3,57(a5)
	srliw	a3,a4,16
	slli	a3,a3,32
	srli	a3,a3,32
	andi	a3,a3,255
	lbu	a2,58(a5)
	andi	a2,a2,0
	or	a3,a2,a3
	sb	a3,58(a5)
	srliw	a4,a4,24
	slli	a4,a4,32
	srli	a4,a4,32
	lbu	a3,59(a5)
	andi	a3,a3,0
	or	a4,a3,a4
	sb	a4,59(a5)
.L188:
	.loc 1 722 13
	ld	a5,-248(s0)
	ld	a5,40(a5)
	.loc 1 722 22
	lbu	a5,4(a5)
	.loc 1 722 7
	slliw	a5,a5,24
	sraiw	a5,a5,24
	.loc 1 722 6
	bge	a5,zero,.L189
	.loc 1 723 35
	ld	a5,-248(s0)
	ld	a5,40(a5)
	.loc 1 723 44
	lw	a4,40(a5)
	.loc 1 723 27
	ld	a5,-104(s0)
	slli	a3,a4,32
	srli	a3,a3,32
	andi	a3,a3,255
	lbu	a2,60(a5)
	andi	a2,a2,0
	or	a3,a2,a3
	sb	a3,60(a5)
	srliw	a3,a4,8
	slli	a3,a3,32
	srli	a3,a3,32
	andi	a3,a3,255
	lbu	a2,61(a5)
	andi	a2,a2,0
	or	a3,a2,a3
	sb	a3,61(a5)
	srliw	a3,a4,16
	slli	a3,a3,32
	srli	a3,a3,32
	andi	a3,a3,255
	lbu	a2,62(a5)
	andi	a2,a2,0
	or	a3,a2,a3
	sb	a3,62(a5)
	srliw	a4,a4,24
	slli	a4,a4,32
	srli	a4,a4,32
	lbu	a3,63(a5)
	andi	a3,a3,0
	or	a4,a3,a4
	sb	a4,63(a5)
.L189:
	.loc 1 729 6
	ld	a5,-256(s0)
	beq	a5,zero,.L190
	.loc 1 729 31 discriminator 1
	lhu	a5,-50(s0)
	sext.w	a5,a5
	beq	a5,zero,.L190
	.loc 1 731 32
	lhu	a5,-50(s0)
	sext.w	a5,a5
	ld	a4,-48(s0)
	addi	a5,a5,56
	slli	a5,a5,2
	add	a5,a4,a5
	lhu	a5,8(a5)
	sext.w	a5,a5
	.loc 1 731 37
	addiw	a5,a5,1
	sext.w	a4,a5
	.loc 1 731 42
	lhu	a5,-90(s0)
	sext.w	a5,a5
	remw	a5,a4,a5
	sext.w	a4,a5
	.loc 1 730 29
	lhu	a5,-50(s0)
	sext.w	a5,a5
	.loc 1 730 34
	slli	a4,a4,48
	srli	a4,a4,48
	ld	a3,-48(s0)
	addi	a5,a5,56
	slli	a5,a5,2
	add	a5,a3,a5
	sh	a4,8(a5)
	j	.L191
.L190:
	.loc 1 733 29
	lhu	a5,-50(s0)
	sext.w	a5,a5
	ld	a4,-48(s0)
	addi	a5,a5,56
	slli	a5,a5,2
	add	a5,a4,a5
	lhu	a4,8(a5)
	lhu	a5,-50(s0)
	sext.w	a5,a5
	.loc 1 733 34
	xori	a4,a4,1
	slli	a4,a4,48
	srli	a4,a4,48
	ld	a3,-48(s0)
	addi	a5,a5,56
	slli	a5,a5,2
	add	a5,a3,a5
	sh	a4,8(a5)
.L191:
	.loc 1 736 53
	lhu	a5,-50(s0)
	sext.w	a5,a5
	.loc 1 736 37
	addi	a5,a5,56
	slli	a5,a5,2
	ld	a4,-48(s0)
	add	a5,a4,a5
	addi	a5,a5,8
	.loc 1 736 10
	mv	a0,a5
	call	ReadUnaligned32@plt
	mv	a5,a0
	.loc 1 736 8 discriminator 1
	sw	a5,-212(s0)
	.loc 1 737 22
	ld	a5,-88(s0)
	ld	a6,24(a5)
	.loc 1 741 51
	lhu	a5,-50(s0)
	sext.w	a4,a5
	.loc 1 741 72
	ld	a5,-48(s0)
	ld	a5,272(a5)
	andi	a5,a5,15
	andi	a5,a5,0xff
	sext.w	a5,a5
	.loc 1 741 56
	li	a3,4
	sllw	a5,a3,a5
	sext.w	a5,a5
	.loc 1 741 51
	mulw	a5,a4,a5
	sext.w	a4,a5
	.loc 1 741 32
	li	a5,4096
	addiw	a5,a5,-2048
	addw	a5,a4,a5
	sext.w	a5,a5
	slliw	a5,a5,1
	sext.w	a5,a5
	.loc 1 737 12
	mv	a3,a5
	addi	a5,s0,-212
	li	a4,1
	li	a2,0
	li	a1,2
	ld	a0,-88(s0)
	jalr	a6
.LVL14:
	sd	a0,-40(s0)
	.loc 1 746 34
	ld	a5,-40(s0)
	.loc 1 746 6
	blt	a5,zero,.L217
	.loc 1 754 6
	ld	a5,-256(s0)
	beq	a5,zero,.L193
	.loc 1 754 31 discriminator 1
	lhu	a5,-50(s0)
	sext.w	a5,a5
	beq	a5,zero,.L193
	.loc 1 755 20
	li	a0,88
	call	AllocateZeroPool@plt
	sd	a0,-128(s0)
	.loc 1 756 8
	ld	a5,-128(s0)
	bne	a5,zero,.L194
	.loc 1 757 14
	li	a5,-1
	slli	a5,a5,63
	addi	a5,a5,7
	sd	a5,-40(s0)
	.loc 1 758 7
	j	.L180
.L194:
	.loc 1 761 29
	ld	a5,-128(s0)
	li	a4,1380012032
	addi	a4,a4,78
	sw	a4,0(a5)
	.loc 1 762 26
	ld	a5,-128(s0)
	ld	a4,-248(s0)
	sd	a4,24(a5)
	.loc 1 763 33
	ld	a5,-104(s0)
	lbu	a4,2(a5)
	lbu	a5,3(a5)
	slli	a5,a5,8
	or	a5,a5,a4
	slli	a4,a5,48
	srli	a4,a4,48
	.loc 1 763 29
	ld	a5,-128(s0)
	sh	a4,32(a5)
	.loc 1 764 31
	ld	a5,-128(s0)
	ld	a4,-256(s0)
	sd	a4,80(a5)
	.loc 1 765 27
	ld	a4,-168(s0)
	ld	a5,-128(s0)
	sd	a4,64(a5)
	.loc 1 766 27
	ld	a4,-176(s0)
	ld	a5,-128(s0)
	sd	a4,72(a5)
	.loc 1 767 30
	ld	a4,-184(s0)
	ld	a5,-128(s0)
	sd	a4,40(a5)
	.loc 1 768 29
	ld	a4,-208(s0)
	ld	a5,-128(s0)
	sd	a4,48(a5)
	.loc 1 769 31
	ld	a4,-200(s0)
	ld	a5,-128(s0)
	sd	a4,56(a5)
	.loc 1 771 17
	la	a5,gBS
	ld	a5,0(a5)
	ld	a5,24(a5)
	.loc 1 771 14
	li	a0,16
	jalr	a5
.LVL15:
	sd	a0,-136(s0)
	.loc 1 772 5
	ld	a5,-48(s0)
	addi	a4,a5,296
	ld	a5,-128(s0)
	addi	a5,a5,8
	mv	a1,a5
	mv	a0,a4
	call	InsertTailList@plt
	.loc 1 773 8
	la	a5,gBS
	ld	a5,0(a5)
	ld	a5,32(a5)
	.loc 1 773 5
	ld	a0,-136(s0)
	jalr	a5
.LVL16:
	.loc 1 775 12
	li	a5,0
	j	.L215
.L193:
	.loc 1 778 15
	la	a5,gBS
	ld	a5,0(a5)
	ld	a5,80(a5)
	.loc 1 778 12
	addi	a4,s0,-152
	li	a3,0
	li	a2,0
	li	a1,8
	li	a0,-2147483648
	jalr	a5
.LVL17:
	sd	a0,-40(s0)
	.loc 1 785 34
	ld	a5,-40(s0)
	.loc 1 785 6
	blt	a5,zero,.L218
	.loc 1 789 15
	la	a5,gBS
	ld	a5,0(a5)
	ld	a5,88(a5)
	.loc 1 789 12
	ld	a3,-152(s0)
	ld	a4,-248(s0)
	ld	a4,0(a4)
	mv	a2,a4
	li	a1,2
	mv	a0,a3
	jalr	a5
.LVL18:
	sd	a0,-40(s0)
	.loc 1 791 34
	ld	a5,-40(s0)
	.loc 1 791 6
	blt	a5,zero,.L219
	.loc 1 798 10
	li	a5,-1
	slli	a5,a5,63
	addi	a5,a5,18
	sd	a5,-40(s0)
	.loc 1 799 9
	j	.L197
.L199:
	.loc 1 800 11
	ld	a5,-112(s0)
	lbu	a5,14(a5)
	andi	a5,a5,1
	andi	a5,a5,0xff
	mv	a3,a5
	.loc 1 800 30
	lhu	a5,-50(s0)
	sext.w	a5,a5
	ld	a4,-48(s0)
	add	a5,a4,a5
	lbu	a5,259(a5)
	.loc 1 800 8
	mv	a4,a3
	beq	a4,a5,.L197
	.loc 1 801 14
	sd	zero,-40(s0)
	.loc 1 802 7
	j	.L198
.L197:
	.loc 1 799 31
	la	a5,gBS
	ld	a5,0(a5)
	ld	a5,120(a5)
	.loc 1 799 28
	ld	a4,-152(s0)
	mv	a0,a4
	jalr	a5
.LVL19:
	mv	a5,a0
	.loc 1 799 59 discriminator 1
	blt	a5,zero,.L199
.L198:
	.loc 1 809 6
	ld	a4,-40(s0)
	li	a5,-1
	slli	a5,a5,63
	addi	a5,a5,18
	beq	a4,a5,.L200
	.loc 1 810 12
	ld	a5,-112(s0)
	lbu	a5,15(a5)
	andi	a5,a5,0xff
	srliw	a5,a5,1
	andi	a5,a5,7
	andi	a5,a5,0xff
	.loc 1 810 8
	bne	a5,zero,.L201
	.loc 1 810 30 discriminator 1
	ld	a5,-112(s0)
	lbu	a4,14(a5)
	andi	a4,a4,0xff
	srliw	a4,a4,1
	andi	a4,a4,0xff
	lbu	a5,15(a5)
	andi	a5,a5,0xff
	andi	a5,a5,1
	slli	a5,a5,7
	or	a5,a5,a4
	andi	a5,a5,0xff
	.loc 1 810 24 discriminator 1
	bne	a5,zero,.L201
	.loc 1 811 14
	sd	zero,-40(s0)
	j	.L202
.L201:
	.loc 1 813 14
	li	a5,-1
	slli	a5,a5,63
	addi	a5,a5,7
	sd	a5,-40(s0)
	.loc 1 817 16
	call	DebugCodeEnabled@plt
	mv	a5,a0
	.loc 1 817 15 discriminator 1
	beq	a5,zero,.L202
	.loc 1 818 7
	ld	a0,-112(s0)
	call	NvmeDumpStatus
.L202:
	.loc 1 825 20
	ld	a5,-248(s0)
	ld	a5,48(a5)
	.loc 1 825 5
	li	a2,16
	ld	a1,-112(s0)
	mv	a0,a5
	call	CopyMem@plt
	.loc 1 868 32
	lhu	a5,-50(s0)
	sext.w	a5,a5
	ld	a4,-48(s0)
	addi	a5,a5,60
	slli	a5,a5,2
	add	a5,a4,a5
	lhu	a5,4(a5)
	lhu	a4,-50(s0)
	sext.w	a4,a4
	.loc 1 868 37
	xori	a5,a5,1
	slli	a3,a5,48
	srli	a3,a3,48
	ld	a2,-48(s0)
	addi	a5,a4,60
	slli	a5,a5,2
	add	a5,a2,a5
	sh	a3,4(a5)
	.loc 1 868 32
	ld	a3,-48(s0)
	addi	a5,a4,60
	slli	a5,a5,2
	add	a5,a3,a5
	lhu	a5,4(a5)
	.loc 1 868 6
	bne	a5,zero,.L207
	j	.L216
.L200:
	.loc 1 827 5
	li	a5,34013184
	addi	a1,a5,5
	li	a5,-2147483648
	addi	a0,a5,2
	call	ReportStatusCode@plt
	.loc 1 838 17
	la	a5,gBS
	ld	a5,0(a5)
	ld	a5,88(a5)
	.loc 1 838 14
	ld	a4,-48(s0)
	ld	a4,288(a4)
	li	a2,0
	li	a1,0
	mv	a0,a4
	jalr	a5
.LVL20:
	sd	a0,-40(s0)
	.loc 1 839 36
	ld	a5,-40(s0)
	.loc 1 839 8
	blt	a5,zero,.L220
	.loc 1 846 14
	ld	a0,-48(s0)
	call	NvmeControllerInit@plt
	sd	a0,-40(s0)
	.loc 1 847 9
	ld	a5,-40(s0)
	.loc 1 847 8
	blt	a5,zero,.L205
	.loc 1 848 16
	ld	a0,-48(s0)
	call	AbortAsyncPassThruTasks
	sd	a0,-40(s0)
	.loc 1 849 11
	ld	a5,-40(s0)
	.loc 1 849 10
	blt	a5,zero,.L221
	.loc 1 853 21
	la	a5,gBS
	ld	a5,0(a5)
	ld	s1,88(a5)
	.loc 1 853 18
	ld	a5,-48(s0)
	ld	s2,288(a5)
	li	a5,8192
	addi	a1,a5,1808
	li	a0,1
	call	MultU64x32@plt
	mv	a5,a0
	.loc 1 853 18 is_stmt 0 discriminator 1
	mv	a2,a5
	li	a1,1
	mv	a0,s2
	jalr	s1
.LVL21:
	sd	a0,-40(s0)
	.loc 1 854 13 is_stmt 1
	ld	a5,-40(s0)
	.loc 1 854 12
	blt	a5,zero,.L221
	.loc 1 858 18
	li	a5,-1
	slli	a5,a5,63
	addi	a5,a5,18
	sd	a5,-40(s0)
	.loc 1 865 5
	j	.L221
.L205:
	.loc 1 862 14
	li	a5,-1
	slli	a5,a5,63
	addi	a5,a5,7
	sd	a5,-40(s0)
	.loc 1 865 5
	j	.L221
.L216:
	.loc 1 869 16
	lhu	a5,-50(s0)
	sext.w	a5,a5
	ld	a4,-48(s0)
	add	a5,a4,a5
	lbu	a4,259(a5)
	lhu	a5,-50(s0)
	sext.w	a5,a5
	.loc 1 869 26
	xori	a4,a4,1
	andi	a4,a4,0xff
	ld	a3,-48(s0)
	add	a5,a3,a5
	sb	a4,259(a5)
.L207:
	.loc 1 872 53
	lhu	a5,-50(s0)
	sext.w	a5,a5
	.loc 1 872 37
	addi	a5,a5,60
	slli	a5,a5,2
	ld	a4,-48(s0)
	add	a5,a4,a5
	addi	a5,a5,4
	.loc 1 872 10
	mv	a0,a5
	call	ReadUnaligned32@plt
	mv	a5,a0
	.loc 1 872 8 discriminator 1
	sw	a5,-212(s0)
	.loc 1 873 18
	ld	a5,-40(s0)
	sd	a5,-144(s0)
	.loc 1 874 22
	ld	a5,-88(s0)
	ld	a6,24(a5)
	.loc 1 878 47
	lhu	a5,-50(s0)
	sext.w	a5,a5
	slliw	a5,a5,1
	sext.w	a5,a5
	.loc 1 878 60
	addiw	a5,a5,1
	sext.w	a4,a5
	.loc 1 878 86
	ld	a5,-48(s0)
	ld	a5,272(a5)
	andi	a5,a5,15
	andi	a5,a5,0xff
	sext.w	a5,a5
	.loc 1 878 70
	li	a3,4
	sllw	a5,a3,a5
	sext.w	a5,a5
	.loc 1 878 65
	mulw	a5,a4,a5
	sext.w	a4,a5
	.loc 1 878 40
	li	a5,4096
	addw	a5,a4,a5
	sext.w	a5,a5
	.loc 1 874 12
	mv	a3,a5
	addi	a5,s0,-212
	li	a4,1
	li	a2,0
	li	a1,2
	ld	a0,-88(s0)
	jalr	a6
.LVL22:
	sd	a0,-40(s0)
	.loc 1 884 47
	ld	a5,-144(s0)
	.loc 1 884 90
	bge	a5,zero,.L209
	.loc 1 884 10 discriminator 1
	ld	a5,-144(s0)
	sd	a5,-40(s0)
.L209:
	.loc 1 890 6
	ld	a5,-256(s0)
	beq	a5,zero,.L222
	.loc 1 892 8
	la	a5,gBS
	ld	a5,0(a5)
	ld	a5,104(a5)
	.loc 1 892 5
	ld	a0,-256(s0)
	jalr	a5
.LVL23:
	j	.L180
.L217:
	.loc 1 747 5
	nop
	j	.L180
.L218:
	.loc 1 786 5
	nop
	j	.L180
.L219:
	.loc 1 792 5
	nop
	j	.L180
.L220:
	.loc 1 840 7
	nop
	j	.L180
.L221:
	.loc 1 865 5
	nop
	j	.L180
.L222:
	.loc 1 895 1
	nop
.L180:
	.loc 1 896 15
	ld	a5,-168(s0)
	.loc 1 896 6
	beq	a5,zero,.L210
	.loc 1 897 10
	ld	a5,-88(s0)
	ld	a5,80(a5)
	.loc 1 897 5
	ld	a4,-168(s0)
	mv	a1,a4
	ld	a0,-88(s0)
	jalr	a5
.LVL24:
.L210:
	.loc 1 903 15
	ld	a5,-176(s0)
	.loc 1 903 6
	beq	a5,zero,.L211
	.loc 1 904 10
	ld	a5,-88(s0)
	ld	a5,80(a5)
	.loc 1 904 5
	ld	a4,-176(s0)
	mv	a1,a4
	ld	a0,-88(s0)
	jalr	a5
.LVL25:
.L211:
	.loc 1 910 18
	ld	a5,-184(s0)
	.loc 1 910 6
	beq	a5,zero,.L212
	.loc 1 911 10
	ld	a5,-88(s0)
	ld	a5,80(a5)
	.loc 1 911 5
	ld	a4,-184(s0)
	mv	a1,a4
	ld	a0,-88(s0)
	jalr	a5
.LVL26:
.L212:
	.loc 1 917 6
	ld	a5,-64(s0)
	beq	a5,zero,.L213
	.loc 1 918 10
	ld	a5,-88(s0)
	ld	a5,96(a5)
	.loc 1 918 5
	ld	a4,-208(s0)
	ld	a3,-200(s0)
	mv	a2,a3
	mv	a1,a4
	ld	a0,-88(s0)
	jalr	a5
.LVL27:
.L213:
	.loc 1 921 18
	ld	a5,-152(s0)
	.loc 1 921 6
	beq	a5,zero,.L214
	.loc 1 922 8
	la	a5,gBS
	ld	a5,0(a5)
	ld	a5,112(a5)
	.loc 1 922 5
	ld	a4,-152(s0)
	mv	a0,a4
	jalr	a5
.LVL28:
.L214:
	.loc 1 925 10
	ld	a5,-40(s0)
.L215:
	.loc 1 926 1
	mv	a0,a5
	ld	ra,248(sp)
	.cfi_restore 1
	ld	s0,240(sp)
	.cfi_restore 8
	.cfi_def_cfa 2, 256
	ld	s1,232(sp)
	.cfi_restore 9
	ld	s2,224(sp)
	.cfi_restore 18
	addi	sp,sp,256
	.cfi_def_cfa_offset 0
	jr	ra
	.cfi_endproc
.LFE3:
	.size	NvmExpressPassThru, .-NvmExpressPassThru
	.section	.text.NvmExpressGetNextNamespace,"ax",@progbits
	.align	1
	.globl	NvmExpressGetNextNamespace
	.type	NvmExpressGetNextNamespace, @function
NvmExpressGetNextNamespace:
.LFB4:
	.loc 1 967 1
	.cfi_startproc
	addi	sp,sp,-64
	.cfi_def_cfa_offset 64
	sd	ra,56(sp)
	sd	s0,48(sp)
	.cfi_offset 1, -8
	.cfi_offset 8, -16
	addi	s0,sp,64
	.cfi_def_cfa 8, 0
	sd	a0,-56(s0)
	sd	a1,-64(s0)
	.loc 1 973 6
	ld	a5,-56(s0)
	beq	a5,zero,.L224
	.loc 1 973 30 discriminator 1
	ld	a5,-64(s0)
	bne	a5,zero,.L225
.L224:
	.loc 1 974 12
	li	a5,-1
	slli	a5,a5,63
	addi	a5,a5,2
	j	.L226
.L225:
	.loc 1 977 17
	sd	zero,-32(s0)
	.loc 1 978 10
	li	a5,-1
	slli	a5,a5,63
	addi	a5,a5,14
	sd	a5,-40(s0)
	.loc 1 980 15
	ld	a5,-56(s0)
	addi	a5,a5,-72
	.loc 1 980 147
	lw	a4,0(a5)
	.loc 1 980 232
	li	a5,1162694656
	addi	a5,a5,1614
	bne	a4,a5,.L227
	.loc 1 980 11 discriminator 1
	ld	a5,-56(s0)
	addi	a5,a5,-72
	sd	a5,-24(s0)
	j	.L228
.L227:
	.loc 1 980 11 is_stmt 0 discriminator 2
	sd	zero,-24(s0)
.L228:
	.loc 1 984 7 is_stmt 1
	ld	a5,-64(s0)
	lw	a4,0(a5)
	.loc 1 984 6
	li	a5,-1
	bne	a4,a5,.L229
	.loc 1 988 21
	li	a5,1
	sw	a5,-44(s0)
	.loc 1 992 50
	li	a0,4096
	call	AllocateZeroPool@plt
	sd	a0,-32(s0)
	.loc 1 994 8
	ld	a5,-32(s0)
	bne	a5,zero,.L230
	.loc 1 995 14
	li	a5,-1
	slli	a5,a5,63
	addi	a5,a5,14
	j	.L226
.L230:
	.loc 1 998 14
	lw	a5,-44(s0)
	ld	a2,-32(s0)
	mv	a1,a5
	ld	a0,-24(s0)
	call	NvmeIdentifyNamespace@plt
	sd	a0,-40(s0)
	.loc 1 999 36
	ld	a5,-40(s0)
	.loc 1 999 8
	blt	a5,zero,.L238
	.loc 1 1003 18
	ld	a5,-64(s0)
	lw	a4,-44(s0)
	sw	a4,0(a5)
	j	.L232
.L229:
	.loc 1 1005 9
	ld	a5,-64(s0)
	lw	a4,0(a5)
	.loc 1 1005 31
	ld	a5,-24(s0)
	ld	a5,112(a5)
	.loc 1 1005 47
	lbu	a3,516(a5)
	lbu	a2,517(a5)
	slli	a2,a2,8
	or	a3,a2,a3
	lbu	a2,518(a5)
	slli	a2,a2,16
	or	a3,a2,a3
	lbu	a5,519(a5)
	slli	a5,a5,24
	or	a5,a5,a3
	sext.w	a5,a5
	.loc 1 1005 8
	bleu	a4,a5,.L233
	.loc 1 1006 14
	li	a5,-1
	slli	a5,a5,63
	addi	a5,a5,2
	j	.L226
.L233:
	.loc 1 1009 23
	ld	a5,-64(s0)
	lw	a5,0(a5)
	.loc 1 1009 21
	addiw	a5,a5,1
	sw	a5,-44(s0)
	.loc 1 1010 34
	ld	a5,-24(s0)
	ld	a5,112(a5)
	.loc 1 1010 50
	lbu	a4,516(a5)
	lbu	a3,517(a5)
	slli	a3,a3,8
	or	a4,a3,a4
	lbu	a3,518(a5)
	slli	a3,a3,16
	or	a4,a3,a4
	lbu	a5,519(a5)
	slli	a5,a5,24
	or	a5,a5,a4
	sext.w	a5,a5
	.loc 1 1010 8
	lw	a4,-44(s0)
	sext.w	a4,a4
	bleu	a4,a5,.L234
	.loc 1 1011 14
	li	a5,-1
	slli	a5,a5,63
	addi	a5,a5,14
	j	.L226
.L234:
	.loc 1 1017 50
	li	a0,4096
	call	AllocateZeroPool@plt
	sd	a0,-32(s0)
	.loc 1 1018 8
	ld	a5,-32(s0)
	bne	a5,zero,.L235
	.loc 1 1019 14
	li	a5,-1
	slli	a5,a5,63
	addi	a5,a5,14
	j	.L226
.L235:
	.loc 1 1022 14
	lw	a5,-44(s0)
	ld	a2,-32(s0)
	mv	a1,a5
	ld	a0,-24(s0)
	call	NvmeIdentifyNamespace@plt
	sd	a0,-40(s0)
	.loc 1 1023 36
	ld	a5,-40(s0)
	.loc 1 1023 8
	blt	a5,zero,.L239
	.loc 1 1027 18
	ld	a5,-64(s0)
	lw	a4,-44(s0)
	sw	a4,0(a5)
	j	.L232
.L238:
	.loc 1 1000 7
	nop
	j	.L232
.L239:
	.loc 1 1024 7
	nop
.L232:
	.loc 1 1031 6
	ld	a5,-32(s0)
	beq	a5,zero,.L237
	.loc 1 1032 5
	ld	a0,-32(s0)
	call	FreePool@plt
.L237:
	.loc 1 1035 10
	ld	a5,-40(s0)
.L226:
	.loc 1 1036 1
	mv	a0,a5
	ld	ra,56(sp)
	.cfi_restore 1
	ld	s0,48(sp)
	.cfi_restore 8
	.cfi_def_cfa 2, 64
	addi	sp,sp,64
	.cfi_def_cfa_offset 0
	jr	ra
	.cfi_endproc
.LFE4:
	.size	NvmExpressGetNextNamespace, .-NvmExpressGetNextNamespace
	.section	.text.NvmExpressGetNamespace,"ax",@progbits
	.align	1
	.globl	NvmExpressGetNamespace
	.type	NvmExpressGetNamespace, @function
NvmExpressGetNamespace:
.LFB5:
	.loc 1 1069 1
	.cfi_startproc
	addi	sp,sp,-64
	.cfi_def_cfa_offset 64
	sd	ra,56(sp)
	sd	s0,48(sp)
	.cfi_offset 1, -8
	.cfi_offset 8, -16
	addi	s0,sp,64
	.cfi_def_cfa 8, 0
	sd	a0,-40(s0)
	sd	a1,-48(s0)
	sd	a2,-56(s0)
	.loc 1 1073 6
	ld	a5,-40(s0)
	beq	a5,zero,.L241
	.loc 1 1073 30 discriminator 1
	ld	a5,-48(s0)
	beq	a5,zero,.L241
	.loc 1 1073 62 discriminator 2
	ld	a5,-56(s0)
	bne	a5,zero,.L242
.L241:
	.loc 1 1074 12
	li	a5,-1
	slli	a5,a5,63
	addi	a5,a5,2
	j	.L243
.L242:
	.loc 1 1077 17
	ld	a5,-48(s0)
	lbu	a5,0(a5)
	.loc 1 1077 6
	mv	a4,a5
	li	a5,3
	beq	a4,a5,.L244
	.loc 1 1078 12
	li	a5,-1
	slli	a5,a5,63
	addi	a5,a5,3
	j	.L243
.L244:
	.loc 1 1081 8
	ld	a5,-48(s0)
	sd	a5,-32(s0)
	.loc 1 1082 15
	ld	a5,-40(s0)
	addi	a5,a5,-72
	.loc 1 1082 147
	lw	a4,0(a5)
	.loc 1 1082 232
	li	a5,1162694656
	addi	a5,a5,1614
	bne	a4,a5,.L245
	.loc 1 1082 11 discriminator 1
	ld	a5,-40(s0)
	addi	a5,a5,-72
	sd	a5,-24(s0)
	j	.L246
.L245:
	.loc 1 1082 11 is_stmt 0 discriminator 2
	sd	zero,-24(s0)
.L246:
	.loc 1 1084 17 is_stmt 1
	ld	a5,-48(s0)
	lbu	a5,1(a5)
	.loc 1 1084 6
	mv	a4,a5
	li	a5,23
	bne	a4,a5,.L247
	.loc 1 1085 9
	ld	a0,-48(s0)
	call	DevicePathNodeLength@plt
	mv	a4,a0
	.loc 1 1085 8 discriminator 1
	li	a5,16
	beq	a4,a5,.L248
	.loc 1 1086 14
	li	a5,-1
	slli	a5,a5,63
	addi	a5,a5,14
	j	.L243
.L248:
	.loc 1 1092 14
	ld	a5,-32(s0)
	lbu	a4,4(a5)
	lbu	a3,5(a5)
	slli	a3,a3,8
	or	a4,a3,a4
	lbu	a3,6(a5)
	slli	a3,a3,16
	or	a4,a3,a4
	lbu	a5,7(a5)
	slli	a5,a5,24
	or	a5,a5,a4
	sext.w	a5,a5
	.loc 1 1092 8
	beq	a5,zero,.L249
	.loc 1 1093 14
	ld	a5,-32(s0)
	lbu	a4,4(a5)
	lbu	a3,5(a5)
	slli	a3,a3,8
	or	a4,a3,a4
	lbu	a3,6(a5)
	slli	a3,a3,16
	or	a4,a3,a4
	lbu	a5,7(a5)
	slli	a5,a5,24
	or	a5,a5,a4
	sext.w	a4,a5
	.loc 1 1093 37
	ld	a5,-24(s0)
	ld	a5,112(a5)
	.loc 1 1093 53
	lbu	a3,516(a5)
	lbu	a2,517(a5)
	slli	a2,a2,8
	or	a3,a2,a3
	lbu	a2,518(a5)
	slli	a2,a2,16
	or	a3,a2,a3
	lbu	a5,519(a5)
	slli	a5,a5,24
	or	a5,a5,a3
	sext.w	a5,a5
	.loc 1 1092 34 discriminator 1
	bleu	a4,a5,.L250
.L249:
	.loc 1 1095 14
	li	a5,-1
	slli	a5,a5,63
	addi	a5,a5,14
	j	.L243
.L250:
	.loc 1 1098 24
	ld	a5,-32(s0)
	lbu	a4,4(a5)
	lbu	a3,5(a5)
	slli	a3,a3,8
	or	a4,a3,a4
	lbu	a3,6(a5)
	slli	a3,a3,16
	or	a4,a3,a4
	lbu	a5,7(a5)
	slli	a5,a5,24
	or	a5,a5,a4
	sext.w	a4,a5
	.loc 1 1098 18
	ld	a5,-56(s0)
	sw	a4,0(a5)
	.loc 1 1100 12
	li	a5,0
	j	.L243
.L247:
	.loc 1 1102 12
	li	a5,-1
	slli	a5,a5,63
	addi	a5,a5,3
.L243:
	.loc 1 1104 1
	mv	a0,a5
	ld	ra,56(sp)
	.cfi_restore 1
	ld	s0,48(sp)
	.cfi_restore 8
	.cfi_def_cfa 2, 64
	addi	sp,sp,64
	.cfi_def_cfa_offset 0
	jr	ra
	.cfi_endproc
.LFE5:
	.size	NvmExpressGetNamespace, .-NvmExpressGetNamespace
	.section	.text.NvmExpressBuildDevicePath,"ax",@progbits
	.align	1
	.globl	NvmExpressBuildDevicePath
	.type	NvmExpressBuildDevicePath, @function
NvmExpressBuildDevicePath:
.LFB6:
	.loc 1 1144 1
	.cfi_startproc
	addi	sp,sp,-80
	.cfi_def_cfa_offset 80
	sd	ra,72(sp)
	sd	s0,64(sp)
	.cfi_offset 1, -8
	.cfi_offset 8, -16
	addi	s0,sp,80
	.cfi_def_cfa 8, 0
	sd	a0,-56(s0)
	mv	a5,a1
	sd	a2,-72(s0)
	sw	a5,-60(s0)
	.loc 1 1153 6
	ld	a5,-56(s0)
	beq	a5,zero,.L252
	.loc 1 1153 30 discriminator 1
	ld	a5,-72(s0)
	bne	a5,zero,.L253
.L252:
	.loc 1 1154 12
	li	a5,-1
	slli	a5,a5,63
	addi	a5,a5,2
	j	.L254
.L253:
	.loc 1 1157 10
	sd	zero,-32(s0)
	.loc 1 1158 15
	ld	a5,-56(s0)
	addi	a5,a5,-72
	.loc 1 1158 147
	lw	a4,0(a5)
	.loc 1 1158 232
	li	a5,1162694656
	addi	a5,a5,1614
	bne	a4,a5,.L255
	.loc 1 1158 11 discriminator 1
	ld	a5,-56(s0)
	addi	a5,a5,-72
	sd	a5,-24(s0)
	j	.L256
.L255:
	.loc 1 1158 11 is_stmt 0 discriminator 2
	sd	zero,-24(s0)
.L256:
	.loc 1 1163 6 is_stmt 1
	lw	a5,-60(s0)
	sext.w	a5,a5
	beq	a5,zero,.L257
	.loc 1 1164 29
	ld	a5,-24(s0)
	ld	a5,112(a5)
	.loc 1 1164 45
	lbu	a4,516(a5)
	lbu	a3,517(a5)
	slli	a3,a3,8
	or	a4,a3,a4
	lbu	a3,518(a5)
	slli	a3,a3,16
	or	a4,a3,a4
	lbu	a5,519(a5)
	slli	a5,a5,24
	or	a5,a5,a4
	sext.w	a5,a5
	.loc 1 1163 26 discriminator 1
	lw	a4,-60(s0)
	sext.w	a4,a4
	bleu	a4,a5,.L258
.L257:
	.loc 1 1166 12
	li	a5,-1
	slli	a5,a5,63
	addi	a5,a5,14
	j	.L254
.L258:
	.loc 1 1169 40
	li	a0,16
	call	AllocateZeroPool@plt
	sd	a0,-40(s0)
	.loc 1 1170 6
	ld	a5,-40(s0)
	bne	a5,zero,.L259
	.loc 1 1171 12
	li	a5,-1
	slli	a5,a5,63
	addi	a5,a5,9
	j	.L254
.L259:
	.loc 1 1174 21
	ld	a5,-40(s0)
	li	a4,3
	sb	a4,0(a5)
	.loc 1 1175 24
	ld	a5,-40(s0)
	li	a4,23
	sb	a4,1(a5)
	.loc 1 1176 28
	ld	a5,-40(s0)
	.loc 1 1176 3
	li	a1,16
	mv	a0,a5
	call	SetDevicePathNodeLength@plt
	.loc 1 1177 21
	ld	a5,-40(s0)
	lwu	a4,-60(s0)
	andi	a4,a4,255
	lbu	a3,4(a5)
	andi	a3,a3,0
	or	a4,a3,a4
	sb	a4,4(a5)
	lw	a4,-60(s0)
	srliw	a4,a4,8
	slli	a4,a4,32
	srli	a4,a4,32
	andi	a4,a4,255
	lbu	a3,5(a5)
	andi	a3,a3,0
	or	a4,a3,a4
	sb	a4,5(a5)
	lw	a4,-60(s0)
	srliw	a4,a4,16
	slli	a4,a4,32
	srli	a4,a4,32
	andi	a4,a4,255
	lbu	a3,6(a5)
	andi	a3,a3,0
	or	a4,a3,a4
	sb	a4,6(a5)
	lw	a4,-60(s0)
	srliw	a4,a4,24
	slli	a4,a4,32
	srli	a4,a4,32
	lbu	a3,7(a5)
	andi	a3,a3,0
	or	a4,a3,a4
	sb	a4,7(a5)
	.loc 1 1182 17
	sd	zero,-48(s0)
	.loc 1 1183 19
	li	a0,4096
	call	AllocateZeroPool@plt
	sd	a0,-48(s0)
	.loc 1 1184 6
	ld	a5,-48(s0)
	bne	a5,zero,.L260
	.loc 1 1185 12
	li	a5,-1
	slli	a5,a5,63
	addi	a5,a5,9
	sd	a5,-32(s0)
	.loc 1 1186 5
	j	.L261
.L260:
	.loc 1 1192 12
	lw	a5,-60(s0)
	ld	a2,-48(s0)
	mv	a1,a5
	ld	a0,-24(s0)
	call	NvmeIdentifyNamespace@plt
	sd	a0,-32(s0)
	.loc 1 1198 34
	ld	a5,-32(s0)
	.loc 1 1198 6
	blt	a5,zero,.L265
	.loc 1 1202 38
	ld	a5,-48(s0)
	lbu	a4,120(a5)
	lbu	a3,121(a5)
	slli	a3,a3,8
	or	a4,a3,a4
	lbu	a3,122(a5)
	slli	a3,a3,16
	or	a4,a3,a4
	lbu	a3,123(a5)
	slli	a3,a3,24
	or	a4,a3,a4
	lbu	a3,124(a5)
	slli	a3,a3,32
	or	a4,a3,a4
	lbu	a3,125(a5)
	slli	a3,a3,40
	or	a4,a3,a4
	lbu	a3,126(a5)
	slli	a3,a3,48
	or	a4,a3,a4
	lbu	a5,127(a5)
	slli	a5,a5,56
	or	a5,a5,a4
	mv	a4,a5
	.loc 1 1202 23
	ld	a5,-40(s0)
	andi	a3,a4,255
	lbu	a2,8(a5)
	andi	a2,a2,0
	or	a3,a2,a3
	sb	a3,8(a5)
	srli	a3,a4,8
	andi	a3,a3,255
	lbu	a2,9(a5)
	andi	a2,a2,0
	or	a3,a2,a3
	sb	a3,9(a5)
	srli	a3,a4,16
	andi	a3,a3,255
	lbu	a2,10(a5)
	andi	a2,a2,0
	or	a3,a2,a3
	sb	a3,10(a5)
	srli	a3,a4,24
	andi	a3,a3,255
	lbu	a2,11(a5)
	andi	a2,a2,0
	or	a3,a2,a3
	sb	a3,11(a5)
	srli	a3,a4,32
	andi	a3,a3,255
	lbu	a2,12(a5)
	andi	a2,a2,0
	or	a3,a2,a3
	sb	a3,12(a5)
	srli	a3,a4,40
	andi	a3,a3,255
	lbu	a2,13(a5)
	andi	a2,a2,0
	or	a3,a2,a3
	sb	a3,13(a5)
	srli	a3,a4,48
	andi	a3,a3,255
	lbu	a2,14(a5)
	andi	a2,a2,0
	or	a3,a2,a3
	sb	a3,14(a5)
	srli	a4,a4,56
	lbu	a3,15(a5)
	andi	a3,a3,0
	or	a4,a3,a4
	sb	a4,15(a5)
	.loc 1 1204 15
	ld	a5,-72(s0)
	ld	a4,-40(s0)
	sd	a4,0(a5)
	j	.L261
.L265:
	.loc 1 1199 5
	nop
.L261:
	.loc 1 1207 6
	ld	a5,-48(s0)
	beq	a5,zero,.L263
	.loc 1 1208 5
	ld	a0,-48(s0)
	call	FreePool@plt
.L263:
	.loc 1 1211 34
	ld	a5,-32(s0)
	.loc 1 1211 6
	bge	a5,zero,.L264
	.loc 1 1212 5
	ld	a0,-40(s0)
	call	FreePool@plt
.L264:
	.loc 1 1215 10
	ld	a5,-32(s0)
.L254:
	.loc 1 1216 1
	mv	a0,a5
	ld	ra,72(sp)
	.cfi_restore 1
	ld	s0,64(sp)
	.cfi_restore 8
	.cfi_def_cfa 2, 80
	addi	sp,sp,80
	.cfi_def_cfa_offset 0
	jr	ra
	.cfi_endproc
.LFE6:
	.size	NvmExpressBuildDevicePath, .-NvmExpressBuildDevicePath
	.text
.Letext0:
	.file 2 "/home/kapoagaeming/spacemit-image-builder/components/edk2/MdePkg/Include/RiscV64/ProcessorBind.h"
	.file 3 "/home/kapoagaeming/spacemit-image-builder/components/edk2/MdePkg/Include/Base.h"
	.file 4 "/home/kapoagaeming/spacemit-image-builder/components/edk2/MdePkg/Include/Uefi/UefiBaseType.h"
	.file 5 "/home/kapoagaeming/spacemit-image-builder/components/edk2/MdePkg/Include/Uefi/UefiMultiPhase.h"
	.file 6 "/home/kapoagaeming/spacemit-image-builder/components/edk2/MdePkg/Include/Protocol/DevicePath.h"
	.file 7 "/home/kapoagaeming/spacemit-image-builder/components/edk2/MdePkg/Include/Uefi/UefiSpec.h"
	.file 8 "/home/kapoagaeming/spacemit-image-builder/components/edk2/MdePkg/Include/IndustryStandard/Nvme.h"
	.file 9 "/home/kapoagaeming/spacemit-image-builder/components/edk2/MdePkg/Include/Protocol/PciIo.h"
	.file 10 "/home/kapoagaeming/spacemit-image-builder/components/edk2/MdePkg/Include/Protocol/NvmExpressPassthru.h"
	.file 11 "/home/kapoagaeming/spacemit-image-builder/components/edk2/MdePkg/Include/Protocol/BlockIo2.h"
	.file 12 "/home/kapoagaeming/spacemit-image-builder/components/edk2/MdePkg/Include/Pi/PiStatusCode.h"
	.file 13 "/home/kapoagaeming/spacemit-image-builder/components/edk2/MdeModulePkg/Bus/Pci/NvmExpressDxe/NvmExpress.h"
	.file 14 "/home/kapoagaeming/spacemit-image-builder/components/edk2/MdePkg/Include/Library/DevicePathLib.h"
	.file 15 "/home/kapoagaeming/spacemit-image-builder/components/edk2/MdeModulePkg/Bus/Pci/NvmExpressDxe/NvmExpressHci.h"
	.file 16 "/home/kapoagaeming/spacemit-image-builder/components/edk2/MdePkg/Include/Library/BaseLib.h"
	.file 17 "/home/kapoagaeming/spacemit-image-builder/components/edk2/MdePkg/Include/Library/ReportStatusCodeLib.h"
	.file 18 "/home/kapoagaeming/spacemit-image-builder/components/edk2/MdePkg/Include/Library/BaseMemoryLib.h"
	.file 19 "/home/kapoagaeming/spacemit-image-builder/components/edk2/MdePkg/Include/Library/MemoryAllocationLib.h"
	.file 20 "/home/kapoagaeming/spacemit-image-builder/components/edk2/MdePkg/Include/Library/UefiBootServicesTableLib.h"
	.file 21 "/home/kapoagaeming/spacemit-image-builder/components/edk2/MdePkg/Include/Library/DebugLib.h"
	.section	.note.GNU-stack,"",@progbits
