	.file	"NvmExpressHci.c"
	.option pic
	.option norelax
	.attribute arch, "rv64i2p1_m2p0_a2p1_f2p2_d2p2_c2p0_zicsr2p0_zifencei2p0_zmmul1p0_zaamo1p0_zalrsc1p0_zca1p0_zcd1p0"
	.attribute unaligned_access, 0
	.attribute stack_align, 16
	.text
.Ltext0:
	.cfi_sections	.debug_frame
	.file 0 "/home/kapoagaeming/Downloads/spacemit-image-builder/components/Build/Milk-V-Jupiter/RELEASE_GCC5/RISCV64/MdeModulePkg/Bus/Pci/NvmExpressDxe/NvmExpressDxe" "/home/kapoagaeming/Downloads/spacemit-image-builder/components/edk2/MdeModulePkg/Bus/Pci/NvmExpressDxe/NvmExpressHci.c"
	.globl	mNvmeControllerNumber
	.section	.bss.mNvmeControllerNumber,"aw",@nobits
	.align	3
	.type	mNvmeControllerNumber, @object
	.size	mNvmeControllerNumber, 8
mNvmeControllerNumber:
	.zero	8
	.section	.text.ReadNvmeControllerCapabilities,"ax",@progbits
	.align	1
	.globl	ReadNvmeControllerCapabilities
	.type	ReadNvmeControllerCapabilities, @function
ReadNvmeControllerCapabilities:
.LFB0:
	.file 1 "/home/kapoagaeming/Downloads/spacemit-image-builder/components/edk2/MdeModulePkg/Bus/Pci/NvmExpressDxe/NvmExpressHci.c"
	.loc 1 36 1
	.cfi_startproc
	addi	sp,sp,-64
	.cfi_def_cfa_offset 64
	sd	ra,56(sp)
	sd	s0,48(sp)
	.cfi_offset 1, -8
	.cfi_offset 8, -16
	addi	s0,sp,64
	.cfi_def_cfa 8, 0
	sd	a0,-56(s0)
	sd	a1,-64(s0)
	.loc 1 41 9
	ld	a5,-56(s0)
	ld	a5,32(a5)
	sd	a5,-24(s0)
	.loc 1 42 22
	ld	a5,-24(s0)
	ld	a6,16(a5)
	.loc 1 42 12
	addi	a5,s0,-40
	li	a4,2
	li	a3,0
	li	a2,0
	li	a1,2
	ld	a0,-24(s0)
	jalr	a6
.LVL0:
	sd	a0,-32(s0)
	.loc 1 51 34
	ld	a5,-32(s0)
	.loc 1 51 6
	bge	a5,zero,.L2
	.loc 1 52 12
	ld	a5,-32(s0)
	j	.L4
.L2:
	.loc 1 55 3
	ld	a5,-40(s0)
	mv	a1,a5
	ld	a0,-64(s0)
	call	WriteUnaligned64@plt
	.loc 1 56 10
	li	a5,0
.L4:
	.loc 1 57 1
	mv	a0,a5
	ld	ra,56(sp)
	.cfi_restore 1
	ld	s0,48(sp)
	.cfi_restore 8
	.cfi_def_cfa 2, 64
	addi	sp,sp,64
	.cfi_def_cfa_offset 0
	jr	ra
	.cfi_endproc
.LFE0:
	.size	ReadNvmeControllerCapabilities, .-ReadNvmeControllerCapabilities
	.section	.text.ReadNvmeControllerConfiguration,"ax",@progbits
	.align	1
	.globl	ReadNvmeControllerConfiguration
	.type	ReadNvmeControllerConfiguration, @function
ReadNvmeControllerConfiguration:
.LFB1:
	.loc 1 74 1
	.cfi_startproc
	addi	sp,sp,-64
	.cfi_def_cfa_offset 64
	sd	ra,56(sp)
	sd	s0,48(sp)
	.cfi_offset 1, -8
	.cfi_offset 8, -16
	addi	s0,sp,64
	.cfi_def_cfa 8, 0
	sd	a0,-56(s0)
	sd	a1,-64(s0)
	.loc 1 79 9
	ld	a5,-56(s0)
	ld	a5,32(a5)
	sd	a5,-24(s0)
	.loc 1 80 22
	ld	a5,-24(s0)
	ld	a6,16(a5)
	.loc 1 80 12
	addi	a5,s0,-36
	li	a4,1
	li	a3,20
	li	a2,0
	li	a1,2
	ld	a0,-24(s0)
	jalr	a6
.LVL1:
	sd	a0,-32(s0)
	.loc 1 89 34
	ld	a5,-32(s0)
	.loc 1 89 6
	bge	a5,zero,.L6
	.loc 1 90 12
	ld	a5,-32(s0)
	j	.L8
.L6:
	.loc 1 93 3
	lw	a5,-36(s0)
	mv	a1,a5
	ld	a0,-64(s0)
	call	WriteUnaligned32@plt
	.loc 1 94 10
	li	a5,0
.L8:
	.loc 1 95 1
	mv	a0,a5
	ld	ra,56(sp)
	.cfi_restore 1
	ld	s0,48(sp)
	.cfi_restore 8
	.cfi_def_cfa 2, 64
	addi	sp,sp,64
	.cfi_def_cfa_offset 0
	jr	ra
	.cfi_endproc
.LFE1:
	.size	ReadNvmeControllerConfiguration, .-ReadNvmeControllerConfiguration
	.section	.text.WriteNvmeControllerConfiguration,"ax",@progbits
	.align	1
	.globl	WriteNvmeControllerConfiguration
	.type	WriteNvmeControllerConfiguration, @function
WriteNvmeControllerConfiguration:
.LFB2:
	.loc 1 112 1
	.cfi_startproc
	addi	sp,sp,-64
	.cfi_def_cfa_offset 64
	sd	ra,56(sp)
	sd	s0,48(sp)
	.cfi_offset 1, -8
	.cfi_offset 8, -16
	addi	s0,sp,64
	.cfi_def_cfa 8, 0
	sd	a0,-56(s0)
	sd	a1,-64(s0)
	.loc 1 117 9
	ld	a5,-56(s0)
	ld	a5,32(a5)
	sd	a5,-32(s0)
	.loc 1 118 10
	ld	a0,-64(s0)
	call	ReadUnaligned32@plt
	mv	a5,a0
	.loc 1 118 8 discriminator 1
	sw	a5,-36(s0)
	.loc 1 119 22
	ld	a5,-32(s0)
	ld	a6,24(a5)
	.loc 1 119 12
	addi	a5,s0,-36
	li	a4,1
	li	a3,20
	li	a2,0
	li	a1,2
	ld	a0,-32(s0)
	jalr	a6
.LVL2:
	sd	a0,-24(s0)
	.loc 1 128 34
	ld	a5,-24(s0)
	.loc 1 128 6
	bge	a5,zero,.L10
	.loc 1 129 12
	ld	a5,-24(s0)
	j	.L12
.L10:
	.loc 1 140 10
	li	a5,0
.L12:
	.loc 1 141 1
	mv	a0,a5
	ld	ra,56(sp)
	.cfi_restore 1
	ld	s0,48(sp)
	.cfi_restore 8
	.cfi_def_cfa 2, 64
	addi	sp,sp,64
	.cfi_def_cfa_offset 0
	jr	ra
	.cfi_endproc
.LFE2:
	.size	WriteNvmeControllerConfiguration, .-WriteNvmeControllerConfiguration
	.section	.text.ReadNvmeControllerStatus,"ax",@progbits
	.align	1
	.globl	ReadNvmeControllerStatus
	.type	ReadNvmeControllerStatus, @function
ReadNvmeControllerStatus:
.LFB3:
	.loc 1 158 1
	.cfi_startproc
	addi	sp,sp,-64
	.cfi_def_cfa_offset 64
	sd	ra,56(sp)
	sd	s0,48(sp)
	.cfi_offset 1, -8
	.cfi_offset 8, -16
	addi	s0,sp,64
	.cfi_def_cfa 8, 0
	sd	a0,-56(s0)
	sd	a1,-64(s0)
	.loc 1 163 9
	ld	a5,-56(s0)
	ld	a5,32(a5)
	sd	a5,-24(s0)
	.loc 1 164 22
	ld	a5,-24(s0)
	ld	a6,16(a5)
	.loc 1 164 12
	addi	a5,s0,-36
	li	a4,1
	li	a3,28
	li	a2,0
	li	a1,2
	ld	a0,-24(s0)
	jalr	a6
.LVL3:
	sd	a0,-32(s0)
	.loc 1 173 34
	ld	a5,-32(s0)
	.loc 1 173 6
	bge	a5,zero,.L14
	.loc 1 174 12
	ld	a5,-32(s0)
	j	.L16
.L14:
	.loc 1 177 3
	lw	a5,-36(s0)
	mv	a1,a5
	ld	a0,-64(s0)
	call	WriteUnaligned32@plt
	.loc 1 178 10
	li	a5,0
.L16:
	.loc 1 179 1
	mv	a0,a5
	ld	ra,56(sp)
	.cfi_restore 1
	ld	s0,48(sp)
	.cfi_restore 8
	.cfi_def_cfa 2, 64
	addi	sp,sp,64
	.cfi_def_cfa_offset 0
	jr	ra
	.cfi_endproc
.LFE3:
	.size	ReadNvmeControllerStatus, .-ReadNvmeControllerStatus
	.section	.text.WriteNvmeAdminQueueAttributes,"ax",@progbits
	.align	1
	.globl	WriteNvmeAdminQueueAttributes
	.type	WriteNvmeAdminQueueAttributes, @function
WriteNvmeAdminQueueAttributes:
.LFB4:
	.loc 1 196 1
	.cfi_startproc
	addi	sp,sp,-64
	.cfi_def_cfa_offset 64
	sd	ra,56(sp)
	sd	s0,48(sp)
	.cfi_offset 1, -8
	.cfi_offset 8, -16
	addi	s0,sp,64
	.cfi_def_cfa 8, 0
	sd	a0,-56(s0)
	sd	a1,-64(s0)
	.loc 1 201 9
	ld	a5,-56(s0)
	ld	a5,32(a5)
	sd	a5,-24(s0)
	.loc 1 202 10
	ld	a0,-64(s0)
	call	ReadUnaligned32@plt
	mv	a5,a0
	.loc 1 202 8 discriminator 1
	sw	a5,-36(s0)
	.loc 1 203 22
	ld	a5,-24(s0)
	ld	a6,24(a5)
	.loc 1 203 12
	addi	a5,s0,-36
	li	a4,1
	li	a3,36
	li	a2,0
	li	a1,2
	ld	a0,-24(s0)
	jalr	a6
.LVL4:
	sd	a0,-32(s0)
	.loc 1 212 34
	ld	a5,-32(s0)
	.loc 1 212 6
	bge	a5,zero,.L18
	.loc 1 213 12
	ld	a5,-32(s0)
	j	.L20
.L18:
	.loc 1 219 10
	li	a5,0
.L20:
	.loc 1 220 1
	mv	a0,a5
	ld	ra,56(sp)
	.cfi_restore 1
	ld	s0,48(sp)
	.cfi_restore 8
	.cfi_def_cfa 2, 64
	addi	sp,sp,64
	.cfi_def_cfa_offset 0
	jr	ra
	.cfi_endproc
.LFE4:
	.size	WriteNvmeAdminQueueAttributes, .-WriteNvmeAdminQueueAttributes
	.section	.text.WriteNvmeAdminSubmissionQueueBaseAddress,"ax",@progbits
	.align	1
	.globl	WriteNvmeAdminSubmissionQueueBaseAddress
	.type	WriteNvmeAdminSubmissionQueueBaseAddress, @function
WriteNvmeAdminSubmissionQueueBaseAddress:
.LFB5:
	.loc 1 237 1
	.cfi_startproc
	addi	sp,sp,-64
	.cfi_def_cfa_offset 64
	sd	ra,56(sp)
	sd	s0,48(sp)
	.cfi_offset 1, -8
	.cfi_offset 8, -16
	addi	s0,sp,64
	.cfi_def_cfa 8, 0
	sd	a0,-56(s0)
	sd	a1,-64(s0)
	.loc 1 242 9
	ld	a5,-56(s0)
	ld	a5,32(a5)
	sd	a5,-24(s0)
	.loc 1 243 10
	ld	a0,-64(s0)
	call	ReadUnaligned64@plt
	mv	a5,a0
	.loc 1 243 8 discriminator 1
	sd	a5,-40(s0)
	.loc 1 245 22
	ld	a5,-24(s0)
	ld	a6,24(a5)
	.loc 1 245 12
	addi	a5,s0,-40
	li	a4,2
	li	a3,40
	li	a2,0
	li	a1,2
	ld	a0,-24(s0)
	jalr	a6
.LVL5:
	sd	a0,-32(s0)
	.loc 1 254 34
	ld	a5,-32(s0)
	.loc 1 254 6
	bge	a5,zero,.L22
	.loc 1 255 12
	ld	a5,-32(s0)
	j	.L24
.L22:
	.loc 1 260 10
	li	a5,0
.L24:
	.loc 1 261 1
	mv	a0,a5
	ld	ra,56(sp)
	.cfi_restore 1
	ld	s0,48(sp)
	.cfi_restore 8
	.cfi_def_cfa 2, 64
	addi	sp,sp,64
	.cfi_def_cfa_offset 0
	jr	ra
	.cfi_endproc
.LFE5:
	.size	WriteNvmeAdminSubmissionQueueBaseAddress, .-WriteNvmeAdminSubmissionQueueBaseAddress
	.section	.text.WriteNvmeAdminCompletionQueueBaseAddress,"ax",@progbits
	.align	1
	.globl	WriteNvmeAdminCompletionQueueBaseAddress
	.type	WriteNvmeAdminCompletionQueueBaseAddress, @function
WriteNvmeAdminCompletionQueueBaseAddress:
.LFB6:
	.loc 1 278 1
	.cfi_startproc
	addi	sp,sp,-64
	.cfi_def_cfa_offset 64
	sd	ra,56(sp)
	sd	s0,48(sp)
	.cfi_offset 1, -8
	.cfi_offset 8, -16
	addi	s0,sp,64
	.cfi_def_cfa 8, 0
	sd	a0,-56(s0)
	sd	a1,-64(s0)
	.loc 1 283 9
	ld	a5,-56(s0)
	ld	a5,32(a5)
	sd	a5,-24(s0)
	.loc 1 284 10
	ld	a0,-64(s0)
	call	ReadUnaligned64@plt
	mv	a5,a0
	.loc 1 284 8 discriminator 1
	sd	a5,-40(s0)
	.loc 1 286 22
	ld	a5,-24(s0)
	ld	a6,24(a5)
	.loc 1 286 12
	addi	a5,s0,-40
	li	a4,2
	li	a3,48
	li	a2,0
	li	a1,2
	ld	a0,-24(s0)
	jalr	a6
.LVL6:
	sd	a0,-32(s0)
	.loc 1 295 34
	ld	a5,-32(s0)
	.loc 1 295 6
	bge	a5,zero,.L26
	.loc 1 296 12
	ld	a5,-32(s0)
	j	.L28
.L26:
	.loc 1 301 10
	li	a5,0
.L28:
	.loc 1 302 1
	mv	a0,a5
	ld	ra,56(sp)
	.cfi_restore 1
	ld	s0,48(sp)
	.cfi_restore 8
	.cfi_def_cfa 2, 64
	addi	sp,sp,64
	.cfi_def_cfa_offset 0
	jr	ra
	.cfi_endproc
.LFE6:
	.size	WriteNvmeAdminCompletionQueueBaseAddress, .-WriteNvmeAdminCompletionQueueBaseAddress
	.section	.text.NvmeDisableController,"ax",@progbits
	.align	1
	.globl	NvmeDisableController
	.type	NvmeDisableController, @function
NvmeDisableController:
.LFB7:
	.loc 1 317 1
	.cfi_startproc
	addi	sp,sp,-64
	.cfi_def_cfa_offset 64
	sd	ra,56(sp)
	sd	s0,48(sp)
	.cfi_offset 1, -8
	.cfi_offset 8, -16
	addi	s0,sp,64
	.cfi_def_cfa 8, 0
	sd	a0,-56(s0)
	.loc 1 327 12
	addi	a5,s0,-40
	mv	a1,a5
	ld	a0,-56(s0)
	call	ReadNvmeControllerConfiguration
	sd	a0,-24(s0)
	.loc 1 328 34
	ld	a5,-24(s0)
	.loc 1 328 6
	bge	a5,zero,.L30
	.loc 1 329 12
	ld	a5,-24(s0)
	j	.L42
.L30:
	.loc 1 332 9
	lhu	a5,-40(s0)
	andi	a5,a5,-2
	sh	a5,-40(s0)
	.loc 1 337 12
	addi	a5,s0,-40
	mv	a1,a5
	ld	a0,-56(s0)
	call	WriteNvmeControllerConfiguration
	sd	a0,-24(s0)
	.loc 1 339 34
	ld	a5,-24(s0)
	.loc 1 339 6
	bge	a5,zero,.L32
	.loc 1 340 12
	ld	a5,-24(s0)
	j	.L42
.L32:
	.loc 1 347 19
	ld	a5,-56(s0)
	lbu	a5,271(a5)
	.loc 1 347 6
	bne	a5,zero,.L33
	.loc 1 348 13
	li	a5,1
	sb	a5,-29(s0)
	j	.L34
.L33:
	.loc 1 350 13
	ld	a5,-56(s0)
	lbu	a5,271(a5)
	sb	a5,-29(s0)
.L34:
	.loc 1 353 25
	lbu	a5,-29(s0)
	sext.w	a4,a5
	li	a5,500
	mulw	a5,a4,a5
	sext.w	a5,a5
	.loc 1 353 14
	sw	a5,-28(s0)
	.loc 1 353 3
	j	.L35
.L39:
	.loc 1 354 8
	la	a5,gBS
	ld	a5,0(a5)
	ld	a5,248(a5)
	.loc 1 354 5
	li	a0,1000
	jalr	a5
.LVL7:
	.loc 1 359 14
	addi	a5,s0,-48
	mv	a1,a5
	ld	a0,-56(s0)
	call	ReadNvmeControllerStatus
	sd	a0,-24(s0)
	.loc 1 361 36
	ld	a5,-24(s0)
	.loc 1 361 8
	bge	a5,zero,.L36
	.loc 1 362 14
	ld	a5,-24(s0)
	j	.L42
.L36:
	.loc 1 365 18
	lbu	a5,-48(s0)
	andi	a5,a5,1
	andi	a5,a5,0xff
	.loc 1 365 8
	beq	a5,zero,.L44
	.loc 1 353 45 discriminator 2
	lw	a5,-28(s0)
	addiw	a5,a5,-1
	sw	a5,-28(s0)
.L35:
	.loc 1 353 39 discriminator 1
	lw	a5,-28(s0)
	sext.w	a5,a5
	bne	a5,zero,.L39
	j	.L38
.L44:
	.loc 1 366 7
	nop
.L38:
	.loc 1 370 6
	lw	a5,-28(s0)
	sext.w	a5,a5
	bne	a5,zero,.L43
	.loc 1 371 12
	li	a5,-1
	slli	a5,a5,63
	addi	a5,a5,7
	sd	a5,-24(s0)
	.loc 1 372 6
	call	ReportProgressCodeEnabled@plt
	.loc 1 372 185 discriminator 3
	call	ReportErrorCodeEnabled@plt
	mv	a5,a0
	.loc 1 372 358 discriminator 5
	beq	a5,zero,.L41
	.loc 1 372 273 discriminator 8
	li	a5,34013184
	addi	a1,a5,5
	li	a5,-2147483648
	addi	a0,a5,2
	call	ReportStatusCode@plt
	.loc 1 372 182
	j	.L43
.L41:
	.loc 1 372 361 discriminator 9
	call	ReportDebugCodeEnabled@plt
.L43:
	.loc 1 379 10
	ld	a5,-24(s0)
.L42:
	.loc 1 380 1
	mv	a0,a5
	ld	ra,56(sp)
	.cfi_restore 1
	ld	s0,48(sp)
	.cfi_restore 8
	.cfi_def_cfa 2, 64
	addi	sp,sp,64
	.cfi_def_cfa_offset 0
	jr	ra
	.cfi_endproc
.LFE7:
	.size	NvmeDisableController, .-NvmeDisableController
	.section	.text.NvmeEnableController,"ax",@progbits
	.align	1
	.globl	NvmeEnableController
	.type	NvmeEnableController, @function
NvmeEnableController:
.LFB8:
	.loc 1 396 1
	.cfi_startproc
	addi	sp,sp,-64
	.cfi_def_cfa_offset 64
	sd	ra,56(sp)
	sd	s0,48(sp)
	.cfi_offset 1, -8
	.cfi_offset 8, -16
	addi	s0,sp,64
	.cfi_def_cfa 8, 0
	sd	a0,-56(s0)
	.loc 1 403 3
	la	a0,gNVMeEnableStartEventGroupGuid
	call	EfiEventGroupSignal@plt
	.loc 1 409 3
	addi	a5,s0,-40
	li	a1,4
	mv	a0,a5
	call	ZeroMem@plt
	.loc 1 410 9
	lhu	a5,-40(s0)
	ori	a5,a5,1
	sh	a5,-40(s0)
	.loc 1 411 13
	lbu	a5,-38(s0)
	andi	a5,a5,-16
	ori	a5,a5,6
	sb	a5,-38(s0)
	.loc 1 412 13
	lbu	a5,-38(s0)
	andi	a5,a5,15
	ori	a5,a5,64
	sb	a5,-38(s0)
	.loc 1 414 12
	addi	a5,s0,-40
	mv	a1,a5
	ld	a0,-56(s0)
	call	WriteNvmeControllerConfiguration
	sd	a0,-24(s0)
	.loc 1 415 34
	ld	a5,-24(s0)
	.loc 1 415 6
	blt	a5,zero,.L58
	.loc 1 423 19
	ld	a5,-56(s0)
	lbu	a5,271(a5)
	.loc 1 423 6
	bne	a5,zero,.L48
	.loc 1 424 13
	li	a5,1
	sb	a5,-29(s0)
	j	.L49
.L48:
	.loc 1 426 13
	ld	a5,-56(s0)
	lbu	a5,271(a5)
	sb	a5,-29(s0)
.L49:
	.loc 1 429 25
	lbu	a5,-29(s0)
	sext.w	a4,a5
	li	a5,500
	mulw	a5,a4,a5
	sext.w	a5,a5
	.loc 1 429 14
	sw	a5,-28(s0)
	.loc 1 429 3
	j	.L50
.L54:
	.loc 1 430 8
	la	a5,gBS
	ld	a5,0(a5)
	ld	a5,248(a5)
	.loc 1 430 5
	li	a0,1000
	jalr	a5
.LVL8:
	.loc 1 435 14
	addi	a5,s0,-48
	mv	a1,a5
	ld	a0,-56(s0)
	call	ReadNvmeControllerStatus
	sd	a0,-24(s0)
	.loc 1 437 36
	ld	a5,-24(s0)
	.loc 1 437 8
	blt	a5,zero,.L59
	.loc 1 441 9
	lbu	a5,-48(s0)
	andi	a5,a5,1
	andi	a5,a5,0xff
	.loc 1 441 8
	bne	a5,zero,.L60
	.loc 1 429 45 discriminator 2
	lw	a5,-28(s0)
	addiw	a5,a5,-1
	sw	a5,-28(s0)
.L50:
	.loc 1 429 39 discriminator 1
	lw	a5,-28(s0)
	sext.w	a5,a5
	bne	a5,zero,.L54
	j	.L53
.L60:
	.loc 1 442 7
	nop
.L53:
	.loc 1 446 6
	lw	a5,-28(s0)
	sext.w	a5,a5
	bne	a5,zero,.L61
	.loc 1 447 12
	li	a5,-1
	slli	a5,a5,63
	addi	a5,a5,18
	sd	a5,-24(s0)
	.loc 1 448 6
	call	ReportProgressCodeEnabled@plt
	.loc 1 448 185 discriminator 3
	call	ReportErrorCodeEnabled@plt
	mv	a5,a0
	.loc 1 448 358 discriminator 5
	beq	a5,zero,.L56
	.loc 1 448 273 discriminator 8
	li	a5,34013184
	addi	a1,a5,5
	li	a5,-2147483648
	addi	a0,a5,2
	call	ReportStatusCode@plt
	.loc 1 448 182
	nop
	.loc 1 456 1
	j	.L61
.L56:
	.loc 1 448 361 discriminator 9
	call	ReportDebugCodeEnabled@plt
	.loc 1 456 1
	j	.L61
.L58:
	.loc 1 416 5
	nop
	j	.L47
.L59:
	.loc 1 438 7
	nop
	j	.L47
.L61:
	.loc 1 456 1
	nop
.L47:
	.loc 1 457 3
	la	a0,gNVMeEnableCompleteEventGroupGuid
	call	EfiEventGroupSignal@plt
	.loc 1 458 10
	ld	a5,-24(s0)
	.loc 1 459 1
	mv	a0,a5
	ld	ra,56(sp)
	.cfi_restore 1
	ld	s0,48(sp)
	.cfi_restore 8
	.cfi_def_cfa 2, 64
	addi	sp,sp,64
	.cfi_def_cfa_offset 0
	jr	ra
	.cfi_endproc
.LFE8:
	.size	NvmeEnableController, .-NvmeEnableController
	.section	.text.NvmeIdentifyController,"ax",@progbits
	.align	1
	.globl	NvmeIdentifyController
	.type	NvmeIdentifyController, @function
NvmeIdentifyController:
.LFB9:
	.loc 1 476 1
	.cfi_startproc
	addi	sp,sp,-160
	.cfi_def_cfa_offset 160
	sd	ra,152(sp)
	sd	s0,144(sp)
	.cfi_offset 1, -8
	.cfi_offset 8, -16
	addi	s0,sp,160
	.cfi_def_cfa 8, 0
	sd	a0,-152(s0)
	sd	a1,-160(s0)
	.loc 1 482 3
	addi	a5,s0,-80
	li	a1,56
	mv	a0,a5
	call	ZeroMem@plt
	.loc 1 483 3
	addi	a5,s0,-128
	li	a1,44
	mv	a0,a5
	call	ZeroMem@plt
	.loc 1 484 3
	addi	a5,s0,-144
	li	a1,16
	mv	a0,a5
	call	ZeroMem@plt
	.loc 1 486 23
	li	a5,6
	sb	a5,-128(s0)
	.loc 1 491 16
	sw	zero,-120(s0)
	.loc 1 493 25
	addi	a5,s0,-128
	sd	a5,-40(s0)
	.loc 1 494 32
	addi	a5,s0,-144
	sd	a5,-32(s0)
	.loc 1 495 32
	ld	a5,-160(s0)
	sd	a5,-72(s0)
	.loc 1 496 32
	li	a5,4096
	sw	a5,-64(s0)
	.loc 1 497 34
	li	a5,9998336
	addi	a1,a5,1664
	li	a0,5
	call	MultU64x32@plt
	mv	a5,a0
	.loc 1 497 32 discriminator 1
	sd	a5,-80(s0)
	.loc 1 498 27
	sb	zero,-44(s0)
	.loc 1 502 17
	li	a5,1
	sw	a5,-108(s0)
	.loc 1 503 17
	li	a5,4
	sb	a5,-124(s0)
	.loc 1 505 29
	ld	a5,-152(s0)
	ld	a5,80(a5)
	.loc 1 505 12
	ld	a4,-152(s0)
	addi	a4,a4,72
	addi	a2,s0,-80
	li	a3,0
	li	a1,0
	mv	a0,a4
	jalr	a5
.LVL9:
	sd	a0,-24(s0)
	.loc 1 512 10
	ld	a5,-24(s0)
	.loc 1 513 1
	mv	a0,a5
	ld	ra,152(sp)
	.cfi_restore 1
	ld	s0,144(sp)
	.cfi_restore 8
	.cfi_def_cfa 2, 160
	addi	sp,sp,160
	.cfi_def_cfa_offset 0
	jr	ra
	.cfi_endproc
.LFE9:
	.size	NvmeIdentifyController, .-NvmeIdentifyController
	.section	.text.NvmeIdentifyNamespace,"ax",@progbits
	.align	1
	.globl	NvmeIdentifyNamespace
	.type	NvmeIdentifyNamespace, @function
NvmeIdentifyNamespace:
.LFB10:
	.loc 1 532 1
	.cfi_startproc
	addi	sp,sp,-176
	.cfi_def_cfa_offset 176
	sd	ra,168(sp)
	sd	s0,160(sp)
	.cfi_offset 1, -8
	.cfi_offset 8, -16
	addi	s0,sp,176
	.cfi_def_cfa 8, 0
	sd	a0,-152(s0)
	mv	a5,a1
	sd	a2,-168(s0)
	sw	a5,-156(s0)
	.loc 1 538 3
	addi	a5,s0,-80
	li	a1,56
	mv	a0,a5
	call	ZeroMem@plt
	.loc 1 539 3
	addi	a5,s0,-128
	li	a1,44
	mv	a0,a5
	call	ZeroMem@plt
	.loc 1 540 3
	addi	a5,s0,-144
	li	a1,16
	mv	a0,a5
	call	ZeroMem@plt
	.loc 1 542 25
	addi	a5,s0,-128
	sd	a5,-40(s0)
	.loc 1 543 32
	addi	a5,s0,-144
	sd	a5,-32(s0)
	.loc 1 545 23
	li	a5,6
	sb	a5,-128(s0)
	.loc 1 546 16
	lw	a5,-156(s0)
	sw	a5,-120(s0)
	.loc 1 547 32
	ld	a5,-168(s0)
	sd	a5,-72(s0)
	.loc 1 548 32
	li	a5,4096
	sw	a5,-64(s0)
	.loc 1 549 34
	li	a5,9998336
	addi	a1,a5,1664
	li	a0,5
	call	MultU64x32@plt
	mv	a5,a0
	.loc 1 549 32 discriminator 1
	sd	a5,-80(s0)
	.loc 1 550 27
	sb	zero,-44(s0)
	.loc 1 554 16
	ld	a5,-40(s0)
	.loc 1 554 32
	sw	zero,20(a5)
	.loc 1 555 16
	ld	a5,-40(s0)
	.loc 1 555 32
	li	a4,4
	sb	a4,4(a5)
	.loc 1 557 29
	ld	a5,-152(s0)
	ld	a5,80(a5)
	.loc 1 557 12
	ld	a4,-152(s0)
	addi	a4,a4,72
	addi	a2,s0,-80
	lw	a1,-156(s0)
	li	a3,0
	mv	a0,a4
	jalr	a5
.LVL10:
	sd	a0,-24(s0)
	.loc 1 564 10
	ld	a5,-24(s0)
	.loc 1 565 1
	mv	a0,a5
	ld	ra,168(sp)
	.cfi_restore 1
	ld	s0,160(sp)
	.cfi_restore 8
	.cfi_def_cfa 2, 176
	addi	sp,sp,176
	.cfi_def_cfa_offset 0
	jr	ra
	.cfi_endproc
.LFE10:
	.size	NvmeIdentifyNamespace, .-NvmeIdentifyNamespace
	.section	.text.NvmeCreateIoCompletionQueue,"ax",@progbits
	.align	1
	.globl	NvmeCreateIoCompletionQueue
	.type	NvmeCreateIoCompletionQueue, @function
NvmeCreateIoCompletionQueue:
.LFB11:
	.loc 1 580 1
	.cfi_startproc
	addi	sp,sp,-176
	.cfi_def_cfa_offset 176
	sd	ra,168(sp)
	sd	s0,160(sp)
	.cfi_offset 1, -8
	.cfi_offset 8, -16
	addi	s0,sp,176
	.cfi_def_cfa 8, 0
	sd	a0,-168(s0)
	.loc 1 589 10
	sd	zero,-24(s0)
	.loc 1 590 26
	ld	a5,-168(s0)
	li	a4,1
	sb	a4,258(a5)
	.loc 1 592 14
	li	a5,1
	sw	a5,-28(s0)
	.loc 1 592 3
	j	.L67
.L73:
	.loc 1 593 5
	addi	a5,s0,-88
	li	a1,56
	mv	a0,a5
	call	ZeroMem@plt
	.loc 1 594 5
	addi	a5,s0,-136
	li	a1,44
	mv	a0,a5
	call	ZeroMem@plt
	.loc 1 595 5
	addi	a5,s0,-152
	li	a1,16
	mv	a0,a5
	call	ZeroMem@plt
	.loc 1 596 5
	addi	a5,s0,-160
	li	a1,8
	mv	a0,a5
	call	ZeroMem@plt
	.loc 1 598 27
	addi	a5,s0,-136
	sd	a5,-48(s0)
	.loc 1 599 34
	addi	a5,s0,-152
	sd	a5,-40(s0)
	.loc 1 601 25
	li	a5,5
	sb	a5,-136(s0)
	.loc 1 602 60
	ld	a4,-168(s0)
	lwu	a5,-28(s0)
	addi	a5,a5,26
	slli	a5,a5,3
	add	a5,a4,a5
	ld	a5,0(a5)
	.loc 1 602 34
	sd	a5,-80(s0)
	.loc 1 603 34
	li	a5,4096
	sw	a5,-72(s0)
	.loc 1 604 36
	li	a5,9998336
	addi	a1,a5,1664
	li	a0,5
	call	MultU64x32@plt
	mv	a5,a0
	.loc 1 604 34 discriminator 1
	sd	a5,-88(s0)
	.loc 1 605 29
	sb	zero,-52(s0)
	.loc 1 607 8
	lw	a5,-28(s0)
	sext.w	a4,a5
	li	a5,1
	bne	a4,a5,.L68
	.loc 1 608 17
	li	a5,1
	sh	a5,-30(s0)
	j	.L69
.L68:
	.loc 1 610 23
	ld	a5,-168(s0)
	lhu	a5,268(a5)
	.loc 1 610 10
	sext.w	a4,a5
	li	a5,255
	bleu	a4,a5,.L70
	.loc 1 611 19
	li	a5,255
	sh	a5,-30(s0)
	j	.L69
.L70:
	.loc 1 613 19
	ld	a5,-168(s0)
	lhu	a5,268(a5)
	sh	a5,-30(s0)
.L69:
	.loc 1 617 16
	lw	a5,-28(s0)
	slli	a5,a5,48
	srli	a5,a5,48
	sh	a5,-160(s0)
	.loc 1 618 18
	lhu	a5,-30(s0)
	sh	a5,-158(s0)
	.loc 1 619 15
	ld	a4,-160(s0)
	li	a5,1
	slli	a5,a5,32
	or	a5,a4,a5
	sd	a5,-160(s0)
	.loc 1 620 28
	ld	a5,-48(s0)
	.loc 1 620 14
	addi	a5,a5,20
	.loc 1 620 5
	addi	a4,s0,-160
	li	a2,8
	mv	a1,a4
	mv	a0,a5
	call	CopyMem@plt
	.loc 1 621 18
	ld	a5,-48(s0)
	.loc 1 621 34
	li	a4,12
	sb	a4,4(a5)
	.loc 1 623 31
	ld	a5,-168(s0)
	ld	a5,80(a5)
	.loc 1 623 14
	ld	a4,-168(s0)
	addi	a4,a4,72
	addi	a2,s0,-88
	li	a3,0
	li	a1,0
	mv	a0,a4
	jalr	a5
.LVL11:
	sd	a0,-24(s0)
	.loc 1 629 36
	ld	a5,-24(s0)
	.loc 1 629 8
	blt	a5,zero,.L75
	.loc 1 592 35 discriminator 2
	lw	a5,-28(s0)
	addiw	a5,a5,1
	sw	a5,-28(s0)
.L67:
	.loc 1 592 25 discriminator 1
	lw	a5,-28(s0)
	sext.w	a4,a5
	li	a5,2
	bleu	a4,a5,.L73
	j	.L72
.L75:
	.loc 1 630 7
	nop
.L72:
	.loc 1 634 26
	ld	a5,-168(s0)
	sb	zero,258(a5)
	.loc 1 636 10
	ld	a5,-24(s0)
	.loc 1 637 1
	mv	a0,a5
	ld	ra,168(sp)
	.cfi_restore 1
	ld	s0,160(sp)
	.cfi_restore 8
	.cfi_def_cfa 2, 176
	addi	sp,sp,176
	.cfi_def_cfa_offset 0
	jr	ra
	.cfi_endproc
.LFE11:
	.size	NvmeCreateIoCompletionQueue, .-NvmeCreateIoCompletionQueue
	.section	.text.NvmeCreateIoSubmissionQueue,"ax",@progbits
	.align	1
	.globl	NvmeCreateIoSubmissionQueue
	.type	NvmeCreateIoSubmissionQueue, @function
NvmeCreateIoSubmissionQueue:
.LFB12:
	.loc 1 652 1
	.cfi_startproc
	addi	sp,sp,-176
	.cfi_def_cfa_offset 176
	sd	ra,168(sp)
	sd	s0,160(sp)
	.cfi_offset 1, -8
	.cfi_offset 8, -16
	addi	s0,sp,176
	.cfi_def_cfa 8, 0
	sd	a0,-168(s0)
	.loc 1 661 10
	sd	zero,-24(s0)
	.loc 1 662 26
	ld	a5,-168(s0)
	li	a4,1
	sb	a4,258(a5)
	.loc 1 664 14
	li	a5,1
	sw	a5,-28(s0)
	.loc 1 664 3
	j	.L77
.L83:
	.loc 1 665 5
	addi	a5,s0,-88
	li	a1,56
	mv	a0,a5
	call	ZeroMem@plt
	.loc 1 666 5
	addi	a5,s0,-136
	li	a1,44
	mv	a0,a5
	call	ZeroMem@plt
	.loc 1 667 5
	addi	a5,s0,-152
	li	a1,16
	mv	a0,a5
	call	ZeroMem@plt
	.loc 1 668 5
	addi	a5,s0,-160
	li	a1,8
	mv	a0,a5
	call	ZeroMem@plt
	.loc 1 670 27
	addi	a5,s0,-136
	sd	a5,-48(s0)
	.loc 1 671 34
	addi	a5,s0,-152
	sd	a5,-40(s0)
	.loc 1 673 25
	li	a5,1
	sb	a5,-136(s0)
	.loc 1 674 60
	ld	a4,-168(s0)
	lwu	a5,-28(s0)
	addi	a5,a5,22
	slli	a5,a5,3
	add	a5,a4,a5
	ld	a5,8(a5)
	.loc 1 674 34
	sd	a5,-80(s0)
	.loc 1 675 34
	li	a5,4096
	sw	a5,-72(s0)
	.loc 1 676 36
	li	a5,9998336
	addi	a1,a5,1664
	li	a0,5
	call	MultU64x32@plt
	mv	a5,a0
	.loc 1 676 34 discriminator 1
	sd	a5,-88(s0)
	.loc 1 677 29
	sb	zero,-52(s0)
	.loc 1 679 8
	lw	a5,-28(s0)
	sext.w	a4,a5
	li	a5,1
	bne	a4,a5,.L78
	.loc 1 680 17
	li	a5,1
	sh	a5,-30(s0)
	j	.L79
.L78:
	.loc 1 682 23
	ld	a5,-168(s0)
	lhu	a5,268(a5)
	.loc 1 682 10
	sext.w	a4,a5
	li	a5,63
	bleu	a4,a5,.L80
	.loc 1 683 19
	li	a5,63
	sh	a5,-30(s0)
	j	.L79
.L80:
	.loc 1 685 19
	ld	a5,-168(s0)
	lhu	a5,268(a5)
	sh	a5,-30(s0)
.L79:
	.loc 1 689 16
	lw	a5,-28(s0)
	slli	a5,a5,48
	srli	a5,a5,48
	sh	a5,-160(s0)
	.loc 1 690 18
	lhu	a5,-30(s0)
	sh	a5,-158(s0)
	.loc 1 691 15
	ld	a4,-160(s0)
	li	a5,1
	slli	a5,a5,32
	or	a5,a4,a5
	sd	a5,-160(s0)
	.loc 1 692 17
	lw	a5,-28(s0)
	slli	a5,a5,48
	srli	a5,a5,48
	sh	a5,-154(s0)
	.loc 1 693 18
	ld	a4,-160(s0)
	li	a5,-3
	slli	a5,a5,33
	addi	a5,a5,-1
	and	a5,a4,a5
	sd	a5,-160(s0)
	.loc 1 694 28
	ld	a5,-48(s0)
	.loc 1 694 14
	addi	a5,a5,20
	.loc 1 694 5
	addi	a4,s0,-160
	li	a2,8
	mv	a1,a4
	mv	a0,a5
	call	CopyMem@plt
	.loc 1 695 18
	ld	a5,-48(s0)
	.loc 1 695 34
	li	a4,12
	sb	a4,4(a5)
	.loc 1 697 31
	ld	a5,-168(s0)
	ld	a5,80(a5)
	.loc 1 697 14
	ld	a4,-168(s0)
	addi	a4,a4,72
	addi	a2,s0,-88
	li	a3,0
	li	a1,0
	mv	a0,a4
	jalr	a5
.LVL12:
	sd	a0,-24(s0)
	.loc 1 703 36
	ld	a5,-24(s0)
	.loc 1 703 8
	blt	a5,zero,.L85
	.loc 1 664 35 discriminator 2
	lw	a5,-28(s0)
	addiw	a5,a5,1
	sw	a5,-28(s0)
.L77:
	.loc 1 664 25 discriminator 1
	lw	a5,-28(s0)
	sext.w	a4,a5
	li	a5,2
	bleu	a4,a5,.L83
	j	.L82
.L85:
	.loc 1 704 7
	nop
.L82:
	.loc 1 708 26
	ld	a5,-168(s0)
	sb	zero,258(a5)
	.loc 1 710 10
	ld	a5,-24(s0)
	.loc 1 711 1
	mv	a0,a5
	ld	ra,168(sp)
	.cfi_restore 1
	ld	s0,160(sp)
	.cfi_restore 8
	.cfi_def_cfa 2, 176
	addi	sp,sp,176
	.cfi_def_cfa_offset 0
	jr	ra
	.cfi_endproc
.LFE12:
	.size	NvmeCreateIoSubmissionQueue, .-NvmeCreateIoSubmissionQueue
	.section	.text.NvmeControllerInit,"ax",@progbits
	.align	1
	.globl	NvmeControllerInit
	.type	NvmeControllerInit, @function
NvmeControllerInit:
.LFB13:
	.loc 1 726 1
	.cfi_startproc
	addi	sp,sp,-160
	.cfi_def_cfa_offset 160
	sd	ra,152(sp)
	sd	s0,144(sp)
	.cfi_offset 1, -8
	.cfi_offset 8, -16
	addi	s0,sp,160
	.cfi_def_cfa 8, 0
	sd	a0,-152(s0)
	.loc 1 739 9
	ld	a5,-152(s0)
	ld	a5,32(a5)
	sd	a5,-32(s0)
	.loc 1 740 17
	ld	a5,-32(s0)
	ld	a5,120(a5)
	.loc 1 740 12
	addi	a4,s0,-40
	mv	a3,a4
	li	a2,0
	li	a1,4
	ld	a0,-32(s0)
	jalr	a5
.LVL13:
	sd	a0,-24(s0)
	.loc 1 747 7
	ld	a5,-24(s0)
	.loc 1 747 6
	blt	a5,zero,.L87
	.loc 1 748 14
	ld	a5,-40(s0)
	andi	a5,a5,1792
	sd	a5,-40(s0)
	.loc 1 749 19
	ld	a5,-32(s0)
	ld	a5,120(a5)
	.loc 1 749 14
	ld	a4,-40(s0)
	li	a3,0
	mv	a2,a4
	li	a1,2
	ld	a0,-32(s0)
	jalr	a5
.LVL14:
	sd	a0,-24(s0)
.L87:
	.loc 1 757 34
	ld	a5,-24(s0)
	.loc 1 757 6
	bge	a5,zero,.L88
	.loc 1 759 12
	ld	a5,-24(s0)
	j	.L100
.L88:
	.loc 1 765 12
	ld	a5,-152(s0)
	addi	a5,a5,268
	mv	a1,a5
	ld	a0,-152(s0)
	call	ReadNvmeControllerCapabilities
	sd	a0,-24(s0)
	.loc 1 766 34
	ld	a5,-24(s0)
	.loc 1 766 6
	bge	a5,zero,.L90
	.loc 1 767 12
	ld	a5,-24(s0)
	j	.L100
.L90:
	.loc 1 770 20
	ld	a5,-152(s0)
	ld	a5,272(a5)
	srli	a5,a5,5
	andi	a5,a5,-1
	andi	a5,a5,0xff
	.loc 1 770 25
	sext.w	a5,a5
	andi	a5,a5,1
	sext.w	a5,a5
	.loc 1 770 6
	bne	a5,zero,.L91
	.loc 1 772 12
	li	a5,-1
	slli	a5,a5,63
	addi	a5,a5,3
	j	.L100
.L91:
	.loc 1 780 19
	ld	a5,-152(s0)
	sh	zero,262(a5)
	.loc 1 781 19
	ld	a5,-152(s0)
	sh	zero,264(a5)
	.loc 1 782 19
	ld	a5,-152(s0)
	sh	zero,266(a5)
	.loc 1 783 18
	ld	a5,-152(s0)
	sb	zero,259(a5)
	.loc 1 784 18
	ld	a5,-152(s0)
	sb	zero,260(a5)
	.loc 1 785 18
	ld	a5,-152(s0)
	sb	zero,261(a5)
	.loc 1 786 26
	ld	a5,-152(s0)
	sh	zero,232(a5)
	.loc 1 787 26
	ld	a5,-152(s0)
	sh	zero,236(a5)
	.loc 1 788 26
	ld	a5,-152(s0)
	sh	zero,240(a5)
	.loc 1 789 26
	ld	a5,-152(s0)
	sh	zero,244(a5)
	.loc 1 790 26
	ld	a5,-152(s0)
	sh	zero,248(a5)
	.loc 1 791 26
	ld	a5,-152(s0)
	sh	zero,252(a5)
	.loc 1 792 24
	ld	a5,-152(s0)
	sh	zero,256(a5)
	.loc 1 794 12
	ld	a0,-152(s0)
	call	NvmeDisableController
	sd	a0,-24(s0)
	.loc 1 796 34
	ld	a5,-24(s0)
	.loc 1 796 6
	bge	a5,zero,.L92
	.loc 1 797 12
	ld	a5,-24(s0)
	j	.L100
.L92:
	.loc 1 803 12
	lw	a5,-48(s0)
	mv	a4,a5
	li	a5,-4096
	and	a5,a4,a5
	ori	a5,a5,1
	sw	a5,-48(s0)
	.loc 1 804 13
	lw	a5,-48(s0)
	mv	a4,a5
	li	a5,-61440
	addi	a5,a5,-1
	and	a5,a4,a5
	sw	a5,-48(s0)
	.loc 1 805 12
	lw	a5,-48(s0)
	mv	a4,a5
	li	a5,-268369920
	addi	a5,a5,-1
	and	a5,a4,a5
	mv	a4,a5
	li	a5,65536
	or	a5,a4,a5
	sw	a5,-48(s0)
	.loc 1 806 13
	lw	a5,-48(s0)
	mv	a4,a5
	li	a5,268435456
	addi	a5,a5,-1
	and	a5,a4,a5
	sw	a5,-48(s0)
	.loc 1 811 32
	ld	a5,-152(s0)
	ld	a5,128(a5)
	.loc 1 811 49
	mv	a4,a5
	li	a5,-4096
	and	a5,a4,a5
	.loc 1 811 7
	sd	a5,-56(s0)
	.loc 1 816 32
	ld	a5,-152(s0)
	ld	a4,128(a5)
	.loc 1 816 48
	li	a5,4096
	add	a5,a4,a5
	.loc 1 816 62
	mv	a4,a5
	li	a5,-4096
	and	a5,a4,a5
	.loc 1 816 7
	sd	a5,-64(s0)
	.loc 1 821 19
	ld	a5,-152(s0)
	ld	a5,120(a5)
	.loc 1 821 3
	li	a1,24576
	mv	a0,a5
	call	ZeroMem@plt
	.loc 1 822 52
	ld	a5,-152(s0)
	ld	a4,120(a5)
	.loc 1 822 24
	ld	a5,-152(s0)
	sd	a4,136(a5)
	.loc 1 823 59
	ld	a5,-152(s0)
	ld	a4,128(a5)
	.loc 1 823 31
	ld	a5,-152(s0)
	sd	a4,184(a5)
	.loc 1 824 52
	ld	a5,-152(s0)
	ld	a4,120(a5)
	.loc 1 824 61
	li	a5,4096
	add	a4,a4,a5
	.loc 1 824 24
	ld	a5,-152(s0)
	sd	a4,160(a5)
	.loc 1 825 59
	ld	a5,-152(s0)
	ld	a4,128(a5)
	.loc 1 825 75
	li	a5,4096
	add	a4,a4,a5
	.loc 1 825 31
	ld	a5,-152(s0)
	sd	a4,208(a5)
	.loc 1 826 52
	ld	a5,-152(s0)
	ld	a4,120(a5)
	.loc 1 826 61
	li	a5,8192
	add	a4,a4,a5
	.loc 1 826 24
	ld	a5,-152(s0)
	sd	a4,144(a5)
	.loc 1 827 59
	ld	a5,-152(s0)
	ld	a4,128(a5)
	.loc 1 827 75
	li	a5,8192
	add	a4,a4,a5
	.loc 1 827 31
	ld	a5,-152(s0)
	sd	a4,192(a5)
	.loc 1 828 52
	ld	a5,-152(s0)
	ld	a4,120(a5)
	.loc 1 828 61
	li	a5,12288
	add	a4,a4,a5
	.loc 1 828 24
	ld	a5,-152(s0)
	sd	a4,168(a5)
	.loc 1 829 59
	ld	a5,-152(s0)
	ld	a4,128(a5)
	.loc 1 829 75
	li	a5,12288
	add	a4,a4,a5
	.loc 1 829 31
	ld	a5,-152(s0)
	sd	a4,216(a5)
	.loc 1 830 52
	ld	a5,-152(s0)
	ld	a4,120(a5)
	.loc 1 830 61
	li	a5,16384
	add	a4,a4,a5
	.loc 1 830 24
	ld	a5,-152(s0)
	sd	a4,152(a5)
	.loc 1 831 59
	ld	a5,-152(s0)
	ld	a4,128(a5)
	.loc 1 831 75
	li	a5,16384
	add	a4,a4,a5
	.loc 1 831 31
	ld	a5,-152(s0)
	sd	a4,200(a5)
	.loc 1 832 52
	ld	a5,-152(s0)
	ld	a4,120(a5)
	.loc 1 832 61
	li	a5,20480
	add	a4,a4,a5
	.loc 1 832 24
	ld	a5,-152(s0)
	sd	a4,176(a5)
	.loc 1 833 59
	ld	a5,-152(s0)
	ld	a4,128(a5)
	.loc 1 833 75
	li	a5,20480
	add	a4,a4,a5
	.loc 1 833 31
	ld	a5,-152(s0)
	sd	a4,224(a5)
	.loc 1 848 12
	addi	a5,s0,-48
	mv	a1,a5
	ld	a0,-152(s0)
	call	WriteNvmeAdminQueueAttributes
	sd	a0,-24(s0)
	.loc 1 850 34
	ld	a5,-24(s0)
	.loc 1 850 6
	bge	a5,zero,.L93
	.loc 1 851 12
	ld	a5,-24(s0)
	j	.L100
.L93:
	.loc 1 857 12
	addi	a5,s0,-56
	mv	a1,a5
	ld	a0,-152(s0)
	call	WriteNvmeAdminSubmissionQueueBaseAddress
	sd	a0,-24(s0)
	.loc 1 859 34
	ld	a5,-24(s0)
	.loc 1 859 6
	bge	a5,zero,.L94
	.loc 1 860 12
	ld	a5,-24(s0)
	j	.L100
.L94:
	.loc 1 866 12
	addi	a5,s0,-64
	mv	a1,a5
	ld	a0,-152(s0)
	call	WriteNvmeAdminCompletionQueueBaseAddress
	sd	a0,-24(s0)
	.loc 1 868 34
	ld	a5,-24(s0)
	.loc 1 868 6
	bge	a5,zero,.L95
	.loc 1 869 12
	ld	a5,-24(s0)
	j	.L100
.L95:
	.loc 1 872 12
	ld	a0,-152(s0)
	call	NvmeEnableController
	sd	a0,-24(s0)
	.loc 1 873 34
	ld	a5,-24(s0)
	.loc 1 873 6
	bge	a5,zero,.L96
	.loc 1 874 12
	ld	a5,-24(s0)
	j	.L100
.L96:
	.loc 1 880 14
	ld	a5,-152(s0)
	ld	a5,112(a5)
	.loc 1 880 6
	bne	a5,zero,.L97
	.loc 1 881 61
	li	a0,4096
	call	AllocateZeroPool@plt
	mv	a4,a0
	.loc 1 881 29 discriminator 1
	ld	a5,-152(s0)
	sd	a4,112(a5)
	.loc 1 883 16
	ld	a5,-152(s0)
	ld	a5,112(a5)
	.loc 1 883 8
	bne	a5,zero,.L97
	.loc 1 884 14
	li	a5,-1
	slli	a5,a5,63
	addi	a5,a5,9
	j	.L100
.L97:
	.loc 1 891 52
	ld	a5,-152(s0)
	ld	a5,112(a5)
	.loc 1 891 12
	mv	a1,a5
	ld	a0,-152(s0)
	call	NvmeIdentifyController
	sd	a0,-24(s0)
	.loc 1 893 34
	ld	a5,-24(s0)
	.loc 1 893 6
	bge	a5,zero,.L98
	.loc 1 894 22
	ld	a5,-152(s0)
	ld	a5,112(a5)
	.loc 1 894 5
	mv	a0,a5
	call	FreePool@plt
	.loc 1 895 29
	ld	a5,-152(s0)
	sd	zero,112(a5)
	.loc 1 896 12
	li	a5,-1
	slli	a5,a5,63
	addi	a5,a5,14
	j	.L100
.L98:
	.loc 1 902 23
	ld	a5,-152(s0)
	ld	a5,112(a5)
	.loc 1 902 39
	addi	a4,a5,4
	.loc 1 902 3
	addi	a5,s0,-88
	li	a2,20
	mv	a1,a4
	mv	a0,a5
	call	CopyMem@plt
	.loc 1 903 10
	sb	zero,-68(s0)
	.loc 1 904 23
	ld	a5,-152(s0)
	ld	a5,112(a5)
	.loc 1 904 39
	addi	a4,a5,24
	.loc 1 904 3
	addi	a5,s0,-136
	li	a2,40
	mv	a1,a4
	mv	a0,a5
	call	CopyMem@plt
	.loc 1 905 10
	sb	zero,-96(s0)
	.loc 1 925 12
	ld	a0,-152(s0)
	call	NvmeCreateIoCompletionQueue
	sd	a0,-24(s0)
	.loc 1 926 34
	ld	a5,-24(s0)
	.loc 1 926 6
	bge	a5,zero,.L99
	.loc 1 927 12
	ld	a5,-24(s0)
	j	.L100
.L99:
	.loc 1 934 12
	ld	a0,-152(s0)
	call	NvmeCreateIoSubmissionQueue
	sd	a0,-24(s0)
	.loc 1 936 10
	ld	a5,-24(s0)
.L100:
	.loc 1 937 1
	mv	a0,a5
	ld	ra,152(sp)
	.cfi_restore 1
	ld	s0,144(sp)
	.cfi_restore 8
	.cfi_def_cfa 2, 160
	addi	sp,sp,160
	.cfi_def_cfa_offset 0
	jr	ra
	.cfi_endproc
.LFE13:
	.size	NvmeControllerInit, .-NvmeControllerInit
	.section	.text.NvmeShutdownAllControllers,"ax",@progbits
	.align	1
	.globl	NvmeShutdownAllControllers
	.type	NvmeShutdownAllControllers, @function
NvmeShutdownAllControllers:
.LFB14:
	.loc 1 962 1
	.cfi_startproc
	addi	sp,sp,-144
	.cfi_def_cfa_offset 144
	sd	ra,136(sp)
	sd	s0,128(sp)
	.cfi_offset 1, -8
	.cfi_offset 8, -16
	addi	s0,sp,144
	.cfi_def_cfa 8, 0
	mv	a5,a0
	sd	a1,-128(s0)
	sd	a2,-136(s0)
	sd	a3,-144(s0)
	sw	a5,-116(s0)
	.loc 1 976 15
	la	a5,gBS
	ld	a5,0(a5)
	ld	a5,312(a5)
	.loc 1 976 12
	addi	a4,s0,-64
	addi	a3,s0,-72
	li	a2,0
	la	a1,gEfiPciIoProtocolGuid
	li	a0,2
	jalr	a5
.LVL15:
	sd	a0,-56(s0)
	.loc 1 983 34
	ld	a5,-56(s0)
	.loc 1 983 6
	bge	a5,zero,.L102
	.loc 1 984 17
	sd	zero,-72(s0)
.L102:
	.loc 1 987 20
	sd	zero,-40(s0)
	.loc 1 987 3
	j	.L103
.L118:
	.loc 1 988 17
	la	a5,gBS
	ld	a5,0(a5)
	ld	a5,296(a5)
	.loc 1 989 28
	ld	a3,-64(s0)
	ld	a4,-40(s0)
	slli	a4,a4,3
	add	a4,a3,a4
	.loc 1 988 14
	ld	a4,0(a4)
	addi	a3,s0,-88
	addi	a2,s0,-80
	la	a1,gEfiPciIoProtocolGuid
	mv	a0,a4
	jalr	a5
.LVL16:
	sd	a0,-56(s0)
	.loc 1 994 36
	ld	a5,-56(s0)
	.loc 1 994 8
	blt	a5,zero,.L119
	.loc 1 998 24
	sd	zero,-32(s0)
	.loc 1 998 5
	j	.L106
.L117:
	.loc 1 1003 22
	ld	a3,-80(s0)
	ld	a4,-32(s0)
	mv	a5,a4
	slli	a5,a5,1
	add	a5,a5,a4
	slli	a5,a5,3
	add	a5,a3,a5
	.loc 1 1003 37
	lw	a5,16(a5)
	.loc 1 1003 49
	andi	a5,a5,16
	sext.w	a5,a5
	.loc 1 1003 10
	beq	a5,zero,.L107
	.loc 1 1004 21
	ld	a3,-80(s0)
	ld	a4,-32(s0)
	mv	a5,a4
	slli	a5,a5,1
	add	a5,a5,a4
	slli	a5,a5,3
	add	a5,a3,a5
	.loc 1 1004 36
	ld	a4,0(a5)
	.loc 1 1004 49
	la	a5,gImageHandle
	ld	a5,0(a5)
	.loc 1 1003 69 discriminator 1
	bne	a4,a5,.L107
	.loc 1 1006 21
	la	a5,gBS
	ld	a5,0(a5)
	ld	a6,280(a5)
	.loc 1 1007 34
	ld	a3,-80(s0)
	ld	a4,-32(s0)
	mv	a5,a4
	slli	a5,a5,1
	add	a5,a5,a4
	slli	a5,a5,3
	add	a5,a3,a5
	.loc 1 1006 18
	ld	a0,8(a5)
	addi	a2,s0,-96
	li	a5,2
	li	a4,0
	li	a3,0
	la	a1,gEfiNvmExpressPassThruProtocolGuid
	jalr	a6
.LVL17:
	sd	a0,-56(s0)
	.loc 1 1014 40
	ld	a5,-56(s0)
	.loc 1 1014 12
	blt	a5,zero,.L120
	.loc 1 1018 54
	ld	a5,-96(s0)
	.loc 1 1018 21
	addi	a5,a5,-72
	.loc 1 1018 161
	lw	a4,0(a5)
	.loc 1 1018 246
	li	a5,1162694656
	addi	a5,a5,1614
	bne	a4,a5,.L109
	.loc 1 1018 282 discriminator 1
	ld	a5,-96(s0)
	.loc 1 1018 17 discriminator 1
	addi	a5,a5,-72
	sd	a5,-48(s0)
	j	.L110
.L109:
	.loc 1 1018 17 is_stmt 0 discriminator 2
	sd	zero,-48(s0)
.L110:
	.loc 1 1023 18 is_stmt 1
	addi	a5,s0,-104
	mv	a1,a5
	ld	a0,-48(s0)
	call	ReadNvmeControllerConfiguration
	sd	a0,-56(s0)
	.loc 1 1024 40
	ld	a5,-56(s0)
	.loc 1 1024 12
	blt	a5,zero,.L121
	.loc 1 1032 16
	lhu	a5,-104(s0)
	mv	a4,a5
	li	a5,16384
	addi	a5,a5,-1
	and	a5,a4,a5
	mv	a4,a5
	li	a5,16384
	or	a5,a4,a5
	sh	a5,-104(s0)
	.loc 1 1033 18
	addi	a5,s0,-104
	mv	a1,a5
	ld	a0,-48(s0)
	call	WriteNvmeControllerConfiguration
	sd	a0,-56(s0)
	.loc 1 1034 40
	ld	a5,-56(s0)
	.loc 1 1034 12
	blt	a5,zero,.L122
	.loc 1 1043 20
	sd	zero,-24(s0)
	.loc 1 1043 9
	j	.L113
.L116:
	.loc 1 1044 20
	addi	a5,s0,-112
	mv	a1,a5
	ld	a0,-48(s0)
	call	ReadNvmeControllerStatus
	sd	a0,-56(s0)
	.loc 1 1045 15
	ld	a5,-56(s0)
	.loc 1 1045 14
	blt	a5,zero,.L114
	.loc 1 1045 83 discriminator 1
	lbu	a5,-112(s0)
	andi	a5,a5,12
	andi	a5,a5,0xff
	.loc 1 1045 69 discriminator 1
	mv	a4,a5
	li	a5,8
	beq	a4,a5,.L123
.L114:
	.loc 1 1053 14
	la	a5,gBS
	ld	a5,0(a5)
	ld	a5,248(a5)
	.loc 1 1053 11
	li	a4,8192
	addi	a0,a4,1808
	jalr	a5
.LVL18:
	.loc 1 1043 48 discriminator 2
	ld	a5,-24(s0)
	addi	a5,a5,1
	sd	a5,-24(s0)
.L113:
	.loc 1 1043 31 discriminator 1
	ld	a4,-24(s0)
	li	a5,4096
	addi	a5,a5,403
	bleu	a4,a5,.L116
	j	.L107
.L120:
	.loc 1 1015 11
	nop
	j	.L107
.L121:
	.loc 1 1025 11
	nop
	j	.L107
.L122:
	.loc 1 1035 11
	nop
	j	.L107
.L123:
	.loc 1 1047 13
	nop
.L107:
	.loc 1 998 73 discriminator 2
	ld	a5,-32(s0)
	addi	a5,a5,1
	sd	a5,-32(s0)
.L106:
	.loc 1 998 43 discriminator 1
	ld	a5,-88(s0)
	ld	a4,-32(s0)
	bltu	a4,a5,.L117
	j	.L105
.L119:
	.loc 1 995 7
	nop
.L105:
	.loc 1 987 63 discriminator 2
	ld	a5,-40(s0)
	addi	a5,a5,1
	sd	a5,-40(s0)
.L103:
	.loc 1 987 37 discriminator 1
	ld	a5,-72(s0)
	ld	a4,-40(s0)
	bltu	a4,a5,.L118
	.loc 1 1062 1
	nop
	nop
	ld	ra,136(sp)
	.cfi_restore 1
	ld	s0,128(sp)
	.cfi_restore 8
	.cfi_def_cfa 2, 144
	addi	sp,sp,144
	.cfi_def_cfa_offset 0
	jr	ra
	.cfi_endproc
.LFE14:
	.size	NvmeShutdownAllControllers, .-NvmeShutdownAllControllers
	.section	.text.NvmeRegisterShutdownNotification,"ax",@progbits
	.align	1
	.globl	NvmeRegisterShutdownNotification
	.type	NvmeRegisterShutdownNotification, @function
NvmeRegisterShutdownNotification:
.LFB15:
	.loc 1 1073 1
	.cfi_startproc
	addi	sp,sp,-32
	.cfi_def_cfa_offset 32
	sd	ra,24(sp)
	sd	s0,16(sp)
	.cfi_offset 1, -8
	.cfi_offset 8, -16
	addi	s0,sp,32
	.cfi_def_cfa 8, 0
	.loc 1 1077 24
	lla	a5,mNvmeControllerNumber
	ld	a5,0(a5)
	addi	a4,a5,1
	lla	a5,mNvmeControllerNumber
	sd	a4,0(a5)
	.loc 1 1078 29
	lla	a5,mNvmeControllerNumber
	ld	a4,0(a5)
	.loc 1 1078 6
	li	a5,1
	bne	a4,a5,.L126
	.loc 1 1079 17
	la	a5,gBS
	ld	a5,0(a5)
	ld	a5,320(a5)
	.loc 1 1079 14
	addi	a4,s0,-32
	mv	a2,a4
	li	a1,0
	la	a0,gEfiResetNotificationProtocolGuid
	jalr	a5
.LVL19:
	sd	a0,-24(s0)
	.loc 1 1080 9
	ld	a5,-24(s0)
	.loc 1 1080 8
	blt	a5,zero,.L126
	.loc 1 1081 27
	ld	a5,-32(s0)
	ld	a5,0(a5)
	.loc 1 1081 16
	ld	a4,-32(s0)
	lla	a1,NvmeShutdownAllControllers
	mv	a0,a4
	jalr	a5
.LVL20:
	sd	a0,-24(s0)
.L126:
	.loc 1 1087 1
	nop
	ld	ra,24(sp)
	.cfi_restore 1
	ld	s0,16(sp)
	.cfi_restore 8
	.cfi_def_cfa 2, 32
	addi	sp,sp,32
	.cfi_def_cfa_offset 0
	jr	ra
	.cfi_endproc
.LFE15:
	.size	NvmeRegisterShutdownNotification, .-NvmeRegisterShutdownNotification
	.section	.text.NvmeUnregisterShutdownNotification,"ax",@progbits
	.align	1
	.globl	NvmeUnregisterShutdownNotification
	.type	NvmeUnregisterShutdownNotification, @function
NvmeUnregisterShutdownNotification:
.LFB16:
	.loc 1 1098 1
	.cfi_startproc
	addi	sp,sp,-32
	.cfi_def_cfa_offset 32
	sd	ra,24(sp)
	sd	s0,16(sp)
	.cfi_offset 1, -8
	.cfi_offset 8, -16
	addi	s0,sp,32
	.cfi_def_cfa 8, 0
	.loc 1 1102 24
	lla	a5,mNvmeControllerNumber
	ld	a5,0(a5)
	addi	a4,a5,-1
	lla	a5,mNvmeControllerNumber
	sd	a4,0(a5)
	.loc 1 1103 29
	lla	a5,mNvmeControllerNumber
	ld	a5,0(a5)
	.loc 1 1103 6
	bne	a5,zero,.L129
	.loc 1 1104 17
	la	a5,gBS
	ld	a5,0(a5)
	ld	a5,320(a5)
	.loc 1 1104 14
	addi	a4,s0,-32
	mv	a2,a4
	li	a1,0
	la	a0,gEfiResetNotificationProtocolGuid
	jalr	a5
.LVL21:
	sd	a0,-24(s0)
	.loc 1 1105 9
	ld	a5,-24(s0)
	.loc 1 1105 8
	blt	a5,zero,.L129
	.loc 1 1106 27
	ld	a5,-32(s0)
	ld	a5,8(a5)
	.loc 1 1106 16
	ld	a4,-32(s0)
	lla	a1,NvmeShutdownAllControllers
	mv	a0,a4
	jalr	a5
.LVL22:
	sd	a0,-24(s0)
.L129:
	.loc 1 1110 1
	nop
	ld	ra,24(sp)
	.cfi_restore 1
	ld	s0,16(sp)
	.cfi_restore 8
	.cfi_def_cfa 2, 32
	addi	sp,sp,32
	.cfi_def_cfa_offset 0
	jr	ra
	.cfi_endproc
.LFE16:
	.size	NvmeUnregisterShutdownNotification, .-NvmeUnregisterShutdownNotification
	.text
.Letext0:
	.file 2 "/home/kapoagaeming/Downloads/spacemit-image-builder/components/edk2/MdePkg/Include/RiscV64/ProcessorBind.h"
	.file 3 "/home/kapoagaeming/Downloads/spacemit-image-builder/components/edk2/MdePkg/Include/Base.h"
	.file 4 "/home/kapoagaeming/Downloads/spacemit-image-builder/components/edk2/MdePkg/Include/Uefi/UefiBaseType.h"
	.file 5 "/home/kapoagaeming/Downloads/spacemit-image-builder/components/edk2/MdePkg/Include/Uefi/UefiMultiPhase.h"
	.file 6 "/home/kapoagaeming/Downloads/spacemit-image-builder/components/edk2/MdePkg/Include/Protocol/DevicePath.h"
	.file 7 "/home/kapoagaeming/Downloads/spacemit-image-builder/components/edk2/MdePkg/Include/Uefi/UefiSpec.h"
	.file 8 "/home/kapoagaeming/Downloads/spacemit-image-builder/components/Build/Milk-V-Jupiter/RELEASE_GCC5/RISCV64/MdeModulePkg/Bus/Pci/NvmExpressDxe/NvmExpressDxe/DEBUG/AutoGen.h"
	.file 9 "/home/kapoagaeming/Downloads/spacemit-image-builder/components/edk2/MdePkg/Include/IndustryStandard/Nvme.h"
	.file 10 "/home/kapoagaeming/Downloads/spacemit-image-builder/components/edk2/MdePkg/Include/Protocol/PciIo.h"
	.file 11 "/home/kapoagaeming/Downloads/spacemit-image-builder/components/edk2/MdePkg/Include/Protocol/NvmExpressPassthru.h"
	.file 12 "/home/kapoagaeming/Downloads/spacemit-image-builder/components/edk2/MdePkg/Include/Protocol/ResetNotification.h"
	.file 13 "/home/kapoagaeming/Downloads/spacemit-image-builder/components/edk2/MdePkg/Include/Library/UefiBootServicesTableLib.h"
	.file 14 "/home/kapoagaeming/Downloads/spacemit-image-builder/components/edk2/MdePkg/Include/Pi/PiStatusCode.h"
	.file 15 "/home/kapoagaeming/Downloads/spacemit-image-builder/components/edk2/MdeModulePkg/Bus/Pci/NvmExpressDxe/NvmExpress.h"
	.file 16 "/home/kapoagaeming/Downloads/spacemit-image-builder/components/edk2/MdePkg/Include/Library/MemoryAllocationLib.h"
	.file 17 "/home/kapoagaeming/Downloads/spacemit-image-builder/components/edk2/MdePkg/Include/Library/BaseMemoryLib.h"
	.file 18 "/home/kapoagaeming/Downloads/spacemit-image-builder/components/edk2/MdePkg/Include/Library/BaseLib.h"
	.file 19 "/home/kapoagaeming/Downloads/spacemit-image-builder/components/edk2/MdePkg/Include/Library/UefiLib.h"
	.file 20 "/home/kapoagaeming/Downloads/spacemit-image-builder/components/edk2/MdePkg/Include/Library/ReportStatusCodeLib.h"
	.section	.note.GNU-stack,"",@progbits
