	.file	"FdtClientDxe.c"
	.option pic
	.option norelax
	.attribute arch, "rv64i2p1_m2p0_a2p1_f2p2_d2p2_c2p0_zicsr2p0_zifencei2p0_zmmul1p0_zaamo1p0_zalrsc1p0_zca1p0_zcd1p0"
	.attribute unaligned_access, 0
	.attribute stack_align, 16
	.text
.Ltext0:
	.cfi_sections	.debug_frame
	.file 0 "/home/kapoagaeming/Downloads/spacemit-image-builder/components/Build/Milk-V-Jupiter/RELEASE_GCC5/RISCV64/EmbeddedPkg/Drivers/FdtClientDxe/FdtClientDxe" "/home/kapoagaeming/Downloads/spacemit-image-builder/components/edk2/EmbeddedPkg/Drivers/FdtClientDxe/FdtClientDxe.c"
	.section	.bss.mDeviceTreeBase,"aw",@nobits
	.align	3
	.type	mDeviceTreeBase, @object
	.size	mDeviceTreeBase, 8
mDeviceTreeBase:
	.zero	8
	.section	.text.GetNodeProperty,"ax",@progbits
	.align	1
	.type	GetNodeProperty, @function
GetNodeProperty:
.LFB40:
	.file 1 "/home/kapoagaeming/Downloads/spacemit-image-builder/components/edk2/EmbeddedPkg/Drivers/FdtClientDxe/FdtClientDxe.c"
	.loc 1 35 1
	.cfi_startproc
	addi	sp,sp,-80
	.cfi_def_cfa_offset 80
	sd	ra,72(sp)
	sd	s0,64(sp)
	.cfi_offset 1, -8
	.cfi_offset 8, -16
	addi	s0,sp,80
	.cfi_def_cfa 8, 0
	sd	a0,-40(s0)
	mv	a5,a1
	sd	a2,-56(s0)
	sd	a3,-64(s0)
	sd	a4,-72(s0)
	sw	a5,-44(s0)
	.loc 1 41 11
	lla	a5,mDeviceTreeBase
	ld	a5,0(a5)
	addi	a3,s0,-20
	lw	a4,-44(s0)
	ld	a2,-56(s0)
	mv	a1,a4
	mv	a0,a5
	call	fdt_getprop@plt
	mv	a4,a0
	.loc 1 41 9 discriminator 1
	ld	a5,-64(s0)
	sd	a4,0(a5)
	.loc 1 42 7
	ld	a5,-64(s0)
	ld	a5,0(a5)
	.loc 1 42 6
	bne	a5,zero,.L2
	.loc 1 43 12
	li	a5,-1
	slli	a5,a5,63
	addi	a5,a5,14
	j	.L5
.L2:
	.loc 1 46 6
	ld	a5,-72(s0)
	beq	a5,zero,.L4
	.loc 1 47 15
	lw	a5,-20(s0)
	mv	a4,a5
	ld	a5,-72(s0)
	sw	a4,0(a5)
.L4:
	.loc 1 50 10
	li	a5,0
.L5:
	.loc 1 51 1
	mv	a0,a5
	ld	ra,72(sp)
	.cfi_restore 1
	ld	s0,64(sp)
	.cfi_restore 8
	.cfi_def_cfa 2, 80
	addi	sp,sp,80
	.cfi_def_cfa_offset 0
	jr	ra
	.cfi_endproc
.LFE40:
	.size	GetNodeProperty, .-GetNodeProperty
	.section	.text.SetNodeProperty,"ax",@progbits
	.align	1
	.type	SetNodeProperty, @function
SetNodeProperty:
.LFB41:
	.loc 1 63 1
	.cfi_startproc
	addi	sp,sp,-64
	.cfi_def_cfa_offset 64
	sd	ra,56(sp)
	sd	s0,48(sp)
	.cfi_offset 1, -8
	.cfi_offset 8, -16
	addi	s0,sp,64
	.cfi_def_cfa 8, 0
	sd	a0,-40(s0)
	mv	a5,a1
	sd	a2,-56(s0)
	sd	a3,-64(s0)
	sw	a5,-44(s0)
	mv	a5,a4
	sw	a5,-48(s0)
	.loc 1 68 9
	lla	a5,mDeviceTreeBase
	ld	a5,0(a5)
	lw	a4,-48(s0)
	lw	a1,-44(s0)
	ld	a3,-64(s0)
	ld	a2,-56(s0)
	mv	a0,a5
	call	fdt_setprop@plt
	mv	a5,a0
	sw	a5,-20(s0)
	.loc 1 69 6
	lw	a5,-20(s0)
	sext.w	a5,a5
	beq	a5,zero,.L7
	.loc 1 70 12
	li	a5,-1
	slli	a5,a5,63
	addi	a5,a5,7
	j	.L8
.L7:
	.loc 1 73 10
	li	a5,0
.L8:
	.loc 1 74 1
	mv	a0,a5
	ld	ra,56(sp)
	.cfi_restore 1
	ld	s0,48(sp)
	.cfi_restore 8
	.cfi_def_cfa 2, 64
	addi	sp,sp,64
	.cfi_def_cfa_offset 0
	jr	ra
	.cfi_endproc
.LFE41:
	.size	SetNodeProperty, .-SetNodeProperty
	.section	.rodata
	.align	3
.LC0:
	.string	"status"
	.align	3
.LC1:
	.string	"okay"
	.align	3
.LC2:
	.string	"ok"
	.section	.text.IsNodeEnabled,"ax",@progbits
	.align	1
	.type	IsNodeEnabled, @function
IsNodeEnabled:
.LFB42:
	.loc 1 81 1
	.cfi_startproc
	addi	sp,sp,-48
	.cfi_def_cfa_offset 48
	sd	ra,40(sp)
	sd	s0,32(sp)
	.cfi_offset 1, -8
	.cfi_offset 8, -16
	addi	s0,sp,48
	.cfi_def_cfa 8, 0
	mv	a5,a0
	sw	a5,-36(s0)
	.loc 1 90 16
	lla	a5,mDeviceTreeBase
	ld	a5,0(a5)
	addi	a3,s0,-28
	lw	a4,-36(s0)
	lla	a2,.LC0
	mv	a1,a4
	mv	a0,a5
	call	fdt_getprop@plt
	sd	a0,-24(s0)
	.loc 1 91 6
	ld	a5,-24(s0)
	bne	a5,zero,.L10
	.loc 1 92 12
	li	a5,1
	j	.L14
.L10:
	.loc 1 95 12
	lw	a4,-28(s0)
	.loc 1 95 6
	li	a5,4
	ble	a4,a5,.L12
	.loc 1 95 22 discriminator 1
	lla	a1,.LC1
	ld	a0,-24(s0)
	call	AsciiStrCmp@plt
	mv	a5,a0
	.loc 1 95 18 discriminator 2
	bne	a5,zero,.L12
	.loc 1 96 12
	li	a5,1
	j	.L14
.L12:
	.loc 1 99 12
	lw	a4,-28(s0)
	.loc 1 99 6
	li	a5,2
	ble	a4,a5,.L13
	.loc 1 99 22 discriminator 1
	lla	a1,.LC2
	ld	a0,-24(s0)
	call	AsciiStrCmp@plt
	mv	a5,a0
	.loc 1 99 18 discriminator 2
	bne	a5,zero,.L13
	.loc 1 100 12
	li	a5,1
	j	.L14
.L13:
	.loc 1 103 10
	li	a5,0
.L14:
	.loc 1 104 1
	mv	a0,a5
	ld	ra,40(sp)
	.cfi_restore 1
	ld	s0,32(sp)
	.cfi_restore 8
	.cfi_def_cfa 2, 48
	addi	sp,sp,48
	.cfi_def_cfa_offset 0
	jr	ra
	.cfi_endproc
.LFE42:
	.size	IsNodeEnabled, .-IsNodeEnabled
	.section	.rodata
	.align	3
.LC3:
	.string	"compatible"
	.section	.text.FindNextCompatibleNode,"ax",@progbits
	.align	1
	.type	FindNextCompatibleNode, @function
FindNextCompatibleNode:
.LFB43:
	.loc 1 115 1
	.cfi_startproc
	addi	sp,sp,-96
	.cfi_def_cfa_offset 96
	sd	ra,88(sp)
	sd	s0,80(sp)
	.cfi_offset 1, -8
	.cfi_offset 8, -16
	addi	s0,sp,96
	.cfi_def_cfa 8, 0
	sd	a0,-72(s0)
	sd	a1,-80(s0)
	mv	a5,a2
	sd	a3,-96(s0)
	sw	a5,-84(s0)
	.loc 1 123 13
	lw	a5,-84(s0)
	sw	a5,-20(s0)
.L25:
	.loc 1 124 12
	lla	a5,mDeviceTreeBase
	ld	a5,0(a5)
	lw	a4,-20(s0)
	li	a2,0
	mv	a1,a4
	mv	a0,a5
	call	fdt_next_node@plt
	mv	a5,a0
	sw	a5,-36(s0)
	.loc 1 125 8
	lw	a5,-36(s0)
	sext.w	a5,a5
	blt	a5,zero,.L28
	.loc 1 129 10
	lw	a5,-36(s0)
	mv	a0,a5
	call	IsNodeEnabled
	mv	a5,a0
	.loc 1 129 8 discriminator 1
	beq	a5,zero,.L29
	.loc 1 133 12
	lla	a5,mDeviceTreeBase
	ld	a5,0(a5)
	addi	a3,s0,-52
	lw	a4,-36(s0)
	lla	a2,.LC3
	mv	a1,a4
	mv	a0,a5
	call	fdt_getprop@plt
	sd	a0,-48(s0)
	.loc 1 134 8
	ld	a5,-48(s0)
	beq	a5,zero,.L30
	.loc 1 142 21
	ld	a5,-48(s0)
	sd	a5,-32(s0)
	.loc 1 142 5
	j	.L21
.L24:
	.loc 1 145 11
	ld	a1,-32(s0)
	ld	a0,-80(s0)
	call	AsciiStrCmp@plt
	mv	a5,a0
	.loc 1 145 10 discriminator 1
	bne	a5,zero,.L22
	.loc 1 146 15
	ld	a5,-96(s0)
	lw	a4,-36(s0)
	sw	a4,0(a5)
	.loc 1 147 16
	li	a5,0
	j	.L26
.L22:
	.loc 1 143 28
	ld	a0,-32(s0)
	call	AsciiStrLen@plt
	mv	a5,a0
	.loc 1 143 26 discriminator 1
	addi	a5,a5,1
	.loc 1 143 21 discriminator 1
	ld	a4,-32(s0)
	add	a5,a4,a5
	sd	a5,-32(s0)
.L21:
	.loc 1 142 47 discriminator 1
	lw	a5,-52(s0)
	mv	a4,a5
	ld	a5,-48(s0)
	add	a5,a5,a4
	.loc 1 142 53 discriminator 1
	ld	a4,-32(s0)
	bgeu	a4,a5,.L19
	.loc 1 142 56 discriminator 2
	ld	a5,-32(s0)
	lbu	a5,0(a5)
	.loc 1 142 53 discriminator 2
	bne	a5,zero,.L24
	j	.L19
.L29:
	.loc 1 130 7
	nop
	j	.L19
.L30:
	.loc 1 135 7
	nop
.L19:
	.loc 1 123 32
	lw	a5,-36(s0)
	sw	a5,-20(s0)
	.loc 1 124 10
	j	.L25
.L28:
	.loc 1 126 7
	nop
	.loc 1 152 10
	li	a5,-1
	slli	a5,a5,63
	addi	a5,a5,14
.L26:
	.loc 1 153 1
	mv	a0,a5
	ld	ra,88(sp)
	.cfi_restore 1
	ld	s0,80(sp)
	.cfi_restore 8
	.cfi_def_cfa 2, 96
	addi	sp,sp,96
	.cfi_def_cfa_offset 0
	jr	ra
	.cfi_endproc
.LFE43:
	.size	FindNextCompatibleNode, .-FindNextCompatibleNode
	.section	.text.FindCompatibleNode,"ax",@progbits
	.align	1
	.type	FindCompatibleNode, @function
FindCompatibleNode:
.LFB44:
	.loc 1 163 1
	.cfi_startproc
	addi	sp,sp,-48
	.cfi_def_cfa_offset 48
	sd	ra,40(sp)
	sd	s0,32(sp)
	.cfi_offset 1, -8
	.cfi_offset 8, -16
	addi	s0,sp,48
	.cfi_def_cfa 8, 0
	sd	a0,-24(s0)
	sd	a1,-32(s0)
	sd	a2,-40(s0)
	.loc 1 164 10
	ld	a3,-40(s0)
	li	a2,0
	ld	a1,-32(s0)
	ld	a0,-24(s0)
	call	FindNextCompatibleNode
	mv	a5,a0
	.loc 1 165 1
	mv	a0,a5
	ld	ra,40(sp)
	.cfi_restore 1
	ld	s0,32(sp)
	.cfi_restore 8
	.cfi_def_cfa 2, 48
	addi	sp,sp,48
	.cfi_def_cfa_offset 0
	jr	ra
	.cfi_endproc
.LFE44:
	.size	FindCompatibleNode, .-FindCompatibleNode
	.section	.text.FindCompatibleNodeProperty,"ax",@progbits
	.align	1
	.type	FindCompatibleNodeProperty, @function
FindCompatibleNodeProperty:
.LFB45:
	.loc 1 177 1
	.cfi_startproc
	addi	sp,sp,-80
	.cfi_def_cfa_offset 80
	sd	ra,72(sp)
	sd	s0,64(sp)
	.cfi_offset 1, -8
	.cfi_offset 8, -16
	addi	s0,sp,80
	.cfi_def_cfa 8, 0
	sd	a0,-40(s0)
	sd	a1,-48(s0)
	sd	a2,-56(s0)
	sd	a3,-64(s0)
	sd	a4,-72(s0)
	.loc 1 181 12
	addi	a5,s0,-28
	mv	a2,a5
	ld	a1,-48(s0)
	ld	a0,-40(s0)
	call	FindCompatibleNode
	sd	a0,-24(s0)
	.loc 1 182 34
	ld	a5,-24(s0)
	.loc 1 182 6
	bge	a5,zero,.L34
	.loc 1 183 12
	ld	a5,-24(s0)
	j	.L36
.L34:
	.loc 1 186 10
	lw	a5,-28(s0)
	ld	a4,-72(s0)
	ld	a3,-64(s0)
	ld	a2,-56(s0)
	mv	a1,a5
	ld	a0,-40(s0)
	call	GetNodeProperty
	mv	a5,a0
.L36:
	.loc 1 187 1
	mv	a0,a5
	ld	ra,72(sp)
	.cfi_restore 1
	ld	s0,64(sp)
	.cfi_restore 8
	.cfi_def_cfa 2, 80
	addi	sp,sp,80
	.cfi_def_cfa_offset 0
	jr	ra
	.cfi_endproc
.LFE45:
	.size	FindCompatibleNodeProperty, .-FindCompatibleNodeProperty
	.section	.rodata
	.align	3
.LC4:
	.string	"reg"
	.section	.text.FindCompatibleNodeReg,"ax",@progbits
	.align	1
	.type	FindCompatibleNodeReg, @function
FindCompatibleNodeReg:
.LFB46:
	.loc 1 200 1
	.cfi_startproc
	addi	sp,sp,-80
	.cfi_def_cfa_offset 80
	sd	ra,72(sp)
	sd	s0,64(sp)
	.cfi_offset 1, -8
	.cfi_offset 8, -16
	addi	s0,sp,80
	.cfi_def_cfa 8, 0
	sd	a0,-40(s0)
	sd	a1,-48(s0)
	sd	a2,-56(s0)
	sd	a3,-64(s0)
	sd	a4,-72(s0)
	sd	a5,-80(s0)
	.loc 1 210 12
	ld	a4,-80(s0)
	ld	a3,-56(s0)
	lla	a2,.LC4
	ld	a1,-48(s0)
	ld	a0,-40(s0)
	call	FindCompatibleNodeProperty
	sd	a0,-24(s0)
	.loc 1 217 34
	ld	a5,-24(s0)
	.loc 1 217 6
	bge	a5,zero,.L38
	.loc 1 218 12
	ld	a5,-24(s0)
	j	.L39
.L38:
	.loc 1 221 8
	ld	a5,-80(s0)
	lw	a5,0(a5)
	.loc 1 221 17
	andi	a5,a5,15
	sext.w	a5,a5
	.loc 1 221 6
	beq	a5,zero,.L40
	.loc 1 229 12
	li	a5,-1
	slli	a5,a5,63
	addi	a5,a5,14
	j	.L39
.L40:
	.loc 1 232 17
	ld	a5,-64(s0)
	li	a4,2
	sd	a4,0(a5)
	.loc 1 233 14
	ld	a5,-72(s0)
	li	a4,2
	sd	a4,0(a5)
	.loc 1 235 10
	li	a5,0
.L39:
	.loc 1 236 1
	mv	a0,a5
	ld	ra,72(sp)
	.cfi_restore 1
	ld	s0,64(sp)
	.cfi_restore 8
	.cfi_def_cfa 2, 80
	addi	sp,sp,80
	.cfi_def_cfa_offset 0
	jr	ra
	.cfi_endproc
.LFE46:
	.size	FindCompatibleNodeReg, .-FindCompatibleNodeReg
	.section	.rodata
	.align	3
.LC5:
	.string	"device_type"
	.align	3
.LC6:
	.string	"memory"
	.section	.text.FindNextMemoryNodeReg,"ax",@progbits
	.align	1
	.type	FindNextMemoryNodeReg, @function
FindNextMemoryNodeReg:
.LFB47:
	.loc 1 250 1
	.cfi_startproc
	addi	sp,sp,-112
	.cfi_def_cfa_offset 112
	sd	ra,104(sp)
	sd	s0,96(sp)
	.cfi_offset 1, -8
	.cfi_offset 8, -16
	addi	s0,sp,112
	.cfi_def_cfa 8, 0
	sd	a0,-56(s0)
	sd	a2,-72(s0)
	sd	a3,-80(s0)
	sd	a4,-88(s0)
	sd	a5,-96(s0)
	sd	a6,-104(s0)
	mv	a5,a1
	sw	a5,-60(s0)
	.loc 1 259 13
	lw	a5,-60(s0)
	sw	a5,-20(s0)
.L51:
	.loc 1 260 12
	lla	a5,mDeviceTreeBase
	ld	a5,0(a5)
	lw	a4,-20(s0)
	li	a2,0
	mv	a1,a4
	mv	a0,a5
	call	fdt_next_node@plt
	mv	a5,a0
	sw	a5,-24(s0)
	.loc 1 261 8
	lw	a5,-24(s0)
	sext.w	a5,a5
	blt	a5,zero,.L54
	.loc 1 265 18
	lla	a5,mDeviceTreeBase
	ld	a5,0(a5)
	addi	a3,s0,-44
	lw	a4,-24(s0)
	lla	a2,.LC5
	mv	a1,a4
	mv	a0,a5
	call	fdt_getprop@plt
	sd	a0,-32(s0)
	.loc 1 266 8
	ld	a5,-32(s0)
	beq	a5,zero,.L55
	.loc 1 266 42 discriminator 2
	lla	a1,.LC6
	ld	a0,-32(s0)
	call	AsciiStrCmp@plt
	mv	a5,a0
	.loc 1 266 38 discriminator 3
	bne	a5,zero,.L55
	.loc 1 270 10
	lw	a5,-24(s0)
	mv	a0,a5
	call	IsNodeEnabled
	mv	a5,a0
	.loc 1 270 8 discriminator 1
	beq	a5,zero,.L56
	.loc 1 280 14
	lw	a5,-24(s0)
	ld	a4,-104(s0)
	ld	a3,-80(s0)
	lla	a2,.LC4
	mv	a1,a5
	ld	a0,-56(s0)
	call	GetNodeProperty
	sd	a0,-40(s0)
	.loc 1 281 36
	ld	a5,-40(s0)
	.loc 1 281 8
	blt	a5,zero,.L57
	.loc 1 290 10
	ld	a5,-104(s0)
	lw	a5,0(a5)
	.loc 1 290 19
	andi	a5,a5,15
	sext.w	a5,a5
	.loc 1 290 8
	bne	a5,zero,.L58
	.loc 1 300 11
	ld	a5,-72(s0)
	lw	a4,-24(s0)
	sw	a4,0(a5)
	.loc 1 301 19
	ld	a5,-88(s0)
	li	a4,2
	sd	a4,0(a5)
	.loc 1 302 16
	ld	a5,-96(s0)
	li	a4,2
	sd	a4,0(a5)
	.loc 1 303 12
	li	a5,0
	j	.L52
.L55:
	.loc 1 267 7
	nop
	j	.L46
.L56:
	.loc 1 272 7
	nop
	j	.L46
.L57:
	.loc 1 287 7
	nop
	j	.L46
.L58:
	.loc 1 297 7
	nop
.L46:
	.loc 1 259 32
	lw	a5,-24(s0)
	sw	a5,-20(s0)
	.loc 1 260 10
	j	.L51
.L54:
	.loc 1 262 7
	nop
	.loc 1 306 10
	li	a5,-1
	slli	a5,a5,63
	addi	a5,a5,14
.L52:
	.loc 1 307 1
	mv	a0,a5
	ld	ra,104(sp)
	.cfi_restore 1
	ld	s0,96(sp)
	.cfi_restore 8
	.cfi_def_cfa 2, 112
	addi	sp,sp,112
	.cfi_def_cfa_offset 0
	jr	ra
	.cfi_endproc
.LFE47:
	.size	FindNextMemoryNodeReg, .-FindNextMemoryNodeReg
	.section	.text.FindMemoryNodeReg,"ax",@progbits
	.align	1
	.type	FindMemoryNodeReg, @function
FindMemoryNodeReg:
.LFB48:
	.loc 1 320 1
	.cfi_startproc
	addi	sp,sp,-64
	.cfi_def_cfa_offset 64
	sd	ra,56(sp)
	sd	s0,48(sp)
	.cfi_offset 1, -8
	.cfi_offset 8, -16
	addi	s0,sp,64
	.cfi_def_cfa 8, 0
	sd	a0,-24(s0)
	sd	a1,-32(s0)
	sd	a2,-40(s0)
	sd	a3,-48(s0)
	sd	a4,-56(s0)
	sd	a5,-64(s0)
	.loc 1 321 10
	ld	a6,-64(s0)
	ld	a5,-56(s0)
	ld	a4,-48(s0)
	ld	a3,-40(s0)
	ld	a2,-32(s0)
	li	a1,0
	ld	a0,-24(s0)
	call	FindNextMemoryNodeReg
	mv	a5,a0
	.loc 1 330 1
	mv	a0,a5
	ld	ra,56(sp)
	.cfi_restore 1
	ld	s0,48(sp)
	.cfi_restore 8
	.cfi_def_cfa 2, 64
	addi	sp,sp,64
	.cfi_def_cfa_offset 0
	jr	ra
	.cfi_endproc
.LFE48:
	.size	FindMemoryNodeReg, .-FindMemoryNodeReg
	.section	.rodata
	.align	3
.LC7:
	.string	"/chosen"
	.section	.text.GetOrInsertChosenNode,"ax",@progbits
	.align	1
	.type	GetOrInsertChosenNode, @function
GetOrInsertChosenNode:
.LFB49:
	.loc 1 339 1
	.cfi_startproc
	addi	sp,sp,-48
	.cfi_def_cfa_offset 48
	sd	ra,40(sp)
	sd	s0,32(sp)
	.cfi_offset 1, -8
	.cfi_offset 8, -16
	addi	s0,sp,48
	.cfi_def_cfa 8, 0
	sd	a0,-40(s0)
	sd	a1,-48(s0)
	.loc 1 345 13
	lla	a5,mDeviceTreeBase
	ld	a5,0(a5)
	lla	a1,.LC7
	mv	a0,a5
	call	fdt_path_offset@plt
	mv	a5,a0
	sw	a5,-20(s0)
	.loc 1 346 6
	lw	a5,-20(s0)
	sext.w	a5,a5
	bge	a5,zero,.L62
	.loc 1 347 15
	lla	a5,mDeviceTreeBase
	ld	a5,0(a5)
	lla	a2,.LC7
	li	a1,0
	mv	a0,a5
	call	fdt_add_subnode@plt
	mv	a5,a0
	sw	a5,-20(s0)
.L62:
	.loc 1 350 6
	lw	a5,-20(s0)
	sext.w	a5,a5
	bge	a5,zero,.L63
	.loc 1 351 12
	li	a5,-1
	slli	a5,a5,63
	addi	a5,a5,9
	j	.L64
.L63:
	.loc 1 354 9
	ld	a5,-48(s0)
	lw	a4,-20(s0)
	sw	a4,0(a5)
	.loc 1 356 10
	li	a5,0
.L64:
	.loc 1 357 1
	mv	a0,a5
	ld	ra,40(sp)
	.cfi_restore 1
	ld	s0,32(sp)
	.cfi_restore 8
	.cfi_def_cfa 2, 48
	addi	sp,sp,48
	.cfi_def_cfa_offset 0
	jr	ra
	.cfi_endproc
.LFE49:
	.size	GetOrInsertChosenNode, .-GetOrInsertChosenNode
	.section	.data.rel.local.mFdtClientProtocol,"aw"
	.align	3
	.type	mFdtClientProtocol, @object
	.size	mFdtClientProtocol, 72
mFdtClientProtocol:
	.dword	GetNodeProperty
	.dword	SetNodeProperty
	.dword	FindCompatibleNode
	.dword	FindNextCompatibleNode
	.dword	FindCompatibleNodeProperty
	.dword	FindCompatibleNodeReg
	.dword	FindMemoryNodeReg
	.dword	FindNextMemoryNodeReg
	.dword	GetOrInsertChosenNode
	.section	.text.OnPlatformHasDeviceTree,"ax",@progbits
	.align	1
	.type	OnPlatformHasDeviceTree, @function
OnPlatformHasDeviceTree:
.LFB50:
	.loc 1 378 1
	.cfi_startproc
	addi	sp,sp,-64
	.cfi_def_cfa_offset 64
	sd	ra,56(sp)
	sd	s0,48(sp)
	.cfi_offset 1, -8
	.cfi_offset 8, -16
	addi	s0,sp,64
	.cfi_def_cfa 8, 0
	sd	a0,-56(s0)
	sd	a1,-64(s0)
	.loc 1 383 15
	la	a5,gBS
	ld	a5,0(a5)
	ld	a5,320(a5)
	.loc 1 383 12
	addi	a4,s0,-40
	mv	a2,a4
	li	a1,0
	la	a0,gEdkiiPlatformHasDeviceTreeGuid
	jalr	a5
.LVL0:
	sd	a0,-24(s0)
	.loc 1 388 34
	ld	a5,-24(s0)
	.loc 1 388 6
	blt	a5,zero,.L68
	.loc 1 392 18
	ld	a5,-64(s0)
	sd	a5,-32(s0)
	.loc 1 399 15
	la	a5,gBS
	ld	a5,0(a5)
	ld	a5,192(a5)
	.loc 1 399 12
	ld	a1,-32(s0)
	la	a0,gFdtTableGuid
	jalr	a5
.LVL1:
	sd	a0,-24(s0)
	.loc 1 402 6
	la	a5,gBS
	ld	a5,0(a5)
	ld	a5,112(a5)
	.loc 1 402 3
	ld	a0,-56(s0)
	jalr	a5
.LVL2:
	j	.L65
.L68:
	.loc 1 389 5 discriminator 1
	nop
.L65:
	.loc 1 403 1
	ld	ra,56(sp)
	.cfi_restore 1
	ld	s0,48(sp)
	.cfi_restore 8
	.cfi_def_cfa 2, 64
	addi	sp,sp,64
	.cfi_def_cfa_offset 0
	jr	ra
	.cfi_endproc
.LFE50:
	.size	OnPlatformHasDeviceTree, .-OnPlatformHasDeviceTree
	.section	.text.InitializeFdtClientDxe,"ax",@progbits
	.align	1
	.globl	InitializeFdtClientDxe
	.type	InitializeFdtClientDxe, @function
InitializeFdtClientDxe:
.LFB51:
	.loc 1 411 1
	.cfi_startproc
	addi	sp,sp,-80
	.cfi_def_cfa_offset 80
	sd	ra,72(sp)
	sd	s0,64(sp)
	.cfi_offset 1, -8
	.cfi_offset 8, -16
	addi	s0,sp,80
	.cfi_def_cfa 8, 0
	sd	a0,-72(s0)
	sd	a1,-80(s0)
	.loc 1 418 9
	la	a0,gFdtHobGuid
	call	GetFirstGuidHob@plt
	mv	a5,a0
	.loc 1 418 7 discriminator 1
	sd	a5,-40(s0)
	.loc 1 419 12
	ld	a5,-40(s0)
	.loc 1 419 6
	beq	a5,zero,.L70
	.loc 1 419 72 discriminator 1
	addi	a5,s0,-40
	.loc 1 419 44 discriminator 1
	ld	a5,0(a5)
	.loc 1 419 79 discriminator 1
	lhu	a5,2(a5)
	.loc 1 419 29 discriminator 1
	sext.w	a4,a5
	li	a5,32
	beq	a4,a5,.L71
.L70:
	.loc 1 420 12
	li	a5,-1
	slli	a5,a5,63
	addi	a5,a5,14
	j	.L79
.L71:
	.loc 1 423 66
	addi	a5,s0,-40
	.loc 1 423 55
	ld	a5,0(a5)
	.loc 1 423 73
	addi	a5,a5,24
	.loc 1 423 35
	ld	a5,0(a5)
	.loc 1 423 18
	sd	a5,-32(s0)
	.loc 1 425 7
	ld	a0,-32(s0)
	call	fdt_check_header@plt
	mv	a5,a0
	.loc 1 425 6 discriminator 1
	beq	a5,zero,.L73
	.loc 1 432 12
	li	a5,-1
	slli	a5,a5,63
	addi	a5,a5,14
	j	.L79
.L73:
	.loc 1 435 19
	lla	a5,mDeviceTreeBase
	ld	a4,-32(s0)
	sd	a4,0(a5)
	.loc 1 443 15
	la	a5,gBS
	ld	a5,0(a5)
	ld	a5,80(a5)
	.loc 1 443 12
	addi	a4,s0,-48
	ld	a3,-32(s0)
	lla	a2,OnPlatformHasDeviceTree
	li	a1,8
	li	a0,512
	jalr	a5
.LVL3:
	sd	a0,-24(s0)
	.loc 1 450 34
	ld	a5,-24(s0)
	.loc 1 450 6
	bge	a5,zero,.L74
	.loc 1 452 12
	ld	a5,-24(s0)
	j	.L79
.L74:
	.loc 1 455 15
	la	a5,gBS
	ld	a5,0(a5)
	ld	a5,168(a5)
	.loc 1 455 12
	ld	a4,-48(s0)
	addi	a3,s0,-56
	mv	a2,a3
	mv	a1,a4
	la	a0,gEdkiiPlatformHasDeviceTreeGuid
	jalr	a5
.LVL4:
	sd	a0,-24(s0)
	.loc 1 460 34
	ld	a5,-24(s0)
	.loc 1 460 6
	blt	a5,zero,.L80
	.loc 1 473 15
	la	a5,gBS
	ld	a5,0(a5)
	ld	a5,104(a5)
	.loc 1 473 12
	ld	a4,-48(s0)
	mv	a0,a4
	jalr	a5
.LVL5:
	sd	a0,-24(s0)
	.loc 1 474 34
	ld	a5,-24(s0)
	.loc 1 474 6
	blt	a5,zero,.L81
	.loc 1 479 15
	la	a5,gBS
	ld	a5,0(a5)
	ld	a5,128(a5)
	.loc 1 479 12
	addi	a4,s0,-72
	lla	a3,mFdtClientProtocol
	li	a2,0
	la	a1,gFdtClientProtocolGuid
	mv	a0,a4
	jalr	a5
.LVL6:
	sd	a0,-24(s0)
	.loc 1 485 34
	ld	a5,-24(s0)
	.loc 1 485 6
	blt	a5,zero,.L82
	.loc 1 495 10
	ld	a5,-24(s0)
	j	.L79
.L80:
	.loc 1 467 5
	nop
	j	.L76
.L81:
	.loc 1 476 5
	nop
	j	.L76
.L82:
	.loc 1 492 5
	nop
.L76:
	.loc 1 498 6
	la	a5,gBS
	ld	a5,0(a5)
	ld	a5,112(a5)
	.loc 1 498 3
	ld	a4,-48(s0)
	mv	a0,a4
	jalr	a5
.LVL7:
	.loc 1 499 10
	ld	a5,-24(s0)
.L79:
	.loc 1 500 1
	mv	a0,a5
	ld	ra,72(sp)
	.cfi_restore 1
	ld	s0,64(sp)
	.cfi_restore 8
	.cfi_def_cfa 2, 80
	addi	sp,sp,80
	.cfi_def_cfa_offset 0
	jr	ra
	.cfi_endproc
.LFE51:
	.size	InitializeFdtClientDxe, .-InitializeFdtClientDxe
	.text
.Letext0:
	.file 2 "/home/kapoagaeming/Downloads/spacemit-image-builder/components/edk2/MdePkg/Include/RiscV64/ProcessorBind.h"
	.file 3 "/home/kapoagaeming/Downloads/spacemit-image-builder/components/edk2/MdePkg/Include/Base.h"
	.file 4 "/home/kapoagaeming/Downloads/spacemit-image-builder/components/edk2/MdePkg/Include/Uefi/UefiBaseType.h"
	.file 5 "/home/kapoagaeming/Downloads/spacemit-image-builder/components/edk2/MdePkg/Include/Uefi/UefiMultiPhase.h"
	.file 6 "/home/kapoagaeming/Downloads/spacemit-image-builder/components/edk2/MdePkg/Include/Protocol/DevicePath.h"
	.file 7 "/home/kapoagaeming/Downloads/spacemit-image-builder/components/edk2/MdePkg/Include/Protocol/SimpleTextIn.h"
	.file 8 "/home/kapoagaeming/Downloads/spacemit-image-builder/components/edk2/MdePkg/Include/Protocol/SimpleTextOut.h"
	.file 9 "/home/kapoagaeming/Downloads/spacemit-image-builder/components/edk2/MdePkg/Include/Uefi/UefiSpec.h"
	.file 10 "/home/kapoagaeming/Downloads/spacemit-image-builder/components/edk2/MdePkg/Include/Pi/PiHob.h"
	.file 11 "/home/kapoagaeming/Downloads/spacemit-image-builder/components/Build/Milk-V-Jupiter/RELEASE_GCC5/RISCV64/EmbeddedPkg/Drivers/FdtClientDxe/FdtClientDxe/DEBUG/AutoGen.h"
	.file 12 "/home/kapoagaeming/Downloads/spacemit-image-builder/components/edk2/EmbeddedPkg/Include/Protocol/FdtClient.h"
	.file 13 "/home/kapoagaeming/Downloads/spacemit-image-builder/components/edk2/EmbeddedPkg/Include/libfdt.h"
	.file 14 "/home/kapoagaeming/Downloads/spacemit-image-builder/components/edk2/MdePkg/Include/Library/HobLib.h"
	.file 15 "/home/kapoagaeming/Downloads/spacemit-image-builder/components/edk2/MdePkg/Include/Library/BaseLib.h"
	.file 16 "/home/kapoagaeming/Downloads/spacemit-image-builder/components/edk2/MdePkg/Include/Library/UefiBootServicesTableLib.h"
	.section	.note.GNU-stack,"",@progbits
