	.file	"MemLibGuid.c"
	.option pic
	.option norelax
	.attribute arch, "rv64i2p1_m2p0_a2p1_f2p2_d2p2_c2p0_zicsr2p0_zifencei2p0_zmmul1p0_zaamo1p0_zalrsc1p0_zca1p0_zcd1p0"
	.attribute unaligned_access, 0
	.attribute stack_align, 16
	.text
.Ltext0:
	.cfi_sections	.debug_frame
	.file 0 "/home/kapoagaeming/Downloads/spacemit-image-builder/components/Build/Milk-V-Jupiter/RELEASE_GCC5/RISCV64/MdePkg/Library/BaseMemoryLib/BaseMemoryLib" "/home/kapoagaeming/Downloads/spacemit-image-builder/components/edk2/MdePkg/Library/BaseMemoryLib/MemLibGuid.c"
	.section	.text.CopyGuid,"ax",@progbits
	.align	1
	.globl	CopyGuid
	.type	CopyGuid, @function
CopyGuid:
.LFB0:
	.file 1 "/home/kapoagaeming/Downloads/spacemit-image-builder/components/edk2/MdePkg/Library/BaseMemoryLib/MemLibGuid.c"
	.loc 1 43 1
	.cfi_startproc
	addi	sp,sp,-48
	.cfi_def_cfa_offset 48
	sd	ra,40(sp)
	sd	s0,32(sp)
	sd	s1,24(sp)
	.cfi_offset 1, -8
	.cfi_offset 8, -16
	.cfi_offset 9, -24
	addi	s0,sp,48
	.cfi_def_cfa 8, 0
	sd	a0,-40(s0)
	sd	a1,-48(s0)
	.loc 1 44 3
	ld	a0,-48(s0)
	call	ReadUnaligned64@plt
	mv	a5,a0
	.loc 1 44 3 is_stmt 0 discriminator 1
	mv	a1,a5
	ld	a0,-40(s0)
	call	WriteUnaligned64@plt
	.loc 1 48 3 is_stmt 1
	ld	a5,-40(s0)
	addi	s1,a5,8
	ld	a5,-48(s0)
	addi	a5,a5,8
	mv	a0,a5
	call	ReadUnaligned64@plt
	mv	a5,a0
	.loc 1 48 3 is_stmt 0 discriminator 1
	mv	a1,a5
	mv	a0,s1
	call	WriteUnaligned64@plt
	.loc 1 52 10 is_stmt 1
	ld	a5,-40(s0)
	.loc 1 53 1
	mv	a0,a5
	ld	ra,40(sp)
	.cfi_restore 1
	ld	s0,32(sp)
	.cfi_restore 8
	.cfi_def_cfa 2, 48
	ld	s1,24(sp)
	.cfi_restore 9
	addi	sp,sp,48
	.cfi_def_cfa_offset 0
	jr	ra
	.cfi_endproc
.LFE0:
	.size	CopyGuid, .-CopyGuid
	.section	.text.CompareGuid,"ax",@progbits
	.align	1
	.globl	CompareGuid
	.type	CompareGuid, @function
CompareGuid:
.LFB1:
	.loc 1 77 1
	.cfi_startproc
	addi	sp,sp,-64
	.cfi_def_cfa_offset 64
	sd	ra,56(sp)
	sd	s0,48(sp)
	.cfi_offset 1, -8
	.cfi_offset 8, -16
	addi	s0,sp,64
	.cfi_def_cfa 8, 0
	sd	a0,-56(s0)
	sd	a1,-64(s0)
	.loc 1 83 20
	ld	a0,-56(s0)
	call	ReadUnaligned64@plt
	sd	a0,-24(s0)
	.loc 1 84 20
	ld	a0,-64(s0)
	call	ReadUnaligned64@plt
	sd	a0,-32(s0)
	.loc 1 85 21
	ld	a5,-56(s0)
	addi	a5,a5,8
	mv	a0,a5
	call	ReadUnaligned64@plt
	sd	a0,-40(s0)
	.loc 1 86 21
	ld	a5,-64(s0)
	addi	a5,a5,8
	mv	a0,a5
	call	ReadUnaligned64@plt
	sd	a0,-48(s0)
	.loc 1 88 53
	ld	a4,-24(s0)
	ld	a5,-32(s0)
	bne	a4,a5,.L4
	.loc 1 88 53 is_stmt 0 discriminator 1
	ld	a4,-40(s0)
	ld	a5,-48(s0)
	bne	a4,a5,.L4
	.loc 1 88 53 discriminator 3
	li	a5,1
	.loc 1 88 53
	j	.L5
.L4:
	.loc 1 88 53 discriminator 4
	li	a5,0
.L5:
	.loc 1 88 10 is_stmt 1 discriminator 6
	andi	a5,a5,0xff
	.loc 1 89 1
	mv	a0,a5
	ld	ra,56(sp)
	.cfi_restore 1
	ld	s0,48(sp)
	.cfi_restore 8
	.cfi_def_cfa 2, 64
	addi	sp,sp,64
	.cfi_def_cfa_offset 0
	jr	ra
	.cfi_endproc
.LFE1:
	.size	CompareGuid, .-CompareGuid
	.section	.text.ScanGuid,"ax",@progbits
	.align	1
	.globl	ScanGuid
	.type	ScanGuid, @function
ScanGuid:
.LFB2:
	.loc 1 120 1
	.cfi_startproc
	addi	sp,sp,-64
	.cfi_def_cfa_offset 64
	sd	ra,56(sp)
	sd	s0,48(sp)
	.cfi_offset 1, -8
	.cfi_offset 8, -16
	addi	s0,sp,64
	.cfi_def_cfa 8, 0
	sd	a0,-40(s0)
	sd	a1,-48(s0)
	sd	a2,-56(s0)
	.loc 1 127 11
	ld	a5,-40(s0)
	sd	a5,-24(s0)
	.loc 1 128 20
	ld	a5,-48(s0)
	andi	a5,a5,-16
	.loc 1 128 10
	ld	a4,-24(s0)
	add	a5,a4,a5
	sd	a5,-40(s0)
	.loc 1 129 9
	j	.L8
.L11:
	.loc 1 130 9
	ld	a1,-56(s0)
	ld	a0,-24(s0)
	call	CompareGuid
	mv	a5,a0
	.loc 1 130 8 discriminator 1
	beq	a5,zero,.L9
	.loc 1 131 14
	ld	a5,-24(s0)
	j	.L10
.L9:
	.loc 1 134 12
	ld	a5,-24(s0)
	addi	a5,a5,16
	sd	a5,-24(s0)
.L8:
	.loc 1 129 18
	ld	a4,-24(s0)
	ld	a5,-40(s0)
	bltu	a4,a5,.L11
	.loc 1 137 10
	li	a5,0
.L10:
	.loc 1 138 1
	mv	a0,a5
	ld	ra,56(sp)
	.cfi_restore 1
	ld	s0,48(sp)
	.cfi_restore 8
	.cfi_def_cfa 2, 64
	addi	sp,sp,64
	.cfi_def_cfa_offset 0
	jr	ra
	.cfi_endproc
.LFE2:
	.size	ScanGuid, .-ScanGuid
	.section	.text.IsZeroGuid,"ax",@progbits
	.align	1
	.globl	IsZeroGuid
	.type	IsZeroGuid, @function
IsZeroGuid:
.LFB3:
	.loc 1 159 1
	.cfi_startproc
	addi	sp,sp,-48
	.cfi_def_cfa_offset 48
	sd	ra,40(sp)
	sd	s0,32(sp)
	.cfi_offset 1, -8
	.cfi_offset 8, -16
	addi	s0,sp,48
	.cfi_def_cfa 8, 0
	sd	a0,-40(s0)
	.loc 1 163 19
	ld	a0,-40(s0)
	call	ReadUnaligned64@plt
	sd	a0,-24(s0)
	.loc 1 164 20
	ld	a5,-40(s0)
	addi	a5,a5,8
	mv	a0,a5
	call	ReadUnaligned64@plt
	sd	a0,-32(s0)
	.loc 1 166 39
	ld	a5,-24(s0)
	bne	a5,zero,.L13
	.loc 1 166 39 is_stmt 0 discriminator 1
	ld	a5,-32(s0)
	bne	a5,zero,.L13
	.loc 1 166 39 discriminator 3
	li	a5,1
	.loc 1 166 39
	j	.L14
.L13:
	.loc 1 166 39 discriminator 4
	li	a5,0
.L14:
	.loc 1 166 10 is_stmt 1 discriminator 6
	andi	a5,a5,0xff
	.loc 1 167 1
	mv	a0,a5
	ld	ra,40(sp)
	.cfi_restore 1
	ld	s0,32(sp)
	.cfi_restore 8
	.cfi_def_cfa 2, 48
	addi	sp,sp,48
	.cfi_def_cfa_offset 0
	jr	ra
	.cfi_endproc
.LFE3:
	.size	IsZeroGuid, .-IsZeroGuid
	.text
.Letext0:
	.file 2 "/home/kapoagaeming/Downloads/spacemit-image-builder/components/edk2/MdePkg/Include/RiscV64/ProcessorBind.h"
	.file 3 "/home/kapoagaeming/Downloads/spacemit-image-builder/components/edk2/MdePkg/Include/Base.h"
	.file 4 "/home/kapoagaeming/Downloads/spacemit-image-builder/components/edk2/MdePkg/Include/Library/BaseLib.h"
	.section	.note.GNU-stack,"",@progbits
