	.file	"ConPlatform.c"
	.option pic
	.option norelax
	.attribute arch, "rv64i2p1_m2p0_a2p1_f2p2_d2p2_c2p0_zicsr2p0_zifencei2p0_zmmul1p0_zaamo1p0_zalrsc1p0_zca1p0_zcd1p0"
	.attribute unaligned_access, 0
	.attribute stack_align, 16
	.text
.Ltext0:
	.cfi_sections	.debug_frame
	.file 0 "/home/kapoagaeming/Downloads/spacemit-image-builder/components/Build/Milk-V-Jupiter/RELEASE_GCC5/RISCV64/MdeModulePkg/Universal/Console/ConPlatformDxe/ConPlatformDxe" "/home/kapoagaeming/Downloads/spacemit-image-builder/components/edk2/MdeModulePkg/Universal/Console/ConPlatformDxe/ConPlatform.c"
	.globl	gConPlatformTextInDriverBinding
	.section	.data.rel.local.gConPlatformTextInDriverBinding,"aw"
	.align	3
	.type	gConPlatformTextInDriverBinding, @object
	.size	gConPlatformTextInDriverBinding, 48
gConPlatformTextInDriverBinding:
	.dword	ConPlatformTextInDriverBindingSupported
	.dword	ConPlatformTextInDriverBindingStart
	.dword	ConPlatformTextInDriverBindingStop
	.word	10
	.zero	4
	.dword	0
	.dword	0
	.globl	gConPlatformTextOutDriverBinding
	.section	.data.rel.local.gConPlatformTextOutDriverBinding,"aw"
	.align	3
	.type	gConPlatformTextOutDriverBinding, @object
	.size	gConPlatformTextOutDriverBinding, 48
gConPlatformTextOutDriverBinding:
	.dword	ConPlatformTextOutDriverBindingSupported
	.dword	ConPlatformTextOutDriverBindingStart
	.dword	ConPlatformTextOutDriverBindingStop
	.word	10
	.zero	4
	.dword	0
	.dword	0
	.section	.text.InitializeConPlatform,"ax",@progbits
	.align	1
	.globl	InitializeConPlatform
	.type	InitializeConPlatform, @function
InitializeConPlatform:
.LFB0:
	.file 1 "/home/kapoagaeming/Downloads/spacemit-image-builder/components/edk2/MdeModulePkg/Universal/Console/ConPlatformDxe/ConPlatform.c"
	.loc 1 57 1
	.cfi_startproc
	addi	sp,sp,-48
	.cfi_def_cfa_offset 48
	sd	ra,40(sp)
	sd	s0,32(sp)
	.cfi_offset 1, -8
	.cfi_offset 8, -16
	addi	s0,sp,48
	.cfi_def_cfa 8, 0
	sd	a0,-40(s0)
	sd	a1,-48(s0)
	.loc 1 60 12
	la	a5,gConPlatformComponentName2
	la	a4,gConPlatformComponentName
	ld	a3,-40(s0)
	lla	a2,gConPlatformTextInDriverBinding
	ld	a1,-48(s0)
	ld	a0,-40(s0)
	call	EfiLibInstallDriverBindingComponentName2@plt
	sd	a0,-24(s0)
	.loc 1 70 12
	la	a5,gConPlatformComponentName2
	la	a4,gConPlatformComponentName
	li	a3,0
	lla	a2,gConPlatformTextOutDriverBinding
	ld	a1,-48(s0)
	ld	a0,-40(s0)
	call	EfiLibInstallDriverBindingComponentName2@plt
	sd	a0,-24(s0)
	.loc 1 80 10
	li	a5,0
	.loc 1 81 1
	mv	a0,a5
	ld	ra,40(sp)
	.cfi_restore 1
	ld	s0,32(sp)
	.cfi_restore 8
	.cfi_def_cfa 2, 48
	addi	sp,sp,48
	.cfi_def_cfa_offset 0
	jr	ra
	.cfi_endproc
.LFE0:
	.size	InitializeConPlatform, .-InitializeConPlatform
	.section	.text.ConPlatformTextInDriverBindingSupported,"ax",@progbits
	.align	1
	.globl	ConPlatformTextInDriverBindingSupported
	.type	ConPlatformTextInDriverBindingSupported, @function
ConPlatformTextInDriverBindingSupported:
.LFB1:
	.loc 1 102 1
	.cfi_startproc
	addi	sp,sp,-48
	.cfi_def_cfa_offset 48
	sd	ra,40(sp)
	sd	s0,32(sp)
	.cfi_offset 1, -8
	.cfi_offset 8, -16
	addi	s0,sp,48
	.cfi_def_cfa 8, 0
	sd	a0,-24(s0)
	sd	a1,-32(s0)
	sd	a2,-40(s0)
	.loc 1 103 10
	la	a2,gEfiSimpleTextInProtocolGuid
	ld	a1,-32(s0)
	ld	a0,-24(s0)
	call	ConPlatformDriverBindingSupported
	mv	a5,a0
	.loc 1 108 1
	mv	a0,a5
	ld	ra,40(sp)
	.cfi_restore 1
	ld	s0,32(sp)
	.cfi_restore 8
	.cfi_def_cfa 2, 48
	addi	sp,sp,48
	.cfi_def_cfa_offset 0
	jr	ra
	.cfi_endproc
.LFE1:
	.size	ConPlatformTextInDriverBindingSupported, .-ConPlatformTextInDriverBindingSupported
	.section	.text.ConPlatformTextOutDriverBindingSupported,"ax",@progbits
	.align	1
	.globl	ConPlatformTextOutDriverBindingSupported
	.type	ConPlatformTextOutDriverBindingSupported, @function
ConPlatformTextOutDriverBindingSupported:
.LFB2:
	.loc 1 129 1
	.cfi_startproc
	addi	sp,sp,-48
	.cfi_def_cfa_offset 48
	sd	ra,40(sp)
	sd	s0,32(sp)
	.cfi_offset 1, -8
	.cfi_offset 8, -16
	addi	s0,sp,48
	.cfi_def_cfa 8, 0
	sd	a0,-24(s0)
	sd	a1,-32(s0)
	sd	a2,-40(s0)
	.loc 1 130 10
	la	a2,gEfiSimpleTextOutProtocolGuid
	ld	a1,-32(s0)
	ld	a0,-24(s0)
	call	ConPlatformDriverBindingSupported
	mv	a5,a0
	.loc 1 135 1
	mv	a0,a5
	ld	ra,40(sp)
	.cfi_restore 1
	ld	s0,32(sp)
	.cfi_restore 8
	.cfi_def_cfa 2, 48
	addi	sp,sp,48
	.cfi_def_cfa_offset 0
	jr	ra
	.cfi_endproc
.LFE2:
	.size	ConPlatformTextOutDriverBindingSupported, .-ConPlatformTextOutDriverBindingSupported
	.section	.text.ConPlatformDriverBindingSupported,"ax",@progbits
	.align	1
	.globl	ConPlatformDriverBindingSupported
	.type	ConPlatformDriverBindingSupported, @function
ConPlatformDriverBindingSupported:
.LFB3:
	.loc 1 154 1
	.cfi_startproc
	addi	sp,sp,-64
	.cfi_def_cfa_offset 64
	sd	ra,56(sp)
	sd	s0,48(sp)
	.cfi_offset 1, -8
	.cfi_offset 8, -16
	addi	s0,sp,64
	.cfi_def_cfa 8, 0
	sd	a0,-40(s0)
	sd	a1,-48(s0)
	sd	a2,-56(s0)
	.loc 1 162 15
	la	a5,gBS
	ld	a5,0(a5)
	ld	a6,280(a5)
	.loc 1 162 12
	ld	a5,-40(s0)
	ld	a3,40(a5)
	li	a5,4
	ld	a4,-48(s0)
	li	a2,0
	la	a1,gEfiDevicePathProtocolGuid
	ld	a0,-48(s0)
	jalr	a6
.LVL0:
	sd	a0,-24(s0)
	.loc 1 170 34
	ld	a5,-24(s0)
	.loc 1 170 6
	bge	a5,zero,.L8
	.loc 1 171 12
	ld	a5,-24(s0)
	j	.L11
.L8:
	.loc 1 177 15
	la	a5,gBS
	ld	a5,0(a5)
	ld	a6,280(a5)
	.loc 1 177 12
	ld	a5,-40(s0)
	ld	a3,40(a5)
	addi	a2,s0,-32
	li	a5,16
	ld	a4,-48(s0)
	ld	a1,-56(s0)
	ld	a0,-48(s0)
	jalr	a6
.LVL1:
	sd	a0,-24(s0)
	.loc 1 185 34
	ld	a5,-24(s0)
	.loc 1 185 6
	bge	a5,zero,.L10
	.loc 1 186 12
	ld	a5,-24(s0)
	j	.L11
.L10:
	.loc 1 189 6
	la	a5,gBS
	ld	a5,0(a5)
	ld	a5,288(a5)
	.loc 1 189 3
	ld	a4,-40(s0)
	ld	a4,40(a4)
	ld	a3,-48(s0)
	mv	a2,a4
	ld	a1,-56(s0)
	ld	a0,-48(s0)
	jalr	a5
.LVL2:
	.loc 1 196 10
	li	a5,0
.L11:
	.loc 1 197 1
	mv	a0,a5
	ld	ra,56(sp)
	.cfi_restore 1
	ld	s0,48(sp)
	.cfi_restore 8
	.cfi_def_cfa 2, 64
	addi	sp,sp,64
	.cfi_def_cfa_offset 0
	jr	ra
	.cfi_endproc
.LFE3:
	.size	ConPlatformDriverBindingSupported, .-ConPlatformDriverBindingSupported
	.section	.rodata
	.align	3
.LC0:
	.string	"C"
	.string	"o"
	.string	"n"
	.string	"I"
	.string	"n"
	.zero	2
	.align	3
.LC1:
	.string	"C"
	.string	"o"
	.string	"n"
	.string	"I"
	.string	"n"
	.string	"D"
	.string	"e"
	.string	"v"
	.zero	2
	.section	.text.ConPlatformTextInDriverBindingStart,"ax",@progbits
	.align	1
	.globl	ConPlatformTextInDriverBindingStart
	.type	ConPlatformTextInDriverBindingStart, @function
ConPlatformTextInDriverBindingStart:
.LFB4:
	.loc 1 224 1
	.cfi_startproc
	addi	sp,sp,-80
	.cfi_def_cfa_offset 80
	sd	ra,72(sp)
	sd	s0,64(sp)
	.cfi_offset 1, -8
	.cfi_offset 8, -16
	addi	s0,sp,80
	.cfi_def_cfa 8, 0
	sd	a0,-56(s0)
	sd	a1,-64(s0)
	sd	a2,-72(s0)
	.loc 1 233 15
	la	a5,gBS
	ld	a5,0(a5)
	ld	a6,280(a5)
	.loc 1 233 12
	ld	a0,-64(s0)
	ld	a5,-56(s0)
	ld	a3,40(a5)
	ld	a4,-64(s0)
	addi	a2,s0,-40
	li	a5,2
	la	a1,gEfiDevicePathProtocolGuid
	jalr	a6
.LVL3:
	sd	a0,-32(s0)
	.loc 1 241 34
	ld	a5,-32(s0)
	.loc 1 241 6
	bge	a5,zero,.L13
	.loc 1 242 12
	ld	a5,-32(s0)
	j	.L19
.L13:
	.loc 1 248 15
	la	a5,gBS
	ld	a5,0(a5)
	ld	a6,280(a5)
	.loc 1 248 12
	ld	a0,-64(s0)
	ld	a5,-56(s0)
	ld	a3,40(a5)
	ld	a4,-64(s0)
	addi	a2,s0,-48
	li	a5,16
	la	a1,gEfiSimpleTextInProtocolGuid
	jalr	a6
.LVL4:
	sd	a0,-32(s0)
	.loc 1 256 34
	ld	a5,-32(s0)
	.loc 1 256 6
	bge	a5,zero,.L15
	.loc 1 257 12
	ld	a5,-32(s0)
	j	.L19
.L15:
	.loc 1 263 21
	sb	zero,-17(s0)
	.loc 1 264 12
	ld	a5,-40(s0)
	li	a2,0
	mv	a1,a5
	lla	a0,.LC0
	call	ConPlatformUpdateDeviceVariable
	sd	a0,-32(s0)
	.loc 1 269 7
	ld	a5,-32(s0)
	.loc 1 269 6
	blt	a5,zero,.L16
	.loc 1 270 23
	li	a5,1
	sb	a5,-17(s0)
.L16:
	.loc 1 276 3
	ld	a5,-40(s0)
	li	a2,1
	mv	a1,a5
	lla	a0,.LC1
	call	ConPlatformUpdateDeviceVariable
	.loc 1 286 6
	lbu	a5,-17(s0)
	andi	a5,a5,0xff
	beq	a5,zero,.L17
	.loc 1 287 8
	la	a5,gBS
	ld	a5,0(a5)
	ld	a5,328(a5)
	.loc 1 287 5
	addi	a4,s0,-64
	li	a3,0
	li	a2,0
	la	a1,gEfiConsoleInDeviceGuid
	mv	a0,a4
	jalr	a5
.LVL5:
	j	.L18
.L17:
	.loc 1 294 8
	la	a5,gBS
	ld	a5,0(a5)
	ld	a5,288(a5)
	.loc 1 294 5
	ld	a0,-64(s0)
	ld	a4,-56(s0)
	ld	a4,40(a4)
	ld	a3,-64(s0)
	mv	a2,a4
	la	a1,gEfiSimpleTextInProtocolGuid
	jalr	a5
.LVL6:
.L18:
	.loc 1 302 10
	li	a5,0
.L19:
	.loc 1 303 1
	mv	a0,a5
	ld	ra,72(sp)
	.cfi_restore 1
	ld	s0,64(sp)
	.cfi_restore 8
	.cfi_def_cfa 2, 80
	addi	sp,sp,80
	.cfi_def_cfa_offset 0
	jr	ra
	.cfi_endproc
.LFE4:
	.size	ConPlatformTextInDriverBindingStart, .-ConPlatformTextInDriverBindingStart
	.section	.rodata
	.align	3
.LC2:
	.string	"C"
	.string	"o"
	.string	"n"
	.string	"O"
	.string	"u"
	.string	"t"
	.zero	2
	.align	3
.LC3:
	.string	"E"
	.string	"r"
	.string	"r"
	.string	"O"
	.string	"u"
	.string	"t"
	.zero	2
	.align	3
.LC4:
	.string	"C"
	.string	"o"
	.string	"n"
	.string	"O"
	.string	"u"
	.string	"t"
	.string	"D"
	.string	"e"
	.string	"v"
	.zero	2
	.align	3
.LC5:
	.string	"E"
	.string	"r"
	.string	"r"
	.string	"O"
	.string	"u"
	.string	"t"
	.string	"D"
	.string	"e"
	.string	"v"
	.zero	2
	.section	.text.ConPlatformTextOutDriverBindingStart,"ax",@progbits
	.align	1
	.globl	ConPlatformTextOutDriverBindingStart
	.type	ConPlatformTextOutDriverBindingStart, @function
ConPlatformTextOutDriverBindingStart:
.LFB5:
	.loc 1 331 1
	.cfi_startproc
	addi	sp,sp,-80
	.cfi_def_cfa_offset 80
	sd	ra,72(sp)
	sd	s0,64(sp)
	.cfi_offset 1, -8
	.cfi_offset 8, -16
	addi	s0,sp,80
	.cfi_def_cfa 8, 0
	sd	a0,-56(s0)
	sd	a1,-64(s0)
	sd	a2,-72(s0)
	.loc 1 339 13
	li	a5,1
	sb	a5,-17(s0)
	.loc 1 344 15
	la	a5,gBS
	ld	a5,0(a5)
	ld	a6,280(a5)
	.loc 1 344 12
	ld	a0,-64(s0)
	ld	a5,-56(s0)
	ld	a3,40(a5)
	ld	a4,-64(s0)
	addi	a2,s0,-40
	li	a5,2
	la	a1,gEfiDevicePathProtocolGuid
	jalr	a6
.LVL7:
	sd	a0,-32(s0)
	.loc 1 352 34
	ld	a5,-32(s0)
	.loc 1 352 6
	bge	a5,zero,.L21
	.loc 1 353 12
	ld	a5,-32(s0)
	j	.L30
.L21:
	.loc 1 359 15
	la	a5,gBS
	ld	a5,0(a5)
	ld	a6,280(a5)
	.loc 1 359 12
	ld	a0,-64(s0)
	ld	a5,-56(s0)
	ld	a3,40(a5)
	ld	a4,-64(s0)
	addi	a2,s0,-48
	li	a5,16
	la	a1,gEfiSimpleTextOutProtocolGuid
	jalr	a6
.LVL8:
	sd	a0,-32(s0)
	.loc 1 367 34
	ld	a5,-32(s0)
	.loc 1 367 6
	bge	a5,zero,.L23
	.loc 1 368 12
	ld	a5,-32(s0)
	j	.L30
.L23:
	.loc 1 374 22
	sb	zero,-18(s0)
	.loc 1 375 12
	ld	a5,-40(s0)
	li	a2,0
	mv	a1,a5
	lla	a0,.LC2
	call	ConPlatformUpdateDeviceVariable
	sd	a0,-32(s0)
	.loc 1 380 7
	ld	a5,-32(s0)
	.loc 1 380 6
	blt	a5,zero,.L24
	.loc 1 381 24
	li	a5,1
	sb	a5,-18(s0)
.L24:
	.loc 1 384 22
	sb	zero,-19(s0)
	.loc 1 385 12
	ld	a5,-40(s0)
	li	a2,0
	mv	a1,a5
	lla	a0,.LC3
	call	ConPlatformUpdateDeviceVariable
	sd	a0,-32(s0)
	.loc 1 390 7
	ld	a5,-32(s0)
	.loc 1 390 6
	blt	a5,zero,.L25
	.loc 1 391 24
	li	a5,1
	sb	a5,-19(s0)
.L25:
	.loc 1 398 8
	ld	a5,-40(s0)
	mv	a0,a5
	call	ConPlatformUpdateGopCandidate
	mv	a5,a0
	.loc 1 398 6 discriminator 1
	bne	a5,zero,.L26
	.loc 1 399 5
	ld	a5,-40(s0)
	li	a2,1
	mv	a1,a5
	lla	a0,.LC4
	call	ConPlatformUpdateDeviceVariable
	.loc 1 407 5
	ld	a5,-40(s0)
	li	a2,1
	mv	a1,a5
	lla	a0,.LC5
	call	ConPlatformUpdateDeviceVariable
.L26:
	.loc 1 418 6
	lbu	a5,-18(s0)
	andi	a5,a5,0xff
	beq	a5,zero,.L27
	.loc 1 419 15
	sb	zero,-17(s0)
	.loc 1 420 17
	la	a5,gBS
	ld	a5,0(a5)
	ld	a5,328(a5)
	.loc 1 420 14
	addi	a4,s0,-64
	li	a3,0
	li	a2,0
	la	a1,gEfiConsoleOutDeviceGuid
	mv	a0,a4
	jalr	a5
.LVL9:
	sd	a0,-32(s0)
.L27:
	.loc 1 432 6
	lbu	a5,-19(s0)
	andi	a5,a5,0xff
	beq	a5,zero,.L28
	.loc 1 433 15
	sb	zero,-17(s0)
	.loc 1 434 8
	la	a5,gBS
	ld	a5,0(a5)
	ld	a5,328(a5)
	.loc 1 434 5
	addi	a4,s0,-64
	li	a3,0
	li	a2,0
	la	a1,gEfiStandardErrorDeviceGuid
	mv	a0,a4
	jalr	a5
.LVL10:
.L28:
	.loc 1 442 6
	lbu	a5,-17(s0)
	andi	a5,a5,0xff
	beq	a5,zero,.L29
	.loc 1 443 8
	la	a5,gBS
	ld	a5,0(a5)
	ld	a5,288(a5)
	.loc 1 443 5
	ld	a0,-64(s0)
	ld	a4,-56(s0)
	ld	a4,40(a4)
	ld	a3,-64(s0)
	mv	a2,a4
	la	a1,gEfiSimpleTextOutProtocolGuid
	jalr	a5
.LVL11:
.L29:
	.loc 1 451 10
	li	a5,0
.L30:
	.loc 1 452 1
	mv	a0,a5
	ld	ra,72(sp)
	.cfi_restore 1
	ld	s0,64(sp)
	.cfi_restore 8
	.cfi_def_cfa 2, 80
	addi	sp,sp,80
	.cfi_def_cfa_offset 0
	jr	ra
	.cfi_endproc
.LFE5:
	.size	ConPlatformTextOutDriverBindingStart, .-ConPlatformTextOutDriverBindingStart
	.section	.text.ConPlatformTextInDriverBindingStop,"ax",@progbits
	.align	1
	.globl	ConPlatformTextInDriverBindingStop
	.type	ConPlatformTextInDriverBindingStop, @function
ConPlatformTextInDriverBindingStop:
.LFB6:
	.loc 1 476 1
	.cfi_startproc
	addi	sp,sp,-64
	.cfi_def_cfa_offset 64
	sd	ra,56(sp)
	sd	s0,48(sp)
	.cfi_offset 1, -8
	.cfi_offset 8, -16
	addi	s0,sp,64
	.cfi_def_cfa 8, 0
	sd	a0,-40(s0)
	sd	a1,-48(s0)
	sd	a2,-56(s0)
	sd	a3,-64(s0)
	.loc 1 483 15
	la	a5,gBS
	ld	a5,0(a5)
	ld	a6,280(a5)
	.loc 1 483 12
	ld	a5,-40(s0)
	ld	a3,40(a5)
	addi	a2,s0,-32
	li	a5,2
	ld	a4,-48(s0)
	la	a1,gEfiDevicePathProtocolGuid
	ld	a0,-48(s0)
	jalr	a6
.LVL12:
	sd	a0,-24(s0)
	.loc 1 494 7
	ld	a5,-24(s0)
	.loc 1 494 6
	blt	a5,zero,.L32
	.loc 1 498 5
	ld	a5,-32(s0)
	li	a2,2
	mv	a1,a5
	lla	a0,.LC1
	call	ConPlatformUpdateDeviceVariable
.L32:
	.loc 1 508 3
	la	a2,gEfiConsoleInDeviceGuid
	ld	a1,-48(s0)
	ld	a0,-40(s0)
	call	ConPlatformUnInstallProtocol
	.loc 1 517 6
	la	a5,gBS
	ld	a5,0(a5)
	ld	a5,288(a5)
	.loc 1 517 3
	ld	a4,-40(s0)
	ld	a4,40(a4)
	ld	a3,-48(s0)
	mv	a2,a4
	la	a1,gEfiSimpleTextInProtocolGuid
	ld	a0,-48(s0)
	jalr	a5
.LVL13:
	.loc 1 524 10
	li	a5,0
	.loc 1 525 1
	mv	a0,a5
	ld	ra,56(sp)
	.cfi_restore 1
	ld	s0,48(sp)
	.cfi_restore 8
	.cfi_def_cfa 2, 64
	addi	sp,sp,64
	.cfi_def_cfa_offset 0
	jr	ra
	.cfi_endproc
.LFE6:
	.size	ConPlatformTextInDriverBindingStop, .-ConPlatformTextInDriverBindingStop
	.section	.text.ConPlatformTextOutDriverBindingStop,"ax",@progbits
	.align	1
	.globl	ConPlatformTextOutDriverBindingStop
	.type	ConPlatformTextOutDriverBindingStop, @function
ConPlatformTextOutDriverBindingStop:
.LFB7:
	.loc 1 549 1
	.cfi_startproc
	addi	sp,sp,-64
	.cfi_def_cfa_offset 64
	sd	ra,56(sp)
	sd	s0,48(sp)
	.cfi_offset 1, -8
	.cfi_offset 8, -16
	addi	s0,sp,64
	.cfi_def_cfa 8, 0
	sd	a0,-40(s0)
	sd	a1,-48(s0)
	sd	a2,-56(s0)
	sd	a3,-64(s0)
	.loc 1 556 15
	la	a5,gBS
	ld	a5,0(a5)
	ld	a6,280(a5)
	.loc 1 556 12
	ld	a5,-40(s0)
	ld	a3,40(a5)
	addi	a2,s0,-32
	li	a5,2
	ld	a4,-48(s0)
	la	a1,gEfiDevicePathProtocolGuid
	ld	a0,-48(s0)
	jalr	a6
.LVL14:
	sd	a0,-24(s0)
	.loc 1 564 7
	ld	a5,-24(s0)
	.loc 1 564 6
	blt	a5,zero,.L35
	.loc 1 568 5
	ld	a5,-32(s0)
	li	a2,2
	mv	a1,a5
	lla	a0,.LC4
	call	ConPlatformUpdateDeviceVariable
	.loc 1 573 5
	ld	a5,-32(s0)
	li	a2,2
	mv	a1,a5
	lla	a0,.LC5
	call	ConPlatformUpdateDeviceVariable
.L35:
	.loc 1 583 3
	la	a2,gEfiConsoleOutDeviceGuid
	ld	a1,-48(s0)
	ld	a0,-40(s0)
	call	ConPlatformUnInstallProtocol
	.loc 1 589 3
	la	a2,gEfiStandardErrorDeviceGuid
	ld	a1,-48(s0)
	ld	a0,-40(s0)
	call	ConPlatformUnInstallProtocol
	.loc 1 598 6
	la	a5,gBS
	ld	a5,0(a5)
	ld	a5,288(a5)
	.loc 1 598 3
	ld	a4,-40(s0)
	ld	a4,40(a4)
	ld	a3,-48(s0)
	mv	a2,a4
	la	a1,gEfiSimpleTextOutProtocolGuid
	ld	a0,-48(s0)
	jalr	a5
.LVL15:
	.loc 1 605 10
	li	a5,0
	.loc 1 606 1
	mv	a0,a5
	ld	ra,56(sp)
	.cfi_restore 1
	ld	s0,48(sp)
	.cfi_restore 8
	.cfi_def_cfa 2, 64
	addi	sp,sp,64
	.cfi_def_cfa_offset 0
	jr	ra
	.cfi_endproc
.LFE7:
	.size	ConPlatformTextOutDriverBindingStop, .-ConPlatformTextOutDriverBindingStop
	.section	.text.ConPlatformUnInstallProtocol,"ax",@progbits
	.align	1
	.globl	ConPlatformUnInstallProtocol
	.type	ConPlatformUnInstallProtocol, @function
ConPlatformUnInstallProtocol:
.LFB8:
	.loc 1 622 1
	.cfi_startproc
	addi	sp,sp,-64
	.cfi_def_cfa_offset 64
	sd	ra,56(sp)
	sd	s0,48(sp)
	.cfi_offset 1, -8
	.cfi_offset 8, -16
	addi	s0,sp,64
	.cfi_def_cfa 8, 0
	sd	a0,-40(s0)
	sd	a1,-48(s0)
	sd	a2,-56(s0)
	.loc 1 625 15
	la	a5,gBS
	ld	a5,0(a5)
	ld	a6,280(a5)
	.loc 1 625 12
	ld	a5,-40(s0)
	ld	a3,40(a5)
	li	a5,4
	ld	a4,-48(s0)
	li	a2,0
	ld	a1,-56(s0)
	ld	a0,-48(s0)
	jalr	a6
.LVL16:
	sd	a0,-24(s0)
	.loc 1 634 7
	ld	a5,-24(s0)
	.loc 1 634 6
	blt	a5,zero,.L40
	.loc 1 635 8
	la	a5,gBS
	ld	a5,0(a5)
	ld	a5,336(a5)
	.loc 1 635 5
	li	a3,0
	li	a2,0
	ld	a1,-56(s0)
	ld	a0,-48(s0)
	jalr	a5
.LVL17:
	.loc 1 643 3
	nop
.L40:
	nop
	.loc 1 644 1
	ld	ra,56(sp)
	.cfi_restore 1
	ld	s0,48(sp)
	.cfi_restore 8
	.cfi_def_cfa 2, 64
	addi	sp,sp,64
	.cfi_def_cfa_offset 0
	jr	ra
	.cfi_endproc
.LFE8:
	.size	ConPlatformUnInstallProtocol, .-ConPlatformUnInstallProtocol
	.section	.text.ConPlatformGetVariable,"ax",@progbits
	.align	1
	.globl	ConPlatformGetVariable
	.type	ConPlatformGetVariable, @function
ConPlatformGetVariable:
.LFB9:
	.loc 1 664 1
	.cfi_startproc
	addi	sp,sp,-64
	.cfi_def_cfa_offset 64
	sd	ra,56(sp)
	sd	s0,48(sp)
	.cfi_offset 1, -8
	.cfi_offset 8, -16
	addi	s0,sp,64
	.cfi_def_cfa 8, 0
	sd	a0,-56(s0)
	.loc 1 669 14
	sd	zero,-40(s0)
	.loc 1 670 10
	sd	zero,-24(s0)
	.loc 1 675 15
	la	a5,gRT
	ld	a5,0(a5)
	ld	a5,72(a5)
	.loc 1 675 12
	addi	a3,s0,-40
	ld	a4,-24(s0)
	li	a2,0
	la	a1,gEfiGlobalVariableGuid
	ld	a0,-56(s0)
	jalr	a5
.LVL18:
	sd	a0,-32(s0)
	.loc 1 683 6
	ld	a4,-32(s0)
	li	a5,-1
	slli	a5,a5,63
	addi	a5,a5,5
	bne	a4,a5,.L42
	.loc 1 687 14
	ld	a5,-40(s0)
	mv	a0,a5
	call	AllocatePool@plt
	sd	a0,-24(s0)
	.loc 1 688 8
	ld	a5,-24(s0)
	bne	a5,zero,.L43
	.loc 1 689 14
	li	a5,0
	j	.L45
.L43:
	.loc 1 695 17
	la	a5,gRT
	ld	a5,0(a5)
	ld	a5,72(a5)
	.loc 1 695 14
	addi	a3,s0,-40
	ld	a4,-24(s0)
	li	a2,0
	la	a1,gEfiGlobalVariableGuid
	ld	a0,-56(s0)
	jalr	a5
.LVL19:
	sd	a0,-32(s0)
	.loc 1 702 36
	ld	a5,-32(s0)
	.loc 1 702 8
	bge	a5,zero,.L42
	.loc 1 703 7
	ld	a0,-24(s0)
	call	FreePool@plt
	.loc 1 707 14
	sd	zero,-24(s0)
.L42:
	.loc 1 711 10
	ld	a5,-24(s0)
.L45:
	.loc 1 712 1
	mv	a0,a5
	ld	ra,56(sp)
	.cfi_restore 1
	ld	s0,48(sp)
	.cfi_restore 8
	.cfi_def_cfa 2, 64
	addi	sp,sp,64
	.cfi_def_cfa_offset 0
	jr	ra
	.cfi_endproc
.LFE9:
	.size	ConPlatformGetVariable, .-ConPlatformGetVariable
	.section	.text.IsGopSibling,"ax",@progbits
	.align	1
	.globl	IsGopSibling
	.type	IsGopSibling, @function
IsGopSibling:
.LFB10:
	.loc 1 730 1
	.cfi_startproc
	addi	sp,sp,-48
	.cfi_def_cfa_offset 48
	sd	ra,40(sp)
	sd	s0,32(sp)
	.cfi_offset 1, -8
	.cfi_offset 8, -16
	addi	s0,sp,48
	.cfi_def_cfa 8, 0
	sd	a0,-40(s0)
	sd	a1,-48(s0)
	.loc 1 734 17
	ld	a5,-40(s0)
	sd	a5,-24(s0)
	.loc 1 734 3
	j	.L47
.L51:
	.loc 1 735 11
	ld	a0,-24(s0)
	call	DevicePathType@plt
	mv	a5,a0
	.loc 1 735 8 discriminator 1
	mv	a4,a5
	li	a5,2
	bne	a4,a5,.L48
	.loc 1 735 50 discriminator 2
	ld	a0,-24(s0)
	call	DevicePathSubType@plt
	mv	a5,a0
	.loc 1 735 46 discriminator 4
	mv	a4,a5
	li	a5,3
	beq	a4,a5,.L49
.L48:
	.loc 1 736 11
	ld	a0,-24(s0)
	call	DevicePathType@plt
	mv	a5,a0
	.loc 1 735 89 discriminator 5
	mv	a4,a5
	li	a5,1
	bne	a4,a5,.L50
	.loc 1 736 50
	ld	a0,-24(s0)
	call	DevicePathSubType@plt
	mv	a5,a0
	.loc 1 736 46 discriminator 2
	mv	a4,a5
	li	a5,5
	bne	a4,a5,.L50
	.loc 1 737 27
	ld	a0,-24(s0)
	call	NextDevicePathNode@plt
	mv	a5,a0
	.loc 1 737 11 discriminator 1
	mv	a0,a5
	call	DevicePathType@plt
	mv	a5,a0
	.loc 1 736 88 discriminator 3
	mv	a4,a5
	li	a5,2
	bne	a4,a5,.L50
	.loc 1 737 90
	ld	a0,-24(s0)
	call	NextDevicePathNode@plt
	mv	a5,a0
	.loc 1 737 71 discriminator 3
	mv	a0,a5
	call	DevicePathSubType@plt
	mv	a5,a0
	.loc 1 737 67 discriminator 4
	mv	a4,a5
	li	a5,3
	beq	a4,a5,.L49
.L50:
	.loc 1 734 69 discriminator 3
	ld	a0,-24(s0)
	call	NextDevicePathNode@plt
	sd	a0,-24(s0)
.L47:
	.loc 1 734 26 discriminator 1
	ld	a0,-24(s0)
	call	IsDevicePathEndType@plt
	mv	a5,a0
	.loc 1 734 25 discriminator 4
	beq	a5,zero,.L51
.L49:
	.loc 1 743 7
	ld	a0,-24(s0)
	call	IsDevicePathEndType@plt
	mv	a5,a0
	.loc 1 743 6 discriminator 1
	beq	a5,zero,.L52
	.loc 1 744 12
	li	a5,0
	j	.L53
.L52:
	.loc 1 747 18
	ld	a5,-48(s0)
	sd	a5,-32(s0)
	.loc 1 747 3
	j	.L54
.L58:
	.loc 1 748 11
	ld	a0,-32(s0)
	call	DevicePathType@plt
	mv	a5,a0
	.loc 1 748 8 discriminator 1
	mv	a4,a5
	li	a5,2
	bne	a4,a5,.L55
	.loc 1 748 51 discriminator 2
	ld	a0,-32(s0)
	call	DevicePathSubType@plt
	mv	a5,a0
	.loc 1 748 47 discriminator 4
	mv	a4,a5
	li	a5,3
	beq	a4,a5,.L56
.L55:
	.loc 1 749 11
	ld	a0,-32(s0)
	call	DevicePathType@plt
	mv	a5,a0
	.loc 1 748 91 discriminator 5
	mv	a4,a5
	li	a5,1
	bne	a4,a5,.L57
	.loc 1 749 51
	ld	a0,-32(s0)
	call	DevicePathSubType@plt
	mv	a5,a0
	.loc 1 749 47 discriminator 2
	mv	a4,a5
	li	a5,5
	bne	a4,a5,.L57
	.loc 1 750 27
	ld	a0,-32(s0)
	call	NextDevicePathNode@plt
	mv	a5,a0
	.loc 1 750 11 discriminator 1
	mv	a0,a5
	call	DevicePathType@plt
	mv	a5,a0
	.loc 1 749 90 discriminator 3
	mv	a4,a5
	li	a5,2
	bne	a4,a5,.L57
	.loc 1 750 91
	ld	a0,-32(s0)
	call	NextDevicePathNode@plt
	mv	a5,a0
	.loc 1 750 72 discriminator 3
	mv	a0,a5
	call	DevicePathSubType@plt
	mv	a5,a0
	.loc 1 750 68 discriminator 4
	mv	a4,a5
	li	a5,3
	beq	a4,a5,.L56
.L57:
	.loc 1 747 73 discriminator 3
	ld	a0,-32(s0)
	call	NextDevicePathNode@plt
	sd	a0,-32(s0)
.L54:
	.loc 1 747 28 discriminator 1
	ld	a0,-32(s0)
	call	IsDevicePathEndType@plt
	mv	a5,a0
	.loc 1 747 27 discriminator 4
	beq	a5,zero,.L58
.L56:
	.loc 1 756 7
	ld	a0,-32(s0)
	call	IsDevicePathEndType@plt
	mv	a5,a0
	.loc 1 756 6 discriminator 1
	beq	a5,zero,.L59
	.loc 1 757 12
	li	a5,0
	j	.L53
.L59:
	.loc 1 760 8
	ld	a4,-24(s0)
	.loc 1 760 26
	ld	a5,-40(s0)
	.loc 1 760 24
	sub	a4,a4,a5
	.loc 1 760 43
	ld	a3,-32(s0)
	.loc 1 760 62
	ld	a5,-48(s0)
	.loc 1 760 60
	sub	a5,a3,a5
	.loc 1 760 6
	beq	a4,a5,.L60
	.loc 1 761 12
	li	a5,0
	j	.L53
.L60:
	.loc 1 764 45
	ld	a4,-24(s0)
	.loc 1 764 63
	ld	a5,-40(s0)
	.loc 1 764 61
	sub	a5,a4,a5
	.loc 1 764 20
	mv	a2,a5
	ld	a1,-48(s0)
	ld	a0,-40(s0)
	call	CompareMem@plt
	mv	a5,a0
	.loc 1 764 10 discriminator 1
	seqz	a5,a5
	andi	a5,a5,0xff
.L53:
	.loc 1 765 1
	mv	a0,a5
	ld	ra,40(sp)
	.cfi_restore 1
	ld	s0,32(sp)
	.cfi_restore 8
	.cfi_def_cfa 2, 48
	addi	sp,sp,48
	.cfi_def_cfa_offset 0
	jr	ra
	.cfi_endproc
.LFE10:
	.size	IsGopSibling, .-IsGopSibling
	.section	.text.MatchUsbClass,"ax",@progbits
	.align	1
	.globl	MatchUsbClass
	.type	MatchUsbClass, @function
MatchUsbClass:
.LFB11:
	.loc 1 783 1
	.cfi_startproc
	addi	sp,sp,-96
	.cfi_def_cfa_offset 96
	sd	ra,88(sp)
	sd	s0,80(sp)
	.cfi_offset 1, -8
	.cfi_offset 8, -16
	addi	s0,sp,96
	.cfi_def_cfa 8, 0
	sd	a0,-88(s0)
	sd	a1,-96(s0)
	.loc 1 791 8
	ld	a0,-96(s0)
	call	DevicePathType@plt
	mv	a5,a0
	.loc 1 791 6 discriminator 1
	mv	a4,a5
	li	a5,3
	bne	a4,a5,.L62
	.loc 1 792 8
	ld	a0,-96(s0)
	call	DevicePathSubType@plt
	mv	a5,a0
	.loc 1 791 43 discriminator 2
	mv	a4,a5
	li	a5,15
	beq	a4,a5,.L63
.L62:
	.loc 1 794 12
	li	a5,0
	j	.L74
.L63:
	.loc 1 800 17
	ld	a5,-88(s0)
	ld	a5,48(a5)
	.loc 1 800 12
	addi	a4,s0,-56
	mv	a1,a4
	ld	a0,-88(s0)
	jalr	a5
.LVL20:
	sd	a0,-32(s0)
	.loc 1 801 34
	ld	a5,-32(s0)
	.loc 1 801 6
	bge	a5,zero,.L65
	.loc 1 802 12
	li	a5,0
	j	.L74
.L65:
	.loc 1 805 16
	ld	a5,-96(s0)
	lbu	a4,4(a5)
	lbu	a5,5(a5)
	slli	a5,a5,8
	or	a5,a5,a4
	slli	a5,a5,48
	srli	a5,a5,48
	.loc 1 805 6
	sext.w	a4,a5
	li	a5,65536
	addi	a5,a5,-1
	beq	a4,a5,.L66
	.loc 1 806 16
	ld	a5,-96(s0)
	lbu	a4,4(a5)
	lbu	a5,5(a5)
	slli	a5,a5,8
	or	a5,a5,a4
	slli	a4,a5,48
	srli	a4,a4,48
	.loc 1 806 37
	lhu	a5,-48(s0)
	.loc 1 805 38 discriminator 1
	sext.w	a4,a4
	sext.w	a5,a5
	beq	a4,a5,.L66
	.loc 1 808 12
	li	a5,0
	j	.L74
.L66:
	.loc 1 811 16
	ld	a5,-96(s0)
	lbu	a4,6(a5)
	lbu	a5,7(a5)
	slli	a5,a5,8
	or	a5,a5,a4
	slli	a5,a5,48
	srli	a5,a5,48
	.loc 1 811 6
	sext.w	a4,a5
	li	a5,65536
	addi	a5,a5,-1
	beq	a4,a5,.L67
	.loc 1 812 16
	ld	a5,-96(s0)
	lbu	a4,6(a5)
	lbu	a5,7(a5)
	slli	a5,a5,8
	or	a5,a5,a4
	slli	a4,a5,48
	srli	a4,a4,48
	.loc 1 812 38
	lhu	a5,-46(s0)
	.loc 1 811 39 discriminator 1
	sext.w	a4,a4
	sext.w	a5,a5
	beq	a4,a5,.L67
	.loc 1 814 12
	li	a5,0
	j	.L74
.L67:
	.loc 1 817 15
	lbu	a5,-52(s0)
	sb	a5,-17(s0)
	.loc 1 818 18
	lbu	a5,-51(s0)
	sb	a5,-18(s0)
	.loc 1 819 18
	lbu	a5,-50(s0)
	sb	a5,-19(s0)
	.loc 1 821 6
	lbu	a5,-17(s0)
	andi	a5,a5,0xff
	beq	a5,zero,.L68
	.loc 1 821 26 discriminator 1
	lbu	a5,-17(s0)
	andi	a4,a5,0xff
	li	a5,239
	bne	a4,a5,.L69
	.loc 1 822 30
	lbu	a5,-18(s0)
	andi	a4,a5,0xff
	li	a5,2
	bne	a4,a5,.L69
	.loc 1 823 33
	lbu	a5,-19(s0)
	andi	a4,a5,0xff
	li	a5,1
	bne	a4,a5,.L69
.L68:
	.loc 1 831 19
	ld	a5,-88(s0)
	ld	a5,64(a5)
	.loc 1 831 14
	addi	a4,s0,-72
	mv	a1,a4
	ld	a0,-88(s0)
	jalr	a5
.LVL21:
	sd	a0,-32(s0)
	.loc 1 832 36
	ld	a5,-32(s0)
	.loc 1 832 8
	bge	a5,zero,.L70
	.loc 1 833 14
	li	a5,0
	j	.L74
.L70:
	.loc 1 836 17
	lbu	a5,-67(s0)
	sb	a5,-17(s0)
	.loc 1 837 20
	lbu	a5,-66(s0)
	sb	a5,-18(s0)
	.loc 1 838 20
	lbu	a5,-65(s0)
	sb	a5,-19(s0)
.L69:
	.loc 1 844 16
	ld	a5,-96(s0)
	lbu	a5,8(a5)
	.loc 1 844 6
	mv	a4,a5
	li	a5,255
	beq	a4,a5,.L71
	.loc 1 845 16
	ld	a5,-96(s0)
	lbu	a4,8(a5)
	.loc 1 844 39 discriminator 1
	lbu	a5,-17(s0)
	andi	a5,a5,0xff
	beq	a5,a4,.L71
	.loc 1 847 12
	li	a5,0
	j	.L74
.L71:
	.loc 1 850 16
	ld	a5,-96(s0)
	lbu	a5,9(a5)
	.loc 1 850 6
	mv	a4,a5
	li	a5,255
	beq	a4,a5,.L72
	.loc 1 851 16
	ld	a5,-96(s0)
	lbu	a4,9(a5)
	.loc 1 850 42 discriminator 1
	lbu	a5,-18(s0)
	andi	a5,a5,0xff
	beq	a5,a4,.L72
	.loc 1 853 12
	li	a5,0
	j	.L74
.L72:
	.loc 1 856 16
	ld	a5,-96(s0)
	lbu	a5,10(a5)
	.loc 1 856 6
	mv	a4,a5
	li	a5,255
	beq	a4,a5,.L73
	.loc 1 857 16
	ld	a5,-96(s0)
	lbu	a4,10(a5)
	.loc 1 856 42 discriminator 1
	lbu	a5,-19(s0)
	andi	a5,a5,0xff
	beq	a5,a4,.L73
	.loc 1 859 12
	li	a5,0
	j	.L74
.L73:
	.loc 1 862 10
	li	a5,1
.L74:
	.loc 1 863 1
	mv	a0,a5
	ld	ra,88(sp)
	.cfi_restore 1
	ld	s0,80(sp)
	.cfi_restore 8
	.cfi_def_cfa 2, 96
	addi	sp,sp,96
	.cfi_def_cfa_offset 0
	jr	ra
	.cfi_endproc
.LFE11:
	.size	MatchUsbClass, .-MatchUsbClass
	.section	.text.MatchUsbWwid,"ax",@progbits
	.align	1
	.globl	MatchUsbWwid
	.type	MatchUsbWwid, @function
MatchUsbWwid:
.LFB12:
	.loc 1 881 1
	.cfi_startproc
	addi	sp,sp,-144
	.cfi_def_cfa_offset 144
	sd	ra,136(sp)
	sd	s0,128(sp)
	.cfi_offset 1, -8
	.cfi_offset 8, -16
	addi	s0,sp,144
	.cfi_def_cfa 8, 0
	sd	a0,-136(s0)
	sd	a1,-144(s0)
	.loc 1 893 8
	ld	a0,-144(s0)
	call	DevicePathType@plt
	mv	a5,a0
	.loc 1 893 6 discriminator 1
	mv	a4,a5
	li	a5,3
	bne	a4,a5,.L76
	.loc 1 894 8
	ld	a0,-144(s0)
	call	DevicePathSubType@plt
	mv	a5,a0
	.loc 1 893 42 discriminator 2
	mv	a4,a5
	li	a5,16
	beq	a4,a5,.L77
.L76:
	.loc 1 896 12
	li	a5,0
	j	.L94
.L77:
	.loc 1 902 17
	ld	a5,-136(s0)
	ld	a5,48(a5)
	.loc 1 902 12
	addi	a4,s0,-80
	mv	a1,a4
	ld	a0,-136(s0)
	jalr	a5
.LVL22:
	sd	a0,-40(s0)
	.loc 1 903 34
	ld	a5,-40(s0)
	.loc 1 903 6
	bge	a5,zero,.L79
	.loc 1 904 12
	li	a5,0
	j	.L94
.L79:
	.loc 1 907 15
	lhu	a3,-72(s0)
	.loc 1 907 35
	ld	a5,-144(s0)
	lbu	a4,6(a5)
	lbu	a5,7(a5)
	slli	a5,a5,8
	or	a5,a5,a4
	slli	a5,a5,48
	srli	a5,a5,48
	.loc 1 907 6
	sext.w	a4,a3
	sext.w	a5,a5
	bne	a4,a5,.L80
	.loc 1 908 15
	lhu	a3,-70(s0)
	.loc 1 908 36
	ld	a5,-144(s0)
	lbu	a4,8(a5)
	lbu	a5,9(a5)
	slli	a5,a5,8
	or	a5,a5,a4
	slli	a5,a5,48
	srli	a5,a5,48
	.loc 1 907 47 discriminator 1
	sext.w	a4,a3
	sext.w	a5,a5
	beq	a4,a5,.L81
.L80:
	.loc 1 910 12
	li	a5,0
	j	.L94
.L81:
	.loc 1 916 17
	ld	a5,-136(s0)
	ld	a5,64(a5)
	.loc 1 916 12
	addi	a4,s0,-96
	mv	a1,a4
	ld	a0,-136(s0)
	jalr	a5
.LVL23:
	sd	a0,-40(s0)
	.loc 1 917 34
	ld	a5,-40(s0)
	.loc 1 917 6
	bge	a5,zero,.L82
	.loc 1 918 12
	li	a5,0
	j	.L94
.L82:
	.loc 1 921 13
	lbu	a5,-94(s0)
	mv	a3,a5
	.loc 1 921 40
	ld	a5,-144(s0)
	lbu	a4,4(a5)
	lbu	a5,5(a5)
	slli	a5,a5,8
	or	a5,a5,a4
	slli	a5,a5,48
	srli	a5,a5,48
	.loc 1 921 6
	sext.w	a4,a3
	sext.w	a5,a5
	beq	a4,a5,.L83
	.loc 1 922 12
	li	a5,0
	j	.L94
.L83:
	.loc 1 928 14
	lbu	a5,-64(s0)
	.loc 1 928 6
	bne	a5,zero,.L84
	.loc 1 929 12
	li	a5,0
	j	.L94
.L84:
	.loc 1 935 13
	sh	zero,-106(s0)
	.loc 1 936 15
	sd	zero,-104(s0)
	.loc 1 937 17
	ld	a5,-136(s0)
	ld	a5,88(a5)
	.loc 1 937 12
	addi	a3,s0,-106
	addi	a4,s0,-104
	mv	a2,a3
	mv	a1,a4
	ld	a0,-136(s0)
	jalr	a5
.LVL24:
	sd	a0,-40(s0)
	.loc 1 938 34
	ld	a5,-40(s0)
	.loc 1 938 6
	blt	a5,zero,.L85
	.loc 1 938 74 discriminator 1
	lhu	a5,-106(s0)
	.loc 1 938 60 discriminator 1
	beq	a5,zero,.L85
	.loc 1 938 96 discriminator 2
	ld	a5,-104(s0)
	.loc 1 938 80 discriminator 2
	bne	a5,zero,.L86
.L85:
	.loc 1 939 12
	li	a5,0
	j	.L94
.L86:
	.loc 1 945 14
	ld	a5,-144(s0)
	addi	a5,a5,10
	sd	a5,-48(s0)
	.loc 1 946 17
	ld	a0,-144(s0)
	call	DevicePathNodeLength@plt
	mv	a5,a0
	.loc 1 946 48 discriminator 1
	addi	a5,a5,-10
	.loc 1 946 14 discriminator 1
	srli	a5,a5,1
	sd	a5,-32(s0)
	.loc 1 947 17
	ld	a5,-32(s0)
	slli	a5,a5,1
	addi	a5,a5,-2
	ld	a4,-48(s0)
	add	a5,a4,a5
	lhu	a5,0(a5)
	.loc 1 947 6
	bne	a5,zero,.L87
	.loc 1 948 15
	ld	a5,-32(s0)
	addi	a5,a5,-1
	sd	a5,-32(s0)
.L87:
	.loc 1 954 14
	sh	zero,-18(s0)
	.loc 1 954 3
	j	.L88
.L93:
	.loc 1 955 21
	sd	zero,-120(s0)
	.loc 1 956 19
	ld	a5,-136(s0)
	ld	a5,80(a5)
	.loc 1 958 43
	ld	a3,-104(s0)
	lhu	a4,-18(s0)
	slli	a4,a4,1
	add	a4,a3,a4
	.loc 1 956 14
	lhu	a4,0(a4)
	lbu	a2,-64(s0)
	addi	a3,s0,-120
	mv	a1,a4
	ld	a0,-136(s0)
	jalr	a5
.LVL25:
	sd	a0,-40(s0)
	.loc 1 962 36
	ld	a5,-40(s0)
	.loc 1 962 8
	blt	a5,zero,.L95
	.loc 1 962 82 discriminator 2
	ld	a5,-120(s0)
	.loc 1 962 62 discriminator 2
	beq	a5,zero,.L95
	.loc 1 966 14
	ld	a5,-120(s0)
	mv	a0,a5
	call	StrLen@plt
	sd	a0,-56(s0)
	.loc 1 967 8
	ld	a4,-56(s0)
	ld	a5,-32(s0)
	bltu	a4,a5,.L92
	.loc 1 968 10
	ld	a4,-120(s0)
	.loc 1 968 47
	ld	a3,-56(s0)
	ld	a5,-32(s0)
	sub	a5,a3,a5
	slli	a5,a5,1
	add	a4,a4,a5
	.loc 1 968 84
	ld	a5,-32(s0)
	slli	a5,a5,1
	.loc 1 968 10
	mv	a2,a5
	ld	a1,-48(s0)
	mv	a0,a4
	call	CompareMem@plt
	mv	a5,a0
	.loc 1 967 32 discriminator 1
	bne	a5,zero,.L92
	.loc 1 970 7
	ld	a5,-120(s0)
	mv	a0,a5
	call	FreePool@plt
	.loc 1 971 14
	li	a5,1
	j	.L94
.L92:
	.loc 1 974 5
	ld	a5,-120(s0)
	mv	a0,a5
	call	FreePool@plt
	j	.L91
.L95:
	.loc 1 963 7
	nop
.L91:
	.loc 1 954 61 discriminator 2
	lhu	a5,-18(s0)
	addiw	a5,a5,1
	sh	a5,-18(s0)
.L88:
	.loc 1 954 25 discriminator 1
	lhu	a5,-106(s0)
	srliw	a5,a5,1
	slli	a5,a5,48
	srli	a5,a5,48
	lhu	a4,-18(s0)
	sext.w	a4,a4
	sext.w	a5,a5
	bltu	a4,a5,.L93
	.loc 1 977 10
	li	a5,0
.L94:
	.loc 1 978 1
	mv	a0,a5
	ld	ra,136(sp)
	.cfi_restore 1
	ld	s0,128(sp)
	.cfi_restore 8
	.cfi_def_cfa 2, 144
	addi	sp,sp,144
	.cfi_def_cfa_offset 0
	jr	ra
	.cfi_endproc
.LFE12:
	.size	MatchUsbWwid, .-MatchUsbWwid
	.section	.text.MatchUsbShortformDevicePath,"ax",@progbits
	.align	1
	.globl	MatchUsbShortformDevicePath
	.type	MatchUsbShortformDevicePath, @function
MatchUsbShortformDevicePath:
.LFB13:
	.loc 1 994 1
	.cfi_startproc
	addi	sp,sp,-80
	.cfi_def_cfa_offset 80
	sd	ra,72(sp)
	sd	s0,64(sp)
	.cfi_offset 1, -8
	.cfi_offset 8, -16
	addi	s0,sp,80
	.cfi_def_cfa 8, 0
	sd	a0,-72(s0)
	sd	a1,-80(s0)
	.loc 1 1002 23
	ld	a5,-80(s0)
	sd	a5,-24(s0)
	.loc 1 1002 3
	j	.L97
.L100:
	.loc 1 1007 10
	ld	a0,-24(s0)
	call	DevicePathType@plt
	mv	a5,a0
	.loc 1 1007 8 discriminator 1
	mv	a4,a5
	li	a5,3
	bne	a4,a5,.L98
	.loc 1 1008 11
	ld	a0,-24(s0)
	call	DevicePathSubType@plt
	mv	a5,a0
	.loc 1 1007 50 discriminator 2
	mv	a4,a5
	li	a5,15
	beq	a4,a5,.L99
	.loc 1 1009 11
	ld	a0,-24(s0)
	call	DevicePathSubType@plt
	mv	a5,a0
	.loc 1 1008 54
	mv	a4,a5
	li	a5,16
	beq	a4,a5,.L99
.L98:
	.loc 1 1004 27
	ld	a0,-24(s0)
	call	NextDevicePathNode@plt
	sd	a0,-24(s0)
.L97:
	.loc 1 1003 12
	ld	a0,-24(s0)
	call	IsDevicePathEnd@plt
	mv	a5,a0
	.loc 1 1003 11 discriminator 1
	beq	a5,zero,.L100
.L99:
	.loc 1 1019 7
	ld	a0,-24(s0)
	call	IsDevicePathEnd@plt
	mv	a5,a0
	.loc 1 1019 6 discriminator 1
	beq	a5,zero,.L101
	.loc 1 1020 12
	li	a5,0
	j	.L109
.L101:
	.loc 1 1026 26
	ld	a4,-24(s0)
	.loc 1 1026 49
	ld	a5,-80(s0)
	.loc 1 1026 24
	sub	a5,a4,a5
	sd	a5,-32(s0)
	.loc 1 1027 23
	ld	a5,-72(s0)
	sd	a5,-48(s0)
	.loc 1 1028 15
	la	a5,gBS
	ld	a5,0(a5)
	ld	a5,184(a5)
	.loc 1 1028 12
	addi	a3,s0,-64
	addi	a4,s0,-48
	mv	a2,a3
	mv	a1,a4
	la	a0,gEfiUsbIoProtocolGuid
	jalr	a5
.LVL26:
	sd	a0,-40(s0)
	.loc 1 1029 34
	ld	a5,-40(s0)
	.loc 1 1029 6
	bge	a5,zero,.L103
	.loc 1 1030 12
	li	a5,0
	j	.L109
.L103:
	.loc 1 1033 6
	ld	a5,-32(s0)
	beq	a5,zero,.L104
	.loc 1 1034 33
	ld	a5,-48(s0)
	mv	a4,a5
	.loc 1 1034 62
	ld	a5,-72(s0)
	.loc 1 1034 60
	sub	a5,a4,a5
	.loc 1 1034 8
	ld	a4,-32(s0)
	bgtu	a4,a5,.L105
	.loc 1 1035 10
	ld	a2,-32(s0)
	ld	a1,-80(s0)
	ld	a0,-72(s0)
	call	CompareMem@plt
	mv	a5,a0
	.loc 1 1034 79 discriminator 1
	beq	a5,zero,.L104
.L105:
	.loc 1 1037 14
	li	a5,0
	j	.L109
.L104:
	.loc 1 1044 15
	la	a5,gBS
	ld	a5,0(a5)
	ld	a5,152(a5)
	.loc 1 1044 12
	ld	a4,-64(s0)
	addi	a3,s0,-56
	mv	a2,a3
	la	a1,gEfiUsbIoProtocolGuid
	mv	a0,a4
	jalr	a5
.LVL27:
	sd	a0,-40(s0)
	.loc 1 1051 10
	ld	a5,-56(s0)
	ld	a1,-24(s0)
	mv	a0,a5
	call	MatchUsbClass
	mv	a5,a0
	.loc 1 1051 72 discriminator 1
	bne	a5,zero,.L106
	.loc 1 1052 10
	ld	a5,-56(s0)
	ld	a1,-24(s0)
	mv	a0,a5
	call	MatchUsbWwid
	mv	a5,a0
	.loc 1 1051 72 discriminator 3
	beq	a5,zero,.L107
.L106:
	.loc 1 1051 72 is_stmt 0 discriminator 4
	li	a5,1
	.loc 1 1051 72
	j	.L108
.L107:
	.loc 1 1051 72 discriminator 5
	li	a5,0
.L108:
	.loc 1 1051 72 discriminator 7
	andi	a5,a5,0xff
.L109:
	.loc 1 1053 1 is_stmt 1
	mv	a0,a5
	ld	ra,72(sp)
	.cfi_restore 1
	ld	s0,64(sp)
	.cfi_restore 8
	.cfi_def_cfa 2, 80
	addi	sp,sp,80
	.cfi_def_cfa_offset 0
	jr	ra
	.cfi_endproc
.LFE13:
	.size	MatchUsbShortformDevicePath, .-MatchUsbShortformDevicePath
	.section	.text.ConPlatformMatchDevicePaths,"ax",@progbits
	.align	1
	.globl	ConPlatformMatchDevicePaths
	.type	ConPlatformMatchDevicePaths, @function
ConPlatformMatchDevicePaths:
.LFB14:
	.loc 1 1082 1
	.cfi_startproc
	addi	sp,sp,-96
	.cfi_def_cfa_offset 96
	sd	ra,88(sp)
	sd	s0,80(sp)
	.cfi_offset 1, -8
	.cfi_offset 8, -16
	addi	s0,sp,96
	.cfi_def_cfa 8, 0
	sd	a0,-72(s0)
	sd	a1,-80(s0)
	sd	a2,-88(s0)
	mv	a5,a3
	sb	a5,-89(s0)
	.loc 1 1092 6
	ld	a5,-72(s0)
	beq	a5,zero,.L111
	.loc 1 1092 31 discriminator 1
	ld	a5,-80(s0)
	bne	a5,zero,.L112
.L111:
	.loc 1 1093 12
	li	a5,-1
	slli	a5,a5,63
	addi	a5,a5,2
	j	.L123
.L112:
	.loc 1 1099 6
	lbu	a5,-89(s0)
	andi	a5,a5,0xff
	beq	a5,zero,.L114
	.loc 1 1100 8
	ld	a5,-88(s0)
	bne	a5,zero,.L114
	.loc 1 1101 14
	li	a5,-1
	slli	a5,a5,63
	addi	a5,a5,2
	j	.L123
.L114:
	.loc 1 1105 19
	sd	zero,-24(s0)
	.loc 1 1107 14
	ld	a5,-72(s0)
	sd	a5,-48(s0)
	.loc 1 1108 20
	addi	a4,s0,-56
	addi	a5,s0,-48
	mv	a1,a4
	mv	a0,a5
	call	GetNextDevicePathInstance@plt
	sd	a0,-32(s0)
	.loc 1 1113 9
	j	.L115
.L121:
	.loc 1 1114 10
	ld	a5,-56(s0)
	mv	a2,a5
	ld	a1,-32(s0)
	ld	a0,-80(s0)
	call	CompareMem@plt
	mv	a5,a0
	.loc 1 1114 8 discriminator 1
	beq	a5,zero,.L116
	.loc 1 1115 9
	ld	a1,-32(s0)
	ld	a0,-80(s0)
	call	IsGopSibling
	mv	a5,a0
	.loc 1 1114 58 discriminator 2
	bne	a5,zero,.L116
	.loc 1 1115 50
	ld	a1,-32(s0)
	ld	a0,-80(s0)
	call	MatchUsbShortformDevicePath
	mv	a5,a0
	.loc 1 1115 47 discriminator 2
	beq	a5,zero,.L117
.L116:
	.loc 1 1117 10
	lbu	a5,-89(s0)
	andi	a5,a5,0xff
	bne	a5,zero,.L119
	.loc 1 1121 9
	ld	a0,-32(s0)
	call	FreePool@plt
	.loc 1 1122 16
	li	a5,0
	j	.L123
.L117:
	.loc 1 1125 10
	lbu	a5,-89(s0)
	andi	a5,a5,0xff
	beq	a5,zero,.L119
	.loc 1 1130 27
	ld	a1,-32(s0)
	ld	a0,-24(s0)
	call	AppendDevicePathInstance@plt
	sd	a0,-40(s0)
	.loc 1 1134 12
	ld	a5,-24(s0)
	beq	a5,zero,.L120
	.loc 1 1135 11
	ld	a0,-24(s0)
	call	FreePool@plt
.L120:
	.loc 1 1138 25
	ld	a5,-40(s0)
	sd	a5,-24(s0)
.L119:
	.loc 1 1142 5
	ld	a0,-32(s0)
	call	FreePool@plt
	.loc 1 1143 22
	addi	a4,s0,-56
	addi	a5,s0,-48
	mv	a1,a4
	mv	a0,a5
	call	GetNextDevicePathInstance@plt
	sd	a0,-32(s0)
.L115:
	.loc 1 1113 25
	ld	a5,-32(s0)
	bne	a5,zero,.L121
	.loc 1 1146 6
	lbu	a5,-89(s0)
	andi	a5,a5,0xff
	beq	a5,zero,.L122
	.loc 1 1150 20
	ld	a5,-88(s0)
	ld	a4,-24(s0)
	sd	a4,0(a5)
	.loc 1 1151 12
	li	a5,0
	j	.L123
.L122:
	.loc 1 1154 10
	li	a5,-1
	slli	a5,a5,63
	addi	a5,a5,14
.L123:
	.loc 1 1155 1
	mv	a0,a5
	ld	ra,88(sp)
	.cfi_restore 1
	ld	s0,80(sp)
	.cfi_restore 8
	.cfi_def_cfa 2, 96
	addi	sp,sp,96
	.cfi_def_cfa_offset 0
	jr	ra
	.cfi_endproc
.LFE14:
	.size	ConPlatformMatchDevicePaths, .-ConPlatformMatchDevicePaths
	.section	.text.ConPlatformUpdateDeviceVariable,"ax",@progbits
	.align	1
	.globl	ConPlatformUpdateDeviceVariable
	.type	ConPlatformUpdateDeviceVariable, @function
ConPlatformUpdateDeviceVariable:
.LFB15:
	.loc 1 1176 1
	.cfi_startproc
	addi	sp,sp,-96
	.cfi_def_cfa_offset 96
	sd	ra,88(sp)
	sd	s0,80(sp)
	sd	s1,72(sp)
	.cfi_offset 1, -8
	.cfi_offset 8, -16
	.cfi_offset 9, -24
	addi	s0,sp,96
	.cfi_def_cfa 8, 0
	sd	a0,-72(s0)
	sd	a1,-80(s0)
	mv	a5,a2
	sw	a5,-84(s0)
	.loc 1 1181 22
	sd	zero,-48(s0)
	.loc 1 1182 25
	sd	zero,-56(s0)
	.loc 1 1189 24
	ld	a0,-72(s0)
	call	ConPlatformGetVariable
	sd	a0,-48(s0)
	.loc 1 1191 6
	lw	a5,-84(s0)
	sext.w	a4,a5
	li	a5,2
	beq	a4,a5,.L125
	.loc 1 1195 14
	li	a3,0
	li	a2,0
	ld	a1,-80(s0)
	ld	a0,-48(s0)
	call	ConPlatformMatchDevicePaths
	sd	a0,-40(s0)
	.loc 1 1202 8
	lw	a5,-84(s0)
	sext.w	a5,a5
	beq	a5,zero,.L126
	.loc 1 1202 34 discriminator 1
	ld	a5,-40(s0)
	.loc 1 1202 30 discriminator 1
	blt	a5,zero,.L127
.L126:
	.loc 1 1208 10
	ld	a5,-48(s0)
	beq	a5,zero,.L128
	.loc 1 1209 9
	ld	a0,-48(s0)
	call	FreePool@plt
.L128:
	.loc 1 1212 14
	ld	a5,-40(s0)
	j	.L134
.L127:
	.loc 1 1218 12
	sd	zero,-40(s0)
	.loc 1 1219 29
	ld	a1,-80(s0)
	ld	a0,-48(s0)
	call	AppendDevicePathInstance@plt
	mv	a5,a0
	.loc 1 1219 27 discriminator 1
	sd	a5,-56(s0)
	.loc 1 1223 31
	ld	a5,-56(s0)
	.loc 1 1223 8
	bne	a5,zero,.L130
	.loc 1 1224 14
	li	a5,-1
	slli	a5,a5,63
	addi	a5,a5,9
	sd	a5,-40(s0)
	j	.L130
.L125:
	.loc 1 1231 14
	addi	a5,s0,-56
	li	a3,1
	mv	a2,a5
	ld	a1,-80(s0)
	ld	a0,-48(s0)
	call	ConPlatformMatchDevicePaths
	sd	a0,-40(s0)
.L130:
	.loc 1 1239 6
	ld	a5,-48(s0)
	beq	a5,zero,.L131
	.loc 1 1240 5
	ld	a0,-48(s0)
	call	FreePool@plt
.L131:
	.loc 1 1243 34
	ld	a5,-40(s0)
	.loc 1 1243 6
	bge	a5,zero,.L132
	.loc 1 1244 12
	ld	a5,-40(s0)
	j	.L134
.L132:
	.loc 1 1247 29
	ld	a5,-56(s0)
	.loc 1 1247 6
	beq	a5,zero,.L133
	.loc 1 1251 17
	la	a5,gRT
	ld	a5,0(a5)
	ld	s1,88(a5)
	.loc 1 1251 14
	ld	a5,-56(s0)
	mv	a0,a5
	call	GetDevicePathSize@plt
	mv	a3,a0
	.loc 1 1251 14 is_stmt 0 discriminator 1
	ld	a5,-56(s0)
	mv	a4,a5
	li	a2,6
	la	a1,gEfiGlobalVariableGuid
	ld	a0,-72(s0)
	jalr	s1
.LVL28:
	sd	a0,-40(s0)
	.loc 1 1259 5 is_stmt 1
	ld	a5,-56(s0)
	mv	a0,a5
	call	FreePool@plt
.L133:
	.loc 1 1262 10
	ld	a5,-40(s0)
.L134:
	.loc 1 1263 1
	mv	a0,a5
	ld	ra,88(sp)
	.cfi_restore 1
	ld	s0,80(sp)
	.cfi_restore 8
	.cfi_def_cfa 2, 96
	ld	s1,72(sp)
	.cfi_restore 9
	addi	sp,sp,96
	.cfi_def_cfa_offset 0
	jr	ra
	.cfi_endproc
.LFE15:
	.size	ConPlatformUpdateDeviceVariable, .-ConPlatformUpdateDeviceVariable
	.section	.text.ConPlatformUpdateGopCandidate,"ax",@progbits
	.align	1
	.globl	ConPlatformUpdateGopCandidate
	.type	ConPlatformUpdateGopCandidate, @function
ConPlatformUpdateGopCandidate:
.LFB16:
	.loc 1 1279 1
	.cfi_startproc
	addi	sp,sp,-64
	.cfi_def_cfa_offset 64
	sd	ra,56(sp)
	sd	s0,48(sp)
	.cfi_offset 1, -8
	.cfi_offset 8, -16
	addi	s0,sp,64
	.cfi_def_cfa 8, 0
	sd	a0,-56(s0)
	.loc 1 1288 18
	ld	a5,-56(s0)
	sd	a5,-48(s0)
	.loc 1 1289 15
	la	a5,gBS
	ld	a5,0(a5)
	ld	a5,184(a5)
	.loc 1 1289 12
	addi	a3,s0,-40
	addi	a4,s0,-48
	mv	a2,a3
	mv	a1,a4
	la	a0,gEfiGraphicsOutputProtocolGuid
	jalr	a5
.LVL29:
	sd	a0,-24(s0)
	.loc 1 1290 34
	ld	a5,-24(s0)
	.loc 1 1290 6
	bge	a5,zero,.L136
	.loc 1 1291 12
	li	a5,0
	j	.L140
.L136:
	.loc 1 1297 15
	la	a5,gBS
	ld	a5,0(a5)
	ld	a5,184(a5)
	.loc 1 1297 12
	addi	a3,s0,-32
	addi	a4,s0,-56
	mv	a2,a3
	mv	a1,a4
	la	a0,gEfiPciIoProtocolGuid
	jalr	a5
.LVL30:
	sd	a0,-24(s0)
	.loc 1 1298 34
	ld	a5,-24(s0)
	.loc 1 1298 6
	bge	a5,zero,.L138
	.loc 1 1299 12
	li	a5,0
	j	.L140
.L138:
	.loc 1 1302 20
	ld	a5,-32(s0)
	mv	a0,a5
	call	EfiBootManagerGetGopDevicePath@plt
	mv	a5,a0
	.loc 1 1302 18 discriminator 1
	sd	a5,-48(s0)
	.loc 1 1303 22
	ld	a5,-48(s0)
	.loc 1 1303 6
	beq	a5,zero,.L139
	.loc 1 1304 5
	ld	a5,-48(s0)
	li	a2,1
	mv	a1,a5
	lla	a0,.LC4
	call	ConPlatformUpdateDeviceVariable
	.loc 1 1305 5
	ld	a5,-48(s0)
	li	a2,1
	mv	a1,a5
	lla	a0,.LC5
	call	ConPlatformUpdateDeviceVariable
.L139:
	.loc 1 1308 10
	li	a5,1
.L140:
	.loc 1 1309 1
	mv	a0,a5
	ld	ra,56(sp)
	.cfi_restore 1
	ld	s0,48(sp)
	.cfi_restore 8
	.cfi_def_cfa 2, 64
	addi	sp,sp,64
	.cfi_def_cfa_offset 0
	jr	ra
	.cfi_endproc
.LFE16:
	.size	ConPlatformUpdateGopCandidate, .-ConPlatformUpdateGopCandidate
	.text
.Letext0:
	.file 2 "/home/kapoagaeming/Downloads/spacemit-image-builder/components/edk2/MdePkg/Include/RiscV64/ProcessorBind.h"
	.file 3 "/home/kapoagaeming/Downloads/spacemit-image-builder/components/edk2/MdePkg/Include/Base.h"
	.file 4 "/home/kapoagaeming/Downloads/spacemit-image-builder/components/edk2/MdePkg/Include/Uefi/UefiBaseType.h"
	.file 5 "/home/kapoagaeming/Downloads/spacemit-image-builder/components/edk2/MdePkg/Include/Uefi/UefiMultiPhase.h"
	.file 6 "/home/kapoagaeming/Downloads/spacemit-image-builder/components/edk2/MdePkg/Include/Protocol/DevicePath.h"
	.file 7 "/home/kapoagaeming/Downloads/spacemit-image-builder/components/edk2/MdePkg/Include/Protocol/SimpleTextIn.h"
	.file 8 "/home/kapoagaeming/Downloads/spacemit-image-builder/components/edk2/MdePkg/Include/Protocol/SimpleTextOut.h"
	.file 9 "/home/kapoagaeming/Downloads/spacemit-image-builder/components/edk2/MdePkg/Include/Uefi/UefiSpec.h"
	.file 10 "/home/kapoagaeming/Downloads/spacemit-image-builder/components/Build/Milk-V-Jupiter/RELEASE_GCC5/RISCV64/MdeModulePkg/Universal/Console/ConPlatformDxe/ConPlatformDxe/DEBUG/AutoGen.h"
	.file 11 "/home/kapoagaeming/Downloads/spacemit-image-builder/components/edk2/MdePkg/Include/IndustryStandard/Usb.h"
	.file 12 "/home/kapoagaeming/Downloads/spacemit-image-builder/components/edk2/MdePkg/Include/Protocol/UsbIo.h"
	.file 13 "/home/kapoagaeming/Downloads/spacemit-image-builder/components/edk2/MdePkg/Include/Protocol/DriverBinding.h"
	.file 14 "/home/kapoagaeming/Downloads/spacemit-image-builder/components/edk2/MdePkg/Include/Protocol/ComponentName.h"
	.file 15 "/home/kapoagaeming/Downloads/spacemit-image-builder/components/edk2/MdePkg/Include/Protocol/ComponentName2.h"
	.file 16 "/home/kapoagaeming/Downloads/spacemit-image-builder/components/edk2/MdePkg/Include/Library/UefiBootServicesTableLib.h"
	.file 17 "/home/kapoagaeming/Downloads/spacemit-image-builder/components/edk2/MdePkg/Include/Library/UefiRuntimeServicesTableLib.h"
	.file 18 "/home/kapoagaeming/Downloads/spacemit-image-builder/components/edk2/MdeModulePkg/Universal/Console/ConPlatformDxe/ConPlatform.h"
	.file 19 "/home/kapoagaeming/Downloads/spacemit-image-builder/components/edk2/MdeModulePkg/Include/Library/UefiBootManagerLib.h"
	.file 20 "/home/kapoagaeming/Downloads/spacemit-image-builder/components/edk2/MdePkg/Include/Library/DevicePathLib.h"
	.file 21 "/home/kapoagaeming/Downloads/spacemit-image-builder/components/edk2/MdePkg/Include/Library/BaseLib.h"
	.file 22 "/home/kapoagaeming/Downloads/spacemit-image-builder/components/edk2/MdePkg/Include/Library/BaseMemoryLib.h"
	.file 23 "/home/kapoagaeming/Downloads/spacemit-image-builder/components/edk2/MdePkg/Include/Library/MemoryAllocationLib.h"
	.file 24 "/home/kapoagaeming/Downloads/spacemit-image-builder/components/edk2/MdePkg/Include/Library/UefiLib.h"
	.section	.note.GNU-stack,"",@progbits
