	.file	"Image.c"
	.option pic
	.option norelax
	.attribute arch, "rv64i2p1_m2p0_a2p1_f2p2_d2p2_c2p0_zicsr2p0_zifencei2p0_zmmul1p0_zaamo1p0_zalrsc1p0_zca1p0_zcd1p0"
	.attribute unaligned_access, 0
	.attribute stack_align, 16
	.text
.Ltext0:
	.cfi_sections	.debug_frame
	.file 0 "/home/kapoagaeming/Downloads/spacemit-image-builder/components/Build/Milk-V-Jupiter/RELEASE_GCC5/RISCV64/MdeModulePkg/Core/Dxe/DxeMain" "/home/kapoagaeming/Downloads/spacemit-image-builder/components/edk2/MdeModulePkg/Core/Dxe/Image/Image.c"
	.globl	mCurrentImage
	.section	.bss.mCurrentImage,"aw",@nobits
	.align	3
	.type	mCurrentImage, @object
	.size	mCurrentImage, 8
mCurrentImage:
	.zero	8
	.section	.bss.mAvailableEmulators,"aw",@nobits
	.align	3
	.type	mAvailableEmulators, @object
	.size	mAvailableEmulators, 16
mAvailableEmulators:
	.zero	16
	.section	.bss.mPeCoffEmuProtocolRegistrationEvent,"aw",@nobits
	.align	3
	.type	mPeCoffEmuProtocolRegistrationEvent, @object
	.size	mPeCoffEmuProtocolRegistrationEvent, 8
mPeCoffEmuProtocolRegistrationEvent:
	.zero	8
	.section	.bss.mPeCoffEmuProtocolNotifyRegistration,"aw",@nobits
	.align	3
	.type	mPeCoffEmuProtocolNotifyRegistration, @object
	.size	mPeCoffEmuProtocolNotifyRegistration, 8
mPeCoffEmuProtocolNotifyRegistration:
	.zero	8
	.globl	mCorePrivateImage
	.section	.data.mCorePrivateImage,"aw"
	.align	3
	.type	mCorePrivateImage, @object
	.size	mCorePrivateImage, 400
mCorePrivateImage:
	.dword	1769104492
	.dword	0
	.dword	11
	.byte	1
	.zero	7
	.dword	0
	.word	4096
	.zero	4
	.dword	0
	.dword	0
	.dword	0
	.dword	0
	.dword	0
	.word	0
	.zero	4
	.dword	0
	.dword	0
	.dword	0
	.word	3
	.word	4
	.zero	8
	.dword	0
	.dword	0
	.dword	0
	.dword	0
	.dword	0
	.dword	0
	.dword	0
	.dword	0
	.dword	0
	.half	0
	.zero	6
	.dword	0
	.dword	0
	.dword	0
	.zero	160
	.globl	mDxeCodeMemoryRangeUsageBitMap
	.section	.bss.mDxeCodeMemoryRangeUsageBitMap,"aw",@nobits
	.align	3
	.type	mDxeCodeMemoryRangeUsageBitMap, @object
	.size	mDxeCodeMemoryRangeUsageBitMap, 8
mDxeCodeMemoryRangeUsageBitMap:
	.zero	8
	.globl	mMachineTypeInfo
	.section	.rodata
	.align	3
.LC0:
	.string	"I"
	.string	"A"
	.string	"3"
	.string	"2"
	.zero	2
	.align	3
.LC1:
	.string	"I"
	.string	"A"
	.string	"6"
	.string	"4"
	.zero	2
	.align	3
.LC2:
	.string	"X"
	.string	"6"
	.string	"4"
	.zero	2
	.align	3
.LC3:
	.string	"A"
	.string	"R"
	.string	"M"
	.zero	2
	.align	3
.LC4:
	.string	"A"
	.string	"A"
	.string	"R"
	.string	"C"
	.string	"H"
	.string	"6"
	.string	"4"
	.zero	2
	.align	3
.LC5:
	.string	"R"
	.string	"I"
	.string	"S"
	.string	"C"
	.string	"V"
	.string	"6"
	.string	"4"
	.zero	2
	.align	3
.LC6:
	.string	"L"
	.string	"O"
	.string	"O"
	.string	"N"
	.string	"G"
	.string	"A"
	.string	"R"
	.string	"C"
	.string	"H"
	.string	"6"
	.string	"4"
	.zero	2
	.section	.data.rel.local.mMachineTypeInfo,"aw"
	.align	3
	.type	mMachineTypeInfo, @object
	.size	mMachineTypeInfo, 112
mMachineTypeInfo:
	.half	332
	.zero	6
	.dword	.LC0
	.half	512
	.zero	6
	.dword	.LC1
	.half	-31132
	.zero	6
	.dword	.LC2
	.half	450
	.zero	6
	.dword	.LC3
	.half	-21916
	.zero	6
	.dword	.LC4
	.half	20580
	.zero	6
	.dword	.LC5
	.half	25188
	.zero	6
	.dword	.LC6
	.globl	mDxeCoreImageMachineType
	.section	.bss.mDxeCoreImageMachineType,"aw",@nobits
	.align	1
	.type	mDxeCoreImageMachineType, @object
	.size	mDxeCoreImageMachineType, 2
mDxeCoreImageMachineType:
	.zero	2
	.section	.rodata
	.align	3
.LC7:
	.string	"<"
	.string	"U"
	.string	"n"
	.string	"k"
	.string	"n"
	.string	"o"
	.string	"w"
	.string	"n"
	.string	">"
	.zero	2
	.section	.text.GetMachineTypeName,"ax",@progbits
	.align	1
	.globl	GetMachineTypeName
	.type	GetMachineTypeName, @function
GetMachineTypeName:
.LFB0:
	.file 1 "/home/kapoagaeming/Downloads/spacemit-image-builder/components/edk2/MdeModulePkg/Core/Dxe/Image/Image.c"
	.loc 1 102 1
	.cfi_startproc
	addi	sp,sp,-48
	.cfi_def_cfa_offset 48
	sd	ra,40(sp)
	sd	s0,32(sp)
	.cfi_offset 1, -8
	.cfi_offset 8, -16
	addi	s0,sp,48
	.cfi_def_cfa 8, 0
	mv	a5,a0
	sh	a5,-34(s0)
	.loc 1 105 14
	sd	zero,-24(s0)
	.loc 1 105 3
	j	.L2
.L5:
	.loc 1 106 32
	lla	a4,mMachineTypeInfo
	ld	a5,-24(s0)
	slli	a5,a5,4
	add	a5,a4,a5
	lhu	a5,0(a5)
	.loc 1 106 8
	lhu	a4,-34(s0)
	sext.w	a4,a4
	sext.w	a5,a5
	bne	a4,a5,.L3
	.loc 1 107 37
	lla	a4,mMachineTypeInfo
	ld	a5,-24(s0)
	slli	a5,a5,4
	add	a5,a4,a5
	ld	a5,8(a5)
	j	.L4
.L3:
	.loc 1 105 88 discriminator 2
	ld	a5,-24(s0)
	addi	a5,a5,1
	sd	a5,-24(s0)
.L2:
	.loc 1 105 25 discriminator 1
	ld	a4,-24(s0)
	li	a5,6
	bleu	a4,a5,.L5
	.loc 1 111 10
	lla	a5,.LC7
.L4:
	.loc 1 112 1
	mv	a0,a5
	ld	ra,40(sp)
	.cfi_restore 1
	ld	s0,32(sp)
	.cfi_restore 8
	.cfi_def_cfa 2, 48
	addi	sp,sp,48
	.cfi_def_cfa_offset 0
	jr	ra
	.cfi_endproc
.LFE0:
	.size	GetMachineTypeName, .-GetMachineTypeName
	.section	.text.PeCoffEmuProtocolNotify,"ax",@progbits
	.align	1
	.type	PeCoffEmuProtocolNotify, @function
PeCoffEmuProtocolNotify:
.LFB1:
	.loc 1 129 1
	.cfi_startproc
	addi	sp,sp,-80
	.cfi_def_cfa_offset 80
	sd	ra,72(sp)
	sd	s0,64(sp)
	.cfi_offset 1, -8
	.cfi_offset 8, -16
	addi	s0,sp,80
	.cfi_def_cfa 8, 0
	sd	a0,-72(s0)
	sd	a1,-80(s0)
	.loc 1 136 13
	sd	zero,-48(s0)
	.loc 1 137 12
	sd	zero,-56(s0)
.L12:
	.loc 1 140 16
	li	a5,8
	sd	a5,-40(s0)
	.loc 1 141 14
	lla	a5,mPeCoffEmuProtocolNotifyRegistration
	ld	a5,0(a5)
	addi	a4,s0,-48
	addi	a3,s0,-40
	mv	a2,a5
	li	a1,0
	li	a0,1
	call	CoreLocateHandle@plt
	sd	a0,-24(s0)
	.loc 1 148 36
	ld	a5,-24(s0)
	.loc 1 148 8
	blt	a5,zero,.L14
	.loc 1 155 14
	ld	a5,-48(s0)
	addi	a4,s0,-56
	mv	a2,a4
	la	a1,gEdkiiPeCoffImageEmulatorProtocolGuid
	mv	a0,a5
	call	CoreHandleProtocol@plt
	sd	a0,-24(s0)
	.loc 1 160 36
	ld	a5,-24(s0)
	.loc 1 160 8
	blt	a5,zero,.L15
	.loc 1 160 75 discriminator 2
	ld	a5,-56(s0)
	.loc 1 160 62 discriminator 2
	beq	a5,zero,.L15
	.loc 1 164 13
	li	a0,32
	call	AllocateZeroPool@plt
	sd	a0,-32(s0)
	.loc 1 167 21
	ld	a4,-56(s0)
	ld	a5,-32(s0)
	sd	a4,16(a5)
	.loc 1 168 31
	ld	a5,-32(s0)
	ld	a5,16(a5)
	.loc 1 168 41
	lhu	a4,28(a5)
	.loc 1 168 24
	ld	a5,-32(s0)
	sh	a4,24(a5)
	.loc 1 170 5
	ld	a5,-32(s0)
	mv	a1,a5
	lla	a0,mAvailableEmulators
	call	InsertTailList@plt
	j	.L12
.L15:
	.loc 1 161 7
	nop
	.loc 1 140 16
	j	.L12
.L14:
	.loc 1 152 7
	nop
	.loc 1 172 1
	ld	ra,72(sp)
	.cfi_restore 1
	ld	s0,64(sp)
	.cfi_restore 8
	.cfi_def_cfa 2, 80
	addi	sp,sp,80
	.cfi_def_cfa_offset 0
	jr	ra
	.cfi_endproc
.LFE1:
	.size	PeCoffEmuProtocolNotify, .-PeCoffEmuProtocolNotify
	.section	.text.CoreInitializeImageServices,"ax",@progbits
	.align	1
	.globl	CoreInitializeImageServices
	.type	CoreInitializeImageServices, @function
CoreInitializeImageServices:
.LFB2:
	.loc 1 187 1
	.cfi_startproc
	addi	sp,sp,-80
	.cfi_def_cfa_offset 80
	sd	ra,72(sp)
	sd	s0,64(sp)
	.cfi_offset 1, -8
	.cfi_offset 8, -16
	addi	s0,sp,80
	.cfi_def_cfa 8, 0
	sd	a0,-72(s0)
	.loc 1 198 18
	ld	a5,-72(s0)
	sd	a5,-64(s0)
	.loc 1 199 9
	j	.L17
.L20:
	.loc 1 200 33
	ld	a5,-64(s0)
	.loc 1 200 22
	addi	a5,a5,8
	.loc 1 200 9
	la	a1,gEfiHobMemoryAllocModuleGuid
	mv	a0,a5
	call	CompareGuid@plt
	mv	a5,a0
	.loc 1 200 8 discriminator 1
	bne	a5,zero,.L24
	.loc 1 207 42
	addi	a5,s0,-64
	.loc 1 207 31
	ld	a5,0(a5)
	.loc 1 207 88
	addi	a4,s0,-64
	.loc 1 207 60
	ld	a4,0(a4)
	.loc 1 207 102
	lhu	a4,2(a4)
	.loc 1 207 56
	add	a5,a5,a4
	.loc 1 207 20
	sd	a5,-64(s0)
.L17:
	.loc 1 199 58
	ld	a5,-64(s0)
	.loc 1 199 28
	mv	a1,a5
	li	a0,2
	call	GetNextHob@plt
	mv	a5,a0
	.loc 1 199 26 discriminator 1
	sd	a5,-64(s0)
	.loc 1 199 21 discriminator 1
	ld	a5,-64(s0)
	.loc 1 199 65 discriminator 1
	bne	a5,zero,.L20
	j	.L19
.L24:
	.loc 1 204 7
	nop
.L19:
	.loc 1 212 39
	ld	a5,-64(s0)
	.loc 1 212 27
	ld	a5,24(a5)
	sd	a5,-24(s0)
	.loc 1 213 34
	ld	a5,-64(s0)
	.loc 1 213 22
	ld	a5,32(a5)
	sd	a5,-32(s0)
	.loc 1 214 48
	ld	a5,-64(s0)
	.loc 1 214 71
	ld	a5,64(a5)
	.loc 1 214 21
	sd	a5,-40(s0)
	.loc 1 215 33
	ld	a5,-64(s0)
	.loc 1 215 22
	addi	a4,a5,48
	.loc 1 215 20
	la	a5,gDxeCoreFileName
	sd	a4,0(a5)
	.loc 1 220 9
	lla	a5,mCorePrivateImage
	sd	a5,-48(s0)
	.loc 1 222 23
	ld	a4,-40(s0)
	.loc 1 222 21
	ld	a5,-48(s0)
	sd	a4,32(a5)
	.loc 1 223 24
	ld	a5,-48(s0)
	ld	a4,-24(s0)
	sd	a4,136(a5)
	.loc 1 224 66
	ld	a5,-32(s0)
	srli	a4,a5,12
	.loc 1 224 107
	ld	a3,-32(s0)
	li	a5,4096
	addi	a5,a5,-1
	and	a5,a3,a5
	.loc 1 224 120
	beq	a5,zero,.L21
	.loc 1 224 120 is_stmt 0 discriminator 1
	li	a5,1
	j	.L22
.L21:
	.loc 1 224 120 discriminator 2
	li	a5,0
.L22:
	.loc 1 224 26 is_stmt 1 discriminator 4
	add	a4,a5,a4
	.loc 1 224 24 discriminator 4
	ld	a5,-48(s0)
	sd	a4,144(a5)
	.loc 1 225 14
	la	a5,gEfiCurrentTpl
	ld	a4,0(a5)
	ld	a5,-48(s0)
	sd	a4,160(a5)
	.loc 1 226 27
	ld	a4,-24(s0)
	.loc 1 226 25
	ld	a5,-48(s0)
	sd	a4,104(a5)
	.loc 1 227 25
	ld	a5,-48(s0)
	ld	a4,-32(s0)
	sd	a4,112(a5)
	.loc 1 232 12
	ld	a5,-48(s0)
	addi	a4,a5,8
	.loc 1 236 14
	ld	a5,-48(s0)
	addi	a5,a5,40
	.loc 1 232 12
	mv	a3,a5
	li	a2,0
	la	a1,gEfiLoadedImageProtocolGuid
	mv	a0,a4
	call	CoreInstallProtocolInterface@plt
	sd	a0,-56(s0)
	.loc 1 240 17
	lla	a5,mCurrentImage
	ld	a4,-48(s0)
	sd	a4,0(a5)
	.loc 1 245 30
	ld	a5,-48(s0)
	ld	a5,104(a5)
	mv	a0,a5
	call	PeCoffLoaderGetMachineType@plt
	mv	a5,a0
	mv	a4,a5
	.loc 1 245 28 discriminator 1
	lla	a5,mDxeCoreImageMachineType
	sh	a4,0(a5)
	.loc 1 246 30
	ld	a5,-48(s0)
	ld	a4,8(a5)
	.loc 1 246 23
	la	a5,gDxeCoreImageHandle
	sd	a4,0(a5)
	.loc 1 247 25
	ld	a5,-48(s0)
	addi	a4,a5,40
	.loc 1 247 23
	la	a5,gDxeCoreLoadedImage
	sd	a4,0(a5)
	.loc 1 252 12
	lla	a4,mPeCoffEmuProtocolRegistrationEvent
	li	a3,0
	lla	a2,PeCoffEmuProtocolNotify
	li	a1,8
	li	a0,512
	call	CoreCreateEvent@plt
	sd	a0,-56(s0)
	.loc 1 264 12
	lla	a5,mPeCoffEmuProtocolRegistrationEvent
	ld	a5,0(a5)
	lla	a2,mPeCoffEmuProtocolNotifyRegistration
	mv	a1,a5
	la	a0,gEdkiiPeCoffImageEmulatorProtocolGuid
	call	CoreRegisterProtocolNotify@plt
	sd	a0,-56(s0)
	.loc 1 271 3
	lla	a0,mAvailableEmulators
	call	InitializeListHead@plt
	.loc 1 273 3
	ld	a5,-48(s0)
	addi	a4,a5,40
	ld	a5,-48(s0)
	ld	a5,232(a5)
	mv	a1,a5
	mv	a0,a4
	call	ProtectUefiImage@plt
	.loc 1 275 10
	ld	a5,-56(s0)
	.loc 1 276 1
	mv	a0,a5
	ld	ra,72(sp)
	.cfi_restore 1
	ld	s0,64(sp)
	.cfi_restore 8
	.cfi_def_cfa 2, 80
	addi	sp,sp,80
	.cfi_def_cfa_offset 0
	jr	ra
	.cfi_endproc
.LFE2:
	.size	CoreInitializeImageServices, .-CoreInitializeImageServices
	.section	.text.CoreReadImageFile,"ax",@progbits
	.align	1
	.globl	CoreReadImageFile
	.type	CoreReadImageFile, @function
CoreReadImageFile:
.LFB3:
	.loc 1 300 1
	.cfi_startproc
	addi	sp,sp,-64
	.cfi_def_cfa_offset 64
	sd	ra,56(sp)
	sd	s0,48(sp)
	.cfi_offset 1, -8
	.cfi_offset 8, -16
	addi	s0,sp,64
	.cfi_def_cfa 8, 0
	sd	a0,-40(s0)
	sd	a1,-48(s0)
	sd	a2,-56(s0)
	sd	a3,-64(s0)
	.loc 1 304 6
	ld	a5,-40(s0)
	beq	a5,zero,.L26
	.loc 1 304 36 discriminator 1
	ld	a5,-56(s0)
	beq	a5,zero,.L26
	.loc 1 304 66 discriminator 2
	ld	a5,-64(s0)
	bne	a5,zero,.L27
.L26:
	.loc 1 305 12
	li	a5,-1
	slli	a5,a5,63
	addi	a5,a5,2
	j	.L28
.L27:
	.loc 1 308 29
	ld	a5,-48(s0)
	not	a4,a5
	.loc 1 308 40
	ld	a5,-56(s0)
	ld	a5,0(a5)
	.loc 1 308 6
	bgeu	a4,a5,.L29
	.loc 1 309 12
	li	a5,-1
	slli	a5,a5,63
	addi	a5,a5,2
	j	.L28
.L29:
	.loc 1 312 9
	ld	a5,-40(s0)
	sd	a5,-24(s0)
	.loc 1 318 26
	ld	a5,-56(s0)
	ld	a5,0(a5)
	.loc 1 318 15
	ld	a4,-48(s0)
	add	a5,a4,a5
	sd	a5,-32(s0)
	.loc 1 319 26
	ld	a5,-24(s0)
	ld	a5,24(a5)
	.loc 1 319 6
	ld	a4,-32(s0)
	bleu	a4,a5,.L30
	.loc 1 320 31
	ld	a5,-24(s0)
	ld	a5,24(a5)
	.loc 1 320 17
	sext.w	a4,a5
	ld	a5,-48(s0)
	sext.w	a5,a5
	subw	a5,a4,a5
	sext.w	a5,a5
	slli	a4,a5,32
	srli	a4,a4,32
	.loc 1 320 15
	ld	a5,-56(s0)
	sd	a4,0(a5)
.L30:
	.loc 1 323 22
	ld	a5,-24(s0)
	ld	a5,24(a5)
	.loc 1 323 6
	ld	a4,-48(s0)
	bltu	a4,a5,.L31
	.loc 1 324 15
	ld	a5,-56(s0)
	sd	zero,0(a5)
.L31:
	.loc 1 327 34
	ld	a5,-24(s0)
	ld	a4,16(a5)
	.loc 1 327 3
	ld	a5,-48(s0)
	add	a4,a4,a5
	ld	a5,-56(s0)
	ld	a5,0(a5)
	mv	a2,a5
	mv	a1,a4
	ld	a0,-64(s0)
	call	CopyMem@plt
	.loc 1 328 10
	li	a5,0
.L28:
	.loc 1 329 1
	mv	a0,a5
	ld	ra,56(sp)
	.cfi_restore 1
	ld	s0,48(sp)
	.cfi_restore 8
	.cfi_def_cfa 2, 64
	addi	sp,sp,64
	.cfi_def_cfa_offset 0
	jr	ra
	.cfi_endproc
.LFE3:
	.size	CoreReadImageFile, .-CoreReadImageFile
	.section	.text.CheckAndMarkFixLoadingMemoryUsageBitMap,"ax",@progbits
	.align	1
	.globl	CheckAndMarkFixLoadingMemoryUsageBitMap
	.type	CheckAndMarkFixLoadingMemoryUsageBitMap, @function
CheckAndMarkFixLoadingMemoryUsageBitMap:
.LFB4:
	.loc 1 347 1
	.cfi_startproc
	addi	sp,sp,-96
	.cfi_def_cfa_offset 96
	sd	ra,88(sp)
	sd	s0,80(sp)
	sd	s1,72(sp)
	.cfi_offset 1, -8
	.cfi_offset 8, -16
	.cfi_offset 9, -24
	addi	s0,sp,96
	.cfi_def_cfa 8, 0
	sd	a0,-88(s0)
	sd	a1,-96(s0)
	.loc 1 358 21
	la	a5,_gPcd_BinaryPatch_PcdLoadFixAddressRuntimeCodePageNumber
	lw	a5,0(a5)
	sw	a5,-44(s0)
	.loc 1 359 3
	la	a5,_gPcd_BinaryPatch_PcdLoadFixAddressBootTimeCodePageNumber
	lw	a5,0(a5)
	sext.w	a5,a5
	.loc 1 359 21
	lw	a4,-44(s0)
	addw	a5,a4,a5
	sw	a5,-44(s0)
	.loc 1 360 38
	lw	a5,-44(s0)
	slliw	a5,a5,12
	sext.w	a5,a5
	.loc 1 360 15
	slli	a5,a5,32
	srli	a5,a5,32
	sd	a5,-56(s0)
	.loc 1 361 58
	la	a5,gLoadModuleAtFixAddressConfigurationTable
	ld	a4,0(a5)
	.loc 1 361 15
	ld	a5,-56(s0)
	sub	a5,a4,a5
	sd	a5,-64(s0)
	.loc 1 367 38
	lla	a5,mDxeCodeMemoryRangeUsageBitMap
	ld	a5,0(a5)
	.loc 1 367 6
	bne	a5,zero,.L33
	.loc 1 368 75
	lw	a5,-44(s0)
	srliw	a5,a5,6
	sext.w	a5,a5
	.loc 1 368 80
	addiw	a5,a5,1
	sext.w	a5,a5
	slli	a5,a5,32
	srli	a5,a5,32
	.loc 1 368 84
	slli	a5,a5,3
	.loc 1 368 38
	mv	a0,a5
	call	AllocateZeroPool@plt
	mv	a4,a0
	.loc 1 368 36 discriminator 1
	lla	a5,mDxeCodeMemoryRangeUsageBitMap
	sd	a4,0(a5)
.L33:
	.loc 1 374 7
	la	a5,gLoadFixedAddressCodeMemoryReady
	lbu	a5,0(a5)
	.loc 1 374 6
	beq	a5,zero,.L34
	.loc 1 374 76 discriminator 1
	lla	a5,mDxeCodeMemoryRangeUsageBitMap
	ld	a5,0(a5)
	.loc 1 374 41 discriminator 1
	bne	a5,zero,.L35
.L34:
	.loc 1 375 12
	li	a5,-1
	slli	a5,a5,63
	addi	a5,a5,14
	j	.L36
.L35:
	.loc 1 381 49
	la	a5,gLoadModuleAtFixAddressConfigurationTable
	ld	a4,0(a5)
	.loc 1 381 80
	ld	a3,-88(s0)
	ld	a5,-96(s0)
	add	a5,a3,a5
	.loc 1 381 6
	bltu	a4,a5,.L37
	.loc 1 381 93 discriminator 1
	ld	a4,-64(s0)
	ld	a5,-88(s0)
	bleu	a4,a5,.L38
.L37:
	.loc 1 384 12
	li	a5,-1
	slli	a5,a5,63
	addi	a5,a5,14
	j	.L36
.L38:
	.loc 1 390 29
	ld	a5,-88(s0)
	sext.w	a4,a5
	ld	a5,-64(s0)
	sext.w	a5,a5
	subw	a5,a4,a5
	sext.w	a5,a5
	.loc 1 390 64
	srliw	a5,a5,12
	sext.w	a4,a5
	.loc 1 390 76
	ld	a5,-88(s0)
	sext.w	a3,a5
	ld	a5,-64(s0)
	sext.w	a5,a5
	subw	a5,a3,a5
	sext.w	a5,a5
	.loc 1 390 111
	mv	a3,a5
	li	a5,4096
	addi	a5,a5,-1
	and	a5,a3,a5
	sext.w	a5,a5
	.loc 1 390 124
	beq	a5,zero,.L39
	.loc 1 390 124 is_stmt 0 discriminator 1
	li	a5,1
	j	.L40
.L39:
	.loc 1 390 124 discriminator 2
	li	a5,0
.L40:
	.loc 1 390 71 is_stmt 1 discriminator 4
	addw	a5,a5,a4
	sext.w	a5,a5
	.loc 1 390 24 discriminator 4
	slli	a5,a5,32
	srli	a5,a5,32
	sd	a5,-72(s0)
	.loc 1 391 47
	ld	a5,-88(s0)
	sext.w	a4,a5
	ld	a5,-96(s0)
	sext.w	a5,a5
	addw	a5,a4,a5
	sext.w	a4,a5
	.loc 1 391 28
	ld	a5,-64(s0)
	sext.w	a5,a5
	subw	a5,a4,a5
	sext.w	a5,a5
	.loc 1 391 75
	srliw	a5,a5,12
	sext.w	a4,a5
	.loc 1 391 106
	ld	a5,-88(s0)
	sext.w	a3,a5
	ld	a5,-96(s0)
	sext.w	a5,a5
	addw	a5,a3,a5
	sext.w	a3,a5
	.loc 1 391 87
	ld	a5,-64(s0)
	sext.w	a5,a5
	subw	a5,a3,a5
	sext.w	a5,a5
	.loc 1 391 134
	mv	a3,a5
	li	a5,4096
	addi	a5,a5,-1
	and	a5,a3,a5
	sext.w	a5,a5
	.loc 1 391 147
	beq	a5,zero,.L41
	.loc 1 391 147 is_stmt 0 discriminator 1
	li	a5,1
	j	.L42
.L41:
	.loc 1 391 147 discriminator 2
	li	a5,0
.L42:
	.loc 1 391 82 is_stmt 1 discriminator 4
	addw	a5,a5,a4
	sext.w	a5,a5
	.loc 1 391 23 discriminator 4
	slli	a5,a5,32
	srli	a5,a5,32
	sd	a5,-80(s0)
	.loc 1 392 14
	ld	a5,-72(s0)
	sd	a5,-40(s0)
	.loc 1 392 3
	j	.L43
.L45:
	.loc 1 393 40
	lla	a5,mDxeCodeMemoryRangeUsageBitMap
	ld	a4,0(a5)
	.loc 1 393 47
	ld	a5,-40(s0)
	srli	a5,a5,6
	.loc 1 393 40
	slli	a5,a5,3
	add	a5,a4,a5
	ld	s1,0(a5)
	.loc 1 393 55
	ld	a5,-40(s0)
	andi	a5,a5,63
	mv	a1,a5
	li	a0,1
	call	LShiftU64@plt
	mv	a5,a0
	.loc 1 393 53 discriminator 1
	and	a5,s1,a5
	.loc 1 393 8 discriminator 1
	beq	a5,zero,.L44
	.loc 1 397 14
	li	a5,-1
	slli	a5,a5,63
	addi	a5,a5,14
	j	.L36
.L44:
	.loc 1 392 72 discriminator 2
	ld	a5,-40(s0)
	addi	a5,a5,1
	sd	a5,-40(s0)
.L43:
	.loc 1 392 44 discriminator 1
	ld	a4,-40(s0)
	ld	a5,-80(s0)
	bltu	a4,a5,.L45
	.loc 1 404 14
	ld	a5,-72(s0)
	sd	a5,-40(s0)
	.loc 1 404 3
	j	.L46
.L47:
	.loc 1 405 51
	ld	a5,-40(s0)
	andi	a5,a5,63
	mv	a1,a5
	li	a0,1
	call	LShiftU64@plt
	mv	a2,a0
	.loc 1 405 35 discriminator 1
	lla	a5,mDxeCodeMemoryRangeUsageBitMap
	ld	a3,0(a5)
	.loc 1 405 42 discriminator 1
	ld	a5,-40(s0)
	srli	a5,a5,6
	.loc 1 405 35 discriminator 1
	slli	a4,a5,3
	add	a4,a3,a4
	ld	a4,0(a4)
	lla	a3,mDxeCodeMemoryRangeUsageBitMap
	ld	a3,0(a3)
	slli	a5,a5,3
	add	a5,a3,a5
	.loc 1 405 48 discriminator 1
	or	a4,a2,a4
	sd	a4,0(a5)
	.loc 1 404 72 discriminator 3
	ld	a5,-40(s0)
	addi	a5,a5,1
	sd	a5,-40(s0)
.L46:
	.loc 1 404 44 discriminator 1
	ld	a4,-40(s0)
	ld	a5,-80(s0)
	bltu	a4,a5,.L47
	.loc 1 408 10
	li	a5,0
.L36:
	.loc 1 409 1
	mv	a0,a5
	ld	ra,88(sp)
	.cfi_restore 1
	ld	s0,80(sp)
	.cfi_restore 8
	.cfi_def_cfa 2, 96
	ld	s1,72(sp)
	.cfi_restore 9
	addi	sp,sp,96
	.cfi_def_cfa_offset 0
	jr	ra
	.cfi_endproc
.LFE4:
	.size	CheckAndMarkFixLoadingMemoryUsageBitMap, .-CheckAndMarkFixLoadingMemoryUsageBitMap
	.section	.text.GetPeCoffImageFixLoadingAssignedAddress,"ax",@progbits
	.align	1
	.globl	GetPeCoffImageFixLoadingAssignedAddress
	.type	GetPeCoffImageFixLoadingAssignedAddress, @function
GetPeCoffImageFixLoadingAssignedAddress:
.LFB5:
	.loc 1 426 1
	.cfi_startproc
	addi	sp,sp,-144
	.cfi_def_cfa_offset 144
	sd	ra,136(sp)
	sd	s0,128(sp)
	.cfi_offset 1, -8
	.cfi_offset 8, -16
	addi	s0,sp,144
	.cfi_def_cfa 8, 0
	sd	a0,-136(s0)
	.loc 1 437 10
	li	a5,-1
	slli	a5,a5,63
	addi	a5,a5,14
	sd	a5,-24(s0)
	.loc 1 442 10
	ld	a5,-136(s0)
	ld	a5,40(a5)
	sd	a5,-48(s0)
	.loc 1 443 63
	ld	a5,-48(s0)
	ld	a4,16(a5)
	.loc 1 443 86
	ld	a5,-136(s0)
	lw	a5,60(a5)
	slli	a5,a5,32
	srli	a5,a5,32
	.loc 1 443 10
	add	a5,a4,a5
	sd	a5,-56(s0)
	.loc 1 444 37
	ld	a5,-136(s0)
	lw	a5,60(a5)
	slli	a5,a5,32
	srli	a5,a5,32
	.loc 1 447 48
	ld	a4,-56(s0)
	lhu	a4,20(a4)
	.loc 1 446 56
	add	a5,a5,a4
	.loc 1 444 23
	addi	a5,a5,24
	sd	a5,-32(s0)
	.loc 1 448 20
	ld	a5,-56(s0)
	lhu	a5,6(a5)
	sh	a5,-58(s0)
	.loc 1 453 14
	sh	zero,-34(s0)
	.loc 1 453 3
	j	.L49
.L57:
	.loc 1 457 10
	li	a5,40
	sd	a5,-120(s0)
	.loc 1 458 26
	ld	a5,-136(s0)
	ld	a5,32(a5)
	.loc 1 458 14
	ld	a4,-136(s0)
	ld	a4,40(a4)
	addi	a3,s0,-112
	addi	a2,s0,-120
	ld	a1,-32(s0)
	mv	a0,a4
	jalr	a5
.LVL0:
	sd	a0,-24(s0)
	.loc 1 464 36
	ld	a5,-24(s0)
	.loc 1 464 8
	bge	a5,zero,.L50
	.loc 1 465 14
	ld	a5,-24(s0)
	j	.L58
.L50:
	.loc 1 468 14
	ld	a4,-120(s0)
	.loc 1 468 8
	li	a5,40
	beq	a4,a5,.L52
	.loc 1 469 14
	li	a5,-1
	slli	a5,a5,63
	addi	a5,a5,14
	j	.L58
.L52:
	.loc 1 472 12
	li	a5,-1
	slli	a5,a5,63
	addi	a5,a5,14
	sd	a5,-24(s0)
	.loc 1 474 23
	lw	a5,-76(s0)
	.loc 1 474 40
	andi	a5,a5,32
	sext.w	a5,a5
	.loc 1 474 8
	bne	a5,zero,.L53
	.loc 1 481 30
	addi	a5,s0,-112
	addi	a5,a5,24
	mv	a0,a5
	call	ReadUnaligned64@plt
	sd	a0,-72(s0)
	.loc 1 482 10
	ld	a5,-72(s0)
	beq	a5,zero,.L60
	.loc 1 488 13
	la	a5,_gPcd_FixedAtBuild_PcdLoadModuleAtFixAddressEnable
	ld	a5,0(a5)
	.loc 1 488 12
	bge	a5,zero,.L55
	.loc 1 489 81
	la	a5,gLoadModuleAtFixAddressConfigurationTable
	ld	a4,0(a5)
	.loc 1 489 127
	ld	a5,-136(s0)
	ld	a5,0(a5)
	.loc 1 489 100
	add	a4,a4,a5
	.loc 1 489 38
	ld	a5,-136(s0)
	sd	a4,0(a5)
.L55:
	.loc 1 495 71
	ld	a5,-136(s0)
	ld	a3,0(a5)
	.loc 1 495 107
	ld	a5,-136(s0)
	ld	a4,8(a5)
	.loc 1 495 133
	ld	a5,-136(s0)
	lw	a5,56(a5)
	slli	a5,a5,32
	srli	a5,a5,32
	.loc 1 495 119
	add	a5,a4,a5
	.loc 1 495 18
	mv	a1,a5
	mv	a0,a3
	call	CheckAndMarkFixLoadingMemoryUsageBitMap
	sd	a0,-24(s0)
	.loc 1 498 7
	j	.L60
.L53:
	.loc 1 501 25
	ld	a5,-32(s0)
	addi	a5,a5,40
	sd	a5,-32(s0)
	.loc 1 453 50 discriminator 2
	lhu	a5,-34(s0)
	addiw	a5,a5,1
	sh	a5,-34(s0)
.L49:
	.loc 1 453 25 discriminator 1
	lhu	a4,-34(s0)
	lhu	a5,-58(s0)
	sext.w	a4,a4
	sext.w	a5,a5
	bltu	a4,a5,.L57
	j	.L59
.L60:
	.loc 1 498 7
	nop
.L59:
	.loc 1 505 10
	ld	a5,-24(s0)
.L58:
	.loc 1 506 1
	mv	a0,a5
	ld	ra,136(sp)
	.cfi_restore 1
	ld	s0,128(sp)
	.cfi_restore 8
	.cfi_def_cfa 2, 144
	addi	sp,sp,144
	.cfi_def_cfa_offset 0
	jr	ra
	.cfi_endproc
.LFE5:
	.size	GetPeCoffImageFixLoadingAssignedAddress, .-GetPeCoffImageFixLoadingAssignedAddress
	.section	.text.CoreIsImageTypeSupported,"ax",@progbits
	.align	1
	.type	CoreIsImageTypeSupported, @function
CoreIsImageTypeSupported:
.LFB6:
	.loc 1 525 1
	.cfi_startproc
	addi	sp,sp,-48
	.cfi_def_cfa_offset 48
	sd	ra,40(sp)
	sd	s0,32(sp)
	.cfi_offset 1, -8
	.cfi_offset 8, -16
	addi	s0,sp,48
	.cfi_def_cfa 8, 0
	sd	a0,-40(s0)
	.loc 1 529 15
	lla	a0,mAvailableEmulators
	call	GetFirstNode@plt
	sd	a0,-24(s0)
	.loc 1 529 3
	j	.L62
.L66:
	.loc 1 533 11
	ld	a5,-24(s0)
	sd	a5,-32(s0)
	.loc 1 534 14
	ld	a5,-32(s0)
	lhu	a4,24(a5)
	.loc 1 534 50
	ld	a5,-40(s0)
	lhu	a5,360(a5)
	.loc 1 534 8
	sext.w	a4,a4
	sext.w	a5,a5
	bne	a4,a5,.L67
	.loc 1 538 14
	ld	a5,-32(s0)
	ld	a5,16(a5)
	.loc 1 538 24
	ld	a5,0(a5)
	.loc 1 538 9
	ld	a4,-32(s0)
	ld	a3,16(a4)
	ld	a4,-40(s0)
	lhu	a1,362(a4)
	ld	a4,-40(s0)
	ld	a4,72(a4)
	mv	a2,a4
	mv	a0,a3
	jalr	a5
.LVL1:
	mv	a5,a0
	.loc 1 538 8 discriminator 1
	beq	a5,zero,.L64
	.loc 1 544 31
	ld	a5,-32(s0)
	ld	a4,16(a5)
	.loc 1 544 24
	ld	a5,-40(s0)
	sd	a4,216(a5)
	.loc 1 545 14
	li	a5,1
	j	.L65
.L67:
	.loc 1 535 7
	nop
.L64:
	.loc 1 531 15
	ld	a1,-24(s0)
	lla	a0,mAvailableEmulators
	call	GetNextNode@plt
	sd	a0,-24(s0)
.L62:
	.loc 1 530 9
	ld	a1,-24(s0)
	lla	a0,mAvailableEmulators
	call	IsNull@plt
	mv	a5,a0
	.loc 1 530 8 discriminator 1
	beq	a5,zero,.L66
	.loc 1 549 31
	ld	a5,-40(s0)
	lhu	a5,360(a5)
	.loc 1 549 52
	sext.w	a4,a5
	li	a5,20480
	addi	a5,a5,100
	sub	a5,a4,a5
	seqz	a5,a5
	andi	a5,a5,0xff
.L65:
	.loc 1 551 1
	mv	a0,a5
	ld	ra,40(sp)
	.cfi_restore 1
	ld	s0,32(sp)
	.cfi_restore 8
	.cfi_def_cfa 2, 48
	addi	sp,sp,48
	.cfi_def_cfa_offset 0
	jr	ra
	.cfi_endproc
.LFE6:
	.size	CoreIsImageTypeSupported, .-CoreIsImageTypeSupported
	.section	.text.CoreLoadPeImage,"ax",@progbits
	.align	1
	.globl	CoreLoadPeImage
	.type	CoreLoadPeImage, @function
CoreLoadPeImage:
.LFB7:
	.loc 1 583 1
	.cfi_startproc
	addi	sp,sp,-368
	.cfi_def_cfa_offset 368
	sd	ra,360(sp)
	sd	s0,352(sp)
	.cfi_offset 1, -8
	.cfi_offset 8, -16
	addi	s0,sp,368
	.cfi_def_cfa 8, 0
	sd	a1,-336(s0)
	sd	a2,-344(s0)
	sd	a3,-352(s0)
	sd	a4,-360(s0)
	mv	a4,a5
	mv	a5,a0
	sb	a5,-321(s0)
	mv	a5,a4
	sw	a5,-328(s0)
	.loc 1 588 12
	ld	a5,-344(s0)
	addi	a5,a5,240
	.loc 1 588 3
	li	a1,152
	mv	a0,a5
	call	ZeroMem@plt
	.loc 1 590 30
	ld	a5,-344(s0)
	ld	a4,-336(s0)
	sd	a4,280(a5)
	.loc 1 591 33
	ld	a5,-344(s0)
	lla	a4,CoreReadImageFile
	sd	a4,272(a5)
	.loc 1 596 12
	ld	a5,-344(s0)
	addi	a5,a5,240
	mv	a0,a5
	call	PeCoffLoaderGetImageInfo@plt
	sd	a0,-40(s0)
	.loc 1 597 34
	ld	a5,-40(s0)
	.loc 1 597 6
	bge	a5,zero,.L69
	.loc 1 598 12
	ld	a5,-40(s0)
	j	.L70
.L69:
	.loc 1 601 8
	ld	a0,-344(s0)
	call	CoreIsImageTypeSupported
	mv	a5,a0
	.loc 1 601 6 discriminator 1
	bne	a5,zero,.L71
	.loc 1 612 12
	li	a5,-1
	slli	a5,a5,63
	addi	a5,a5,3
	j	.L70
.L71:
	.loc 1 618 30
	ld	a5,-344(s0)
	lhu	a5,362(a5)
	sext.w	a5,a5
	.loc 1 618 3
	li	a4,13
	bgt	a5,a4,.L72
	li	a4,12
	bge	a5,a4,.L73
	li	a4,10
	beq	a5,a4,.L74
	li	a4,11
	beq	a5,a4,.L75
	j	.L72
.L74:
	.loc 1 620 47
	ld	a5,-344(s0)
	li	a4,1
	sw	a4,336(a5)
	.loc 1 621 47
	ld	a5,-344(s0)
	li	a4,2
	sw	a4,340(a5)
	.loc 1 622 7
	j	.L76
.L75:
	.loc 1 624 47
	ld	a5,-344(s0)
	li	a4,3
	sw	a4,336(a5)
	.loc 1 625 47
	ld	a5,-344(s0)
	li	a4,4
	sw	a4,340(a5)
	.loc 1 626 7
	j	.L76
.L73:
	.loc 1 629 47
	ld	a5,-344(s0)
	li	a4,5
	sw	a4,336(a5)
	.loc 1 630 47
	ld	a5,-344(s0)
	li	a4,6
	sw	a4,340(a5)
	.loc 1 631 7
	j	.L76
.L72:
	.loc 1 633 38
	ld	a5,-344(s0)
	li	a4,4
	sw	a4,344(a5)
	.loc 1 634 14
	li	a5,-1
	slli	a5,a5,63
	addi	a5,a5,3
	j	.L70
.L76:
	.loc 1 640 18
	sb	zero,-41(s0)
	.loc 1 641 6
	ld	a5,-352(s0)
	bne	a5,zero,.L77
	.loc 1 646 28
	ld	a5,-344(s0)
	lw	a4,296(a5)
	.loc 1 646 8
	li	a5,4096
	bleu	a4,a5,.L78
	.loc 1 647 40
	ld	a5,-344(s0)
	ld	a4,248(a5)
	.loc 1 647 72
	ld	a5,-344(s0)
	lw	a5,296(a5)
	slli	a5,a5,32
	srli	a5,a5,32
	.loc 1 647 12
	add	a5,a4,a5
	sd	a5,-56(s0)
	j	.L79
.L78:
	.loc 1 649 12
	ld	a5,-344(s0)
	ld	a5,248(a5)
	sd	a5,-56(s0)
.L79:
	.loc 1 652 37
	ld	a5,-56(s0)
	srli	a4,a5,12
	.loc 1 652 55
	ld	a3,-56(s0)
	li	a5,4096
	addi	a5,a5,-1
	and	a5,a3,a5
	.loc 1 652 68
	beq	a5,zero,.L80
	.loc 1 652 68 is_stmt 0 discriminator 1
	li	a5,1
	j	.L81
.L80:
	.loc 1 652 68 discriminator 2
	li	a5,0
.L81:
	.loc 1 652 44 is_stmt 1 discriminator 4
	add	a4,a5,a4
	.loc 1 652 26 discriminator 4
	ld	a5,-344(s0)
	sd	a4,144(a5)
	.loc 1 661 12
	li	a5,-1
	slli	a5,a5,63
	addi	a5,a5,9
	sd	a5,-40(s0)
	.loc 1 666 60
	la	a5,_gPcd_FixedAtBuild_PcdLoadModuleAtFixAddressEnable
	ld	a5,0(a5)
	.loc 1 666 8
	beq	a5,zero,.L82
	.loc 1 667 16
	ld	a5,-344(s0)
	addi	a5,a5,240
	mv	a0,a5
	call	GetPeCoffImageFixLoadingAssignedAddress
	sd	a0,-40(s0)
	.loc 1 669 38
	ld	a5,-40(s0)
	.loc 1 669 10
	bge	a5,zero,.L83
	.loc 1 677 57
	ld	a5,-344(s0)
	lw	a4,336(a5)
	.loc 1 675 18
	ld	a5,-344(s0)
	ld	a2,144(a5)
	.loc 1 679 20
	ld	a5,-344(s0)
	addi	a5,a5,240
	.loc 1 675 18
	mv	a3,a5
	mv	a1,a4
	li	a0,0
	call	CoreAllocatePages@plt
	sd	a0,-40(s0)
	j	.L83
.L82:
	.loc 1 683 12
	la	a5,_gPcd_FixedAtBuild_PcdImageLargeAddressLoad
	lbu	a5,0(a5)
	.loc 1 683 10
	beq	a5,zero,.L84
	.loc 1 683 80 discriminator 1
	ld	a5,-344(s0)
	ld	a4,240(a5)
	.loc 1 683 56 discriminator 1
	li	a5,1048576
	bgeu	a4,a5,.L85
.L84:
	.loc 1 684 30
	ld	a5,-344(s0)
	lbu	a5,372(a5)
	.loc 1 683 109 discriminator 3
	beq	a5,zero,.L86
.L85:
	.loc 1 688 57
	ld	a5,-344(s0)
	lw	a4,336(a5)
	.loc 1 686 18
	ld	a5,-344(s0)
	ld	a2,144(a5)
	.loc 1 690 20
	ld	a5,-344(s0)
	addi	a5,a5,240
	.loc 1 686 18
	mv	a3,a5
	mv	a1,a4
	li	a0,2
	call	CoreAllocatePages@plt
	sd	a0,-40(s0)
.L86:
	.loc 1 694 38
	ld	a5,-40(s0)
	.loc 1 694 10
	bge	a5,zero,.L83
	.loc 1 694 87 discriminator 1
	ld	a5,-344(s0)
	lbu	a5,372(a5)
	.loc 1 694 64 discriminator 1
	bne	a5,zero,.L83
	.loc 1 697 57
	ld	a5,-344(s0)
	lw	a4,336(a5)
	.loc 1 695 18
	ld	a5,-344(s0)
	ld	a2,144(a5)
	.loc 1 699 20
	ld	a5,-344(s0)
	addi	a5,a5,240
	.loc 1 695 18
	mv	a3,a5
	mv	a1,a4
	li	a0,0
	call	CoreAllocatePages@plt
	sd	a0,-40(s0)
.L83:
	.loc 1 704 36
	ld	a5,-40(s0)
	.loc 1 704 8
	bge	a5,zero,.L87
	.loc 1 705 14
	ld	a5,-40(s0)
	j	.L70
.L87:
	.loc 1 708 20
	li	a5,1
	sb	a5,-41(s0)
	j	.L88
.L77:
	.loc 1 714 28
	ld	a5,-344(s0)
	lbu	a5,372(a5)
	.loc 1 714 8
	beq	a5,zero,.L89
	.loc 1 714 72 discriminator 1
	ld	a5,-344(s0)
	ld	a5,240(a5)
	.loc 1 714 49 discriminator 1
	ld	a4,-352(s0)
	beq	a4,a5,.L89
	.loc 1 720 14
	li	a5,-1
	slli	a5,a5,63
	addi	a5,a5,2
	j	.L70
.L89:
	.loc 1 723 15
	ld	a5,-344(s0)
	ld	a5,144(a5)
	.loc 1 723 8
	beq	a5,zero,.L90
	.loc 1 724 15
	ld	a5,-344(s0)
	ld	a4,144(a5)
	.loc 1 725 40
	ld	a5,-344(s0)
	ld	a3,248(a5)
	.loc 1 725 72
	ld	a5,-344(s0)
	lw	a5,296(a5)
	slli	a5,a5,32
	srli	a5,a5,32
	.loc 1 725 51
	add	a5,a3,a5
	.loc 1 725 91
	srli	a3,a5,12
	.loc 1 725 129
	ld	a5,-344(s0)
	ld	a2,248(a5)
	.loc 1 725 161
	ld	a5,-344(s0)
	lw	a5,296(a5)
	slli	a5,a5,32
	srli	a5,a5,32
	.loc 1 725 140
	add	a2,a2,a5
	.loc 1 725 180
	li	a5,4096
	addi	a5,a5,-1
	and	a5,a2,a5
	.loc 1 725 193
	beq	a5,zero,.L91
	.loc 1 725 193 is_stmt 0 discriminator 1
	li	a5,1
	j	.L92
.L91:
	.loc 1 725 193 discriminator 2
	li	a5,0
.L92:
	.loc 1 725 98 is_stmt 1 discriminator 4
	add	a5,a5,a3
	.loc 1 723 37
	bgeu	a4,a5,.L90
	.loc 1 727 59
	ld	a5,-344(s0)
	ld	a4,248(a5)
	.loc 1 727 91
	ld	a5,-344(s0)
	lw	a5,296(a5)
	slli	a5,a5,32
	srli	a5,a5,32
	.loc 1 727 70
	add	a5,a4,a5
	.loc 1 727 110
	srli	a4,a5,12
	.loc 1 727 148
	ld	a5,-344(s0)
	ld	a3,248(a5)
	.loc 1 727 180
	ld	a5,-344(s0)
	lw	a5,296(a5)
	slli	a5,a5,32
	srli	a5,a5,32
	.loc 1 727 159
	add	a3,a3,a5
	.loc 1 727 199
	li	a5,4096
	addi	a5,a5,-1
	and	a5,a3,a5
	.loc 1 727 212
	beq	a5,zero,.L93
	.loc 1 727 212 is_stmt 0 discriminator 1
	li	a5,1
	j	.L94
.L93:
	.loc 1 727 212 discriminator 2
	li	a5,0
.L94:
	.loc 1 727 117 is_stmt 1 discriminator 4
	add	a4,a5,a4
	.loc 1 727 28 discriminator 4
	ld	a5,-344(s0)
	sd	a4,144(a5)
	.loc 1 728 14
	li	a5,-1
	slli	a5,a5,63
	addi	a5,a5,5
	j	.L70
.L90:
	.loc 1 731 57
	ld	a5,-344(s0)
	ld	a4,248(a5)
	.loc 1 731 89
	ld	a5,-344(s0)
	lw	a5,296(a5)
	slli	a5,a5,32
	srli	a5,a5,32
	.loc 1 731 68
	add	a5,a4,a5
	.loc 1 731 108
	srli	a4,a5,12
	.loc 1 731 146
	ld	a5,-344(s0)
	ld	a3,248(a5)
	.loc 1 731 178
	ld	a5,-344(s0)
	lw	a5,296(a5)
	slli	a5,a5,32
	srli	a5,a5,32
	.loc 1 731 157
	add	a3,a3,a5
	.loc 1 731 197
	li	a5,4096
	addi	a5,a5,-1
	and	a5,a3,a5
	.loc 1 731 210
	beq	a5,zero,.L95
	.loc 1 731 210 is_stmt 0 discriminator 1
	li	a5,1
	j	.L96
.L95:
	.loc 1 731 210 discriminator 2
	li	a5,0
.L96:
	.loc 1 731 115 is_stmt 1 discriminator 4
	add	a4,a5,a4
	.loc 1 731 26 discriminator 4
	ld	a5,-344(s0)
	sd	a4,144(a5)
	.loc 1 732 38
	ld	a5,-344(s0)
	ld	a4,-352(s0)
	sd	a4,240(a5)
.L88:
	.loc 1 735 45
	ld	a5,-344(s0)
	ld	a4,240(a5)
	.loc 1 735 24
	ld	a5,-344(s0)
	sd	a4,136(a5)
	.loc 1 736 27
	ld	a5,-344(s0)
	lbu	a5,373(a5)
	.loc 1 736 6
	bne	a5,zero,.L97
	.loc 1 738 27
	ld	a5,-344(s0)
	ld	a4,240(a5)
	.loc 1 738 62
	ld	a5,-344(s0)
	lw	a5,296(a5)
	slli	a5,a5,32
	srli	a5,a5,32
	.loc 1 738 41
	add	a5,a4,a5
	.loc 1 738 80
	addi	a4,a5,-1
	.loc 1 739 35
	ld	a5,-344(s0)
	lw	a5,296(a5)
	.loc 1 739 9
	slli	a5,a5,32
	srli	a5,a5,32
	.loc 1 739 7
	neg	a5,a5
	.loc 1 738 85
	and	a4,a4,a5
	.loc 1 737 38
	ld	a5,-344(s0)
	sd	a4,240(a5)
.L97:
	.loc 1 745 12
	ld	a5,-344(s0)
	addi	a5,a5,240
	mv	a0,a5
	call	PeCoffLoaderLoadImage@plt
	sd	a0,-40(s0)
	.loc 1 746 34
	ld	a5,-40(s0)
	.loc 1 746 6
	blt	a5,zero,.L118
	.loc 1 755 18
	lw	a5,-328(s0)
	andi	a5,a5,1
	sext.w	a5,a5
	.loc 1 755 6
	beq	a5,zero,.L100
	.loc 1 756 28
	ld	a5,-344(s0)
	lhu	a5,362(a5)
	.loc 1 756 8
	sext.w	a4,a5
	li	a5,12
	bne	a4,a5,.L100
	.loc 1 757 39
	ld	a5,-344(s0)
	ld	a5,352(a5)
	mv	a0,a5
	call	AllocateRuntimePool@plt
	mv	a4,a0
	.loc 1 757 37 discriminator 1
	ld	a5,-344(s0)
	sd	a4,288(a5)
	.loc 1 758 30
	ld	a5,-344(s0)
	ld	a5,288(a5)
	.loc 1 758 10
	bne	a5,zero,.L100
	.loc 1 759 16
	li	a5,-1
	slli	a5,a5,63
	addi	a5,a5,9
	sd	a5,-40(s0)
	.loc 1 760 9
	j	.L99
.L100:
	.loc 1 768 12
	ld	a5,-344(s0)
	addi	a5,a5,240
	mv	a0,a5
	call	PeCoffLoaderRelocateImage@plt
	sd	a0,-40(s0)
	.loc 1 769 34
	ld	a5,-40(s0)
	.loc 1 769 6
	blt	a5,zero,.L119
	.loc 1 776 70
	ld	a5,-344(s0)
	ld	a5,240(a5)
	.loc 1 776 3
	mv	a4,a5
	.loc 1 776 111
	ld	a5,-344(s0)
	ld	a5,248(a5)
	.loc 1 776 3
	mv	a1,a5
	mv	a0,a4
	call	InvalidateInstructionCacheRange@plt
	.loc 1 781 39
	ld	a5,-344(s0)
	lhu	a4,360(a5)
	.loc 1 781 18
	ld	a5,-344(s0)
	sh	a4,208(a5)
	.loc 1 786 72
	ld	a5,-344(s0)
	ld	a5,264(a5)
	.loc 1 786 23
	mv	a4,a5
	.loc 1 786 21
	ld	a5,-344(s0)
	sd	a4,32(a5)
	.loc 1 791 36
	ld	a5,-344(s0)
	lhu	a5,362(a5)
	mv	a4,a5
	.loc 1 791 15
	ld	a5,-344(s0)
	sd	a4,16(a5)
	.loc 1 792 61
	ld	a5,-344(s0)
	ld	a5,240(a5)
	.loc 1 792 27
	mv	a4,a5
	.loc 1 792 25
	ld	a5,-344(s0)
	sd	a4,104(a5)
	.loc 1 793 46
	ld	a5,-344(s0)
	ld	a4,248(a5)
	.loc 1 793 25
	ld	a5,-344(s0)
	sd	a4,112(a5)
	.loc 1 794 68
	ld	a5,-344(s0)
	lw	a4,336(a5)
	.loc 1 794 29
	ld	a5,-344(s0)
	sw	a4,120(a5)
	.loc 1 795 68
	ld	a5,-344(s0)
	lw	a4,340(a5)
	.loc 1 795 29
	ld	a5,-344(s0)
	sw	a4,124(a5)
	.loc 1 796 18
	lw	a5,-328(s0)
	andi	a5,a5,1
	sext.w	a5,a5
	.loc 1 796 6
	beq	a5,zero,.L102
	.loc 1 797 28
	ld	a5,-344(s0)
	lhu	a5,362(a5)
	.loc 1 797 8
	sext.w	a4,a5
	li	a5,12
	bne	a4,a5,.L102
	.loc 1 801 28
	li	a0,48
	call	AllocateRuntimePool@plt
	mv	a4,a0
	.loc 1 801 26 discriminator 1
	ld	a5,-344(s0)
	sd	a4,224(a5)
	.loc 1 802 16
	ld	a5,-344(s0)
	ld	a5,224(a5)
	.loc 1 802 10
	beq	a5,zero,.L120
	.loc 1 806 12
	ld	a5,-344(s0)
	ld	a5,224(a5)
	.loc 1 806 50
	ld	a4,-344(s0)
	ld	a4,104(a4)
	.loc 1 806 37
	sd	a4,0(a5)
	.loc 1 807 12
	ld	a5,-344(s0)
	ld	a5,224(a5)
	.loc 1 807 59
	ld	a4,-344(s0)
	ld	a4,112(a4)
	.loc 1 807 37
	sd	a4,8(a5)
	.loc 1 808 12
	ld	a5,-344(s0)
	ld	a5,224(a5)
	.loc 1 808 63
	ld	a4,-344(s0)
	ld	a4,288(a4)
	.loc 1 808 42
	sd	a4,16(a5)
	.loc 1 809 12
	ld	a5,-344(s0)
	ld	a5,224(a5)
	.loc 1 809 41
	ld	a4,-344(s0)
	ld	a4,8(a4)
	.loc 1 809 34
	sd	a4,24(a5)
	.loc 1 810 32
	la	a5,gRuntime
	ld	a5,0(a5)
	.loc 1 810 23
	mv	a4,a5
	.loc 1 810 51
	ld	a5,-344(s0)
	ld	a5,224(a5)
	.loc 1 810 45
	addi	a5,a5,32
	.loc 1 810 7
	mv	a1,a5
	mv	a0,a4
	call	InsertTailList@plt
	.loc 1 811 7
	ld	a5,-344(s0)
	ld	a5,224(a5)
	mv	a0,a5
	call	InsertImageRecord@plt
.L102:
	.loc 1 818 6
	ld	a5,-360(s0)
	beq	a5,zero,.L104
	.loc 1 819 38
	ld	a5,-344(s0)
	ld	a4,264(a5)
	.loc 1 819 17
	ld	a5,-360(s0)
	sd	a4,0(a5)
.L104:
	.loc 1 826 12
	call	DebugCodeEnabled@plt
	mv	a5,a0
	.loc 1 826 11 discriminator 1
	beq	a5,zero,.L105
.LBB2:
	.loc 1 843 26
	ld	a5,-344(s0)
	ld	a5,320(a5)
	.loc 1 843 6
	beq	a5,zero,.L105
	.loc 1 844 16
	sd	zero,-24(s0)
	.loc 1 845 16
	sd	zero,-32(s0)
	.loc 1 845 5
	j	.L107
.L110:
	.loc 1 846 31
	ld	a5,-344(s0)
	ld	a4,320(a5)
	.loc 1 846 42
	ld	a5,-32(s0)
	add	a5,a4,a5
	lbu	a5,0(a5)
	.loc 1 846 10
	mv	a4,a5
	li	a5,92
	beq	a4,a5,.L108
	.loc 1 846 82 discriminator 1
	ld	a5,-344(s0)
	ld	a4,320(a5)
	.loc 1 846 93 discriminator 1
	ld	a5,-32(s0)
	add	a5,a4,a5
	lbu	a5,0(a5)
	.loc 1 846 59 discriminator 1
	mv	a4,a5
	li	a5,47
	bne	a4,a5,.L109
.L108:
	.loc 1 847 20
	ld	a5,-32(s0)
	addi	a5,a5,1
	sd	a5,-24(s0)
.L109:
	.loc 1 845 70 discriminator 2
	ld	a5,-32(s0)
	addi	a5,a5,1
	sd	a5,-32(s0)
.L107:
	.loc 1 845 40 discriminator 1
	ld	a5,-344(s0)
	ld	a4,320(a5)
	.loc 1 845 51 discriminator 1
	ld	a5,-32(s0)
	add	a5,a4,a5
	lbu	a5,0(a5)
	.loc 1 845 59 discriminator 1
	bne	a5,zero,.L110
	.loc 1 856 16
	sd	zero,-32(s0)
	.loc 1 856 5
	j	.L111
.L115:
	.loc 1 857 47
	ld	a5,-344(s0)
	ld	a4,320(a5)
	.loc 1 857 65
	ld	a3,-32(s0)
	ld	a5,-24(s0)
	add	a5,a3,a5
	.loc 1 857 58
	add	a5,a4,a5
	lbu	a4,0(a5)
	.loc 1 857 26
	ld	a5,-32(s0)
	addi	a5,a5,-16
	add	a5,a5,s0
	sb	a4,-296(a5)
	.loc 1 858 22
	ld	a5,-32(s0)
	addi	a5,a5,-16
	add	a5,a5,s0
	lbu	a5,-296(a5)
	.loc 1 858 10
	bne	a5,zero,.L112
	.loc 1 859 28
	ld	a5,-32(s0)
	addi	a5,a5,-16
	add	a5,a5,s0
	li	a4,46
	sb	a4,-296(a5)
.L112:
	.loc 1 862 22
	ld	a5,-32(s0)
	addi	a5,a5,-16
	add	a5,a5,s0
	lbu	a5,-296(a5)
	.loc 1 862 10
	mv	a4,a5
	li	a5,46
	bne	a4,a5,.L113
	.loc 1 863 27
	ld	a5,-32(s0)
	addi	a5,a5,1
	.loc 1 863 32
	addi	a5,a5,-16
	add	a5,a5,s0
	li	a4,101
	sb	a4,-296(a5)
	.loc 1 864 27
	ld	a5,-32(s0)
	addi	a5,a5,2
	.loc 1 864 32
	addi	a5,a5,-16
	add	a5,a5,s0
	li	a4,102
	sb	a4,-296(a5)
	.loc 1 865 27
	ld	a5,-32(s0)
	addi	a5,a5,3
	.loc 1 865 32
	addi	a5,a5,-16
	add	a5,a5,s0
	li	a4,105
	sb	a4,-296(a5)
	.loc 1 866 27
	ld	a5,-32(s0)
	addi	a5,a5,4
	.loc 1 866 32
	addi	a5,a5,-16
	add	a5,a5,s0
	sb	zero,-296(a5)
	.loc 1 867 9
	j	.L114
.L113:
	.loc 1 856 60 discriminator 2
	ld	a5,-32(s0)
	addi	a5,a5,1
	sd	a5,-32(s0)
.L111:
	.loc 1 856 27 discriminator 1
	ld	a4,-32(s0)
	li	a5,251
	bleu	a4,a5,.L115
.L114:
	.loc 1 871 8
	ld	a4,-32(s0)
	li	a5,252
	bne	a4,a5,.L105
	.loc 1 872 26
	ld	a5,-32(s0)
	addi	a5,a5,-16
	add	a5,a5,s0
	sb	zero,-296(a5)
.L105:
.LBE2:
	.loc 1 882 10
	li	a5,0
	j	.L70
.L118:
	.loc 1 747 5
	nop
	j	.L99
.L119:
	.loc 1 770 5
	nop
	j	.L99
.L120:
	.loc 1 803 9
	nop
.L99:
	.loc 1 890 6
	lbu	a5,-41(s0)
	andi	a5,a5,0xff
	beq	a5,zero,.L116
	.loc 1 891 39
	ld	a5,-344(s0)
	ld	a4,240(a5)
	.loc 1 891 5
	ld	a5,-344(s0)
	ld	a5,144(a5)
	mv	a1,a5
	mv	a0,a4
	call	CoreFreePages@plt
	.loc 1 892 38
	ld	a5,-344(s0)
	sd	zero,240(a5)
	.loc 1 893 26
	ld	a5,-344(s0)
	sd	zero,136(a5)
.L116:
	.loc 1 896 26
	ld	a5,-344(s0)
	ld	a5,288(a5)
	.loc 1 896 6
	beq	a5,zero,.L117
	.loc 1 897 5
	ld	a5,-344(s0)
	ld	a5,288(a5)
	mv	a0,a5
	call	CoreFreePool@plt
.L117:
	.loc 1 900 10
	ld	a5,-40(s0)
.L70:
	.loc 1 901 1
	mv	a0,a5
	ld	ra,360(sp)
	.cfi_restore 1
	ld	s0,352(sp)
	.cfi_restore 8
	.cfi_def_cfa 2, 368
	addi	sp,sp,368
	.cfi_def_cfa_offset 0
	jr	ra
	.cfi_endproc
.LFE7:
	.size	CoreLoadPeImage, .-CoreLoadPeImage
	.section	.text.CoreLoadedImageInfo,"ax",@progbits
	.align	1
	.globl	CoreLoadedImageInfo
	.type	CoreLoadedImageInfo, @function
CoreLoadedImageInfo:
.LFB8:
	.loc 1 915 1
	.cfi_startproc
	addi	sp,sp,-64
	.cfi_def_cfa_offset 64
	sd	ra,56(sp)
	sd	s0,48(sp)
	.cfi_offset 1, -8
	.cfi_offset 8, -16
	addi	s0,sp,64
	.cfi_def_cfa 8, 0
	sd	a0,-56(s0)
	.loc 1 920 12
	addi	a5,s0,-40
	mv	a2,a5
	la	a1,gEfiLoadedImageProtocolGuid
	ld	a0,-56(s0)
	call	CoreHandleProtocol@plt
	sd	a0,-32(s0)
	.loc 1 925 7
	ld	a5,-32(s0)
	.loc 1 925 6
	blt	a5,zero,.L122
	.loc 1 926 45
	ld	a5,-40(s0)
	.loc 1 926 15
	addi	a5,a5,-40
	.loc 1 926 144
	ld	a4,0(a5)
	.loc 1 926 229
	li	a5,1769103360
	addi	a5,a5,1132
	bne	a4,a5,.L123
	.loc 1 926 262 discriminator 1
	ld	a5,-40(s0)
	.loc 1 926 11 discriminator 1
	addi	a5,a5,-40
	sd	a5,-24(s0)
	j	.L124
.L123:
	.loc 1 926 11 is_stmt 0 discriminator 2
	sd	zero,-24(s0)
	j	.L124
.L122:
	.loc 1 929 11 is_stmt 1
	sd	zero,-24(s0)
.L124:
	.loc 1 932 10
	ld	a5,-24(s0)
	.loc 1 933 1
	mv	a0,a5
	ld	ra,56(sp)
	.cfi_restore 1
	ld	s0,48(sp)
	.cfi_restore 8
	.cfi_def_cfa 2, 64
	addi	sp,sp,64
	.cfi_def_cfa_offset 0
	jr	ra
	.cfi_endproc
.LFE8:
	.size	CoreLoadedImageInfo, .-CoreLoadedImageInfo
	.section	.text.CoreUnloadAndCloseImage,"ax",@progbits
	.align	1
	.globl	CoreUnloadAndCloseImage
	.type	CoreUnloadAndCloseImage, @function
CoreUnloadAndCloseImage:
.LFB9:
	.loc 1 947 1
	.cfi_startproc
	addi	sp,sp,-112
	.cfi_def_cfa_offset 112
	sd	ra,104(sp)
	sd	s0,96(sp)
	.cfi_offset 1, -8
	.cfi_offset 8, -16
	addi	s0,sp,112
	.cfi_def_cfa 8, 0
	sd	a0,-104(s0)
	mv	a5,a1
	sb	a5,-105(s0)
	.loc 1 959 16
	sd	zero,-64(s0)
	.loc 1 960 21
	sd	zero,-72(s0)
	.loc 1 962 12
	ld	a5,-104(s0)
	lbu	a5,24(a5)
	.loc 1 962 6
	beq	a5,zero,.L127
	.loc 1 963 5
	ld	a0,-104(s0)
	call	UnregisterMemoryProfileImage@plt
.L127:
	.loc 1 966 3
	ld	a5,-104(s0)
	addi	a4,a5,40
	ld	a5,-104(s0)
	ld	a5,232(a5)
	mv	a1,a5
	mv	a0,a4
	call	UnprotectUefiImage@plt
	.loc 1 968 12
	ld	a5,-104(s0)
	ld	a5,216(a5)
	.loc 1 968 6
	beq	a5,zero,.L128
	.loc 1 972 10
	ld	a5,-104(s0)
	ld	a5,216(a5)
	.loc 1 972 21
	ld	a5,16(a5)
	.loc 1 972 5
	ld	a4,-104(s0)
	ld	a3,216(a4)
	ld	a4,-104(s0)
	ld	a4,136(a4)
	mv	a1,a4
	mv	a0,a3
	jalr	a5
.LVL2:
.L128:
	.loc 1 978 3
	ld	a5,-104(s0)
	addi	a5,a5,240
	mv	a0,a5
	call	PeCoffLoaderUnloadImage@plt
	.loc 1 983 12
	ld	a5,-104(s0)
	ld	a5,8(a5)
	.loc 1 983 6
	beq	a5,zero,.L129
	.loc 1 984 14
	addi	a4,s0,-64
	addi	a5,s0,-56
	mv	a3,a5
	li	a2,0
	li	a1,0
	li	a0,0
	call	CoreLocateHandleBuffer@plt
	sd	a0,-48(s0)
	.loc 1 991 9
	ld	a5,-48(s0)
	.loc 1 991 8
	blt	a5,zero,.L130
	.loc 1 992 24
	sd	zero,-24(s0)
	.loc 1 992 7
	j	.L131
.L139:
	.loc 1 994 32
	ld	a4,-64(s0)
	ld	a5,-24(s0)
	slli	a5,a5,3
	add	a5,a4,a5
	.loc 1 993 18
	ld	a5,0(a5)
	addi	a3,s0,-80
	addi	a4,s0,-72
	mv	a2,a3
	mv	a1,a4
	mv	a0,a5
	call	CoreProtocolsPerHandle@plt
	sd	a0,-48(s0)
	.loc 1 998 13
	ld	a5,-48(s0)
	.loc 1 998 12
	blt	a5,zero,.L132
	.loc 1 999 30
	sd	zero,-32(s0)
	.loc 1 999 11
	j	.L133
.L138:
	.loc 1 1001 36
	ld	a4,-64(s0)
	ld	a5,-24(s0)
	slli	a5,a5,3
	add	a5,a4,a5
	.loc 1 1000 22
	ld	a0,0(a5)
	.loc 1 1002 41
	ld	a4,-72(s0)
	ld	a5,-32(s0)
	slli	a5,a5,3
	add	a5,a4,a5
	.loc 1 1000 22
	ld	a5,0(a5)
	addi	a3,s0,-96
	addi	a4,s0,-88
	mv	a2,a4
	mv	a1,a5
	call	CoreOpenProtocolInformation@plt
	sd	a0,-48(s0)
	.loc 1 1006 17
	ld	a5,-48(s0)
	.loc 1 1006 16
	blt	a5,zero,.L134
	.loc 1 1007 34
	sd	zero,-40(s0)
	.loc 1 1007 15
	j	.L135
.L137:
	.loc 1 1008 29
	ld	a3,-88(s0)
	ld	a4,-40(s0)
	mv	a5,a4
	slli	a5,a5,1
	add	a5,a5,a4
	slli	a5,a5,3
	add	a5,a3,a5
	.loc 1 1008 44
	ld	a4,0(a5)
	.loc 1 1008 65
	ld	a5,-104(s0)
	ld	a5,8(a5)
	.loc 1 1008 20
	bne	a4,a5,.L136
	.loc 1 1010 42
	ld	a4,-64(s0)
	ld	a5,-24(s0)
	slli	a5,a5,3
	add	a5,a4,a5
	.loc 1 1009 28
	ld	a0,0(a5)
	.loc 1 1011 47
	ld	a4,-72(s0)
	ld	a5,-32(s0)
	slli	a5,a5,3
	add	a5,a4,a5
	.loc 1 1009 28
	ld	a1,0(a5)
	ld	a5,-104(s0)
	ld	a2,8(a5)
	.loc 1 1013 38
	ld	a3,-88(s0)
	ld	a4,-40(s0)
	mv	a5,a4
	slli	a5,a5,1
	add	a5,a5,a4
	slli	a5,a5,3
	add	a5,a3,a5
	.loc 1 1009 28
	ld	a5,8(a5)
	mv	a3,a5
	call	CoreCloseProtocol@plt
	sd	a0,-48(s0)
.L136:
	.loc 1 1007 83 discriminator 2
	ld	a5,-40(s0)
	addi	a5,a5,1
	sd	a5,-40(s0)
.L135:
	.loc 1 1007 53 discriminator 1
	ld	a5,-96(s0)
	ld	a4,-40(s0)
	bltu	a4,a5,.L137
	.loc 1 1018 28
	ld	a5,-88(s0)
	.loc 1 1018 18
	beq	a5,zero,.L134
	.loc 1 1019 17
	ld	a5,-88(s0)
	mv	a0,a5
	call	CoreFreePool@plt
.L134:
	.loc 1 999 76 discriminator 2
	ld	a5,-32(s0)
	addi	a5,a5,1
	sd	a5,-32(s0)
.L133:
	.loc 1 999 49 discriminator 1
	ld	a5,-80(s0)
	ld	a4,-32(s0)
	bltu	a4,a5,.L138
	.loc 1 1024 33
	ld	a5,-72(s0)
	.loc 1 1024 14
	beq	a5,zero,.L132
	.loc 1 1025 13
	ld	a5,-72(s0)
	mv	a0,a5
	call	CoreFreePool@plt
.L132:
	.loc 1 992 67 discriminator 2
	ld	a5,-24(s0)
	addi	a5,a5,1
	sd	a5,-24(s0)
.L131:
	.loc 1 992 41 discriminator 1
	ld	a5,-56(s0)
	ld	a4,-24(s0)
	bltu	a4,a5,.L139
	.loc 1 1030 24
	ld	a5,-64(s0)
	.loc 1 1030 10
	beq	a5,zero,.L130
	.loc 1 1031 9
	ld	a5,-64(s0)
	mv	a0,a5
	call	CoreFreePool@plt
.L130:
	.loc 1 1035 5
	ld	a5,-104(s0)
	ld	a5,8(a5)
	mv	a0,a5
	call	CoreRemoveDebugImageInfoEntry@plt
	.loc 1 1037 14
	ld	a5,-104(s0)
	ld	a4,8(a5)
	.loc 1 1040 21
	ld	a5,-104(s0)
	ld	a5,232(a5)
	.loc 1 1037 14
	mv	a2,a5
	la	a1,gEfiLoadedImageDevicePathProtocolGuid
	mv	a0,a4
	call	CoreUninstallProtocolInterface@plt
	sd	a0,-48(s0)
	.loc 1 1043 14
	ld	a5,-104(s0)
	ld	a4,8(a5)
	.loc 1 1046 16
	ld	a5,-104(s0)
	addi	a5,a5,40
	.loc 1 1043 14
	mv	a2,a5
	la	a1,gEfiLoadedImageProtocolGuid
	mv	a0,a4
	call	CoreUninstallProtocolInterface@plt
	sd	a0,-48(s0)
	.loc 1 1049 28
	ld	a5,-104(s0)
	ld	a5,376(a5)
	.loc 1 1049 8
	beq	a5,zero,.L129
	.loc 1 1050 16
	ld	a5,-104(s0)
	ld	a4,8(a5)
	.loc 1 1053 52
	ld	a5,-104(s0)
	ld	a5,376(a5)
	.loc 1 1050 16
	mv	a2,a5
	la	a1,gEfiHiiPackageListProtocolGuid
	mv	a0,a4
	call	CoreUninstallProtocolInterface@plt
	sd	a0,-48(s0)
.L129:
	.loc 1 1058 12
	ld	a5,-104(s0)
	ld	a5,224(a5)
	.loc 1 1058 6
	beq	a5,zero,.L140
	.loc 1 1059 14
	ld	a5,-104(s0)
	ld	a5,224(a5)
	.loc 1 1059 33
	ld	a5,32(a5)
	.loc 1 1059 8
	beq	a5,zero,.L141
	.loc 1 1063 30
	ld	a5,-104(s0)
	ld	a5,224(a5)
	.loc 1 1063 24
	addi	a5,a5,32
	.loc 1 1063 7
	mv	a0,a5
	call	RemoveEntryList@plt
	.loc 1 1064 7
	ld	a5,-104(s0)
	ld	a5,224(a5)
	mv	a0,a5
	call	RemoveImageRecord@plt
.L141:
	.loc 1 1067 24
	ld	a5,-104(s0)
	ld	a5,224(a5)
	.loc 1 1067 5
	mv	a0,a5
	call	CoreFreePool@plt
.L140:
	.loc 1 1073 13
	ld	a5,-104(s0)
	ld	a5,136(a5)
	.loc 1 1073 6
	beq	a5,zero,.L142
	.loc 1 1073 35 discriminator 1
	lbu	a5,-105(s0)
	andi	a5,a5,0xff
	beq	a5,zero,.L142
	.loc 1 1074 5
	ld	a5,-104(s0)
	ld	a4,136(a5)
	ld	a5,-104(s0)
	ld	a5,144(a5)
	mv	a1,a5
	mv	a0,a4
	call	CoreFreePages@plt
.L142:
	.loc 1 1080 18
	ld	a5,-104(s0)
	ld	a5,72(a5)
	.loc 1 1080 6
	beq	a5,zero,.L143
	.loc 1 1081 30
	ld	a5,-104(s0)
	ld	a5,72(a5)
	.loc 1 1081 5
	mv	a0,a5
	call	CoreFreePool@plt
.L143:
	.loc 1 1084 12
	ld	a5,-104(s0)
	ld	a5,232(a5)
	.loc 1 1084 6
	beq	a5,zero,.L144
	.loc 1 1085 24
	ld	a5,-104(s0)
	ld	a5,232(a5)
	.loc 1 1085 5
	mv	a0,a5
	call	CoreFreePool@plt
.L144:
	.loc 1 1088 12
	ld	a5,-104(s0)
	ld	a5,152(a5)
	.loc 1 1088 6
	beq	a5,zero,.L145
	.loc 1 1089 24
	ld	a5,-104(s0)
	ld	a5,152(a5)
	.loc 1 1089 5
	mv	a0,a5
	call	CoreFreePool@plt
.L145:
	.loc 1 1092 3
	ld	a0,-104(s0)
	call	CoreFreePool@plt
	.loc 1 1093 1
	nop
	ld	ra,104(sp)
	.cfi_restore 1
	ld	s0,96(sp)
	.cfi_restore 8
	.cfi_def_cfa 2, 112
	addi	sp,sp,112
	.cfi_def_cfa_offset 0
	jr	ra
	.cfi_endproc
.LFE9:
	.size	CoreUnloadAndCloseImage, .-CoreUnloadAndCloseImage
	.section	.text.CoreLoadImageCommon,"ax",@progbits
	.align	1
	.globl	CoreLoadImageCommon
	.type	CoreLoadImageCommon, @function
CoreLoadImageCommon:
.LFB10:
	.loc 1 1152 1
	.cfi_startproc
	addi	sp,sp,-208
	.cfi_def_cfa_offset 208
	sd	ra,200(sp)
	sd	s0,192(sp)
	.cfi_offset 1, -8
	.cfi_offset 8, -16
	addi	s0,sp,208
	.cfi_def_cfa 8, 0
	sd	a1,-160(s0)
	sd	a2,-168(s0)
	sd	a3,-176(s0)
	sd	a4,-184(s0)
	sd	a5,-192(s0)
	sd	a6,-200(s0)
	sd	a7,-208(s0)
	mv	a5,a0
	sb	a5,-145(s0)
	.loc 1 1168 18
	sd	zero,-40(s0)
	.loc 1 1171 15
	sd	zero,-72(s0)
	.loc 1 1176 6
	ld	a5,-208(s0)
	beq	a5,zero,.L147
	.loc 1 1176 37 discriminator 1
	ld	a5,-160(s0)
	bne	a5,zero,.L148
.L147:
	.loc 1 1177 12
	li	a5,-1
	slli	a5,a5,63
	addi	a5,a5,2
	j	.L186
.L148:
	.loc 1 1180 17
	ld	a0,-160(s0)
	call	CoreLoadedImageInfo
	sd	a0,-72(s0)
	.loc 1 1181 6
	ld	a5,-72(s0)
	bne	a5,zero,.L150
	.loc 1 1183 12
	li	a5,-1
	slli	a5,a5,63
	addi	a5,a5,2
	j	.L186
.L150:
	.loc 1 1186 3
	addi	a5,s0,-120
	li	a1,32
	mv	a0,a5
	call	ZeroMem@plt
	.loc 1 1187 19
	li	a5,1718054912
	addi	a5,a5,-663
	sd	a5,-120(s0)
	.loc 1 1188 20
	ld	a5,-168(s0)
	sd	a5,-48(s0)
	.loc 1 1189 17
	ld	a5,-168(s0)
	sd	a5,-80(s0)
	.loc 1 1190 18
	ld	a5,-168(s0)
	sd	a5,-144(s0)
	.loc 1 1191 16
	sd	zero,-128(s0)
	.loc 1 1192 10
	sd	zero,-32(s0)
	.loc 1 1193 24
	sw	zero,-132(s0)
	.loc 1 1194 17
	sb	zero,-57(s0)
	.loc 1 1195 23
	sb	zero,-58(s0)
	.loc 1 1200 6
	ld	a5,-176(s0)
	beq	a5,zero,.L151
	.loc 1 1201 18
	ld	a5,-176(s0)
	sd	a5,-104(s0)
	.loc 1 1202 22
	ld	a5,-184(s0)
	sd	a5,-96(s0)
	.loc 1 1203 14
	addi	a4,s0,-128
	addi	a5,s0,-144
	mv	a2,a4
	mv	a1,a5
	la	a0,gEfiDevicePathProtocolGuid
	call	CoreLocateDevicePath@plt
	sd	a0,-32(s0)
	.loc 1 1204 36
	ld	a5,-32(s0)
	.loc 1 1204 8
	bge	a5,zero,.L152
	.loc 1 1205 20
	sd	zero,-128(s0)
.L152:
	.loc 1 1208 8
	ld	a5,-184(s0)
	beq	a5,zero,.L153
	.loc 1 1209 14
	sd	zero,-32(s0)
	j	.L154
.L153:
	.loc 1 1211 14
	li	a5,-1
	slli	a5,a5,63
	addi	a5,a5,1
	sd	a5,-32(s0)
	j	.L154
.L151:
	.loc 1 1214 8
	ld	a5,-168(s0)
	bne	a5,zero,.L155
	.loc 1 1215 14
	li	a5,-1
	slli	a5,a5,63
	addi	a5,a5,2
	j	.L186
.L155:
	.loc 1 1221 10
	sd	zero,-56(s0)
	.loc 1 1222 14
	addi	a4,s0,-128
	addi	a5,s0,-144
	mv	a2,a4
	mv	a1,a5
	la	a0,gEfiFirmwareVolume2ProtocolGuid
	call	CoreLocateDevicePath@plt
	sd	a0,-32(s0)
	.loc 1 1223 9
	ld	a5,-32(s0)
	.loc 1 1223 8
	blt	a5,zero,.L156
	.loc 1 1224 21
	li	a5,1
	sb	a5,-57(s0)
	j	.L157
.L156:
	.loc 1 1226 22
	ld	a5,-168(s0)
	sd	a5,-144(s0)
	.loc 1 1227 16
	addi	a4,s0,-128
	addi	a5,s0,-144
	mv	a2,a4
	mv	a1,a5
	la	a0,gEfiSimpleFileSystemProtocolGuid
	call	CoreLocateDevicePath@plt
	sd	a0,-32(s0)
	.loc 1 1228 38
	ld	a5,-32(s0)
	.loc 1 1228 10
	bge	a5,zero,.L157
	.loc 1 1229 12
	lbu	a5,-145(s0)
	andi	a5,a5,0xff
	bne	a5,zero,.L158
	.loc 1 1230 26
	ld	a5,-168(s0)
	sd	a5,-144(s0)
	.loc 1 1231 20
	addi	a4,s0,-128
	addi	a5,s0,-144
	mv	a2,a4
	mv	a1,a5
	la	a0,gEfiLoadFile2ProtocolGuid
	call	CoreLocateDevicePath@plt
	sd	a0,-32(s0)
.L158:
	.loc 1 1234 40
	ld	a5,-32(s0)
	.loc 1 1234 12
	bge	a5,zero,.L157
	.loc 1 1235 26
	ld	a5,-168(s0)
	sd	a5,-144(s0)
	.loc 1 1236 20
	addi	a4,s0,-128
	addi	a5,s0,-144
	mv	a2,a4
	mv	a1,a5
	la	a0,gEfiLoadFileProtocolGuid
	call	CoreLocateDevicePath@plt
	sd	a0,-32(s0)
	.loc 1 1237 15
	ld	a5,-32(s0)
	.loc 1 1237 14
	blt	a5,zero,.L157
	.loc 1 1238 33
	li	a5,1
	sb	a5,-58(s0)
	.loc 1 1239 18
	ld	a5,-144(s0)
	sd	a5,-56(s0)
.L157:
	.loc 1 1248 20
	addi	a3,s0,-132
	addi	a5,s0,-120
	addi	a4,a5,24
	lbu	a5,-145(s0)
	mv	a2,a4
	ld	a1,-168(s0)
	mv	a0,a5
	call	GetFileBufferByFilePath@plt
	mv	a5,a0
	.loc 1 1248 18 discriminator 1
	sd	a5,-104(s0)
	.loc 1 1254 14
	ld	a5,-104(s0)
	.loc 1 1254 8
	bne	a5,zero,.L159
	.loc 1 1255 14
	li	a5,-1
	slli	a5,a5,63
	addi	a5,a5,14
	sd	a5,-32(s0)
	j	.L154
.L159:
	.loc 1 1257 24
	li	a5,1
	sb	a5,-112(s0)
	.loc 1 1258 10
	lbu	a5,-58(s0)
	andi	a5,a5,0xff
	beq	a5,zero,.L154
	.loc 1 1262 28
	ld	a5,-128(s0)
	.loc 1 1262 46
	mv	a0,a5
	call	DevicePathFromHandle@plt
	mv	a5,a0
	.loc 1 1262 28 discriminator 1
	ld	a1,-56(s0)
	mv	a0,a5
	call	AppendDevicePath@plt
	sd	a0,-48(s0)
.L154:
	.loc 1 1267 34
	ld	a5,-32(s0)
	.loc 1 1267 6
	bge	a5,zero,.L160
	.loc 1 1268 11
	sd	zero,-24(s0)
	.loc 1 1269 5
	j	.L161
.L160:
	.loc 1 1272 18
	la	a5,gSecurity2
	ld	a5,0(a5)
	.loc 1 1272 6
	beq	a5,zero,.L162
	.loc 1 1276 32
	la	a5,gSecurity2
	ld	a5,0(a5)
	ld	a5,0(a5)
	.loc 1 1276 22
	la	a4,gSecurity2
	ld	a0,0(a4)
	ld	a2,-104(s0)
	ld	a3,-96(s0)
	lbu	a4,-145(s0)
	ld	a1,-48(s0)
	jalr	a5
.LVL3:
	sd	a0,-40(s0)
	.loc 1 1283 9
	ld	a5,-40(s0)
	.loc 1 1283 8
	blt	a5,zero,.L163
	.loc 1 1283 71 discriminator 1
	lbu	a5,-57(s0)
	andi	a5,a5,0xff
	beq	a5,zero,.L163
	.loc 1 1293 33
	la	a5,gSecurity
	ld	a5,0(a5)
	ld	a5,0(a5)
	.loc 1 1293 24
	la	a4,gSecurity
	ld	a4,0(a4)
	lw	a3,-132(s0)
	ld	a2,-48(s0)
	mv	a1,a3
	mv	a0,a4
	jalr	a5
.LVL4:
	sd	a0,-40(s0)
	j	.L163
.L162:
	.loc 1 1299 25
	la	a5,gSecurity
	ld	a5,0(a5)
	.loc 1 1299 13
	beq	a5,zero,.L163
	.loc 1 1299 42 discriminator 1
	ld	a5,-48(s0)
	beq	a5,zero,.L163
	.loc 1 1303 31
	la	a5,gSecurity
	ld	a5,0(a5)
	ld	a5,0(a5)
	.loc 1 1303 22
	la	a4,gSecurity
	ld	a4,0(a4)
	lw	a3,-132(s0)
	ld	a2,-48(s0)
	mv	a1,a3
	mv	a0,a4
	jalr	a5
.LVL5:
	sd	a0,-40(s0)
.L163:
	.loc 1 1313 42
	ld	a5,-40(s0)
	.loc 1 1313 6
	bge	a5,zero,.L164
	.loc 1 1313 68 discriminator 1
	ld	a4,-40(s0)
	li	a5,-1
	slli	a5,a5,63
	addi	a5,a5,26
	beq	a4,a5,.L164
	.loc 1 1314 8
	ld	a4,-40(s0)
	li	a5,-1
	slli	a5,a5,63
	addi	a5,a5,15
	bne	a4,a5,.L165
	.loc 1 1319 20
	ld	a5,-208(s0)
	sd	zero,0(a5)
.L165:
	.loc 1 1322 12
	ld	a5,-40(s0)
	sd	a5,-32(s0)
	.loc 1 1323 11
	sd	zero,-24(s0)
	.loc 1 1324 5
	j	.L161
.L164:
	.loc 1 1330 11
	li	a0,400
	call	AllocateZeroPool@plt
	sd	a0,-24(s0)
	.loc 1 1331 6
	ld	a5,-24(s0)
	bne	a5,zero,.L166
	.loc 1 1332 12
	li	a5,-1
	slli	a5,a5,63
	addi	a5,a5,9
	sd	a5,-32(s0)
	.loc 1 1333 5
	j	.L161
.L166:
	.loc 1 1339 12
	ld	a5,-48(s0)
	sd	a5,-168(s0)
	.loc 1 1340 20
	ld	a5,-128(s0)
	.loc 1 1340 6
	beq	a5,zero,.L167
	.loc 1 1341 14
	ld	a5,-128(s0)
	addi	a4,s0,-144
	mv	a2,a4
	la	a1,gEfiDevicePathProtocolGuid
	mv	a0,a5
	call	CoreHandleProtocol@plt
	sd	a0,-32(s0)
	.loc 1 1342 9
	ld	a5,-32(s0)
	.loc 1 1342 8
	blt	a5,zero,.L167
	.loc 1 1343 22
	ld	a5,-144(s0)
	mv	a0,a5
	call	GetDevicePathSize@plt
	mv	a5,a0
	.loc 1 1343 20 discriminator 1
	addi	a5,a5,-4
	sd	a5,-88(s0)
	.loc 1 1344 16
	ld	a4,-168(s0)
	ld	a5,-88(s0)
	add	a5,a4,a5
	sd	a5,-168(s0)
.L167:
	.loc 1 1351 20
	ld	a5,-24(s0)
	li	a4,1769103360
	addi	a4,a4,1132
	sd	a4,0(a5)
	.loc 1 1352 27
	la	a5,gDxeCoreST
	ld	a4,0(a5)
	ld	a5,-24(s0)
	sd	a4,56(a5)
	.loc 1 1353 28
	ld	a4,-128(s0)
	ld	a5,-24(s0)
	sd	a4,64(a5)
	.loc 1 1354 24
	ld	a5,-24(s0)
	li	a4,4096
	sw	a4,40(a5)
	.loc 1 1355 26
	ld	a0,-168(s0)
	call	DuplicateDevicePath@plt
	mv	a4,a0
	.loc 1 1355 24 discriminator 1
	ld	a5,-24(s0)
	sd	a4,72(a5)
	.loc 1 1356 28
	ld	a5,-24(s0)
	ld	a4,-160(s0)
	sd	a4,48(a5)
	.loc 1 1358 6
	ld	a5,-200(s0)
	beq	a5,zero,.L168
	.loc 1 1359 28
	ld	a5,-200(s0)
	ld	a4,0(a5)
	.loc 1 1359 26
	ld	a5,-24(s0)
	sd	a4,144(a5)
	j	.L169
.L168:
	.loc 1 1361 26
	ld	a5,-24(s0)
	sd	zero,144(a5)
.L169:
	.loc 1 1368 12
	ld	a5,-24(s0)
	addi	a0,a5,8
	.loc 1 1372 14
	ld	a5,-24(s0)
	addi	a5,a5,40
	.loc 1 1368 12
	li	a4,0
	mv	a3,a5
	li	a2,0
	la	a1,gEfiLoadedImageProtocolGuid
	call	CoreInstallProtocolInterfaceNotify@plt
	sd	a0,-32(s0)
	.loc 1 1375 34
	ld	a5,-32(s0)
	.loc 1 1375 6
	blt	a5,zero,.L187
	.loc 1 1382 12
	lw	a5,8(s0)
	addi	a1,s0,-120
	lbu	a0,-145(s0)
	ld	a4,0(s0)
	ld	a3,-192(s0)
	ld	a2,-24(s0)
	call	CoreLoadPeImage
	sd	a0,-32(s0)
	.loc 1 1383 34
	ld	a5,-32(s0)
	.loc 1 1383 6
	bge	a5,zero,.L171
	.loc 1 1384 8
	ld	a4,-32(s0)
	li	a5,-1
	slli	a5,a5,63
	addi	a5,a5,5
	beq	a4,a5,.L172
	.loc 1 1384 68 discriminator 1
	ld	a4,-32(s0)
	li	a5,-1
	slli	a5,a5,63
	addi	a5,a5,9
	bne	a4,a5,.L188
.L172:
	.loc 1 1385 10
	ld	a5,-200(s0)
	beq	a5,zero,.L188
	.loc 1 1386 31
	ld	a5,-24(s0)
	ld	a4,144(a5)
	.loc 1 1386 24
	ld	a5,-200(s0)
	sd	a4,0(a5)
	.loc 1 1390 5
	j	.L188
.L171:
	.loc 1 1393 6
	ld	a5,-200(s0)
	beq	a5,zero,.L174
	.loc 1 1394 27
	ld	a5,-24(s0)
	ld	a4,144(a5)
	.loc 1 1394 20
	ld	a5,-200(s0)
	sd	a4,0(a5)
.L174:
	.loc 1 1400 18
	lw	a5,8(s0)
	andi	a5,a5,2
	sext.w	a5,a5
	.loc 1 1400 6
	beq	a5,zero,.L175
	.loc 1 1401 5
	ld	a5,-24(s0)
	addi	a4,a5,40
	ld	a5,-24(s0)
	ld	a5,8(a5)
	mv	a2,a5
	mv	a1,a4
	li	a0,1
	call	CoreNewDebugImageInfoEntry@plt
.L175:
	.loc 1 1408 27
	ld	a5,-24(s0)
	lw	a4,336(a5)
	.loc 1 1408 6
	li	a5,5
	bne	a4,a5,.L176
	.loc 1 1409 28
	ld	a5,-24(s0)
	lw	a5,368(a5)
	.loc 1 1409 50
	andi	a5,a5,64
	sext.w	a5,a5
	.loc 1 1408 75 discriminator 1
	bne	a5,zero,.L176
	.loc 1 1411 38
	la	a5,gMemoryAttributesTableForwardCfi
	sb	zero,0(a5)
.L176:
	.loc 1 1417 12
	ld	a5,-24(s0)
	ld	a4,8(a5)
	.loc 1 1420 14
	ld	a5,-24(s0)
	addi	a2,a5,40
	.loc 1 1421 14
	ld	a5,-24(s0)
	addi	a5,a5,40
	.loc 1 1417 12
	mv	a3,a5
	la	a1,gEfiLoadedImageProtocolGuid
	mv	a0,a4
	call	CoreReinstallProtocolInterface@plt
	sd	a0,-32(s0)
	.loc 1 1423 34
	ld	a5,-32(s0)
	.loc 1 1423 6
	blt	a5,zero,.L189
	.loc 1 1431 6
	ld	a5,-48(s0)
	beq	a5,zero,.L178
	.loc 1 1432 36
	ld	a0,-48(s0)
	call	DuplicateDevicePath@plt
	mv	a4,a0
	.loc 1 1432 34 discriminator 1
	ld	a5,-24(s0)
	sd	a4,232(a5)
.L178:
	.loc 1 1438 12
	ld	a5,-24(s0)
	addi	a4,a5,8
	.loc 1 1442 19
	ld	a5,-24(s0)
	ld	a5,232(a5)
	.loc 1 1438 12
	mv	a3,a5
	li	a2,0
	la	a1,gEfiLoadedImageDevicePathProtocolGuid
	mv	a0,a4
	call	CoreInstallProtocolInterface@plt
	sd	a0,-32(s0)
	.loc 1 1444 34
	ld	a5,-32(s0)
	.loc 1 1444 6
	blt	a5,zero,.L190
	.loc 1 1451 26
	ld	a5,-24(s0)
	ld	a5,376(a5)
	.loc 1 1451 6
	beq	a5,zero,.L180
	.loc 1 1452 14
	ld	a5,-24(s0)
	addi	a4,a5,8
	.loc 1 1456 50
	ld	a5,-24(s0)
	ld	a5,376(a5)
	.loc 1 1452 14
	mv	a3,a5
	li	a2,0
	la	a1,gEfiHiiPackageListProtocolGuid
	mv	a0,a4
	call	CoreInstallProtocolInterface@plt
	sd	a0,-32(s0)
	.loc 1 1458 36
	ld	a5,-32(s0)
	.loc 1 1458 8
	blt	a5,zero,.L191
.L180:
	.loc 1 1463 3
	ld	a5,-24(s0)
	addi	a4,a5,40
	ld	a5,-24(s0)
	ld	a5,232(a5)
	mv	a1,a5
	mv	a0,a4
	call	ProtectUefiImage@plt
	.loc 1 1468 23
	ld	a5,-24(s0)
	ld	a4,8(a5)
	.loc 1 1468 16
	ld	a5,-208(s0)
	sd	a4,0(a5)
	j	.L161
.L187:
	.loc 1 1376 5
	nop
	j	.L161
.L188:
	.loc 1 1390 5
	nop
	j	.L161
.L189:
	.loc 1 1424 5
	nop
	j	.L161
.L190:
	.loc 1 1445 5
	nop
	j	.L161
.L191:
	.loc 1 1459 7
	nop
.L161:
	.loc 1 1475 12
	lbu	a5,-112(s0)
	.loc 1 1475 6
	beq	a5,zero,.L181
	.loc 1 1476 5
	ld	a5,-104(s0)
	mv	a0,a5
	call	CoreFreePool@plt
.L181:
	.loc 1 1479 6
	ld	a4,-48(s0)
	ld	a5,-80(s0)
	beq	a4,a5,.L182
	.loc 1 1480 5
	ld	a0,-48(s0)
	call	CoreFreePool@plt
.L182:
	.loc 1 1486 34
	ld	a5,-32(s0)
	.loc 1 1486 6
	bge	a5,zero,.L183
	.loc 1 1487 8
	ld	a5,-24(s0)
	beq	a5,zero,.L184
	.loc 1 1488 39
	ld	a5,-192(s0)
	seqz	a5,a5
	andi	a5,a5,0xff
	.loc 1 1488 7
	mv	a1,a5
	ld	a0,-24(s0)
	call	CoreUnloadAndCloseImage
	.loc 1 1489 13
	sd	zero,-24(s0)
	j	.L184
.L183:
	.loc 1 1491 49
	ld	a5,-40(s0)
	.loc 1 1491 13
	bge	a5,zero,.L184
	.loc 1 1492 12
	ld	a5,-40(s0)
	sd	a5,-32(s0)
.L184:
	.loc 1 1498 6
	ld	a5,-24(s0)
	beq	a5,zero,.L185
	.loc 1 1499 28
	ld	a5,-24(s0)
	ld	a4,-32(s0)
	sd	a4,392(a5)
.L185:
	.loc 1 1502 10
	ld	a5,-32(s0)
.L186:
	.loc 1 1503 1
	mv	a0,a5
	ld	ra,200(sp)
	.cfi_restore 1
	ld	s0,192(sp)
	.cfi_restore 8
	.cfi_def_cfa 2, 208
	addi	sp,sp,208
	.cfi_def_cfa_offset 0
	jr	ra
	.cfi_endproc
.LFE10:
	.size	CoreLoadImageCommon, .-CoreLoadImageCommon
	.section	.text.CoreLoadImage,"ax",@progbits
	.align	1
	.globl	CoreLoadImage
	.type	CoreLoadImage, @function
CoreLoadImage:
.LFB11:
	.loc 1 1549 1
	.cfi_startproc
	addi	sp,sp,-96
	.cfi_def_cfa_offset 96
	sd	ra,88(sp)
	sd	s0,80(sp)
	.cfi_offset 1, -8
	.cfi_offset 8, -16
	addi	s0,sp,96
	.cfi_def_cfa 8, 0
	sd	a1,-48(s0)
	sd	a2,-56(s0)
	sd	a3,-64(s0)
	sd	a4,-72(s0)
	sd	a5,-80(s0)
	mv	a5,a0
	sb	a5,-33(s0)
	.loc 1 1553 12
	li	a0,4
	call	LogPerformanceMeasurementEnabled@plt
	mv	a5,a0
	.loc 1 1553 11 discriminator 1
	beq	a5,zero,.L193
	.loc 1 1553 57 discriminator 2
	li	a4,3
	li	a3,0
	li	a2,0
	li	a1,0
	li	a0,0
	call	LogPerformanceMeasurement@plt
.L193:
	.loc 1 1555 12
	lbu	a0,-33(s0)
	li	a5,3
	sd	a5,8(sp)
	sd	zero,0(sp)
	ld	a7,-80(s0)
	li	a6,0
	li	a5,0
	ld	a4,-72(s0)
	ld	a3,-64(s0)
	ld	a2,-56(s0)
	ld	a1,-48(s0)
	call	CoreLoadImageCommon
	sd	a0,-32(s0)
	.loc 1 1568 10
	sd	zero,-24(s0)
	.loc 1 1569 7
	ld	a5,-32(s0)
	.loc 1 1569 6
	blt	a5,zero,.L194
	.loc 1 1573 12
	ld	a5,-80(s0)
	ld	a5,0(a5)
	sd	a5,-24(s0)
.L194:
	.loc 1 1576 12
	li	a0,4
	call	LogPerformanceMeasurementEnabled@plt
	mv	a5,a0
	.loc 1 1576 11 discriminator 1
	beq	a5,zero,.L195
	.loc 1 1576 57 discriminator 2
	li	a4,4
	li	a3,0
	li	a2,0
	li	a1,0
	ld	a0,-24(s0)
	call	LogPerformanceMeasurement@plt
.L195:
	.loc 1 1578 10
	ld	a5,-32(s0)
	.loc 1 1579 1
	mv	a0,a5
	ld	ra,88(sp)
	.cfi_restore 1
	ld	s0,80(sp)
	.cfi_restore 8
	.cfi_def_cfa 2, 96
	addi	sp,sp,96
	.cfi_def_cfa_offset 0
	jr	ra
	.cfi_endproc
.LFE11:
	.size	CoreLoadImage, .-CoreLoadImage
	.section	.text.CoreStartImage,"ax",@progbits
	.align	1
	.globl	CoreStartImage
	.type	CoreStartImage, @function
CoreStartImage:
.LFB12:
	.loc 1 1607 1
	.cfi_startproc
	addi	sp,sp,-96
	.cfi_def_cfa_offset 96
	sd	ra,88(sp)
	sd	s0,80(sp)
	.cfi_offset 1, -8
	.cfi_offset 8, -16
	addi	s0,sp,96
	.cfi_def_cfa 8, 0
	sd	a0,-72(s0)
	sd	a1,-80(s0)
	sd	a2,-88(s0)
	.loc 1 1615 10
	ld	a5,-72(s0)
	sd	a5,-24(s0)
	.loc 1 1617 11
	ld	a0,-72(s0)
	call	CoreLoadedImageInfo
	mv	a5,a0
	.loc 1 1617 11 is_stmt 0 discriminator 2
	sd	a5,-48(s0)
	.loc 1 1618 6 is_stmt 1
	ld	a5,-48(s0)
	beq	a5,zero,.L198
	.loc 1 1618 39 discriminator 1
	ld	a5,-48(s0)
	lbu	a5,24(a5)
	.loc 1 1618 31 discriminator 1
	beq	a5,zero,.L199
.L198:
	.loc 1 1619 12
	li	a5,-1
	slli	a5,a5,63
	addi	a5,a5,2
	j	.L200
.L199:
	.loc 1 1622 30
	ld	a5,-48(s0)
	ld	a5,392(a5)
	.loc 1 1622 6
	bge	a5,zero,.L201
	.loc 1 1623 17
	ld	a5,-48(s0)
	ld	a5,392(a5)
	j	.L200
.L201:
	.loc 1 1629 15
	ld	a5,-48(s0)
	lhu	a5,208(a5)
	.loc 1 1629 6
	sext.w	a4,a5
	li	a5,20480
	addi	a5,a5,100
	beq	a4,a5,.L202
	.loc 1 1630 13
	ld	a5,-48(s0)
	ld	a5,216(a5)
	.loc 1 1629 37 discriminator 1
	bne	a5,zero,.L202
	.loc 1 1638 12
	li	a5,-1
	slli	a5,a5,63
	addi	a5,a5,3
	j	.L200
.L202:
	.loc 1 1641 12
	ld	a5,-48(s0)
	ld	a5,216(a5)
	.loc 1 1641 6
	beq	a5,zero,.L203
	.loc 1 1642 19
	ld	a5,-48(s0)
	ld	a5,216(a5)
	.loc 1 1642 30
	ld	a5,8(a5)
	.loc 1 1642 14
	ld	a4,-48(s0)
	ld	a0,216(a4)
	ld	a4,-48(s0)
	ld	a1,136(a4)
	.loc 1 1645 41
	ld	a4,-48(s0)
	ld	a4,144(a4)
	.loc 1 1642 14
	slli	a2,a4,12
	ld	a4,-48(s0)
	addi	a4,a4,32
	mv	a3,a4
	jalr	a5
.LVL6:
	mv	a5,a0
	.loc 1 1642 14 is_stmt 0 discriminator 2
	sd	a5,-56(s0)
	.loc 1 1648 36 is_stmt 1
	ld	a5,-56(s0)
	.loc 1 1648 8
	bge	a5,zero,.L203
	.loc 1 1654 14
	ld	a5,-56(s0)
	j	.L200
.L203:
	.loc 1 1658 12
	li	a0,2
	call	LogPerformanceMeasurementEnabled@plt
	mv	a5,a0
	.loc 1 1658 11 discriminator 2
	beq	a5,zero,.L204
	.loc 1 1658 57 discriminator 3
	li	a4,1
	li	a3,0
	li	a2,0
	li	a1,0
	ld	a0,-24(s0)
	call	LogPerformanceMeasurement@plt
.L204:
	.loc 1 1665 23
	call	CoreGetHandleDatabaseKey@plt
	mv	a5,a0
	.loc 1 1665 23 is_stmt 0 discriminator 2
	sd	a5,-32(s0)
	.loc 1 1666 13 is_stmt 1
	lla	a5,mCurrentImage
	ld	a5,0(a5)
	sd	a5,-40(s0)
	.loc 1 1667 17
	lla	a5,mCurrentImage
	ld	a4,-48(s0)
	sd	a4,0(a5)
	.loc 1 1668 14
	la	a5,gEfiCurrentTpl
	ld	a4,0(a5)
	ld	a5,-48(s0)
	sd	a4,160(a5)
	.loc 1 1675 23
	li	a0,120
	call	AllocatePool@plt
	mv	a4,a0
	.loc 1 1675 21 discriminator 2
	ld	a5,-48(s0)
	sd	a4,192(a5)
	.loc 1 1676 12
	ld	a5,-48(s0)
	ld	a5,192(a5)
	.loc 1 1676 6
	bne	a5,zero,.L205
	.loc 1 1681 14
	li	a0,2
	call	LogPerformanceMeasurementEnabled@plt
	mv	a5,a0
	.loc 1 1681 13 discriminator 2
	beq	a5,zero,.L206
	.loc 1 1681 59 discriminator 3
	li	a4,2
	li	a3,0
	li	a2,0
	li	a1,0
	li	a0,0
	call	LogPerformanceMeasurement@plt
.L206:
	.loc 1 1686 19
	lla	a5,mCurrentImage
	ld	a4,-40(s0)
	sd	a4,0(a5)
	.loc 1 1688 12
	li	a5,-1
	slli	a5,a5,63
	addi	a5,a5,9
	j	.L200
.L205:
	.loc 1 1691 50
	ld	a5,-48(s0)
	ld	a5,192(a5)
	.loc 1 1691 37
	mv	a4,a5
	.loc 1 1691 91
	ld	a5,-48(s0)
	ld	a5,192(a5)
	.loc 1 1691 107
	neg	a5,a5
	andi	a5,a5,7
	.loc 1 1691 65
	add	a5,a4,a5
	.loc 1 1691 25
	mv	a4,a5
	.loc 1 1691 22
	ld	a5,-48(s0)
	sd	a4,200(a5)
	.loc 1 1693 17
	ld	a5,-48(s0)
	ld	a5,200(a5)
	.loc 1 1693 17 is_stmt 0 discriminator 1
	mv	a0,a5
	call	SetJump@plt
	mv	a5,a0
	.loc 1 1693 17 discriminator 3
	sd	a5,-64(s0)
	.loc 1 1698 6 is_stmt 1
	ld	a5,-64(s0)
	bne	a5,zero,.L208
	.loc 1 1699 60
	ld	a5,-48(s0)
	lhu	a5,362(a5)
	.loc 1 1699 5
	sext.w	a4,a5
	li	a5,10
	bne	a4,a5,.L209
	.loc 1 1699 5 is_stmt 0 discriminator 1
	li	a5,9
	j	.L210
.L209:
	.loc 1 1699 5 discriminator 2
	li	a5,7
.L210:
	.loc 1 1699 5 discriminator 4
	mv	a1,a5
	ld	a0,-48(s0)
	call	RegisterMemoryProfileImage@plt
	.loc 1 1703 20 is_stmt 1
	ld	a5,-48(s0)
	li	a4,1
	sb	a4,24(a5)
	.loc 1 1704 26
	ld	a5,-48(s0)
	ld	a5,32(a5)
	.loc 1 1704 21
	ld	a4,-48(s0)
	ld	a4,56(a4)
	mv	a1,a4
	ld	a0,-72(s0)
	jalr	a5
.LVL7:
	mv	a4,a0
	.loc 1 1704 19 discriminator 2
	ld	a5,-48(s0)
	sd	a4,168(a5)
	.loc 1 1711 14
	call	DebugCodeEnabled@plt
	.loc 1 1721 5
	ld	a5,-48(s0)
	ld	a5,168(a5)
	li	a3,0
	li	a2,0
	mv	a1,a5
	ld	a0,-72(s0)
	call	CoreExit
.L208:
	.loc 1 1728 12
	ld	a5,-48(s0)
	ld	a4,160(a5)
	.loc 1 1728 18
	la	a5,gEfiCurrentTpl
	ld	a5,0(a5)
	.loc 1 1728 6
	beq	a4,a5,.L212
	.loc 1 1729 5
	ld	a5,-48(s0)
	ld	a5,160(a5)
	mv	a0,a5
	call	CoreRestoreTpl@plt
.L212:
	.loc 1 1732 3
	ld	a5,-48(s0)
	ld	a5,192(a5)
	mv	a0,a5
	call	CoreFreePool@plt
	.loc 1 1737 17
	lla	a5,mCurrentImage
	ld	a4,-40(s0)
	sd	a4,0(a5)
	.loc 1 1748 12
	ld	a5,-48(s0)
	ld	a4,16(a5)
	.loc 1 1748 6
	li	a5,10
	beq	a4,a5,.L213
	.loc 1 1749 5
	ld	a0,-32(s0)
	call	CoreConnectHandlesByKey@plt
.L213:
	.loc 1 1755 12
	call	DebugCodeEnabled@plt
	mv	a5,a0
	.loc 1 1755 11 discriminator 2
	beq	a5,zero,.L214
	.loc 1 1756 13
	ld	a5,-48(s0)
	ld	a5,176(a5)
.L214:
	.loc 1 1770 6
	ld	a5,-88(s0)
	beq	a5,zero,.L216
	.loc 1 1770 34 discriminator 1
	ld	a5,-80(s0)
	beq	a5,zero,.L216
	.loc 1 1771 26
	ld	a5,-48(s0)
	ld	a4,176(a5)
	.loc 1 1771 19
	ld	a5,-80(s0)
	sd	a4,0(a5)
	.loc 1 1772 22
	ld	a5,-48(s0)
	ld	a4,184(a5)
	.loc 1 1772 15
	ld	a5,-88(s0)
	sd	a4,0(a5)
	j	.L217
.L216:
	.loc 1 1777 5
	ld	a5,-48(s0)
	ld	a5,184(a5)
	mv	a0,a5
	call	CoreFreePool@plt
	.loc 1 1778 21
	ld	a5,-48(s0)
	sd	zero,184(a5)
.L217:
	.loc 1 1784 10
	ld	a5,-48(s0)
	ld	a5,168(a5)
	sd	a5,-56(s0)
	.loc 1 1790 30
	ld	a5,-48(s0)
	ld	a5,168(a5)
	.loc 1 1790 6
	blt	a5,zero,.L218
	.loc 1 1790 76 discriminator 1
	ld	a5,-48(s0)
	ld	a4,16(a5)
	.loc 1 1790 67 discriminator 1
	li	a5,10
	bne	a4,a5,.L219
.L218:
	.loc 1 1791 5
	li	a1,1
	ld	a0,-48(s0)
	call	CoreUnloadAndCloseImage
	.loc 1 1795 12
	sd	zero,-24(s0)
.L219:
	.loc 1 1801 12
	li	a0,2
	call	LogPerformanceMeasurementEnabled@plt
	mv	a5,a0
	.loc 1 1801 11 discriminator 2
	beq	a5,zero,.L220
	.loc 1 1801 57 discriminator 3
	li	a4,2
	li	a3,0
	li	a2,0
	li	a1,0
	ld	a0,-24(s0)
	call	LogPerformanceMeasurement@plt
.L220:
	.loc 1 1802 10
	ld	a5,-56(s0)
.L200:
	.loc 1 1803 1
	mv	a0,a5
	ld	ra,88(sp)
	.cfi_restore 1
	ld	s0,80(sp)
	.cfi_restore 8
	.cfi_def_cfa 2, 96
	addi	sp,sp,96
	.cfi_def_cfa_offset 0
	jr	ra
	.cfi_endproc
.LFE12:
	.size	CoreStartImage, .-CoreStartImage
	.section	.text.CoreExit,"ax",@progbits
	.align	1
	.globl	CoreExit
	.type	CoreExit, @function
CoreExit:
.LFB13:
	.loc 1 1836 1
	.cfi_startproc
	addi	sp,sp,-64
	.cfi_def_cfa_offset 64
	sd	ra,56(sp)
	sd	s0,48(sp)
	.cfi_offset 1, -8
	.cfi_offset 8, -16
	addi	s0,sp,64
	.cfi_def_cfa 8, 0
	sd	a0,-40(s0)
	sd	a1,-48(s0)
	sd	a2,-56(s0)
	sd	a3,-64(s0)
	.loc 1 1844 12
	li	a0,16
	call	CoreRaiseTpl@plt
	sd	a0,-24(s0)
	.loc 1 1846 11
	ld	a0,-40(s0)
	call	CoreLoadedImageInfo
	sd	a0,-32(s0)
	.loc 1 1847 6
	ld	a5,-32(s0)
	bne	a5,zero,.L222
	.loc 1 1848 12
	li	a5,-1
	slli	a5,a5,63
	addi	a5,a5,2
	sd	a5,-48(s0)
	.loc 1 1849 5
	j	.L223
.L222:
	.loc 1 1852 13
	ld	a5,-32(s0)
	lbu	a5,24(a5)
	.loc 1 1852 6
	bne	a5,zero,.L224
	.loc 1 1856 5
	li	a1,1
	ld	a0,-32(s0)
	call	CoreUnloadAndCloseImage
	.loc 1 1857 12
	sd	zero,-48(s0)
	.loc 1 1858 5
	j	.L223
.L224:
	.loc 1 1864 13
	lla	a5,mCurrentImage
	ld	a5,0(a5)
	.loc 1 1864 6
	ld	a4,-32(s0)
	beq	a4,a5,.L225
	.loc 1 1866 12
	li	a5,-1
	slli	a5,a5,63
	addi	a5,a5,2
	sd	a5,-48(s0)
	.loc 1 1867 5
	j	.L223
.L225:
	.loc 1 1873 17
	ld	a5,-32(s0)
	ld	a4,-48(s0)
	sd	a4,168(a5)
	.loc 1 1878 6
	ld	a5,-64(s0)
	beq	a5,zero,.L226
	.loc 1 1879 25
	ld	a5,-32(s0)
	ld	a4,-56(s0)
	sd	a4,176(a5)
	.loc 1 1880 23
	ld	a5,-32(s0)
	ld	a5,176(a5)
	mv	a0,a5
	call	AllocatePool@plt
	mv	a4,a0
	.loc 1 1880 21 discriminator 1
	ld	a5,-32(s0)
	sd	a4,184(a5)
	.loc 1 1881 14
	ld	a5,-32(s0)
	ld	a5,184(a5)
	.loc 1 1881 8
	bne	a5,zero,.L227
	.loc 1 1882 14
	li	a5,-1
	slli	a5,a5,63
	addi	a5,a5,9
	sd	a5,-48(s0)
	.loc 1 1883 7
	j	.L223
.L227:
	.loc 1 1886 5
	ld	a5,-32(s0)
	ld	a4,184(a5)
	ld	a5,-32(s0)
	ld	a5,176(a5)
	mv	a2,a5
	ld	a1,-64(s0)
	mv	a0,a4
	call	CopyMem@plt
.L226:
	.loc 1 1889 3
	ld	a0,-24(s0)
	call	CoreRestoreTpl@plt
	.loc 1 1893 3
	ld	a5,-32(s0)
	ld	a5,200(a5)
	li	a1,-1
	mv	a0,a5
	call	LongJump@plt
	.loc 1 1899 10
	li	a5,-1
	slli	a5,a5,63
	addi	a5,a5,15
	sd	a5,-48(s0)
.L223:
	.loc 1 1901 3
	ld	a0,-24(s0)
	call	CoreRestoreTpl@plt
	.loc 1 1902 10
	ld	a5,-48(s0)
	.loc 1 1903 1
	mv	a0,a5
	ld	ra,56(sp)
	.cfi_restore 1
	ld	s0,48(sp)
	.cfi_restore 8
	.cfi_def_cfa 2, 64
	addi	sp,sp,64
	.cfi_def_cfa_offset 0
	jr	ra
	.cfi_endproc
.LFE13:
	.size	CoreExit, .-CoreExit
	.section	.text.CoreUnloadImage,"ax",@progbits
	.align	1
	.globl	CoreUnloadImage
	.type	CoreUnloadImage, @function
CoreUnloadImage:
.LFB14:
	.loc 1 1922 1
	.cfi_startproc
	addi	sp,sp,-48
	.cfi_def_cfa_offset 48
	sd	ra,40(sp)
	sd	s0,32(sp)
	.cfi_offset 1, -8
	.cfi_offset 8, -16
	addi	s0,sp,48
	.cfi_def_cfa 8, 0
	sd	a0,-40(s0)
	.loc 1 1926 11
	ld	a0,-40(s0)
	call	CoreLoadedImageInfo
	sd	a0,-32(s0)
	.loc 1 1927 6
	ld	a5,-32(s0)
	bne	a5,zero,.L230
	.loc 1 1931 12
	li	a5,-1
	slli	a5,a5,63
	addi	a5,a5,2
	sd	a5,-24(s0)
	.loc 1 1932 5
	j	.L231
.L230:
	.loc 1 1935 12
	ld	a5,-32(s0)
	lbu	a5,24(a5)
	.loc 1 1935 6
	beq	a5,zero,.L232
	.loc 1 1939 12
	li	a5,-1
	slli	a5,a5,63
	addi	a5,a5,3
	sd	a5,-24(s0)
	.loc 1 1940 20
	ld	a5,-32(s0)
	ld	a5,128(a5)
	.loc 1 1940 8
	beq	a5,zero,.L233
	.loc 1 1941 27
	ld	a5,-32(s0)
	ld	a5,128(a5)
	.loc 1 1941 16
	ld	a0,-40(s0)
	jalr	a5
.LVL8:
	sd	a0,-24(s0)
	j	.L233
.L232:
	.loc 1 1947 12
	sd	zero,-24(s0)
.L233:
	.loc 1 1950 7
	ld	a5,-24(s0)
	.loc 1 1950 6
	blt	a5,zero,.L235
	.loc 1 1954 5
	li	a1,1
	ld	a0,-32(s0)
	call	CoreUnloadAndCloseImage
	j	.L231
.L235:
	.loc 1 1957 1
	nop
.L231:
	.loc 1 1958 10
	ld	a5,-24(s0)
	.loc 1 1959 1
	mv	a0,a5
	ld	ra,40(sp)
	.cfi_restore 1
	ld	s0,32(sp)
	.cfi_restore 8
	.cfi_def_cfa 2, 48
	addi	sp,sp,48
	.cfi_def_cfa_offset 0
	jr	ra
	.cfi_endproc
.LFE14:
	.size	CoreUnloadImage, .-CoreUnloadImage
	.text
.Letext0:
	.file 2 "/home/kapoagaeming/Downloads/spacemit-image-builder/components/edk2/MdePkg/Include/RiscV64/ProcessorBind.h"
	.file 3 "/home/kapoagaeming/Downloads/spacemit-image-builder/components/edk2/MdePkg/Include/Base.h"
	.file 4 "/home/kapoagaeming/Downloads/spacemit-image-builder/components/edk2/MdePkg/Include/Uefi/UefiBaseType.h"
	.file 5 "/home/kapoagaeming/Downloads/spacemit-image-builder/components/edk2/MdePkg/Include/Uefi/UefiMultiPhase.h"
	.file 6 "/home/kapoagaeming/Downloads/spacemit-image-builder/components/edk2/MdePkg/Include/Protocol/DevicePath.h"
	.file 7 "/home/kapoagaeming/Downloads/spacemit-image-builder/components/edk2/MdePkg/Include/Protocol/SimpleTextIn.h"
	.file 8 "/home/kapoagaeming/Downloads/spacemit-image-builder/components/edk2/MdePkg/Include/Protocol/SimpleTextOut.h"
	.file 9 "/home/kapoagaeming/Downloads/spacemit-image-builder/components/edk2/MdePkg/Include/Uefi/UefiSpec.h"
	.file 10 "/home/kapoagaeming/Downloads/spacemit-image-builder/components/edk2/MdePkg/Include/Pi/PiFirmwareFile.h"
	.file 11 "/home/kapoagaeming/Downloads/spacemit-image-builder/components/edk2/MdePkg/Include/Pi/PiBootMode.h"
	.file 12 "/home/kapoagaeming/Downloads/spacemit-image-builder/components/edk2/MdePkg/Include/Pi/PiHob.h"
	.file 13 "/home/kapoagaeming/Downloads/spacemit-image-builder/components/edk2/MdePkg/Include/IndustryStandard/PeImage.h"
	.file 14 "/home/kapoagaeming/Downloads/spacemit-image-builder/components/Build/Milk-V-Jupiter/RELEASE_GCC5/RISCV64/MdeModulePkg/Core/Dxe/DxeMain/DEBUG/AutoGen.h"
	.file 15 "/home/kapoagaeming/Downloads/spacemit-image-builder/components/edk2/MdePkg/Include/Protocol/LoadedImage.h"
	.file 16 "/home/kapoagaeming/Downloads/spacemit-image-builder/components/edk2/MdePkg/Include/Protocol/Runtime.h"
	.file 17 "/home/kapoagaeming/Downloads/spacemit-image-builder/components/edk2/MdePkg/Include/Protocol/Security.h"
	.file 18 "/home/kapoagaeming/Downloads/spacemit-image-builder/components/edk2/MdePkg/Include/Protocol/Security2.h"
	.file 19 "/home/kapoagaeming/Downloads/spacemit-image-builder/components/edk2/MdeModulePkg/Include/Protocol/PeCoffImageEmulator.h"
	.file 20 "/home/kapoagaeming/Downloads/spacemit-image-builder/components/edk2/MdeModulePkg/Include/Guid/LoadModuleAtFixedAddress.h"
	.file 21 "/home/kapoagaeming/Downloads/spacemit-image-builder/components/edk2/MdePkg/Include/Library/BaseLib.h"
	.file 22 "/home/kapoagaeming/Downloads/spacemit-image-builder/components/edk2/MdePkg/Include/Library/PeCoffLib.h"
	.file 23 "/home/kapoagaeming/Downloads/spacemit-image-builder/components/edk2/MdeModulePkg/Core/Dxe/DxeMain.h"
	.file 24 "/home/kapoagaeming/Downloads/spacemit-image-builder/components/edk2/MdeModulePkg/Core/Dxe/Image/Image.h"
	.file 25 "/home/kapoagaeming/Downloads/spacemit-image-builder/components/edk2/MdePkg/Include/Library/MemoryAllocationLib.h"
	.file 26 "/home/kapoagaeming/Downloads/spacemit-image-builder/components/edk2/MdePkg/Include/Library/PerformanceLib.h"
	.file 27 "/home/kapoagaeming/Downloads/spacemit-image-builder/components/edk2/MdePkg/Include/Library/DevicePathLib.h"
	.file 28 "/home/kapoagaeming/Downloads/spacemit-image-builder/components/edk2/MdePkg/Include/Library/DxeServicesLib.h"
	.file 29 "/home/kapoagaeming/Downloads/spacemit-image-builder/components/edk2/MdePkg/Include/Library/DebugLib.h"
	.file 30 "/home/kapoagaeming/Downloads/spacemit-image-builder/components/edk2/MdePkg/Include/Library/CacheMaintenanceLib.h"
	.file 31 "/home/kapoagaeming/Downloads/spacemit-image-builder/components/edk2/MdePkg/Include/Library/BaseMemoryLib.h"
	.file 32 "/home/kapoagaeming/Downloads/spacemit-image-builder/components/edk2/MdePkg/Include/Library/PeCoffGetEntryPointLib.h"
	.file 33 "/home/kapoagaeming/Downloads/spacemit-image-builder/components/edk2/MdePkg/Include/Library/HobLib.h"
	.section	.note.GNU-stack,"",@progbits
