	.file	"NorFlashInfoLib.c"
	.option pic
	.option norelax
	.attribute arch, "rv64i2p1_m2p0_a2p1_f2p2_d2p2_c2p0_zicsr2p0_zifencei2p0_zmmul1p0_zaamo1p0_zalrsc1p0_zca1p0_zcd1p0"
	.attribute unaligned_access, 0
	.attribute stack_align, 16
	.text
.Ltext0:
	.cfi_sections	.debug_frame
	.file 0 "/home/kapoagaeming/spacemit-image-builder/components/Build/Milk-V-Jupiter/RELEASE_GCC5/RISCV64/EmbeddedPkg/Library/NorFlashInfoLib/NorFlashInfoLib" "/home/kapoagaeming/spacemit-image-builder/components/edk2/EmbeddedPkg/Library/NorFlashInfoLib/NorFlashInfoLib.c"
	.section	.rodata
	.align	3
.LC0:
	.string	"a"
	.string	"t"
	.string	"4"
	.string	"5"
	.string	"d"
	.string	"b"
	.string	"0"
	.string	"1"
	.string	"1"
	.string	"d"
	.zero	2
	.align	3
.LC1:
	.string	"a"
	.string	"t"
	.string	"4"
	.string	"5"
	.string	"d"
	.string	"b"
	.string	"0"
	.string	"2"
	.string	"1"
	.string	"d"
	.zero	2
	.align	3
.LC2:
	.string	"a"
	.string	"t"
	.string	"4"
	.string	"5"
	.string	"d"
	.string	"b"
	.string	"0"
	.string	"4"
	.string	"1"
	.string	"d"
	.zero	2
	.align	3
.LC3:
	.string	"a"
	.string	"t"
	.string	"4"
	.string	"5"
	.string	"d"
	.string	"b"
	.string	"0"
	.string	"8"
	.string	"1"
	.string	"d"
	.zero	2
	.align	3
.LC4:
	.string	"a"
	.string	"t"
	.string	"4"
	.string	"5"
	.string	"d"
	.string	"b"
	.string	"1"
	.string	"6"
	.string	"1"
	.string	"d"
	.zero	2
	.align	3
.LC5:
	.string	"a"
	.string	"t"
	.string	"4"
	.string	"5"
	.string	"d"
	.string	"b"
	.string	"3"
	.string	"2"
	.string	"1"
	.string	"d"
	.zero	2
	.align	3
.LC6:
	.string	"a"
	.string	"t"
	.string	"4"
	.string	"5"
	.string	"d"
	.string	"b"
	.string	"6"
	.string	"4"
	.string	"1"
	.string	"d"
	.zero	2
	.align	3
.LC7:
	.string	"a"
	.string	"t"
	.string	"2"
	.string	"5"
	.string	"d"
	.string	"f"
	.string	"3"
	.string	"2"
	.string	"1"
	.string	"a"
	.zero	2
	.align	3
.LC8:
	.string	"a"
	.string	"t"
	.string	"2"
	.string	"5"
	.string	"d"
	.string	"f"
	.string	"3"
	.string	"2"
	.string	"1"
	.zero	2
	.align	3
.LC9:
	.string	"a"
	.string	"t"
	.string	"2"
	.string	"6"
	.string	"d"
	.string	"f"
	.string	"0"
	.string	"8"
	.string	"1"
	.string	"a"
	.zero	2
	.align	3
.LC10:
	.string	"e"
	.string	"n"
	.string	"2"
	.string	"5"
	.string	"q"
	.string	"3"
	.string	"2"
	.string	"b"
	.zero	2
	.align	3
.LC11:
	.string	"e"
	.string	"n"
	.string	"2"
	.string	"5"
	.string	"q"
	.string	"6"
	.string	"4"
	.zero	2
	.align	3
.LC12:
	.string	"e"
	.string	"n"
	.string	"2"
	.string	"5"
	.string	"q"
	.string	"1"
	.string	"2"
	.string	"8"
	.string	"b"
	.zero	2
	.align	3
.LC13:
	.string	"e"
	.string	"n"
	.string	"2"
	.string	"5"
	.string	"s"
	.string	"6"
	.string	"4"
	.zero	2
	.align	3
.LC14:
	.string	"g"
	.string	"d"
	.string	"2"
	.string	"5"
	.string	"q"
	.string	"1"
	.string	"6"
	.zero	2
	.align	3
.LC15:
	.string	"g"
	.string	"d"
	.string	"2"
	.string	"5"
	.string	"q"
	.string	"3"
	.string	"2"
	.zero	2
	.align	3
.LC16:
	.string	"g"
	.string	"d"
	.string	"2"
	.string	"5"
	.string	"l"
	.string	"q"
	.string	"3"
	.string	"2"
	.zero	2
	.align	3
.LC17:
	.string	"g"
	.string	"d"
	.string	"2"
	.string	"5"
	.string	"q"
	.string	"6"
	.string	"4"
	.string	"b"
	.zero	2
	.align	3
.LC18:
	.string	"g"
	.string	"d"
	.string	"2"
	.string	"5"
	.string	"l"
	.string	"q"
	.string	"6"
	.string	"4"
	.string	"c"
	.zero	2
	.align	3
.LC19:
	.string	"g"
	.string	"d"
	.string	"2"
	.string	"5"
	.string	"q"
	.string	"1"
	.string	"2"
	.string	"8"
	.zero	2
	.align	3
.LC20:
	.string	"g"
	.string	"d"
	.string	"2"
	.string	"5"
	.string	"l"
	.string	"q"
	.string	"1"
	.string	"2"
	.string	"8"
	.zero	2
	.align	3
.LC21:
	.string	"g"
	.string	"d"
	.string	"2"
	.string	"5"
	.string	"q"
	.string	"2"
	.string	"5"
	.string	"6"
	.zero	2
	.align	3
.LC22:
	.string	"i"
	.string	"s"
	.string	"2"
	.string	"5"
	.string	"l"
	.string	"p"
	.string	"0"
	.string	"3"
	.string	"2"
	.zero	2
	.align	3
.LC23:
	.string	"i"
	.string	"s"
	.string	"2"
	.string	"5"
	.string	"l"
	.string	"p"
	.string	"0"
	.string	"6"
	.string	"4"
	.zero	2
	.align	3
.LC24:
	.string	"i"
	.string	"s"
	.string	"2"
	.string	"5"
	.string	"l"
	.string	"p"
	.string	"1"
	.string	"2"
	.string	"8"
	.zero	2
	.align	3
.LC25:
	.string	"s"
	.string	"k"
	.string	"2"
	.string	"5"
	.string	"l"
	.string	"p"
	.string	"1"
	.string	"2"
	.string	"8"
	.zero	2
	.align	3
.LC26:
	.string	"m"
	.string	"x"
	.string	"2"
	.string	"5"
	.string	"l"
	.string	"2"
	.string	"0"
	.string	"0"
	.string	"6"
	.string	"e"
	.zero	2
	.align	3
.LC27:
	.string	"m"
	.string	"x"
	.string	"2"
	.string	"5"
	.string	"l"
	.string	"4"
	.string	"0"
	.string	"0"
	.string	"5"
	.zero	2
	.align	3
.LC28:
	.string	"m"
	.string	"x"
	.string	"2"
	.string	"5"
	.string	"l"
	.string	"8"
	.string	"0"
	.string	"0"
	.string	"5"
	.zero	2
	.align	3
.LC29:
	.string	"m"
	.string	"x"
	.string	"2"
	.string	"5"
	.string	"l"
	.string	"1"
	.string	"6"
	.string	"0"
	.string	"5"
	.string	"d"
	.zero	2
	.align	3
.LC30:
	.string	"m"
	.string	"x"
	.string	"2"
	.string	"5"
	.string	"l"
	.string	"3"
	.string	"2"
	.string	"0"
	.string	"5"
	.string	"d"
	.zero	2
	.align	3
.LC31:
	.string	"m"
	.string	"x"
	.string	"2"
	.string	"5"
	.string	"l"
	.string	"6"
	.string	"4"
	.string	"0"
	.string	"5"
	.string	"d"
	.zero	2
	.align	3
.LC32:
	.string	"m"
	.string	"x"
	.string	"2"
	.string	"5"
	.string	"l"
	.string	"1"
	.string	"2"
	.string	"8"
	.string	"0"
	.string	"5"
	.zero	2
	.align	3
.LC33:
	.string	"m"
	.string	"x"
	.string	"2"
	.string	"5"
	.string	"l"
	.string	"2"
	.string	"5"
	.string	"6"
	.string	"3"
	.string	"5"
	.string	"f"
	.zero	2
	.align	3
.LC34:
	.string	"m"
	.string	"x"
	.string	"2"
	.string	"5"
	.string	"l"
	.string	"5"
	.string	"1"
	.string	"2"
	.string	"3"
	.string	"5"
	.string	"f"
	.zero	2
	.align	3
.LC35:
	.string	"m"
	.string	"x"
	.string	"2"
	.string	"5"
	.string	"l"
	.string	"1"
	.string	"2"
	.string	"8"
	.string	"5"
	.string	"5"
	.string	"e"
	.zero	2
	.align	3
.LC36:
	.string	"m"
	.string	"x"
	.string	"6"
	.string	"6"
	.string	"u"
	.string	"5"
	.string	"1"
	.string	"2"
	.string	"3"
	.string	"5"
	.string	"f"
	.zero	2
	.align	3
.LC37:
	.string	"m"
	.string	"x"
	.string	"6"
	.string	"6"
	.string	"u"
	.string	"1"
	.string	"g"
	.string	"4"
	.string	"5"
	.string	"g"
	.zero	2
	.align	3
.LC38:
	.string	"m"
	.string	"x"
	.string	"6"
	.string	"6"
	.string	"l"
	.string	"1"
	.string	"g"
	.string	"4"
	.string	"5"
	.string	"g"
	.zero	2
	.align	3
.LC39:
	.string	"s"
	.string	"2"
	.string	"5"
	.string	"f"
	.string	"l"
	.string	"0"
	.string	"0"
	.string	"8"
	.string	"a"
	.zero	2
	.align	3
.LC40:
	.string	"s"
	.string	"2"
	.string	"5"
	.string	"f"
	.string	"l"
	.string	"0"
	.string	"1"
	.string	"6"
	.string	"a"
	.zero	2
	.align	3
.LC41:
	.string	"s"
	.string	"2"
	.string	"5"
	.string	"f"
	.string	"l"
	.string	"0"
	.string	"3"
	.string	"2"
	.string	"a"
	.zero	2
	.align	3
.LC42:
	.string	"s"
	.string	"2"
	.string	"5"
	.string	"f"
	.string	"l"
	.string	"0"
	.string	"6"
	.string	"4"
	.string	"a"
	.zero	2
	.align	3
.LC43:
	.string	"s"
	.string	"2"
	.string	"5"
	.string	"f"
	.string	"l"
	.string	"1"
	.string	"1"
	.string	"6"
	.string	"k"
	.zero	2
	.align	3
.LC44:
	.string	"s"
	.string	"2"
	.string	"5"
	.string	"f"
	.string	"l"
	.string	"1"
	.string	"6"
	.string	"4"
	.string	"k"
	.zero	2
	.align	3
.LC45:
	.string	"s"
	.string	"2"
	.string	"5"
	.string	"f"
	.string	"l"
	.string	"1"
	.string	"2"
	.string	"8"
	.string	"p"
	.string	"_"
	.string	"2"
	.string	"5"
	.string	"6"
	.string	"k"
	.zero	2
	.align	3
.LC46:
	.string	"s"
	.string	"2"
	.string	"5"
	.string	"f"
	.string	"l"
	.string	"1"
	.string	"2"
	.string	"8"
	.string	"p"
	.string	"_"
	.string	"6"
	.string	"4"
	.string	"k"
	.zero	2
	.align	3
.LC47:
	.string	"s"
	.string	"2"
	.string	"5"
	.string	"f"
	.string	"l"
	.string	"0"
	.string	"3"
	.string	"2"
	.string	"p"
	.zero	2
	.align	3
.LC48:
	.string	"s"
	.string	"2"
	.string	"5"
	.string	"f"
	.string	"l"
	.string	"0"
	.string	"6"
	.string	"4"
	.string	"p"
	.zero	2
	.align	3
.LC49:
	.string	"s"
	.string	"2"
	.string	"5"
	.string	"f"
	.string	"l"
	.string	"1"
	.string	"2"
	.string	"8"
	.string	"s"
	.string	"_"
	.string	"2"
	.string	"5"
	.string	"6"
	.string	"k"
	.zero	2
	.align	3
.LC50:
	.string	"s"
	.string	"2"
	.string	"5"
	.string	"f"
	.string	"l"
	.string	"1"
	.string	"2"
	.string	"8"
	.string	"s"
	.string	"_"
	.string	"6"
	.string	"4"
	.string	"k"
	.zero	2
	.align	3
.LC51:
	.string	"s"
	.string	"2"
	.string	"5"
	.string	"f"
	.string	"l"
	.string	"2"
	.string	"5"
	.string	"6"
	.string	"s"
	.string	"_"
	.string	"2"
	.string	"5"
	.string	"6"
	.string	"k"
	.zero	2
	.align	3
.LC52:
	.string	"s"
	.string	"2"
	.string	"5"
	.string	"f"
	.string	"l"
	.string	"2"
	.string	"5"
	.string	"6"
	.string	"s"
	.string	"_"
	.string	"6"
	.string	"4"
	.string	"k"
	.zero	2
	.align	3
.LC53:
	.string	"s"
	.string	"2"
	.string	"5"
	.string	"f"
	.string	"l"
	.string	"5"
	.string	"1"
	.string	"2"
	.string	"s"
	.string	"_"
	.string	"2"
	.string	"5"
	.string	"6"
	.string	"k"
	.zero	2
	.align	3
.LC54:
	.string	"s"
	.string	"2"
	.string	"5"
	.string	"f"
	.string	"l"
	.string	"5"
	.string	"1"
	.string	"2"
	.string	"s"
	.string	"_"
	.string	"6"
	.string	"4"
	.string	"k"
	.zero	2
	.align	3
.LC55:
	.string	"s"
	.string	"2"
	.string	"5"
	.string	"f"
	.string	"l"
	.string	"5"
	.string	"1"
	.string	"2"
	.string	"s"
	.string	"_"
	.string	"5"
	.string	"1"
	.string	"2"
	.string	"k"
	.zero	2
	.align	3
.LC56:
	.string	"m"
	.string	"2"
	.string	"5"
	.string	"p"
	.string	"1"
	.string	"0"
	.zero	2
	.align	3
.LC57:
	.string	"m"
	.string	"2"
	.string	"5"
	.string	"p"
	.string	"2"
	.string	"0"
	.zero	2
	.align	3
.LC58:
	.string	"m"
	.string	"2"
	.string	"5"
	.string	"p"
	.string	"4"
	.string	"0"
	.zero	2
	.align	3
.LC59:
	.string	"m"
	.string	"2"
	.string	"5"
	.string	"p"
	.string	"8"
	.string	"0"
	.zero	2
	.align	3
.LC60:
	.string	"m"
	.string	"2"
	.string	"5"
	.string	"p"
	.string	"1"
	.string	"6"
	.zero	2
	.align	3
.LC61:
	.string	"m"
	.string	"2"
	.string	"5"
	.string	"p"
	.string	"E"
	.string	"1"
	.string	"6"
	.zero	2
	.align	3
.LC62:
	.string	"m"
	.string	"2"
	.string	"5"
	.string	"p"
	.string	"X"
	.string	"1"
	.string	"6"
	.zero	2
	.align	3
.LC63:
	.string	"m"
	.string	"2"
	.string	"5"
	.string	"p"
	.string	"3"
	.string	"2"
	.zero	2
	.align	3
.LC64:
	.string	"m"
	.string	"2"
	.string	"5"
	.string	"p"
	.string	"6"
	.string	"4"
	.zero	2
	.align	3
.LC65:
	.string	"m"
	.string	"2"
	.string	"5"
	.string	"p"
	.string	"1"
	.string	"2"
	.string	"8"
	.zero	2
	.align	3
.LC66:
	.string	"m"
	.string	"2"
	.string	"5"
	.string	"p"
	.string	"X"
	.string	"6"
	.string	"4"
	.zero	2
	.align	3
.LC67:
	.string	"n"
	.string	"2"
	.string	"5"
	.string	"q"
	.string	"0"
	.string	"1"
	.string	"6"
	.string	"a"
	.zero	2
	.align	3
.LC68:
	.string	"n"
	.string	"2"
	.string	"5"
	.string	"q"
	.string	"3"
	.string	"2"
	.zero	2
	.align	3
.LC69:
	.string	"n"
	.string	"2"
	.string	"5"
	.string	"q"
	.string	"3"
	.string	"2"
	.string	"a"
	.zero	2
	.align	3
.LC70:
	.string	"n"
	.string	"2"
	.string	"5"
	.string	"q"
	.string	"6"
	.string	"4"
	.zero	2
	.align	3
.LC71:
	.string	"n"
	.string	"2"
	.string	"5"
	.string	"q"
	.string	"6"
	.string	"4"
	.string	"a"
	.zero	2
	.align	3
.LC72:
	.string	"n"
	.string	"2"
	.string	"5"
	.string	"q"
	.string	"1"
	.string	"2"
	.string	"8"
	.zero	2
	.align	3
.LC73:
	.string	"n"
	.string	"2"
	.string	"5"
	.string	"q"
	.string	"1"
	.string	"2"
	.string	"8"
	.string	"a"
	.zero	2
	.align	3
.LC74:
	.string	"n"
	.string	"2"
	.string	"5"
	.string	"q"
	.string	"2"
	.string	"5"
	.string	"6"
	.zero	2
	.align	3
.LC75:
	.string	"n"
	.string	"2"
	.string	"5"
	.string	"q"
	.string	"2"
	.string	"5"
	.string	"6"
	.string	"a"
	.zero	2
	.align	3
.LC76:
	.string	"n"
	.string	"2"
	.string	"5"
	.string	"q"
	.string	"5"
	.string	"1"
	.string	"2"
	.zero	2
	.align	3
.LC77:
	.string	"n"
	.string	"2"
	.string	"5"
	.string	"q"
	.string	"5"
	.string	"1"
	.string	"2"
	.string	"a"
	.zero	2
	.align	3
.LC78:
	.string	"n"
	.string	"2"
	.string	"5"
	.string	"q"
	.string	"1"
	.string	"0"
	.string	"2"
	.string	"4"
	.zero	2
	.align	3
.LC79:
	.string	"n"
	.string	"2"
	.string	"5"
	.string	"q"
	.string	"1"
	.string	"0"
	.string	"2"
	.string	"4"
	.string	"a"
	.zero	2
	.align	3
.LC80:
	.string	"m"
	.string	"t"
	.string	"2"
	.string	"5"
	.string	"q"
	.string	"u"
	.string	"0"
	.string	"2"
	.string	"g"
	.zero	2
	.align	3
.LC81:
	.string	"m"
	.string	"t"
	.string	"2"
	.string	"5"
	.string	"q"
	.string	"l"
	.string	"0"
	.string	"2"
	.string	"g"
	.zero	2
	.align	3
.LC82:
	.string	"s"
	.string	"s"
	.string	"t"
	.string	"2"
	.string	"5"
	.string	"v"
	.string	"f"
	.string	"0"
	.string	"4"
	.string	"0"
	.string	"b"
	.zero	2
	.align	3
.LC83:
	.string	"s"
	.string	"s"
	.string	"t"
	.string	"2"
	.string	"5"
	.string	"v"
	.string	"f"
	.string	"0"
	.string	"8"
	.string	"0"
	.string	"b"
	.zero	2
	.align	3
.LC84:
	.string	"s"
	.string	"s"
	.string	"t"
	.string	"2"
	.string	"5"
	.string	"v"
	.string	"f"
	.string	"0"
	.string	"1"
	.string	"6"
	.string	"b"
	.zero	2
	.align	3
.LC85:
	.string	"s"
	.string	"s"
	.string	"t"
	.string	"2"
	.string	"5"
	.string	"v"
	.string	"f"
	.string	"0"
	.string	"3"
	.string	"2"
	.string	"b"
	.zero	2
	.align	3
.LC86:
	.string	"s"
	.string	"s"
	.string	"t"
	.string	"2"
	.string	"5"
	.string	"v"
	.string	"f"
	.string	"0"
	.string	"6"
	.string	"4"
	.string	"c"
	.zero	2
	.align	3
.LC87:
	.string	"s"
	.string	"s"
	.string	"t"
	.string	"2"
	.string	"5"
	.string	"w"
	.string	"f"
	.string	"5"
	.string	"1"
	.string	"2"
	.zero	2
	.align	3
.LC88:
	.string	"s"
	.string	"s"
	.string	"t"
	.string	"2"
	.string	"5"
	.string	"w"
	.string	"f"
	.string	"0"
	.string	"1"
	.string	"0"
	.zero	2
	.align	3
.LC89:
	.string	"s"
	.string	"s"
	.string	"t"
	.string	"2"
	.string	"5"
	.string	"w"
	.string	"f"
	.string	"0"
	.string	"2"
	.string	"0"
	.zero	2
	.align	3
.LC90:
	.string	"s"
	.string	"s"
	.string	"t"
	.string	"2"
	.string	"5"
	.string	"w"
	.string	"f"
	.string	"0"
	.string	"4"
	.string	"0"
	.zero	2
	.align	3
.LC91:
	.string	"s"
	.string	"s"
	.string	"t"
	.string	"2"
	.string	"5"
	.string	"w"
	.string	"f"
	.string	"0"
	.string	"4"
	.string	"0"
	.string	"b"
	.zero	2
	.align	3
.LC92:
	.string	"s"
	.string	"s"
	.string	"t"
	.string	"2"
	.string	"5"
	.string	"w"
	.string	"f"
	.string	"0"
	.string	"8"
	.string	"0"
	.zero	2
	.align	3
.LC93:
	.string	"w"
	.string	"2"
	.string	"5"
	.string	"p"
	.string	"8"
	.string	"0"
	.zero	2
	.align	3
.LC94:
	.string	"w"
	.string	"2"
	.string	"5"
	.string	"p"
	.string	"1"
	.string	"6"
	.zero	2
	.align	3
.LC95:
	.string	"w"
	.string	"2"
	.string	"5"
	.string	"p"
	.string	"3"
	.string	"2"
	.zero	2
	.align	3
.LC96:
	.string	"w"
	.string	"2"
	.string	"5"
	.string	"x"
	.string	"4"
	.string	"0"
	.zero	2
	.align	3
.LC97:
	.string	"w"
	.string	"2"
	.string	"5"
	.string	"x"
	.string	"1"
	.string	"6"
	.zero	2
	.align	3
.LC98:
	.string	"w"
	.string	"2"
	.string	"5"
	.string	"x"
	.string	"3"
	.string	"2"
	.zero	2
	.align	3
.LC99:
	.string	"w"
	.string	"2"
	.string	"5"
	.string	"x"
	.string	"6"
	.string	"4"
	.zero	2
	.align	3
.LC100:
	.string	"w"
	.string	"2"
	.string	"5"
	.string	"q"
	.string	"8"
	.string	"0"
	.string	"b"
	.string	"l"
	.zero	2
	.align	3
.LC101:
	.string	"w"
	.string	"2"
	.string	"5"
	.string	"q"
	.string	"1"
	.string	"6"
	.string	"c"
	.string	"l"
	.zero	2
	.align	3
.LC102:
	.string	"w"
	.string	"2"
	.string	"5"
	.string	"q"
	.string	"3"
	.string	"2"
	.string	"b"
	.string	"v"
	.zero	2
	.align	3
.LC103:
	.string	"w"
	.string	"2"
	.string	"5"
	.string	"q"
	.string	"6"
	.string	"4"
	.string	"c"
	.string	"v"
	.zero	2
	.align	3
.LC104:
	.string	"w"
	.string	"2"
	.string	"5"
	.string	"q"
	.string	"1"
	.string	"2"
	.string	"8"
	.string	"b"
	.string	"v"
	.zero	2
	.align	3
.LC105:
	.string	"w"
	.string	"2"
	.string	"5"
	.string	"q"
	.string	"2"
	.string	"5"
	.string	"6"
	.zero	2
	.align	3
.LC106:
	.string	"w"
	.string	"2"
	.string	"5"
	.string	"q"
	.string	"8"
	.string	"0"
	.string	"b"
	.string	"w"
	.zero	2
	.align	3
.LC107:
	.string	"w"
	.string	"2"
	.string	"5"
	.string	"q"
	.string	"1"
	.string	"6"
	.string	"d"
	.string	"w"
	.zero	2
	.align	3
.LC108:
	.string	"w"
	.string	"2"
	.string	"5"
	.string	"q"
	.string	"3"
	.string	"2"
	.string	"d"
	.string	"w"
	.zero	2
	.align	3
.LC109:
	.string	"w"
	.string	"2"
	.string	"5"
	.string	"q"
	.string	"6"
	.string	"4"
	.string	"d"
	.string	"w"
	.zero	2
	.align	3
.LC110:
	.string	"w"
	.string	"2"
	.string	"5"
	.string	"q"
	.string	"1"
	.string	"2"
	.string	"8"
	.string	"f"
	.string	"w"
	.zero	2
	.section	.data.rel.ro.local.NorFlashIds,"aw"
	.align	3
	.type	NorFlashIds, @object
	.size	NorFlashIds, 3584
NorFlashIds:
	.dword	.LC0
	.base64	"HyIAAA=="
	.zero	2
	.byte	3
	.zero	1
	.half	256
	.zero	2
	.word	65536
	.word	4
	.half	1
	.zero	2
	.dword	.LC1
	.base64	"HyMAAA=="
	.zero	2
	.byte	3
	.zero	1
	.half	256
	.zero	2
	.word	65536
	.word	8
	.half	1
	.zero	2
	.dword	.LC2
	.base64	"HyQAAA=="
	.zero	2
	.byte	3
	.zero	1
	.half	256
	.zero	2
	.word	65536
	.word	8
	.half	1
	.zero	2
	.dword	.LC3
	.base64	"HyUAAA=="
	.zero	2
	.byte	3
	.zero	1
	.half	256
	.zero	2
	.word	65536
	.word	16
	.half	1
	.zero	2
	.dword	.LC4
	.base64	"HyYAAA=="
	.zero	2
	.byte	3
	.zero	1
	.half	256
	.zero	2
	.word	65536
	.word	32
	.half	1
	.zero	2
	.dword	.LC5
	.base64	"HycAAA=="
	.zero	2
	.byte	3
	.zero	1
	.half	256
	.zero	2
	.word	65536
	.word	64
	.half	1
	.zero	2
	.dword	.LC6
	.base64	"HygAAA=="
	.zero	2
	.byte	3
	.zero	1
	.half	256
	.zero	2
	.word	65536
	.word	128
	.half	1
	.zero	2
	.dword	.LC7
	.base64	"H0cBAA=="
	.zero	2
	.byte	3
	.zero	1
	.half	256
	.zero	2
	.word	65536
	.word	64
	.half	1
	.zero	2
	.dword	.LC8
	.base64	"H0cAAA=="
	.zero	2
	.byte	3
	.zero	1
	.half	256
	.zero	2
	.word	65536
	.word	64
	.half	1
	.zero	2
	.dword	.LC9
	.base64	"H0UBAA=="
	.zero	2
	.byte	3
	.zero	1
	.half	256
	.zero	2
	.word	65536
	.word	16
	.half	1
	.zero	2
	.dword	.LC10
	.base64	"HDAWAA=="
	.zero	2
	.byte	3
	.zero	1
	.half	256
	.zero	2
	.word	65536
	.word	64
	.half	0
	.zero	2
	.dword	.LC11
	.base64	"HDAXAA=="
	.zero	2
	.byte	3
	.zero	1
	.half	256
	.zero	2
	.word	65536
	.word	128
	.half	1
	.zero	2
	.dword	.LC12
	.base64	"HDAYAA=="
	.zero	2
	.byte	3
	.zero	1
	.half	256
	.zero	2
	.word	65536
	.word	256
	.half	0
	.zero	2
	.dword	.LC13
	.base64	"HDgXAA=="
	.zero	2
	.byte	3
	.zero	1
	.half	256
	.zero	2
	.word	65536
	.word	128
	.half	0
	.zero	2
	.dword	.LC14
	.base64	"yEAVAA=="
	.zero	2
	.byte	3
	.zero	1
	.half	256
	.zero	2
	.word	65536
	.word	32
	.half	1
	.zero	2
	.dword	.LC15
	.base64	"yEAWAA=="
	.zero	2
	.byte	3
	.zero	1
	.half	256
	.zero	2
	.word	65536
	.word	64
	.half	1
	.zero	2
	.dword	.LC16
	.base64	"yGAWAA=="
	.zero	2
	.byte	3
	.zero	1
	.half	256
	.zero	2
	.word	65536
	.word	64
	.half	1
	.zero	2
	.dword	.LC17
	.base64	"yEAXAA=="
	.zero	2
	.byte	3
	.zero	1
	.half	256
	.zero	2
	.word	65536
	.word	128
	.half	1
	.zero	2
	.dword	.LC18
	.base64	"yGAXAA=="
	.zero	2
	.byte	3
	.zero	1
	.half	256
	.zero	2
	.word	65536
	.word	128
	.half	1
	.zero	2
	.dword	.LC19
	.base64	"yEAYAA=="
	.zero	2
	.byte	3
	.zero	1
	.half	256
	.zero	2
	.word	65536
	.word	256
	.half	1
	.zero	2
	.dword	.LC20
	.base64	"yGAYAA=="
	.zero	2
	.byte	3
	.zero	1
	.half	256
	.zero	2
	.word	65536
	.word	256
	.half	1
	.zero	2
	.dword	.LC21
	.base64	"yEAZAA=="
	.zero	2
	.byte	3
	.zero	1
	.half	256
	.zero	2
	.word	65536
	.word	512
	.half	1
	.zero	2
	.dword	.LC22
	.base64	"nWAWAA=="
	.zero	2
	.byte	3
	.zero	1
	.half	256
	.zero	2
	.word	65536
	.word	64
	.half	0
	.zero	2
	.dword	.LC23
	.base64	"nWAXAA=="
	.zero	2
	.byte	3
	.zero	1
	.half	256
	.zero	2
	.word	65536
	.word	128
	.half	0
	.zero	2
	.dword	.LC24
	.base64	"nWAYAA=="
	.zero	2
	.byte	3
	.zero	1
	.half	256
	.zero	2
	.word	65536
	.word	256
	.half	0
	.zero	2
	.dword	.LC25
	.string	"'p\030"
	.zero	2
	.byte	3
	.zero	1
	.half	256
	.zero	2
	.word	65536
	.word	256
	.half	1
	.zero	2
	.dword	.LC26
	.base64	"wiASAA=="
	.zero	2
	.byte	3
	.zero	1
	.half	256
	.zero	2
	.word	65536
	.word	4
	.half	0
	.zero	2
	.dword	.LC27
	.base64	"wiATAA=="
	.zero	2
	.byte	3
	.zero	1
	.half	256
	.zero	2
	.word	65536
	.word	8
	.half	0
	.zero	2
	.dword	.LC28
	.base64	"wiAUAA=="
	.zero	2
	.byte	3
	.zero	1
	.half	256
	.zero	2
	.word	65536
	.word	16
	.half	0
	.zero	2
	.dword	.LC29
	.base64	"wiAVAA=="
	.zero	2
	.byte	3
	.zero	1
	.half	256
	.zero	2
	.word	65536
	.word	32
	.half	0
	.zero	2
	.dword	.LC30
	.base64	"wiAWAA=="
	.zero	2
	.byte	3
	.zero	1
	.half	256
	.zero	2
	.word	65536
	.word	64
	.half	0
	.zero	2
	.dword	.LC31
	.base64	"wiAXAA=="
	.zero	2
	.byte	3
	.zero	1
	.half	256
	.zero	2
	.word	65536
	.word	128
	.half	0
	.zero	2
	.dword	.LC32
	.base64	"wiAYAA=="
	.zero	2
	.byte	3
	.zero	1
	.half	256
	.zero	2
	.word	65536
	.word	256
	.half	0
	.zero	2
	.dword	.LC33
	.base64	"wiAZAA=="
	.zero	2
	.byte	3
	.zero	1
	.half	256
	.zero	2
	.word	65536
	.word	512
	.half	0
	.zero	2
	.dword	.LC34
	.base64	"wiAaAA=="
	.zero	2
	.byte	3
	.zero	1
	.half	256
	.zero	2
	.word	65536
	.word	1024
	.half	0
	.zero	2
	.dword	.LC35
	.base64	"wiYYAA=="
	.zero	2
	.byte	3
	.zero	1
	.half	256
	.zero	2
	.word	65536
	.word	256
	.half	0
	.zero	2
	.dword	.LC36
	.string	"\302%:"
	.zero	2
	.byte	3
	.zero	1
	.half	256
	.zero	2
	.word	65536
	.word	1024
	.half	0
	.zero	2
	.dword	.LC37
	.string	"\302%;"
	.zero	2
	.byte	3
	.zero	1
	.half	256
	.zero	2
	.word	65536
	.word	2048
	.half	0
	.zero	2
	.dword	.LC38
	.base64	"wiAbAA=="
	.zero	2
	.byte	3
	.zero	1
	.half	256
	.zero	2
	.word	65536
	.word	2048
	.half	0
	.zero	2
	.dword	.LC39
	.base64	"AQITAA=="
	.zero	2
	.byte	3
	.zero	1
	.half	256
	.zero	2
	.word	65536
	.word	16
	.half	0
	.zero	2
	.dword	.LC40
	.base64	"AQIUAA=="
	.zero	2
	.byte	3
	.zero	1
	.half	256
	.zero	2
	.word	65536
	.word	32
	.half	0
	.zero	2
	.dword	.LC41
	.base64	"AQIVAA=="
	.zero	2
	.byte	3
	.zero	1
	.half	256
	.zero	2
	.word	65536
	.word	64
	.half	0
	.zero	2
	.dword	.LC42
	.base64	"AQIWAA=="
	.zero	2
	.byte	3
	.zero	1
	.half	256
	.zero	2
	.word	65536
	.word	128
	.half	0
	.zero	2
	.dword	.LC43
	.base64	"AUAVAA=="
	.zero	2
	.byte	3
	.zero	1
	.half	256
	.zero	2
	.word	65536
	.word	128
	.half	0
	.zero	2
	.dword	.LC44
	.base64	"AUAXAUAA"
	.byte	5
	.zero	1
	.half	256
	.zero	2
	.word	65536
	.word	128
	.half	0
	.zero	2
	.dword	.LC45
	.base64	"ASAYAwAA"
	.byte	5
	.zero	1
	.half	256
	.zero	2
	.word	262144
	.word	64
	.half	0
	.zero	2
	.dword	.LC46
	.base64	"ASAYAwEA"
	.byte	5
	.zero	1
	.half	256
	.zero	2
	.word	65536
	.word	256
	.half	0
	.zero	2
	.dword	.LC47
	.base64	"AQIVTQAA"
	.byte	5
	.zero	1
	.half	256
	.zero	2
	.word	65536
	.word	64
	.half	0
	.zero	2
	.dword	.LC48
	.base64	"AQIWTQAA"
	.byte	5
	.zero	1
	.half	256
	.zero	2
	.word	65536
	.word	128
	.half	0
	.zero	2
	.dword	.LC49
	.base64	"ASAYTQAA"
	.byte	5
	.zero	1
	.half	256
	.zero	2
	.word	262144
	.word	64
	.half	0
	.zero	2
	.dword	.LC50
	.base64	"ASAYTQEA"
	.byte	5
	.zero	1
	.half	256
	.zero	2
	.word	65536
	.word	256
	.half	0
	.zero	2
	.dword	.LC51
	.base64	"AQIZTQAA"
	.byte	5
	.zero	1
	.half	256
	.zero	2
	.word	262144
	.word	128
	.half	0
	.zero	2
	.dword	.LC52
	.base64	"AQIZTQEA"
	.byte	5
	.zero	1
	.half	256
	.zero	2
	.word	65536
	.word	512
	.half	0
	.zero	2
	.dword	.LC53
	.base64	"AQIgTQAA"
	.byte	5
	.zero	1
	.half	256
	.zero	2
	.word	262144
	.word	256
	.half	0
	.zero	2
	.dword	.LC54
	.base64	"AQIgTQEA"
	.byte	5
	.zero	1
	.half	256
	.zero	2
	.word	65536
	.word	1024
	.half	0
	.zero	2
	.dword	.LC55
	.base64	"AQIgTwAA"
	.byte	5
	.zero	1
	.half	256
	.zero	2
	.word	262144
	.word	256
	.half	0
	.zero	2
	.dword	.LC56
	.string	"  \021"
	.zero	2
	.byte	3
	.zero	1
	.half	256
	.zero	2
	.word	32768
	.word	4
	.half	0
	.zero	2
	.dword	.LC57
	.string	"  \022"
	.zero	2
	.byte	3
	.zero	1
	.half	256
	.zero	2
	.word	65536
	.word	4
	.half	0
	.zero	2
	.dword	.LC58
	.string	"  \023"
	.zero	2
	.byte	3
	.zero	1
	.half	256
	.zero	2
	.word	65536
	.word	8
	.half	0
	.zero	2
	.dword	.LC59
	.string	"  \024"
	.zero	2
	.byte	3
	.zero	1
	.half	256
	.zero	2
	.word	65536
	.word	16
	.half	0
	.zero	2
	.dword	.LC60
	.string	"  \025"
	.zero	2
	.byte	3
	.zero	1
	.half	256
	.zero	2
	.word	65536
	.word	32
	.half	0
	.zero	2
	.dword	.LC61
	.base64	"IIAVEAAA"
	.byte	5
	.zero	1
	.half	256
	.zero	2
	.word	65536
	.word	32
	.half	0
	.zero	2
	.dword	.LC62
	.base64	"IHEVEAAA"
	.byte	5
	.zero	1
	.half	256
	.zero	2
	.word	65536
	.word	32
	.half	0
	.zero	2
	.dword	.LC63
	.string	"  \026"
	.zero	2
	.byte	3
	.zero	1
	.half	256
	.zero	2
	.word	65536
	.word	64
	.half	0
	.zero	2
	.dword	.LC64
	.string	"  \027"
	.zero	2
	.byte	3
	.zero	1
	.half	256
	.zero	2
	.word	65536
	.word	128
	.half	0
	.zero	2
	.dword	.LC65
	.string	"  \030"
	.zero	2
	.byte	3
	.zero	1
	.half	256
	.zero	2
	.word	262144
	.word	64
	.half	0
	.zero	2
	.dword	.LC66
	.string	" q\027"
	.zero	2
	.byte	3
	.zero	1
	.half	256
	.zero	2
	.word	65536
	.word	128
	.half	1
	.zero	2
	.dword	.LC67
	.base64	"ILsVAA=="
	.zero	2
	.byte	3
	.zero	1
	.half	256
	.zero	2
	.word	65536
	.word	32
	.half	1
	.zero	2
	.dword	.LC68
	.base64	"ILoWAA=="
	.zero	2
	.byte	3
	.zero	1
	.half	256
	.zero	2
	.word	65536
	.word	64
	.half	1
	.zero	2
	.dword	.LC69
	.base64	"ILsWAA=="
	.zero	2
	.byte	3
	.zero	1
	.half	256
	.zero	2
	.word	65536
	.word	64
	.half	1
	.zero	2
	.dword	.LC70
	.base64	"ILoXAA=="
	.zero	2
	.byte	3
	.zero	1
	.half	256
	.zero	2
	.word	65536
	.word	128
	.half	1
	.zero	2
	.dword	.LC71
	.base64	"ILsXAA=="
	.zero	2
	.byte	3
	.zero	1
	.half	256
	.zero	2
	.word	65536
	.word	128
	.half	1
	.zero	2
	.dword	.LC72
	.base64	"ILoYAA=="
	.zero	2
	.byte	3
	.zero	1
	.half	256
	.zero	2
	.word	65536
	.word	256
	.half	0
	.zero	2
	.dword	.LC73
	.base64	"ILsYAA=="
	.zero	2
	.byte	3
	.zero	1
	.half	256
	.zero	2
	.word	65536
	.word	256
	.half	0
	.zero	2
	.dword	.LC74
	.base64	"ILoZAA=="
	.zero	2
	.byte	3
	.zero	1
	.half	256
	.zero	2
	.word	65536
	.word	512
	.half	1
	.zero	2
	.dword	.LC75
	.base64	"ILsZAA=="
	.zero	2
	.byte	3
	.zero	1
	.half	256
	.zero	2
	.word	65536
	.word	512
	.half	1
	.zero	2
	.dword	.LC76
	.string	" \272 "
	.zero	2
	.byte	3
	.zero	1
	.half	256
	.zero	2
	.word	65536
	.word	1024
	.half	5
	.zero	2
	.dword	.LC77
	.string	" \273 "
	.zero	2
	.byte	3
	.zero	1
	.half	256
	.zero	2
	.word	65536
	.word	1024
	.half	5
	.zero	2
	.dword	.LC78
	.string	" \272!"
	.zero	2
	.byte	3
	.zero	1
	.half	256
	.zero	2
	.word	65536
	.word	2048
	.half	5
	.zero	2
	.dword	.LC79
	.string	" \273!"
	.zero	2
	.byte	3
	.zero	1
	.half	256
	.zero	2
	.word	65536
	.word	2048
	.half	5
	.zero	2
	.dword	.LC80
	.string	" \273\""
	.zero	2
	.byte	3
	.zero	1
	.half	256
	.zero	2
	.word	65536
	.word	4096
	.half	5
	.zero	2
	.dword	.LC81
	.string	" \272\""
	.zero	2
	.byte	3
	.zero	1
	.half	256
	.zero	2
	.word	65536
	.word	4096
	.half	5
	.zero	2
	.dword	.LC82
	.base64	"vyWNAA=="
	.zero	2
	.byte	3
	.zero	1
	.half	256
	.zero	2
	.word	65536
	.word	8
	.half	1
	.zero	2
	.dword	.LC83
	.base64	"vyWOAA=="
	.zero	2
	.byte	3
	.zero	1
	.half	256
	.zero	2
	.word	65536
	.word	16
	.half	1
	.zero	2
	.dword	.LC84
	.string	"\277%A"
	.zero	2
	.byte	3
	.zero	1
	.half	256
	.zero	2
	.word	65536
	.word	32
	.half	1
	.zero	2
	.dword	.LC85
	.string	"\277%J"
	.zero	2
	.byte	3
	.zero	1
	.half	256
	.zero	2
	.word	65536
	.word	64
	.half	1
	.zero	2
	.dword	.LC86
	.string	"\277%K"
	.zero	2
	.byte	3
	.zero	1
	.half	256
	.zero	2
	.word	65536
	.word	128
	.half	1
	.zero	2
	.dword	.LC87
	.base64	"vyUBAA=="
	.zero	2
	.byte	3
	.zero	1
	.half	256
	.zero	2
	.word	65536
	.word	1
	.half	1
	.zero	2
	.dword	.LC88
	.base64	"vyUCAA=="
	.zero	2
	.byte	3
	.zero	1
	.half	256
	.zero	2
	.word	65536
	.word	2
	.half	1
	.zero	2
	.dword	.LC89
	.base64	"vyUDAA=="
	.zero	2
	.byte	3
	.zero	1
	.half	256
	.zero	2
	.word	65536
	.word	4
	.half	1
	.zero	2
	.dword	.LC90
	.base64	"vyUEAA=="
	.zero	2
	.byte	3
	.zero	1
	.half	256
	.zero	2
	.word	65536
	.word	8
	.half	1
	.zero	2
	.dword	.LC91
	.base64	"YhYTAA=="
	.zero	2
	.byte	3
	.zero	1
	.half	256
	.zero	2
	.word	65536
	.word	8
	.half	1
	.zero	2
	.dword	.LC92
	.base64	"vyUFAA=="
	.zero	2
	.byte	3
	.zero	1
	.half	256
	.zero	2
	.word	65536
	.word	16
	.half	1
	.zero	2
	.dword	.LC93
	.base64	"7yAUAA=="
	.zero	2
	.byte	3
	.zero	1
	.half	256
	.zero	2
	.word	65536
	.word	16
	.half	0
	.zero	2
	.dword	.LC94
	.base64	"7yAVAA=="
	.zero	2
	.byte	3
	.zero	1
	.half	256
	.zero	2
	.word	65536
	.word	32
	.half	0
	.zero	2
	.dword	.LC95
	.base64	"7yAWAA=="
	.zero	2
	.byte	3
	.zero	1
	.half	256
	.zero	2
	.word	65536
	.word	64
	.half	0
	.zero	2
	.dword	.LC96
	.base64	"7zATAA=="
	.zero	2
	.byte	3
	.zero	1
	.half	256
	.zero	2
	.word	65536
	.word	8
	.half	1
	.zero	2
	.dword	.LC97
	.base64	"7zAVAA=="
	.zero	2
	.byte	3
	.zero	1
	.half	256
	.zero	2
	.word	65536
	.word	32
	.half	1
	.zero	2
	.dword	.LC98
	.base64	"7zAWAA=="
	.zero	2
	.byte	3
	.zero	1
	.half	256
	.zero	2
	.word	65536
	.word	64
	.half	1
	.zero	2
	.dword	.LC99
	.base64	"7zAXAA=="
	.zero	2
	.byte	3
	.zero	1
	.half	256
	.zero	2
	.word	65536
	.word	128
	.half	1
	.zero	2
	.dword	.LC100
	.base64	"70AUAA=="
	.zero	2
	.byte	3
	.zero	1
	.half	256
	.zero	2
	.word	65536
	.word	16
	.half	1
	.zero	2
	.dword	.LC101
	.base64	"70AVAA=="
	.zero	2
	.byte	3
	.zero	1
	.half	256
	.zero	2
	.word	65536
	.word	32
	.half	1
	.zero	2
	.dword	.LC102
	.base64	"70AWAA=="
	.zero	2
	.byte	3
	.zero	1
	.half	256
	.zero	2
	.word	65536
	.word	64
	.half	1
	.zero	2
	.dword	.LC103
	.base64	"70AXAA=="
	.zero	2
	.byte	3
	.zero	1
	.half	256
	.zero	2
	.word	65536
	.word	128
	.half	1
	.zero	2
	.dword	.LC104
	.base64	"70AYAA=="
	.zero	2
	.byte	3
	.zero	1
	.half	256
	.zero	2
	.word	65536
	.word	256
	.half	1
	.zero	2
	.dword	.LC105
	.base64	"70AZAA=="
	.zero	2
	.byte	3
	.zero	1
	.half	256
	.zero	2
	.word	65536
	.word	512
	.half	1
	.zero	2
	.dword	.LC106
	.base64	"71AUAA=="
	.zero	2
	.byte	3
	.zero	1
	.half	256
	.zero	2
	.word	65536
	.word	16
	.half	1
	.zero	2
	.dword	.LC107
	.base64	"72AVAA=="
	.zero	2
	.byte	3
	.zero	1
	.half	256
	.zero	2
	.word	65536
	.word	32
	.half	1
	.zero	2
	.dword	.LC108
	.base64	"72AWAA=="
	.zero	2
	.byte	3
	.zero	1
	.half	256
	.zero	2
	.word	65536
	.word	64
	.half	1
	.zero	2
	.dword	.LC109
	.base64	"72AXAA=="
	.zero	2
	.byte	3
	.zero	1
	.half	256
	.zero	2
	.word	65536
	.word	128
	.half	1
	.zero	2
	.dword	.LC110
	.base64	"72AYAA=="
	.zero	2
	.byte	3
	.zero	1
	.half	256
	.zero	2
	.word	65536
	.word	256
	.half	1
	.zero	2
	.zero	32
	.section	.text.NorFlashGetInfo,"ax",@progbits
	.align	1
	.globl	NorFlashGetInfo
	.type	NorFlashGetInfo, @function
NorFlashGetInfo:
.LFB0:
	.file 1 "/home/kapoagaeming/spacemit-image-builder/components/edk2/EmbeddedPkg/Library/NorFlashInfoLib/NorFlashInfoLib.c"
	.loc 1 167 1
	.cfi_startproc
	addi	sp,sp,-64
	.cfi_def_cfa_offset 64
	sd	ra,56(sp)
	sd	s0,48(sp)
	.cfi_offset 1, -8
	.cfi_offset 8, -16
	addi	s0,sp,64
	.cfi_def_cfa 8, 0
	sd	a0,-40(s0)
	sd	a1,-48(s0)
	mv	a5,a2
	sb	a5,-49(s0)
	.loc 1 173 11
	lla	a5,NorFlashIds
	sd	a5,-24(s0)
	.loc 1 174 3
	j	.L2
.L5:
	.loc 1 175 28
	ld	a5,-24(s0)
	addi	a4,a5,8
	.loc 1 175 45
	ld	a5,-24(s0)
	lbu	a5,14(a5)
	.loc 1 175 9
	mv	a2,a5
	ld	a1,-40(s0)
	mv	a0,a4
	call	CompareMem@plt
	mv	a5,a0
	.loc 1 175 8 discriminator 1
	beq	a5,zero,.L11
	.loc 1 174 49
	ld	a5,-24(s0)
	addi	a5,a5,32
	sd	a5,-24(s0)
.L2:
	.loc 1 174 18 discriminator 1
	ld	a5,-24(s0)
	ld	a5,0(a5)
	.loc 1 174 25 discriminator 1
	bne	a5,zero,.L5
	j	.L4
.L11:
	.loc 1 176 7
	nop
.L4:
	.loc 1 183 14
	ld	a5,-24(s0)
	ld	a5,0(a5)
	.loc 1 183 6
	bne	a5,zero,.L6
	.loc 1 184 12
	li	a5,-1
	slli	a5,a5,63
	addi	a5,a5,14
	j	.L7
.L6:
	.loc 1 190 6
	lbu	a5,-49(s0)
	andi	a5,a5,0xff
	beq	a5,zero,.L8
	.loc 1 191 18
	ld	a1,-24(s0)
	li	a0,32
	call	AllocateRuntimeCopyPool@plt
	mv	a4,a0
	.loc 1 191 16 discriminator 1
	ld	a5,-48(s0)
	sd	a4,0(a5)
	j	.L9
.L8:
	.loc 1 193 18
	ld	a1,-24(s0)
	li	a0,32
	call	AllocateCopyPool@plt
	mv	a4,a0
	.loc 1 193 16 discriminator 1
	ld	a5,-48(s0)
	sd	a4,0(a5)
.L9:
	.loc 1 196 6
	ld	a5,-48(s0)
	bne	a5,zero,.L10
	.loc 1 197 12
	li	a5,-1
	slli	a5,a5,63
	addi	a5,a5,9
	j	.L7
.L10:
	.loc 1 200 10
	li	a5,0
.L7:
	.loc 1 201 1
	mv	a0,a5
	ld	ra,56(sp)
	.cfi_restore 1
	ld	s0,48(sp)
	.cfi_restore 8
	.cfi_def_cfa 2, 64
	addi	sp,sp,64
	.cfi_def_cfa_offset 0
	jr	ra
	.cfi_endproc
.LFE0:
	.size	NorFlashGetInfo, .-NorFlashGetInfo
	.section	.text.NorFlashPrintInfo,"ax",@progbits
	.align	1
	.globl	NorFlashPrintInfo
	.type	NorFlashPrintInfo, @function
NorFlashPrintInfo:
.LFB1:
	.loc 1 215 1
	.cfi_startproc
	addi	sp,sp,-48
	.cfi_def_cfa_offset 48
	sd	ra,40(sp)
	sd	s0,32(sp)
	.cfi_offset 1, -8
	.cfi_offset 8, -16
	addi	s0,sp,48
	.cfi_def_cfa 8, 0
	sd	a0,-40(s0)
	.loc 1 218 11
	ld	a5,-40(s0)
	lhu	a5,28(a5)
	.loc 1 218 19
	sext.w	a5,a5
	andi	a5,a5,1
	sext.w	a5,a5
	.loc 1 218 6
	beq	a5,zero,.L13
	.loc 1 219 15
	li	a5,4096
	sd	a5,-24(s0)
	.loc 1 232 1
	j	.L15
.L13:
	.loc 1 221 21
	ld	a5,-40(s0)
	lw	a5,20(a5)
	.loc 1 221 15
	slli	a5,a5,32
	srli	a5,a5,32
	sd	a5,-24(s0)
.L15:
	.loc 1 232 1
	nop
	ld	ra,40(sp)
	.cfi_restore 1
	ld	s0,32(sp)
	.cfi_restore 8
	.cfi_def_cfa 2, 48
	addi	sp,sp,48
	.cfi_def_cfa_offset 0
	jr	ra
	.cfi_endproc
.LFE1:
	.size	NorFlashPrintInfo, .-NorFlashPrintInfo
	.text
.Letext0:
	.file 2 "/home/kapoagaeming/spacemit-image-builder/components/edk2/MdePkg/Include/RiscV64/ProcessorBind.h"
	.file 3 "/home/kapoagaeming/spacemit-image-builder/components/edk2/MdePkg/Include/Base.h"
	.file 4 "/home/kapoagaeming/spacemit-image-builder/components/edk2/MdePkg/Include/Uefi/UefiBaseType.h"
	.file 5 "/home/kapoagaeming/spacemit-image-builder/components/edk2/EmbeddedPkg/Include/Library/NorFlashInfoLib.h"
	.file 6 "/home/kapoagaeming/spacemit-image-builder/components/edk2/MdePkg/Include/Library/MemoryAllocationLib.h"
	.file 7 "/home/kapoagaeming/spacemit-image-builder/components/edk2/MdePkg/Include/Library/BaseMemoryLib.h"
	.section	.note.GNU-stack,"",@progbits
