	.file	"Directory.c"
	.option pic
	.option norelax
	.attribute arch, "rv64i2p1_m2p0_a2p1_f2p2_d2p2_c2p0_zicsr2p0_zifencei2p0_zmmul1p0_zaamo1p0_zalrsc1p0_zca1p0_zcd1p0"
	.attribute unaligned_access, 0
	.attribute stack_align, 16
	.text
.Ltext0:
	.cfi_sections	.debug_frame
	.file 0 "/home/kapoagaeming/Downloads/spacemit-image-builder/components/Build/Milk-V-Jupiter/RELEASE_GCC5/RISCV64/Features/Ext4Pkg/Ext4Dxe/Ext4Dxe" "/home/kapoagaeming/Downloads/spacemit-image-builder/components/edk2-platforms/Features/Ext4Pkg/Ext4Dxe/Directory.c"
	.section	.text.Ext4GetUcs2DirentName,"ax",@progbits
	.align	1
	.globl	Ext4GetUcs2DirentName
	.type	Ext4GetUcs2DirentName, @function
Ext4GetUcs2DirentName:
.LFB0:
	.file 1 "/home/kapoagaeming/Downloads/spacemit-image-builder/components/edk2-platforms/Features/Ext4Pkg/Ext4Dxe/Directory.c"
	.loc 1 28 1
	.cfi_startproc
	addi	sp,sp,-320
	.cfi_def_cfa_offset 320
	sd	ra,312(sp)
	sd	s0,304(sp)
	.cfi_offset 1, -8
	.cfi_offset 8, -16
	addi	s0,sp,320
	.cfi_def_cfa 8, 0
	sd	a0,-312(s0)
	sd	a1,-320(s0)
	.loc 1 34 14
	sb	zero,-17(s0)
	.loc 1 34 3
	j	.L2
.L5:
	.loc 1 35 20
	lbu	a5,-17(s0)
	sext.w	a5,a5
	ld	a4,-312(s0)
	add	a5,a4,a5
	lbu	a5,8(a5)
	.loc 1 35 8
	bne	a5,zero,.L3
	.loc 1 36 14
	li	a5,-1
	slli	a5,a5,63
	addi	a5,a5,2
	j	.L7
.L3:
	.loc 1 39 37
	lbu	a5,-17(s0)
	sext.w	a4,a5
	.loc 1 39 16
	lbu	a5,-17(s0)
	sext.w	a5,a5
	.loc 1 39 37
	ld	a3,-312(s0)
	add	a4,a3,a4
	lbu	a4,8(a4)
	.loc 1 39 24
	addi	a5,a5,-16
	add	a5,a5,s0
	sb	a4,-272(a5)
	.loc 1 34 44 discriminator 2
	lbu	a5,-17(s0)
	addiw	a5,a5,1
	sb	a5,-17(s0)
.L2:
	.loc 1 34 32 discriminator 1
	ld	a5,-312(s0)
	lbu	a4,6(a5)
	.loc 1 34 25 discriminator 1
	lbu	a5,-17(s0)
	andi	a5,a5,0xff
	bltu	a5,a4,.L5
	.loc 1 42 20
	ld	a5,-312(s0)
	lbu	a5,6(a5)
	sext.w	a5,a5
	.loc 1 42 32
	addi	a5,a5,-16
	add	a5,a5,s0
	sb	zero,-272(a5)
	.loc 1 48 12
	addi	a4,s0,-296
	addi	a5,s0,-288
	mv	a1,a4
	mv	a0,a5
	call	UTF8StrToUCS2@plt
	sd	a0,-32(s0)
	.loc 1 50 34
	ld	a5,-32(s0)
	.loc 1 50 6
	bge	a5,zero,.L6
	.loc 1 51 12
	ld	a5,-32(s0)
	j	.L7
.L6:
	.loc 1 54 12
	ld	a5,-296(s0)
	mv	a2,a5
	li	a1,256
	ld	a0,-320(s0)
	call	StrCpyS@plt
	sd	a0,-32(s0)
	.loc 1 56 3
	ld	a5,-296(s0)
	mv	a0,a5
	call	FreePool@plt
	.loc 1 58 10
	ld	a5,-32(s0)
.L7:
	.loc 1 59 1
	mv	a0,a5
	ld	ra,312(sp)
	.cfi_restore 1
	ld	s0,304(sp)
	.cfi_restore 8
	.cfi_def_cfa 2, 320
	addi	sp,sp,320
	.cfi_def_cfa_offset 0
	jr	ra
	.cfi_endproc
.LFE0:
	.size	Ext4GetUcs2DirentName, .-Ext4GetUcs2DirentName
	.section	.text.Ext4ValidDirent,"ax",@progbits
	.align	1
	.type	Ext4ValidDirent, @function
Ext4ValidDirent:
.LFB1:
	.loc 1 74 1
	.cfi_startproc
	addi	sp,sp,-48
	.cfi_def_cfa_offset 48
	sd	ra,40(sp)
	sd	s0,32(sp)
	.cfi_offset 1, -8
	.cfi_offset 8, -16
	addi	s0,sp,48
	.cfi_def_cfa 8, 0
	sd	a0,-40(s0)
	.loc 1 77 24
	ld	a5,-40(s0)
	lbu	a5,6(a5)
	sext.w	a5,a5
	.loc 1 77 35
	addiw	a5,a5,8
	sext.w	a5,a5
	.loc 1 77 16
	sd	a5,-24(s0)
	.loc 1 79 13
	ld	a5,-40(s0)
	lhu	a5,4(a5)
	mv	a4,a5
	.loc 1 79 6
	ld	a5,-24(s0)
	bleu	a5,a4,.L9
	.loc 1 81 12
	li	a5,0
	j	.L10
.L9:
	.loc 1 85 14
	ld	a5,-40(s0)
	lhu	a5,4(a5)
	.loc 1 85 29
	andi	a5,a5,3
	slli	a5,a5,48
	srli	a5,a5,48
	.loc 1 85 6
	beq	a5,zero,.L11
	.loc 1 86 12
	li	a5,0
	j	.L10
.L11:
	.loc 1 89 10
	li	a5,1
.L10:
	.loc 1 90 1
	mv	a0,a5
	ld	ra,40(sp)
	.cfi_restore 1
	ld	s0,32(sp)
	.cfi_restore 8
	.cfi_def_cfa 2, 48
	addi	sp,sp,48
	.cfi_def_cfa_offset 0
	jr	ra
	.cfi_endproc
.LFE1:
	.size	Ext4ValidDirent, .-Ext4ValidDirent
	.section	.text.Ext4RetrieveDirent,"ax",@progbits
	.align	1
	.globl	Ext4RetrieveDirent
	.type	Ext4RetrieveDirent, @function
Ext4RetrieveDirent:
.LFB2:
	.loc 1 109 1
	.cfi_startproc
	addi	sp,sp,-672
	.cfi_def_cfa_offset 672
	sd	ra,664(sp)
	sd	s0,656(sp)
	sd	s1,648(sp)
	.cfi_offset 1, -8
	.cfi_offset 8, -16
	.cfi_offset 9, -24
	addi	s0,sp,672
	.cfi_def_cfa 8, 0
	sd	a0,-648(s0)
	sd	a1,-656(s0)
	sd	a2,-664(s0)
	sd	a3,-672(s0)
	.loc 1 123 32
	ld	a5,-664(s0)
	lw	a5,1084(a5)
	.loc 1 123 9
	slli	a5,a5,32
	srli	a5,a5,32
	mv	a0,a5
	call	AllocatePool@plt
	sd	a0,-64(s0)
	.loc 1 125 6
	ld	a5,-64(s0)
	bne	a5,zero,.L13
	.loc 1 126 12
	li	a5,-1
	slli	a5,a5,63
	addi	a5,a5,9
	j	.L32
.L13:
	.loc 1 129 7
	sd	zero,-48(s0)
	.loc 1 131 9
	ld	a5,-648(s0)
	ld	a5,120(a5)
	sd	a5,-72(s0)
	.loc 1 132 32
	ld	a5,-72(s0)
	lw	a5,108(a5)
	.loc 1 132 17
	slli	a5,a5,32
	srli	a5,a5,32
	li	a1,32
	mv	a0,a5
	call	LShiftU64@plt
	mv	a4,a0
	.loc 1 132 56 discriminator 1
	ld	a5,-72(s0)
	lw	a5,4(a5)
	slli	a5,a5,32
	srli	a5,a5,32
	.loc 1 132 14 discriminator 1
	or	a5,a4,a5
	sd	a5,-80(s0)
	.loc 1 134 3
	ld	a5,-664(s0)
	lw	a5,1084(a5)
	addi	a4,s0,-108
	mv	a2,a4
	mv	a1,a5
	ld	a0,-80(s0)
	call	DivU64x32Remainder@plt
	.loc 1 135 22
	lw	a5,-108(s0)
	.loc 1 135 6
	beq	a5,zero,.L17
	.loc 1 137 12
	li	a5,-1
	slli	a5,a5,63
	addi	a5,a5,10
	sd	a5,-40(s0)
	.loc 1 138 5
	j	.L16
.L31:
	.loc 1 142 23
	ld	a5,-664(s0)
	lw	a5,1084(a5)
	slli	a5,a5,32
	srli	a5,a5,32
	.loc 1 142 12
	sd	a5,-120(s0)
	.loc 1 144 14
	addi	a5,s0,-120
	mv	a4,a5
	ld	a3,-48(s0)
	ld	a2,-64(s0)
	ld	a1,-648(s0)
	ld	a0,-664(s0)
	call	Ext4Read@plt
	sd	a0,-40(s0)
	.loc 1 146 8
	ld	a5,-40(s0)
	bne	a5,zero,.L33
	.loc 1 150 22
	sd	zero,-56(s0)
	.loc 1 150 5
	j	.L19
.L30:
	.loc 1 151 13
	ld	a4,-64(s0)
	ld	a5,-56(s0)
	add	a5,a4,a5
	sd	a5,-88(s0)
	.loc 1 152 33
	ld	a5,-664(s0)
	lw	a5,1084(a5)
	slli	a4,a5,32
	srli	a4,a4,32
	.loc 1 152 22
	ld	a5,-56(s0)
	sub	a5,a4,a5
	sd	a5,-96(s0)
	.loc 1 154 10
	ld	a4,-96(s0)
	li	a5,7
	bgtu	a4,a5,.L20
	.loc 1 155 16
	li	a5,-1
	slli	a5,a5,63
	addi	a5,a5,10
	sd	a5,-40(s0)
	.loc 1 156 9
	j	.L16
.L20:
	.loc 1 159 12
	ld	a0,-88(s0)
	call	Ext4ValidDirent
	mv	a5,a0
	.loc 1 159 10 discriminator 1
	bne	a5,zero,.L21
	.loc 1 160 16
	li	a5,-1
	slli	a5,a5,63
	addi	a5,a5,10
	sd	a5,-40(s0)
	.loc 1 161 9
	j	.L16
.L21:
	.loc 1 164 17
	ld	a5,-88(s0)
	lbu	a5,6(a5)
	mv	a4,a5
	.loc 1 164 10
	ld	a5,-96(s0)
	bltu	a5,a4,.L22
	.loc 1 164 55 discriminator 1
	ld	a5,-88(s0)
	lhu	a5,4(a5)
	mv	a4,a5
	.loc 1 164 46 discriminator 1
	ld	a5,-96(s0)
	bgeu	a5,a4,.L23
.L22:
	.loc 1 166 16
	li	a5,-1
	slli	a5,a5,63
	addi	a5,a5,10
	sd	a5,-40(s0)
	.loc 1 167 9
	j	.L16
.L23:
	.loc 1 171 16
	ld	a5,-88(s0)
	lw	a5,0(a5)
	.loc 1 171 10
	bne	a5,zero,.L24
	.loc 1 172 29
	ld	a5,-88(s0)
	lhu	a5,4(a5)
	mv	a4,a5
	.loc 1 172 21
	ld	a5,-56(s0)
	add	a5,a5,a4
	sd	a5,-56(s0)
	.loc 1 173 9
	j	.L19
.L24:
	.loc 1 176 16
	addi	a5,s0,-632
	mv	a1,a5
	ld	a0,-88(s0)
	call	Ext4GetUcs2DirentName
	sd	a0,-40(s0)
	.loc 1 183 38
	ld	a5,-40(s0)
	.loc 1 183 10
	bge	a5,zero,.L26
	.loc 1 184 12
	ld	a4,-40(s0)
	li	a5,-1
	slli	a5,a5,63
	addi	a5,a5,2
	bne	a4,a5,.L27
	.loc 1 187 31
	ld	a5,-88(s0)
	lhu	a5,4(a5)
	mv	a4,a5
	.loc 1 187 23
	ld	a5,-56(s0)
	add	a5,a5,a4
	sd	a5,-56(s0)
	.loc 1 188 11
	j	.L19
.L27:
	.loc 1 192 9
	ld	a0,-64(s0)
	call	FreePool@plt
	.loc 1 193 16
	ld	a5,-40(s0)
	j	.L32
.L26:
	.loc 1 196 17
	ld	a5,-88(s0)
	lbu	a5,6(a5)
	mv	s1,a5
	.loc 1 196 31
	ld	a0,-656(s0)
	call	StrLen@plt
	mv	a5,a0
	.loc 1 196 10 discriminator 1
	bne	s1,a5,.L28
	.loc 1 197 12
	addi	a5,s0,-632
	ld	a1,-656(s0)
	mv	a0,a5
	call	Ext4StrCmpInsensitive@plt
	mv	a5,a0
	.loc 1 196 46 discriminator 2
	bne	a5,zero,.L28
	.loc 1 199 26
	ld	a5,-88(s0)
	lhu	a5,4(a5)
	.loc 1 199 85
	slliw	a4,a5,16
	srliw	a4,a4,16
	sext.w	a3,a4
	li	a4,264
	bleu	a3,a4,.L29
	li	a5,264
.L29:
	slli	a5,a5,48
	srli	a5,a5,48
	.loc 1 199 16
	sd	a5,-104(s0)
	.loc 1 201 9
	ld	a2,-104(s0)
	ld	a1,-88(s0)
	ld	a0,-672(s0)
	call	CopyMem@plt
	.loc 1 202 16
	sd	zero,-40(s0)
	.loc 1 203 9
	j	.L16
.L28:
	.loc 1 206 27
	ld	a5,-88(s0)
	lhu	a5,4(a5)
	mv	a4,a5
	.loc 1 206 19
	ld	a5,-56(s0)
	add	a5,a5,a4
	sd	a5,-56(s0)
.L19:
	.loc 1 150 50 discriminator 1
	ld	a5,-664(s0)
	lw	a5,1084(a5)
	slli	a5,a5,32
	srli	a5,a5,32
	.loc 1 150 39 discriminator 1
	ld	a4,-56(s0)
	bltu	a4,a5,.L30
	.loc 1 209 21
	ld	a5,-664(s0)
	lw	a5,1084(a5)
	slli	a5,a5,32
	srli	a5,a5,32
	.loc 1 209 9
	ld	a4,-48(s0)
	add	a5,a4,a5
	sd	a5,-48(s0)
.L17:
	.loc 1 141 14
	ld	a4,-48(s0)
	ld	a5,-80(s0)
	bltu	a4,a5,.L31
	.loc 1 212 10
	li	a5,-1
	slli	a5,a5,63
	addi	a5,a5,14
	sd	a5,-40(s0)
	j	.L16
.L33:
	.loc 1 147 7
	nop
.L16:
	.loc 1 215 3
	ld	a0,-64(s0)
	call	FreePool@plt
	.loc 1 216 10
	ld	a5,-40(s0)
.L32:
	.loc 1 217 1
	mv	a0,a5
	ld	ra,664(sp)
	.cfi_restore 1
	ld	s0,656(sp)
	.cfi_restore 8
	.cfi_def_cfa 2, 672
	ld	s1,648(sp)
	.cfi_restore 9
	addi	sp,sp,672
	.cfi_def_cfa_offset 0
	jr	ra
	.cfi_endproc
.LFE2:
	.size	Ext4RetrieveDirent, .-Ext4RetrieveDirent
	.section	.rodata
	.align	3
.LC0:
	.string	"."
	.zero	2
	.align	3
.LC1:
	.string	"."
	.string	"."
	.zero	2
	.section	.text.Ext4OpenDirent,"ax",@progbits
	.align	1
	.globl	Ext4OpenDirent
	.type	Ext4OpenDirent, @function
Ext4OpenDirent:
.LFB3:
	.loc 1 238 1
	.cfi_startproc
	addi	sp,sp,-592
	.cfi_def_cfa_offset 592
	sd	ra,584(sp)
	sd	s0,576(sp)
	.cfi_offset 1, -8
	.cfi_offset 8, -16
	addi	s0,sp,592
	.cfi_def_cfa 8, 0
	sd	a0,-552(s0)
	sd	a1,-560(s0)
	sd	a2,-568(s0)
	sd	a3,-576(s0)
	sd	a4,-584(s0)
	.loc 1 243 10
	li	a0,200
	call	AllocateZeroPool@plt
	sd	a0,-32(s0)
	.loc 1 245 6
	ld	a5,-32(s0)
	bne	a5,zero,.L35
	.loc 1 246 12
	li	a5,-1
	slli	a5,a5,63
	addi	a5,a5,9
	sd	a5,-24(s0)
	.loc 1 247 5
	j	.L36
.L35:
	.loc 1 250 12
	addi	a5,s0,-544
	mv	a1,a5
	ld	a0,-576(s0)
	call	Ext4GetUcs2DirentName
	sd	a0,-24(s0)
	.loc 1 252 34
	ld	a5,-24(s0)
	.loc 1 252 6
	blt	a5,zero,.L49
	.loc 1 256 7
	addi	a5,s0,-544
	lla	a1,.LC0
	mv	a0,a5
	call	StrCmp@plt
	mv	a5,a0
	.loc 1 256 6 discriminator 1
	bne	a5,zero,.L38
	.loc 1 258 29
	ld	a5,-584(s0)
	ld	a4,192(a5)
	.loc 1 258 18
	ld	a5,-32(s0)
	sd	a4,192(a5)
	.loc 1 262 5
	ld	a5,-32(s0)
	ld	a5,192(a5)
	mv	a0,a5
	call	Ext4RefDentry
	j	.L39
.L38:
	.loc 1 263 14
	addi	a5,s0,-544
	lla	a1,.LC1
	mv	a0,a5
	call	StrCmp@plt
	mv	a5,a0
	.loc 1 263 13 discriminator 1
	bne	a5,zero,.L40
	.loc 1 265 29
	ld	a5,-584(s0)
	ld	a5,192(a5)
	.loc 1 265 37
	ld	a4,528(a5)
	.loc 1 265 18
	ld	a5,-32(s0)
	sd	a4,192(a5)
	.loc 1 267 14
	ld	a5,-32(s0)
	ld	a5,192(a5)
	.loc 1 267 8
	bne	a5,zero,.L41
	.loc 1 270 31
	ld	a5,-584(s0)
	ld	a4,192(a5)
	.loc 1 270 20
	ld	a5,-32(s0)
	sd	a4,192(a5)
.L41:
	.loc 1 273 5
	ld	a5,-32(s0)
	ld	a5,192(a5)
	mv	a0,a5
	call	Ext4RefDentry
	j	.L39
.L40:
	.loc 1 275 20
	ld	a5,-584(s0)
	ld	a4,192(a5)
	addi	a5,s0,-544
	mv	a1,a4
	mv	a0,a5
	call	Ext4CreateDentry
	mv	a4,a0
	.loc 1 275 18 discriminator 1
	ld	a5,-32(s0)
	sd	a4,192(a5)
	.loc 1 277 13
	ld	a5,-32(s0)
	ld	a5,192(a5)
	.loc 1 277 8
	bne	a5,zero,.L39
	.loc 1 278 14
	li	a5,-1
	slli	a5,a5,63
	addi	a5,a5,9
	sd	a5,-24(s0)
	.loc 1 279 7
	j	.L36
.L39:
	.loc 1 283 12
	ld	a0,-32(s0)
	call	Ext4InitExtentsMap@plt
	sd	a0,-24(s0)
	.loc 1 285 34
	ld	a5,-24(s0)
	.loc 1 285 6
	blt	a5,zero,.L50
	.loc 1 289 25
	ld	a5,-576(s0)
	lw	a4,0(a5)
	.loc 1 289 18
	ld	a5,-32(s0)
	sw	a4,128(a5)
	.loc 1 291 3
	ld	a1,-552(s0)
	ld	a0,-32(s0)
	call	Ext4SetupFile@plt
	.loc 1 293 43
	ld	a5,-576(s0)
	lw	a4,0(a5)
	.loc 1 293 12
	ld	a5,-32(s0)
	addi	a5,a5,120
	mv	a2,a5
	mv	a1,a4
	ld	a0,-552(s0)
	call	Ext4ReadInode@plt
	sd	a0,-24(s0)
	.loc 1 295 34
	ld	a5,-24(s0)
	.loc 1 295 6
	blt	a5,zero,.L51
	.loc 1 299 12
	ld	a5,-568(s0)
	ld	a4,-32(s0)
	sd	a4,0(a5)
	.loc 1 301 3
	ld	a5,-552(s0)
	addi	a4,a5,1144
	ld	a5,-32(s0)
	addi	a5,a5,176
	mv	a1,a5
	mv	a0,a4
	call	InsertTailList@plt
	.loc 1 303 10
	li	a5,0
	j	.L48
.L49:
	.loc 1 253 5
	nop
	j	.L36
.L50:
	.loc 1 286 5
	nop
	j	.L36
.L51:
	.loc 1 296 5
	nop
.L36:
	.loc 1 306 6
	ld	a5,-32(s0)
	beq	a5,zero,.L45
	.loc 1 307 13
	ld	a5,-32(s0)
	ld	a5,192(a5)
	.loc 1 307 8
	beq	a5,zero,.L46
	.loc 1 308 7
	ld	a5,-32(s0)
	ld	a5,192(a5)
	mv	a0,a5
	call	Ext4UnrefDentry
.L46:
	.loc 1 311 13
	ld	a5,-32(s0)
	ld	a5,168(a5)
	.loc 1 311 8
	beq	a5,zero,.L47
	.loc 1 312 7
	ld	a5,-32(s0)
	ld	a5,168(a5)
	mv	a0,a5
	call	OrderedCollectionUninit@plt
.L47:
	.loc 1 315 5
	ld	a0,-32(s0)
	call	FreePool@plt
.L45:
	.loc 1 318 10
	ld	a5,-24(s0)
.L48:
	.loc 1 319 1
	mv	a0,a5
	ld	ra,584(sp)
	.cfi_restore 1
	ld	s0,576(sp)
	.cfi_restore 8
	.cfi_def_cfa 2, 592
	addi	sp,sp,592
	.cfi_def_cfa_offset 0
	jr	ra
	.cfi_endproc
.LFE3:
	.size	Ext4OpenDirent, .-Ext4OpenDirent
	.section	.text.Ext4OpenFile,"ax",@progbits
	.align	1
	.globl	Ext4OpenFile
	.type	Ext4OpenFile, @function
Ext4OpenFile:
.LFB4:
	.loc 1 340 1
	.cfi_startproc
	addi	sp,sp,-336
	.cfi_def_cfa_offset 336
	sd	ra,328(sp)
	sd	s0,320(sp)
	.cfi_offset 1, -8
	.cfi_offset 8, -16
	addi	s0,sp,336
	.cfi_def_cfa 8, 0
	sd	a0,-296(s0)
	sd	a1,-304(s0)
	sd	a2,-312(s0)
	sd	a3,-320(s0)
	sd	a4,-328(s0)
	.loc 1 344 12
	addi	a5,s0,-288
	mv	a3,a5
	ld	a2,-312(s0)
	ld	a1,-304(s0)
	ld	a0,-296(s0)
	call	Ext4RetrieveDirent
	sd	a0,-24(s0)
	.loc 1 346 34
	ld	a5,-24(s0)
	.loc 1 346 6
	bge	a5,zero,.L53
	.loc 1 347 12
	ld	a5,-24(s0)
	j	.L56
.L53:
	.loc 1 351 12
	lw	a4,-288(s0)
	.loc 1 351 31
	ld	a5,-296(s0)
	lw	a5,128(a5)
	.loc 1 351 6
	bne	a4,a5,.L55
	.loc 1 352 12
	li	a5,-1
	slli	a5,a5,63
	addi	a5,a5,14
	j	.L56
.L55:
	.loc 1 355 10
	addi	a5,s0,-288
	ld	a4,-296(s0)
	mv	a3,a5
	ld	a2,-328(s0)
	ld	a1,-320(s0)
	ld	a0,-312(s0)
	call	Ext4OpenDirent
	mv	a5,a0
.L56:
	.loc 1 356 1
	mv	a0,a5
	ld	ra,328(sp)
	.cfi_restore 1
	ld	s0,320(sp)
	.cfi_restore 8
	.cfi_def_cfa 2, 336
	addi	sp,sp,336
	.cfi_def_cfa_offset 0
	jr	ra
	.cfi_endproc
.LFE4:
	.size	Ext4OpenFile, .-Ext4OpenFile
	.section	.text.Ext4OpenVolume,"ax",@progbits
	.align	1
	.globl	Ext4OpenVolume
	.type	Ext4OpenVolume, @function
Ext4OpenVolume:
.LFB5:
	.loc 1 384 1
	.cfi_startproc
	addi	sp,sp,-64
	.cfi_def_cfa_offset 64
	sd	ra,56(sp)
	sd	s0,48(sp)
	.cfi_offset 1, -8
	.cfi_offset 8, -16
	addi	s0,sp,64
	.cfi_def_cfa 8, 0
	sd	a0,-56(s0)
	sd	a1,-64(s0)
	.loc 1 390 13
	ld	a5,-56(s0)
	sd	a5,-24(s0)
	.loc 1 392 12
	addi	a5,s0,-48
	mv	a2,a5
	li	a1,2
	ld	a0,-24(s0)
	call	Ext4ReadInode@plt
	sd	a0,-32(s0)
	.loc 1 394 34
	ld	a5,-32(s0)
	.loc 1 394 6
	bge	a5,zero,.L58
	.loc 1 396 12
	ld	a5,-32(s0)
	j	.L62
.L58:
	.loc 1 399 13
	li	a0,200
	call	AllocateZeroPool@plt
	sd	a0,-40(s0)
	.loc 1 401 6
	ld	a5,-40(s0)
	bne	a5,zero,.L60
	.loc 1 402 5
	ld	a5,-48(s0)
	mv	a0,a5
	call	FreePool@plt
	.loc 1 403 12
	li	a5,-1
	slli	a5,a5,63
	addi	a5,a5,9
	j	.L62
.L60:
	.loc 1 406 18
	ld	a4,-48(s0)
	ld	a5,-40(s0)
	sd	a4,120(a5)
	.loc 1 407 21
	ld	a5,-40(s0)
	li	a4,2
	sw	a4,128(a5)
	.loc 1 409 12
	ld	a0,-40(s0)
	call	Ext4InitExtentsMap@plt
	sd	a0,-32(s0)
	.loc 1 411 34
	ld	a5,-32(s0)
	.loc 1 411 6
	bge	a5,zero,.L61
	.loc 1 412 5
	ld	a5,-48(s0)
	mv	a0,a5
	call	FreePool@plt
	.loc 1 413 5
	ld	a0,-40(s0)
	call	FreePool@plt
	.loc 1 414 12
	li	a5,-1
	slli	a5,a5,63
	addi	a5,a5,9
	j	.L62
.L61:
	.loc 1 417 3
	ld	a1,-24(s0)
	ld	a0,-40(s0)
	call	Ext4SetupFile@plt
	.loc 1 418 11
	ld	a4,-40(s0)
	.loc 1 418 9
	ld	a5,-64(s0)
	sd	a4,0(a5)
	.loc 1 420 3
	ld	a5,-24(s0)
	addi	a4,a5,1144
	ld	a5,-40(s0)
	addi	a5,a5,176
	mv	a1,a5
	mv	a0,a4
	call	InsertTailList@plt
	.loc 1 423 30
	ld	a5,-24(s0)
	ld	a4,1160(a5)
	.loc 1 423 19
	ld	a5,-40(s0)
	sd	a4,192(a5)
	.loc 1 425 3
	ld	a5,-40(s0)
	ld	a5,192(a5)
	mv	a0,a5
	call	Ext4RefDentry
	.loc 1 427 10
	li	a5,0
.L62:
	.loc 1 428 1
	mv	a0,a5
	ld	ra,56(sp)
	.cfi_restore 1
	ld	s0,48(sp)
	.cfi_restore 8
	.cfi_def_cfa 2, 64
	addi	sp,sp,64
	.cfi_def_cfa_offset 0
	jr	ra
	.cfi_endproc
.LFE5:
	.size	Ext4OpenVolume, .-Ext4OpenVolume
	.section	.rodata
	.align	3
.LC2:
	.string	".."
	.section	.text.Ext4ReadDir,"ax",@progbits
	.align	1
	.globl	Ext4ReadDir
	.type	Ext4ReadDir, @function
Ext4ReadDir:
.LFB6:
	.loc 1 450 1
	.cfi_startproc
	addi	sp,sp,-896
	.cfi_def_cfa_offset 896
	sd	ra,888(sp)
	sd	s0,880(sp)
	.cfi_offset 1, -8
	.cfi_offset 8, -16
	addi	s0,sp,896
	.cfi_def_cfa 8, 0
	sd	a0,-856(s0)
	sd	a1,-864(s0)
	sd	a2,-872(s0)
	sd	a3,-880(s0)
	sd	a4,-888(s0)
	.loc 1 462 10
	ld	a5,-864(s0)
	ld	a5,120(a5)
	sd	a5,-32(s0)
	.loc 1 463 10
	sd	zero,-24(s0)
	.loc 1 464 33
	ld	a5,-32(s0)
	lw	a5,108(a5)
	.loc 1 464 17
	slli	a5,a5,32
	srli	a5,a5,32
	li	a1,32
	mv	a0,a5
	call	LShiftU64@plt
	mv	a4,a0
	.loc 1 464 58 discriminator 1
	ld	a5,-32(s0)
	lw	a5,4(a5)
	slli	a5,a5,32
	srli	a5,a5,32
	.loc 1 464 14 discriminator 1
	or	a5,a4,a5
	sd	a5,-40(s0)
	.loc 1 466 3
	ld	a5,-856(s0)
	lw	a5,1084(a5)
	addi	a4,s0,-60
	mv	a2,a4
	mv	a1,a5
	ld	a0,-40(s0)
	call	DivU64x32Remainder@plt
	.loc 1 467 22
	lw	a5,-60(s0)
	.loc 1 467 6
	beq	a5,zero,.L64
	.loc 1 469 12
	li	a5,-1
	slli	a5,a5,63
	addi	a5,a5,10
	j	.L83
.L64:
	.loc 1 473 14
	sd	zero,-336(s0)
	.loc 1 477 9
	li	a5,264
	sd	a5,-56(s0)
	.loc 1 478 14
	addi	a4,s0,-56
	addi	a5,s0,-328
	ld	a3,-880(s0)
	mv	a2,a5
	ld	a1,-864(s0)
	ld	a0,-856(s0)
	call	Ext4Read@plt
	sd	a0,-24(s0)
	.loc 1 480 36
	ld	a5,-24(s0)
	.loc 1 480 8
	blt	a5,zero,.L84
	.loc 1 484 13
	ld	a5,-56(s0)
	.loc 1 484 8
	bne	a5,zero,.L68
	.loc 1 485 18
	ld	a5,-888(s0)
	sd	zero,0(a5)
	.loc 1 486 14
	sd	zero,-24(s0)
	.loc 1 487 7
	j	.L67
.L68:
	.loc 1 490 13
	ld	a4,-56(s0)
	.loc 1 490 8
	li	a5,7
	bgtu	a4,a5,.L69
	.loc 1 491 14
	li	a5,-1
	slli	a5,a5,63
	addi	a5,a5,10
	sd	a5,-24(s0)
	.loc 1 492 7
	j	.L67
.L69:
	.loc 1 496 10
	addi	a5,s0,-328
	mv	a0,a5
	call	Ext4ValidDirent
	mv	a5,a0
	.loc 1 496 8 discriminator 1
	bne	a5,zero,.L70
	.loc 1 498 14
	li	a5,-1
	slli	a5,a5,63
	addi	a5,a5,10
	sd	a5,-24(s0)
	.loc 1 499 7
	j	.L67
.L70:
	.loc 1 503 32
	lbu	a5,-322(s0)
	sext.w	a5,a5
	.loc 1 503 25
	addiw	a5,a5,8
	sext.w	a5,a5
	.loc 1 503 15
	mv	a4,a5
	.loc 1 503 13
	ld	a5,-56(s0)
	.loc 1 503 8
	bleu	a4,a5,.L71
	.loc 1 504 14
	li	a5,-1
	slli	a5,a5,63
	addi	a5,a5,10
	sd	a5,-24(s0)
	.loc 1 505 7
	j	.L67
.L71:
	.loc 1 518 26
	lbu	a5,-322(s0)
	.loc 1 518 63
	beq	a5,zero,.L72
	.loc 1 518 48 discriminator 1
	lbu	a5,-322(s0)
	.loc 1 518 40 discriminator 1
	mv	a4,a5
	li	a5,2
	bgtu	a4,a5,.L72
	.loc 1 519 56
	lbu	a5,-322(s0)
	.loc 1 519 21
	mv	a4,a5
	addi	a5,s0,-328
	addi	a5,a5,8
	mv	a2,a4
	lla	a1,.LC2
	mv	a0,a5
	call	CompareMem@plt
	mv	a5,a0
	.loc 1 518 63 discriminator 3
	bne	a5,zero,.L72
	.loc 1 518 63 is_stmt 0 discriminator 5
	li	a5,1
	.loc 1 518 63
	j	.L73
.L72:
	.loc 1 518 63 discriminator 6
	li	a5,0
.L73:
	.loc 1 518 19 is_stmt 1 discriminator 8
	sb	a5,-41(s0)
	.loc 1 523 23
	lw	a5,-328(s0)
	.loc 1 523 58
	beq	a5,zero,.L74
	.loc 1 523 43 discriminator 2
	lbu	a5,-322(s0)
	.loc 1 523 35 discriminator 2
	beq	a5,zero,.L74
	.loc 1 523 58 discriminator 4
	lbu	a5,-41(s0)
	andi	a5,a5,0xff
	beq	a5,zero,.L75
.L74:
	.loc 1 523 58 is_stmt 0 discriminator 5
	li	a5,1
	.loc 1 523 58
	j	.L76
.L75:
	.loc 1 523 58 discriminator 6
	li	a5,0
.L76:
	.loc 1 523 16 is_stmt 1 discriminator 8
	sb	a5,-42(s0)
	.loc 1 525 8
	lbu	a5,-42(s0)
	andi	a5,a5,0xff
	beq	a5,zero,.L77
	.loc 1 526 22
	lhu	a5,-324(s0)
	mv	a4,a5
	.loc 1 526 14
	ld	a5,-880(s0)
	add	a5,a5,a4
	sd	a5,-880(s0)
	.loc 1 527 7
	j	.L78
.L77:
	.loc 1 533 14
	addi	a4,s0,-848
	addi	a5,s0,-328
	mv	a1,a4
	mv	a0,a5
	call	Ext4GetUcs2DirentName
	sd	a0,-24(s0)
	.loc 1 535 36
	ld	a5,-24(s0)
	.loc 1 535 8
	bge	a5,zero,.L79
	.loc 1 536 10
	ld	a4,-24(s0)
	li	a5,-1
	slli	a5,a5,63
	addi	a5,a5,2
	bne	a4,a5,.L85
	.loc 1 538 24
	lhu	a5,-324(s0)
	mv	a4,a5
	.loc 1 538 16
	ld	a5,-880(s0)
	add	a5,a5,a4
	sd	a5,-880(s0)
	.loc 1 539 9
	j	.L78
.L79:
	.loc 1 545 14
	addi	a3,s0,-328
	addi	a5,s0,-336
	ld	a4,-864(s0)
	mv	a2,a5
	li	a1,1
	ld	a0,-856(s0)
	call	Ext4OpenDirent
	sd	a0,-24(s0)
	.loc 1 547 36
	ld	a5,-24(s0)
	.loc 1 547 8
	blt	a5,zero,.L86
	.loc 1 551 14
	ld	a5,-336(s0)
	ld	a2,-888(s0)
	ld	a1,-872(s0)
	mv	a0,a5
	call	Ext4GetFileInfo@plt
	sd	a0,-24(s0)
	.loc 1 552 9
	ld	a5,-24(s0)
	.loc 1 552 8
	blt	a5,zero,.L82
	.loc 1 553 38
	lhu	a5,-324(s0)
	mv	a4,a5
	.loc 1 553 31
	ld	a5,-880(s0)
	add	a4,a4,a5
	.loc 1 553 22
	ld	a5,-864(s0)
	sd	a4,144(a5)
.L82:
	.loc 1 556 5
	ld	a5,-336(s0)
	mv	a0,a5
	call	Ext4CloseInternal@plt
	.loc 1 558 5
	j	.L67
.L78:
	.loc 1 473 14
	j	.L64
.L84:
	.loc 1 481 7
	nop
	j	.L67
.L85:
	.loc 1 542 7
	nop
	j	.L67
.L86:
	.loc 1 548 7
	nop
.L67:
	.loc 1 563 10
	ld	a5,-24(s0)
.L83:
	.loc 1 564 1
	mv	a0,a5
	ld	ra,888(sp)
	.cfi_restore 1
	ld	s0,880(sp)
	.cfi_restore 8
	.cfi_def_cfa 2, 896
	addi	sp,sp,896
	.cfi_def_cfa_offset 0
	jr	ra
	.cfi_endproc
.LFE6:
	.size	Ext4ReadDir, .-Ext4ReadDir
	.section	.text.Ext4RemoveDentry,"ax",@progbits
	.align	1
	.type	Ext4RemoveDentry, @function
Ext4RemoveDentry:
.LFB7:
	.loc 1 578 1
	.cfi_startproc
	addi	sp,sp,-32
	.cfi_def_cfa_offset 32
	sd	ra,24(sp)
	sd	s0,16(sp)
	.cfi_offset 1, -8
	.cfi_offset 8, -16
	addi	s0,sp,32
	.cfi_def_cfa 8, 0
	sd	a0,-24(s0)
	sd	a1,-32(s0)
	.loc 1 580 20
	ld	a5,-32(s0)
	addi	a5,a5,552
	.loc 1 580 3
	mv	a0,a5
	call	RemoveEntryList@plt
	.loc 1 581 1
	nop
	ld	ra,24(sp)
	.cfi_restore 1
	ld	s0,16(sp)
	.cfi_restore 8
	.cfi_def_cfa 2, 32
	addi	sp,sp,32
	.cfi_def_cfa_offset 0
	jr	ra
	.cfi_endproc
.LFE7:
	.size	Ext4RemoveDentry, .-Ext4RemoveDentry
	.section	.text.Ext4AddDentry,"ax",@progbits
	.align	1
	.type	Ext4AddDentry, @function
Ext4AddDentry:
.LFB8:
	.loc 1 598 1
	.cfi_startproc
	addi	sp,sp,-32
	.cfi_def_cfa_offset 32
	sd	ra,24(sp)
	sd	s0,16(sp)
	.cfi_offset 1, -8
	.cfi_offset 8, -16
	addi	s0,sp,32
	.cfi_def_cfa 8, 0
	sd	a0,-24(s0)
	sd	a1,-32(s0)
	.loc 1 599 21
	ld	a5,-32(s0)
	ld	a4,-24(s0)
	sd	a4,528(a5)
	.loc 1 600 3
	ld	a5,-24(s0)
	addi	a4,a5,536
	ld	a5,-32(s0)
	addi	a5,a5,552
	mv	a1,a5
	mv	a0,a4
	call	InsertTailList@plt
	.loc 1 601 3
	ld	a0,-24(s0)
	call	Ext4RefDentry
	.loc 1 602 1
	nop
	ld	ra,24(sp)
	.cfi_restore 1
	ld	s0,16(sp)
	.cfi_restore 8
	.cfi_def_cfa 2, 32
	addi	sp,sp,32
	.cfi_def_cfa_offset 0
	jr	ra
	.cfi_endproc
.LFE8:
	.size	Ext4AddDentry, .-Ext4AddDentry
	.section	.text.Ext4CreateDentry,"ax",@progbits
	.align	1
	.globl	Ext4CreateDentry
	.type	Ext4CreateDentry, @function
Ext4CreateDentry:
.LFB9:
	.loc 1 618 1
	.cfi_startproc
	addi	sp,sp,-48
	.cfi_def_cfa_offset 48
	sd	ra,40(sp)
	sd	s0,32(sp)
	.cfi_offset 1, -8
	.cfi_offset 8, -16
	addi	s0,sp,48
	.cfi_def_cfa 8, 0
	sd	a0,-40(s0)
	sd	a1,-48(s0)
	.loc 1 622 12
	li	a0,568
	call	AllocateZeroPool@plt
	sd	a0,-24(s0)
	.loc 1 624 6
	ld	a5,-24(s0)
	bne	a5,zero,.L90
	.loc 1 625 12
	li	a5,0
	j	.L91
.L90:
	.loc 1 628 20
	ld	a5,-24(s0)
	li	a4,1
	sd	a4,0(a5)
	.loc 1 631 27
	ld	a5,-24(s0)
	addi	a5,a5,8
	.loc 1 631 12
	ld	a2,-40(s0)
	li	a1,256
	mv	a0,a5
	call	StrCpyS@plt
	sd	a0,-32(s0)
	.loc 1 635 3
	ld	a5,-24(s0)
	addi	a5,a5,536
	mv	a0,a5
	call	InitializeListHead@plt
	.loc 1 637 6
	ld	a5,-48(s0)
	beq	a5,zero,.L92
	.loc 1 638 5
	ld	a1,-24(s0)
	ld	a0,-48(s0)
	call	Ext4AddDentry
.L92:
	.loc 1 643 10
	ld	a5,-24(s0)
.L91:
	.loc 1 644 1
	mv	a0,a5
	ld	ra,40(sp)
	.cfi_restore 1
	ld	s0,32(sp)
	.cfi_restore 8
	.cfi_def_cfa 2, 48
	addi	sp,sp,48
	.cfi_def_cfa_offset 0
	jr	ra
	.cfi_endproc
.LFE9:
	.size	Ext4CreateDentry, .-Ext4CreateDentry
	.section	.text.Ext4RefDentry,"ax",@progbits
	.align	1
	.globl	Ext4RefDentry
	.type	Ext4RefDentry, @function
Ext4RefDentry:
.LFB10:
	.loc 1 655 1
	.cfi_startproc
	addi	sp,sp,-48
	.cfi_def_cfa_offset 48
	sd	ra,40(sp)
	sd	s0,32(sp)
	.cfi_offset 1, -8
	.cfi_offset 8, -16
	addi	s0,sp,48
	.cfi_def_cfa 8, 0
	sd	a0,-40(s0)
	.loc 1 658 10
	ld	a5,-40(s0)
	ld	a5,0(a5)
	sd	a5,-24(s0)
	.loc 1 660 9
	ld	a5,-40(s0)
	ld	a5,0(a5)
	.loc 1 660 19
	addi	a4,a5,1
	ld	a5,-40(s0)
	sd	a4,0(a5)
	.loc 1 665 1
	nop
	ld	ra,40(sp)
	.cfi_restore 1
	ld	s0,32(sp)
	.cfi_restore 8
	.cfi_def_cfa 2, 48
	addi	sp,sp,48
	.cfi_def_cfa_offset 0
	jr	ra
	.cfi_endproc
.LFE10:
	.size	Ext4RefDentry, .-Ext4RefDentry
	.section	.text.Ext4DeleteDentry,"ax",@progbits
	.align	1
	.type	Ext4DeleteDentry, @function
Ext4DeleteDentry:
.LFB11:
	.loc 1 677 1
	.cfi_startproc
	addi	sp,sp,-32
	.cfi_def_cfa_offset 32
	sd	ra,24(sp)
	sd	s0,16(sp)
	.cfi_offset 1, -8
	.cfi_offset 8, -16
	addi	s0,sp,32
	.cfi_def_cfa 8, 0
	sd	a0,-24(s0)
	.loc 1 678 13
	ld	a5,-24(s0)
	ld	a5,528(a5)
	.loc 1 678 6
	beq	a5,zero,.L95
	.loc 1 679 29
	ld	a5,-24(s0)
	ld	a5,528(a5)
	.loc 1 679 5
	ld	a1,-24(s0)
	mv	a0,a5
	call	Ext4RemoveDentry
	.loc 1 680 28
	ld	a5,-24(s0)
	ld	a5,528(a5)
	.loc 1 680 5
	mv	a0,a5
	call	Ext4UnrefDentry
.L95:
	.loc 1 684 3
	ld	a0,-24(s0)
	call	FreePool@plt
	.loc 1 685 1
	nop
	ld	ra,24(sp)
	.cfi_restore 1
	ld	s0,16(sp)
	.cfi_restore 8
	.cfi_def_cfa 2, 32
	addi	sp,sp,32
	.cfi_def_cfa_offset 0
	jr	ra
	.cfi_endproc
.LFE11:
	.size	Ext4DeleteDentry, .-Ext4DeleteDentry
	.section	.text.Ext4UnrefDentry,"ax",@progbits
	.align	1
	.globl	Ext4UnrefDentry
	.type	Ext4UnrefDentry, @function
Ext4UnrefDentry:
.LFB12:
	.loc 1 699 1
	.cfi_startproc
	addi	sp,sp,-32
	.cfi_def_cfa_offset 32
	sd	ra,24(sp)
	sd	s0,16(sp)
	.cfi_offset 1, -8
	.cfi_offset 8, -16
	addi	s0,sp,32
	.cfi_def_cfa 8, 0
	sd	a0,-24(s0)
	.loc 1 700 9
	ld	a5,-24(s0)
	ld	a5,0(a5)
	.loc 1 700 19
	addi	a4,a5,-1
	ld	a5,-24(s0)
	sd	a4,0(a5)
	.loc 1 702 13
	ld	a5,-24(s0)
	ld	a5,0(a5)
	.loc 1 702 6
	bne	a5,zero,.L97
	.loc 1 703 5
	ld	a0,-24(s0)
	call	Ext4DeleteDentry
	.loc 1 704 12
	li	a5,1
	j	.L98
.L97:
	.loc 1 707 10
	li	a5,0
.L98:
	.loc 1 708 1
	mv	a0,a5
	ld	ra,24(sp)
	.cfi_restore 1
	ld	s0,16(sp)
	.cfi_restore 8
	.cfi_def_cfa 2, 32
	addi	sp,sp,32
	.cfi_def_cfa_offset 0
	jr	ra
	.cfi_endproc
.LFE12:
	.size	Ext4UnrefDentry, .-Ext4UnrefDentry
	.text
.Letext0:
	.file 2 "/home/kapoagaeming/Downloads/spacemit-image-builder/components/edk2/MdePkg/Include/RiscV64/ProcessorBind.h"
	.file 3 "/home/kapoagaeming/Downloads/spacemit-image-builder/components/edk2/MdePkg/Include/Base.h"
	.file 4 "/home/kapoagaeming/Downloads/spacemit-image-builder/components/edk2/MdePkg/Include/Uefi/UefiBaseType.h"
	.file 5 "/home/kapoagaeming/Downloads/spacemit-image-builder/components/edk2/MdePkg/Include/Guid/FileInfo.h"
	.file 6 "/home/kapoagaeming/Downloads/spacemit-image-builder/components/edk2/MdePkg/Include/Protocol/BlockIo.h"
	.file 7 "/home/kapoagaeming/Downloads/spacemit-image-builder/components/edk2/MdePkg/Include/Protocol/DiskIo.h"
	.file 8 "/home/kapoagaeming/Downloads/spacemit-image-builder/components/edk2/MdePkg/Include/Protocol/DiskIo2.h"
	.file 9 "/home/kapoagaeming/Downloads/spacemit-image-builder/components/edk2/MdePkg/Include/Protocol/SimpleFileSystem.h"
	.file 10 "/home/kapoagaeming/Downloads/spacemit-image-builder/components/edk2/MdePkg/Include/Library/OrderedCollectionLib.h"
	.file 11 "/home/kapoagaeming/Downloads/spacemit-image-builder/components/edk2-platforms/Features/Ext4Pkg/Ext4Dxe/Ext4Disk.h"
	.file 12 "/home/kapoagaeming/Downloads/spacemit-image-builder/components/edk2-platforms/Features/Ext4Pkg/Ext4Dxe/Ext4Dxe.h"
	.file 13 "/home/kapoagaeming/Downloads/spacemit-image-builder/components/edk2/MdePkg/Include/Library/BaseLib.h"
	.file 14 "/home/kapoagaeming/Downloads/spacemit-image-builder/components/edk2/MdePkg/Include/Library/BaseMemoryLib.h"
	.file 15 "/home/kapoagaeming/Downloads/spacemit-image-builder/components/edk2/MdePkg/Include/Library/MemoryAllocationLib.h"
	.file 16 "/home/kapoagaeming/Downloads/spacemit-image-builder/components/edk2/RedfishPkg/Include/Library/BaseUcs2Utf8Lib.h"
	.section	.note.GNU-stack,"",@progbits
