	.file	"DiskUtil.c"
	.option pic
	.option norelax
	.attribute arch, "rv64i2p1_m2p0_a2p1_f2p2_d2p2_c2p0_zicsr2p0_zifencei2p0_zmmul1p0_zaamo1p0_zalrsc1p0_zca1p0_zcd1p0"
	.attribute unaligned_access, 0
	.attribute stack_align, 16
	.text
.Ltext0:
	.cfi_sections	.debug_frame
	.file 0 "/home/kapoagaeming/spacemit-image-builder/components/Build/Milk-V-Jupiter/RELEASE_GCC5/RISCV64/Features/Ext4Pkg/Ext4Dxe/Ext4Dxe" "/home/kapoagaeming/spacemit-image-builder/components/edk2-platforms/Features/Ext4Pkg/Ext4Dxe/DiskUtil.c"
	.section	.text.Ext4ReadDiskIo,"ax",@progbits
	.align	1
	.globl	Ext4ReadDiskIo
	.type	Ext4ReadDiskIo, @function
Ext4ReadDiskIo:
.LFB0:
	.file 1 "/home/kapoagaeming/spacemit-image-builder/components/edk2-platforms/Features/Ext4Pkg/Ext4Dxe/DiskUtil.c"
	.loc 1 26 1
	.cfi_startproc
	addi	sp,sp,-48
	.cfi_def_cfa_offset 48
	sd	ra,40(sp)
	sd	s0,32(sp)
	.cfi_offset 1, -8
	.cfi_offset 8, -16
	addi	s0,sp,48
	.cfi_def_cfa 8, 0
	sd	a0,-24(s0)
	sd	a1,-32(s0)
	sd	a2,-40(s0)
	sd	a3,-48(s0)
	.loc 1 27 19
	ld	a5,-24(s0)
	ld	a5,16(a5)
	.loc 1 27 27
	ld	a5,8(a5)
	.loc 1 27 10
	ld	a4,-24(s0)
	ld	a0,16(a4)
	.loc 1 29 47
	ld	a4,-24(s0)
	ld	a4,32(a4)
	.loc 1 29 56
	ld	a4,8(a4)
	.loc 1 27 10
	lw	a1,0(a4)
	ld	a4,-32(s0)
	ld	a3,-40(s0)
	ld	a2,-48(s0)
	jalr	a5
.LVL0:
	mv	a5,a0
	.loc 1 34 1
	mv	a0,a5
	ld	ra,40(sp)
	.cfi_restore 1
	ld	s0,32(sp)
	.cfi_restore 8
	.cfi_def_cfa 2, 48
	addi	sp,sp,48
	.cfi_def_cfa_offset 0
	jr	ra
	.cfi_endproc
.LFE0:
	.size	Ext4ReadDiskIo, .-Ext4ReadDiskIo
	.section	.text.Ext4ReadBlocks,"ax",@progbits
	.align	1
	.globl	Ext4ReadBlocks
	.type	Ext4ReadBlocks, @function
Ext4ReadBlocks:
.LFB1:
	.loc 1 53 1
	.cfi_startproc
	addi	sp,sp,-64
	.cfi_def_cfa_offset 64
	sd	ra,56(sp)
	sd	s0,48(sp)
	.cfi_offset 1, -8
	.cfi_offset 8, -16
	addi	s0,sp,64
	.cfi_def_cfa 8, 0
	sd	a0,-40(s0)
	sd	a1,-48(s0)
	sd	a2,-56(s0)
	sd	a3,-64(s0)
	.loc 1 60 12
	ld	a5,-40(s0)
	lw	a5,1084(a5)
	mv	a1,a5
	ld	a0,-64(s0)
	call	MultU64x32@plt
	sd	a0,-24(s0)
	.loc 1 61 36
	ld	a5,-40(s0)
	lw	a5,1084(a5)
	slli	a5,a5,32
	srli	a5,a5,32
	.loc 1 61 10
	ld	a4,-56(s0)
	mul	a5,a4,a5
	sd	a5,-32(s0)
	.loc 1 66 7
	li	a2,0
	ld	a1,-64(s0)
	ld	a0,-24(s0)
	call	DivU64x64Remainder@plt
	mv	a4,a0
	.loc 1 66 74 discriminator 1
	ld	a5,-40(s0)
	lw	a5,1084(a5)
	slli	a5,a5,32
	srli	a5,a5,32
	.loc 1 66 6 discriminator 1
	beq	a4,a5,.L4
	.loc 1 67 12
	li	a5,-1
	slli	a5,a5,63
	addi	a5,a5,2
	j	.L5
.L4:
	.loc 1 70 14
	ld	a4,-32(s0)
	ld	a5,-56(s0)
	divu	a4,a4,a5
	.loc 1 70 41
	ld	a5,-40(s0)
	lw	a5,1084(a5)
	slli	a5,a5,32
	srli	a5,a5,32
	.loc 1 70 6
	beq	a4,a5,.L6
	.loc 1 71 12
	li	a5,-1
	slli	a5,a5,63
	addi	a5,a5,2
	j	.L5
.L6:
	.loc 1 74 10
	ld	a3,-24(s0)
	ld	a2,-32(s0)
	ld	a1,-48(s0)
	ld	a0,-40(s0)
	call	Ext4ReadDiskIo
	mv	a5,a0
.L5:
	.loc 1 75 1
	mv	a0,a5
	ld	ra,56(sp)
	.cfi_restore 1
	ld	s0,48(sp)
	.cfi_restore 8
	.cfi_def_cfa 2, 64
	addi	sp,sp,64
	.cfi_def_cfa_offset 0
	jr	ra
	.cfi_endproc
.LFE1:
	.size	Ext4ReadBlocks, .-Ext4ReadBlocks
	.section	.text.Ext4AllocAndReadBlocks,"ax",@progbits
	.align	1
	.globl	Ext4AllocAndReadBlocks
	.type	Ext4AllocAndReadBlocks, @function
Ext4AllocAndReadBlocks:
.LFB2:
	.loc 1 94 1
	.cfi_startproc
	addi	sp,sp,-64
	.cfi_def_cfa_offset 64
	sd	ra,56(sp)
	sd	s0,48(sp)
	.cfi_offset 1, -8
	.cfi_offset 8, -16
	addi	s0,sp,64
	.cfi_def_cfa 8, 0
	sd	a0,-40(s0)
	sd	a1,-48(s0)
	sd	a2,-56(s0)
	.loc 1 101 6
	ld	a5,-48(s0)
	beq	a5,zero,.L8
	.loc 1 101 27 discriminator 1
	ld	a5,-56(s0)
	bne	a5,zero,.L9
.L8:
	.loc 1 102 12
	li	a5,0
	j	.L10
.L9:
	.loc 1 105 36
	ld	a5,-40(s0)
	lw	a5,1084(a5)
	slli	a5,a5,32
	srli	a5,a5,32
	.loc 1 105 10
	ld	a4,-48(s0)
	mul	a5,a4,a5
	sd	a5,-24(s0)
	.loc 1 108 14
	ld	a4,-24(s0)
	ld	a5,-48(s0)
	divu	a4,a4,a5
	.loc 1 108 41
	ld	a5,-40(s0)
	lw	a5,1084(a5)
	slli	a5,a5,32
	srli	a5,a5,32
	.loc 1 108 6
	beq	a4,a5,.L11
	.loc 1 109 12
	li	a5,0
	j	.L10
.L11:
	.loc 1 112 9
	ld	a0,-24(s0)
	call	AllocatePool@plt
	sd	a0,-32(s0)
	.loc 1 113 6
	ld	a5,-32(s0)
	bne	a5,zero,.L12
	.loc 1 114 12
	li	a5,0
	j	.L10
.L12:
	.loc 1 117 7
	ld	a3,-56(s0)
	ld	a2,-48(s0)
	ld	a1,-32(s0)
	ld	a0,-40(s0)
	call	Ext4ReadBlocks
	mv	a5,a0
	.loc 1 117 6 discriminator 1
	beq	a5,zero,.L13
	.loc 1 118 5
	ld	a0,-32(s0)
	call	FreePool@plt
	.loc 1 119 12
	li	a5,0
	j	.L10
.L13:
	.loc 1 122 10
	ld	a5,-32(s0)
.L10:
	.loc 1 123 1
	mv	a0,a5
	ld	ra,56(sp)
	.cfi_restore 1
	ld	s0,48(sp)
	.cfi_restore 8
	.cfi_def_cfa 2, 64
	addi	sp,sp,64
	.cfi_def_cfa_offset 0
	jr	ra
	.cfi_endproc
.LFE2:
	.size	Ext4AllocAndReadBlocks, .-Ext4AllocAndReadBlocks
	.text
.Letext0:
	.file 2 "/home/kapoagaeming/spacemit-image-builder/components/edk2/MdePkg/Include/RiscV64/ProcessorBind.h"
	.file 3 "/home/kapoagaeming/spacemit-image-builder/components/edk2/MdePkg/Include/Base.h"
	.file 4 "/home/kapoagaeming/spacemit-image-builder/components/edk2/MdePkg/Include/Uefi/UefiBaseType.h"
	.file 5 "/home/kapoagaeming/spacemit-image-builder/components/edk2/MdePkg/Include/Protocol/BlockIo.h"
	.file 6 "/home/kapoagaeming/spacemit-image-builder/components/edk2/MdePkg/Include/Protocol/DiskIo.h"
	.file 7 "/home/kapoagaeming/spacemit-image-builder/components/edk2/MdePkg/Include/Protocol/DiskIo2.h"
	.file 8 "/home/kapoagaeming/spacemit-image-builder/components/edk2/MdePkg/Include/Protocol/SimpleFileSystem.h"
	.file 9 "/home/kapoagaeming/spacemit-image-builder/components/edk2/MdePkg/Include/Library/OrderedCollectionLib.h"
	.file 10 "/home/kapoagaeming/spacemit-image-builder/components/edk2-platforms/Features/Ext4Pkg/Ext4Dxe/Ext4Disk.h"
	.file 11 "/home/kapoagaeming/spacemit-image-builder/components/edk2-platforms/Features/Ext4Pkg/Ext4Dxe/Ext4Dxe.h"
	.file 12 "/home/kapoagaeming/spacemit-image-builder/components/edk2/MdePkg/Include/Library/MemoryAllocationLib.h"
	.file 13 "/home/kapoagaeming/spacemit-image-builder/components/edk2/MdePkg/Include/Library/BaseLib.h"
	.section	.note.GNU-stack,"",@progbits
