	.file	"Ext4Dxe.c"
	.option pic
	.option norelax
	.attribute arch, "rv64i2p1_m2p0_a2p1_f2p2_d2p2_c2p0_zicsr2p0_zifencei2p0_zmmul1p0_zaamo1p0_zalrsc1p0_zca1p0_zcd1p0"
	.attribute unaligned_access, 0
	.attribute stack_align, 16
	.text
.Ltext0:
	.cfi_sections	.debug_frame
	.file 0 "/home/kapoagaeming/Downloads/spacemit-image-builder/components/Build/Milk-V-Jupiter/RELEASE_GCC5/RISCV64/Features/Ext4Pkg/Ext4Dxe/Ext4Dxe" "/home/kapoagaeming/Downloads/spacemit-image-builder/components/edk2-platforms/Features/Ext4Pkg/Ext4Dxe/Ext4Dxe.c"
	.globl	mExt4DriverNameTable
	.section	.rodata
	.align	3
.LC0:
	.string	"eng;en"
	.align	3
.LC1:
	.string	"E"
	.string	"x"
	.string	"t"
	.string	"4"
	.string	" "
	.string	"F"
	.string	"i"
	.string	"l"
	.string	"e"
	.string	" "
	.string	"S"
	.string	"y"
	.string	"s"
	.string	"t"
	.string	"e"
	.string	"m"
	.string	" "
	.string	"D"
	.string	"r"
	.string	"i"
	.string	"v"
	.string	"e"
	.string	"r"
	.zero	2
	.section	.data.rel.local.mExt4DriverNameTable,"aw"
	.align	3
	.type	mExt4DriverNameTable, @object
	.size	mExt4DriverNameTable, 32
mExt4DriverNameTable:
	.dword	.LC0
	.dword	.LC1
	.dword	0
	.dword	0
	.globl	mExt4ControllerNameTable
	.section	.rodata
	.align	3
.LC2:
	.string	"E"
	.string	"x"
	.string	"t"
	.string	"4"
	.string	" "
	.string	"F"
	.string	"i"
	.string	"l"
	.string	"e"
	.string	" "
	.string	"S"
	.string	"y"
	.string	"s"
	.string	"t"
	.string	"e"
	.string	"m"
	.zero	2
	.section	.data.rel.local.mExt4ControllerNameTable,"aw"
	.align	3
	.type	mExt4ControllerNameTable, @object
	.size	mExt4ControllerNameTable, 32
mExt4ControllerNameTable:
	.dword	.LC0
	.dword	.LC2
	.dword	0
	.dword	0
	.globl	gExt4ComponentName
	.section	.rodata
	.align	3
.LC3:
	.string	"eng"
	.section	.data.rel.local.gExt4ComponentName,"aw"
	.align	3
	.type	gExt4ComponentName, @object
	.size	gExt4ComponentName, 24
gExt4ComponentName:
	.dword	Ext4ComponentNameGetDriverName
	.dword	Ext4ComponentNameGetControllerName
	.dword	.LC3
	.globl	gExt4ComponentName2
	.section	.rodata
	.align	3
.LC4:
	.string	"en"
	.section	.data.rel.local.gExt4ComponentName2,"aw"
	.align	3
	.type	gExt4ComponentName2, @object
	.size	gExt4ComponentName2, 24
gExt4ComponentName2:
	.dword	Ext4ComponentNameGetDriverName
	.dword	Ext4ComponentNameGetControllerName
	.dword	.LC4
	.globl	gExt4BindingProtocol
	.section	.data.rel.local.gExt4BindingProtocol,"aw"
	.align	3
	.type	gExt4BindingProtocol, @object
	.size	gExt4BindingProtocol, 48
gExt4BindingProtocol:
	.dword	Ext4IsBindingSupported
	.dword	Ext4Bind
	.dword	Ext4Stop
	.word	0
	.zero	4
	.dword	0
	.dword	0
	.section	.text.Ext4ComponentNameGetControllerName,"ax",@progbits
	.align	1
	.globl	Ext4ComponentNameGetControllerName
	.type	Ext4ComponentNameGetControllerName, @function
Ext4ComponentNameGetControllerName:
.LFB0:
	.file 1 "/home/kapoagaeming/Downloads/spacemit-image-builder/components/edk2-platforms/Features/Ext4Pkg/Ext4Dxe/Ext4Dxe.c"
	.loc 1 320 1
	.cfi_startproc
	addi	sp,sp,-80
	.cfi_def_cfa_offset 80
	sd	ra,72(sp)
	sd	s0,64(sp)
	.cfi_offset 1, -8
	.cfi_offset 8, -16
	addi	s0,sp,80
	.cfi_def_cfa 8, 0
	sd	a0,-40(s0)
	sd	a1,-48(s0)
	sd	a2,-56(s0)
	sd	a3,-64(s0)
	sd	a4,-72(s0)
	.loc 1 323 6
	ld	a5,-56(s0)
	beq	a5,zero,.L2
	.loc 1 324 12
	li	a5,-1
	slli	a5,a5,63
	addi	a5,a5,3
	j	.L3
.L2:
	.loc 1 330 34
	lla	a5,gExt4BindingProtocol
	ld	a5,40(a5)
	.loc 1 328 12
	la	a2,gEfiDiskIoProtocolGuid
	mv	a1,a5
	ld	a0,-48(s0)
	call	EfiTestManagedDevice@plt
	sd	a0,-24(s0)
	.loc 1 334 34
	ld	a5,-24(s0)
	.loc 1 334 6
	bge	a5,zero,.L4
	.loc 1 335 12
	ld	a5,-24(s0)
	j	.L3
.L4:
	.loc 1 340 16
	ld	a5,-40(s0)
	ld	a1,16(a5)
	.loc 1 343 12
	ld	a4,-40(s0)
	lla	a5,gExt4ComponentName
	sub	a5,a4,a5
	seqz	a5,a5
	andi	a5,a5,0xff
	.loc 1 338 10
	mv	a4,a5
	ld	a3,-72(s0)
	lla	a2,mExt4ControllerNameTable
	ld	a0,-64(s0)
	call	LookupUnicodeString2@plt
	mv	a5,a0
.L3:
	.loc 1 345 1
	mv	a0,a5
	ld	ra,72(sp)
	.cfi_restore 1
	ld	s0,64(sp)
	.cfi_restore 8
	.cfi_def_cfa 2, 80
	addi	sp,sp,80
	.cfi_def_cfa_offset 0
	jr	ra
	.cfi_endproc
.LFE0:
	.size	Ext4ComponentNameGetControllerName, .-Ext4ComponentNameGetControllerName
	.section	.text.Ext4ComponentNameGetDriverName,"ax",@progbits
	.align	1
	.globl	Ext4ComponentNameGetDriverName
	.type	Ext4ComponentNameGetDriverName, @function
Ext4ComponentNameGetDriverName:
.LFB1:
	.loc 1 376 1
	.cfi_startproc
	addi	sp,sp,-48
	.cfi_def_cfa_offset 48
	sd	ra,40(sp)
	sd	s0,32(sp)
	.cfi_offset 1, -8
	.cfi_offset 8, -16
	addi	s0,sp,48
	.cfi_def_cfa 8, 0
	sd	a0,-24(s0)
	sd	a1,-32(s0)
	sd	a2,-40(s0)
	.loc 1 379 16
	ld	a5,-24(s0)
	ld	a1,16(a5)
	.loc 1 382 12
	ld	a4,-24(s0)
	lla	a5,gExt4ComponentName
	sub	a5,a4,a5
	seqz	a5,a5
	andi	a5,a5,0xff
	.loc 1 377 10
	mv	a4,a5
	ld	a3,-40(s0)
	lla	a2,mExt4DriverNameTable
	ld	a0,-32(s0)
	call	LookupUnicodeString2@plt
	mv	a5,a0
	.loc 1 384 1
	mv	a0,a5
	ld	ra,40(sp)
	.cfi_restore 1
	ld	s0,32(sp)
	.cfi_restore 8
	.cfi_def_cfa 2, 48
	addi	sp,sp,48
	.cfi_def_cfa_offset 0
	jr	ra
	.cfi_endproc
.LFE1:
	.size	Ext4ComponentNameGetDriverName, .-Ext4ComponentNameGetDriverName
	.section	.text.Ext4Stop,"ax",@progbits
	.align	1
	.globl	Ext4Stop
	.type	Ext4Stop, @function
Ext4Stop:
.LFB2:
	.loc 1 420 1
	.cfi_startproc
	addi	sp,sp,-80
	.cfi_def_cfa_offset 80
	sd	ra,72(sp)
	sd	s0,64(sp)
	.cfi_offset 1, -8
	.cfi_offset 8, -16
	addi	s0,sp,80
	.cfi_def_cfa 8, 0
	sd	a0,-56(s0)
	sd	a1,-64(s0)
	sd	a2,-72(s0)
	sd	a3,-80(s0)
	.loc 1 426 15
	la	a5,gBS
	ld	a5,0(a5)
	ld	a6,280(a5)
	.loc 1 426 12
	ld	a5,-56(s0)
	ld	a3,40(a5)
	addi	a2,s0,-48
	li	a5,2
	ld	a4,-64(s0)
	la	a1,gEfiSimpleFileSystemProtocolGuid
	ld	a0,-64(s0)
	jalr	a6
.LVL0:
	sd	a0,-24(s0)
	.loc 1 435 34
	ld	a5,-24(s0)
	.loc 1 435 6
	bge	a5,zero,.L8
	.loc 1 436 12
	ld	a5,-24(s0)
	j	.L15
.L8:
	.loc 1 439 13
	ld	a5,-48(s0)
	sd	a5,-32(s0)
	.loc 1 441 25
	ld	a5,-32(s0)
	ld	a5,24(a5)
	.loc 1 441 35
	snez	a5,a5
	andi	a5,a5,0xff
	.loc 1 441 14
	sb	a5,-33(s0)
	.loc 1 443 12
	ld	a0,-32(s0)
	call	Ext4UnmountAndFreePartition@plt
	sd	a0,-24(s0)
	.loc 1 445 34
	ld	a5,-24(s0)
	.loc 1 445 6
	bge	a5,zero,.L10
	.loc 1 446 12
	ld	a5,-24(s0)
	j	.L15
.L10:
	.loc 1 449 15
	la	a5,gBS
	ld	a5,0(a5)
	ld	a5,336(a5)
	.loc 1 449 12
	ld	a4,-32(s0)
	li	a3,0
	mv	a2,a4
	la	a1,gEfiSimpleFileSystemProtocolGuid
	ld	a0,-64(s0)
	jalr	a5
.LVL1:
	sd	a0,-24(s0)
	.loc 1 456 34
	ld	a5,-24(s0)
	.loc 1 456 6
	bge	a5,zero,.L11
	.loc 1 457 12
	ld	a5,-24(s0)
	j	.L15
.L11:
	.loc 1 462 15
	la	a5,gBS
	ld	a5,0(a5)
	ld	a5,288(a5)
	.loc 1 462 12
	ld	a4,-56(s0)
	ld	a4,40(a4)
	ld	a3,-64(s0)
	mv	a2,a4
	la	a1,gEfiDiskIoProtocolGuid
	ld	a0,-64(s0)
	jalr	a5
.LVL2:
	sd	a0,-24(s0)
	.loc 1 469 34
	ld	a5,-24(s0)
	.loc 1 469 6
	bge	a5,zero,.L12
	.loc 1 470 12
	ld	a5,-24(s0)
	j	.L15
.L12:
	.loc 1 473 15
	la	a5,gBS
	ld	a5,0(a5)
	ld	a5,288(a5)
	.loc 1 473 12
	ld	a4,-56(s0)
	ld	a4,40(a4)
	ld	a3,-64(s0)
	mv	a2,a4
	la	a1,gEfiBlockIoProtocolGuid
	ld	a0,-64(s0)
	jalr	a5
.LVL3:
	sd	a0,-24(s0)
	.loc 1 480 34
	ld	a5,-24(s0)
	.loc 1 480 6
	bge	a5,zero,.L13
	.loc 1 481 12
	ld	a5,-24(s0)
	j	.L15
.L13:
	.loc 1 484 6
	lbu	a5,-33(s0)
	andi	a5,a5,0xff
	beq	a5,zero,.L14
	.loc 1 485 17
	la	a5,gBS
	ld	a5,0(a5)
	ld	a5,288(a5)
	.loc 1 485 14
	ld	a4,-56(s0)
	ld	a4,40(a4)
	ld	a3,-64(s0)
	mv	a2,a4
	la	a1,gEfiDiskIo2ProtocolGuid
	ld	a0,-64(s0)
	jalr	a5
.LVL4:
	sd	a0,-24(s0)
	.loc 1 492 36
	ld	a5,-24(s0)
	.loc 1 492 8
	bge	a5,zero,.L14
	.loc 1 493 14
	ld	a5,-24(s0)
	j	.L15
.L14:
	.loc 1 497 10
	ld	a5,-24(s0)
.L15:
	.loc 1 498 1
	mv	a0,a5
	ld	ra,72(sp)
	.cfi_restore 1
	ld	s0,64(sp)
	.cfi_restore 8
	.cfi_def_cfa 2, 80
	addi	sp,sp,80
	.cfi_def_cfa_offset 0
	jr	ra
	.cfi_endproc
.LFE2:
	.size	Ext4Stop, .-Ext4Stop
	.section	.text.Ext4EntryPoint,"ax",@progbits
	.align	1
	.globl	Ext4EntryPoint
	.type	Ext4EntryPoint, @function
Ext4EntryPoint:
.LFB3:
	.loc 1 515 1
	.cfi_startproc
	addi	sp,sp,-48
	.cfi_def_cfa_offset 48
	sd	ra,40(sp)
	sd	s0,32(sp)
	.cfi_offset 1, -8
	.cfi_offset 8, -16
	addi	s0,sp,48
	.cfi_def_cfa 8, 0
	sd	a0,-24(s0)
	sd	a1,-32(s0)
	.loc 1 516 10
	sd	zero,8(sp)
	sd	zero,0(sp)
	li	a7,0
	li	a6,0
	lla	a5,gExt4ComponentName2
	lla	a4,gExt4ComponentName
	ld	a3,-24(s0)
	lla	a2,gExt4BindingProtocol
	ld	a1,-32(s0)
	ld	a0,-24(s0)
	call	EfiLibInstallAllDriverProtocols2@plt
	mv	a5,a0
	.loc 1 528 1
	mv	a0,a5
	ld	ra,40(sp)
	.cfi_restore 1
	ld	s0,32(sp)
	.cfi_restore 8
	.cfi_def_cfa 2, 48
	addi	sp,sp,48
	.cfi_def_cfa_offset 0
	jr	ra
	.cfi_endproc
.LFE3:
	.size	Ext4EntryPoint, .-Ext4EntryPoint
	.section	.text.Ext4Unload,"ax",@progbits
	.align	1
	.globl	Ext4Unload
	.type	Ext4Unload, @function
Ext4Unload:
.LFB4:
	.loc 1 543 1
	.cfi_startproc
	addi	sp,sp,-80
	.cfi_def_cfa_offset 80
	sd	ra,72(sp)
	sd	s0,64(sp)
	.cfi_offset 1, -8
	.cfi_offset 8, -16
	addi	s0,sp,80
	.cfi_def_cfa 8, 0
	sd	a0,-72(s0)
	.loc 1 550 15
	la	a5,gBS
	ld	a5,0(a5)
	ld	a5,312(a5)
	.loc 1 550 12
	addi	a4,s0,-48
	addi	a3,s0,-56
	li	a2,0
	li	a1,0
	li	a0,0
	jalr	a5
.LVL5:
	sd	a0,-32(s0)
	.loc 1 557 34
	ld	a5,-32(s0)
	.loc 1 557 6
	bge	a5,zero,.L19
	.loc 1 558 12
	ld	a5,-32(s0)
	j	.L25
.L19:
	.loc 1 561 14
	sd	zero,-24(s0)
	.loc 1 561 3
	j	.L21
.L24:
	.loc 1 562 32
	ld	a4,-48(s0)
	ld	a5,-24(s0)
	slli	a5,a5,3
	add	a5,a4,a5
	.loc 1 562 12
	ld	a5,0(a5)
	sd	a5,-40(s0)
	.loc 1 564 14
	la	a2,gEfiDiskIoProtocolGuid
	ld	a1,-72(s0)
	ld	a0,-40(s0)
	call	EfiTestManagedDevice@plt
	sd	a0,-32(s0)
	.loc 1 566 8
	ld	a5,-32(s0)
	bne	a5,zero,.L22
	.loc 1 567 19
	la	a5,gBS
	ld	a5,0(a5)
	ld	a5,272(a5)
	.loc 1 567 16
	li	a2,0
	ld	a1,-72(s0)
	ld	a0,-40(s0)
	jalr	a5
.LVL6:
	sd	a0,-32(s0)
	.loc 1 569 38
	ld	a5,-32(s0)
	.loc 1 569 10
	blt	a5,zero,.L26
.L22:
	.loc 1 561 51 discriminator 2
	ld	a5,-24(s0)
	addi	a5,a5,1
	sd	a5,-24(s0)
.L21:
	.loc 1 561 25 discriminator 1
	ld	a5,-56(s0)
	ld	a4,-24(s0)
	bltu	a4,a5,.L24
	j	.L23
.L26:
	.loc 1 570 9
	nop
.L23:
	.loc 1 575 3
	ld	a5,-48(s0)
	mv	a0,a5
	call	FreePool@plt
	.loc 1 577 12
	li	a6,0
	li	a5,0
	li	a4,0
	li	a3,0
	lla	a2,gExt4ComponentName2
	lla	a1,gExt4ComponentName
	lla	a0,gExt4BindingProtocol
	call	EfiLibUninstallAllDriverProtocols2@plt
	sd	a0,-32(s0)
	.loc 1 587 10
	ld	a5,-32(s0)
.L25:
	.loc 1 588 1
	mv	a0,a5
	ld	ra,72(sp)
	.cfi_restore 1
	ld	s0,64(sp)
	.cfi_restore 8
	.cfi_def_cfa 2, 80
	addi	sp,sp,80
	.cfi_def_cfa_offset 0
	jr	ra
	.cfi_endproc
.LFE4:
	.size	Ext4Unload, .-Ext4Unload
	.section	.text.Ext4IsBindingSupported,"ax",@progbits
	.align	1
	.globl	Ext4IsBindingSupported
	.type	Ext4IsBindingSupported, @function
Ext4IsBindingSupported:
.LFB5:
	.loc 1 638 1
	.cfi_startproc
	addi	sp,sp,-80
	.cfi_def_cfa_offset 80
	sd	ra,72(sp)
	sd	s0,64(sp)
	.cfi_offset 1, -8
	.cfi_offset 8, -16
	addi	s0,sp,80
	.cfi_def_cfa 8, 0
	sd	a0,-56(s0)
	sd	a1,-64(s0)
	sd	a2,-72(s0)
	.loc 1 643 10
	sd	zero,-32(s0)
	.loc 1 644 11
	sd	zero,-40(s0)
	.loc 1 649 15
	la	a5,gBS
	ld	a5,0(a5)
	ld	a6,280(a5)
	.loc 1 649 12
	ld	a5,-56(s0)
	ld	a3,40(a5)
	addi	a2,s0,-32
	li	a5,16
	ld	a4,-64(s0)
	la	a1,gEfiDiskIoProtocolGuid
	ld	a0,-64(s0)
	jalr	a6
.LVL7:
	sd	a0,-24(s0)
	.loc 1 658 34
	ld	a5,-24(s0)
	.loc 1 658 6
	bge	a5,zero,.L28
	.loc 1 659 12
	ld	a5,-24(s0)
	j	.L33
.L28:
	.loc 1 665 15
	la	a5,gBS
	ld	a5,0(a5)
	ld	a6,280(a5)
	.loc 1 665 12
	ld	a5,-56(s0)
	ld	a3,40(a5)
	addi	a2,s0,-40
	li	a5,2
	ld	a4,-64(s0)
	la	a1,gEfiBlockIoProtocolGuid
	ld	a0,-64(s0)
	jalr	a6
.LVL8:
	sd	a0,-24(s0)
	.loc 1 674 7
	ld	a5,-24(s0)
	.loc 1 674 6
	blt	a5,zero,.L30
	.loc 1 675 10
	ld	a5,-32(s0)
	ld	a4,-40(s0)
	mv	a1,a4
	mv	a0,a5
	call	Ext4SuperblockCheckMagic@plt
	mv	a5,a0
	.loc 1 675 8 discriminator 1
	bne	a5,zero,.L30
	.loc 1 676 14
	li	a5,-1
	slli	a5,a5,63
	addi	a5,a5,3
	sd	a5,-24(s0)
.L30:
	.loc 1 683 14
	ld	a5,-32(s0)
	.loc 1 683 6
	beq	a5,zero,.L31
	.loc 1 684 8
	la	a5,gBS
	ld	a5,0(a5)
	ld	a5,288(a5)
	.loc 1 684 5
	ld	a4,-56(s0)
	ld	a4,40(a4)
	ld	a3,-64(s0)
	mv	a2,a4
	la	a1,gEfiDiskIoProtocolGuid
	ld	a0,-64(s0)
	jalr	a5
.LVL9:
.L31:
	.loc 1 692 15
	ld	a5,-40(s0)
	.loc 1 692 6
	beq	a5,zero,.L32
	.loc 1 693 8
	la	a5,gBS
	ld	a5,0(a5)
	ld	a5,288(a5)
	.loc 1 693 5
	ld	a4,-56(s0)
	ld	a4,40(a4)
	ld	a3,-64(s0)
	mv	a2,a4
	la	a1,gEfiBlockIoProtocolGuid
	ld	a0,-64(s0)
	jalr	a5
.LVL10:
.L32:
	.loc 1 701 10
	ld	a5,-24(s0)
.L33:
	.loc 1 702 1
	mv	a0,a5
	ld	ra,72(sp)
	.cfi_restore 1
	ld	s0,64(sp)
	.cfi_restore 8
	.cfi_def_cfa 2, 80
	addi	sp,sp,80
	.cfi_def_cfa_offset 0
	jr	ra
	.cfi_endproc
.LFE5:
	.size	Ext4IsBindingSupported, .-Ext4IsBindingSupported
	.section	.text.Ext4Bind,"ax",@progbits
	.align	1
	.globl	Ext4Bind
	.type	Ext4Bind, @function
Ext4Bind:
.LFB6:
	.loc 1 746 1
	.cfi_startproc
	addi	sp,sp,-80
	.cfi_def_cfa_offset 80
	sd	ra,72(sp)
	sd	s0,64(sp)
	.cfi_offset 1, -8
	.cfi_offset 8, -16
	addi	s0,sp,80
	.cfi_def_cfa 8, 0
	sd	a0,-56(s0)
	sd	a1,-64(s0)
	sd	a2,-72(s0)
	.loc 1 752 11
	sd	zero,-40(s0)
	.loc 1 753 11
	sd	zero,-48(s0)
	.loc 1 754 10
	sd	zero,-32(s0)
	.loc 1 758 12
	ld	a5,-56(s0)
	ld	a5,32(a5)
	mv	a0,a5
	call	Ext4InitialiseUnicodeCollation@plt
	sd	a0,-24(s0)
	.loc 1 759 34
	ld	a5,-24(s0)
	.loc 1 759 6
	blt	a5,zero,.L44
	.loc 1 767 15
	la	a5,gBS
	ld	a5,0(a5)
	ld	a6,280(a5)
	.loc 1 767 12
	ld	a5,-56(s0)
	ld	a3,32(a5)
	addi	a2,s0,-32
	li	a5,16
	ld	a4,-64(s0)
	la	a1,gEfiDiskIoProtocolGuid
	ld	a0,-64(s0)
	jalr	a6
.LVL11:
	sd	a0,-24(s0)
	.loc 1 776 34
	ld	a5,-24(s0)
	.loc 1 776 6
	blt	a5,zero,.L45
	.loc 1 782 15
	la	a5,gBS
	ld	a5,0(a5)
	ld	a6,280(a5)
	.loc 1 782 12
	ld	a5,-56(s0)
	ld	a3,32(a5)
	addi	a2,s0,-40
	li	a5,16
	ld	a4,-64(s0)
	la	a1,gEfiDiskIo2ProtocolGuid
	ld	a0,-64(s0)
	jalr	a6
.LVL12:
	sd	a0,-24(s0)
	.loc 1 796 15
	la	a5,gBS
	ld	a5,0(a5)
	ld	a6,280(a5)
	.loc 1 796 12
	ld	a5,-56(s0)
	ld	a3,32(a5)
	addi	a2,s0,-48
	li	a5,2
	ld	a4,-64(s0)
	la	a1,gEfiBlockIoProtocolGuid
	ld	a0,-64(s0)
	jalr	a6
.LVL13:
	sd	a0,-24(s0)
	.loc 1 805 34
	ld	a5,-24(s0)
	.loc 1 805 6
	blt	a5,zero,.L46
	.loc 1 809 12
	ld	a5,-32(s0)
	ld	a4,-40(s0)
	ld	a3,-48(s0)
	mv	a2,a4
	mv	a1,a5
	ld	a0,-64(s0)
	call	Ext4OpenPartition@plt
	sd	a0,-24(s0)
	.loc 1 811 34
	ld	a5,-24(s0)
	.loc 1 811 6
	blt	a5,zero,.L36
	.loc 1 815 12
	ld	a5,-24(s0)
	j	.L43
.L44:
	.loc 1 764 5
	nop
	j	.L36
.L45:
	.loc 1 777 5
	nop
	j	.L36
.L46:
	.loc 1 806 5
	nop
.L36:
	.loc 1 819 7
	ld	a5,-32(s0)
	.loc 1 819 6
	beq	a5,zero,.L40
	.loc 1 820 8
	la	a5,gBS
	ld	a5,0(a5)
	ld	a5,288(a5)
	.loc 1 820 5
	ld	a4,-56(s0)
	ld	a4,32(a4)
	ld	a3,-64(s0)
	mv	a2,a4
	la	a1,gEfiDiskIoProtocolGuid
	ld	a0,-64(s0)
	jalr	a5
.LVL14:
.L40:
	.loc 1 828 7
	ld	a5,-40(s0)
	.loc 1 828 6
	beq	a5,zero,.L41
	.loc 1 829 8
	la	a5,gBS
	ld	a5,0(a5)
	ld	a5,288(a5)
	.loc 1 829 5
	ld	a4,-56(s0)
	ld	a4,32(a4)
	ld	a3,-64(s0)
	mv	a2,a4
	la	a1,gEfiDiskIo2ProtocolGuid
	ld	a0,-64(s0)
	jalr	a5
.LVL15:
.L41:
	.loc 1 837 7
	ld	a5,-48(s0)
	.loc 1 837 6
	beq	a5,zero,.L42
	.loc 1 838 8
	la	a5,gBS
	ld	a5,0(a5)
	ld	a5,288(a5)
	.loc 1 838 5
	ld	a4,-56(s0)
	ld	a4,32(a4)
	ld	a3,-64(s0)
	mv	a2,a4
	la	a1,gEfiBlockIoProtocolGuid
	ld	a0,-64(s0)
	jalr	a5
.LVL16:
.L42:
	.loc 1 846 10
	ld	a5,-24(s0)
.L43:
	.loc 1 847 1
	mv	a0,a5
	ld	ra,72(sp)
	.cfi_restore 1
	ld	s0,64(sp)
	.cfi_restore 8
	.cfi_def_cfa 2, 80
	addi	sp,sp,80
	.cfi_def_cfa_offset 0
	jr	ra
	.cfi_endproc
.LFE6:
	.size	Ext4Bind, .-Ext4Bind
	.text
.Letext0:
	.file 2 "/home/kapoagaeming/Downloads/spacemit-image-builder/components/edk2/MdePkg/Include/RiscV64/ProcessorBind.h"
	.file 3 "/home/kapoagaeming/Downloads/spacemit-image-builder/components/edk2/MdePkg/Include/Base.h"
	.file 4 "/home/kapoagaeming/Downloads/spacemit-image-builder/components/edk2/MdePkg/Include/Uefi/UefiBaseType.h"
	.file 5 "/home/kapoagaeming/Downloads/spacemit-image-builder/components/edk2/MdePkg/Include/Uefi/UefiMultiPhase.h"
	.file 6 "/home/kapoagaeming/Downloads/spacemit-image-builder/components/edk2/MdePkg/Include/Protocol/DevicePath.h"
	.file 7 "/home/kapoagaeming/Downloads/spacemit-image-builder/components/edk2/MdePkg/Include/Protocol/SimpleTextIn.h"
	.file 8 "/home/kapoagaeming/Downloads/spacemit-image-builder/components/edk2/MdePkg/Include/Protocol/SimpleTextOut.h"
	.file 9 "/home/kapoagaeming/Downloads/spacemit-image-builder/components/edk2/MdePkg/Include/Uefi/UefiSpec.h"
	.file 10 "/home/kapoagaeming/Downloads/spacemit-image-builder/components/Build/Milk-V-Jupiter/RELEASE_GCC5/RISCV64/Features/Ext4Pkg/Ext4Dxe/Ext4Dxe/DEBUG/AutoGen.h"
	.file 11 "/home/kapoagaeming/Downloads/spacemit-image-builder/components/edk2/MdePkg/Include/Protocol/BlockIo.h"
	.file 12 "/home/kapoagaeming/Downloads/spacemit-image-builder/components/edk2/MdePkg/Include/Protocol/DiskIo.h"
	.file 13 "/home/kapoagaeming/Downloads/spacemit-image-builder/components/edk2/MdePkg/Include/Protocol/DiskIo2.h"
	.file 14 "/home/kapoagaeming/Downloads/spacemit-image-builder/components/edk2/MdePkg/Include/Protocol/SimpleFileSystem.h"
	.file 15 "/home/kapoagaeming/Downloads/spacemit-image-builder/components/edk2/MdePkg/Include/Library/OrderedCollectionLib.h"
	.file 16 "/home/kapoagaeming/Downloads/spacemit-image-builder/components/edk2/MdePkg/Include/Protocol/DriverBinding.h"
	.file 17 "/home/kapoagaeming/Downloads/spacemit-image-builder/components/edk2/MdePkg/Include/Protocol/DriverConfiguration2.h"
	.file 18 "/home/kapoagaeming/Downloads/spacemit-image-builder/components/edk2/MdePkg/Include/Protocol/DriverConfiguration.h"
	.file 19 "/home/kapoagaeming/Downloads/spacemit-image-builder/components/edk2/MdePkg/Include/Protocol/ComponentName.h"
	.file 20 "/home/kapoagaeming/Downloads/spacemit-image-builder/components/edk2/MdePkg/Include/Protocol/ComponentName2.h"
	.file 21 "/home/kapoagaeming/Downloads/spacemit-image-builder/components/edk2/MdePkg/Include/Protocol/DriverDiagnostics.h"
	.file 22 "/home/kapoagaeming/Downloads/spacemit-image-builder/components/edk2/MdePkg/Include/Protocol/DriverDiagnostics2.h"
	.file 23 "/home/kapoagaeming/Downloads/spacemit-image-builder/components/edk2/MdePkg/Include/Library/UefiLib.h"
	.file 24 "/home/kapoagaeming/Downloads/spacemit-image-builder/components/edk2-platforms/Features/Ext4Pkg/Ext4Dxe/Ext4Disk.h"
	.file 25 "/home/kapoagaeming/Downloads/spacemit-image-builder/components/edk2-platforms/Features/Ext4Pkg/Ext4Dxe/Ext4Dxe.h"
	.file 26 "/home/kapoagaeming/Downloads/spacemit-image-builder/components/edk2/MdePkg/Include/Library/UefiBootServicesTableLib.h"
	.file 27 "/home/kapoagaeming/Downloads/spacemit-image-builder/components/edk2/MdePkg/Include/Library/MemoryAllocationLib.h"
	.section	.note.GNU-stack,"",@progbits
