	.file	"File.c"
	.option pic
	.option norelax
	.attribute arch, "rv64i2p1_m2p0_a2p1_f2p2_d2p2_c2p0_zicsr2p0_zifencei2p0_zmmul1p0_zaamo1p0_zalrsc1p0_zca1p0_zcd1p0"
	.attribute unaligned_access, 0
	.attribute stack_align, 16
	.text
.Ltext0:
	.cfi_sections	.debug_frame
	.file 0 "/home/kapoagaeming/spacemit-image-builder/components/Build/Milk-V-Jupiter/RELEASE_GCC5/RISCV64/Features/Ext4Pkg/Ext4Dxe/Ext4Dxe" "/home/kapoagaeming/spacemit-image-builder/components/edk2-platforms/Features/Ext4Pkg/Ext4Dxe/File.c"
	.section	.text.GetPathSegment,"ax",@progbits
	.align	1
	.type	GetPathSegment, @function
GetPathSegment:
.LFB0:
	.file 1 "/home/kapoagaeming/spacemit-image-builder/components/edk2-platforms/Features/Ext4Pkg/Ext4Dxe/File.c"
	.loc 1 62 1
	.cfi_startproc
	addi	sp,sp,-64
	.cfi_def_cfa_offset 64
	sd	ra,56(sp)
	sd	s0,48(sp)
	.cfi_offset 1, -8
	.cfi_offset 8, -16
	addi	s0,sp,64
	.cfi_def_cfa 8, 0
	sd	a0,-40(s0)
	sd	a1,-48(s0)
	sd	a2,-56(s0)
	.loc 1 66 9
	ld	a5,-40(s0)
	sd	a5,-32(s0)
	.loc 1 67 7
	ld	a5,-40(s0)
	sd	a5,-24(s0)
	.loc 1 70 3
	j	.L2
.L4:
	.loc 1 70 46 discriminator 3
	ld	a5,-24(s0)
	addi	a5,a5,2
	sd	a5,-24(s0)
.L2:
	.loc 1 70 11 discriminator 1
	ld	a5,-24(s0)
	lhu	a5,0(a5)
	.loc 1 70 25 discriminator 1
	beq	a5,zero,.L3
	.loc 1 70 28 discriminator 2
	ld	a5,-24(s0)
	lhu	a5,0(a5)
	.loc 1 70 25 discriminator 2
	sext.w	a4,a5
	li	a5,92
	bne	a4,a5,.L4
.L3:
	.loc 1 73 17
	ld	a4,-24(s0)
	ld	a5,-32(s0)
	sub	a5,a4,a5
	srai	a5,a5,1
	mv	a4,a5
	.loc 1 73 11
	ld	a5,-56(s0)
	sd	a4,0(a5)
	.loc 1 75 49
	ld	a4,-24(s0)
	ld	a5,-32(s0)
	sub	a5,a4,a5
	srai	a5,a5,1
	.loc 1 75 10
	mv	a3,a5
	ld	a2,-32(s0)
	li	a1,255
	ld	a0,-48(s0)
	call	StrnCpyS@plt
	mv	a5,a0
	.loc 1 76 1
	mv	a0,a5
	ld	ra,56(sp)
	.cfi_restore 1
	ld	s0,48(sp)
	.cfi_restore 8
	.cfi_def_cfa 2, 64
	addi	sp,sp,64
	.cfi_def_cfa_offset 0
	jr	ra
	.cfi_endproc
.LFE0:
	.size	GetPathSegment, .-GetPathSegment
	.section	.text.Ext4IsLastPathSegment,"ax",@progbits
	.align	1
	.type	Ext4IsLastPathSegment, @function
Ext4IsLastPathSegment:
.LFB1:
	.loc 1 90 1
	.cfi_startproc
	addi	sp,sp,-32
	.cfi_def_cfa_offset 32
	sd	ra,24(sp)
	sd	s0,16(sp)
	.cfi_offset 1, -8
	.cfi_offset 8, -16
	addi	s0,sp,32
	.cfi_def_cfa 8, 0
	sd	a0,-24(s0)
	.loc 1 91 9
	j	.L7
.L8:
	.loc 1 92 9
	ld	a5,-24(s0)
	addi	a5,a5,2
	sd	a5,-24(s0)
.L7:
	.loc 1 91 14
	ld	a5,-24(s0)
	lhu	a5,0(a5)
	.loc 1 91 18
	sext.w	a4,a5
	li	a5,92
	beq	a4,a5,.L8
	.loc 1 95 14
	ld	a5,-24(s0)
	lhu	a5,0(a5)
	.loc 1 95 18
	sext.w	a5,a5
	seqz	a5,a5
	andi	a5,a5,0xff
	.loc 1 96 1
	mv	a0,a5
	ld	ra,24(sp)
	.cfi_restore 1
	ld	s0,16(sp)
	.cfi_restore 8
	.cfi_def_cfa 2, 32
	addi	sp,sp,32
	.cfi_def_cfa_offset 0
	jr	ra
	.cfi_endproc
.LFE1:
	.size	Ext4IsLastPathSegment, .-Ext4IsLastPathSegment
	.section	.text.Ext4ApplyPermissions,"ax",@progbits
	.align	1
	.type	Ext4ApplyPermissions, @function
Ext4ApplyPermissions:
.LFB2:
	.loc 1 117 1
	.cfi_startproc
	addi	sp,sp,-48
	.cfi_def_cfa_offset 48
	sd	ra,40(sp)
	sd	s0,32(sp)
	.cfi_offset 1, -8
	.cfi_offset 8, -16
	addi	s0,sp,48
	.cfi_def_cfa 8, 0
	sd	a0,-40(s0)
	sd	a1,-48(s0)
	.loc 1 120 15
	sh	zero,-18(s0)
	.loc 1 122 17
	ld	a5,-48(s0)
	andi	a5,a5,1
	.loc 1 122 6
	beq	a5,zero,.L11
	.loc 1 123 17
	lhu	a5,-18(s0)
	ori	a5,a5,256
	sh	a5,-18(s0)
.L11:
	.loc 1 126 17
	ld	a5,-48(s0)
	andi	a5,a5,2
	.loc 1 126 6
	beq	a5,zero,.L12
	.loc 1 127 17
	lhu	a5,-18(s0)
	ori	a5,a5,128
	sh	a5,-18(s0)
.L12:
	.loc 1 130 12
	ld	a5,-40(s0)
	ld	a5,120(a5)
	.loc 1 130 19
	lhu	a5,0(a5)
	.loc 1 130 43
	lhu	a4,-18(s0)
	and	a5,a5,a4
	slli	a5,a5,48
	srli	a5,a5,48
	.loc 1 130 6
	lhu	a4,-18(s0)
	sext.w	a4,a4
	sext.w	a5,a5
	beq	a4,a5,.L13
	.loc 1 131 12
	li	a5,0
	j	.L14
.L13:
	.loc 1 134 18
	ld	a5,-40(s0)
	ld	a4,-48(s0)
	sd	a4,136(a5)
	.loc 1 136 10
	li	a5,1
.L14:
	.loc 1 137 1
	mv	a0,a5
	ld	ra,40(sp)
	.cfi_restore 1
	ld	s0,32(sp)
	.cfi_restore 8
	.cfi_def_cfa 2, 48
	addi	sp,sp,48
	.cfi_def_cfa_offset 0
	jr	ra
	.cfi_endproc
.LFE2:
	.size	Ext4ApplyPermissions, .-Ext4ApplyPermissions
	.section	.text.Ext4DirCanLookup,"ax",@progbits
	.align	1
	.type	Ext4DirCanLookup, @function
Ext4DirCanLookup:
.LFB3:
	.loc 1 151 1
	.cfi_startproc
	addi	sp,sp,-32
	.cfi_def_cfa_offset 32
	sd	ra,24(sp)
	sd	s0,16(sp)
	.cfi_offset 1, -8
	.cfi_offset 8, -16
	addi	s0,sp,32
	.cfi_def_cfa 8, 0
	sd	a0,-24(s0)
	.loc 1 154 15
	ld	a5,-24(s0)
	ld	a5,120(a5)
	.loc 1 154 22
	lhu	a5,0(a5)
	.loc 1 154 31
	sext.w	a5,a5
	andi	a5,a5,64
	sext.w	a5,a5
	.loc 1 154 39
	srli	a5,a5,6
	andi	a5,a5,1
	andi	a5,a5,0xff
	.loc 1 155 1
	mv	a0,a5
	ld	ra,24(sp)
	.cfi_restore 1
	ld	s0,16(sp)
	.cfi_restore 8
	.cfi_def_cfa 2, 32
	addi	sp,sp,32
	.cfi_def_cfa_offset 0
	jr	ra
	.cfi_endproc
.LFE3:
	.size	Ext4DirCanLookup, .-Ext4DirCanLookup
	.section	.rodata
	.align	3
.LC0:
	.string	"."
	.zero	2
	.section	.text.Ext4OpenInternal,"ax",@progbits
	.align	1
	.globl	Ext4OpenInternal
	.type	Ext4OpenInternal, @function
Ext4OpenInternal:
.LFB4:
	.loc 1 195 1
	.cfi_startproc
	addi	sp,sp,-640
	.cfi_def_cfa_offset 640
	sd	ra,632(sp)
	sd	s0,624(sp)
	.cfi_offset 1, -8
	.cfi_offset 8, -16
	addi	s0,sp,640
	.cfi_def_cfa 8, 0
	sd	a0,-600(s0)
	sd	a1,-608(s0)
	sd	a2,-616(s0)
	sd	a3,-624(s0)
	sd	a4,-632(s0)
	.loc 1 205 11
	ld	a5,-608(s0)
	sd	a5,-32(s0)
	.loc 1 206 13
	ld	a5,-32(s0)
	ld	a5,160(a5)
	sd	a5,-40(s0)
	.loc 1 207 9
	sd	zero,-24(s0)
	.loc 1 211 8
	ld	a0,-32(s0)
	call	Ext4FileIsDir@plt
	mv	a5,a0
	.loc 1 211 6 discriminator 1
	bne	a5,zero,.L18
	.loc 1 212 12
	li	a5,-1
	slli	a5,a5,63
	addi	a5,a5,2
	j	.L42
.L18:
	.loc 1 216 15
	ld	a5,-616(s0)
	lhu	a5,0(a5)
	.loc 1 216 6
	sext.w	a4,a5
	li	a5,92
	bne	a4,a5,.L21
	.loc 1 217 13
	ld	a5,-616(s0)
	addi	a5,a5,2
	sd	a5,-616(s0)
	.loc 1 218 13
	ld	a5,-40(s0)
	ld	a5,1128(a5)
	sd	a5,-32(s0)
	.loc 1 221 9
	j	.L21
.L39:
	.loc 1 222 18
	ld	a5,-40(s0)
	ld	a5,1128(a5)
	.loc 1 222 24
	lw	a4,152(a5)
	.loc 1 222 8
	li	a5,8
	bleu	a4,a5,.L22
	.loc 1 224 14
	li	a5,-1
	slli	a5,a5,63
	addi	a5,a5,15
	j	.L42
.L22:
	.loc 1 227 10
	ld	a0,-32(s0)
	call	Ext4FileIsDir@plt
	mv	a5,a0
	.loc 1 227 8 discriminator 1
	bne	a5,zero,.L24
	.loc 1 228 14
	li	a5,-1
	slli	a5,a5,63
	addi	a5,a5,2
	j	.L42
.L25:
	.loc 1 233 15
	ld	a5,-616(s0)
	addi	a5,a5,2
	sd	a5,-616(s0)
.L24:
	.loc 1 232 20
	ld	a5,-616(s0)
	lhu	a5,0(a5)
	.loc 1 232 24
	sext.w	a4,a5
	li	a5,92
	beq	a4,a5,.L25
	.loc 1 236 9
	addi	a4,s0,-568
	addi	a5,s0,-560
	mv	a2,a4
	mv	a1,a5
	ld	a0,-616(s0)
	call	GetPathSegment
	mv	a5,a0
	.loc 1 236 8 discriminator 1
	beq	a5,zero,.L26
	.loc 1 237 14
	li	a5,-1
	slli	a5,a5,63
	addi	a5,a5,5
	j	.L42
.L26:
	.loc 1 241 16
	ld	a5,-568(s0)
	.loc 1 241 8
	beq	a5,zero,.L43
	.loc 1 245 14
	ld	a5,-568(s0)
	slli	a5,a5,1
	ld	a4,-616(s0)
	add	a5,a4,a5
	sd	a5,-616(s0)
	.loc 1 247 9
	addi	a5,s0,-560
	lla	a1,.LC0
	mv	a0,a5
	call	StrCmp@plt
	mv	a5,a0
	.loc 1 247 8 discriminator 1
	beq	a5,zero,.L44
	.loc 1 254 10
	ld	a0,-616(s0)
	call	Ext4IsLastPathSegment
	mv	a5,a0
	.loc 1 254 8 discriminator 1
	bne	a5,zero,.L31
	.loc 1 255 12
	ld	a0,-32(s0)
	call	Ext4DirCanLookup
	mv	a5,a0
	.loc 1 255 10 discriminator 1
	bne	a5,zero,.L31
	.loc 1 256 16
	li	a5,-1
	slli	a5,a5,63
	addi	a5,a5,15
	j	.L42
.L31:
	.loc 1 260 14
	addi	a4,s0,-576
	addi	a5,s0,-560
	li	a3,1
	ld	a2,-40(s0)
	mv	a1,a5
	ld	a0,-32(s0)
	call	Ext4OpenFile@plt
	sd	a0,-48(s0)
	.loc 1 262 36
	ld	a5,-48(s0)
	.loc 1 262 8
	bge	a5,zero,.L32
	.loc 1 262 62 discriminator 1
	ld	a4,-48(s0)
	li	a5,-1
	slli	a5,a5,63
	addi	a5,a5,14
	beq	a4,a5,.L32
	.loc 1 263 14
	ld	a5,-48(s0)
	j	.L42
.L32:
	.loc 1 264 15
	ld	a4,-48(s0)
	li	a5,-1
	slli	a5,a5,63
	addi	a5,a5,14
	bne	a4,a5,.L33
	.loc 1 267 14
	ld	a5,-48(s0)
	j	.L42
.L33:
	.loc 1 271 11
	ld	a5,-576(s0)
	mv	a0,a5
	call	Ext4FileIsReg@plt
	mv	a5,a0
	.loc 1 271 8 discriminator 1
	bne	a5,zero,.L34
	.loc 1 271 35 discriminator 2
	ld	a5,-576(s0)
	mv	a0,a5
	call	Ext4FileIsDir@plt
	mv	a5,a0
	.loc 1 271 32 discriminator 3
	bne	a5,zero,.L34
	.loc 1 271 59 discriminator 4
	ld	a5,-576(s0)
	mv	a0,a5
	call	Ext4FileIsSymlink@plt
	mv	a5,a0
	.loc 1 271 9 discriminator 5
	bne	a5,zero,.L34
	.loc 1 272 7
	ld	a5,-576(s0)
	mv	a0,a5
	call	Ext4CloseInternal
	.loc 1 274 14
	li	a5,-1
	slli	a5,a5,63
	addi	a5,a5,15
	j	.L42
.L34:
	.loc 1 280 9
	ld	a5,-576(s0)
	mv	a0,a5
	call	Ext4FileIsSymlink@plt
	mv	a5,a0
	.loc 1 280 8 discriminator 1
	beq	a5,zero,.L35
	.loc 1 281 16
	ld	a5,-40(s0)
	ld	a5,1128(a5)
	.loc 1 281 22
	lw	a4,152(a5)
	.loc 1 281 32
	addiw	a4,a4,1
	sext.w	a4,a4
	sw	a4,152(a5)
	.loc 1 283 16
	ld	a5,-576(s0)
	addi	a4,s0,-584
	mv	a2,a4
	mv	a1,a5
	ld	a0,-40(s0)
	call	Ext4ReadSymlink@plt
	sd	a0,-48(s0)
	.loc 1 284 38
	ld	a5,-48(s0)
	.loc 1 284 10
	bge	a5,zero,.L36
	.loc 1 286 16
	ld	a5,-48(s0)
	j	.L42
.L36:
	.loc 1 293 7
	ld	a5,-576(s0)
	mv	a0,a5
	call	Ext4CloseInternal
	.loc 1 297 16
	ld	a5,-584(s0)
	ld	a4,-632(s0)
	ld	a3,-624(s0)
	mv	a2,a5
	ld	a1,-32(s0)
	ld	a0,-600(s0)
	call	Ext4OpenInternal
	sd	a0,-48(s0)
	.loc 1 298 7
	ld	a5,-584(s0)
	mv	a0,a5
	call	FreePool@plt
	.loc 1 299 38
	ld	a5,-48(s0)
	.loc 1 299 10
	bge	a5,zero,.L37
	.loc 1 301 16
	ld	a5,-48(s0)
	j	.L42
.L37:
	.loc 1 307 14
	ld	a5,-600(s0)
	ld	a5,0(a5)
	.loc 1 307 12
	sd	a5,-576(s0)
.L35:
	.loc 1 310 8
	ld	a5,-24(s0)
	beq	a5,zero,.L38
	.loc 1 312 7
	ld	a0,-32(s0)
	call	Ext4CloseInternal
.L38:
	.loc 1 315 10
	ld	a5,-24(s0)
	addi	a5,a5,1
	sd	a5,-24(s0)
	.loc 1 317 13
	ld	a5,-576(s0)
	sd	a5,-32(s0)
	j	.L21
.L44:
	.loc 1 249 7
	nop
.L21:
	.loc 1 221 18
	ld	a5,-616(s0)
	lhu	a5,0(a5)
	.loc 1 221 22
	bne	a5,zero,.L39
	j	.L28
.L43:
	.loc 1 242 7
	nop
.L28:
	.loc 1 320 6
	ld	a5,-24(s0)
	bne	a5,zero,.L40
	.loc 1 322 15
	ld	a0,-32(s0)
	call	Ext4DuplicateFile
	sd	a0,-32(s0)
	.loc 1 323 8
	ld	a5,-32(s0)
	bne	a5,zero,.L40
	.loc 1 324 14
	li	a5,-1
	slli	a5,a5,63
	addi	a5,a5,9
	j	.L42
.L40:
	.loc 1 328 8
	ld	a1,-624(s0)
	ld	a0,-32(s0)
	call	Ext4ApplyPermissions
	mv	a5,a0
	.loc 1 328 6 discriminator 1
	bne	a5,zero,.L41
	.loc 1 329 5
	ld	a0,-32(s0)
	call	Ext4CloseInternal
	.loc 1 330 12
	li	a5,-1
	slli	a5,a5,63
	addi	a5,a5,15
	j	.L42
.L41:
	.loc 1 333 14
	ld	a5,-600(s0)
	ld	a4,-32(s0)
	sd	a4,0(a5)
	.loc 1 336 10
	li	a5,0
.L42:
	.loc 1 337 1
	mv	a0,a5
	ld	ra,632(sp)
	.cfi_restore 1
	ld	s0,624(sp)
	.cfi_restore 8
	.cfi_def_cfa 2, 640
	addi	sp,sp,640
	.cfi_def_cfa_offset 0
	jr	ra
	.cfi_endproc
.LFE4:
	.size	Ext4OpenInternal, .-Ext4OpenInternal
	.section	.text.Ext4Open,"ax",@progbits
	.align	1
	.globl	Ext4Open
	.type	Ext4Open, @function
Ext4Open:
.LFB5:
	.loc 1 375 1
	.cfi_startproc
	addi	sp,sp,-96
	.cfi_def_cfa_offset 96
	sd	ra,88(sp)
	sd	s0,80(sp)
	.cfi_offset 1, -8
	.cfi_offset 8, -16
	addi	s0,sp,96
	.cfi_def_cfa 8, 0
	sd	a0,-56(s0)
	sd	a1,-64(s0)
	sd	a2,-72(s0)
	sd	a3,-80(s0)
	sd	a4,-88(s0)
	.loc 1 380 10
	ld	a5,-56(s0)
	sd	a5,-24(s0)
	.loc 1 385 9
	ld	a5,-24(s0)
	ld	a5,160(a5)
	.loc 1 385 20
	ld	a5,1128(a5)
	.loc 1 385 37
	sw	zero,152(a5)
	.loc 1 387 12
	addi	a5,s0,-40
	ld	a4,-88(s0)
	ld	a3,-80(s0)
	ld	a2,-72(s0)
	ld	a1,-24(s0)
	mv	a0,a5
	call	Ext4OpenInternal
	sd	a0,-32(s0)
	.loc 1 395 7
	ld	a5,-32(s0)
	.loc 1 395 6
	blt	a5,zero,.L46
	.loc 1 396 28
	ld	a5,-40(s0)
	.loc 1 396 18
	mv	a4,a5
	.loc 1 396 16
	ld	a5,-64(s0)
	sd	a4,0(a5)
.L46:
	.loc 1 399 10
	ld	a5,-32(s0)
	.loc 1 400 1
	mv	a0,a5
	ld	ra,88(sp)
	.cfi_restore 1
	ld	s0,80(sp)
	.cfi_restore 8
	.cfi_def_cfa 2, 96
	addi	sp,sp,96
	.cfi_def_cfa_offset 0
	jr	ra
	.cfi_endproc
.LFE5:
	.size	Ext4Open, .-Ext4Open
	.section	.text.Ext4Close,"ax",@progbits
	.align	1
	.globl	Ext4Close
	.type	Ext4Close, @function
Ext4Close:
.LFB6:
	.loc 1 416 1
	.cfi_startproc
	addi	sp,sp,-32
	.cfi_def_cfa_offset 32
	sd	ra,24(sp)
	sd	s0,16(sp)
	.cfi_offset 1, -8
	.cfi_offset 8, -16
	addi	s0,sp,32
	.cfi_def_cfa 8, 0
	sd	a0,-24(s0)
	.loc 1 417 10
	ld	a0,-24(s0)
	call	Ext4CloseInternal
	mv	a5,a0
	.loc 1 418 1
	mv	a0,a5
	ld	ra,24(sp)
	.cfi_restore 1
	ld	s0,16(sp)
	.cfi_restore 8
	.cfi_def_cfa 2, 32
	addi	sp,sp,32
	.cfi_def_cfa_offset 0
	jr	ra
	.cfi_endproc
.LFE6:
	.size	Ext4Close, .-Ext4Close
	.section	.text.Ext4CloseInternal,"ax",@progbits
	.align	1
	.globl	Ext4CloseInternal
	.type	Ext4CloseInternal, @function
Ext4CloseInternal:
.LFB7:
	.loc 1 431 1
	.cfi_startproc
	addi	sp,sp,-32
	.cfi_def_cfa_offset 32
	sd	ra,24(sp)
	sd	s0,16(sp)
	.cfi_offset 1, -8
	.cfi_offset 8, -16
	addi	s0,sp,32
	.cfi_def_cfa 8, 0
	sd	a0,-24(s0)
	.loc 1 432 20
	ld	a5,-24(s0)
	ld	a5,160(a5)
	.loc 1 432 31
	ld	a5,1128(a5)
	.loc 1 432 6
	ld	a4,-24(s0)
	bne	a4,a5,.L51
	.loc 1 432 47 discriminator 1
	ld	a5,-24(s0)
	ld	a5,160(a5)
	.loc 1 432 58 discriminator 1
	lbu	a5,1064(a5)
	.loc 1 432 39 discriminator 1
	bne	a5,zero,.L51
	.loc 1 433 12
	li	a5,0
	j	.L52
.L51:
	.loc 1 437 20
	ld	a5,-24(s0)
	addi	a5,a5,176
	.loc 1 437 3
	mv	a0,a5
	call	RemoveEntryList@plt
	.loc 1 438 17
	ld	a5,-24(s0)
	ld	a5,120(a5)
	.loc 1 438 3
	mv	a0,a5
	call	FreePool@plt
	.loc 1 439 3
	ld	a0,-24(s0)
	call	Ext4FreeExtentsMap@plt
	.loc 1 440 3
	ld	a5,-24(s0)
	ld	a5,192(a5)
	mv	a0,a5
	call	Ext4UnrefDentry@plt
	.loc 1 441 3
	ld	a0,-24(s0)
	call	FreePool@plt
	.loc 1 442 10
	li	a5,0
.L52:
	.loc 1 443 1
	mv	a0,a5
	ld	ra,24(sp)
	.cfi_restore 1
	ld	s0,16(sp)
	.cfi_restore 8
	.cfi_def_cfa 2, 32
	addi	sp,sp,32
	.cfi_def_cfa_offset 0
	jr	ra
	.cfi_endproc
.LFE7:
	.size	Ext4CloseInternal, .-Ext4CloseInternal
	.section	.text.Ext4Delete,"ax",@progbits
	.align	1
	.globl	Ext4Delete
	.type	Ext4Delete, @function
Ext4Delete:
.LFB8:
	.loc 1 460 1
	.cfi_startproc
	addi	sp,sp,-32
	.cfi_def_cfa_offset 32
	sd	ra,24(sp)
	sd	s0,16(sp)
	.cfi_offset 1, -8
	.cfi_offset 8, -16
	addi	s0,sp,32
	.cfi_def_cfa 8, 0
	sd	a0,-24(s0)
	.loc 1 462 3
	ld	a0,-24(s0)
	call	Ext4Close
	.loc 1 463 10
	li	a5,2
	.loc 1 464 1
	mv	a0,a5
	ld	ra,24(sp)
	.cfi_restore 1
	ld	s0,16(sp)
	.cfi_restore 8
	.cfi_def_cfa 2, 32
	addi	sp,sp,32
	.cfi_def_cfa_offset 0
	jr	ra
	.cfi_endproc
.LFE8:
	.size	Ext4Delete, .-Ext4Delete
	.section	.text.Ext4ReadFile,"ax",@progbits
	.align	1
	.globl	Ext4ReadFile
	.type	Ext4ReadFile, @function
Ext4ReadFile:
.LFB9:
	.loc 1 493 1
	.cfi_startproc
	addi	sp,sp,-80
	.cfi_def_cfa_offset 80
	sd	ra,72(sp)
	sd	s0,64(sp)
	.cfi_offset 1, -8
	.cfi_offset 8, -16
	addi	s0,sp,80
	.cfi_def_cfa 8, 0
	sd	a0,-56(s0)
	sd	a1,-64(s0)
	sd	a2,-72(s0)
	.loc 1 498 8
	ld	a5,-56(s0)
	sd	a5,-24(s0)
	.loc 1 499 13
	ld	a5,-24(s0)
	ld	a5,160(a5)
	sd	a5,-32(s0)
	.loc 1 503 7
	ld	a0,-24(s0)
	call	Ext4FileIsReg@plt
	mv	a5,a0
	.loc 1 503 6 discriminator 1
	beq	a5,zero,.L56
	.loc 1 504 14
	ld	a5,-24(s0)
	ld	a5,144(a5)
	ld	a4,-64(s0)
	mv	a3,a5
	ld	a2,-72(s0)
	ld	a1,-24(s0)
	ld	a0,-32(s0)
	call	Ext4Read@plt
	sd	a0,-40(s0)
	.loc 1 505 8
	ld	a5,-40(s0)
	bne	a5,zero,.L57
	.loc 1 506 11
	ld	a5,-24(s0)
	ld	a4,144(a5)
	.loc 1 506 25
	ld	a5,-64(s0)
	ld	a5,0(a5)
	.loc 1 506 22
	add	a4,a4,a5
	ld	a5,-24(s0)
	sd	a4,144(a5)
.L57:
	.loc 1 509 12
	ld	a5,-40(s0)
	j	.L58
.L56:
	.loc 1 510 14
	ld	a0,-24(s0)
	call	Ext4FileIsDir@plt
	mv	a5,a0
	.loc 1 510 13 discriminator 1
	beq	a5,zero,.L59
	.loc 1 511 14
	ld	a5,-24(s0)
	ld	a5,144(a5)
	ld	a4,-64(s0)
	mv	a3,a5
	ld	a2,-72(s0)
	ld	a1,-24(s0)
	ld	a0,-32(s0)
	call	Ext4ReadDir@plt
	sd	a0,-40(s0)
	.loc 1 513 12
	ld	a5,-40(s0)
	j	.L58
.L59:
	.loc 1 516 10
	li	a5,0
.L58:
	.loc 1 517 1
	mv	a0,a5
	ld	ra,72(sp)
	.cfi_restore 1
	ld	s0,64(sp)
	.cfi_restore 8
	.cfi_def_cfa 2, 80
	addi	sp,sp,80
	.cfi_def_cfa_offset 0
	jr	ra
	.cfi_endproc
.LFE9:
	.size	Ext4ReadFile, .-Ext4ReadFile
	.section	.text.Ext4WriteFile,"ax",@progbits
	.align	1
	.globl	Ext4WriteFile
	.type	Ext4WriteFile, @function
Ext4WriteFile:
.LFB10:
	.loc 1 546 1
	.cfi_startproc
	addi	sp,sp,-64
	.cfi_def_cfa_offset 64
	sd	ra,56(sp)
	sd	s0,48(sp)
	.cfi_offset 1, -8
	.cfi_offset 8, -16
	addi	s0,sp,64
	.cfi_def_cfa 8, 0
	sd	a0,-40(s0)
	sd	a1,-48(s0)
	sd	a2,-56(s0)
	.loc 1 549 8
	ld	a5,-40(s0)
	sd	a5,-24(s0)
	.loc 1 551 13
	ld	a5,-24(s0)
	ld	a5,136(a5)
	.loc 1 551 24
	andi	a5,a5,2
	.loc 1 551 6
	bne	a5,zero,.L61
	.loc 1 552 12
	li	a5,-1
	slli	a5,a5,63
	addi	a5,a5,15
	j	.L62
.L61:
	.loc 1 555 10
	li	a5,-1
	slli	a5,a5,63
	addi	a5,a5,8
.L62:
	.loc 1 556 1
	mv	a0,a5
	ld	ra,56(sp)
	.cfi_restore 1
	ld	s0,48(sp)
	.cfi_restore 8
	.cfi_def_cfa 2, 64
	addi	sp,sp,64
	.cfi_def_cfa_offset 0
	jr	ra
	.cfi_endproc
.LFE10:
	.size	Ext4WriteFile, .-Ext4WriteFile
	.section	.text.Ext4GetPosition,"ax",@progbits
	.align	1
	.globl	Ext4GetPosition
	.type	Ext4GetPosition, @function
Ext4GetPosition:
.LFB11:
	.loc 1 576 1
	.cfi_startproc
	addi	sp,sp,-48
	.cfi_def_cfa_offset 48
	sd	ra,40(sp)
	sd	s0,32(sp)
	.cfi_offset 1, -8
	.cfi_offset 8, -16
	addi	s0,sp,48
	.cfi_def_cfa 8, 0
	sd	a0,-40(s0)
	sd	a1,-48(s0)
	.loc 1 579 8
	ld	a5,-40(s0)
	sd	a5,-24(s0)
	.loc 1 581 7
	ld	a0,-24(s0)
	call	Ext4FileIsDir@plt
	mv	a5,a0
	.loc 1 581 6 discriminator 1
	beq	a5,zero,.L64
	.loc 1 582 12
	li	a5,-1
	slli	a5,a5,63
	addi	a5,a5,3
	j	.L65
.L64:
	.loc 1 585 19
	ld	a5,-24(s0)
	ld	a4,144(a5)
	.loc 1 585 13
	ld	a5,-48(s0)
	sd	a4,0(a5)
	.loc 1 587 10
	li	a5,0
.L65:
	.loc 1 588 1
	mv	a0,a5
	ld	ra,40(sp)
	.cfi_restore 1
	ld	s0,32(sp)
	.cfi_restore 8
	.cfi_def_cfa 2, 48
	addi	sp,sp,48
	.cfi_def_cfa_offset 0
	jr	ra
	.cfi_endproc
.LFE11:
	.size	Ext4GetPosition, .-Ext4GetPosition
	.section	.text.Ext4SetPosition,"ax",@progbits
	.align	1
	.globl	Ext4SetPosition
	.type	Ext4SetPosition, @function
Ext4SetPosition:
.LFB12:
	.loc 1 609 1
	.cfi_startproc
	addi	sp,sp,-48
	.cfi_def_cfa_offset 48
	sd	ra,40(sp)
	sd	s0,32(sp)
	.cfi_offset 1, -8
	.cfi_offset 8, -16
	addi	s0,sp,48
	.cfi_def_cfa 8, 0
	sd	a0,-40(s0)
	sd	a1,-48(s0)
	.loc 1 612 8
	ld	a5,-40(s0)
	sd	a5,-24(s0)
	.loc 1 615 7
	ld	a0,-24(s0)
	call	Ext4FileIsDir@plt
	mv	a5,a0
	.loc 1 615 6 discriminator 1
	beq	a5,zero,.L67
	.loc 1 615 28 discriminator 2
	ld	a5,-48(s0)
	beq	a5,zero,.L67
	.loc 1 616 12
	li	a5,-1
	slli	a5,a5,63
	addi	a5,a5,3
	j	.L68
.L67:
	.loc 1 620 6
	ld	a4,-48(s0)
	li	a5,-1
	bne	a4,a5,.L69
	.loc 1 621 31
	ld	a5,-24(s0)
	ld	a5,120(a5)
	.loc 1 621 38
	lw	a5,108(a5)
	.loc 1 621 17
	slli	a5,a5,32
	srli	a5,a5,32
	li	a1,32
	mv	a0,a5
	call	LShiftU64@plt
	mv	a4,a0
	.loc 1 621 61 discriminator 1
	ld	a5,-24(s0)
	ld	a5,120(a5)
	.loc 1 621 68 discriminator 1
	lw	a5,4(a5)
	slli	a5,a5,32
	srli	a5,a5,32
	.loc 1 621 14 discriminator 1
	or	a5,a4,a5
	sd	a5,-48(s0)
.L69:
	.loc 1 624 18
	ld	a5,-24(s0)
	ld	a4,-48(s0)
	sd	a4,144(a5)
	.loc 1 626 10
	li	a5,0
.L68:
	.loc 1 627 1
	mv	a0,a5
	ld	ra,40(sp)
	.cfi_restore 1
	ld	s0,32(sp)
	.cfi_restore 8
	.cfi_def_cfa 2, 48
	addi	sp,sp,48
	.cfi_def_cfa_offset 0
	jr	ra
	.cfi_endproc
.LFE12:
	.size	Ext4SetPosition, .-Ext4SetPosition
	.section	.rodata
	.align	3
.LC1:
	.zero	2
	.section	.text.Ext4GetFileInfo,"ax",@progbits
	.align	1
	.globl	Ext4GetFileInfo
	.type	Ext4GetFileInfo, @function
Ext4GetFileInfo:
.LFB13:
	.loc 1 644 1
	.cfi_startproc
	addi	sp,sp,-80
	.cfi_def_cfa_offset 80
	sd	ra,72(sp)
	sd	s0,64(sp)
	.cfi_offset 1, -8
	.cfi_offset 8, -16
	addi	s0,sp,80
	.cfi_def_cfa 8, 0
	sd	a0,-56(s0)
	sd	a1,-64(s0)
	sd	a2,-72(s0)
	.loc 1 650 11
	ld	a5,-56(s0)
	lw	a4,128(a5)
	.loc 1 650 6
	li	a5,2
	bne	a4,a5,.L71
	.loc 1 652 14
	lla	a5,.LC1
	sd	a5,-24(s0)
	j	.L72
.L71:
	.loc 1 654 20
	ld	a5,-56(s0)
	ld	a5,192(a5)
	.loc 1 654 14
	addi	a5,a5,8
	sd	a5,-24(s0)
.L72:
	.loc 1 657 17
	ld	a0,-24(s0)
	call	StrLen@plt
	sd	a0,-32(s0)
	.loc 1 658 18
	ld	a0,-24(s0)
	call	StrSize@plt
	sd	a0,-40(s0)
	.loc 1 660 16
	ld	a5,-40(s0)
	addi	a5,a5,80
	sd	a5,-48(s0)
	.loc 1 662 7
	ld	a5,-72(s0)
	ld	a5,0(a5)
	.loc 1 662 6
	ld	a4,-48(s0)
	bleu	a4,a5,.L73
	.loc 1 663 17
	ld	a5,-72(s0)
	ld	a4,-48(s0)
	sd	a4,0(a5)
	.loc 1 664 12
	li	a5,-1
	slli	a5,a5,63
	addi	a5,a5,5
	j	.L74
.L73:
	.loc 1 667 35
	ld	a5,-56(s0)
	ld	a5,120(a5)
	.loc 1 667 42
	lw	a5,108(a5)
	.loc 1 667 21
	slli	a5,a5,32
	srli	a5,a5,32
	li	a1,32
	mv	a0,a5
	call	LShiftU64@plt
	mv	a4,a0
	.loc 1 667 65 discriminator 1
	ld	a5,-56(s0)
	ld	a5,120(a5)
	.loc 1 667 72 discriminator 1
	lw	a5,4(a5)
	slli	a5,a5,32
	srli	a5,a5,32
	.loc 1 667 59 discriminator 1
	or	a4,a4,a5
	.loc 1 667 18 discriminator 1
	ld	a5,-64(s0)
	sd	a4,8(a5)
	.loc 1 668 24
	ld	a0,-56(s0)
	call	Ext4FilePhysicalSpace@plt
	mv	a4,a0
	.loc 1 668 22 discriminator 1
	ld	a5,-64(s0)
	sd	a4,16(a5)
	.loc 1 669 3
	ld	a5,-64(s0)
	addi	a5,a5,40
	mv	a1,a5
	ld	a0,-56(s0)
	call	Ext4FileATime@plt
	.loc 1 670 3
	ld	a5,-64(s0)
	addi	a5,a5,56
	mv	a1,a5
	ld	a0,-56(s0)
	call	Ext4FileMTime@plt
	.loc 1 671 3
	ld	a5,-64(s0)
	addi	a5,a5,40
	mv	a1,a5
	ld	a0,-56(s0)
	call	Ext4FileCreateTime@plt
	.loc 1 672 19
	ld	a5,-64(s0)
	sd	zero,72(a5)
	.loc 1 673 14
	ld	a5,-64(s0)
	ld	a4,-48(s0)
	sd	a4,0(a5)
	.loc 1 675 7
	ld	a0,-56(s0)
	call	Ext4FileIsDir@plt
	mv	a5,a0
	.loc 1 675 6 discriminator 1
	beq	a5,zero,.L75
	.loc 1 676 9
	ld	a5,-64(s0)
	ld	a5,72(a5)
	.loc 1 676 21
	ori	a4,a5,16
	ld	a5,-64(s0)
	sd	a4,72(a5)
.L75:
	.loc 1 679 15
	ld	a5,-72(s0)
	ld	a4,-48(s0)
	sd	a4,0(a5)
	.loc 1 681 23
	ld	a5,-64(s0)
	addi	a4,a5,80
	.loc 1 681 10
	ld	a5,-32(s0)
	addi	a5,a5,1
	ld	a2,-24(s0)
	mv	a1,a5
	mv	a0,a4
	call	StrCpyS@plt
	mv	a5,a0
.L74:
	.loc 1 682 1
	mv	a0,a5
	ld	ra,72(sp)
	.cfi_restore 1
	ld	s0,64(sp)
	.cfi_restore 8
	.cfi_def_cfa 2, 80
	addi	sp,sp,80
	.cfi_def_cfa_offset 0
	jr	ra
	.cfi_endproc
.LFE13:
	.size	Ext4GetFileInfo, .-Ext4GetFileInfo
	.section	.text.Ext4GetVolumeName,"ax",@progbits
	.align	1
	.globl	Ext4GetVolumeName
	.type	Ext4GetVolumeName, @function
Ext4GetVolumeName:
.LFB14:
	.loc 1 700 1
	.cfi_startproc
	addi	sp,sp,-96
	.cfi_def_cfa_offset 96
	sd	ra,88(sp)
	sd	s0,80(sp)
	.cfi_offset 1, -8
	.cfi_offset 8, -16
	addi	s0,sp,96
	.cfi_def_cfa 8, 0
	sd	a0,-72(s0)
	sd	a1,-80(s0)
	sd	a2,-88(s0)
	.loc 1 706 17
	sd	zero,-24(s0)
	.loc 1 707 14
	sd	zero,-64(s0)
	.loc 1 710 28
	ld	a5,-72(s0)
	lw	a4,116(a5)
	.loc 1 710 6
	li	a5,1
	bne	a4,a5,.L77
	.loc 1 711 48
	ld	a5,-72(s0)
	addi	a4,a5,160
	.loc 1 711 5
	addi	a5,s0,-56
	li	a2,16
	mv	a1,a4
	mv	a0,a5
	call	CopyMem@plt
	.loc 1 712 21
	sb	zero,-40(s0)
	.loc 1 714 14
	addi	a4,s0,-64
	addi	a5,s0,-56
	mv	a1,a4
	mv	a0,a5
	call	UTF8StrToUCS2@plt
	sd	a0,-32(s0)
	.loc 1 716 36
	ld	a5,-32(s0)
	.loc 1 716 8
	bge	a5,zero,.L78
	.loc 1 717 14
	ld	a5,-32(s0)
	j	.L82
.L78:
	.loc 1 720 21
	ld	a5,-64(s0)
	mv	a0,a5
	call	StrLen@plt
	sd	a0,-24(s0)
	j	.L80
.L77:
	.loc 1 722 18
	li	a0,2
	call	AllocateZeroPool@plt
	mv	a5,a0
	.loc 1 722 16 discriminator 1
	sd	a5,-64(s0)
	.loc 1 723 20
	ld	a5,-64(s0)
	.loc 1 723 8
	bne	a5,zero,.L81
	.loc 1 724 14
	li	a5,-1
	slli	a5,a5,63
	addi	a5,a5,9
	j	.L82
.L81:
	.loc 1 727 19
	sd	zero,-24(s0)
.L80:
	.loc 1 730 15
	ld	a4,-64(s0)
	ld	a5,-80(s0)
	sd	a4,0(a5)
	.loc 1 731 15
	ld	a5,-88(s0)
	ld	a4,-24(s0)
	sd	a4,0(a5)
	.loc 1 733 10
	li	a5,0
.L82:
	.loc 1 734 1
	mv	a0,a5
	ld	ra,88(sp)
	.cfi_restore 1
	ld	s0,80(sp)
	.cfi_restore 8
	.cfi_def_cfa 2, 96
	addi	sp,sp,96
	.cfi_def_cfa_offset 0
	jr	ra
	.cfi_endproc
.LFE14:
	.size	Ext4GetVolumeName, .-Ext4GetVolumeName
	.section	.text.Ext4GetFilesystemInfo,"ax",@progbits
	.align	1
	.type	Ext4GetFilesystemInfo, @function
Ext4GetFilesystemInfo:
.LFB15:
	.loc 1 752 1
	.cfi_startproc
	addi	sp,sp,-112
	.cfi_def_cfa_offset 112
	sd	ra,104(sp)
	sd	s0,96(sp)
	sd	s1,88(sp)
	.cfi_offset 1, -8
	.cfi_offset 8, -16
	.cfi_offset 9, -24
	addi	s0,sp,112
	.cfi_def_cfa 8, 0
	sd	a0,-88(s0)
	sd	a1,-96(s0)
	sd	a2,-104(s0)
	.loc 1 761 12
	addi	a4,s0,-80
	addi	a5,s0,-72
	mv	a2,a4
	mv	a1,a5
	ld	a0,-88(s0)
	call	Ext4GetVolumeName
	sd	a0,-48(s0)
	.loc 1 763 34
	ld	a5,-48(s0)
	.loc 1 763 6
	bge	a5,zero,.L84
	.loc 1 764 12
	ld	a5,-48(s0)
	j	.L89
.L84:
	.loc 1 767 16
	li	a5,36
	sd	a5,-56(s0)
	.loc 1 769 19
	ld	a5,-72(s0)
	mv	a0,a5
	call	StrSize@plt
	mv	a4,a0
	.loc 1 769 16 discriminator 1
	ld	a5,-56(s0)
	add	a5,a5,a4
	sd	a5,-56(s0)
	.loc 1 771 7
	ld	a5,-104(s0)
	ld	a5,0(a5)
	.loc 1 771 6
	ld	a4,-56(s0)
	bleu	a4,a5,.L86
	.loc 1 772 17
	ld	a5,-104(s0)
	ld	a4,-56(s0)
	sd	a4,0(a5)
	.loc 1 774 5
	ld	a5,-72(s0)
	mv	a0,a5
	call	FreePool@plt
	.loc 1 776 12
	li	a5,-1
	slli	a5,a5,63
	addi	a5,a5,5
	j	.L89
.L86:
	.loc 1 779 15
	ld	a5,-88(s0)
	ld	a5,1104(a5)
	sd	a5,-64(s0)
	.loc 1 781 22
	ld	a5,-88(s0)
	lw	a5,1068(a5)
	.loc 1 781 41
	andi	a5,a5,128
	sext.w	a5,a5
	.loc 1 781 156
	beq	a5,zero,.L87
	.loc 1 781 77 discriminator 1
	ld	a5,-88(s0)
	lw	a5,52(a5)
	slli	s1,a5,32
	srli	s1,s1,32
	.loc 1 781 126 discriminator 1
	ld	a5,-88(s0)
	lw	a5,384(a5)
	.loc 1 781 100 discriminator 1
	slli	a5,a5,32
	srli	a5,a5,32
	li	a1,32
	mv	a0,a5
	call	LShiftU64@plt
	mv	a5,a0
	.loc 1 781 14 discriminator 3
	or	a5,s1,a5
	sd	a5,-40(s0)
	j	.L88
.L87:
	.loc 1 781 174 discriminator 2
	ld	a5,-88(s0)
	lw	a5,52(a5)
	.loc 1 781 14 discriminator 2
	slli	a5,a5,32
	srli	a5,a5,32
	sd	a5,-40(s0)
.L88:
	.loc 1 787 25
	ld	a5,-88(s0)
	lw	a4,1084(a5)
	.loc 1 787 19
	ld	a5,-96(s0)
	sw	a4,32(a5)
	.loc 1 788 14
	ld	a5,-96(s0)
	ld	a4,-56(s0)
	sd	a4,0(a5)
	.loc 1 789 24
	ld	a5,-88(s0)
	lbu	a4,1088(a5)
	.loc 1 789 18
	ld	a5,-96(s0)
	sb	a4,8(a5)
	.loc 1 790 22
	ld	a5,-88(s0)
	lw	a5,1084(a5)
	mv	a1,a5
	ld	a0,-64(s0)
	call	MultU64x32@plt
	mv	a4,a0
	.loc 1 790 20 discriminator 1
	ld	a5,-96(s0)
	sd	a4,16(a5)
	.loc 1 791 21
	ld	a5,-88(s0)
	lw	a5,1084(a5)
	mv	a1,a5
	ld	a0,-40(s0)
	call	MultU64x32@plt
	mv	a4,a0
	.loc 1 791 19 discriminator 1
	ld	a5,-96(s0)
	sd	a4,24(a5)
	.loc 1 793 25
	ld	a5,-96(s0)
	addi	a4,a5,36
	.loc 1 793 12
	ld	a5,-80(s0)
	addi	a5,a5,1
	ld	a3,-72(s0)
	mv	a2,a3
	mv	a1,a5
	mv	a0,a4
	call	StrCpyS@plt
	sd	a0,-48(s0)
	.loc 1 797 3
	ld	a5,-72(s0)
	mv	a0,a5
	call	FreePool@plt
	.loc 1 799 15
	ld	a5,-104(s0)
	ld	a4,-56(s0)
	sd	a4,0(a5)
	.loc 1 801 10
	li	a5,0
.L89:
	.loc 1 802 1
	mv	a0,a5
	ld	ra,104(sp)
	.cfi_restore 1
	ld	s0,96(sp)
	.cfi_restore 8
	.cfi_def_cfa 2, 112
	ld	s1,88(sp)
	.cfi_restore 9
	addi	sp,sp,112
	.cfi_def_cfa_offset 0
	jr	ra
	.cfi_endproc
.LFE15:
	.size	Ext4GetFilesystemInfo, .-Ext4GetFilesystemInfo
	.section	.text.Ext4GetVolumeLabelInfo,"ax",@progbits
	.align	1
	.type	Ext4GetVolumeLabelInfo, @function
Ext4GetVolumeLabelInfo:
.LFB16:
	.loc 1 820 1
	.cfi_startproc
	addi	sp,sp,-80
	.cfi_def_cfa_offset 80
	sd	ra,72(sp)
	sd	s0,64(sp)
	.cfi_offset 1, -8
	.cfi_offset 8, -16
	addi	s0,sp,80
	.cfi_def_cfa 8, 0
	sd	a0,-56(s0)
	sd	a1,-64(s0)
	sd	a2,-72(s0)
	.loc 1 827 12
	addi	a4,s0,-48
	addi	a5,s0,-40
	mv	a2,a4
	mv	a1,a5
	ld	a0,-56(s0)
	call	Ext4GetVolumeName
	sd	a0,-24(s0)
	.loc 1 829 34
	ld	a5,-24(s0)
	.loc 1 829 6
	bge	a5,zero,.L91
	.loc 1 830 12
	ld	a5,-24(s0)
	j	.L94
.L91:
	.loc 1 833 33
	ld	a5,-48(s0)
	addi	a5,a5,1
	.loc 1 833 16
	slli	a5,a5,1
	sd	a5,-32(s0)
	.loc 1 835 22
	ld	a5,-72(s0)
	ld	a5,0(a5)
	.loc 1 835 6
	ld	a4,-32(s0)
	bleu	a4,a5,.L93
	.loc 1 836 17
	ld	a5,-72(s0)
	ld	a4,-32(s0)
	sd	a4,0(a5)
	.loc 1 838 5
	ld	a5,-40(s0)
	mv	a0,a5
	call	FreePool@plt
	.loc 1 840 12
	li	a5,-1
	slli	a5,a5,63
	addi	a5,a5,5
	j	.L94
.L93:
	.loc 1 843 25
	ld	a4,-64(s0)
	.loc 1 843 12
	ld	a5,-48(s0)
	addi	a5,a5,1
	ld	a3,-40(s0)
	mv	a2,a3
	mv	a1,a5
	mv	a0,a4
	call	StrCpyS@plt
	sd	a0,-24(s0)
	.loc 1 847 3
	ld	a5,-40(s0)
	mv	a0,a5
	call	FreePool@plt
	.loc 1 849 15
	ld	a5,-72(s0)
	ld	a4,-32(s0)
	sd	a4,0(a5)
	.loc 1 851 10
	li	a5,0
.L94:
	.loc 1 852 1
	mv	a0,a5
	ld	ra,72(sp)
	.cfi_restore 1
	ld	s0,64(sp)
	.cfi_restore 8
	.cfi_def_cfa 2, 80
	addi	sp,sp,80
	.cfi_def_cfa_offset 0
	jr	ra
	.cfi_endproc
.LFE16:
	.size	Ext4GetVolumeLabelInfo, .-Ext4GetVolumeLabelInfo
	.section	.text.Ext4GetInfo,"ax",@progbits
	.align	1
	.globl	Ext4GetInfo
	.type	Ext4GetInfo, @function
Ext4GetInfo:
.LFB17:
	.loc 1 882 1
	.cfi_startproc
	addi	sp,sp,-64
	.cfi_def_cfa_offset 64
	sd	ra,56(sp)
	sd	s0,48(sp)
	.cfi_offset 1, -8
	.cfi_offset 8, -16
	addi	s0,sp,64
	.cfi_def_cfa 8, 0
	sd	a0,-40(s0)
	sd	a1,-48(s0)
	sd	a2,-56(s0)
	sd	a3,-64(s0)
	.loc 1 886 8
	ld	a5,-40(s0)
	sd	a5,-24(s0)
	.loc 1 887 13
	ld	a5,-24(s0)
	ld	a5,160(a5)
	sd	a5,-32(s0)
	.loc 1 889 7
	la	a1,gEfiFileInfoGuid
	ld	a0,-48(s0)
	call	CompareGuid@plt
	mv	a5,a0
	.loc 1 889 6 discriminator 1
	beq	a5,zero,.L96
	.loc 1 890 12
	ld	a2,-56(s0)
	ld	a1,-64(s0)
	ld	a0,-24(s0)
	call	Ext4GetFileInfo
	mv	a5,a0
	j	.L97
.L96:
	.loc 1 893 7
	la	a1,gEfiFileSystemInfoGuid
	ld	a0,-48(s0)
	call	CompareGuid@plt
	mv	a5,a0
	.loc 1 893 6 discriminator 1
	beq	a5,zero,.L98
	.loc 1 894 12
	ld	a2,-56(s0)
	ld	a1,-64(s0)
	ld	a0,-32(s0)
	call	Ext4GetFilesystemInfo
	mv	a5,a0
	j	.L97
.L98:
	.loc 1 897 7
	la	a1,gEfiFileSystemVolumeLabelInfoIdGuid
	ld	a0,-48(s0)
	call	CompareGuid@plt
	mv	a5,a0
	.loc 1 897 6 discriminator 1
	beq	a5,zero,.L99
	.loc 1 898 12
	ld	a2,-56(s0)
	ld	a1,-64(s0)
	ld	a0,-32(s0)
	call	Ext4GetVolumeLabelInfo
	mv	a5,a0
	j	.L97
.L99:
	.loc 1 901 10
	li	a5,-1
	slli	a5,a5,63
	addi	a5,a5,3
.L97:
	.loc 1 902 1
	mv	a0,a5
	ld	ra,56(sp)
	.cfi_restore 1
	ld	s0,48(sp)
	.cfi_restore 8
	.cfi_def_cfa 2, 64
	addi	sp,sp,64
	.cfi_def_cfa_offset 0
	jr	ra
	.cfi_endproc
.LFE17:
	.size	Ext4GetInfo, .-Ext4GetInfo
	.section	.text.Ext4DuplicateFile,"ax",@progbits
	.align	1
	.type	Ext4DuplicateFile, @function
Ext4DuplicateFile:
.LFB18:
	.loc 1 916 1
	.cfi_startproc
	addi	sp,sp,-64
	.cfi_def_cfa_offset 64
	sd	ra,56(sp)
	sd	s0,48(sp)
	.cfi_offset 1, -8
	.cfi_offset 8, -16
	addi	s0,sp,64
	.cfi_def_cfa 8, 0
	sd	a0,-56(s0)
	.loc 1 921 13
	ld	a5,-56(s0)
	ld	a5,160(a5)
	sd	a5,-24(s0)
	.loc 1 922 10
	li	a0,200
	call	AllocateZeroPool@plt
	sd	a0,-32(s0)
	.loc 1 924 6
	ld	a5,-32(s0)
	bne	a5,zero,.L101
	.loc 1 925 12
	li	a5,0
	j	.L102
.L101:
	.loc 1 928 17
	ld	a0,-24(s0)
	call	Ext4AllocateInode@plt
	mv	a4,a0
	.loc 1 928 15 discriminator 1
	ld	a5,-32(s0)
	sd	a4,120(a5)
	.loc 1 929 11
	ld	a5,-32(s0)
	ld	a5,120(a5)
	.loc 1 929 6
	bne	a5,zero,.L103
	.loc 1 930 5
	ld	a0,-32(s0)
	call	FreePool@plt
	.loc 1 931 12
	li	a5,0
	j	.L102
.L103:
	.loc 1 934 16
	ld	a5,-32(s0)
	ld	a4,120(a5)
	.loc 1 934 33
	ld	a5,-56(s0)
	ld	a3,120(a5)
	.loc 1 934 51
	ld	a5,-24(s0)
	lw	a5,1080(a5)
	.loc 1 934 3
	slli	a5,a5,32
	srli	a5,a5,32
	mv	a2,a5
	mv	a1,a3
	mv	a0,a4
	call	CopyMem@plt
	.loc 1 936 18
	ld	a5,-32(s0)
	sd	zero,144(a5)
	.loc 1 937 3
	ld	a1,-24(s0)
	ld	a0,-32(s0)
	call	Ext4SetupFile@plt
	.loc 1 938 28
	ld	a5,-56(s0)
	lw	a4,128(a5)
	.loc 1 938 18
	ld	a5,-32(s0)
	sw	a4,128(a5)
	.loc 1 939 18
	ld	a5,-32(s0)
	sd	zero,136(a5)
	.loc 1 941 12
	ld	a0,-32(s0)
	call	Ext4InitExtentsMap@plt
	sd	a0,-40(s0)
	.loc 1 942 34
	ld	a5,-40(s0)
	.loc 1 942 6
	bge	a5,zero,.L104
	.loc 1 943 19
	ld	a5,-32(s0)
	ld	a5,120(a5)
	.loc 1 943 5
	mv	a0,a5
	call	FreePool@plt
	.loc 1 944 5
	ld	a0,-32(s0)
	call	FreePool@plt
	.loc 1 945 12
	li	a5,0
	j	.L102
.L104:
	.loc 1 948 26
	ld	a5,-56(s0)
	ld	a4,192(a5)
	.loc 1 948 16
	ld	a5,-32(s0)
	sd	a4,192(a5)
	.loc 1 950 3
	ld	a5,-32(s0)
	ld	a5,192(a5)
	mv	a0,a5
	call	Ext4RefDentry@plt
	.loc 1 952 3
	ld	a5,-24(s0)
	addi	a4,a5,1144
	ld	a5,-32(s0)
	addi	a5,a5,176
	mv	a1,a5
	mv	a0,a4
	call	InsertTailList@plt
	.loc 1 954 10
	ld	a5,-32(s0)
.L102:
	.loc 1 955 1
	mv	a0,a5
	ld	ra,56(sp)
	.cfi_restore 1
	ld	s0,48(sp)
	.cfi_restore 8
	.cfi_def_cfa 2, 64
	addi	sp,sp,64
	.cfi_def_cfa_offset 0
	jr	ra
	.cfi_endproc
.LFE18:
	.size	Ext4DuplicateFile, .-Ext4DuplicateFile
	.section	.text.Ext4SetInfo,"ax",@progbits
	.align	1
	.globl	Ext4SetInfo
	.type	Ext4SetInfo, @function
Ext4SetInfo:
.LFB19:
	.loc 1 999 1
	.cfi_startproc
	addi	sp,sp,-64
	.cfi_def_cfa_offset 64
	sd	ra,56(sp)
	sd	s0,48(sp)
	.cfi_offset 1, -8
	.cfi_offset 8, -16
	addi	s0,sp,64
	.cfi_def_cfa 8, 0
	sd	a0,-40(s0)
	sd	a1,-48(s0)
	sd	a2,-56(s0)
	sd	a3,-64(s0)
	.loc 1 1003 8
	ld	a5,-40(s0)
	sd	a5,-24(s0)
	.loc 1 1004 13
	ld	a5,-24(s0)
	ld	a5,160(a5)
	sd	a5,-32(s0)
	.loc 1 1006 16
	ld	a5,-32(s0)
	lbu	a5,1088(a5)
	.loc 1 1006 6
	beq	a5,zero,.L106
	.loc 1 1007 12
	li	a5,-1
	slli	a5,a5,63
	addi	a5,a5,8
	j	.L107
.L106:
	.loc 1 1011 10
	li	a5,-1
	slli	a5,a5,63
	addi	a5,a5,3
.L107:
	.loc 1 1012 1
	mv	a0,a5
	ld	ra,56(sp)
	.cfi_restore 1
	ld	s0,48(sp)
	.cfi_restore 8
	.cfi_def_cfa 2, 64
	addi	sp,sp,64
	.cfi_def_cfa_offset 0
	jr	ra
	.cfi_endproc
.LFE19:
	.size	Ext4SetInfo, .-Ext4SetInfo
	.text
.Letext0:
	.file 2 "/home/kapoagaeming/spacemit-image-builder/components/edk2/MdePkg/Include/RiscV64/ProcessorBind.h"
	.file 3 "/home/kapoagaeming/spacemit-image-builder/components/edk2/MdePkg/Include/Base.h"
	.file 4 "/home/kapoagaeming/spacemit-image-builder/components/edk2/MdePkg/Include/Uefi/UefiBaseType.h"
	.file 5 "/home/kapoagaeming/spacemit-image-builder/components/Build/Milk-V-Jupiter/RELEASE_GCC5/RISCV64/Features/Ext4Pkg/Ext4Dxe/Ext4Dxe/DEBUG/AutoGen.h"
	.file 6 "/home/kapoagaeming/spacemit-image-builder/components/edk2/MdePkg/Include/Guid/FileInfo.h"
	.file 7 "/home/kapoagaeming/spacemit-image-builder/components/edk2/MdePkg/Include/Guid/FileSystemInfo.h"
	.file 8 "/home/kapoagaeming/spacemit-image-builder/components/edk2/MdePkg/Include/Guid/FileSystemVolumeLabelInfo.h"
	.file 9 "/home/kapoagaeming/spacemit-image-builder/components/edk2/MdePkg/Include/Protocol/BlockIo.h"
	.file 10 "/home/kapoagaeming/spacemit-image-builder/components/edk2/MdePkg/Include/Protocol/DiskIo.h"
	.file 11 "/home/kapoagaeming/spacemit-image-builder/components/edk2/MdePkg/Include/Protocol/DiskIo2.h"
	.file 12 "/home/kapoagaeming/spacemit-image-builder/components/edk2/MdePkg/Include/Protocol/SimpleFileSystem.h"
	.file 13 "/home/kapoagaeming/spacemit-image-builder/components/edk2/MdePkg/Include/Library/OrderedCollectionLib.h"
	.file 14 "/home/kapoagaeming/spacemit-image-builder/components/edk2-platforms/Features/Ext4Pkg/Ext4Dxe/Ext4Disk.h"
	.file 15 "/home/kapoagaeming/spacemit-image-builder/components/edk2-platforms/Features/Ext4Pkg/Ext4Dxe/Ext4Dxe.h"
	.file 16 "/home/kapoagaeming/spacemit-image-builder/components/edk2/MdePkg/Include/Library/BaseLib.h"
	.file 17 "/home/kapoagaeming/spacemit-image-builder/components/edk2/MdePkg/Include/Library/BaseMemoryLib.h"
	.file 18 "/home/kapoagaeming/spacemit-image-builder/components/edk2/MdePkg/Include/Library/MemoryAllocationLib.h"
	.file 19 "/home/kapoagaeming/spacemit-image-builder/components/edk2/RedfishPkg/Include/Library/BaseUcs2Utf8Lib.h"
	.section	.note.GNU-stack,"",@progbits
