	.file	"Inode.c"
	.option pic
	.option norelax
	.attribute arch, "rv64i2p1_m2p0_a2p1_f2p2_d2p2_c2p0_zicsr2p0_zifencei2p0_zmmul1p0_zaamo1p0_zalrsc1p0_zca1p0_zcd1p0"
	.attribute unaligned_access, 0
	.attribute stack_align, 16
	.text
.Ltext0:
	.cfi_sections	.debug_frame
	.file 0 "/home/kapoagaeming/Downloads/spacemit-image-builder/components/Build/Milk-V-Jupiter/RELEASE_GCC5/RISCV64/Features/Ext4Pkg/Ext4Dxe/Ext4Dxe" "/home/kapoagaeming/Downloads/spacemit-image-builder/components/edk2-platforms/Features/Ext4Pkg/Ext4Dxe/Inode.c"
	.section	.text.Ext4CalculateInodeChecksum,"ax",@progbits
	.align	1
	.globl	Ext4CalculateInodeChecksum
	.type	Ext4CalculateInodeChecksum, @function
Ext4CalculateInodeChecksum:
.LFB0:
	.file 1 "/home/kapoagaeming/Downloads/spacemit-image-builder/components/edk2-platforms/Features/Ext4Pkg/Ext4Dxe/Inode.c"
	.loc 1 29 1
	.cfi_startproc
	addi	sp,sp,-96
	.cfi_def_cfa_offset 96
	sd	ra,88(sp)
	sd	s0,80(sp)
	.cfi_offset 1, -8
	.cfi_offset 8, -16
	addi	s0,sp,96
	.cfi_def_cfa 8, 0
	sd	a0,-72(s0)
	sd	a1,-80(s0)
	mv	a5,a2
	sw	a5,-84(s0)
	.loc 1 37 34
	ld	a5,-80(s0)
	lhu	a5,128(a5)
	sext.w	a5,a5
	.loc 1 37 50
	addiw	a5,a5,128
	sext.w	a4,a5
	.loc 1 37 57
	li	a5,131
	sgtu	a5,a4,a5
	andi	a5,a5,0xff
	.loc 1 37 26
	sb	a5,-41(s0)
	.loc 1 39 9
	sh	zero,-58(s0)
	.loc 1 41 82
	ld	a5,-72(s0)
	lw	a4,1136(a5)
	.loc 1 41 9
	addi	a5,s0,-84
	mv	a3,a4
	li	a2,4
	mv	a1,a5
	ld	a0,-72(s0)
	call	Ext4CalculateChecksum@plt
	mv	a5,a0
	sw	a5,-20(s0)
	.loc 1 42 43
	ld	a5,-80(s0)
	addi	a5,a5,100
	.loc 1 42 9
	lw	a4,-20(s0)
	mv	a3,a4
	li	a2,4
	mv	a1,a5
	ld	a0,-72(s0)
	call	Ext4CalculateChecksum@plt
	mv	a5,a0
	sw	a5,-20(s0)
	.loc 1 44 9
	lw	a5,-20(s0)
	mv	a3,a5
	li	a2,124
	ld	a1,-80(s0)
	ld	a0,-72(s0)
	call	Ext4CalculateChecksum@plt
	mv	a5,a0
	sw	a5,-20(s0)
	.loc 1 51 9
	lw	a4,-20(s0)
	addi	a5,s0,-58
	mv	a3,a4
	li	a2,2
	mv	a1,a5
	ld	a0,-72(s0)
	call	Ext4CalculateChecksum@plt
	mv	a5,a0
	sw	a5,-20(s0)
	.loc 1 53 15
	ld	a5,-80(s0)
	addi	a5,a5,126
	sd	a5,-32(s0)
	.loc 1 54 32
	ld	a5,-72(s0)
	lw	a5,1080(a5)
	slli	a5,a5,32
	srli	a5,a5,32
	.loc 1 54 21
	addi	a5,a5,-126
	sd	a5,-40(s0)
	.loc 1 56 6
	lbu	a5,-41(s0)
	andi	a5,a5,0xff
	beq	a5,zero,.L2
	.loc 1 57 12
	li	a5,4
	sd	a5,-56(s0)
	.loc 1 59 45
	ld	a5,-80(s0)
	addi	a5,a5,126
	.loc 1 59 11
	lw	a4,-20(s0)
	mv	a3,a4
	ld	a2,-56(s0)
	mv	a1,a5
	ld	a0,-72(s0)
	call	Ext4CalculateChecksum@plt
	mv	a5,a0
	sw	a5,-20(s0)
	.loc 1 60 11
	lw	a4,-20(s0)
	addi	a5,s0,-58
	mv	a3,a4
	li	a2,2
	mv	a1,a5
	ld	a0,-72(s0)
	call	Ext4CalculateChecksum@plt
	mv	a5,a0
	sw	a5,-20(s0)
	.loc 1 63 34
	ld	a5,-72(s0)
	lw	a5,1080(a5)
	.loc 1 63 53
	addiw	a5,a5,-132
	sext.w	a5,a5
	.loc 1 63 23
	slli	a5,a5,32
	srli	a5,a5,32
	sd	a5,-40(s0)
	.loc 1 64 17
	ld	a5,-80(s0)
	addi	a5,a5,132
	sd	a5,-32(s0)
.L2:
	.loc 1 67 9
	lw	a5,-20(s0)
	mv	a3,a5
	ld	a2,-40(s0)
	ld	a1,-32(s0)
	ld	a0,-72(s0)
	call	Ext4CalculateChecksum@plt
	mv	a5,a0
	sw	a5,-20(s0)
	.loc 1 69 10
	lw	a5,-20(s0)
	.loc 1 70 1
	mv	a0,a5
	ld	ra,88(sp)
	.cfi_restore 1
	ld	s0,80(sp)
	.cfi_restore 8
	.cfi_def_cfa 2, 96
	addi	sp,sp,96
	.cfi_def_cfa_offset 0
	jr	ra
	.cfi_endproc
.LFE0:
	.size	Ext4CalculateInodeChecksum, .-Ext4CalculateInodeChecksum
	.section	.text.Ext4Read,"ax",@progbits
	.align	1
	.globl	Ext4Read
	.type	Ext4Read, @function
Ext4Read:
.LFB1:
	.loc 1 91 1
	.cfi_startproc
	addi	sp,sp,-208
	.cfi_def_cfa_offset 208
	sd	ra,200(sp)
	sd	s0,192(sp)
	.cfi_offset 1, -8
	.cfi_offset 8, -16
	addi	s0,sp,208
	.cfi_def_cfa 8, 0
	sd	a0,-168(s0)
	sd	a1,-176(s0)
	sd	a2,-184(s0)
	sd	a3,-192(s0)
	sd	a4,-200(s0)
	.loc 1 112 9
	ld	a5,-176(s0)
	ld	a5,120(a5)
	sd	a5,-64(s0)
	.loc 1 113 31
	ld	a5,-64(s0)
	lw	a5,108(a5)
	.loc 1 113 16
	slli	a5,a5,32
	srli	a5,a5,32
	li	a1,32
	mv	a0,a5
	call	LShiftU64@plt
	mv	a4,a0
	.loc 1 113 55 discriminator 1
	ld	a5,-64(s0)
	lw	a5,4(a5)
	slli	a5,a5,32
	srli	a5,a5,32
	.loc 1 113 13 discriminator 1
	or	a5,a4,a5
	sd	a5,-72(s0)
	.loc 1 114 15
	ld	a5,-192(s0)
	sd	a5,-48(s0)
	.loc 1 115 17
	ld	a5,-200(s0)
	ld	a5,0(a5)
	sd	a5,-56(s0)
	.loc 1 116 12
	sd	zero,-40(s0)
	.loc 1 120 6
	ld	a4,-192(s0)
	ld	a5,-72(s0)
	bleu	a4,a5,.L5
	.loc 1 121 12
	li	a5,-1
	slli	a5,a5,63
	addi	a5,a5,7
	j	.L18
.L5:
	.loc 1 124 33
	ld	a4,-72(s0)
	ld	a5,-192(s0)
	sub	a5,a4,a5
	.loc 1 124 6
	ld	a4,-56(s0)
	bleu	a4,a5,.L8
	.loc 1 125 19
	ld	a4,-72(s0)
	ld	a5,-192(s0)
	sub	a5,a4,a5
	sd	a5,-56(s0)
	.loc 1 128 9
	j	.L8
.L17:
	.loc 1 129 13
	sd	zero,-24(s0)
	.loc 1 137 16
	ld	a5,-168(s0)
	lw	a5,1084(a5)
	addi	a4,s0,-148
	mv	a2,a4
	mv	a1,a5
	ld	a0,-48(s0)
	call	DivU64x32Remainder@plt
	mv	a4,a0
	.loc 1 134 14
	addi	a5,s0,-144
	mv	a3,a5
	mv	a2,a4
	ld	a1,-176(s0)
	ld	a0,-168(s0)
	call	Ext4GetExtent@plt
	sd	a0,-80(s0)
	.loc 1 141 8
	ld	a5,-80(s0)
	beq	a5,zero,.L9
	.loc 1 141 40 discriminator 1
	ld	a4,-80(s0)
	li	a5,-1
	slli	a5,a5,63
	addi	a5,a5,17
	beq	a4,a5,.L9
	.loc 1 142 14
	ld	a5,-80(s0)
	j	.L18
.L9:
	.loc 1 145 31
	ld	a4,-80(s0)
	li	a5,-33
	srli	a5,a5,1
	add	a5,a4,a5
	snez	a5,a5
	andi	a5,a5,0xff
	.loc 1 145 22
	sb	a5,-81(s0)
	.loc 1 147 8
	lbu	a5,-81(s0)
	andi	a5,a5,0xff
	beq	a5,zero,.L10
	.loc 1 147 40 discriminator 1
	lhu	a5,-140(s0)
	.loc 1 147 27 discriminator 1
	sext.w	a4,a5
	li	a5,32768
	bleu	a4,a5,.L11
.L10:
	.loc 1 148 15
	lw	a5,-148(s0)
	sw	a5,-132(s0)
	.loc 1 150 10
	lbu	a5,-81(s0)
	andi	a5,a5,0xff
	bne	a5,zero,.L12
	.loc 1 151 28
	ld	a5,-168(s0)
	lw	a5,1084(a5)
	.loc 1 151 40
	lw	a4,-132(s0)
	subw	a5,a5,a4
	sext.w	a5,a5
	.loc 1 151 17
	slli	a5,a5,32
	srli	a5,a5,32
	sd	a5,-32(s0)
	j	.L13
.L12:
	.loc 1 155 31
	addi	a5,s0,-144
	mv	a0,a5
	call	Ext4GetExtentLength@plt
	mv	a4,a0
	.loc 1 155 19 discriminator 1
	ld	a5,-168(s0)
	lw	a5,1084(a5)
	mv	a1,a5
	mv	a0,a4
	call	MultU64x32@plt
	mv	a4,a0
	.loc 1 155 84 discriminator 2
	lwu	a5,-132(s0)
	.loc 1 155 17 discriminator 2
	sub	a5,a4,a5
	sd	a5,-32(s0)
.L13:
	.loc 1 158 15
	ld	a4,-56(s0)
	ld	a5,-32(s0)
	bleu	a5,a4,.L14
	mv	a5,a4
.L14:
	sd	a5,-24(s0)
	.loc 1 161 7
	ld	a1,-24(s0)
	ld	a0,-184(s0)
	call	ZeroMem@plt
	j	.L15
.L11:
	.loc 1 164 45
	lhu	a5,-138(s0)
	.loc 1 164 28
	li	a1,32
	mv	a0,a5
	call	LShiftU64@plt
	mv	a4,a0
	.loc 1 165 34
	lw	a5,-136(s0)
	slli	a5,a5,32
	srli	a5,a5,32
	.loc 1 163 26
	or	a4,a4,a5
	ld	a5,-168(s0)
	lw	a5,1084(a5)
	mv	a1,a5
	mv	a0,a4
	call	MultU64x32@plt
	sd	a0,-96(s0)
	.loc 1 168 33
	lhu	a5,-140(s0)
	sext.w	a4,a5
	.loc 1 168 52
	ld	a5,-168(s0)
	lw	a5,1084(a5)
	.loc 1 168 41
	mulw	a5,a4,a5
	sext.w	a5,a5
	.loc 1 168 25
	slli	a5,a5,32
	srli	a5,a5,32
	sd	a5,-104(s0)
	.loc 1 169 54
	lw	a5,-144(s0)
	.loc 1 169 28
	slli	a4,a5,32
	srli	a4,a4,32
	ld	a5,-168(s0)
	lw	a5,1084(a5)
	mv	a1,a5
	mv	a0,a4
	call	MultU64x32@plt
	sd	a0,-112(s0)
	.loc 1 170 20
	ld	a4,-48(s0)
	ld	a5,-112(s0)
	sub	a5,a4,a5
	sd	a5,-120(s0)
	.loc 1 171 21
	ld	a4,-104(s0)
	ld	a5,-120(s0)
	sub	a5,a4,a5
	sd	a5,-128(s0)
	.loc 1 173 15
	ld	a4,-56(s0)
	ld	a5,-128(s0)
	bleu	a5,a4,.L16
	mv	a5,a4
.L16:
	sd	a5,-24(s0)
	.loc 1 175 16
	ld	a4,-96(s0)
	ld	a5,-120(s0)
	add	a5,a4,a5
	mv	a3,a5
	ld	a2,-24(s0)
	ld	a1,-184(s0)
	ld	a0,-168(s0)
	call	Ext4ReadDiskIo@plt
	sd	a0,-80(s0)
	.loc 1 177 38
	ld	a5,-80(s0)
	.loc 1 177 10
	bge	a5,zero,.L15
	.loc 1 185 16
	ld	a5,-80(s0)
	j	.L18
.L15:
	.loc 1 189 19
	ld	a4,-56(s0)
	ld	a5,-24(s0)
	sub	a5,a4,a5
	sd	a5,-56(s0)
	.loc 1 190 12
	ld	a4,-184(s0)
	ld	a5,-24(s0)
	add	a5,a4,a5
	sd	a5,-184(s0)
	.loc 1 191 14
	ld	a4,-40(s0)
	ld	a5,-24(s0)
	add	a5,a4,a5
	sd	a5,-40(s0)
	.loc 1 192 17
	ld	a4,-48(s0)
	ld	a5,-24(s0)
	add	a5,a4,a5
	sd	a5,-48(s0)
.L8:
	.loc 1 128 24
	ld	a5,-56(s0)
	bne	a5,zero,.L17
	.loc 1 195 11
	ld	a5,-200(s0)
	ld	a4,-40(s0)
	sd	a4,0(a5)
	.loc 1 197 10
	li	a5,0
.L18:
	.loc 1 198 1
	mv	a0,a5
	ld	ra,200(sp)
	.cfi_restore 1
	ld	s0,192(sp)
	.cfi_restore 8
	.cfi_def_cfa 2, 208
	addi	sp,sp,208
	.cfi_def_cfa_offset 0
	jr	ra
	.cfi_endproc
.LFE1:
	.size	Ext4Read, .-Ext4Read
	.section	.text.Ext4AllocateInode,"ax",@progbits
	.align	1
	.globl	Ext4AllocateInode
	.type	Ext4AllocateInode, @function
Ext4AllocateInode:
.LFB2:
	.loc 1 211 1
	.cfi_startproc
	addi	sp,sp,-48
	.cfi_def_cfa_offset 48
	sd	ra,40(sp)
	sd	s0,32(sp)
	.cfi_offset 1, -8
	.cfi_offset 8, -16
	addi	s0,sp,48
	.cfi_def_cfa 8, 0
	sd	a0,-40(s0)
	.loc 1 216 19
	sb	zero,-17(s0)
	.loc 1 217 13
	ld	a5,-40(s0)
	lw	a5,1080(a5)
	sw	a5,-24(s0)
	.loc 1 226 6
	lw	a5,-24(s0)
	sext.w	a4,a5
	li	a5,159
	bgtu	a4,a5,.L20
	.loc 1 227 15
	li	a5,160
	sw	a5,-24(s0)
	.loc 1 228 21
	li	a5,1
	sb	a5,-17(s0)
.L20:
	.loc 1 231 11
	lwu	a5,-24(s0)
	mv	a0,a5
	call	AllocateZeroPool@plt
	sd	a0,-32(s0)
	.loc 1 233 6
	ld	a5,-32(s0)
	bne	a5,zero,.L21
	.loc 1 234 12
	li	a5,0
	j	.L22
.L21:
	.loc 1 237 6
	lbu	a5,-17(s0)
	andi	a5,a5,0xff
	beq	a5,zero,.L23
	.loc 1 238 26
	ld	a5,-32(s0)
	sh	zero,128(a5)
.L23:
	.loc 1 241 10
	ld	a5,-32(s0)
.L22:
	.loc 1 242 1
	mv	a0,a5
	ld	ra,40(sp)
	.cfi_restore 1
	ld	s0,32(sp)
	.cfi_restore 8
	.cfi_def_cfa 2, 48
	addi	sp,sp,48
	.cfi_def_cfa_offset 0
	jr	ra
	.cfi_endproc
.LFE2:
	.size	Ext4AllocateInode, .-Ext4AllocateInode
	.section	.text.Ext4FileIsDir,"ax",@progbits
	.align	1
	.globl	Ext4FileIsDir
	.type	Ext4FileIsDir, @function
Ext4FileIsDir:
.LFB3:
	.loc 1 254 1
	.cfi_startproc
	addi	sp,sp,-32
	.cfi_def_cfa_offset 32
	sd	ra,24(sp)
	sd	s0,16(sp)
	.cfi_offset 1, -8
	.cfi_offset 8, -16
	addi	s0,sp,32
	.cfi_def_cfa 8, 0
	sd	a0,-24(s0)
	.loc 1 255 15
	ld	a5,-24(s0)
	ld	a5,120(a5)
	.loc 1 255 22
	lhu	a5,0(a5)
	.loc 1 255 31
	sext.w	a4,a5
	li	a5,16384
	and	a5,a4,a5
	sext.w	a5,a5
	.loc 1 255 41
	srli	a5,a5,14
	andi	a5,a5,1
	andi	a5,a5,0xff
	.loc 1 256 1
	mv	a0,a5
	ld	ra,24(sp)
	.cfi_restore 1
	ld	s0,16(sp)
	.cfi_restore 8
	.cfi_def_cfa 2, 32
	addi	sp,sp,32
	.cfi_def_cfa_offset 0
	jr	ra
	.cfi_endproc
.LFE3:
	.size	Ext4FileIsDir, .-Ext4FileIsDir
	.section	.text.Ext4FileIsSymlink,"ax",@progbits
	.align	1
	.globl	Ext4FileIsSymlink
	.type	Ext4FileIsSymlink, @function
Ext4FileIsSymlink:
.LFB4:
	.loc 1 269 1
	.cfi_startproc
	addi	sp,sp,-32
	.cfi_def_cfa_offset 32
	sd	ra,24(sp)
	sd	s0,16(sp)
	.cfi_offset 1, -8
	.cfi_offset 8, -16
	addi	s0,sp,32
	.cfi_def_cfa 8, 0
	sd	a0,-24(s0)
	.loc 1 270 15
	ld	a5,-24(s0)
	ld	a5,120(a5)
	.loc 1 270 22
	lhu	a5,0(a5)
	.loc 1 270 31
	sext.w	a4,a5
	li	a5,40960
	and	a5,a4,a5
	sext.w	a4,a5
	.loc 1 270 41
	li	a5,40960
	sub	a5,a4,a5
	seqz	a5,a5
	andi	a5,a5,0xff
	.loc 1 271 1
	mv	a0,a5
	ld	ra,24(sp)
	.cfi_restore 1
	ld	s0,16(sp)
	.cfi_restore 8
	.cfi_def_cfa 2, 32
	addi	sp,sp,32
	.cfi_def_cfa_offset 0
	jr	ra
	.cfi_endproc
.LFE4:
	.size	Ext4FileIsSymlink, .-Ext4FileIsSymlink
	.section	.text.Ext4FileIsReg,"ax",@progbits
	.align	1
	.globl	Ext4FileIsReg
	.type	Ext4FileIsReg, @function
Ext4FileIsReg:
.LFB5:
	.loc 1 283 1
	.cfi_startproc
	addi	sp,sp,-32
	.cfi_def_cfa_offset 32
	sd	ra,24(sp)
	sd	s0,16(sp)
	.cfi_offset 1, -8
	.cfi_offset 8, -16
	addi	s0,sp,32
	.cfi_def_cfa 8, 0
	sd	a0,-24(s0)
	.loc 1 284 15
	ld	a5,-24(s0)
	ld	a5,120(a5)
	.loc 1 284 22
	lhu	a5,0(a5)
	.loc 1 284 41
	slliw	a5,a5,16
	sraiw	a5,a5,16
	slliw	a5,a5,16
	srliw	a5,a5,16
	srliw	a5,a5,15
	andi	a5,a5,0xff
	.loc 1 285 1
	mv	a0,a5
	ld	ra,24(sp)
	.cfi_restore 1
	ld	s0,16(sp)
	.cfi_restore 8
	.cfi_def_cfa 2, 32
	addi	sp,sp,32
	.cfi_def_cfa_offset 0
	jr	ra
	.cfi_endproc
.LFE5:
	.size	Ext4FileIsReg, .-Ext4FileIsReg
	.section	.text.Ext4FilePhysicalSpace,"ax",@progbits
	.align	1
	.globl	Ext4FilePhysicalSpace
	.type	Ext4FilePhysicalSpace, @function
Ext4FilePhysicalSpace:
.LFB6:
	.loc 1 297 1
	.cfi_startproc
	addi	sp,sp,-48
	.cfi_def_cfa_offset 48
	sd	ra,40(sp)
	sd	s0,32(sp)
	.cfi_offset 1, -8
	.cfi_offset 8, -16
	addi	s0,sp,48
	.cfi_def_cfa 8, 0
	sd	a0,-40(s0)
	.loc 1 301 20
	ld	a5,-40(s0)
	ld	a5,160(a5)
	.loc 1 301 31
	lw	a5,1076(a5)
	.loc 1 301 50
	andi	a5,a5,8
	sext.w	a5,a5
	.loc 1 301 60
	srli	a5,a5,3
	andi	a5,a5,1
	andi	a5,a5,0xff
	.loc 1 301 12
	sb	a5,-25(s0)
	.loc 1 302 16
	ld	a5,-40(s0)
	ld	a5,120(a5)
	.loc 1 302 23
	lw	a5,28(a5)
	.loc 1 302 10
	slli	a5,a5,32
	srli	a5,a5,32
	sd	a5,-24(s0)
	.loc 1 304 6
	lbu	a5,-25(s0)
	andi	a5,a5,0xff
	beq	a5,zero,.L31
	.loc 1 305 30
	ld	a5,-40(s0)
	ld	a5,120(a5)
	.loc 1 305 56
	lhu	a5,116(a5)
	.loc 1 305 15
	li	a1,32
	mv	a0,a5
	call	LShiftU64@plt
	mv	a4,a0
	.loc 1 305 12 discriminator 1
	ld	a5,-24(s0)
	or	a5,a5,a4
	sd	a5,-24(s0)
	.loc 1 309 14
	ld	a5,-40(s0)
	ld	a5,120(a5)
	.loc 1 309 21
	lw	a5,32(a5)
	.loc 1 309 31
	mv	a4,a5
	li	a5,262144
	and	a5,a4,a5
	sext.w	a5,a5
	.loc 1 309 8
	beq	a5,zero,.L31
	.loc 1 310 38
	ld	a5,-40(s0)
	ld	a5,160(a5)
	.loc 1 310 14
	lw	a5,1084(a5)
	mv	a1,a5
	ld	a0,-24(s0)
	call	MultU64x32@plt
	mv	a5,a0
	j	.L32
.L31:
	.loc 1 315 10
	li	a1,512
	ld	a0,-24(s0)
	call	MultU64x32@plt
	mv	a5,a0
.L32:
	.loc 1 316 1
	mv	a0,a5
	ld	ra,40(sp)
	.cfi_restore 1
	ld	s0,32(sp)
	.cfi_restore 8
	.cfi_def_cfa 2, 48
	addi	sp,sp,48
	.cfi_def_cfa_offset 0
	jr	ra
	.cfi_endproc
.LFE6:
	.size	Ext4FilePhysicalSpace, .-Ext4FilePhysicalSpace
	.section	.text.EpochToEfiTime,"ax",@progbits
	.align	1
	.type	EpochToEfiTime, @function
EpochToEfiTime:
.LFB7:
	.loc 1 335 1
	.cfi_startproc
	addi	sp,sp,-160
	.cfi_def_cfa_offset 160
	sd	ra,152(sp)
	sd	s0,144(sp)
	.cfi_offset 1, -8
	.cfi_offset 8, -16
	addi	s0,sp,160
	.cfi_def_cfa 8, 0
	sd	a0,-152(s0)
	sd	a1,-160(s0)
	.loc 1 353 21
	ld	a4,-152(s0)
	lla	a5,.LC0
	ld	a5,0(a5)
	mulhu	a5,a4,a5
	srli	a4,a5,16
	.loc 1 353 5
	li	a5,2441216
	addi	a5,a5,-628
	add	a5,a4,a5
	sd	a5,-24(s0)
	.loc 1 354 5
	ld	a4,-24(s0)
	li	a5,32768
	addi	a5,a5,-724
	add	a5,a4,a5
	sd	a5,-32(s0)
	.loc 1 355 5
	ld	a4,-32(s0)
	lla	a5,.LC1
	ld	a5,0(a5)
	mulhu	a5,a4,a5
	srli	a5,a5,15
	sd	a5,-40(s0)
	.loc 1 356 6
	ld	a5,-32(s0)
	lla	a4,.LC1
	ld	a4,0(a4)
	mulhu	a4,a5,a4
	srli	a3,a4,15
	li	a4,147456
	addi	a4,a4,-1359
	mul	a4,a3,a4
	sub	a5,a5,a4
	sd	a5,-48(s0)
	.loc 1 357 13
	ld	a4,-48(s0)
	lla	a5,.LC2
	ld	a5,0(a5)
	mulhu	a5,a4,a5
	srli	a5,a5,15
	.loc 1 357 27
	addi	a4,a5,1
	mv	a5,a4
	slli	a5,a5,1
	add	a5,a5,a4
	.loc 1 357 5
	srli	a5,a5,2
	sd	a5,-56(s0)
	.loc 1 358 16
	ld	a4,-56(s0)
	li	a5,36864
	addi	a5,a5,-340
	mul	a5,a4,a5
	.loc 1 358 6
	ld	a4,-48(s0)
	sub	a5,a4,a5
	sd	a5,-64(s0)
	.loc 1 359 5
	ld	a4,-64(s0)
	lla	a5,.LC3
	ld	a5,0(a5)
	mulhu	a5,a4,a5
	srli	a5,a5,10
	sd	a5,-72(s0)
	.loc 1 360 6
	ld	a5,-64(s0)
	lla	a4,.LC3
	ld	a4,0(a4)
	mulhu	a4,a5,a4
	srli	a3,a4,10
	li	a4,1461
	mul	a4,a3,a4
	sub	a5,a5,a4
	sd	a5,-80(s0)
	.loc 1 361 13
	ld	a4,-80(s0)
	lla	a5,.LC4
	ld	a5,0(a5)
	mulhu	a5,a4,a5
	sub	a4,a4,a5
	srli	a4,a4,1
	add	a5,a5,a4
	srli	a5,a5,8
	.loc 1 361 25
	addi	a4,a5,1
	mv	a5,a4
	slli	a5,a5,1
	add	a5,a5,a4
	.loc 1 361 5
	srli	a5,a5,2
	sd	a5,-88(s0)
	.loc 1 362 16
	ld	a4,-88(s0)
	li	a5,365
	mul	a5,a4,a5
	.loc 1 362 6
	ld	a4,-80(s0)
	sub	a5,a4,a5
	sd	a5,-96(s0)
	.loc 1 363 10
	ld	a4,-40(s0)
	li	a5,400
	mul	a4,a4,a5
	.loc 1 363 22
	ld	a3,-56(s0)
	li	a5,100
	mul	a5,a3,a5
	.loc 1 363 17
	add	a4,a4,a5
	.loc 1 363 34
	ld	a5,-72(s0)
	slli	a5,a5,2
	.loc 1 363 29
	add	a5,a4,a5
	.loc 1 363 5
	ld	a4,-88(s0)
	add	a5,a4,a5
	sd	a5,-104(s0)
	.loc 1 364 13
	ld	a4,-96(s0)
	mv	a5,a4
	slli	a5,a5,2
	add	a5,a5,a4
	.loc 1 364 18
	addi	a4,a5,308
	.loc 1 364 25
	lla	a5,.LC5
	ld	a5,0(a5)
	mulhu	a5,a4,a5
	srli	a5,a5,5
	.loc 1 364 5
	addi	a5,a5,-2
	sd	a5,-112(s0)
	.loc 1 365 22
	ld	a4,-112(s0)
	mv	a5,a4
	slli	a5,a5,3
	add	a5,a5,a4
	slli	a4,a5,4
	add	a5,a5,a4
	addi	a4,a5,612
	.loc 1 365 29
	lla	a5,.LC6
	ld	a5,0(a5)
	mulhu	a5,a4,a5
	srli	a5,a5,2
	.loc 1 365 10
	ld	a4,-96(s0)
	sub	a5,a4,a5
	.loc 1 365 5
	addi	a5,a5,122
	sd	a5,-120(s0)
	.loc 1 367 34
	ld	a5,-104(s0)
	slli	a4,a5,48
	srli	a4,a4,48
	.loc 1 367 40
	ld	a5,-112(s0)
	addi	a3,a5,2
	.loc 1 367 45
	lla	a5,.LC7
	ld	a5,0(a5)
	mulhu	a5,a3,a5
	srli	a5,a5,3
	.loc 1 367 34
	slli	a5,a5,48
	srli	a5,a5,48
	addw	a5,a4,a5
	slli	a4,a5,48
	srli	a4,a4,48
	.loc 1 367 16
	li	a5,-4096
	addiw	a5,a5,-704
	addw	a5,a4,a5
	slli	a4,a5,48
	srli	a4,a4,48
	.loc 1 367 14
	ld	a5,-160(s0)
	sh	a4,0(a5)
	.loc 1 368 21
	ld	a5,-112(s0)
	addi	a3,a5,2
	.loc 1 368 26
	lla	a5,.LC7
	ld	a5,0(a5)
	mulhu	a5,a3,a5
	srli	a4,a5,3
	mv	a5,a4
	slli	a5,a5,1
	add	a5,a5,a4
	slli	a5,a5,2
	sub	a4,a3,a5
	.loc 1 368 32
	andi	a5,a4,0xff
	addiw	a5,a5,1
	andi	a4,a5,0xff
	.loc 1 368 15
	ld	a5,-160(s0)
	sb	a4,2(a5)
	.loc 1 369 15
	ld	a5,-120(s0)
	andi	a5,a5,0xff
	addiw	a5,a5,1
	andi	a4,a5,0xff
	.loc 1 369 13
	ld	a5,-160(s0)
	sb	a4,3(a5)
	.loc 1 371 6
	ld	a4,-152(s0)
	lla	a5,.LC8
	ld	a5,0(a5)
	mulhu	a5,a4,a5
	srli	a3,a5,5
	mv	a5,a3
	slli	a5,a5,4
	sub	a5,a5,a3
	slli	a5,a5,2
	sub	a5,a4,a5
	sd	a5,-128(s0)
	.loc 1 372 21
	ld	a4,-152(s0)
	ld	a5,-128(s0)
	sub	a4,a4,a5
	.loc 1 372 5
	lla	a5,.LC8
	ld	a5,0(a5)
	mulhu	a5,a4,a5
	srli	a5,a5,5
	sd	a5,-88(s0)
	.loc 1 373 6
	ld	a4,-88(s0)
	lla	a5,.LC8
	ld	a5,0(a5)
	mulhu	a5,a4,a5
	srli	a3,a5,5
	mv	a5,a3
	slli	a5,a5,4
	sub	a5,a5,a3
	slli	a5,a5,2
	sub	a5,a4,a5
	sd	a5,-136(s0)
	.loc 1 374 10
	ld	a4,-88(s0)
	ld	a5,-136(s0)
	sub	a4,a4,a5
	.loc 1 374 5
	lla	a5,.LC8
	ld	a5,0(a5)
	mulhu	a5,a4,a5
	srli	a5,a5,5
	sd	a5,-72(s0)
	.loc 1 375 6
	ld	a4,-72(s0)
	lla	a5,.LC7
	ld	a5,0(a5)
	mulhu	a5,a4,a5
	srli	a3,a5,4
	mv	a5,a3
	slli	a5,a5,1
	add	a5,a5,a3
	slli	a5,a5,3
	sub	a5,a4,a5
	sd	a5,-144(s0)
	.loc 1 377 16
	ld	a5,-144(s0)
	andi	a4,a5,0xff
	.loc 1 377 14
	ld	a5,-160(s0)
	sb	a4,4(a5)
	.loc 1 378 18
	ld	a5,-136(s0)
	andi	a4,a5,0xff
	.loc 1 378 16
	ld	a5,-160(s0)
	sb	a4,5(a5)
	.loc 1 379 18
	ld	a5,-128(s0)
	andi	a4,a5,0xff
	.loc 1 379 16
	ld	a5,-160(s0)
	sb	a4,6(a5)
	.loc 1 380 20
	ld	a5,-160(s0)
	sw	zero,8(a5)
	.loc 1 381 1
	nop
	ld	ra,152(sp)
	.cfi_restore 1
	ld	s0,144(sp)
	.cfi_restore 8
	.cfi_def_cfa 2, 160
	addi	sp,sp,160
	.cfi_def_cfa_offset 0
	jr	ra
	.cfi_endproc
.LFE7:
	.size	EpochToEfiTime, .-EpochToEfiTime
	.section	.text.Ext4FileATime,"ax",@progbits
	.align	1
	.globl	Ext4FileATime
	.type	Ext4FileATime, @function
Ext4FileATime:
.LFB8:
	.loc 1 411 55
	.cfi_startproc
	addi	sp,sp,-64
	.cfi_def_cfa_offset 64
	sd	ra,56(sp)
	sd	s0,48(sp)
	.cfi_offset 1, -8
	.cfi_offset 8, -16
	addi	s0,sp,64
	.cfi_def_cfa 8, 0
	sd	a0,-56(s0)
	sd	a1,-64(s0)
	.loc 1 411 69
	ld	a5,-56(s0)
	ld	a5,120(a5)
	sd	a5,-40(s0)
	.loc 1 411 117
	ld	a5,-40(s0)
	lw	a5,8(a5)
	.loc 1 411 97
	slli	a5,a5,32
	srli	a5,a5,32
	sd	a5,-24(s0)
	.loc 1 411 135
	sw	zero,-28(s0)
	.loc 1 411 162
	ld	a5,-40(s0)
	lhu	a5,128(a5)
	sext.w	a5,a5
	.loc 1 411 178
	addiw	a5,a5,128
	sext.w	a4,a5
	.loc 1 411 155
	li	a5,143
	bleu	a4,a5,.L35
	.loc 1 411 343 discriminator 1
	ld	a5,-40(s0)
	lw	a5,140(a5)
	.loc 1 411 329 discriminator 1
	slli	a5,a5,32
	srli	a5,a5,32
	.loc 1 411 318 discriminator 1
	andi	a5,a5,3
	li	a1,32
	mv	a0,a5
	call	LShiftU64@plt
	mv	a4,a0
	.loc 1 411 315 discriminator 3
	ld	a5,-24(s0)
	or	a5,a5,a4
	sd	a5,-24(s0)
	.loc 1 411 402 discriminator 3
	ld	a5,-40(s0)
	lw	a5,140(a5)
	.loc 1 411 395 discriminator 3
	srliw	a5,a5,2
	sw	a5,-28(s0)
.L35:
	.loc 1 411 426 discriminator 4
	ld	a1,-64(s0)
	ld	a0,-24(s0)
	call	EpochToEfiTime
	.loc 1 411 487 discriminator 5
	ld	a5,-64(s0)
	lw	a4,-28(s0)
	sw	a4,8(a5)
	.loc 1 411 502
	nop
	ld	ra,56(sp)
	.cfi_restore 1
	ld	s0,48(sp)
	.cfi_restore 8
	.cfi_def_cfa 2, 64
	addi	sp,sp,64
	.cfi_def_cfa_offset 0
	jr	ra
	.cfi_endproc
.LFE8:
	.size	Ext4FileATime, .-Ext4FileATime
	.section	.text.Ext4FileMTime,"ax",@progbits
	.align	1
	.globl	Ext4FileMTime
	.type	Ext4FileMTime, @function
Ext4FileMTime:
.LFB9:
	.loc 1 418 55
	.cfi_startproc
	addi	sp,sp,-64
	.cfi_def_cfa_offset 64
	sd	ra,56(sp)
	sd	s0,48(sp)
	.cfi_offset 1, -8
	.cfi_offset 8, -16
	addi	s0,sp,64
	.cfi_def_cfa 8, 0
	sd	a0,-56(s0)
	sd	a1,-64(s0)
	.loc 1 418 69
	ld	a5,-56(s0)
	ld	a5,120(a5)
	sd	a5,-40(s0)
	.loc 1 418 117
	ld	a5,-40(s0)
	lw	a5,16(a5)
	.loc 1 418 97
	slli	a5,a5,32
	srli	a5,a5,32
	sd	a5,-24(s0)
	.loc 1 418 135
	sw	zero,-28(s0)
	.loc 1 418 162
	ld	a5,-40(s0)
	lhu	a5,128(a5)
	sext.w	a5,a5
	.loc 1 418 178
	addiw	a5,a5,128
	sext.w	a4,a5
	.loc 1 418 155
	li	a5,139
	bleu	a4,a5,.L37
	.loc 1 418 343 discriminator 1
	ld	a5,-40(s0)
	lw	a5,136(a5)
	.loc 1 418 329 discriminator 1
	slli	a5,a5,32
	srli	a5,a5,32
	.loc 1 418 318 discriminator 1
	andi	a5,a5,3
	li	a1,32
	mv	a0,a5
	call	LShiftU64@plt
	mv	a4,a0
	.loc 1 418 315 discriminator 3
	ld	a5,-24(s0)
	or	a5,a5,a4
	sd	a5,-24(s0)
	.loc 1 418 402 discriminator 3
	ld	a5,-40(s0)
	lw	a5,136(a5)
	.loc 1 418 395 discriminator 3
	srliw	a5,a5,2
	sw	a5,-28(s0)
.L37:
	.loc 1 418 426 discriminator 4
	ld	a1,-64(s0)
	ld	a0,-24(s0)
	call	EpochToEfiTime
	.loc 1 418 487 discriminator 5
	ld	a5,-64(s0)
	lw	a4,-28(s0)
	sw	a4,8(a5)
	.loc 1 418 502
	nop
	ld	ra,56(sp)
	.cfi_restore 1
	ld	s0,48(sp)
	.cfi_restore 8
	.cfi_def_cfa 2, 64
	addi	sp,sp,64
	.cfi_def_cfa_offset 0
	jr	ra
	.cfi_endproc
.LFE9:
	.size	Ext4FileMTime, .-Ext4FileMTime
	.section	.text.Ext4FileCrTime,"ax",@progbits
	.align	1
	.type	Ext4FileCrTime, @function
Ext4FileCrTime:
.LFB10:
	.loc 1 426 56
	.cfi_startproc
	addi	sp,sp,-64
	.cfi_def_cfa_offset 64
	sd	ra,56(sp)
	sd	s0,48(sp)
	.cfi_offset 1, -8
	.cfi_offset 8, -16
	addi	s0,sp,64
	.cfi_def_cfa 8, 0
	sd	a0,-56(s0)
	sd	a1,-64(s0)
	.loc 1 426 70
	ld	a5,-56(s0)
	ld	a5,120(a5)
	sd	a5,-40(s0)
	.loc 1 426 118
	ld	a5,-40(s0)
	lw	a5,144(a5)
	.loc 1 426 98
	slli	a5,a5,32
	srli	a5,a5,32
	sd	a5,-24(s0)
	.loc 1 426 137
	sw	zero,-28(s0)
	.loc 1 426 164
	ld	a5,-40(s0)
	lhu	a5,128(a5)
	sext.w	a5,a5
	.loc 1 426 180
	addiw	a5,a5,128
	sext.w	a4,a5
	.loc 1 426 157
	li	a5,151
	bleu	a4,a5,.L39
	.loc 1 426 347 discriminator 1
	ld	a5,-40(s0)
	lw	a5,148(a5)
	.loc 1 426 333 discriminator 1
	slli	a5,a5,32
	srli	a5,a5,32
	.loc 1 426 322 discriminator 1
	andi	a5,a5,3
	li	a1,32
	mv	a0,a5
	call	LShiftU64@plt
	mv	a4,a0
	.loc 1 426 319 discriminator 3
	ld	a5,-24(s0)
	or	a5,a5,a4
	sd	a5,-24(s0)
	.loc 1 426 407 discriminator 3
	ld	a5,-40(s0)
	lw	a5,148(a5)
	.loc 1 426 400 discriminator 3
	srliw	a5,a5,2
	sw	a5,-28(s0)
.L39:
	.loc 1 426 432 discriminator 4
	ld	a1,-64(s0)
	ld	a0,-24(s0)
	call	EpochToEfiTime
	.loc 1 426 493 discriminator 5
	ld	a5,-64(s0)
	lw	a4,-28(s0)
	sw	a4,8(a5)
	.loc 1 426 508
	nop
	ld	ra,56(sp)
	.cfi_restore 1
	ld	s0,48(sp)
	.cfi_restore 8
	.cfi_def_cfa 2, 64
	addi	sp,sp,64
	.cfi_def_cfa_offset 0
	jr	ra
	.cfi_endproc
.LFE10:
	.size	Ext4FileCrTime, .-Ext4FileCrTime
	.section	.text.Ext4FileCreateTime,"ax",@progbits
	.align	1
	.globl	Ext4FileCreateTime
	.type	Ext4FileCreateTime, @function
Ext4FileCreateTime:
.LFB11:
	.loc 1 443 1
	.cfi_startproc
	addi	sp,sp,-48
	.cfi_def_cfa_offset 48
	sd	ra,40(sp)
	sd	s0,32(sp)
	.cfi_offset 1, -8
	.cfi_offset 8, -16
	addi	s0,sp,48
	.cfi_def_cfa 8, 0
	sd	a0,-40(s0)
	sd	a1,-48(s0)
	.loc 1 446 9
	ld	a5,-40(s0)
	ld	a5,120(a5)
	sd	a5,-24(s0)
	.loc 1 448 14
	ld	a5,-24(s0)
	lhu	a5,128(a5)
	sext.w	a5,a5
	.loc 1 448 30
	addiw	a5,a5,128
	sext.w	a4,a5
	.loc 1 448 6
	li	a5,147
	bgtu	a4,a5,.L41
	.loc 1 449 5
	li	a1,16
	ld	a0,-48(s0)
	call	ZeroMem@plt
	.loc 1 450 5
	j	.L40
.L41:
	.loc 1 453 3
	ld	a1,-48(s0)
	ld	a0,-40(s0)
	call	Ext4FileCrTime
.L40:
	.loc 1 454 1
	ld	ra,40(sp)
	.cfi_restore 1
	ld	s0,32(sp)
	.cfi_restore 8
	.cfi_def_cfa 2, 48
	addi	sp,sp,48
	.cfi_def_cfa_offset 0
	jr	ra
	.cfi_endproc
.LFE11:
	.size	Ext4FileCreateTime, .-Ext4FileCreateTime
	.section	.text.Ext4CheckInodeChecksum,"ax",@progbits
	.align	1
	.globl	Ext4CheckInodeChecksum
	.type	Ext4CheckInodeChecksum, @function
Ext4CheckInodeChecksum:
.LFB12:
	.loc 1 470 1
	.cfi_startproc
	addi	sp,sp,-64
	.cfi_def_cfa_offset 64
	sd	ra,56(sp)
	sd	s0,48(sp)
	.cfi_offset 1, -8
	.cfi_offset 8, -16
	addi	s0,sp,64
	.cfi_def_cfa 8, 0
	sd	a0,-40(s0)
	sd	a1,-48(s0)
	mv	a5,a2
	sw	a5,-52(s0)
	.loc 1 474 19
	ld	a5,-40(s0)
	lw	a5,1076(a5)
	.loc 1 474 38
	andi	a5,a5,1024
	sext.w	a5,a5
	.loc 1 474 6
	bne	a5,zero,.L44
	.loc 1 475 12
	li	a5,1
	j	.L45
.L44:
	.loc 1 478 10
	lw	a5,-52(s0)
	mv	a2,a5
	ld	a1,-48(s0)
	ld	a0,-40(s0)
	call	Ext4CalculateInodeChecksum
	mv	a5,a0
	sw	a5,-20(s0)
	.loc 1 480 38
	ld	a5,-48(s0)
	lhu	a5,124(a5)
	.loc 1 480 12
	sw	a5,-24(s0)
	.loc 1 482 13
	ld	a5,-48(s0)
	lhu	a5,128(a5)
	sext.w	a5,a5
	.loc 1 482 29
	addiw	a5,a5,128
	sext.w	a4,a5
	.loc 1 482 6
	li	a5,131
	bleu	a4,a5,.L46
	.loc 1 483 31
	ld	a5,-48(s0)
	lhu	a5,130(a5)
	.loc 1 483 48
	sext.w	a5,a5
	slliw	a5,a5,16
	sext.w	a5,a5
	.loc 1 483 14
	lw	a4,-24(s0)
	or	a5,a4,a5
	sw	a5,-24(s0)
	j	.L47
.L46:
	.loc 1 486 10
	lw	a5,-20(s0)
	slli	a5,a5,48
	srli	a5,a5,48
	sw	a5,-20(s0)
.L47:
	.loc 1 489 15
	lw	a5,-20(s0)
	mv	a4,a5
	lw	a5,-24(s0)
	sext.w	a4,a4
	sext.w	a5,a5
	sub	a5,a4,a5
	seqz	a5,a5
	andi	a5,a5,0xff
.L45:
	.loc 1 490 1
	mv	a0,a5
	ld	ra,56(sp)
	.cfi_restore 1
	ld	s0,48(sp)
	.cfi_restore 8
	.cfi_def_cfa 2, 64
	addi	sp,sp,64
	.cfi_def_cfa_offset 0
	jr	ra
	.cfi_endproc
.LFE12:
	.size	Ext4CheckInodeChecksum, .-Ext4CheckInodeChecksum
	.section	.rodata
	.align	3
.LC0:
	.dword	-4454547087429121353
	.align	3
.LC1:
	.dword	4137408090565272301
	.align	3
.LC2:
	.dword	-1896998432287073591
	.align	3
.LC3:
	.dword	-5517609281458640695
	.align	3
.LC4:
	.dword	7429236654343298871
	.align	3
.LC5:
	.dword	3858142551364089227
	.align	3
.LC6:
	.dword	-3689348814741910323
	.align	3
.LC7:
	.dword	-6148914691236517205
	.align	3
.LC8:
	.dword	-8608480567731124087
	.text
.Letext0:
	.file 2 "/home/kapoagaeming/Downloads/spacemit-image-builder/components/edk2/MdePkg/Include/RiscV64/ProcessorBind.h"
	.file 3 "/home/kapoagaeming/Downloads/spacemit-image-builder/components/edk2/MdePkg/Include/Base.h"
	.file 4 "/home/kapoagaeming/Downloads/spacemit-image-builder/components/edk2/MdePkg/Include/Uefi/UefiBaseType.h"
	.file 5 "/home/kapoagaeming/Downloads/spacemit-image-builder/components/edk2/MdePkg/Include/Protocol/BlockIo.h"
	.file 6 "/home/kapoagaeming/Downloads/spacemit-image-builder/components/edk2/MdePkg/Include/Protocol/DiskIo.h"
	.file 7 "/home/kapoagaeming/Downloads/spacemit-image-builder/components/edk2/MdePkg/Include/Protocol/DiskIo2.h"
	.file 8 "/home/kapoagaeming/Downloads/spacemit-image-builder/components/edk2/MdePkg/Include/Protocol/SimpleFileSystem.h"
	.file 9 "/home/kapoagaeming/Downloads/spacemit-image-builder/components/edk2/MdePkg/Include/Library/OrderedCollectionLib.h"
	.file 10 "/home/kapoagaeming/Downloads/spacemit-image-builder/components/edk2-platforms/Features/Ext4Pkg/Ext4Dxe/Ext4Disk.h"
	.file 11 "/home/kapoagaeming/Downloads/spacemit-image-builder/components/edk2-platforms/Features/Ext4Pkg/Ext4Dxe/Ext4Dxe.h"
	.file 12 "/home/kapoagaeming/Downloads/spacemit-image-builder/components/edk2/MdePkg/Include/Library/MemoryAllocationLib.h"
	.file 13 "/home/kapoagaeming/Downloads/spacemit-image-builder/components/edk2/MdePkg/Include/Library/BaseMemoryLib.h"
	.file 14 "/home/kapoagaeming/Downloads/spacemit-image-builder/components/edk2/MdePkg/Include/Library/BaseLib.h"
	.section	.note.GNU-stack,"",@progbits
