	.file	"FlashFvbDxe.c"
	.option pic
	.option norelax
	.attribute arch, "rv64i2p1_m2p0_a2p1_f2p2_d2p2_c2p0_zicsr2p0_zifencei2p0_zmmul1p0_zaamo1p0_zalrsc1p0_zca1p0_zcd1p0"
	.attribute unaligned_access, 0
	.attribute stack_align, 16
	.text
.Ltext0:
	.cfi_sections	.debug_frame
	.file 0 "/home/kapoagaeming/Downloads/spacemit-image-builder/components/Build/Milk-V-Jupiter/RELEASE_GCC5/RISCV64/Silicon/Spacemit/Drivers/FlashFvbDxe/FlashFvbDxe" "/home/kapoagaeming/Downloads/spacemit-image-builder/components/edk2-platforms/Silicon/Spacemit/Drivers/FlashFvbDxe/FlashFvbDxe.c"
	.section	.bss.mFlashFvbVirtualAddrChangeEvent,"aw",@nobits
	.align	3
	.type	mFlashFvbVirtualAddrChangeEvent, @object
	.size	mFlashFvbVirtualAddrChangeEvent, 8
mFlashFvbVirtualAddrChangeEvent:
	.zero	8
	.globl	mFlashInstances
	.section	.bss.mFlashInstances,"aw",@nobits
	.align	3
	.type	mFlashInstances, @object
	.size	mFlashInstances, 8
mFlashInstances:
	.zero	8
	.globl	mFlash
	.section	.bss.mFlash,"aw",@nobits
	.align	3
	.type	mFlash, @object
	.size	mFlash, 8
mFlash:
	.zero	8
	.globl	mFlashDevices
	.section	.data.mFlashDevices,"aw"
	.align	3
	.type	mFlashDevices, @object
	.size	mFlashDevices, 48
mFlashDevices:
	.dword	3087007744
	.dword	3089760256
	.dword	786432
	.dword	65536
	.word	-1065105032
	.half	-28215
	.half	20217
	.base64	"kW7IQSt4SIE="
	.globl	mFlashInstanceTemplate
	.section	.data.rel.ro.mFlashInstanceTemplate,"aw"
	.align	3
	.type	mFlashInstanceTemplate, @object
	.size	mFlashInstanceTemplate, 256
mFlashInstanceTemplate:
	.word	1768977270
	.zero	4
	.dword	0
	.byte	0
	.zero	7
	.dword	0
	.dword	0
	.dword	0
	.dword	0
	.dword	0
	.dword	131073
	.dword	0
	.dword	0
	.dword	FlashBlockIoReadBlocks
	.dword	FlashBlockIoWriteBlocks
	.dword	FlashBlockIoFlushBlocks
	.word	0
	.byte	0
	.byte	1
	.byte	0
	.byte	0
	.byte	0
	.zero	3
	.word	65536
	.word	4
	.zero	4
	.dword	0
	.dword	0
	.word	1
	.zero	4
	.byte	0
	.zero	7
	.dword	FvbGetAttributes
	.dword	FvbSetAttributes
	.dword	FvbGetPhysicalAddress
	.dword	FvbGetBlockSize
	.dword	FvbRead
	.dword	FvbWrite
	.dword	FvbEraseBlocks
	.dword	0
	.byte	1
	.byte	4
	.string	"\024"
	.word	0
	.half	0
	.half	0
	.base64	"AAAAAAAAAAA="
	.byte	127
	.byte	-1
	.string	"\004"
	.section	.text.InitializeFvAndVariableStoreHeaders,"ax",@progbits
	.align	1
	.globl	InitializeFvAndVariableStoreHeaders
	.type	InitializeFvAndVariableStoreHeaders, @function
InitializeFvAndVariableStoreHeaders:
.LFB0:
	.file 1 "/home/kapoagaeming/Downloads/spacemit-image-builder/components/edk2-platforms/Silicon/Spacemit/Drivers/FlashFvbDxe/FlashFvbDxe.c"
	.loc 1 143 1
	.cfi_startproc
	addi	sp,sp,-80
	.cfi_def_cfa_offset 80
	sd	ra,72(sp)
	sd	s0,64(sp)
	.cfi_offset 1, -8
	.cfi_offset 8, -16
	addi	s0,sp,80
	.cfi_def_cfa 8, 0
	sd	a0,-72(s0)
	.loc 1 150 16
	ld	a5,-72(s0)
	lbu	a5,16(a5)
	.loc 1 150 6
	bne	a5,zero,.L2
	.loc 1 150 41 discriminator 1
	ld	a5,-72(s0)
	ld	a5,24(a5)
	.loc 1 150 30 discriminator 1
	beq	a5,zero,.L2
	.loc 1 151 13
	ld	a5,-72(s0)
	ld	a5,24(a5)
	.loc 1 151 5
	ld	a0,-72(s0)
	jalr	a5
.LVL0:
.L2:
	.loc 1 154 17
	li	a5,100
	sd	a5,-56(s0)
	.loc 1 155 13
	ld	a5,-56(s0)
	mv	a0,a5
	call	AllocateZeroPool@plt
	sd	a0,-24(s0)
	.loc 1 174 24
	ld	a5,-24(s0)
	sd	a5,-32(s0)
	.loc 1 175 13
	ld	a5,-32(s0)
	addi	a5,a5,16
	.loc 1 175 3
	la	a1,gEfiSystemNvDataFvGuid
	mv	a0,a5
	call	CopyGuid@plt
	.loc 1 177 54
	la	a5,_gPcd_FixedAtBuild_PcdFlashNvStorageVariableSize
	lw	a4,0(a5)
	la	a5,_gPcd_FixedAtBuild_PcdFlashNvStorageFtwWorkingSize
	lw	a5,0(a5)
	addw	a5,a4,a5
	sext.w	a4,a5
	.loc 1 178 56
	la	a5,_gPcd_FixedAtBuild_PcdFlashNvStorageFtwSpareSize
	lw	a5,0(a5)
	addw	a5,a4,a5
	sext.w	a5,a5
	slli	a4,a5,32
	srli	a4,a4,32
	.loc 1 176 34
	ld	a5,-32(s0)
	sd	a4,32(a5)
	.loc 1 180 35
	ld	a5,-32(s0)
	li	a4,1213612032
	addi	a4,a4,1631
	sw	a4,40(a5)
	.loc 1 181 36
	ld	a5,-32(s0)
	li	a4,4096
	addi	a4,a4,-458
	sw	a4,44(a5)
	.loc 1 190 38
	ld	a5,-32(s0)
	li	a4,72
	sh	a4,48(a5)
	.loc 1 191 34
	ld	a5,-32(s0)
	li	a4,2
	sb	a4,55(a5)
	.loc 1 192 64
	ld	a5,-72(s0)
	ld	a5,136(a5)
	.loc 1 192 75
	sext.w	a5,a5
	addiw	a5,a5,1
	sext.w	a4,a5
	.loc 1 192 47
	ld	a5,-32(s0)
	sw	a4,56(a5)
	.loc 1 193 61
	ld	a5,-72(s0)
	lw	a4,124(a5)
	.loc 1 193 44
	ld	a5,-32(s0)
	sw	a4,60(a5)
	.loc 1 194 47
	ld	a5,-32(s0)
	sw	zero,64(a5)
	.loc 1 195 44
	ld	a5,-32(s0)
	sw	zero,68(a5)
	.loc 1 196 109
	ld	a5,-32(s0)
	lhu	a5,48(a5)
	.loc 1 196 36
	mv	a1,a5
	ld	a0,-32(s0)
	call	CalculateCheckSum16@plt
	mv	a5,a0
	mv	a4,a5
	.loc 1 196 34 discriminator 1
	ld	a5,-32(s0)
	sh	a4,50(a5)
	.loc 1 201 95
	ld	a5,-32(s0)
	lhu	a5,48(a5)
	.loc 1 201 68
	mv	a4,a5
	.loc 1 201 51
	ld	a5,-24(s0)
	.loc 1 201 66
	add	a5,a4,a5
	.loc 1 201 23
	sd	a5,-40(s0)
	.loc 1 202 13
	ld	a5,-40(s0)
	.loc 1 202 3
	la	a1,gEfiVariableGuid
	mv	a0,a5
	call	CopyGuid@plt
	.loc 1 203 80
	la	a5,_gPcd_FixedAtBuild_PcdFlashNvStorageVariableSize
	lw	a4,0(a5)
	.loc 1 203 102
	ld	a5,-32(s0)
	lhu	a5,48(a5)
	sext.w	a5,a5
	.loc 1 203 80
	subw	a5,a4,a5
	sext.w	a4,a5
	.loc 1 203 29
	ld	a5,-40(s0)
	slli	a3,a4,32
	srli	a3,a3,32
	andi	a3,a3,255
	lbu	a2,16(a5)
	andi	a2,a2,0
	or	a3,a2,a3
	sb	a3,16(a5)
	srliw	a3,a4,8
	slli	a3,a3,32
	srli	a3,a3,32
	andi	a3,a3,255
	lbu	a2,17(a5)
	andi	a2,a2,0
	or	a3,a2,a3
	sb	a3,17(a5)
	srliw	a3,a4,16
	slli	a3,a3,32
	srli	a3,a3,32
	andi	a3,a3,255
	lbu	a2,18(a5)
	andi	a2,a2,0
	or	a3,a2,a3
	sb	a3,18(a5)
	srliw	a4,a4,24
	slli	a4,a4,32
	srli	a4,a4,32
	lbu	a3,19(a5)
	andi	a3,a3,0
	or	a4,a3,a4
	sb	a4,19(a5)
	.loc 1 204 31
	ld	a5,-40(s0)
	li	a4,90
	sb	a4,20(a5)
	.loc 1 205 30
	ld	a5,-40(s0)
	li	a4,-2
	sb	a4,21(a5)
	.loc 1 208 22
	ld	a5,-72(s0)
	addi	a5,a5,168
	.loc 1 208 12
	addi	a3,s0,-56
	ld	a4,-24(s0)
	li	a2,0
	li	a1,0
	mv	a0,a5
	call	FvbWrite
	sd	a0,-48(s0)
	.loc 1 210 3
	ld	a0,-24(s0)
	call	FreePool@plt
	.loc 1 211 10
	ld	a5,-48(s0)
	.loc 1 212 1
	mv	a0,a5
	ld	ra,72(sp)
	.cfi_restore 1
	ld	s0,64(sp)
	.cfi_restore 8
	.cfi_def_cfa 2, 80
	addi	sp,sp,80
	.cfi_def_cfa_offset 0
	jr	ra
	.cfi_endproc
.LFE0:
	.size	InitializeFvAndVariableStoreHeaders, .-InitializeFvAndVariableStoreHeaders
	.section	.text.ValidateFvHeader,"ax",@progbits
	.align	1
	.globl	ValidateFvHeader
	.type	ValidateFvHeader, @function
ValidateFvHeader:
.LFB1:
	.loc 1 227 1
	.cfi_startproc
	addi	sp,sp,-80
	.cfi_def_cfa_offset 80
	sd	ra,72(sp)
	sd	s0,64(sp)
	.cfi_offset 1, -8
	.cfi_offset 8, -16
	addi	s0,sp,80
	.cfi_def_cfa 8, 0
	sd	a0,-72(s0)
	.loc 1 234 55
	ld	a5,-72(s0)
	ld	a5,40(a5)
	.loc 1 234 15
	sd	a5,-24(s0)
	.loc 1 236 63
	la	a5,_gPcd_FixedAtBuild_PcdFlashNvStorageVariableSize
	lw	a4,0(a5)
	la	a5,_gPcd_FixedAtBuild_PcdFlashNvStorageFtwWorkingSize
	lw	a5,0(a5)
	addw	a5,a4,a5
	sext.w	a4,a5
	.loc 1 236 116
	la	a5,_gPcd_FixedAtBuild_PcdFlashNvStorageFtwSpareSize
	lw	a5,0(a5)
	addw	a5,a4,a5
	sext.w	a5,a5
	.loc 1 236 12
	slli	a5,a5,32
	srli	a5,a5,32
	sd	a5,-32(s0)
	.loc 1 244 19
	ld	a5,-24(s0)
	lbu	a5,55(a5)
	.loc 1 244 6
	mv	a4,a5
	li	a5,2
	bne	a4,a5,.L5
	.loc 1 245 22
	ld	a5,-24(s0)
	lw	a4,40(a5)
	.loc 1 245 7
	li	a5,1213612032
	addi	a5,a5,1631
	bne	a4,a5,.L5
	.loc 1 246 22
	ld	a5,-24(s0)
	ld	a5,32(a5)
	.loc 1 246 7
	ld	a4,-32(s0)
	beq	a4,a5,.L6
.L5:
	.loc 1 250 12
	li	a5,-1
	slli	a5,a5,63
	addi	a5,a5,14
	j	.L7
.L6:
	.loc 1 254 21
	ld	a5,-24(s0)
	addi	a5,a5,16
	.loc 1 254 8
	la	a1,gEfiSystemNvDataFvGuid
	mv	a0,a5
	call	CompareGuid@plt
	mv	a5,a0
	.loc 1 254 6 discriminator 1
	bne	a5,zero,.L8
	.loc 1 256 12
	li	a5,-1
	slli	a5,a5,63
	addi	a5,a5,14
	j	.L7
.L8:
	.loc 1 260 64
	ld	a5,-24(s0)
	lhu	a5,48(a5)
	.loc 1 260 14
	mv	a1,a5
	ld	a0,-24(s0)
	call	CalculateSum16@plt
	mv	a5,a0
	sh	a5,-34(s0)
	.loc 1 261 6
	lhu	a5,-34(s0)
	sext.w	a5,a5
	beq	a5,zero,.L9
	.loc 1 263 12
	li	a5,-1
	slli	a5,a5,63
	addi	a5,a5,14
	j	.L7
.L9:
	.loc 1 266 90
	ld	a5,-24(s0)
	lhu	a5,48(a5)
	.loc 1 266 72
	mv	a4,a5
	.loc 1 266 51
	ld	a5,-24(s0)
	.loc 1 266 70
	add	a5,a4,a5
	.loc 1 266 23
	sd	a5,-48(s0)
	.loc 1 269 21
	ld	a5,-48(s0)
	.loc 1 269 8
	la	a1,gEfiVariableGuid
	mv	a0,a5
	call	CompareGuid@plt
	mv	a5,a0
	.loc 1 269 6 discriminator 1
	bne	a5,zero,.L10
	.loc 1 270 24
	ld	a5,-48(s0)
	.loc 1 270 11
	la	a1,gEfiAuthenticatedVariableGuid
	mv	a0,a5
	call	CompareGuid@plt
	mv	a5,a0
	.loc 1 270 7 discriminator 1
	bne	a5,zero,.L10
	.loc 1 273 12
	li	a5,-1
	slli	a5,a5,63
	addi	a5,a5,14
	j	.L7
.L10:
	.loc 1 276 74
	la	a5,_gPcd_FixedAtBuild_PcdFlashNvStorageVariableSize
	lw	a4,0(a5)
	.loc 1 276 87
	ld	a5,-24(s0)
	lhu	a5,48(a5)
	sext.w	a5,a5
	.loc 1 276 74
	subw	a5,a4,a5
	sext.w	a5,a5
	.loc 1 276 23
	slli	a5,a5,32
	srli	a5,a5,32
	sd	a5,-56(s0)
	.loc 1 277 26
	ld	a5,-48(s0)
	lbu	a4,16(a5)
	lbu	a3,17(a5)
	slli	a3,a3,8
	or	a4,a3,a4
	lbu	a3,18(a5)
	slli	a3,a3,16
	or	a4,a3,a4
	lbu	a5,19(a5)
	slli	a5,a5,24
	or	a5,a5,a4
	sext.w	a5,a5
	slli	a5,a5,32
	srli	a5,a5,32
	.loc 1 277 6
	ld	a4,-56(s0)
	beq	a4,a5,.L11
	.loc 1 279 12
	li	a5,-1
	slli	a5,a5,63
	addi	a5,a5,14
	j	.L7
.L11:
	.loc 1 282 10
	li	a5,0
.L7:
	.loc 1 283 1
	mv	a0,a5
	ld	ra,72(sp)
	.cfi_restore 1
	ld	s0,64(sp)
	.cfi_restore 8
	.cfi_def_cfa 2, 80
	addi	sp,sp,80
	.cfi_def_cfa_offset 0
	jr	ra
	.cfi_endproc
.LFE1:
	.size	ValidateFvHeader, .-ValidateFvHeader
	.section	.text.FvbGetAttributes,"ax",@progbits
	.align	1
	.globl	FvbGetAttributes
	.type	FvbGetAttributes, @function
FvbGetAttributes:
.LFB2:
	.loc 1 304 1
	.cfi_startproc
	addi	sp,sp,-48
	.cfi_def_cfa_offset 48
	sd	ra,40(sp)
	sd	s0,32(sp)
	.cfi_offset 1, -8
	.cfi_offset 8, -16
	addi	s0,sp,48
	.cfi_def_cfa 8, 0
	sd	a0,-40(s0)
	sd	a1,-48(s0)
	.loc 1 308 16
	ld	a5,-40(s0)
	addi	a5,a5,-168
	.loc 1 308 129
	lw	a4,0(a5)
	.loc 1 308 214
	li	a5,1768976384
	addi	a5,a5,886
	bne	a4,a5,.L13
	.loc 1 308 12 discriminator 1
	ld	a5,-40(s0)
	addi	a5,a5,-168
	sd	a5,-32(s0)
	j	.L14
.L13:
	.loc 1 308 12 is_stmt 0 discriminator 2
	sd	zero,-32(s0)
.L14:
	.loc 1 310 22 is_stmt 1
	li	a5,4096
	addi	a5,a5,-506
	sw	a5,-20(s0)
	.loc 1 321 22
	ld	a5,-32(s0)
	lbu	a5,119(a5)
	.loc 1 321 6
	mv	a4,a5
	li	a5,1
	beq	a4,a5,.L15
	.loc 1 322 24
	lw	a5,-20(s0)
	ori	a5,a5,48
	sw	a5,-20(s0)
.L15:
	.loc 1 327 15
	ld	a5,-48(s0)
	lw	a4,-20(s0)
	sw	a4,0(a5)
	.loc 1 329 10
	li	a5,0
	.loc 1 330 1
	mv	a0,a5
	ld	ra,40(sp)
	.cfi_restore 1
	ld	s0,32(sp)
	.cfi_restore 8
	.cfi_def_cfa 2, 48
	addi	sp,sp,48
	.cfi_def_cfa_offset 0
	jr	ra
	.cfi_endproc
.LFE2:
	.size	FvbGetAttributes, .-FvbGetAttributes
	.section	.text.FvbSetAttributes,"ax",@progbits
	.align	1
	.globl	FvbSetAttributes
	.type	FvbSetAttributes, @function
FvbSetAttributes:
.LFB3:
	.loc 1 357 1
	.cfi_startproc
	addi	sp,sp,-32
	.cfi_def_cfa_offset 32
	sd	ra,24(sp)
	sd	s0,16(sp)
	.cfi_offset 1, -8
	.cfi_offset 8, -16
	addi	s0,sp,32
	.cfi_def_cfa 8, 0
	sd	a0,-24(s0)
	sd	a1,-32(s0)
	.loc 1 359 10
	li	a5,-1
	slli	a5,a5,63
	addi	a5,a5,3
	.loc 1 360 1
	mv	a0,a5
	ld	ra,24(sp)
	.cfi_restore 1
	ld	s0,16(sp)
	.cfi_restore 8
	.cfi_def_cfa 2, 32
	addi	sp,sp,32
	.cfi_def_cfa_offset 0
	jr	ra
	.cfi_endproc
.LFE3:
	.size	FvbSetAttributes, .-FvbSetAttributes
	.section	.text.FvbGetPhysicalAddress,"ax",@progbits
	.align	1
	.globl	FvbGetPhysicalAddress
	.type	FvbGetPhysicalAddress, @function
FvbGetPhysicalAddress:
.LFB4:
	.loc 1 385 1
	.cfi_startproc
	addi	sp,sp,-48
	.cfi_def_cfa_offset 48
	sd	ra,40(sp)
	sd	s0,32(sp)
	.cfi_offset 1, -8
	.cfi_offset 8, -16
	addi	s0,sp,48
	.cfi_def_cfa 8, 0
	sd	a0,-40(s0)
	sd	a1,-48(s0)
	.loc 1 388 6
	ld	a5,-48(s0)
	bne	a5,zero,.L20
	.loc 1 389 12
	li	a5,-1
	slli	a5,a5,63
	addi	a5,a5,3
	j	.L21
.L20:
	.loc 1 392 16
	ld	a5,-40(s0)
	addi	a5,a5,-168
	.loc 1 392 129
	lw	a4,0(a5)
	.loc 1 392 214
	li	a5,1768976384
	addi	a5,a5,886
	bne	a4,a5,.L22
	.loc 1 392 12 discriminator 1
	ld	a5,-40(s0)
	addi	a5,a5,-168
	sd	a5,-24(s0)
	j	.L23
.L22:
	.loc 1 392 12 is_stmt 0 discriminator 2
	sd	zero,-24(s0)
.L23:
	.loc 1 394 22 is_stmt 1
	ld	a5,-24(s0)
	ld	a4,40(a5)
	.loc 1 394 12
	ld	a5,-48(s0)
	sd	a4,0(a5)
	.loc 1 395 10
	li	a5,0
.L21:
	.loc 1 396 1
	mv	a0,a5
	ld	ra,40(sp)
	.cfi_restore 1
	ld	s0,32(sp)
	.cfi_restore 8
	.cfi_def_cfa 2, 48
	addi	sp,sp,48
	.cfi_def_cfa_offset 0
	jr	ra
	.cfi_endproc
.LFE4:
	.size	FvbGetPhysicalAddress, .-FvbGetPhysicalAddress
	.section	.text.FvbGetBlockSize,"ax",@progbits
	.align	1
	.globl	FvbGetBlockSize
	.type	FvbGetBlockSize, @function
FvbGetBlockSize:
.LFB5:
	.loc 1 432 1
	.cfi_startproc
	addi	sp,sp,-64
	.cfi_def_cfa_offset 64
	sd	ra,56(sp)
	sd	s0,48(sp)
	.cfi_offset 1, -8
	.cfi_offset 8, -16
	addi	s0,sp,64
	.cfi_def_cfa 8, 0
	sd	a0,-40(s0)
	sd	a1,-48(s0)
	sd	a2,-56(s0)
	sd	a3,-64(s0)
	.loc 1 436 16
	ld	a5,-40(s0)
	addi	a5,a5,-168
	.loc 1 436 129
	lw	a4,0(a5)
	.loc 1 436 214
	li	a5,1768976384
	addi	a5,a5,886
	bne	a4,a5,.L25
	.loc 1 436 12 discriminator 1
	ld	a5,-40(s0)
	addi	a5,a5,-168
	sd	a5,-32(s0)
	j	.L26
.L25:
	.loc 1 436 12 is_stmt 0 discriminator 2
	sd	zero,-32(s0)
.L26:
	.loc 1 438 28 is_stmt 1
	ld	a5,-32(s0)
	ld	a5,136(a5)
	.loc 1 438 6
	ld	a4,-48(s0)
	bleu	a4,a5,.L27
	.loc 1 439 12
	li	a5,-1
	slli	a5,a5,63
	addi	a5,a5,2
	sd	a5,-24(s0)
	j	.L28
.L27:
	.loc 1 442 40
	ld	a5,-32(s0)
	lw	a5,124(a5)
	.loc 1 442 18
	slli	a4,a5,32
	srli	a4,a4,32
	.loc 1 442 16
	ld	a5,-56(s0)
	sd	a4,0(a5)
	.loc 1 443 46
	ld	a5,-32(s0)
	ld	a4,136(a5)
	.loc 1 443 57
	ld	a5,-48(s0)
	sub	a5,a4,a5
	.loc 1 443 63
	addi	a4,a5,1
	.loc 1 443 21
	ld	a5,-64(s0)
	sd	a4,0(a5)
	.loc 1 445 12
	sd	zero,-24(s0)
.L28:
	.loc 1 448 10
	ld	a5,-24(s0)
	.loc 1 449 1
	mv	a0,a5
	ld	ra,56(sp)
	.cfi_restore 1
	ld	s0,48(sp)
	.cfi_restore 8
	.cfi_def_cfa 2, 64
	addi	sp,sp,64
	.cfi_def_cfa_offset 0
	jr	ra
	.cfi_endproc
.LFE5:
	.size	FvbGetBlockSize, .-FvbGetBlockSize
	.section	.text.FvbReset,"ax",@progbits
	.align	1
	.type	FvbReset, @function
FvbReset:
.LFB6:
	.loc 1 458 1
	.cfi_startproc
	addi	sp,sp,-32
	.cfi_def_cfa_offset 32
	sd	ra,24(sp)
	sd	s0,16(sp)
	.cfi_offset 1, -8
	.cfi_offset 8, -16
	addi	s0,sp,32
	.cfi_def_cfa 8, 0
	sd	a0,-24(s0)
	mv	a5,a1
	sb	a5,-25(s0)
	.loc 1 459 10
	li	a5,0
	.loc 1 460 1
	mv	a0,a5
	ld	ra,24(sp)
	.cfi_restore 1
	ld	s0,16(sp)
	.cfi_restore 8
	.cfi_def_cfa 2, 32
	addi	sp,sp,32
	.cfi_def_cfa_offset 0
	jr	ra
	.cfi_endproc
.LFE6:
	.size	FvbReset, .-FvbReset
	.section	.text.FvbRead,"ax",@progbits
	.align	1
	.globl	FvbRead
	.type	FvbRead, @function
FvbRead:
.LFB7:
	.loc 1 512 1
	.cfi_startproc
	addi	sp,sp,-112
	.cfi_def_cfa_offset 112
	sd	ra,104(sp)
	sd	s0,96(sp)
	.cfi_offset 1, -8
	.cfi_offset 8, -16
	addi	s0,sp,112
	.cfi_def_cfa 8, 0
	sd	a0,-72(s0)
	sd	a1,-80(s0)
	sd	a2,-88(s0)
	sd	a3,-96(s0)
	sd	a4,-104(s0)
	.loc 1 520 16
	ld	a5,-72(s0)
	addi	a5,a5,-168
	.loc 1 520 129
	lw	a4,0(a5)
	.loc 1 520 214
	li	a5,1768976384
	addi	a5,a5,886
	bne	a4,a5,.L33
	.loc 1 520 12 discriminator 1
	ld	a5,-72(s0)
	addi	a5,a5,-168
	sd	a5,-24(s0)
	j	.L34
.L33:
	.loc 1 520 12 is_stmt 0 discriminator 2
	sd	zero,-24(s0)
.L34:
	.loc 1 522 16 is_stmt 1
	ld	a5,-24(s0)
	lbu	a5,16(a5)
	.loc 1 522 6
	bne	a5,zero,.L35
	.loc 1 522 41 discriminator 1
	ld	a5,-24(s0)
	ld	a5,24(a5)
	.loc 1 522 30 discriminator 1
	beq	a5,zero,.L35
	.loc 1 523 9
	call	EfiAtRuntime@plt
	mv	a5,a0
	.loc 1 523 8 discriminator 1
	beq	a5,zero,.L36
	.loc 1 525 14
	li	a5,-1
	slli	a5,a5,63
	addi	a5,a5,3
	j	.L37
.L36:
	.loc 1 528 13
	ld	a5,-24(s0)
	ld	a5,24(a5)
	.loc 1 528 5
	ld	a0,-24(s0)
	jalr	a5
.LVL1:
.L35:
	.loc 1 531 10
	sd	zero,-32(s0)
	.loc 1 534 30
	ld	a5,-24(s0)
	lw	a5,124(a5)
	.loc 1 534 13
	slli	a5,a5,32
	srli	a5,a5,32
	sd	a5,-40(s0)
	.loc 1 538 6
	ld	a4,-88(s0)
	ld	a5,-40(s0)
	bgeu	a4,a5,.L38
	.loc 1 539 8
	ld	a5,-96(s0)
	ld	a5,0(a5)
	.loc 1 538 29 discriminator 1
	ld	a4,-40(s0)
	bltu	a4,a5,.L38
	.loc 1 540 18
	ld	a5,-96(s0)
	ld	a4,0(a5)
	.loc 1 540 16
	ld	a5,-88(s0)
	add	a5,a4,a5
	.loc 1 539 31
	ld	a4,-40(s0)
	bgeu	a4,a5,.L39
.L38:
	.loc 1 543 12
	li	a5,-1
	slli	a5,a5,63
	addi	a5,a5,4
	j	.L37
.L39:
	.loc 1 547 7
	ld	a5,-96(s0)
	ld	a5,0(a5)
	.loc 1 547 6
	bne	a5,zero,.L40
	.loc 1 548 12
	li	a5,-1
	slli	a5,a5,63
	addi	a5,a5,4
	j	.L37
.L40:
	.loc 1 552 27
	ld	a5,-24(s0)
	ld	a4,40(a5)
	.loc 1 552 49
	ld	a3,-80(s0)
	ld	a5,-40(s0)
	mul	a5,a3,a5
	.loc 1 552 16
	add	a5,a4,a5
	sd	a5,-48(s0)
	.loc 1 557 40
	ld	a5,-24(s0)
	ld	a5,32(a5)
	.loc 1 557 30
	ld	a4,-48(s0)
	sub	a5,a4,a5
	.loc 1 557 15
	ld	a4,-88(s0)
	add	a5,a4,a5
	sd	a5,-56(s0)
	.loc 1 559 18
	lla	a5,mFlash
	ld	a5,0(a5)
	ld	a5,16(a5)
	.loc 1 559 12
	lla	a4,mFlash
	ld	a0,0(a4)
	ld	a4,-56(s0)
	sext.w	a1,a4
	ld	a4,-96(s0)
	ld	a4,0(a4)
	ld	a3,-104(s0)
	mv	a2,a4
	jalr	a5
.LVL2:
	sd	a0,-32(s0)
	.loc 1 560 6
	ld	a5,-32(s0)
	beq	a5,zero,.L41
	.loc 1 562 12
	li	a5,-1
	slli	a5,a5,63
	addi	a5,a5,7
	sd	a5,-32(s0)
	.loc 1 563 12
	ld	a5,-32(s0)
	j	.L37
.L41:
	.loc 1 566 10
	ld	a5,-32(s0)
.L37:
	.loc 1 567 1
	mv	a0,a5
	ld	ra,104(sp)
	.cfi_restore 1
	ld	s0,96(sp)
	.cfi_restore 8
	.cfi_def_cfa 2, 112
	addi	sp,sp,112
	.cfi_def_cfa_offset 0
	jr	ra
	.cfi_endproc
.LFE7:
	.size	FvbRead, .-FvbRead
	.section	.text.FvbWrite,"ax",@progbits
	.align	1
	.globl	FvbWrite
	.type	FvbWrite, @function
FvbWrite:
.LFB8:
	.loc 1 632 1
	.cfi_startproc
	addi	sp,sp,-112
	.cfi_def_cfa_offset 112
	sd	ra,104(sp)
	sd	s0,96(sp)
	.cfi_offset 1, -8
	.cfi_offset 8, -16
	addi	s0,sp,112
	.cfi_def_cfa 8, 0
	sd	a0,-72(s0)
	sd	a1,-80(s0)
	sd	a2,-88(s0)
	sd	a3,-96(s0)
	sd	a4,-104(s0)
	.loc 1 639 16
	ld	a5,-72(s0)
	addi	a5,a5,-168
	.loc 1 639 129
	lw	a4,0(a5)
	.loc 1 639 214
	li	a5,1768976384
	addi	a5,a5,886
	bne	a4,a5,.L43
	.loc 1 639 12 discriminator 1
	ld	a5,-72(s0)
	addi	a5,a5,-168
	sd	a5,-24(s0)
	j	.L44
.L43:
	.loc 1 639 12 is_stmt 0 discriminator 2
	sd	zero,-24(s0)
.L44:
	.loc 1 640 6 is_stmt 1
	ld	a5,-24(s0)
	bne	a5,zero,.L45
	.loc 1 641 12
	li	a5,-1
	slli	a5,a5,63
	addi	a5,a5,2
	j	.L46
.L45:
	.loc 1 644 16
	ld	a5,-24(s0)
	lbu	a5,16(a5)
	.loc 1 644 6
	bne	a5,zero,.L47
	.loc 1 644 41 discriminator 1
	ld	a5,-24(s0)
	ld	a5,24(a5)
	.loc 1 644 30 discriminator 1
	beq	a5,zero,.L47
	.loc 1 645 9
	call	EfiAtRuntime@plt
	mv	a5,a0
	.loc 1 645 8 discriminator 1
	beq	a5,zero,.L48
	.loc 1 647 14
	li	a5,-1
	slli	a5,a5,63
	addi	a5,a5,3
	j	.L46
.L48:
	.loc 1 650 13
	ld	a5,-24(s0)
	ld	a5,24(a5)
	.loc 1 650 5
	ld	a0,-24(s0)
	jalr	a5
.LVL3:
.L47:
	.loc 1 653 10
	sd	zero,-32(s0)
	.loc 1 656 22
	ld	a5,-24(s0)
	lbu	a5,119(a5)
	.loc 1 656 6
	mv	a4,a5
	li	a5,1
	bne	a4,a5,.L49
	.loc 1 659 12
	li	a5,-1
	slli	a5,a5,63
	addi	a5,a5,15
	j	.L46
.L49:
	.loc 1 663 30
	ld	a5,-24(s0)
	lw	a5,124(a5)
	.loc 1 663 13
	slli	a5,a5,32
	srli	a5,a5,32
	sd	a5,-40(s0)
	.loc 1 667 6
	ld	a4,-88(s0)
	ld	a5,-40(s0)
	bgeu	a4,a5,.L50
	.loc 1 668 8
	ld	a5,-96(s0)
	ld	a5,0(a5)
	.loc 1 667 29 discriminator 1
	ld	a4,-40(s0)
	bltu	a4,a5,.L50
	.loc 1 669 18
	ld	a5,-96(s0)
	ld	a4,0(a5)
	.loc 1 669 16
	ld	a5,-88(s0)
	add	a5,a4,a5
	.loc 1 668 31
	ld	a4,-40(s0)
	bgeu	a4,a5,.L51
.L50:
	.loc 1 672 12
	li	a5,-1
	slli	a5,a5,63
	addi	a5,a5,4
	j	.L46
.L51:
	.loc 1 676 7
	ld	a5,-96(s0)
	ld	a5,0(a5)
	.loc 1 676 6
	bne	a5,zero,.L52
	.loc 1 678 12
	li	a5,-1
	slli	a5,a5,63
	addi	a5,a5,4
	j	.L46
.L52:
	.loc 1 681 27
	ld	a5,-24(s0)
	ld	a4,40(a5)
	.loc 1 681 49
	ld	a3,-80(s0)
	ld	a5,-40(s0)
	mul	a5,a3,a5
	.loc 1 681 16
	add	a5,a4,a5
	sd	a5,-48(s0)
	.loc 1 682 41
	ld	a5,-24(s0)
	ld	a5,32(a5)
	.loc 1 682 31
	ld	a4,-48(s0)
	sub	a5,a4,a5
	.loc 1 682 16
	ld	a4,-88(s0)
	add	a5,a4,a5
	sd	a5,-56(s0)
	.loc 1 684 18
	lla	a5,mFlash
	ld	a5,0(a5)
	ld	a5,24(a5)
	.loc 1 684 12
	lla	a4,mFlash
	ld	a0,0(a4)
	ld	a4,-56(s0)
	sext.w	a1,a4
	ld	a4,-96(s0)
	ld	a4,0(a4)
	ld	a3,-104(s0)
	mv	a2,a4
	jalr	a5
.LVL4:
	sd	a0,-32(s0)
	.loc 1 685 6
	ld	a5,-32(s0)
	beq	a5,zero,.L53
	.loc 1 687 12
	ld	a5,-32(s0)
	j	.L46
.L53:
	.loc 1 690 10
	ld	a5,-32(s0)
.L46:
	.loc 1 691 1
	mv	a0,a5
	ld	ra,104(sp)
	.cfi_restore 1
	ld	s0,96(sp)
	.cfi_restore 8
	.cfi_def_cfa 2, 112
	addi	sp,sp,112
	.cfi_def_cfa_offset 0
	jr	ra
	.cfi_endproc
.LFE8:
	.size	FvbWrite, .-FvbWrite
	.section	.text.FvbEraseBlocks,"ax",@progbits
	.align	1
	.globl	FvbEraseBlocks
	.type	FvbEraseBlocks, @function
FvbEraseBlocks:
.LFB9:
	.loc 1 742 1
	.cfi_startproc
	addi	sp,sp,-144
	.cfi_def_cfa_offset 144
	sd	ra,72(sp)
	sd	s0,64(sp)
	.cfi_offset 1, -72
	.cfi_offset 8, -80
	addi	s0,sp,80
	.cfi_def_cfa 8, 64
	sd	a0,-72(s0)
	sd	a1,8(s0)
	sd	a2,16(s0)
	sd	a3,24(s0)
	sd	a4,32(s0)
	sd	a5,40(s0)
	sd	a6,48(s0)
	sd	a7,56(s0)
	.loc 1 750 16
	ld	a5,-72(s0)
	addi	a5,a5,-168
	.loc 1 750 129
	lw	a4,0(a5)
	.loc 1 750 214
	li	a5,1768976384
	addi	a5,a5,886
	bne	a4,a5,.L55
	.loc 1 750 12 discriminator 1
	ld	a5,-72(s0)
	addi	a5,a5,-168
	sd	a5,-48(s0)
	j	.L56
.L55:
	.loc 1 750 12 is_stmt 0 discriminator 2
	sd	zero,-48(s0)
.L56:
	.loc 1 752 10 is_stmt 1
	sd	zero,-24(s0)
	.loc 1 755 22
	ld	a5,-48(s0)
	lbu	a5,119(a5)
	.loc 1 755 6
	mv	a4,a5
	li	a5,1
	bne	a4,a5,.L57
	.loc 1 757 12
	li	a5,-1
	slli	a5,a5,63
	addi	a5,a5,15
	j	.L71
.L57:
	.loc 1 761 3
	addi	a5,s0,64
	sd	a5,-80(s0)
	ld	a5,-80(s0)
	addi	a5,a5,-56
	sd	a5,-64(s0)
.L64:
	.loc 1 764 17
	ld	a5,-64(s0)
	addi	a4,a5,8
	sd	a4,-64(s0)
	ld	a5,0(a5)
	sd	a5,-32(s0)
	.loc 1 767 8
	ld	a4,-32(s0)
	li	a5,-1
	beq	a4,a5,.L73
	.loc 1 773 87
	ld	a5,-64(s0)
	addi	a4,a5,8
	sd	a4,-64(s0)
	ld	a5,0(a5)
	.loc 1 773 95 discriminator 1
	sext.w	a5,a5
	.loc 1 773 14 discriminator 1
	slli	a5,a5,32
	srli	a5,a5,32
	sd	a5,-40(s0)
	.loc 1 776 8
	ld	a5,-40(s0)
	beq	a5,zero,.L61
	.loc 1 776 38 discriminator 1
	ld	a5,-48(s0)
	ld	a4,56(a5)
	.loc 1 776 49 discriminator 1
	ld	a5,-32(s0)
	add	a4,a4,a5
	.loc 1 776 63 discriminator 1
	ld	a5,-40(s0)
	add	a5,a4,a5
	.loc 1 776 74 discriminator 1
	addi	a4,a5,-1
	.loc 1 776 96 discriminator 1
	ld	a5,-48(s0)
	ld	a5,136(a5)
	.loc 1 776 25 discriminator 1
	bleu	a4,a5,.L64
.L61:
	.loc 1 778 14
	li	a5,-1
	slli	a5,a5,63
	addi	a5,a5,2
	sd	a5,-24(s0)
	.loc 1 779 7
	j	.L63
.L73:
	.loc 1 769 7
	nop
	.loc 1 788 3
	addi	a5,s0,64
	sd	a5,-80(s0)
	ld	a5,-80(s0)
	addi	a5,a5,-56
	sd	a5,-64(s0)
.L70:
	.loc 1 791 17
	ld	a5,-64(s0)
	addi	a4,a5,8
	sd	a4,-64(s0)
	ld	a5,0(a5)
	sd	a5,-32(s0)
	.loc 1 794 8
	ld	a4,-32(s0)
	li	a5,-1
	beq	a4,a5,.L74
	.loc 1 800 87
	ld	a5,-64(s0)
	addi	a4,a5,8
	sd	a4,-64(s0)
	ld	a5,0(a5)
	.loc 1 800 95 discriminator 1
	sext.w	a5,a5
	.loc 1 800 14 discriminator 1
	slli	a5,a5,32
	srli	a5,a5,32
	sd	a5,-40(s0)
	.loc 1 803 11
	j	.L67
.L69:
	.loc 1 805 31
	ld	a5,-48(s0)
	ld	a4,40(a5)
	.loc 1 805 70
	ld	a5,-48(s0)
	ld	a3,56(a5)
	.loc 1 805 81
	ld	a5,-32(s0)
	add	a3,a3,a5
	.loc 1 805 111
	ld	a5,-48(s0)
	lw	a5,124(a5)
	slli	a5,a5,32
	srli	a5,a5,32
	.loc 1 805 95
	mul	a5,a3,a5
	.loc 1 805 20
	add	a5,a4,a5
	sd	a5,-56(s0)
	.loc 1 813 16
	ld	a1,-56(s0)
	ld	a0,-48(s0)
	call	FlashUnlockAndEraseSingleBlock
	sd	a0,-24(s0)
	.loc 1 814 38
	ld	a5,-24(s0)
	.loc 1 814 10
	bge	a5,zero,.L68
	.loc 1 816 16
	li	a5,-1
	slli	a5,a5,63
	addi	a5,a5,7
	sd	a5,-24(s0)
	.loc 1 817 9
	j	.L63
.L68:
	.loc 1 821 18
	ld	a5,-32(s0)
	addi	a5,a5,1
	sd	a5,-32(s0)
	.loc 1 822 15
	ld	a5,-40(s0)
	addi	a5,a5,-1
	sd	a5,-40(s0)
.L67:
	.loc 1 803 21
	ld	a5,-40(s0)
	bne	a5,zero,.L69
	.loc 1 791 17
	j	.L70
.L74:
	.loc 1 796 7
	nop
.L63:
	.loc 1 829 10
	ld	a5,-24(s0)
.L71:
	.loc 1 830 1
	mv	a0,a5
	ld	ra,72(sp)
	.cfi_restore 1
	ld	s0,64(sp)
	.cfi_restore 8
	.cfi_def_cfa 2, 144
	addi	sp,sp,144
	.cfi_def_cfa_offset 0
	jr	ra
	.cfi_endproc
.LFE9:
	.size	FvbEraseBlocks, .-FvbEraseBlocks
	.section	.text.FvbInitialize,"ax",@progbits
	.align	1
	.globl	FvbInitialize
	.type	FvbInitialize, @function
FvbInitialize:
.LFB10:
	.loc 1 837 1
	.cfi_startproc
	addi	sp,sp,-64
	.cfi_def_cfa_offset 64
	sd	ra,56(sp)
	sd	s0,48(sp)
	.cfi_offset 1, -8
	.cfi_offset 8, -16
	addi	s0,sp,64
	.cfi_def_cfa 8, 0
	sd	a0,-56(s0)
	.loc 1 842 25
	ld	a5,-56(s0)
	li	a4,1
	sb	a4,16(a5)
	.loc 1 844 36
	ld	a5,-56(s0)
	ld	a4,40(a5)
	.loc 1 844 66
	ld	a5,-56(s0)
	ld	a5,32(a5)
	.loc 1 844 56
	sub	a4,a4,a5
	.loc 1 844 97
	ld	a5,-56(s0)
	ld	a5,48(a5)
	.loc 1 844 25
	add	a5,a4,a5
	sd	a5,-32(s0)
	.loc 1 845 49
	ld	a5,-56(s0)
	ld	a5,32(a5)
	.loc 1 845 12
	ld	a1,-32(s0)
	mv	a0,a5
	call	MapRegToGcdRunTimeMmioSpace@plt
	sd	a0,-24(s0)
	.loc 1 846 34
	ld	a5,-24(s0)
	.loc 1 846 6
	bge	a5,zero,.L76
	.loc 1 847 12
	ld	a5,-24(s0)
	j	.L77
.L76:
	.loc 1 851 76
	la	a5,_gPcd_FixedAtBuild_PcdFlashNvStorageVariableBase64
	ld	a4,0(a5)
	.loc 1 851 86
	ld	a5,-56(s0)
	ld	a5,40(a5)
	.loc 1 851 76
	sub	a4,a4,a5
	.loc 1 851 124
	ld	a5,-56(s0)
	lw	a5,124(a5)
	slli	a5,a5,32
	srli	a5,a5,32
	.loc 1 851 107
	divu	a4,a4,a5
	.loc 1 851 22
	ld	a5,-56(s0)
	sd	a4,56(a5)
	.loc 1 854 12
	ld	a0,-56(s0)
	call	ValidateFvHeader
	sd	a0,-24(s0)
	.loc 1 855 34
	ld	a5,-24(s0)
	.loc 1 855 6
	bge	a5,zero,.L78
	.loc 1 858 67
	la	a5,_gPcd_FixedAtBuild_PcdFlashNvStorageVariableSize
	lw	a4,0(a5)
	la	a5,_gPcd_FixedAtBuild_PcdFlashNvStorageFtwWorkingSize
	lw	a5,0(a5)
	addw	a5,a4,a5
	sext.w	a4,a5
	.loc 1 858 122
	la	a5,_gPcd_FixedAtBuild_PcdFlashNvStorageFtwSpareSize
	lw	a5,0(a5)
	.loc 1 858 120
	addw	a5,a4,a5
	sext.w	a4,a5
	.loc 1 858 197
	ld	a5,-56(s0)
	lw	a5,124(a5)
	.loc 1 858 15
	divuw	a5,a4,a5
	sw	a5,-36(s0)
	.loc 1 859 30
	ld	a5,-56(s0)
	addi	a5,a5,168
	.loc 1 859 14
	lw	a4,-36(s0)
	li	a3,-1
	mv	a2,a4
	li	a1,0
	mv	a0,a5
	call	FvbEraseBlocks
	sd	a0,-24(s0)
	.loc 1 860 36
	ld	a5,-24(s0)
	.loc 1 860 8
	bge	a5,zero,.L79
	.loc 1 861 14
	ld	a5,-24(s0)
	j	.L77
.L79:
	.loc 1 865 14
	ld	a0,-56(s0)
	call	InitializeFvAndVariableStoreHeaders
	sd	a0,-24(s0)
	.loc 1 866 36
	ld	a5,-24(s0)
	.loc 1 866 8
	bge	a5,zero,.L78
	.loc 1 867 14
	ld	a5,-24(s0)
	j	.L77
.L78:
	.loc 1 871 10
	ld	a5,-24(s0)
.L77:
	.loc 1 872 1
	mv	a0,a5
	ld	ra,56(sp)
	.cfi_restore 1
	ld	s0,48(sp)
	.cfi_restore 8
	.cfi_def_cfa 2, 64
	addi	sp,sp,64
	.cfi_def_cfa_offset 0
	jr	ra
	.cfi_endproc
.LFE10:
	.size	FvbInitialize, .-FvbInitialize
	.section	.text.FlashPlatformGetDevices,"ax",@progbits
	.align	1
	.globl	FlashPlatformGetDevices
	.type	FlashPlatformGetDevices, @function
FlashPlatformGetDevices:
.LFB11:
	.loc 1 879 1
	.cfi_startproc
	addi	sp,sp,-32
	.cfi_def_cfa_offset 32
	sd	ra,24(sp)
	sd	s0,16(sp)
	.cfi_offset 1, -8
	.cfi_offset 8, -16
	addi	s0,sp,32
	.cfi_def_cfa 8, 0
	sd	a0,-24(s0)
	sd	a1,-32(s0)
	.loc 1 880 6
	ld	a5,-24(s0)
	beq	a5,zero,.L81
	.loc 1 880 38 discriminator 1
	ld	a5,-32(s0)
	bne	a5,zero,.L82
.L81:
	.loc 1 881 12
	li	a5,-1
	slli	a5,a5,63
	addi	a5,a5,2
	j	.L83
.L82:
	.loc 1 884 17
	ld	a5,-24(s0)
	lla	a4,mFlashDevices
	sd	a4,0(a5)
	.loc 1 885 10
	ld	a5,-32(s0)
	li	a4,1
	sw	a4,0(a5)
	.loc 1 887 10
	li	a5,0
.L83:
	.loc 1 888 1
	mv	a0,a5
	ld	ra,24(sp)
	.cfi_restore 1
	ld	s0,16(sp)
	.cfi_restore 8
	.cfi_def_cfa 2, 32
	addi	sp,sp,32
	.cfi_def_cfa_offset 0
	jr	ra
	.cfi_endproc
.LFE11:
	.size	FlashPlatformGetDevices, .-FlashPlatformGetDevices
	.section	.text.FlashCreateInstance,"ax",@progbits
	.align	1
	.globl	FlashCreateInstance
	.type	FlashCreateInstance, @function
FlashCreateInstance:
.LFB12:
	.loc 1 901 1
	.cfi_startproc
	addi	sp,sp,-96
	.cfi_def_cfa_offset 96
	sd	ra,88(sp)
	sd	s0,80(sp)
	.cfi_offset 1, -8
	.cfi_offset 8, -16
	addi	s0,sp,96
	.cfi_def_cfa 8, 0
	sd	a0,-40(s0)
	sd	a1,-48(s0)
	sd	a2,-56(s0)
	mv	a2,a3
	mv	a3,a4
	mv	a4,a5
	sd	a6,-80(s0)
	sd	a7,-88(s0)
	mv	a5,a2
	sw	a5,-60(s0)
	mv	a5,a3
	sw	a5,-64(s0)
	mv	a5,a4
	sb	a5,-65(s0)
	.loc 1 905 6
	ld	a5,-88(s0)
	bne	a5,zero,.L85
	.loc 1 906 12
	li	a5,-1
	slli	a5,a5,63
	addi	a5,a5,2
	j	.L86
.L85:
	.loc 1 909 14
	lla	a1,mFlashInstanceTemplate
	li	a0,256
	call	AllocateRuntimeCopyPool@plt
	sd	a0,-32(s0)
	.loc 1 910 6
	ld	a5,-32(s0)
	bne	a5,zero,.L87
	.loc 1 911 12
	li	a5,-1
	slli	a5,a5,63
	addi	a5,a5,2
	j	.L86
.L87:
	.loc 1 914 31
	ld	a5,-32(s0)
	ld	a4,-40(s0)
	sd	a4,32(a5)
	.loc 1 915 31
	ld	a5,-32(s0)
	ld	a4,-48(s0)
	sd	a4,40(a5)
	.loc 1 916 18
	ld	a5,-32(s0)
	ld	a4,-56(s0)
	sd	a4,48(a5)
	.loc 1 918 37
	ld	a5,-32(s0)
	addi	a4,a5,112
	.loc 1 918 35
	ld	a5,-32(s0)
	sd	a4,72(a5)
	.loc 1 919 35
	ld	a5,-32(s0)
	lla	a4,FvbReset
	sd	a4,80(a5)
	.loc 1 920 27
	ld	a5,-32(s0)
	lw	a4,-60(s0)
	sw	a4,112(a5)
	.loc 1 921 29
	ld	a5,-32(s0)
	lw	a4,-64(s0)
	sw	a4,124(a5)
	.loc 1 922 42
	lwu	a5,-64(s0)
	ld	a4,-56(s0)
	divu	a5,a4,a5
	.loc 1 922 55
	addi	a4,a5,-1
	.loc 1 922 29
	ld	a5,-32(s0)
	sd	a4,136(a5)
	.loc 1 924 13
	ld	a5,-32(s0)
	addi	a5,a5,236
	.loc 1 924 3
	ld	a1,-80(s0)
	mv	a0,a5
	call	CopyGuid@plt
	.loc 1 926 6
	lbu	a5,-65(s0)
	andi	a5,a5,0xff
	beq	a5,zero,.L88
	.loc 1 927 26
	ld	a5,-32(s0)
	li	a4,1
	sb	a4,160(a5)
	.loc 1 928 26
	ld	a5,-32(s0)
	lla	a4,FvbInitialize
	sd	a4,24(a5)
	.loc 1 930 17
	la	a5,gBS
	ld	a5,0(a5)
	ld	a6,328(a5)
	.loc 1 930 14
	ld	a5,-32(s0)
	addi	a0,a5,8
	ld	a5,-32(s0)
	addi	a2,a5,232
	ld	a5,-32(s0)
	addi	a4,a5,168
	li	a5,0
	la	a3,gEfiFirmwareVolumeBlockProtocolGuid
	la	a1,gEfiDevicePathProtocolGuid
	jalr	a6
.LVL5:
	sd	a0,-24(s0)
	.loc 1 939 36
	ld	a5,-24(s0)
	.loc 1 939 8
	bge	a5,zero,.L89
	.loc 1 940 7
	ld	a0,-32(s0)
	call	FreePool@plt
	.loc 1 941 14
	ld	a5,-24(s0)
	j	.L86
.L89:
	.loc 1 944 17
	la	a5,gBS
	ld	a5,0(a5)
	ld	a5,128(a5)
	.loc 1 944 14
	ld	a4,-32(s0)
	addi	a4,a4,8
	li	a3,0
	li	a2,0
	la	a1,gSpacemitFlashFvbServiceReadyProtocolGuid
	mv	a0,a4
	jalr	a5
.LVL6:
	sd	a0,-24(s0)
	j	.L90
.L88:
	.loc 1 954 27
	ld	a5,-32(s0)
	li	a4,1
	sb	a4,16(a5)
	.loc 1 956 17
	la	a5,gBS
	ld	a5,0(a5)
	ld	a5,328(a5)
	.loc 1 956 14
	ld	a4,-32(s0)
	addi	a0,a4,8
	ld	a4,-32(s0)
	addi	a4,a4,232
	li	a3,0
	mv	a2,a4
	la	a1,gEfiDevicePathProtocolGuid
	jalr	a5
.LVL7:
	sd	a0,-24(s0)
	.loc 1 962 36
	ld	a5,-24(s0)
	.loc 1 962 8
	bge	a5,zero,.L90
	.loc 1 963 7
	ld	a0,-32(s0)
	call	FreePool@plt
	.loc 1 964 14
	ld	a5,-24(s0)
	j	.L86
.L90:
	.loc 1 968 18
	ld	a5,-88(s0)
	ld	a4,-32(s0)
	sd	a4,0(a5)
	.loc 1 969 10
	ld	a5,-24(s0)
.L86:
	.loc 1 970 1
	mv	a0,a5
	ld	ra,88(sp)
	.cfi_restore 1
	ld	s0,80(sp)
	.cfi_restore 8
	.cfi_def_cfa 2, 96
	addi	sp,sp,96
	.cfi_def_cfa_offset 0
	jr	ra
	.cfi_endproc
.LFE12:
	.size	FlashCreateInstance, .-FlashCreateInstance
	.section	.text.FlashUnlockSingleBlockIfNecessary,"ax",@progbits
	.align	1
	.globl	FlashUnlockSingleBlockIfNecessary
	.type	FlashUnlockSingleBlockIfNecessary, @function
FlashUnlockSingleBlockIfNecessary:
.LFB13:
	.loc 1 977 1
	.cfi_startproc
	addi	sp,sp,-32
	.cfi_def_cfa_offset 32
	sd	ra,24(sp)
	sd	s0,16(sp)
	.cfi_offset 1, -8
	.cfi_offset 8, -16
	addi	s0,sp,32
	.cfi_def_cfa 8, 0
	sd	a0,-24(s0)
	sd	a1,-32(s0)
	.loc 1 978 10
	li	a5,0
	.loc 1 979 1
	mv	a0,a5
	ld	ra,24(sp)
	.cfi_restore 1
	ld	s0,16(sp)
	.cfi_restore 8
	.cfi_def_cfa 2, 32
	addi	sp,sp,32
	.cfi_def_cfa_offset 0
	jr	ra
	.cfi_endproc
.LFE13:
	.size	FlashUnlockSingleBlockIfNecessary, .-FlashUnlockSingleBlockIfNecessary
	.section	.text.FlashEraseSingleBlock,"ax",@progbits
	.align	1
	.globl	FlashEraseSingleBlock
	.type	FlashEraseSingleBlock, @function
FlashEraseSingleBlock:
.LFB14:
	.loc 1 986 1
	.cfi_startproc
	addi	sp,sp,-48
	.cfi_def_cfa_offset 48
	sd	ra,40(sp)
	sd	s0,32(sp)
	.cfi_offset 1, -8
	.cfi_offset 8, -16
	addi	s0,sp,48
	.cfi_def_cfa 8, 0
	sd	a0,-40(s0)
	sd	a1,-48(s0)
	.loc 1 990 10
	sd	zero,-24(s0)
	.loc 1 991 41
	ld	a5,-40(s0)
	ld	a5,32(a5)
	.loc 1 991 16
	ld	a4,-48(s0)
	sub	a5,a4,a5
	sd	a5,-32(s0)
	.loc 1 993 18
	lla	a5,mFlash
	ld	a5,0(a5)
	ld	a5,32(a5)
	.loc 1 993 12
	lla	a4,mFlash
	ld	a3,0(a4)
	.loc 1 993 35
	ld	a4,-32(s0)
	sext.w	a4,a4
	.loc 1 993 12
	slli	a1,a4,32
	srli	a1,a1,32
	.loc 1 993 72
	ld	a4,-40(s0)
	lw	a4,124(a4)
	.loc 1 993 12
	slli	a4,a4,32
	srli	a4,a4,32
	mv	a2,a4
	mv	a0,a3
	jalr	a5
.LVL8:
	sd	a0,-24(s0)
	.loc 1 994 6
	ld	a5,-24(s0)
	beq	a5,zero,.L94
	.loc 1 996 12
	ld	a5,-24(s0)
	j	.L95
.L94:
	.loc 1 999 10
	li	a5,0
.L95:
	.loc 1 1000 1
	mv	a0,a5
	ld	ra,40(sp)
	.cfi_restore 1
	ld	s0,32(sp)
	.cfi_restore 8
	.cfi_def_cfa 2, 48
	addi	sp,sp,48
	.cfi_def_cfa_offset 0
	jr	ra
	.cfi_endproc
.LFE14:
	.size	FlashEraseSingleBlock, .-FlashEraseSingleBlock
	.section	.text.FlashUnlockAndEraseSingleBlock,"ax",@progbits
	.align	1
	.globl	FlashUnlockAndEraseSingleBlock
	.type	FlashUnlockAndEraseSingleBlock, @function
FlashUnlockAndEraseSingleBlock:
.LFB15:
	.loc 1 1010 1
	.cfi_startproc
	addi	sp,sp,-48
	.cfi_def_cfa_offset 48
	sd	ra,40(sp)
	sd	s0,32(sp)
	.cfi_offset 1, -8
	.cfi_offset 8, -16
	addi	s0,sp,48
	.cfi_def_cfa 8, 0
	sd	a0,-40(s0)
	sd	a1,-48(s0)
	.loc 1 1014 9
	sd	zero,-32(s0)
.L99:
	.loc 1 1018 14
	ld	a1,-48(s0)
	ld	a0,-40(s0)
	call	FlashUnlockSingleBlockIfNecessary
	sd	a0,-24(s0)
	.loc 1 1019 9
	ld	a5,-24(s0)
	.loc 1 1019 8
	blt	a5,zero,.L97
	.loc 1 1020 16
	ld	a1,-48(s0)
	ld	a0,-40(s0)
	call	FlashEraseSingleBlock
	sd	a0,-24(s0)
.L97:
	.loc 1 1023 10
	ld	a5,-32(s0)
	addi	a5,a5,1
	sd	a5,-32(s0)
	.loc 1 1024 25
	ld	a4,-32(s0)
	li	a5,9
	bgtu	a4,a5,.L98
	.loc 1 1024 25 is_stmt 0 discriminator 1
	ld	a4,-24(s0)
	li	a5,-1
	slli	a5,a5,63
	addi	a5,a5,8
	beq	a4,a5,.L99
.L98:
	.loc 1 1030 10 is_stmt 1
	ld	a5,-24(s0)
	.loc 1 1031 1
	mv	a0,a5
	ld	ra,40(sp)
	.cfi_restore 1
	ld	s0,32(sp)
	.cfi_restore 8
	.cfi_def_cfa 2, 48
	addi	sp,sp,48
	.cfi_def_cfa_offset 0
	jr	ra
	.cfi_endproc
.LFE15:
	.size	FlashUnlockAndEraseSingleBlock, .-FlashUnlockAndEraseSingleBlock
	.section	.text.FlashWriteBlocks,"ax",@progbits
	.align	1
	.globl	FlashWriteBlocks
	.type	FlashWriteBlocks, @function
FlashWriteBlocks:
.LFB16:
	.loc 1 1040 1
	.cfi_startproc
	addi	sp,sp,-80
	.cfi_def_cfa_offset 80
	sd	ra,72(sp)
	sd	s0,64(sp)
	.cfi_offset 1, -8
	.cfi_offset 8, -16
	addi	s0,sp,80
	.cfi_def_cfa 8, 0
	sd	a0,-56(s0)
	sd	a1,-64(s0)
	sd	a2,-72(s0)
	sd	a3,-80(s0)
	.loc 1 1041 14
	sd	zero,-24(s0)
	.loc 1 1047 6
	ld	a5,-80(s0)
	bne	a5,zero,.L102
	.loc 1 1048 12
	li	a5,-1
	slli	a5,a5,63
	addi	a5,a5,2
	j	.L103
.L102:
	.loc 1 1051 22
	ld	a5,-56(s0)
	lbu	a5,119(a5)
	.loc 1 1051 6
	mv	a4,a5
	li	a5,1
	bne	a4,a5,.L104
	.loc 1 1052 12
	li	a5,-1
	slli	a5,a5,63
	addi	a5,a5,8
	j	.L103
.L104:
	.loc 1 1056 6
	ld	a5,-72(s0)
	bne	a5,zero,.L105
	.loc 1 1057 12
	li	a5,-1
	slli	a5,a5,63
	addi	a5,a5,4
	j	.L103
.L105:
	.loc 1 1061 43
	ld	a5,-56(s0)
	lw	a5,124(a5)
	slli	a5,a5,32
	srli	a5,a5,32
	.loc 1 1061 26
	ld	a4,-72(s0)
	remu	a5,a4,a5
	.loc 1 1061 6
	beq	a5,zero,.L106
	.loc 1 1062 12
	li	a5,-1
	slli	a5,a5,63
	addi	a5,a5,4
	j	.L103
.L106:
	.loc 1 1066 16
	ld	a5,-72(s0)
	sext.w	a4,a5
	.loc 1 1066 60
	ld	a5,-56(s0)
	lw	a5,124(a5)
	.loc 1 1066 13
	divuw	a5,a4,a5
	sw	a5,-28(s0)
	.loc 1 1067 12
	lwu	a4,-28(s0)
	ld	a5,-64(s0)
	add	a4,a4,a5
	.loc 1 1067 43
	ld	a5,-56(s0)
	ld	a5,136(a5)
	.loc 1 1067 54
	addi	a5,a5,1
	.loc 1 1067 6
	bleu	a4,a5,.L107
	.loc 1 1069 12
	li	a5,-1
	slli	a5,a5,63
	addi	a5,a5,2
	j	.L103
.L107:
	.loc 1 1072 27
	ld	a5,-56(s0)
	ld	a4,40(a5)
	.loc 1 1072 78
	ld	a5,-56(s0)
	lw	a5,124(a5)
	slli	a3,a5,32
	srli	a3,a3,32
	.loc 1 1072 62
	ld	a5,-64(s0)
	mul	a5,a3,a5
	.loc 1 1072 16
	add	a5,a4,a5
	sd	a5,-40(s0)
	.loc 1 1074 41
	ld	a5,-56(s0)
	ld	a5,32(a5)
	.loc 1 1074 16
	ld	a4,-40(s0)
	sub	a5,a4,a5
	sd	a5,-48(s0)
	.loc 1 1076 18
	lla	a5,mFlash
	ld	a5,0(a5)
	ld	a5,24(a5)
	.loc 1 1076 12
	lla	a4,mFlash
	ld	a4,0(a4)
	ld	a3,-48(s0)
	sext.w	a1,a3
	ld	a3,-80(s0)
	ld	a2,-72(s0)
	mv	a0,a4
	jalr	a5
.LVL9:
	sd	a0,-24(s0)
	.loc 1 1077 6
	ld	a5,-24(s0)
	beq	a5,zero,.L108
	.loc 1 1079 12
	ld	a5,-24(s0)
	j	.L103
.L108:
	.loc 1 1082 10
	ld	a5,-24(s0)
.L103:
	.loc 1 1083 1
	mv	a0,a5
	ld	ra,72(sp)
	.cfi_restore 1
	ld	s0,64(sp)
	.cfi_restore 8
	.cfi_def_cfa 2, 80
	addi	sp,sp,80
	.cfi_def_cfa_offset 0
	jr	ra
	.cfi_endproc
.LFE16:
	.size	FlashWriteBlocks, .-FlashWriteBlocks
	.section	.text.FlashReadBlocks,"ax",@progbits
	.align	1
	.globl	FlashReadBlocks
	.type	FlashReadBlocks, @function
FlashReadBlocks:
.LFB17:
	.loc 1 1092 1
	.cfi_startproc
	addi	sp,sp,-80
	.cfi_def_cfa_offset 80
	sd	ra,72(sp)
	sd	s0,64(sp)
	.cfi_offset 1, -8
	.cfi_offset 8, -16
	addi	s0,sp,80
	.cfi_def_cfa 8, 0
	sd	a0,-56(s0)
	sd	a1,-64(s0)
	sd	a2,-72(s0)
	sd	a3,-80(s0)
	.loc 1 1099 6
	ld	a5,-80(s0)
	bne	a5,zero,.L110
	.loc 1 1100 12
	li	a5,-1
	slli	a5,a5,63
	addi	a5,a5,2
	j	.L111
.L110:
	.loc 1 1104 6
	ld	a5,-72(s0)
	bne	a5,zero,.L112
	.loc 1 1105 12
	li	a5,-1
	slli	a5,a5,63
	addi	a5,a5,4
	j	.L111
.L112:
	.loc 1 1109 43
	ld	a5,-56(s0)
	lw	a5,124(a5)
	slli	a5,a5,32
	srli	a5,a5,32
	.loc 1 1109 26
	ld	a4,-72(s0)
	remu	a5,a4,a5
	.loc 1 1109 6
	beq	a5,zero,.L113
	.loc 1 1110 12
	li	a5,-1
	slli	a5,a5,63
	addi	a5,a5,4
	j	.L111
.L113:
	.loc 1 1114 16
	ld	a5,-72(s0)
	sext.w	a4,a5
	.loc 1 1114 60
	ld	a5,-56(s0)
	lw	a5,124(a5)
	.loc 1 1114 13
	divuw	a5,a4,a5
	sw	a5,-20(s0)
	.loc 1 1115 12
	lwu	a4,-20(s0)
	ld	a5,-64(s0)
	add	a4,a4,a5
	.loc 1 1115 43
	ld	a5,-56(s0)
	ld	a5,136(a5)
	.loc 1 1115 54
	addi	a5,a5,1
	.loc 1 1115 6
	bleu	a4,a5,.L114
	.loc 1 1117 12
	li	a5,-1
	slli	a5,a5,63
	addi	a5,a5,2
	j	.L111
.L114:
	.loc 1 1121 27
	ld	a5,-56(s0)
	ld	a4,40(a5)
	.loc 1 1121 78
	ld	a5,-56(s0)
	lw	a5,124(a5)
	slli	a3,a5,32
	srli	a3,a3,32
	.loc 1 1121 62
	ld	a5,-64(s0)
	mul	a5,a3,a5
	.loc 1 1121 16
	add	a5,a4,a5
	sd	a5,-32(s0)
	.loc 1 1127 40
	ld	a5,-56(s0)
	ld	a5,32(a5)
	.loc 1 1127 15
	ld	a4,-32(s0)
	sub	a5,a4,a5
	sd	a5,-40(s0)
	.loc 1 1129 18
	lla	a5,mFlash
	ld	a5,0(a5)
	ld	a5,16(a5)
	.loc 1 1129 12
	lla	a4,mFlash
	ld	a4,0(a4)
	ld	a3,-40(s0)
	sext.w	a1,a3
	ld	a3,-80(s0)
	ld	a2,-72(s0)
	mv	a0,a4
	jalr	a5
.LVL10:
	sd	a0,-48(s0)
	.loc 1 1130 6
	ld	a5,-48(s0)
	beq	a5,zero,.L115
	.loc 1 1132 12
	ld	a5,-48(s0)
	j	.L111
.L115:
	.loc 1 1135 10
	li	a5,0
.L111:
	.loc 1 1136 1
	mv	a0,a5
	ld	ra,72(sp)
	.cfi_restore 1
	ld	s0,64(sp)
	.cfi_restore 8
	.cfi_def_cfa 2, 80
	addi	sp,sp,80
	.cfi_def_cfa_offset 0
	jr	ra
	.cfi_endproc
.LFE17:
	.size	FlashReadBlocks, .-FlashReadBlocks
	.section	.text.FlashFvbVirtualNotifyEvent,"ax",@progbits
	.align	1
	.globl	FlashFvbVirtualNotifyEvent
	.type	FlashFvbVirtualNotifyEvent, @function
FlashFvbVirtualNotifyEvent:
.LFB18:
	.loc 1 1144 1
	.cfi_startproc
	addi	sp,sp,-64
	.cfi_def_cfa_offset 64
	sd	ra,56(sp)
	sd	s0,48(sp)
	.cfi_offset 1, -8
	.cfi_offset 8, -16
	addi	s0,sp,64
	.cfi_def_cfa 8, 0
	sd	a0,-56(s0)
	sd	a1,-64(s0)
	.loc 1 1146 13
	sw	zero,-36(s0)
	.loc 1 1148 3
	addi	a4,s0,-36
	addi	a5,s0,-32
	mv	a1,a4
	mv	a0,a5
	call	FlashPlatformGetDevices
	.loc 1 1150 10
	sw	zero,-20(s0)
	.loc 1 1150 3
	j	.L117
.L118:
	.loc 1 1151 54
	lla	a5,mFlashInstances
	ld	a4,0(a5)
	lwu	a5,-20(s0)
	slli	a5,a5,3
	add	a5,a4,a5
	ld	a5,0(a5)
	.loc 1 1151 38
	addi	a5,a5,32
	.loc 1 1151 5
	mv	a1,a5
	li	a0,0
	call	EfiConvertPointer@plt
	.loc 1 1152 54
	lla	a5,mFlashInstances
	ld	a4,0(a5)
	lwu	a5,-20(s0)
	slli	a5,a5,3
	add	a5,a4,a5
	ld	a5,0(a5)
	.loc 1 1152 38
	addi	a5,a5,40
	.loc 1 1152 5
	mv	a1,a5
	li	a0,0
	call	EfiConvertPointer@plt
	.loc 1 1153 5
	lla	a5,mFlashInstances
	ld	a4,0(a5)
	.loc 1 1153 54
	lwu	a5,-20(s0)
	slli	a5,a5,3
	.loc 1 1153 38
	add	a5,a4,a5
	.loc 1 1153 5
	mv	a1,a5
	li	a0,0
	call	EfiConvertPointer@plt
	.loc 1 1150 38 discriminator 3
	lw	a5,-20(s0)
	addiw	a5,a5,1
	sw	a5,-20(s0)
.L117:
	.loc 1 1150 17 discriminator 1
	lw	a5,-36(s0)
	lw	a4,-20(s0)
	sext.w	a4,a4
	bltu	a4,a5,.L118
	.loc 1 1156 43
	lla	a5,mFlash
	ld	a5,0(a5)
	.loc 1 1156 36
	addi	a5,a5,16
	.loc 1 1156 3
	mv	a1,a5
	li	a0,0
	call	EfiConvertPointer@plt
	.loc 1 1157 43
	lla	a5,mFlash
	ld	a5,0(a5)
	.loc 1 1157 36
	addi	a5,a5,24
	.loc 1 1157 3
	mv	a1,a5
	li	a0,0
	call	EfiConvertPointer@plt
	.loc 1 1158 43
	lla	a5,mFlash
	ld	a5,0(a5)
	.loc 1 1158 36
	addi	a5,a5,32
	.loc 1 1158 3
	mv	a1,a5
	li	a0,0
	call	EfiConvertPointer@plt
	.loc 1 1159 3
	lla	a1,mFlash
	li	a0,0
	call	EfiConvertPointer@plt
	.loc 1 1161 3
	nop
	.loc 1 1162 1
	ld	ra,56(sp)
	.cfi_restore 1
	ld	s0,48(sp)
	.cfi_restore 8
	.cfi_def_cfa 2, 64
	addi	sp,sp,64
	.cfi_def_cfa_offset 0
	jr	ra
	.cfi_endproc
.LFE18:
	.size	FlashFvbVirtualNotifyEvent, .-FlashFvbVirtualNotifyEvent
	.section	.text.FlashFvbInitialize,"ax",@progbits
	.align	1
	.globl	FlashFvbInitialize
	.type	FlashFvbInitialize, @function
FlashFvbInitialize:
.LFB19:
	.loc 1 1170 1
	.cfi_startproc
	addi	sp,sp,-80
	.cfi_def_cfa_offset 80
	sd	ra,72(sp)
	sd	s0,64(sp)
	.cfi_offset 1, -8
	.cfi_offset 8, -16
	addi	s0,sp,80
	.cfi_def_cfa 8, 0
	sd	a0,-72(s0)
	sd	a1,-80(s0)
	.loc 1 1177 12
	addi	a4,s0,-52
	addi	a5,s0,-48
	mv	a1,a4
	mv	a0,a5
	call	FlashPlatformGetDevices
	sd	a0,-32(s0)
	.loc 1 1178 34
	ld	a5,-32(s0)
	.loc 1 1178 6
	bge	a5,zero,.L121
	.loc 1 1180 12
	ld	a5,-32(s0)
	j	.L130
.L121:
	.loc 1 1186 42
	lw	a5,-52(s0)
	slliw	a5,a5,3
	sext.w	a5,a5
	.loc 1 1186 21
	slli	a5,a5,32
	srli	a5,a5,32
	mv	a0,a5
	call	AllocateRuntimePool@plt
	mv	a4,a0
	.loc 1 1186 19 discriminator 1
	lla	a5,mFlashInstances
	sd	a4,0(a5)
	.loc 1 1187 23
	lla	a5,mFlashInstances
	ld	a5,0(a5)
	.loc 1 1187 6
	bne	a5,zero,.L123
	.loc 1 1189 12
	li	a5,-1
	slli	a5,a5,63
	addi	a5,a5,9
	j	.L130
.L123:
	.loc 1 1192 15
	la	a5,gBS
	ld	a5,0(a5)
	ld	a5,320(a5)
	.loc 1 1192 12
	lla	a2,mFlash
	li	a1,0
	la	a0,gSpacemitSpiFlashProtocolGuid
	jalr	a5
.LVL11:
	sd	a0,-32(s0)
	.loc 1 1193 34
	ld	a5,-32(s0)
	.loc 1 1193 6
	bge	a5,zero,.L124
	.loc 1 1195 5
	lla	a5,mFlashInstances
	ld	a5,0(a5)
	mv	a0,a5
	call	FreePool@plt
	.loc 1 1196 12
	ld	a5,-32(s0)
	j	.L130
.L124:
	.loc 1 1199 18
	lla	a5,mFlash
	ld	a5,0(a5)
	ld	a5,0(a5)
	.loc 1 1199 12
	lla	a4,mFlash
	ld	a4,0(a4)
	li	a1,1
	mv	a0,a4
	jalr	a5
.LVL12:
	sd	a0,-32(s0)
	.loc 1 1200 34
	ld	a5,-32(s0)
	.loc 1 1200 6
	bge	a5,zero,.L125
	.loc 1 1202 5
	lla	a5,mFlashInstances
	ld	a5,0(a5)
	mv	a0,a5
	call	FreePool@plt
	.loc 1 1203 12
	ld	a5,-32(s0)
	j	.L130
.L125:
	.loc 1 1206 14
	sw	zero,-20(s0)
	.loc 1 1206 3
	j	.L126
.L129:
	.loc 1 1209 20
	ld	a3,-48(s0)
	lwu	a4,-20(s0)
	mv	a5,a4
	slli	a5,a5,1
	add	a5,a5,a4
	slli	a5,a5,4
	add	a5,a3,a5
	.loc 1 1209 27
	ld	a4,8(a5)
	.loc 1 1209 46
	la	a5,_gPcd_FixedAtBuild_PcdFlashNvStorageVariableBase64
	ld	a5,0(a5)
	.loc 1 1209 101
	bgtu	a4,a5,.L127
	.loc 1 1210 60
	la	a5,_gPcd_FixedAtBuild_PcdFlashNvStorageVariableSize
	lw	a5,0(a5)
	slli	a4,a5,32
	srli	a4,a4,32
	la	a5,_gPcd_FixedAtBuild_PcdFlashNvStorageVariableBase64
	ld	a5,0(a5)
	add	a3,a4,a5
	.loc 1 1211 23
	ld	a2,-48(s0)
	lwu	a4,-20(s0)
	mv	a5,a4
	slli	a5,a5,1
	add	a5,a5,a4
	slli	a5,a5,4
	add	a5,a2,a5
	.loc 1 1211 30
	ld	a2,8(a5)
	.loc 1 1211 63
	ld	a1,-48(s0)
	lwu	a4,-20(s0)
	mv	a5,a4
	slli	a5,a5,1
	add	a5,a5,a4
	slli	a5,a5,4
	add	a5,a1,a5
	.loc 1 1211 70
	ld	a5,16(a5)
	.loc 1 1211 49
	add	a5,a2,a5
	.loc 1 1209 101 discriminator 1
	bgtu	a3,a5,.L127
	.loc 1 1209 101 is_stmt 0 discriminator 3
	li	a5,1
	.loc 1 1209 101
	j	.L128
.L127:
	.loc 1 1209 101 discriminator 4
	li	a5,0
.L128:
	.loc 1 1208 28 is_stmt 1
	sb	a5,-33(s0)
	.loc 1 1214 47
	ld	a3,-48(s0)
	lwu	a4,-20(s0)
	mv	a5,a4
	slli	a5,a5,1
	add	a5,a5,a4
	slli	a5,a5,4
	add	a5,a3,a5
	.loc 1 1213 14
	ld	a0,0(a5)
	.loc 1 1215 47
	ld	a3,-48(s0)
	lwu	a4,-20(s0)
	mv	a5,a4
	slli	a5,a5,1
	add	a5,a5,a4
	slli	a5,a5,4
	add	a5,a3,a5
	.loc 1 1213 14
	ld	a1,8(a5)
	.loc 1 1216 47
	ld	a3,-48(s0)
	lwu	a4,-20(s0)
	mv	a5,a4
	slli	a5,a5,1
	add	a5,a5,a4
	slli	a5,a5,4
	add	a5,a3,a5
	.loc 1 1213 14
	ld	a2,16(a5)
	.loc 1 1218 47
	ld	a3,-48(s0)
	lwu	a4,-20(s0)
	mv	a5,a4
	slli	a5,a5,1
	add	a5,a5,a4
	slli	a5,a5,4
	add	a5,a3,a5
	.loc 1 1218 54
	ld	a5,24(a5)
	.loc 1 1213 14
	sext.w	t1,a5
	.loc 1 1220 48
	ld	a3,-48(s0)
	lwu	a4,-20(s0)
	mv	a5,a4
	slli	a5,a5,1
	add	a5,a5,a4
	slli	a5,a5,4
	add	a5,a3,a5
	.loc 1 1220 35
	addi	a6,a5,32
	.loc 1 1213 14
	lla	a5,mFlashInstances
	ld	a4,0(a5)
	.loc 1 1221 51
	lwu	a5,-20(s0)
	slli	a5,a5,3
	.loc 1 1213 14
	add	a4,a4,a5
	lbu	a5,-33(s0)
	lw	a3,-20(s0)
	mv	a7,a4
	mv	a4,t1
	call	FlashCreateInstance
	sd	a0,-32(s0)
	.loc 1 1206 50 discriminator 2
	lw	a5,-20(s0)
	addiw	a5,a5,1
	sw	a5,-20(s0)
.L126:
	.loc 1 1206 25 discriminator 1
	lw	a5,-52(s0)
	lw	a4,-20(s0)
	sext.w	a4,a4
	bltu	a4,a5,.L129
	.loc 1 1231 15
	la	a5,gBS
	ld	a5,0(a5)
	ld	a6,368(a5)
	.loc 1 1231 12
	lla	a5,mFlashFvbVirtualAddrChangeEvent
	la	a4,gEfiEventVirtualAddressChangeGuid
	li	a3,0
	lla	a2,FlashFvbVirtualNotifyEvent
	li	a1,16
	li	a0,512
	jalr	a6
.LVL13:
	sd	a0,-32(s0)
	.loc 1 1241 10
	ld	a5,-32(s0)
.L130:
	.loc 1 1242 1
	mv	a0,a5
	ld	ra,72(sp)
	.cfi_restore 1
	ld	s0,64(sp)
	.cfi_restore 8
	.cfi_def_cfa 2, 80
	addi	sp,sp,80
	.cfi_def_cfa_offset 0
	jr	ra
	.cfi_endproc
.LFE19:
	.size	FlashFvbInitialize, .-FlashFvbInitialize
	.text
.Letext0:
	.file 2 "/home/kapoagaeming/Downloads/spacemit-image-builder/components/edk2/MdePkg/Include/RiscV64/ProcessorBind.h"
	.file 3 "/home/kapoagaeming/Downloads/spacemit-image-builder/components/edk2/MdePkg/Include/Base.h"
	.file 4 "/home/kapoagaeming/Downloads/spacemit-image-builder/components/edk2/MdePkg/Include/Uefi/UefiBaseType.h"
	.file 5 "/home/kapoagaeming/Downloads/spacemit-image-builder/components/edk2/MdePkg/Include/Uefi/UefiMultiPhase.h"
	.file 6 "/home/kapoagaeming/Downloads/spacemit-image-builder/components/edk2/MdePkg/Include/Protocol/DevicePath.h"
	.file 7 "/home/kapoagaeming/Downloads/spacemit-image-builder/components/edk2/MdePkg/Include/Protocol/SimpleTextIn.h"
	.file 8 "/home/kapoagaeming/Downloads/spacemit-image-builder/components/edk2/MdePkg/Include/Protocol/SimpleTextOut.h"
	.file 9 "/home/kapoagaeming/Downloads/spacemit-image-builder/components/edk2/MdePkg/Include/Uefi/UefiSpec.h"
	.file 10 "/home/kapoagaeming/Downloads/spacemit-image-builder/components/edk2/MdePkg/Include/Pi/PiFirmwareVolume.h"
	.file 11 "/home/kapoagaeming/Downloads/spacemit-image-builder/components/Build/Milk-V-Jupiter/RELEASE_GCC5/RISCV64/Silicon/Spacemit/Drivers/FlashFvbDxe/FlashFvbDxe/DEBUG/AutoGen.h"
	.file 12 "/home/kapoagaeming/Downloads/spacemit-image-builder/components/edk2/MdePkg/Include/Protocol/BlockIo.h"
	.file 13 "/home/kapoagaeming/Downloads/spacemit-image-builder/components/edk2/MdePkg/Include/Protocol/FirmwareVolumeBlock.h"
	.file 14 "/home/kapoagaeming/Downloads/spacemit-image-builder/components/edk2/MdeModulePkg/Include/Guid/VariableFormat.h"
	.file 15 "/home/kapoagaeming/Downloads/spacemit-image-builder/components/edk2/MdePkg/Include/Protocol/FirmwareManagement.h"
	.file 16 "/home/kapoagaeming/Downloads/spacemit-image-builder/components/edk2-platforms/Silicon/Spacemit/Include/Protocol/SpiFlash.h"
	.file 17 "/home/kapoagaeming/Downloads/spacemit-image-builder/components/edk2-platforms/Silicon/Spacemit/Drivers/FlashFvbDxe/FlashFvbDxe.h"
	.file 18 "/home/kapoagaeming/Downloads/spacemit-image-builder/components/edk2/MdePkg/Include/Library/MemoryAllocationLib.h"
	.file 19 "/home/kapoagaeming/Downloads/spacemit-image-builder/components/edk2/MdePkg/Include/Library/UefiRuntimeLib.h"
	.file 20 "/home/kapoagaeming/Downloads/spacemit-image-builder/components/edk2-platforms/Silicon/Spacemit/Include/Library/MemoryManagementLib.h"
	.file 21 "/home/kapoagaeming/Downloads/spacemit-image-builder/components/edk2/MdePkg/Include/Library/BaseLib.h"
	.file 22 "/home/kapoagaeming/Downloads/spacemit-image-builder/components/edk2/MdePkg/Include/Library/BaseMemoryLib.h"
	.file 23 "/home/kapoagaeming/Downloads/spacemit-image-builder/components/edk2/MdePkg/Include/Library/UefiBootServicesTableLib.h"
	.section	.note.GNU-stack,"",@progbits
