	.file	"HeapGuard.c"
	.option pic
	.option norelax
	.attribute arch, "rv64i2p1_m2p0_a2p1_f2p2_d2p2_c2p0_zicsr2p0_zifencei2p0_zmmul1p0_zaamo1p0_zalrsc1p0_zca1p0_zcd1p0"
	.attribute unaligned_access, 0
	.attribute stack_align, 16
	.text
.Ltext0:
	.cfi_sections	.debug_frame
	.file 0 "/home/kapoagaeming/Downloads/spacemit-image-builder/components/Build/Milk-V-Jupiter/RELEASE_GCC5/RISCV64/MdeModulePkg/Core/Dxe/DxeMain" "/home/kapoagaeming/Downloads/spacemit-image-builder/components/edk2/MdeModulePkg/Core/Dxe/Mem/HeapGuard.c"
	.globl	mOnGuarding
	.section	.bss.mOnGuarding,"aw",@nobits
	.type	mOnGuarding, @object
	.size	mOnGuarding, 1
mOnGuarding:
	.zero	1
	.globl	mGuardedMemoryMap
	.section	.bss.mGuardedMemoryMap,"aw",@nobits
	.align	3
	.type	mGuardedMemoryMap, @object
	.size	mGuardedMemoryMap, 8
mGuardedMemoryMap:
	.zero	8
	.globl	mMapLevel
	.section	.data.mMapLevel,"aw"
	.align	3
	.type	mMapLevel, @object
	.size	mMapLevel, 8
mMapLevel:
	.dword	1
	.globl	mLevelShift
	.section	.data.mLevelShift,"aw"
	.align	3
	.type	mLevelShift, @object
	.size	mLevelShift, 40
mLevelShift:
	.dword	55
	.dword	46
	.dword	37
	.dword	28
	.dword	18
	.globl	mLevelMask
	.section	.data.mLevelMask,"aw"
	.align	3
	.type	mLevelMask, @object
	.size	mLevelMask, 40
mLevelMask:
	.dword	511
	.dword	511
	.dword	511
	.dword	511
	.dword	1023
	.globl	mLastPromotedPage
	.section	.data.mLastPromotedPage,"aw"
	.align	3
	.type	mLastPromotedPage, @object
	.size	mLastPromotedPage, 8
mLastPromotedPage:
	.dword	4294967296
	.section	.text.SetBits,"ax",@progbits
	.align	1
	.type	SetBits, @function
SetBits:
.LFB0:
	.file 1 "/home/kapoagaeming/Downloads/spacemit-image-builder/components/edk2/MdeModulePkg/Core/Dxe/Mem/HeapGuard.c"
	.loc 1 62 1
	.cfi_startproc
	addi	sp,sp,-96
	.cfi_def_cfa_offset 96
	sd	ra,88(sp)
	sd	s0,80(sp)
	.cfi_offset 1, -8
	.cfi_offset 8, -16
	addi	s0,sp,96
	.cfi_def_cfa 8, 0
	sd	a0,-72(s0)
	sd	a1,-80(s0)
	sd	a2,-88(s0)
	.loc 1 69 22
	li	a1,12
	ld	a0,-72(s0)
	call	RShiftU64@plt
	mv	a5,a0
	.loc 1 69 12 discriminator 1
	andi	a5,a5,63
	sd	a5,-48(s0)
	.loc 1 70 22
	ld	a4,-48(s0)
	ld	a5,-80(s0)
	add	a5,a4,a5
	.loc 1 70 34
	addi	a5,a5,-1
	.loc 1 70 10
	andi	a5,a5,63
	sd	a5,-56(s0)
	.loc 1 72 17
	ld	a4,-48(s0)
	ld	a5,-80(s0)
	add	a4,a4,a5
	.loc 1 72 6
	li	a5,63
	bleu	a4,a5,.L2
	.loc 1 73 34
	ld	a5,-48(s0)
	neg	a5,a5
	.loc 1 73 10
	andi	a5,a5,63
	sd	a5,-40(s0)
	.loc 1 75 20
	ld	a5,-56(s0)
	addi	a5,a5,1
	.loc 1 75 10
	andi	a5,a5,63
	sd	a5,-24(s0)
	.loc 1 76 25
	ld	a4,-80(s0)
	ld	a5,-40(s0)
	sub	a5,a4,a5
	.loc 1 76 12
	srli	a5,a5,6
	sd	a5,-32(s0)
	j	.L3
.L2:
	.loc 1 78 10
	ld	a5,-80(s0)
	sd	a5,-40(s0)
	.loc 1 79 10
	sd	zero,-24(s0)
	.loc 1 80 12
	sd	zero,-32(s0)
.L3:
	.loc 1 83 6
	ld	a5,-40(s0)
	beq	a5,zero,.L4
	.loc 1 84 27
	ld	a1,-40(s0)
	li	a0,1
	call	LShiftU64@plt
	mv	a5,a0
	.loc 1 84 16 discriminator 1
	addi	a5,a5,-1
	ld	a1,-48(s0)
	mv	a0,a5
	call	LShiftU64@plt
	mv	a4,a0
	.loc 1 84 5 discriminator 2
	ld	a5,-88(s0)
	ld	a5,0(a5)
	.loc 1 84 13 discriminator 2
	or	a4,a4,a5
	ld	a5,-88(s0)
	sd	a4,0(a5)
	.loc 1 85 12
	ld	a5,-88(s0)
	addi	a5,a5,8
	sd	a5,-88(s0)
.L4:
	.loc 1 88 6
	ld	a5,-32(s0)
	beq	a5,zero,.L5
	.loc 1 89 5
	ld	a5,-32(s0)
	slli	a5,a5,3
	li	a2,-1
	mv	a1,a5
	ld	a0,-88(s0)
	call	SetMem64@plt
	.loc 1 94 12
	ld	a5,-32(s0)
	slli	a5,a5,3
	ld	a4,-88(s0)
	add	a5,a4,a5
	sd	a5,-88(s0)
.L5:
	.loc 1 97 6
	ld	a5,-24(s0)
	beq	a5,zero,.L7
	.loc 1 98 17
	ld	a1,-24(s0)
	li	a0,1
	call	LShiftU64@plt
	mv	a5,a0
	.loc 1 98 37 discriminator 1
	addi	a4,a5,-1
	.loc 1 98 5 discriminator 1
	ld	a5,-88(s0)
	ld	a5,0(a5)
	.loc 1 98 13 discriminator 1
	or	a4,a4,a5
	ld	a5,-88(s0)
	sd	a4,0(a5)
.L7:
	.loc 1 100 1
	nop
	ld	ra,88(sp)
	.cfi_restore 1
	ld	s0,80(sp)
	.cfi_restore 8
	.cfi_def_cfa 2, 96
	addi	sp,sp,96
	.cfi_def_cfa_offset 0
	jr	ra
	.cfi_endproc
.LFE0:
	.size	SetBits, .-SetBits
	.section	.text.ClearBits,"ax",@progbits
	.align	1
	.type	ClearBits, @function
ClearBits:
.LFB1:
	.loc 1 118 1
	.cfi_startproc
	addi	sp,sp,-96
	.cfi_def_cfa_offset 96
	sd	ra,88(sp)
	sd	s0,80(sp)
	.cfi_offset 1, -8
	.cfi_offset 8, -16
	addi	s0,sp,96
	.cfi_def_cfa 8, 0
	sd	a0,-72(s0)
	sd	a1,-80(s0)
	sd	a2,-88(s0)
	.loc 1 125 22
	li	a1,12
	ld	a0,-72(s0)
	call	RShiftU64@plt
	mv	a5,a0
	.loc 1 125 12 discriminator 1
	andi	a5,a5,63
	sd	a5,-48(s0)
	.loc 1 126 22
	ld	a4,-48(s0)
	ld	a5,-80(s0)
	add	a5,a4,a5
	.loc 1 126 34
	addi	a5,a5,-1
	.loc 1 126 10
	andi	a5,a5,63
	sd	a5,-56(s0)
	.loc 1 128 17
	ld	a4,-48(s0)
	ld	a5,-80(s0)
	add	a4,a4,a5
	.loc 1 128 6
	li	a5,63
	bleu	a4,a5,.L9
	.loc 1 129 34
	ld	a5,-48(s0)
	neg	a5,a5
	.loc 1 129 10
	andi	a5,a5,63
	sd	a5,-40(s0)
	.loc 1 131 20
	ld	a5,-56(s0)
	addi	a5,a5,1
	.loc 1 131 10
	andi	a5,a5,63
	sd	a5,-24(s0)
	.loc 1 132 25
	ld	a4,-80(s0)
	ld	a5,-40(s0)
	sub	a5,a4,a5
	.loc 1 132 12
	srli	a5,a5,6
	sd	a5,-32(s0)
	j	.L10
.L9:
	.loc 1 134 10
	ld	a5,-80(s0)
	sd	a5,-40(s0)
	.loc 1 135 10
	sd	zero,-24(s0)
	.loc 1 136 12
	sd	zero,-32(s0)
.L10:
	.loc 1 139 6
	ld	a5,-40(s0)
	beq	a5,zero,.L11
	.loc 1 140 28
	ld	a1,-40(s0)
	li	a0,1
	call	LShiftU64@plt
	mv	a5,a0
	.loc 1 140 17 discriminator 1
	addi	a5,a5,-1
	ld	a1,-48(s0)
	mv	a0,a5
	call	LShiftU64@plt
	mv	a5,a0
	.loc 1 140 16 discriminator 2
	not	a4,a5
	.loc 1 140 5 discriminator 2
	ld	a5,-88(s0)
	ld	a5,0(a5)
	.loc 1 140 13 discriminator 2
	and	a4,a4,a5
	ld	a5,-88(s0)
	sd	a4,0(a5)
	.loc 1 141 12
	ld	a5,-88(s0)
	addi	a5,a5,8
	sd	a5,-88(s0)
.L11:
	.loc 1 144 6
	ld	a5,-32(s0)
	beq	a5,zero,.L12
	.loc 1 145 5
	ld	a5,-32(s0)
	slli	a5,a5,3
	li	a2,0
	mv	a1,a5
	ld	a0,-88(s0)
	call	SetMem64@plt
	.loc 1 146 12
	ld	a5,-32(s0)
	slli	a5,a5,3
	ld	a4,-88(s0)
	add	a5,a4,a5
	sd	a5,-88(s0)
.L12:
	.loc 1 149 6
	ld	a5,-24(s0)
	beq	a5,zero,.L14
	.loc 1 150 18
	ld	a1,-24(s0)
	li	a0,1
	call	LShiftU64@plt
	mv	a5,a0
	.loc 1 150 16 discriminator 1
	neg	a4,a5
	.loc 1 150 5 discriminator 1
	ld	a5,-88(s0)
	ld	a5,0(a5)
	.loc 1 150 13 discriminator 1
	and	a4,a4,a5
	ld	a5,-88(s0)
	sd	a4,0(a5)
.L14:
	.loc 1 152 1
	nop
	ld	ra,88(sp)
	.cfi_restore 1
	ld	s0,80(sp)
	.cfi_restore 8
	.cfi_def_cfa 2, 96
	addi	sp,sp,96
	.cfi_def_cfa_offset 0
	jr	ra
	.cfi_endproc
.LFE1:
	.size	ClearBits, .-ClearBits
	.section	.text.GetBits,"ax",@progbits
	.align	1
	.type	GetBits, @function
GetBits:
.LFB2:
	.loc 1 173 1
	.cfi_startproc
	addi	sp,sp,-112
	.cfi_def_cfa_offset 112
	sd	ra,104(sp)
	sd	s0,96(sp)
	sd	s1,88(sp)
	.cfi_offset 1, -8
	.cfi_offset 8, -16
	.cfi_offset 9, -24
	addi	s0,sp,112
	.cfi_def_cfa 8, 0
	sd	a0,-88(s0)
	sd	a1,-96(s0)
	sd	a2,-104(s0)
	.loc 1 182 22
	li	a1,12
	ld	a0,-88(s0)
	call	RShiftU64@plt
	mv	a5,a0
	.loc 1 182 12 discriminator 1
	andi	a5,a5,63
	sd	a5,-64(s0)
	.loc 1 183 22
	ld	a4,-64(s0)
	ld	a5,-96(s0)
	add	a5,a4,a5
	.loc 1 183 34
	addi	a5,a5,-1
	.loc 1 183 10
	andi	a5,a5,63
	sd	a5,-72(s0)
	.loc 1 185 17
	ld	a4,-64(s0)
	ld	a5,-96(s0)
	add	a4,a4,a5
	.loc 1 185 6
	li	a5,64
	bleu	a4,a5,.L16
	.loc 1 186 10
	li	a4,64
	ld	a5,-64(s0)
	sub	a5,a4,a5
	sd	a5,-48(s0)
	.loc 1 187 20
	ld	a5,-72(s0)
	addi	a5,a5,1
	.loc 1 187 10
	andi	a5,a5,63
	sd	a5,-40(s0)
	j	.L17
.L16:
	.loc 1 189 10
	ld	a5,-96(s0)
	sd	a5,-48(s0)
	.loc 1 190 10
	sd	zero,-40(s0)
.L17:
	.loc 1 193 6
	ld	a5,-64(s0)
	bne	a5,zero,.L18
	.loc 1 193 23 discriminator 1
	ld	a4,-96(s0)
	li	a5,64
	bne	a4,a5,.L18
	.loc 1 194 12
	ld	a5,-104(s0)
	ld	a5,0(a5)
	sd	a5,-56(s0)
	j	.L19
.L18:
	.loc 1 196 14
	ld	a5,-104(s0)
	ld	a5,0(a5)
	ld	a1,-64(s0)
	mv	a0,a5
	call	RShiftU64@plt
	mv	s1,a0
	.loc 1 196 49 discriminator 1
	ld	a1,-48(s0)
	li	a0,1
	call	LShiftU64@plt
	mv	a5,a0
	.loc 1 196 69 discriminator 2
	addi	a5,a5,-1
	.loc 1 196 12 discriminator 2
	and	a5,s1,a5
	sd	a5,-56(s0)
	.loc 1 197 8
	ld	a5,-40(s0)
	beq	a5,zero,.L19
	.loc 1 198 14
	ld	a5,-104(s0)
	addi	a5,a5,8
	sd	a5,-104(s0)
	.loc 1 199 29
	ld	a5,-104(s0)
	ld	s1,0(a5)
	.loc 1 199 41
	ld	a1,-40(s0)
	li	a0,1
	call	LShiftU64@plt
	mv	a5,a0
	.loc 1 199 61 discriminator 1
	addi	a5,a5,-1
	.loc 1 199 17 discriminator 1
	and	a5,s1,a5
	ld	a1,-48(s0)
	mv	a0,a5
	call	LShiftU64@plt
	mv	a4,a0
	.loc 1 199 14 discriminator 2
	ld	a5,-56(s0)
	or	a5,a5,a4
	sd	a5,-56(s0)
.L19:
	.loc 1 203 10
	ld	a5,-56(s0)
	.loc 1 204 1
	mv	a0,a5
	ld	ra,104(sp)
	.cfi_restore 1
	ld	s0,96(sp)
	.cfi_restore 8
	.cfi_def_cfa 2, 112
	ld	s1,88(sp)
	.cfi_restore 9
	addi	sp,sp,112
	.cfi_def_cfa_offset 0
	jr	ra
	.cfi_endproc
.LFE2:
	.size	GetBits, .-GetBits
	.section	.text.FindGuardedMemoryMap,"ax",@progbits
	.align	1
	.globl	FindGuardedMemoryMap
	.type	FindGuardedMemoryMap, @function
FindGuardedMemoryMap:
.LFB3:
	.loc 1 222 1
	.cfi_startproc
	addi	sp,sp,-112
	.cfi_def_cfa_offset 112
	sd	ra,104(sp)
	sd	s0,96(sp)
	.cfi_offset 1, -8
	.cfi_offset 8, -16
	addi	s0,sp,112
	.cfi_def_cfa 8, 0
	sd	a0,-88(s0)
	mv	a5,a1
	sd	a2,-104(s0)
	sb	a5,-89(s0)
	.loc 1 231 13
	sd	zero,-72(s0)
	.loc 1 236 9
	j	.L22
.L27:
	.loc 1 243 27
	lla	a5,mGuardedMemoryMap
	ld	a5,0(a5)
	.loc 1 243 8
	beq	a5,zero,.L23
	.loc 1 244 40
	lla	a5,mMapLevel
	ld	a5,0(a5)
	li	a4,4
	sub	a5,a4,a5
	.loc 1 244 25
	lla	a4,mLevelMask
	slli	a5,a5,3
	add	a5,a4,a5
	ld	a5,0(a5)
	.loc 1 244 45
	addi	a5,a5,1
	.loc 1 244 12
	slli	a5,a5,3
	sd	a5,-40(s0)
	.loc 1 249 27
	ld	a5,-40(s0)
	srli	a4,a5,12
	.loc 1 249 45
	ld	a3,-40(s0)
	li	a5,4096
	addi	a5,a5,-1
	and	a5,a3,a5
	.loc 1 249 58
	beq	a5,zero,.L24
	.loc 1 249 58 is_stmt 0 discriminator 1
	li	a5,1
	j	.L25
.L24:
	.loc 1 249 58 discriminator 2
	li	a5,0
.L25:
	.loc 1 246 16 is_stmt 1
	add	a5,a5,a4
	addi	a3,s0,-72
	li	a4,0
	mv	a2,a5
	li	a1,4
	li	a0,0
	call	CoreInternalAllocatePages@plt
	sd	a0,-48(s0)
	.loc 1 256 7
	ld	a5,-72(s0)
	li	a2,0
	ld	a1,-40(s0)
	mv	a0,a5
	call	SetMem@plt
	.loc 1 258 8
	ld	a5,-72(s0)
	mv	a4,a5
	.loc 1 258 35
	lla	a5,mGuardedMemoryMap
	ld	a5,0(a5)
	sd	a5,0(a4)
	.loc 1 259 25
	ld	a4,-72(s0)
	lla	a5,mGuardedMemoryMap
	sd	a4,0(a5)
.L23:
	.loc 1 262 14
	lla	a5,mMapLevel
	ld	a5,0(a5)
	addi	a4,a5,1
	lla	a5,mMapLevel
	sd	a4,0(a5)
.L22:
	.loc 1 237 24
	lbu	a5,-89(s0)
	andi	a5,a5,0xff
	beq	a5,zero,.L26
	.loc 1 237 20 discriminator 1
	lla	a5,mMapLevel
	ld	a4,0(a5)
	.loc 1 236 23
	li	a5,4
	bgtu	a4,a5,.L26
	.loc 1 240 38
	lla	a5,mMapLevel
	ld	a5,0(a5)
	li	a4,4
	sub	a5,a4,a5
	.loc 1 238 10
	lla	a4,mLevelShift
	slli	a5,a5,3
	add	a5,a4,a5
	ld	a5,0(a5)
	mv	a1,a5
	ld	a0,-88(s0)
	call	RShiftU64@plt
	mv	a5,a0
	.loc 1 237 24
	bne	a5,zero,.L27
.L26:
	.loc 1 265 12
	lla	a5,mGuardedMemoryMap
	sd	a5,-32(s0)
	.loc 1 266 18
	lla	a5,mMapLevel
	ld	a5,0(a5)
	.loc 1 266 14
	li	a4,5
	sub	a5,a4,a5
	sd	a5,-24(s0)
	.loc 1 266 3
	j	.L28
.L34:
	.loc 1 270 9
	ld	a5,-32(s0)
	ld	a5,0(a5)
	.loc 1 270 8
	bne	a5,zero,.L29
	.loc 1 271 10
	lbu	a5,-89(s0)
	andi	a5,a5,0xff
	bne	a5,zero,.L30
	.loc 1 272 18
	sd	zero,-32(s0)
	.loc 1 273 9
	j	.L31
.L30:
	.loc 1 276 25
	lla	a4,mLevelMask
	ld	a5,-24(s0)
	slli	a5,a5,3
	add	a5,a4,a5
	ld	a5,0(a5)
	.loc 1 276 33
	addi	a5,a5,1
	.loc 1 276 12
	slli	a5,a5,3
	sd	a5,-40(s0)
	.loc 1 280 27
	ld	a5,-40(s0)
	srli	a4,a5,12
	.loc 1 280 45
	ld	a3,-40(s0)
	li	a5,4096
	addi	a5,a5,-1
	and	a5,a3,a5
	.loc 1 280 58
	beq	a5,zero,.L32
	.loc 1 280 58 is_stmt 0 discriminator 1
	li	a5,1
	j	.L33
.L32:
	.loc 1 280 58 discriminator 2
	li	a5,0
.L33:
	.loc 1 277 16 is_stmt 1
	add	a5,a5,a4
	addi	a3,s0,-72
	li	a4,0
	mv	a2,a5
	li	a1,4
	li	a0,0
	call	CoreInternalAllocatePages@plt
	sd	a0,-48(s0)
	.loc 1 287 7
	ld	a5,-72(s0)
	li	a2,0
	ld	a1,-40(s0)
	mv	a0,a5
	call	SetMem@plt
	.loc 1 288 17
	ld	a4,-72(s0)
	ld	a5,-32(s0)
	sd	a4,0(a5)
.L29:
	.loc 1 291 20
	lla	a4,mLevelShift
	ld	a5,-24(s0)
	slli	a5,a5,3
	add	a5,a4,a5
	ld	a5,0(a5)
	mv	a1,a5
	ld	a0,-88(s0)
	call	RShiftU64@plt
	sd	a0,-56(s0)
	.loc 1 292 24
	lla	a4,mLevelMask
	ld	a5,-24(s0)
	slli	a5,a5,3
	add	a5,a4,a5
	ld	a5,0(a5)
	.loc 1 292 11
	ld	a4,-56(s0)
	and	a5,a4,a5
	sd	a5,-56(s0)
	.loc 1 293 35
	ld	a5,-32(s0)
	ld	a4,0(a5)
	.loc 1 293 54
	ld	a5,-56(s0)
	slli	a5,a5,3
	.loc 1 293 26
	add	a5,a4,a5
	.loc 1 293 14
	sd	a5,-32(s0)
	.loc 1 268 8
	ld	a5,-24(s0)
	addi	a5,a5,1
	sd	a5,-24(s0)
.L28:
	.loc 1 267 14
	ld	a4,-24(s0)
	li	a5,4
	bleu	a4,a5,.L34
.L31:
	.loc 1 296 70
	li	a1,12
	ld	a0,-88(s0)
	call	RShiftU64@plt
	mv	a5,a0
	.loc 1 296 94 discriminator 1
	slli	a5,a5,48
	srli	a5,a5,48
	.loc 1 296 17 discriminator 1
	li	a4,65536
	sub	a5,a4,a5
	sd	a5,-64(s0)
	.loc 1 297 11
	ld	a5,-104(s0)
	ld	a4,-32(s0)
	sd	a4,0(a5)
	.loc 1 299 10
	ld	a5,-64(s0)
	.loc 1 300 1
	mv	a0,a5
	ld	ra,104(sp)
	.cfi_restore 1
	ld	s0,96(sp)
	.cfi_restore 8
	.cfi_def_cfa 2, 112
	addi	sp,sp,112
	.cfi_def_cfa_offset 0
	jr	ra
	.cfi_endproc
.LFE3:
	.size	FindGuardedMemoryMap, .-FindGuardedMemoryMap
	.section	.text.SetGuardedMemoryBits,"ax",@progbits
	.align	1
	.globl	SetGuardedMemoryBits
	.type	SetGuardedMemoryBits, @function
SetGuardedMemoryBits:
.LFB4:
	.loc 1 316 1
	.cfi_startproc
	addi	sp,sp,-64
	.cfi_def_cfa_offset 64
	sd	ra,56(sp)
	sd	s0,48(sp)
	.cfi_offset 1, -8
	.cfi_offset 8, -16
	addi	s0,sp,64
	.cfi_def_cfa 8, 0
	sd	a0,-56(s0)
	sd	a1,-64(s0)
	.loc 1 321 9
	j	.L37
.L40:
	.loc 1 322 21
	addi	a5,s0,-40
	mv	a2,a5
	li	a1,1
	ld	a0,-56(s0)
	call	FindGuardedMemoryMap
	sd	a0,-32(s0)
	.loc 1 325 8
	ld	a4,-64(s0)
	ld	a5,-32(s0)
	bleu	a4,a5,.L38
	.loc 1 327 12
	ld	a5,-32(s0)
	sd	a5,-24(s0)
	j	.L39
.L38:
	.loc 1 329 12
	ld	a5,-64(s0)
	sd	a5,-24(s0)
.L39:
	.loc 1 332 5
	ld	a5,-40(s0)
	mv	a2,a5
	ld	a1,-24(s0)
	ld	a0,-56(s0)
	call	SetBits
	.loc 1 334 19
	ld	a4,-64(s0)
	ld	a5,-24(s0)
	sub	a5,a4,a5
	sd	a5,-64(s0)
	.loc 1 335 24
	ld	a5,-24(s0)
	slli	a5,a5,12
	.loc 1 335 13
	ld	a4,-56(s0)
	add	a5,a4,a5
	sd	a5,-56(s0)
.L37:
	.loc 1 321 24
	ld	a5,-64(s0)
	bne	a5,zero,.L40
	.loc 1 337 1
	nop
	nop
	ld	ra,56(sp)
	.cfi_restore 1
	ld	s0,48(sp)
	.cfi_restore 8
	.cfi_def_cfa 2, 64
	addi	sp,sp,64
	.cfi_def_cfa_offset 0
	jr	ra
	.cfi_endproc
.LFE4:
	.size	SetGuardedMemoryBits, .-SetGuardedMemoryBits
	.section	.text.ClearGuardedMemoryBits,"ax",@progbits
	.align	1
	.globl	ClearGuardedMemoryBits
	.type	ClearGuardedMemoryBits, @function
ClearGuardedMemoryBits:
.LFB5:
	.loc 1 353 1
	.cfi_startproc
	addi	sp,sp,-64
	.cfi_def_cfa_offset 64
	sd	ra,56(sp)
	sd	s0,48(sp)
	.cfi_offset 1, -8
	.cfi_offset 8, -16
	addi	s0,sp,64
	.cfi_def_cfa 8, 0
	sd	a0,-56(s0)
	sd	a1,-64(s0)
	.loc 1 358 9
	j	.L42
.L45:
	.loc 1 359 21
	addi	a5,s0,-40
	mv	a2,a5
	li	a1,1
	ld	a0,-56(s0)
	call	FindGuardedMemoryMap
	sd	a0,-32(s0)
	.loc 1 362 8
	ld	a4,-64(s0)
	ld	a5,-32(s0)
	bleu	a4,a5,.L43
	.loc 1 364 12
	ld	a5,-32(s0)
	sd	a5,-24(s0)
	j	.L44
.L43:
	.loc 1 366 12
	ld	a5,-64(s0)
	sd	a5,-24(s0)
.L44:
	.loc 1 369 5
	ld	a5,-40(s0)
	mv	a2,a5
	ld	a1,-24(s0)
	ld	a0,-56(s0)
	call	ClearBits
	.loc 1 371 19
	ld	a4,-64(s0)
	ld	a5,-24(s0)
	sub	a5,a4,a5
	sd	a5,-64(s0)
	.loc 1 372 24
	ld	a5,-24(s0)
	slli	a5,a5,12
	.loc 1 372 13
	ld	a4,-56(s0)
	add	a5,a4,a5
	sd	a5,-56(s0)
.L42:
	.loc 1 358 24
	ld	a5,-64(s0)
	bne	a5,zero,.L45
	.loc 1 374 1
	nop
	nop
	ld	ra,56(sp)
	.cfi_restore 1
	ld	s0,48(sp)
	.cfi_restore 8
	.cfi_def_cfa 2, 64
	addi	sp,sp,64
	.cfi_def_cfa_offset 0
	jr	ra
	.cfi_endproc
.LFE5:
	.size	ClearGuardedMemoryBits, .-ClearGuardedMemoryBits
	.section	.text.GetGuardedMemoryBits,"ax",@progbits
	.align	1
	.globl	GetGuardedMemoryBits
	.type	GetGuardedMemoryBits, @function
GetGuardedMemoryBits:
.LFB6:
	.loc 1 389 1
	.cfi_startproc
	addi	sp,sp,-80
	.cfi_def_cfa_offset 80
	sd	ra,72(sp)
	sd	s0,64(sp)
	.cfi_offset 1, -8
	.cfi_offset 8, -16
	addi	s0,sp,80
	.cfi_def_cfa 8, 0
	sd	a0,-72(s0)
	sd	a1,-80(s0)
	.loc 1 398 10
	sd	zero,-32(s0)
	.loc 1 399 9
	sd	zero,-40(s0)
	.loc 1 400 9
	j	.L47
.L51:
	.loc 1 401 21
	addi	a5,s0,-56
	mv	a2,a5
	li	a1,0
	ld	a0,-72(s0)
	call	FindGuardedMemoryMap
	sd	a0,-48(s0)
	.loc 1 403 8
	ld	a4,-80(s0)
	ld	a5,-48(s0)
	bleu	a4,a5,.L48
	.loc 1 405 12
	ld	a5,-48(s0)
	sd	a5,-24(s0)
	j	.L49
.L48:
	.loc 1 407 12
	ld	a5,-80(s0)
	sd	a5,-24(s0)
.L49:
	.loc 1 410 16
	ld	a5,-56(s0)
	.loc 1 410 8
	beq	a5,zero,.L50
	.loc 1 411 17
	ld	a5,-56(s0)
	mv	a2,a5
	ld	a1,-24(s0)
	ld	a0,-72(s0)
	call	GetBits
	mv	a5,a0
	.loc 1 411 17 is_stmt 0 discriminator 1
	ld	a1,-40(s0)
	mv	a0,a5
	call	LShiftU64@plt
	mv	a4,a0
	.loc 1 411 14 is_stmt 1 discriminator 2
	ld	a5,-32(s0)
	or	a5,a5,a4
	sd	a5,-32(s0)
.L50:
	.loc 1 414 11
	ld	a4,-40(s0)
	ld	a5,-24(s0)
	add	a5,a4,a5
	sd	a5,-40(s0)
	.loc 1 415 19
	ld	a4,-80(s0)
	ld	a5,-24(s0)
	sub	a5,a4,a5
	sd	a5,-80(s0)
	.loc 1 416 24
	ld	a5,-24(s0)
	slli	a5,a5,12
	.loc 1 416 13
	ld	a4,-72(s0)
	add	a5,a4,a5
	sd	a5,-72(s0)
.L47:
	.loc 1 400 24
	ld	a5,-80(s0)
	bne	a5,zero,.L51
	.loc 1 419 10
	ld	a5,-32(s0)
	.loc 1 420 1
	mv	a0,a5
	ld	ra,72(sp)
	.cfi_restore 1
	ld	s0,64(sp)
	.cfi_restore 8
	.cfi_def_cfa 2, 80
	addi	sp,sp,80
	.cfi_def_cfa_offset 0
	jr	ra
	.cfi_endproc
.LFE6:
	.size	GetGuardedMemoryBits, .-GetGuardedMemoryBits
	.section	.text.GetGuardMapBit,"ax",@progbits
	.align	1
	.globl	GetGuardMapBit
	.type	GetGuardMapBit, @function
GetGuardMapBit:
.LFB7:
	.loc 1 434 1
	.cfi_startproc
	addi	sp,sp,-64
	.cfi_def_cfa_offset 64
	sd	ra,56(sp)
	sd	s0,48(sp)
	sd	s1,40(sp)
	.cfi_offset 1, -8
	.cfi_offset 8, -16
	.cfi_offset 9, -24
	addi	s0,sp,64
	.cfi_def_cfa 8, 0
	sd	a0,-56(s0)
	.loc 1 437 3
	addi	a5,s0,-40
	mv	a2,a5
	li	a1,0
	ld	a0,-56(s0)
	call	FindGuardedMemoryMap
	.loc 1 438 16
	ld	a5,-40(s0)
	.loc 1 438 6
	beq	a5,zero,.L54
	.loc 1 439 9
	ld	a5,-40(s0)
	ld	s1,0(a5)
	.loc 1 441 12
	li	a1,12
	ld	a0,-56(s0)
	call	RShiftU64@plt
	mv	a5,a0
	.loc 1 439 9
	andi	a5,a5,63
	mv	a1,a5
	mv	a0,s1
	call	RShiftU64@plt
	mv	a5,a0
	.loc 1 442 13
	andi	a5,a5,1
	.loc 1 439 8
	beq	a5,zero,.L54
	.loc 1 444 14
	li	a5,1
	j	.L56
.L54:
	.loc 1 448 10
	li	a5,0
.L56:
	.loc 1 449 1
	mv	a0,a5
	ld	ra,56(sp)
	.cfi_restore 1
	ld	s0,48(sp)
	.cfi_restore 8
	.cfi_def_cfa 2, 64
	ld	s1,40(sp)
	.cfi_restore 9
	addi	sp,sp,64
	.cfi_def_cfa_offset 0
	jr	ra
	.cfi_endproc
.LFE7:
	.size	GetGuardMapBit, .-GetGuardMapBit
	.section	.text.IsGuardPage,"ax",@progbits
	.align	1
	.globl	IsGuardPage
	.type	IsGuardPage, @function
IsGuardPage:
.LFB8:
	.loc 1 464 1
	.cfi_startproc
	addi	sp,sp,-48
	.cfi_def_cfa_offset 48
	sd	ra,40(sp)
	sd	s0,32(sp)
	.cfi_offset 1, -8
	.cfi_offset 8, -16
	addi	s0,sp,48
	.cfi_def_cfa 8, 0
	sd	a0,-40(s0)
	.loc 1 472 12
	ld	a4,-40(s0)
	li	a5,-4096
	add	a5,a4,a5
	li	a1,3
	mv	a0,a5
	call	GetGuardedMemoryBits
	sd	a0,-24(s0)
	.loc 1 473 60
	ld	a4,-24(s0)
	li	a5,1
	beq	a4,a5,.L58
	.loc 1 473 34 discriminator 2
	ld	a4,-24(s0)
	li	a5,4
	beq	a4,a5,.L58
	.loc 1 473 60 discriminator 4
	ld	a4,-24(s0)
	li	a5,5
	bne	a4,a5,.L59
.L58:
	.loc 1 473 60 is_stmt 0 discriminator 5
	li	a5,1
	.loc 1 473 60
	j	.L60
.L59:
	.loc 1 473 60 discriminator 6
	li	a5,0
.L60:
	.loc 1 473 60 discriminator 8
	andi	a5,a5,0xff
	.loc 1 474 1 is_stmt 1
	mv	a0,a5
	ld	ra,40(sp)
	.cfi_restore 1
	ld	s0,32(sp)
	.cfi_restore 8
	.cfi_def_cfa 2, 48
	addi	sp,sp,48
	.cfi_def_cfa_offset 0
	jr	ra
	.cfi_endproc
.LFE8:
	.size	IsGuardPage, .-IsGuardPage
	.section	.text.IsMemoryGuarded,"ax",@progbits
	.align	1
	.globl	IsMemoryGuarded
	.type	IsMemoryGuarded, @function
IsMemoryGuarded:
.LFB9:
	.loc 1 489 1
	.cfi_startproc
	addi	sp,sp,-32
	.cfi_def_cfa_offset 32
	sd	ra,24(sp)
	sd	s0,16(sp)
	.cfi_offset 1, -8
	.cfi_offset 8, -16
	addi	s0,sp,32
	.cfi_def_cfa 8, 0
	sd	a0,-24(s0)
	.loc 1 490 11
	ld	a0,-24(s0)
	call	GetGuardMapBit
	mv	a5,a0
	.loc 1 490 36 discriminator 1
	addi	a5,a5,-1
	seqz	a5,a5
	andi	a5,a5,0xff
	.loc 1 491 1
	mv	a0,a5
	ld	ra,24(sp)
	.cfi_restore 1
	ld	s0,16(sp)
	.cfi_restore 8
	.cfi_def_cfa 2, 32
	addi	sp,sp,32
	.cfi_def_cfa_offset 0
	jr	ra
	.cfi_endproc
.LFE9:
	.size	IsMemoryGuarded, .-IsMemoryGuarded
	.section	.text.SetGuardPage,"ax",@progbits
	.align	1
	.globl	SetGuardPage
	.type	SetGuardPage, @function
SetGuardPage:
.LFB10:
	.loc 1 507 1
	.cfi_startproc
	addi	sp,sp,-48
	.cfi_def_cfa_offset 48
	sd	ra,40(sp)
	sd	s0,32(sp)
	.cfi_offset 1, -8
	.cfi_offset 8, -16
	addi	s0,sp,48
	.cfi_def_cfa 8, 0
	sd	a0,-40(s0)
	.loc 1 510 12
	la	a5,gCpu
	ld	a5,0(a5)
	.loc 1 510 6
	beq	a5,zero,.L67
	.loc 1 518 15
	lla	a5,mOnGuarding
	li	a4,1
	sb	a4,0(a5)
	.loc 1 523 16
	la	a5,gCpu
	ld	a5,0(a5)
	ld	a5,56(a5)
	.loc 1 523 12
	la	a4,gCpu
	ld	a4,0(a4)
	li	a3,8192
	li	a2,4096
	ld	a1,-40(s0)
	mv	a0,a4
	jalr	a5
.LVL0:
	sd	a0,-24(s0)
	.loc 1 525 15
	lla	a5,mOnGuarding
	sb	zero,0(a5)
	j	.L64
.L67:
	.loc 1 511 5
	nop
.L64:
	.loc 1 526 1
	ld	ra,40(sp)
	.cfi_restore 1
	ld	s0,32(sp)
	.cfi_restore 8
	.cfi_def_cfa 2, 48
	addi	sp,sp,48
	.cfi_def_cfa_offset 0
	jr	ra
	.cfi_endproc
.LFE10:
	.size	SetGuardPage, .-SetGuardPage
	.section	.text.UnsetGuardPage,"ax",@progbits
	.align	1
	.globl	UnsetGuardPage
	.type	UnsetGuardPage, @function
UnsetGuardPage:
.LFB11:
	.loc 1 542 1
	.cfi_startproc
	addi	sp,sp,-48
	.cfi_def_cfa_offset 48
	sd	ra,40(sp)
	sd	s0,32(sp)
	.cfi_offset 1, -8
	.cfi_offset 8, -16
	addi	s0,sp,48
	.cfi_def_cfa 8, 0
	sd	a0,-40(s0)
	.loc 1 546 12
	la	a5,gCpu
	ld	a5,0(a5)
	.loc 1 546 6
	beq	a5,zero,.L72
	.loc 1 555 14
	sd	zero,-24(s0)
	.loc 1 556 58
	la	a5,_gPcd_FixedAtBuild_PcdDxeNxMemoryProtectionPolicy
	ld	a5,0(a5)
	andi	a5,a5,128
	.loc 1 556 6
	beq	a5,zero,.L71
	.loc 1 557 16
	ld	a4,-24(s0)
	li	a5,16384
	or	a5,a4,a5
	sd	a5,-24(s0)
.L71:
	.loc 1 564 15
	lla	a5,mOnGuarding
	li	a4,1
	sb	a4,0(a5)
	.loc 1 570 16
	la	a5,gCpu
	ld	a5,0(a5)
	ld	a5,56(a5)
	.loc 1 570 12
	la	a4,gCpu
	ld	a4,0(a4)
	ld	a3,-24(s0)
	li	a2,4096
	ld	a1,-40(s0)
	mv	a0,a4
	jalr	a5
.LVL1:
	sd	a0,-32(s0)
	.loc 1 572 15
	lla	a5,mOnGuarding
	sb	zero,0(a5)
	j	.L68
.L72:
	.loc 1 547 5
	nop
.L68:
	.loc 1 573 1
	ld	ra,40(sp)
	.cfi_restore 1
	ld	s0,32(sp)
	.cfi_restore 8
	.cfi_def_cfa 2, 48
	addi	sp,sp,48
	.cfi_def_cfa_offset 0
	jr	ra
	.cfi_endproc
.LFE11:
	.size	UnsetGuardPage, .-UnsetGuardPage
	.section	.text.IsMemoryTypeToGuard,"ax",@progbits
	.align	1
	.globl	IsMemoryTypeToGuard
	.type	IsMemoryTypeToGuard, @function
IsMemoryTypeToGuard:
.LFB12:
	.loc 1 592 1
	.cfi_startproc
	addi	sp,sp,-48
	.cfi_def_cfa_offset 48
	sd	ra,40(sp)
	sd	s0,32(sp)
	.cfi_offset 1, -8
	.cfi_offset 8, -16
	addi	s0,sp,48
	.cfi_def_cfa 8, 0
	mv	a5,a0
	mv	a3,a1
	mv	a4,a2
	sw	a5,-36(s0)
	mv	a5,a3
	sw	a5,-40(s0)
	mv	a5,a4
	sb	a5,-41(s0)
	.loc 1 596 6
	lw	a5,-40(s0)
	sext.w	a4,a5
	li	a5,2
	bne	a4,a5,.L74
	.loc 1 597 12
	li	a5,0
	j	.L75
.L74:
	.loc 1 600 66
	la	a5,_gPcd_FixedAtBuild_PcdHeapGuardPropertyMask
	lbu	a5,0(a5)
	lbu	a4,-41(s0)
	and	a5,a5,a4
	andi	a5,a5,0xff
	.loc 1 600 6
	bne	a5,zero,.L76
	.loc 1 601 12
	li	a5,0
	j	.L75
.L76:
	.loc 1 604 6
	lbu	a5,-41(s0)
	andi	a4,a5,0xff
	li	a5,2
	bne	a4,a5,.L77
	.loc 1 605 15
	la	a5,_gPcd_FixedAtBuild_PcdHeapGuardPoolType
	ld	a5,0(a5)
	sd	a5,-32(s0)
	j	.L78
.L77:
	.loc 1 606 13
	lbu	a5,-41(s0)
	andi	a4,a5,0xff
	li	a5,1
	bne	a4,a5,.L79
	.loc 1 607 15
	la	a5,_gPcd_FixedAtBuild_PcdHeapGuardPageType
	ld	a5,0(a5)
	sd	a5,-32(s0)
	j	.L78
.L79:
	.loc 1 609 15
	li	a5,-1
	sd	a5,-32(s0)
.L78:
	.loc 1 612 26
	lw	a5,-36(s0)
	.loc 1 612 6
	bge	a5,zero,.L80
	.loc 1 613 13
	li	a5,-1
	slli	a5,a5,63
	sd	a5,-24(s0)
	j	.L81
.L80:
	.loc 1 614 13
	lw	a5,-36(s0)
	sext.w	a4,a5
	li	a5,1879048192
	bltu	a4,a5,.L82
	.loc 1 615 13
	li	a5,1
	slli	a5,a5,62
	sd	a5,-24(s0)
	j	.L81
.L82:
	.loc 1 616 13
	lw	a5,-36(s0)
	sext.w	a4,a5
	li	a5,15
	bgtu	a4,a5,.L83
	.loc 1 617 15
	lwu	a5,-36(s0)
	mv	a1,a5
	li	a0,1
	call	LShiftU64@plt
	sd	a0,-24(s0)
	j	.L81
.L83:
	.loc 1 618 13
	lw	a5,-36(s0)
	sext.w	a4,a5
	li	a5,16
	bne	a4,a5,.L84
	.loc 1 619 13
	li	a5,-1
	sd	a5,-24(s0)
	j	.L81
.L84:
	.loc 1 621 13
	sd	zero,-24(s0)
.L81:
	.loc 1 624 22
	ld	a4,-32(s0)
	ld	a5,-24(s0)
	and	a5,a4,a5
	.loc 1 624 33
	snez	a5,a5
	andi	a5,a5,0xff
.L75:
	.loc 1 625 1
	mv	a0,a5
	ld	ra,40(sp)
	.cfi_restore 1
	ld	s0,32(sp)
	.cfi_restore 8
	.cfi_def_cfa 2, 48
	addi	sp,sp,48
	.cfi_def_cfa_offset 0
	jr	ra
	.cfi_endproc
.LFE12:
	.size	IsMemoryTypeToGuard, .-IsMemoryTypeToGuard
	.section	.text.IsPoolTypeToGuard,"ax",@progbits
	.align	1
	.globl	IsPoolTypeToGuard
	.type	IsPoolTypeToGuard, @function
IsPoolTypeToGuard:
.LFB13:
	.loc 1 640 1
	.cfi_startproc
	addi	sp,sp,-32
	.cfi_def_cfa_offset 32
	sd	ra,24(sp)
	sd	s0,16(sp)
	.cfi_offset 1, -8
	.cfi_offset 8, -16
	addi	s0,sp,32
	.cfi_def_cfa 8, 0
	mv	a5,a0
	sw	a5,-20(s0)
	.loc 1 641 10
	lw	a5,-20(s0)
	li	a2,2
	li	a1,0
	mv	a0,a5
	call	IsMemoryTypeToGuard
	mv	a5,a0
	.loc 1 646 1
	mv	a0,a5
	ld	ra,24(sp)
	.cfi_restore 1
	ld	s0,16(sp)
	.cfi_restore 8
	.cfi_def_cfa 2, 32
	addi	sp,sp,32
	.cfi_def_cfa_offset 0
	jr	ra
	.cfi_endproc
.LFE13:
	.size	IsPoolTypeToGuard, .-IsPoolTypeToGuard
	.section	.text.IsPageTypeToGuard,"ax",@progbits
	.align	1
	.globl	IsPageTypeToGuard
	.type	IsPageTypeToGuard, @function
IsPageTypeToGuard:
.LFB14:
	.loc 1 662 1
	.cfi_startproc
	addi	sp,sp,-32
	.cfi_def_cfa_offset 32
	sd	ra,24(sp)
	sd	s0,16(sp)
	.cfi_offset 1, -8
	.cfi_offset 8, -16
	addi	s0,sp,32
	.cfi_def_cfa 8, 0
	mv	a5,a0
	mv	a4,a1
	sw	a5,-20(s0)
	mv	a5,a4
	sw	a5,-24(s0)
	.loc 1 663 10
	lw	a4,-24(s0)
	lw	a5,-20(s0)
	li	a2,1
	mv	a1,a4
	mv	a0,a5
	call	IsMemoryTypeToGuard
	mv	a5,a0
	.loc 1 664 1
	mv	a0,a5
	ld	ra,24(sp)
	.cfi_restore 1
	ld	s0,16(sp)
	.cfi_restore 8
	.cfi_def_cfa 2, 32
	addi	sp,sp,32
	.cfi_def_cfa_offset 0
	jr	ra
	.cfi_endproc
.LFE14:
	.size	IsPageTypeToGuard, .-IsPageTypeToGuard
	.section	.text.IsHeapGuardEnabled,"ax",@progbits
	.align	1
	.globl	IsHeapGuardEnabled
	.type	IsHeapGuardEnabled, @function
IsHeapGuardEnabled:
.LFB15:
	.loc 1 677 1
	.cfi_startproc
	addi	sp,sp,-32
	.cfi_def_cfa_offset 32
	sd	ra,24(sp)
	sd	s0,16(sp)
	.cfi_offset 1, -8
	.cfi_offset 8, -16
	addi	s0,sp,32
	.cfi_def_cfa 8, 0
	mv	a5,a0
	sb	a5,-17(s0)
	.loc 1 678 10
	lbu	a5,-17(s0)
	mv	a2,a5
	li	a1,0
	li	a0,16
	call	IsMemoryTypeToGuard
	mv	a5,a0
	.loc 1 679 1
	mv	a0,a5
	ld	ra,24(sp)
	.cfi_restore 1
	ld	s0,16(sp)
	.cfi_restore 8
	.cfi_def_cfa 2, 32
	addi	sp,sp,32
	.cfi_def_cfa_offset 0
	jr	ra
	.cfi_endproc
.LFE15:
	.size	IsHeapGuardEnabled, .-IsHeapGuardEnabled
	.section	.text.SetGuardForMemory,"ax",@progbits
	.align	1
	.globl	SetGuardForMemory
	.type	SetGuardForMemory, @function
SetGuardForMemory:
.LFB16:
	.loc 1 694 1
	.cfi_startproc
	addi	sp,sp,-48
	.cfi_def_cfa_offset 48
	sd	ra,40(sp)
	sd	s0,32(sp)
	.cfi_offset 1, -8
	.cfi_offset 8, -16
	addi	s0,sp,48
	.cfi_def_cfa 8, 0
	sd	a0,-40(s0)
	sd	a1,-48(s0)
	.loc 1 700 41
	ld	a5,-48(s0)
	slli	a5,a5,12
	.loc 1 700 13
	ld	a4,-40(s0)
	add	a5,a4,a5
	sd	a5,-24(s0)
	.loc 1 701 8
	ld	a0,-24(s0)
	call	IsGuardPage
	mv	a5,a0
	.loc 1 701 6 discriminator 1
	bne	a5,zero,.L92
	.loc 1 702 5
	ld	a0,-24(s0)
	call	SetGuardPage
.L92:
	.loc 1 706 13
	ld	a4,-40(s0)
	li	a5,-4096
	add	a5,a4,a5
	sd	a5,-24(s0)
	.loc 1 707 8
	ld	a0,-24(s0)
	call	IsGuardPage
	mv	a5,a0
	.loc 1 707 6 discriminator 1
	bne	a5,zero,.L93
	.loc 1 708 5
	ld	a0,-24(s0)
	call	SetGuardPage
.L93:
	.loc 1 714 3
	ld	a1,-48(s0)
	ld	a0,-40(s0)
	call	SetGuardedMemoryBits
	.loc 1 715 1
	nop
	ld	ra,40(sp)
	.cfi_restore 1
	ld	s0,32(sp)
	.cfi_restore 8
	.cfi_def_cfa 2, 48
	addi	sp,sp,48
	.cfi_def_cfa_offset 0
	jr	ra
	.cfi_endproc
.LFE16:
	.size	SetGuardForMemory, .-SetGuardForMemory
	.section	.text.UnsetGuardForMemory,"ax",@progbits
	.align	1
	.globl	UnsetGuardForMemory
	.type	UnsetGuardForMemory, @function
UnsetGuardForMemory:
.LFB17:
	.loc 1 730 1
	.cfi_startproc
	addi	sp,sp,-48
	.cfi_def_cfa_offset 48
	sd	ra,40(sp)
	sd	s0,32(sp)
	.cfi_offset 1, -8
	.cfi_offset 8, -16
	addi	s0,sp,48
	.cfi_def_cfa 8, 0
	sd	a0,-40(s0)
	sd	a1,-48(s0)
	.loc 1 734 6
	ld	a5,-48(s0)
	beq	a5,zero,.L101
	.loc 1 750 13
	ld	a4,-40(s0)
	li	a5,-4096
	add	a5,a4,a5
	sd	a5,-24(s0)
	.loc 1 751 17
	ld	a4,-40(s0)
	li	a5,-8192
	add	a5,a4,a5
	li	a1,2
	mv	a0,a5
	call	GetGuardedMemoryBits
	sd	a0,-32(s0)
	.loc 1 752 20
	ld	a5,-32(s0)
	andi	a5,a5,2
	.loc 1 752 6
	bne	a5,zero,.L97
	.loc 1 756 22
	ld	a5,-32(s0)
	andi	a5,a5,1
	.loc 1 756 8
	bne	a5,zero,.L98
	.loc 1 761 7
	ld	a0,-24(s0)
	call	UnsetGuardPage
	j	.L98
.L97:
	.loc 1 768 5
	ld	a0,-40(s0)
	call	SetGuardPage
.L98:
	.loc 1 783 41
	ld	a5,-48(s0)
	slli	a5,a5,12
	.loc 1 783 13
	ld	a4,-40(s0)
	add	a5,a4,a5
	sd	a5,-24(s0)
	.loc 1 784 17
	li	a1,2
	ld	a0,-24(s0)
	call	GetGuardedMemoryBits
	sd	a0,-32(s0)
	.loc 1 785 20
	ld	a5,-32(s0)
	andi	a5,a5,1
	.loc 1 785 6
	bne	a5,zero,.L99
	.loc 1 789 22
	ld	a5,-32(s0)
	andi	a5,a5,2
	.loc 1 789 8
	bne	a5,zero,.L100
	.loc 1 794 7
	ld	a0,-24(s0)
	call	UnsetGuardPage
	j	.L100
.L99:
	.loc 1 801 5
	ld	a4,-24(s0)
	li	a5,-4096
	add	a5,a4,a5
	mv	a0,a5
	call	SetGuardPage
.L100:
	.loc 1 807 3
	ld	a1,-48(s0)
	ld	a0,-40(s0)
	call	ClearGuardedMemoryBits
	j	.L94
.L101:
	.loc 1 735 5
	nop
.L94:
	.loc 1 808 1
	ld	ra,40(sp)
	.cfi_restore 1
	ld	s0,32(sp)
	.cfi_restore 8
	.cfi_def_cfa 2, 48
	addi	sp,sp,48
	.cfi_def_cfa_offset 0
	jr	ra
	.cfi_endproc
.LFE17:
	.size	UnsetGuardForMemory, .-UnsetGuardForMemory
	.section	.text.AdjustMemoryS,"ax",@progbits
	.align	1
	.globl	AdjustMemoryS
	.type	AdjustMemoryS, @function
AdjustMemoryS:
.LFB18:
	.loc 1 830 1
	.cfi_startproc
	addi	sp,sp,-64
	.cfi_def_cfa_offset 64
	sd	ra,56(sp)
	sd	s0,48(sp)
	.cfi_offset 1, -8
	.cfi_offset 8, -16
	addi	s0,sp,64
	.cfi_def_cfa 8, 0
	sd	a0,-40(s0)
	sd	a1,-48(s0)
	sd	a2,-56(s0)
	.loc 1 838 66
	la	a5,_gPcd_FixedAtBuild_PcdHeapGuardPropertyMask
	lbu	a5,0(a5)
	slliw	a5,a5,24
	sraiw	a5,a5,24
	.loc 1 838 6
	blt	a5,zero,.L103
	.loc 1 839 65
	ld	a5,-56(s0)
	neg	a5,a5
	andi	a5,a5,7
	.loc 1 839 19
	ld	a4,-56(s0)
	add	a5,a4,a5
	sd	a5,-56(s0)
.L103:
	.loc 1 842 18
	ld	a4,-40(s0)
	ld	a5,-48(s0)
	add	a4,a4,a5
	.loc 1 842 10
	ld	a5,-56(s0)
	sub	a5,a4,a5
	sd	a5,-24(s0)
	.loc 1 844 6
	ld	a5,-24(s0)
	bne	a5,zero,.L104
	.loc 1 845 12
	li	a5,0
	j	.L105
.L104:
	.loc 1 848 27
	ld	a4,-40(s0)
	ld	a5,-48(s0)
	add	a5,a4,a5
	.loc 1 848 8
	mv	a0,a5
	call	IsGuardPage
	mv	a5,a0
	.loc 1 848 6 discriminator 1
	bne	a5,zero,.L106
	.loc 1 850 12
	ld	a4,-24(s0)
	li	a5,-4096
	add	a5,a4,a5
	sd	a5,-24(s0)
.L106:
	.loc 1 854 6
	ld	a4,-24(s0)
	ld	a5,-40(s0)
	bgeu	a4,a5,.L107
	.loc 1 855 12
	li	a5,0
	j	.L105
.L107:
	.loc 1 859 6
	ld	a4,-24(s0)
	ld	a5,-40(s0)
	bne	a4,a5,.L108
	.loc 1 860 30
	ld	a4,-24(s0)
	li	a5,-4096
	add	a5,a4,a5
	.loc 1 860 10
	mv	a0,a5
	call	IsGuardPage
	mv	a5,a0
	.loc 1 860 8 discriminator 1
	bne	a5,zero,.L108
	.loc 1 862 14
	li	a5,0
	j	.L105
.L108:
	.loc 1 868 17
	ld	a4,-24(s0)
	ld	a5,-56(s0)
	add	a5,a4,a5
	.loc 1 868 33
	addi	a5,a5,-1
.L105:
	.loc 1 869 1
	mv	a0,a5
	ld	ra,56(sp)
	.cfi_restore 1
	ld	s0,48(sp)
	.cfi_restore 8
	.cfi_def_cfa 2, 64
	addi	sp,sp,64
	.cfi_def_cfa_offset 0
	jr	ra
	.cfi_endproc
.LFE18:
	.size	AdjustMemoryS, .-AdjustMemoryS
	.section	.text.AdjustMemoryF,"ax",@progbits
	.align	1
	.globl	AdjustMemoryF
	.type	AdjustMemoryF, @function
AdjustMemoryF:
.LFB19:
	.loc 1 888 1
	.cfi_startproc
	addi	sp,sp,-64
	.cfi_def_cfa_offset 64
	sd	ra,56(sp)
	sd	s0,48(sp)
	.cfi_offset 1, -8
	.cfi_offset 8, -16
	addi	s0,sp,64
	.cfi_def_cfa 8, 0
	sd	a0,-56(s0)
	sd	a1,-64(s0)
	.loc 1 894 6
	ld	a5,-56(s0)
	beq	a5,zero,.L117
	.loc 1 894 32 discriminator 1
	ld	a5,-64(s0)
	beq	a5,zero,.L117
	.loc 1 894 71 discriminator 2
	ld	a5,-64(s0)
	ld	a5,0(a5)
	.loc 1 894 67 discriminator 2
	beq	a5,zero,.L117
	.loc 1 898 9
	ld	a5,-56(s0)
	ld	a5,0(a5)
	sd	a5,-24(s0)
	.loc 1 899 15
	ld	a5,-64(s0)
	ld	a5,0(a5)
	sd	a5,-32(s0)
	.loc 1 913 16
	ld	a4,-24(s0)
	li	a5,-8192
	add	a5,a4,a5
	sd	a5,-40(s0)
	.loc 1 914 17
	li	a1,2
	ld	a0,-40(s0)
	call	GetGuardedMemoryBits
	sd	a0,-48(s0)
	.loc 1 915 20
	ld	a5,-48(s0)
	andi	a5,a5,2
	.loc 1 915 6
	bne	a5,zero,.L113
	.loc 1 919 22
	ld	a5,-48(s0)
	andi	a5,a5,1
	.loc 1 919 8
	bne	a5,zero,.L114
	.loc 1 924 13
	ld	a4,-24(s0)
	li	a5,-4096
	add	a5,a4,a5
	sd	a5,-24(s0)
	.loc 1 925 19
	ld	a5,-32(s0)
	addi	a5,a5,1
	sd	a5,-32(s0)
	j	.L114
.L113:
	.loc 1 932 11
	ld	a4,-24(s0)
	li	a5,4096
	add	a5,a4,a5
	sd	a5,-24(s0)
	.loc 1 933 17
	ld	a5,-32(s0)
	addi	a5,a5,-1
	sd	a5,-32(s0)
.L114:
	.loc 1 948 41
	ld	a5,-32(s0)
	slli	a5,a5,12
	.loc 1 948 16
	ld	a4,-24(s0)
	add	a5,a4,a5
	sd	a5,-40(s0)
	.loc 1 949 17
	li	a1,2
	ld	a0,-40(s0)
	call	GetGuardedMemoryBits
	sd	a0,-48(s0)
	.loc 1 950 20
	ld	a5,-48(s0)
	andi	a5,a5,1
	.loc 1 950 6
	bne	a5,zero,.L115
	.loc 1 954 22
	ld	a5,-48(s0)
	andi	a5,a5,2
	.loc 1 954 8
	bne	a5,zero,.L116
	.loc 1 959 19
	ld	a5,-32(s0)
	addi	a5,a5,1
	sd	a5,-32(s0)
	j	.L116
.L115:
	.loc 1 961 13
	ld	a5,-32(s0)
	beq	a5,zero,.L116
	.loc 1 966 17
	ld	a5,-32(s0)
	addi	a5,a5,-1
	sd	a5,-32(s0)
.L116:
	.loc 1 969 11
	ld	a5,-56(s0)
	ld	a4,-24(s0)
	sd	a4,0(a5)
	.loc 1 970 18
	ld	a5,-64(s0)
	ld	a4,-32(s0)
	sd	a4,0(a5)
	j	.L109
.L117:
	.loc 1 895 5
	nop
.L109:
	.loc 1 971 1
	ld	ra,56(sp)
	.cfi_restore 1
	ld	s0,48(sp)
	.cfi_restore 8
	.cfi_def_cfa 2, 64
	addi	sp,sp,64
	.cfi_def_cfa_offset 0
	jr	ra
	.cfi_endproc
.LFE19:
	.size	AdjustMemoryF, .-AdjustMemoryF
	.section	.text.AdjustMemoryA,"ax",@progbits
	.align	1
	.globl	AdjustMemoryA
	.type	AdjustMemoryA, @function
AdjustMemoryA:
.LFB20:
	.loc 1 986 1
	.cfi_startproc
	addi	sp,sp,-32
	.cfi_def_cfa_offset 32
	sd	ra,24(sp)
	sd	s0,16(sp)
	.cfi_offset 1, -8
	.cfi_offset 8, -16
	addi	s0,sp,32
	.cfi_def_cfa 8, 0
	sd	a0,-24(s0)
	sd	a1,-32(s0)
	.loc 1 992 21
	ld	a5,-24(s0)
	ld	a4,0(a5)
	.loc 1 992 49
	ld	a5,-32(s0)
	ld	a5,0(a5)
	slli	a5,a5,12
	.loc 1 992 29
	add	a5,a4,a5
	.loc 1 992 8
	mv	a0,a5
	call	IsGuardPage
	mv	a5,a0
	.loc 1 992 6 discriminator 1
	bne	a5,zero,.L119
	.loc 1 994 5
	ld	a5,-32(s0)
	ld	a5,0(a5)
	.loc 1 994 20
	addi	a4,a5,1
	ld	a5,-32(s0)
	sd	a4,0(a5)
.L119:
	.loc 1 997 21
	ld	a5,-24(s0)
	ld	a4,0(a5)
	.loc 1 997 8
	li	a5,-4096
	add	a5,a4,a5
	mv	a0,a5
	call	IsGuardPage
	mv	a5,a0
	.loc 1 997 6 discriminator 1
	bne	a5,zero,.L121
	.loc 1 999 5
	ld	a5,-24(s0)
	ld	a4,0(a5)
	.loc 1 999 13
	li	a5,-4096
	add	a4,a4,a5
	ld	a5,-24(s0)
	sd	a4,0(a5)
	.loc 1 1000 5
	ld	a5,-32(s0)
	ld	a5,0(a5)
	.loc 1 1000 20
	addi	a4,a5,1
	ld	a5,-32(s0)
	sd	a4,0(a5)
.L121:
	.loc 1 1002 1
	nop
	ld	ra,24(sp)
	.cfi_restore 1
	ld	s0,16(sp)
	.cfi_restore 8
	.cfi_def_cfa 2, 32
	addi	sp,sp,32
	.cfi_def_cfa_offset 0
	jr	ra
	.cfi_endproc
.LFE20:
	.size	AdjustMemoryA, .-AdjustMemoryA
	.section	.text.AdjustPoolHeadA,"ax",@progbits
	.align	1
	.globl	AdjustPoolHeadA
	.type	AdjustPoolHeadA, @function
AdjustPoolHeadA:
.LFB21:
	.loc 1 1021 1
	.cfi_startproc
	addi	sp,sp,-48
	.cfi_def_cfa_offset 48
	sd	ra,40(sp)
	sd	s0,32(sp)
	.cfi_offset 1, -8
	.cfi_offset 8, -16
	addi	s0,sp,48
	.cfi_def_cfa 8, 0
	sd	a0,-24(s0)
	sd	a1,-32(s0)
	sd	a2,-40(s0)
	.loc 1 1022 6
	ld	a5,-24(s0)
	beq	a5,zero,.L123
	.loc 1 1022 84 discriminator 1
	la	a5,_gPcd_FixedAtBuild_PcdHeapGuardPropertyMask
	lbu	a5,0(a5)
	slliw	a5,a5,24
	sraiw	a5,a5,24
	.loc 1 1022 21 discriminator 1
	bge	a5,zero,.L124
.L123:
	.loc 1 1026 12
	ld	a5,-24(s0)
	j	.L125
.L124:
	.loc 1 1032 36
	ld	a5,-40(s0)
	neg	a5,a5
	andi	a5,a5,7
	.loc 1 1032 8
	ld	a4,-40(s0)
	add	a5,a4,a5
	sd	a5,-40(s0)
	.loc 1 1033 46
	ld	a5,-32(s0)
	slli	a4,a5,12
	.loc 1 1033 33
	ld	a5,-24(s0)
	add	a4,a4,a5
	.loc 1 1033 18
	ld	a5,-40(s0)
	sub	a5,a4,a5
.L125:
	.loc 1 1034 1
	mv	a0,a5
	ld	ra,40(sp)
	.cfi_restore 1
	ld	s0,32(sp)
	.cfi_restore 8
	.cfi_def_cfa 2, 48
	addi	sp,sp,48
	.cfi_def_cfa_offset 0
	jr	ra
	.cfi_endproc
.LFE21:
	.size	AdjustPoolHeadA, .-AdjustPoolHeadA
	.section	.text.AdjustPoolHeadF,"ax",@progbits
	.align	1
	.globl	AdjustPoolHeadF
	.type	AdjustPoolHeadF, @function
AdjustPoolHeadF:
.LFB22:
	.loc 1 1052 1
	.cfi_startproc
	addi	sp,sp,-48
	.cfi_def_cfa_offset 48
	sd	ra,40(sp)
	sd	s0,32(sp)
	.cfi_offset 1, -8
	.cfi_offset 8, -16
	addi	s0,sp,48
	.cfi_def_cfa 8, 0
	sd	a0,-24(s0)
	sd	a1,-32(s0)
	sd	a2,-40(s0)
	.loc 1 1053 6
	ld	a5,-24(s0)
	beq	a5,zero,.L127
	.loc 1 1053 84 discriminator 1
	la	a5,_gPcd_FixedAtBuild_PcdHeapGuardPropertyMask
	lbu	a5,0(a5)
	slliw	a5,a5,24
	sraiw	a5,a5,24
	.loc 1 1053 21 discriminator 1
	bge	a5,zero,.L128
.L127:
	.loc 1 1057 12
	ld	a5,-24(s0)
	j	.L129
.L128:
	.loc 1 1066 33
	ld	a4,-24(s0)
	ld	a5,-40(s0)
	add	a4,a4,a5
	.loc 1 1066 53
	ld	a5,-32(s0)
	slli	a5,a5,12
	.loc 1 1066 18
	sub	a5,a4,a5
.L129:
	.loc 1 1067 1
	mv	a0,a5
	ld	ra,40(sp)
	.cfi_restore 1
	ld	s0,32(sp)
	.cfi_restore 8
	.cfi_def_cfa 2, 48
	addi	sp,sp,48
	.cfi_def_cfa_offset 0
	jr	ra
	.cfi_endproc
.LFE22:
	.size	AdjustPoolHeadF, .-AdjustPoolHeadF
	.section	.text.CoreConvertPagesWithGuard,"ax",@progbits
	.align	1
	.globl	CoreConvertPagesWithGuard
	.type	CoreConvertPagesWithGuard, @function
CoreConvertPagesWithGuard:
.LFB23:
	.loc 1 1084 1
	.cfi_startproc
	addi	sp,sp,-64
	.cfi_def_cfa_offset 64
	sd	ra,56(sp)
	sd	s0,48(sp)
	.cfi_offset 1, -8
	.cfi_offset 8, -16
	addi	s0,sp,64
	.cfi_def_cfa 8, 0
	sd	a0,-40(s0)
	sd	a1,-48(s0)
	mv	a5,a2
	sw	a5,-52(s0)
	.loc 1 1088 6
	lw	a5,-52(s0)
	sext.w	a4,a5
	li	a5,7
	bne	a4,a5,.L131
	.loc 1 1089 14
	ld	a5,-40(s0)
	sd	a5,-24(s0)
	.loc 1 1090 14
	ld	a5,-48(s0)
	sd	a5,-32(s0)
	.loc 1 1092 5
	addi	a4,s0,-48
	addi	a5,s0,-40
	mv	a1,a4
	mv	a0,a5
	call	AdjustMemoryF
	.loc 1 1100 5
	ld	a1,-32(s0)
	ld	a0,-24(s0)
	call	UnsetGuardForMemory
	.loc 1 1101 23
	ld	a5,-48(s0)
	.loc 1 1101 8
	bne	a5,zero,.L132
	.loc 1 1102 14
	li	a5,0
	j	.L133
.L131:
	.loc 1 1105 5
	addi	a4,s0,-48
	addi	a5,s0,-40
	mv	a1,a4
	mv	a0,a5
	call	AdjustMemoryA
.L132:
	.loc 1 1108 10
	ld	a5,-40(s0)
	ld	a4,-48(s0)
	lw	a3,-52(s0)
	mv	a2,a3
	mv	a1,a4
	mv	a0,a5
	call	CoreConvertPages@plt
	mv	a5,a0
.L133:
	.loc 1 1109 1
	mv	a0,a5
	ld	ra,56(sp)
	.cfi_restore 1
	ld	s0,48(sp)
	.cfi_restore 8
	.cfi_def_cfa 2, 64
	addi	sp,sp,64
	.cfi_def_cfa_offset 0
	jr	ra
	.cfi_endproc
.LFE23:
	.size	CoreConvertPagesWithGuard, .-CoreConvertPagesWithGuard
	.section	.text.SetAllGuardPages,"ax",@progbits
	.align	1
	.globl	SetAllGuardPages
	.type	SetAllGuardPages, @function
SetAllGuardPages:
.LFB24:
	.loc 1 1118 1
	.cfi_startproc
	addi	sp,sp,-272
	.cfi_def_cfa_offset 272
	sd	ra,264(sp)
	sd	s0,256(sp)
	.cfi_offset 1, -8
	.cfi_offset 8, -16
	addi	s0,sp,272
	.cfi_def_cfa 8, 0
	.loc 1 1131 26
	lla	a5,mGuardedMemoryMap
	ld	a5,0(a5)
	.loc 1 1131 6
	beq	a5,zero,.L159
	.loc 1 1132 18
	lla	a5,mMapLevel
	ld	a5,0(a5)
	.loc 1 1131 32 discriminator 1
	beq	a5,zero,.L159
	.loc 1 1133 18
	lla	a5,mMapLevel
	ld	a4,0(a5)
	.loc 1 1132 24
	li	a5,5
	bgtu	a4,a5,.L159
	.loc 1 1138 3
	addi	a5,s0,-104
	li	a2,40
	lla	a1,mLevelMask
	mv	a0,a5
	call	CopyMem@plt
	.loc 1 1139 3
	addi	a5,s0,-144
	li	a2,40
	lla	a1,mLevelShift
	mv	a0,a5
	call	CopyMem@plt
	.loc 1 1141 3
	addi	a5,s0,-224
	li	a2,0
	li	a1,40
	mv	a0,a5
	call	SetMem@plt
	.loc 1 1142 3
	addi	a5,s0,-264
	li	a2,0
	li	a1,40
	mv	a0,a5
	call	SetMem@plt
	.loc 1 1143 3
	addi	a5,s0,-184
	li	a2,0
	li	a1,40
	mv	a0,a5
	call	SetMem@plt
	.loc 1 1145 13
	lla	a5,mMapLevel
	ld	a5,0(a5)
	li	a4,5
	sub	a5,a4,a5
	.loc 1 1145 9
	sd	a5,-48(s0)
	.loc 1 1146 17
	lla	a5,mGuardedMemoryMap
	ld	a4,0(a5)
	ld	a3,-48(s0)
	addi	a5,s0,-224
	slli	a3,a3,3
	add	a5,a3,a5
	sd	a4,0(a5)
	.loc 1 1147 11
	sd	zero,-32(s0)
	.loc 1 1148 14
	sb	zero,-57(s0)
	.loc 1 1150 12
	call	DebugCodeEnabled@plt
	mv	a5,a0
	.loc 1 1150 11 discriminator 1
	beq	a5,zero,.L158
	.loc 1 1150 69 discriminator 2
	call	DumpGuardedMemoryBitmap
.L158:
	.loc 1 1155 16
	ld	a4,-48(s0)
	addi	a5,s0,-184
	slli	a4,a4,3
	add	a5,a4,a5
	ld	a4,0(a5)
	.loc 1 1155 33
	ld	a3,-48(s0)
	addi	a5,s0,-104
	slli	a3,a3,3
	add	a5,a3,a5
	ld	a5,0(a5)
	.loc 1 1155 8
	bleu	a4,a5,.L139
	.loc 1 1156 21
	ld	a4,-48(s0)
	addi	a5,s0,-224
	slli	a4,a4,3
	add	a5,a4,a5
	sd	zero,0(a5)
	.loc 1 1157 13
	ld	a5,-48(s0)
	addi	a5,a5,-1
	sd	a5,-48(s0)
	j	.L140
.L139:
	.loc 1 1159 62
	ld	a4,-48(s0)
	addi	a5,s0,-184
	slli	a4,a4,3
	add	a5,a4,a5
	ld	a5,0(a5)
	.loc 1 1159 54
	slli	a4,a5,3
	.loc 1 1159 45
	ld	a3,-48(s0)
	addi	a5,s0,-224
	slli	a3,a3,3
	add	a5,a3,a5
	ld	a5,0(a5)
	.loc 1 1159 54
	add	a5,a4,a5
	.loc 1 1159 18
	ld	a5,0(a5)
	sd	a5,-24(s0)
	.loc 1 1160 15
	ld	a4,-48(s0)
	addi	a5,s0,-264
	slli	a4,a4,3
	add	a5,a4,a5
	ld	a5,0(a5)
	sd	a5,-32(s0)
	.loc 1 1162 10
	ld	a5,-24(s0)
	bne	a5,zero,.L141
	.loc 1 1163 20
	sb	zero,-57(s0)
	j	.L140
.L141:
	.loc 1 1164 17
	ld	a4,-48(s0)
	li	a5,3
	bgt	a4,a5,.L142
	.loc 1 1165 15
	ld	a5,-48(s0)
	addi	a5,a5,1
	sd	a5,-48(s0)
	.loc 1 1166 23
	ld	a4,-48(s0)
	addi	a5,s0,-224
	slli	a4,a4,3
	add	a5,a4,a5
	ld	a4,-24(s0)
	sd	a4,0(a5)
	.loc 1 1167 26
	ld	a4,-48(s0)
	addi	a5,s0,-264
	slli	a4,a4,3
	add	a5,a4,a5
	ld	a4,-32(s0)
	sd	a4,0(a5)
	.loc 1 1168 24
	ld	a4,-48(s0)
	addi	a5,s0,-184
	slli	a4,a4,3
	add	a5,a4,a5
	sd	zero,0(a5)
	.loc 1 1170 9
	j	.L143
.L142:
	.loc 1 1172 15
	sd	zero,-56(s0)
	.loc 1 1173 15
	j	.L144
.L153:
	.loc 1 1174 27
	ld	a5,-24(s0)
	andi	a5,a5,1
	.loc 1 1174 14
	beq	a5,zero,.L145
	.loc 1 1175 16
	lbu	a5,-57(s0)
	andi	a5,a5,0xff
	beq	a5,zero,.L146
	.loc 1 1176 25
	sd	zero,-40(s0)
	j	.L147
.L146:
	.loc 1 1178 25
	ld	a4,-32(s0)
	li	a5,-4096
	add	a5,a4,a5
	sd	a5,-40(s0)
.L147:
	.loc 1 1181 24
	li	a5,1
	sb	a5,-57(s0)
	j	.L148
.L145:
	.loc 1 1183 16
	lbu	a5,-57(s0)
	andi	a5,a5,0xff
	beq	a5,zero,.L149
	.loc 1 1184 25
	ld	a5,-32(s0)
	sd	a5,-40(s0)
	j	.L150
.L149:
	.loc 1 1186 25
	sd	zero,-40(s0)
.L150:
	.loc 1 1189 24
	sb	zero,-57(s0)
.L148:
	.loc 1 1192 14
	ld	a5,-40(s0)
	beq	a5,zero,.L151
	.loc 1 1193 13
	ld	a0,-40(s0)
	call	SetGuardPage
.L151:
	.loc 1 1196 14
	ld	a5,-24(s0)
	beq	a5,zero,.L160
	.loc 1 1200 24
	li	a1,1
	ld	a0,-24(s0)
	call	RShiftU64@plt
	sd	a0,-24(s0)
	.loc 1 1201 19
	ld	a4,-32(s0)
	li	a5,4096
	add	a5,a4,a5
	sd	a5,-32(s0)
	.loc 1 1202 17
	ld	a5,-56(s0)
	addi	a5,a5,1
	sd	a5,-56(s0)
.L144:
	.loc 1 1173 22
	ld	a4,-56(s0)
	li	a5,63
	bleu	a4,a5,.L153
	j	.L140
.L160:
	.loc 1 1197 13
	nop
.L140:
	.loc 1 1207 22
	lla	a5,mMapLevel
	ld	a5,0(a5)
	mv	a4,a5
	.loc 1 1207 20
	li	a5,5
	sub	a5,a5,a4
	.loc 1 1207 8
	ld	a4,-48(s0)
	blt	a4,a5,.L161
	.loc 1 1211 12
	ld	a4,-48(s0)
	addi	a5,s0,-184
	slli	a4,a4,3
	add	a5,a4,a5
	ld	a5,0(a5)
	.loc 1 1211 20
	addi	a4,a5,1
	ld	a3,-48(s0)
	addi	a5,s0,-184
	slli	a3,a3,3
	add	a5,a3,a5
	sd	a4,0(a5)
	.loc 1 1212 32
	ld	a5,-48(s0)
	beq	a5,zero,.L156
	.loc 1 1212 50 discriminator 1
	ld	a5,-48(s0)
	addi	a4,a5,-1
	.loc 1 1212 13 discriminator 1
	addi	a5,s0,-264
	slli	a4,a4,3
	add	a5,a4,a5
	ld	a5,0(a5)
	sd	a5,-32(s0)
	j	.L157
.L156:
	.loc 1 1212 13 is_stmt 0 discriminator 2
	sd	zero,-32(s0)
.L157:
	.loc 1 1213 52 is_stmt 1
	ld	a4,-48(s0)
	addi	a5,s0,-184
	slli	a4,a4,3
	add	a5,a4,a5
	ld	a3,0(a5)
	.loc 1 1213 34
	ld	a4,-48(s0)
	addi	a5,s0,-144
	slli	a4,a4,3
	add	a5,a4,a5
	ld	a5,0(a5)
	mv	a1,a5
	mv	a0,a3
	call	LShiftU64@plt
	mv	a4,a0
	.loc 1 1213 32 discriminator 1
	ld	a5,-32(s0)
	or	a4,a4,a5
	.loc 1 1213 22 discriminator 1
	ld	a3,-48(s0)
	addi	a5,s0,-264
	slli	a3,a3,3
	add	a5,a3,a5
	sd	a4,0(a5)
.L143:
	.loc 1 1155 8
	j	.L158
.L159:
	.loc 1 1135 5 discriminator 1
	nop
	j	.L134
.L161:
	.loc 1 1208 7
	nop
.L134:
	.loc 1 1215 1
	ld	ra,264(sp)
	.cfi_restore 1
	ld	s0,256(sp)
	.cfi_restore 8
	.cfi_def_cfa 2, 272
	addi	sp,sp,272
	.cfi_def_cfa_offset 0
	jr	ra
	.cfi_endproc
.LFE24:
	.size	SetAllGuardPages, .-SetAllGuardPages
	.section	.text.GetLastGuardedFreePageAddress,"ax",@progbits
	.align	1
	.globl	GetLastGuardedFreePageAddress
	.type	GetLastGuardedFreePageAddress, @function
GetLastGuardedFreePageAddress:
.LFB25:
	.loc 1 1228 1
	.cfi_startproc
	addi	sp,sp,-80
	.cfi_def_cfa_offset 80
	sd	ra,72(sp)
	sd	s0,64(sp)
	.cfi_offset 1, -8
	.cfi_offset 8, -16
	addi	s0,sp,80
	.cfi_def_cfa 8, 0
	sd	a0,-72(s0)
	.loc 1 1237 15
	sd	zero,-24(s0)
	.loc 1 1238 7
	lla	a5,mGuardedMemoryMap
	ld	a5,0(a5)
	sd	a5,-40(s0)
	.loc 1 1239 18
	lla	a5,mMapLevel
	ld	a5,0(a5)
	.loc 1 1239 14
	li	a4,5
	sub	a5,a4,a5
	sd	a5,-32(s0)
	.loc 1 1239 3
	j	.L163
.L168:
	.loc 1 1243 26
	lla	a4,mLevelShift
	ld	a5,-32(s0)
	slli	a5,a5,3
	add	a5,a4,a5
	ld	a5,0(a5)
	mv	a1,a5
	li	a0,1
	call	LShiftU64@plt
	sd	a0,-56(s0)
	.loc 1 1248 34
	lla	a4,mLevelMask
	ld	a5,-32(s0)
	slli	a5,a5,3
	add	a5,a4,a5
	ld	a5,0(a5)
	.loc 1 1248 16
	sd	a5,-48(s0)
	.loc 1 1248 5
	j	.L164
.L167:
	.loc 1 1249 33
	ld	a5,-48(s0)
	slli	a4,a5,3
	ld	a5,-40(s0)
	add	a5,a4,a5
	ld	a5,0(a5)
	.loc 1 1249 10
	beq	a5,zero,.L165
	.loc 1 1250 24
	ld	a5,-48(s0)
	sext.w	a5,a5
	mv	a1,a5
	ld	a0,-56(s0)
	call	MultU64x32@plt
	mv	a4,a0
	.loc 1 1250 21 discriminator 1
	ld	a5,-24(s0)
	add	a5,a5,a4
	sd	a5,-24(s0)
	.loc 1 1251 37
	ld	a5,-48(s0)
	slli	a4,a5,3
	ld	a5,-40(s0)
	add	a5,a4,a5
	.loc 1 1251 13
	ld	a5,0(a5)
	sd	a5,-40(s0)
	.loc 1 1252 9
	j	.L166
.L165:
	.loc 1 1248 55 discriminator 2
	ld	a5,-48(s0)
	addi	a5,a5,-1
	sd	a5,-48(s0)
.L164:
	.loc 1 1248 49 discriminator 1
	ld	a5,-48(s0)
	bge	a5,zero,.L167
.L166:
	.loc 1 1241 8
	ld	a5,-32(s0)
	addi	a5,a5,1
	sd	a5,-32(s0)
.L163:
	.loc 1 1240 14
	ld	a4,-32(s0)
	li	a5,4
	bleu	a4,a5,.L168
	.loc 1 1260 9
	j	.L169
.L170:
	.loc 1 1261 11
	li	a1,1
	ld	a0,-40(s0)
	call	RShiftU64@plt
	sd	a0,-40(s0)
	.loc 1 1262 17
	ld	a4,-24(s0)
	li	a5,4096
	add	a5,a4,a5
	sd	a5,-24(s0)
.L169:
	.loc 1 1260 14
	ld	a5,-40(s0)
	bne	a5,zero,.L170
	.loc 1 1265 12
	ld	a5,-72(s0)
	ld	a4,-24(s0)
	sd	a4,0(a5)
	.loc 1 1266 1
	nop
	ld	ra,72(sp)
	.cfi_restore 1
	ld	s0,64(sp)
	.cfi_restore 8
	.cfi_def_cfa 2, 80
	addi	sp,sp,80
	.cfi_def_cfa_offset 0
	jr	ra
	.cfi_endproc
.LFE25:
	.size	GetLastGuardedFreePageAddress, .-GetLastGuardedFreePageAddress
	.section	.text.MarkFreedPages,"ax",@progbits
	.align	1
	.globl	MarkFreedPages
	.type	MarkFreedPages, @function
MarkFreedPages:
.LFB26:
	.loc 1 1281 1
	.cfi_startproc
	addi	sp,sp,-32
	.cfi_def_cfa_offset 32
	sd	ra,24(sp)
	sd	s0,16(sp)
	.cfi_offset 1, -8
	.cfi_offset 8, -16
	addi	s0,sp,32
	.cfi_def_cfa 8, 0
	sd	a0,-24(s0)
	sd	a1,-32(s0)
	.loc 1 1282 3
	ld	a1,-32(s0)
	ld	a0,-24(s0)
	call	SetGuardedMemoryBits
	.loc 1 1283 1
	nop
	ld	ra,24(sp)
	.cfi_restore 1
	ld	s0,16(sp)
	.cfi_restore 8
	.cfi_def_cfa 2, 32
	addi	sp,sp,32
	.cfi_def_cfa_offset 0
	jr	ra
	.cfi_endproc
.LFE26:
	.size	MarkFreedPages, .-MarkFreedPages
	.section	.text.GuardFreedPages,"ax",@progbits
	.align	1
	.globl	GuardFreedPages
	.type	GuardFreedPages, @function
GuardFreedPages:
.LFB27:
	.loc 1 1299 1
	.cfi_startproc
	addi	sp,sp,-48
	.cfi_def_cfa_offset 48
	sd	ra,40(sp)
	sd	s0,32(sp)
	.cfi_offset 1, -8
	.cfi_offset 8, -16
	addi	s0,sp,48
	.cfi_def_cfa 8, 0
	sd	a0,-40(s0)
	sd	a1,-48(s0)
	.loc 1 1306 6
	ld	a4,-40(s0)
	li	a5,1048576
	bltu	a4,a5,.L175
	.loc 1 1310 3
	ld	a1,-48(s0)
	ld	a0,-40(s0)
	call	MarkFreedPages
	.loc 1 1311 12
	la	a5,gCpu
	ld	a5,0(a5)
	.loc 1 1311 6
	beq	a5,zero,.L172
	.loc 1 1316 17
	lla	a5,mOnGuarding
	li	a4,1
	sb	a4,0(a5)
	.loc 1 1321 18
	la	a5,gCpu
	ld	a5,0(a5)
	ld	a5,56(a5)
	.loc 1 1321 14
	la	a4,gCpu
	ld	a0,0(a4)
	ld	a4,-48(s0)
	slli	a4,a4,12
	li	a3,8192
	mv	a2,a4
	ld	a1,-40(s0)
	jalr	a5
.LVL2:
	sd	a0,-24(s0)
	.loc 1 1336 17
	lla	a5,mOnGuarding
	sb	zero,0(a5)
	j	.L172
.L175:
	.loc 1 1307 5
	nop
.L172:
	.loc 1 1338 1
	ld	ra,40(sp)
	.cfi_restore 1
	ld	s0,32(sp)
	.cfi_restore 8
	.cfi_def_cfa 2, 48
	addi	sp,sp,48
	.cfi_def_cfa_offset 0
	jr	ra
	.cfi_endproc
.LFE27:
	.size	GuardFreedPages, .-GuardFreedPages
	.section	.text.GuardFreedPagesChecked,"ax",@progbits
	.align	1
	.globl	GuardFreedPagesChecked
	.type	GuardFreedPagesChecked, @function
GuardFreedPagesChecked:
.LFB28:
	.loc 1 1354 1
	.cfi_startproc
	addi	sp,sp,-32
	.cfi_def_cfa_offset 32
	sd	ra,24(sp)
	sd	s0,16(sp)
	.cfi_offset 1, -8
	.cfi_offset 8, -16
	addi	s0,sp,32
	.cfi_def_cfa 8, 0
	sd	a0,-24(s0)
	sd	a1,-32(s0)
	.loc 1 1355 7
	li	a0,16
	call	IsHeapGuardEnabled
	mv	a5,a0
	.loc 1 1355 6 discriminator 1
	beq	a5,zero,.L178
	.loc 1 1356 5
	ld	a1,-32(s0)
	ld	a0,-24(s0)
	call	GuardFreedPages
.L178:
	.loc 1 1358 1
	nop
	ld	ra,24(sp)
	.cfi_restore 1
	ld	s0,16(sp)
	.cfi_restore 8
	.cfi_def_cfa 2, 32
	addi	sp,sp,32
	.cfi_def_cfa_offset 0
	jr	ra
	.cfi_endproc
.LFE28:
	.size	GuardFreedPagesChecked, .-GuardFreedPagesChecked
	.section	.text.GuardAllFreedPages,"ax",@progbits
	.align	1
	.globl	GuardAllFreedPages
	.type	GuardAllFreedPages, @function
GuardAllFreedPages:
.LFB29:
	.loc 1 1368 1
	.cfi_startproc
	addi	sp,sp,-272
	.cfi_def_cfa_offset 272
	sd	ra,264(sp)
	sd	s0,256(sp)
	.cfi_offset 1, -8
	.cfi_offset 8, -16
	addi	s0,sp,272
	.cfi_def_cfa 8, 0
	.loc 1 1381 26
	lla	a5,mGuardedMemoryMap
	ld	a5,0(a5)
	.loc 1 1381 6
	beq	a5,zero,.L201
	.loc 1 1382 18
	lla	a5,mMapLevel
	ld	a5,0(a5)
	.loc 1 1381 32 discriminator 1
	beq	a5,zero,.L201
	.loc 1 1383 18
	lla	a5,mMapLevel
	ld	a4,0(a5)
	.loc 1 1382 24
	li	a5,5
	bgtu	a4,a5,.L201
	.loc 1 1388 3
	addi	a5,s0,-96
	li	a2,40
	lla	a1,mLevelMask
	mv	a0,a5
	call	CopyMem@plt
	.loc 1 1389 3
	addi	a5,s0,-136
	li	a2,40
	lla	a1,mLevelShift
	mv	a0,a5
	call	CopyMem@plt
	.loc 1 1391 3
	addi	a5,s0,-216
	li	a2,0
	li	a1,40
	mv	a0,a5
	call	SetMem@plt
	.loc 1 1392 3
	addi	a5,s0,-256
	li	a2,0
	li	a1,40
	mv	a0,a5
	call	SetMem@plt
	.loc 1 1393 3
	addi	a5,s0,-176
	li	a2,0
	li	a1,40
	mv	a0,a5
	call	SetMem@plt
	.loc 1 1395 13
	lla	a5,mMapLevel
	ld	a5,0(a5)
	li	a4,5
	sub	a5,a4,a5
	.loc 1 1395 9
	sd	a5,-32(s0)
	.loc 1 1396 17
	lla	a5,mGuardedMemoryMap
	ld	a4,0(a5)
	ld	a3,-32(s0)
	addi	a5,s0,-216
	slli	a3,a3,3
	add	a5,a3,a5
	sd	a4,0(a5)
	.loc 1 1397 11
	sd	zero,-264(s0)
	.loc 1 1398 13
	li	a5,-1
	sd	a5,-24(s0)
	.loc 1 1399 19
	sd	zero,-48(s0)
.L198:
	.loc 1 1402 16
	ld	a4,-32(s0)
	addi	a5,s0,-176
	slli	a4,a4,3
	add	a5,a4,a5
	ld	a4,0(a5)
	.loc 1 1402 33
	ld	a3,-32(s0)
	addi	a5,s0,-96
	slli	a3,a3,3
	add	a5,a3,a5
	ld	a5,0(a5)
	.loc 1 1402 8
	bleu	a4,a5,.L183
	.loc 1 1403 21
	ld	a4,-32(s0)
	addi	a5,s0,-216
	slli	a4,a4,3
	add	a5,a4,a5
	sd	zero,0(a5)
	.loc 1 1404 13
	ld	a5,-32(s0)
	addi	a5,a5,-1
	sd	a5,-32(s0)
	j	.L184
.L183:
	.loc 1 1406 62
	ld	a4,-32(s0)
	addi	a5,s0,-176
	slli	a4,a4,3
	add	a5,a4,a5
	ld	a5,0(a5)
	.loc 1 1406 54
	slli	a4,a5,3
	.loc 1 1406 45
	ld	a3,-32(s0)
	addi	a5,s0,-216
	slli	a3,a3,3
	add	a5,a3,a5
	ld	a5,0(a5)
	.loc 1 1406 54
	add	a5,a4,a5
	.loc 1 1406 18
	ld	a5,0(a5)
	sd	a5,-56(s0)
	.loc 1 1407 26
	ld	a4,-32(s0)
	addi	a5,s0,-256
	slli	a4,a4,3
	add	a5,a4,a5
	ld	a5,0(a5)
	.loc 1 1407 15
	sd	a5,-264(s0)
	.loc 1 1409 10
	ld	a5,-56(s0)
	bne	a5,zero,.L185
	.loc 1 1410 25
	sd	zero,-48(s0)
	.loc 1 1411 19
	li	a5,-1
	sd	a5,-24(s0)
	j	.L184
.L185:
	.loc 1 1413 12
	ld	a4,-32(s0)
	li	a5,3
	bgt	a4,a5,.L186
	.loc 1 1414 17
	ld	a5,-32(s0)
	addi	a5,a5,1
	sd	a5,-32(s0)
	.loc 1 1415 25
	ld	a4,-32(s0)
	addi	a5,s0,-216
	slli	a4,a4,3
	add	a5,a4,a5
	ld	a4,-56(s0)
	sd	a4,0(a5)
	.loc 1 1416 28
	ld	a4,-264(s0)
	ld	a3,-32(s0)
	addi	a5,s0,-256
	slli	a3,a3,3
	add	a5,a3,a5
	sd	a4,0(a5)
	.loc 1 1417 26
	ld	a4,-32(s0)
	addi	a5,s0,-176
	slli	a4,a4,3
	add	a5,a4,a5
	sd	zero,0(a5)
	.loc 1 1419 11
	j	.L187
.L186:
	.loc 1 1421 20
	li	a5,1
	sd	a5,-40(s0)
	.loc 1 1422 17
	j	.L188
.L193:
	.loc 1 1423 29
	ld	a4,-56(s0)
	ld	a5,-40(s0)
	and	a5,a4,a5
	.loc 1 1423 16
	beq	a5,zero,.L189
	.loc 1 1424 18
	ld	a4,-24(s0)
	li	a5,-1
	bne	a4,a5,.L190
	.loc 1 1425 27
	ld	a5,-264(s0)
	sd	a5,-24(s0)
.L190:
	.loc 1 1428 15
	ld	a5,-48(s0)
	addi	a5,a5,1
	sd	a5,-48(s0)
	j	.L191
.L189:
	.loc 1 1429 23
	ld	a5,-48(s0)
	beq	a5,zero,.L191
	.loc 1 1430 15
	ld	a1,-48(s0)
	ld	a0,-24(s0)
	call	GuardFreedPages
	.loc 1 1431 31
	sd	zero,-48(s0)
	.loc 1 1432 25
	li	a5,-1
	sd	a5,-24(s0)
.L191:
	.loc 1 1435 16
	ld	a5,-56(s0)
	beq	a5,zero,.L202
	.loc 1 1439 21
	ld	a4,-264(s0)
	li	a5,4096
	add	a5,a4,a5
	sd	a5,-264(s0)
	.loc 1 1440 24
	li	a1,1
	ld	a0,-40(s0)
	call	LShiftU64@plt
	sd	a0,-40(s0)
.L188:
	.loc 1 1422 27
	ld	a5,-40(s0)
	bne	a5,zero,.L193
	j	.L184
.L202:
	.loc 1 1436 15
	nop
.L184:
	.loc 1 1446 22
	lla	a5,mMapLevel
	ld	a5,0(a5)
	mv	a4,a5
	.loc 1 1446 20
	li	a5,5
	sub	a5,a5,a4
	.loc 1 1446 8
	ld	a4,-32(s0)
	blt	a4,a5,.L203
	.loc 1 1450 12
	ld	a4,-32(s0)
	addi	a5,s0,-176
	slli	a4,a4,3
	add	a5,a4,a5
	ld	a5,0(a5)
	.loc 1 1450 20
	addi	a4,a5,1
	ld	a3,-32(s0)
	addi	a5,s0,-176
	slli	a3,a3,3
	add	a5,a3,a5
	sd	a4,0(a5)
	.loc 1 1451 32
	ld	a5,-32(s0)
	beq	a5,zero,.L196
	.loc 1 1451 50 discriminator 1
	ld	a5,-32(s0)
	addi	a4,a5,-1
	.loc 1 1451 32 discriminator 1
	addi	a5,s0,-256
	slli	a4,a4,3
	add	a5,a4,a5
	ld	a5,0(a5)
	j	.L197
.L196:
	.loc 1 1451 32 is_stmt 0 discriminator 2
	li	a5,0
.L197:
	.loc 1 1451 13 is_stmt 1 discriminator 4
	sd	a5,-264(s0)
	.loc 1 1452 52
	ld	a4,-32(s0)
	addi	a5,s0,-176
	slli	a4,a4,3
	add	a5,a4,a5
	ld	a3,0(a5)
	.loc 1 1452 34
	ld	a4,-32(s0)
	addi	a5,s0,-136
	slli	a4,a4,3
	add	a5,a4,a5
	ld	a5,0(a5)
	mv	a1,a5
	mv	a0,a3
	call	LShiftU64@plt
	mv	a4,a0
	.loc 1 1452 32 discriminator 1
	ld	a5,-264(s0)
	or	a4,a4,a5
	.loc 1 1452 22 discriminator 1
	ld	a3,-32(s0)
	addi	a5,s0,-256
	slli	a3,a3,3
	add	a5,a3,a5
	sd	a4,0(a5)
.L187:
	.loc 1 1402 8
	j	.L198
.L203:
	.loc 1 1447 7
	nop
	.loc 1 1459 3
	addi	a5,s0,-264
	mv	a0,a5
	call	GetLastGuardedFreePageAddress
	.loc 1 1460 15
	ld	a5,-264(s0)
	.loc 1 1460 6
	beq	a5,zero,.L179
	.loc 1 1461 23
	ld	a4,-264(s0)
	lla	a5,mLastPromotedPage
	sd	a4,0(a5)
	j	.L179
.L201:
	.loc 1 1385 5 discriminator 1
	nop
.L179:
	.loc 1 1463 1
	ld	ra,264(sp)
	.cfi_restore 1
	ld	s0,256(sp)
	.cfi_restore 8
	.cfi_def_cfa 2, 272
	addi	sp,sp,272
	.cfi_def_cfa_offset 0
	jr	ra
	.cfi_endproc
.LFE29:
	.size	GuardAllFreedPages, .-GuardAllFreedPages
	.section	.text.MergeGuardPages,"ax",@progbits
	.align	1
	.globl	MergeGuardPages
	.type	MergeGuardPages, @function
MergeGuardPages:
.LFB30:
	.loc 1 1480 1
	.cfi_startproc
	addi	sp,sp,-64
	.cfi_def_cfa_offset 64
	sd	ra,56(sp)
	sd	s0,48(sp)
	.cfi_offset 1, -8
	.cfi_offset 8, -16
	addi	s0,sp,64
	.cfi_def_cfa 8, 0
	sd	a0,-56(s0)
	sd	a1,-64(s0)
	.loc 1 1485 8
	li	a0,16
	call	IsHeapGuardEnabled
	mv	a5,a0
	.loc 1 1485 6 discriminator 1
	beq	a5,zero,.L214
	.loc 1 1486 22
	ld	a5,-56(s0)
	lw	a4,0(a5)
	.loc 1 1485 40 discriminator 2
	li	a5,10
	bgtu	a4,a5,.L214
	.loc 1 1491 10
	sd	zero,-24(s0)
	.loc 1 1492 49
	ld	a5,-56(s0)
	ld	a5,8(a5)
	.loc 1 1492 33
	ld	a4,-64(s0)
	sub	a5,a4,a5
	.loc 1 1492 67
	srli	a4,a5,12
	.loc 1 1492 114
	ld	a5,-56(s0)
	ld	a5,8(a5)
	.loc 1 1492 98
	ld	a3,-64(s0)
	sub	a3,a3,a5
	.loc 1 1492 132
	li	a5,4096
	addi	a5,a5,-1
	and	a5,a3,a5
	.loc 1 1492 145
	beq	a5,zero,.L208
	.loc 1 1492 145 is_stmt 0 discriminator 1
	li	a5,1
	j	.L209
.L208:
	.loc 1 1492 145 discriminator 2
	li	a5,0
.L209:
	.loc 1 1492 74 is_stmt 1 discriminator 4
	add	a5,a5,a4
	.loc 1 1492 9 discriminator 4
	sd	a5,-32(s0)
	.loc 1 1493 32
	ld	a5,-56(s0)
	ld	a5,24(a5)
	.loc 1 1493 12
	mv	a4,a5
	.loc 1 1493 9
	ld	a5,-32(s0)
	sub	a5,a5,a4
	sd	a5,-32(s0)
	.loc 1 1494 9
	j	.L210
.L213:
	.loc 1 1495 8
	ld	a5,-24(s0)
	bne	a5,zero,.L211
	.loc 1 1496 34
	ld	a5,-56(s0)
	ld	a4,8(a5)
	.loc 1 1497 43
	ld	a5,-56(s0)
	ld	a5,24(a5)
	.loc 1 1497 60
	slli	a5,a5,12
	.loc 1 1496 18
	add	a5,a4,a5
	sd	a5,-40(s0)
	.loc 1 1498 16
	li	a1,64
	ld	a0,-40(s0)
	call	GetGuardedMemoryBits
	sd	a0,-24(s0)
.L211:
	.loc 1 1501 17
	ld	a5,-24(s0)
	andi	a5,a5,1
	.loc 1 1501 8
	beq	a5,zero,.L215
	.loc 1 1505 10
	ld	a5,-32(s0)
	addi	a5,a5,-1
	sd	a5,-32(s0)
	.loc 1 1506 19
	ld	a5,-56(s0)
	ld	a5,24(a5)
	.loc 1 1506 34
	addi	a4,a5,1
	ld	a5,-56(s0)
	sd	a4,24(a5)
	.loc 1 1507 14
	li	a1,1
	ld	a0,-24(s0)
	call	RShiftU64@plt
	sd	a0,-24(s0)
.L210:
	.loc 1 1494 16
	ld	a5,-32(s0)
	bgt	a5,zero,.L213
	j	.L204
.L214:
	.loc 1 1488 5
	nop
	j	.L204
.L215:
	.loc 1 1502 7
	nop
.L204:
	.loc 1 1509 1
	ld	ra,56(sp)
	.cfi_restore 1
	ld	s0,48(sp)
	.cfi_restore 8
	.cfi_def_cfa 2, 64
	addi	sp,sp,64
	.cfi_def_cfa_offset 0
	jr	ra
	.cfi_endproc
.LFE30:
	.size	MergeGuardPages, .-MergeGuardPages
	.section	.text.PromoteGuardedFreePages,"ax",@progbits
	.align	1
	.globl	PromoteGuardedFreePages
	.type	PromoteGuardedFreePages, @function
PromoteGuardedFreePages:
.LFB31:
	.loc 1 1535 1
	.cfi_startproc
	addi	sp,sp,-64
	.cfi_def_cfa_offset 64
	sd	ra,56(sp)
	sd	s0,48(sp)
	.cfi_offset 1, -8
	.cfi_offset 8, -16
	addi	s0,sp,64
	.cfi_def_cfa 8, 0
	sd	a0,-56(s0)
	sd	a1,-64(s0)
	.loc 1 1541 8
	li	a0,16
	call	IsHeapGuardEnabled
	mv	a5,a0
	.loc 1 1541 6 discriminator 1
	bne	a5,zero,.L217
	.loc 1 1542 12
	li	a5,0
	j	.L230
.L217:
	.loc 1 1549 9
	lla	a5,mLastPromotedPage
	ld	a5,0(a5)
	sd	a5,-48(s0)
	.loc 1 1550 18
	sd	zero,-24(s0)
	.loc 1 1551 9
	j	.L219
.L227:
	.loc 1 1552 11
	ld	a4,-48(s0)
	li	a5,-262144
	add	a5,a4,a5
	sd	a5,-48(s0)
	.loc 1 1556 15
	ld	a4,-48(s0)
	lla	a5,mLastPromotedPage
	ld	a5,0(a5)
	.loc 1 1556 8
	bleu	a4,a5,.L220
	.loc 1 1557 7
	addi	a5,s0,-48
	mv	a0,a5
	call	GetLastGuardedFreePageAddress
	.loc 1 1559 13
	ld	a4,-48(s0)
	li	a5,-262144
	add	a5,a4,a5
	sd	a5,-48(s0)
.L220:
	.loc 1 1562 14
	ld	a5,-48(s0)
	li	a1,64
	mv	a0,a5
	call	GetGuardedMemoryBits
	sd	a0,-32(s0)
	.loc 1 1563 11
	j	.L221
.L226:
	.loc 1 1564 19
	ld	a5,-32(s0)
	andi	a5,a5,1
	.loc 1 1564 10
	beq	a5,zero,.L222
	.loc 1 1565 9
	ld	a5,-24(s0)
	addi	a5,a5,1
	sd	a5,-24(s0)
	j	.L223
.L222:
	.loc 1 1566 17
	ld	a5,-24(s0)
	bne	a5,zero,.L231
	.loc 1 1567 15
	ld	a4,-48(s0)
	li	a5,4096
	add	a5,a4,a5
	sd	a5,-48(s0)
.L223:
	.loc 1 1572 16
	li	a1,1
	ld	a0,-32(s0)
	call	RShiftU64@plt
	sd	a0,-32(s0)
.L221:
	.loc 1 1563 19
	ld	a5,-32(s0)
	bne	a5,zero,.L226
	j	.L219
.L231:
	.loc 1 1569 9
	nop
.L219:
	.loc 1 1551 25
	ld	a5,-24(s0)
	beq	a5,zero,.L227
	.loc 1 1576 6
	ld	a5,-24(s0)
	beq	a5,zero,.L228
	.loc 1 1578 5
	ld	a5,-48(s0)
	ld	a1,-24(s0)
	mv	a0,a5
	call	ClearGuardedMemoryBits
	.loc 1 1580 14
	la	a5,gCpu
	ld	a5,0(a5)
	.loc 1 1580 8
	beq	a5,zero,.L229
	.loc 1 1585 19
	lla	a5,mOnGuarding
	li	a4,1
	sb	a4,0(a5)
	.loc 1 1586 20
	la	a5,gCpu
	ld	a5,0(a5)
	ld	a5,56(a5)
	.loc 1 1586 16
	la	a4,gCpu
	ld	a0,0(a4)
	ld	a1,-48(s0)
	ld	a4,-24(s0)
	slli	a4,a4,12
	li	a3,0
	mv	a2,a4
	jalr	a5
.LVL3:
	sd	a0,-40(s0)
	.loc 1 1588 19
	lla	a5,mOnGuarding
	sb	zero,0(a5)
.L229:
	.loc 1 1591 23
	ld	a4,-48(s0)
	lla	a5,mLastPromotedPage
	sd	a4,0(a5)
	.loc 1 1592 19
	ld	a4,-48(s0)
	ld	a5,-56(s0)
	sd	a4,0(a5)
	.loc 1 1593 45
	ld	a5,-24(s0)
	slli	a4,a5,12
	.loc 1 1593 25
	ld	a5,-48(s0)
	add	a5,a4,a5
	.loc 1 1593 52
	addi	a4,a5,-1
	.loc 1 1593 17
	ld	a5,-64(s0)
	sd	a4,0(a5)
	.loc 1 1594 12
	li	a5,1
	j	.L230
.L228:
	.loc 1 1597 10
	li	a5,0
.L230:
	.loc 1 1598 1
	mv	a0,a5
	ld	ra,56(sp)
	.cfi_restore 1
	ld	s0,48(sp)
	.cfi_restore 8
	.cfi_def_cfa 2, 64
	addi	sp,sp,64
	.cfi_def_cfa_offset 0
	jr	ra
	.cfi_endproc
.LFE31:
	.size	PromoteGuardedFreePages, .-PromoteGuardedFreePages
	.section	.text.HeapGuardCpuArchProtocolNotify,"ax",@progbits
	.align	1
	.globl	HeapGuardCpuArchProtocolNotify
	.type	HeapGuardCpuArchProtocolNotify, @function
HeapGuardCpuArchProtocolNotify:
.LFB32:
	.loc 1 1607 1
	.cfi_startproc
	addi	sp,sp,-16
	.cfi_def_cfa_offset 16
	sd	ra,8(sp)
	sd	s0,0(sp)
	.cfi_offset 1, -8
	.cfi_offset 8, -16
	addi	s0,sp,16
	.cfi_def_cfa 8, 0
	.loc 1 1610 7
	li	a0,3
	call	IsHeapGuardEnabled
	mv	a5,a0
	.loc 1 1610 6 discriminator 1
	beq	a5,zero,.L233
	.loc 1 1611 7
	li	a0,16
	call	IsHeapGuardEnabled
	mv	a5,a0
	.loc 1 1610 50 discriminator 2
	beq	a5,zero,.L233
	.loc 1 1614 5
	call	CpuDeadLoop@plt
.L233:
	.loc 1 1617 7
	li	a0,3
	call	IsHeapGuardEnabled
	mv	a5,a0
	.loc 1 1617 6 discriminator 1
	beq	a5,zero,.L234
	.loc 1 1618 5
	call	SetAllGuardPages
.L234:
	.loc 1 1621 7
	li	a0,16
	call	IsHeapGuardEnabled
	mv	a5,a0
	.loc 1 1621 6 discriminator 1
	beq	a5,zero,.L236
	.loc 1 1622 5
	call	GuardAllFreedPages
.L236:
	.loc 1 1624 1
	nop
	ld	ra,8(sp)
	.cfi_restore 1
	ld	s0,0(sp)
	.cfi_restore 8
	.cfi_def_cfa 2, 16
	addi	sp,sp,16
	.cfi_def_cfa_offset 0
	jr	ra
	.cfi_endproc
.LFE32:
	.size	HeapGuardCpuArchProtocolNotify, .-HeapGuardCpuArchProtocolNotify
	.section	.text.Uint64ToBinString,"ax",@progbits
	.align	1
	.globl	Uint64ToBinString
	.type	Uint64ToBinString, @function
Uint64ToBinString:
.LFB33:
	.loc 1 1639 1
	.cfi_startproc
	addi	sp,sp,-48
	.cfi_def_cfa_offset 48
	sd	ra,40(sp)
	sd	s0,32(sp)
	.cfi_offset 1, -8
	.cfi_offset 8, -16
	addi	s0,sp,48
	.cfi_def_cfa 8, 0
	sd	a0,-40(s0)
	sd	a1,-48(s0)
	.loc 1 1642 6
	ld	a5,-48(s0)
	beq	a5,zero,.L242
	.loc 1 1646 14
	li	a5,64
	sd	a5,-24(s0)
	.loc 1 1646 3
	j	.L240
.L241:
	.loc 1 1647 41
	ld	a5,-40(s0)
	andi	a5,a5,0xff
	andi	a5,a5,1
	andi	a4,a5,0xff
	.loc 1 1647 14
	ld	a5,-24(s0)
	addi	a5,a5,-1
	ld	a3,-48(s0)
	add	a5,a3,a5
	.loc 1 1647 32
	addiw	a4,a4,48
	andi	a4,a4,0xff
	.loc 1 1647 26
	sb	a4,0(a5)
	.loc 1 1648 13
	li	a1,1
	ld	a0,-40(s0)
	call	RShiftU64@plt
	sd	a0,-40(s0)
	.loc 1 1646 31 discriminator 3
	ld	a5,-24(s0)
	addi	a5,a5,-1
	sd	a5,-24(s0)
.L240:
	.loc 1 1646 26 discriminator 1
	ld	a5,-24(s0)
	bne	a5,zero,.L241
	.loc 1 1651 12
	ld	a5,-48(s0)
	addi	a5,a5,64
	.loc 1 1651 17
	sb	zero,0(a5)
	j	.L237
.L242:
	.loc 1 1643 5
	nop
.L237:
	.loc 1 1652 1
	ld	ra,40(sp)
	.cfi_restore 1
	ld	s0,32(sp)
	.cfi_restore 8
	.cfi_def_cfa 2, 48
	addi	sp,sp,48
	.cfi_def_cfa_offset 0
	jr	ra
	.cfi_endproc
.LFE33:
	.size	Uint64ToBinString, .-Uint64ToBinString
	.section	.rodata
	.align	3
.LC0:
	.string	"               3               2               1               0"
	.align	3
.LC1:
	.string	"FEDCBA9876543210FEDCBA9876543210FEDCBA9876543210FEDCBA9876543210"
	.section	.text.DumpGuardedMemoryBitmap,"ax",@progbits
	.align	1
	.globl	DumpGuardedMemoryBitmap
	.type	DumpGuardedMemoryBitmap, @function
DumpGuardedMemoryBitmap:
.LFB34:
	.loc 1 1662 1
	.cfi_startproc
	addi	sp,sp,-336
	.cfi_def_cfa_offset 336
	sd	ra,328(sp)
	sd	s0,320(sp)
	.cfi_offset 1, -8
	.cfi_offset 8, -16
	addi	s0,sp,336
	.cfi_def_cfa 8, 0
	.loc 1 1676 8
	li	a0,19
	call	IsHeapGuardEnabled
	mv	a5,a0
	.loc 1 1676 6 discriminator 1
	beq	a5,zero,.L260
	.loc 1 1680 26
	lla	a5,mGuardedMemoryMap
	ld	a5,0(a5)
	.loc 1 1680 6
	beq	a5,zero,.L261
	.loc 1 1681 18
	lla	a5,mMapLevel
	ld	a5,0(a5)
	.loc 1 1680 32 discriminator 1
	beq	a5,zero,.L261
	.loc 1 1682 18
	lla	a5,mMapLevel
	ld	a4,0(a5)
	.loc 1 1681 24
	li	a5,5
	bgtu	a4,a5,.L261
	.loc 1 1687 10
	lla	a5,.LC0
	sd	a5,-48(s0)
	.loc 1 1688 10
	lla	a5,.LC1
	sd	a5,-56(s0)
	.loc 1 1699 3
	addi	a5,s0,-104
	li	a2,40
	lla	a1,mLevelMask
	mv	a0,a5
	call	CopyMem@plt
	.loc 1 1700 3
	addi	a5,s0,-144
	li	a2,40
	lla	a1,mLevelShift
	mv	a0,a5
	call	CopyMem@plt
	.loc 1 1702 3
	addi	a5,s0,-184
	li	a2,0
	li	a1,40
	mv	a0,a5
	call	SetMem@plt
	.loc 1 1703 3
	addi	a5,s0,-224
	li	a2,0
	li	a1,40
	mv	a0,a5
	call	SetMem@plt
	.loc 1 1704 3
	addi	a5,s0,-264
	li	a2,0
	li	a1,40
	mv	a0,a5
	call	SetMem@plt
	.loc 1 1706 13
	lla	a5,mMapLevel
	ld	a5,0(a5)
	li	a4,5
	sub	a5,a4,a5
	.loc 1 1706 9
	sd	a5,-32(s0)
	.loc 1 1707 17
	lla	a5,mGuardedMemoryMap
	ld	a4,0(a5)
	ld	a3,-32(s0)
	addi	a5,s0,-224
	slli	a3,a3,3
	add	a5,a3,a5
	sd	a4,0(a5)
	.loc 1 1708 11
	sd	zero,-40(s0)
	.loc 1 1709 14
	sd	zero,-24(s0)
.L258:
	.loc 1 1712 16
	ld	a4,-32(s0)
	addi	a5,s0,-184
	slli	a4,a4,3
	add	a5,a4,a5
	ld	a4,0(a5)
	.loc 1 1712 33
	ld	a3,-32(s0)
	addi	a5,s0,-104
	slli	a3,a3,3
	add	a5,a3,a5
	ld	a5,0(a5)
	.loc 1 1712 8
	bleu	a4,a5,.L248
	.loc 1 1713 21
	ld	a4,-32(s0)
	addi	a5,s0,-224
	slli	a4,a4,3
	add	a5,a4,a5
	sd	zero,0(a5)
	.loc 1 1714 13
	ld	a5,-32(s0)
	addi	a5,a5,-1
	sd	a5,-32(s0)
	.loc 1 1715 18
	sd	zero,-24(s0)
	j	.L249
.L248:
	.loc 1 1723 60
	ld	a4,-32(s0)
	addi	a5,s0,-184
	slli	a4,a4,3
	add	a5,a4,a5
	ld	a5,0(a5)
	.loc 1 1723 52
	slli	a4,a5,3
	.loc 1 1723 44
	ld	a3,-32(s0)
	addi	a5,s0,-224
	slli	a3,a3,3
	add	a5,a3,a5
	ld	a5,0(a5)
	.loc 1 1723 52
	add	a5,a4,a5
	.loc 1 1723 18
	ld	a5,0(a5)
	sd	a5,-64(s0)
	.loc 1 1724 15
	ld	a4,-32(s0)
	addi	a5,s0,-264
	slli	a4,a4,3
	add	a5,a4,a5
	ld	a5,0(a5)
	sd	a5,-40(s0)
	.loc 1 1726 10
	ld	a5,-64(s0)
	bne	a5,zero,.L250
	.loc 1 1727 12
	ld	a4,-32(s0)
	li	a5,4
	bne	a4,a5,.L249
	.loc 1 1728 14
	ld	a5,-24(s0)
	bne	a5,zero,.L251
	.loc 1 1729 13
	addi	a5,s0,-336
	mv	a1,a5
	ld	a0,-64(s0)
	call	Uint64ToBinString
.L251:
	.loc 1 1735 22
	ld	a5,-24(s0)
	addi	a5,a5,1
	sd	a5,-24(s0)
	j	.L249
.L250:
	.loc 1 1737 17
	ld	a4,-32(s0)
	li	a5,3
	bgt	a4,a5,.L252
	.loc 1 1738 15
	ld	a5,-32(s0)
	addi	a5,a5,1
	sd	a5,-32(s0)
	.loc 1 1739 23
	ld	a4,-32(s0)
	addi	a5,s0,-224
	slli	a4,a4,3
	add	a5,a4,a5
	ld	a4,-64(s0)
	sd	a4,0(a5)
	.loc 1 1740 26
	ld	a4,-32(s0)
	addi	a5,s0,-264
	slli	a4,a4,3
	add	a5,a4,a5
	ld	a4,-40(s0)
	sd	a4,0(a5)
	.loc 1 1741 24
	ld	a4,-32(s0)
	addi	a5,s0,-184
	slli	a4,a4,3
	add	a5,a4,a5
	sd	zero,0(a5)
	.loc 1 1742 20
	sd	zero,-24(s0)
	.loc 1 1744 9
	j	.L253
.L252:
	.loc 1 1746 20
	sd	zero,-24(s0)
	.loc 1 1747 9
	addi	a5,s0,-336
	mv	a1,a5
	ld	a0,-64(s0)
	call	Uint64ToBinString
.L249:
	.loc 1 1752 22
	lla	a5,mMapLevel
	ld	a5,0(a5)
	mv	a4,a5
	.loc 1 1752 20
	li	a5,5
	sub	a5,a5,a4
	.loc 1 1752 8
	ld	a4,-32(s0)
	blt	a4,a5,.L262
	.loc 1 1756 12
	ld	a4,-32(s0)
	addi	a5,s0,-184
	slli	a4,a4,3
	add	a5,a4,a5
	ld	a5,0(a5)
	.loc 1 1756 20
	addi	a4,a5,1
	ld	a3,-32(s0)
	addi	a5,s0,-184
	slli	a3,a3,3
	add	a5,a3,a5
	sd	a4,0(a5)
	.loc 1 1757 32
	ld	a5,-32(s0)
	beq	a5,zero,.L256
	.loc 1 1757 50 discriminator 1
	ld	a5,-32(s0)
	addi	a4,a5,-1
	.loc 1 1757 13 discriminator 1
	addi	a5,s0,-264
	slli	a4,a4,3
	add	a5,a4,a5
	ld	a5,0(a5)
	sd	a5,-40(s0)
	j	.L257
.L256:
	.loc 1 1757 13 is_stmt 0 discriminator 2
	sd	zero,-40(s0)
.L257:
	.loc 1 1758 52 is_stmt 1
	ld	a4,-32(s0)
	addi	a5,s0,-184
	slli	a4,a4,3
	add	a5,a4,a5
	ld	a3,0(a5)
	.loc 1 1758 34
	ld	a4,-32(s0)
	addi	a5,s0,-144
	slli	a4,a4,3
	add	a5,a4,a5
	ld	a5,0(a5)
	mv	a1,a5
	mv	a0,a3
	call	LShiftU64@plt
	mv	a4,a0
	.loc 1 1758 32 discriminator 1
	ld	a5,-40(s0)
	or	a4,a4,a5
	.loc 1 1758 22 discriminator 1
	ld	a3,-32(s0)
	addi	a5,s0,-264
	slli	a3,a3,3
	add	a5,a3,a5
	sd	a4,0(a5)
.L253:
	.loc 1 1712 8
	j	.L258
.L260:
	.loc 1 1677 5
	nop
	j	.L243
.L261:
	.loc 1 1684 5
	nop
	j	.L243
.L262:
	.loc 1 1753 7
	nop
.L243:
	.loc 1 1760 1
	ld	ra,328(sp)
	.cfi_restore 1
	ld	s0,320(sp)
	.cfi_restore 8
	.cfi_def_cfa 2, 336
	addi	sp,sp,336
	.cfi_def_cfa_offset 0
	jr	ra
	.cfi_endproc
.LFE34:
	.size	DumpGuardedMemoryBitmap, .-DumpGuardedMemoryBitmap
	.text
.Letext0:
	.file 2 "/home/kapoagaeming/Downloads/spacemit-image-builder/components/edk2/MdePkg/Include/RiscV64/ProcessorBind.h"
	.file 3 "/home/kapoagaeming/Downloads/spacemit-image-builder/components/edk2/MdePkg/Include/Base.h"
	.file 4 "/home/kapoagaeming/Downloads/spacemit-image-builder/components/edk2/MdePkg/Include/Uefi/UefiBaseType.h"
	.file 5 "/home/kapoagaeming/Downloads/spacemit-image-builder/components/edk2/MdePkg/Include/Uefi/UefiMultiPhase.h"
	.file 6 "/home/kapoagaeming/Downloads/spacemit-image-builder/components/edk2/MdePkg/Include/Uefi/UefiSpec.h"
	.file 7 "/home/kapoagaeming/Downloads/spacemit-image-builder/components/edk2/MdePkg/Include/Protocol/DebugSupport.h"
	.file 8 "/home/kapoagaeming/Downloads/spacemit-image-builder/components/Build/Milk-V-Jupiter/RELEASE_GCC5/RISCV64/MdeModulePkg/Core/Dxe/DxeMain/DEBUG/AutoGen.h"
	.file 9 "/home/kapoagaeming/Downloads/spacemit-image-builder/components/edk2/MdePkg/Include/Protocol/Cpu.h"
	.file 10 "/home/kapoagaeming/Downloads/spacemit-image-builder/components/edk2/MdeModulePkg/Core/Dxe/DxeMain.h"
	.file 11 "/home/kapoagaeming/Downloads/spacemit-image-builder/components/edk2/MdeModulePkg/Core/Dxe/Mem/HeapGuard.h"
	.file 12 "/home/kapoagaeming/Downloads/spacemit-image-builder/components/edk2/MdePkg/Include/Library/BaseLib.h"
	.file 13 "/home/kapoagaeming/Downloads/spacemit-image-builder/components/edk2/MdePkg/Include/Library/BaseMemoryLib.h"
	.file 14 "/home/kapoagaeming/Downloads/spacemit-image-builder/components/edk2/MdeModulePkg/Core/Dxe/Mem/Imem.h"
	.file 15 "/home/kapoagaeming/Downloads/spacemit-image-builder/components/edk2/MdePkg/Include/Library/DebugLib.h"
	.section	.note.GNU-stack,"",@progbits
