	.file	"MemoryProfileRecord.c"
	.option pic
	.option norelax
	.attribute arch, "rv64i2p1_m2p0_a2p1_f2p2_d2p2_c2p0_zicsr2p0_zifencei2p0_zmmul1p0_zaamo1p0_zalrsc1p0_zca1p0_zcd1p0"
	.attribute unaligned_access, 0
	.attribute stack_align, 16
	.text
.Ltext0:
	.cfi_sections	.debug_frame
	.file 0 "/home/kapoagaeming/Downloads/spacemit-image-builder/components/Build/Milk-V-Jupiter/RELEASE_GCC5/RISCV64/MdeModulePkg/Core/Dxe/DxeMain" "/home/kapoagaeming/Downloads/spacemit-image-builder/components/edk2/MdeModulePkg/Core/Dxe/Mem/MemoryProfileRecord.c"
	.globl	mImageQueue
	.section	.data.rel.local.mImageQueue,"aw"
	.align	3
	.type	mImageQueue, @object
	.size	mImageQueue, 16
mImageQueue:
	.dword	mImageQueue
	.dword	mImageQueue
	.globl	mMemoryProfileContext
	.section	.data.rel.local.mMemoryProfileContext,"aw"
	.align	3
	.type	mMemoryProfileContext, @object
	.size	mMemoryProfileContext, 344
mMemoryProfileContext:
	.word	1413697613
	.zero	4
	.word	1413697613
	.half	328
	.half	2
	.dword	0
	.dword	0
	.dword	0
	.zero	136
	.dword	0
	.zero	136
	.dword	0
	.word	0
	.word	0
	.dword	mImageQueue
	.globl	mMemoryProfileContextPtr
	.section	.bss.mMemoryProfileContextPtr,"aw",@nobits
	.align	3
	.type	mMemoryProfileContextPtr, @object
	.size	mMemoryProfileContextPtr, 8
mMemoryProfileContextPtr:
	.zero	8
	.globl	mMemoryProfileLock
	.section	.data.mMemoryProfileLock,"aw"
	.align	3
	.type	mMemoryProfileLock, @object
	.size	mMemoryProfileLock, 24
mMemoryProfileLock:
	.dword	16
	.dword	4
	.word	1
	.zero	4
	.globl	mMemoryProfileGettingStatus
	.section	.bss.mMemoryProfileGettingStatus,"aw",@nobits
	.type	mMemoryProfileGettingStatus, @object
	.size	mMemoryProfileGettingStatus, 1
mMemoryProfileGettingStatus:
	.zero	1
	.globl	mMemoryProfileRecordingEnable
	.section	.bss.mMemoryProfileRecordingEnable,"aw",@nobits
	.type	mMemoryProfileRecordingEnable, @object
	.size	mMemoryProfileRecordingEnable, 1
mMemoryProfileRecordingEnable:
	.zero	1
	.globl	mMemoryProfileDriverPath
	.section	.bss.mMemoryProfileDriverPath,"aw",@nobits
	.align	3
	.type	mMemoryProfileDriverPath, @object
	.size	mMemoryProfileDriverPath, 8
mMemoryProfileDriverPath:
	.zero	8
	.globl	mMemoryProfileDriverPathSize
	.section	.bss.mMemoryProfileDriverPathSize,"aw",@nobits
	.align	3
	.type	mMemoryProfileDriverPathSize, @object
	.size	mMemoryProfileDriverPathSize, 8
mMemoryProfileDriverPathSize:
	.zero	8
	.globl	mProfileProtocol
	.section	.data.rel.local.mProfileProtocol,"aw"
	.align	3
	.type	mProfileProtocol, @object
	.size	mProfileProtocol, 48
mProfileProtocol:
	.dword	ProfileProtocolGetData
	.dword	ProfileProtocolRegisterImage
	.dword	ProfileProtocolUnregisterImage
	.dword	ProfileProtocolGetRecordingState
	.dword	ProfileProtocolSetRecordingState
	.dword	ProfileProtocolRecord
	.section	.text.CoreAcquireMemoryProfileLock,"ax",@progbits
	.align	1
	.globl	CoreAcquireMemoryProfileLock
	.type	CoreAcquireMemoryProfileLock, @function
CoreAcquireMemoryProfileLock:
.LFB0:
	.file 1 "/home/kapoagaeming/Downloads/spacemit-image-builder/components/edk2/MdeModulePkg/Core/Dxe/Mem/MemoryProfileRecord.c"
	.loc 1 221 1
	.cfi_startproc
	addi	sp,sp,-16
	.cfi_def_cfa_offset 16
	sd	ra,8(sp)
	sd	s0,0(sp)
	.cfi_offset 1, -8
	.cfi_offset 8, -16
	addi	s0,sp,16
	.cfi_def_cfa 8, 0
	.loc 1 222 3
	lla	a0,mMemoryProfileLock
	call	CoreAcquireLock@plt
	.loc 1 223 1
	nop
	ld	ra,8(sp)
	.cfi_restore 1
	ld	s0,0(sp)
	.cfi_restore 8
	.cfi_def_cfa 2, 16
	addi	sp,sp,16
	.cfi_def_cfa_offset 0
	jr	ra
	.cfi_endproc
.LFE0:
	.size	CoreAcquireMemoryProfileLock, .-CoreAcquireMemoryProfileLock
	.section	.text.CoreReleaseMemoryProfileLock,"ax",@progbits
	.align	1
	.globl	CoreReleaseMemoryProfileLock
	.type	CoreReleaseMemoryProfileLock, @function
CoreReleaseMemoryProfileLock:
.LFB1:
	.loc 1 232 1
	.cfi_startproc
	addi	sp,sp,-16
	.cfi_def_cfa_offset 16
	sd	ra,8(sp)
	sd	s0,0(sp)
	.cfi_offset 1, -8
	.cfi_offset 8, -16
	addi	s0,sp,16
	.cfi_def_cfa 8, 0
	.loc 1 233 3
	lla	a0,mMemoryProfileLock
	call	CoreReleaseLock@plt
	.loc 1 234 1
	nop
	ld	ra,8(sp)
	.cfi_restore 1
	ld	s0,0(sp)
	.cfi_restore 8
	.cfi_def_cfa 2, 16
	addi	sp,sp,16
	.cfi_def_cfa_offset 0
	jr	ra
	.cfi_endproc
.LFE1:
	.size	CoreReleaseMemoryProfileLock, .-CoreReleaseMemoryProfileLock
	.section	.text.GetMemoryProfileContext,"ax",@progbits
	.align	1
	.globl	GetMemoryProfileContext
	.type	GetMemoryProfileContext, @function
GetMemoryProfileContext:
.LFB2:
	.loc 1 246 1
	.cfi_startproc
	addi	sp,sp,-16
	.cfi_def_cfa_offset 16
	sd	ra,8(sp)
	sd	s0,0(sp)
	.cfi_offset 1, -8
	.cfi_offset 8, -16
	addi	s0,sp,16
	.cfi_def_cfa 8, 0
	.loc 1 247 10
	lla	a5,mMemoryProfileContextPtr
	ld	a5,0(a5)
	.loc 1 248 1
	mv	a0,a5
	ld	ra,8(sp)
	.cfi_restore 1
	ld	s0,0(sp)
	.cfi_restore 8
	.cfi_def_cfa 2, 16
	addi	sp,sp,16
	.cfi_def_cfa_offset 0
	jr	ra
	.cfi_endproc
.LFE2:
	.size	GetMemoryProfileContext, .-GetMemoryProfileContext
	.section	.text.InternalPeCoffGetSubsystem,"ax",@progbits
	.align	1
	.globl	InternalPeCoffGetSubsystem
	.type	InternalPeCoffGetSubsystem, @function
InternalPeCoffGetSubsystem:
.LFB3:
	.loc 1 263 1
	.cfi_startproc
	addi	sp,sp,-64
	.cfi_def_cfa_offset 64
	sd	ra,56(sp)
	sd	s0,48(sp)
	.cfi_offset 1, -8
	.cfi_offset 8, -16
	addi	s0,sp,64
	.cfi_def_cfa 8, 0
	sd	a0,-56(s0)
	.loc 1 270 10
	ld	a5,-56(s0)
	sd	a5,-24(s0)
	.loc 1 271 13
	ld	a5,-24(s0)
	lhu	a5,0(a5)
	.loc 1 271 6
	sext.w	a4,a5
	li	a5,24576
	addi	a5,a5,-1459
	bne	a4,a5,.L6
	.loc 1 275 76
	ld	a5,-24(s0)
	lw	a5,60(a5)
	.loc 1 275 88
	slli	a5,a5,32
	srli	a5,a5,32
	.loc 1 275 61
	slli	a4,a5,48
	srli	a4,a4,48
	.loc 1 275 43
	ld	a5,-56(s0)
	.loc 1 275 59
	add	a5,a4,a5
	.loc 1 275 14
	sd	a5,-40(s0)
	j	.L7
.L6:
	.loc 1 280 14
	ld	a5,-56(s0)
	sd	a5,-40(s0)
.L7:
	.loc 1 283 10
	ld	a5,-40(s0)
	.loc 1 283 13
	lhu	a5,0(a5)
	.loc 1 283 6
	sext.w	a4,a5
	li	a5,24576
	addi	a5,a5,-1450
	bne	a4,a5,.L8
	.loc 1 284 15
	ld	a5,-40(s0)
	.loc 1 284 18
	lbu	a5,5(a5)
	j	.L12
.L8:
	.loc 1 285 17
	ld	a5,-40(s0)
	.loc 1 285 22
	lw	a4,0(a5)
	.loc 1 285 13
	li	a5,16384
	addi	a5,a5,1360
	bne	a4,a5,.L10
	.loc 1 286 16
	ld	a5,-40(s0)
	.loc 1 286 11
	lhu	a5,24(a5)
	sh	a5,-26(s0)
	.loc 1 287 8
	lhu	a5,-26(s0)
	sext.w	a4,a5
	li	a5,267
	bne	a4,a5,.L11
	.loc 1 288 17
	ld	a5,-40(s0)
	.loc 1 288 38
	lhu	a5,92(a5)
	j	.L12
.L11:
	.loc 1 289 15
	lhu	a5,-26(s0)
	sext.w	a4,a5
	li	a5,523
	bne	a4,a5,.L10
	.loc 1 290 17
	ld	a5,-40(s0)
	.loc 1 290 42
	lhu	a5,92(a5)
	j	.L12
.L10:
	.loc 1 294 10
	li	a5,0
.L12:
	.loc 1 295 1
	mv	a0,a5
	ld	ra,56(sp)
	.cfi_restore 1
	ld	s0,48(sp)
	.cfi_restore 8
	.cfi_def_cfa 2, 64
	addi	sp,sp,64
	.cfi_def_cfa_offset 0
	jr	ra
	.cfi_endproc
.LFE3:
	.size	InternalPeCoffGetSubsystem, .-InternalPeCoffGetSubsystem
	.section	.text.InternalPeCoffGetEntryPoint,"ax",@progbits
	.align	1
	.globl	InternalPeCoffGetEntryPoint
	.type	InternalPeCoffGetEntryPoint, @function
InternalPeCoffGetEntryPoint:
.LFB4:
	.loc 1 319 1
	.cfi_startproc
	addi	sp,sp,-48
	.cfi_def_cfa_offset 48
	sd	ra,40(sp)
	sd	s0,32(sp)
	.cfi_offset 1, -8
	.cfi_offset 8, -16
	addi	s0,sp,48
	.cfi_def_cfa 8, 0
	sd	a0,-40(s0)
	sd	a1,-48(s0)
	.loc 1 326 10
	ld	a5,-40(s0)
	sd	a5,-24(s0)
	.loc 1 327 13
	ld	a5,-24(s0)
	lhu	a5,0(a5)
	.loc 1 327 6
	sext.w	a4,a5
	li	a5,24576
	addi	a5,a5,-1459
	bne	a4,a5,.L14
	.loc 1 331 76
	ld	a5,-24(s0)
	lw	a5,60(a5)
	.loc 1 331 88
	slli	a5,a5,32
	srli	a5,a5,32
	.loc 1 331 61
	slli	a4,a5,48
	srli	a4,a4,48
	.loc 1 331 43
	ld	a5,-40(s0)
	.loc 1 331 59
	add	a5,a4,a5
	.loc 1 331 14
	sd	a5,-32(s0)
	j	.L15
.L14:
	.loc 1 336 14
	ld	a5,-40(s0)
	sd	a5,-32(s0)
.L15:
	.loc 1 343 10
	ld	a5,-32(s0)
	.loc 1 343 13
	lhu	a5,0(a5)
	.loc 1 343 6
	sext.w	a4,a5
	li	a5,24576
	addi	a5,a5,-1450
	bne	a4,a5,.L16
	.loc 1 344 57
	ld	a5,-32(s0)
	.loc 1 344 60
	lw	a5,8(a5)
	.loc 1 344 46
	slli	a4,a5,32
	srli	a4,a4,32
	.loc 1 344 28
	ld	a5,-40(s0)
	.loc 1 344 44
	add	a5,a4,a5
	.loc 1 344 133
	ld	a4,-32(s0)
	.loc 1 344 136
	lhu	a4,6(a4)
	.loc 1 344 128
	sub	a5,a5,a4
	addi	a5,a5,40
	.loc 1 344 19
	mv	a4,a5
	.loc 1 344 17
	ld	a5,-48(s0)
	sd	a4,0(a5)
	.loc 1 345 12
	li	a5,0
	j	.L19
.L16:
	.loc 1 346 17
	ld	a5,-32(s0)
	.loc 1 346 22
	lw	a4,0(a5)
	.loc 1 346 13
	li	a5,16384
	addi	a5,a5,1360
	bne	a4,a5,.L18
	.loc 1 347 57
	ld	a5,-32(s0)
	.loc 1 347 78
	lw	a5,40(a5)
	.loc 1 347 46
	slli	a4,a5,32
	srli	a4,a4,32
	.loc 1 347 28
	ld	a5,-40(s0)
	.loc 1 347 44
	add	a5,a4,a5
	.loc 1 347 19
	mv	a4,a5
	.loc 1 347 17
	ld	a5,-48(s0)
	sd	a4,0(a5)
	.loc 1 348 12
	li	a5,0
	j	.L19
.L18:
	.loc 1 351 10
	li	a5,-1
	slli	a5,a5,63
	addi	a5,a5,3
.L19:
	.loc 1 352 1
	mv	a0,a5
	ld	ra,40(sp)
	.cfi_restore 1
	ld	s0,32(sp)
	.cfi_restore 8
	.cfi_def_cfa 2, 48
	addi	sp,sp,48
	.cfi_def_cfa_offset 0
	jr	ra
	.cfi_endproc
.LFE4:
	.size	InternalPeCoffGetEntryPoint, .-InternalPeCoffGetEntryPoint
	.section	.text.BuildDriverInfo,"ax",@progbits
	.align	1
	.globl	BuildDriverInfo
	.type	BuildDriverInfo, @function
BuildDriverInfo:
.LFB5:
	.loc 1 378 1
	.cfi_startproc
	addi	sp,sp,-128
	.cfi_def_cfa_offset 128
	sd	ra,120(sp)
	sd	s0,112(sp)
	.cfi_offset 1, -8
	.cfi_offset 8, -16
	addi	s0,sp,128
	.cfi_def_cfa 8, 0
	sd	a0,-88(s0)
	sd	a1,-96(s0)
	sd	a2,-104(s0)
	sd	a3,-112(s0)
	sd	a4,-120(s0)
	mv	a4,a6
	sh	a5,-122(s0)
	mv	a5,a4
	sb	a5,-123(s0)
	.loc 1 387 11
	sd	zero,-32(s0)
	.loc 1 388 19
	sd	zero,-40(s0)
	.loc 1 389 13
	sd	zero,-24(s0)
	.loc 1 390 6
	ld	a5,-104(s0)
	beq	a5,zero,.L21
	.loc 1 391 17
	ld	a5,-104(s0)
	mv	a0,a5
	call	PeCoffLoaderGetPdbPointer@plt
	sd	a0,-24(s0)
	.loc 1 392 8
	ld	a5,-24(s0)
	beq	a5,zero,.L21
	.loc 1 393 17
	ld	a0,-24(s0)
	call	AsciiStrSize@plt
	sd	a0,-32(s0)
	.loc 1 394 99
	ld	a5,-32(s0)
	neg	a5,a5
	andi	a5,a5,7
	.loc 1 394 23
	ld	a4,-32(s0)
	add	a5,a4,a5
	sd	a5,-40(s0)
.L21:
	.loc 1 403 61
	ld	a5,-32(s0)
	addi	a5,a5,424
	.loc 1 401 12
	addi	a4,s0,-64
	mv	a2,a4
	mv	a1,a5
	li	a0,4
	call	CoreInternalAllocatePool@plt
	sd	a0,-48(s0)
	.loc 1 406 34
	ld	a5,-48(s0)
	.loc 1 406 6
	bge	a5,zero,.L22
	.loc 1 407 12
	li	a5,0
	j	.L29
.L22:
	.loc 1 412 3
	ld	a5,-64(s0)
	li	a1,408
	mv	a0,a5
	call	ZeroMem@plt
	.loc 1 414 31
	ld	a5,-64(s0)
	.loc 1 414 14
	addi	a5,a5,8
	sd	a5,-56(s0)
	.loc 1 415 17
	ld	a5,-64(s0)
	.loc 1 415 29
	li	a4,1229213696
	addi	a4,a4,77
	sw	a4,0(a5)
	.loc 1 416 32
	ld	a5,-56(s0)
	li	a4,1229213696
	addi	a4,a4,77
	sw	a4,0(a5)
	.loc 1 417 31
	ld	a5,-40(s0)
	slli	a5,a5,48
	srli	a5,a5,48
	addiw	a5,a5,368
	slli	a4,a5,48
	srli	a4,a4,48
	.loc 1 417 29
	ld	a5,-56(s0)
	sh	a4,4(a5)
	.loc 1 418 31
	ld	a5,-56(s0)
	li	a4,3
	sh	a4,6(a5)
	.loc 1 419 6
	ld	a5,-96(s0)
	beq	a5,zero,.L24
	.loc 1 420 14
	ld	a5,-56(s0)
	addi	a5,a5,8
	.loc 1 420 5
	li	a2,16
	ld	a1,-96(s0)
	mv	a0,a5
	call	CopyMem@plt
.L24:
	.loc 1 423 25
	ld	a5,-56(s0)
	ld	a4,-104(s0)
	sd	a4,24(a5)
	.loc 1 424 25
	ld	a5,-56(s0)
	ld	a4,-112(s0)
	sd	a4,32(a5)
	.loc 1 425 26
	ld	a5,-56(s0)
	ld	a4,-120(s0)
	sd	a4,40(a5)
	.loc 1 426 30
	ld	a5,-56(s0)
	lhu	a4,-122(s0)
	sh	a4,48(a5)
	.loc 1 427 6
	ld	a5,-120(s0)
	beq	a5,zero,.L25
	.loc 1 427 25 discriminator 1
	ld	a4,-120(s0)
	ld	a5,-104(s0)
	bltu	a4,a5,.L26
	.loc 1 427 83 discriminator 2
	ld	a4,-104(s0)
	ld	a5,-112(s0)
	add	a5,a4,a5
	.loc 1 427 54 discriminator 2
	ld	a4,-120(s0)
	bltu	a4,a5,.L25
.L26:
	.loc 1 432 14
	ld	a5,-104(s0)
	addi	a4,s0,-72
	mv	a1,a4
	mv	a0,a5
	call	InternalPeCoffGetEntryPoint
	sd	a0,-48(s0)
	.loc 1 434 39
	ld	a4,-104(s0)
	ld	a5,-120(s0)
	add	a5,a4,a5
	.loc 1 434 54
	ld	a4,-72(s0)
	.loc 1 434 52
	sub	a4,a5,a4
	.loc 1 434 27
	ld	a5,-56(s0)
	sd	a4,24(a5)
.L25:
	.loc 1 437 24
	ld	a5,-56(s0)
	lbu	a4,-123(s0)
	sb	a4,50(a5)
	.loc 1 438 65
	ld	a4,-64(s0)
	.loc 1 438 17
	ld	a5,-64(s0)
	.loc 1 438 65
	addi	a4,a4,408
	.loc 1 438 33
	sd	a4,376(a5)
	.loc 1 439 37
	ld	a5,-64(s0)
	.loc 1 439 3
	ld	a5,376(a5)
	mv	a0,a5
	call	InitializeListHead@plt
	.loc 1 440 28
	ld	a5,-56(s0)
	sd	zero,56(a5)
	.loc 1 441 25
	ld	a5,-56(s0)
	sd	zero,64(a5)
	.loc 1 442 32
	ld	a5,-56(s0)
	sw	zero,52(a5)
	.loc 1 443 6
	ld	a5,-32(s0)
	beq	a5,zero,.L27
	.loc 1 444 33
	ld	a5,-56(s0)
	li	a4,368
	sh	a4,360(a5)
	.loc 1 445 57
	ld	a5,-64(s0)
	ld	a4,376(a5)
	.loc 1 445 19
	ld	a5,-64(s0)
	.loc 1 445 73
	addi	a4,a4,16
	.loc 1 445 31
	sd	a4,384(a5)
	.loc 1 446 28
	ld	a5,-64(s0)
	ld	a5,384(a5)
	.loc 1 446 5
	ld	a2,-32(s0)
	ld	a1,-24(s0)
	mv	a0,a5
	call	CopyMem@plt
	j	.L28
.L27:
	.loc 1 448 33
	ld	a5,-56(s0)
	sh	zero,360(a5)
	.loc 1 449 19
	ld	a5,-64(s0)
	.loc 1 449 31
	sd	zero,384(a5)
.L28:
	.loc 1 452 3
	ld	a5,-88(s0)
	ld	a4,336(a5)
	.loc 1 452 63
	ld	a5,-64(s0)
	.loc 1 452 3
	addi	a5,a5,392
	mv	a1,a5
	mv	a0,a4
	call	InsertTailList@plt
	.loc 1 453 23
	ld	a5,-88(s0)
	lw	a5,328(a5)
	.loc 1 453 34
	addiw	a5,a5,1
	sext.w	a4,a5
	ld	a5,-88(s0)
	sw	a4,328(a5)
	.loc 1 454 23
	ld	a5,-88(s0)
	ld	a4,320(a5)
	.loc 1 454 52
	ld	a5,-56(s0)
	ld	a5,32(a5)
	.loc 1 454 39
	add	a4,a4,a5
	ld	a5,-88(s0)
	sd	a4,320(a5)
	.loc 1 456 10
	ld	a5,-64(s0)
.L29:
	.loc 1 457 1
	mv	a0,a5
	ld	ra,120(sp)
	.cfi_restore 1
	ld	s0,112(sp)
	.cfi_restore 8
	.cfi_def_cfa 2, 128
	addi	sp,sp,128
	.cfi_def_cfa_offset 0
	jr	ra
	.cfi_endproc
.LFE5:
	.size	BuildDriverInfo, .-BuildDriverInfo
	.section	.text.NeedRecordThisDriver,"ax",@progbits
	.align	1
	.globl	NeedRecordThisDriver
	.type	NeedRecordThisDriver, @function
NeedRecordThisDriver:
.LFB6:
	.loc 1 472 1
	.cfi_startproc
	addi	sp,sp,-80
	.cfi_def_cfa_offset 80
	sd	ra,72(sp)
	sd	s0,64(sp)
	sd	s1,56(sp)
	.cfi_offset 1, -8
	.cfi_offset 8, -16
	.cfi_offset 9, -24
	addi	s0,sp,80
	.cfi_def_cfa 8, 0
	sd	a0,-72(s0)
	.loc 1 478 8
	lla	a5,mMemoryProfileDriverPath
	ld	a4,0(a5)
	lla	a5,mMemoryProfileDriverPathSize
	ld	a5,0(a5)
	mv	a1,a5
	mv	a0,a4
	call	IsDevicePathValid@plt
	mv	a5,a0
	.loc 1 478 6 discriminator 1
	bne	a5,zero,.L31
	.loc 1 482 12
	li	a5,1
	j	.L32
.L31:
	.loc 1 488 18
	ld	a0,-72(s0)
	call	GetDevicePathSize@plt
	mv	a5,a0
	.loc 1 488 16 discriminator 1
	addi	a5,a5,-4
	sd	a5,-56(s0)
	.loc 1 490 22
	lla	a5,mMemoryProfileDriverPath
	ld	a5,0(a5)
	sd	a5,-48(s0)
.L36:
	.loc 1 495 19
	ld	a5,-48(s0)
	sd	a5,-40(s0)
	.loc 1 496 11
	j	.L33
.L34:
	.loc 1 497 23
	ld	a0,-40(s0)
	call	NextDevicePathNode@plt
	sd	a0,-40(s0)
.L33:
	.loc 1 496 13
	ld	a0,-40(s0)
	call	IsDevicePathEndType@plt
	mv	a5,a0
	.loc 1 496 12 discriminator 1
	beq	a5,zero,.L34
	.loc 1 503 22
	ld	a4,-40(s0)
	.loc 1 503 45
	ld	a5,-48(s0)
	.loc 1 503 20
	sub	a5,a4,a5
	sd	a5,-64(s0)
	.loc 1 504 8
	ld	a4,-56(s0)
	ld	a5,-64(s0)
	bne	a4,a5,.L35
	.loc 1 505 10
	ld	a2,-64(s0)
	ld	a1,-48(s0)
	ld	a0,-72(s0)
	call	CompareMem@plt
	mv	a5,a0
	.loc 1 504 42 discriminator 1
	bne	a5,zero,.L35
	.loc 1 507 14
	li	a5,1
	j	.L32
.L35:
	.loc 1 513 55
	ld	a4,-48(s0)
	.loc 1 513 81
	ld	a5,-64(s0)
	add	s1,a4,a5
	.loc 1 513 100
	ld	a0,-40(s0)
	call	DevicePathNodeLength@plt
	mv	a5,a0
	.loc 1 513 98 discriminator 1
	add	a5,s1,a5
	.loc 1 513 24 discriminator 1
	sd	a5,-48(s0)
	.loc 1 514 12
	ld	a0,-40(s0)
	call	DevicePathSubType@plt
	mv	a5,a0
	.loc 1 514 46 discriminator 1
	mv	a4,a5
	li	a5,255
	bne	a4,a5,.L36
	.loc 1 516 10
	li	a5,0
.L32:
	.loc 1 517 1
	mv	a0,a5
	ld	ra,72(sp)
	.cfi_restore 1
	ld	s0,64(sp)
	.cfi_restore 8
	.cfi_def_cfa 2, 80
	ld	s1,56(sp)
	.cfi_restore 9
	addi	sp,sp,80
	.cfi_def_cfa_offset 0
	jr	ra
	.cfi_endproc
.LFE6:
	.size	NeedRecordThisDriver, .-NeedRecordThisDriver
	.section	.text.RegisterDxeCore,"ax",@progbits
	.align	1
	.globl	RegisterDxeCore
	.type	RegisterDxeCore, @function
RegisterDxeCore:
.LFB7:
	.loc 1 534 1
	.cfi_startproc
	addi	sp,sp,-128
	.cfi_def_cfa_offset 128
	sd	ra,120(sp)
	sd	s0,112(sp)
	sd	s1,104(sp)
	sd	s2,96(sp)
	sd	s3,88(sp)
	.cfi_offset 1, -8
	.cfi_offset 8, -16
	.cfi_offset 9, -24
	.cfi_offset 18, -32
	.cfi_offset 19, -40
	addi	s0,sp,128
	.cfi_def_cfa 8, 0
	sd	a0,-120(s0)
	sd	a1,-128(s0)
	.loc 1 546 18
	ld	a5,-120(s0)
	sd	a5,-80(s0)
	.loc 1 547 9
	j	.L38
.L41:
	.loc 1 548 33
	ld	a5,-80(s0)
	.loc 1 548 22
	addi	a5,a5,8
	.loc 1 548 9
	la	a1,gEfiHobMemoryAllocModuleGuid
	mv	a0,a5
	call	CompareGuid@plt
	mv	a5,a0
	.loc 1 548 8 discriminator 1
	bne	a5,zero,.L46
	.loc 1 555 42
	addi	a5,s0,-80
	.loc 1 555 31
	ld	a5,0(a5)
	.loc 1 555 88
	addi	a4,s0,-80
	.loc 1 555 60
	ld	a4,0(a4)
	.loc 1 555 102
	lhu	a4,2(a4)
	.loc 1 555 56
	add	a5,a5,a4
	.loc 1 555 20
	sd	a5,-80(s0)
.L38:
	.loc 1 547 58
	ld	a5,-80(s0)
	.loc 1 547 28
	mv	a1,a5
	li	a0,2
	call	GetNextHob@plt
	mv	a5,a0
	.loc 1 547 26 discriminator 1
	sd	a5,-80(s0)
	.loc 1 547 21 discriminator 1
	ld	a5,-80(s0)
	.loc 1 547 65 discriminator 1
	bne	a5,zero,.L41
	j	.L40
.L46:
	.loc 1 552 7
	nop
.L40:
	.loc 1 560 12
	addi	a5,s0,-104
	sd	a5,-56(s0)
	.loc 1 561 58
	ld	a5,-80(s0)
	.loc 1 561 47
	addi	a5,a5,48
	.loc 1 561 3
	mv	a1,a5
	ld	a0,-56(s0)
	call	EfiInitializeFwVolDevicepathNode@plt
	.loc 1 562 34
	ld	a5,-56(s0)
	addi	a5,a5,20
	.loc 1 562 3
	mv	a0,a5
	call	SetDevicePathEndNode@plt
	.loc 1 564 8
	ld	a0,-56(s0)
	call	NeedRecordThisDriver
	mv	a5,a0
	.loc 1 564 6 discriminator 1
	bne	a5,zero,.L42
	.loc 1 565 12
	li	a5,0
	j	.L45
.L42:
	.loc 1 568 25
	ld	a5,-80(s0)
	.loc 1 568 13
	ld	a5,24(a5)
	sd	a5,-64(s0)
	.loc 1 571 33
	ld	a5,-80(s0)
	.loc 1 569 20
	addi	s1,a5,48
	.loc 1 573 32
	ld	a5,-80(s0)
	.loc 1 569 20
	ld	s2,32(a5)
	.loc 1 574 32
	ld	a5,-80(s0)
	.loc 1 574 55
	ld	s3,64(a5)
	.loc 1 569 20
	ld	a5,-64(s0)
	mv	a0,a5
	call	InternalPeCoffGetSubsystem
	mv	a5,a0
	.loc 1 569 20 is_stmt 0 discriminator 1
	li	a6,5
	mv	a4,s3
	mv	a3,s2
	ld	a2,-64(s0)
	mv	a1,s1
	ld	a0,-128(s0)
	call	BuildDriverInfo
	sd	a0,-72(s0)
	.loc 1 578 6 is_stmt 1
	ld	a5,-72(s0)
	bne	a5,zero,.L44
	.loc 1 579 12
	li	a5,0
	j	.L45
.L44:
	.loc 1 582 10
	li	a5,1
.L45:
	.loc 1 583 1
	mv	a0,a5
	ld	ra,120(sp)
	.cfi_restore 1
	ld	s0,112(sp)
	.cfi_restore 8
	.cfi_def_cfa 2, 128
	ld	s1,104(sp)
	.cfi_restore 9
	ld	s2,96(sp)
	.cfi_restore 18
	ld	s3,88(sp)
	.cfi_restore 19
	addi	sp,sp,128
	.cfi_def_cfa_offset 0
	jr	ra
	.cfi_endproc
.LFE7:
	.size	RegisterDxeCore, .-RegisterDxeCore
	.section	.text.MemoryProfileInit,"ax",@progbits
	.align	1
	.globl	MemoryProfileInit
	.type	MemoryProfileInit, @function
MemoryProfileInit:
.LFB8:
	.loc 1 595 1
	.cfi_startproc
	addi	sp,sp,-48
	.cfi_def_cfa_offset 48
	sd	ra,40(sp)
	sd	s0,32(sp)
	.cfi_offset 1, -8
	.cfi_offset 8, -16
	addi	s0,sp,48
	.cfi_def_cfa 8, 0
	sd	a0,-40(s0)
	.loc 1 598 58
	la	a5,_gPcd_FixedAtBuild_PcdMemoryProfilePropertyMask
	lbu	a5,0(a5)
	sext.w	a5,a5
	andi	a5,a5,1
	sext.w	a5,a5
	.loc 1 598 6
	beq	a5,zero,.L53
	.loc 1 602 17
	call	GetMemoryProfileContext
	sd	a0,-24(s0)
	.loc 1 603 6
	ld	a5,-24(s0)
	bne	a5,zero,.L54
	.loc 1 607 31
	lla	a5,mMemoryProfileGettingStatus
	sb	zero,0(a5)
	.loc 1 608 70
	la	a5,_gPcd_FixedAtBuild_PcdMemoryProfilePropertyMask
	lbu	a5,0(a5)
	slliw	a5,a5,24
	sraiw	a5,a5,24
	.loc 1 608 6
	bge	a5,zero,.L51
	.loc 1 609 35
	lla	a5,mMemoryProfileRecordingEnable
	sb	zero,0(a5)
	j	.L52
.L51:
	.loc 1 611 35
	lla	a5,mMemoryProfileRecordingEnable
	li	a4,1
	sb	a4,0(a5)
.L52:
	.loc 1 614 32
	lla	a5,mMemoryProfileDriverPathSize
	li	a4,1
	sd	a4,0(a5)
	.loc 1 615 30
	lla	a5,mMemoryProfileDriverPathSize
	ld	a5,0(a5)
	la	a1,_gPcd_FixedAtBuild_PcdMemoryProfileDriverPath
	mv	a0,a5
	call	AllocateCopyPool@plt
	mv	a4,a0
	.loc 1 615 28 discriminator 1
	lla	a5,mMemoryProfileDriverPath
	sd	a4,0(a5)
	.loc 1 616 28
	lla	a5,mMemoryProfileContextPtr
	lla	a4,mMemoryProfileContext
	sd	a4,0(a5)
	.loc 1 618 3
	lla	a1,mMemoryProfileContext
	ld	a0,-40(s0)
	call	RegisterDxeCore
	j	.L47
.L53:
	.loc 1 599 5
	nop
	j	.L47
.L54:
	.loc 1 604 5
	nop
.L47:
	.loc 1 621 1
	ld	ra,40(sp)
	.cfi_restore 1
	ld	s0,32(sp)
	.cfi_restore 8
	.cfi_def_cfa 2, 48
	addi	sp,sp,48
	.cfi_def_cfa_offset 0
	jr	ra
	.cfi_endproc
.LFE8:
	.size	MemoryProfileInit, .-MemoryProfileInit
	.section	.text.MemoryProfileInstallProtocol,"ax",@progbits
	.align	1
	.globl	MemoryProfileInstallProtocol
	.type	MemoryProfileInstallProtocol, @function
MemoryProfileInstallProtocol:
.LFB9:
	.loc 1 631 1
	.cfi_startproc
	addi	sp,sp,-32
	.cfi_def_cfa_offset 32
	sd	ra,24(sp)
	sd	s0,16(sp)
	.cfi_offset 1, -8
	.cfi_offset 8, -16
	addi	s0,sp,32
	.cfi_def_cfa 8, 0
	.loc 1 635 58
	la	a5,_gPcd_FixedAtBuild_PcdMemoryProfilePropertyMask
	lbu	a5,0(a5)
	sext.w	a5,a5
	andi	a5,a5,1
	sext.w	a5,a5
	.loc 1 635 6
	beq	a5,zero,.L58
	.loc 1 639 10
	sd	zero,-32(s0)
	.loc 1 640 12
	addi	a5,s0,-32
	li	a3,0
	lla	a2,mProfileProtocol
	la	a1,gEdkiiMemoryProfileGuid
	mv	a0,a5
	call	CoreInstallMultipleProtocolInterfaces@plt
	sd	a0,-24(s0)
	j	.L55
.L58:
	.loc 1 636 5 discriminator 1
	nop
.L55:
	.loc 1 647 1
	ld	ra,24(sp)
	.cfi_restore 1
	ld	s0,16(sp)
	.cfi_restore 8
	.cfi_def_cfa 2, 32
	addi	sp,sp,32
	.cfi_def_cfa_offset 0
	jr	ra
	.cfi_endproc
.LFE9:
	.size	MemoryProfileInstallProtocol, .-MemoryProfileInstallProtocol
	.section	.text.GetFileNameFromFilePath,"ax",@progbits
	.align	1
	.globl	GetFileNameFromFilePath
	.type	GetFileNameFromFilePath, @function
GetFileNameFromFilePath:
.LFB10:
	.loc 1 661 1
	.cfi_startproc
	addi	sp,sp,-48
	.cfi_def_cfa_offset 48
	sd	ra,40(sp)
	sd	s0,32(sp)
	.cfi_offset 1, -8
	.cfi_offset 8, -16
	addi	s0,sp,48
	.cfi_def_cfa 8, 0
	sd	a0,-40(s0)
	.loc 1 665 12
	sd	zero,-32(s0)
	.loc 1 666 6
	ld	a5,-40(s0)
	beq	a5,zero,.L60
	.loc 1 667 18
	ld	a5,-40(s0)
	sd	a5,-24(s0)
	.loc 1 668 11
	j	.L61
.L63:
	.loc 1 669 18
	ld	a0,-24(s0)
	call	EfiGetNameGuidFromFwVolDevicePathNode@plt
	sd	a0,-32(s0)
	.loc 1 670 10
	ld	a5,-32(s0)
	bne	a5,zero,.L65
	.loc 1 674 59
	ld	a0,-24(s0)
	call	NextDevicePathNode@plt
	sd	a0,-24(s0)
.L61:
	.loc 1 668 13
	ld	a0,-24(s0)
	call	IsDevicePathEnd@plt
	mv	a5,a0
	.loc 1 668 12 discriminator 1
	beq	a5,zero,.L63
	j	.L60
.L65:
	.loc 1 671 9
	nop
.L60:
	.loc 1 678 10
	ld	a5,-32(s0)
	.loc 1 679 1
	mv	a0,a5
	ld	ra,40(sp)
	.cfi_restore 1
	ld	s0,32(sp)
	.cfi_restore 8
	.cfi_def_cfa 2, 48
	addi	sp,sp,48
	.cfi_def_cfa_offset 0
	jr	ra
	.cfi_endproc
.LFE10:
	.size	GetFileNameFromFilePath, .-GetFileNameFromFilePath
	.section	.text.RegisterMemoryProfileImage,"ax",@progbits
	.align	1
	.globl	RegisterMemoryProfileImage
	.type	RegisterMemoryProfileImage, @function
RegisterMemoryProfileImage:
.LFB11:
	.loc 1 698 1
	.cfi_startproc
	addi	sp,sp,-48
	.cfi_def_cfa_offset 48
	sd	ra,40(sp)
	sd	s0,32(sp)
	.cfi_offset 1, -8
	.cfi_offset 8, -16
	addi	s0,sp,48
	.cfi_def_cfa 8, 0
	sd	a0,-40(s0)
	mv	a5,a1
	sb	a5,-41(s0)
	.loc 1 702 58
	la	a5,_gPcd_FixedAtBuild_PcdMemoryProfilePropertyMask
	lbu	a5,0(a5)
	sext.w	a5,a5
	andi	a5,a5,1
	sext.w	a5,a5
	.loc 1 702 6
	bne	a5,zero,.L67
	.loc 1 703 12
	li	a5,-1
	slli	a5,a5,63
	addi	a5,a5,3
	j	.L68
.L67:
	.loc 1 706 8
	ld	a5,-40(s0)
	ld	a5,72(a5)
	mv	a0,a5
	call	NeedRecordThisDriver
	mv	a5,a0
	.loc 1 706 6 discriminator 1
	bne	a5,zero,.L69
	.loc 1 707 12
	li	a5,-1
	slli	a5,a5,63
	addi	a5,a5,3
	j	.L68
.L69:
	.loc 1 710 17
	call	GetMemoryProfileContext
	sd	a0,-24(s0)
	.loc 1 711 6
	ld	a5,-24(s0)
	bne	a5,zero,.L70
	.loc 1 712 12
	li	a5,-1
	slli	a5,a5,63
	addi	a5,a5,3
	j	.L68
.L70:
	.loc 1 715 20
	ld	a5,-40(s0)
	ld	a5,72(a5)
	mv	a0,a5
	call	GetFileNameFromFilePath
	.loc 1 715 20 is_stmt 0 discriminator 1
	ld	a5,-40(s0)
	ld	a2,240(a5)
	ld	a5,-40(s0)
	ld	a3,248(a5)
	ld	a5,-40(s0)
	ld	a4,264(a5)
	ld	a5,-40(s0)
	lhu	a5,362(a5)
	lbu	a1,-41(s0)
	mv	a6,a1
	mv	a1,a0
	ld	a0,-24(s0)
	call	BuildDriverInfo
	sd	a0,-32(s0)
	.loc 1 724 6 is_stmt 1
	ld	a5,-32(s0)
	bne	a5,zero,.L71
	.loc 1 725 12
	li	a5,-1
	slli	a5,a5,63
	addi	a5,a5,9
	j	.L68
.L71:
	.loc 1 728 10
	li	a5,0
.L68:
	.loc 1 729 1
	mv	a0,a5
	ld	ra,40(sp)
	.cfi_restore 1
	ld	s0,32(sp)
	.cfi_restore 8
	.cfi_def_cfa 2, 48
	addi	sp,sp,48
	.cfi_def_cfa_offset 0
	jr	ra
	.cfi_endproc
.LFE11:
	.size	RegisterMemoryProfileImage, .-RegisterMemoryProfileImage
	.section	.text.GetMemoryProfileDriverInfoByFileNameAndAddress,"ax",@progbits
	.align	1
	.globl	GetMemoryProfileDriverInfoByFileNameAndAddress
	.type	GetMemoryProfileDriverInfoByFileNameAndAddress, @function
GetMemoryProfileDriverInfoByFileNameAndAddress:
.LFB12:
	.loc 1 747 1
	.cfi_startproc
	addi	sp,sp,-80
	.cfi_def_cfa_offset 80
	sd	ra,72(sp)
	sd	s0,64(sp)
	.cfi_offset 1, -8
	.cfi_offset 8, -16
	addi	s0,sp,80
	.cfi_def_cfa 8, 0
	sd	a0,-56(s0)
	sd	a1,-64(s0)
	sd	a2,-72(s0)
	.loc 1 753 18
	ld	a5,-56(s0)
	ld	a5,336(a5)
	sd	a5,-40(s0)
	.loc 1 755 19
	ld	a5,-40(s0)
	ld	a5,0(a5)
	sd	a5,-32(s0)
	.loc 1 755 3
	j	.L73
.L78:
	.loc 1 759 24
	ld	a5,-32(s0)
	addi	a5,a5,-392
	.loc 1 759 164
	lw	a4,0(a5)
	.loc 1 759 249
	li	a5,1229213696
	addi	a5,a5,77
	bne	a4,a5,.L74
	.loc 1 759 20 discriminator 1
	ld	a5,-32(s0)
	addi	a5,a5,-392
	sd	a5,-24(s0)
	j	.L75
.L74:
	.loc 1 759 20 is_stmt 0 discriminator 2
	sd	zero,-24(s0)
.L75:
	.loc 1 765 16 is_stmt 1
	ld	a5,-24(s0)
	addi	a5,a5,8
	sd	a5,-48(s0)
	.loc 1 766 23
	ld	a5,-48(s0)
	addi	a5,a5,8
	.loc 1 766 10
	ld	a1,-64(s0)
	mv	a0,a5
	call	CompareGuid@plt
	mv	a5,a0
	.loc 1 766 8 discriminator 1
	beq	a5,zero,.L76
	.loc 1 767 31
	ld	a5,-48(s0)
	ld	a5,24(a5)
	.loc 1 766 57 discriminator 2
	ld	a4,-72(s0)
	bltu	a4,a5,.L76
	.loc 1 768 31
	ld	a5,-48(s0)
	ld	a4,24(a5)
	.loc 1 768 55
	ld	a5,-48(s0)
	ld	a5,32(a5)
	.loc 1 768 43
	add	a5,a4,a5
	.loc 1 767 44
	ld	a4,-72(s0)
	bgeu	a4,a5,.L76
	.loc 1 770 14
	ld	a5,-24(s0)
	j	.L77
.L76:
	.loc 1 757 19
	ld	a5,-32(s0)
	ld	a5,0(a5)
	sd	a5,-32(s0)
.L73:
	.loc 1 756 19
	ld	a4,-32(s0)
	ld	a5,-40(s0)
	bne	a4,a5,.L78
	.loc 1 774 10
	li	a5,0
.L77:
	.loc 1 775 1
	mv	a0,a5
	ld	ra,72(sp)
	.cfi_restore 1
	ld	s0,64(sp)
	.cfi_restore 8
	.cfi_def_cfa 2, 80
	addi	sp,sp,80
	.cfi_def_cfa_offset 0
	jr	ra
	.cfi_endproc
.LFE12:
	.size	GetMemoryProfileDriverInfoByFileNameAndAddress, .-GetMemoryProfileDriverInfoByFileNameAndAddress
	.section	.text.GetMemoryProfileDriverInfoFromAddress,"ax",@progbits
	.align	1
	.globl	GetMemoryProfileDriverInfoFromAddress
	.type	GetMemoryProfileDriverInfoFromAddress, @function
GetMemoryProfileDriverInfoFromAddress:
.LFB13:
	.loc 1 792 1
	.cfi_startproc
	addi	sp,sp,-64
	.cfi_def_cfa_offset 64
	sd	ra,56(sp)
	sd	s0,48(sp)
	.cfi_offset 1, -8
	.cfi_offset 8, -16
	addi	s0,sp,64
	.cfi_def_cfa 8, 0
	sd	a0,-56(s0)
	sd	a1,-64(s0)
	.loc 1 798 18
	ld	a5,-56(s0)
	ld	a5,336(a5)
	sd	a5,-40(s0)
	.loc 1 800 19
	ld	a5,-40(s0)
	ld	a5,0(a5)
	sd	a5,-32(s0)
	.loc 1 800 3
	j	.L80
.L85:
	.loc 1 804 24
	ld	a5,-32(s0)
	addi	a5,a5,-392
	.loc 1 804 164
	lw	a4,0(a5)
	.loc 1 804 249
	li	a5,1229213696
	addi	a5,a5,77
	bne	a4,a5,.L81
	.loc 1 804 20 discriminator 1
	ld	a5,-32(s0)
	addi	a5,a5,-392
	sd	a5,-24(s0)
	j	.L82
.L81:
	.loc 1 804 20 is_stmt 0 discriminator 2
	sd	zero,-24(s0)
.L82:
	.loc 1 810 16 is_stmt 1
	ld	a5,-24(s0)
	addi	a5,a5,8
	sd	a5,-48(s0)
	.loc 1 811 31
	ld	a5,-48(s0)
	ld	a5,24(a5)
	.loc 1 811 8
	ld	a4,-64(s0)
	bltu	a4,a5,.L83
	.loc 1 812 31
	ld	a5,-48(s0)
	ld	a4,24(a5)
	.loc 1 812 55
	ld	a5,-48(s0)
	ld	a5,32(a5)
	.loc 1 812 43
	add	a5,a4,a5
	.loc 1 811 44 discriminator 1
	ld	a4,-64(s0)
	bgeu	a4,a5,.L83
	.loc 1 814 14
	ld	a5,-24(s0)
	j	.L84
.L83:
	.loc 1 802 19
	ld	a5,-32(s0)
	ld	a5,0(a5)
	sd	a5,-32(s0)
.L80:
	.loc 1 801 19
	ld	a4,-32(s0)
	ld	a5,-40(s0)
	bne	a4,a5,.L85
	.loc 1 818 10
	li	a5,0
.L84:
	.loc 1 819 1
	mv	a0,a5
	ld	ra,56(sp)
	.cfi_restore 1
	ld	s0,48(sp)
	.cfi_restore 8
	.cfi_def_cfa 2, 64
	addi	sp,sp,64
	.cfi_def_cfa_offset 0
	jr	ra
	.cfi_endproc
.LFE13:
	.size	GetMemoryProfileDriverInfoFromAddress, .-GetMemoryProfileDriverInfoFromAddress
	.section	.text.UnregisterMemoryProfileImage,"ax",@progbits
	.align	1
	.globl	UnregisterMemoryProfileImage
	.type	UnregisterMemoryProfileImage, @function
UnregisterMemoryProfileImage:
.LFB14:
	.loc 1 836 1
	.cfi_startproc
	addi	sp,sp,-80
	.cfi_def_cfa_offset 80
	sd	ra,72(sp)
	sd	s0,64(sp)
	.cfi_offset 1, -8
	.cfi_offset 8, -16
	addi	s0,sp,80
	.cfi_def_cfa 8, 0
	sd	a0,-72(s0)
	.loc 1 844 58
	la	a5,_gPcd_FixedAtBuild_PcdMemoryProfilePropertyMask
	lbu	a5,0(a5)
	sext.w	a5,a5
	andi	a5,a5,1
	sext.w	a5,a5
	.loc 1 844 6
	bne	a5,zero,.L87
	.loc 1 845 12
	li	a5,-1
	slli	a5,a5,63
	addi	a5,a5,3
	j	.L97
.L87:
	.loc 1 848 8
	ld	a5,-72(s0)
	ld	a5,72(a5)
	mv	a0,a5
	call	NeedRecordThisDriver
	mv	a5,a0
	.loc 1 848 6 discriminator 1
	bne	a5,zero,.L89
	.loc 1 849 12
	li	a5,-1
	slli	a5,a5,63
	addi	a5,a5,3
	j	.L97
.L89:
	.loc 1 852 17
	call	GetMemoryProfileContext
	sd	a0,-40(s0)
	.loc 1 853 6
	ld	a5,-40(s0)
	bne	a5,zero,.L90
	.loc 1 854 12
	li	a5,-1
	slli	a5,a5,63
	addi	a5,a5,3
	j	.L97
.L90:
	.loc 1 857 18
	sd	zero,-24(s0)
	.loc 1 858 14
	ld	a5,-72(s0)
	ld	a5,72(a5)
	mv	a0,a5
	call	GetFileNameFromFilePath
	sd	a0,-48(s0)
	.loc 1 859 16
	ld	a5,-72(s0)
	ld	a5,240(a5)
	sd	a5,-32(s0)
	.loc 1 860 33
	ld	a5,-72(s0)
	ld	a5,264(a5)
	.loc 1 860 6
	ld	a4,-32(s0)
	bgtu	a4,a5,.L91
	.loc 1 860 90 discriminator 1
	ld	a5,-72(s0)
	ld	a4,264(a5)
	.loc 1 860 146 discriminator 1
	ld	a5,-72(s0)
	ld	a3,248(a5)
	.loc 1 860 119 discriminator 1
	ld	a5,-32(s0)
	add	a5,a3,a5
	.loc 1 860 61 discriminator 1
	bltu	a4,a5,.L92
.L91:
	.loc 1 865 14
	ld	a5,-32(s0)
	addi	a4,s0,-64
	mv	a1,a4
	mv	a0,a5
	call	InternalPeCoffGetEntryPoint
	sd	a0,-56(s0)
	.loc 1 867 67
	ld	a5,-72(s0)
	ld	a4,264(a5)
	.loc 1 867 33
	ld	a5,-32(s0)
	add	a5,a4,a5
	.loc 1 867 81
	ld	a4,-64(s0)
	.loc 1 867 18
	sub	a5,a5,a4
	sd	a5,-32(s0)
.L92:
	.loc 1 870 6
	ld	a5,-48(s0)
	beq	a5,zero,.L93
	.loc 1 871 22
	ld	a2,-32(s0)
	ld	a1,-48(s0)
	ld	a0,-40(s0)
	call	GetMemoryProfileDriverInfoByFileNameAndAddress
	sd	a0,-24(s0)
.L93:
	.loc 1 874 6
	ld	a5,-24(s0)
	bne	a5,zero,.L94
	.loc 1 875 22
	ld	a1,-32(s0)
	ld	a0,-40(s0)
	call	GetMemoryProfileDriverInfoFromAddress
	sd	a0,-24(s0)
.L94:
	.loc 1 878 6
	ld	a5,-24(s0)
	bne	a5,zero,.L95
	.loc 1 879 12
	li	a5,-1
	slli	a5,a5,63
	addi	a5,a5,14
	j	.L97
.L95:
	.loc 1 882 23
	ld	a5,-40(s0)
	ld	a4,320(a5)
	.loc 1 882 68
	ld	a5,-24(s0)
	ld	a5,40(a5)
	.loc 1 882 39
	sub	a4,a4,a5
	ld	a5,-40(s0)
	sd	a4,320(a5)
	.loc 1 886 40
	ld	a5,-24(s0)
	sd	zero,40(a5)
	.loc 1 888 33
	ld	a5,-24(s0)
	ld	a5,72(a5)
	.loc 1 888 6
	bne	a5,zero,.L96
	.loc 1 889 25
	ld	a5,-40(s0)
	lw	a5,328(a5)
	.loc 1 889 36
	addiw	a5,a5,-1
	sext.w	a4,a5
	ld	a5,-40(s0)
	sw	a4,328(a5)
	.loc 1 890 22
	ld	a5,-24(s0)
	addi	a5,a5,392
	.loc 1 890 5
	mv	a0,a5
	call	RemoveEntryList@plt
	.loc 1 894 5
	li	a1,0
	ld	a0,-24(s0)
	call	CoreInternalFreePool@plt
.L96:
	.loc 1 897 10
	li	a5,0
.L97:
	.loc 1 898 1
	mv	a0,a5
	ld	ra,72(sp)
	.cfi_restore 1
	ld	s0,64(sp)
	.cfi_restore 8
	.cfi_def_cfa 2, 80
	addi	sp,sp,80
	.cfi_def_cfa_offset 0
	jr	ra
	.cfi_endproc
.LFE14:
	.size	UnregisterMemoryProfileImage, .-UnregisterMemoryProfileImage
	.section	.text.CoreNeedRecordProfile,"ax",@progbits
	.align	1
	.globl	CoreNeedRecordProfile
	.type	CoreNeedRecordProfile, @function
CoreNeedRecordProfile:
.LFB15:
	.loc 1 916 1
	.cfi_startproc
	addi	sp,sp,-48
	.cfi_def_cfa_offset 48
	sd	ra,40(sp)
	sd	s0,32(sp)
	.cfi_offset 1, -8
	.cfi_offset 8, -16
	addi	s0,sp,48
	.cfi_def_cfa 8, 0
	mv	a5,a0
	sw	a5,-36(s0)
	.loc 1 919 26
	lw	a5,-36(s0)
	.loc 1 919 6
	bge	a5,zero,.L99
	.loc 1 920 13
	li	a5,-1
	slli	a5,a5,63
	sd	a5,-24(s0)
	j	.L100
.L99:
	.loc 1 921 13
	lw	a5,-36(s0)
	sext.w	a4,a5
	li	a5,1879048192
	bltu	a4,a5,.L101
	.loc 1 922 13
	li	a5,1
	slli	a5,a5,62
	sd	a5,-24(s0)
	j	.L100
.L101:
	.loc 1 924 15
	lwu	a5,-36(s0)
	mv	a1,a5
	li	a0,1
	call	LShiftU64@plt
	sd	a0,-24(s0)
.L100:
	.loc 1 927 54
	la	a5,_gPcd_FixedAtBuild_PcdMemoryProfileMemoryType
	ld	a4,0(a5)
	ld	a5,-24(s0)
	and	a5,a4,a5
	.loc 1 927 6
	beq	a5,zero,.L102
	.loc 1 928 12
	li	a5,1
	j	.L103
.L102:
	.loc 1 930 12
	li	a5,0
.L103:
	.loc 1 932 1
	mv	a0,a5
	ld	ra,40(sp)
	.cfi_restore 1
	ld	s0,32(sp)
	.cfi_restore 8
	.cfi_def_cfa 2, 48
	addi	sp,sp,48
	.cfi_def_cfa_offset 0
	jr	ra
	.cfi_endproc
.LFE15:
	.size	CoreNeedRecordProfile, .-CoreNeedRecordProfile
	.section	.text.GetProfileMemoryIndex,"ax",@progbits
	.align	1
	.globl	GetProfileMemoryIndex
	.type	GetProfileMemoryIndex, @function
GetProfileMemoryIndex:
.LFB16:
	.loc 1 949 1
	.cfi_startproc
	addi	sp,sp,-32
	.cfi_def_cfa_offset 32
	sd	ra,24(sp)
	sd	s0,16(sp)
	.cfi_offset 1, -8
	.cfi_offset 8, -16
	addi	s0,sp,32
	.cfi_def_cfa 8, 0
	mv	a5,a0
	sw	a5,-20(s0)
	.loc 1 950 26
	lw	a5,-20(s0)
	.loc 1 950 6
	bge	a5,zero,.L105
	.loc 1 951 12
	li	a5,16
	j	.L106
.L105:
	.loc 1 952 13
	lw	a5,-20(s0)
	sext.w	a4,a5
	li	a5,1879048192
	bltu	a4,a5,.L107
	.loc 1 953 12
	li	a5,17
	j	.L106
.L107:
	.loc 1 955 12
	lwu	a5,-20(s0)
.L106:
	.loc 1 957 1
	mv	a0,a5
	ld	ra,24(sp)
	.cfi_restore 1
	ld	s0,16(sp)
	.cfi_restore 8
	.cfi_def_cfa 2, 32
	addi	sp,sp,32
	.cfi_def_cfa_offset 0
	jr	ra
	.cfi_endproc
.LFE16:
	.size	GetProfileMemoryIndex, .-GetProfileMemoryIndex
	.section	.text.CoreUpdateProfileAllocate,"ax",@progbits
	.align	1
	.globl	CoreUpdateProfileAllocate
	.type	CoreUpdateProfileAllocate, @function
CoreUpdateProfileAllocate:
.LFB17:
	.loc 1 984 1
	.cfi_startproc
	addi	sp,sp,-160
	.cfi_def_cfa_offset 160
	sd	ra,152(sp)
	sd	s0,144(sp)
	.cfi_offset 1, -8
	.cfi_offset 8, -16
	addi	s0,sp,160
	.cfi_def_cfa 8, 0
	sd	a0,-120(s0)
	sd	a3,-136(s0)
	sd	a4,-144(s0)
	sd	a5,-152(s0)
	mv	a5,a1
	sw	a5,-124(s0)
	mv	a5,a2
	sw	a5,-128(s0)
	.loc 1 997 15
	lw	a5,-124(s0)
	andi	a5,a5,15
	sw	a5,-36(s0)
	.loc 1 999 17
	call	GetMemoryProfileContext
	sd	a0,-48(s0)
	.loc 1 1000 6
	ld	a5,-48(s0)
	bne	a5,zero,.L109
	.loc 1 1001 12
	li	a5,-1
	slli	a5,a5,63
	addi	a5,a5,3
	j	.L121
.L109:
	.loc 1 1004 20
	ld	a1,-120(s0)
	ld	a0,-48(s0)
	call	GetMemoryProfileDriverInfoFromAddress
	sd	a0,-56(s0)
	.loc 1 1005 6
	ld	a5,-56(s0)
	bne	a5,zero,.L111
	.loc 1 1006 12
	li	a5,-1
	slli	a5,a5,63
	addi	a5,a5,3
	j	.L121
.L111:
	.loc 1 1009 20
	sd	zero,-24(s0)
	.loc 1 1010 28
	sd	zero,-32(s0)
	.loc 1 1011 6
	ld	a5,-152(s0)
	beq	a5,zero,.L112
	.loc 1 1012 24
	ld	a0,-152(s0)
	call	AsciiStrSize@plt
	sd	a0,-24(s0)
	.loc 1 1013 124
	ld	a5,-24(s0)
	neg	a5,a5
	andi	a5,a5,7
	.loc 1 1013 30
	ld	a4,-24(s0)
	add	a5,a4,a5
	sd	a5,-32(s0)
.L112:
	.loc 1 1019 17
	sd	zero,-104(s0)
	.loc 1 1022 45
	ld	a5,-24(s0)
	addi	a5,a5,80
	.loc 1 1020 12
	addi	a4,s0,-104
	mv	a2,a4
	mv	a1,a5
	li	a0,4
	call	CoreInternalAllocatePool@plt
	sd	a0,-64(s0)
	.loc 1 1025 34
	ld	a5,-64(s0)
	.loc 1 1025 6
	bge	a5,zero,.L113
	.loc 1 1026 12
	li	a5,-1
	slli	a5,a5,63
	addi	a5,a5,9
	j	.L121
.L113:
	.loc 1 1034 6
	lw	a5,-124(s0)
	mv	a4,a5
	lw	a5,-36(s0)
	sext.w	a4,a4
	sext.w	a5,a5
	bne	a4,a5,.L114
	.loc 1 1035 25
	ld	a5,-48(s0)
	lw	a5,332(a5)
	.loc 1 1035 39
	addiw	a5,a5,1
	sext.w	a4,a5
	ld	a5,-48(s0)
	sw	a4,332(a5)
.L114:
	.loc 1 1038 29
	ld	a5,-104(s0)
	.loc 1 1038 13
	addi	a5,a5,8
	sd	a5,-72(s0)
	.loc 1 1039 16
	ld	a5,-104(s0)
	.loc 1 1039 28
	li	a4,1229017088
	addi	a4,a4,77
	sw	a4,0(a5)
	.loc 1 1040 31
	ld	a5,-72(s0)
	li	a4,1229017088
	addi	a4,a4,77
	sw	a4,0(a5)
	.loc 1 1041 30
	ld	a5,-32(s0)
	slli	a5,a5,48
	srli	a5,a5,48
	addiw	a5,a5,48
	slli	a4,a5,48
	srli	a4,a4,48
	.loc 1 1041 28
	ld	a5,-72(s0)
	sh	a4,4(a5)
	.loc 1 1042 30
	ld	a5,-72(s0)
	li	a4,2
	sh	a4,6(a5)
	.loc 1 1043 28
	ld	a5,-72(s0)
	ld	a4,-120(s0)
	sd	a4,8(a5)
	.loc 1 1044 47
	ld	a5,-48(s0)
	lw	a4,332(a5)
	.loc 1 1044 25
	ld	a5,-72(s0)
	sw	a4,16(a5)
	.loc 1 1045 21
	ld	a5,-72(s0)
	lw	a4,-124(s0)
	sw	a4,24(a5)
	.loc 1 1046 25
	ld	a5,-72(s0)
	lw	a4,-128(s0)
	sw	a4,28(a5)
	.loc 1 1047 23
	ld	a4,-144(s0)
	.loc 1 1047 21
	ld	a5,-72(s0)
	sd	a4,32(a5)
	.loc 1 1048 19
	ld	a5,-72(s0)
	ld	a4,-136(s0)
	sd	a4,40(a5)
	.loc 1 1049 6
	ld	a5,-152(s0)
	beq	a5,zero,.L115
	.loc 1 1050 35
	ld	a5,-72(s0)
	li	a4,48
	sh	a4,22(a5)
	.loc 1 1051 59
	ld	a4,-104(s0)
	.loc 1 1051 18
	ld	a5,-104(s0)
	.loc 1 1051 59
	addi	a4,a4,80
	.loc 1 1051 33
	sd	a4,56(a5)
	.loc 1 1052 27
	ld	a5,-104(s0)
	ld	a5,56(a5)
	.loc 1 1052 5
	ld	a2,-24(s0)
	ld	a1,-152(s0)
	mv	a0,a5
	call	CopyMem@plt
	j	.L116
.L115:
	.loc 1 1054 35
	ld	a5,-72(s0)
	sh	zero,22(a5)
	.loc 1 1055 18
	ld	a5,-104(s0)
	.loc 1 1055 33
	sd	zero,56(a5)
.L116:
	.loc 1 1058 3
	ld	a5,-56(s0)
	ld	a4,376(a5)
	.loc 1 1058 64
	ld	a5,-104(s0)
	.loc 1 1058 3
	addi	a5,a5,64
	mv	a1,a5
	mv	a0,a4
	call	InsertTailList@plt
	.loc 1 1060 11
	ld	a5,-48(s0)
	addi	a5,a5,8
	sd	a5,-80(s0)
	.loc 1 1061 14
	ld	a5,-56(s0)
	addi	a5,a5,8
	sd	a5,-88(s0)
	.loc 1 1062 13
	ld	a5,-88(s0)
	lw	a5,52(a5)
	.loc 1 1062 31
	addiw	a5,a5,1
	sext.w	a4,a5
	ld	a5,-88(s0)
	sw	a4,52(a5)
	.loc 1 1067 6
	lw	a5,-124(s0)
	mv	a4,a5
	lw	a5,-36(s0)
	sext.w	a4,a4
	sext.w	a5,a5
	bne	a4,a5,.L117
	.loc 1 1068 26
	lw	a5,-128(s0)
	mv	a0,a5
	call	GetProfileMemoryIndex
	sd	a0,-96(s0)
	.loc 1 1070 15
	ld	a5,-88(s0)
	ld	a4,56(a5)
	.loc 1 1070 30
	ld	a5,-136(s0)
	add	a4,a4,a5
	ld	a5,-88(s0)
	sd	a4,56(a5)
	.loc 1 1071 19
	ld	a5,-88(s0)
	ld	a4,64(a5)
	.loc 1 1071 43
	ld	a5,-88(s0)
	ld	a5,56(a5)
	.loc 1 1071 8
	bgeu	a4,a5,.L118
	.loc 1 1072 41
	ld	a5,-88(s0)
	ld	a4,56(a5)
	.loc 1 1072 29
	ld	a5,-88(s0)
	sd	a4,64(a5)
.L118:
	.loc 1 1075 35
	ld	a4,-88(s0)
	ld	a5,-96(s0)
	addi	a5,a5,8
	slli	a5,a5,3
	add	a5,a4,a5
	ld	a4,8(a5)
	.loc 1 1075 56
	ld	a5,-136(s0)
	add	a4,a4,a5
	ld	a3,-88(s0)
	ld	a5,-96(s0)
	addi	a5,a5,8
	slli	a5,a5,3
	add	a5,a3,a5
	sd	a4,8(a5)
	.loc 1 1076 36
	ld	a4,-88(s0)
	ld	a5,-96(s0)
	addi	a5,a5,26
	slli	a5,a5,3
	add	a5,a4,a5
	ld	a4,8(a5)
	.loc 1 1076 89
	ld	a3,-88(s0)
	ld	a5,-96(s0)
	addi	a5,a5,8
	slli	a5,a5,3
	add	a5,a3,a5
	ld	a5,8(a5)
	.loc 1 1076 8
	bgeu	a4,a5,.L119
	.loc 1 1077 87
	ld	a4,-88(s0)
	ld	a5,-96(s0)
	addi	a5,a5,8
	slli	a5,a5,3
	add	a5,a4,a5
	ld	a4,8(a5)
	.loc 1 1077 55
	ld	a3,-88(s0)
	ld	a5,-96(s0)
	addi	a5,a5,26
	slli	a5,a5,3
	add	a5,a3,a5
	sd	a4,8(a5)
.L119:
	.loc 1 1080 12
	ld	a5,-80(s0)
	ld	a4,8(a5)
	.loc 1 1080 32
	ld	a5,-136(s0)
	add	a4,a4,a5
	ld	a5,-80(s0)
	sd	a4,8(a5)
	.loc 1 1081 16
	ld	a5,-80(s0)
	ld	a4,16(a5)
	.loc 1 1081 42
	ld	a5,-80(s0)
	ld	a5,8(a5)
	.loc 1 1081 8
	bgeu	a4,a5,.L120
	.loc 1 1082 40
	ld	a5,-80(s0)
	ld	a4,8(a5)
	.loc 1 1082 31
	ld	a5,-80(s0)
	sd	a4,16(a5)
.L120:
	.loc 1 1085 37
	ld	a4,-80(s0)
	ld	a5,-96(s0)
	addi	a5,a5,2
	slli	a5,a5,3
	add	a5,a4,a5
	ld	a4,8(a5)
	.loc 1 1085 58
	ld	a5,-136(s0)
	add	a4,a4,a5
	ld	a3,-80(s0)
	ld	a5,-96(s0)
	addi	a5,a5,2
	slli	a5,a5,3
	add	a5,a3,a5
	sd	a4,8(a5)
	.loc 1 1086 38
	ld	a4,-80(s0)
	ld	a5,-96(s0)
	addi	a5,a5,20
	slli	a5,a5,3
	add	a5,a4,a5
	ld	a4,8(a5)
	.loc 1 1086 93
	ld	a3,-80(s0)
	ld	a5,-96(s0)
	addi	a5,a5,2
	slli	a5,a5,3
	add	a5,a3,a5
	ld	a5,8(a5)
	.loc 1 1086 8
	bgeu	a4,a5,.L117
	.loc 1 1087 91
	ld	a4,-80(s0)
	ld	a5,-96(s0)
	addi	a5,a5,2
	slli	a5,a5,3
	add	a5,a4,a5
	ld	a4,8(a5)
	.loc 1 1087 57
	ld	a3,-80(s0)
	ld	a5,-96(s0)
	addi	a5,a5,20
	slli	a5,a5,3
	add	a5,a3,a5
	sd	a4,8(a5)
.L117:
	.loc 1 1091 10
	li	a5,0
.L121:
	.loc 1 1092 1
	mv	a0,a5
	ld	ra,152(sp)
	.cfi_restore 1
	ld	s0,144(sp)
	.cfi_restore 8
	.cfi_def_cfa 2, 160
	addi	sp,sp,160
	.cfi_def_cfa_offset 0
	jr	ra
	.cfi_endproc
.LFE17:
	.size	CoreUpdateProfileAllocate, .-CoreUpdateProfileAllocate
	.section	.text.GetMemoryProfileAllocInfoFromAddress,"ax",@progbits
	.align	1
	.globl	GetMemoryProfileAllocInfoFromAddress
	.type	GetMemoryProfileAllocInfoFromAddress, @function
GetMemoryProfileAllocInfoFromAddress:
.LFB18:
	.loc 1 1112 1
	.cfi_startproc
	addi	sp,sp,-80
	.cfi_def_cfa_offset 80
	sd	ra,72(sp)
	sd	s0,64(sp)
	.cfi_offset 1, -8
	.cfi_offset 8, -16
	addi	s0,sp,80
	.cfi_def_cfa 8, 0
	sd	a0,-56(s0)
	mv	a5,a1
	sd	a2,-72(s0)
	sd	a3,-80(s0)
	sw	a5,-60(s0)
	.loc 1 1118 17
	ld	a5,-56(s0)
	ld	a5,376(a5)
	sd	a5,-40(s0)
	.loc 1 1120 18
	ld	a5,-40(s0)
	ld	a5,0(a5)
	sd	a5,-24(s0)
	.loc 1 1120 3
	j	.L123
.L134:
	.loc 1 1124 23
	ld	a5,-24(s0)
	addi	a5,a5,-64
	.loc 1 1124 160
	lw	a4,0(a5)
	.loc 1 1124 245
	li	a5,1229017088
	addi	a5,a5,77
	bne	a4,a5,.L124
	.loc 1 1124 19 discriminator 1
	ld	a5,-24(s0)
	addi	a5,a5,-64
	sd	a5,-32(s0)
	j	.L125
.L124:
	.loc 1 1124 19 is_stmt 0 discriminator 2
	sd	zero,-32(s0)
.L125:
	.loc 1 1130 15 is_stmt 1
	ld	a5,-32(s0)
	addi	a5,a5,8
	sd	a5,-48(s0)
	.loc 1 1131 19
	ld	a5,-48(s0)
	lw	a5,24(a5)
	.loc 1 1131 28
	andi	a5,a5,15
	sext.w	a5,a5
	.loc 1 1131 8
	lw	a4,-60(s0)
	sext.w	a4,a4
	bne	a4,a5,.L135
	.loc 1 1135 5
	lw	a5,-60(s0)
	sext.w	a4,a5
	li	a5,1
	beq	a4,a5,.L128
	lw	a5,-60(s0)
	sext.w	a4,a5
	li	a5,3
	beq	a4,a5,.L129
	.loc 1 1152 9
	j	.L127
.L128:
	.loc 1 1137 23
	ld	a5,-48(s0)
	ld	a4,32(a5)
	.loc 1 1137 32
	ld	a5,-80(s0)
	.loc 1 1137 12
	bgtu	a4,a5,.L136
	.loc 1 1138 24
	ld	a5,-48(s0)
	ld	a4,32(a5)
	.loc 1 1138 44
	ld	a5,-48(s0)
	ld	a5,40(a5)
	.loc 1 1138 33
	add	a4,a4,a5
	.loc 1 1138 56
	ld	a3,-80(s0)
	.loc 1 1138 88
	ld	a5,-72(s0)
	add	a5,a3,a5
	.loc 1 1137 68 discriminator 1
	bltu	a4,a5,.L136
	.loc 1 1140 18
	ld	a5,-32(s0)
	j	.L132
.L129:
	.loc 1 1145 22
	ld	a5,-48(s0)
	ld	a4,32(a5)
	.loc 1 1145 31
	ld	a5,-80(s0)
	.loc 1 1145 12
	bne	a4,a5,.L137
	.loc 1 1146 18
	ld	a5,-32(s0)
	j	.L132
.L135:
	.loc 1 1132 7
	nop
	j	.L127
.L136:
	.loc 1 1143 9
	nop
	j	.L127
.L137:
	.loc 1 1149 9
	nop
.L127:
	.loc 1 1122 18
	ld	a5,-24(s0)
	ld	a5,0(a5)
	sd	a5,-24(s0)
.L123:
	.loc 1 1121 18
	ld	a4,-24(s0)
	ld	a5,-40(s0)
	bne	a4,a5,.L134
	.loc 1 1156 10
	li	a5,0
.L132:
	.loc 1 1157 1
	mv	a0,a5
	ld	ra,72(sp)
	.cfi_restore 1
	ld	s0,64(sp)
	.cfi_restore 8
	.cfi_def_cfa 2, 80
	addi	sp,sp,80
	.cfi_def_cfa_offset 0
	jr	ra
	.cfi_endproc
.LFE18:
	.size	GetMemoryProfileAllocInfoFromAddress, .-GetMemoryProfileAllocInfoFromAddress
	.section	.text.CoreUpdateProfileFree,"ax",@progbits
	.align	1
	.globl	CoreUpdateProfileFree
	.type	CoreUpdateProfileFree, @function
CoreUpdateProfileFree:
.LFB19:
	.loc 1 1179 1
	.cfi_startproc
	addi	sp,sp,-144
	.cfi_def_cfa_offset 144
	sd	ra,136(sp)
	sd	s0,128(sp)
	.cfi_offset 1, -8
	.cfi_offset 8, -16
	addi	s0,sp,144
	.cfi_def_cfa 8, 0
	sd	a0,-120(s0)
	mv	a5,a1
	sd	a2,-136(s0)
	sd	a3,-144(s0)
	sw	a5,-124(s0)
	.loc 1 1193 15
	lw	a5,-124(s0)
	andi	a5,a5,15
	sw	a5,-56(s0)
	.loc 1 1195 17
	call	GetMemoryProfileContext
	sd	a0,-64(s0)
	.loc 1 1196 6
	ld	a5,-64(s0)
	bne	a5,zero,.L139
	.loc 1 1197 12
	li	a5,-1
	slli	a5,a5,63
	addi	a5,a5,3
	j	.L140
.L139:
	.loc 1 1200 20
	ld	a1,-120(s0)
	ld	a0,-64(s0)
	call	GetMemoryProfileDriverInfoFromAddress
	sd	a0,-24(s0)
	.loc 1 1211 9
	sb	zero,-49(s0)
	.loc 1 1212 17
	sd	zero,-48(s0)
.L161:
	.loc 1 1214 8
	ld	a5,-24(s0)
	beq	a5,zero,.L141
	.loc 1 1215 7
	lw	a5,-56(s0)
	sext.w	a4,a5
	li	a5,2
	beq	a4,a5,.L142
	lw	a5,-56(s0)
	sext.w	a4,a5
	li	a5,4
	beq	a4,a5,.L143
	j	.L162
.L142:
	.loc 1 1217 27
	ld	a3,-144(s0)
	ld	a2,-136(s0)
	li	a1,1
	ld	a0,-24(s0)
	call	GetMemoryProfileAllocInfoFromAddress
	sd	a0,-48(s0)
	.loc 1 1218 11
	j	.L141
.L143:
	.loc 1 1220 27
	ld	a3,-144(s0)
	li	a2,0
	li	a1,3
	ld	a0,-24(s0)
	call	GetMemoryProfileAllocInfoFromAddress
	sd	a0,-48(s0)
	.loc 1 1221 11
	j	.L141
.L162:
	.loc 1 1224 25
	sd	zero,-48(s0)
	.loc 1 1225 11
	nop
.L141:
	.loc 1 1229 8
	ld	a5,-48(s0)
	bne	a5,zero,.L145
	.loc 1 1233 22
	ld	a5,-64(s0)
	ld	a5,336(a5)
	sd	a5,-72(s0)
	.loc 1 1235 23
	ld	a5,-72(s0)
	ld	a5,0(a5)
	sd	a5,-32(s0)
	.loc 1 1235 7
	j	.L146
.L155:
	.loc 1 1239 32
	ld	a5,-32(s0)
	addi	a5,a5,-392
	.loc 1 1239 172
	lw	a4,0(a5)
	.loc 1 1239 257
	li	a5,1229213696
	addi	a5,a5,77
	bne	a4,a5,.L147
	.loc 1 1239 28 discriminator 1
	ld	a5,-32(s0)
	addi	a5,a5,-392
	sd	a5,-40(s0)
	j	.L148
.L147:
	.loc 1 1239 28 is_stmt 0 discriminator 2
	sd	zero,-40(s0)
.L148:
	.loc 1 1245 9 is_stmt 1
	lw	a5,-56(s0)
	sext.w	a4,a5
	li	a5,2
	beq	a4,a5,.L149
	lw	a5,-56(s0)
	sext.w	a4,a5
	li	a5,4
	beq	a4,a5,.L150
	j	.L163
.L149:
	.loc 1 1247 29
	ld	a3,-144(s0)
	ld	a2,-136(s0)
	li	a1,1
	ld	a0,-40(s0)
	call	GetMemoryProfileAllocInfoFromAddress
	sd	a0,-48(s0)
	.loc 1 1248 13
	j	.L152
.L150:
	.loc 1 1250 29
	ld	a3,-144(s0)
	li	a2,0
	li	a1,3
	ld	a0,-40(s0)
	call	GetMemoryProfileAllocInfoFromAddress
	sd	a0,-48(s0)
	.loc 1 1251 13
	j	.L152
.L163:
	.loc 1 1254 27
	sd	zero,-48(s0)
	.loc 1 1255 13
	nop
.L152:
	.loc 1 1258 12
	ld	a5,-48(s0)
	beq	a5,zero,.L153
	.loc 1 1259 26
	ld	a5,-40(s0)
	sd	a5,-24(s0)
	.loc 1 1260 11
	j	.L154
.L153:
	.loc 1 1237 23
	ld	a5,-32(s0)
	ld	a5,0(a5)
	sd	a5,-32(s0)
.L146:
	.loc 1 1236 23
	ld	a4,-32(s0)
	ld	a5,-72(s0)
	bne	a4,a5,.L155
.L154:
	.loc 1 1264 10
	ld	a5,-48(s0)
	bne	a5,zero,.L145
	.loc 1 1273 44
	lbu	a5,-49(s0)
	andi	a5,a5,0xff
	beq	a5,zero,.L156
	.loc 1 1273 44 is_stmt 0 discriminator 1
	li	a5,0
	.loc 1 1273 44
	j	.L140
.L156:
	.loc 1 1273 44 discriminator 2
	li	a5,-1
	slli	a5,a5,63
	addi	a5,a5,14
	.loc 1 1273 44
	j	.L140
.L145:
	.loc 1 1280 11 is_stmt 1
	li	a5,1
	sb	a5,-49(s0)
	.loc 1 1282 13
	ld	a5,-64(s0)
	addi	a5,a5,8
	sd	a5,-80(s0)
	.loc 1 1283 16
	ld	a5,-24(s0)
	addi	a5,a5,8
	sd	a5,-88(s0)
	.loc 1 1284 15
	ld	a5,-48(s0)
	addi	a5,a5,8
	sd	a5,-96(s0)
	.loc 1 1286 15
	ld	a5,-88(s0)
	lw	a5,52(a5)
	.loc 1 1286 33
	addiw	a5,a5,-1
	sext.w	a4,a5
	ld	a5,-88(s0)
	sw	a4,52(a5)
	.loc 1 1290 18
	ld	a5,-96(s0)
	lw	a4,24(a5)
	.loc 1 1290 8
	li	a5,15
	bgtu	a4,a5,.L158
	.loc 1 1291 28
	ld	a5,-96(s0)
	lw	a5,28(a5)
	mv	a0,a5
	call	GetProfileMemoryIndex
	sd	a0,-104(s0)
	.loc 1 1293 14
	ld	a5,-80(s0)
	ld	a4,8(a5)
	.loc 1 1293 46
	ld	a5,-96(s0)
	ld	a5,40(a5)
	.loc 1 1293 34
	sub	a4,a4,a5
	ld	a5,-80(s0)
	sd	a4,8(a5)
	.loc 1 1294 39
	ld	a4,-80(s0)
	ld	a5,-104(s0)
	addi	a5,a5,2
	slli	a5,a5,3
	add	a5,a4,a5
	ld	a4,8(a5)
	.loc 1 1294 72
	ld	a5,-96(s0)
	ld	a5,40(a5)
	.loc 1 1294 60
	sub	a4,a4,a5
	ld	a3,-80(s0)
	ld	a5,-104(s0)
	addi	a5,a5,2
	slli	a5,a5,3
	add	a5,a3,a5
	sd	a4,8(a5)
	.loc 1 1296 17
	ld	a5,-88(s0)
	ld	a4,56(a5)
	.loc 1 1296 44
	ld	a5,-96(s0)
	ld	a5,40(a5)
	.loc 1 1296 32
	sub	a4,a4,a5
	ld	a5,-88(s0)
	sd	a4,56(a5)
	.loc 1 1297 37
	ld	a4,-88(s0)
	ld	a5,-104(s0)
	addi	a5,a5,8
	slli	a5,a5,3
	add	a5,a4,a5
	ld	a4,8(a5)
	.loc 1 1297 70
	ld	a5,-96(s0)
	ld	a5,40(a5)
	.loc 1 1297 58
	sub	a4,a4,a5
	ld	a3,-88(s0)
	ld	a5,-104(s0)
	addi	a5,a5,8
	slli	a5,a5,3
	add	a5,a3,a5
	sd	a4,8(a5)
.L158:
	.loc 1 1300 22
	ld	a5,-48(s0)
	addi	a5,a5,64
	.loc 1 1300 5
	mv	a0,a5
	call	RemoveEntryList@plt
	.loc 1 1302 8
	lw	a5,-56(s0)
	sext.w	a4,a5
	li	a5,2
	bne	a4,a5,.L159
	.loc 1 1303 20
	ld	a5,-96(s0)
	ld	a4,32(a5)
	.loc 1 1303 29
	ld	a5,-144(s0)
	.loc 1 1303 10
	beq	a4,a5,.L160
	.loc 1 1304 9
	ld	a5,-96(s0)
	ld	a0,8(a5)
	ld	a5,-96(s0)
	lw	a1,24(a5)
	ld	a5,-96(s0)
	lw	a2,28(a5)
	.loc 1 1308 19
	ld	a4,-144(s0)
	.loc 1 1308 62
	ld	a5,-96(s0)
	ld	a5,32(a5)
	.loc 1 1308 11
	sub	a3,a4,a5
	.loc 1 1309 35
	ld	a5,-96(s0)
	ld	a5,32(a5)
	.loc 1 1304 9
	mv	a4,a5
	ld	a5,-48(s0)
	ld	a5,56(a5)
	call	CoreUpdateProfileAllocate
.L160:
	.loc 1 1314 20
	ld	a5,-96(s0)
	ld	a4,32(a5)
	.loc 1 1314 40
	ld	a5,-96(s0)
	ld	a5,40(a5)
	.loc 1 1314 29
	add	a4,a4,a5
	.loc 1 1314 51
	ld	a3,-144(s0)
	.loc 1 1314 83
	ld	a5,-136(s0)
	add	a5,a3,a5
	.loc 1 1314 10
	beq	a4,a5,.L159
	.loc 1 1315 9
	ld	a5,-96(s0)
	ld	a0,8(a5)
	ld	a5,-96(s0)
	lw	a1,24(a5)
	ld	a5,-96(s0)
	lw	a2,28(a5)
	.loc 1 1319 29
	ld	a5,-96(s0)
	ld	a4,32(a5)
	.loc 1 1319 49
	ld	a5,-96(s0)
	ld	a5,40(a5)
	.loc 1 1319 38
	add	a4,a4,a5
	.loc 1 1319 60
	ld	a3,-144(s0)
	.loc 1 1319 92
	ld	a5,-136(s0)
	add	a5,a3,a5
	.loc 1 1319 11
	sub	a3,a4,a5
	.loc 1 1320 20
	ld	a4,-144(s0)
	.loc 1 1320 34
	ld	a5,-136(s0)
	add	a5,a4,a5
	.loc 1 1315 9
	mv	a4,a5
	ld	a5,-48(s0)
	ld	a5,56(a5)
	call	CoreUpdateProfileAllocate
.L159:
	.loc 1 1329 5
	li	a1,0
	ld	a0,-48(s0)
	call	CoreInternalFreePool@plt
	.loc 1 1214 8
	j	.L161
.L140:
	.loc 1 1331 1
	mv	a0,a5
	ld	ra,136(sp)
	.cfi_restore 1
	ld	s0,128(sp)
	.cfi_restore 8
	.cfi_def_cfa 2, 144
	addi	sp,sp,144
	.cfi_def_cfa_offset 0
	jr	ra
	.cfi_endproc
.LFE19:
	.size	CoreUpdateProfileFree, .-CoreUpdateProfileFree
	.section	.text.CoreUpdateProfile,"ax",@progbits
	.align	1
	.globl	CoreUpdateProfile
	.type	CoreUpdateProfile, @function
CoreUpdateProfile:
.LFB20:
	.loc 1 1365 1
	.cfi_startproc
	addi	sp,sp,-96
	.cfi_def_cfa_offset 96
	sd	ra,88(sp)
	sd	s0,80(sp)
	.cfi_offset 1, -8
	.cfi_offset 8, -16
	addi	s0,sp,96
	.cfi_def_cfa 8, 0
	sd	a0,-56(s0)
	sd	a3,-72(s0)
	sd	a4,-80(s0)
	sd	a5,-88(s0)
	mv	a5,a1
	sw	a5,-60(s0)
	mv	a5,a2
	sw	a5,-64(s0)
	.loc 1 1370 58
	la	a5,_gPcd_FixedAtBuild_PcdMemoryProfilePropertyMask
	lbu	a5,0(a5)
	sext.w	a5,a5
	andi	a5,a5,1
	sext.w	a5,a5
	.loc 1 1370 6
	bne	a5,zero,.L165
	.loc 1 1371 12
	li	a5,-1
	slli	a5,a5,63
	addi	a5,a5,3
	j	.L166
.L165:
	.loc 1 1374 7
	lla	a5,mMemoryProfileGettingStatus
	lbu	a5,0(a5)
	.loc 1 1374 6
	beq	a5,zero,.L167
	.loc 1 1375 12
	li	a5,-1
	slli	a5,a5,63
	addi	a5,a5,15
	j	.L166
.L167:
	.loc 1 1378 7
	lla	a5,mMemoryProfileRecordingEnable
	lbu	a5,0(a5)
	.loc 1 1378 6
	bne	a5,zero,.L168
	.loc 1 1379 12
	li	a5,-1
	slli	a5,a5,63
	addi	a5,a5,21
	j	.L166
.L168:
	.loc 1 1385 15
	lw	a5,-60(s0)
	andi	a5,a5,15
	sw	a5,-28(s0)
	.loc 1 1390 6
	lw	a5,-64(s0)
	sext.w	a4,a5
	li	a5,16
	beq	a4,a5,.L169
	.loc 1 1394 10
	lw	a5,-64(s0)
	mv	a0,a5
	call	CoreNeedRecordProfile
	mv	a5,a0
	.loc 1 1394 8 discriminator 1
	bne	a5,zero,.L169
	.loc 1 1395 14
	li	a5,-1
	slli	a5,a5,63
	addi	a5,a5,3
	j	.L166
.L169:
	.loc 1 1399 17
	call	GetMemoryProfileContext
	sd	a0,-40(s0)
	.loc 1 1400 6
	ld	a5,-40(s0)
	bne	a5,zero,.L170
	.loc 1 1401 12
	li	a5,-1
	slli	a5,a5,63
	addi	a5,a5,3
	j	.L166
.L170:
	.loc 1 1404 3
	call	CoreAcquireMemoryProfileLock
	.loc 1 1405 3
	lw	a5,-28(s0)
	sext.w	a4,a5
	li	a5,4
	beq	a4,a5,.L171
	lw	a5,-28(s0)
	sext.w	a4,a5
	li	a5,4
	bgtu	a4,a5,.L172
	lw	a5,-28(s0)
	sext.w	a4,a5
	li	a5,3
	beq	a4,a5,.L173
	lw	a5,-28(s0)
	sext.w	a4,a5
	li	a5,3
	bgtu	a4,a5,.L172
	lw	a5,-28(s0)
	sext.w	a4,a5
	li	a5,1
	beq	a4,a5,.L174
	lw	a5,-28(s0)
	sext.w	a4,a5
	li	a5,2
	beq	a4,a5,.L175
	j	.L172
.L174:
	.loc 1 1407 16
	lw	a2,-64(s0)
	lw	a1,-60(s0)
	ld	a5,-88(s0)
	ld	a4,-80(s0)
	ld	a3,-72(s0)
	ld	a0,-56(s0)
	call	CoreUpdateProfileAllocate
	sd	a0,-24(s0)
	.loc 1 1408 7
	j	.L176
.L175:
	.loc 1 1410 16
	lw	a5,-60(s0)
	ld	a3,-80(s0)
	ld	a2,-72(s0)
	mv	a1,a5
	ld	a0,-56(s0)
	call	CoreUpdateProfileFree
	sd	a0,-24(s0)
	.loc 1 1411 7
	j	.L176
.L173:
	.loc 1 1413 16
	lw	a2,-64(s0)
	lw	a1,-60(s0)
	ld	a5,-88(s0)
	ld	a4,-80(s0)
	ld	a3,-72(s0)
	ld	a0,-56(s0)
	call	CoreUpdateProfileAllocate
	sd	a0,-24(s0)
	.loc 1 1414 7
	j	.L176
.L171:
	.loc 1 1416 16
	lw	a5,-60(s0)
	ld	a3,-80(s0)
	li	a2,0
	mv	a1,a5
	ld	a0,-56(s0)
	call	CoreUpdateProfileFree
	sd	a0,-24(s0)
	.loc 1 1417 7
	j	.L176
.L172:
	.loc 1 1420 14
	li	a5,-1
	slli	a5,a5,63
	addi	a5,a5,3
	sd	a5,-24(s0)
	.loc 1 1421 7
	nop
.L176:
	.loc 1 1424 3
	call	CoreReleaseMemoryProfileLock
	.loc 1 1426 10
	ld	a5,-24(s0)
.L166:
	.loc 1 1427 1
	mv	a0,a5
	ld	ra,88(sp)
	.cfi_restore 1
	ld	s0,80(sp)
	.cfi_restore 8
	.cfi_def_cfa 2, 96
	addi	sp,sp,96
	.cfi_def_cfa_offset 0
	jr	ra
	.cfi_endproc
.LFE20:
	.size	CoreUpdateProfile, .-CoreUpdateProfile
	.section	.text.MemoryProfileGetDataSize,"ax",@progbits
	.align	1
	.globl	MemoryProfileGetDataSize
	.type	MemoryProfileGetDataSize, @function
MemoryProfileGetDataSize:
.LFB21:
	.loc 1 1441 1
	.cfi_startproc
	addi	sp,sp,-80
	.cfi_def_cfa_offset 80
	sd	ra,72(sp)
	sd	s0,64(sp)
	.cfi_offset 1, -8
	.cfi_offset 8, -16
	addi	s0,sp,80
	.cfi_def_cfa 8, 0
	.loc 1 1451 17
	call	GetMemoryProfileContext
	sd	a0,-64(s0)
	.loc 1 1452 6
	ld	a5,-64(s0)
	bne	a5,zero,.L178
	.loc 1 1453 12
	li	a5,0
	j	.L179
.L178:
	.loc 1 1456 13
	li	a5,328
	sd	a5,-56(s0)
	.loc 1 1458 18
	ld	a5,-64(s0)
	ld	a5,336(a5)
	sd	a5,-72(s0)
	.loc 1 1459 19
	ld	a5,-72(s0)
	ld	a5,0(a5)
	sd	a5,-40(s0)
	.loc 1 1459 3
	j	.L180
.L187:
	.loc 1 1463 24
	ld	a5,-40(s0)
	addi	a5,a5,-392
	.loc 1 1463 164
	lw	a4,0(a5)
	.loc 1 1463 249
	li	a5,1229213696
	addi	a5,a5,77
	bne	a4,a5,.L181
	.loc 1 1463 20 discriminator 1
	ld	a5,-40(s0)
	addi	a5,a5,-392
	sd	a5,-24(s0)
	j	.L182
.L181:
	.loc 1 1463 20 is_stmt 0 discriminator 2
	sd	zero,-24(s0)
.L182:
	.loc 1 1469 51 is_stmt 1
	ld	a5,-24(s0)
	lhu	a5,12(a5)
	mv	a4,a5
	.loc 1 1469 15
	ld	a5,-56(s0)
	add	a5,a5,a4
	sd	a5,-56(s0)
	.loc 1 1471 19
	ld	a5,-24(s0)
	ld	a5,376(a5)
	sd	a5,-80(s0)
	.loc 1 1472 20
	ld	a5,-80(s0)
	ld	a5,0(a5)
	sd	a5,-48(s0)
	.loc 1 1472 5
	j	.L183
.L186:
	.loc 1 1476 25
	ld	a5,-48(s0)
	addi	a5,a5,-64
	.loc 1 1476 162
	lw	a4,0(a5)
	.loc 1 1476 247
	li	a5,1229017088
	addi	a5,a5,77
	bne	a4,a5,.L184
	.loc 1 1476 21 discriminator 1
	ld	a5,-48(s0)
	addi	a5,a5,-64
	sd	a5,-32(s0)
	j	.L185
.L184:
	.loc 1 1476 21 is_stmt 0 discriminator 2
	sd	zero,-32(s0)
.L185:
	.loc 1 1482 51 is_stmt 1
	ld	a5,-32(s0)
	lhu	a5,12(a5)
	mv	a4,a5
	.loc 1 1482 17
	ld	a5,-56(s0)
	add	a5,a5,a4
	sd	a5,-56(s0)
	.loc 1 1474 20
	ld	a5,-48(s0)
	ld	a5,0(a5)
	sd	a5,-48(s0)
.L183:
	.loc 1 1473 20
	ld	a4,-48(s0)
	ld	a5,-80(s0)
	bne	a4,a5,.L186
	.loc 1 1461 19
	ld	a5,-40(s0)
	ld	a5,0(a5)
	sd	a5,-40(s0)
.L180:
	.loc 1 1460 19
	ld	a4,-40(s0)
	ld	a5,-72(s0)
	bne	a4,a5,.L187
	.loc 1 1486 10
	ld	a5,-56(s0)
.L179:
	.loc 1 1487 1
	mv	a0,a5
	ld	ra,72(sp)
	.cfi_restore 1
	ld	s0,64(sp)
	.cfi_restore 8
	.cfi_def_cfa 2, 80
	addi	sp,sp,80
	.cfi_def_cfa_offset 0
	jr	ra
	.cfi_endproc
.LFE21:
	.size	MemoryProfileGetDataSize, .-MemoryProfileGetDataSize
	.section	.text.MemoryProfileCopyData,"ax",@progbits
	.align	1
	.globl	MemoryProfileCopyData
	.type	MemoryProfileCopyData, @function
MemoryProfileCopyData:
.LFB22:
	.loc 1 1499 1
	.cfi_startproc
	addi	sp,sp,-128
	.cfi_def_cfa_offset 128
	sd	ra,120(sp)
	sd	s0,112(sp)
	.cfi_offset 1, -8
	.cfi_offset 8, -16
	addi	s0,sp,128
	.cfi_def_cfa 8, 0
	sd	a0,-120(s0)
	.loc 1 1513 17
	call	GetMemoryProfileContext
	sd	a0,-72(s0)
	.loc 1 1514 6
	ld	a5,-72(s0)
	beq	a5,zero,.L201
	.loc 1 1518 11
	ld	a5,-120(s0)
	sd	a5,-80(s0)
	.loc 1 1519 21
	ld	a5,-72(s0)
	addi	a5,a5,8
	.loc 1 1519 3
	li	a2,328
	mv	a1,a5
	ld	a0,-80(s0)
	call	CopyMem@plt
	.loc 1 1520 14
	ld	a5,-80(s0)
	addi	a5,a5,328
	sd	a5,-24(s0)
	.loc 1 1522 18
	ld	a5,-72(s0)
	ld	a5,336(a5)
	sd	a5,-88(s0)
	.loc 1 1523 19
	ld	a5,-88(s0)
	ld	a5,0(a5)
	sd	a5,-56(s0)
	.loc 1 1523 3
	j	.L191
.L200:
	.loc 1 1527 24
	ld	a5,-56(s0)
	addi	a5,a5,-392
	.loc 1 1527 164
	lw	a4,0(a5)
	.loc 1 1527 249
	li	a5,1229213696
	addi	a5,a5,77
	bne	a4,a5,.L192
	.loc 1 1527 20 discriminator 1
	ld	a5,-56(s0)
	addi	a5,a5,-392
	sd	a5,-40(s0)
	j	.L193
.L192:
	.loc 1 1527 20 is_stmt 0 discriminator 2
	sd	zero,-40(s0)
.L193:
	.loc 1 1533 26 is_stmt 1
	ld	a5,-40(s0)
	addi	a5,a5,8
	.loc 1 1533 5
	li	a2,368
	mv	a1,a5
	ld	a0,-24(s0)
	call	CopyMem@plt
	.loc 1 1534 19
	ld	a5,-24(s0)
	lhu	a5,360(a5)
	.loc 1 1534 8
	beq	a5,zero,.L194
	.loc 1 1535 45
	ld	a5,-40(s0)
	ld	a5,384(a5)
	.loc 1 1535 17
	mv	a0,a5
	call	AsciiStrSize@plt
	sd	a0,-96(s0)
	.loc 1 1536 55
	ld	a5,-24(s0)
	lhu	a5,360(a5)
	mv	a4,a5
	.loc 1 1536 25
	ld	a5,-24(s0)
	.loc 1 1536 43
	add	a5,a4,a5
	.loc 1 1536 7
	mv	a4,a5
	.loc 1 1536 89
	ld	a5,-40(s0)
	ld	a5,384(a5)
	.loc 1 1536 7
	ld	a2,-96(s0)
	mv	a1,a5
	mv	a0,a4
	call	CopyMem@plt
.L194:
	.loc 1 1539 85
	ld	a5,-24(s0)
	lhu	a5,4(a5)
	mv	a4,a5
	.loc 1 1539 47
	ld	a5,-24(s0)
	.loc 1 1539 65
	add	a5,a4,a5
	.loc 1 1539 15
	sd	a5,-32(s0)
	.loc 1 1541 19
	ld	a5,-40(s0)
	ld	a5,376(a5)
	sd	a5,-104(s0)
	.loc 1 1542 20
	ld	a5,-104(s0)
	ld	a5,0(a5)
	sd	a5,-64(s0)
	.loc 1 1542 5
	j	.L195
.L199:
	.loc 1 1546 25
	ld	a5,-64(s0)
	addi	a5,a5,-64
	.loc 1 1546 162
	lw	a4,0(a5)
	.loc 1 1546 247
	li	a5,1229017088
	addi	a5,a5,77
	bne	a4,a5,.L196
	.loc 1 1546 21 discriminator 1
	ld	a5,-64(s0)
	addi	a5,a5,-64
	sd	a5,-48(s0)
	j	.L197
.L196:
	.loc 1 1546 21 is_stmt 0 discriminator 2
	sd	zero,-48(s0)
.L197:
	.loc 1 1552 27 is_stmt 1
	ld	a5,-48(s0)
	addi	a5,a5,8
	.loc 1 1552 7
	li	a2,48
	mv	a1,a5
	ld	a0,-32(s0)
	call	CopyMem@plt
	.loc 1 1553 20
	ld	a5,-32(s0)
	lhu	a5,22(a5)
	.loc 1 1553 10
	beq	a5,zero,.L198
	.loc 1 1554 55
	ld	a5,-48(s0)
	ld	a5,56(a5)
	.loc 1 1554 28
	mv	a0,a5
	call	AsciiStrSize@plt
	sd	a0,-112(s0)
	.loc 1 1555 55
	ld	a5,-32(s0)
	lhu	a5,22(a5)
	mv	a4,a5
	.loc 1 1555 27
	ld	a5,-32(s0)
	.loc 1 1555 44
	add	a5,a4,a5
	.loc 1 1555 9
	mv	a4,a5
	.loc 1 1555 91
	ld	a5,-48(s0)
	ld	a5,56(a5)
	.loc 1 1555 9
	ld	a2,-112(s0)
	mv	a1,a5
	mv	a0,a4
	call	CopyMem@plt
.L198:
	.loc 1 1558 85
	ld	a5,-32(s0)
	lhu	a5,4(a5)
	mv	a4,a5
	.loc 1 1558 49
	ld	a5,-32(s0)
	.loc 1 1558 66
	add	a5,a4,a5
	.loc 1 1558 17
	sd	a5,-32(s0)
	.loc 1 1544 20
	ld	a5,-64(s0)
	ld	a5,0(a5)
	sd	a5,-64(s0)
.L195:
	.loc 1 1543 20
	ld	a4,-64(s0)
	ld	a5,-104(s0)
	bne	a4,a5,.L199
	.loc 1 1561 16
	ld	a5,-32(s0)
	sd	a5,-24(s0)
	.loc 1 1525 19
	ld	a5,-56(s0)
	ld	a5,0(a5)
	sd	a5,-56(s0)
.L191:
	.loc 1 1524 19
	ld	a4,-56(s0)
	ld	a5,-88(s0)
	bne	a4,a5,.L200
	j	.L188
.L201:
	.loc 1 1515 5
	nop
.L188:
	.loc 1 1563 1
	ld	ra,120(sp)
	.cfi_restore 1
	ld	s0,112(sp)
	.cfi_restore 8
	.cfi_def_cfa 2, 128
	addi	sp,sp,128
	.cfi_def_cfa_offset 0
	jr	ra
	.cfi_endproc
.LFE22:
	.size	MemoryProfileCopyData, .-MemoryProfileCopyData
	.section	.text.ProfileProtocolGetData,"ax",@progbits
	.align	1
	.globl	ProfileProtocolGetData
	.type	ProfileProtocolGetData, @function
ProfileProtocolGetData:
.LFB23:
	.loc 1 1586 1
	.cfi_startproc
	addi	sp,sp,-80
	.cfi_def_cfa_offset 80
	sd	ra,72(sp)
	sd	s0,64(sp)
	.cfi_offset 1, -8
	.cfi_offset 8, -16
	addi	s0,sp,80
	.cfi_def_cfa 8, 0
	sd	a0,-56(s0)
	sd	a1,-64(s0)
	sd	a2,-72(s0)
	.loc 1 1591 17
	call	GetMemoryProfileContext
	sd	a0,-24(s0)
	.loc 1 1592 6
	ld	a5,-24(s0)
	bne	a5,zero,.L203
	.loc 1 1593 12
	li	a5,-1
	slli	a5,a5,63
	addi	a5,a5,3
	j	.L204
.L203:
	.loc 1 1596 30
	lla	a5,mMemoryProfileGettingStatus
	lbu	a5,0(a5)
	sb	a5,-25(s0)
	.loc 1 1597 31
	lla	a5,mMemoryProfileGettingStatus
	li	a4,1
	sb	a4,0(a5)
	.loc 1 1599 10
	call	MemoryProfileGetDataSize
	sd	a0,-40(s0)
	.loc 1 1601 7
	ld	a5,-64(s0)
	ld	a5,0(a5)
	.loc 1 1601 6
	ld	a4,-40(s0)
	bleu	a4,a5,.L205
	.loc 1 1602 18
	ld	a5,-64(s0)
	ld	a4,-40(s0)
	sd	a4,0(a5)
	.loc 1 1603 33
	lla	a5,mMemoryProfileGettingStatus
	lbu	a4,-25(s0)
	sb	a4,0(a5)
	.loc 1 1604 12
	li	a5,-1
	slli	a5,a5,63
	addi	a5,a5,5
	j	.L204
.L205:
	.loc 1 1607 16
	ld	a5,-64(s0)
	ld	a4,-40(s0)
	sd	a4,0(a5)
	.loc 1 1608 3
	ld	a0,-72(s0)
	call	MemoryProfileCopyData
	.loc 1 1610 31
	lla	a5,mMemoryProfileGettingStatus
	lbu	a4,-25(s0)
	sb	a4,0(a5)
	.loc 1 1611 10
	li	a5,0
.L204:
	.loc 1 1612 1
	mv	a0,a5
	ld	ra,72(sp)
	.cfi_restore 1
	ld	s0,64(sp)
	.cfi_restore 8
	.cfi_def_cfa 2, 80
	addi	sp,sp,80
	.cfi_def_cfa_offset 0
	jr	ra
	.cfi_endproc
.LFE23:
	.size	ProfileProtocolGetData, .-ProfileProtocolGetData
	.section	.text.ProfileProtocolRegisterImage,"ax",@progbits
	.align	1
	.globl	ProfileProtocolRegisterImage
	.type	ProfileProtocolRegisterImage, @function
ProfileProtocolRegisterImage:
.LFB24:
	.loc 1 1638 1
	.cfi_startproc
	addi	sp,sp,-480
	.cfi_def_cfa_offset 480
	sd	ra,472(sp)
	sd	s0,464(sp)
	.cfi_offset 1, -8
	.cfi_offset 8, -16
	addi	s0,sp,480
	.cfi_def_cfa 8, 0
	sd	a0,-440(s0)
	sd	a1,-448(s0)
	sd	a2,-456(s0)
	sd	a3,-464(s0)
	mv	a5,a4
	sb	a5,-465(s0)
	.loc 1 1643 3
	addi	a5,s0,-424
	li	a1,400
	mv	a0,a5
	call	ZeroMem@plt
	.loc 1 1644 29
	ld	a5,-448(s0)
	sd	a5,-352(s0)
	.loc 1 1645 41
	ld	a5,-456(s0)
	sd	a5,-184(s0)
	.loc 1 1646 38
	ld	a5,-464(s0)
	sd	a5,-176(s0)
	.loc 1 1647 12
	ld	a5,-456(s0)
	addi	a4,s0,-432
	mv	a1,a4
	mv	a0,a5
	call	InternalPeCoffGetEntryPoint
	sd	a0,-24(s0)
	.loc 1 1649 41
	ld	a5,-432(s0)
	.loc 1 1649 39
	sd	a5,-160(s0)
	.loc 1 1650 40
	ld	a5,-456(s0)
	mv	a0,a5
	call	InternalPeCoffGetSubsystem
	mv	a5,a0
	.loc 1 1650 38 discriminator 1
	sh	a5,-62(s0)
	.loc 1 1652 10
	lbu	a4,-465(s0)
	addi	a5,s0,-424
	mv	a1,a4
	mv	a0,a5
	call	RegisterMemoryProfileImage
	mv	a5,a0
	.loc 1 1653 1
	mv	a0,a5
	ld	ra,472(sp)
	.cfi_restore 1
	ld	s0,464(sp)
	.cfi_restore 8
	.cfi_def_cfa 2, 480
	addi	sp,sp,480
	.cfi_def_cfa_offset 0
	jr	ra
	.cfi_endproc
.LFE24:
	.size	ProfileProtocolRegisterImage, .-ProfileProtocolRegisterImage
	.section	.text.ProfileProtocolUnregisterImage,"ax",@progbits
	.align	1
	.globl	ProfileProtocolUnregisterImage
	.type	ProfileProtocolUnregisterImage, @function
ProfileProtocolUnregisterImage:
.LFB25:
	.loc 1 1677 1
	.cfi_startproc
	addi	sp,sp,-464
	.cfi_def_cfa_offset 464
	sd	ra,456(sp)
	sd	s0,448(sp)
	.cfi_offset 1, -8
	.cfi_offset 8, -16
	addi	s0,sp,464
	.cfi_def_cfa 8, 0
	sd	a0,-440(s0)
	sd	a1,-448(s0)
	sd	a2,-456(s0)
	sd	a3,-464(s0)
	.loc 1 1682 3
	addi	a5,s0,-424
	li	a1,400
	mv	a0,a5
	call	ZeroMem@plt
	.loc 1 1683 29
	ld	a5,-448(s0)
	sd	a5,-352(s0)
	.loc 1 1684 41
	ld	a5,-456(s0)
	sd	a5,-184(s0)
	.loc 1 1685 38
	ld	a5,-464(s0)
	sd	a5,-176(s0)
	.loc 1 1686 12
	ld	a5,-456(s0)
	addi	a4,s0,-432
	mv	a1,a4
	mv	a0,a5
	call	InternalPeCoffGetEntryPoint
	sd	a0,-24(s0)
	.loc 1 1688 41
	ld	a5,-432(s0)
	.loc 1 1688 39
	sd	a5,-160(s0)
	.loc 1 1690 10
	addi	a5,s0,-424
	mv	a0,a5
	call	UnregisterMemoryProfileImage
	mv	a5,a0
	.loc 1 1691 1
	mv	a0,a5
	ld	ra,456(sp)
	.cfi_restore 1
	ld	s0,448(sp)
	.cfi_restore 8
	.cfi_def_cfa 2, 464
	addi	sp,sp,464
	.cfi_def_cfa_offset 0
	jr	ra
	.cfi_endproc
.LFE25:
	.size	ProfileProtocolUnregisterImage, .-ProfileProtocolUnregisterImage
	.section	.text.ProfileProtocolGetRecordingState,"ax",@progbits
	.align	1
	.globl	ProfileProtocolGetRecordingState
	.type	ProfileProtocolGetRecordingState, @function
ProfileProtocolGetRecordingState:
.LFB26:
	.loc 1 1710 1
	.cfi_startproc
	addi	sp,sp,-48
	.cfi_def_cfa_offset 48
	sd	ra,40(sp)
	sd	s0,32(sp)
	.cfi_offset 1, -8
	.cfi_offset 8, -16
	addi	s0,sp,48
	.cfi_def_cfa 8, 0
	sd	a0,-40(s0)
	sd	a1,-48(s0)
	.loc 1 1713 17
	call	GetMemoryProfileContext
	sd	a0,-24(s0)
	.loc 1 1714 6
	ld	a5,-24(s0)
	bne	a5,zero,.L211
	.loc 1 1715 12
	li	a5,-1
	slli	a5,a5,63
	addi	a5,a5,3
	j	.L212
.L211:
	.loc 1 1718 6
	ld	a5,-48(s0)
	bne	a5,zero,.L213
	.loc 1 1719 12
	li	a5,-1
	slli	a5,a5,63
	addi	a5,a5,2
	j	.L212
.L213:
	.loc 1 1722 19
	lla	a5,mMemoryProfileRecordingEnable
	lbu	a4,0(a5)
	ld	a5,-48(s0)
	sb	a4,0(a5)
	.loc 1 1723 10
	li	a5,0
.L212:
	.loc 1 1724 1
	mv	a0,a5
	ld	ra,40(sp)
	.cfi_restore 1
	ld	s0,32(sp)
	.cfi_restore 8
	.cfi_def_cfa 2, 48
	addi	sp,sp,48
	.cfi_def_cfa_offset 0
	jr	ra
	.cfi_endproc
.LFE26:
	.size	ProfileProtocolGetRecordingState, .-ProfileProtocolGetRecordingState
	.section	.text.ProfileProtocolSetRecordingState,"ax",@progbits
	.align	1
	.globl	ProfileProtocolSetRecordingState
	.type	ProfileProtocolSetRecordingState, @function
ProfileProtocolSetRecordingState:
.LFB27:
	.loc 1 1742 1
	.cfi_startproc
	addi	sp,sp,-48
	.cfi_def_cfa_offset 48
	sd	ra,40(sp)
	sd	s0,32(sp)
	.cfi_offset 1, -8
	.cfi_offset 8, -16
	addi	s0,sp,48
	.cfi_def_cfa 8, 0
	sd	a0,-40(s0)
	mv	a5,a1
	sb	a5,-41(s0)
	.loc 1 1745 17
	call	GetMemoryProfileContext
	sd	a0,-24(s0)
	.loc 1 1746 6
	ld	a5,-24(s0)
	bne	a5,zero,.L215
	.loc 1 1747 12
	li	a5,-1
	slli	a5,a5,63
	addi	a5,a5,3
	j	.L216
.L215:
	.loc 1 1750 33
	lla	a5,mMemoryProfileRecordingEnable
	lbu	a4,-41(s0)
	sb	a4,0(a5)
	.loc 1 1751 10
	li	a5,0
.L216:
	.loc 1 1752 1
	mv	a0,a5
	ld	ra,40(sp)
	.cfi_restore 1
	ld	s0,32(sp)
	.cfi_restore 8
	.cfi_def_cfa 2, 48
	addi	sp,sp,48
	.cfi_def_cfa_offset 0
	jr	ra
	.cfi_endproc
.LFE27:
	.size	ProfileProtocolSetRecordingState, .-ProfileProtocolSetRecordingState
	.section	.text.ProfileProtocolRecord,"ax",@progbits
	.align	1
	.globl	ProfileProtocolRecord
	.type	ProfileProtocolRecord, @function
ProfileProtocolRecord:
.LFB28:
	.loc 1 1788 1
	.cfi_startproc
	addi	sp,sp,-64
	.cfi_def_cfa_offset 64
	sd	ra,56(sp)
	sd	s0,48(sp)
	.cfi_offset 1, -8
	.cfi_offset 8, -16
	addi	s0,sp,64
	.cfi_def_cfa 8, 0
	sd	a0,-24(s0)
	sd	a1,-32(s0)
	sd	a4,-48(s0)
	sd	a5,-56(s0)
	sd	a6,-64(s0)
	mv	a5,a2
	sw	a5,-36(s0)
	mv	a5,a3
	sw	a5,-40(s0)
	.loc 1 1789 10
	lw	a2,-40(s0)
	lw	a1,-36(s0)
	ld	a5,-64(s0)
	ld	a4,-48(s0)
	ld	a3,-56(s0)
	ld	a0,-32(s0)
	call	CoreUpdateProfile
	mv	a5,a0
	.loc 1 1790 1
	mv	a0,a5
	ld	ra,56(sp)
	.cfi_restore 1
	ld	s0,48(sp)
	.cfi_restore 8
	.cfi_def_cfa 2, 64
	addi	sp,sp,64
	.cfi_def_cfa_offset 0
	jr	ra
	.cfi_endproc
.LFE28:
	.size	ProfileProtocolRecord, .-ProfileProtocolRecord
	.text
.Letext0:
	.file 2 "/home/kapoagaeming/Downloads/spacemit-image-builder/components/edk2/MdePkg/Include/RiscV64/ProcessorBind.h"
	.file 3 "/home/kapoagaeming/Downloads/spacemit-image-builder/components/edk2/MdePkg/Include/Base.h"
	.file 4 "/home/kapoagaeming/Downloads/spacemit-image-builder/components/edk2/MdePkg/Include/Uefi/UefiBaseType.h"
	.file 5 "/home/kapoagaeming/Downloads/spacemit-image-builder/components/edk2/MdePkg/Include/Uefi/UefiMultiPhase.h"
	.file 6 "/home/kapoagaeming/Downloads/spacemit-image-builder/components/edk2/MdePkg/Include/Protocol/DevicePath.h"
	.file 7 "/home/kapoagaeming/Downloads/spacemit-image-builder/components/edk2/MdePkg/Include/Protocol/SimpleTextIn.h"
	.file 8 "/home/kapoagaeming/Downloads/spacemit-image-builder/components/edk2/MdePkg/Include/Protocol/SimpleTextOut.h"
	.file 9 "/home/kapoagaeming/Downloads/spacemit-image-builder/components/edk2/MdePkg/Include/Uefi/UefiSpec.h"
	.file 10 "/home/kapoagaeming/Downloads/spacemit-image-builder/components/edk2/MdePkg/Include/Pi/PiFirmwareFile.h"
	.file 11 "/home/kapoagaeming/Downloads/spacemit-image-builder/components/edk2/MdePkg/Include/Pi/PiBootMode.h"
	.file 12 "/home/kapoagaeming/Downloads/spacemit-image-builder/components/edk2/MdePkg/Include/Pi/PiHob.h"
	.file 13 "/home/kapoagaeming/Downloads/spacemit-image-builder/components/edk2/MdePkg/Include/IndustryStandard/PeImage.h"
	.file 14 "/home/kapoagaeming/Downloads/spacemit-image-builder/components/Build/Milk-V-Jupiter/RELEASE_GCC5/RISCV64/MdeModulePkg/Core/Dxe/DxeMain/DEBUG/AutoGen.h"
	.file 15 "/home/kapoagaeming/Downloads/spacemit-image-builder/components/edk2/MdePkg/Include/Protocol/LoadedImage.h"
	.file 16 "/home/kapoagaeming/Downloads/spacemit-image-builder/components/edk2/MdePkg/Include/Protocol/Runtime.h"
	.file 17 "/home/kapoagaeming/Downloads/spacemit-image-builder/components/edk2/MdeModulePkg/Include/Protocol/PeCoffImageEmulator.h"
	.file 18 "/home/kapoagaeming/Downloads/spacemit-image-builder/components/edk2/MdeModulePkg/Include/Guid/MemoryProfile.h"
	.file 19 "/home/kapoagaeming/Downloads/spacemit-image-builder/components/edk2/MdePkg/Include/Library/BaseLib.h"
	.file 20 "/home/kapoagaeming/Downloads/spacemit-image-builder/components/edk2/MdePkg/Include/Library/UefiLib.h"
	.file 21 "/home/kapoagaeming/Downloads/spacemit-image-builder/components/edk2/MdePkg/Include/Library/PeCoffLib.h"
	.file 22 "/home/kapoagaeming/Downloads/spacemit-image-builder/components/edk2/MdeModulePkg/Core/Dxe/DxeMain.h"
	.file 23 "/home/kapoagaeming/Downloads/spacemit-image-builder/components/edk2/MdePkg/Include/Library/DevicePathLib.h"
	.file 24 "/home/kapoagaeming/Downloads/spacemit-image-builder/components/edk2/MdePkg/Include/Library/MemoryAllocationLib.h"
	.file 25 "/home/kapoagaeming/Downloads/spacemit-image-builder/components/edk2/MdePkg/Include/Library/HobLib.h"
	.file 26 "/home/kapoagaeming/Downloads/spacemit-image-builder/components/edk2/MdePkg/Include/Library/BaseMemoryLib.h"
	.file 27 "/home/kapoagaeming/Downloads/spacemit-image-builder/components/edk2/MdePkg/Include/Library/PeCoffGetEntryPointLib.h"
	.section	.note.GNU-stack,"",@progbits
