	.file	"GuidedSectionExtraction.c"
	.option pic
	.option norelax
	.attribute arch, "rv64i2p1_m2p0_a2p1_f2p2_d2p2_c2p0_zicsr2p0_zifencei2p0_zmmul1p0_zaamo1p0_zalrsc1p0_zca1p0_zcd1p0"
	.attribute unaligned_access, 0
	.attribute stack_align, 16
	.text
.Ltext0:
	.cfi_sections	.debug_frame
	.file 0 "/home/kapoagaeming/Downloads/spacemit-image-builder/components/Build/Milk-V-Jupiter/RELEASE_GCC5/RISCV64/MdeModulePkg/Library/LzmaCustomDecompressLib/LzmaCustomDecompressLib" "/home/kapoagaeming/Downloads/spacemit-image-builder/components/edk2/MdeModulePkg/Library/LzmaCustomDecompressLib/GuidedSectionExtraction.c"
	.section	.text.LzmaGuidedSectionGetInfo,"ax",@progbits
	.align	1
	.globl	LzmaGuidedSectionGetInfo
	.type	LzmaGuidedSectionGetInfo, @function
LzmaGuidedSectionGetInfo:
.LFB0:
	.file 1 "/home/kapoagaeming/Downloads/spacemit-image-builder/components/edk2/MdeModulePkg/Library/LzmaCustomDecompressLib/GuidedSectionExtraction.c"
	.loc 1 54 1
	.cfi_startproc
	addi	sp,sp,-48
	.cfi_def_cfa_offset 48
	sd	ra,40(sp)
	sd	s0,32(sp)
	.cfi_offset 1, -8
	.cfi_offset 8, -16
	addi	s0,sp,48
	.cfi_def_cfa 8, 0
	sd	a0,-24(s0)
	sd	a1,-32(s0)
	sd	a2,-40(s0)
	sd	a3,-48(s0)
	.loc 1 60 81
	ld	a5,-24(s0)
	lbu	a5,0(a5)
	sext.w	a4,a5
	.loc 1 60 150
	ld	a5,-24(s0)
	lbu	a5,1(a5)
	sext.w	a5,a5
	.loc 1 60 154
	slliw	a5,a5,8
	sext.w	a5,a5
	.loc 1 60 87
	or	a5,a4,a5
	sext.w	a4,a5
	.loc 1 60 223
	ld	a5,-24(s0)
	lbu	a5,2(a5)
	sext.w	a5,a5
	.loc 1 60 227
	slliw	a5,a5,16
	sext.w	a5,a5
	.loc 1 60 160
	or	a5,a4,a5
	sext.w	a4,a5
	.loc 1 60 6
	li	a5,16777216
	addi	a5,a5,-1
	bne	a4,a5,.L2
	.loc 1 63 12
	ld	a5,-24(s0)
	addi	a5,a5,8
	.loc 1 61 10
	mv	a1,a5
	la	a0,gLzmaCustomDecompressGuid
	call	CompareGuid@plt
	mv	a5,a0
	.loc 1 61 8 discriminator 1
	bne	a5,zero,.L3
	.loc 1 66 14
	li	a5,-1
	slli	a5,a5,63
	addi	a5,a5,2
	j	.L4
.L3:
	.loc 1 69 68
	ld	a5,-24(s0)
	lbu	a4,26(a5)
	lbu	a5,27(a5)
	slli	a5,a5,8
	or	a5,a5,a4
	slli	a4,a5,48
	srli	a4,a4,48
	.loc 1 69 23
	ld	a5,-48(s0)
	sh	a4,0(a5)
	.loc 1 72 81
	ld	a5,-24(s0)
	lbu	a4,24(a5)
	lbu	a5,25(a5)
	slli	a5,a5,8
	or	a5,a5,a4
	slli	a5,a5,48
	srli	a5,a5,48
	mv	a4,a5
	.loc 1 71 12
	ld	a5,-24(s0)
	add	a0,a5,a4
	.loc 1 73 68
	ld	a5,-24(s0)
	lbu	a4,4(a5)
	lbu	a3,5(a5)
	slli	a3,a3,8
	or	a4,a3,a4
	lbu	a3,6(a5)
	slli	a3,a3,16
	or	a4,a3,a4
	lbu	a5,7(a5)
	slli	a5,a5,24
	or	a5,a5,a4
	sext.w	a4,a5
	.loc 1 73 129
	ld	a5,-24(s0)
	lbu	a3,24(a5)
	lbu	a5,25(a5)
	slli	a5,a5,8
	or	a5,a5,a3
	slli	a5,a5,48
	srli	a5,a5,48
	sext.w	a5,a5
	.loc 1 71 12
	subw	a5,a4,a5
	sext.w	a5,a5
	ld	a3,-40(s0)
	ld	a2,-32(s0)
	mv	a1,a5
	call	LzmaUefiDecompressGetInfo@plt
	mv	a5,a0
	j	.L4
.L2:
	.loc 1 80 12
	ld	a5,-24(s0)
	addi	a5,a5,4
	.loc 1 78 10
	mv	a1,a5
	la	a0,gLzmaCustomDecompressGuid
	call	CompareGuid@plt
	mv	a5,a0
	.loc 1 78 8 discriminator 1
	bne	a5,zero,.L5
	.loc 1 83 14
	li	a5,-1
	slli	a5,a5,63
	addi	a5,a5,2
	j	.L4
.L5:
	.loc 1 86 67
	ld	a5,-24(s0)
	lbu	a4,22(a5)
	lbu	a5,23(a5)
	slli	a5,a5,8
	or	a5,a5,a4
	slli	a4,a5,48
	srli	a4,a4,48
	.loc 1 86 23
	ld	a5,-48(s0)
	sh	a4,0(a5)
	.loc 1 89 80
	ld	a5,-24(s0)
	lbu	a4,20(a5)
	lbu	a5,21(a5)
	slli	a5,a5,8
	or	a5,a5,a4
	slli	a5,a5,48
	srli	a5,a5,48
	mv	a4,a5
	.loc 1 88 12
	ld	a5,-24(s0)
	add	a0,a5,a4
	.loc 1 90 87
	ld	a5,-24(s0)
	lbu	a5,0(a5)
	sext.w	a4,a5
	.loc 1 90 156
	ld	a5,-24(s0)
	lbu	a5,1(a5)
	sext.w	a5,a5
	.loc 1 90 160
	slliw	a5,a5,8
	sext.w	a5,a5
	.loc 1 90 93
	or	a5,a4,a5
	sext.w	a4,a5
	.loc 1 90 229
	ld	a5,-24(s0)
	lbu	a5,2(a5)
	sext.w	a5,a5
	.loc 1 90 233
	slliw	a5,a5,16
	sext.w	a5,a5
	.loc 1 90 166
	or	a5,a4,a5
	sext.w	a5,a5
	.loc 1 90 15
	mv	a3,a5
	.loc 1 90 286
	ld	a5,-24(s0)
	lbu	a4,20(a5)
	lbu	a5,21(a5)
	slli	a5,a5,8
	or	a5,a5,a4
	slli	a5,a5,48
	srli	a5,a5,48
	sext.w	a5,a5
	.loc 1 90 242
	subw	a5,a3,a5
	sext.w	a5,a5
	.loc 1 88 12
	ld	a3,-40(s0)
	ld	a2,-32(s0)
	mv	a1,a5
	call	LzmaUefiDecompressGetInfo@plt
	mv	a5,a0
.L4:
	.loc 1 95 1
	mv	a0,a5
	ld	ra,40(sp)
	.cfi_restore 1
	ld	s0,32(sp)
	.cfi_restore 8
	.cfi_def_cfa 2, 48
	addi	sp,sp,48
	.cfi_def_cfa_offset 0
	jr	ra
	.cfi_endproc
.LFE0:
	.size	LzmaGuidedSectionGetInfo, .-LzmaGuidedSectionGetInfo
	.section	.text.LzmaGuidedSectionExtraction,"ax",@progbits
	.align	1
	.globl	LzmaGuidedSectionExtraction
	.type	LzmaGuidedSectionExtraction, @function
LzmaGuidedSectionExtraction:
.LFB1:
	.loc 1 138 1
	.cfi_startproc
	addi	sp,sp,-48
	.cfi_def_cfa_offset 48
	sd	ra,40(sp)
	sd	s0,32(sp)
	.cfi_offset 1, -8
	.cfi_offset 8, -16
	addi	s0,sp,48
	.cfi_def_cfa 8, 0
	sd	a0,-24(s0)
	sd	a1,-32(s0)
	sd	a2,-40(s0)
	sd	a3,-48(s0)
	.loc 1 142 81
	ld	a5,-24(s0)
	lbu	a5,0(a5)
	sext.w	a4,a5
	.loc 1 142 150
	ld	a5,-24(s0)
	lbu	a5,1(a5)
	sext.w	a5,a5
	.loc 1 142 154
	slliw	a5,a5,8
	sext.w	a5,a5
	.loc 1 142 87
	or	a5,a4,a5
	sext.w	a4,a5
	.loc 1 142 223
	ld	a5,-24(s0)
	lbu	a5,2(a5)
	sext.w	a5,a5
	.loc 1 142 227
	slliw	a5,a5,16
	sext.w	a5,a5
	.loc 1 142 160
	or	a5,a4,a5
	sext.w	a4,a5
	.loc 1 142 6
	li	a5,16777216
	addi	a5,a5,-1
	bne	a4,a5,.L7
	.loc 1 145 12
	ld	a5,-24(s0)
	addi	a5,a5,8
	.loc 1 143 10
	mv	a1,a5
	la	a0,gLzmaCustomDecompressGuid
	call	CompareGuid@plt
	mv	a5,a0
	.loc 1 143 8 discriminator 1
	bne	a5,zero,.L8
	.loc 1 148 14
	li	a5,-1
	slli	a5,a5,63
	addi	a5,a5,2
	j	.L9
.L8:
	.loc 1 154 27
	ld	a5,-48(s0)
	sw	zero,0(a5)
	.loc 1 157 81
	ld	a5,-24(s0)
	lbu	a4,24(a5)
	lbu	a5,25(a5)
	slli	a5,a5,8
	or	a5,a5,a4
	slli	a5,a5,48
	srli	a5,a5,48
	mv	a4,a5
	.loc 1 156 12
	ld	a5,-24(s0)
	add	a0,a5,a4
	.loc 1 158 68
	ld	a5,-24(s0)
	lbu	a4,4(a5)
	lbu	a3,5(a5)
	slli	a3,a3,8
	or	a4,a3,a4
	lbu	a3,6(a5)
	slli	a3,a3,16
	or	a4,a3,a4
	lbu	a5,7(a5)
	slli	a5,a5,24
	or	a5,a5,a4
	sext.w	a4,a5
	.loc 1 158 129
	ld	a5,-24(s0)
	lbu	a3,24(a5)
	lbu	a5,25(a5)
	slli	a5,a5,8
	or	a5,a5,a3
	slli	a5,a5,48
	srli	a5,a5,48
	sext.w	a5,a5
	.loc 1 158 84
	subw	a5,a4,a5
	sext.w	a5,a5
	.loc 1 156 12
	slli	a4,a5,32
	srli	a4,a4,32
	ld	a5,-32(s0)
	ld	a5,0(a5)
	ld	a3,-40(s0)
	mv	a2,a5
	mv	a1,a4
	call	LzmaUefiDecompress@plt
	mv	a5,a0
	j	.L9
.L7:
	.loc 1 165 12
	ld	a5,-24(s0)
	addi	a5,a5,4
	.loc 1 163 10
	mv	a1,a5
	la	a0,gLzmaCustomDecompressGuid
	call	CompareGuid@plt
	mv	a5,a0
	.loc 1 163 8 discriminator 1
	bne	a5,zero,.L10
	.loc 1 168 14
	li	a5,-1
	slli	a5,a5,63
	addi	a5,a5,2
	j	.L9
.L10:
	.loc 1 174 27
	ld	a5,-48(s0)
	sw	zero,0(a5)
	.loc 1 177 80
	ld	a5,-24(s0)
	lbu	a4,20(a5)
	lbu	a5,21(a5)
	slli	a5,a5,8
	or	a5,a5,a4
	slli	a5,a5,48
	srli	a5,a5,48
	mv	a4,a5
	.loc 1 176 12
	ld	a5,-24(s0)
	add	a0,a5,a4
	.loc 1 178 87
	ld	a5,-24(s0)
	lbu	a5,0(a5)
	sext.w	a4,a5
	.loc 1 178 156
	ld	a5,-24(s0)
	lbu	a5,1(a5)
	sext.w	a5,a5
	.loc 1 178 160
	slliw	a5,a5,8
	sext.w	a5,a5
	.loc 1 178 93
	or	a5,a4,a5
	sext.w	a4,a5
	.loc 1 178 229
	ld	a5,-24(s0)
	lbu	a5,2(a5)
	sext.w	a5,a5
	.loc 1 178 233
	slliw	a5,a5,16
	sext.w	a5,a5
	.loc 1 178 166
	or	a5,a4,a5
	sext.w	a5,a5
	.loc 1 178 15
	mv	a3,a5
	.loc 1 178 286
	ld	a5,-24(s0)
	lbu	a4,20(a5)
	lbu	a5,21(a5)
	slli	a5,a5,8
	or	a5,a5,a4
	slli	a5,a5,48
	srli	a5,a5,48
	sext.w	a5,a5
	.loc 1 178 242
	subw	a5,a3,a5
	sext.w	a5,a5
	.loc 1 176 12
	slli	a4,a5,32
	srli	a4,a4,32
	ld	a5,-32(s0)
	ld	a5,0(a5)
	ld	a3,-40(s0)
	mv	a2,a5
	mv	a1,a4
	call	LzmaUefiDecompress@plt
	mv	a5,a0
.L9:
	.loc 1 183 1
	mv	a0,a5
	ld	ra,40(sp)
	.cfi_restore 1
	ld	s0,32(sp)
	.cfi_restore 8
	.cfi_def_cfa 2, 48
	addi	sp,sp,48
	.cfi_def_cfa_offset 0
	jr	ra
	.cfi_endproc
.LFE1:
	.size	LzmaGuidedSectionExtraction, .-LzmaGuidedSectionExtraction
	.section	.text.LzmaDecompressLibConstructor,"ax",@progbits
	.align	1
	.globl	LzmaDecompressLibConstructor
	.type	LzmaDecompressLibConstructor, @function
LzmaDecompressLibConstructor:
.LFB2:
	.loc 1 196 1
	.cfi_startproc
	addi	sp,sp,-16
	.cfi_def_cfa_offset 16
	sd	ra,8(sp)
	sd	s0,0(sp)
	.cfi_offset 1, -8
	.cfi_offset 8, -16
	addi	s0,sp,16
	.cfi_def_cfa 8, 0
	.loc 1 197 10
	lla	a2,LzmaGuidedSectionExtraction
	lla	a1,LzmaGuidedSectionGetInfo
	la	a0,gLzmaCustomDecompressGuid
	call	ExtractGuidedSectionRegisterHandlers@plt
	mv	a5,a0
	.loc 1 202 1
	mv	a0,a5
	ld	ra,8(sp)
	.cfi_restore 1
	ld	s0,0(sp)
	.cfi_restore 8
	.cfi_def_cfa 2, 16
	addi	sp,sp,16
	.cfi_def_cfa_offset 0
	jr	ra
	.cfi_endproc
.LFE2:
	.size	LzmaDecompressLibConstructor, .-LzmaDecompressLibConstructor
	.text
.Letext0:
	.file 2 "/home/kapoagaeming/Downloads/spacemit-image-builder/components/edk2/MdePkg/Include/RiscV64/ProcessorBind.h"
	.file 3 "/home/kapoagaeming/Downloads/spacemit-image-builder/components/edk2/MdePkg/Include/Base.h"
	.file 4 "/home/kapoagaeming/Downloads/spacemit-image-builder/components/edk2/MdePkg/Include/Uefi/UefiBaseType.h"
	.file 5 "/home/kapoagaeming/Downloads/spacemit-image-builder/components/edk2/MdePkg/Include/Pi/PiFirmwareFile.h"
	.file 6 "/home/kapoagaeming/Downloads/spacemit-image-builder/components/edk2/MdePkg/Include/Library/ExtractGuidedSectionLib.h"
	.file 7 "/home/kapoagaeming/Downloads/spacemit-image-builder/components/edk2/MdeModulePkg/Library/LzmaCustomDecompressLib/LzmaDecompressLibInternal.h"
	.file 8 "/home/kapoagaeming/Downloads/spacemit-image-builder/components/edk2/MdePkg/Include/Library/BaseMemoryLib.h"
	.file 9 "/home/kapoagaeming/Downloads/spacemit-image-builder/components/Build/Milk-V-Jupiter/RELEASE_GCC5/RISCV64/MdeModulePkg/Library/LzmaCustomDecompressLib/LzmaCustomDecompressLib/DEBUG/AutoGen.h"
	.section	.note.GNU-stack,"",@progbits
