	.file	"LzmaDecompress.c"
	.option pic
	.option norelax
	.attribute arch, "rv64i2p1_m2p0_a2p1_f2p2_d2p2_c2p0_zicsr2p0_zifencei2p0_zmmul1p0_zaamo1p0_zalrsc1p0_zca1p0_zcd1p0"
	.attribute unaligned_access, 0
	.attribute stack_align, 16
	.text
.Ltext0:
	.cfi_sections	.debug_frame
	.file 0 "/home/kapoagaeming/spacemit-image-builder/components/Build/Milk-V-Jupiter/RELEASE_GCC5/RISCV64/MdeModulePkg/Library/LzmaCustomDecompressLib/LzmaCustomDecompressLib" "/home/kapoagaeming/spacemit-image-builder/components/edk2/MdeModulePkg/Library/LzmaCustomDecompressLib/LzmaDecompress.c"
	.section	.text.SzAlloc,"ax",@progbits
	.align	1
	.globl	SzAlloc
	.type	SzAlloc, @function
SzAlloc:
.LFB0:
	.file 1 "/home/kapoagaeming/spacemit-image-builder/components/edk2/MdeModulePkg/Library/LzmaCustomDecompressLib/LzmaDecompress.c"
	.loc 1 35 1
	.cfi_startproc
	addi	sp,sp,-48
	.cfi_def_cfa_offset 48
	sd	ra,40(sp)
	sd	s0,32(sp)
	.cfi_offset 1, -8
	.cfi_offset 8, -16
	addi	s0,sp,48
	.cfi_def_cfa 8, 0
	sd	a0,-40(s0)
	sd	a1,-48(s0)
	.loc 1 39 11
	ld	a5,-40(s0)
	sd	a5,-24(s0)
	.loc 1 41 14
	ld	a5,-24(s0)
	ld	a5,24(a5)
	.loc 1 41 6
	ld	a4,-48(s0)
	bgtu	a4,a5,.L2
	.loc 1 42 10
	ld	a5,-24(s0)
	ld	a5,16(a5)
	sd	a5,-32(s0)
	.loc 1 43 23
	ld	a4,-32(s0)
	ld	a5,-48(s0)
	add	a4,a4,a5
	.loc 1 43 21
	ld	a5,-24(s0)
	sd	a4,16(a5)
	.loc 1 44 12
	ld	a5,-24(s0)
	ld	a4,24(a5)
	.loc 1 44 25
	ld	a5,-48(s0)
	sub	a4,a4,a5
	ld	a5,-24(s0)
	sd	a4,24(a5)
	.loc 1 45 12
	ld	a5,-32(s0)
	j	.L3
.L2:
	.loc 1 48 12
	li	a5,0
.L3:
	.loc 1 50 1
	mv	a0,a5
	ld	ra,40(sp)
	.cfi_restore 1
	ld	s0,32(sp)
	.cfi_restore 8
	.cfi_def_cfa 2, 48
	addi	sp,sp,48
	.cfi_def_cfa_offset 0
	jr	ra
	.cfi_endproc
.LFE0:
	.size	SzAlloc, .-SzAlloc
	.section	.text.SzFree,"ax",@progbits
	.align	1
	.globl	SzFree
	.type	SzFree, @function
SzFree:
.LFB1:
	.loc 1 63 1
	.cfi_startproc
	addi	sp,sp,-32
	.cfi_def_cfa_offset 32
	sd	ra,24(sp)
	sd	s0,16(sp)
	.cfi_offset 1, -8
	.cfi_offset 8, -16
	addi	s0,sp,32
	.cfi_def_cfa 8, 0
	sd	a0,-24(s0)
	sd	a1,-32(s0)
	.loc 1 69 1
	nop
	ld	ra,24(sp)
	.cfi_restore 1
	ld	s0,16(sp)
	.cfi_restore 8
	.cfi_def_cfa 2, 32
	addi	sp,sp,32
	.cfi_def_cfa_offset 0
	jr	ra
	.cfi_endproc
.LFE1:
	.size	SzFree, .-SzFree
	.section	.text.GetDecodedSizeOfBuf,"ax",@progbits
	.align	1
	.globl	GetDecodedSizeOfBuf
	.type	GetDecodedSizeOfBuf, @function
GetDecodedSizeOfBuf:
.LFB2:
	.loc 1 84 1
	.cfi_startproc
	addi	sp,sp,-48
	.cfi_def_cfa_offset 48
	sd	ra,40(sp)
	sd	s0,32(sp)
	.cfi_offset 1, -8
	.cfi_offset 8, -16
	addi	s0,sp,48
	.cfi_def_cfa 8, 0
	sd	a0,-40(s0)
	.loc 1 89 15
	sd	zero,-24(s0)
	.loc 1 90 14
	li	a5,12
	sd	a5,-32(s0)
	.loc 1 90 3
	j	.L6
.L7:
	.loc 1 91 19
	li	a1,8
	ld	a0,-24(s0)
	call	LShiftU64@plt
	mv	a3,a0
	.loc 1 91 59 discriminator 1
	ld	a5,-32(s0)
	ld	a4,-40(s0)
	add	a5,a4,a5
	lbu	a5,0(a5)
	.loc 1 91 17 discriminator 1
	add	a5,a3,a5
	sd	a5,-24(s0)
	.loc 1 90 40 discriminator 3
	ld	a5,-32(s0)
	addi	a5,a5,-1
	sd	a5,-32(s0)
.L6:
	.loc 1 90 29 discriminator 1
	ld	a4,-32(s0)
	li	a5,4
	bgt	a4,a5,.L7
	.loc 1 94 10
	ld	a5,-24(s0)
	.loc 1 95 1
	mv	a0,a5
	ld	ra,40(sp)
	.cfi_restore 1
	ld	s0,32(sp)
	.cfi_restore 8
	.cfi_def_cfa 2, 48
	addi	sp,sp,48
	.cfi_def_cfa_offset 0
	jr	ra
	.cfi_endproc
.LFE2:
	.size	GetDecodedSizeOfBuf, .-GetDecodedSizeOfBuf
	.section	.text.LzmaUefiDecompressGetInfo,"ax",@progbits
	.align	1
	.globl	LzmaUefiDecompressGetInfo
	.type	LzmaUefiDecompressGetInfo, @function
LzmaUefiDecompressGetInfo:
.LFB3:
	.loc 1 143 1
	.cfi_startproc
	addi	sp,sp,-64
	.cfi_def_cfa_offset 64
	sd	ra,56(sp)
	sd	s0,48(sp)
	.cfi_offset 1, -8
	.cfi_offset 8, -16
	addi	s0,sp,64
	.cfi_def_cfa 8, 0
	sd	a0,-40(s0)
	mv	a5,a1
	sd	a2,-56(s0)
	sd	a3,-64(s0)
	sw	a5,-44(s0)
	.loc 1 148 17
	ld	a0,-40(s0)
	call	GetDecodedSizeOfBuf
	sd	a0,-24(s0)
	.loc 1 149 6
	ld	a4,-24(s0)
	li	a5,-1
	srli	a5,a5,32
	bleu	a4,a5,.L10
	.loc 1 150 12
	li	a5,-1
	slli	a5,a5,63
	addi	a5,a5,3
	j	.L11
.L10:
	.loc 1 153 22
	ld	a5,-24(s0)
	sext.w	a4,a5
	.loc 1 153 20
	ld	a5,-56(s0)
	sw	a4,0(a5)
	.loc 1 154 16
	ld	a5,-64(s0)
	li	a4,65536
	sw	a4,0(a5)
	.loc 1 155 10
	li	a5,0
.L11:
	.loc 1 156 1
	mv	a0,a5
	ld	ra,56(sp)
	.cfi_restore 1
	ld	s0,48(sp)
	.cfi_restore 8
	.cfi_def_cfa 2, 64
	addi	sp,sp,64
	.cfi_def_cfa_offset 0
	jr	ra
	.cfi_endproc
.LFE3:
	.size	LzmaUefiDecompressGetInfo, .-LzmaUefiDecompressGetInfo
	.section	.text.LzmaUefiDecompress,"ax",@progbits
	.align	1
	.globl	LzmaUefiDecompress
	.type	LzmaUefiDecompress, @function
LzmaUefiDecompress:
.LFB4:
	.loc 1 188 1
	.cfi_startproc
	addi	sp,sp,-128
	.cfi_def_cfa_offset 128
	sd	ra,120(sp)
	sd	s0,112(sp)
	.cfi_offset 1, -8
	.cfi_offset 8, -16
	addi	s0,sp,128
	.cfi_def_cfa 8, 0
	sd	a0,-88(s0)
	sd	a1,-96(s0)
	sd	a2,-104(s0)
	sd	a3,-112(s0)
	.loc 1 195 30
	lla	a5,SzAlloc
	sd	a5,-72(s0)
	.loc 1 196 29
	lla	a5,SzFree
	sd	a5,-64(s0)
	.loc 1 197 21
	ld	a5,-112(s0)
	sd	a5,-56(s0)
	.loc 1 198 25
	li	a5,65536
	sd	a5,-48(s0)
	.loc 1 200 27
	ld	a0,-88(s0)
	call	GetDecodedSizeOfBuf
	mv	a5,a0
	.loc 1 200 18 discriminator 1
	sd	a5,-32(s0)
	.loc 1 201 40
	ld	a5,-96(s0)
	addi	a5,a5,-13
	.loc 1 201 19
	sd	a5,-40(s0)
	.loc 1 203 16
	ld	a5,-88(s0)
	addi	a2,a5,13
	addi	a4,s0,-24
	addi	a3,s0,-40
	addi	a1,s0,-32
	addi	a5,s0,-72
	sd	a5,0(sp)
	mv	a7,a4
	li	a6,1
	li	a5,5
	ld	a4,-88(s0)
	ld	a0,-104(s0)
	call	LzmaDecode@plt
	mv	a5,a0
	sw	a5,-20(s0)
	.loc 1 215 6
	lw	a5,-20(s0)
	sext.w	a5,a5
	bne	a5,zero,.L13
	.loc 1 216 12
	li	a5,0
	j	.L15
.L13:
	.loc 1 218 12
	li	a5,-1
	slli	a5,a5,63
	addi	a5,a5,2
.L15:
	.loc 1 220 1
	mv	a0,a5
	ld	ra,120(sp)
	.cfi_restore 1
	ld	s0,112(sp)
	.cfi_restore 8
	.cfi_def_cfa 2, 128
	addi	sp,sp,128
	.cfi_def_cfa_offset 0
	jr	ra
	.cfi_endproc
.LFE4:
	.size	LzmaUefiDecompress, .-LzmaUefiDecompress
	.text
.Letext0:
	.file 2 "/home/kapoagaeming/spacemit-image-builder/components/edk2/MdePkg/Include/RiscV64/ProcessorBind.h"
	.file 3 "/home/kapoagaeming/spacemit-image-builder/components/edk2/MdePkg/Include/Base.h"
	.file 4 "/home/kapoagaeming/spacemit-image-builder/components/edk2/MdeModulePkg/Library/LzmaCustomDecompressLib/UefiLzma.h"
	.file 5 "/home/kapoagaeming/spacemit-image-builder/components/edk2/MdeModulePkg/Library/LzmaCustomDecompressLib/Sdk/C/7zTypes.h"
	.file 6 "/home/kapoagaeming/spacemit-image-builder/components/edk2/MdeModulePkg/Library/LzmaCustomDecompressLib/Sdk/C/LzmaDec.h"
	.file 7 "/home/kapoagaeming/spacemit-image-builder/components/edk2/MdePkg/Include/Library/BaseLib.h"
	.section	.note.GNU-stack,"",@progbits
