	.file	"PlatformManager.c"
	.option pic
	.option norelax
	.attribute arch, "rv64i2p1_m2p0_a2p1_f2p2_d2p2_c2p0_zicsr2p0_zifencei2p0_zmmul1p0_zaamo1p0_zalrsc1p0_zca1p0_zcd1p0"
	.attribute unaligned_access, 0
	.attribute stack_align, 16
	.text
.Ltext0:
	.cfi_sections	.debug_frame
	.file 0 "/home/kapoagaeming/Downloads/spacemit-image-builder/components/Build/Milk-V-Jupiter/RELEASE_GCC5/RISCV64/Silicon/Spacemit/Library/PlatformUiLib/PlatformManagerUiLib" "/home/kapoagaeming/Downloads/spacemit-image-builder/components/edk2-platforms/Silicon/Spacemit/Library/PlatformUiLib/PlatformManager.c"
	.globl	gPlatformManagerPrivate
	.section	.bss.gPlatformManagerPrivate,"aw",@nobits
	.align	3
	.type	gPlatformManagerPrivate, @object
	.size	gPlatformManagerPrivate, 16
gPlatformManagerPrivate:
	.zero	16
	.globl	mPlatformManagerGuid
	.section	.data.mPlatformManagerGuid,"aw"
	.align	3
	.type	mPlatformManagerGuid, @object
	.size	mPlatformManagerGuid, 16
mPlatformManagerGuid:
	.word	645141801
	.half	30585
	.half	16919
	.base64	"mFOpIs2s+WA="
	.globl	mPlatformManagerHiiVendorDevicePath
	.section	.data.mPlatformManagerHiiVendorDevicePath,"aw"
	.align	3
	.type	mPlatformManagerHiiVendorDevicePath, @object
	.size	mPlatformManagerHiiVendorDevicePath, 24
mPlatformManagerHiiVendorDevicePath:
	.byte	1
	.byte	4
	.string	"\024"
	.word	-1081601219
	.half	26097
	.half	18905
	.base64	"hwuN6rW5iq4="
	.byte	127
	.byte	-1
	.string	"\004"
	.section	.text.PmExtractDevicePathFromHiiHandle,"ax",@progbits
	.align	1
	.globl	PmExtractDevicePathFromHiiHandle
	.type	PmExtractDevicePathFromHiiHandle, @function
PmExtractDevicePathFromHiiHandle:
.LFB0:
	.file 1 "/home/kapoagaeming/Downloads/spacemit-image-builder/components/edk2-platforms/Silicon/Spacemit/Library/PlatformUiLib/PlatformManager.c"
	.loc 1 61 1
	.cfi_startproc
	addi	sp,sp,-48
	.cfi_def_cfa_offset 48
	sd	ra,40(sp)
	sd	s0,32(sp)
	.cfi_offset 1, -8
	.cfi_offset 8, -16
	addi	s0,sp,48
	.cfi_def_cfa 8, 0
	sd	a0,-40(s0)
	.loc 1 67 6
	ld	a5,-40(s0)
	bne	a5,zero,.L2
	.loc 1 68 12
	li	a5,0
	j	.L5
.L2:
	.loc 1 71 24
	la	a5,gHiiDatabase
	ld	a5,0(a5)
	ld	a5,80(a5)
	.loc 1 71 12
	la	a4,gHiiDatabase
	ld	a4,0(a4)
	addi	a3,s0,-32
	mv	a2,a3
	ld	a1,-40(s0)
	mv	a0,a4
	jalr	a5
.LVL0:
	sd	a0,-24(s0)
	.loc 1 72 34
	ld	a5,-24(s0)
	.loc 1 72 6
	bge	a5,zero,.L4
	.loc 1 73 12
	li	a5,0
	j	.L5
.L4:
	.loc 1 79 10
	ld	a5,-32(s0)
	.loc 1 79 35
	mv	a0,a5
	call	DevicePathFromHandle@plt
	mv	a5,a0
	.loc 1 79 10 discriminator 1
	li	a2,0
	li	a1,0
	mv	a0,a5
	call	ConvertDevicePathToText@plt
	mv	a5,a0
.L5:
	.loc 1 80 1
	mv	a0,a5
	ld	ra,40(sp)
	.cfi_restore 1
	ld	s0,32(sp)
	.cfi_restore 8
	.cfi_def_cfa 2, 48
	addi	sp,sp,48
	.cfi_def_cfa_offset 0
	jr	ra
	.cfi_endproc
.LFE0:
	.size	PmExtractDevicePathFromHiiHandle, .-PmExtractDevicePathFromHiiHandle
	.section	.text.CreatePlatformManagerForm,"ax",@progbits
	.align	1
	.globl	CreatePlatformManagerForm
	.type	CreatePlatformManagerForm, @function
CreatePlatformManagerForm:
.LFB1:
	.loc 1 92 1
	.cfi_startproc
	addi	sp,sp,-208
	.cfi_def_cfa_offset 208
	sd	ra,200(sp)
	sd	s0,192(sp)
	.cfi_offset 1, -8
	.cfi_offset 8, -16
	addi	s0,sp,208
	.cfi_def_cfa 8, 0
	mv	a5,a0
	sh	a5,-178(s0)
	.loc 1 114 12
	sd	zero,-56(s0)
	.loc 1 115 14
	sd	zero,-168(s0)
	.loc 1 116 10
	sd	zero,-160(s0)
	.loc 1 118 13
	lla	a5,gPlatformManagerPrivate
	ld	a5,0(a5)
	sd	a5,-72(s0)
	.loc 1 123 23
	call	HiiAllocateOpCodeHandle@plt
	sd	a0,-80(s0)
	.loc 1 126 21
	call	HiiAllocateOpCodeHandle@plt
	sd	a0,-88(s0)
	.loc 1 132 38
	li	a3,21
	li	a2,0
	la	a1,gEfiIfrTianoGuid
	ld	a0,-80(s0)
	call	HiiCreateGuidOpCode@plt
	sd	a0,-96(s0)
	.loc 1 139 28
	ld	a5,-96(s0)
	sb	zero,18(a5)
	.loc 1 143 24
	lhu	a5,-178(s0)
	addiw	a5,a5,256
	slli	a4,a5,48
	srli	a4,a4,48
	.loc 1 143 22
	ld	a5,-96(s0)
	andi	a3,a4,255
	lbu	a2,19(a5)
	andi	a2,a2,0
	or	a3,a2,a3
	sb	a3,19(a5)
	srliw	a4,a4,8
	slli	a4,a4,48
	srli	a4,a4,48
	lbu	a3,20(a5)
	andi	a3,a3,0
	or	a4,a3,a4
	sb	a4,20(a5)
	.loc 1 148 36
	li	a3,21
	li	a2,0
	la	a1,gEfiIfrTianoGuid
	ld	a0,-88(s0)
	call	HiiCreateGuidOpCode@plt
	sd	a0,-104(s0)
	.loc 1 155 26
	ld	a5,-104(s0)
	sb	zero,18(a5)
	.loc 1 156 20
	ld	a5,-104(s0)
	lbu	a4,19(a5)
	ori	a4,a4,-1
	sb	a4,19(a5)
	lbu	a4,20(a5)
	ori	a4,a4,-1
	sb	a4,20(a5)
	.loc 1 161 16
	li	a0,0
	call	HiiGetHiiHandles@plt
	sd	a0,-112(s0)
	.loc 1 167 14
	sd	zero,-24(s0)
	.loc 1 167 3
	j	.L7
.L22:
	.loc 1 168 52
	ld	a5,-24(s0)
	slli	a5,a5,3
	ld	a4,-112(s0)
	add	a5,a4,a5
	.loc 1 168 14
	ld	a5,0(a5)
	addi	a3,s0,-168
	addi	a4,s0,-160
	mv	a2,a3
	mv	a1,a4
	mv	a0,a5
	call	HiiGetFormSetFromHiiHandle@plt
	sd	a0,-120(s0)
	.loc 1 169 36
	ld	a5,-120(s0)
	.loc 1 169 8
	blt	a5,zero,.L23
	.loc 1 173 9
	ld	a5,-160(s0)
	sd	a5,-64(s0)
	.loc 1 175 11
	j	.L10
.L21:
	.loc 1 176 45
	ld	a5,-64(s0)
	lbu	a5,1(a5)
	andi	a5,a5,127
	andi	a5,a5,0xff
	mv	a4,a5
	.loc 1 176 16
	ld	a5,-56(s0)
	add	a5,a5,a4
	sd	a5,-56(s0)
	.loc 1 177 37
	ld	a5,-64(s0)
	lbu	a5,1(a5)
	andi	a5,a5,127
	andi	a5,a5,0xff
	.loc 1 177 10
	mv	a4,a5
	li	a5,22
	bgtu	a4,a5,.L11
	.loc 1 178 42
	ld	a5,-64(s0)
	lbu	a5,1(a5)
	andi	a5,a5,127
	andi	a5,a5,0xff
	mv	a4,a5
	.loc 1 178 13
	ld	a5,-64(s0)
	add	a5,a5,a4
	sd	a5,-64(s0)
	.loc 1 179 9
	j	.L10
.L11:
	.loc 1 182 55
	ld	a5,-64(s0)
	lbu	a5,22(a5)
	.loc 1 182 20
	andi	a5,a5,3
	sb	a5,-35(s0)
	.loc 1 183 17
	ld	a5,-64(s0)
	addi	a5,a5,23
	sd	a5,-48(s0)
	.loc 1 184 13
	j	.L13
.L20:
	.loc 1 185 13
	ld	a1,-48(s0)
	la	a0,gPlatformManagerFormsetGuid
	call	CompareGuid@plt
	mv	a5,a0
	.loc 1 185 12 discriminator 1
	bne	a5,zero,.L14
	.loc 1 186 20
	ld	a5,-48(s0)
	addi	a5,a5,16
	sd	a5,-48(s0)
	.loc 1 187 11
	j	.L13
.L14:
	.loc 1 190 42
	ld	a5,-24(s0)
	slli	a5,a5,3
	ld	a4,-112(s0)
	add	a5,a4,a5
	.loc 1 190 18
	ld	a3,0(a5)
	ld	a5,-64(s0)
	lbu	a4,18(a5)
	lbu	a5,19(a5)
	slli	a5,a5,8
	or	a5,a5,a4
	slli	a5,a5,48
	srli	a5,a5,48
	li	a2,0
	mv	a1,a5
	mv	a0,a3
	call	HiiGetString@plt
	sd	a0,-32(s0)
	.loc 1 191 12
	ld	a5,-32(s0)
	bne	a5,zero,.L15
	.loc 1 192 20
	li	a2,0
	li	a1,5
	ld	a0,-72(s0)
	call	HiiGetString@plt
	sd	a0,-32(s0)
.L15:
	.loc 1 196 17
	li	a3,0
	ld	a2,-32(s0)
	li	a1,0
	ld	a0,-72(s0)
	call	HiiSetString@plt
	mv	a5,a0
	sh	a5,-122(s0)
	.loc 1 197 9
	ld	a0,-32(s0)
	call	FreePool@plt
	.loc 1 199 42
	ld	a5,-24(s0)
	slli	a5,a5,3
	ld	a4,-112(s0)
	add	a5,a4,a5
	.loc 1 199 18
	ld	a3,0(a5)
	ld	a5,-64(s0)
	lbu	a4,20(a5)
	lbu	a5,21(a5)
	slli	a5,a5,8
	or	a5,a5,a4
	slli	a5,a5,48
	srli	a5,a5,48
	li	a2,0
	mv	a1,a5
	mv	a0,a3
	call	HiiGetString@plt
	sd	a0,-32(s0)
	.loc 1 200 12
	ld	a5,-32(s0)
	bne	a5,zero,.L16
	.loc 1 201 20
	li	a2,0
	li	a1,5
	ld	a0,-72(s0)
	call	HiiGetString@plt
	sd	a0,-32(s0)
.L16:
	.loc 1 205 21
	li	a3,0
	ld	a2,-32(s0)
	li	a1,0
	ld	a0,-72(s0)
	call	HiiSetString@plt
	mv	a5,a0
	sh	a5,-124(s0)
	.loc 1 206 9
	ld	a0,-32(s0)
	call	FreePool@plt
	.loc 1 208 32
	ld	a5,-64(s0)
	addi	a4,a5,2
	.loc 1 208 9
	addi	a5,s0,-152
	li	a2,16
	mv	a1,a4
	mv	a0,a5
	call	CopyMem@plt
	.loc 1 210 12
	lhu	a5,-178(s0)
	sext.w	a4,a5
	li	a5,4096
	bne	a4,a5,.L24
	.loc 1 211 71
	ld	a5,-24(s0)
	slli	a5,a5,3
	ld	a4,-112(s0)
	add	a5,a4,a5
	.loc 1 211 27
	ld	a5,0(a5)
	mv	a0,a5
	call	PmExtractDevicePathFromHiiHandle
	sd	a0,-136(s0)
	.loc 1 212 24
	sh	zero,-34(s0)
	.loc 1 213 14
	ld	a5,-136(s0)
	beq	a5,zero,.L18
	.loc 1 214 28
	li	a3,0
	ld	a2,-136(s0)
	li	a1,0
	ld	a0,-72(s0)
	call	HiiSetString@plt
	mv	a5,a0
	sh	a5,-34(s0)
	.loc 1 215 13
	ld	a0,-136(s0)
	call	FreePool@plt
.L18:
	.loc 1 218 11
	ld	a5,-24(s0)
	slli	a4,a5,48
	srli	a4,a4,48
	.loc 1 224 34
	li	a5,16384
	addw	a5,a4,a5
	slli	a4,a5,48
	srli	a4,a4,48
	.loc 1 218 11
	addi	a1,s0,-152
	lhu	a3,-124(s0)
	lhu	a2,-122(s0)
	lhu	a5,-34(s0)
	sd	a5,0(sp)
	mv	a7,a1
	li	a6,0
	mv	a5,a4
	li	a4,0
	li	a1,0
	ld	a0,-80(s0)
	call	HiiCreateGotoExOpCode@plt
	.loc 1 231 9
	j	.L24
.L13:
	.loc 1 184 26
	lbu	a5,-35(s0)
	addiw	a4,a5,-1
	sb	a4,-35(s0)
	.loc 1 184 29
	bne	a5,zero,.L20
	j	.L19
.L24:
	.loc 1 231 9
	nop
.L19:
	.loc 1 234 40
	ld	a5,-64(s0)
	lbu	a5,1(a5)
	andi	a5,a5,127
	andi	a5,a5,0xff
	mv	a4,a5
	.loc 1 234 11
	ld	a5,-64(s0)
	add	a5,a5,a4
	sd	a5,-64(s0)
.L10:
	.loc 1 175 21
	ld	a5,-168(s0)
	ld	a4,-56(s0)
	bltu	a4,a5,.L21
	.loc 1 237 5
	ld	a5,-160(s0)
	mv	a0,a5
	call	FreePool@plt
	.loc 1 238 12
	sd	zero,-160(s0)
	.loc 1 239 14
	sd	zero,-56(s0)
	.loc 1 240 16
	sd	zero,-168(s0)
	j	.L9
.L23:
	.loc 1 170 7
	nop
.L9:
	.loc 1 167 59 discriminator 2
	ld	a5,-24(s0)
	addi	a5,a5,1
	sd	a5,-24(s0)
.L7:
	.loc 1 167 29 discriminator 1
	ld	a5,-24(s0)
	slli	a5,a5,3
	ld	a4,-112(s0)
	add	a5,a4,a5
	ld	a5,0(a5)
	.loc 1 167 37 discriminator 1
	bne	a5,zero,.L22
	.loc 1 243 3
	lhu	a5,-178(s0)
	ld	a4,-88(s0)
	ld	a3,-80(s0)
	mv	a2,a5
	lla	a1,mPlatformManagerGuid
	ld	a0,-72(s0)
	call	HiiUpdateForm@plt
	.loc 1 251 3
	ld	a0,-80(s0)
	call	HiiFreeOpCodeHandle@plt
	.loc 1 252 3
	ld	a0,-88(s0)
	call	HiiFreeOpCodeHandle@plt
	.loc 1 253 3
	ld	a0,-112(s0)
	call	FreePool@plt
	.loc 1 254 1
	nop
	ld	ra,200(sp)
	.cfi_restore 1
	ld	s0,192(sp)
	.cfi_restore 8
	.cfi_def_cfa 2, 208
	addi	sp,sp,208
	.cfi_def_cfa_offset 0
	jr	ra
	.cfi_endproc
.LFE1:
	.size	CreatePlatformManagerForm, .-CreatePlatformManagerForm
	.section	.text.PlatformManagerUiLibConstructor,"ax",@progbits
	.align	1
	.globl	PlatformManagerUiLibConstructor
	.type	PlatformManagerUiLibConstructor, @function
PlatformManagerUiLibConstructor:
.LFB2:
	.loc 1 272 1
	.cfi_startproc
	addi	sp,sp,-48
	.cfi_def_cfa_offset 48
	sd	ra,40(sp)
	sd	s0,32(sp)
	.cfi_offset 1, -8
	.cfi_offset 8, -16
	addi	s0,sp,48
	.cfi_def_cfa 8, 0
	sd	a0,-40(s0)
	sd	a1,-48(s0)
	.loc 1 276 40
	lla	a5,gPlatformManagerPrivate
	sd	zero,8(a5)
	.loc 1 278 15
	la	a5,gBS
	ld	a5,0(a5)
	ld	a5,328(a5)
	.loc 1 278 12
	li	a3,0
	lla	a2,mPlatformManagerHiiVendorDevicePath
	la	a1,gEfiDevicePathProtocolGuid
	lla	a0,gPlatformManagerPrivate+8
	jalr	a5
.LVL1:
	sd	a0,-24(s0)
	.loc 1 289 39
	lla	a5,gPlatformManagerPrivate
	ld	a5,8(a5)
	li	a4,0
	la	a3,PlatformManagerUiLibStrings
	la	a2,PlatformManagerVfrBin
	mv	a1,a5
	lla	a0,mPlatformManagerGuid
	call	HiiAddPackages@plt
	mv	a4,a0
	.loc 1 289 37 discriminator 1
	lla	a5,gPlatformManagerPrivate
	sd	a4,0(a5)
	.loc 1 296 30
	lla	a5,gPlatformManagerPrivate
	ld	a5,0(a5)
	.loc 1 296 6
	beq	a5,zero,.L26
	.loc 1 300 5
	li	a0,4096
	call	CreatePlatformManagerForm
	.loc 1 307 15
	la	a5,gBS
	ld	a5,0(a5)
	ld	a6,368(a5)
	.loc 1 307 12
	addi	a5,s0,-32
	la	a4,gPlatformManagerEntryEventGuid
	li	a3,0
	la	a2,EfiEventEmptyFunction
	li	a1,8
	li	a0,512
	jalr	a6
.LVL2:
	sd	a0,-24(s0)
	.loc 1 316 6
	la	a5,gBS
	ld	a5,0(a5)
	ld	a5,104(a5)
	.loc 1 316 3
	ld	a4,-32(s0)
	mv	a0,a4
	jalr	a5
.LVL3:
	.loc 1 317 6
	la	a5,gBS
	ld	a5,0(a5)
	ld	a5,112(a5)
	.loc 1 317 3
	ld	a4,-32(s0)
	mv	a0,a4
	jalr	a5
.LVL4:
	.loc 1 319 10
	li	a5,0
	j	.L29
.L26:
	.loc 1 303 12
	li	a5,-1
	slli	a5,a5,63
	addi	a5,a5,2
.L29:
	.loc 1 320 1
	mv	a0,a5
	ld	ra,40(sp)
	.cfi_restore 1
	ld	s0,32(sp)
	.cfi_restore 8
	.cfi_def_cfa 2, 48
	addi	sp,sp,48
	.cfi_def_cfa_offset 0
	jr	ra
	.cfi_endproc
.LFE2:
	.size	PlatformManagerUiLibConstructor, .-PlatformManagerUiLibConstructor
	.section	.text.PlatformManagerUiLibDestructor,"ax",@progbits
	.align	1
	.globl	PlatformManagerUiLibDestructor
	.type	PlatformManagerUiLibDestructor, @function
PlatformManagerUiLibDestructor:
.LFB3:
	.loc 1 336 1
	.cfi_startproc
	addi	sp,sp,-48
	.cfi_def_cfa_offset 48
	sd	ra,40(sp)
	sd	s0,32(sp)
	.cfi_offset 1, -8
	.cfi_offset 8, -16
	addi	s0,sp,48
	.cfi_def_cfa 8, 0
	sd	a0,-40(s0)
	sd	a1,-48(s0)
	.loc 1 340 15
	la	a5,gBS
	ld	a5,0(a5)
	ld	a5,336(a5)
	.loc 1 340 12
	lla	a4,gPlatformManagerPrivate
	ld	a4,8(a4)
	li	a3,0
	lla	a2,mPlatformManagerHiiVendorDevicePath
	la	a1,gEfiDevicePathProtocolGuid
	mv	a0,a4
	jalr	a5
.LVL5:
	sd	a0,-24(s0)
	.loc 1 348 3
	lla	a5,gPlatformManagerPrivate
	ld	a5,0(a5)
	mv	a0,a5
	call	HiiRemovePackages@plt
	.loc 1 351 15
	la	a5,gBS
	ld	a5,0(a5)
	ld	a6,368(a5)
	.loc 1 351 12
	addi	a5,s0,-32
	la	a4,gPlatformManagerExitEventGuid
	li	a3,0
	la	a2,EfiEventEmptyFunction
	li	a1,8
	li	a0,512
	jalr	a6
.LVL6:
	sd	a0,-24(s0)
	.loc 1 360 6
	la	a5,gBS
	ld	a5,0(a5)
	ld	a5,104(a5)
	.loc 1 360 3
	ld	a4,-32(s0)
	mv	a0,a4
	jalr	a5
.LVL7:
	.loc 1 361 6
	la	a5,gBS
	ld	a5,0(a5)
	ld	a5,112(a5)
	.loc 1 361 3
	ld	a4,-32(s0)
	mv	a0,a4
	jalr	a5
.LVL8:
	.loc 1 363 10
	li	a5,0
	.loc 1 364 1
	mv	a0,a5
	ld	ra,40(sp)
	.cfi_restore 1
	ld	s0,32(sp)
	.cfi_restore 8
	.cfi_def_cfa 2, 48
	addi	sp,sp,48
	.cfi_def_cfa_offset 0
	jr	ra
	.cfi_endproc
.LFE3:
	.size	PlatformManagerUiLibDestructor, .-PlatformManagerUiLibDestructor
	.text
.Letext0:
	.file 2 "/home/kapoagaeming/Downloads/spacemit-image-builder/components/edk2/MdePkg/Include/RiscV64/ProcessorBind.h"
	.file 3 "/home/kapoagaeming/Downloads/spacemit-image-builder/components/edk2/MdePkg/Include/Base.h"
	.file 4 "/home/kapoagaeming/Downloads/spacemit-image-builder/components/edk2/MdePkg/Include/Uefi/UefiBaseType.h"
	.file 5 "/home/kapoagaeming/Downloads/spacemit-image-builder/components/edk2/MdePkg/Include/Uefi/UefiMultiPhase.h"
	.file 6 "/home/kapoagaeming/Downloads/spacemit-image-builder/components/edk2/MdePkg/Include/Protocol/DevicePath.h"
	.file 7 "/home/kapoagaeming/Downloads/spacemit-image-builder/components/edk2/MdePkg/Include/Protocol/SimpleTextIn.h"
	.file 8 "/home/kapoagaeming/Downloads/spacemit-image-builder/components/edk2/MdePkg/Include/Protocol/SimpleTextOut.h"
	.file 9 "/home/kapoagaeming/Downloads/spacemit-image-builder/components/edk2/MdePkg/Include/Uefi/UefiSpec.h"
	.file 10 "/home/kapoagaeming/Downloads/spacemit-image-builder/components/edk2/MdePkg/Include/Uefi/UefiInternalFormRepresentation.h"
	.file 11 "/home/kapoagaeming/Downloads/spacemit-image-builder/components/Build/Milk-V-Jupiter/RELEASE_GCC5/RISCV64/Silicon/Spacemit/Library/PlatformUiLib/PlatformManagerUiLib/DEBUG/AutoGen.h"
	.file 12 "/home/kapoagaeming/Downloads/spacemit-image-builder/components/Build/Milk-V-Jupiter/RELEASE_GCC5/RISCV64/Silicon/Spacemit/Library/PlatformUiLib/PlatformManagerUiLib/DEBUG/PlatformManagerUiLibStrDefs.h"
	.file 13 "/home/kapoagaeming/Downloads/spacemit-image-builder/components/edk2/MdeModulePkg/Include/Guid/MdeModuleHii.h"
	.file 14 "/home/kapoagaeming/Downloads/spacemit-image-builder/components/edk2/MdePkg/Include/Protocol/HiiDatabase.h"
	.file 15 "/home/kapoagaeming/Downloads/spacemit-image-builder/components/edk2/MdeModulePkg/Include/Library/UefiHiiServicesLib.h"
	.file 16 "/home/kapoagaeming/Downloads/spacemit-image-builder/components/edk2-platforms/Silicon/Spacemit/Library/PlatformUiLib/PlatformManager.h"
	.file 17 "/home/kapoagaeming/Downloads/spacemit-image-builder/components/edk2/MdeModulePkg/Include/Library/HiiLib.h"
	.file 18 "/home/kapoagaeming/Downloads/spacemit-image-builder/components/edk2/MdePkg/Include/Library/UefiLib.h"
	.file 19 "/home/kapoagaeming/Downloads/spacemit-image-builder/components/edk2/MdePkg/Include/Library/BaseMemoryLib.h"
	.file 20 "/home/kapoagaeming/Downloads/spacemit-image-builder/components/edk2/MdePkg/Include/Library/MemoryAllocationLib.h"
	.file 21 "/home/kapoagaeming/Downloads/spacemit-image-builder/components/edk2/MdePkg/Include/Library/DevicePathLib.h"
	.file 22 "/home/kapoagaeming/Downloads/spacemit-image-builder/components/edk2/MdePkg/Include/Library/UefiBootServicesTableLib.h"
	.section	.note.GNU-stack,"",@progbits
