	.file	"CapsuleService.c"
	.option pic
	.option norelax
	.attribute arch, "rv64i2p1_m2p0_a2p1_f2p2_d2p2_c2p0_zicsr2p0_zifencei2p0_zmmul1p0_zaamo1p0_zalrsc1p0_zca1p0_zcd1p0"
	.attribute unaligned_access, 0
	.attribute stack_align, 16
	.text
.Ltext0:
	.cfi_sections	.debug_frame
	.file 0 "/home/kapoagaeming/spacemit-image-builder/components/Build/Milk-V-Jupiter/RELEASE_GCC5/RISCV64/MdeModulePkg/Universal/CapsuleRuntimeDxe/CapsuleRuntimeDxe" "/home/kapoagaeming/spacemit-image-builder/components/edk2/MdeModulePkg/Universal/CapsuleRuntimeDxe/CapsuleService.c"
	.globl	mNewHandle
	.section	.bss.mNewHandle,"aw",@nobits
	.align	3
	.type	mNewHandle, @object
	.size	mNewHandle, 8
mNewHandle:
	.zero	8
	.globl	mTimes
	.section	.bss.mTimes,"aw",@nobits
	.align	3
	.type	mTimes, @object
	.size	mTimes, 8
mTimes:
	.zero	8
	.globl	mMaxSizePopulateCapsule
	.section	.bss.mMaxSizePopulateCapsule,"aw",@nobits
	.align	2
	.type	mMaxSizePopulateCapsule, @object
	.size	mMaxSizePopulateCapsule, 4
mMaxSizePopulateCapsule:
	.zero	4
	.globl	mMaxSizeNonPopulateCapsule
	.section	.bss.mMaxSizeNonPopulateCapsule,"aw",@nobits
	.align	2
	.type	mMaxSizeNonPopulateCapsule, @object
	.size	mMaxSizeNonPopulateCapsule, 4
mMaxSizeNonPopulateCapsule:
	.zero	4
	.section	.rodata
	.align	3
.LC0:
	.string	"C"
	.string	"a"
	.string	"p"
	.string	"s"
	.string	"u"
	.string	"l"
	.string	"e"
	.string	"U"
	.string	"p"
	.string	"d"
	.string	"a"
	.string	"t"
	.string	"e"
	.string	"D"
	.string	"a"
	.string	"t"
	.string	"a"
	.zero	2
	.section	.text.UpdateCapsule,"ax",@progbits
	.align	1
	.globl	UpdateCapsule
	.type	UpdateCapsule, @function
UpdateCapsule:
.LFB0:
	.file 1 "/home/kapoagaeming/spacemit-image-builder/components/edk2/MdeModulePkg/Universal/CapsuleRuntimeDxe/CapsuleService.c"
	.loc 1 68 1
	.cfi_startproc
	addi	sp,sp,-160
	.cfi_def_cfa_offset 160
	sd	ra,152(sp)
	sd	s0,144(sp)
	.cfi_offset 1, -8
	.cfi_offset 8, -16
	addi	s0,sp,160
	.cfi_def_cfa 8, 0
	sd	a0,-136(s0)
	sd	a1,-144(s0)
	sd	a2,-152(s0)
	.loc 1 81 7
	la	a5,_gPcd_FixedAtBuild_PcdCapsuleInRamSupport
	lbu	a5,0(a5)
	.loc 1 81 6
	bne	a5,zero,.L2
	.loc 1 82 12
	li	a5,-1
	slli	a5,a5,63
	addi	a5,a5,3
	j	.L22
.L2:
	.loc 1 88 6
	ld	a5,-144(s0)
	bne	a5,zero,.L4
	.loc 1 89 12
	li	a5,-1
	slli	a5,a5,63
	addi	a5,a5,2
	j	.L22
.L4:
	.loc 1 92 13
	sb	zero,-33(s0)
	.loc 1 93 17
	sb	zero,-34(s0)
	.loc 1 94 17
	sd	zero,-48(s0)
	.loc 1 95 21
	sh	zero,-120(s0)
	.loc 1 97 20
	sd	zero,-24(s0)
	.loc 1 97 3
	j	.L5
.L10:
	.loc 1 102 39
	ld	a5,-24(s0)
	slli	a5,a5,3
	ld	a4,-136(s0)
	add	a5,a4,a5
	.loc 1 102 19
	ld	a5,0(a5)
	sd	a5,-48(s0)
	.loc 1 103 23
	ld	a5,-48(s0)
	lw	a5,20(a5)
	.loc 1 103 31
	mv	a4,a5
	li	a5,196608
	and	a5,a4,a5
	sext.w	a4,a5
	.loc 1 103 8
	li	a5,131072
	bne	a4,a5,.L6
	.loc 1 104 14
	li	a5,-1
	slli	a5,a5,63
	addi	a5,a5,2
	j	.L22
.L6:
	.loc 1 111 23
	ld	a5,-48(s0)
	lw	a5,20(a5)
	.loc 1 111 31
	mv	a4,a5
	li	a5,327680
	and	a5,a4,a5
	sext.w	a4,a5
	.loc 1 111 8
	li	a5,262144
	bne	a4,a5,.L7
	.loc 1 112 14
	li	a5,-1
	slli	a5,a5,63
	addi	a5,a5,2
	j	.L22
.L7:
	.loc 1 118 23
	ld	a5,-48(s0)
	.loc 1 118 10
	la	a1,gEfiFmpCapsuleGuid
	mv	a0,a5
	call	CompareGuid@plt
	mv	a5,a0
	.loc 1 118 8 discriminator 1
	beq	a5,zero,.L8
	.loc 1 119 26
	ld	a5,-48(s0)
	lw	a5,20(a5)
	.loc 1 119 34
	mv	a4,a5
	li	a5,131072
	and	a5,a4,a5
	sext.w	a5,a5
	.loc 1 119 8
	beq	a5,zero,.L8
	.loc 1 121 14
	li	a5,-1
	slli	a5,a5,63
	addi	a5,a5,2
	j	.L22
.L8:
	.loc 1 127 23
	ld	a5,-48(s0)
	lw	a5,20(a5)
	.loc 1 127 31
	mv	a4,a5
	li	a5,131072
	and	a5,a4,a5
	sext.w	a5,a5
	.loc 1 127 8
	bne	a5,zero,.L9
	.loc 1 128 16
	ld	a0,-48(s0)
	call	SupportCapsuleImage@plt
	sd	a0,-32(s0)
	.loc 1 129 38
	ld	a5,-32(s0)
	.loc 1 129 10
	bge	a5,zero,.L9
	.loc 1 130 16
	ld	a5,-32(s0)
	j	.L22
.L9:
	.loc 1 97 64 discriminator 2
	ld	a5,-24(s0)
	addi	a5,a5,1
	sd	a5,-24(s0)
.L5:
	.loc 1 97 37 discriminator 1
	ld	a4,-24(s0)
	ld	a5,-144(s0)
	bltu	a4,a5,.L10
	.loc 1 139 20
	sd	zero,-24(s0)
	.loc 1 139 3
	j	.L11
.L16:
	.loc 1 140 39
	ld	a5,-24(s0)
	slli	a5,a5,3
	ld	a4,-136(s0)
	add	a5,a4,a5
	.loc 1 140 19
	ld	a5,0(a5)
	sd	a5,-48(s0)
	.loc 1 145 23
	ld	a5,-48(s0)
	lw	a5,20(a5)
	.loc 1 145 31
	mv	a4,a5
	li	a5,65536
	and	a5,a4,a5
	sext.w	a5,a5
	.loc 1 145 8
	bne	a5,zero,.L12
	.loc 1 146 11
	call	EfiAtRuntime@plt
	mv	a5,a0
	.loc 1 146 10 discriminator 1
	beq	a5,zero,.L13
	.loc 1 146 30 discriminator 2
	la	a5,_gPcd_FixedAtBuild_PcdSupportProcessCapsuleAtRuntime
	lbu	a5,0(a5)
	.loc 1 146 27 discriminator 2
	bne	a5,zero,.L13
	.loc 1 147 16
	li	a5,-1
	slli	a5,a5,63
	addi	a5,a5,9
	sd	a5,-32(s0)
	j	.L14
.L13:
	.loc 1 149 18
	ld	a0,-48(s0)
	call	ProcessCapsuleImage@plt
	sd	a0,-32(s0)
.L14:
	.loc 1 152 38
	ld	a5,-32(s0)
	.loc 1 152 10
	bge	a5,zero,.L15
	.loc 1 153 16
	ld	a5,-32(s0)
	j	.L22
.L12:
	.loc 1 156 17
	li	a5,1
	sb	a5,-33(s0)
	.loc 1 157 25
	ld	a5,-48(s0)
	lw	a5,20(a5)
	.loc 1 157 33
	mv	a4,a5
	li	a5,262144
	and	a5,a4,a5
	sext.w	a5,a5
	.loc 1 157 10
	beq	a5,zero,.L15
	.loc 1 158 23
	li	a5,1
	sb	a5,-34(s0)
.L15:
	.loc 1 139 64 discriminator 2
	ld	a5,-24(s0)
	addi	a5,a5,1
	sd	a5,-24(s0)
.L11:
	.loc 1 139 37 discriminator 1
	ld	a4,-24(s0)
	ld	a5,-144(s0)
	bltu	a4,a5,.L16
	.loc 1 167 6
	lbu	a5,-33(s0)
	andi	a5,a5,0xff
	bne	a5,zero,.L17
	.loc 1 168 12
	li	a5,0
	j	.L22
.L17:
	.loc 1 175 25
	ld	a5,-152(s0)
	.loc 1 175 6
	bne	a5,zero,.L18
	.loc 1 176 12
	li	a5,-1
	slli	a5,a5,63
	addi	a5,a5,2
	j	.L22
.L18:
	.loc 1 182 8
	call	IsPersistAcrossResetCapsuleSupported@plt
	mv	a5,a0
	.loc 1 182 6 discriminator 1
	bne	a5,zero,.L19
	.loc 1 183 12
	li	a5,-1
	slli	a5,a5,63
	addi	a5,a5,3
	j	.L22
.L19:
	.loc 1 186 3
	ld	a5,-152(s0)
	mv	a0,a5
	call	CapsuleCacheWriteBack@plt
	.loc 1 192 3
	addi	a5,s0,-120
	lla	a2,.LC0
	li	a1,30
	mv	a0,a5
	call	StrCpyS@plt
	.loc 1 193 34
	addi	a5,s0,-120
	mv	a0,a5
	call	StrLen@plt
	mv	a5,a0
	.loc 1 193 32 discriminator 1
	slli	a5,a5,1
	.loc 1 193 15 discriminator 1
	addi	a4,s0,-120
	add	a5,a4,a5
	sd	a5,-56(s0)
	.loc 1 194 14
	lla	a5,mTimes
	ld	a5,0(a5)
	.loc 1 194 6
	beq	a5,zero,.L20
	.loc 1 197 55
	addi	a4,s0,-120
	.loc 1 197 34
	ld	a5,-56(s0)
	.loc 1 197 31
	sub	a5,a4,a5
	addi	a1,a5,60
	.loc 1 195 5
	lla	a5,mTimes
	ld	a5,0(a5)
	li	a4,0
	mv	a3,a5
	li	a2,0
	ld	a0,-56(s0)
	call	UnicodeValueToStringS@plt
.L20:
	.loc 1 209 12
	addi	a4,s0,-152
	addi	a5,s0,-120
	li	a3,8
	li	a2,7
	la	a1,gEfiCapsuleVendorGuid
	mv	a0,a5
	call	EfiSetVariable@plt
	sd	a0,-32(s0)
	.loc 1 216 7
	ld	a5,-32(s0)
	.loc 1 216 6
	blt	a5,zero,.L21
	.loc 1 220 11
	lla	a5,mTimes
	ld	a5,0(a5)
	addi	a4,a5,1
	lla	a5,mTimes
	sd	a4,0(a5)
	.loc 1 221 8
	lbu	a5,-34(s0)
	andi	a5,a5,0xff
	beq	a5,zero,.L21
	.loc 1 227 7
	li	a3,0
	li	a2,0
	li	a1,0
	li	a0,1
	call	EfiResetSystem@plt
.L21:
	.loc 1 231 10
	ld	a5,-32(s0)
.L22:
	.loc 1 232 1
	mv	a0,a5
	ld	ra,152(sp)
	.cfi_restore 1
	ld	s0,144(sp)
	.cfi_restore 8
	.cfi_def_cfa 2, 160
	addi	sp,sp,160
	.cfi_def_cfa_offset 0
	jr	ra
	.cfi_endproc
.LFE0:
	.size	UpdateCapsule, .-UpdateCapsule
	.section	.text.QueryCapsuleCapabilities,"ax",@progbits
	.align	1
	.globl	QueryCapsuleCapabilities
	.type	QueryCapsuleCapabilities, @function
QueryCapsuleCapabilities:
.LFB1:
	.loc 1 273 1
	.cfi_startproc
	addi	sp,sp,-80
	.cfi_def_cfa_offset 80
	sd	ra,72(sp)
	sd	s0,64(sp)
	.cfi_offset 1, -8
	.cfi_offset 8, -16
	addi	s0,sp,80
	.cfi_def_cfa 8, 0
	sd	a0,-56(s0)
	sd	a1,-64(s0)
	sd	a2,-72(s0)
	sd	a3,-80(s0)
	.loc 1 282 6
	ld	a5,-64(s0)
	bne	a5,zero,.L24
	.loc 1 283 12
	li	a5,-1
	slli	a5,a5,63
	addi	a5,a5,2
	j	.L25
.L24:
	.loc 1 289 6
	ld	a5,-72(s0)
	beq	a5,zero,.L26
	.loc 1 289 43 discriminator 1
	ld	a5,-80(s0)
	bne	a5,zero,.L27
.L26:
	.loc 1 290 12
	li	a5,-1
	slli	a5,a5,63
	addi	a5,a5,2
	j	.L25
.L27:
	.loc 1 293 17
	sd	zero,-40(s0)
	.loc 1 294 13
	sb	zero,-25(s0)
	.loc 1 296 20
	sd	zero,-24(s0)
	.loc 1 296 3
	j	.L28
.L33:
	.loc 1 297 39
	ld	a5,-24(s0)
	slli	a5,a5,3
	ld	a4,-56(s0)
	add	a5,a4,a5
	.loc 1 297 19
	ld	a5,0(a5)
	sd	a5,-40(s0)
	.loc 1 302 23
	ld	a5,-40(s0)
	lw	a5,20(a5)
	.loc 1 302 31
	mv	a4,a5
	li	a5,196608
	and	a5,a4,a5
	sext.w	a4,a5
	.loc 1 302 8
	li	a5,131072
	bne	a4,a5,.L29
	.loc 1 303 14
	li	a5,-1
	slli	a5,a5,63
	addi	a5,a5,2
	j	.L25
.L29:
	.loc 1 310 23
	ld	a5,-40(s0)
	lw	a5,20(a5)
	.loc 1 310 31
	mv	a4,a5
	li	a5,327680
	and	a5,a4,a5
	sext.w	a4,a5
	.loc 1 310 8
	li	a5,262144
	bne	a4,a5,.L30
	.loc 1 311 14
	li	a5,-1
	slli	a5,a5,63
	addi	a5,a5,2
	j	.L25
.L30:
	.loc 1 317 23
	ld	a5,-40(s0)
	.loc 1 317 10
	la	a1,gEfiFmpCapsuleGuid
	mv	a0,a5
	call	CompareGuid@plt
	mv	a5,a0
	.loc 1 317 8 discriminator 1
	beq	a5,zero,.L31
	.loc 1 318 26
	ld	a5,-40(s0)
	lw	a5,20(a5)
	.loc 1 318 34
	mv	a4,a5
	li	a5,131072
	and	a5,a4,a5
	sext.w	a5,a5
	.loc 1 318 8
	beq	a5,zero,.L31
	.loc 1 320 14
	li	a5,-1
	slli	a5,a5,63
	addi	a5,a5,2
	j	.L25
.L31:
	.loc 1 326 23
	ld	a5,-40(s0)
	lw	a5,20(a5)
	.loc 1 326 31
	mv	a4,a5
	li	a5,131072
	and	a5,a4,a5
	sext.w	a5,a5
	.loc 1 326 8
	bne	a5,zero,.L32
	.loc 1 327 16
	ld	a0,-40(s0)
	call	SupportCapsuleImage@plt
	sd	a0,-48(s0)
	.loc 1 328 38
	ld	a5,-48(s0)
	.loc 1 328 10
	bge	a5,zero,.L32
	.loc 1 329 16
	ld	a5,-48(s0)
	j	.L25
.L32:
	.loc 1 296 64 discriminator 2
	ld	a5,-24(s0)
	addi	a5,a5,1
	sd	a5,-24(s0)
.L28:
	.loc 1 296 37 discriminator 1
	ld	a4,-24(s0)
	ld	a5,-64(s0)
	bltu	a4,a5,.L33
	.loc 1 337 20
	sd	zero,-24(s0)
	.loc 1 337 3
	j	.L34
.L37:
	.loc 1 338 39
	ld	a5,-24(s0)
	slli	a5,a5,3
	ld	a4,-56(s0)
	add	a5,a4,a5
	.loc 1 338 19
	ld	a5,0(a5)
	sd	a5,-40(s0)
	.loc 1 339 23
	ld	a5,-40(s0)
	lw	a5,20(a5)
	.loc 1 339 31
	mv	a4,a5
	li	a5,65536
	and	a5,a4,a5
	sext.w	a5,a5
	.loc 1 339 8
	beq	a5,zero,.L35
	.loc 1 340 17
	li	a5,1
	sb	a5,-25(s0)
	.loc 1 341 7
	j	.L36
.L35:
	.loc 1 337 64 discriminator 2
	ld	a5,-24(s0)
	addi	a5,a5,1
	sd	a5,-24(s0)
.L34:
	.loc 1 337 37 discriminator 1
	ld	a4,-24(s0)
	ld	a5,-64(s0)
	bltu	a4,a5,.L37
.L36:
	.loc 1 345 6
	lbu	a5,-25(s0)
	andi	a5,a5,0xff
	beq	a5,zero,.L38
	.loc 1 349 10
	call	IsPersistAcrossResetCapsuleSupported@plt
	mv	a5,a0
	.loc 1 349 8 discriminator 1
	bne	a5,zero,.L39
	.loc 1 350 14
	li	a5,-1
	slli	a5,a5,63
	addi	a5,a5,3
	j	.L25
.L39:
	.loc 1 353 16
	ld	a5,-80(s0)
	li	a4,1
	sw	a4,0(a5)
	.loc 1 354 26
	lla	a5,mMaxSizePopulateCapsule
	lw	a5,0(a5)
	slli	a4,a5,32
	srli	a4,a4,32
	.loc 1 354 24
	ld	a5,-72(s0)
	sd	a4,0(a5)
	j	.L40
.L38:
	.loc 1 359 16
	ld	a5,-80(s0)
	sw	zero,0(a5)
	.loc 1 360 26
	lla	a5,mMaxSizeNonPopulateCapsule
	lw	a5,0(a5)
	slli	a4,a5,32
	srli	a4,a4,32
	.loc 1 360 24
	ld	a5,-72(s0)
	sd	a4,0(a5)
.L40:
	.loc 1 363 10
	li	a5,0
.L25:
	.loc 1 364 1
	mv	a0,a5
	ld	ra,72(sp)
	.cfi_restore 1
	ld	s0,64(sp)
	.cfi_restore 8
	.cfi_def_cfa 2, 80
	addi	sp,sp,80
	.cfi_def_cfa_offset 0
	jr	ra
	.cfi_endproc
.LFE1:
	.size	QueryCapsuleCapabilities, .-QueryCapsuleCapabilities
	.section	.text.CapsuleServiceInitialize,"ax",@progbits
	.align	1
	.globl	CapsuleServiceInitialize
	.type	CapsuleServiceInitialize, @function
CapsuleServiceInitialize:
.LFB2:
	.loc 1 382 1
	.cfi_startproc
	addi	sp,sp,-48
	.cfi_def_cfa_offset 48
	sd	ra,40(sp)
	sd	s0,32(sp)
	.cfi_offset 1, -8
	.cfi_offset 8, -16
	addi	s0,sp,48
	.cfi_def_cfa 8, 0
	sd	a0,-40(s0)
	sd	a1,-48(s0)
	.loc 1 385 27
	la	a5,_gPcd_FixedAtBuild_PcdMaxSizePopulateCapsule
	lw	a4,0(a5)
	lla	a5,mMaxSizePopulateCapsule
	sw	a4,0(a5)
	.loc 1 386 30
	la	a5,_gPcd_FixedAtBuild_PcdMaxSizeNonPopulateCapsule
	lw	a4,0(a5)
	lla	a5,mMaxSizeNonPopulateCapsule
	sw	a4,0(a5)
	.loc 1 395 3
	call	SaveLongModeContext@plt
	.loc 1 400 6
	la	a5,gRT
	ld	a5,0(a5)
	.loc 1 400 22
	lla	a4,UpdateCapsule
	sd	a4,112(a5)
	.loc 1 401 6
	la	a5,gRT
	ld	a5,0(a5)
	.loc 1 401 33
	lla	a4,QueryCapsuleCapabilities
	sd	a4,120(a5)
	.loc 1 407 15
	la	a5,gBS
	ld	a5,0(a5)
	ld	a5,328(a5)
	.loc 1 407 12
	li	a3,0
	li	a2,0
	la	a1,gEfiCapsuleArchProtocolGuid
	lla	a0,mNewHandle
	jalr	a5
.LVL0:
	sd	a0,-24(s0)
	.loc 1 415 10
	ld	a5,-24(s0)
	.loc 1 416 1
	mv	a0,a5
	ld	ra,40(sp)
	.cfi_restore 1
	ld	s0,32(sp)
	.cfi_restore 8
	.cfi_def_cfa 2, 48
	addi	sp,sp,48
	.cfi_def_cfa_offset 0
	jr	ra
	.cfi_endproc
.LFE2:
	.size	CapsuleServiceInitialize, .-CapsuleServiceInitialize
	.text
.Letext0:
	.file 2 "/home/kapoagaeming/spacemit-image-builder/components/edk2/MdePkg/Include/RiscV64/ProcessorBind.h"
	.file 3 "/home/kapoagaeming/spacemit-image-builder/components/edk2/MdePkg/Include/Base.h"
	.file 4 "/home/kapoagaeming/spacemit-image-builder/components/edk2/MdePkg/Include/Uefi/UefiBaseType.h"
	.file 5 "/home/kapoagaeming/spacemit-image-builder/components/edk2/MdePkg/Include/Uefi/UefiMultiPhase.h"
	.file 6 "/home/kapoagaeming/spacemit-image-builder/components/edk2/MdePkg/Include/Protocol/DevicePath.h"
	.file 7 "/home/kapoagaeming/spacemit-image-builder/components/edk2/MdePkg/Include/Protocol/SimpleTextIn.h"
	.file 8 "/home/kapoagaeming/spacemit-image-builder/components/edk2/MdePkg/Include/Protocol/SimpleTextOut.h"
	.file 9 "/home/kapoagaeming/spacemit-image-builder/components/edk2/MdePkg/Include/Uefi/UefiSpec.h"
	.file 10 "/home/kapoagaeming/spacemit-image-builder/components/Build/Milk-V-Jupiter/RELEASE_GCC5/RISCV64/MdeModulePkg/Universal/CapsuleRuntimeDxe/CapsuleRuntimeDxe/DEBUG/AutoGen.h"
	.file 11 "/home/kapoagaeming/spacemit-image-builder/components/edk2/MdePkg/Include/Library/UefiBootServicesTableLib.h"
	.file 12 "/home/kapoagaeming/spacemit-image-builder/components/edk2/MdePkg/Include/Library/UefiRuntimeServicesTableLib.h"
	.file 13 "/home/kapoagaeming/spacemit-image-builder/components/edk2/MdePkg/Include/Library/UefiRuntimeLib.h"
	.file 14 "/home/kapoagaeming/spacemit-image-builder/components/edk2/MdePkg/Include/Library/PrintLib.h"
	.file 15 "/home/kapoagaeming/spacemit-image-builder/components/edk2/MdePkg/Include/Library/BaseLib.h"
	.file 16 "/home/kapoagaeming/spacemit-image-builder/components/edk2/MdeModulePkg/Universal/CapsuleRuntimeDxe/CapsuleService.h"
	.file 17 "/home/kapoagaeming/spacemit-image-builder/components/edk2/MdeModulePkg/Include/Library/CapsuleLib.h"
	.file 18 "/home/kapoagaeming/spacemit-image-builder/components/edk2/MdePkg/Include/Library/BaseMemoryLib.h"
	.section	.note.GNU-stack,"",@progbits
