	.file	"PcdLib.c"
	.option pic
	.option norelax
	.attribute arch, "rv64i2p1_m2p0_a2p1_f2p2_d2p2_c2p0_zicsr2p0_zifencei2p0_zmmul1p0_zaamo1p0_zalrsc1p0_zca1p0_zcd1p0"
	.attribute unaligned_access, 0
	.attribute stack_align, 16
	.text
.Ltext0:
	.cfi_sections	.debug_frame
	.file 0 "/home/kapoagaeming/Downloads/spacemit-image-builder/components/Build/Milk-V-Jupiter/RELEASE_GCC5/RISCV64/MdePkg/Library/BasePcdLibNull/BasePcdLibNull" "/home/kapoagaeming/Downloads/spacemit-image-builder/components/edk2/MdePkg/Library/BasePcdLibNull/PcdLib.c"
	.section	.text.LibPcdSetSku,"ax",@progbits
	.align	1
	.globl	LibPcdSetSku
	.type	LibPcdSetSku, @function
LibPcdSetSku:
.LFB0:
	.file 1 "/home/kapoagaeming/Downloads/spacemit-image-builder/components/edk2/MdePkg/Library/BasePcdLibNull/PcdLib.c"
	.loc 1 31 1
	.cfi_startproc
	addi	sp,sp,-32
	.cfi_def_cfa_offset 32
	sd	ra,24(sp)
	sd	s0,16(sp)
	.cfi_offset 1, -8
	.cfi_offset 8, -16
	addi	s0,sp,32
	.cfi_def_cfa 8, 0
	sd	a0,-24(s0)
	.loc 1 34 10
	li	a5,0
	.loc 1 35 1
	mv	a0,a5
	ld	ra,24(sp)
	.cfi_restore 1
	ld	s0,16(sp)
	.cfi_restore 8
	.cfi_def_cfa 2, 32
	addi	sp,sp,32
	.cfi_def_cfa_offset 0
	jr	ra
	.cfi_endproc
.LFE0:
	.size	LibPcdSetSku, .-LibPcdSetSku
	.section	.text.LibPcdGet8,"ax",@progbits
	.align	1
	.globl	LibPcdGet8
	.type	LibPcdGet8, @function
LibPcdGet8:
.LFB1:
	.loc 1 52 1
	.cfi_startproc
	addi	sp,sp,-32
	.cfi_def_cfa_offset 32
	sd	ra,24(sp)
	sd	s0,16(sp)
	.cfi_offset 1, -8
	.cfi_offset 8, -16
	addi	s0,sp,32
	.cfi_def_cfa 8, 0
	sd	a0,-24(s0)
	.loc 1 55 10
	li	a5,0
	.loc 1 56 1
	mv	a0,a5
	ld	ra,24(sp)
	.cfi_restore 1
	ld	s0,16(sp)
	.cfi_restore 8
	.cfi_def_cfa 2, 32
	addi	sp,sp,32
	.cfi_def_cfa_offset 0
	jr	ra
	.cfi_endproc
.LFE1:
	.size	LibPcdGet8, .-LibPcdGet8
	.section	.text.LibPcdGet16,"ax",@progbits
	.align	1
	.globl	LibPcdGet16
	.type	LibPcdGet16, @function
LibPcdGet16:
.LFB2:
	.loc 1 73 1
	.cfi_startproc
	addi	sp,sp,-32
	.cfi_def_cfa_offset 32
	sd	ra,24(sp)
	sd	s0,16(sp)
	.cfi_offset 1, -8
	.cfi_offset 8, -16
	addi	s0,sp,32
	.cfi_def_cfa 8, 0
	sd	a0,-24(s0)
	.loc 1 76 10
	li	a5,0
	.loc 1 77 1
	mv	a0,a5
	ld	ra,24(sp)
	.cfi_restore 1
	ld	s0,16(sp)
	.cfi_restore 8
	.cfi_def_cfa 2, 32
	addi	sp,sp,32
	.cfi_def_cfa_offset 0
	jr	ra
	.cfi_endproc
.LFE2:
	.size	LibPcdGet16, .-LibPcdGet16
	.section	.text.LibPcdGet32,"ax",@progbits
	.align	1
	.globl	LibPcdGet32
	.type	LibPcdGet32, @function
LibPcdGet32:
.LFB3:
	.loc 1 94 1
	.cfi_startproc
	addi	sp,sp,-32
	.cfi_def_cfa_offset 32
	sd	ra,24(sp)
	sd	s0,16(sp)
	.cfi_offset 1, -8
	.cfi_offset 8, -16
	addi	s0,sp,32
	.cfi_def_cfa 8, 0
	sd	a0,-24(s0)
	.loc 1 97 10
	li	a5,0
	.loc 1 98 1
	mv	a0,a5
	ld	ra,24(sp)
	.cfi_restore 1
	ld	s0,16(sp)
	.cfi_restore 8
	.cfi_def_cfa 2, 32
	addi	sp,sp,32
	.cfi_def_cfa_offset 0
	jr	ra
	.cfi_endproc
.LFE3:
	.size	LibPcdGet32, .-LibPcdGet32
	.section	.text.LibPcdGet64,"ax",@progbits
	.align	1
	.globl	LibPcdGet64
	.type	LibPcdGet64, @function
LibPcdGet64:
.LFB4:
	.loc 1 115 1
	.cfi_startproc
	addi	sp,sp,-32
	.cfi_def_cfa_offset 32
	sd	ra,24(sp)
	sd	s0,16(sp)
	.cfi_offset 1, -8
	.cfi_offset 8, -16
	addi	s0,sp,32
	.cfi_def_cfa 8, 0
	sd	a0,-24(s0)
	.loc 1 118 10
	li	a5,0
	.loc 1 119 1
	mv	a0,a5
	ld	ra,24(sp)
	.cfi_restore 1
	ld	s0,16(sp)
	.cfi_restore 8
	.cfi_def_cfa 2, 32
	addi	sp,sp,32
	.cfi_def_cfa_offset 0
	jr	ra
	.cfi_endproc
.LFE4:
	.size	LibPcdGet64, .-LibPcdGet64
	.section	.text.LibPcdGetPtr,"ax",@progbits
	.align	1
	.globl	LibPcdGetPtr
	.type	LibPcdGetPtr, @function
LibPcdGetPtr:
.LFB5:
	.loc 1 136 1
	.cfi_startproc
	addi	sp,sp,-32
	.cfi_def_cfa_offset 32
	sd	ra,24(sp)
	sd	s0,16(sp)
	.cfi_offset 1, -8
	.cfi_offset 8, -16
	addi	s0,sp,32
	.cfi_def_cfa 8, 0
	sd	a0,-24(s0)
	.loc 1 139 10
	li	a5,0
	.loc 1 140 1
	mv	a0,a5
	ld	ra,24(sp)
	.cfi_restore 1
	ld	s0,16(sp)
	.cfi_restore 8
	.cfi_def_cfa 2, 32
	addi	sp,sp,32
	.cfi_def_cfa_offset 0
	jr	ra
	.cfi_endproc
.LFE5:
	.size	LibPcdGetPtr, .-LibPcdGetPtr
	.section	.text.LibPcdGetBool,"ax",@progbits
	.align	1
	.globl	LibPcdGetBool
	.type	LibPcdGetBool, @function
LibPcdGetBool:
.LFB6:
	.loc 1 157 1
	.cfi_startproc
	addi	sp,sp,-32
	.cfi_def_cfa_offset 32
	sd	ra,24(sp)
	sd	s0,16(sp)
	.cfi_offset 1, -8
	.cfi_offset 8, -16
	addi	s0,sp,32
	.cfi_def_cfa 8, 0
	sd	a0,-24(s0)
	.loc 1 160 10
	li	a5,0
	.loc 1 161 1
	mv	a0,a5
	ld	ra,24(sp)
	.cfi_restore 1
	ld	s0,16(sp)
	.cfi_restore 8
	.cfi_def_cfa 2, 32
	addi	sp,sp,32
	.cfi_def_cfa_offset 0
	jr	ra
	.cfi_endproc
.LFE6:
	.size	LibPcdGetBool, .-LibPcdGetBool
	.section	.text.LibPcdGetSize,"ax",@progbits
	.align	1
	.globl	LibPcdGetSize
	.type	LibPcdGetSize, @function
LibPcdGetSize:
.LFB7:
	.loc 1 176 1
	.cfi_startproc
	addi	sp,sp,-32
	.cfi_def_cfa_offset 32
	sd	ra,24(sp)
	sd	s0,16(sp)
	.cfi_offset 1, -8
	.cfi_offset 8, -16
	addi	s0,sp,32
	.cfi_def_cfa 8, 0
	sd	a0,-24(s0)
	.loc 1 179 10
	li	a5,0
	.loc 1 180 1
	mv	a0,a5
	ld	ra,24(sp)
	.cfi_restore 1
	ld	s0,16(sp)
	.cfi_restore 8
	.cfi_def_cfa 2, 32
	addi	sp,sp,32
	.cfi_def_cfa_offset 0
	jr	ra
	.cfi_endproc
.LFE7:
	.size	LibPcdGetSize, .-LibPcdGetSize
	.section	.text.LibPcdGetEx8,"ax",@progbits
	.align	1
	.globl	LibPcdGetEx8
	.type	LibPcdGetEx8, @function
LibPcdGetEx8:
.LFB8:
	.loc 1 202 1
	.cfi_startproc
	addi	sp,sp,-32
	.cfi_def_cfa_offset 32
	sd	ra,24(sp)
	sd	s0,16(sp)
	.cfi_offset 1, -8
	.cfi_offset 8, -16
	addi	s0,sp,32
	.cfi_def_cfa 8, 0
	sd	a0,-24(s0)
	sd	a1,-32(s0)
	.loc 1 205 10
	li	a5,0
	.loc 1 206 1
	mv	a0,a5
	ld	ra,24(sp)
	.cfi_restore 1
	ld	s0,16(sp)
	.cfi_restore 8
	.cfi_def_cfa 2, 32
	addi	sp,sp,32
	.cfi_def_cfa_offset 0
	jr	ra
	.cfi_endproc
.LFE8:
	.size	LibPcdGetEx8, .-LibPcdGetEx8
	.section	.text.LibPcdGetEx16,"ax",@progbits
	.align	1
	.globl	LibPcdGetEx16
	.type	LibPcdGetEx16, @function
LibPcdGetEx16:
.LFB9:
	.loc 1 228 1
	.cfi_startproc
	addi	sp,sp,-32
	.cfi_def_cfa_offset 32
	sd	ra,24(sp)
	sd	s0,16(sp)
	.cfi_offset 1, -8
	.cfi_offset 8, -16
	addi	s0,sp,32
	.cfi_def_cfa 8, 0
	sd	a0,-24(s0)
	sd	a1,-32(s0)
	.loc 1 231 10
	li	a5,0
	.loc 1 232 1
	mv	a0,a5
	ld	ra,24(sp)
	.cfi_restore 1
	ld	s0,16(sp)
	.cfi_restore 8
	.cfi_def_cfa 2, 32
	addi	sp,sp,32
	.cfi_def_cfa_offset 0
	jr	ra
	.cfi_endproc
.LFE9:
	.size	LibPcdGetEx16, .-LibPcdGetEx16
	.section	.text.LibPcdGetEx32,"ax",@progbits
	.align	1
	.globl	LibPcdGetEx32
	.type	LibPcdGetEx32, @function
LibPcdGetEx32:
.LFB10:
	.loc 1 251 1
	.cfi_startproc
	addi	sp,sp,-32
	.cfi_def_cfa_offset 32
	sd	ra,24(sp)
	sd	s0,16(sp)
	.cfi_offset 1, -8
	.cfi_offset 8, -16
	addi	s0,sp,32
	.cfi_def_cfa 8, 0
	sd	a0,-24(s0)
	sd	a1,-32(s0)
	.loc 1 254 10
	li	a5,0
	.loc 1 255 1
	mv	a0,a5
	ld	ra,24(sp)
	.cfi_restore 1
	ld	s0,16(sp)
	.cfi_restore 8
	.cfi_def_cfa 2, 32
	addi	sp,sp,32
	.cfi_def_cfa_offset 0
	jr	ra
	.cfi_endproc
.LFE10:
	.size	LibPcdGetEx32, .-LibPcdGetEx32
	.section	.text.LibPcdGetEx64,"ax",@progbits
	.align	1
	.globl	LibPcdGetEx64
	.type	LibPcdGetEx64, @function
LibPcdGetEx64:
.LFB11:
	.loc 1 277 1
	.cfi_startproc
	addi	sp,sp,-32
	.cfi_def_cfa_offset 32
	sd	ra,24(sp)
	sd	s0,16(sp)
	.cfi_offset 1, -8
	.cfi_offset 8, -16
	addi	s0,sp,32
	.cfi_def_cfa 8, 0
	sd	a0,-24(s0)
	sd	a1,-32(s0)
	.loc 1 280 10
	li	a5,0
	.loc 1 281 1
	mv	a0,a5
	ld	ra,24(sp)
	.cfi_restore 1
	ld	s0,16(sp)
	.cfi_restore 8
	.cfi_def_cfa 2, 32
	addi	sp,sp,32
	.cfi_def_cfa_offset 0
	jr	ra
	.cfi_endproc
.LFE11:
	.size	LibPcdGetEx64, .-LibPcdGetEx64
	.section	.text.LibPcdGetExPtr,"ax",@progbits
	.align	1
	.globl	LibPcdGetExPtr
	.type	LibPcdGetExPtr, @function
LibPcdGetExPtr:
.LFB12:
	.loc 1 303 1
	.cfi_startproc
	addi	sp,sp,-32
	.cfi_def_cfa_offset 32
	sd	ra,24(sp)
	sd	s0,16(sp)
	.cfi_offset 1, -8
	.cfi_offset 8, -16
	addi	s0,sp,32
	.cfi_def_cfa 8, 0
	sd	a0,-24(s0)
	sd	a1,-32(s0)
	.loc 1 306 10
	li	a5,0
	.loc 1 307 1
	mv	a0,a5
	ld	ra,24(sp)
	.cfi_restore 1
	ld	s0,16(sp)
	.cfi_restore 8
	.cfi_def_cfa 2, 32
	addi	sp,sp,32
	.cfi_def_cfa_offset 0
	jr	ra
	.cfi_endproc
.LFE12:
	.size	LibPcdGetExPtr, .-LibPcdGetExPtr
	.section	.text.LibPcdGetExBool,"ax",@progbits
	.align	1
	.globl	LibPcdGetExBool
	.type	LibPcdGetExBool, @function
LibPcdGetExBool:
.LFB13:
	.loc 1 329 1
	.cfi_startproc
	addi	sp,sp,-32
	.cfi_def_cfa_offset 32
	sd	ra,24(sp)
	sd	s0,16(sp)
	.cfi_offset 1, -8
	.cfi_offset 8, -16
	addi	s0,sp,32
	.cfi_def_cfa 8, 0
	sd	a0,-24(s0)
	sd	a1,-32(s0)
	.loc 1 332 10
	li	a5,0
	.loc 1 333 1
	mv	a0,a5
	ld	ra,24(sp)
	.cfi_restore 1
	ld	s0,16(sp)
	.cfi_restore 8
	.cfi_def_cfa 2, 32
	addi	sp,sp,32
	.cfi_def_cfa_offset 0
	jr	ra
	.cfi_endproc
.LFE13:
	.size	LibPcdGetExBool, .-LibPcdGetExBool
	.section	.text.LibPcdGetExSize,"ax",@progbits
	.align	1
	.globl	LibPcdGetExSize
	.type	LibPcdGetExSize, @function
LibPcdGetExSize:
.LFB14:
	.loc 1 355 1
	.cfi_startproc
	addi	sp,sp,-32
	.cfi_def_cfa_offset 32
	sd	ra,24(sp)
	sd	s0,16(sp)
	.cfi_offset 1, -8
	.cfi_offset 8, -16
	addi	s0,sp,32
	.cfi_def_cfa 8, 0
	sd	a0,-24(s0)
	sd	a1,-32(s0)
	.loc 1 358 10
	li	a5,0
	.loc 1 359 1
	mv	a0,a5
	ld	ra,24(sp)
	.cfi_restore 1
	ld	s0,16(sp)
	.cfi_restore 8
	.cfi_def_cfa 2, 32
	addi	sp,sp,32
	.cfi_def_cfa_offset 0
	jr	ra
	.cfi_endproc
.LFE14:
	.size	LibPcdGetExSize, .-LibPcdGetExSize
	.section	.text.LibPcdSet8S,"ax",@progbits
	.align	1
	.globl	LibPcdSet8S
	.type	LibPcdSet8S, @function
LibPcdSet8S:
.LFB15:
	.loc 1 379 1
	.cfi_startproc
	addi	sp,sp,-32
	.cfi_def_cfa_offset 32
	sd	ra,24(sp)
	sd	s0,16(sp)
	.cfi_offset 1, -8
	.cfi_offset 8, -16
	addi	s0,sp,32
	.cfi_def_cfa 8, 0
	sd	a0,-24(s0)
	mv	a5,a1
	sb	a5,-25(s0)
	.loc 1 382 10
	li	a5,-1
	slli	a5,a5,63
	addi	a5,a5,2
	.loc 1 383 1
	mv	a0,a5
	ld	ra,24(sp)
	.cfi_restore 1
	ld	s0,16(sp)
	.cfi_restore 8
	.cfi_def_cfa 2, 32
	addi	sp,sp,32
	.cfi_def_cfa_offset 0
	jr	ra
	.cfi_endproc
.LFE15:
	.size	LibPcdSet8S, .-LibPcdSet8S
	.section	.text.LibPcdSet16S,"ax",@progbits
	.align	1
	.globl	LibPcdSet16S
	.type	LibPcdSet16S, @function
LibPcdSet16S:
.LFB16:
	.loc 1 403 1
	.cfi_startproc
	addi	sp,sp,-32
	.cfi_def_cfa_offset 32
	sd	ra,24(sp)
	sd	s0,16(sp)
	.cfi_offset 1, -8
	.cfi_offset 8, -16
	addi	s0,sp,32
	.cfi_def_cfa 8, 0
	sd	a0,-24(s0)
	mv	a5,a1
	sh	a5,-26(s0)
	.loc 1 406 10
	li	a5,-1
	slli	a5,a5,63
	addi	a5,a5,2
	.loc 1 407 1
	mv	a0,a5
	ld	ra,24(sp)
	.cfi_restore 1
	ld	s0,16(sp)
	.cfi_restore 8
	.cfi_def_cfa 2, 32
	addi	sp,sp,32
	.cfi_def_cfa_offset 0
	jr	ra
	.cfi_endproc
.LFE16:
	.size	LibPcdSet16S, .-LibPcdSet16S
	.section	.text.LibPcdSet32S,"ax",@progbits
	.align	1
	.globl	LibPcdSet32S
	.type	LibPcdSet32S, @function
LibPcdSet32S:
.LFB17:
	.loc 1 427 1
	.cfi_startproc
	addi	sp,sp,-32
	.cfi_def_cfa_offset 32
	sd	ra,24(sp)
	sd	s0,16(sp)
	.cfi_offset 1, -8
	.cfi_offset 8, -16
	addi	s0,sp,32
	.cfi_def_cfa 8, 0
	sd	a0,-24(s0)
	mv	a5,a1
	sw	a5,-28(s0)
	.loc 1 430 10
	li	a5,-1
	slli	a5,a5,63
	addi	a5,a5,2
	.loc 1 431 1
	mv	a0,a5
	ld	ra,24(sp)
	.cfi_restore 1
	ld	s0,16(sp)
	.cfi_restore 8
	.cfi_def_cfa 2, 32
	addi	sp,sp,32
	.cfi_def_cfa_offset 0
	jr	ra
	.cfi_endproc
.LFE17:
	.size	LibPcdSet32S, .-LibPcdSet32S
	.section	.text.LibPcdSet64S,"ax",@progbits
	.align	1
	.globl	LibPcdSet64S
	.type	LibPcdSet64S, @function
LibPcdSet64S:
.LFB18:
	.loc 1 451 1
	.cfi_startproc
	addi	sp,sp,-32
	.cfi_def_cfa_offset 32
	sd	ra,24(sp)
	sd	s0,16(sp)
	.cfi_offset 1, -8
	.cfi_offset 8, -16
	addi	s0,sp,32
	.cfi_def_cfa 8, 0
	sd	a0,-24(s0)
	sd	a1,-32(s0)
	.loc 1 454 10
	li	a5,-1
	slli	a5,a5,63
	addi	a5,a5,2
	.loc 1 455 1
	mv	a0,a5
	ld	ra,24(sp)
	.cfi_restore 1
	ld	s0,16(sp)
	.cfi_restore 8
	.cfi_def_cfa 2, 32
	addi	sp,sp,32
	.cfi_def_cfa_offset 0
	jr	ra
	.cfi_endproc
.LFE18:
	.size	LibPcdSet64S, .-LibPcdSet64S
	.section	.text.LibPcdSetPtrS,"ax",@progbits
	.align	1
	.globl	LibPcdSetPtrS
	.type	LibPcdSetPtrS, @function
LibPcdSetPtrS:
.LFB19:
	.loc 1 486 1
	.cfi_startproc
	addi	sp,sp,-48
	.cfi_def_cfa_offset 48
	sd	ra,40(sp)
	sd	s0,32(sp)
	.cfi_offset 1, -8
	.cfi_offset 8, -16
	addi	s0,sp,48
	.cfi_def_cfa 8, 0
	sd	a0,-24(s0)
	sd	a1,-32(s0)
	sd	a2,-40(s0)
	.loc 1 489 10
	li	a5,-1
	slli	a5,a5,63
	addi	a5,a5,2
	.loc 1 490 1
	mv	a0,a5
	ld	ra,40(sp)
	.cfi_restore 1
	ld	s0,32(sp)
	.cfi_restore 8
	.cfi_def_cfa 2, 48
	addi	sp,sp,48
	.cfi_def_cfa_offset 0
	jr	ra
	.cfi_endproc
.LFE19:
	.size	LibPcdSetPtrS, .-LibPcdSetPtrS
	.section	.text.LibPcdSetBoolS,"ax",@progbits
	.align	1
	.globl	LibPcdSetBoolS
	.type	LibPcdSetBoolS, @function
LibPcdSetBoolS:
.LFB20:
	.loc 1 510 1
	.cfi_startproc
	addi	sp,sp,-32
	.cfi_def_cfa_offset 32
	sd	ra,24(sp)
	sd	s0,16(sp)
	.cfi_offset 1, -8
	.cfi_offset 8, -16
	addi	s0,sp,32
	.cfi_def_cfa 8, 0
	sd	a0,-24(s0)
	mv	a5,a1
	sb	a5,-25(s0)
	.loc 1 513 10
	li	a5,-1
	slli	a5,a5,63
	addi	a5,a5,2
	.loc 1 514 1
	mv	a0,a5
	ld	ra,24(sp)
	.cfi_restore 1
	ld	s0,16(sp)
	.cfi_restore 8
	.cfi_def_cfa 2, 32
	addi	sp,sp,32
	.cfi_def_cfa_offset 0
	jr	ra
	.cfi_endproc
.LFE20:
	.size	LibPcdSetBoolS, .-LibPcdSetBoolS
	.section	.text.LibPcdSetEx8S,"ax",@progbits
	.align	1
	.globl	LibPcdSetEx8S
	.type	LibPcdSetEx8S, @function
LibPcdSetEx8S:
.LFB21:
	.loc 1 539 1
	.cfi_startproc
	addi	sp,sp,-48
	.cfi_def_cfa_offset 48
	sd	ra,40(sp)
	sd	s0,32(sp)
	.cfi_offset 1, -8
	.cfi_offset 8, -16
	addi	s0,sp,48
	.cfi_def_cfa 8, 0
	sd	a0,-24(s0)
	sd	a1,-32(s0)
	mv	a5,a2
	sb	a5,-33(s0)
	.loc 1 542 10
	li	a5,-1
	slli	a5,a5,63
	addi	a5,a5,2
	.loc 1 543 1
	mv	a0,a5
	ld	ra,40(sp)
	.cfi_restore 1
	ld	s0,32(sp)
	.cfi_restore 8
	.cfi_def_cfa 2, 48
	addi	sp,sp,48
	.cfi_def_cfa_offset 0
	jr	ra
	.cfi_endproc
.LFE21:
	.size	LibPcdSetEx8S, .-LibPcdSetEx8S
	.section	.text.LibPcdSetEx16S,"ax",@progbits
	.align	1
	.globl	LibPcdSetEx16S
	.type	LibPcdSetEx16S, @function
LibPcdSetEx16S:
.LFB22:
	.loc 1 568 1
	.cfi_startproc
	addi	sp,sp,-48
	.cfi_def_cfa_offset 48
	sd	ra,40(sp)
	sd	s0,32(sp)
	.cfi_offset 1, -8
	.cfi_offset 8, -16
	addi	s0,sp,48
	.cfi_def_cfa 8, 0
	sd	a0,-24(s0)
	sd	a1,-32(s0)
	mv	a5,a2
	sh	a5,-34(s0)
	.loc 1 571 10
	li	a5,-1
	slli	a5,a5,63
	addi	a5,a5,2
	.loc 1 572 1
	mv	a0,a5
	ld	ra,40(sp)
	.cfi_restore 1
	ld	s0,32(sp)
	.cfi_restore 8
	.cfi_def_cfa 2, 48
	addi	sp,sp,48
	.cfi_def_cfa_offset 0
	jr	ra
	.cfi_endproc
.LFE22:
	.size	LibPcdSetEx16S, .-LibPcdSetEx16S
	.section	.text.LibPcdSetEx32S,"ax",@progbits
	.align	1
	.globl	LibPcdSetEx32S
	.type	LibPcdSetEx32S, @function
LibPcdSetEx32S:
.LFB23:
	.loc 1 597 1
	.cfi_startproc
	addi	sp,sp,-48
	.cfi_def_cfa_offset 48
	sd	ra,40(sp)
	sd	s0,32(sp)
	.cfi_offset 1, -8
	.cfi_offset 8, -16
	addi	s0,sp,48
	.cfi_def_cfa 8, 0
	sd	a0,-24(s0)
	sd	a1,-32(s0)
	mv	a5,a2
	sw	a5,-36(s0)
	.loc 1 600 10
	li	a5,-1
	slli	a5,a5,63
	addi	a5,a5,2
	.loc 1 601 1
	mv	a0,a5
	ld	ra,40(sp)
	.cfi_restore 1
	ld	s0,32(sp)
	.cfi_restore 8
	.cfi_def_cfa 2, 48
	addi	sp,sp,48
	.cfi_def_cfa_offset 0
	jr	ra
	.cfi_endproc
.LFE23:
	.size	LibPcdSetEx32S, .-LibPcdSetEx32S
	.section	.text.LibPcdSetEx64S,"ax",@progbits
	.align	1
	.globl	LibPcdSetEx64S
	.type	LibPcdSetEx64S, @function
LibPcdSetEx64S:
.LFB24:
	.loc 1 626 1
	.cfi_startproc
	addi	sp,sp,-48
	.cfi_def_cfa_offset 48
	sd	ra,40(sp)
	sd	s0,32(sp)
	.cfi_offset 1, -8
	.cfi_offset 8, -16
	addi	s0,sp,48
	.cfi_def_cfa 8, 0
	sd	a0,-24(s0)
	sd	a1,-32(s0)
	sd	a2,-40(s0)
	.loc 1 629 10
	li	a5,-1
	slli	a5,a5,63
	addi	a5,a5,2
	.loc 1 630 1
	mv	a0,a5
	ld	ra,40(sp)
	.cfi_restore 1
	ld	s0,32(sp)
	.cfi_restore 8
	.cfi_def_cfa 2, 48
	addi	sp,sp,48
	.cfi_def_cfa_offset 0
	jr	ra
	.cfi_endproc
.LFE24:
	.size	LibPcdSetEx64S, .-LibPcdSetEx64S
	.section	.text.LibPcdSetExPtrS,"ax",@progbits
	.align	1
	.globl	LibPcdSetExPtrS
	.type	LibPcdSetExPtrS, @function
LibPcdSetExPtrS:
.LFB25:
	.loc 1 662 1
	.cfi_startproc
	addi	sp,sp,-48
	.cfi_def_cfa_offset 48
	sd	ra,40(sp)
	sd	s0,32(sp)
	.cfi_offset 1, -8
	.cfi_offset 8, -16
	addi	s0,sp,48
	.cfi_def_cfa 8, 0
	sd	a0,-24(s0)
	sd	a1,-32(s0)
	sd	a2,-40(s0)
	sd	a3,-48(s0)
	.loc 1 665 10
	li	a5,-1
	slli	a5,a5,63
	addi	a5,a5,2
	.loc 1 666 1
	mv	a0,a5
	ld	ra,40(sp)
	.cfi_restore 1
	ld	s0,32(sp)
	.cfi_restore 8
	.cfi_def_cfa 2, 48
	addi	sp,sp,48
	.cfi_def_cfa_offset 0
	jr	ra
	.cfi_endproc
.LFE25:
	.size	LibPcdSetExPtrS, .-LibPcdSetExPtrS
	.section	.text.LibPcdSetExBoolS,"ax",@progbits
	.align	1
	.globl	LibPcdSetExBoolS
	.type	LibPcdSetExBoolS, @function
LibPcdSetExBoolS:
.LFB26:
	.loc 1 691 1
	.cfi_startproc
	addi	sp,sp,-48
	.cfi_def_cfa_offset 48
	sd	ra,40(sp)
	sd	s0,32(sp)
	.cfi_offset 1, -8
	.cfi_offset 8, -16
	addi	s0,sp,48
	.cfi_def_cfa 8, 0
	sd	a0,-24(s0)
	sd	a1,-32(s0)
	mv	a5,a2
	sb	a5,-33(s0)
	.loc 1 694 10
	li	a5,-1
	slli	a5,a5,63
	addi	a5,a5,2
	.loc 1 695 1
	mv	a0,a5
	ld	ra,40(sp)
	.cfi_restore 1
	ld	s0,32(sp)
	.cfi_restore 8
	.cfi_def_cfa 2, 48
	addi	sp,sp,48
	.cfi_def_cfa_offset 0
	jr	ra
	.cfi_endproc
.LFE26:
	.size	LibPcdSetExBoolS, .-LibPcdSetExBoolS
	.section	.text.LibPcdCallbackOnSet,"ax",@progbits
	.align	1
	.globl	LibPcdCallbackOnSet
	.type	LibPcdCallbackOnSet, @function
LibPcdCallbackOnSet:
.LFB27:
	.loc 1 721 1
	.cfi_startproc
	addi	sp,sp,-48
	.cfi_def_cfa_offset 48
	sd	ra,40(sp)
	sd	s0,32(sp)
	.cfi_offset 1, -8
	.cfi_offset 8, -16
	addi	s0,sp,48
	.cfi_def_cfa 8, 0
	sd	a0,-24(s0)
	sd	a1,-32(s0)
	sd	a2,-40(s0)
	.loc 1 723 1
	nop
	ld	ra,40(sp)
	.cfi_restore 1
	ld	s0,32(sp)
	.cfi_restore 8
	.cfi_def_cfa 2, 48
	addi	sp,sp,48
	.cfi_def_cfa_offset 0
	jr	ra
	.cfi_endproc
.LFE27:
	.size	LibPcdCallbackOnSet, .-LibPcdCallbackOnSet
	.section	.text.LibPcdCancelCallback,"ax",@progbits
	.align	1
	.globl	LibPcdCancelCallback
	.type	LibPcdCancelCallback, @function
LibPcdCancelCallback:
.LFB28:
	.loc 1 746 1
	.cfi_startproc
	addi	sp,sp,-48
	.cfi_def_cfa_offset 48
	sd	ra,40(sp)
	sd	s0,32(sp)
	.cfi_offset 1, -8
	.cfi_offset 8, -16
	addi	s0,sp,48
	.cfi_def_cfa 8, 0
	sd	a0,-24(s0)
	sd	a1,-32(s0)
	sd	a2,-40(s0)
	.loc 1 748 1
	nop
	ld	ra,40(sp)
	.cfi_restore 1
	ld	s0,32(sp)
	.cfi_restore 8
	.cfi_def_cfa 2, 48
	addi	sp,sp,48
	.cfi_def_cfa_offset 0
	jr	ra
	.cfi_endproc
.LFE28:
	.size	LibPcdCancelCallback, .-LibPcdCancelCallback
	.section	.text.LibPcdGetNextToken,"ax",@progbits
	.align	1
	.globl	LibPcdGetNextToken
	.type	LibPcdGetNextToken, @function
LibPcdGetNextToken:
.LFB29:
	.loc 1 775 1
	.cfi_startproc
	addi	sp,sp,-32
	.cfi_def_cfa_offset 32
	sd	ra,24(sp)
	sd	s0,16(sp)
	.cfi_offset 1, -8
	.cfi_offset 8, -16
	addi	s0,sp,32
	.cfi_def_cfa 8, 0
	sd	a0,-24(s0)
	sd	a1,-32(s0)
	.loc 1 778 10
	li	a5,0
	.loc 1 779 1
	mv	a0,a5
	ld	ra,24(sp)
	.cfi_restore 1
	ld	s0,16(sp)
	.cfi_restore 8
	.cfi_def_cfa 2, 32
	addi	sp,sp,32
	.cfi_def_cfa_offset 0
	jr	ra
	.cfi_endproc
.LFE29:
	.size	LibPcdGetNextToken, .-LibPcdGetNextToken
	.section	.text.LibPcdGetNextTokenSpace,"ax",@progbits
	.align	1
	.globl	LibPcdGetNextTokenSpace
	.type	LibPcdGetNextTokenSpace, @function
LibPcdGetNextTokenSpace:
.LFB30:
	.loc 1 799 1
	.cfi_startproc
	addi	sp,sp,-32
	.cfi_def_cfa_offset 32
	sd	ra,24(sp)
	sd	s0,16(sp)
	.cfi_offset 1, -8
	.cfi_offset 8, -16
	addi	s0,sp,32
	.cfi_def_cfa 8, 0
	sd	a0,-24(s0)
	.loc 1 802 10
	li	a5,0
	.loc 1 803 1
	mv	a0,a5
	ld	ra,24(sp)
	.cfi_restore 1
	ld	s0,16(sp)
	.cfi_restore 8
	.cfi_def_cfa 2, 32
	addi	sp,sp,32
	.cfi_def_cfa_offset 0
	jr	ra
	.cfi_endproc
.LFE30:
	.size	LibPcdGetNextTokenSpace, .-LibPcdGetNextTokenSpace
	.section	.text.LibPatchPcdSetPtr,"ax",@progbits
	.align	1
	.globl	LibPatchPcdSetPtr
	.type	LibPatchPcdSetPtr, @function
LibPatchPcdSetPtr:
.LFB31:
	.loc 1 836 1
	.cfi_startproc
	addi	sp,sp,-48
	.cfi_def_cfa_offset 48
	sd	ra,40(sp)
	sd	s0,32(sp)
	.cfi_offset 1, -8
	.cfi_offset 8, -16
	addi	s0,sp,48
	.cfi_def_cfa 8, 0
	sd	a0,-24(s0)
	sd	a1,-32(s0)
	sd	a2,-40(s0)
	sd	a3,-48(s0)
	.loc 1 844 8
	ld	a5,-40(s0)
	ld	a5,0(a5)
	.loc 1 844 6
	ld	a4,-32(s0)
	bltu	a4,a5,.L62
	.loc 1 845 8
	ld	a5,-40(s0)
	ld	a4,0(a5)
	.loc 1 844 42 discriminator 1
	li	a5,-1
	bne	a4,a5,.L63
.L62:
	.loc 1 847 19
	ld	a5,-40(s0)
	ld	a4,-32(s0)
	sd	a4,0(a5)
	.loc 1 848 12
	li	a5,0
	j	.L64
.L63:
	.loc 1 851 3
	ld	a5,-40(s0)
	ld	a5,0(a5)
	mv	a2,a5
	ld	a1,-48(s0)
	ld	a0,-24(s0)
	call	CopyMem@plt
	.loc 1 853 10
	ld	a5,-48(s0)
.L64:
	.loc 1 854 1
	mv	a0,a5
	ld	ra,40(sp)
	.cfi_restore 1
	ld	s0,32(sp)
	.cfi_restore 8
	.cfi_def_cfa 2, 48
	addi	sp,sp,48
	.cfi_def_cfa_offset 0
	jr	ra
	.cfi_endproc
.LFE31:
	.size	LibPatchPcdSetPtr, .-LibPatchPcdSetPtr
	.section	.text.LibPatchPcdSetPtrS,"ax",@progbits
	.align	1
	.globl	LibPatchPcdSetPtrS
	.type	LibPatchPcdSetPtrS, @function
LibPatchPcdSetPtrS:
.LFB32:
	.loc 1 887 1
	.cfi_startproc
	addi	sp,sp,-48
	.cfi_def_cfa_offset 48
	sd	ra,40(sp)
	sd	s0,32(sp)
	.cfi_offset 1, -8
	.cfi_offset 8, -16
	addi	s0,sp,48
	.cfi_def_cfa 8, 0
	sd	a0,-24(s0)
	sd	a1,-32(s0)
	sd	a2,-40(s0)
	sd	a3,-48(s0)
	.loc 1 895 8
	ld	a5,-40(s0)
	ld	a5,0(a5)
	.loc 1 895 6
	ld	a4,-32(s0)
	bltu	a4,a5,.L66
	.loc 1 896 8
	ld	a5,-40(s0)
	ld	a4,0(a5)
	.loc 1 895 42 discriminator 1
	li	a5,-1
	bne	a4,a5,.L67
.L66:
	.loc 1 898 19
	ld	a5,-40(s0)
	ld	a4,-32(s0)
	sd	a4,0(a5)
	.loc 1 899 12
	li	a5,-1
	slli	a5,a5,63
	addi	a5,a5,2
	j	.L68
.L67:
	.loc 1 902 3
	ld	a5,-40(s0)
	ld	a5,0(a5)
	mv	a2,a5
	ld	a1,-48(s0)
	ld	a0,-24(s0)
	call	CopyMem@plt
	.loc 1 904 10
	li	a5,0
.L68:
	.loc 1 905 1
	mv	a0,a5
	ld	ra,40(sp)
	.cfi_restore 1
	ld	s0,32(sp)
	.cfi_restore 8
	.cfi_def_cfa 2, 48
	addi	sp,sp,48
	.cfi_def_cfa_offset 0
	jr	ra
	.cfi_endproc
.LFE32:
	.size	LibPatchPcdSetPtrS, .-LibPatchPcdSetPtrS
	.section	.text.LibPatchPcdSetPtrAndSize,"ax",@progbits
	.align	1
	.globl	LibPatchPcdSetPtrAndSize
	.type	LibPatchPcdSetPtrAndSize, @function
LibPatchPcdSetPtrAndSize:
.LFB33:
	.loc 1 941 1
	.cfi_startproc
	addi	sp,sp,-64
	.cfi_def_cfa_offset 64
	sd	ra,56(sp)
	sd	s0,48(sp)
	.cfi_offset 1, -8
	.cfi_offset 8, -16
	addi	s0,sp,64
	.cfi_def_cfa 8, 0
	sd	a0,-24(s0)
	sd	a1,-32(s0)
	sd	a2,-40(s0)
	sd	a3,-48(s0)
	sd	a4,-56(s0)
	.loc 1 950 8
	ld	a5,-48(s0)
	ld	a5,0(a5)
	.loc 1 950 6
	ld	a4,-40(s0)
	bltu	a4,a5,.L70
	.loc 1 951 8
	ld	a5,-48(s0)
	ld	a4,0(a5)
	.loc 1 950 42 discriminator 1
	li	a5,-1
	bne	a4,a5,.L71
.L70:
	.loc 1 953 19
	ld	a5,-48(s0)
	ld	a4,-40(s0)
	sd	a4,0(a5)
	.loc 1 954 12
	li	a5,0
	j	.L72
.L71:
	.loc 1 957 3
	ld	a5,-48(s0)
	ld	a5,0(a5)
	mv	a2,a5
	ld	a1,-56(s0)
	ld	a0,-24(s0)
	call	CopyMem@plt
	.loc 1 958 26
	ld	a5,-48(s0)
	ld	a4,0(a5)
	.loc 1 958 24
	ld	a5,-32(s0)
	sd	a4,0(a5)
	.loc 1 960 10
	ld	a5,-56(s0)
.L72:
	.loc 1 961 1
	mv	a0,a5
	ld	ra,56(sp)
	.cfi_restore 1
	ld	s0,48(sp)
	.cfi_restore 8
	.cfi_def_cfa 2, 64
	addi	sp,sp,64
	.cfi_def_cfa_offset 0
	jr	ra
	.cfi_endproc
.LFE33:
	.size	LibPatchPcdSetPtrAndSize, .-LibPatchPcdSetPtrAndSize
	.section	.text.LibPatchPcdSetPtrAndSizeS,"ax",@progbits
	.align	1
	.globl	LibPatchPcdSetPtrAndSizeS
	.type	LibPatchPcdSetPtrAndSizeS, @function
LibPatchPcdSetPtrAndSizeS:
.LFB34:
	.loc 1 997 1
	.cfi_startproc
	addi	sp,sp,-64
	.cfi_def_cfa_offset 64
	sd	ra,56(sp)
	sd	s0,48(sp)
	.cfi_offset 1, -8
	.cfi_offset 8, -16
	addi	s0,sp,64
	.cfi_def_cfa 8, 0
	sd	a0,-24(s0)
	sd	a1,-32(s0)
	sd	a2,-40(s0)
	sd	a3,-48(s0)
	sd	a4,-56(s0)
	.loc 1 1006 8
	ld	a5,-48(s0)
	ld	a5,0(a5)
	.loc 1 1006 6
	ld	a4,-40(s0)
	bltu	a4,a5,.L74
	.loc 1 1007 8
	ld	a5,-48(s0)
	ld	a4,0(a5)
	.loc 1 1006 42 discriminator 1
	li	a5,-1
	bne	a4,a5,.L75
.L74:
	.loc 1 1009 19
	ld	a5,-48(s0)
	ld	a4,-40(s0)
	sd	a4,0(a5)
	.loc 1 1010 12
	li	a5,-1
	slli	a5,a5,63
	addi	a5,a5,2
	j	.L76
.L75:
	.loc 1 1013 3
	ld	a5,-48(s0)
	ld	a5,0(a5)
	mv	a2,a5
	ld	a1,-56(s0)
	ld	a0,-24(s0)
	call	CopyMem@plt
	.loc 1 1014 26
	ld	a5,-48(s0)
	ld	a4,0(a5)
	.loc 1 1014 24
	ld	a5,-32(s0)
	sd	a4,0(a5)
	.loc 1 1016 10
	li	a5,0
.L76:
	.loc 1 1017 1
	mv	a0,a5
	ld	ra,56(sp)
	.cfi_restore 1
	ld	s0,48(sp)
	.cfi_restore 8
	.cfi_def_cfa 2, 64
	addi	sp,sp,64
	.cfi_def_cfa_offset 0
	jr	ra
	.cfi_endproc
.LFE34:
	.size	LibPatchPcdSetPtrAndSizeS, .-LibPatchPcdSetPtrAndSizeS
	.section	.text.LibPcdGetInfo,"ax",@progbits
	.align	1
	.globl	LibPcdGetInfo
	.type	LibPcdGetInfo, @function
LibPcdGetInfo:
.LFB35:
	.loc 1 1037 1
	.cfi_startproc
	addi	sp,sp,-32
	.cfi_def_cfa_offset 32
	sd	ra,24(sp)
	sd	s0,16(sp)
	.cfi_offset 1, -8
	.cfi_offset 8, -16
	addi	s0,sp,32
	.cfi_def_cfa 8, 0
	sd	a0,-24(s0)
	sd	a1,-32(s0)
	.loc 1 1039 1
	nop
	ld	ra,24(sp)
	.cfi_restore 1
	ld	s0,16(sp)
	.cfi_restore 8
	.cfi_def_cfa 2, 32
	addi	sp,sp,32
	.cfi_def_cfa_offset 0
	jr	ra
	.cfi_endproc
.LFE35:
	.size	LibPcdGetInfo, .-LibPcdGetInfo
	.section	.text.LibPcdGetInfoEx,"ax",@progbits
	.align	1
	.globl	LibPcdGetInfoEx
	.type	LibPcdGetInfoEx, @function
LibPcdGetInfoEx:
.LFB36:
	.loc 1 1061 1
	.cfi_startproc
	addi	sp,sp,-48
	.cfi_def_cfa_offset 48
	sd	ra,40(sp)
	sd	s0,32(sp)
	.cfi_offset 1, -8
	.cfi_offset 8, -16
	addi	s0,sp,48
	.cfi_def_cfa 8, 0
	sd	a0,-24(s0)
	sd	a1,-32(s0)
	sd	a2,-40(s0)
	.loc 1 1063 1
	nop
	ld	ra,40(sp)
	.cfi_restore 1
	ld	s0,32(sp)
	.cfi_restore 8
	.cfi_def_cfa 2, 48
	addi	sp,sp,48
	.cfi_def_cfa_offset 0
	jr	ra
	.cfi_endproc
.LFE36:
	.size	LibPcdGetInfoEx, .-LibPcdGetInfoEx
	.section	.text.LibPcdGetSku,"ax",@progbits
	.align	1
	.globl	LibPcdGetSku
	.type	LibPcdGetSku, @function
LibPcdGetSku:
.LFB37:
	.loc 1 1077 1
	.cfi_startproc
	addi	sp,sp,-16
	.cfi_def_cfa_offset 16
	sd	ra,8(sp)
	sd	s0,0(sp)
	.cfi_offset 1, -8
	.cfi_offset 8, -16
	addi	s0,sp,16
	.cfi_def_cfa 8, 0
	.loc 1 1080 10
	li	a5,0
	.loc 1 1081 1
	mv	a0,a5
	ld	ra,8(sp)
	.cfi_restore 1
	ld	s0,0(sp)
	.cfi_restore 8
	.cfi_def_cfa 2, 16
	addi	sp,sp,16
	.cfi_def_cfa_offset 0
	jr	ra
	.cfi_endproc
.LFE37:
	.size	LibPcdGetSku, .-LibPcdGetSku
	.text
.Letext0:
	.file 2 "/home/kapoagaeming/Downloads/spacemit-image-builder/components/edk2/MdePkg/Include/RiscV64/ProcessorBind.h"
	.file 3 "/home/kapoagaeming/Downloads/spacemit-image-builder/components/edk2/MdePkg/Include/Base.h"
	.file 4 "/home/kapoagaeming/Downloads/spacemit-image-builder/components/edk2/MdePkg/Include/Library/PcdLib.h"
	.file 5 "/home/kapoagaeming/Downloads/spacemit-image-builder/components/edk2/MdePkg/Include/Library/BaseMemoryLib.h"
	.section	.note.GNU-stack,"",@progbits
