	.file	"UnicodeCollationEng.c"
	.option pic
	.option norelax
	.attribute arch, "rv64i2p1_m2p0_a2p1_f2p2_d2p2_c2p0_zicsr2p0_zifencei2p0_zmmul1p0_zaamo1p0_zalrsc1p0_zca1p0_zcd1p0"
	.attribute unaligned_access, 0
	.attribute stack_align, 16
	.text
.Ltext0:
	.cfi_sections	.debug_frame
	.file 0 "/home/kapoagaeming/spacemit-image-builder/components/Build/Milk-V-Jupiter/RELEASE_GCC5/RISCV64/MdeModulePkg/Universal/Disk/UnicodeCollation/EnglishDxe/EnglishDxe" "/home/kapoagaeming/spacemit-image-builder/components/edk2/MdeModulePkg/Universal/Disk/UnicodeCollation/EnglishDxe/UnicodeCollationEng.c"
	.globl	mEngUpperMap
	.section	.bss.mEngUpperMap,"aw",@nobits
	.align	3
	.type	mEngUpperMap, @object
	.size	mEngUpperMap, 256
mEngUpperMap:
	.zero	256
	.globl	mEngLowerMap
	.section	.bss.mEngLowerMap,"aw",@nobits
	.align	3
	.type	mEngLowerMap, @object
	.size	mEngLowerMap, 256
mEngLowerMap:
	.zero	256
	.globl	mEngInfoMap
	.section	.bss.mEngInfoMap,"aw",@nobits
	.align	3
	.type	mEngInfoMap, @object
	.size	mEngInfoMap, 256
mEngInfoMap:
	.zero	256
	.globl	mOtherChars
	.section	.data.mOtherChars,"aw"
	.align	3
	.type	mOtherChars, @object
	.size	mOtherChars, 29
mOtherChars:
	.string	"0123456789\\._^$~!#%&-{}()@`'"
	.globl	mHandle
	.section	.bss.mHandle,"aw",@nobits
	.align	3
	.type	mHandle, @object
	.size	mHandle, 8
mHandle:
	.zero	8
	.globl	UnicodeEng
	.section	.rodata
	.align	3
.LC0:
	.string	"eng"
	.section	.data.rel.local.UnicodeEng,"aw"
	.align	3
	.type	UnicodeEng, @object
	.size	UnicodeEng, 56
UnicodeEng:
	.dword	EngStriColl
	.dword	EngMetaiMatch
	.dword	EngStrLwr
	.dword	EngStrUpr
	.dword	EngFatToStr
	.dword	EngStrToFat
	.dword	.LC0
	.globl	Unicode2Eng
	.section	.rodata
	.align	3
.LC1:
	.string	"en"
	.section	.data.rel.local.Unicode2Eng,"aw"
	.align	3
	.type	Unicode2Eng, @object
	.size	Unicode2Eng, 56
Unicode2Eng:
	.dword	EngStriColl
	.dword	EngMetaiMatch
	.dword	EngStrLwr
	.dword	EngStrUpr
	.dword	EngFatToStr
	.dword	EngStrToFat
	.dword	.LC1
	.section	.text.InitializeUnicodeCollationEng,"ax",@progbits
	.align	1
	.globl	InitializeUnicodeCollationEng
	.type	InitializeUnicodeCollationEng, @function
InitializeUnicodeCollationEng:
.LFB0:
	.file 1 "/home/kapoagaeming/spacemit-image-builder/components/edk2/MdeModulePkg/Universal/Disk/UnicodeCollation/EnglishDxe/UnicodeCollationEng.c"
	.loc 1 94 1
	.cfi_startproc
	addi	sp,sp,-64
	.cfi_def_cfa_offset 64
	sd	ra,56(sp)
	sd	s0,48(sp)
	.cfi_offset 1, -8
	.cfi_offset 8, -16
	addi	s0,sp,64
	.cfi_def_cfa 8, 0
	sd	a0,-56(s0)
	sd	a1,-64(s0)
	.loc 1 102 14
	sd	zero,-32(s0)
	.loc 1 102 3
	j	.L2
.L7:
	.loc 1 103 27
	ld	a5,-32(s0)
	andi	a4,a5,0xff
	.loc 1 103 25
	lla	a3,mEngUpperMap
	ld	a5,-32(s0)
	add	a5,a3,a5
	sb	a4,0(a5)
	.loc 1 104 27
	ld	a5,-32(s0)
	andi	a4,a5,0xff
	.loc 1 104 25
	lla	a3,mEngLowerMap
	ld	a5,-32(s0)
	add	a5,a3,a5
	sb	a4,0(a5)
	.loc 1 105 24
	lla	a4,mEngInfoMap
	ld	a5,-32(s0)
	add	a5,a4,a5
	sb	zero,0(a5)
	.loc 1 107 8
	ld	a4,-32(s0)
	li	a5,96
	bleu	a4,a5,.L3
	.loc 1 107 25 discriminator 1
	ld	a4,-32(s0)
	li	a5,122
	bleu	a4,a5,.L4
.L3:
	.loc 1 107 44 discriminator 3
	ld	a4,-32(s0)
	li	a5,223
	bleu	a4,a5,.L5
	.loc 1 107 64 discriminator 4
	ld	a4,-32(s0)
	li	a5,246
	bleu	a4,a5,.L4
.L5:
	.loc 1 107 84 discriminator 6
	ld	a4,-32(s0)
	li	a5,247
	bleu	a4,a5,.L6
	.loc 1 107 104 discriminator 7
	ld	a4,-32(s0)
	li	a5,254
	bgtu	a4,a5,.L6
.L4:
	.loc 1 108 14
	ld	a5,-32(s0)
	addi	a5,a5,-32
	sd	a5,-40(s0)
	.loc 1 109 29
	ld	a5,-40(s0)
	andi	a4,a5,0xff
	.loc 1 109 27
	lla	a3,mEngUpperMap
	ld	a5,-32(s0)
	add	a5,a3,a5
	sb	a4,0(a5)
	.loc 1 110 30
	ld	a5,-32(s0)
	andi	a4,a5,0xff
	.loc 1 110 28
	lla	a3,mEngLowerMap
	ld	a5,-40(s0)
	add	a5,a3,a5
	sb	a4,0(a5)
	.loc 1 112 18
	lla	a4,mEngInfoMap
	ld	a5,-32(s0)
	add	a5,a4,a5
	lbu	a5,0(a5)
	.loc 1 112 26
	ori	a5,a5,1
	andi	a4,a5,0xff
	lla	a3,mEngInfoMap
	ld	a5,-32(s0)
	add	a5,a3,a5
	sb	a4,0(a5)
	.loc 1 113 18
	lla	a4,mEngInfoMap
	ld	a5,-40(s0)
	add	a5,a4,a5
	lbu	a5,0(a5)
	.loc 1 113 27
	ori	a5,a5,1
	andi	a4,a5,0xff
	lla	a3,mEngInfoMap
	ld	a5,-40(s0)
	add	a5,a3,a5
	sb	a4,0(a5)
.L6:
	.loc 1 102 39 discriminator 2
	ld	a5,-32(s0)
	addi	a5,a5,1
	sd	a5,-32(s0)
.L2:
	.loc 1 102 25 discriminator 1
	ld	a4,-32(s0)
	li	a5,255
	bleu	a4,a5,.L7
	.loc 1 117 14
	sd	zero,-32(s0)
	.loc 1 117 3
	j	.L8
.L9:
	.loc 1 118 25
	lla	a4,mOtherChars
	ld	a5,-32(s0)
	add	a5,a4,a5
	lbu	a5,0(a5)
	.loc 1 118 12
	sd	a5,-40(s0)
	.loc 1 119 16
	lla	a4,mEngInfoMap
	ld	a5,-40(s0)
	add	a5,a4,a5
	lbu	a5,0(a5)
	.loc 1 119 25
	ori	a5,a5,1
	andi	a4,a5,0xff
	lla	a3,mEngInfoMap
	ld	a5,-40(s0)
	add	a5,a3,a5
	sb	a4,0(a5)
	.loc 1 117 49 discriminator 3
	ld	a5,-32(s0)
	addi	a5,a5,1
	sd	a5,-32(s0)
.L8:
	.loc 1 117 30 discriminator 1
	lla	a4,mOtherChars
	ld	a5,-32(s0)
	add	a5,a4,a5
	lbu	a5,0(a5)
	.loc 1 117 38 discriminator 1
	bne	a5,zero,.L9
	.loc 1 122 7
	la	a5,_gPcd_FixedAtBuild_PcdUnicodeCollation2Support
	lbu	a5,0(a5)
	.loc 1 122 6
	beq	a5,zero,.L10
	.loc 1 123 9
	la	a5,_gPcd_FixedAtBuild_PcdUnicodeCollationSupport
	lbu	a5,0(a5)
	.loc 1 123 8
	beq	a5,zero,.L11
	.loc 1 124 19
	la	a5,gBS
	ld	a5,0(a5)
	ld	a6,328(a5)
	.loc 1 124 16
	li	a5,0
	lla	a4,Unicode2Eng
	la	a3,gEfiUnicodeCollation2ProtocolGuid
	lla	a2,UnicodeEng
	la	a1,gEfiUnicodeCollationProtocolGuid
	lla	a0,mHandle
	jalr	a6
.LVL0:
	sd	a0,-24(s0)
	j	.L12
.L11:
	.loc 1 134 19
	la	a5,gBS
	ld	a5,0(a5)
	ld	a5,328(a5)
	.loc 1 134 16
	li	a3,0
	lla	a2,Unicode2Eng
	la	a1,gEfiUnicodeCollation2ProtocolGuid
	lla	a0,mHandle
	jalr	a5
.LVL1:
	sd	a0,-24(s0)
	j	.L12
.L10:
	.loc 1 143 9
	la	a5,_gPcd_FixedAtBuild_PcdUnicodeCollationSupport
	lbu	a5,0(a5)
	.loc 1 143 8
	beq	a5,zero,.L13
	.loc 1 144 19
	la	a5,gBS
	ld	a5,0(a5)
	ld	a5,328(a5)
	.loc 1 144 16
	li	a3,0
	lla	a2,UnicodeEng
	la	a1,gEfiUnicodeCollationProtocolGuid
	lla	a0,mHandle
	jalr	a5
.LVL2:
	sd	a0,-24(s0)
	j	.L12
.L13:
	.loc 1 157 14
	li	a5,-1
	slli	a5,a5,63
	addi	a5,a5,3
	sd	a5,-24(s0)
.L12:
	.loc 1 161 10
	ld	a5,-24(s0)
	.loc 1 162 1
	mv	a0,a5
	ld	ra,56(sp)
	.cfi_restore 1
	ld	s0,48(sp)
	.cfi_restore 8
	.cfi_def_cfa 2, 64
	addi	sp,sp,64
	.cfi_def_cfa_offset 0
	jr	ra
	.cfi_endproc
.LFE0:
	.size	InitializeUnicodeCollationEng, .-InitializeUnicodeCollationEng
	.section	.text.EngStriColl,"ax",@progbits
	.align	1
	.globl	EngStriColl
	.type	EngStriColl, @function
EngStriColl:
.LFB1:
	.loc 1 183 1
	.cfi_startproc
	addi	sp,sp,-48
	.cfi_def_cfa_offset 48
	sd	ra,40(sp)
	sd	s0,32(sp)
	.cfi_offset 1, -8
	.cfi_offset 8, -16
	addi	s0,sp,48
	.cfi_def_cfa 8, 0
	sd	a0,-24(s0)
	sd	a1,-32(s0)
	sd	a2,-40(s0)
	.loc 1 184 9
	j	.L16
.L23:
	.loc 1 185 20
	ld	a5,-32(s0)
	lhu	a5,0(a5)
	.loc 1 185 9
	sext.w	a4,a5
	li	a5,255
	bgtu	a4,a5,.L17
	.loc 1 185 50 discriminator 1
	ld	a5,-32(s0)
	lhu	a5,0(a5)
	sext.w	a5,a5
	.loc 1 185 49 discriminator 1
	lla	a4,mEngUpperMap
	add	a5,a4,a5
	lbu	a5,0(a5)
	.loc 1 185 9 discriminator 1
	sext.w	a4,a5
	j	.L18
.L17:
	.loc 1 185 60 discriminator 2
	ld	a5,-32(s0)
	lhu	a5,0(a5)
	.loc 1 185 9 discriminator 2
	sext.w	a4,a5
.L18:
	.loc 1 185 82 discriminator 4
	ld	a5,-40(s0)
	lhu	a5,0(a5)
	.loc 1 185 71 discriminator 4
	sext.w	a3,a5
	li	a5,255
	bgtu	a3,a5,.L19
	.loc 1 185 112 discriminator 5
	ld	a5,-40(s0)
	lhu	a5,0(a5)
	sext.w	a5,a5
	.loc 1 185 111 discriminator 5
	lla	a3,mEngUpperMap
	add	a5,a3,a5
	lbu	a5,0(a5)
	.loc 1 185 71 discriminator 5
	sext.w	a5,a5
	j	.L20
.L19:
	.loc 1 185 122 discriminator 6
	ld	a5,-40(s0)
	lhu	a5,0(a5)
	.loc 1 185 71 discriminator 6
	sext.w	a5,a5
.L20:
	.loc 1 185 8 discriminator 8
	bne	a4,a5,.L29
	.loc 1 189 10
	ld	a5,-32(s0)
	addi	a5,a5,2
	sd	a5,-32(s0)
	.loc 1 190 10
	ld	a5,-40(s0)
	addi	a5,a5,2
	sd	a5,-40(s0)
.L16:
	.loc 1 184 10
	ld	a5,-32(s0)
	lhu	a5,0(a5)
	.loc 1 184 16
	bne	a5,zero,.L23
	j	.L22
.L29:
	.loc 1 186 7
	nop
.L22:
	.loc 1 193 21
	ld	a5,-32(s0)
	lhu	a5,0(a5)
	.loc 1 193 10
	sext.w	a4,a5
	li	a5,255
	bgtu	a4,a5,.L24
	.loc 1 193 51 discriminator 1
	ld	a5,-32(s0)
	lhu	a5,0(a5)
	sext.w	a5,a5
	.loc 1 193 50 discriminator 1
	lla	a4,mEngUpperMap
	add	a5,a4,a5
	lbu	a5,0(a5)
	.loc 1 193 10 discriminator 1
	sext.w	a4,a5
	j	.L25
.L24:
	.loc 1 193 61 discriminator 2
	ld	a5,-32(s0)
	lhu	a5,0(a5)
	.loc 1 193 10 discriminator 2
	sext.w	a4,a5
.L25:
	.loc 1 193 82 discriminator 4
	ld	a5,-40(s0)
	lhu	a5,0(a5)
	.loc 1 193 71 discriminator 4
	sext.w	a3,a5
	li	a5,255
	bgtu	a3,a5,.L26
	.loc 1 193 112 discriminator 5
	ld	a5,-40(s0)
	lhu	a5,0(a5)
	sext.w	a5,a5
	.loc 1 193 111 discriminator 5
	lla	a3,mEngUpperMap
	add	a5,a3,a5
	lbu	a5,0(a5)
	.loc 1 193 71 discriminator 5
	sext.w	a5,a5
	j	.L27
.L26:
	.loc 1 193 122 discriminator 6
	ld	a5,-40(s0)
	lhu	a5,0(a5)
	.loc 1 193 71 discriminator 6
	sext.w	a5,a5
.L27:
	.loc 1 193 69 discriminator 8
	subw	a5,a4,a5
	sext.w	a5,a5
	.loc 1 194 1
	mv	a0,a5
	ld	ra,40(sp)
	.cfi_restore 1
	ld	s0,32(sp)
	.cfi_restore 8
	.cfi_def_cfa 2, 48
	addi	sp,sp,48
	.cfi_def_cfa_offset 0
	jr	ra
	.cfi_endproc
.LFE1:
	.size	EngStriColl, .-EngStriColl
	.section	.text.EngStrLwr,"ax",@progbits
	.align	1
	.globl	EngStrLwr
	.type	EngStrLwr, @function
EngStrLwr:
.LFB2:
	.loc 1 210 1
	.cfi_startproc
	addi	sp,sp,-32
	.cfi_def_cfa_offset 32
	sd	ra,24(sp)
	sd	s0,16(sp)
	.cfi_offset 1, -8
	.cfi_offset 8, -16
	addi	s0,sp,32
	.cfi_def_cfa 8, 0
	sd	a0,-24(s0)
	sd	a1,-32(s0)
	.loc 1 211 9
	j	.L31
.L34:
	.loc 1 212 23
	ld	a5,-32(s0)
	lhu	a5,0(a5)
	.loc 1 212 12
	sext.w	a4,a5
	li	a5,255
	bgtu	a4,a5,.L32
	.loc 1 212 52 discriminator 1
	ld	a5,-32(s0)
	lhu	a5,0(a5)
	sext.w	a5,a5
	.loc 1 212 51 discriminator 1
	lla	a4,mEngLowerMap
	add	a5,a4,a5
	lbu	a5,0(a5)
	j	.L33
.L32:
	.loc 1 212 12 discriminator 2
	ld	a5,-32(s0)
	lhu	a5,0(a5)
.L33:
	.loc 1 212 10 discriminator 4
	ld	a4,-32(s0)
	sh	a5,0(a4)
	.loc 1 213 9
	ld	a5,-32(s0)
	addi	a5,a5,2
	sd	a5,-32(s0)
.L31:
	.loc 1 211 10
	ld	a5,-32(s0)
	lhu	a5,0(a5)
	.loc 1 211 15
	bne	a5,zero,.L34
	.loc 1 215 1
	nop
	nop
	ld	ra,24(sp)
	.cfi_restore 1
	ld	s0,16(sp)
	.cfi_restore 8
	.cfi_def_cfa 2, 32
	addi	sp,sp,32
	.cfi_def_cfa_offset 0
	jr	ra
	.cfi_endproc
.LFE2:
	.size	EngStrLwr, .-EngStrLwr
	.section	.text.EngStrUpr,"ax",@progbits
	.align	1
	.globl	EngStrUpr
	.type	EngStrUpr, @function
EngStrUpr:
.LFB3:
	.loc 1 231 1
	.cfi_startproc
	addi	sp,sp,-32
	.cfi_def_cfa_offset 32
	sd	ra,24(sp)
	sd	s0,16(sp)
	.cfi_offset 1, -8
	.cfi_offset 8, -16
	addi	s0,sp,32
	.cfi_def_cfa 8, 0
	sd	a0,-24(s0)
	sd	a1,-32(s0)
	.loc 1 232 9
	j	.L36
.L39:
	.loc 1 233 23
	ld	a5,-32(s0)
	lhu	a5,0(a5)
	.loc 1 233 12
	sext.w	a4,a5
	li	a5,255
	bgtu	a4,a5,.L37
	.loc 1 233 52 discriminator 1
	ld	a5,-32(s0)
	lhu	a5,0(a5)
	sext.w	a5,a5
	.loc 1 233 51 discriminator 1
	lla	a4,mEngUpperMap
	add	a5,a4,a5
	lbu	a5,0(a5)
	j	.L38
.L37:
	.loc 1 233 12 discriminator 2
	ld	a5,-32(s0)
	lhu	a5,0(a5)
.L38:
	.loc 1 233 10 discriminator 4
	ld	a4,-32(s0)
	sh	a5,0(a4)
	.loc 1 234 9
	ld	a5,-32(s0)
	addi	a5,a5,2
	sd	a5,-32(s0)
.L36:
	.loc 1 232 10
	ld	a5,-32(s0)
	lhu	a5,0(a5)
	.loc 1 232 15
	bne	a5,zero,.L39
	.loc 1 236 1
	nop
	nop
	ld	ra,24(sp)
	.cfi_restore 1
	ld	s0,16(sp)
	.cfi_restore 8
	.cfi_def_cfa 2, 32
	addi	sp,sp,32
	.cfi_def_cfa_offset 0
	jr	ra
	.cfi_endproc
.LFE3:
	.size	EngStrUpr, .-EngStrUpr
	.section	.text.EngMetaiMatch,"ax",@progbits
	.align	1
	.globl	EngMetaiMatch
	.type	EngMetaiMatch, @function
EngMetaiMatch:
.LFB4:
	.loc 1 257 1
	.cfi_startproc
	addi	sp,sp,-64
	.cfi_def_cfa_offset 64
	sd	ra,56(sp)
	sd	s0,48(sp)
	.cfi_offset 1, -8
	.cfi_offset 8, -16
	addi	s0,sp,64
	.cfi_def_cfa 8, 0
	sd	a0,-40(s0)
	sd	a1,-48(s0)
	sd	a2,-56(s0)
.L82:
	.loc 1 263 11
	ld	a5,-56(s0)
	lhu	a5,0(a5)
	sh	a5,-18(s0)
	.loc 1 264 13
	ld	a5,-56(s0)
	addi	a5,a5,2
	sd	a5,-56(s0)
	.loc 1 266 5
	lhu	a5,-18(s0)
	sext.w	a5,a5
	li	a4,91
	beq	a5,a4,.L41
	li	a4,91
	bgt	a5,a4,.L42
	li	a4,63
	beq	a5,a4,.L43
	li	a4,63
	bgt	a5,a4,.L42
	beq	a5,zero,.L44
	li	a4,42
	beq	a5,a4,.L48
	j	.L42
.L44:
	.loc 1 271 13
	ld	a5,-48(s0)
	lhu	a5,0(a5)
	.loc 1 271 12
	beq	a5,zero,.L46
	.loc 1 272 18
	li	a5,0
	j	.L47
.L46:
	.loc 1 274 18
	li	a5,1
	j	.L47
.L50:
	.loc 1 282 15
	ld	a2,-56(s0)
	ld	a1,-48(s0)
	ld	a0,-40(s0)
	call	EngMetaiMatch
	mv	a5,a0
	.loc 1 282 14 discriminator 1
	beq	a5,zero,.L49
	.loc 1 283 20
	li	a5,1
	j	.L47
.L49:
	.loc 1 286 18
	ld	a5,-48(s0)
	addi	a5,a5,2
	sd	a5,-48(s0)
.L48:
	.loc 1 281 16
	ld	a5,-48(s0)
	lhu	a5,0(a5)
	.loc 1 281 24
	bne	a5,zero,.L50
	.loc 1 289 16
	ld	a2,-56(s0)
	ld	a1,-48(s0)
	ld	a0,-40(s0)
	call	EngMetaiMatch
	mv	a5,a0
	j	.L47
.L43:
	.loc 1 295 13
	ld	a5,-48(s0)
	lhu	a5,0(a5)
	.loc 1 295 12
	bne	a5,zero,.L51
	.loc 1 296 18
	li	a5,0
	j	.L47
.L51:
	.loc 1 299 16
	ld	a5,-48(s0)
	addi	a5,a5,2
	sd	a5,-48(s0)
	.loc 1 300 9
	j	.L52
.L41:
	.loc 1 306 15
	ld	a5,-48(s0)
	lhu	a5,0(a5)
	sh	a5,-22(s0)
	.loc 1 307 12
	lhu	a5,-22(s0)
	sext.w	a5,a5
	bne	a5,zero,.L53
	.loc 1 311 18
	li	a5,0
	j	.L47
.L53:
	.loc 1 314 16
	sh	zero,-20(s0)
	.loc 1 315 25
	ld	a5,-56(s0)
	addi	a4,a5,2
	sd	a4,-56(s0)
	.loc 1 315 15
	lhu	a5,0(a5)
	sh	a5,-18(s0)
	.loc 1 316 15
	j	.L54
.L73:
	.loc 1 317 14
	lhu	a5,-18(s0)
	sext.w	a4,a5
	li	a5,93
	bne	a4,a5,.L55
	.loc 1 318 20
	li	a5,0
	j	.L47
.L55:
	.loc 1 321 14
	lhu	a5,-18(s0)
	sext.w	a4,a5
	li	a5,45
	bne	a4,a5,.L56
	.loc 1 325 19
	ld	a5,-56(s0)
	lhu	a5,0(a5)
	sh	a5,-18(s0)
	.loc 1 326 16
	lhu	a5,-18(s0)
	sext.w	a5,a5
	beq	a5,zero,.L57
	.loc 1 326 30 discriminator 1
	lhu	a5,-18(s0)
	sext.w	a4,a5
	li	a5,93
	bne	a4,a5,.L58
.L57:
	.loc 1 330 22
	li	a5,0
	j	.L47
.L58:
	.loc 1 333 18
	lhu	a5,-22(s0)
	sext.w	a4,a5
	li	a5,255
	bgtu	a4,a5,.L59
	.loc 1 333 58 discriminator 1
	lhu	a5,-22(s0)
	sext.w	a5,a5
	lla	a4,mEngUpperMap
	add	a5,a4,a5
	lbu	a5,0(a5)
	.loc 1 333 18 discriminator 1
	sext.w	a4,a5
	j	.L60
.L59:
	.loc 1 333 18 is_stmt 0 discriminator 2
	lhu	a5,-22(s0)
	sext.w	a4,a5
.L60:
	.loc 1 333 80 is_stmt 1 discriminator 4
	lhu	a5,-20(s0)
	sext.w	a3,a5
	li	a5,255
	bgtu	a3,a5,.L61
	.loc 1 333 121 discriminator 5
	lhu	a5,-20(s0)
	sext.w	a5,a5
	lla	a3,mEngUpperMap
	add	a5,a3,a5
	lbu	a5,0(a5)
	.loc 1 333 80 discriminator 5
	sext.w	a5,a5
	j	.L62
.L61:
	.loc 1 333 80 is_stmt 0 discriminator 6
	lhu	a5,-20(s0)
	sext.w	a5,a5
.L62:
	.loc 1 333 16 is_stmt 1 discriminator 8
	blt	a4,a5,.L56
	.loc 1 333 147 discriminator 9
	lhu	a5,-22(s0)
	sext.w	a4,a5
	li	a5,255
	bgtu	a4,a5,.L63
	.loc 1 333 187 discriminator 10
	lhu	a5,-22(s0)
	sext.w	a5,a5
	lla	a4,mEngUpperMap
	add	a5,a4,a5
	lbu	a5,0(a5)
	.loc 1 333 147 discriminator 10
	sext.w	a4,a5
	j	.L64
.L63:
	.loc 1 333 147 is_stmt 0 discriminator 11
	lhu	a5,-22(s0)
	sext.w	a4,a5
.L64:
	.loc 1 333 209 is_stmt 1 discriminator 13
	lhu	a5,-18(s0)
	sext.w	a3,a5
	li	a5,255
	bgtu	a3,a5,.L65
	.loc 1 333 249 discriminator 14
	lhu	a5,-18(s0)
	sext.w	a5,a5
	lla	a3,mEngUpperMap
	add	a5,a3,a5
	lbu	a5,0(a5)
	.loc 1 333 209 discriminator 14
	sext.w	a5,a5
	j	.L66
.L65:
	.loc 1 333 209 is_stmt 0 discriminator 15
	lhu	a5,-18(s0)
	sext.w	a5,a5
.L66:
	.loc 1 333 143 is_stmt 1 discriminator 17
	ble	a4,a5,.L83
.L56:
	.loc 1 341 18
	lhu	a5,-18(s0)
	sh	a5,-20(s0)
	.loc 1 342 15
	lhu	a5,-22(s0)
	sext.w	a4,a5
	li	a5,255
	bgtu	a4,a5,.L68
	.loc 1 342 55 discriminator 1
	lhu	a5,-22(s0)
	sext.w	a5,a5
	lla	a4,mEngUpperMap
	add	a5,a4,a5
	lbu	a5,0(a5)
	.loc 1 342 15 discriminator 1
	sext.w	a4,a5
	j	.L69
.L68:
	.loc 1 342 15 is_stmt 0 discriminator 2
	lhu	a5,-22(s0)
	sext.w	a4,a5
.L69:
	.loc 1 342 77 is_stmt 1 discriminator 4
	lhu	a5,-18(s0)
	sext.w	a3,a5
	li	a5,255
	bgtu	a3,a5,.L70
	.loc 1 342 117 discriminator 5
	lhu	a5,-18(s0)
	sext.w	a5,a5
	lla	a3,mEngUpperMap
	add	a5,a3,a5
	lbu	a5,0(a5)
	.loc 1 342 77 discriminator 5
	sext.w	a5,a5
	j	.L71
.L70:
	.loc 1 342 77 is_stmt 0 discriminator 6
	lhu	a5,-18(s0)
	sext.w	a5,a5
.L71:
	.loc 1 342 14 is_stmt 1 discriminator 8
	beq	a4,a5,.L84
	.loc 1 349 27
	ld	a5,-56(s0)
	addi	a4,a5,2
	sd	a4,-56(s0)
	.loc 1 349 17
	lhu	a5,0(a5)
	sh	a5,-18(s0)
.L54:
	.loc 1 316 22
	lhu	a5,-18(s0)
	sext.w	a5,a5
	bne	a5,zero,.L73
	j	.L74
.L83:
	.loc 1 337 15
	nop
	j	.L74
.L84:
	.loc 1 346 13
	nop
	.loc 1 355 15
	j	.L74
.L76:
	.loc 1 356 17
	ld	a5,-56(s0)
	lhu	a5,0(a5)
	sh	a5,-18(s0)
	.loc 1 357 19
	ld	a5,-56(s0)
	addi	a5,a5,2
	sd	a5,-56(s0)
.L74:
	.loc 1 355 29
	lhu	a5,-18(s0)
	sext.w	a5,a5
	beq	a5,zero,.L75
	.loc 1 355 29 is_stmt 0 discriminator 1
	lhu	a5,-18(s0)
	sext.w	a4,a5
	li	a5,93
	bne	a4,a5,.L76
.L75:
	.loc 1 360 16 is_stmt 1
	ld	a5,-48(s0)
	addi	a5,a5,2
	sd	a5,-48(s0)
	.loc 1 361 9
	j	.L52
.L42:
	.loc 1 364 15
	ld	a5,-48(s0)
	lhu	a5,0(a5)
	sh	a5,-22(s0)
	.loc 1 365 13
	lhu	a5,-22(s0)
	sext.w	a4,a5
	li	a5,255
	bgtu	a4,a5,.L77
	.loc 1 365 53 discriminator 1
	lhu	a5,-22(s0)
	sext.w	a5,a5
	lla	a4,mEngUpperMap
	add	a5,a4,a5
	lbu	a5,0(a5)
	.loc 1 365 13 discriminator 1
	sext.w	a4,a5
	j	.L78
.L77:
	.loc 1 365 13 is_stmt 0 discriminator 2
	lhu	a5,-22(s0)
	sext.w	a4,a5
.L78:
	.loc 1 365 75 is_stmt 1 discriminator 4
	lhu	a5,-18(s0)
	sext.w	a3,a5
	li	a5,255
	bgtu	a3,a5,.L79
	.loc 1 365 115 discriminator 5
	lhu	a5,-18(s0)
	sext.w	a5,a5
	lla	a3,mEngUpperMap
	add	a5,a3,a5
	lbu	a5,0(a5)
	.loc 1 365 75 discriminator 5
	sext.w	a5,a5
	j	.L80
.L79:
	.loc 1 365 75 is_stmt 0 discriminator 6
	lhu	a5,-18(s0)
	sext.w	a5,a5
.L80:
	.loc 1 365 12 is_stmt 1 discriminator 8
	beq	a4,a5,.L81
	.loc 1 366 18
	li	a5,0
	j	.L47
.L81:
	.loc 1 369 16
	ld	a5,-48(s0)
	addi	a5,a5,2
	sd	a5,-48(s0)
	.loc 1 370 9
	nop
.L52:
	.loc 1 263 11
	j	.L82
.L47:
	.loc 1 373 1
	mv	a0,a5
	ld	ra,56(sp)
	.cfi_restore 1
	ld	s0,48(sp)
	.cfi_restore 8
	.cfi_def_cfa 2, 64
	addi	sp,sp,64
	.cfi_def_cfa_offset 0
	jr	ra
	.cfi_endproc
.LFE4:
	.size	EngMetaiMatch, .-EngMetaiMatch
	.section	.text.EngFatToStr,"ax",@progbits
	.align	1
	.globl	EngFatToStr
	.type	EngFatToStr, @function
EngFatToStr:
.LFB5:
	.loc 1 394 1
	.cfi_startproc
	addi	sp,sp,-48
	.cfi_def_cfa_offset 48
	sd	ra,40(sp)
	sd	s0,32(sp)
	.cfi_offset 1, -8
	.cfi_offset 8, -16
	addi	s0,sp,48
	.cfi_def_cfa 8, 0
	sd	a0,-24(s0)
	sd	a1,-32(s0)
	sd	a2,-40(s0)
	sd	a3,-48(s0)
	.loc 1 398 9
	j	.L86
.L88:
	.loc 1 399 15
	ld	a5,-40(s0)
	lbu	a5,0(a5)
	mv	a4,a5
	.loc 1 399 13
	ld	a5,-48(s0)
	sh	a4,0(a5)
	.loc 1 400 12
	ld	a5,-48(s0)
	addi	a5,a5,2
	sd	a5,-48(s0)
	.loc 1 401 9
	ld	a5,-40(s0)
	addi	a5,a5,1
	sd	a5,-40(s0)
	.loc 1 402 13
	ld	a5,-32(s0)
	addi	a5,a5,-1
	sd	a5,-32(s0)
.L86:
	.loc 1 398 11
	ld	a5,-40(s0)
	lbu	a5,0(a5)
	.loc 1 398 22
	beq	a5,zero,.L87
	.loc 1 398 22 is_stmt 0 discriminator 1
	ld	a5,-32(s0)
	bne	a5,zero,.L88
.L87:
	.loc 1 405 11 is_stmt 1
	ld	a5,-48(s0)
	sh	zero,0(a5)
	.loc 1 406 1
	nop
	ld	ra,40(sp)
	.cfi_restore 1
	ld	s0,32(sp)
	.cfi_restore 8
	.cfi_def_cfa 2, 48
	addi	sp,sp,48
	.cfi_def_cfa_offset 0
	jr	ra
	.cfi_endproc
.LFE5:
	.size	EngFatToStr, .-EngFatToStr
	.section	.text.EngStrToFat,"ax",@progbits
	.align	1
	.globl	EngStrToFat
	.type	EngStrToFat, @function
EngStrToFat:
.LFB6:
	.loc 1 431 1
	.cfi_startproc
	addi	sp,sp,-64
	.cfi_def_cfa_offset 64
	sd	ra,56(sp)
	sd	s0,48(sp)
	.cfi_offset 1, -8
	.cfi_offset 8, -16
	addi	s0,sp,64
	.cfi_def_cfa 8, 0
	sd	a0,-40(s0)
	sd	a1,-48(s0)
	sd	a2,-56(s0)
	sd	a3,-64(s0)
	.loc 1 434 20
	sb	zero,-17(s0)
	.loc 1 435 9
	j	.L90
.L95:
	.loc 1 439 10
	ld	a5,-48(s0)
	lhu	a5,0(a5)
	.loc 1 439 8
	sext.w	a4,a5
	li	a5,46
	beq	a4,a5,.L91
	.loc 1 439 30 discriminator 1
	ld	a5,-48(s0)
	lhu	a5,0(a5)
	.loc 1 439 26 discriminator 1
	sext.w	a4,a5
	li	a5,32
	beq	a4,a5,.L91
	.loc 1 444 12
	ld	a5,-48(s0)
	lhu	a5,0(a5)
	.loc 1 444 10
	sext.w	a4,a5
	li	a5,255
	bgtu	a4,a5,.L92
	.loc 1 444 46 discriminator 1
	ld	a5,-48(s0)
	lhu	a5,0(a5)
	sext.w	a5,a5
	.loc 1 444 45 discriminator 1
	lla	a4,mEngInfoMap
	add	a5,a4,a5
	lbu	a5,0(a5)
	.loc 1 444 55 discriminator 1
	sext.w	a5,a5
	andi	a5,a5,1
	sext.w	a5,a5
	.loc 1 444 29 discriminator 1
	beq	a5,zero,.L92
	.loc 1 445 29
	ld	a5,-48(s0)
	lhu	a5,0(a5)
	sext.w	a5,a5
	.loc 1 445 28
	lla	a4,mEngUpperMap
	add	a5,a4,a5
	lbu	a4,0(a5)
	.loc 1 445 14
	ld	a5,-64(s0)
	sb	a4,0(a5)
	j	.L93
.L92:
	.loc 1 447 14
	ld	a5,-64(s0)
	li	a4,95
	sb	a4,0(a5)
	.loc 1 448 26
	li	a5,1
	sb	a5,-17(s0)
.L93:
	.loc 1 451 11
	ld	a5,-64(s0)
	addi	a5,a5,1
	sd	a5,-64(s0)
	.loc 1 452 15
	ld	a5,-56(s0)
	addi	a5,a5,-1
	sd	a5,-56(s0)
.L91:
	.loc 1 455 12
	ld	a5,-48(s0)
	addi	a5,a5,2
	sd	a5,-48(s0)
.L90:
	.loc 1 435 11
	ld	a5,-48(s0)
	lhu	a5,0(a5)
	.loc 1 435 25
	beq	a5,zero,.L94
	.loc 1 435 25 is_stmt 0 discriminator 1
	ld	a5,-56(s0)
	bne	a5,zero,.L95
.L94:
	.loc 1 461 10 is_stmt 1
	lbu	a5,-17(s0)
	.loc 1 462 1
	mv	a0,a5
	ld	ra,56(sp)
	.cfi_restore 1
	ld	s0,48(sp)
	.cfi_restore 8
	.cfi_def_cfa 2, 64
	addi	sp,sp,64
	.cfi_def_cfa_offset 0
	jr	ra
	.cfi_endproc
.LFE6:
	.size	EngStrToFat, .-EngStrToFat
	.text
.Letext0:
	.file 2 "/home/kapoagaeming/spacemit-image-builder/components/edk2/MdePkg/Include/RiscV64/ProcessorBind.h"
	.file 3 "/home/kapoagaeming/spacemit-image-builder/components/edk2/MdePkg/Include/Base.h"
	.file 4 "/home/kapoagaeming/spacemit-image-builder/components/edk2/MdePkg/Include/Uefi/UefiBaseType.h"
	.file 5 "/home/kapoagaeming/spacemit-image-builder/components/edk2/MdePkg/Include/Uefi/UefiMultiPhase.h"
	.file 6 "/home/kapoagaeming/spacemit-image-builder/components/edk2/MdePkg/Include/Protocol/DevicePath.h"
	.file 7 "/home/kapoagaeming/spacemit-image-builder/components/edk2/MdePkg/Include/Protocol/SimpleTextIn.h"
	.file 8 "/home/kapoagaeming/spacemit-image-builder/components/edk2/MdePkg/Include/Protocol/SimpleTextOut.h"
	.file 9 "/home/kapoagaeming/spacemit-image-builder/components/edk2/MdePkg/Include/Uefi/UefiSpec.h"
	.file 10 "/home/kapoagaeming/spacemit-image-builder/components/Build/Milk-V-Jupiter/RELEASE_GCC5/RISCV64/MdeModulePkg/Universal/Disk/UnicodeCollation/EnglishDxe/EnglishDxe/DEBUG/AutoGen.h"
	.file 11 "/home/kapoagaeming/spacemit-image-builder/components/edk2/MdePkg/Include/Protocol/UnicodeCollation.h"
	.file 12 "/home/kapoagaeming/spacemit-image-builder/components/edk2/MdePkg/Include/Library/UefiBootServicesTableLib.h"
	.section	.note.GNU-stack,"",@progbits
