	.file	"MemInfoScreen.c"
	.option pic
	.option norelax
	.attribute arch, "rv64i2p1_m2p0_a2p1_f2p2_d2p2_c2p0_zicsr2p0_zifencei2p0_zmmul1p0_zaamo1p0_zalrsc1p0_zca1p0_zcd1p0"
	.attribute unaligned_access, 0
	.attribute stack_align, 16
	.text
.Ltext0:
	.cfi_sections	.debug_frame
	.file 0 "/home/kapoagaeming/Downloads/spacemit-image-builder/components/Build/Milk-V-Jupiter/RELEASE_GCC5/RISCV64/Silicon/Spacemit/K1/Drivers/MemInfoDxe/MemInfoDxe" "/home/kapoagaeming/Downloads/spacemit-image-builder/components/edk2-platforms/Silicon/Spacemit/K1/Drivers/MemInfoDxe/MemInfoScreen.c"
	.globl	gMemInfoFormSetGuid
	.section	.data.gMemInfoFormSetGuid,"aw"
	.align	3
	.type	gMemInfoFormSetGuid, @object
	.size	gMemInfoFormSetGuid, 16
gMemInfoFormSetGuid:
	.word	1374201130
	.half	-3524
	.half	17178
	.base64	"nWjUS6PQEqw="
	.globl	mHiiVendorDevicePath
	.section	.data.mHiiVendorDevicePath,"aw"
	.align	3
	.type	mHiiVendorDevicePath, @object
	.size	mHiiVendorDevicePath, 24
mHiiVendorDevicePath:
	.byte	1
	.byte	4
	.string	"\024"
	.word	1374201130
	.half	-3524
	.half	17178
	.base64	"nWjUS6PQEqw="
	.byte	127
	.byte	-1
	.string	"\004"
	.globl	DriverHandle
	.section	.bss.DriverHandle,"aw",@nobits
	.align	3
	.type	DriverHandle, @object
	.size	DriverHandle, 8
DriverHandle:
	.zero	8
	.globl	mPrivateData
	.section	.bss.mPrivateData,"aw",@nobits
	.align	3
	.type	mPrivateData, @object
	.size	mPrivateData, 8
mPrivateData:
	.zero	8
	.section	.rodata
	.align	3
.LC4:
	.string	"ddr_datarate"
	.section	.text.SetDdrDatarate,"ax",@progbits
	.align	1
	.type	SetDdrDatarate, @function
SetDdrDatarate:
.LFB0:
	.file 1 "/home/kapoagaeming/Downloads/spacemit-image-builder/components/edk2-platforms/Silicon/Spacemit/K1/Drivers/MemInfoDxe/MemInfoScreen.c"
	.loc 1 57 1
	.cfi_startproc
	addi	sp,sp,-32
	.cfi_def_cfa_offset 32
	sd	ra,24(sp)
	sd	s0,16(sp)
	.cfi_offset 1, -8
	.cfi_offset 8, -16
	addi	s0,sp,32
	.cfi_def_cfa 8, 0
	sd	a0,-24(s0)
	mv	a5,a1
	sw	a5,-28(s0)
	.loc 1 59 14
	ld	a5,-24(s0)
	ld	a5,16(a5)
	.loc 1 62 41
	lwu	a4,-28(s0)
	.loc 1 59 10
	li	a3,8
	mv	a2,a4
	lla	a1,.LC4
	ld	a0,-24(s0)
	jalr	a5
.LVL0:
	mv	a5,a0
	.loc 1 65 1
	mv	a0,a5
	ld	ra,24(sp)
	.cfi_restore 1
	ld	s0,16(sp)
	.cfi_restore 8
	.cfi_def_cfa 2, 32
	addi	sp,sp,32
	.cfi_def_cfa_offset 0
	jr	ra
	.cfi_endproc
.LFE0:
	.size	SetDdrDatarate, .-SetDdrDatarate
	.section	.rodata
	.align	3
.LC5:
	.string	"M"
	.string	"e"
	.string	"m"
	.string	"I"
	.string	"n"
	.string	"f"
	.string	"o"
	.string	"I"
	.string	"f"
	.string	"r"
	.string	"N"
	.string	"V"
	.string	"D"
	.string	"a"
	.string	"t"
	.string	"a"
	.zero	2
	.align	3
.LC6:
	.string	"%"
	.string	"s"
	.string	"&"
	.string	"O"
	.string	"F"
	.string	"F"
	.string	"S"
	.string	"E"
	.string	"T"
	.string	"="
	.string	"0"
	.string	"&"
	.string	"W"
	.string	"I"
	.string	"D"
	.string	"T"
	.string	"H"
	.string	"="
	.string	"%"
	.string	"0"
	.string	"1"
	.string	"6"
	.string	"L"
	.string	"X"
	.zero	2
	.align	3
.LC7:
	.string	"O"
	.string	"F"
	.string	"F"
	.string	"S"
	.string	"E"
	.string	"T"
	.zero	2
	.align	3
.LC8:
	.string	"P"
	.string	"A"
	.string	"T"
	.string	"H"
	.zero	2
	.align	3
.LC9:
	.string	"&"
	.zero	2
	.section	.text.ExtractConfig,"ax",@progbits
	.align	1
	.globl	ExtractConfig
	.type	ExtractConfig, @function
ExtractConfig:
.LFB1:
	.loc 1 97 1
	.cfi_startproc
	addi	sp,sp,-128
	.cfi_def_cfa_offset 128
	sd	ra,120(sp)
	sd	s0,112(sp)
	.cfi_offset 1, -8
	.cfi_offset 8, -16
	addi	s0,sp,128
	.cfi_def_cfa 8, 0
	sd	a0,-104(s0)
	sd	a1,-112(s0)
	sd	a2,-120(s0)
	sd	a3,-128(s0)
	.loc 1 108 6
	ld	a5,-120(s0)
	beq	a5,zero,.L4
	.loc 1 108 34 discriminator 1
	ld	a5,-128(s0)
	bne	a5,zero,.L5
.L4:
	.loc 1 109 12
	li	a5,-1
	slli	a5,a5,63
	addi	a5,a5,2
	j	.L6
.L5:
	.loc 1 115 20
	sd	zero,-48(s0)
	.loc 1 116 17
	sd	zero,-40(s0)
	.loc 1 117 8
	sd	zero,-64(s0)
	.loc 1 118 13
	ld	a5,-120(s0)
	ld	a4,-112(s0)
	sd	a4,0(a5)
	.loc 1 119 20
	sb	zero,-49(s0)
	.loc 1 121 19
	ld	a5,-104(s0)
	addi	a5,a5,-80
	.loc 1 121 155
	ld	a4,0(a5)
	.loc 1 121 240
	li	a5,1766670336
	addi	a5,a5,1357
	bne	a4,a5,.L7
	.loc 1 121 15 discriminator 1
	ld	a5,-104(s0)
	addi	a5,a5,-80
	sd	a5,-32(s0)
	j	.L8
.L7:
	.loc 1 121 15 is_stmt 0 discriminator 2
	sd	zero,-32(s0)
.L8:
	.loc 1 122 20 is_stmt 1
	ld	a5,-32(s0)
	ld	a5,48(a5)
	sd	a5,-72(s0)
	.loc 1 128 14
	li	a5,4
	sd	a5,-80(s0)
	.loc 1 129 12
	ld	a5,-32(s0)
	addi	a5,a5,24
	mv	a0,a5
	call	MemInfoNvparamGet@plt
	sd	a0,-24(s0)
	.loc 1 130 34
	ld	a5,-24(s0)
	.loc 1 130 6
	bge	a5,zero,.L9
	.loc 1 131 12
	li	a5,-1
	slli	a5,a5,63
	addi	a5,a5,14
	j	.L6
.L9:
	.loc 1 134 6
	ld	a5,-112(s0)
	bne	a5,zero,.L10
	.loc 1 143 24
	ld	a5,-32(s0)
	ld	a5,8(a5)
	mv	a2,a5
	lla	a1,.LC5
	lla	a0,gMemInfoFormSetGuid
	call	HiiConstructConfigHdr@plt
	sd	a0,-48(s0)
	.loc 1 144 13
	ld	a0,-48(s0)
	call	StrLen@plt
	mv	a5,a0
	.loc 1 144 44 discriminator 1
	addi	a5,a5,33
	.loc 1 144 10 discriminator 1
	slli	a5,a5,1
	sd	a5,-64(s0)
	.loc 1 145 21
	ld	a0,-64(s0)
	call	AllocateZeroPool@plt
	sd	a0,-40(s0)
	.loc 1 147 22
	li	a5,1
	sb	a5,-49(s0)
	.loc 1 148 5
	ld	a4,-80(s0)
	ld	a3,-48(s0)
	lla	a2,.LC6
	ld	a1,-64(s0)
	ld	a0,-40(s0)
	call	UnicodeSPrint@plt
	.loc 1 149 5
	ld	a0,-48(s0)
	call	FreePool@plt
	.loc 1 150 22
	sd	zero,-48(s0)
	j	.L11
.L10:
	.loc 1 156 10
	li	a2,0
	lla	a1,gMemInfoFormSetGuid
	ld	a0,-112(s0)
	call	HiiIsConfigHdrMatch@plt
	mv	a5,a0
	.loc 1 156 8 discriminator 1
	bne	a5,zero,.L12
	.loc 1 157 14
	li	a5,-1
	slli	a5,a5,63
	addi	a5,a5,14
	j	.L6
.L12:
	.loc 1 163 19
	ld	a5,-112(s0)
	sd	a5,-40(s0)
	.loc 1 168 9
	lla	a1,.LC7
	ld	a0,-112(s0)
	call	StrStr@plt
	mv	a5,a0
	.loc 1 168 8 discriminator 1
	bne	a5,zero,.L11
	.loc 1 172 20
	lla	a1,.LC8
	ld	a0,-112(s0)
	call	StrStr@plt
	sd	a0,-88(s0)
	.loc 1 173 10
	ld	a5,-88(s0)
	bne	a5,zero,.L13
	.loc 1 174 16
	li	a5,-1
	slli	a5,a5,63
	addi	a5,a5,2
	j	.L6
.L13:
	.loc 1 177 11
	lla	a1,.LC9
	ld	a0,-88(s0)
	call	StrStr@plt
	mv	a5,a0
	.loc 1 177 10 discriminator 1
	bne	a5,zero,.L11
	.loc 1 178 17
	ld	a0,-112(s0)
	call	StrLen@plt
	mv	a5,a0
	.loc 1 178 39 discriminator 1
	addi	a5,a5,33
	.loc 1 178 14 discriminator 1
	slli	a5,a5,1
	sd	a5,-64(s0)
	.loc 1 179 25
	ld	a0,-64(s0)
	call	AllocateZeroPool@plt
	sd	a0,-40(s0)
	.loc 1 181 26
	li	a5,1
	sb	a5,-49(s0)
	.loc 1 182 9
	ld	a4,-80(s0)
	ld	a3,-112(s0)
	lla	a2,.LC6
	ld	a1,-64(s0)
	ld	a0,-40(s0)
	call	UnicodeSPrint@plt
.L11:
	.loc 1 190 7
	lla	a1,.LC7
	ld	a0,-40(s0)
	call	StrStr@plt
	mv	a5,a0
	.loc 1 190 6 discriminator 1
	bne	a5,zero,.L14
	.loc 1 194 12
	sd	zero,-24(s0)
	j	.L15
.L14:
	.loc 1 199 30
	ld	a5,-72(s0)
	ld	a6,24(a5)
	.loc 1 202 56
	ld	a5,-32(s0)
	addi	a2,a5,24
	.loc 1 199 14
	ld	a5,-120(s0)
	ld	a4,-128(s0)
	ld	a3,-80(s0)
	ld	a1,-40(s0)
	ld	a0,-72(s0)
	jalr	a6
.LVL1:
	sd	a0,-24(s0)
.L15:
	.loc 1 212 6
	lbu	a5,-49(s0)
	andi	a5,a5,0xff
	beq	a5,zero,.L16
	.loc 1 213 5
	ld	a0,-40(s0)
	call	FreePool@plt
.L16:
	.loc 1 216 6
	ld	a5,-48(s0)
	beq	a5,zero,.L17
	.loc 1 217 5
	ld	a0,-48(s0)
	call	FreePool@plt
.L17:
	.loc 1 223 6
	ld	a5,-112(s0)
	bne	a5,zero,.L18
	.loc 1 224 15
	ld	a5,-120(s0)
	sd	zero,0(a5)
	j	.L19
.L18:
	.loc 1 225 14
	lla	a1,.LC7
	ld	a0,-112(s0)
	call	StrStr@plt
	mv	a5,a0
	.loc 1 225 13 discriminator 1
	bne	a5,zero,.L19
	.loc 1 226 27
	ld	a0,-112(s0)
	call	StrLen@plt
	mv	a5,a0
	.loc 1 226 25 discriminator 1
	slli	a5,a5,1
	ld	a4,-112(s0)
	add	a4,a4,a5
	.loc 1 226 15 discriminator 1
	ld	a5,-120(s0)
	sd	a4,0(a5)
.L19:
	.loc 1 229 10
	ld	a5,-24(s0)
.L6:
	.loc 1 230 1
	mv	a0,a5
	ld	ra,120(sp)
	.cfi_restore 1
	ld	s0,112(sp)
	.cfi_restore 8
	.cfi_def_cfa 2, 128
	addi	sp,sp,128
	.cfi_def_cfa_offset 0
	jr	ra
	.cfi_endproc
.LFE1:
	.size	ExtractConfig, .-ExtractConfig
	.section	.text.RouteConfig,"ax",@progbits
	.align	1
	.globl	RouteConfig
	.type	RouteConfig, @function
RouteConfig:
.LFB2:
	.loc 1 254 1
	.cfi_startproc
	addi	sp,sp,-80
	.cfi_def_cfa_offset 80
	sd	ra,72(sp)
	sd	s0,64(sp)
	.cfi_offset 1, -8
	.cfi_offset 8, -16
	addi	s0,sp,80
	.cfi_def_cfa 8, 0
	sd	a0,-56(s0)
	sd	a1,-64(s0)
	sd	a2,-72(s0)
	.loc 1 260 6
	ld	a5,-64(s0)
	beq	a5,zero,.L21
	.loc 1 260 39 discriminator 1
	ld	a5,-72(s0)
	bne	a5,zero,.L22
.L21:
	.loc 1 261 12
	li	a5,-1
	slli	a5,a5,63
	addi	a5,a5,2
	j	.L30
.L22:
	.loc 1 264 19
	ld	a5,-56(s0)
	addi	a5,a5,-80
	.loc 1 264 155
	ld	a4,0(a5)
	.loc 1 264 240
	li	a5,1766670336
	addi	a5,a5,1357
	bne	a4,a5,.L24
	.loc 1 264 15 discriminator 1
	ld	a5,-56(s0)
	addi	a5,a5,-80
	sd	a5,-24(s0)
	j	.L25
.L24:
	.loc 1 264 15 is_stmt 0 discriminator 2
	sd	zero,-24(s0)
.L25:
	.loc 1 265 20 is_stmt 1
	ld	a5,-24(s0)
	ld	a5,48(a5)
	sd	a5,-32(s0)
	.loc 1 266 13
	ld	a5,-72(s0)
	ld	a4,-64(s0)
	sd	a4,0(a5)
	.loc 1 272 8
	li	a2,0
	lla	a1,gMemInfoFormSetGuid
	ld	a0,-64(s0)
	call	HiiIsConfigHdrMatch@plt
	mv	a5,a0
	.loc 1 272 6 discriminator 1
	bne	a5,zero,.L26
	.loc 1 273 12
	li	a5,-1
	slli	a5,a5,63
	addi	a5,a5,14
	j	.L30
.L26:
	.loc 1 279 12
	ld	a5,-24(s0)
	addi	a5,a5,24
	mv	a0,a5
	call	MemInfoNvparamGet@plt
	sd	a0,-40(s0)
	.loc 1 280 34
	ld	a5,-40(s0)
	.loc 1 280 6
	bge	a5,zero,.L27
	.loc 1 281 12
	ld	a5,-40(s0)
	j	.L30
.L27:
	.loc 1 287 7
	lla	a1,.LC7
	ld	a0,-64(s0)
	call	StrStr@plt
	mv	a5,a0
	.loc 1 287 6 discriminator 1
	bne	a5,zero,.L28
	.loc 1 291 12
	li	a5,0
	j	.L30
.L28:
	.loc 1 297 14
	li	a5,4
	sd	a5,-48(s0)
	.loc 1 298 28
	ld	a5,-32(s0)
	ld	a5,32(a5)
	.loc 1 301 58
	ld	a4,-24(s0)
	addi	a2,a4,24
	.loc 1 298 12
	addi	a3,s0,-48
	ld	a4,-72(s0)
	ld	a1,-64(s0)
	ld	a0,-32(s0)
	jalr	a5
.LVL2:
	sd	a0,-40(s0)
	.loc 1 305 34
	ld	a5,-40(s0)
	.loc 1 305 6
	bge	a5,zero,.L29
	.loc 1 306 12
	ld	a5,-40(s0)
	j	.L30
.L29:
	.loc 1 312 12
	ld	a5,-24(s0)
	addi	a5,a5,24
	mv	a0,a5
	call	MemInfoNvparamSet@plt
	sd	a0,-40(s0)
	.loc 1 314 10
	ld	a5,-40(s0)
.L30:
	.loc 1 315 1
	mv	a0,a5
	ld	ra,72(sp)
	.cfi_restore 1
	ld	s0,64(sp)
	.cfi_restore 8
	.cfi_def_cfa 2, 80
	addi	sp,sp,80
	.cfi_def_cfa_offset 0
	jr	ra
	.cfi_endproc
.LFE2:
	.size	RouteConfig, .-RouteConfig
	.section	.text.DriverCallback,"ax",@progbits
	.align	1
	.globl	DriverCallback
	.type	DriverCallback, @function
DriverCallback:
.LFB3:
	.loc 1 344 1
	.cfi_startproc
	addi	sp,sp,-80
	.cfi_def_cfa_offset 80
	sd	ra,72(sp)
	sd	s0,64(sp)
	.cfi_offset 1, -8
	.cfi_offset 8, -16
	addi	s0,sp,80
	.cfi_def_cfa 8, 0
	sd	a0,-40(s0)
	sd	a1,-48(s0)
	sd	a4,-64(s0)
	sd	a5,-72(s0)
	mv	a5,a2
	sh	a5,-50(s0)
	mv	a5,a3
	sb	a5,-51(s0)
	.loc 1 347 6
	ld	a5,-64(s0)
	bne	a5,zero,.L32
	.loc 1 347 32 discriminator 1
	ld	a4,-48(s0)
	li	a5,3
	beq	a4,a5,.L32
	.loc 1 348 8
	ld	a4,-48(s0)
	li	a5,4
	bne	a4,a5,.L33
.L32:
	.loc 1 349 7
	ld	a5,-72(s0)
	bne	a5,zero,.L34
.L33:
	.loc 1 351 12
	li	a5,-1
	slli	a5,a5,63
	addi	a5,a5,2
	j	.L35
.L34:
	.loc 1 354 19
	ld	a5,-40(s0)
	addi	a5,a5,-80
	.loc 1 354 155
	ld	a4,0(a5)
	.loc 1 354 240
	li	a5,1766670336
	addi	a5,a5,1357
	bne	a4,a5,.L36
	.loc 1 354 15 discriminator 1
	ld	a5,-40(s0)
	addi	a5,a5,-80
	sd	a5,-24(s0)
	j	.L37
.L36:
	.loc 1 354 15 is_stmt 0 discriminator 2
	sd	zero,-24(s0)
.L37:
	.loc 1 356 3 is_stmt 1
	ld	a4,-48(s0)
	li	a5,4096
	addi	a5,a5,1
	bgtu	a4,a5,.L38
	ld	a4,-48(s0)
	li	a5,4096
	bgeu	a4,a5,.L39
	ld	a4,-48(s0)
	li	a5,5
	beq	a4,a5,.L44
	ld	a4,-48(s0)
	li	a5,5
	bgtu	a4,a5,.L38
	ld	a4,-48(s0)
	li	a5,2
	bleu	a4,a5,.L44
	ld	a5,-48(s0)
	addi	a4,a5,-3
	li	a5,1
	bgtu	a4,a5,.L38
	.loc 1 359 7
	j	.L41
.L39:
	.loc 1 363 7
	lhu	a5,-50(s0)
	sext.w	a4,a5
	li	a5,32768
	addi	a5,a5,1
	bne	a4,a5,.L45
	.loc 1 368 51
	ld	a5,-24(s0)
	lw	a4,24(a5)
	.loc 1 368 22
	ld	a5,-64(s0)
	slli	a3,a4,32
	srli	a3,a3,32
	andi	a3,a3,255
	lbu	a2,0(a5)
	andi	a2,a2,0
	or	a3,a2,a3
	sb	a3,0(a5)
	srliw	a3,a4,8
	slli	a3,a3,32
	srli	a3,a3,32
	andi	a3,a3,255
	lbu	a2,1(a5)
	andi	a2,a2,0
	or	a3,a2,a3
	sb	a3,1(a5)
	srliw	a3,a4,16
	slli	a3,a3,32
	srli	a3,a3,32
	andi	a3,a3,255
	lbu	a2,2(a5)
	andi	a2,a2,0
	or	a3,a2,a3
	sb	a3,2(a5)
	srliw	a4,a4,24
	slli	a4,a4,32
	srli	a4,a4,32
	lbu	a3,3(a5)
	andi	a3,a3,0
	or	a4,a3,a4
	sb	a4,3(a5)
	.loc 1 369 11
	j	.L43
.L45:
	.loc 1 372 11
	nop
.L43:
	.loc 1 375 7
	j	.L41
.L38:
	.loc 1 384 14
	li	a5,-1
	slli	a5,a5,63
	addi	a5,a5,3
	j	.L35
.L44:
	.loc 1 381 7
	nop
.L41:
	.loc 1 387 10
	li	a5,0
.L35:
	.loc 1 388 1
	mv	a0,a5
	ld	ra,72(sp)
	.cfi_restore 1
	ld	s0,64(sp)
	.cfi_restore 8
	.cfi_def_cfa 2, 80
	addi	sp,sp,80
	.cfi_def_cfa_offset 0
	jr	ra
	.cfi_endproc
.LFE3:
	.size	DriverCallback, .-DriverCallback
	.section	.rodata
	.align	3
.LC10:
	.string	"%"
	.string	"d"
	.string	" "
	.string	"G"
	.string	"B"
	.zero	2
	.align	3
.LC11:
	.string	"mem_layout"
	.align	3
.LC12:
	.string	"U"
	.string	"n"
	.string	"k"
	.string	"n"
	.string	"o"
	.string	"w"
	.string	"n"
	.zero	2
	.align	3
.LC13:
	.string	"ddr_type"
	.align	3
.LC14:
	.string	"LPDDR4x"
	.align	3
.LC15:
	.string	"%"
	.string	"a"
	.zero	2
	.align	3
.LC16:
	.string	"ddr_cs_num"
	.align	3
.LC17:
	.string	"%"
	.string	"d"
	.zero	2
	.align	3
.LC18:
	.string	"ddr_tx_odt"
	.align	3
.LC19:
	.string	"%"
	.string	"d"
	.string	" "
	.string	"O"
	.string	"h"
	.string	"m"
	.zero	2
	.align	3
.LC20:
	.string	"%"
	.string	"d"
	.string	" "
	.string	"M"
	.string	"T"
	.string	"/"
	.string	"s"
	.zero	2
	.section	.text.UpdateMemInfo,"ax",@progbits
	.align	1
	.globl	UpdateMemInfo
	.type	UpdateMemInfo, @function
UpdateMemInfo:
.LFB4:
	.loc 1 394 1
	.cfi_startproc
	addi	sp,sp,-336
	.cfi_def_cfa_offset 336
	sd	ra,328(sp)
	sd	s0,320(sp)
	.cfi_offset 1, -8
	.cfi_offset 8, -16
	addi	s0,sp,336
	.cfi_def_cfa 8, 0
	.loc 1 395 33
	lla	a5,mPrivateData
	ld	a5,0(a5)
	sd	a5,-40(s0)
	.loc 1 402 3
	addi	a5,s0,-168
	li	a3,16
	lla	a2,.LC10
	li	a1,128
	mv	a0,a5
	call	UnicodeSPrint@plt
	.loc 1 403 3
	ld	a5,-40(s0)
	ld	a5,16(a5)
	addi	a4,s0,-168
	li	a3,0
	mv	a2,a4
	li	a1,5
	mv	a0,a5
	call	HiiSetString@plt
	.loc 1 411 36
	ld	a5,-40(s0)
	ld	a5,72(a5)
	.loc 1 411 58
	ld	a5,8(a5)
	.loc 1 411 25
	ld	a4,-40(s0)
	ld	a4,72(a4)
	addi	a2,s0,-304
	li	a3,8
	lla	a1,.LC11
	mv	a0,a4
	jalr	a5
.LVL3:
	mv	a5,a0
	.loc 1 411 6 discriminator 1
	bge	a5,zero,.L47
	.loc 1 420 5
	addi	a5,s0,-168
	lla	a2,.LC12
	li	a1,128
	mv	a0,a5
	call	UnicodeSPrint@plt
	j	.L48
.L47:
	.loc 1 422 12
	sd	zero,-24(s0)
	.loc 1 422 25
	sd	zero,-32(s0)
	.loc 1 422 5
	j	.L49
.L50:
	.loc 1 423 30
	ld	a5,-24(s0)
	slli	a5,a5,4
	addi	a5,a5,-16
	add	a5,a5,s0
	ld	a5,-280(a5)
	.loc 1 423 15
	ld	a4,-32(s0)
	add	a5,a4,a5
	sd	a5,-32(s0)
	.loc 1 422 63 discriminator 3
	ld	a5,-24(s0)
	addi	a5,a5,1
	sd	a5,-24(s0)
.L49:
	.loc 1 422 42 discriminator 1
	ld	a5,-24(s0)
	slli	a5,a5,4
	addi	a5,a5,-16
	add	a5,a5,s0
	ld	a5,-280(a5)
	.loc 1 422 56 discriminator 1
	bne	a5,zero,.L50
	.loc 1 426 5
	ld	a5,-32(s0)
	srli	a4,a5,30
	addi	a5,s0,-168
	mv	a3,a4
	lla	a2,.LC10
	li	a1,128
	mv	a0,a5
	call	UnicodeSPrint@plt
.L48:
	.loc 1 429 3
	ld	a5,-40(s0)
	ld	a5,16(a5)
	addi	a4,s0,-168
	li	a3,0
	mv	a2,a4
	li	a1,7
	mv	a0,a5
	call	HiiSetString@plt
	.loc 1 437 36
	ld	a5,-40(s0)
	ld	a5,72(a5)
	.loc 1 437 58
	ld	a5,8(a5)
	.loc 1 437 25
	ld	a4,-40(s0)
	ld	a4,72(a4)
	addi	a2,s0,-336
	li	a3,32
	lla	a1,.LC13
	mv	a0,a4
	jalr	a5
.LVL4:
	mv	a5,a0
	.loc 1 437 6 discriminator 1
	bge	a5,zero,.L51
	.loc 1 446 5
	addi	a5,s0,-168
	lla	a3,.LC14
	lla	a2,.LC15
	li	a1,128
	mv	a0,a5
	call	UnicodeSPrint@plt
	j	.L52
.L51:
	.loc 1 448 5
	addi	a4,s0,-336
	addi	a5,s0,-168
	mv	a3,a4
	lla	a2,.LC15
	li	a1,128
	mv	a0,a5
	call	UnicodeSPrint@plt
.L52:
	.loc 1 451 3
	ld	a5,-40(s0)
	ld	a5,16(a5)
	addi	a4,s0,-168
	li	a3,0
	mv	a2,a4
	li	a1,9
	mv	a0,a5
	call	HiiSetString@plt
	.loc 1 459 36
	ld	a5,-40(s0)
	ld	a5,72(a5)
	.loc 1 459 58
	ld	a5,8(a5)
	.loc 1 459 25
	ld	a4,-40(s0)
	ld	a4,72(a4)
	addi	a2,s0,-176
	li	a3,8
	lla	a1,.LC16
	mv	a0,a4
	jalr	a5
.LVL5:
	mv	a5,a0
	.loc 1 459 6 discriminator 1
	bge	a5,zero,.L53
	.loc 1 468 5
	addi	a5,s0,-168
	li	a3,2
	lla	a2,.LC17
	li	a1,128
	mv	a0,a5
	call	UnicodeSPrint@plt
	j	.L54
.L53:
	.loc 1 470 5
	ld	a4,-176(s0)
	addi	a5,s0,-168
	mv	a3,a4
	lla	a2,.LC17
	li	a1,128
	mv	a0,a5
	call	UnicodeSPrint@plt
.L54:
	.loc 1 473 3
	ld	a5,-40(s0)
	ld	a5,16(a5)
	addi	a4,s0,-168
	li	a3,0
	mv	a2,a4
	li	a1,11
	mv	a0,a5
	call	HiiSetString@plt
	.loc 1 481 36
	ld	a5,-40(s0)
	ld	a5,72(a5)
	.loc 1 481 58
	ld	a5,8(a5)
	.loc 1 481 25
	ld	a4,-40(s0)
	ld	a4,72(a4)
	addi	a2,s0,-176
	li	a3,8
	lla	a1,.LC18
	mv	a0,a4
	jalr	a5
.LVL6:
	mv	a5,a0
	.loc 1 481 6 discriminator 1
	bge	a5,zero,.L55
	.loc 1 490 5
	addi	a5,s0,-168
	li	a3,80
	lla	a2,.LC19
	li	a1,128
	mv	a0,a5
	call	UnicodeSPrint@plt
	j	.L56
.L55:
	.loc 1 492 5
	ld	a4,-176(s0)
	addi	a5,s0,-168
	mv	a3,a4
	lla	a2,.LC19
	li	a1,128
	mv	a0,a5
	call	UnicodeSPrint@plt
.L56:
	.loc 1 495 3
	ld	a5,-40(s0)
	ld	a5,16(a5)
	addi	a4,s0,-168
	li	a3,0
	mv	a2,a4
	li	a1,13
	mv	a0,a5
	call	HiiSetString@plt
	.loc 1 503 36
	ld	a5,-40(s0)
	ld	a5,72(a5)
	.loc 1 503 58
	ld	a5,8(a5)
	.loc 1 503 25
	ld	a4,-40(s0)
	ld	a4,72(a4)
	addi	a2,s0,-176
	li	a3,8
	lla	a1,.LC4
	mv	a0,a4
	jalr	a5
.LVL7:
	mv	a5,a0
	.loc 1 503 6 discriminator 1
	bge	a5,zero,.L57
	.loc 1 512 5
	addi	a4,s0,-168
	li	a5,4096
	addi	a3,a5,-1696
	lla	a2,.LC20
	li	a1,128
	mv	a0,a4
	call	UnicodeSPrint@plt
	j	.L58
.L57:
	.loc 1 514 5
	ld	a4,-176(s0)
	addi	a5,s0,-168
	mv	a3,a4
	lla	a2,.LC20
	li	a1,128
	mv	a0,a5
	call	UnicodeSPrint@plt
.L58:
	.loc 1 517 3
	ld	a5,-40(s0)
	ld	a5,16(a5)
	addi	a4,s0,-168
	li	a3,0
	mv	a2,a4
	li	a1,15
	mv	a0,a5
	call	HiiSetString@plt
	.loc 1 524 10
	li	a5,0
	.loc 1 525 1
	mv	a0,a5
	ld	ra,328(sp)
	.cfi_restore 1
	ld	s0,320(sp)
	.cfi_restore 8
	.cfi_def_cfa 2, 336
	addi	sp,sp,336
	.cfi_def_cfa_offset 0
	jr	ra
	.cfi_endproc
.LFE4:
	.size	UpdateMemInfo, .-UpdateMemInfo
	.section	.rodata
	.align	3
.LC0:
	.half	18
	.half	20
	.half	22
	.half	23
	.half	25
	.half	26
	.align	3
.LC1:
	.half	19
	.half	21
	.half	22
	.half	24
	.half	25
	.half	27
	.align	3
.LC2:
	.half	600
	.half	800
	.half	1066
	.half	1200
	.half	1600
	.half	2400
	.align	3
.LC3:
	.half	666
	.half	888
	.half	1066
	.half	1333
	.half	1600
	.half	2666
	.section	.text.AddMemorySpeedSelection,"ax",@progbits
	.align	1
	.globl	AddMemorySpeedSelection
	.type	AddMemorySpeedSelection, @function
AddMemorySpeedSelection:
.LFB5:
	.loc 1 531 1
	.cfi_startproc
	addi	sp,sp,-160
	.cfi_def_cfa_offset 160
	sd	ra,152(sp)
	sd	s0,144(sp)
	.cfi_offset 1, -8
	.cfi_offset 8, -16
	addi	s0,sp,160
	.cfi_def_cfa 8, 0
	sd	a0,-136(s0)
	.loc 1 533 33
	lla	a5,mPrivateData
	ld	a5,0(a5)
	sd	a5,-48(s0)
	.loc 1 538 16
	lla	a5,.LC0
	ld	a4,0(a5)
	sd	a4,-80(s0)
	lw	a5,8(a5)
	sw	a5,-72(s0)
	.loc 1 546 16
	lla	a5,.LC1
	ld	a4,0(a5)
	sd	a4,-96(s0)
	lw	a5,8(a5)
	sw	a5,-88(s0)
	.loc 1 554 16
	lla	a5,.LC2
	ld	a4,0(a5)
	sd	a4,-112(s0)
	lw	a5,8(a5)
	sw	a5,-104(s0)
	.loc 1 555 16
	lla	a5,.LC3
	ld	a4,0(a5)
	sd	a4,-128(s0)
	lw	a5,8(a5)
	sw	a5,-120(s0)
	.loc 1 562 37
	ld	a5,-48(s0)
	ld	a5,72(a5)
	.loc 1 562 59
	ld	a5,8(a5)
	.loc 1 562 26
	ld	a4,-48(s0)
	ld	a4,72(a4)
	addi	a2,s0,-64
	li	a3,8
	lla	a1,.LC4
	mv	a0,a4
	jalr	a5
.LVL8:
	mv	a5,a0
	.loc 1 562 6 discriminator 1
	blt	a5,zero,.L61
	.loc 1 570 16
	ld	a4,-64(s0)
	.loc 1 570 7
	li	a5,4096
	addi	a5,a5,-1430
	bne	a4,a5,.L61
	.loc 1 572 22
	addi	a5,s0,-96
	sd	a5,-32(s0)
	.loc 1 573 14
	addi	a5,s0,-128
	sd	a5,-40(s0)
	j	.L62
.L61:
	.loc 1 575 22
	addi	a5,s0,-80
	sd	a5,-32(s0)
	.loc 1 576 14
	addi	a5,s0,-112
	sd	a5,-40(s0)
.L62:
	.loc 1 582 25
	call	HiiAllocateOpCodeHandle@plt
	sd	a0,-56(s0)
	.loc 1 585 10
	sd	zero,-24(s0)
	.loc 1 585 3
	j	.L63
.L64:
	.loc 1 588 49
	ld	a5,-24(s0)
	slli	a5,a5,1
	ld	a4,-32(s0)
	add	a5,a4,a5
	.loc 1 586 5
	lhu	a1,0(a5)
	.loc 1 591 41
	ld	a5,-24(s0)
	slli	a5,a5,1
	ld	a4,-40(s0)
	add	a5,a4,a5
	lhu	a5,0(a5)
	.loc 1 586 5
	mv	a4,a5
	li	a3,2
	li	a2,0
	ld	a0,-56(s0)
	call	HiiCreateOneOfOptionOpCode@plt
	.loc 1 585 80 discriminator 3
	ld	a5,-24(s0)
	addi	a5,a5,1
	sd	a5,-24(s0)
.L63:
	.loc 1 585 17 discriminator 1
	ld	a4,-24(s0)
	li	a5,5
	bleu	a4,a5,.L64
	.loc 1 595 3
	sd	zero,8(sp)
	ld	a5,-56(s0)
	sd	a5,0(sp)
	li	a7,2
	li	a6,20
	li	a5,17
	li	a4,16
	li	a3,0
	li	a2,4096
	addi	a2,a2,564
	li	a1,32768
	addi	a1,a1,1
	ld	a0,-136(s0)
	call	HiiCreateOneOfOpCode@plt
	.loc 1 608 3
	ld	a0,-56(s0)
	call	HiiFreeOpCodeHandle@plt
	.loc 1 610 10
	li	a5,0
	.loc 1 611 1
	mv	a0,a5
	ld	ra,152(sp)
	.cfi_restore 1
	ld	s0,144(sp)
	.cfi_restore 8
	.cfi_def_cfa 2, 160
	addi	sp,sp,160
	.cfi_def_cfa_offset 0
	jr	ra
	.cfi_endproc
.LFE5:
	.size	AddMemorySpeedSelection, .-AddMemorySpeedSelection
	.section	.text.MemInfoScreenSetup,"ax",@progbits
	.align	1
	.globl	MemInfoScreenSetup
	.type	MemInfoScreenSetup, @function
MemInfoScreenSetup:
.LFB6:
	.loc 1 617 1
	.cfi_startproc
	addi	sp,sp,-64
	.cfi_def_cfa_offset 64
	sd	ra,56(sp)
	sd	s0,48(sp)
	.cfi_offset 1, -8
	.cfi_offset 8, -16
	addi	s0,sp,64
	.cfi_def_cfa 8, 0
	.loc 1 618 33
	lla	a5,mPrivateData
	ld	a5,0(a5)
	sd	a5,-24(s0)
	.loc 1 625 12
	call	UpdateMemInfo
	sd	a0,-32(s0)
	.loc 1 626 34
	ld	a5,-32(s0)
	.loc 1 626 6
	bge	a5,zero,.L67
	.loc 1 627 12
	ld	a5,-32(s0)
	j	.L68
.L67:
	.loc 1 633 12
	ld	a5,-24(s0)
	addi	a5,a5,24
	mv	a0,a5
	call	MemInfoNvparamGet@plt
	sd	a0,-32(s0)
	.loc 1 634 34
	ld	a5,-32(s0)
	.loc 1 634 6
	bge	a5,zero,.L69
	.loc 1 635 12
	ld	a5,-32(s0)
	j	.L68
.L69:
	.loc 1 638 3
	ld	a5,-24(s0)
	ld	a4,72(a5)
	ld	a5,-24(s0)
	lw	a5,24(a5)
	mv	a1,a5
	mv	a0,a4
	call	SetDdrDatarate
	.loc 1 643 23
	call	HiiAllocateOpCodeHandle@plt
	sd	a0,-40(s0)
	.loc 1 646 21
	call	HiiAllocateOpCodeHandle@plt
	sd	a0,-48(s0)
	.loc 1 652 38
	li	a3,21
	li	a2,0
	la	a1,gEfiIfrTianoGuid
	ld	a0,-40(s0)
	call	HiiCreateGuidOpCode@plt
	sd	a0,-56(s0)
	.loc 1 658 28
	ld	a5,-56(s0)
	sb	zero,18(a5)
	.loc 1 659 22
	ld	a5,-56(s0)
	lbu	a4,19(a5)
	andi	a4,a4,0
	ori	a4,a4,35
	sb	a4,19(a5)
	lbu	a4,20(a5)
	andi	a4,a4,0
	ori	a4,a4,34
	sb	a4,20(a5)
	.loc 1 664 36
	li	a3,21
	li	a2,0
	la	a1,gEfiIfrTianoGuid
	ld	a0,-48(s0)
	call	HiiCreateGuidOpCode@plt
	sd	a0,-64(s0)
	.loc 1 670 26
	ld	a5,-64(s0)
	sb	zero,18(a5)
	.loc 1 671 20
	ld	a5,-64(s0)
	lbu	a4,19(a5)
	andi	a4,a4,0
	ori	a4,a4,36
	sb	a4,19(a5)
	lbu	a4,20(a5)
	andi	a4,a4,0
	ori	a4,a4,34
	sb	a4,20(a5)
	.loc 1 676 3
	li	a3,5
	li	a2,4
	li	a1,4
	ld	a0,-40(s0)
	call	HiiCreateTextOpCode@plt
	.loc 1 686 3
	li	a3,7
	li	a2,6
	li	a1,6
	ld	a0,-40(s0)
	call	HiiCreateTextOpCode@plt
	.loc 1 696 3
	li	a3,9
	li	a2,8
	li	a1,8
	ld	a0,-40(s0)
	call	HiiCreateTextOpCode@plt
	.loc 1 706 3
	li	a3,11
	li	a2,10
	li	a1,10
	ld	a0,-40(s0)
	call	HiiCreateTextOpCode@plt
	.loc 1 716 3
	li	a3,13
	li	a2,12
	li	a1,12
	ld	a0,-40(s0)
	call	HiiCreateTextOpCode@plt
	.loc 1 726 3
	li	a3,15
	li	a2,14
	li	a1,14
	ld	a0,-40(s0)
	call	HiiCreateTextOpCode@plt
	.loc 1 733 12
	ld	a0,-40(s0)
	call	AddMemorySpeedSelection
	sd	a0,-32(s0)
	.loc 1 736 3
	ld	a5,-24(s0)
	ld	a0,16(a5)
	ld	a4,-48(s0)
	ld	a3,-40(s0)
	li	a5,4096
	addi	a2,a5,565
	lla	a1,gMemInfoFormSetGuid
	call	HiiUpdateForm@plt
	.loc 1 744 3
	ld	a0,-40(s0)
	call	HiiFreeOpCodeHandle@plt
	.loc 1 745 3
	ld	a0,-48(s0)
	call	HiiFreeOpCodeHandle@plt
	.loc 1 747 10
	ld	a5,-32(s0)
.L68:
	.loc 1 748 1
	mv	a0,a5
	ld	ra,56(sp)
	.cfi_restore 1
	ld	s0,48(sp)
	.cfi_restore 8
	.cfi_def_cfa 2, 64
	addi	sp,sp,64
	.cfi_def_cfa_offset 0
	jr	ra
	.cfi_endproc
.LFE6:
	.size	MemInfoScreenSetup, .-MemInfoScreenSetup
	.section	.text.MemInfoScreenInitialize,"ax",@progbits
	.align	1
	.globl	MemInfoScreenInitialize
	.type	MemInfoScreenInitialize, @function
MemInfoScreenInitialize:
.LFB7:
	.loc 1 755 1
	.cfi_startproc
	addi	sp,sp,-80
	.cfi_def_cfa_offset 80
	sd	ra,72(sp)
	sd	s0,64(sp)
	.cfi_offset 1, -8
	.cfi_offset 8, -16
	addi	s0,sp,80
	.cfi_def_cfa 8, 0
	sd	a0,-72(s0)
	sd	a1,-80(s0)
	.loc 1 765 18
	li	a0,104
	call	AllocateZeroPool@plt
	mv	a4,a0
	.loc 1 765 16 discriminator 1
	lla	a5,mPrivateData
	sd	a4,0(a5)
	.loc 1 766 20
	lla	a5,mPrivateData
	ld	a5,0(a5)
	.loc 1 766 6
	bne	a5,zero,.L71
	.loc 1 767 12
	li	a5,-1
	slli	a5,a5,63
	addi	a5,a5,9
	j	.L77
.L71:
	.loc 1 770 15
	lla	a5,mPrivateData
	ld	a5,0(a5)
	.loc 1 770 27
	li	a4,1766670336
	addi	a4,a4,1357
	sd	a4,0(a5)
	.loc 1 772 15
	lla	a5,mPrivateData
	ld	a5,0(a5)
	.loc 1 772 44
	lla	a4,ExtractConfig
	sd	a4,80(a5)
	.loc 1 773 15
	lla	a5,mPrivateData
	ld	a5,0(a5)
	.loc 1 773 42
	lla	a4,RouteConfig
	sd	a4,88(a5)
	.loc 1 774 15
	lla	a5,mPrivateData
	ld	a5,0(a5)
	.loc 1 774 39
	lla	a4,DriverCallback
	sd	a4,96(a5)
	.loc 1 779 15
	la	a5,gBS
	ld	a5,0(a5)
	ld	a5,320(a5)
	.loc 1 779 12
	addi	a4,s0,-56
	mv	a2,a4
	li	a1,0
	la	a0,gEfiHiiConfigRoutingProtocolGuid
	jalr	a5
.LVL9:
	sd	a0,-24(s0)
	.loc 1 780 34
	ld	a5,-24(s0)
	.loc 1 780 6
	bge	a5,zero,.L73
	.loc 1 781 12
	ld	a5,-24(s0)
	j	.L77
.L73:
	.loc 1 784 15
	lla	a5,mPrivateData
	ld	a5,0(a5)
	.loc 1 784 34
	ld	a4,-56(s0)
	sd	a4,48(a5)
	.loc 1 786 15
	la	a5,gBS
	ld	a5,0(a5)
	ld	a6,328(a5)
	.loc 1 791 65
	lla	a5,mPrivateData
	ld	a5,0(a5)
	.loc 1 786 12
	addi	a4,a5,80
	li	a5,0
	la	a3,gEfiHiiConfigAccessProtocolGuid
	lla	a2,mHiiVendorDevicePath
	la	a1,gEfiDevicePathProtocolGuid
	lla	a0,DriverHandle
	jalr	a6
.LVL10:
	sd	a0,-24(s0)
	.loc 1 796 15
	lla	a5,mPrivateData
	ld	a5,0(a5)
	.loc 1 796 30
	lla	a4,DriverHandle
	ld	a4,0(a4)
	sd	a4,8(a5)
	.loc 1 801 15
	lla	a5,DriverHandle
	ld	a5,0(a5)
	li	a4,0
	la	a3,MemInfoScreenVfrBin
	la	a2,MemInfoDxeStrings
	mv	a1,a5
	lla	a0,gMemInfoFormSetGuid
	call	HiiAddPackages@plt
	sd	a0,-32(s0)
	.loc 1 808 6
	ld	a5,-32(s0)
	bne	a5,zero,.L74
	.loc 1 809 12
	li	a5,-1
	slli	a5,a5,63
	addi	a5,a5,9
	j	.L77
.L74:
	.loc 1 812 15
	lla	a5,mPrivateData
	ld	a5,0(a5)
	.loc 1 812 27
	ld	a4,-32(s0)
	sd	a4,16(a5)
	.loc 1 814 15
	la	a5,gBS
	ld	a5,0(a5)
	ld	a5,320(a5)
	.loc 1 817 55
	lla	a4,mPrivateData
	ld	a4,0(a4)
	.loc 1 817 42
	addi	a4,a4,72
	.loc 1 814 12
	mv	a2,a4
	li	a1,0
	la	a0,gSpacemitPlatformInfoProtocolGuid
	jalr	a5
.LVL11:
	sd	a0,-24(s0)
	.loc 1 819 34
	ld	a5,-24(s0)
	.loc 1 819 6
	bge	a5,zero,.L75
	.loc 1 821 5
	ld	a0,-72(s0)
	call	MemInfoScreenUnload
	.loc 1 822 12
	ld	a5,-24(s0)
	j	.L77
.L75:
	.loc 1 828 22
	lla	a5,DriverHandle
	ld	a5,0(a5)
	mv	a2,a5
	lla	a1,.LC5
	lla	a0,gMemInfoFormSetGuid
	call	HiiConstructConfigHdr@plt
	sd	a0,-40(s0)
	.loc 1 838 16
	ld	a0,-40(s0)
	call	HiiValidateSettings@plt
	mv	a5,a0
	sb	a5,-41(s0)
	.loc 1 839 6
	lbu	a5,-41(s0)
	andi	a5,a5,0xff
	bne	a5,zero,.L76
	.loc 1 840 5
	ld	a0,-72(s0)
	call	MemInfoScreenUnload
	.loc 1 841 12
	li	a5,-1
	slli	a5,a5,63
	addi	a5,a5,2
	j	.L77
.L76:
	.loc 1 844 3
	ld	a0,-40(s0)
	call	FreePool@plt
	.loc 1 846 12
	call	MemInfoScreenSetup
	sd	a0,-24(s0)
	.loc 1 849 10
	li	a5,0
.L77:
	.loc 1 850 1
	mv	a0,a5
	ld	ra,72(sp)
	.cfi_restore 1
	ld	s0,64(sp)
	.cfi_restore 8
	.cfi_def_cfa 2, 80
	addi	sp,sp,80
	.cfi_def_cfa_offset 0
	jr	ra
	.cfi_endproc
.LFE7:
	.size	MemInfoScreenInitialize, .-MemInfoScreenInitialize
	.section	.text.MemInfoScreenUnload,"ax",@progbits
	.align	1
	.globl	MemInfoScreenUnload
	.type	MemInfoScreenUnload, @function
MemInfoScreenUnload:
.LFB8:
	.loc 1 856 1
	.cfi_startproc
	addi	sp,sp,-32
	.cfi_def_cfa_offset 32
	sd	ra,24(sp)
	sd	s0,16(sp)
	.cfi_offset 1, -8
	.cfi_offset 8, -16
	addi	s0,sp,32
	.cfi_def_cfa 8, 0
	sd	a0,-24(s0)
	.loc 1 859 20
	lla	a5,DriverHandle
	ld	a5,0(a5)
	.loc 1 859 6
	beq	a5,zero,.L79
	.loc 1 860 8
	la	a5,gBS
	ld	a5,0(a5)
	ld	a6,336(a5)
	.loc 1 860 5
	lla	a5,DriverHandle
	ld	a0,0(a5)
	.loc 1 865 60
	lla	a5,mPrivateData
	ld	a5,0(a5)
	.loc 1 860 5
	addi	a4,a5,80
	li	a5,0
	la	a3,gEfiHiiConfigAccessProtocolGuid
	lla	a2,mHiiVendorDevicePath
	la	a1,gEfiDevicePathProtocolGuid
	jalr	a6
.LVL12:
	.loc 1 868 18
	lla	a5,DriverHandle
	sd	zero,0(a5)
.L79:
	.loc 1 871 19
	lla	a5,mPrivateData
	ld	a5,0(a5)
	ld	a5,16(a5)
	.loc 1 871 6
	beq	a5,zero,.L80
	.loc 1 872 36
	lla	a5,mPrivateData
	ld	a5,0(a5)
	.loc 1 872 5
	ld	a5,16(a5)
	mv	a0,a5
	call	HiiRemovePackages@plt
.L80:
	.loc 1 875 3
	lla	a5,mPrivateData
	ld	a5,0(a5)
	mv	a0,a5
	call	FreePool@plt
	.loc 1 876 16
	lla	a5,mPrivateData
	sd	zero,0(a5)
	.loc 1 878 10
	li	a5,0
	.loc 1 879 1
	mv	a0,a5
	ld	ra,24(sp)
	.cfi_restore 1
	ld	s0,16(sp)
	.cfi_restore 8
	.cfi_def_cfa 2, 32
	addi	sp,sp,32
	.cfi_def_cfa_offset 0
	jr	ra
	.cfi_endproc
.LFE8:
	.size	MemInfoScreenUnload, .-MemInfoScreenUnload
	.text
.Letext0:
	.file 2 "/home/kapoagaeming/Downloads/spacemit-image-builder/components/edk2/MdePkg/Include/RiscV64/ProcessorBind.h"
	.file 3 "/home/kapoagaeming/Downloads/spacemit-image-builder/components/edk2/MdePkg/Include/Base.h"
	.file 4 "/home/kapoagaeming/Downloads/spacemit-image-builder/components/edk2/MdePkg/Include/Uefi/UefiBaseType.h"
	.file 5 "/home/kapoagaeming/Downloads/spacemit-image-builder/components/edk2/MdePkg/Include/Uefi/UefiMultiPhase.h"
	.file 6 "/home/kapoagaeming/Downloads/spacemit-image-builder/components/edk2/MdePkg/Include/Protocol/DevicePath.h"
	.file 7 "/home/kapoagaeming/Downloads/spacemit-image-builder/components/edk2/MdePkg/Include/Protocol/SimpleTextIn.h"
	.file 8 "/home/kapoagaeming/Downloads/spacemit-image-builder/components/edk2/MdePkg/Include/Protocol/SimpleTextOut.h"
	.file 9 "/home/kapoagaeming/Downloads/spacemit-image-builder/components/edk2/MdePkg/Include/Uefi/UefiSpec.h"
	.file 10 "/home/kapoagaeming/Downloads/spacemit-image-builder/components/edk2/MdePkg/Include/Uefi/UefiInternalFormRepresentation.h"
	.file 11 "/home/kapoagaeming/Downloads/spacemit-image-builder/components/Build/Milk-V-Jupiter/RELEASE_GCC5/RISCV64/Silicon/Spacemit/K1/Drivers/MemInfoDxe/MemInfoDxe/DEBUG/AutoGen.h"
	.file 12 "/home/kapoagaeming/Downloads/spacemit-image-builder/components/Build/Milk-V-Jupiter/RELEASE_GCC5/RISCV64/Silicon/Spacemit/K1/Drivers/MemInfoDxe/MemInfoDxe/DEBUG/MemInfoDxeStrDefs.h"
	.file 13 "/home/kapoagaeming/Downloads/spacemit-image-builder/components/edk2/MdeModulePkg/Include/Guid/MdeModuleHii.h"
	.file 14 "/home/kapoagaeming/Downloads/spacemit-image-builder/components/edk2/MdePkg/Include/Protocol/FormBrowser2.h"
	.file 15 "/home/kapoagaeming/Downloads/spacemit-image-builder/components/edk2/MdePkg/Include/Protocol/HiiConfigAccess.h"
	.file 16 "/home/kapoagaeming/Downloads/spacemit-image-builder/components/edk2/MdePkg/Include/Protocol/HiiConfigKeyword.h"
	.file 17 "/home/kapoagaeming/Downloads/spacemit-image-builder/components/edk2/MdePkg/Include/Protocol/HiiConfigRouting.h"
	.file 18 "/home/kapoagaeming/Downloads/spacemit-image-builder/components/edk2/MdePkg/Include/Protocol/HiiDatabase.h"
	.file 19 "/home/kapoagaeming/Downloads/spacemit-image-builder/components/edk2/MdePkg/Include/Protocol/HiiFont.h"
	.file 20 "/home/kapoagaeming/Downloads/spacemit-image-builder/components/edk2/MdePkg/Include/Protocol/HiiString.h"
	.file 21 "/home/kapoagaeming/Downloads/spacemit-image-builder/components/edk2-platforms/Silicon/Spacemit/Include/Protocol/PlatformInfo.h"
	.file 22 "/home/kapoagaeming/Downloads/spacemit-image-builder/components/edk2-platforms/Silicon/Spacemit/K1/Drivers/MemInfoDxe/MemInfoScreenNVDataStruct.h"
	.file 23 "/home/kapoagaeming/Downloads/spacemit-image-builder/components/edk2-platforms/Silicon/Spacemit/K1/Drivers/MemInfoDxe/MemInfoScreen.h"
	.file 24 "/home/kapoagaeming/Downloads/spacemit-image-builder/components/edk2/MdeModulePkg/Include/Library/HiiLib.h"
	.file 25 "/home/kapoagaeming/Downloads/spacemit-image-builder/components/edk2/MdePkg/Include/Library/BaseLib.h"
	.file 26 "/home/kapoagaeming/Downloads/spacemit-image-builder/components/edk2/MdePkg/Include/Library/MemoryAllocationLib.h"
	.file 27 "/home/kapoagaeming/Downloads/spacemit-image-builder/components/edk2/MdePkg/Include/Library/PrintLib.h"
	.file 28 "/home/kapoagaeming/Downloads/spacemit-image-builder/components/edk2/MdePkg/Include/Library/UefiBootServicesTableLib.h"
	.section	.note.GNU-stack,"",@progbits
