	.file	"IfrParse.c"
	.option pic
	.option norelax
	.attribute arch, "rv64i2p1_m2p0_a2p1_f2p2_d2p2_c2p0_zicsr2p0_zifencei2p0_zmmul1p0_zaamo1p0_zalrsc1p0_zca1p0_zcd1p0"
	.attribute unaligned_access, 0
	.attribute stack_align, 16
	.text
.Ltext0:
	.cfi_sections	.debug_frame
	.file 0 "/home/kapoagaeming/Downloads/spacemit-image-builder/components/Build/Milk-V-Jupiter/RELEASE_GCC5/RISCV64/MdeModulePkg/Universal/SetupBrowserDxe/SetupBrowserDxe" "/home/kapoagaeming/Downloads/spacemit-image-builder/components/edk2/MdeModulePkg/Universal/SetupBrowserDxe/IfrParse.c"
	.globl	mStatementIndex
	.section	.bss.mStatementIndex,"aw",@nobits
	.align	3
	.type	mStatementIndex, @object
	.size	mStatementIndex, 8
mStatementIndex:
	.zero	8
	.globl	mExpressionOpCodeIndex
	.section	.bss.mExpressionOpCodeIndex,"aw",@nobits
	.align	3
	.type	mExpressionOpCodeIndex, @object
	.size	mExpressionOpCodeIndex, 8
mExpressionOpCodeIndex:
	.zero	8
	.globl	mUsedQuestionId
	.section	.bss.mUsedQuestionId,"aw",@nobits
	.align	1
	.type	mUsedQuestionId, @object
	.size	mUsedQuestionId, 2
mUsedQuestionId:
	.zero	2
	.section	.text.CreateStatement,"ax",@progbits
	.align	1
	.globl	CreateStatement
	.type	CreateStatement, @function
CreateStatement:
.LFB0:
	.file 1 "/home/kapoagaeming/Downloads/spacemit-image-builder/components/edk2/MdeModulePkg/Universal/SetupBrowserDxe/IfrParse.c"
	.loc 1 32 1
	.cfi_startproc
	addi	sp,sp,-96
	.cfi_def_cfa_offset 96
	sd	ra,88(sp)
	sd	s0,80(sp)
	sd	s1,72(sp)
	.cfi_offset 1, -8
	.cfi_offset 8, -16
	.cfi_offset 9, -24
	addi	s0,sp,96
	.cfi_def_cfa 8, 0
	sd	a0,-72(s0)
	sd	a1,-80(s0)
	sd	a2,-88(s0)
	.loc 1 44 23
	ld	a5,-80(s0)
	ld	a4,184(a5)
	.loc 1 44 40
	lla	a5,mStatementIndex
	ld	a3,0(a5)
	li	a5,328
	mul	a5,a3,a5
	.loc 1 44 13
	add	a5,a4,a5
	sd	a5,-40(s0)
	.loc 1 45 18
	lla	a5,mStatementIndex
	ld	a5,0(a5)
	addi	a4,a5,1
	lla	a5,mStatementIndex
	sd	a4,0(a5)
	.loc 1 47 3
	ld	a5,-40(s0)
	addi	a5,a5,208
	mv	a0,a5
	call	InitializeListHead@plt
	.loc 1 48 3
	ld	a5,-40(s0)
	addi	a5,a5,224
	mv	a0,a5
	call	InitializeListHead@plt
	.loc 1 49 3
	ld	a5,-40(s0)
	addi	a5,a5,256
	mv	a0,a5
	call	InitializeListHead@plt
	.loc 1 50 3
	ld	a5,-40(s0)
	addi	a5,a5,272
	mv	a0,a5
	call	InitializeListHead@plt
	.loc 1 51 3
	ld	a5,-40(s0)
	addi	a5,a5,288
	mv	a0,a5
	call	InitializeListHead@plt
	.loc 1 53 24
	ld	a5,-40(s0)
	li	a4,1096044544
	addi	a4,a4,838
	sd	a4,0(a5)
	.loc 1 55 57
	ld	a5,-72(s0)
	lbu	a4,0(a5)
	.loc 1 55 22
	ld	a5,-40(s0)
	sb	a4,24(a5)
	.loc 1 56 21
	ld	a5,-40(s0)
	ld	a4,-72(s0)
	sd	a4,32(a5)
	.loc 1 57 38
	ld	a5,-40(s0)
	sb	zero,73(a5)
	.loc 1 59 16
	ld	a5,-72(s0)
	addi	a5,a5,2
	sd	a5,-48(s0)
	.loc 1 60 12
	ld	a5,-40(s0)
	addi	a5,a5,40
	.loc 1 60 32
	ld	a4,-48(s0)
	.loc 1 60 3
	li	a2,2
	mv	a1,a4
	mv	a0,a5
	call	CopyMem@plt
	.loc 1 61 12
	ld	a5,-40(s0)
	addi	a4,a5,42
	.loc 1 61 30
	ld	a5,-48(s0)
	addi	a5,a5,2
	.loc 1 61 3
	li	a2,2
	mv	a1,a5
	mv	a0,a4
	call	CopyMem@plt
	.loc 1 63 26
	li	a0,2
	call	GetConditionalExpressionCount@plt
	sd	a0,-56(s0)
	.loc 1 64 6
	ld	a5,-56(s0)
	ble	a5,zero,.L2
	.loc 1 70 55
	ld	a5,-56(s0)
	addi	a5,a5,2
	slli	a5,a5,3
	.loc 1 69 53
	mv	a0,a5
	call	AllocatePool@plt
	mv	a4,a0
	.loc 1 69 27 discriminator 1
	ld	a5,-40(s0)
	sd	a4,304(a5)
	.loc 1 73 14
	ld	a5,-40(s0)
	ld	a5,304(a5)
	.loc 1 73 36
	ld	a4,-56(s0)
	.loc 1 73 34
	sd	a4,8(a5)
	.loc 1 74 14
	ld	a5,-40(s0)
	ld	a5,304(a5)
	.loc 1 74 38
	li	a4,1381515264
	addi	a4,a4,1350
	sd	a4,0(a5)
	.loc 1 75 23
	ld	a5,-40(s0)
	ld	a5,304(a5)
	.loc 1 75 35
	addi	s1,a5,16
	.loc 1 75 49
	li	a0,2
	call	GetConditionalExpressionList@plt
	mv	a4,a0
	.loc 1 75 5 discriminator 1
	ld	a5,-56(s0)
	.loc 1 75 98 discriminator 1
	slli	a5,a5,3
	.loc 1 75 5 discriminator 1
	mv	a2,a5
	mv	a1,a4
	mv	a0,s1
	call	CopyMem@plt
.L2:
	.loc 1 81 6
	ld	a5,-88(s0)
	bne	a5,zero,.L3
	.loc 1 82 5
	ld	a5,-80(s0)
	addi	a4,a5,216
	ld	a5,-40(s0)
	addi	a5,a5,8
	mv	a1,a5
	mv	a0,a4
	call	InsertTailList@plt
	j	.L4
.L3:
	.loc 1 84 5
	ld	a5,-88(s0)
	addi	a4,a5,88
	ld	a5,-40(s0)
	addi	a5,a5,8
	mv	a1,a5
	mv	a0,a4
	call	InsertTailList@plt
.L4:
	.loc 1 87 10
	ld	a5,-40(s0)
	.loc 1 88 1
	mv	a0,a5
	ld	ra,88(sp)
	.cfi_restore 1
	ld	s0,80(sp)
	.cfi_restore 8
	.cfi_def_cfa 2, 96
	ld	s1,72(sp)
	.cfi_restore 9
	addi	sp,sp,96
	.cfi_def_cfa_offset 0
	jr	ra
	.cfi_endproc
.LFE0:
	.size	CreateStatement, .-CreateStatement
	.section	.text.CreateQuestion,"ax",@progbits
	.align	1
	.globl	CreateQuestion
	.type	CreateQuestion, @function
CreateQuestion:
.LFB1:
	.loc 1 106 1
	.cfi_startproc
	addi	sp,sp,-96
	.cfi_def_cfa_offset 96
	sd	ra,88(sp)
	sd	s0,80(sp)
	.cfi_offset 1, -8
	.cfi_offset 8, -16
	addi	s0,sp,96
	.cfi_def_cfa 8, 0
	sd	a0,-72(s0)
	sd	a1,-80(s0)
	sd	a2,-88(s0)
	.loc 1 114 15
	ld	a2,-88(s0)
	ld	a1,-80(s0)
	ld	a0,-72(s0)
	call	CreateStatement
	sd	a0,-56(s0)
	.loc 1 115 6
	ld	a5,-56(s0)
	bne	a5,zero,.L7
	.loc 1 116 12
	li	a5,0
	j	.L8
.L7:
	.loc 1 119 15
	ld	a5,-72(s0)
	addi	a5,a5,2
	sd	a5,-64(s0)
	.loc 1 120 12
	ld	a5,-56(s0)
	addi	a4,a5,48
	.loc 1 120 36
	ld	a5,-64(s0)
	addi	a5,a5,4
	.loc 1 120 3
	li	a2,2
	mv	a1,a5
	mv	a0,a4
	call	CopyMem@plt
	.loc 1 121 12
	ld	a5,-56(s0)
	addi	a4,a5,50
	.loc 1 121 36
	ld	a5,-64(s0)
	addi	a5,a5,6
	.loc 1 121 3
	li	a2,2
	mv	a1,a5
	mv	a0,a4
	call	CopyMem@plt
	.loc 1 122 12
	ld	a5,-56(s0)
	addi	a4,a5,64
	.loc 1 122 48
	ld	a5,-64(s0)
	addi	a5,a5,8
	.loc 1 122 3
	li	a2,2
	mv	a1,a5
	mv	a0,a4
	call	CopyMem@plt
	.loc 1 124 41
	ld	a5,-64(s0)
	lbu	a4,10(a5)
	.loc 1 124 28
	ld	a5,-56(s0)
	sb	a4,72(a5)
	.loc 1 126 16
	ld	a5,-56(s0)
	lhu	a5,50(a5)
	.loc 1 126 6
	bne	a5,zero,.L9
	.loc 1 130 12
	ld	a5,-56(s0)
	j	.L8
.L9:
	.loc 1 136 24
	ld	a5,-80(s0)
	addi	a5,a5,232
	.loc 1 136 10
	mv	a0,a5
	call	GetFirstNode@plt
	sd	a0,-24(s0)
	.loc 1 137 9
	j	.L10
.L15:
	.loc 1 138 17
	ld	a5,-24(s0)
	addi	a5,a5,-8
	.loc 1 138 119
	ld	a4,0(a5)
	.loc 1 138 204
	li	a5,1196707840
	addi	a5,a5,838
	bne	a4,a5,.L11
	.loc 1 138 13 discriminator 1
	ld	a5,-24(s0)
	addi	a5,a5,-8
	sd	a5,-32(s0)
	j	.L12
.L11:
	.loc 1 138 13 is_stmt 0 discriminator 2
	sd	zero,-32(s0)
.L12:
	.loc 1 140 16 is_stmt 1
	ld	a5,-32(s0)
	lhu	a4,40(a5)
	.loc 1 140 41
	ld	a5,-56(s0)
	lhu	a5,50(a5)
	.loc 1 140 8
	sext.w	a4,a4
	sext.w	a5,a5
	bne	a4,a5,.L13
	.loc 1 141 35
	ld	a5,-32(s0)
	ld	a4,48(a5)
	.loc 1 141 26
	ld	a5,-56(s0)
	sd	a4,56(a5)
	.loc 1 142 7
	j	.L14
.L13:
	.loc 1 145 25
	ld	a5,-80(s0)
	addi	a5,a5,232
	.loc 1 145 12
	ld	a1,-24(s0)
	mv	a0,a5
	call	GetNextNode@plt
	sd	a0,-24(s0)
.L10:
	.loc 1 137 19
	ld	a5,-80(s0)
	addi	a5,a5,232
	.loc 1 137 11
	ld	a1,-24(s0)
	mv	a0,a5
	call	IsNull@plt
	mv	a5,a0
	.loc 1 137 10 discriminator 1
	beq	a5,zero,.L15
.L14:
	.loc 1 153 17
	ld	a5,-56(s0)
	ld	a5,56(a5)
	.loc 1 153 26
	lbu	a5,24(a5)
	.loc 1 153 6
	mv	a4,a5
	li	a5,1
	beq	a4,a5,.L16
	.loc 1 154 17
	ld	a5,-56(s0)
	ld	a5,56(a5)
	.loc 1 154 26
	lbu	a5,24(a5)
	.loc 1 153 39 discriminator 1
	mv	a4,a5
	li	a5,2
	bne	a4,a5,.L17
.L16:
	.loc 1 156 31
	ld	a5,-56(s0)
	lhu	a4,64(a5)
	ld	a5,-80(s0)
	ld	a5,40(a5)
	mv	a1,a5
	mv	a0,a4
	call	GetToken@plt
	mv	a4,a0
	.loc 1 156 29 discriminator 1
	ld	a5,-56(s0)
	sd	a4,80(a5)
	.loc 1 159 18
	ld	a5,-56(s0)
	ld	a5,56(a5)
	.loc 1 159 27
	lbu	a5,24(a5)
	.loc 1 159 8
	mv	a4,a5
	li	a5,1
	bne	a4,a5,.L17
	.loc 1 163 12
	sb	zero,-41(s0)
	.loc 1 164 35
	ld	a5,-56(s0)
	ld	a5,56(a5)
	.loc 1 164 25
	addi	a5,a5,88
	.loc 1 164 12
	mv	a0,a5
	call	IsListEmpty@plt
	mv	a5,a0
	.loc 1 164 10 discriminator 1
	bne	a5,zero,.L18
	.loc 1 165 40
	ld	a5,-56(s0)
	ld	a5,56(a5)
	.loc 1 165 30
	addi	a5,a5,88
	.loc 1 165 16
	mv	a0,a5
	call	GetFirstNode@plt
	sd	a0,-24(s0)
	.loc 1 166 15
	j	.L19
.L23:
	.loc 1 167 29
	ld	a5,-24(s0)
	addi	a5,a5,-8
	.loc 1 167 131
	ld	a4,0(a5)
	.loc 1 167 216
	li	a5,1414746112
	addi	a5,a5,1614
	bne	a4,a5,.L20
	.loc 1 167 25 discriminator 1
	ld	a5,-24(s0)
	addi	a5,a5,-8
	sd	a5,-40(s0)
	j	.L21
.L20:
	.loc 1 167 25 is_stmt 0 discriminator 2
	sd	zero,-40(s0)
.L21:
	.loc 1 169 32 is_stmt 1
	ld	a5,-56(s0)
	ld	a4,80(a5)
	.loc 1 169 61
	ld	a5,-40(s0)
	ld	a5,24(a5)
	.loc 1 169 15
	mv	a1,a5
	mv	a0,a4
	call	StrCmp@plt
	mv	a5,a0
	.loc 1 169 14 discriminator 1
	bne	a5,zero,.L22
	.loc 1 170 18
	li	a5,1
	sb	a5,-41(s0)
	.loc 1 171 13
	j	.L18
.L22:
	.loc 1 174 41
	ld	a5,-56(s0)
	ld	a5,56(a5)
	.loc 1 174 31
	addi	a5,a5,88
	.loc 1 174 18
	ld	a1,-24(s0)
	mv	a0,a5
	call	GetNextNode@plt
	sd	a0,-24(s0)
.L19:
	.loc 1 166 35
	ld	a5,-56(s0)
	ld	a5,56(a5)
	.loc 1 166 25
	addi	a5,a5,88
	.loc 1 166 17
	ld	a1,-24(s0)
	mv	a0,a5
	call	IsNull@plt
	mv	a5,a0
	.loc 1 166 16 discriminator 1
	beq	a5,zero,.L23
.L18:
	.loc 1 178 10
	lbu	a5,-41(s0)
	andi	a5,a5,0xff
	bne	a5,zero,.L17
	.loc 1 182 25
	li	a0,48
	call	AllocateZeroPool@plt
	sd	a0,-40(s0)
	.loc 1 184 34
	ld	a5,-40(s0)
	li	a4,1414746112
	addi	a4,a4,1614
	sd	a4,0(a5)
	.loc 1 185 67
	ld	a5,-56(s0)
	ld	a5,80(a5)
	.loc 1 185 31
	mv	a0,a5
	call	StrSize@plt
	mv	a4,a0
	.loc 1 185 93 discriminator 1
	ld	a5,-56(s0)
	ld	a5,80(a5)
	.loc 1 185 31 discriminator 1
	mv	a1,a5
	mv	a0,a4
	call	AllocateCopyPool@plt
	mv	a4,a0
	.loc 1 185 29 discriminator 2
	ld	a5,-40(s0)
	sd	a4,24(a5)
	.loc 1 187 32
	li	a0,16
	call	AllocateZeroPool@plt
	mv	a4,a0
	.loc 1 187 30 discriminator 1
	ld	a5,-40(s0)
	sd	a4,32(a5)
	.loc 1 189 36
	li	a0,16
	call	AllocateZeroPool@plt
	mv	a4,a0
	.loc 1 189 34 discriminator 1
	ld	a5,-40(s0)
	sd	a4,40(a5)
	.loc 1 192 35
	ld	a5,-56(s0)
	ld	a5,56(a5)
	.loc 1 192 9
	addi	a4,a5,88
	ld	a5,-40(s0)
	addi	a5,a5,8
	mv	a1,a5
	mv	a0,a4
	call	InsertTailList@plt
.L17:
	.loc 1 197 10
	ld	a5,-56(s0)
.L8:
	.loc 1 198 1
	mv	a0,a5
	ld	ra,88(sp)
	.cfi_restore 1
	ld	s0,80(sp)
	.cfi_restore 8
	.cfi_def_cfa 2, 96
	addi	sp,sp,96
	.cfi_def_cfa_offset 0
	jr	ra
	.cfi_endproc
.LFE1:
	.size	CreateQuestion, .-CreateQuestion
	.section	.text.CreateExpression,"ax",@progbits
	.align	1
	.globl	CreateExpression
	.type	CreateExpression, @function
CreateExpression:
.LFB2:
	.loc 1 214 1
	.cfi_startproc
	addi	sp,sp,-48
	.cfi_def_cfa_offset 48
	sd	ra,40(sp)
	sd	s0,32(sp)
	.cfi_offset 1, -8
	.cfi_offset 8, -16
	addi	s0,sp,48
	.cfi_def_cfa 8, 0
	sd	a0,-40(s0)
	sd	a1,-48(s0)
	.loc 1 217 16
	li	a0,104
	call	AllocateZeroPool@plt
	sd	a0,-24(s0)
	.loc 1 219 25
	ld	a5,-24(s0)
	li	a4,1347960832
	addi	a4,a4,1350
	sd	a4,0(a5)
	.loc 1 220 3
	ld	a5,-24(s0)
	addi	a5,a5,88
	mv	a0,a5
	call	InitializeListHead@plt
	.loc 1 221 22
	ld	a5,-24(s0)
	ld	a4,-48(s0)
	sd	a4,80(a5)
	.loc 1 223 10
	ld	a5,-24(s0)
	.loc 1 224 1
	mv	a0,a5
	ld	ra,40(sp)
	.cfi_restore 1
	ld	s0,32(sp)
	.cfi_restore 8
	.cfi_def_cfa 2, 48
	addi	sp,sp,48
	.cfi_def_cfa_offset 0
	jr	ra
	.cfi_endproc
.LFE2:
	.size	CreateExpression, .-CreateExpression
	.section	.text.InitializeConfigHdr,"ax",@progbits
	.align	1
	.globl	InitializeConfigHdr
	.type	InitializeConfigHdr, @function
InitializeConfigHdr:
.LFB3:
	.loc 1 240 1
	.cfi_startproc
	addi	sp,sp,-48
	.cfi_def_cfa_offset 48
	sd	ra,40(sp)
	sd	s0,32(sp)
	.cfi_offset 1, -8
	.cfi_offset 8, -16
	addi	s0,sp,48
	.cfi_def_cfa 8, 0
	sd	a0,-40(s0)
	sd	a1,-48(s0)
	.loc 1 243 15
	ld	a5,-48(s0)
	ld	a5,48(a5)
	.loc 1 243 31
	lbu	a5,24(a5)
	.loc 1 243 6
	beq	a5,zero,.L27
	.loc 1 244 15
	ld	a5,-48(s0)
	ld	a5,48(a5)
	.loc 1 244 31
	lbu	a5,24(a5)
	.loc 1 243 44 discriminator 1
	mv	a4,a5
	li	a5,3
	bne	a4,a5,.L28
.L27:
	.loc 1 246 19
	ld	a5,-48(s0)
	ld	a5,48(a5)
	.loc 1 246 10
	ld	a5,56(a5)
	sd	a5,-24(s0)
	j	.L29
.L28:
	.loc 1 248 10
	sd	zero,-24(s0)
.L29:
	.loc 1 252 34
	ld	a5,-48(s0)
	ld	a5,48(a5)
	.loc 1 252 26
	addi	a4,a5,40
	.loc 1 251 24
	ld	a5,-40(s0)
	ld	a5,48(a5)
	mv	a2,a5
	ld	a1,-24(s0)
	mv	a0,a4
	call	HiiConstructConfigHdr@plt
	mv	a4,a0
	.loc 1 251 22 discriminator 1
	ld	a5,-48(s0)
	sd	a4,56(a5)
	.loc 1 257 14
	ld	a5,-48(s0)
	ld	a5,56(a5)
	.loc 1 257 6
	bne	a5,zero,.L30
	.loc 1 258 12
	li	a5,-1
	slli	a5,a5,63
	addi	a5,a5,14
	j	.L31
.L30:
	.loc 1 261 10
	li	a5,0
.L31:
	.loc 1 262 1
	mv	a0,a5
	ld	ra,40(sp)
	.cfi_restore 1
	ld	s0,32(sp)
	.cfi_restore 8
	.cfi_def_cfa 2, 48
	addi	sp,sp,48
	.cfi_def_cfa_offset 0
	jr	ra
	.cfi_endproc
.LFE3:
	.size	InitializeConfigHdr, .-InitializeConfigHdr
	.section	.text.FindStorageInList,"ax",@progbits
	.align	1
	.globl	FindStorageInList
	.type	FindStorageInList, @function
FindStorageInList:
.LFB4:
	.loc 1 291 1
	.cfi_startproc
	addi	sp,sp,-64
	.cfi_def_cfa_offset 64
	sd	ra,56(sp)
	sd	s0,48(sp)
	.cfi_offset 1, -8
	.cfi_offset 8, -16
	addi	s0,sp,64
	.cfi_def_cfa 8, 0
	mv	a5,a0
	sd	a1,-48(s0)
	sd	a2,-56(s0)
	sd	a3,-64(s0)
	sb	a5,-33(s0)
	.loc 1 295 10
	la	a0,gBrowserStorageList
	call	GetFirstNode@plt
	sd	a0,-24(s0)
	.loc 1 296 9
	j	.L33
.L42:
	.loc 1 297 24
	ld	a5,-24(s0)
	addi	a5,a5,-8
	.loc 1 297 126
	ld	a4,0(a5)
	.loc 1 297 211
	li	a5,1196707840
	addi	a5,a5,834
	bne	a4,a5,.L34
	.loc 1 297 20 discriminator 1
	ld	a5,-24(s0)
	addi	a5,a5,-8
	sd	a5,-32(s0)
	j	.L35
.L34:
	.loc 1 297 20 is_stmt 0 discriminator 2
	sd	zero,-32(s0)
.L35:
	.loc 1 298 12 is_stmt 1
	ld	a1,-24(s0)
	la	a0,gBrowserStorageList
	call	GetNextNode@plt
	sd	a0,-24(s0)
	.loc 1 300 24
	ld	a5,-32(s0)
	lbu	a4,24(a5)
	.loc 1 300 8
	lbu	a5,-33(s0)
	andi	a5,a5,0xff
	bne	a5,a4,.L33
	.loc 1 300 63 discriminator 1
	ld	a5,-32(s0)
	addi	a5,a5,40
	.loc 1 300 50 discriminator 1
	ld	a1,-48(s0)
	mv	a0,a5
	call	CompareGuid@plt
	mv	a5,a0
	.loc 1 300 47 discriminator 2
	beq	a5,zero,.L33
	.loc 1 301 10
	lbu	a5,-33(s0)
	andi	a4,a5,0xff
	li	a5,1
	bne	a4,a5,.L37
	.loc 1 302 27
	ld	a5,-32(s0)
	ld	a5,32(a5)
	.loc 1 302 12
	ld	a4,-64(s0)
	bne	a4,a5,.L43
	.loc 1 303 18
	ld	a5,-32(s0)
	j	.L39
.L37:
	.loc 1 310 33
	ld	a5,-32(s0)
	ld	a5,56(a5)
	.loc 1 310 11
	ld	a1,-56(s0)
	mv	a0,a5
	call	StrCmp@plt
	mv	a5,a0
	.loc 1 310 10 discriminator 1
	bne	a5,zero,.L33
	.loc 1 311 12
	lbu	a5,-33(s0)
	andi	a4,a5,0xff
	li	a5,2
	beq	a4,a5,.L40
	.loc 1 311 32 discriminator 1
	lbu	a5,-33(s0)
	andi	a4,a5,0xff
	li	a5,3
	bne	a4,a5,.L41
.L40:
	.loc 1 312 18
	ld	a5,-32(s0)
	j	.L39
.L41:
	.loc 1 313 19
	lbu	a5,-33(s0)
	andi	a5,a5,0xff
	bne	a5,zero,.L33
	.loc 1 313 57 discriminator 1
	ld	a5,-32(s0)
	ld	a5,32(a5)
	.loc 1 313 39 discriminator 1
	ld	a4,-64(s0)
	bne	a4,a5,.L33
	.loc 1 314 18
	ld	a5,-32(s0)
	j	.L39
.L43:
	.loc 1 306 9
	nop
.L33:
	.loc 1 296 11
	ld	a1,-24(s0)
	la	a0,gBrowserStorageList
	call	IsNull@plt
	mv	a5,a0
	.loc 1 296 10 discriminator 1
	beq	a5,zero,.L42
	.loc 1 320 10
	li	a5,0
.L39:
	.loc 1 321 1
	mv	a0,a5
	ld	ra,56(sp)
	.cfi_restore 1
	ld	s0,48(sp)
	.cfi_restore 8
	.cfi_def_cfa 2, 64
	addi	sp,sp,64
	.cfi_def_cfa_offset 0
	jr	ra
	.cfi_endproc
.LFE4:
	.size	FindStorageInList, .-FindStorageInList
	.section	.text.IntializeBrowserStorage,"ax",@progbits
	.align	1
	.globl	IntializeBrowserStorage
	.type	IntializeBrowserStorage, @function
IntializeBrowserStorage:
.LFB5:
	.loc 1 337 1
	.cfi_startproc
	addi	sp,sp,-48
	.cfi_def_cfa_offset 48
	sd	ra,40(sp)
	sd	s0,32(sp)
	.cfi_offset 1, -8
	.cfi_offset 8, -16
	addi	s0,sp,48
	.cfi_def_cfa 8, 0
	sd	a0,-24(s0)
	mv	a5,a1
	sd	a2,-40(s0)
	sb	a5,-25(s0)
	.loc 1 338 3
	lbu	a5,-25(s0)
	sext.w	a5,a5
	li	a4,3
	bgt	a5,a4,.L51
	li	a4,2
	bge	a5,a4,.L46
	beq	a5,zero,.L47
	li	a4,1
	beq	a5,a4,.L48
	.loc 1 367 7
	j	.L51
.L47:
	.loc 1 340 16
	ld	a5,-24(s0)
	addi	a4,a5,40
	.loc 1 340 39
	ld	a5,-40(s0)
	addi	a5,a5,2
	.loc 1 340 7
	li	a2,16
	mv	a1,a5
	mv	a0,a4
	call	CopyMem@plt
	.loc 1 341 16
	ld	a5,-24(s0)
	addi	a4,a5,64
	.loc 1 341 39
	ld	a5,-40(s0)
	addi	a5,a5,20
	.loc 1 341 7
	li	a2,2
	mv	a1,a5
	mv	a0,a4
	call	CopyMem@plt
	.loc 1 343 64
	ld	a5,-24(s0)
	lhu	a5,64(a5)
	.loc 1 343 32
	mv	a0,a5
	call	AllocateZeroPool@plt
	mv	a4,a0
	.loc 1 343 30 discriminator 1
	ld	a5,-24(s0)
	sd	a4,72(a5)
	.loc 1 344 68
	ld	a5,-24(s0)
	lhu	a5,64(a5)
	.loc 1 344 36
	mv	a0,a5
	call	AllocateZeroPool@plt
	mv	a4,a0
	.loc 1 344 34 discriminator 1
	ld	a5,-24(s0)
	sd	a4,80(a5)
	.loc 1 345 7
	j	.L49
.L46:
	.loc 1 349 16
	ld	a5,-24(s0)
	addi	a4,a5,40
	.loc 1 349 39
	ld	a5,-40(s0)
	addi	a5,a5,4
	.loc 1 349 7
	li	a2,16
	mv	a1,a5
	mv	a0,a4
	call	CopyMem@plt
	.loc 1 350 16
	ld	a5,-24(s0)
	addi	a4,a5,104
	.loc 1 350 45
	ld	a5,-40(s0)
	addi	a5,a5,20
	.loc 1 350 7
	li	a2,4
	mv	a1,a5
	mv	a0,a4
	call	CopyMem@plt
	.loc 1 351 16
	ld	a5,-24(s0)
	addi	a4,a5,64
	.loc 1 351 39
	ld	a5,-40(s0)
	addi	a5,a5,24
	.loc 1 351 7
	li	a2,2
	mv	a1,a5
	mv	a0,a4
	call	CopyMem@plt
	.loc 1 353 10
	lbu	a5,-25(s0)
	andi	a4,a5,0xff
	li	a5,3
	bne	a4,a5,.L52
	.loc 1 354 66
	ld	a5,-24(s0)
	lhu	a5,64(a5)
	.loc 1 354 34
	mv	a0,a5
	call	AllocateZeroPool@plt
	mv	a4,a0
	.loc 1 354 32 discriminator 1
	ld	a5,-24(s0)
	sd	a4,72(a5)
	.loc 1 355 70
	ld	a5,-24(s0)
	lhu	a5,64(a5)
	.loc 1 355 38
	mv	a0,a5
	call	AllocateZeroPool@plt
	mv	a4,a0
	.loc 1 355 36 discriminator 1
	ld	a5,-24(s0)
	sd	a4,80(a5)
	.loc 1 358 7
	j	.L52
.L48:
	.loc 1 361 16
	ld	a5,-24(s0)
	addi	a4,a5,40
	.loc 1 361 39
	ld	a5,-40(s0)
	addi	a5,a5,4
	.loc 1 361 7
	li	a2,16
	mv	a1,a5
	mv	a0,a4
	call	CopyMem@plt
	.loc 1 363 7
	ld	a5,-24(s0)
	addi	a5,a5,88
	mv	a0,a5
	call	InitializeListHead@plt
	.loc 1 364 7
	j	.L49
.L51:
	.loc 1 367 7
	nop
	j	.L53
.L52:
	.loc 1 358 7
	nop
.L49:
.L53:
	.loc 1 369 1
	nop
	ld	ra,40(sp)
	.cfi_restore 1
	ld	s0,32(sp)
	.cfi_restore 8
	.cfi_def_cfa 2, 48
	addi	sp,sp,48
	.cfi_def_cfa_offset 0
	jr	ra
	.cfi_endproc
.LFE5:
	.size	IntializeBrowserStorage, .-IntializeBrowserStorage
	.section	.text.CreateStorage,"ax",@progbits
	.align	1
	.globl	CreateStorage
	.type	CreateStorage, @function
CreateStorage:
.LFB6:
	.loc 1 387 1
	.cfi_startproc
	addi	sp,sp,-96
	.cfi_def_cfa_offset 96
	sd	ra,88(sp)
	sd	s0,80(sp)
	.cfi_offset 1, -8
	.cfi_offset 8, -16
	addi	s0,sp,96
	.cfi_def_cfa 8, 0
	sd	a0,-72(s0)
	mv	a5,a1
	sd	a2,-88(s0)
	sb	a5,-73(s0)
	.loc 1 395 17
	sd	zero,-24(s0)
	.loc 1 396 15
	sd	zero,-56(s0)
	.loc 1 397 3
	lbu	a5,-73(s0)
	sext.w	a5,a5
	beq	a5,zero,.L55
	blt	a5,zero,.L56
	addiw	a5,a5,-2
	sext.w	a4,a5
	li	a5,1
	bgtu	a4,a5,.L56
	j	.L65
.L55:
	.loc 1 399 19
	ld	a5,-88(s0)
	addi	a5,a5,2
	sd	a5,-48(s0)
	.loc 1 400 19
	ld	a5,-88(s0)
	addi	a5,a5,22
	sd	a5,-56(s0)
	.loc 1 401 7
	j	.L58
.L65:
	.loc 1 405 19
	ld	a5,-88(s0)
	addi	a5,a5,4
	sd	a5,-48(s0)
	.loc 1 406 19
	ld	a5,-88(s0)
	addi	a5,a5,26
	sd	a5,-56(s0)
	.loc 1 407 7
	j	.L58
.L56:
	.loc 1 411 19
	ld	a5,-88(s0)
	addi	a5,a5,4
	sd	a5,-48(s0)
	.loc 1 412 7
	nop
.L58:
	.loc 1 415 6
	lbu	a5,-73(s0)
	andi	a4,a5,0xff
	li	a5,1
	beq	a4,a5,.L59
	.loc 1 418 39
	ld	a0,-56(s0)
	call	AsciiStrSize@plt
	mv	a5,a0
	.loc 1 418 21 discriminator 1
	slli	a5,a5,1
	mv	a0,a5
	call	AllocateZeroPool@plt
	sd	a0,-24(s0)
	.loc 1 420 16
	sh	zero,-26(s0)
	.loc 1 420 5
	j	.L60
.L61:
	.loc 1 421 49
	lhu	a5,-26(s0)
	ld	a4,-56(s0)
	add	a5,a4,a5
	lbu	a3,0(a5)
	.loc 1 421 20
	lhu	a5,-26(s0)
	slli	a5,a5,1
	ld	a4,-24(s0)
	add	a5,a4,a5
	.loc 1 421 30
	mv	a4,a3
	.loc 1 421 28
	sh	a4,0(a5)
	.loc 1 420 51 discriminator 3
	lhu	a5,-26(s0)
	addiw	a5,a5,1
	sh	a5,-26(s0)
.L60:
	.loc 1 420 32 discriminator 1
	lhu	a5,-26(s0)
	ld	a4,-56(s0)
	add	a5,a4,a5
	lbu	a5,0(a5)
	.loc 1 420 40 discriminator 1
	bne	a5,zero,.L61
.L59:
	.loc 1 425 13
	li	a0,120
	call	AllocateZeroPool@plt
	sd	a0,-64(s0)
	.loc 1 427 22
	ld	a5,-64(s0)
	li	a4,1196707840
	addi	a4,a4,838
	sd	a4,0(a5)
	.loc 1 428 3
	ld	a5,-72(s0)
	addi	a4,a5,232
	ld	a5,-64(s0)
	addi	a5,a5,8
	mv	a1,a5
	mv	a0,a4
	call	InsertTailList@plt
	.loc 1 430 20
	ld	a5,-72(s0)
	ld	a4,40(a5)
	lbu	a5,-73(s0)
	mv	a3,a4
	ld	a2,-24(s0)
	ld	a1,-48(s0)
	mv	a0,a5
	call	FindStorageInList
	sd	a0,-40(s0)
	.loc 1 431 6
	ld	a5,-40(s0)
	bne	a5,zero,.L62
	.loc 1 432 22
	li	a0,128
	call	AllocateZeroPool@plt
	sd	a0,-40(s0)
	.loc 1 435 31
	ld	a5,-40(s0)
	li	a4,1196707840
	addi	a4,a4,834
	sd	a4,0(a5)
	.loc 1 436 5
	ld	a5,-40(s0)
	addi	a5,a5,8
	mv	a1,a5
	la	a0,gBrowserStorageList
	call	InsertTailList@plt
	.loc 1 438 5
	lbu	a5,-73(s0)
	ld	a2,-88(s0)
	mv	a1,a5
	ld	a0,-40(s0)
	call	IntializeBrowserStorage
	.loc 1 439 26
	ld	a5,-40(s0)
	lbu	a4,-73(s0)
	sb	a4,24(a5)
	.loc 1 440 8
	lbu	a5,-73(s0)
	andi	a4,a5,0xff
	li	a5,1
	beq	a4,a5,.L63
	.loc 1 441 28
	ld	a5,-40(s0)
	ld	a4,-24(s0)
	sd	a4,56(a5)
.L63:
	.loc 1 444 40
	ld	a5,-72(s0)
	ld	a4,40(a5)
	.loc 1 444 31
	ld	a5,-40(s0)
	sd	a4,32(a5)
	.loc 1 446 33
	ld	a5,-40(s0)
	sb	zero,25(a5)
.L62:
	.loc 1 449 27
	ld	a5,-64(s0)
	ld	a4,-40(s0)
	sd	a4,48(a5)
	.loc 1 450 3
	ld	a1,-64(s0)
	ld	a0,-72(s0)
	call	InitializeConfigHdr
	.loc 1 451 62
	ld	a5,-64(s0)
	ld	a5,56(a5)
	.loc 1 451 28
	mv	a0,a5
	call	StrSize@plt
	mv	a4,a0
	.loc 1 451 83 discriminator 1
	ld	a5,-64(s0)
	ld	a5,56(a5)
	.loc 1 451 28 discriminator 1
	mv	a1,a5
	mv	a0,a4
	call	AllocateCopyPool@plt
	mv	a4,a0
	.loc 1 451 26 discriminator 2
	ld	a5,-64(s0)
	sd	a4,64(a5)
	.loc 1 452 24
	ld	a5,-64(s0)
	sd	zero,96(a5)
	.loc 1 454 10
	ld	a5,-64(s0)
	.loc 1 455 1
	mv	a0,a5
	ld	ra,88(sp)
	.cfi_restore 1
	ld	s0,80(sp)
	.cfi_restore 8
	.cfi_def_cfa 2, 96
	addi	sp,sp,96
	.cfi_def_cfa_offset 0
	jr	ra
	.cfi_endproc
.LFE6:
	.size	CreateStorage, .-CreateStorage
	.section	.text.GetFstStgFromVarId,"ax",@progbits
	.align	1
	.globl	GetFstStgFromVarId
	.type	GetFstStgFromVarId, @function
GetFstStgFromVarId:
.LFB7:
	.loc 1 471 1
	.cfi_startproc
	addi	sp,sp,-64
	.cfi_def_cfa_offset 64
	sd	ra,56(sp)
	sd	s0,48(sp)
	.cfi_offset 1, -8
	.cfi_offset 8, -16
	addi	s0,sp,64
	.cfi_def_cfa 8, 0
	sd	a0,-56(s0)
	mv	a5,a1
	sh	a5,-58(s0)
	.loc 1 476 9
	sb	zero,-33(s0)
	.loc 1 477 18
	sd	zero,-24(s0)
	.loc 1 481 24
	ld	a5,-56(s0)
	addi	a5,a5,232
	.loc 1 481 10
	mv	a0,a5
	call	GetFirstNode@plt
	sd	a0,-32(s0)
	.loc 1 482 9
	j	.L67
.L72:
	.loc 1 483 24
	ld	a5,-32(s0)
	addi	a5,a5,-8
	.loc 1 483 126
	ld	a4,0(a5)
	.loc 1 483 211
	li	a5,1196707840
	addi	a5,a5,838
	bne	a4,a5,.L68
	.loc 1 483 20 discriminator 1
	ld	a5,-32(s0)
	addi	a5,a5,-8
	sd	a5,-24(s0)
	j	.L69
.L68:
	.loc 1 483 20 is_stmt 0 discriminator 2
	sd	zero,-24(s0)
.L69:
	.loc 1 485 23 is_stmt 1
	ld	a5,-24(s0)
	lhu	a5,40(a5)
	.loc 1 485 8
	lhu	a4,-58(s0)
	sext.w	a4,a4
	sext.w	a5,a5
	bne	a4,a5,.L70
	.loc 1 486 13
	li	a5,1
	sb	a5,-33(s0)
	.loc 1 487 7
	j	.L71
.L70:
	.loc 1 490 25
	ld	a5,-56(s0)
	addi	a5,a5,232
	.loc 1 490 12
	ld	a1,-32(s0)
	mv	a0,a5
	call	GetNextNode@plt
	sd	a0,-32(s0)
.L67:
	.loc 1 482 19
	ld	a5,-56(s0)
	addi	a5,a5,232
	.loc 1 482 11
	ld	a1,-32(s0)
	mv	a0,a5
	call	IsNull@plt
	mv	a5,a0
	.loc 1 482 10 discriminator 1
	beq	a5,zero,.L72
.L71:
	.loc 1 493 33
	lbu	a5,-33(s0)
	andi	a5,a5,0xff
	beq	a5,zero,.L73
	.loc 1 493 33 is_stmt 0 discriminator 1
	ld	a5,-24(s0)
	.loc 1 493 33
	j	.L75
.L73:
	.loc 1 493 33 discriminator 2
	li	a5,0
.L75:
	.loc 1 494 1 is_stmt 1
	mv	a0,a5
	ld	ra,56(sp)
	.cfi_restore 1
	ld	s0,48(sp)
	.cfi_restore 8
	.cfi_def_cfa 2, 64
	addi	sp,sp,64
	.cfi_def_cfa_offset 0
	jr	ra
	.cfi_endproc
.LFE7:
	.size	GetFstStgFromVarId, .-GetFstStgFromVarId
	.section	.text.GetFstStgFromBrsStg,"ax",@progbits
	.align	1
	.globl	GetFstStgFromBrsStg
	.type	GetFstStgFromBrsStg, @function
GetFstStgFromBrsStg:
.LFB8:
	.loc 1 513 1
	.cfi_startproc
	addi	sp,sp,-80
	.cfi_def_cfa_offset 80
	sd	ra,72(sp)
	sd	s0,64(sp)
	.cfi_offset 1, -8
	.cfi_offset 8, -16
	addi	s0,sp,80
	.cfi_def_cfa 8, 0
	sd	a0,-72(s0)
	.loc 1 520 9
	sb	zero,-49(s0)
	.loc 1 521 18
	sd	zero,-24(s0)
	.loc 1 523 17
	la	a0,gBrowserFormSetList
	call	GetFirstNode@plt
	sd	a0,-40(s0)
	.loc 1 524 9
	j	.L77
.L86:
	.loc 1 525 17
	ld	a5,-40(s0)
	addi	a5,a5,-8
	.loc 1 525 136
	ld	a4,0(a5)
	.loc 1 525 221
	li	a5,1397112832
	addi	a5,a5,582
	bne	a4,a5,.L78
	.loc 1 525 13 discriminator 1
	ld	a5,-40(s0)
	addi	a5,a5,-8
	sd	a5,-48(s0)
	j	.L79
.L78:
	.loc 1 525 13 is_stmt 0 discriminator 2
	sd	zero,-48(s0)
.L79:
	.loc 1 526 19 is_stmt 1
	ld	a1,-40(s0)
	la	a0,gBrowserFormSetList
	call	GetNextNode@plt
	sd	a0,-40(s0)
	.loc 1 528 26
	ld	a5,-48(s0)
	addi	a5,a5,232
	.loc 1 528 12
	mv	a0,a5
	call	GetFirstNode@plt
	sd	a0,-32(s0)
	.loc 1 529 11
	j	.L80
.L84:
	.loc 1 530 26
	ld	a5,-32(s0)
	addi	a5,a5,-8
	.loc 1 530 128
	ld	a4,0(a5)
	.loc 1 530 213
	li	a5,1196707840
	addi	a5,a5,838
	bne	a4,a5,.L81
	.loc 1 530 22 discriminator 1
	ld	a5,-32(s0)
	addi	a5,a5,-8
	sd	a5,-24(s0)
	j	.L82
.L81:
	.loc 1 530 22 is_stmt 0 discriminator 2
	sd	zero,-24(s0)
.L82:
	.loc 1 531 27 is_stmt 1
	ld	a5,-48(s0)
	addi	a5,a5,232
	.loc 1 531 14
	ld	a1,-32(s0)
	mv	a0,a5
	call	GetNextNode@plt
	sd	a0,-32(s0)
	.loc 1 533 25
	ld	a5,-24(s0)
	ld	a5,48(a5)
	.loc 1 533 10
	ld	a4,-72(s0)
	bne	a4,a5,.L80
	.loc 1 534 15
	li	a5,1
	sb	a5,-49(s0)
	.loc 1 535 9
	j	.L83
.L80:
	.loc 1 529 21
	ld	a5,-48(s0)
	addi	a5,a5,232
	.loc 1 529 13
	ld	a1,-32(s0)
	mv	a0,a5
	call	IsNull@plt
	mv	a5,a0
	.loc 1 529 12 discriminator 1
	beq	a5,zero,.L84
.L83:
	.loc 1 539 8
	lbu	a5,-49(s0)
	andi	a5,a5,0xff
	bne	a5,zero,.L90
.L77:
	.loc 1 524 11
	ld	a1,-40(s0)
	la	a0,gBrowserFormSetList
	call	IsNull@plt
	mv	a5,a0
	.loc 1 524 10 discriminator 1
	beq	a5,zero,.L86
	j	.L85
.L90:
	.loc 1 540 7
	nop
.L85:
	.loc 1 544 33
	lbu	a5,-49(s0)
	andi	a5,a5,0xff
	beq	a5,zero,.L87
	.loc 1 544 33 is_stmt 0 discriminator 1
	ld	a5,-24(s0)
	.loc 1 544 33
	j	.L89
.L87:
	.loc 1 544 33 discriminator 2
	li	a5,0
.L89:
	.loc 1 545 1 is_stmt 1
	mv	a0,a5
	ld	ra,72(sp)
	.cfi_restore 1
	ld	s0,64(sp)
	.cfi_restore 8
	.cfi_def_cfa 2, 80
	addi	sp,sp,80
	.cfi_def_cfa_offset 0
	jr	ra
	.cfi_endproc
.LFE8:
	.size	GetFstStgFromBrsStg, .-GetFstStgFromBrsStg
	.section	.rodata
	.align	3
.LC0:
	.string	"&"
	.string	"O"
	.string	"F"
	.string	"F"
	.string	"S"
	.string	"E"
	.string	"T"
	.string	"="
	.string	"%"
	.string	"0"
	.string	"4"
	.string	"x"
	.string	"&"
	.string	"W"
	.string	"I"
	.string	"D"
	.string	"T"
	.string	"H"
	.string	"="
	.string	"%"
	.string	"0"
	.string	"4"
	.string	"x"
	.zero	2
	.align	3
.LC1:
	.string	"&"
	.string	"%"
	.string	"s"
	.zero	2
	.section	.text.InitializeRequestElement,"ax",@progbits
	.align	1
	.globl	InitializeRequestElement
	.type	InitializeRequestElement, @function
InitializeRequestElement:
.LFB9:
	.loc 1 564 1
	.cfi_startproc
	addi	sp,sp,-192
	.cfi_def_cfa_offset 192
	sd	ra,184(sp)
	sd	s0,176(sp)
	.cfi_offset 1, -8
	.cfi_offset 8, -16
	addi	s0,sp,192
	.cfi_def_cfa 8, 0
	sd	a0,-168(s0)
	sd	a1,-176(s0)
	sd	a2,-184(s0)
	.loc 1 576 11
	ld	a5,-176(s0)
	ld	a5,56(a5)
	sd	a5,-72(s0)
	.loc 1 577 6
	ld	a5,-72(s0)
	bne	a5,zero,.L92
	.loc 1 578 12
	li	a5,-1
	slli	a5,a5,63
	addi	a5,a5,2
	j	.L114
.L92:
	.loc 1 581 14
	ld	a5,-72(s0)
	lbu	a5,24(a5)
	.loc 1 581 6
	mv	a4,a5
	li	a5,2
	bne	a4,a5,.L94
	.loc 1 586 12
	li	a5,0
	j	.L114
.L94:
	.loc 1 592 15
	ld	a5,-72(s0)
	lbu	a5,24(a5)
	.loc 1 592 6
	beq	a5,zero,.L95
	.loc 1 593 15
	ld	a5,-72(s0)
	lbu	a5,24(a5)
	.loc 1 592 28 discriminator 1
	mv	a4,a5
	li	a5,3
	bne	a4,a5,.L96
.L95:
	.loc 1 599 38
	ld	a5,-176(s0)
	lhu	a5,64(a5)
	.loc 1 595 14
	sext.w	a3,a5
	.loc 1 600 24
	ld	a5,-176(s0)
	lhu	a5,66(a5)
	.loc 1 595 14
	sext.w	a4,a5
	addi	a5,s0,-152
	lla	a2,.LC0
	li	a1,60
	mv	a0,a5
	call	UnicodeSPrint@plt
	sd	a0,-24(s0)
	.loc 1 602 5
	addi	a5,s0,-152
	mv	a0,a5
	call	HiiToLower@plt
	.loc 1 603 53
	ld	a5,-24(s0)
	addi	a5,a5,1
	.loc 1 603 58
	slli	a5,a5,1
	.loc 1 603 27
	addi	a4,s0,-152
	mv	a1,a4
	mv	a0,a5
	call	AllocateCopyPool@plt
	mv	a4,a0
	.loc 1 603 25 discriminator 1
	ld	a5,-176(s0)
	sd	a4,88(a5)
	.loc 1 603 25 is_stmt 0
	j	.L97
.L96:
	.loc 1 605 14 is_stmt 1
	ld	a5,-176(s0)
	ld	a4,80(a5)
	addi	a5,s0,-152
	mv	a3,a4
	lla	a2,.LC1
	li	a1,60
	mv	a0,a5
	call	UnicodeSPrint@plt
	sd	a0,-24(s0)
.L97:
	.loc 1 608 16
	ld	a5,-176(s0)
	lbu	a5,24(a5)
	.loc 1 608 6
	mv	a4,a5
	li	a5,8
	bne	a4,a5,.L98
	.loc 1 608 48 discriminator 1
	ld	a5,-176(s0)
	lbu	a5,72(a5)
	.loc 1 608 64 discriminator 1
	sext.w	a5,a5
	andi	a5,a5,4
	sext.w	a5,a5
	.loc 1 608 35 discriminator 1
	beq	a5,zero,.L98
	.loc 1 613 12
	li	a5,0
	j	.L114
.L98:
	.loc 1 619 20
	ld	a5,-176(s0)
	lhu	a5,50(a5)
	mv	a1,a5
	ld	a0,-168(s0)
	call	GetFstStgFromVarId
	sd	a0,-80(s0)
	.loc 1 621 31
	ld	a5,-80(s0)
	ld	a5,64(a5)
	.loc 1 621 106
	beq	a5,zero,.L99
	.loc 1 621 89 discriminator 1
	ld	a5,-80(s0)
	ld	a5,64(a5)
	.loc 1 621 66 discriminator 1
	mv	a0,a5
	call	StrSize@plt
	sd	a0,-32(s0)
	j	.L100
.L99:
	.loc 1 621 14 discriminator 2
	li	a5,2
	sd	a5,-32(s0)
.L100:
	.loc 1 622 23
	ld	a5,-32(s0)
	srli	a4,a5,1
	.loc 1 622 57
	ld	a5,-80(s0)
	ld	a5,96(a5)
	.loc 1 622 10
	add	a5,a4,a5
	sd	a5,-64(s0)
	.loc 1 627 30
	ld	a5,-80(s0)
	ld	a5,96(a5)
	.loc 1 627 6
	ld	a4,-24(s0)
	bleu	a4,a5,.L101
	.loc 1 631 25
	ld	a5,-32(s0)
	srli	a5,a5,1
	.loc 1 631 12
	addi	a5,a5,1024
	sd	a5,-64(s0)
	.loc 1 632 39
	ld	a5,-64(s0)
	slli	a5,a5,1
	.loc 1 632 14
	mv	a0,a5
	call	AllocateZeroPool@plt
	sd	a0,-88(s0)
	.loc 1 634 23
	ld	a5,-80(s0)
	ld	a5,64(a5)
	.loc 1 634 8
	beq	a5,zero,.L102
	.loc 1 635 38
	ld	a5,-80(s0)
	ld	a5,64(a5)
	.loc 1 635 7
	ld	a2,-32(s0)
	mv	a1,a5
	ld	a0,-88(s0)
	call	CopyMem@plt
	.loc 1 636 31
	ld	a5,-80(s0)
	ld	a5,64(a5)
	.loc 1 636 7
	mv	a0,a5
	call	FreePool@plt
.L102:
	.loc 1 639 35
	ld	a5,-80(s0)
	ld	a4,-88(s0)
	sd	a4,64(a5)
	.loc 1 640 33
	ld	a5,-80(s0)
	li	a4,1024
	sd	a4,96(a5)
.L101:
	.loc 1 643 3
	ld	a5,-80(s0)
	ld	a5,64(a5)
	addi	a4,s0,-152
	mv	a2,a4
	ld	a1,-64(s0)
	mv	a0,a5
	call	StrCatS@plt
	.loc 1 644 17
	ld	a5,-80(s0)
	ld	a5,88(a5)
	.loc 1 644 31
	addi	a4,a5,1
	ld	a5,-80(s0)
	sd	a4,88(a5)
	.loc 1 645 17
	ld	a5,-80(s0)
	ld	a4,96(a5)
	.loc 1 645 31
	ld	a5,-24(s0)
	sub	a4,a4,a5
	ld	a5,-80(s0)
	sd	a4,96(a5)
	.loc 1 650 14
	sd	zero,-56(s0)
	.loc 1 651 8
	sb	zero,-41(s0)
	.loc 1 652 24
	ld	a5,-184(s0)
	addi	a5,a5,104
	.loc 1 652 10
	mv	a0,a5
	call	GetFirstNode@plt
	sd	a0,-40(s0)
	.loc 1 653 9
	j	.L103
.L108:
	.loc 1 654 20
	ld	a5,-40(s0)
	addi	a5,a5,-8
	.loc 1 654 146
	ld	a4,0(a5)
	.loc 1 654 231
	li	a5,1397899264
	addi	a5,a5,838
	bne	a4,a5,.L104
	.loc 1 654 16 discriminator 1
	ld	a5,-40(s0)
	addi	a5,a5,-8
	sd	a5,-56(s0)
	j	.L105
.L104:
	.loc 1 654 16 is_stmt 0 discriminator 2
	sd	zero,-56(s0)
.L105:
	.loc 1 656 8 is_stmt 1
	ld	a5,-56(s0)
	beq	a5,zero,.L106
	.loc 1 656 52 discriminator 1
	ld	a5,-56(s0)
	ld	a4,88(a5)
	.loc 1 656 79 discriminator 1
	ld	a5,-80(s0)
	ld	a5,48(a5)
	.loc 1 656 38 discriminator 1
	bne	a4,a5,.L106
	.loc 1 657 12
	li	a5,1
	sb	a5,-41(s0)
	.loc 1 658 7
	j	.L107
.L106:
	.loc 1 661 25
	ld	a5,-184(s0)
	addi	a5,a5,104
	.loc 1 661 12
	ld	a1,-40(s0)
	mv	a0,a5
	call	GetNextNode@plt
	sd	a0,-40(s0)
.L103:
	.loc 1 653 19
	ld	a5,-184(s0)
	addi	a5,a5,104
	.loc 1 653 11
	ld	a1,-40(s0)
	mv	a0,a5
	call	IsNull@plt
	mv	a5,a0
	.loc 1 653 10 discriminator 1
	beq	a5,zero,.L108
.L107:
	.loc 1 664 6
	lbu	a5,-41(s0)
	andi	a5,a5,0xff
	bne	a5,zero,.L109
	.loc 1 665 18
	li	a0,96
	call	AllocateZeroPool@plt
	sd	a0,-56(s0)
	.loc 1 667 27
	ld	a5,-56(s0)
	li	a4,1397899264
	addi	a4,a4,838
	sd	a4,0(a5)
	.loc 1 668 74
	ld	a5,-80(s0)
	ld	a5,56(a5)
	.loc 1 668 33
	mv	a0,a5
	call	StrSize@plt
	mv	a4,a0
	.loc 1 668 102 discriminator 1
	ld	a5,-80(s0)
	ld	a5,56(a5)
	.loc 1 668 33 discriminator 1
	mv	a1,a5
	mv	a0,a4
	call	AllocateCopyPool@plt
	mv	a4,a0
	.loc 1 668 31 discriminator 2
	ld	a5,-56(s0)
	sd	a4,40(a5)
	.loc 1 670 29
	ld	a5,-56(s0)
	sd	zero,64(a5)
	.loc 1 671 41
	ld	a5,-80(s0)
	ld	a4,48(a5)
	.loc 1 671 25
	ld	a5,-56(s0)
	sd	a4,88(a5)
	.loc 1 672 5
	ld	a5,-184(s0)
	addi	a4,a5,104
	ld	a5,-56(s0)
	addi	a5,a5,8
	mv	a1,a5
	mv	a0,a4
	call	InsertTailList@plt
.L109:
	.loc 1 675 27
	ld	a5,-56(s0)
	ld	a5,40(a5)
	.loc 1 675 98
	beq	a5,zero,.L110
	.loc 1 675 81 discriminator 1
	ld	a5,-56(s0)
	ld	a5,40(a5)
	.loc 1 675 62 discriminator 1
	mv	a0,a5
	call	StrSize@plt
	sd	a0,-32(s0)
	j	.L111
.L110:
	.loc 1 675 14 discriminator 2
	li	a5,2
	sd	a5,-32(s0)
.L111:
	.loc 1 676 23
	ld	a5,-32(s0)
	srli	a4,a5,1
	.loc 1 676 53
	ld	a5,-56(s0)
	ld	a5,64(a5)
	.loc 1 676 10
	add	a5,a4,a5
	sd	a5,-64(s0)
	.loc 1 681 26
	ld	a5,-56(s0)
	ld	a5,64(a5)
	.loc 1 681 6
	ld	a4,-24(s0)
	bleu	a4,a5,.L112
	.loc 1 685 25
	ld	a5,-32(s0)
	srli	a5,a5,1
	.loc 1 685 12
	addi	a5,a5,1024
	sd	a5,-64(s0)
	.loc 1 686 39
	ld	a5,-64(s0)
	slli	a5,a5,1
	.loc 1 686 14
	mv	a0,a5
	call	AllocateZeroPool@plt
	sd	a0,-88(s0)
	.loc 1 688 19
	ld	a5,-56(s0)
	ld	a5,40(a5)
	.loc 1 688 8
	beq	a5,zero,.L113
	.loc 1 689 34
	ld	a5,-56(s0)
	ld	a5,40(a5)
	.loc 1 689 7
	ld	a2,-32(s0)
	mv	a1,a5
	ld	a0,-88(s0)
	call	CopyMem@plt
	.loc 1 690 27
	ld	a5,-56(s0)
	ld	a5,40(a5)
	.loc 1 690 7
	mv	a0,a5
	call	FreePool@plt
.L113:
	.loc 1 693 31
	ld	a5,-56(s0)
	ld	a4,-88(s0)
	sd	a4,40(a5)
	.loc 1 694 29
	ld	a5,-56(s0)
	li	a4,1024
	sd	a4,64(a5)
.L112:
	.loc 1 697 3
	ld	a5,-56(s0)
	ld	a5,40(a5)
	addi	a4,s0,-152
	mv	a2,a4
	ld	a1,-64(s0)
	mv	a0,a5
	call	StrCatS@plt
	.loc 1 698 13
	ld	a5,-56(s0)
	ld	a5,56(a5)
	.loc 1 698 27
	addi	a4,a5,1
	ld	a5,-56(s0)
	sd	a4,56(a5)
	.loc 1 699 13
	ld	a5,-56(s0)
	ld	a4,64(a5)
	.loc 1 699 27
	ld	a5,-24(s0)
	sub	a4,a4,a5
	ld	a5,-56(s0)
	sd	a4,64(a5)
	.loc 1 700 10
	li	a5,0
.L114:
	.loc 1 701 1
	mv	a0,a5
	ld	ra,184(sp)
	.cfi_restore 1
	ld	s0,176(sp)
	.cfi_restore 8
	.cfi_def_cfa 2, 192
	addi	sp,sp,192
	.cfi_def_cfa_offset 0
	jr	ra
	.cfi_endproc
.LFE9:
	.size	InitializeRequestElement, .-InitializeRequestElement
	.section	.text.DestroyExpression,"ax",@progbits
	.align	1
	.globl	DestroyExpression
	.type	DestroyExpression, @function
DestroyExpression:
.LFB10:
	.loc 1 713 1
	.cfi_startproc
	addi	sp,sp,-64
	.cfi_def_cfa_offset 64
	sd	ra,56(sp)
	sd	s0,48(sp)
	.cfi_offset 1, -8
	.cfi_offset 8, -16
	addi	s0,sp,64
	.cfi_def_cfa 8, 0
	sd	a0,-56(s0)
	.loc 1 719 9
	j	.L121
.L126:
	.loc 1 720 26
	ld	a5,-56(s0)
	addi	a5,a5,88
	.loc 1 720 12
	mv	a0,a5
	call	GetFirstNode@plt
	sd	a0,-40(s0)
	.loc 1 721 16
	ld	a5,-40(s0)
	addi	a5,a5,-8
	.loc 1 721 122
	ld	a4,0(a5)
	.loc 1 721 207
	li	a5,1347379200
	addi	a5,a5,-1979
	bne	a4,a5,.L117
	.loc 1 721 12 discriminator 1
	ld	a5,-40(s0)
	addi	a5,a5,-8
	sd	a5,-24(s0)
	j	.L118
.L117:
	.loc 1 721 12 is_stmt 0 discriminator 2
	sd	zero,-24(s0)
.L118:
	.loc 1 722 22 is_stmt 1
	ld	a5,-24(s0)
	addi	a5,a5,8
	.loc 1 722 5
	mv	a0,a5
	call	RemoveEntryList@plt
	.loc 1 724 15
	ld	a5,-24(s0)
	ld	a5,80(a5)
	.loc 1 724 8
	beq	a5,zero,.L119
	.loc 1 725 23
	ld	a5,-24(s0)
	ld	a5,80(a5)
	.loc 1 725 7
	mv	a0,a5
	call	FreePool@plt
.L119:
	.loc 1 728 15
	ld	a5,-24(s0)
	ld	a5,128(a5)
	.loc 1 728 8
	beq	a5,zero,.L120
	.loc 1 729 23
	ld	a5,-24(s0)
	ld	a5,128(a5)
	.loc 1 729 7
	mv	a0,a5
	call	FreePool@plt
.L120:
	.loc 1 732 34
	ld	a5,-24(s0)
	ld	a5,136(a5)
	.loc 1 732 8
	beq	a5,zero,.L121
	.loc 1 733 13
	j	.L122
.L125:
	.loc 1 734 43
	ld	a5,-24(s0)
	addi	a5,a5,136
	.loc 1 734 29
	mv	a0,a5
	call	GetFirstNode@plt
	sd	a0,-48(s0)
	.loc 1 735 27
	ld	a5,-48(s0)
	addi	a5,a5,-8
	.loc 1 735 142
	ld	a4,0(a5)
	.loc 1 735 227
	li	a5,1347960832
	addi	a5,a5,1350
	bne	a4,a5,.L123
	.loc 1 735 23 discriminator 1
	ld	a5,-48(s0)
	addi	a5,a5,-8
	sd	a5,-32(s0)
	j	.L124
.L123:
	.loc 1 735 23 is_stmt 0 discriminator 2
	sd	zero,-32(s0)
.L124:
	.loc 1 736 26 is_stmt 1
	ld	a5,-32(s0)
	addi	a5,a5,8
	.loc 1 736 9
	mv	a0,a5
	call	RemoveEntryList@plt
	.loc 1 737 9
	ld	a0,-32(s0)
	call	DestroyExpression
.L122:
	.loc 1 733 28
	ld	a5,-24(s0)
	addi	a5,a5,136
	.loc 1 733 15
	mv	a0,a5
	call	IsListEmpty@plt
	mv	a5,a0
	.loc 1 733 14 discriminator 1
	beq	a5,zero,.L125
.L121:
	.loc 1 719 24
	ld	a5,-56(s0)
	addi	a5,a5,88
	.loc 1 719 11
	mv	a0,a5
	call	IsListEmpty@plt
	mv	a5,a0
	.loc 1 719 10 discriminator 1
	beq	a5,zero,.L126
	.loc 1 745 3
	ld	a0,-56(s0)
	call	FreePool@plt
	.loc 1 746 1
	nop
	ld	ra,56(sp)
	.cfi_restore 1
	ld	s0,48(sp)
	.cfi_restore 8
	.cfi_def_cfa 2, 64
	addi	sp,sp,64
	.cfi_def_cfa_offset 0
	jr	ra
	.cfi_endproc
.LFE10:
	.size	DestroyExpression, .-DestroyExpression
	.section	.text.DestroyStorage,"ax",@progbits
	.align	1
	.globl	DestroyStorage
	.type	DestroyStorage, @function
DestroyStorage:
.LFB11:
	.loc 1 758 1
	.cfi_startproc
	addi	sp,sp,-32
	.cfi_def_cfa_offset 32
	sd	ra,24(sp)
	sd	s0,16(sp)
	.cfi_offset 1, -8
	.cfi_offset 8, -16
	addi	s0,sp,32
	.cfi_def_cfa 8, 0
	sd	a0,-24(s0)
	.loc 1 759 6
	ld	a5,-24(s0)
	beq	a5,zero,.L131
	.loc 1 763 14
	ld	a5,-24(s0)
	ld	a5,64(a5)
	.loc 1 763 6
	beq	a5,zero,.L130
	.loc 1 764 22
	ld	a5,-24(s0)
	ld	a5,64(a5)
	.loc 1 764 5
	mv	a0,a5
	call	FreePool@plt
.L130:
	.loc 1 767 3
	ld	a0,-24(s0)
	call	FreePool@plt
	j	.L127
.L131:
	.loc 1 760 5
	nop
.L127:
	.loc 1 768 1
	ld	ra,24(sp)
	.cfi_restore 1
	ld	s0,16(sp)
	.cfi_restore 8
	.cfi_def_cfa 2, 32
	addi	sp,sp,32
	.cfi_def_cfa_offset 0
	jr	ra
	.cfi_endproc
.LFE11:
	.size	DestroyStorage, .-DestroyStorage
	.section	.text.DestroyStatement,"ax",@progbits
	.align	1
	.globl	DestroyStatement
	.type	DestroyStatement, @function
DestroyStatement:
.LFB12:
	.loc 1 782 1
	.cfi_startproc
	addi	sp,sp,-64
	.cfi_def_cfa_offset 64
	sd	ra,56(sp)
	sd	s0,48(sp)
	.cfi_offset 1, -8
	.cfi_offset 8, -16
	addi	s0,sp,64
	.cfi_def_cfa 8, 0
	sd	a0,-56(s0)
	sd	a1,-64(s0)
	.loc 1 791 9
	j	.L133
.L137:
	.loc 1 792 26
	ld	a5,-64(s0)
	addi	a5,a5,208
	.loc 1 792 12
	mv	a0,a5
	call	GetFirstNode@plt
	sd	a0,-48(s0)
	.loc 1 793 17
	ld	a5,-48(s0)
	addi	a5,a5,-8
	.loc 1 793 121
	ld	a4,0(a5)
	.loc 1 793 206
	li	a5,1413890048
	addi	a5,a5,1105
	bne	a4,a5,.L134
	.loc 1 793 13 discriminator 1
	ld	a5,-48(s0)
	addi	a5,a5,-8
	sd	a5,-24(s0)
	j	.L135
.L134:
	.loc 1 793 13 is_stmt 0 discriminator 2
	sd	zero,-24(s0)
.L135:
	.loc 1 794 22 is_stmt 1
	ld	a5,-24(s0)
	addi	a5,a5,8
	.loc 1 794 5
	mv	a0,a5
	call	RemoveEntryList@plt
	.loc 1 796 23
	ld	a5,-24(s0)
	ld	a5,40(a5)
	.loc 1 796 8
	beq	a5,zero,.L136
	.loc 1 797 31
	ld	a5,-24(s0)
	ld	a5,40(a5)
	.loc 1 797 7
	mv	a0,a5
	call	FreePool@plt
.L136:
	.loc 1 800 5
	ld	a0,-24(s0)
	call	FreePool@plt
.L133:
	.loc 1 791 24
	ld	a5,-64(s0)
	addi	a5,a5,208
	.loc 1 791 11
	mv	a0,a5
	call	IsListEmpty@plt
	mv	a5,a0
	.loc 1 791 10 discriminator 1
	beq	a5,zero,.L137
	.loc 1 806 9
	j	.L138
.L142:
	.loc 1 807 26
	ld	a5,-64(s0)
	addi	a5,a5,224
	.loc 1 807 12
	mv	a0,a5
	call	GetFirstNode@plt
	sd	a0,-48(s0)
	.loc 1 808 16
	ld	a5,-48(s0)
	addi	a5,a5,-8
	.loc 1 808 118
	ld	a4,0(a5)
	.loc 1 808 203
	li	a5,1414549504
	addi	a5,a5,-175
	bne	a4,a5,.L139
	.loc 1 808 12 discriminator 1
	ld	a5,-48(s0)
	addi	a5,a5,-8
	sd	a5,-32(s0)
	j	.L140
.L139:
	.loc 1 808 12 is_stmt 0 discriminator 2
	sd	zero,-32(s0)
.L140:
	.loc 1 809 15 is_stmt 1
	ld	a5,-32(s0)
	ld	a5,88(a5)
	.loc 1 809 8
	beq	a5,zero,.L141
	.loc 1 810 23
	ld	a5,-32(s0)
	ld	a5,88(a5)
	.loc 1 810 7
	mv	a0,a5
	call	FreePool@plt
.L141:
	.loc 1 813 22
	ld	a5,-32(s0)
	addi	a5,a5,8
	.loc 1 813 5
	mv	a0,a5
	call	RemoveEntryList@plt
	.loc 1 815 5
	ld	a0,-32(s0)
	call	FreePool@plt
.L138:
	.loc 1 806 24
	ld	a5,-64(s0)
	addi	a5,a5,224
	.loc 1 806 11
	mv	a0,a5
	call	IsListEmpty@plt
	mv	a5,a0
	.loc 1 806 10 discriminator 1
	beq	a5,zero,.L142
	.loc 1 821 9
	j	.L143
.L146:
	.loc 1 822 26
	ld	a5,-64(s0)
	addi	a5,a5,256
	.loc 1 822 12
	mv	a0,a5
	call	GetFirstNode@plt
	sd	a0,-48(s0)
	.loc 1 823 20
	ld	a5,-48(s0)
	addi	a5,a5,-8
	.loc 1 823 122
	ld	a4,0(a5)
	.loc 1 823 207
	li	a5,1347960832
	addi	a5,a5,1350
	bne	a4,a5,.L144
	.loc 1 823 16 discriminator 1
	ld	a5,-48(s0)
	addi	a5,a5,-8
	sd	a5,-40(s0)
	j	.L145
.L144:
	.loc 1 823 16 is_stmt 0 discriminator 2
	sd	zero,-40(s0)
.L145:
	.loc 1 824 22 is_stmt 1
	ld	a5,-40(s0)
	addi	a5,a5,8
	.loc 1 824 5
	mv	a0,a5
	call	RemoveEntryList@plt
	.loc 1 826 5
	ld	a0,-40(s0)
	call	DestroyExpression
.L143:
	.loc 1 821 24
	ld	a5,-64(s0)
	addi	a5,a5,256
	.loc 1 821 11
	mv	a0,a5
	call	IsListEmpty@plt
	mv	a5,a0
	.loc 1 821 10 discriminator 1
	beq	a5,zero,.L146
	.loc 1 832 9
	j	.L147
.L150:
	.loc 1 833 26
	ld	a5,-64(s0)
	addi	a5,a5,272
	.loc 1 833 12
	mv	a0,a5
	call	GetFirstNode@plt
	sd	a0,-48(s0)
	.loc 1 834 20
	ld	a5,-48(s0)
	addi	a5,a5,-8
	.loc 1 834 122
	ld	a4,0(a5)
	.loc 1 834 207
	li	a5,1347960832
	addi	a5,a5,1350
	bne	a4,a5,.L148
	.loc 1 834 16 discriminator 1
	ld	a5,-48(s0)
	addi	a5,a5,-8
	sd	a5,-40(s0)
	j	.L149
.L148:
	.loc 1 834 16 is_stmt 0 discriminator 2
	sd	zero,-40(s0)
.L149:
	.loc 1 835 22 is_stmt 1
	ld	a5,-40(s0)
	addi	a5,a5,8
	.loc 1 835 5
	mv	a0,a5
	call	RemoveEntryList@plt
	.loc 1 837 5
	ld	a0,-40(s0)
	call	DestroyExpression
.L147:
	.loc 1 832 24
	ld	a5,-64(s0)
	addi	a5,a5,272
	.loc 1 832 11
	mv	a0,a5
	call	IsListEmpty@plt
	mv	a5,a0
	.loc 1 832 10 discriminator 1
	beq	a5,zero,.L150
	.loc 1 843 9
	j	.L151
.L154:
	.loc 1 844 26
	ld	a5,-64(s0)
	addi	a5,a5,288
	.loc 1 844 12
	mv	a0,a5
	call	GetFirstNode@plt
	sd	a0,-48(s0)
	.loc 1 845 20
	ld	a5,-48(s0)
	addi	a5,a5,-8
	.loc 1 845 122
	ld	a4,0(a5)
	.loc 1 845 207
	li	a5,1347960832
	addi	a5,a5,1350
	bne	a4,a5,.L152
	.loc 1 845 16 discriminator 1
	ld	a5,-48(s0)
	addi	a5,a5,-8
	sd	a5,-40(s0)
	j	.L153
.L152:
	.loc 1 845 16 is_stmt 0 discriminator 2
	sd	zero,-40(s0)
.L153:
	.loc 1 846 22 is_stmt 1
	ld	a5,-40(s0)
	addi	a5,a5,8
	.loc 1 846 5
	mv	a0,a5
	call	RemoveEntryList@plt
	.loc 1 848 5
	ld	a0,-40(s0)
	call	DestroyExpression
.L151:
	.loc 1 843 24
	ld	a5,-64(s0)
	addi	a5,a5,288
	.loc 1 843 11
	mv	a0,a5
	call	IsListEmpty@plt
	mv	a5,a0
	.loc 1 843 10 discriminator 1
	beq	a5,zero,.L154
	.loc 1 851 16
	ld	a5,-64(s0)
	ld	a5,304(a5)
	.loc 1 851 6
	beq	a5,zero,.L155
	.loc 1 852 24
	ld	a5,-64(s0)
	ld	a5,304(a5)
	.loc 1 852 5
	mv	a0,a5
	call	FreePool@plt
.L155:
	.loc 1 855 16
	ld	a5,-64(s0)
	ld	a5,80(a5)
	.loc 1 855 6
	beq	a5,zero,.L156
	.loc 1 856 24
	ld	a5,-64(s0)
	ld	a5,80(a5)
	.loc 1 856 5
	mv	a0,a5
	call	FreePool@plt
.L156:
	.loc 1 859 16
	ld	a5,-64(s0)
	ld	a5,88(a5)
	.loc 1 859 6
	beq	a5,zero,.L157
	.loc 1 860 24
	ld	a5,-64(s0)
	ld	a5,88(a5)
	.loc 1 860 5
	mv	a0,a5
	call	FreePool@plt
.L157:
	.loc 1 863 16
	ld	a5,-64(s0)
	ld	a5,136(a5)
	.loc 1 863 6
	beq	a5,zero,.L158
	.loc 1 864 24
	ld	a5,-64(s0)
	ld	a5,136(a5)
	.loc 1 864 5
	mv	a0,a5
	call	FreePool@plt
.L158:
	.loc 1 867 17
	ld	a5,-64(s0)
	lbu	a5,24(a5)
	.loc 1 867 6
	mv	a4,a5
	li	a5,28
	beq	a4,a5,.L159
	.loc 1 867 49 discriminator 1
	ld	a5,-64(s0)
	lbu	a5,24(a5)
	.loc 1 867 36 discriminator 1
	mv	a4,a5
	li	a5,8
	bne	a4,a5,.L161
.L159:
	.loc 1 868 5
	ld	a5,-64(s0)
	lhu	a4,114(a5)
	ld	a5,-56(s0)
	ld	a5,40(a5)
	mv	a1,a5
	mv	a0,a4
	call	DeleteString@plt
.L161:
	.loc 1 870 1
	nop
	ld	ra,56(sp)
	.cfi_restore 1
	ld	s0,48(sp)
	.cfi_restore 8
	.cfi_def_cfa 2, 64
	addi	sp,sp,64
	.cfi_def_cfa_offset 0
	jr	ra
	.cfi_endproc
.LFE12:
	.size	DestroyStatement, .-DestroyStatement
	.section	.text.DestroyForm,"ax",@progbits
	.align	1
	.globl	DestroyForm
	.type	DestroyForm, @function
DestroyForm:
.LFB13:
	.loc 1 884 1
	.cfi_startproc
	addi	sp,sp,-64
	.cfi_def_cfa_offset 64
	sd	ra,56(sp)
	sd	s0,48(sp)
	.cfi_offset 1, -8
	.cfi_offset 8, -16
	addi	s0,sp,64
	.cfi_def_cfa 8, 0
	sd	a0,-56(s0)
	sd	a1,-64(s0)
	.loc 1 893 9
	j	.L163
.L166:
	.loc 1 894 26
	ld	a5,-64(s0)
	addi	a5,a5,72
	.loc 1 894 12
	mv	a0,a5
	call	GetFirstNode@plt
	sd	a0,-48(s0)
	.loc 1 895 20
	ld	a5,-48(s0)
	addi	a5,a5,-8
	.loc 1 895 122
	ld	a4,0(a5)
	.loc 1 895 207
	li	a5,1347960832
	addi	a5,a5,1350
	bne	a4,a5,.L164
	.loc 1 895 16 discriminator 1
	ld	a5,-48(s0)
	addi	a5,a5,-8
	sd	a5,-24(s0)
	j	.L165
.L164:
	.loc 1 895 16 is_stmt 0 discriminator 2
	sd	zero,-24(s0)
.L165:
	.loc 1 896 22 is_stmt 1
	ld	a5,-24(s0)
	addi	a5,a5,8
	.loc 1 896 5
	mv	a0,a5
	call	RemoveEntryList@plt
	.loc 1 898 5
	ld	a0,-24(s0)
	call	DestroyExpression
.L163:
	.loc 1 893 24
	ld	a5,-64(s0)
	addi	a5,a5,72
	.loc 1 893 11
	mv	a0,a5
	call	IsListEmpty@plt
	mv	a5,a0
	.loc 1 893 10 discriminator 1
	beq	a5,zero,.L166
	.loc 1 904 9
	j	.L167
.L170:
	.loc 1 905 26
	ld	a5,-64(s0)
	addi	a5,a5,88
	.loc 1 905 12
	mv	a0,a5
	call	GetFirstNode@plt
	sd	a0,-48(s0)
	.loc 1 906 19
	ld	a5,-48(s0)
	addi	a5,a5,-8
	.loc 1 906 135
	ld	a4,0(a5)
	.loc 1 906 220
	li	a5,1096044544
	addi	a5,a5,838
	bne	a4,a5,.L168
	.loc 1 906 15 discriminator 1
	ld	a5,-48(s0)
	addi	a5,a5,-8
	sd	a5,-32(s0)
	j	.L169
.L168:
	.loc 1 906 15 is_stmt 0 discriminator 2
	sd	zero,-32(s0)
.L169:
	.loc 1 907 22 is_stmt 1
	ld	a5,-32(s0)
	addi	a5,a5,8
	.loc 1 907 5
	mv	a0,a5
	call	RemoveEntryList@plt
	.loc 1 909 5
	ld	a1,-32(s0)
	ld	a0,-56(s0)
	call	DestroyStatement
.L167:
	.loc 1 904 24
	ld	a5,-64(s0)
	addi	a5,a5,88
	.loc 1 904 11
	mv	a0,a5
	call	IsListEmpty@plt
	mv	a5,a0
	.loc 1 904 10 discriminator 1
	beq	a5,zero,.L170
	.loc 1 915 9
	j	.L171
.L174:
	.loc 1 916 26
	ld	a5,-64(s0)
	addi	a5,a5,104
	.loc 1 916 12
	mv	a0,a5
	call	GetFirstNode@plt
	sd	a0,-48(s0)
	.loc 1 917 20
	ld	a5,-48(s0)
	addi	a5,a5,-8
	.loc 1 917 146
	ld	a4,0(a5)
	.loc 1 917 231
	li	a5,1397899264
	addi	a5,a5,838
	bne	a4,a5,.L172
	.loc 1 917 16 discriminator 1
	ld	a5,-48(s0)
	addi	a5,a5,-8
	sd	a5,-40(s0)
	j	.L173
.L172:
	.loc 1 917 16 is_stmt 0 discriminator 2
	sd	zero,-40(s0)
.L173:
	.loc 1 918 22 is_stmt 1
	ld	a5,-40(s0)
	addi	a5,a5,8
	.loc 1 918 5
	mv	a0,a5
	call	RemoveEntryList@plt
	.loc 1 920 25
	ld	a5,-40(s0)
	ld	a5,40(a5)
	.loc 1 920 5
	mv	a0,a5
	call	FreePool@plt
	.loc 1 921 5
	ld	a0,-40(s0)
	call	FreePool@plt
.L171:
	.loc 1 915 24
	ld	a5,-64(s0)
	addi	a5,a5,104
	.loc 1 915 11
	mv	a0,a5
	call	IsListEmpty@plt
	mv	a5,a0
	.loc 1 915 10 discriminator 1
	beq	a5,zero,.L174
	.loc 1 924 11
	ld	a5,-64(s0)
	ld	a5,120(a5)
	.loc 1 924 6
	beq	a5,zero,.L175
	.loc 1 925 19
	ld	a5,-64(s0)
	ld	a5,120(a5)
	.loc 1 925 5
	mv	a0,a5
	call	FreePool@plt
.L175:
	.loc 1 928 3
	ld	a5,-64(s0)
	addi	a5,a5,56
	mv	a0,a5
	call	UiFreeMenuList@plt
	.loc 1 933 3
	ld	a0,-64(s0)
	call	FreePool@plt
	.loc 1 934 1
	nop
	ld	ra,56(sp)
	.cfi_restore 1
	ld	s0,48(sp)
	.cfi_restore 8
	.cfi_def_cfa 2, 64
	addi	sp,sp,64
	.cfi_def_cfa_offset 0
	jr	ra
	.cfi_endproc
.LFE13:
	.size	DestroyForm, .-DestroyForm
	.section	.text.DestroyFormSet,"ax",@progbits
	.align	1
	.globl	DestroyFormSet
	.type	DestroyFormSet, @function
DestroyFormSet:
.LFB14:
	.loc 1 946 1
	.cfi_startproc
	addi	sp,sp,-80
	.cfi_def_cfa_offset 80
	sd	ra,72(sp)
	sd	s0,64(sp)
	.cfi_offset 1, -8
	.cfi_offset 8, -16
	addi	s0,sp,80
	.cfi_def_cfa 8, 0
	sd	a0,-72(s0)
	.loc 1 953 14
	ld	a5,-72(s0)
	ld	a5,80(a5)
	.loc 1 953 6
	bne	a5,zero,.L177
	.loc 1 957 5
	ld	a0,-72(s0)
	call	FreePool@plt
	.loc 1 958 5
	j	.L176
.L177:
	.loc 1 964 20
	ld	a5,-72(s0)
	ld	a5,80(a5)
	.loc 1 964 3
	mv	a0,a5
	call	FreePool@plt
	.loc 1 969 31
	ld	a5,-72(s0)
	ld	a5,232(a5)
	.loc 1 969 6
	beq	a5,zero,.L179
	.loc 1 970 11
	j	.L180
.L183:
	.loc 1 971 28
	ld	a5,-72(s0)
	addi	a5,a5,232
	.loc 1 971 14
	mv	a0,a5
	call	GetFirstNode@plt
	sd	a0,-56(s0)
	.loc 1 972 19
	ld	a5,-56(s0)
	addi	a5,a5,-8
	.loc 1 972 121
	ld	a4,0(a5)
	.loc 1 972 206
	li	a5,1196707840
	addi	a5,a5,838
	bne	a4,a5,.L181
	.loc 1 972 15 discriminator 1
	ld	a5,-56(s0)
	addi	a5,a5,-8
	sd	a5,-24(s0)
	j	.L182
.L181:
	.loc 1 972 15 is_stmt 0 discriminator 2
	sd	zero,-24(s0)
.L182:
	.loc 1 973 24 is_stmt 1
	ld	a5,-24(s0)
	addi	a5,a5,8
	.loc 1 973 7
	mv	a0,a5
	call	RemoveEntryList@plt
	.loc 1 975 7
	ld	a0,-24(s0)
	call	DestroyStorage
.L180:
	.loc 1 970 26
	ld	a5,-72(s0)
	addi	a5,a5,232
	.loc 1 970 13
	mv	a0,a5
	call	IsListEmpty@plt
	mv	a5,a0
	.loc 1 970 12 discriminator 1
	beq	a5,zero,.L183
.L179:
	.loc 1 982 36
	ld	a5,-72(s0)
	ld	a5,264(a5)
	.loc 1 982 6
	beq	a5,zero,.L189
	.loc 1 983 11
	j	.L185
.L188:
	.loc 1 984 28
	ld	a5,-72(s0)
	addi	a5,a5,264
	.loc 1 984 14
	mv	a0,a5
	call	GetFirstNode@plt
	sd	a0,-56(s0)
	.loc 1 985 24
	ld	a5,-56(s0)
	addi	a5,a5,-8
	.loc 1 985 136
	ld	a4,0(a5)
	.loc 1 985 221
	li	a5,1397112832
	addi	a5,a5,1094
	bne	a4,a5,.L186
	.loc 1 985 20 discriminator 1
	ld	a5,-56(s0)
	addi	a5,a5,-8
	sd	a5,-32(s0)
	j	.L187
.L186:
	.loc 1 985 20 is_stmt 0 discriminator 2
	sd	zero,-32(s0)
.L187:
	.loc 1 986 24 is_stmt 1
	ld	a5,-32(s0)
	addi	a5,a5,8
	.loc 1 986 7
	mv	a0,a5
	call	RemoveEntryList@plt
	.loc 1 988 7
	ld	a0,-32(s0)
	call	FreePool@plt
.L185:
	.loc 1 983 26
	ld	a5,-72(s0)
	addi	a5,a5,264
	.loc 1 983 13
	mv	a0,a5
	call	IsListEmpty@plt
	mv	a5,a0
	.loc 1 983 12 discriminator 1
	beq	a5,zero,.L188
	.loc 1 995 9
	j	.L189
.L192:
	.loc 1 996 26
	ld	a5,-72(s0)
	addi	a5,a5,296
	.loc 1 996 12
	mv	a0,a5
	call	GetFirstNode@plt
	sd	a0,-56(s0)
	.loc 1 997 20
	ld	a5,-56(s0)
	addi	a5,a5,-8
	.loc 1 997 122
	ld	a4,0(a5)
	.loc 1 997 207
	li	a5,1347960832
	addi	a5,a5,1350
	bne	a4,a5,.L190
	.loc 1 997 16 discriminator 1
	ld	a5,-56(s0)
	addi	a5,a5,-8
	sd	a5,-40(s0)
	j	.L191
.L190:
	.loc 1 997 16 is_stmt 0 discriminator 2
	sd	zero,-40(s0)
.L191:
	.loc 1 998 22 is_stmt 1
	ld	a5,-40(s0)
	addi	a5,a5,8
	.loc 1 998 5
	mv	a0,a5
	call	RemoveEntryList@plt
	.loc 1 1000 5
	ld	a0,-40(s0)
	call	DestroyExpression
.L189:
	.loc 1 995 24
	ld	a5,-72(s0)
	addi	a5,a5,296
	.loc 1 995 11
	mv	a0,a5
	call	IsListEmpty@plt
	mv	a5,a0
	.loc 1 995 10 discriminator 1
	beq	a5,zero,.L192
	.loc 1 1006 28
	ld	a5,-72(s0)
	ld	a5,280(a5)
	.loc 1 1006 6
	beq	a5,zero,.L193
	.loc 1 1007 11
	j	.L194
.L197:
	.loc 1 1008 28
	ld	a5,-72(s0)
	addi	a5,a5,280
	.loc 1 1008 14
	mv	a0,a5
	call	GetFirstNode@plt
	sd	a0,-56(s0)
	.loc 1 1009 16
	ld	a5,-56(s0)
	addi	a5,a5,-8
	.loc 1 1009 122
	ld	a4,0(a5)
	.loc 1 1009 207
	li	a5,1297235968
	addi	a5,a5,1606
	bne	a4,a5,.L195
	.loc 1 1009 12 discriminator 1
	ld	a5,-56(s0)
	addi	a5,a5,-8
	sd	a5,-48(s0)
	j	.L196
.L195:
	.loc 1 1009 12 is_stmt 0 discriminator 2
	sd	zero,-48(s0)
.L196:
	.loc 1 1010 24 is_stmt 1
	ld	a5,-48(s0)
	addi	a5,a5,8
	.loc 1 1010 7
	mv	a0,a5
	call	RemoveEntryList@plt
	.loc 1 1012 7
	ld	a1,-48(s0)
	ld	a0,-72(s0)
	call	DestroyForm
.L194:
	.loc 1 1007 26
	ld	a5,-72(s0)
	addi	a5,a5,280
	.loc 1 1007 13
	mv	a0,a5
	call	IsListEmpty@plt
	mv	a5,a0
	.loc 1 1007 12 discriminator 1
	beq	a5,zero,.L197
.L193:
	.loc 1 1016 14
	ld	a5,-72(s0)
	ld	a5,184(a5)
	.loc 1 1016 6
	beq	a5,zero,.L198
	.loc 1 1017 22
	ld	a5,-72(s0)
	ld	a5,184(a5)
	.loc 1 1017 5
	mv	a0,a5
	call	FreePool@plt
.L198:
	.loc 1 1020 14
	ld	a5,-72(s0)
	ld	a5,192(a5)
	.loc 1 1020 6
	beq	a5,zero,.L199
	.loc 1 1021 22
	ld	a5,-72(s0)
	ld	a5,192(a5)
	.loc 1 1021 5
	mv	a0,a5
	call	FreePool@plt
.L199:
	.loc 1 1024 3
	ld	a0,-72(s0)
	call	FreePool@plt
.L176:
	.loc 1 1025 1
	ld	ra,72(sp)
	.cfi_restore 1
	ld	s0,64(sp)
	.cfi_restore 8
	.cfi_def_cfa 2, 80
	addi	sp,sp,80
	.cfi_def_cfa_offset 0
	jr	ra
	.cfi_endproc
.LFE14:
	.size	DestroyFormSet, .-DestroyFormSet
	.section	.text.IsExpressionOpCode,"ax",@progbits
	.align	1
	.globl	IsExpressionOpCode
	.type	IsExpressionOpCode, @function
IsExpressionOpCode:
.LFB15:
	.loc 1 1040 1
	.cfi_startproc
	addi	sp,sp,-32
	.cfi_def_cfa_offset 32
	sd	ra,24(sp)
	sd	s0,16(sp)
	.cfi_offset 1, -8
	.cfi_offset 8, -16
	addi	s0,sp,32
	.cfi_def_cfa 8, 0
	mv	a5,a0
	sb	a5,-17(s0)
	.loc 1 1041 6
	lbu	a5,-17(s0)
	andi	a4,a5,0xff
	li	a5,17
	bleu	a4,a5,.L201
	.loc 1 1041 26 discriminator 1
	lbu	a5,-17(s0)
	andi	a4,a5,0xff
	li	a5,23
	bleu	a4,a5,.L202
.L201:
	.loc 1 1041 48 discriminator 3
	lbu	a5,-17(s0)
	andi	a4,a5,0xff
	li	a5,41
	bleu	a4,a5,.L203
	.loc 1 1042 26
	lbu	a5,-17(s0)
	andi	a4,a5,0xff
	li	a5,44
	bleu	a4,a5,.L202
.L203:
	.loc 1 1042 48 discriminator 1
	lbu	a5,-17(s0)
	andi	a4,a5,0xff
	li	a5,46
	bleu	a4,a5,.L204
	.loc 1 1043 26
	lbu	a5,-17(s0)
	andi	a4,a5,0xff
	li	a5,89
	bleu	a4,a5,.L202
.L204:
	.loc 1 1043 48 discriminator 1
	lbu	a5,-17(s0)
	andi	a4,a5,0xff
	li	a5,94
	beq	a4,a5,.L202
	.loc 1 1044 25
	lbu	a5,-17(s0)
	andi	a4,a5,0xff
	li	a5,32
	beq	a4,a5,.L202
	.loc 1 1045 25
	lbu	a5,-17(s0)
	andi	a4,a5,0xff
	li	a5,33
	beq	a4,a5,.L202
	.loc 1 1046 25
	lbu	a5,-17(s0)
	andi	a4,a5,0xff
	li	a5,34
	beq	a4,a5,.L202
	.loc 1 1047 25
	lbu	a5,-17(s0)
	andi	a4,a5,0xff
	li	a5,40
	beq	a4,a5,.L202
	.loc 1 1048 25
	lbu	a5,-17(s0)
	andi	a4,a5,0xff
	li	a5,96
	beq	a4,a5,.L202
	.loc 1 1049 25
	lbu	a5,-17(s0)
	andi	a4,a5,0xff
	li	a5,100
	bne	a4,a5,.L205
.L202:
	.loc 1 1052 12
	li	a5,1
	j	.L206
.L205:
	.loc 1 1054 12
	li	a5,0
.L206:
	.loc 1 1056 1
	mv	a0,a5
	ld	ra,24(sp)
	.cfi_restore 1
	ld	s0,16(sp)
	.cfi_restore 8
	.cfi_def_cfa 2, 32
	addi	sp,sp,32
	.cfi_def_cfa_offset 0
	jr	ra
	.cfi_endproc
.LFE15:
	.size	IsExpressionOpCode, .-IsExpressionOpCode
	.section	.text.IsStatementOpCode,"ax",@progbits
	.align	1
	.globl	IsStatementOpCode
	.type	IsStatementOpCode, @function
IsStatementOpCode:
.LFB16:
	.loc 1 1071 1
	.cfi_startproc
	addi	sp,sp,-32
	.cfi_def_cfa_offset 32
	sd	ra,24(sp)
	sd	s0,16(sp)
	.cfi_offset 1, -8
	.cfi_offset 8, -16
	addi	s0,sp,32
	.cfi_def_cfa 8, 0
	mv	a5,a0
	sb	a5,-17(s0)
	.loc 1 1072 6
	lbu	a5,-17(s0)
	andi	a4,a5,0xff
	li	a5,2
	beq	a4,a5,.L208
	.loc 1 1072 25 discriminator 1
	lbu	a5,-17(s0)
	andi	a4,a5,0xff
	li	a5,3
	beq	a4,a5,.L208
	.loc 1 1073 25
	lbu	a5,-17(s0)
	andi	a4,a5,0xff
	li	a5,13
	beq	a4,a5,.L208
	.loc 1 1074 25
	lbu	a5,-17(s0)
	andi	a4,a5,0xff
	li	a5,15
	beq	a4,a5,.L208
	.loc 1 1075 25
	lbu	a5,-17(s0)
	andi	a4,a5,0xff
	li	a5,12
	beq	a4,a5,.L208
	.loc 1 1076 25
	lbu	a5,-17(s0)
	andi	a4,a5,0xff
	li	a5,7
	beq	a4,a5,.L208
	.loc 1 1077 25
	lbu	a5,-17(s0)
	andi	a4,a5,0xff
	li	a5,35
	beq	a4,a5,.L208
	.loc 1 1078 25
	lbu	a5,-17(s0)
	andi	a4,a5,0xff
	li	a5,6
	beq	a4,a5,.L208
	.loc 1 1079 25
	lbu	a5,-17(s0)
	andi	a4,a5,0xff
	li	a5,28
	beq	a4,a5,.L208
	.loc 1 1080 25
	lbu	a5,-17(s0)
	andi	a4,a5,0xff
	li	a5,8
	beq	a4,a5,.L208
	.loc 1 1081 25
	lbu	a5,-17(s0)
	andi	a4,a5,0xff
	li	a5,26
	beq	a4,a5,.L208
	.loc 1 1082 25
	lbu	a5,-17(s0)
	andi	a4,a5,0xff
	li	a5,27
	beq	a4,a5,.L208
	.loc 1 1083 25
	lbu	a5,-17(s0)
	andi	a4,a5,0xff
	li	a5,95
	beq	a4,a5,.L208
	.loc 1 1084 25
	lbu	a5,-17(s0)
	andi	a4,a5,0xff
	li	a5,5
	bne	a4,a5,.L209
.L208:
	.loc 1 1087 12
	li	a5,1
	j	.L210
.L209:
	.loc 1 1089 12
	li	a5,0
.L210:
	.loc 1 1091 1
	mv	a0,a5
	ld	ra,24(sp)
	.cfi_restore 1
	ld	s0,16(sp)
	.cfi_restore 8
	.cfi_def_cfa 2, 32
	addi	sp,sp,32
	.cfi_def_cfa_offset 0
	jr	ra
	.cfi_endproc
.LFE16:
	.size	IsStatementOpCode, .-IsStatementOpCode
	.section	.text.IsUnKnownOpCode,"ax",@progbits
	.align	1
	.globl	IsUnKnownOpCode
	.type	IsUnKnownOpCode, @function
IsUnKnownOpCode:
.LFB17:
	.loc 1 1106 1
	.cfi_startproc
	addi	sp,sp,-32
	.cfi_def_cfa_offset 32
	sd	ra,24(sp)
	sd	s0,16(sp)
	.cfi_offset 1, -8
	.cfi_offset 8, -16
	addi	s0,sp,32
	.cfi_def_cfa 8, 0
	mv	a5,a0
	sb	a5,-17(s0)
	.loc 1 1107 45
	lbu	a5,-17(s0)
	sext.w	a4,a5
	li	a5,100
	sgtu	a5,a4,a5
	andi	a5,a5,0xff
	.loc 1 1108 1
	mv	a0,a5
	ld	ra,24(sp)
	.cfi_restore 1
	ld	s0,16(sp)
	.cfi_restore 8
	.cfi_def_cfa 2, 32
	addi	sp,sp,32
	.cfi_def_cfa_offset 0
	jr	ra
	.cfi_endproc
.LFE17:
	.size	IsUnKnownOpCode, .-IsUnKnownOpCode
	.section	.text.CountOpCodes,"ax",@progbits
	.align	1
	.globl	CountOpCodes
	.type	CountOpCodes, @function
CountOpCodes:
.LFB18:
	.loc 1 1124 1
	.cfi_startproc
	addi	sp,sp,-96
	.cfi_def_cfa_offset 96
	sd	ra,88(sp)
	sd	s0,80(sp)
	.cfi_offset 1, -8
	.cfi_offset 8, -16
	addi	s0,sp,96
	.cfi_def_cfa 8, 0
	sd	a0,-72(s0)
	sd	a1,-80(s0)
	sd	a2,-88(s0)
	.loc 1 1131 10
	sd	zero,-40(s0)
	.loc 1 1132 18
	sd	zero,-24(s0)
	.loc 1 1133 19
	sd	zero,-32(s0)
	.loc 1 1135 9
	j	.L214
.L217:
	.loc 1 1136 25
	ld	a5,-72(s0)
	ld	a4,80(a5)
	.loc 1 1136 16
	ld	a5,-40(s0)
	add	a5,a4,a5
	sd	a5,-48(s0)
	.loc 1 1137 50
	ld	a5,-48(s0)
	lbu	a5,1(a5)
	andi	a5,a5,127
	andi	a5,a5,0xff
	.loc 1 1137 15
	sd	a5,-56(s0)
	.loc 1 1138 12
	ld	a4,-40(s0)
	ld	a5,-56(s0)
	add	a5,a4,a5
	sd	a5,-40(s0)
	.loc 1 1140 9
	ld	a5,-48(s0)
	lbu	a5,0(a5)
	mv	a0,a5
	call	IsExpressionOpCode
	mv	a5,a0
	.loc 1 1140 8 discriminator 1
	beq	a5,zero,.L215
	.loc 1 1141 22
	ld	a5,-32(s0)
	addi	a5,a5,1
	sd	a5,-32(s0)
	j	.L214
.L215:
	.loc 1 1143 21
	ld	a5,-24(s0)
	addi	a5,a5,1
	sd	a5,-24(s0)
.L214:
	.loc 1 1135 26
	ld	a5,-72(s0)
	ld	a5,72(a5)
	.loc 1 1135 17
	ld	a4,-40(s0)
	bltu	a4,a5,.L217
	.loc 1 1147 22
	ld	a5,-80(s0)
	ld	a4,-24(s0)
	sd	a4,0(a5)
	.loc 1 1148 23
	ld	a5,-88(s0)
	ld	a4,-32(s0)
	sd	a4,0(a5)
	.loc 1 1149 1
	nop
	ld	ra,88(sp)
	.cfi_restore 1
	ld	s0,80(sp)
	.cfi_restore 8
	.cfi_def_cfa 2, 96
	addi	sp,sp,96
	.cfi_def_cfa_offset 0
	jr	ra
	.cfi_endproc
.LFE18:
	.size	CountOpCodes, .-CountOpCodes
	.section	.text.ParseOpCodes,"ax",@progbits
	.align	1
	.globl	ParseOpCodes
	.type	ParseOpCodes, @function
ParseOpCodes:
.LFB19:
	.loc 1 1164 1
	.cfi_startproc
	addi	sp,sp,-320
	.cfi_def_cfa_offset 320
	sd	ra,312(sp)
	sd	s0,304(sp)
	sd	s1,296(sp)
	.cfi_offset 1, -8
	.cfi_offset 8, -16
	.cfi_offset 9, -24
	addi	s0,sp,320
	.cfi_def_cfa 8, 0
	sd	a0,-312(s0)
	.loc 1 1208 23
	sb	zero,-113(s0)
	.loc 1 1209 21
	sb	zero,-114(s0)
	.loc 1 1210 18
	sb	zero,-153(s0)
	.loc 1 1211 18
	sh	zero,-116(s0)
	.loc 1 1212 18
	sb	zero,-117(s0)
	.loc 1 1213 26
	sb	zero,-118(s0)
	.loc 1 1214 18
	sb	zero,-119(s0)
	.loc 1 1215 21
	sd	zero,-264(s0)
	.loc 1 1216 18
	sd	zero,-88(s0)
	.loc 1 1217 17
	sd	zero,-96(s0)
	.loc 1 1218 11
	sd	zero,-112(s0)
	.loc 1 1219 13
	sd	zero,-128(s0)
	.loc 1 1220 17
	sb	zero,-129(s0)
	.loc 1 1221 8
	sd	zero,-144(s0)
	.loc 1 1222 14
	sd	zero,-152(s0)
	.loc 1 1223 21
	sd	zero,-296(s0)
	.loc 1 1224 18
	sh	zero,-298(s0)
	.loc 1 1225 24
	sd	zero,-192(s0)
	.loc 1 1226 18
	sb	zero,-154(s0)
	.loc 1 1227 16
	sb	zero,-155(s0)
	.loc 1 1228 25
	sb	zero,-178(s0)
	.loc 1 1233 3
	addi	a4,s0,-288
	addi	a5,s0,-280
	mv	a2,a4
	mv	a1,a5
	ld	a0,-312(s0)
	call	CountOpCodes
	.loc 1 1235 19
	lla	a5,mStatementIndex
	sd	zero,0(a5)
	.loc 1 1236 19
	lla	a5,mUsedQuestionId
	li	a4,1
	sh	a4,0(a5)
	.loc 1 1237 30
	ld	a4,-280(s0)
	.loc 1 1237 66
	li	a5,328
	mul	a5,a4,a5
	.loc 1 1237 30
	mv	a0,a5
	call	AllocateZeroPool@plt
	mv	a4,a0
	.loc 1 1237 28 discriminator 1
	ld	a5,-312(s0)
	sd	a4,184(a5)
	.loc 1 1238 14
	ld	a5,-312(s0)
	ld	a5,184(a5)
	.loc 1 1238 6
	bne	a5,zero,.L219
	.loc 1 1239 12
	li	a5,-1
	slli	a5,a5,63
	addi	a5,a5,9
	j	.L441
.L219:
	.loc 1 1242 26
	lla	a5,mExpressionOpCodeIndex
	sd	zero,0(a5)
	.loc 1 1243 31
	ld	a4,-288(s0)
	.loc 1 1243 68
	li	a5,152
	mul	a5,a4,a5
	.loc 1 1243 31
	mv	a0,a5
	call	AllocateZeroPool@plt
	mv	a4,a0
	.loc 1 1243 29 discriminator 1
	ld	a5,-312(s0)
	sd	a4,192(a5)
	.loc 1 1244 14
	ld	a5,-312(s0)
	ld	a5,192(a5)
	.loc 1 1244 6
	bne	a5,zero,.L221
	.loc 1 1245 12
	li	a5,-1
	slli	a5,a5,63
	addi	a5,a5,9
	j	.L441
.L221:
	.loc 1 1248 3
	ld	a5,-312(s0)
	addi	a5,a5,216
	mv	a0,a5
	call	InitializeListHead@plt
	.loc 1 1249 3
	ld	a5,-312(s0)
	addi	a5,a5,232
	mv	a0,a5
	call	InitializeListHead@plt
	.loc 1 1250 3
	ld	a5,-312(s0)
	addi	a5,a5,248
	mv	a0,a5
	call	InitializeListHead@plt
	.loc 1 1251 3
	ld	a5,-312(s0)
	addi	a5,a5,264
	mv	a0,a5
	call	InitializeListHead@plt
	.loc 1 1252 3
	ld	a5,-312(s0)
	addi	a5,a5,280
	mv	a0,a5
	call	InitializeListHead@plt
	.loc 1 1253 3
	ld	a5,-312(s0)
	addi	a5,a5,296
	mv	a0,a5
	call	InitializeListHead@plt
	.loc 1 1254 3
	call	ResetCurrentExpressionStack@plt
	.loc 1 1255 3
	call	ResetMapExpressionListStack@plt
	.loc 1 1257 15
	sd	zero,-40(s0)
	.loc 1 1258 20
	sd	zero,-48(s0)
	.loc 1 1259 19
	sd	zero,-56(s0)
	.loc 1 1261 3
	call	ResetScopeStack@plt
	.loc 1 1263 16
	sd	zero,-72(s0)
	.loc 1 1264 9
	j	.L222
.L440:
	.loc 1 1265 25
	ld	a5,-312(s0)
	ld	a4,80(a5)
	.loc 1 1265 16
	ld	a5,-72(s0)
	add	a5,a4,a5
	sd	a5,-200(s0)
	.loc 1 1267 53
	ld	a5,-200(s0)
	lbu	a5,1(a5)
	andi	a5,a5,127
	andi	a5,a5,0xff
	.loc 1 1267 18
	sd	a5,-208(s0)
	.loc 1 1268 18
	ld	a4,-72(s0)
	ld	a5,-208(s0)
	add	a5,a4,a5
	sd	a5,-72(s0)
	.loc 1 1269 13
	ld	a5,-200(s0)
	lbu	a5,0(a5)
	sb	a5,-209(s0)
	.loc 1 1270 46
	ld	a5,-200(s0)
	lbu	a5,1(a5)
	srliw	a5,a5,7
	andi	a5,a5,0xff
	.loc 1 1270 11
	sb	a5,-57(s0)
	.loc 1 1272 8
	lbu	a5,-154(s0)
	andi	a5,a5,0xff
	beq	a5,zero,.L223
	.loc 1 1273 10
	lbu	a5,-209(s0)
	andi	a4,a5,0xff
	li	a5,41
	bne	a4,a5,.L224
	.loc 1 1274 21
	lbu	a5,-155(s0)
	addiw	a5,a5,-1
	sb	a5,-155(s0)
	.loc 1 1276 12
	lbu	a5,-155(s0)
	andi	a5,a5,0xff
	bne	a5,zero,.L442
	.loc 1 1277 26
	sb	zero,-154(s0)
	.loc 1 1285 7
	j	.L442
.L224:
	.loc 1 1280 12
	lbu	a5,-57(s0)
	andi	a5,a5,0xff
	beq	a5,zero,.L442
	.loc 1 1281 23
	lbu	a5,-155(s0)
	addiw	a5,a5,1
	sb	a5,-155(s0)
	.loc 1 1285 7
	j	.L442
.L223:
	.loc 1 1288 9
	lbu	a5,-209(s0)
	mv	a0,a5
	call	IsUnKnownOpCode
	mv	a5,a0
	.loc 1 1288 8 discriminator 1
	beq	a5,zero,.L227
	.loc 1 1289 10
	lbu	a5,-57(s0)
	andi	a5,a5,0xff
	beq	a5,zero,.L443
	.loc 1 1290 24
	li	a5,1
	sb	a5,-154(s0)
	.loc 1 1291 21
	lbu	a5,-155(s0)
	addiw	a5,a5,1
	sb	a5,-155(s0)
	.loc 1 1294 7
	j	.L443
.L227:
	.loc 1 1300 8
	lbu	a5,-57(s0)
	andi	a5,a5,0xff
	beq	a5,zero,.L229
	.loc 1 1301 7
	lbu	a5,-209(s0)
	mv	a0,a5
	call	PushScope@plt
.L229:
	.loc 1 1304 8
	lbu	a5,-117(s0)
	andi	a5,a5,0xff
	beq	a5,zero,.L230
	.loc 1 1309 10
	lbu	a5,-209(s0)
	andi	a4,a5,0xff
	li	a5,30
	bne	a4,a5,.L231
	.loc 1 1310 23
	lhu	a5,-116(s0)
	addiw	a5,a5,1
	sh	a5,-116(s0)
	.loc 1 1327 7
	j	.L444
.L231:
	.loc 1 1311 17
	lbu	a5,-209(s0)
	andi	a4,a5,0xff
	li	a5,41
	bne	a4,a5,.L444
	.loc 1 1312 18
	addi	a5,s0,-265
	mv	a0,a5
	call	PopScope@plt
	sd	a0,-232(s0)
	.loc 1 1313 40
	ld	a5,-232(s0)
	.loc 1 1313 12
	bge	a5,zero,.L233
	.loc 1 1314 18
	ld	a5,-232(s0)
	j	.L441
.L233:
	.loc 1 1317 25
	lbu	a5,-265(s0)
	.loc 1 1317 12
	mv	a4,a5
	li	a5,30
	bne	a4,a5,.L444
	.loc 1 1318 14
	lhu	a5,-116(s0)
	sext.w	a5,a5
	bne	a5,zero,.L234
	.loc 1 1319 28
	sb	zero,-153(s0)
	.loc 1 1320 28
	sb	zero,-117(s0)
	.loc 1 1327 7
	j	.L444
.L234:
	.loc 1 1322 27
	lhu	a5,-116(s0)
	addiw	a5,a5,-1
	sh	a5,-116(s0)
	.loc 1 1327 7
	j	.L444
.L230:
	.loc 1 1330 9
	lbu	a5,-209(s0)
	mv	a0,a5
	call	IsExpressionOpCode
	mv	a5,a0
	.loc 1 1330 8 discriminator 1
	beq	a5,zero,.L235
	.loc 1 1331 34
	ld	a5,-312(s0)
	ld	a4,192(a5)
	.loc 1 1331 52
	lla	a5,mExpressionOpCodeIndex
	ld	a3,0(a5)
	li	a5,152
	mul	a5,a3,a5
	.loc 1 1331 24
	add	a5,a4,a5
	sd	a5,-256(s0)
	.loc 1 1332 29
	lla	a5,mExpressionOpCodeIndex
	ld	a5,0(a5)
	addi	a4,a5,1
	lla	a5,mExpressionOpCodeIndex
	sd	a4,0(a5)
	.loc 1 1334 35
	ld	a5,-256(s0)
	li	a4,1347379200
	addi	a4,a4,-1979
	sd	a4,0(a5)
	.loc 1 1335 33
	ld	a5,-256(s0)
	lbu	a4,-209(s0)
	sb	a4,24(a5)
	.loc 1 1336 13
	ld	a5,-256(s0)
	addi	a5,a5,32
	sd	a5,-240(s0)
	.loc 1 1338 7
	lbu	a5,-209(s0)
	sext.w	a5,a5
	li	a4,100
	beq	a5,a4,.L236
	li	a4,100
	bgt	a5,a4,.L445
	li	a4,96
	beq	a5,a4,.L238
	li	a4,96
	bgt	a5,a4,.L445
	li	a4,89
	beq	a5,a4,.L239
	li	a4,89
	bgt	a5,a4,.L445
	li	a4,88
	beq	a5,a4,.L240
	li	a4,88
	bgt	a5,a4,.L445
	li	a4,85
	beq	a5,a4,.L241
	li	a4,85
	bgt	a5,a4,.L445
	li	a4,84
	beq	a5,a4,.L242
	li	a4,84
	bgt	a5,a4,.L445
	li	a4,83
	beq	a5,a4,.L243
	li	a4,83
	bgt	a5,a4,.L445
	li	a4,82
	beq	a5,a4,.L244
	li	a4,82
	bgt	a5,a4,.L445
	li	a4,81
	beq	a5,a4,.L245
	li	a4,81
	bgt	a5,a4,.L445
	li	a4,78
	beq	a5,a4,.L246
	li	a4,78
	bgt	a5,a4,.L445
	li	a4,76
	beq	a5,a4,.L247
	li	a4,76
	bgt	a5,a4,.L445
	li	a4,73
	beq	a5,a4,.L247
	li	a4,73
	bgt	a5,a4,.L445
	li	a4,71
	beq	a5,a4,.L248
	li	a4,71
	bgt	a5,a4,.L445
	li	a4,70
	beq	a5,a4,.L249
	li	a4,70
	bgt	a5,a4,.L445
	li	a4,69
	beq	a5,a4,.L250
	li	a4,69
	bgt	a5,a4,.L445
	li	a4,68
	beq	a5,a4,.L251
	li	a4,68
	bgt	a5,a4,.L445
	li	a4,67
	beq	a5,a4,.L252
	li	a4,67
	bgt	a5,a4,.L445
	li	a4,66
	beq	a5,a4,.L253
	li	a4,66
	bgt	a5,a4,.L445
	li	a4,64
	beq	a5,a4,.L254
	li	a4,64
	bgt	a5,a4,.L445
	li	a4,63
	beq	a5,a4,.L255
	li	a4,63
	bgt	a5,a4,.L445
	li	a4,44
	bgt	a5,a4,.L445
	li	a4,43
	bge	a5,a4,.L256
	li	a4,40
	beq	a5,a4,.L257
	li	a4,40
	bgt	a5,a4,.L445
	li	a4,20
	beq	a5,a4,.L258
	li	a4,20
	bgt	a5,a4,.L445
	li	a4,18
	beq	a5,a4,.L259
	li	a4,19
	beq	a5,a4,.L260
	.loc 1 1546 11
	j	.L445
.L259:
	.loc 1 1340 20
	ld	a5,-256(s0)
	addi	a4,a5,72
	.loc 1 1340 51
	ld	a5,-200(s0)
	addi	a5,a5,2
	.loc 1 1340 11
	li	a2,2
	mv	a1,a5
	mv	a0,a4
	call	CopyMem@plt
	.loc 1 1342 23
	ld	a5,-240(s0)
	li	a4,1
	sb	a4,0(a5)
	.loc 1 1343 20
	ld	a5,-240(s0)
	addi	a4,a5,18
	.loc 1 1343 39
	ld	a5,-200(s0)
	addi	a5,a5,4
	.loc 1 1343 11
	li	a2,2
	mv	a1,a5
	mv	a0,a4
	call	CopyMem@plt
	.loc 1 1344 11
	j	.L261
.L260:
	.loc 1 1347 20
	ld	a5,-256(s0)
	addi	a4,a5,72
	.loc 1 1347 51
	ld	a5,-200(s0)
	addi	a5,a5,2
	.loc 1 1347 11
	li	a2,2
	mv	a1,a5
	mv	a0,a4
	call	CopyMem@plt
	.loc 1 1348 20
	ld	a5,-256(s0)
	addi	a4,a5,74
	.loc 1 1348 52
	ld	a5,-200(s0)
	addi	a5,a5,4
	.loc 1 1348 11
	li	a2,2
	mv	a1,a5
	mv	a0,a4
	call	CopyMem@plt
	.loc 1 1349 11
	j	.L261
.L258:
	.loc 1 1352 20
	ld	a5,-256(s0)
	addi	a4,a5,72
	.loc 1 1352 51
	ld	a5,-200(s0)
	addi	a5,a5,2
	.loc 1 1352 11
	li	a2,2
	mv	a1,a5
	mv	a0,a4
	call	CopyMem@plt
	.loc 1 1353 20
	ld	a5,-256(s0)
	addi	a4,a5,76
	.loc 1 1353 51
	ld	a5,-200(s0)
	addi	a5,a5,4
	.loc 1 1353 11
	li	a2,2
	mv	a1,a5
	mv	a0,a4
	call	CopyMem@plt
	.loc 1 1354 75
	ld	a5,-256(s0)
	lhu	a5,76(a5)
	.loc 1 1354 88
	slli	a4,a5,1
	.loc 1 1354 107
	ld	a5,-200(s0)
	addi	a5,a5,6
	.loc 1 1354 41
	mv	a1,a5
	mv	a0,a4
	call	AllocateCopyPool@plt
	mv	a4,a0
	.loc 1 1354 39 discriminator 1
	ld	a5,-256(s0)
	sd	a4,80(a5)
	.loc 1 1355 11
	j	.L261
.L247:
	.loc 1 1359 71
	ld	a5,-200(s0)
	lbu	a4,2(a5)
	.loc 1 1359 36
	ld	a5,-256(s0)
	sb	a4,25(a5)
	.loc 1 1360 11
	j	.L261
.L246:
	.loc 1 1363 23
	ld	a5,-240(s0)
	li	a4,7
	sb	a4,0(a5)
	.loc 1 1364 20
	ld	a5,-240(s0)
	addi	a4,a5,18
	.loc 1 1364 42
	ld	a5,-200(s0)
	addi	a5,a5,2
	.loc 1 1364 11
	li	a2,2
	mv	a1,a5
	mv	a0,a4
	call	CopyMem@plt
	.loc 1 1365 11
	j	.L261
.L255:
	.loc 1 1368 70
	ld	a5,-200(s0)
	lbu	a4,2(a5)
	.loc 1 1368 36
	ld	a5,-256(s0)
	sb	a4,27(a5)
	.loc 1 1369 11
	j	.L261
.L239:
	.loc 1 1372 65
	ld	a5,-200(s0)
	lbu	a4,2(a5)
	.loc 1 1372 35
	ld	a5,-256(s0)
	sb	a4,26(a5)
	.loc 1 1373 11
	j	.L261
.L240:
	.loc 1 1377 57
	ld	a5,-56(s0)
	lhu	a4,48(a5)
	.loc 1 1377 40
	ld	a5,-256(s0)
	sh	a4,72(a5)
	.loc 1 1378 11
	j	.L261
.L238:
	.loc 1 1381 20
	ld	a5,-256(s0)
	addi	a4,a5,92
	.loc 1 1381 45
	ld	a5,-200(s0)
	addi	a5,a5,2
	.loc 1 1381 11
	li	a2,16
	mv	a1,a5
	mv	a0,a4
	call	CopyMem@plt
	.loc 1 1382 11
	j	.L261
.L236:
	.loc 1 1385 20
	ld	a5,-256(s0)
	addi	a4,a5,92
	.loc 1 1385 45
	ld	a5,-200(s0)
	addi	a5,a5,2
	.loc 1 1385 11
	li	a2,16
	mv	a1,a5
	mv	a0,a4
	call	CopyMem@plt
	.loc 1 1386 11
	j	.L261
.L256:
	.loc 1 1390 37
	ld	a5,-200(s0)
	addi	a4,a5,2
	.loc 1 1390 11
	addi	a5,s0,-298
	li	a2,2
	mv	a1,a4
	mv	a0,a5
	call	CopyMem@plt
	.loc 1 1391 30
	lhu	a5,-298(s0)
	.loc 1 1391 14
	beq	a5,zero,.L262
	.loc 1 1392 41
	ld	a5,-312(s0)
	ld	a5,232(a5)
	.loc 1 1392 16
	beq	a5,zero,.L263
	.loc 1 1393 36
	ld	a5,-312(s0)
	addi	a5,a5,232
	.loc 1 1393 22
	mv	a0,a5
	call	GetFirstNode@plt
	sd	a0,-144(s0)
	.loc 1 1394 21
	j	.L264
.L268:
	.loc 1 1395 32
	ld	a5,-144(s0)
	addi	a5,a5,-8
	.loc 1 1395 134
	ld	a4,0(a5)
	.loc 1 1395 219
	li	a5,1196707840
	addi	a5,a5,838
	bne	a4,a5,.L265
	.loc 1 1395 28 discriminator 1
	ld	a5,-144(s0)
	addi	a5,a5,-8
	sd	a5,-152(s0)
	j	.L266
.L265:
	.loc 1 1395 28 is_stmt 0 discriminator 2
	sd	zero,-152(s0)
.L266:
	.loc 1 1396 31 is_stmt 1
	ld	a5,-152(s0)
	lhu	a3,40(a5)
	.loc 1 1396 74
	ld	a5,-200(s0)
	lbu	a4,2(a5)
	lbu	a5,3(a5)
	slli	a5,a5,8
	or	a5,a5,a4
	slli	a5,a5,48
	srli	a5,a5,48
	.loc 1 1396 20
	sext.w	a4,a3
	sext.w	a5,a5
	bne	a4,a5,.L267
	.loc 1 1397 60
	ld	a5,-152(s0)
	ld	a4,48(a5)
	.loc 1 1397 48
	ld	a5,-256(s0)
	sd	a4,112(a5)
	.loc 1 1398 19
	j	.L263
.L267:
	.loc 1 1401 37
	ld	a5,-312(s0)
	addi	a5,a5,232
	.loc 1 1401 24
	ld	a1,-144(s0)
	mv	a0,a5
	call	GetNextNode@plt
	sd	a0,-144(s0)
.L264:
	.loc 1 1394 31
	ld	a5,-312(s0)
	addi	a5,a5,232
	.loc 1 1394 23
	ld	a1,-144(s0)
	mv	a0,a5
	call	IsNull@plt
	mv	a5,a0
	.loc 1 1394 22 discriminator 1
	beq	a5,zero,.L268
.L263:
	.loc 1 1405 33
	ld	a5,-256(s0)
	ld	a5,112(a5)
	.loc 1 1405 16
	bne	a5,zero,.L262
	.loc 1 1409 22
	li	a5,-1
	slli	a5,a5,63
	addi	a5,a5,2
	j	.L441
.L262:
	.loc 1 1413 68
	ld	a5,-200(s0)
	lbu	a4,6(a5)
	.loc 1 1413 39
	ld	a5,-256(s0)
	sb	a4,122(a5)
	.loc 1 1414 35
	ld	a5,-256(s0)
	lbu	a5,122(a5)
	sext.w	a5,a5
	.loc 1 1414 11
	li	a4,12
	beq	a5,a4,.L269
	li	a4,12
	bgt	a5,a4,.L270
	li	a4,7
	beq	a5,a4,.L271
	li	a4,7
	bgt	a5,a4,.L270
	li	a4,6
	beq	a5,a4,.L272
	li	a4,6
	bgt	a5,a4,.L270
	li	a4,5
	beq	a5,a4,.L273
	li	a4,5
	bgt	a5,a4,.L270
	li	a4,4
	beq	a5,a4,.L274
	li	a4,4
	bgt	a5,a4,.L270
	li	a4,3
	beq	a5,a4,.L275
	li	a4,3
	bgt	a5,a4,.L270
	li	a4,2
	beq	a5,a4,.L276
	li	a4,2
	bgt	a5,a4,.L270
	beq	a5,zero,.L274
	li	a4,1
	beq	a5,a4,.L271
	j	.L270
.L274:
	.loc 1 1417 44
	ld	a5,-256(s0)
	li	a4,1
	sb	a4,123(a5)
	.loc 1 1418 15
	j	.L277
.L271:
	.loc 1 1422 44
	ld	a5,-256(s0)
	li	a4,2
	sb	a4,123(a5)
	.loc 1 1423 15
	j	.L277
.L276:
	.loc 1 1426 44
	ld	a5,-256(s0)
	li	a4,4
	sb	a4,123(a5)
	.loc 1 1427 15
	j	.L277
.L275:
	.loc 1 1430 44
	ld	a5,-256(s0)
	li	a4,8
	sb	a4,123(a5)
	.loc 1 1431 15
	j	.L277
.L272:
	.loc 1 1434 44
	ld	a5,-256(s0)
	li	a4,14
	sb	a4,123(a5)
	.loc 1 1435 15
	j	.L277
.L273:
	.loc 1 1438 44
	ld	a5,-256(s0)
	li	a4,14
	sb	a4,123(a5)
	.loc 1 1439 15
	j	.L277
.L269:
	.loc 1 1442 44
	ld	a5,-256(s0)
	li	a4,15
	sb	a4,123(a5)
	.loc 1 1443 15
	j	.L277
.L270:
	.loc 1 1453 22
	li	a5,-1
	slli	a5,a5,63
	addi	a5,a5,2
	j	.L441
.L277:
	.loc 1 1456 20
	ld	a5,-256(s0)
	addi	a4,a5,120
	.loc 1 1456 61
	ld	a5,-200(s0)
	addi	a5,a5,4
	.loc 1 1456 11
	li	a2,2
	mv	a1,a5
	mv	a0,a4
	call	CopyMem@plt
	.loc 1 1457 20
	ld	a5,-256(s0)
	addi	a4,a5,120
	.loc 1 1457 63
	ld	a5,-200(s0)
	addi	a5,a5,4
	.loc 1 1457 11
	li	a2,2
	mv	a1,a5
	mv	a0,a4
	call	CopyMem@plt
	.loc 1 1458 32
	ld	a5,-256(s0)
	ld	a5,112(a5)
	.loc 1 1458 14
	beq	a5,zero,.L446
	.loc 1 1459 33
	ld	a5,-256(s0)
	ld	a5,112(a5)
	.loc 1 1459 45
	lbu	a5,24(a5)
	.loc 1 1458 62 discriminator 1
	mv	a4,a5
	li	a5,1
	beq	a4,a5,.L279
	.loc 1 1460 33
	ld	a5,-256(s0)
	ld	a5,112(a5)
	.loc 1 1460 45
	lbu	a5,24(a5)
	.loc 1 1459 58
	mv	a4,a5
	li	a5,2
	bne	a4,a5,.L446
.L279:
	.loc 1 1462 43
	ld	a5,-256(s0)
	lhu	a4,120(a5)
	ld	a5,-312(s0)
	ld	a5,40(a5)
	mv	a1,a5
	mv	a0,a4
	call	GetToken@plt
	mv	a4,a0
	.loc 1 1462 41 discriminator 1
	ld	a5,-256(s0)
	sd	a4,128(a5)
	.loc 1 1463 33
	ld	a5,-256(s0)
	ld	a5,128(a5)
	.loc 1 1463 16
	bne	a5,zero,.L446
	.loc 1 1467 22
	li	a5,-1
	slli	a5,a5,63
	addi	a5,a5,2
	j	.L441
.L254:
	.loc 1 1474 20
	ld	a5,-256(s0)
	addi	a4,a5,72
	.loc 1 1474 51
	ld	a5,-200(s0)
	addi	a5,a5,2
	.loc 1 1474 11
	li	a2,2
	mv	a1,a5
	mv	a0,a4
	call	CopyMem@plt
	.loc 1 1475 11
	j	.L261
.L245:
	.loc 1 1478 14
	ld	a4,-208(s0)
	li	a5,3
	bleu	a4,a5,.L447
	.loc 1 1479 22
	ld	a5,-256(s0)
	addi	a4,a5,88
	.loc 1 1479 53
	ld	a5,-200(s0)
	addi	a5,a5,2
	.loc 1 1479 13
	li	a2,2
	mv	a1,a5
	mv	a0,a4
	call	CopyMem@plt
	.loc 1 1481 16
	ld	a4,-208(s0)
	li	a5,19
	bleu	a4,a5,.L447
	.loc 1 1482 24
	ld	a5,-256(s0)
	addi	a4,a5,92
	.loc 1 1482 49
	ld	a5,-200(s0)
	addi	a5,a5,4
	.loc 1 1482 15
	li	a2,16
	mv	a1,a5
	mv	a0,a4
	call	CopyMem@plt
	.loc 1 1486 11
	j	.L447
.L249:
	.loc 1 1492 23
	ld	a5,-240(s0)
	li	a4,4
	sb	a4,0(a5)
	.loc 1 1493 26
	ld	a5,-240(s0)
	li	a4,1
	sb	a4,18(a5)
	.loc 1 1494 11
	j	.L261
.L248:
	.loc 1 1497 23
	ld	a5,-240(s0)
	li	a4,4
	sb	a4,0(a5)
	.loc 1 1498 26
	ld	a5,-240(s0)
	sb	zero,18(a5)
	.loc 1 1499 11
	j	.L261
.L243:
	.loc 1 1502 23
	ld	a5,-240(s0)
	sb	zero,0(a5)
	.loc 1 1503 27
	ld	a5,-240(s0)
	li	a4,1
	sb	a4,18(a5)
	.loc 1 1504 11
	j	.L261
.L244:
	.loc 1 1507 23
	ld	a5,-240(s0)
	sb	zero,0(a5)
	.loc 1 1508 27
	ld	a5,-240(s0)
	sb	zero,18(a5)
	.loc 1 1509 11
	j	.L261
.L242:
	.loc 1 1512 23
	ld	a5,-240(s0)
	li	a4,3
	sb	a4,0(a5)
	.loc 1 1513 28
	ld	a5,-240(s0)
	lhu	a4,18(a5)
	ori	a4,a4,-1
	sh	a4,18(a5)
	lhu	a4,20(a5)
	ori	a4,a4,-1
	sh	a4,20(a5)
	lhu	a4,22(a5)
	ori	a4,a4,-1
	sh	a4,22(a5)
	lhu	a4,24(a5)
	ori	a4,a4,-1
	sh	a4,24(a5)
	.loc 1 1514 11
	j	.L261
.L253:
	.loc 1 1517 23
	ld	a5,-240(s0)
	sb	zero,0(a5)
	.loc 1 1518 58
	ld	a5,-200(s0)
	lbu	a4,2(a5)
	.loc 1 1518 27
	ld	a5,-240(s0)
	sb	a4,18(a5)
	.loc 1 1519 11
	j	.L261
.L252:
	.loc 1 1522 23
	ld	a5,-240(s0)
	li	a4,1
	sb	a4,0(a5)
	.loc 1 1523 20
	ld	a5,-240(s0)
	addi	a4,a5,18
	.loc 1 1523 39
	ld	a5,-200(s0)
	addi	a5,a5,2
	.loc 1 1523 11
	li	a2,2
	mv	a1,a5
	mv	a0,a4
	call	CopyMem@plt
	.loc 1 1524 11
	j	.L261
.L251:
	.loc 1 1527 23
	ld	a5,-240(s0)
	li	a4,2
	sb	a4,0(a5)
	.loc 1 1528 20
	ld	a5,-240(s0)
	addi	a4,a5,18
	.loc 1 1528 39
	ld	a5,-200(s0)
	addi	a5,a5,2
	.loc 1 1528 11
	li	a2,4
	mv	a1,a5
	mv	a0,a4
	call	CopyMem@plt
	.loc 1 1529 11
	j	.L261
.L250:
	.loc 1 1532 23
	ld	a5,-240(s0)
	li	a4,3
	sb	a4,0(a5)
	.loc 1 1533 20
	ld	a5,-240(s0)
	addi	a4,a5,18
	.loc 1 1533 39
	ld	a5,-200(s0)
	addi	a5,a5,2
	.loc 1 1533 11
	li	a2,8
	mv	a1,a5
	mv	a0,a4
	call	CopyMem@plt
	.loc 1 1534 11
	j	.L261
.L241:
	.loc 1 1537 23
	ld	a5,-240(s0)
	li	a4,9
	sb	a4,0(a5)
	.loc 1 1538 11
	j	.L261
.L257:
	.loc 1 1541 23
	ld	a5,-240(s0)
	li	a4,1
	sb	a4,0(a5)
	.loc 1 1542 28
	ld	a5,-240(s0)
	li	a4,624
	sh	a4,18(a5)
	.loc 1 1543 11
	j	.L261
.L445:
	.loc 1 1546 11
	nop
	j	.L261
.L446:
	.loc 1 1471 11
	nop
	j	.L261
.L447:
	.loc 1 1486 11
	nop
.L261:
	.loc 1 1552 30
	ld	a5,-264(s0)
	.loc 1 1552 10
	bne	a5,zero,.L281
	.loc 1 1552 47 discriminator 1
	lbu	a5,-129(s0)
	andi	a5,a5,0xff
	beq	a5,zero,.L281
	.loc 1 1553 29
	ld	a1,-200(s0)
	ld	a0,-40(s0)
	call	CreateExpression
	mv	a5,a0
	.loc 1 1553 27 discriminator 1
	sd	a5,-264(s0)
	.loc 1 1555 9
	ld	a4,-296(s0)
	.loc 1 1555 62
	ld	a5,-264(s0)
	.loc 1 1555 9
	addi	a5,a5,8
	mv	a1,a5
	mv	a0,a4
	call	InsertTailList@plt
	.loc 1 1556 12
	lbu	a5,-57(s0)
	andi	a5,a5,0xff
	bne	a5,zero,.L281
	.loc 1 1557 34
	li	a5,1
	sb	a5,-118(s0)
.L281:
	.loc 1 1562 41
	ld	a5,-264(s0)
	.loc 1 1562 7
	addi	a4,a5,88
	ld	a5,-256(s0)
	addi	a5,a5,8
	mv	a1,a5
	mv	a0,a4
	call	InsertTailList@plt
	.loc 1 1563 10
	lbu	a5,-209(s0)
	andi	a4,a5,0xff
	li	a5,34
	bne	a4,a5,.L282
	.loc 1 1567 31
	ld	a5,-296(s0)
	.loc 1 1567 12
	beq	a5,zero,.L283
	.loc 1 1568 11
	ld	a5,-296(s0)
	mv	a0,a5
	call	PushMapExpressionList@plt
.L283:
	.loc 1 1574 29
	ld	a5,-256(s0)
	addi	a5,a5,136
	.loc 1 1574 27
	sd	a5,-296(s0)
	.loc 1 1575 9
	ld	a5,-296(s0)
	mv	a0,a5
	call	InitializeListHead@plt
	.loc 1 1579 9
	ld	a5,-264(s0)
	mv	a0,a5
	call	PushCurrentExpression@plt
	.loc 1 1580 27
	sd	zero,-264(s0)
	.loc 1 1581 22
	lbu	a5,-129(s0)
	addiw	a5,a5,1
	sb	a5,-129(s0)
	.loc 1 1605 7
	j	.L448
.L282:
	.loc 1 1582 17
	lbu	a5,-118(s0)
	andi	a5,a5,0xff
	beq	a5,zero,.L448
	.loc 1 1588 32
	sb	zero,-118(s0)
	.loc 1 1590 12
	lbu	a5,-153(s0)
	andi	a5,a5,0xff
	beq	a5,zero,.L285
	.loc 1 1590 28 discriminator 1
	ld	a5,-40(s0)
	bne	a5,zero,.L285
	.loc 1 1594 20
	ld	a5,-264(s0)
	mv	a2,a5
	ld	a1,-40(s0)
	ld	a0,-312(s0)
	call	EvaluateExpression@plt
	sd	a0,-232(s0)
	.loc 1 1595 42
	ld	a5,-232(s0)
	.loc 1 1595 14
	bge	a5,zero,.L286
	.loc 1 1596 20
	ld	a5,-232(s0)
	j	.L441
.L286:
	.loc 1 1599 54
	ld	a5,-264(s0)
	.loc 1 1599 28
	addi	a5,a5,32
	mv	a0,a5
	call	IsTrue@plt
	mv	a5,a0
	sb	a5,-117(s0)
.L285:
	.loc 1 1602 27
	sd	zero,-264(s0)
	.loc 1 1605 7
	j	.L448
.L235:
	.loc 1 1611 5
	lbu	a5,-209(s0)
	sext.w	a5,a5
	li	a4,99
	beq	a5,a4,.L287
	li	a4,99
	bgt	a5,a4,.L449
	li	a4,98
	beq	a5,a4,.L289
	li	a4,98
	bgt	a5,a4,.L449
	li	a4,97
	beq	a5,a4,.L290
	li	a4,97
	bgt	a5,a4,.L449
	li	a4,95
	beq	a5,a4,.L291
	li	a4,95
	bgt	a5,a4,.L449
	li	a4,93
	beq	a5,a4,.L292
	li	a4,93
	bgt	a5,a4,.L449
	li	a4,92
	beq	a5,a4,.L293
	li	a4,92
	bgt	a5,a4,.L449
	li	a4,91
	beq	a5,a4,.L294
	li	a4,91
	bgt	a5,a4,.L449
	li	a4,90
	beq	a5,a4,.L295
	li	a4,90
	bgt	a5,a4,.L449
	li	a4,46
	beq	a5,a4,.L296
	li	a4,46
	bgt	a5,a4,.L449
	li	a4,45
	beq	a5,a4,.L297
	li	a4,45
	bgt	a5,a4,.L449
	li	a4,41
	beq	a5,a4,.L298
	li	a4,41
	bgt	a5,a4,.L449
	li	a4,38
	beq	a5,a4,.L299
	li	a4,38
	bgt	a5,a4,.L449
	li	a4,37
	beq	a5,a4,.L300
	li	a4,37
	bgt	a5,a4,.L449
	li	a4,36
	beq	a5,a4,.L301
	li	a4,36
	bgt	a5,a4,.L449
	li	a4,35
	beq	a5,a4,.L302
	li	a4,35
	bgt	a5,a4,.L449
	li	a4,30
	beq	a5,a4,.L303
	li	a4,30
	bgt	a5,a4,.L449
	li	a4,29
	beq	a5,a4,.L304
	li	a4,29
	bgt	a5,a4,.L449
	li	a4,28
	beq	a5,a4,.L305
	li	a4,28
	bgt	a5,a4,.L449
	li	a4,27
	beq	a5,a4,.L306
	li	a4,27
	bgt	a5,a4,.L449
	li	a4,26
	beq	a5,a4,.L307
	li	a4,26
	bgt	a5,a4,.L449
	li	a4,25
	beq	a5,a4,.L308
	li	a4,25
	bgt	a5,a4,.L449
	li	a4,24
	beq	a5,a4,.L309
	li	a4,24
	bgt	a5,a4,.L449
	li	a4,17
	bgt	a5,a4,.L449
	li	a4,16
	bge	a5,a4,.L310
	li	a4,15
	beq	a5,a4,.L311
	li	a4,15
	bgt	a5,a4,.L449
	li	a4,14
	beq	a5,a4,.L312
	li	a4,14
	bgt	a5,a4,.L449
	li	a4,13
	beq	a5,a4,.L313
	li	a4,13
	bgt	a5,a4,.L449
	li	a4,12
	beq	a5,a4,.L314
	li	a4,12
	bgt	a5,a4,.L449
	li	a4,11
	beq	a5,a4,.L315
	li	a4,11
	bgt	a5,a4,.L449
	li	a4,10
	beq	a5,a4,.L316
	li	a4,10
	bgt	a5,a4,.L449
	li	a4,9
	beq	a5,a4,.L317
	li	a4,9
	bgt	a5,a4,.L449
	li	a4,8
	beq	a5,a4,.L318
	li	a4,8
	bgt	a5,a4,.L449
	li	a4,7
	beq	a5,a4,.L319
	li	a4,7
	bgt	a5,a4,.L449
	li	a4,6
	beq	a5,a4,.L320
	li	a4,6
	bgt	a5,a4,.L449
	li	a4,5
	beq	a5,a4,.L319
	li	a4,5
	bgt	a5,a4,.L449
	li	a4,4
	beq	a5,a4,.L321
	li	a4,4
	bgt	a5,a4,.L449
	li	a4,3
	beq	a5,a4,.L322
	li	a4,3
	bgt	a5,a4,.L449
	li	a4,1
	beq	a5,a4,.L323
	li	a4,2
	beq	a5,a4,.L324
	.loc 1 2734 9
	j	.L449
.L312:
	.loc 1 1616 25
	ld	a5,-312(s0)
	addi	a4,a5,92
	.loc 1 1616 41
	ld	a5,-200(s0)
	addi	a5,a5,2
	.loc 1 1616 13
	li	a2,16
	mv	a1,a5
	mv	a0,a4
	call	CompareMem@plt
	mv	a5,a0
	.loc 1 1616 12 discriminator 1
	beq	a5,zero,.L325
	.loc 1 1617 18
	li	a5,-1
	slli	a5,a5,63
	addi	a5,a5,2
	j	.L441
.L325:
	.loc 1 1620 18
	ld	a5,-312(s0)
	addi	a4,a5,108
	.loc 1 1620 42
	ld	a5,-200(s0)
	addi	a5,a5,18
	.loc 1 1620 9
	li	a2,2
	mv	a1,a5
	mv	a0,a4
	call	CopyMem@plt
	.loc 1 1621 18
	ld	a5,-312(s0)
	addi	a4,a5,110
	.loc 1 1621 34
	ld	a5,-200(s0)
	addi	a5,a5,20
	.loc 1 1621 9
	li	a2,2
	mv	a1,a5
	mv	a0,a4
	call	CopyMem@plt
	.loc 1 1622 25
	ld	a5,-312(s0)
	ld	a4,-200(s0)
	sd	a4,176(a5)
	.loc 1 1624 12
	ld	a4,-208(s0)
	li	a5,22
	bleu	a4,a5,.L450
	.loc 1 1628 80
	ld	a5,-200(s0)
	lbu	a5,22(a5)
	.loc 1 1628 40
	andi	a5,a5,3
	andi	a4,a5,0xff
	.loc 1 1628 38
	ld	a5,-312(s0)
	sb	a4,112(a5)
	.loc 1 1629 27
	ld	a5,-312(s0)
	addi	a4,a5,116
	.loc 1 1629 51
	ld	a5,-200(s0)
	addi	a3,a5,23
	.loc 1 1629 87
	ld	a5,-312(s0)
	lbu	a5,112(a5)
	.loc 1 1629 107
	slli	a5,a5,4
	.loc 1 1629 11
	mv	a2,a5
	mv	a1,a3
	mv	a0,a4
	call	CopyMem@plt
	.loc 1 1632 9
	j	.L450
.L323:
	.loc 1 1638 23
	li	a0,128
	call	AllocateZeroPool@plt
	sd	a0,-40(s0)
	.loc 1 1640 32
	ld	a5,-40(s0)
	li	a4,1297235968
	addi	a4,a4,1606
	sd	a4,0(a5)
	.loc 1 1641 9
	ld	a5,-40(s0)
	addi	a5,a5,72
	mv	a0,a5
	call	InitializeListHead@plt
	.loc 1 1642 9
	ld	a5,-40(s0)
	addi	a5,a5,88
	mv	a0,a5
	call	InitializeListHead@plt
	.loc 1 1643 9
	ld	a5,-40(s0)
	addi	a5,a5,104
	mv	a0,a5
	call	InitializeListHead@plt
	.loc 1 1644 9
	ld	a5,-40(s0)
	addi	a5,a5,56
	mv	a0,a5
	call	InitializeListHead@plt
	.loc 1 1646 31
	ld	a5,-40(s0)
	li	a4,1
	sh	a4,28(a5)
	.loc 1 1647 18
	ld	a5,-40(s0)
	addi	a4,a5,24
	.loc 1 1647 40
	ld	a5,-200(s0)
	addi	a5,a5,2
	.loc 1 1647 9
	li	a2,2
	mv	a1,a5
	mv	a0,a4
	call	CopyMem@plt
	.loc 1 1648 18
	ld	a5,-40(s0)
	addi	a4,a5,26
	.loc 1 1648 43
	ld	a5,-200(s0)
	addi	a5,a5,4
	.loc 1 1648 9
	li	a2,2
	mv	a1,a5
	mv	a0,a4
	call	CopyMem@plt
	.loc 1 1650 32
	li	a0,1
	call	GetConditionalExpressionCount@plt
	sd	a0,-192(s0)
	.loc 1 1651 12
	ld	a5,-192(s0)
	ble	a5,zero,.L328
	.loc 1 1656 71
	ld	a5,-192(s0)
	addi	a5,a5,2
	slli	a5,a5,3
	.loc 1 1655 69
	mv	a0,a5
	call	AllocatePool@plt
	mv	a4,a0
	.loc 1 1655 43 discriminator 1
	ld	a5,-40(s0)
	sd	a4,120(a5)
	.loc 1 1659 22
	ld	a5,-40(s0)
	ld	a5,120(a5)
	.loc 1 1659 52
	ld	a4,-192(s0)
	.loc 1 1659 50
	sd	a4,8(a5)
	.loc 1 1660 22
	ld	a5,-40(s0)
	ld	a5,120(a5)
	.loc 1 1660 54
	li	a4,1381515264
	addi	a4,a4,1350
	sd	a4,0(a5)
	.loc 1 1661 31
	ld	a5,-40(s0)
	ld	a5,120(a5)
	.loc 1 1661 51
	addi	s1,a5,16
	.loc 1 1661 65
	li	a0,1
	call	GetConditionalExpressionList@plt
	mv	a4,a0
	.loc 1 1661 11 discriminator 1
	ld	a5,-192(s0)
	.loc 1 1661 109 discriminator 1
	slli	a5,a5,3
	.loc 1 1661 11 discriminator 1
	mv	a2,a5
	mv	a1,a4
	mv	a0,s1
	call	CopyMem@plt
.L328:
	.loc 1 1664 12
	lbu	a5,-57(s0)
	andi	a5,a5,0xff
	beq	a5,zero,.L329
	.loc 1 1668 31
	li	a5,1
	sb	a5,-113(s0)
.L329:
	.loc 1 1674 9
	ld	a5,-312(s0)
	addi	a4,a5,280
	ld	a5,-40(s0)
	addi	a5,a5,8
	mv	a1,a5
	mv	a0,a4
	call	InsertTailList@plt
	.loc 1 1675 9
	j	.L327
.L292:
	.loc 1 1681 23
	li	a0,128
	call	AllocateZeroPool@plt
	sd	a0,-40(s0)
	.loc 1 1683 32
	ld	a5,-40(s0)
	li	a4,1297235968
	addi	a4,a4,1606
	sd	a4,0(a5)
	.loc 1 1684 9
	ld	a5,-40(s0)
	addi	a5,a5,72
	mv	a0,a5
	call	InitializeListHead@plt
	.loc 1 1685 9
	ld	a5,-40(s0)
	addi	a5,a5,88
	mv	a0,a5
	call	InitializeListHead@plt
	.loc 1 1686 9
	ld	a5,-40(s0)
	addi	a5,a5,104
	mv	a0,a5
	call	InitializeListHead@plt
	.loc 1 1687 9
	ld	a5,-40(s0)
	addi	a5,a5,56
	mv	a0,a5
	call	InitializeListHead@plt
	.loc 1 1689 18
	ld	a5,-40(s0)
	addi	a4,a5,24
	.loc 1 1689 40
	ld	a5,-200(s0)
	addi	a5,a5,2
	.loc 1 1689 9
	li	a2,2
	mv	a1,a5
	mv	a0,a4
	call	CopyMem@plt
	.loc 1 1691 19
	ld	a5,-200(s0)
	addi	a5,a5,4
	sd	a5,-128(s0)
	.loc 1 1695 46
	ld	a5,-200(s0)
	lbu	a5,1(a5)
	andi	a5,a5,127
	andi	a5,a5,0xff
	mv	a3,a5
	.loc 1 1695 90
	ld	a4,-128(s0)
	ld	a5,-200(s0)
	sub	a5,a4,a5
	addi	a5,a5,18
	.loc 1 1695 12
	bgeu	a3,a5,.L331
	.loc 1 1696 18
	li	a5,-1
	slli	a5,a5,63
	addi	a5,a5,2
	j	.L441
.L334:
	.loc 1 1703 28
	ld	a5,-128(s0)
	addi	a5,a5,2
	.loc 1 1703 15
	la	a1,gEfiHiiStandardFormGuid
	mv	a0,a5
	call	CompareGuid@plt
	mv	a5,a0
	.loc 1 1703 14 discriminator 1
	beq	a5,zero,.L332
	.loc 1 1704 22
	ld	a5,-40(s0)
	addi	a5,a5,26
	.loc 1 1704 47
	ld	a4,-128(s0)
	.loc 1 1704 13
	li	a2,2
	mv	a1,a4
	mv	a0,a5
	call	CopyMem@plt
	.loc 1 1705 35
	ld	a5,-40(s0)
	li	a4,1
	sh	a4,28(a5)
	.loc 1 1706 13
	j	.L333
.L332:
	.loc 1 1709 20
	ld	a5,-128(s0)
	addi	a5,a5,18
	sd	a5,-128(s0)
.L331:
	.loc 1 1702 17
	ld	a4,-128(s0)
	.loc 1 1702 45
	ld	a5,-200(s0)
	.loc 1 1702 43
	sub	a5,a4,a5
	.loc 1 1702 99
	ld	a4,-200(s0)
	lbu	a4,1(a4)
	andi	a4,a4,127
	andi	a4,a4,0xff
	.loc 1 1702 64
	bltu	a5,a4,.L334
.L333:
	.loc 1 1715 24
	ld	a5,-40(s0)
	lhu	a5,26(a5)
	.loc 1 1715 12
	bne	a5,zero,.L335
	.loc 1 1716 21
	ld	a5,-200(s0)
	addi	a5,a5,4
	sd	a5,-128(s0)
	.loc 1 1717 20
	ld	a5,-40(s0)
	addi	a5,a5,26
	.loc 1 1717 45
	ld	a4,-128(s0)
	.loc 1 1717 11
	li	a2,2
	mv	a1,a4
	mv	a0,a5
	call	CopyMem@plt
.L335:
	.loc 1 1720 32
	li	a0,1
	call	GetConditionalExpressionCount@plt
	sd	a0,-192(s0)
	.loc 1 1721 12
	ld	a5,-192(s0)
	ble	a5,zero,.L336
	.loc 1 1726 71
	ld	a5,-192(s0)
	addi	a5,a5,2
	slli	a5,a5,3
	.loc 1 1725 69
	mv	a0,a5
	call	AllocatePool@plt
	mv	a4,a0
	.loc 1 1725 43 discriminator 1
	ld	a5,-40(s0)
	sd	a4,120(a5)
	.loc 1 1729 22
	ld	a5,-40(s0)
	ld	a5,120(a5)
	.loc 1 1729 52
	ld	a4,-192(s0)
	.loc 1 1729 50
	sd	a4,8(a5)
	.loc 1 1730 22
	ld	a5,-40(s0)
	ld	a5,120(a5)
	.loc 1 1730 54
	li	a4,1381515264
	addi	a4,a4,1350
	sd	a4,0(a5)
	.loc 1 1731 31
	ld	a5,-40(s0)
	ld	a5,120(a5)
	.loc 1 1731 51
	addi	s1,a5,16
	.loc 1 1731 65
	li	a0,1
	call	GetConditionalExpressionList@plt
	mv	a4,a0
	.loc 1 1731 11 discriminator 1
	ld	a5,-192(s0)
	.loc 1 1731 109 discriminator 1
	slli	a5,a5,3
	.loc 1 1731 11 discriminator 1
	mv	a2,a5
	mv	a1,a4
	mv	a0,s1
	call	CopyMem@plt
.L336:
	.loc 1 1734 12
	lbu	a5,-57(s0)
	andi	a5,a5,0xff
	beq	a5,zero,.L337
	.loc 1 1738 31
	li	a5,1
	sb	a5,-113(s0)
.L337:
	.loc 1 1744 9
	ld	a5,-312(s0)
	addi	a4,a5,280
	ld	a5,-40(s0)
	addi	a5,a5,8
	mv	a1,a5
	mv	a0,a4
	call	InsertTailList@plt
	.loc 1 1745 9
	j	.L327
.L301:
	.loc 1 1754 19
	ld	a2,-200(s0)
	li	a1,0
	ld	a0,-312(s0)
	call	CreateStorage
	sd	a0,-80(s0)
	.loc 1 1755 18
	ld	a5,-80(s0)
	addi	a4,a5,40
	.loc 1 1755 40
	ld	a5,-200(s0)
	addi	a5,a5,18
	.loc 1 1755 9
	li	a2,2
	mv	a1,a5
	mv	a0,a4
	call	CopyMem@plt
	.loc 1 1756 9
	j	.L327
.L300:
	.loc 1 1762 19
	ld	a2,-200(s0)
	li	a1,1
	ld	a0,-312(s0)
	call	CreateStorage
	sd	a0,-80(s0)
	.loc 1 1763 18
	ld	a5,-80(s0)
	addi	a4,a5,40
	.loc 1 1763 40
	ld	a5,-200(s0)
	addi	a5,a5,2
	.loc 1 1763 9
	li	a2,2
	mv	a1,a5
	mv	a0,a4
	call	CopyMem@plt
	.loc 1 1764 9
	j	.L327
.L299:
	.loc 1 1770 12
	ld	a4,-208(s0)
	li	a5,26
	bgtu	a4,a5,.L338
	.loc 1 1774 21
	ld	a2,-200(s0)
	li	a1,2
	ld	a0,-312(s0)
	call	CreateStorage
	sd	a0,-80(s0)
	j	.L339
.L338:
	.loc 1 1779 21
	ld	a2,-200(s0)
	li	a1,3
	ld	a0,-312(s0)
	call	CreateStorage
	sd	a0,-80(s0)
.L339:
	.loc 1 1782 18
	ld	a5,-80(s0)
	addi	a4,a5,40
	.loc 1 1782 40
	ld	a5,-200(s0)
	addi	a5,a5,2
	.loc 1 1782 9
	li	a2,2
	mv	a1,a5
	mv	a0,a4
	call	CopyMem@plt
	.loc 1 1783 9
	j	.L327
.L293:
	.loc 1 1789 22
	sb	zero,-177(s0)
	.loc 1 1790 24
	li	a0,32
	call	AllocateZeroPool@plt
	sd	a0,-224(s0)
	.loc 1 1792 33
	ld	a5,-224(s0)
	li	a4,1397112832
	addi	a4,a4,1094
	sd	a4,0(a5)
	.loc 1 1794 18
	ld	a5,-224(s0)
	addi	a4,a5,24
	.loc 1 1794 44
	ld	a5,-200(s0)
	addi	a5,a5,4
	.loc 1 1794 9
	li	a2,2
	mv	a1,a5
	mv	a0,a4
	call	CopyMem@plt
	.loc 1 1795 18
	ld	a5,-224(s0)
	addi	a4,a5,26
	.loc 1 1795 46
	ld	a5,-200(s0)
	addi	a5,a5,2
	.loc 1 1795 9
	li	a2,2
	mv	a1,a5
	mv	a0,a4
	call	CopyMem@plt
	.loc 1 1799 27
	ld	a5,-312(s0)
	addi	a5,a5,264
	.loc 1 1799 14
	mv	a0,a5
	call	IsListEmpty@plt
	mv	a5,a0
	.loc 1 1799 12 discriminator 1
	bne	a5,zero,.L340
	.loc 1 1800 39
	ld	a5,-312(s0)
	addi	a5,a5,264
	.loc 1 1800 25
	mv	a0,a5
	call	GetFirstNode@plt
	sd	a0,-176(s0)
	.loc 1 1801 17
	j	.L341
.L344:
	.loc 1 1802 33
	ld	a5,-176(s0)
	addi	a5,a5,-8
	.loc 1 1802 152
	ld	a4,0(a5)
	.loc 1 1802 237
	li	a5,1397112832
	addi	a5,a5,1094
	bne	a4,a5,.L342
	.loc 1 1802 29 discriminator 1
	ld	a5,-176(s0)
	addi	a5,a5,-8
	sd	a5,-168(s0)
	j	.L343
.L342:
	.loc 1 1802 29 is_stmt 0 discriminator 2
	sd	zero,-168(s0)
.L343:
	.loc 1 1803 40 is_stmt 1
	ld	a5,-312(s0)
	addi	a5,a5,264
	.loc 1 1803 27
	ld	a1,-176(s0)
	mv	a0,a5
	call	GetNextNode@plt
	sd	a0,-176(s0)
	.loc 1 1804 29
	ld	a5,-224(s0)
	lhu	a4,24(a5)
	.loc 1 1804 58
	ld	a5,-168(s0)
	lhu	a5,24(a5)
	.loc 1 1804 16
	sext.w	a4,a4
	sext.w	a5,a5
	bgeu	a4,a5,.L341
	.loc 1 1805 15
	ld	a5,-168(s0)
	addi	a4,a5,8
	ld	a5,-224(s0)
	addi	a5,a5,8
	mv	a1,a5
	mv	a0,a4
	call	InsertTailList@plt
	.loc 1 1806 28
	li	a5,1
	sb	a5,-177(s0)
	.loc 1 1807 15
	j	.L340
.L341:
	.loc 1 1801 27
	ld	a5,-312(s0)
	addi	a5,a5,264
	.loc 1 1801 19
	ld	a1,-176(s0)
	mv	a0,a5
	call	IsNull@plt
	mv	a5,a0
	.loc 1 1801 18 discriminator 1
	beq	a5,zero,.L344
.L340:
	.loc 1 1812 12
	lbu	a5,-177(s0)
	andi	a5,a5,0xff
	bne	a5,zero,.L451
	.loc 1 1813 11
	ld	a5,-312(s0)
	addi	a4,a5,264
	ld	a5,-224(s0)
	addi	a5,a5,8
	mv	a1,a5
	mv	a0,a4
	call	InsertTailList@plt
	.loc 1 1816 9
	j	.L451
.L324:
	.loc 1 1822 28
	ld	a2,-40(s0)
	ld	a1,-312(s0)
	ld	a0,-200(s0)
	call	CreateStatement
	sd	a0,-48(s0)
	.loc 1 1825 67
	ld	a5,-200(s0)
	lbu	a4,6(a5)
	.loc 1 1825 33
	ld	a5,-48(s0)
	sb	a4,145(a5)
	.loc 1 1826 59
	lla	a5,mUsedQuestionId
	lhu	a5,0(a5)
	addiw	a4,a5,1
	slli	a3,a4,48
	srli	a3,a3,48
	lla	a4,mUsedQuestionId
	sh	a3,0(a4)
	.loc 1 1826 42
	ld	a4,-48(s0)
	sh	a5,46(a4)
	.loc 1 1827 9
	j	.L327
.L322:
	.loc 1 1830 28
	ld	a2,-40(s0)
	ld	a1,-312(s0)
	ld	a0,-200(s0)
	call	CreateStatement
	sd	a0,-48(s0)
	.loc 1 1832 59
	lla	a5,mUsedQuestionId
	lhu	a5,0(a5)
	addiw	a4,a5,1
	slli	a3,a4,48
	srli	a3,a3,48
	lla	a4,mUsedQuestionId
	sh	a3,0(a4)
	.loc 1 1832 42
	ld	a4,-48(s0)
	sh	a5,46(a4)
	.loc 1 1833 18
	ld	a5,-48(s0)
	addi	a4,a5,44
	.loc 1 1833 46
	ld	a5,-200(s0)
	addi	a5,a5,6
	.loc 1 1833 9
	li	a2,2
	mv	a1,a5
	mv	a0,a4
	call	CopyMem@plt
	.loc 1 1834 9
	j	.L327
.L313:
	.loc 1 1837 28
	ld	a2,-40(s0)
	ld	a1,-312(s0)
	ld	a0,-200(s0)
	call	CreateStatement
	sd	a0,-48(s0)
	.loc 1 1839 59
	lla	a5,mUsedQuestionId
	lhu	a5,0(a5)
	addiw	a4,a5,1
	slli	a3,a4,48
	srli	a3,a3,48
	lla	a4,mUsedQuestionId
	sh	a3,0(a4)
	.loc 1 1839 42
	ld	a4,-48(s0)
	sh	a5,46(a4)
	.loc 1 1840 18
	ld	a5,-48(s0)
	addi	a4,a5,176
	.loc 1 1840 48
	ld	a5,-200(s0)
	addi	a5,a5,6
	.loc 1 1840 9
	li	a2,2
	mv	a1,a5
	mv	a0,a4
	call	CopyMem@plt
	.loc 1 1841 9
	j	.L327
.L314:
	.loc 1 1847 28
	ld	a2,-40(s0)
	ld	a1,-312(s0)
	ld	a0,-200(s0)
	call	CreateQuestion
	sd	a0,-48(s0)
	.loc 1 1849 41
	ld	a5,-48(s0)
	li	a4,10
	sb	a4,96(a5)
	.loc 1 1851 12
	ld	a4,-208(s0)
	li	a5,13
	bne	a4,a5,.L346
	.loc 1 1855 44
	ld	a5,-48(s0)
	sh	zero,150(a5)
	.loc 1 1860 9
	j	.L327
.L346:
	.loc 1 1857 20
	ld	a5,-48(s0)
	addi	a4,a5,150
	.loc 1 1857 55
	ld	a5,-200(s0)
	addi	a5,a5,13
	.loc 1 1857 11
	li	a2,2
	mv	a1,a5
	mv	a0,a4
	call	CopyMem@plt
	.loc 1 1860 9
	j	.L327
.L311:
	.loc 1 1863 28
	ld	a2,-40(s0)
	ld	a1,-312(s0)
	ld	a0,-200(s0)
	call	CreateQuestion
	sd	a0,-48(s0)
	.loc 1 1865 15
	ld	a5,-48(s0)
	addi	a5,a5,96
	sd	a5,-240(s0)
	.loc 1 1866 21
	ld	a5,-240(s0)
	li	a4,12
	sb	a4,0(a5)
	.loc 1 1867 12
	ld	a4,-208(s0)
	li	a5,14
	bleu	a4,a5,.L348
	.loc 1 1868 20
	ld	a5,-240(s0)
	addi	a4,a5,20
	.loc 1 1868 46
	ld	a5,-200(s0)
	addi	a5,a5,13
	.loc 1 1868 11
	li	a2,2
	mv	a1,a5
	mv	a0,a4
	call	CopyMem@plt
	.loc 1 1870 14
	ld	a4,-208(s0)
	li	a5,16
	bleu	a4,a5,.L348
	.loc 1 1871 22
	ld	a5,-240(s0)
	addi	a4,a5,18
	.loc 1 1871 52
	ld	a5,-200(s0)
	addi	a5,a5,15
	.loc 1 1871 13
	li	a2,2
	mv	a1,a5
	mv	a0,a4
	call	CopyMem@plt
	.loc 1 1873 16
	ld	a4,-208(s0)
	li	a5,32
	bleu	a4,a5,.L348
	.loc 1 1874 24
	ld	a5,-240(s0)
	addi	a4,a5,22
	.loc 1 1874 55
	ld	a5,-200(s0)
	addi	a5,a5,17
	.loc 1 1874 15
	li	a2,16
	mv	a1,a5
	mv	a0,a4
	call	CopyMem@plt
	.loc 1 1876 18
	ld	a4,-208(s0)
	li	a5,34
	bleu	a4,a5,.L348
	.loc 1 1877 26
	ld	a5,-240(s0)
	addi	a4,a5,38
	.loc 1 1877 56
	ld	a5,-200(s0)
	addi	a5,a5,33
	.loc 1 1877 17
	li	a2,2
	mv	a1,a5
	mv	a0,a4
	call	CopyMem@plt
.L348:
	.loc 1 1883 40
	ld	a5,-48(s0)
	li	a4,22
	sh	a4,66(a5)
	.loc 1 1884 9
	ld	a2,-40(s0)
	ld	a1,-48(s0)
	ld	a0,-312(s0)
	call	InitializeRequestElement
	.loc 1 1885 9
	j	.L327
.L319:
	.loc 1 1889 28
	ld	a2,-40(s0)
	ld	a1,-312(s0)
	ld	a0,-200(s0)
	call	CreateQuestion
	sd	a0,-48(s0)
	.loc 1 1892 65
	ld	a5,-200(s0)
	lbu	a4,13(a5)
	.loc 1 1892 33
	ld	a5,-48(s0)
	sb	a4,145(a5)
	.loc 1 1893 15
	ld	a5,-48(s0)
	addi	a5,a5,96
	sd	a5,-240(s0)
	.loc 1 1895 12
	lbu	a5,-178(s0)
	andi	a5,a5,0xff
	beq	a5,zero,.L349
	.loc 1 1899 53
	ld	a5,-48(s0)
	li	a4,1
	sb	a4,73(a5)
	.loc 1 1900 63
	ld	a5,-48(s0)
	lbu	a5,145(a5)
	.loc 1 1900 71
	andi	a5,a5,63
	slli	a4,a5,48
	srli	a4,a4,48
	.loc 1 1900 45
	ld	a5,-48(s0)
	sh	a4,68(a5)
	.loc 1 1901 74
	ld	a5,-48(s0)
	lhu	a4,64(a5)
	.loc 1 1901 42
	ld	a5,-48(s0)
	sh	a4,70(a5)
	.loc 1 1902 70
	ld	a5,-48(s0)
	lhu	a5,70(a5)
	.loc 1 1902 52
	srliw	a5,a5,3
	slli	a4,a5,48
	srli	a4,a4,48
	ld	a5,-48(s0)
	sh	a4,64(a5)
	.loc 1 1903 39
	ld	a5,-48(s0)
	lhu	a5,70(a5)
	.loc 1 1903 54
	andi	a5,a5,7
	slli	a4,a5,48
	srli	a4,a4,48
	.loc 1 1903 76
	ld	a5,-48(s0)
	lhu	a5,68(a5)
	.loc 1 1903 21
	addw	a5,a4,a5
	sh	a5,-242(s0)
	.loc 1 1904 59
	lhu	a5,-242(s0)
	andi	a5,a5,7
	slli	a5,a5,48
	srli	a5,a5,48
	.loc 1 1904 42
	bne	a5,zero,.L350
	.loc 1 1904 42 is_stmt 0 discriminator 1
	lhu	a5,-242(s0)
	srliw	a5,a5,3
	slli	a5,a5,48
	srli	a5,a5,48
	j	.L351
.L350:
	.loc 1 1904 96 is_stmt 1 discriminator 2
	lhu	a5,-242(s0)
	srliw	a5,a5,3
	slli	a5,a5,48
	srli	a5,a5,48
	.loc 1 1904 42 discriminator 2
	addiw	a5,a5,1
	slli	a5,a5,48
	srli	a5,a5,48
.L351:
	.loc 1 1904 42 is_stmt 0 discriminator 4
	ld	a4,-48(s0)
	sh	a5,66(a4)
	.loc 1 1909 80 is_stmt 1
	ld	a5,-200(s0)
	lbu	a4,14(a5)
	lbu	a3,15(a5)
	slli	a3,a3,8
	or	a4,a3,a4
	lbu	a3,16(a5)
	slli	a3,a3,16
	or	a4,a3,a4
	lbu	a5,17(a5)
	slli	a5,a5,24
	or	a5,a5,a4
	sext.w	a5,a5
	slli	a4,a5,32
	srli	a4,a4,32
	.loc 1 1909 37
	ld	a5,-48(s0)
	sd	a4,152(a5)
	.loc 1 1910 80
	ld	a5,-200(s0)
	lbu	a4,18(a5)
	lbu	a3,19(a5)
	slli	a3,a3,8
	or	a4,a3,a4
	lbu	a3,20(a5)
	slli	a3,a3,16
	or	a4,a3,a4
	lbu	a5,21(a5)
	slli	a5,a5,24
	or	a5,a5,a4
	sext.w	a5,a5
	slli	a4,a5,32
	srli	a4,a4,32
	.loc 1 1910 37
	ld	a5,-48(s0)
	sd	a4,160(a5)
	.loc 1 1911 77
	ld	a5,-200(s0)
	lbu	a4,22(a5)
	lbu	a3,23(a5)
	slli	a3,a3,8
	or	a4,a3,a4
	lbu	a3,24(a5)
	slli	a3,a3,16
	or	a4,a3,a4
	lbu	a5,25(a5)
	slli	a5,a5,24
	or	a5,a5,a4
	sext.w	a5,a5
	slli	a4,a5,32
	srli	a4,a4,32
	.loc 1 1911 34
	ld	a5,-48(s0)
	sd	a4,168(a5)
	.loc 1 1917 42
	ld	a5,-200(s0)
	lbu	a5,13(a5)
	.loc 1 1917 50
	andi	a5,a5,-64
	andi	a4,a5,0xff
	ld	a5,-200(s0)
	sb	a4,13(a5)
	.loc 1 1918 42
	ld	a5,-200(s0)
	lbu	a5,13(a5)
	.loc 1 1918 50
	srliw	a5,a5,2
	andi	a4,a5,0xff
	ld	a5,-200(s0)
	sb	a4,13(a5)
	.loc 1 1919 35
	ld	a5,-48(s0)
	lhu	a5,66(a5)
	sext.w	a5,a5
	.loc 1 1919 11
	li	a4,4
	bgt	a5,a4,.L452
	li	a4,3
	bge	a5,a4,.L353
	li	a4,1
	beq	a5,a4,.L354
	li	a4,2
	beq	a5,a4,.L355
	.loc 1 1943 15
	j	.L452
.L354:
	.loc 1 1921 46
	ld	a5,-200(s0)
	lbu	a4,13(a5)
	.loc 1 1921 54
	ld	a5,-200(s0)
	sb	a4,13(a5)
	.loc 1 1922 90
	ld	a5,-48(s0)
	ld	a5,152(a5)
	.loc 1 1922 67
	andi	a4,a5,0xff
	.loc 1 1922 65
	ld	a5,-200(s0)
	sb	a4,14(a5)
	.loc 1 1923 90
	ld	a5,-48(s0)
	ld	a5,160(a5)
	.loc 1 1923 67
	andi	a4,a5,0xff
	.loc 1 1923 65
	ld	a5,-200(s0)
	sb	a4,15(a5)
	.loc 1 1924 86
	ld	a5,-48(s0)
	ld	a5,168(a5)
	.loc 1 1924 63
	andi	a4,a5,0xff
	.loc 1 1924 61
	ld	a5,-200(s0)
	sb	a4,16(a5)
	.loc 1 1925 27
	ld	a5,-240(s0)
	sb	zero,0(a5)
	.loc 1 1926 15
	j	.L357
.L355:
	.loc 1 1928 46
	ld	a5,-200(s0)
	lbu	a5,13(a5)
	.loc 1 1928 54
	ori	a5,a5,1
	andi	a4,a5,0xff
	ld	a5,-200(s0)
	sb	a4,13(a5)
	.loc 1 1929 92
	ld	a5,-48(s0)
	ld	a5,152(a5)
	.loc 1 1929 68
	slli	a4,a5,48
	srli	a4,a4,48
	.loc 1 1929 66
	ld	a5,-200(s0)
	andi	a3,a4,255
	lbu	a2,14(a5)
	andi	a2,a2,0
	or	a3,a2,a3
	sb	a3,14(a5)
	srliw	a4,a4,8
	slli	a4,a4,48
	srli	a4,a4,48
	lbu	a3,15(a5)
	andi	a3,a3,0
	or	a4,a3,a4
	sb	a4,15(a5)
	.loc 1 1930 92
	ld	a5,-48(s0)
	ld	a5,160(a5)
	.loc 1 1930 68
	slli	a4,a5,48
	srli	a4,a4,48
	.loc 1 1930 66
	ld	a5,-200(s0)
	andi	a3,a4,255
	lbu	a2,16(a5)
	andi	a2,a2,0
	or	a3,a2,a3
	sb	a3,16(a5)
	srliw	a4,a4,8
	slli	a4,a4,48
	srli	a4,a4,48
	lbu	a3,17(a5)
	andi	a3,a3,0
	or	a4,a3,a4
	sb	a4,17(a5)
	.loc 1 1931 88
	ld	a5,-48(s0)
	ld	a5,168(a5)
	.loc 1 1931 64
	slli	a4,a5,48
	srli	a4,a4,48
	.loc 1 1931 62
	ld	a5,-200(s0)
	andi	a3,a4,255
	lbu	a2,18(a5)
	andi	a2,a2,0
	or	a3,a2,a3
	sb	a3,18(a5)
	srliw	a4,a4,8
	slli	a4,a4,48
	srli	a4,a4,48
	lbu	a3,19(a5)
	andi	a3,a3,0
	or	a4,a3,a4
	sb	a4,19(a5)
	.loc 1 1932 27
	ld	a5,-240(s0)
	li	a4,1
	sb	a4,0(a5)
	.loc 1 1933 15
	j	.L357
.L353:
	.loc 1 1936 46
	ld	a5,-200(s0)
	lbu	a5,13(a5)
	.loc 1 1936 54
	ori	a5,a5,2
	andi	a4,a5,0xff
	ld	a5,-200(s0)
	sb	a4,13(a5)
	.loc 1 1937 92
	ld	a5,-48(s0)
	ld	a5,152(a5)
	.loc 1 1937 68
	sext.w	a4,a5
	.loc 1 1937 66
	ld	a5,-200(s0)
	slli	a3,a4,32
	srli	a3,a3,32
	andi	a3,a3,255
	lbu	a2,14(a5)
	andi	a2,a2,0
	or	a3,a2,a3
	sb	a3,14(a5)
	srliw	a3,a4,8
	slli	a3,a3,32
	srli	a3,a3,32
	andi	a3,a3,255
	lbu	a2,15(a5)
	andi	a2,a2,0
	or	a3,a2,a3
	sb	a3,15(a5)
	srliw	a3,a4,16
	slli	a3,a3,32
	srli	a3,a3,32
	andi	a3,a3,255
	lbu	a2,16(a5)
	andi	a2,a2,0
	or	a3,a2,a3
	sb	a3,16(a5)
	srliw	a4,a4,24
	slli	a4,a4,32
	srli	a4,a4,32
	lbu	a3,17(a5)
	andi	a3,a3,0
	or	a4,a3,a4
	sb	a4,17(a5)
	.loc 1 1938 92
	ld	a5,-48(s0)
	ld	a5,160(a5)
	.loc 1 1938 68
	sext.w	a4,a5
	.loc 1 1938 66
	ld	a5,-200(s0)
	slli	a3,a4,32
	srli	a3,a3,32
	andi	a3,a3,255
	lbu	a2,18(a5)
	andi	a2,a2,0
	or	a3,a2,a3
	sb	a3,18(a5)
	srliw	a3,a4,8
	slli	a3,a3,32
	srli	a3,a3,32
	andi	a3,a3,255
	lbu	a2,19(a5)
	andi	a2,a2,0
	or	a3,a2,a3
	sb	a3,19(a5)
	srliw	a3,a4,16
	slli	a3,a3,32
	srli	a3,a3,32
	andi	a3,a3,255
	lbu	a2,20(a5)
	andi	a2,a2,0
	or	a3,a2,a3
	sb	a3,20(a5)
	srliw	a4,a4,24
	slli	a4,a4,32
	srli	a4,a4,32
	lbu	a3,21(a5)
	andi	a3,a3,0
	or	a4,a3,a4
	sb	a4,21(a5)
	.loc 1 1939 88
	ld	a5,-48(s0)
	ld	a5,168(a5)
	.loc 1 1939 64
	sext.w	a4,a5
	.loc 1 1939 62
	ld	a5,-200(s0)
	slli	a3,a4,32
	srli	a3,a3,32
	andi	a3,a3,255
	lbu	a2,22(a5)
	andi	a2,a2,0
	or	a3,a2,a3
	sb	a3,22(a5)
	srliw	a3,a4,8
	slli	a3,a3,32
	srli	a3,a3,32
	andi	a3,a3,255
	lbu	a2,23(a5)
	andi	a2,a2,0
	or	a3,a2,a3
	sb	a3,23(a5)
	srliw	a3,a4,16
	slli	a3,a3,32
	srli	a3,a3,32
	andi	a3,a3,255
	lbu	a2,24(a5)
	andi	a2,a2,0
	or	a3,a2,a3
	sb	a3,24(a5)
	srliw	a4,a4,24
	slli	a4,a4,32
	srli	a4,a4,32
	lbu	a3,25(a5)
	andi	a3,a3,0
	or	a4,a3,a4
	sb	a4,25(a5)
	.loc 1 1940 27
	ld	a5,-240(s0)
	li	a4,2
	sb	a4,0(a5)
	.loc 1 1941 15
	j	.L357
.L349:
	.loc 1 1946 35
	ld	a5,-48(s0)
	lbu	a5,145(a5)
	.loc 1 1946 43
	sext.w	a5,a5
	andi	a5,a5,3
	sext.w	a5,a5
	.loc 1 1946 11
	li	a4,3
	beq	a5,a4,.L358
	li	a4,3
	bgt	a5,a4,.L453
	li	a4,2
	beq	a5,a4,.L360
	li	a4,2
	bgt	a5,a4,.L453
	beq	a5,zero,.L361
	li	a4,1
	beq	a5,a4,.L362
	.loc 1 1980 15
	j	.L453
.L361:
	.loc 1 1948 83
	ld	a5,-200(s0)
	lbu	a5,14(a5)
	mv	a4,a5
	.loc 1 1948 41
	ld	a5,-48(s0)
	sd	a4,152(a5)
	.loc 1 1949 83
	ld	a5,-200(s0)
	lbu	a5,15(a5)
	mv	a4,a5
	.loc 1 1949 41
	ld	a5,-48(s0)
	sd	a4,160(a5)
	.loc 1 1950 80
	ld	a5,-200(s0)
	lbu	a5,16(a5)
	mv	a4,a5
	.loc 1 1950 38
	ld	a5,-48(s0)
	sd	a4,168(a5)
	.loc 1 1951 46
	ld	a5,-48(s0)
	li	a4,1
	sh	a4,66(a5)
	.loc 1 1952 27
	ld	a5,-240(s0)
	sb	zero,0(a5)
	.loc 1 1953 15
	j	.L357
.L362:
	.loc 1 1956 24
	ld	a5,-48(s0)
	addi	a4,a5,152
	.loc 1 1956 52
	ld	a5,-200(s0)
	addi	a5,a5,14
	.loc 1 1956 15
	li	a2,2
	mv	a1,a5
	mv	a0,a4
	call	CopyMem@plt
	.loc 1 1957 24
	ld	a5,-48(s0)
	addi	a4,a5,160
	.loc 1 1957 52
	ld	a5,-200(s0)
	addi	a5,a5,16
	.loc 1 1957 15
	li	a2,2
	mv	a1,a5
	mv	a0,a4
	call	CopyMem@plt
	.loc 1 1958 24
	ld	a5,-48(s0)
	addi	a4,a5,168
	.loc 1 1958 49
	ld	a5,-200(s0)
	addi	a5,a5,18
	.loc 1 1958 15
	li	a2,2
	mv	a1,a5
	mv	a0,a4
	call	CopyMem@plt
	.loc 1 1959 46
	ld	a5,-48(s0)
	li	a4,2
	sh	a4,66(a5)
	.loc 1 1960 27
	ld	a5,-240(s0)
	li	a4,1
	sb	a4,0(a5)
	.loc 1 1961 15
	j	.L357
.L360:
	.loc 1 1964 24
	ld	a5,-48(s0)
	addi	a4,a5,152
	.loc 1 1964 52
	ld	a5,-200(s0)
	addi	a5,a5,14
	.loc 1 1964 15
	li	a2,4
	mv	a1,a5
	mv	a0,a4
	call	CopyMem@plt
	.loc 1 1965 24
	ld	a5,-48(s0)
	addi	a4,a5,160
	.loc 1 1965 52
	ld	a5,-200(s0)
	addi	a5,a5,18
	.loc 1 1965 15
	li	a2,4
	mv	a1,a5
	mv	a0,a4
	call	CopyMem@plt
	.loc 1 1966 24
	ld	a5,-48(s0)
	addi	a4,a5,168
	.loc 1 1966 49
	ld	a5,-200(s0)
	addi	a5,a5,22
	.loc 1 1966 15
	li	a2,4
	mv	a1,a5
	mv	a0,a4
	call	CopyMem@plt
	.loc 1 1967 46
	ld	a5,-48(s0)
	li	a4,4
	sh	a4,66(a5)
	.loc 1 1968 27
	ld	a5,-240(s0)
	li	a4,2
	sb	a4,0(a5)
	.loc 1 1969 15
	j	.L357
.L358:
	.loc 1 1972 24
	ld	a5,-48(s0)
	addi	a4,a5,152
	.loc 1 1972 52
	ld	a5,-200(s0)
	addi	a5,a5,14
	.loc 1 1972 15
	li	a2,8
	mv	a1,a5
	mv	a0,a4
	call	CopyMem@plt
	.loc 1 1973 24
	ld	a5,-48(s0)
	addi	a4,a5,160
	.loc 1 1973 52
	ld	a5,-200(s0)
	addi	a5,a5,22
	.loc 1 1973 15
	li	a2,8
	mv	a1,a5
	mv	a0,a4
	call	CopyMem@plt
	.loc 1 1974 24
	ld	a5,-48(s0)
	addi	a4,a5,168
	.loc 1 1974 49
	ld	a5,-200(s0)
	addi	a5,a5,30
	.loc 1 1974 15
	li	a2,8
	mv	a1,a5
	mv	a0,a4
	call	CopyMem@plt
	.loc 1 1975 46
	ld	a5,-48(s0)
	li	a4,8
	sh	a4,66(a5)
	.loc 1 1976 27
	ld	a5,-240(s0)
	li	a4,3
	sb	a4,0(a5)
	.loc 1 1977 15
	j	.L357
.L452:
	.loc 1 1943 15
	nop
	j	.L357
.L453:
	.loc 1 1980 15
	nop
.L357:
	.loc 1 1984 9
	ld	a2,-40(s0)
	ld	a1,-48(s0)
	ld	a0,-312(s0)
	call	InitializeRequestElement
	.loc 1 1986 12
	lbu	a5,-209(s0)
	andi	a4,a5,0xff
	li	a5,5
	bne	a4,a5,.L454
	.loc 1 1986 31 discriminator 1
	lbu	a5,-57(s0)
	andi	a5,a5,0xff
	beq	a5,zero,.L454
	.loc 1 1987 29
	li	a5,1
	sb	a5,-114(s0)
	.loc 1 1990 9
	j	.L454
.L302:
	.loc 1 1993 28
	ld	a2,-40(s0)
	ld	a1,-312(s0)
	ld	a0,-200(s0)
	call	CreateQuestion
	sd	a0,-48(s0)
	.loc 1 1996 71
	ld	a5,-200(s0)
	lbu	a4,14(a5)
	.loc 1 1996 33
	ld	a5,-48(s0)
	sb	a4,145(a5)
	.loc 1 1997 79
	ld	a5,-200(s0)
	lbu	a4,13(a5)
	.loc 1 1997 41
	ld	a5,-48(s0)
	sb	a4,146(a5)
	.loc 1 1999 41
	ld	a5,-48(s0)
	li	a4,11
	sb	a4,96(a5)
	.loc 1 2000 39
	ld	a5,-48(s0)
	sd	zero,136(a5)
	.loc 1 2002 12
	lbu	a5,-57(s0)
	andi	a5,a5,0xff
	beq	a5,zero,.L455
	.loc 1 2003 29
	li	a5,1
	sb	a5,-114(s0)
	.loc 1 2006 9
	j	.L455
.L320:
	.loc 1 2009 28
	ld	a2,-40(s0)
	ld	a1,-312(s0)
	ld	a0,-200(s0)
	call	CreateQuestion
	sd	a0,-48(s0)
	.loc 1 2012 67
	ld	a5,-200(s0)
	lbu	a4,13(a5)
	.loc 1 2012 33
	ld	a5,-48(s0)
	sb	a4,145(a5)
	.loc 1 2013 40
	ld	a5,-48(s0)
	li	a4,1
	sh	a4,66(a5)
	.loc 1 2014 41
	ld	a5,-48(s0)
	li	a4,4
	sb	a4,96(a5)
	.loc 1 2016 12
	lbu	a5,-178(s0)
	andi	a5,a5,0xff
	beq	a5,zero,.L365
	.loc 1 2020 53
	ld	a5,-48(s0)
	li	a4,1
	sb	a4,73(a5)
	.loc 1 2021 45
	ld	a5,-48(s0)
	li	a4,1
	sh	a4,68(a5)
	.loc 1 2022 74
	ld	a5,-48(s0)
	lhu	a4,64(a5)
	.loc 1 2022 42
	ld	a5,-48(s0)
	sh	a4,70(a5)
	.loc 1 2023 70
	ld	a5,-48(s0)
	lhu	a5,70(a5)
	.loc 1 2023 52
	srliw	a5,a5,3
	slli	a4,a5,48
	srli	a4,a4,48
	ld	a5,-48(s0)
	sh	a4,64(a5)
	.loc 1 2024 39
	ld	a5,-48(s0)
	lhu	a5,70(a5)
	.loc 1 2024 54
	andi	a5,a5,7
	slli	a4,a5,48
	srli	a4,a4,48
	.loc 1 2024 76
	ld	a5,-48(s0)
	lhu	a5,68(a5)
	.loc 1 2024 21
	addw	a5,a4,a5
	sh	a5,-242(s0)
	.loc 1 2025 59
	lhu	a5,-242(s0)
	andi	a5,a5,7
	slli	a5,a5,48
	srli	a5,a5,48
	.loc 1 2025 42
	bne	a5,zero,.L366
	.loc 1 2025 42 is_stmt 0 discriminator 1
	lhu	a5,-242(s0)
	srliw	a5,a5,3
	slli	a5,a5,48
	srli	a5,a5,48
	j	.L367
.L366:
	.loc 1 2025 96 is_stmt 1 discriminator 2
	lhu	a5,-242(s0)
	srliw	a5,a5,3
	slli	a5,a5,48
	srli	a5,a5,48
	.loc 1 2025 42 discriminator 2
	addiw	a5,a5,1
	slli	a5,a5,48
	srli	a5,a5,48
.L367:
	.loc 1 2025 42 is_stmt 0 discriminator 4
	ld	a4,-48(s0)
	sh	a5,66(a4)
.L365:
	.loc 1 2028 9 is_stmt 1
	ld	a2,-40(s0)
	ld	a1,-48(s0)
	ld	a0,-312(s0)
	call	InitializeRequestElement
	.loc 1 2030 9
	j	.L327
.L305:
	.loc 1 2033 28
	ld	a2,-40(s0)
	ld	a1,-312(s0)
	ld	a0,-200(s0)
	call	CreateQuestion
	sd	a0,-48(s0)
	.loc 1 2040 67
	ld	a5,-200(s0)
	lbu	a5,13(a5)
	mv	a4,a5
	.loc 1 2040 35
	ld	a5,-48(s0)
	sd	a4,152(a5)
	.loc 1 2041 67
	ld	a5,-200(s0)
	lbu	a5,14(a5)
	mv	a4,a5
	.loc 1 2041 35
	ld	a5,-48(s0)
	sd	a4,160(a5)
	.loc 1 2042 74
	ld	a5,-48(s0)
	ld	a5,160(a5)
	.loc 1 2042 42
	slli	a5,a5,48
	srli	a5,a5,48
	slliw	a5,a5,1
	slli	a4,a5,48
	srli	a4,a4,48
	.loc 1 2042 40
	ld	a5,-48(s0)
	sh	a4,66(a5)
	.loc 1 2043 65
	ld	a5,-200(s0)
	lbu	a4,15(a5)
	.loc 1 2043 33
	ld	a5,-48(s0)
	sb	a4,145(a5)
	.loc 1 2045 41
	ld	a5,-48(s0)
	li	a4,7
	sb	a4,96(a5)
	.loc 1 2046 75
	ld	a5,-48(s0)
	lhu	a5,66(a5)
	.loc 1 2046 90
	addi	a5,a5,2
	.loc 1 2046 41
	mv	a0,a5
	call	AllocateZeroPool@plt
	mv	a4,a0
	.loc 1 2046 39 discriminator 1
	ld	a5,-48(s0)
	sd	a4,136(a5)
	.loc 1 2047 88
	ld	a5,-48(s0)
	ld	a4,136(a5)
	.loc 1 2047 51
	ld	a5,-312(s0)
	ld	a5,40(a5)
	mv	a1,a5
	mv	a0,a4
	call	NewString@plt
	mv	a5,a0
	mv	a4,a5
	.loc 1 2047 49 discriminator 1
	ld	a5,-48(s0)
	sh	a4,114(a5)
	.loc 1 2049 9
	ld	a2,-40(s0)
	ld	a1,-48(s0)
	ld	a0,-312(s0)
	call	InitializeRequestElement
	.loc 1 2050 9
	j	.L327
.L318:
	.loc 1 2053 28
	ld	a2,-40(s0)
	ld	a1,-312(s0)
	ld	a0,-200(s0)
	call	CreateQuestion
	sd	a0,-48(s0)
	.loc 1 2060 18
	ld	a5,-48(s0)
	addi	a4,a5,152
	.loc 1 2060 46
	ld	a5,-200(s0)
	addi	a5,a5,13
	.loc 1 2060 9
	li	a2,2
	mv	a1,a5
	mv	a0,a4
	call	CopyMem@plt
	.loc 1 2061 18
	ld	a5,-48(s0)
	addi	a4,a5,160
	.loc 1 2061 46
	ld	a5,-200(s0)
	addi	a5,a5,15
	.loc 1 2061 9
	li	a2,2
	mv	a1,a5
	mv	a0,a4
	call	CopyMem@plt
	.loc 1 2062 74
	ld	a5,-48(s0)
	ld	a5,160(a5)
	.loc 1 2062 42
	slli	a5,a5,48
	srli	a5,a5,48
	slliw	a5,a5,1
	slli	a4,a5,48
	srli	a4,a4,48
	.loc 1 2062 40
	ld	a5,-48(s0)
	sh	a4,66(a5)
	.loc 1 2064 41
	ld	a5,-48(s0)
	li	a4,7
	sb	a4,96(a5)
	.loc 1 2065 76
	ld	a5,-48(s0)
	lhu	a5,66(a5)
	.loc 1 2065 91
	addi	a5,a5,2
	.loc 1 2065 41
	mv	a0,a5
	call	AllocateZeroPool@plt
	mv	a4,a0
	.loc 1 2065 39 discriminator 1
	ld	a5,-48(s0)
	sd	a4,136(a5)
	.loc 1 2066 88
	ld	a5,-48(s0)
	ld	a4,136(a5)
	.loc 1 2066 51
	ld	a5,-312(s0)
	ld	a5,40(a5)
	mv	a1,a5
	mv	a0,a4
	call	NewString@plt
	mv	a5,a0
	mv	a4,a5
	.loc 1 2066 49 discriminator 1
	ld	a5,-48(s0)
	sh	a4,114(a5)
	.loc 1 2068 9
	ld	a2,-40(s0)
	ld	a1,-48(s0)
	ld	a0,-312(s0)
	call	InitializeRequestElement
	.loc 1 2069 9
	j	.L327
.L307:
	.loc 1 2072 28
	ld	a2,-40(s0)
	ld	a1,-312(s0)
	ld	a0,-200(s0)
	call	CreateQuestion
	sd	a0,-48(s0)
	.loc 1 2075 63
	ld	a5,-200(s0)
	lbu	a4,13(a5)
	.loc 1 2075 33
	ld	a5,-48(s0)
	sb	a4,145(a5)
	.loc 1 2076 41
	ld	a5,-48(s0)
	li	a4,6
	sb	a4,96(a5)
	.loc 1 2078 30
	ld	a5,-48(s0)
	lbu	a5,145(a5)
	.loc 1 2078 38
	sext.w	a5,a5
	andi	a5,a5,48
	sext.w	a5,a5
	.loc 1 2078 12
	bne	a5,zero,.L368
	.loc 1 2079 42
	ld	a5,-48(s0)
	li	a4,4
	sh	a4,66(a5)
	.loc 1 2081 11
	ld	a2,-40(s0)
	ld	a1,-48(s0)
	ld	a0,-312(s0)
	call	InitializeRequestElement
	.loc 1 2090 9
	j	.L327
.L368:
	.loc 1 2086 37
	ld	a5,-48(s0)
	sd	zero,56(a5)
	.loc 1 2087 42
	ld	a5,-48(s0)
	sh	zero,66(a5)
	.loc 1 2090 9
	j	.L327
.L306:
	.loc 1 2093 28
	ld	a2,-40(s0)
	ld	a1,-312(s0)
	ld	a0,-200(s0)
	call	CreateQuestion
	sd	a0,-48(s0)
	.loc 1 2096 63
	ld	a5,-200(s0)
	lbu	a4,13(a5)
	.loc 1 2096 33
	ld	a5,-48(s0)
	sb	a4,145(a5)
	.loc 1 2097 41
	ld	a5,-48(s0)
	li	a4,5
	sb	a4,96(a5)
	.loc 1 2099 30
	ld	a5,-48(s0)
	lbu	a5,145(a5)
	.loc 1 2099 38
	sext.w	a5,a5
	andi	a5,a5,48
	sext.w	a5,a5
	.loc 1 2099 12
	bne	a5,zero,.L370
	.loc 1 2100 42
	ld	a5,-48(s0)
	li	a4,3
	sh	a4,66(a5)
	.loc 1 2102 11
	ld	a2,-40(s0)
	ld	a1,-48(s0)
	ld	a0,-312(s0)
	call	InitializeRequestElement
	.loc 1 2111 9
	j	.L327
.L370:
	.loc 1 2107 37
	ld	a5,-48(s0)
	sd	zero,56(a5)
	.loc 1 2108 42
	ld	a5,-48(s0)
	sh	zero,66(a5)
	.loc 1 2111 9
	j	.L327
.L294:
	.loc 1 2122 26
	li	a0,80
	call	AllocateZeroPool@plt
	sd	a0,-88(s0)
	.loc 1 2124 35
	ld	a5,-88(s0)
	li	a4,1413890048
	addi	a4,a4,1105
	sd	a4,0(a5)
	.loc 1 2126 69
	ld	a5,-200(s0)
	lbu	a4,4(a5)
	.loc 1 2126 36
	ld	a5,-88(s0)
	sb	a4,32(a5)
	.loc 1 2127 18
	ld	a5,-88(s0)
	addi	a4,a5,24
	.loc 1 2127 46
	ld	a5,-200(s0)
	addi	a5,a5,2
	.loc 1 2127 9
	li	a2,2
	mv	a1,a5
	mv	a0,a4
	call	CopyMem@plt
	.loc 1 2128 34
	ld	a5,-88(s0)
	lbu	a5,32(a5)
	.loc 1 2128 12
	mv	a4,a5
	li	a5,11
	bne	a4,a5,.L372
	.loc 1 2129 45
	ld	a5,-208(s0)
	slli	a5,a5,48
	srli	a5,a5,48
	addiw	a5,a5,-5
	slli	a4,a5,48
	srli	a4,a4,48
	.loc 1 2129 43
	ld	a5,-88(s0)
	sh	a4,48(a5)
	.loc 1 2130 81
	ld	a5,-88(s0)
	lhu	a5,48(a5)
	.loc 1 2130 42
	mv	a4,a5
	.loc 1 2130 93
	ld	a5,-200(s0)
	addi	a5,a5,5
	.loc 1 2130 42
	mv	a1,a5
	mv	a0,a4
	call	AllocateCopyPool@plt
	mv	a4,a0
	.loc 1 2130 40 discriminator 1
	ld	a5,-88(s0)
	sd	a4,40(a5)
	j	.L373
.L372:
	.loc 1 2133 20
	ld	a5,-88(s0)
	addi	a4,a5,50
	.loc 1 2133 50
	ld	a5,-200(s0)
	addi	a3,a5,5
	.loc 1 2133 104
	ld	a5,-208(s0)
	addi	a5,a5,-5
	.loc 1 2133 11
	mv	a2,a5
	mv	a1,a3
	mv	a0,a4
	call	CopyMem@plt
	.loc 1 2134 11
	ld	a5,-88(s0)
	addi	a5,a5,32
	mv	a0,a5
	call	ExtendValueToU64@plt
.L373:
	.loc 1 2140 9
	ld	a5,-56(s0)
	addi	a4,a5,208
	ld	a5,-88(s0)
	addi	a5,a5,8
	mv	a1,a5
	mv	a0,a4
	call	InsertTailList@plt
	.loc 1 2142 12
	lbu	a5,-57(s0)
	andi	a5,a5,0xff
	beq	a5,zero,.L456
	.loc 1 2143 26
	li	a5,1
	sb	a5,-119(s0)
	.loc 1 2146 9
	j	.L456
.L317:
	.loc 1 2153 29
	ld	a5,-56(s0)
	lbu	a5,24(a5)
	.loc 1 2153 12
	mv	a4,a5
	li	a5,35
	bne	a4,a5,.L375
	.loc 1 2153 90 discriminator 1
	ld	a5,-200(s0)
	lbu	a5,4(a5)
	.loc 1 2153 98 discriminator 1
	sext.w	a5,a5
	andi	a5,a5,48
	sext.w	a5,a5
	.loc 1 2153 48 discriminator 1
	beq	a5,zero,.L375
	.loc 1 2157 28
	li	a0,80
	call	AllocateZeroPool@plt
	sd	a0,-88(s0)
	.loc 1 2159 37
	ld	a5,-88(s0)
	li	a4,1413890048
	addi	a4,a4,1105
	sd	a4,0(a5)
	.loc 1 2161 38
	ld	a5,-88(s0)
	li	a4,11
	sb	a4,32(a5)
	.loc 1 2162 53
	ld	a5,-200(s0)
	lbu	a5,4(a5)
	.loc 1 2162 61
	sext.w	a5,a5
	andi	a5,a5,16
	sext.w	a5,a5
	.loc 1 2162 14
	beq	a5,zero,.L376
	.loc 1 2163 39
	ld	a5,-88(s0)
	sh	zero,24(a5)
	j	.L377
.L376:
	.loc 1 2165 39
	ld	a5,-88(s0)
	li	a4,1
	sh	a4,24(a5)
.L377:
	.loc 1 2168 45
	ld	a5,-208(s0)
	slli	a5,a5,48
	srli	a5,a5,48
	addiw	a5,a5,-6
	slli	a4,a5,48
	srli	a4,a4,48
	.loc 1 2168 43
	ld	a5,-88(s0)
	sh	a4,48(a5)
	.loc 1 2169 81
	ld	a5,-88(s0)
	lhu	a5,48(a5)
	.loc 1 2169 42
	mv	a4,a5
	.loc 1 2169 93
	ld	a5,-200(s0)
	addi	a5,a5,6
	.loc 1 2169 42
	mv	a1,a5
	mv	a0,a4
	call	AllocateCopyPool@plt
	mv	a4,a0
	.loc 1 2169 40 discriminator 1
	ld	a5,-88(s0)
	sd	a4,40(a5)
	.loc 1 2175 11
	ld	a5,-56(s0)
	addi	a4,a5,208
	ld	a5,-88(s0)
	addi	a5,a5,8
	mv	a1,a5
	mv	a0,a4
	call	InsertTailList@plt
	.loc 1 2176 11
	j	.L327
.L375:
	.loc 1 2183 25
	li	a0,96
	call	AllocateZeroPool@plt
	sd	a0,-96(s0)
	.loc 1 2185 34
	ld	a5,-96(s0)
	li	a4,1414549504
	addi	a4,a4,-175
	sd	a4,0(a5)
	.loc 1 2186 31
	ld	a5,-96(s0)
	ld	a4,-200(s0)
	sd	a4,24(a5)
	.loc 1 2188 69
	ld	a5,-200(s0)
	lbu	a4,4(a5)
	.loc 1 2188 30
	ld	a5,-96(s0)
	sb	a4,34(a5)
	.loc 1 2189 74
	ld	a5,-200(s0)
	lbu	a4,5(a5)
	.loc 1 2189 35
	ld	a5,-96(s0)
	sb	a4,40(a5)
	.loc 1 2190 18
	ld	a5,-96(s0)
	addi	a4,a5,32
	.loc 1 2190 40
	ld	a5,-200(s0)
	addi	a5,a5,2
	.loc 1 2190 9
	li	a2,2
	mv	a1,a5
	mv	a0,a4
	call	CopyMem@plt
	.loc 1 2191 18
	ld	a5,-96(s0)
	addi	a4,a5,58
	.loc 1 2191 47
	ld	a5,-200(s0)
	addi	a3,a5,6
	.loc 1 2191 107
	ld	a5,-208(s0)
	addi	a5,a5,-6
	.loc 1 2191 9
	mv	a2,a5
	mv	a1,a3
	mv	a0,a4
	call	CopyMem@plt
	.loc 1 2192 9
	ld	a5,-96(s0)
	addi	a5,a5,40
	mv	a0,a5
	call	ExtendValueToU64@plt
	.loc 1 2194 32
	li	a0,3
	call	GetConditionalExpressionCount@plt
	sd	a0,-192(s0)
	.loc 1 2195 12
	ld	a5,-192(s0)
	ble	a5,zero,.L378
	.loc 1 2200 73
	ld	a5,-192(s0)
	addi	a5,a5,2
	slli	a5,a5,3
	.loc 1 2199 71
	mv	a0,a5
	call	AllocatePool@plt
	mv	a4,a0
	.loc 1 2199 45 discriminator 1
	ld	a5,-96(s0)
	sd	a4,88(a5)
	.loc 1 2203 24
	ld	a5,-96(s0)
	ld	a5,88(a5)
	.loc 1 2203 54
	ld	a4,-192(s0)
	.loc 1 2203 52
	sd	a4,8(a5)
	.loc 1 2204 24
	ld	a5,-96(s0)
	ld	a5,88(a5)
	.loc 1 2204 56
	li	a4,1381515264
	addi	a4,a4,1350
	sd	a4,0(a5)
	.loc 1 2205 33
	ld	a5,-96(s0)
	ld	a5,88(a5)
	.loc 1 2205 53
	addi	s1,a5,16
	.loc 1 2205 67
	li	a0,3
	call	GetConditionalExpressionList@plt
	mv	a4,a0
	.loc 1 2205 11 discriminator 1
	ld	a5,-192(s0)
	.loc 1 2205 113 discriminator 1
	slli	a5,a5,3
	.loc 1 2205 11 discriminator 1
	mv	a2,a5
	mv	a1,a4
	mv	a0,s1
	call	CopyMem@plt
.L378:
	.loc 1 2211 9
	ld	a5,-56(s0)
	addi	a4,a5,224
	ld	a5,-96(s0)
	addi	a5,a5,8
	mv	a1,a5
	mv	a0,a4
	call	InsertTailList@plt
	.loc 1 2215 29
	ld	a5,-56(s0)
	lbu	a5,24(a5)
	.loc 1 2215 12
	mv	a4,a5
	li	a5,35
	bne	a4,a5,.L457
	.loc 1 2215 67 discriminator 1
	ld	a5,-56(s0)
	ld	a5,136(a5)
	.loc 1 2215 48 discriminator 1
	bne	a5,zero,.L457
	.loc 1 2216 17
	li	a5,1
	sb	a5,-97(s0)
	.loc 1 2217 39
	ld	a5,-96(s0)
	lbu	a5,40(a5)
	sext.w	a5,a5
	.loc 1 2217 11
	li	a4,3
	beq	a5,a4,.L380
	li	a4,3
	bgt	a5,a4,.L458
	li	a4,2
	beq	a5,a4,.L382
	li	a4,2
	bgt	a5,a4,.L458
	beq	a5,zero,.L383
	li	a4,1
	beq	a5,a4,.L384
	.loc 1 2238 15
	j	.L458
.L383:
	.loc 1 2219 21
	li	a5,1
	sb	a5,-97(s0)
	.loc 1 2220 15
	j	.L385
.L384:
	.loc 1 2223 21
	li	a5,2
	sb	a5,-97(s0)
	.loc 1 2224 15
	j	.L385
.L382:
	.loc 1 2227 21
	li	a5,4
	sb	a5,-97(s0)
	.loc 1 2228 15
	j	.L385
.L380:
	.loc 1 2231 21
	li	a5,8
	sb	a5,-97(s0)
	.loc 1 2232 15
	j	.L385
.L458:
	.loc 1 2238 15
	nop
.L385:
	.loc 1 2241 67
	ld	a5,-56(s0)
	lbu	a5,146(a5)
	mv	a4,a5
	.loc 1 2241 43
	lbu	a5,-97(s0)
	slli	a5,a5,48
	srli	a5,a5,48
	mulw	a5,a4,a5
	slli	a4,a5,48
	srli	a4,a4,48
	.loc 1 2241 41
	ld	a5,-56(s0)
	sh	a4,66(a5)
	.loc 1 2242 75
	ld	a5,-56(s0)
	lhu	a5,66(a5)
	.loc 1 2242 42
	mv	a0,a5
	call	AllocateZeroPool@plt
	mv	a4,a0
	.loc 1 2242 40 discriminator 1
	ld	a5,-56(s0)
	sd	a4,136(a5)
	.loc 1 2243 60
	ld	a5,-96(s0)
	lbu	a4,40(a5)
	.loc 1 2243 38
	ld	a5,-56(s0)
	sb	a4,144(a5)
	.loc 1 2244 40
	ld	a5,-56(s0)
	lbu	a5,96(a5)
	.loc 1 2244 14
	mv	a4,a5
	li	a5,11
	bne	a4,a5,.L386
	.loc 1 2245 63
	ld	a5,-56(s0)
	ld	a4,136(a5)
	.loc 1 2245 46
	ld	a5,-56(s0)
	sd	a4,104(a5)
	.loc 1 2246 66
	ld	a5,-56(s0)
	lhu	a4,66(a5)
	.loc 1 2246 49
	ld	a5,-56(s0)
	sh	a4,112(a5)
.L386:
	.loc 1 2249 11
	ld	a2,-40(s0)
	ld	a1,-56(s0)
	ld	a0,-312(s0)
	call	InitializeRequestElement
	.loc 1 2252 9
	j	.L457
.L310:
	.loc 1 2262 29
	ld	a1,-200(s0)
	ld	a0,-40(s0)
	call	CreateExpression
	mv	a5,a0
	.loc 1 2262 27 discriminator 1
	sd	a5,-264(s0)
	.loc 1 2263 36
	ld	a5,-264(s0)
	.loc 1 2263 18
	addi	a4,a5,26
	.loc 1 2263 45
	ld	a5,-200(s0)
	addi	a5,a5,2
	.loc 1 2263 9
	li	a2,2
	mv	a1,a5
	mv	a0,a4
	call	CopyMem@plt
	.loc 1 2265 12
	lbu	a5,-209(s0)
	andi	a4,a5,0xff
	li	a5,16
	bne	a4,a5,.L387
	.loc 1 2266 28
	ld	a5,-264(s0)
	.loc 1 2266 35
	li	a4,1
	sb	a4,24(a5)
	.loc 1 2267 11
	ld	a5,-56(s0)
	addi	a4,a5,272
	.loc 1 2267 81
	ld	a5,-264(s0)
	.loc 1 2267 11
	addi	a5,a5,8
	mv	a1,a5
	mv	a0,a4
	call	InsertTailList@plt
	j	.L388
.L387:
	.loc 1 2269 28
	ld	a5,-264(s0)
	.loc 1 2269 35
	sb	zero,24(a5)
	.loc 1 2270 11
	ld	a5,-56(s0)
	addi	a4,a5,256
	.loc 1 2270 85
	ld	a5,-264(s0)
	.loc 1 2270 11
	addi	a5,a5,8
	mv	a1,a5
	mv	a0,a4
	call	InsertTailList@plt
.L388:
	.loc 1 2277 47
	ld	a4,-200(s0)
	ld	a5,-208(s0)
	add	a5,a4,a5
	.loc 1 2277 71
	lbu	a5,1(a5)
	andi	a5,a5,-128
	andi	a5,a5,0xff
	.loc 1 2277 12
	bne	a5,zero,.L459
	.loc 1 2278 34
	li	a5,1
	sb	a5,-118(s0)
	.loc 1 2281 9
	j	.L459
.L287:
	.loc 1 2287 29
	ld	a1,-200(s0)
	ld	a0,-40(s0)
	call	CreateExpression
	mv	a5,a0
	.loc 1 2287 27 discriminator 1
	sd	a5,-264(s0)
	.loc 1 2288 36
	ld	a5,-264(s0)
	.loc 1 2288 18
	addi	a4,a5,26
	.loc 1 2288 45
	ld	a5,-200(s0)
	addi	a5,a5,2
	.loc 1 2288 9
	li	a2,2
	mv	a1,a5
	mv	a0,a4
	call	CopyMem@plt
	.loc 1 2289 26
	ld	a5,-264(s0)
	.loc 1 2289 72
	ld	a4,-200(s0)
	lbu	a4,4(a4)
	.loc 1 2289 36
	sb	a4,72(a5)
	.loc 1 2290 26
	ld	a5,-264(s0)
	.loc 1 2290 33
	li	a4,9
	sb	a4,24(a5)
	.loc 1 2291 9
	ld	a5,-56(s0)
	addi	a4,a5,288
	.loc 1 2291 78
	ld	a5,-264(s0)
	.loc 1 2291 9
	addi	a5,a5,8
	mv	a1,a5
	mv	a0,a4
	call	InsertTailList@plt
	.loc 1 2297 47
	ld	a4,-200(s0)
	ld	a5,-208(s0)
	add	a5,a4,a5
	.loc 1 2297 71
	lbu	a5,1(a5)
	andi	a5,a5,-128
	andi	a5,a5,0xff
	.loc 1 2297 12
	bne	a5,zero,.L460
	.loc 1 2298 34
	li	a5,1
	sb	a5,-118(s0)
	.loc 1 2301 9
	j	.L460
.L316:
	.loc 1 2307 29
	ld	a1,-200(s0)
	ld	a0,-40(s0)
	call	CreateExpression
	mv	a5,a0
	.loc 1 2307 27 discriminator 1
	sd	a5,-264(s0)
	.loc 1 2308 26
	ld	a5,-264(s0)
	.loc 1 2308 33
	li	a4,3
	sb	a4,24(a5)
	.loc 1 2310 12
	ld	a5,-40(s0)
	bne	a5,zero,.L391
	.loc 1 2311 11
	ld	a5,-312(s0)
	addi	a4,a5,296
	.loc 1 2311 75
	ld	a5,-264(s0)
	.loc 1 2311 11
	addi	a5,a5,8
	mv	a1,a5
	mv	a0,a4
	call	InsertTailList@plt
	j	.L392
.L391:
	.loc 1 2313 11
	ld	a5,-40(s0)
	addi	a4,a5,72
	.loc 1 2313 79
	ld	a5,-264(s0)
	.loc 1 2313 11
	addi	a5,a5,8
	mv	a1,a5
	mv	a0,a4
	call	InsertTailList@plt
.L392:
	.loc 1 2316 12
	lbu	a5,-114(s0)
	andi	a5,a5,0xff
	beq	a5,zero,.L393
	.loc 1 2317 11
	ld	a5,-264(s0)
	li	a1,3
	mv	a0,a5
	call	PushConditionalExpression@plt
	j	.L394
.L393:
	.loc 1 2318 19
	lbu	a5,-113(s0)
	andi	a5,a5,0xff
	beq	a5,zero,.L395
	.loc 1 2319 11
	ld	a5,-264(s0)
	li	a1,2
	mv	a0,a5
	call	PushConditionalExpression@plt
	j	.L394
.L395:
	.loc 1 2321 11
	ld	a5,-264(s0)
	li	a1,1
	mv	a0,a5
	call	PushConditionalExpression@plt
.L394:
	.loc 1 2328 47
	ld	a4,-200(s0)
	ld	a5,-208(s0)
	add	a5,a4,a5
	.loc 1 2328 71
	lbu	a5,1(a5)
	andi	a5,a5,-128
	andi	a5,a5,0xff
	.loc 1 2328 12
	bne	a5,zero,.L461
	.loc 1 2329 34
	li	a5,1
	sb	a5,-118(s0)
	.loc 1 2332 9
	j	.L461
.L308:
	.loc 1 2338 29
	ld	a1,-200(s0)
	ld	a0,-40(s0)
	call	CreateExpression
	mv	a5,a0
	.loc 1 2338 27 discriminator 1
	sd	a5,-264(s0)
	.loc 1 2339 26
	ld	a5,-264(s0)
	.loc 1 2339 33
	li	a4,2
	sb	a4,24(a5)
	.loc 1 2340 9
	ld	a5,-40(s0)
	addi	a4,a5,72
	.loc 1 2340 77
	ld	a5,-264(s0)
	.loc 1 2340 9
	addi	a5,a5,8
	mv	a1,a5
	mv	a0,a4
	call	InsertTailList@plt
	.loc 1 2341 9
	ld	a5,-264(s0)
	li	a1,2
	mv	a0,a5
	call	PushConditionalExpression@plt
	.loc 1 2347 47
	ld	a4,-200(s0)
	ld	a5,-208(s0)
	add	a5,a4,a5
	.loc 1 2347 71
	lbu	a5,1(a5)
	andi	a5,a5,-128
	andi	a5,a5,0xff
	.loc 1 2347 12
	bne	a5,zero,.L462
	.loc 1 2348 34
	li	a5,1
	sb	a5,-118(s0)
	.loc 1 2351 9
	j	.L462
.L303:
	.loc 1 2358 29
	li	a0,104
	call	AllocateZeroPool@plt
	mv	a5,a0
	.loc 1 2358 27 discriminator 1
	sd	a5,-264(s0)
	.loc 1 2360 26
	ld	a5,-264(s0)
	.loc 1 2360 38
	li	a4,1347960832
	addi	a4,a4,1350
	sd	a4,0(a5)
	.loc 1 2361 26
	ld	a5,-264(s0)
	.loc 1 2361 33
	li	a4,4
	sb	a4,24(a5)
	.loc 1 2362 47
	ld	a5,-264(s0)
	.loc 1 2362 9
	addi	a5,a5,88
	mv	a0,a5
	call	InitializeListHead@plt
	.loc 1 2364 12
	ld	a5,-40(s0)
	beq	a5,zero,.L398
	.loc 1 2368 11
	ld	a5,-40(s0)
	addi	a4,a5,72
	.loc 1 2368 79
	ld	a5,-264(s0)
	.loc 1 2368 11
	addi	a5,a5,8
	mv	a1,a5
	mv	a0,a4
	call	InsertTailList@plt
	.loc 1 2369 11
	ld	a5,-264(s0)
	li	a1,2
	mv	a0,a5
	call	PushConditionalExpression@plt
.L398:
	.loc 1 2372 24
	sb	zero,-117(s0)
	.loc 1 2373 24
	li	a5,1
	sb	a5,-153(s0)
	.loc 1 2378 47
	ld	a4,-200(s0)
	ld	a5,-208(s0)
	add	a5,a4,a5
	.loc 1 2378 71
	lbu	a5,1(a5)
	andi	a5,a5,-128
	andi	a5,a5,0xff
	.loc 1 2378 12
	bne	a5,zero,.L463
	.loc 1 2379 34
	li	a5,1
	sb	a5,-118(s0)
	.loc 1 2382 9
	j	.L463
.L295:
	.loc 1 2388 29
	ld	a1,-200(s0)
	ld	a0,-40(s0)
	call	CreateExpression
	mv	a5,a0
	.loc 1 2388 27 discriminator 1
	sd	a5,-264(s0)
	.loc 1 2389 26
	ld	a5,-264(s0)
	.loc 1 2389 33
	li	a4,5
	sb	a4,24(a5)
	.loc 1 2390 9
	ld	a5,-40(s0)
	addi	a4,a5,72
	.loc 1 2390 77
	ld	a5,-264(s0)
	.loc 1 2390 9
	addi	a5,a5,8
	mv	a1,a5
	mv	a0,a4
	call	InsertTailList@plt
	.loc 1 2392 12
	lbu	a5,-119(s0)
	andi	a5,a5,0xff
	beq	a5,zero,.L400
	.loc 1 2396 43
	ld	a4,-264(s0)
	ld	a5,-88(s0)
	sd	a4,72(a5)
	j	.L401
.L400:
	.loc 1 2407 44
	ld	a4,-264(s0)
	ld	a5,-56(s0)
	sd	a4,200(a5)
.L401:
	.loc 1 2414 47
	ld	a4,-200(s0)
	ld	a5,-208(s0)
	add	a5,a4,a5
	.loc 1 2414 71
	lbu	a5,1(a5)
	andi	a5,a5,-128
	andi	a5,a5,0xff
	.loc 1 2414 12
	bne	a5,zero,.L464
	.loc 1 2415 34
	li	a5,1
	sb	a5,-118(s0)
	.loc 1 2418 9
	j	.L464
.L309:
	.loc 1 2421 29
	ld	a1,-200(s0)
	ld	a0,-40(s0)
	call	CreateExpression
	mv	a5,a0
	.loc 1 2421 27 discriminator 1
	sd	a5,-264(s0)
	.loc 1 2422 26
	ld	a5,-264(s0)
	.loc 1 2422 33
	li	a4,6
	sb	a4,24(a5)
	.loc 1 2424 26
	ld	a5,-264(s0)
	.loc 1 2424 65
	ld	a4,-200(s0)
	lbu	a4,2(a4)
	.loc 1 2424 35
	sb	a4,25(a5)
	.loc 1 2425 9
	ld	a5,-40(s0)
	addi	a4,a5,72
	.loc 1 2425 77
	ld	a5,-264(s0)
	.loc 1 2425 9
	addi	a5,a5,8
	mv	a1,a5
	mv	a0,a4
	call	InsertTailList@plt
	.loc 1 2431 47
	ld	a4,-200(s0)
	ld	a5,-208(s0)
	add	a5,a4,a5
	.loc 1 2431 71
	lbu	a5,1(a5)
	andi	a5,a5,-128
	andi	a5,a5,0xff
	.loc 1 2431 12
	bne	a5,zero,.L465
	.loc 1 2432 34
	li	a5,1
	sb	a5,-118(s0)
	.loc 1 2435 9
	j	.L465
.L297:
	.loc 1 2438 29
	ld	a1,-200(s0)
	ld	a0,-40(s0)
	call	CreateExpression
	mv	a5,a0
	.loc 1 2438 27 discriminator 1
	sd	a5,-264(s0)
	.loc 1 2439 26
	ld	a5,-264(s0)
	.loc 1 2439 33
	li	a4,7
	sb	a4,24(a5)
	.loc 1 2440 9
	ld	a5,-40(s0)
	addi	a4,a5,72
	.loc 1 2440 77
	ld	a5,-264(s0)
	.loc 1 2440 9
	addi	a5,a5,8
	mv	a1,a5
	mv	a0,a4
	call	InsertTailList@plt
	.loc 1 2448 41
	ld	a4,-264(s0)
	ld	a5,-56(s0)
	sd	a4,312(a5)
	.loc 1 2454 47
	ld	a4,-200(s0)
	ld	a5,-208(s0)
	add	a5,a4,a5
	.loc 1 2454 71
	lbu	a5,1(a5)
	andi	a5,a5,-128
	andi	a5,a5,0xff
	.loc 1 2454 12
	bne	a5,zero,.L466
	.loc 1 2455 34
	li	a5,1
	sb	a5,-118(s0)
	.loc 1 2458 9
	j	.L466
.L296:
	.loc 1 2461 29
	ld	a1,-200(s0)
	ld	a0,-40(s0)
	call	CreateExpression
	mv	a5,a0
	.loc 1 2461 27 discriminator 1
	sd	a5,-264(s0)
	.loc 1 2462 26
	ld	a5,-264(s0)
	.loc 1 2462 33
	li	a4,8
	sb	a4,24(a5)
	.loc 1 2463 9
	ld	a5,-40(s0)
	addi	a4,a5,72
	.loc 1 2463 77
	ld	a5,-264(s0)
	.loc 1 2463 9
	addi	a5,a5,8
	mv	a1,a5
	mv	a0,a4
	call	InsertTailList@plt
	.loc 1 2471 42
	ld	a4,-264(s0)
	ld	a5,-56(s0)
	sd	a4,320(a5)
	.loc 1 2477 47
	ld	a4,-200(s0)
	ld	a5,-208(s0)
	add	a5,a4,a5
	.loc 1 2477 71
	lbu	a5,1(a5)
	andi	a5,a5,-128
	andi	a5,a5,0xff
	.loc 1 2477 12
	bne	a5,zero,.L467
	.loc 1 2478 34
	li	a5,1
	sb	a5,-118(s0)
	.loc 1 2481 9
	j	.L467
.L321:
	.loc 1 2490 9
	addi	a5,s0,-265
	mv	a0,a5
	call	PopScope@plt
	.loc 1 2491 9
	lbu	a5,-265(s0)
	mv	a0,a5
	call	PushScope@plt
	.loc 1 2493 9
	lbu	a5,-265(s0)
	sext.w	a5,a5
	li	a4,93
	beq	a5,a4,.L406
	li	a4,93
	bgt	a5,a4,.L407
	li	a4,14
	beq	a5,a4,.L408
	li	a4,14
	bgt	a5,a4,.L407
	li	a4,1
	beq	a5,a4,.L406
	li	a4,9
	beq	a5,a4,.L409
	j	.L407
.L408:
	.loc 1 2495 21
	ld	a5,-312(s0)
	addi	a5,a5,168
	sd	a5,-112(s0)
	.loc 1 2496 13
	j	.L410
.L406:
	.loc 1 2501 21
	ld	a5,-40(s0)
	addi	a5,a5,30
	sd	a5,-112(s0)
	.loc 1 2502 13
	j	.L410
.L409:
	.loc 1 2506 21
	ld	a5,-96(s0)
	addi	a5,a5,80
	sd	a5,-112(s0)
	.loc 1 2507 13
	j	.L410
.L407:
	.loc 1 2516 21
	ld	a5,-56(s0)
	addi	a5,a5,240
	sd	a5,-112(s0)
	.loc 1 2517 13
	nop
.L410:
	.loc 1 2521 27
	ld	a5,-200(s0)
	addi	a5,a5,2
	.loc 1 2521 9
	li	a2,2
	mv	a1,a5
	ld	a0,-112(s0)
	call	CopyMem@plt
	.loc 1 2522 9
	j	.L327
.L304:
	.loc 1 2529 75
	ld	a5,-200(s0)
	lbu	a4,2(a5)
	.loc 1 2529 42
	ld	a5,-56(s0)
	sb	a4,242(a5)
	.loc 1 2530 9
	j	.L327
.L289:
	.loc 1 2539 9
	addi	a5,s0,-265
	mv	a0,a5
	call	PopScope@plt
	.loc 1 2540 9
	lbu	a5,-265(s0)
	mv	a0,a5
	call	PushScope@plt
	.loc 1 2542 9
	lbu	a5,-265(s0)
	sext.w	a5,a5
	li	a4,1
	beq	a5,a4,.L411
	li	a4,93
	bne	a5,a4,.L412
.L411:
	.loc 1 2546 22
	ld	a5,-40(s0)
	addi	a4,a5,36
	.loc 1 2546 49
	ld	a5,-200(s0)
	addi	a5,a5,2
	.loc 1 2546 13
	li	a2,16
	mv	a1,a5
	mv	a0,a4
	call	CopyMem@plt
	.loc 1 2547 13
	j	.L413
.L412:
	.loc 1 2551 22
	ld	a5,-56(s0)
	addi	a4,a5,180
	.loc 1 2551 53
	ld	a5,-200(s0)
	addi	a5,a5,2
	.loc 1 2551 13
	li	a2,16
	mv	a1,a5
	mv	a0,a4
	call	CopyMem@plt
	.loc 1 2552 13
	nop
.L413:
	.loc 1 2555 9
	j	.L327
.L290:
	.loc 1 2562 32
	ld	a5,-40(s0)
	li	a4,1
	sb	a4,32(a5)
	.loc 1 2563 9
	j	.L327
.L315:
	.loc 1 2572 9
	addi	a5,s0,-265
	mv	a0,a5
	call	PopScope@plt
	.loc 1 2573 9
	lbu	a5,-265(s0)
	mv	a0,a5
	call	PushScope@plt
	.loc 1 2574 9
	lbu	a5,-265(s0)
	sext.w	a5,a5
	li	a4,1
	beq	a5,a4,.L414
	li	a4,93
	bne	a5,a4,.L415
.L414:
	.loc 1 2578 33
	ld	a5,-40(s0)
	li	a4,1
	sb	a4,33(a5)
	.loc 1 2579 13
	nop
	.loc 1 2586 9
	j	.L327
.L415:
	.loc 1 2583 37
	ld	a5,-56(s0)
	li	a4,1
	sb	a4,196(a5)
	.loc 1 2586 9
	j	.L327
.L291:
	.loc 1 2592 28
	ld	a2,-40(s0)
	ld	a1,-312(s0)
	ld	a0,-200(s0)
	call	CreateStatement
	sd	a0,-48(s0)
	.loc 1 2593 50
	ld	a5,-200(s0)
	addi	a5,a5,2
	.loc 1 2593 13
	la	a1,gEdkiiIfrBitVarstoreGuid
	mv	a0,a5
	call	CompareGuid@plt
	mv	a5,a0
	.loc 1 2593 12 discriminator 1
	beq	a5,zero,.L468
	.loc 1 2594 17
	sb	zero,-57(s0)
	.loc 1 2595 33
	li	a5,1
	sb	a5,-178(s0)
	.loc 1 2598 9
	j	.L468
.L298:
	.loc 1 2604 31
	sb	zero,-178(s0)
	.loc 1 2605 18
	addi	a5,s0,-265
	mv	a0,a5
	call	PopScope@plt
	sd	a0,-232(s0)
	.loc 1 2606 40
	ld	a5,-232(s0)
	.loc 1 2606 12
	bge	a5,zero,.L418
	.loc 1 2607 11
	call	ResetScopeStack@plt
	.loc 1 2608 18
	ld	a5,-232(s0)
	j	.L441
.L418:
	.loc 1 2614 13
	lbu	a5,-265(s0)
	mv	a0,a5
	call	IsStatementOpCode
	mv	a5,a0
	.loc 1 2614 12 discriminator 1
	beq	a5,zero,.L419
	.loc 1 2614 45 discriminator 2
	ld	a5,-56(s0)
	beq	a5,zero,.L419
	.loc 1 2614 101 discriminator 3
	ld	a5,-56(s0)
	lbu	a4,24(a5)
	.loc 1 2614 111 discriminator 3
	lbu	a5,-265(s0)
	.loc 1 2614 82 discriminator 3
	bne	a4,a5,.L419
	.loc 1 2615 27
	ld	a5,-56(s0)
	ld	a5,248(a5)
	sd	a5,-56(s0)
.L419:
	.loc 1 2618 9
	lbu	a5,-265(s0)
	sext.w	a5,a5
	li	a4,99
	beq	a5,a4,.L469
	li	a4,99
	bgt	a5,a4,.L421
	li	a4,93
	beq	a5,a4,.L422
	li	a4,93
	bgt	a5,a4,.L421
	li	a4,91
	beq	a5,a4,.L423
	li	a4,91
	bgt	a5,a4,.L421
	li	a4,35
	beq	a5,a4,.L424
	li	a4,35
	bgt	a5,a4,.L421
	li	a4,34
	beq	a5,a4,.L425
	li	a4,34
	bgt	a5,a4,.L421
	li	a4,30
	beq	a5,a4,.L426
	li	a4,30
	bgt	a5,a4,.L421
	li	a4,25
	beq	a5,a4,.L427
	li	a4,25
	bgt	a5,a4,.L421
	li	a4,17
	bgt	a5,a4,.L421
	li	a4,16
	bge	a5,a4,.L469
	li	a4,14
	beq	a5,a4,.L428
	li	a4,14
	bgt	a5,a4,.L421
	li	a4,10
	beq	a5,a4,.L429
	li	a4,10
	bgt	a5,a4,.L421
	li	a4,9
	beq	a5,a4,.L430
	li	a4,9
	bgt	a5,a4,.L421
	li	a4,1
	beq	a5,a4,.L422
	li	a4,5
	beq	a5,a4,.L424
	j	.L421
.L428:
	.loc 1 2624 38
	ld	a5,-312(s0)
	ld	a4,-72(s0)
	sd	a4,72(a5)
	.loc 1 2625 13
	j	.L431
.L422:
	.loc 1 2632 25
	sd	zero,-40(s0)
	.loc 1 2633 33
	sb	zero,-113(s0)
	.loc 1 2634 13
	j	.L431
.L430:
	.loc 1 2640 27
	sd	zero,-96(s0)
	.loc 1 2641 13
	j	.L431
.L429:
	.loc 1 2652 16
	lbu	a5,-114(s0)
	andi	a5,a5,0xff
	beq	a5,zero,.L432
	.loc 1 2653 15
	li	a0,3
	call	PopConditionalExpression@plt
	.loc 1 2660 13
	j	.L431
.L432:
	.loc 1 2654 23
	lbu	a5,-113(s0)
	andi	a5,a5,0xff
	beq	a5,zero,.L434
	.loc 1 2655 15
	li	a0,2
	call	PopConditionalExpression@plt
	.loc 1 2660 13
	j	.L431
.L434:
	.loc 1 2657 15
	li	a0,1
	call	PopConditionalExpression@plt
	.loc 1 2660 13
	j	.L431
.L427:
	.loc 1 2663 13
	li	a0,2
	call	PopConditionalExpression@plt
	.loc 1 2664 13
	j	.L431
.L426:
	.loc 1 2667 16
	ld	a5,-40(s0)
	beq	a5,zero,.L435
	.loc 1 2668 15
	li	a0,2
	call	PopConditionalExpression@plt
.L435:
	.loc 1 2671 28
	sb	zero,-153(s0)
	.loc 1 2672 28
	sb	zero,-117(s0)
	.loc 1 2673 13
	j	.L431
.L424:
	.loc 1 2677 31
	sb	zero,-114(s0)
	.loc 1 2678 13
	j	.L431
.L423:
	.loc 1 2681 28
	sb	zero,-119(s0)
	.loc 1 2682 13
	j	.L431
.L425:
	.loc 1 2688 22
	addi	a5,s0,-296
	mv	a0,a5
	call	PopMapExpressionList@plt
	sd	a0,-232(s0)
	.loc 1 2689 16
	ld	a4,-232(s0)
	li	a5,-1
	slli	a5,a5,63
	addi	a5,a5,15
	bne	a4,a5,.L436
	.loc 1 2690 33
	sd	zero,-296(s0)
.L436:
	.loc 1 2696 22
	addi	a5,s0,-264
	mv	a0,a5
	call	PopCurrentExpression@plt
	sd	a0,-232(s0)
	.loc 1 2699 26
	lbu	a5,-129(s0)
	addiw	a5,a5,-1
	sb	a5,-129(s0)
	.loc 1 2700 13
	j	.L431
.L421:
	.loc 1 2703 17
	lbu	a5,-265(s0)
	mv	a0,a5
	call	IsExpressionOpCode
	mv	a5,a0
	.loc 1 2703 16 discriminator 1
	beq	a5,zero,.L470
	.loc 1 2704 18
	lbu	a5,-153(s0)
	andi	a5,a5,0xff
	beq	a5,zero,.L438
	.loc 1 2704 34 discriminator 1
	ld	a5,-40(s0)
	bne	a5,zero,.L438
	.loc 1 2709 26
	ld	a5,-264(s0)
	mv	a2,a5
	ld	a1,-40(s0)
	ld	a0,-312(s0)
	call	EvaluateExpression@plt
	sd	a0,-232(s0)
	.loc 1 2710 48
	ld	a5,-232(s0)
	.loc 1 2710 20
	bge	a5,zero,.L439
	.loc 1 2711 26
	ld	a5,-232(s0)
	j	.L441
.L439:
	.loc 1 2714 60
	ld	a5,-264(s0)
	.loc 1 2714 34
	addi	a5,a5,32
	mv	a0,a5
	call	IsTrue@plt
	mv	a5,a0
	sb	a5,-117(s0)
	.loc 1 2719 17
	ld	a5,-264(s0)
	mv	a0,a5
	call	DestroyExpression
.L438:
	.loc 1 2725 33
	sd	zero,-264(s0)
	.loc 1 2728 13
	j	.L470
.L469:
	.loc 1 2649 13
	nop
	j	.L327
.L470:
	.loc 1 2728 13
	nop
.L431:
	.loc 1 2731 9
	j	.L327
.L449:
	.loc 1 2734 9
	nop
	j	.L327
.L450:
	.loc 1 1632 9
	nop
	j	.L327
.L451:
	.loc 1 1816 9
	nop
	j	.L327
.L454:
	.loc 1 1990 9
	nop
	j	.L327
.L455:
	.loc 1 2006 9
	nop
	j	.L327
.L456:
	.loc 1 2146 9
	nop
	j	.L327
.L457:
	.loc 1 2252 9
	nop
	j	.L327
.L459:
	.loc 1 2281 9
	nop
	j	.L327
.L460:
	.loc 1 2301 9
	nop
	j	.L327
.L461:
	.loc 1 2332 9
	nop
	j	.L327
.L462:
	.loc 1 2351 9
	nop
	j	.L327
.L463:
	.loc 1 2382 9
	nop
	j	.L327
.L464:
	.loc 1 2418 9
	nop
	j	.L327
.L465:
	.loc 1 2435 9
	nop
	j	.L327
.L466:
	.loc 1 2458 9
	nop
	j	.L327
.L467:
	.loc 1 2481 9
	nop
	j	.L327
.L468:
	.loc 1 2598 9
	nop
.L327:
	.loc 1 2737 9
	lbu	a5,-209(s0)
	mv	a0,a5
	call	IsStatementOpCode
	mv	a5,a0
	.loc 1 2737 8 discriminator 1
	beq	a5,zero,.L222
	.loc 1 2738 41
	ld	a5,-48(s0)
	ld	a4,-56(s0)
	sd	a4,248(a5)
	.loc 1 2739 10
	lbu	a5,-57(s0)
	andi	a5,a5,0xff
	beq	a5,zero,.L222
	.loc 1 2744 25
	ld	a5,-48(s0)
	sd	a5,-56(s0)
	j	.L222
.L442:
	.loc 1 1285 7
	nop
	j	.L222
.L443:
	.loc 1 1294 7
	nop
	j	.L222
.L444:
	.loc 1 1327 7
	nop
	j	.L222
.L448:
	.loc 1 1605 7
	nop
.L222:
	.loc 1 1264 32
	ld	a5,-312(s0)
	ld	a5,72(a5)
	.loc 1 1264 23
	ld	a4,-72(s0)
	bltu	a4,a5,.L440
	.loc 1 2749 10
	li	a5,0
.L441:
	.loc 1 2750 1
	mv	a0,a5
	ld	ra,312(sp)
	.cfi_restore 1
	ld	s0,304(sp)
	.cfi_restore 8
	.cfi_def_cfa 2, 320
	ld	s1,296(sp)
	.cfi_restore 9
	addi	sp,sp,320
	.cfi_def_cfa_offset 0
	jr	ra
	.cfi_endproc
.LFE19:
	.size	ParseOpCodes, .-ParseOpCodes
	.text
.Letext0:
	.file 2 "/home/kapoagaeming/Downloads/spacemit-image-builder/components/edk2/MdePkg/Include/RiscV64/ProcessorBind.h"
	.file 3 "/home/kapoagaeming/Downloads/spacemit-image-builder/components/edk2/MdePkg/Include/Base.h"
	.file 4 "/home/kapoagaeming/Downloads/spacemit-image-builder/components/edk2/MdePkg/Include/Uefi/UefiBaseType.h"
	.file 5 "/home/kapoagaeming/Downloads/spacemit-image-builder/components/edk2/MdePkg/Include/Protocol/DevicePath.h"
	.file 6 "/home/kapoagaeming/Downloads/spacemit-image-builder/components/edk2/MdePkg/Include/Uefi/UefiInternalFormRepresentation.h"
	.file 7 "/home/kapoagaeming/Downloads/spacemit-image-builder/components/edk2/MdePkg/Include/Guid/HiiFormMapMethodGuid.h"
	.file 8 "/home/kapoagaeming/Downloads/spacemit-image-builder/components/Build/Milk-V-Jupiter/RELEASE_GCC5/RISCV64/MdeModulePkg/Universal/SetupBrowserDxe/SetupBrowserDxe/DEBUG/AutoGen.h"
	.file 9 "/home/kapoagaeming/Downloads/spacemit-image-builder/components/edk2/MdePkg/Include/Protocol/FormBrowser2.h"
	.file 10 "/home/kapoagaeming/Downloads/spacemit-image-builder/components/edk2/MdeModulePkg/Include/Protocol/DisplayProtocol.h"
	.file 11 "/home/kapoagaeming/Downloads/spacemit-image-builder/components/edk2/MdePkg/Include/Protocol/HiiConfigAccess.h"
	.file 12 "/home/kapoagaeming/Downloads/spacemit-image-builder/components/edk2/MdeModulePkg/Universal/SetupBrowserDxe/Setup.h"
	.file 13 "/home/kapoagaeming/Downloads/spacemit-image-builder/components/edk2/MdeModulePkg/Universal/SetupBrowserDxe/Expression.h"
	.file 14 "/home/kapoagaeming/Downloads/spacemit-image-builder/components/edk2/MdePkg/Include/Library/BaseMemoryLib.h"
	.file 15 "/home/kapoagaeming/Downloads/spacemit-image-builder/components/edk2/MdePkg/Include/Library/BaseLib.h"
	.file 16 "/home/kapoagaeming/Downloads/spacemit-image-builder/components/edk2/MdePkg/Include/Library/MemoryAllocationLib.h"
	.file 17 "/home/kapoagaeming/Downloads/spacemit-image-builder/components/edk2/MdePkg/Include/Library/PrintLib.h"
	.file 18 "/home/kapoagaeming/Downloads/spacemit-image-builder/components/edk2/MdeModulePkg/Include/Library/HiiLib.h"
	.section	.note.GNU-stack,"",@progbits
