	.file	"Setup.c"
	.option pic
	.option norelax
	.attribute arch, "rv64i2p1_m2p0_a2p1_f2p2_d2p2_c2p0_zicsr2p0_zifencei2p0_zmmul1p0_zaamo1p0_zalrsc1p0_zca1p0_zcd1p0"
	.attribute unaligned_access, 0
	.attribute stack_align, 16
	.text
.Ltext0:
	.cfi_sections	.debug_frame
	.file 0 "/home/kapoagaeming/spacemit-image-builder/components/Build/Milk-V-Jupiter/RELEASE_GCC5/RISCV64/MdeModulePkg/Universal/SetupBrowserDxe/SetupBrowserDxe" "/home/kapoagaeming/spacemit-image-builder/components/edk2/MdeModulePkg/Universal/SetupBrowserDxe/Setup.c"
	.globl	mPrivateData
	.section	.data.rel.local.mPrivateData,"aw"
	.align	3
	.type	mPrivateData, @object
	.size	mPrivateData, 152
mPrivateData:
	.word	1447313990
	.zero	4
	.dword	0
	.dword	SendForm
	.dword	BrowserCallback
	.dword	SetScope
	.dword	RegisterHotKey
	.dword	RegiserExitHandler
	.dword	SaveReminder
	.word	65537
	.zero	4
	.dword	SetScope
	.dword	RegisterHotKey
	.dword	RegiserExitHandler
	.dword	IsBrowserDataModified
	.dword	ExecuteAction
	.dword	0
	.dword	0
	.dword	0
	.dword	0
	.dword	IsResetRequired
	.globl	mHiiDatabase
	.section	.bss.mHiiDatabase,"aw",@nobits
	.align	3
	.type	mHiiDatabase, @object
	.size	mHiiDatabase, 8
mHiiDatabase:
	.zero	8
	.globl	mHiiConfigRouting
	.section	.bss.mHiiConfigRouting,"aw",@nobits
	.align	3
	.type	mHiiConfigRouting, @object
	.size	mHiiConfigRouting, 8
mHiiConfigRouting:
	.zero	8
	.globl	mPathFromText
	.section	.bss.mPathFromText,"aw",@nobits
	.align	3
	.type	mPathFromText, @object
	.size	mPathFromText, 8
mPathFromText:
	.zero	8
	.globl	mFormDisplay
	.section	.bss.mFormDisplay,"aw",@nobits
	.align	3
	.type	mFormDisplay, @object
	.size	mFormDisplay, 8
mFormDisplay:
	.zero	8
	.globl	gBrowserContextCount
	.section	.bss.gBrowserContextCount,"aw",@nobits
	.align	3
	.type	gBrowserContextCount, @object
	.size	gBrowserContextCount, 8
gBrowserContextCount:
	.zero	8
	.globl	gBrowserContextList
	.section	.data.rel.local.gBrowserContextList,"aw"
	.align	3
	.type	gBrowserContextList, @object
	.size	gBrowserContextList, 16
gBrowserContextList:
	.dword	gBrowserContextList
	.dword	gBrowserContextList
	.globl	gBrowserFormSetList
	.section	.data.rel.local.gBrowserFormSetList,"aw"
	.align	3
	.type	gBrowserFormSetList, @object
	.size	gBrowserFormSetList, 16
gBrowserFormSetList:
	.dword	gBrowserFormSetList
	.dword	gBrowserFormSetList
	.globl	gBrowserHotKeyList
	.section	.data.rel.local.gBrowserHotKeyList,"aw"
	.align	3
	.type	gBrowserHotKeyList, @object
	.size	gBrowserHotKeyList, 16
gBrowserHotKeyList:
	.dword	gBrowserHotKeyList
	.dword	gBrowserHotKeyList
	.globl	gBrowserStorageList
	.section	.data.rel.local.gBrowserStorageList,"aw"
	.align	3
	.type	gBrowserStorageList, @object
	.size	gBrowserStorageList, 16
gBrowserStorageList:
	.dword	gBrowserStorageList
	.dword	gBrowserStorageList
	.globl	gBrowserSaveFailFormSetList
	.section	.data.rel.local.gBrowserSaveFailFormSetList,"aw"
	.align	3
	.type	gBrowserSaveFailFormSetList, @object
	.size	gBrowserSaveFailFormSetList, 16
gBrowserSaveFailFormSetList:
	.dword	gBrowserSaveFailFormSetList
	.dword	gBrowserSaveFailFormSetList
	.globl	mSystemSubmit
	.section	.bss.mSystemSubmit,"aw",@nobits
	.type	mSystemSubmit, @object
	.size	mSystemSubmit, 1
mSystemSubmit:
	.zero	1
	.globl	gResetRequiredFormLevel
	.section	.bss.gResetRequiredFormLevel,"aw",@nobits
	.type	gResetRequiredFormLevel, @object
	.size	gResetRequiredFormLevel, 1
gResetRequiredFormLevel:
	.zero	1
	.globl	gResetRequiredSystemLevel
	.section	.bss.gResetRequiredSystemLevel,"aw",@nobits
	.type	gResetRequiredSystemLevel, @object
	.size	gResetRequiredSystemLevel, 1
gResetRequiredSystemLevel:
	.zero	1
	.globl	gExitRequired
	.section	.bss.gExitRequired,"aw",@nobits
	.type	gExitRequired, @object
	.size	gExitRequired, 1
gExitRequired:
	.zero	1
	.globl	gFlagReconnect
	.section	.bss.gFlagReconnect,"aw",@nobits
	.type	gFlagReconnect, @object
	.size	gFlagReconnect, 1
gFlagReconnect:
	.zero	1
	.globl	gCallbackReconnect
	.section	.bss.gCallbackReconnect,"aw",@nobits
	.type	gCallbackReconnect, @object
	.size	gCallbackReconnect, 1
gCallbackReconnect:
	.zero	1
	.globl	gBrowserSettingScope
	.section	.data.gBrowserSettingScope,"aw"
	.align	2
	.type	gBrowserSettingScope, @object
	.size	gBrowserSettingScope, 4
gBrowserSettingScope:
	.word	1
	.globl	mBrowserScopeFirstSet
	.section	.data.mBrowserScopeFirstSet,"aw"
	.type	mBrowserScopeFirstSet, @object
	.size	mBrowserScopeFirstSet, 1
mBrowserScopeFirstSet:
	.byte	1
	.globl	ExitHandlerFunction
	.section	.bss.ExitHandlerFunction,"aw",@nobits
	.align	3
	.type	ExitHandlerFunction, @object
	.size	ExitHandlerFunction, 8
ExitHandlerFunction:
	.zero	8
	.globl	mSystemLevelFormSet
	.section	.bss.mSystemLevelFormSet,"aw",@nobits
	.align	3
	.type	mSystemLevelFormSet, @object
	.size	mSystemLevelFormSet, 8
mSystemLevelFormSet:
	.zero	8
	.globl	gEmptyString
	.section	.bss.gEmptyString,"aw",@nobits
	.align	3
	.type	gEmptyString, @object
	.size	gEmptyString, 8
gEmptyString:
	.zero	8
	.globl	mUnknownString
	.section	.rodata
	.align	3
.LC0:
	.string	"!"
	.zero	2
	.section	.data.rel.local.mUnknownString,"aw"
	.align	3
	.type	mUnknownString, @object
	.size	mUnknownString, 8
mUnknownString:
	.dword	.LC0
	.section	.text.UiAddMenuList,"ax",@progbits
	.align	1
	.globl	UiAddMenuList
	.type	UiAddMenuList, @function
UiAddMenuList:
.LFB0:
	.file 1 "/home/kapoagaeming/spacemit-image-builder/components/edk2/MdeModulePkg/Universal/SetupBrowserDxe/Setup.c"
	.loc 1 91 1
	.cfi_startproc
	addi	sp,sp,-64
	.cfi_def_cfa_offset 64
	sd	ra,56(sp)
	sd	s0,48(sp)
	.cfi_offset 1, -8
	.cfi_offset 8, -16
	addi	s0,sp,64
	.cfi_def_cfa 8, 0
	sd	a0,-40(s0)
	sd	a1,-48(s0)
	mv	a5,a2
	mv	a4,a3
	sh	a5,-50(s0)
	mv	a5,a4
	sh	a5,-52(s0)
	.loc 1 94 14
	li	a0,56
	call	AllocateZeroPool@plt
	sd	a0,-24(s0)
	.loc 1 95 6
	ld	a5,-24(s0)
	bne	a5,zero,.L2
	.loc 1 96 12
	li	a5,0
	j	.L3
.L2:
	.loc 1 99 23
	ld	a5,-24(s0)
	li	a4,1936285696
	addi	a4,a4,1382
	sd	a4,0(a5)
	.loc 1 101 23
	ld	a5,-24(s0)
	ld	a4,-40(s0)
	sd	a4,24(a5)
	.loc 1 102 12
	ld	a5,-24(s0)
	addi	a5,a5,32
	.loc 1 102 3
	li	a2,16
	ld	a1,-48(s0)
	mv	a0,a5
	call	CopyMem@plt
	.loc 1 103 20
	ld	a5,-24(s0)
	lhu	a4,-50(s0)
	sh	a4,48(a5)
	.loc 1 104 24
	ld	a5,-24(s0)
	lhu	a4,-52(s0)
	sh	a4,50(a5)
	.loc 1 109 3
	ld	a5,-24(s0)
	addi	a5,a5,8
	mv	a1,a5
	lla	a0,mPrivateData+112
	call	InsertTailList@plt
	.loc 1 111 10
	ld	a5,-24(s0)
.L3:
	.loc 1 112 1
	mv	a0,a5
	ld	ra,56(sp)
	.cfi_restore 1
	ld	s0,48(sp)
	.cfi_restore 8
	.cfi_def_cfa 2, 64
	addi	sp,sp,64
	.cfi_def_cfa_offset 0
	jr	ra
	.cfi_endproc
.LFE0:
	.size	UiAddMenuList, .-UiAddMenuList
	.section	.text.GetFirstFormId,"ax",@progbits
	.align	1
	.globl	GetFirstFormId
	.type	GetFirstFormId, @function
GetFirstFormId:
.LFB1:
	.loc 1 128 1
	.cfi_startproc
	addi	sp,sp,-48
	.cfi_def_cfa_offset 48
	sd	ra,40(sp)
	sd	s0,32(sp)
	.cfi_offset 1, -8
	.cfi_offset 8, -16
	addi	s0,sp,48
	.cfi_def_cfa 8, 0
	sd	a0,-40(s0)
	sd	a1,-48(s0)
	.loc 1 132 42
	la	a5,gCurrentSelection
	ld	a5,0(a5)
	ld	a5,88(a5)
	.loc 1 132 24
	addi	a5,a5,280
	.loc 1 132 10
	mv	a0,a5
	call	GetFirstNode@plt
	sd	a0,-32(s0)
	.loc 1 133 12
	ld	a5,-32(s0)
	addi	a5,a5,-8
	.loc 1 133 118
	ld	a4,0(a5)
	.loc 1 133 203
	li	a5,1297235968
	addi	a5,a5,1606
	bne	a4,a5,.L5
	.loc 1 133 8 discriminator 1
	ld	a5,-32(s0)
	addi	a5,a5,-8
	sd	a5,-24(s0)
	j	.L6
.L5:
	.loc 1 133 8 is_stmt 0 discriminator 2
	sd	zero,-24(s0)
.L6:
	.loc 1 135 14 is_stmt 1
	ld	a5,-24(s0)
	lhu	a5,24(a5)
	.loc 1 136 1
	mv	a0,a5
	ld	ra,40(sp)
	.cfi_restore 1
	ld	s0,32(sp)
	.cfi_restore 8
	.cfi_def_cfa 2, 48
	addi	sp,sp,48
	.cfi_def_cfa_offset 0
	jr	ra
	.cfi_endproc
.LFE1:
	.size	GetFirstFormId, .-GetFirstFormId
	.section	.text.UiFindMenuList,"ax",@progbits
	.align	1
	.globl	UiFindMenuList
	.type	UiFindMenuList, @function
UiFindMenuList:
.LFB2:
	.loc 1 154 1
	.cfi_startproc
	addi	sp,sp,-80
	.cfi_def_cfa_offset 80
	sd	ra,72(sp)
	sd	s0,64(sp)
	.cfi_offset 1, -8
	.cfi_offset 8, -16
	addi	s0,sp,80
	.cfi_def_cfa 8, 0
	sd	a0,-56(s0)
	sd	a1,-64(s0)
	mv	a5,a2
	sh	a5,-66(s0)
	.loc 1 160 11
	sd	zero,-40(s0)
	.loc 1 162 10
	lla	a0,mPrivateData+112
	call	GetFirstNode@plt
	sd	a0,-24(s0)
	.loc 1 163 9
	j	.L9
.L19:
	.loc 1 164 18
	ld	a5,-24(s0)
	addi	a5,a5,-8
	.loc 1 164 120
	ld	a4,0(a5)
	.loc 1 164 205
	li	a5,1936285696
	addi	a5,a5,1382
	bne	a4,a5,.L10
	.loc 1 164 14 discriminator 1
	ld	a5,-24(s0)
	addi	a5,a5,-8
	sd	a5,-32(s0)
	j	.L11
.L10:
	.loc 1 164 14 is_stmt 0 discriminator 2
	sd	zero,-32(s0)
.L11:
	.loc 1 165 12 is_stmt 1
	ld	a1,-24(s0)
	lla	a0,mPrivateData+112
	call	GetNextNode@plt
	sd	a0,-24(s0)
	.loc 1 170 8
	ld	a5,-40(s0)
	beq	a5,zero,.L12
	.loc 1 171 24
	ld	a5,-32(s0)
	addi	a5,a5,8
	.loc 1 171 7
	mv	a0,a5
	call	RemoveEntryList@plt
	.loc 1 172 7
	ld	a0,-32(s0)
	call	FreePool@plt
	.loc 1 173 7
	j	.L9
.L12:
	.loc 1 179 17
	ld	a5,-32(s0)
	ld	a5,24(a5)
	.loc 1 179 8
	ld	a4,-56(s0)
	bne	a4,a5,.L9
	.loc 1 180 23
	ld	a5,-32(s0)
	addi	a5,a5,32
	.loc 1 180 11
	mv	a0,a5
	call	IsZeroGuid@plt
	mv	a5,a0
	.loc 1 180 10 discriminator 1
	beq	a5,zero,.L14
	.loc 1 184 17
	ld	a5,-32(s0)
	sd	a5,-40(s0)
	j	.L9
.L14:
	.loc 1 185 31
	ld	a5,-32(s0)
	addi	a5,a5,32
	.loc 1 185 18
	ld	a1,-64(s0)
	mv	a0,a5
	call	CompareGuid@plt
	mv	a5,a0
	.loc 1 185 17 discriminator 1
	beq	a5,zero,.L9
	.loc 1 186 21
	ld	a5,-32(s0)
	lhu	a5,48(a5)
	.loc 1 186 12
	lhu	a4,-66(s0)
	sext.w	a4,a4
	sext.w	a5,a5
	bne	a4,a5,.L15
	.loc 1 187 19
	ld	a5,-32(s0)
	sd	a5,-40(s0)
	j	.L9
.L15:
	.loc 1 188 19
	lhu	a5,-66(s0)
	sext.w	a5,a5
	beq	a5,zero,.L16
	.loc 1 188 46 discriminator 1
	ld	a5,-32(s0)
	lhu	a5,48(a5)
	.loc 1 188 34 discriminator 1
	bne	a5,zero,.L9
.L16:
	.loc 1 189 25
	ld	a1,-64(s0)
	ld	a0,-56(s0)
	call	GetFirstFormId
	mv	a5,a0
	sh	a5,-42(s0)
	.loc 1 190 14
	lhu	a5,-66(s0)
	sext.w	a5,a5
	bne	a5,zero,.L17
	.loc 1 190 57 discriminator 1
	ld	a5,-32(s0)
	lhu	a5,48(a5)
	.loc 1 190 30 discriminator 1
	lhu	a4,-42(s0)
	sext.w	a4,a4
	sext.w	a5,a5
	beq	a4,a5,.L18
.L17:
	.loc 1 190 81 discriminator 3
	ld	a5,-32(s0)
	lhu	a5,48(a5)
	.loc 1 190 68 discriminator 3
	bne	a5,zero,.L9
	.loc 1 190 96 discriminator 4
	lhu	a4,-42(s0)
	lhu	a5,-66(s0)
	sext.w	a4,a4
	sext.w	a5,a5
	bne	a4,a5,.L9
.L18:
	.loc 1 191 21
	ld	a5,-32(s0)
	sd	a5,-40(s0)
.L9:
	.loc 1 163 11
	ld	a1,-24(s0)
	lla	a0,mPrivateData+112
	call	IsNull@plt
	mv	a5,a0
	.loc 1 163 10 discriminator 1
	beq	a5,zero,.L19
	.loc 1 198 10
	ld	a5,-40(s0)
	.loc 1 199 1
	mv	a0,a5
	ld	ra,72(sp)
	.cfi_restore 1
	ld	s0,64(sp)
	.cfi_restore 8
	.cfi_def_cfa 2, 80
	addi	sp,sp,80
	.cfi_def_cfa_offset 0
	jr	ra
	.cfi_endproc
.LFE2:
	.size	UiFindMenuList, .-UiFindMenuList
	.section	.text.UiFindParentMenu,"ax",@progbits
	.align	1
	.globl	UiFindParentMenu
	.type	UiFindParentMenu, @function
UiFindParentMenu:
.LFB3:
	.loc 1 217 1
	.cfi_startproc
	addi	sp,sp,-48
	.cfi_def_cfa_offset 48
	sd	ra,40(sp)
	sd	s0,32(sp)
	.cfi_offset 1, -8
	.cfi_offset 8, -16
	addi	s0,sp,48
	.cfi_def_cfa 8, 0
	sd	a0,-40(s0)
	mv	a5,a1
	sw	a5,-44(s0)
	.loc 1 223 6
	ld	a5,-40(s0)
	bne	a5,zero,.L22
	.loc 1 224 12
	li	a5,0
	j	.L23
.L22:
	.loc 1 227 14
	sd	zero,-24(s0)
	.loc 1 228 8
	ld	a5,-40(s0)
	addi	a5,a5,8
	sd	a5,-32(s0)
	.loc 1 230 9
	j	.L24
.L30:
	.loc 1 231 65
	ld	a5,-32(s0)
	ld	a5,8(a5)
	.loc 1 231 20
	addi	a5,a5,-8
	.loc 1 231 132
	ld	a4,0(a5)
	.loc 1 231 217
	li	a5,1936285696
	addi	a5,a5,1382
	bne	a4,a5,.L25
	.loc 1 231 265 discriminator 1
	ld	a5,-32(s0)
	ld	a5,8(a5)
	.loc 1 231 16 discriminator 1
	addi	a5,a5,-8
	sd	a5,-24(s0)
	j	.L26
.L25:
	.loc 1 231 16 is_stmt 0 discriminator 2
	sd	zero,-24(s0)
.L26:
	.loc 1 233 8 is_stmt 1
	lw	a5,-44(s0)
	sext.w	a5,a5
	beq	a5,zero,.L32
	.loc 1 240 23
	ld	a5,-40(s0)
	addi	a4,a5,32
	.loc 1 240 50
	ld	a5,-24(s0)
	addi	a5,a5,32
	.loc 1 240 10
	mv	a1,a5
	mv	a0,a4
	call	CompareGuid@plt
	mv	a5,a0
	.loc 1 240 8 discriminator 1
	beq	a5,zero,.L33
	.loc 1 247 10
	ld	a5,-32(s0)
	ld	a5,8(a5)
	sd	a5,-32(s0)
.L24:
	.loc 1 230 14
	ld	a5,-32(s0)
	ld	a4,8(a5)
	.loc 1 230 25
	lla	a5,mPrivateData+112
	bne	a4,a5,.L30
	j	.L28
.L32:
	.loc 1 237 7
	nop
	j	.L28
.L33:
	.loc 1 244 7
	nop
.L28:
	.loc 1 253 11
	ld	a5,-32(s0)
	ld	a4,8(a5)
	.loc 1 253 6
	lla	a5,mPrivateData+112
	bne	a4,a5,.L31
	.loc 1 254 12
	li	a5,0
	j	.L23
.L31:
	.loc 1 257 10
	ld	a5,-24(s0)
.L23:
	.loc 1 258 1
	mv	a0,a5
	ld	ra,40(sp)
	.cfi_restore 1
	ld	s0,32(sp)
	.cfi_restore 8
	.cfi_def_cfa 2, 48
	addi	sp,sp,48
	.cfi_def_cfa_offset 0
	jr	ra
	.cfi_endproc
.LFE3:
	.size	UiFindParentMenu, .-UiFindParentMenu
	.section	.text.UiFreeMenuList,"ax",@progbits
	.align	1
	.globl	UiFreeMenuList
	.type	UiFreeMenuList, @function
UiFreeMenuList:
.LFB4:
	.loc 1 270 1
	.cfi_startproc
	addi	sp,sp,-48
	.cfi_def_cfa_offset 48
	sd	ra,40(sp)
	sd	s0,32(sp)
	.cfi_offset 1, -8
	.cfi_offset 8, -16
	addi	s0,sp,48
	.cfi_def_cfa 8, 0
	sd	a0,-40(s0)
	.loc 1 273 9
	j	.L35
.L38:
	.loc 1 274 71
	ld	a5,-40(s0)
	ld	a5,0(a5)
	.loc 1 274 18
	addi	a5,a5,-8
	.loc 1 274 141
	ld	a4,0(a5)
	.loc 1 274 226
	li	a5,1936285696
	addi	a5,a5,1382
	bne	a4,a5,.L36
	.loc 1 274 282 discriminator 1
	ld	a5,-40(s0)
	ld	a5,0(a5)
	.loc 1 274 14 discriminator 1
	addi	a5,a5,-8
	sd	a5,-24(s0)
	j	.L37
.L36:
	.loc 1 274 14 is_stmt 0 discriminator 2
	sd	zero,-24(s0)
.L37:
	.loc 1 275 22 is_stmt 1
	ld	a5,-24(s0)
	addi	a5,a5,8
	.loc 1 275 5
	mv	a0,a5
	call	RemoveEntryList@plt
	.loc 1 277 5
	ld	a0,-24(s0)
	call	FreePool@plt
.L35:
	.loc 1 273 11
	ld	a0,-40(s0)
	call	IsListEmpty@plt
	mv	a5,a0
	.loc 1 273 10 discriminator 1
	beq	a5,zero,.L38
	.loc 1 279 1
	nop
	nop
	ld	ra,40(sp)
	.cfi_restore 1
	ld	s0,32(sp)
	.cfi_restore 8
	.cfi_def_cfa 2, 48
	addi	sp,sp,48
	.cfi_def_cfa_offset 0
	jr	ra
	.cfi_endproc
.LFE4:
	.size	UiFreeMenuList, .-UiFreeMenuList
	.section	.text.UiCopyMenuList,"ax",@progbits
	.align	1
	.globl	UiCopyMenuList
	.type	UiCopyMenuList, @function
UiCopyMenuList:
.LFB5:
	.loc 1 293 1
	.cfi_startproc
	addi	sp,sp,-64
	.cfi_def_cfa_offset 64
	sd	ra,56(sp)
	sd	s0,48(sp)
	.cfi_offset 1, -8
	.cfi_offset 8, -16
	addi	s0,sp,64
	.cfi_def_cfa 8, 0
	sd	a0,-56(s0)
	sd	a1,-64(s0)
	.loc 1 301 3
	ld	a0,-56(s0)
	call	UiFreeMenuList
	.loc 1 303 10
	ld	a0,-64(s0)
	call	GetFirstNode@plt
	sd	a0,-24(s0)
	.loc 1 304 9
	j	.L40
.L43:
	.loc 1 305 18
	ld	a5,-24(s0)
	addi	a5,a5,-8
	.loc 1 305 120
	ld	a4,0(a5)
	.loc 1 305 205
	li	a5,1936285696
	addi	a5,a5,1382
	bne	a4,a5,.L41
	.loc 1 305 14 discriminator 1
	ld	a5,-24(s0)
	addi	a5,a5,-8
	sd	a5,-32(s0)
	j	.L42
.L41:
	.loc 1 305 14 is_stmt 0 discriminator 2
	sd	zero,-32(s0)
.L42:
	.loc 1 306 12 is_stmt 1
	ld	a1,-24(s0)
	ld	a0,-64(s0)
	call	GetNextNode@plt
	sd	a0,-24(s0)
	.loc 1 308 20
	li	a0,56
	call	AllocateZeroPool@plt
	sd	a0,-40(s0)
	.loc 1 310 29
	ld	a5,-40(s0)
	li	a4,1936285696
	addi	a4,a4,1382
	sd	a4,0(a5)
	.loc 1 311 39
	ld	a5,-32(s0)
	ld	a4,24(a5)
	.loc 1 311 29
	ld	a5,-40(s0)
	sd	a4,24(a5)
	.loc 1 312 14
	ld	a5,-40(s0)
	addi	a4,a5,32
	.loc 1 312 42
	ld	a5,-32(s0)
	addi	a5,a5,32
	.loc 1 312 5
	li	a2,16
	mv	a1,a5
	mv	a0,a4
	call	CopyMem@plt
	.loc 1 313 36
	ld	a5,-32(s0)
	lhu	a4,48(a5)
	.loc 1 313 26
	ld	a5,-40(s0)
	sh	a4,48(a5)
	.loc 1 314 40
	ld	a5,-32(s0)
	lhu	a4,50(a5)
	.loc 1 314 30
	ld	a5,-40(s0)
	sh	a4,50(a5)
	.loc 1 316 5
	ld	a5,-40(s0)
	addi	a5,a5,8
	mv	a1,a5
	ld	a0,-56(s0)
	call	InsertTailList@plt
.L40:
	.loc 1 304 11
	ld	a1,-24(s0)
	ld	a0,-64(s0)
	call	IsNull@plt
	mv	a5,a0
	.loc 1 304 10 discriminator 1
	beq	a5,zero,.L43
	.loc 1 318 1
	nop
	nop
	ld	ra,56(sp)
	.cfi_restore 1
	ld	s0,48(sp)
	.cfi_restore 8
	.cfi_def_cfa 2, 64
	addi	sp,sp,64
	.cfi_def_cfa_offset 0
	jr	ra
	.cfi_endproc
.LFE5:
	.size	UiCopyMenuList, .-UiCopyMenuList
	.section	.text.LoadAllHiiFormset,"ax",@progbits
	.align	1
	.globl	LoadAllHiiFormset
	.type	LoadAllHiiFormset, @function
LoadAllHiiFormset:
.LFB6:
	.loc 1 328 1
	.cfi_startproc
	addi	sp,sp,-80
	.cfi_def_cfa_offset 80
	sd	ra,72(sp)
	sd	s0,64(sp)
	.cfi_offset 1, -8
	.cfi_offset 8, -16
	addi	s0,sp,80
	.cfi_def_cfa 8, 0
	.loc 1 336 14
	lla	a5,mSystemLevelFormSet
	ld	a5,0(a5)
	sd	a5,-32(s0)
	.loc 1 341 16
	li	a0,0
	call	HiiGetHiiHandles@plt
	sd	a0,-40(s0)
	.loc 1 347 14
	sd	zero,-24(s0)
	.loc 1 347 3
	j	.L45
.L50:
	.loc 1 351 44
	ld	a5,-24(s0)
	slli	a5,a5,3
	ld	a4,-40(s0)
	add	a5,a4,a5
	.loc 1 351 9
	ld	a5,0(a5)
	mv	a0,a5
	call	GetFormSetFromHiiHandle
	mv	a5,a0
	.loc 1 351 8 discriminator 1
	bne	a5,zero,.L51
	.loc 1 358 20
	li	a0,312
	call	AllocateZeroPool@plt
	sd	a0,-48(s0)
	.loc 1 360 25
	lla	a5,mSystemLevelFormSet
	ld	a4,-48(s0)
	sd	a4,0(a5)
	.loc 1 362 5
	addi	a5,s0,-72
	li	a1,16
	mv	a0,a5
	call	ZeroMem@plt
	.loc 1 363 43
	ld	a5,-24(s0)
	slli	a5,a5,3
	ld	a4,-40(s0)
	add	a5,a4,a5
	.loc 1 363 14
	ld	a5,0(a5)
	addi	a4,s0,-72
	ld	a2,-48(s0)
	mv	a1,a4
	mv	a0,a5
	call	InitializeFormSet
	sd	a0,-56(s0)
	.loc 1 364 36
	ld	a5,-56(s0)
	.loc 1 364 8
	blt	a5,zero,.L48
	.loc 1 364 78 discriminator 2
	ld	a5,-48(s0)
	addi	a5,a5,280
	.loc 1 364 65 discriminator 2
	mv	a0,a5
	call	IsListEmpty@plt
	mv	a5,a0
	.loc 1 364 62 discriminator 3
	beq	a5,zero,.L49
.L48:
	.loc 1 365 7
	ld	a0,-48(s0)
	call	DestroyFormSet@plt
	.loc 1 366 7
	j	.L47
.L49:
	.loc 1 369 5
	ld	a0,-48(s0)
	call	InitializeCurrentSetting
	.loc 1 374 14
	ld	a1,-48(s0)
	li	a0,0
	call	LoadFormSetConfig
	sd	a0,-56(s0)
	.loc 1 375 36
	ld	a5,-56(s0)
	.loc 1 375 8
	bge	a5,zero,.L47
	.loc 1 376 7
	ld	a0,-48(s0)
	call	DestroyFormSet@plt
	.loc 1 377 7
	j	.L47
.L51:
	.loc 1 352 7
	nop
.L47:
	.loc 1 347 59 discriminator 2
	ld	a5,-24(s0)
	addi	a5,a5,1
	sd	a5,-24(s0)
.L45:
	.loc 1 347 29 discriminator 1
	ld	a5,-24(s0)
	slli	a5,a5,3
	ld	a4,-40(s0)
	add	a5,a4,a5
	ld	a5,0(a5)
	.loc 1 347 37 discriminator 1
	bne	a5,zero,.L50
	.loc 1 384 3
	ld	a0,-40(s0)
	call	FreePool@plt
	.loc 1 386 23
	lla	a5,mSystemLevelFormSet
	ld	a4,-32(s0)
	sd	a4,0(a5)
	.loc 1 387 1
	nop
	ld	ra,72(sp)
	.cfi_restore 1
	ld	s0,64(sp)
	.cfi_restore 8
	.cfi_def_cfa 2, 80
	addi	sp,sp,80
	.cfi_def_cfa_offset 0
	jr	ra
	.cfi_endproc
.LFE6:
	.size	LoadAllHiiFormset, .-LoadAllHiiFormset
	.section	.text.PopupErrorMessage,"ax",@progbits
	.align	1
	.globl	PopupErrorMessage
	.type	PopupErrorMessage, @function
PopupErrorMessage:
.LFB7:
	.loc 1 405 1
	.cfi_startproc
	addi	sp,sp,-112
	.cfi_def_cfa_offset 112
	sd	ra,104(sp)
	sd	s0,96(sp)
	.cfi_offset 1, -8
	.cfi_offset 8, -16
	addi	s0,sp,112
	.cfi_def_cfa 8, 0
	mv	a5,a0
	sd	a1,-96(s0)
	sd	a2,-104(s0)
	sd	a3,-112(s0)
	sw	a5,-84(s0)
	.loc 1 409 13
	sd	zero,-24(s0)
	.loc 1 411 6
	ld	a5,-104(s0)
	beq	a5,zero,.L53
	.loc 1 412 17
	li	a0,152
	call	AllocateZeroPool@plt
	sd	a0,-24(s0)
	.loc 1 414 23
	ld	a5,-24(s0)
	ld	a4,-104(s0)
	sd	a4,32(a5)
	.loc 1 415 43
	la	a5,gDisplayFormData
	ld	a4,-24(s0)
	sd	a4,96(a5)
.L53:
	.loc 1 422 32
	la	a5,gDisplayFormData
	ld	a4,-112(s0)
	sd	a4,136(a5)
	.loc 1 423 34
	la	a5,gDisplayFormData
	lw	a4,-84(s0)
	sw	a4,132(a5)
	.loc 1 425 6
	ld	a5,-96(s0)
	beq	a5,zero,.L54
	.loc 1 426 32
	la	a5,gDisplayFormData
	ld	a4,-96(s0)
	sd	a4,72(a5)
.L54:
	.loc 1 429 15
	lla	a5,mFormDisplay
	ld	a5,0(a5)
	ld	a5,0(a5)
	.loc 1 429 3
	addi	a4,s0,-80
	mv	a1,a4
	la	a0,gDisplayFormData
	jalr	a5
.LVL0:
	.loc 1 431 34
	la	a5,gDisplayFormData
	sw	zero,132(a5)
	.loc 1 432 32
	la	a5,gDisplayFormData
	sd	zero,136(a5)
	.loc 1 434 6
	ld	a5,-104(s0)
	beq	a5,zero,.L55
	.loc 1 435 5
	ld	a0,-24(s0)
	call	FreePool@plt
.L55:
	.loc 1 438 23
	lw	a5,-32(s0)
	.loc 1 439 1
	mv	a0,a5
	ld	ra,104(sp)
	.cfi_restore 1
	ld	s0,96(sp)
	.cfi_restore 8
	.cfi_def_cfa 2, 112
	addi	sp,sp,112
	.cfi_def_cfa_offset 0
	jr	ra
	.cfi_endproc
.LFE7:
	.size	PopupErrorMessage, .-PopupErrorMessage
	.section	.rodata
	.align	3
.LC1:
	.zero	2
	.section	.text.SendForm,"ax",@progbits
	.align	1
	.globl	SendForm
	.type	SendForm, @function
SendForm:
.LFB8:
	.loc 1 477 1
	.cfi_startproc
	addi	sp,sp,-128
	.cfi_def_cfa_offset 128
	sd	ra,120(sp)
	sd	s0,112(sp)
	.cfi_offset 1, -8
	.cfi_offset 8, -16
	addi	s0,sp,128
	.cfi_def_cfa 8, 0
	sd	a0,-72(s0)
	sd	a1,-80(s0)
	sd	a2,-88(s0)
	sd	a3,-96(s0)
	sd	a5,-112(s0)
	sd	a6,-120(s0)
	mv	a5,a4
	sh	a5,-98(s0)
	.loc 1 488 20
	lla	a5,mFormDisplay
	ld	a5,0(a5)
	.loc 1 488 6
	bne	a5,zero,.L58
	.loc 1 490 12
	li	a5,-1
	slli	a5,a5,63
	addi	a5,a5,3
	j	.L59
.L58:
	.loc 1 496 3
	call	SaveBrowserContext
	.loc 1 498 18
	lla	a5,gFlagReconnect
	sb	zero,0(a5)
	.loc 1 499 27
	lla	a5,gResetRequiredFormLevel
	sb	zero,0(a5)
	.loc 1 500 17
	lla	a5,gExitRequired
	sb	zero,0(a5)
	.loc 1 501 22
	lla	a5,gCallbackReconnect
	sb	zero,0(a5)
	.loc 1 502 10
	sd	zero,-24(s0)
	.loc 1 503 16
	lla	a5,gEmptyString
	lla	a4,.LC1
	sd	a4,0(a5)
	.loc 1 504 37
	la	a5,gDisplayFormData
	ld	a4,-112(s0)
	sd	a4,48(a5)
	.loc 1 506 14
	sd	zero,-32(s0)
	.loc 1 506 3
	j	.L60
.L73:
	.loc 1 507 17
	li	a0,128
	call	AllocateZeroPool@plt
	sd	a0,-48(s0)
	.loc 1 510 32
	ld	a5,-32(s0)
	slli	a5,a5,3
	ld	a4,-80(s0)
	add	a5,a4,a5
	ld	a4,0(a5)
	.loc 1 510 23
	ld	a5,-48(s0)
	sd	a4,0(a5)
	.loc 1 511 8
	ld	a5,-96(s0)
	beq	a5,zero,.L61
	.loc 1 512 16
	ld	a5,-48(s0)
	addi	a5,a5,8
	.loc 1 512 7
	li	a2,16
	ld	a1,-96(s0)
	mv	a0,a5
	call	CopyMem@plt
	.loc 1 513 25
	ld	a5,-48(s0)
	lhu	a4,-98(s0)
	sh	a4,24(a5)
	j	.L72
.L61:
	.loc 1 515 16
	ld	a5,-48(s0)
	addi	a5,a5,8
	.loc 1 515 7
	li	a2,16
	la	a1,gEfiHiiPlatformSetupFormsetGuid
	mv	a0,a5
	call	CopyMem@plt
.L72:
	.loc 1 519 17
	li	a0,312
	call	AllocateZeroPool@plt
	sd	a0,-56(s0)
	.loc 1 526 12
	ld	a5,-48(s0)
	ld	a5,0(a5)
	mv	a0,a5
	call	ValidateHiiHandle
	mv	a5,a0
	.loc 1 526 10 discriminator 1
	bne	a5,zero,.L63
	.loc 1 527 9
	li	a1,1
	ld	a0,-48(s0)
	call	FindNextMenu@plt
.L63:
	.loc 1 533 16
	ld	a5,-48(s0)
	ld	a4,0(a5)
	ld	a5,-48(s0)
	addi	a5,a5,8
	ld	a2,-56(s0)
	mv	a1,a5
	mv	a0,a4
	call	InitializeFormSet
	sd	a0,-24(s0)
	.loc 1 534 38
	ld	a5,-24(s0)
	.loc 1 534 10
	blt	a5,zero,.L64
	.loc 1 534 80 discriminator 1
	ld	a5,-56(s0)
	addi	a5,a5,280
	.loc 1 534 67 discriminator 1
	mv	a0,a5
	call	IsListEmpty@plt
	mv	a5,a0
	.loc 1 534 64 discriminator 2
	beq	a5,zero,.L65
.L64:
	.loc 1 535 9
	ld	a0,-56(s0)
	call	DestroyFormSet@plt
	.loc 1 536 9
	j	.L66
.L65:
	.loc 1 539 26
	ld	a5,-48(s0)
	ld	a4,-56(s0)
	sd	a4,88(a5)
	.loc 1 540 27
	lla	a5,mSystemLevelFormSet
	ld	a4,-56(s0)
	sd	a4,0(a5)
	.loc 1 545 25
	la	a5,gCurrentSelection
	ld	a4,-48(s0)
	sd	a4,0(a5)
	.loc 1 547 16
	ld	a0,-48(s0)
	call	SetupBrowser@plt
	sd	a0,-24(s0)
	.loc 1 549 25
	la	a5,gCurrentSelection
	sd	zero,0(a5)
	.loc 1 550 27
	lla	a5,mSystemLevelFormSet
	sd	zero,0(a5)
	.loc 1 555 12
	lla	a5,gFlagReconnect
	lbu	a5,0(a5)
	.loc 1 555 10
	bne	a5,zero,.L67
	.loc 1 555 27 discriminator 2
	lla	a5,gCallbackReconnect
	lbu	a5,0(a5)
	beq	a5,zero,.L68
.L67:
	.loc 1 555 67 discriminator 3
	ld	a5,-56(s0)
	addi	a4,a5,92
	.loc 1 555 83 discriminator 3
	ld	a5,-48(s0)
	addi	a5,a5,8
	.loc 1 555 54 discriminator 3
	mv	a1,a5
	mv	a0,a4
	call	CompareGuid@plt
	mv	a5,a0
	.loc 1 555 50 discriminator 4
	bne	a5,zero,.L68
	.loc 1 556 18
	ld	a5,-56(s0)
	ld	a5,48(a5)
	mv	a0,a5
	call	ReconnectController@plt
	mv	a5,a0
	sb	a5,-57(s0)
	.loc 1 557 12
	lbu	a5,-57(s0)
	andi	a5,a5,0xff
	bne	a5,zero,.L69
	.loc 1 558 11
	li	a3,0
	li	a2,0
	li	a1,0
	li	a5,-2147483648
	addi	a0,a5,10
	call	PopupErrorMessage
.L69:
	.loc 1 561 24
	lla	a5,gFlagReconnect
	sb	zero,0(a5)
	.loc 1 562 28
	lla	a5,gCallbackReconnect
	sb	zero,0(a5)
.L68:
	.loc 1 568 12
	ld	a0,-56(s0)
	call	IsNvUpdateRequiredForFormSet@plt
	mv	a5,a0
	.loc 1 568 10 discriminator 1
	bne	a5,zero,.L70
	.loc 1 569 9
	ld	a0,-56(s0)
	call	CleanBrowserStorage
	.loc 1 570 26
	ld	a5,-56(s0)
	addi	a5,a5,8
	.loc 1 570 9
	mv	a0,a5
	call	RemoveEntryList@plt
	.loc 1 571 9
	ld	a0,-56(s0)
	call	DestroyFormSet@plt
.L70:
	.loc 1 574 38
	ld	a5,-24(s0)
	.loc 1 574 10
	blt	a5,zero,.L79
	.loc 1 577 23
	ld	a5,-48(s0)
	ld	a4,80(a5)
	.loc 1 577 32
	li	a5,2
	beq	a4,a5,.L72
	j	.L66
.L79:
	.loc 1 575 9
	nop
.L66:
	.loc 1 579 5
	ld	a0,-48(s0)
	call	FreePool@plt
	.loc 1 506 45 discriminator 2
	ld	a5,-32(s0)
	addi	a5,a5,1
	sd	a5,-32(s0)
.L60:
	.loc 1 506 25 discriminator 1
	ld	a4,-32(s0)
	ld	a5,-88(s0)
	bltu	a4,a5,.L73
	.loc 1 582 6
	ld	a5,-120(s0)
	beq	a5,zero,.L74
	.loc 1 583 20
	ld	a5,-120(s0)
	sd	zero,0(a5)
	.loc 1 584 9
	lla	a5,gResetRequiredFormLevel
	lbu	a5,0(a5)
	.loc 1 584 8
	beq	a5,zero,.L74
	.loc 1 585 22
	ld	a5,-120(s0)
	li	a4,1
	sd	a4,0(a5)
.L74:
	.loc 1 589 15
	lla	a5,mFormDisplay
	ld	a5,0(a5)
	ld	a5,8(a5)
	.loc 1 589 3
	jalr	a5
.LVL1:
	.loc 1 594 9
	j	.L75
.L78:
	.loc 1 595 106
	lla	a5,mPrivateData
	ld	a5,112(a5)
	.loc 1 595 18
	addi	a5,a5,-8
	.loc 1 595 175
	ld	a4,0(a5)
	.loc 1 595 260
	li	a5,1936285696
	addi	a5,a5,1382
	bne	a4,a5,.L76
	.loc 1 595 351 discriminator 1
	lla	a5,mPrivateData
	ld	a5,112(a5)
	.loc 1 595 14 discriminator 1
	addi	a5,a5,-8
	sd	a5,-40(s0)
	j	.L77
.L76:
	.loc 1 595 14 is_stmt 0 discriminator 2
	sd	zero,-40(s0)
.L77:
	.loc 1 596 22 is_stmt 1
	ld	a5,-40(s0)
	addi	a5,a5,8
	.loc 1 596 5
	mv	a0,a5
	call	RemoveEntryList@plt
	.loc 1 597 5
	ld	a0,-40(s0)
	call	FreePool@plt
.L75:
	.loc 1 594 11
	lla	a0,mPrivateData+112
	call	IsListEmpty@plt
	mv	a5,a0
	.loc 1 594 10 discriminator 1
	beq	a5,zero,.L78
	.loc 1 603 3
	call	RestoreBrowserContext
	.loc 1 605 10
	ld	a5,-24(s0)
.L59:
	.loc 1 606 1
	mv	a0,a5
	ld	ra,120(sp)
	.cfi_restore 1
	ld	s0,112(sp)
	.cfi_restore 8
	.cfi_def_cfa 2, 128
	addi	sp,sp,128
	.cfi_def_cfa_offset 0
	jr	ra
	.cfi_endproc
.LFE8:
	.size	SendForm, .-SendForm
	.section	.rodata
	.align	3
.LC2:
	.string	"P"
	.string	"A"
	.string	"T"
	.string	"H"
	.zero	2
	.align	3
.LC3:
	.string	"&"
	.zero	2
	.section	.text.ProcessStorage,"ax",@progbits
	.align	1
	.globl	ProcessStorage
	.type	ProcessStorage, @function
ProcessStorage:
.LFB9:
	.loc 1 633 1
	.cfi_startproc
	addi	sp,sp,-112
	.cfi_def_cfa_offset 112
	sd	ra,104(sp)
	sd	s0,96(sp)
	.cfi_offset 1, -8
	.cfi_offset 8, -16
	addi	s0,sp,112
	.cfi_def_cfa 8, 0
	sd	a0,-88(s0)
	sd	a1,-96(s0)
	mv	a5,a2
	sd	a3,-112(s0)
	sb	a5,-97(s0)
	.loc 1 642 6
	lbu	a5,-97(s0)
	andi	a5,a5,0xff
	beq	a5,zero,.L81
	.loc 1 646 14
	ld	a5,-112(s0)
	ld	a4,112(a5)
	addi	a5,s0,-72
	li	a3,1
	mv	a2,a4
	mv	a1,a5
	ld	a0,-112(s0)
	call	StorageToConfigResp
	sd	a0,-56(s0)
	.loc 1 647 36
	ld	a5,-56(s0)
	.loc 1 647 8
	bge	a5,zero,.L82
	.loc 1 648 14
	ld	a5,-56(s0)
	j	.L86
.L82:
	.loc 1 655 14
	ld	a5,-72(s0)
	lla	a1,.LC2
	mv	a0,a5
	call	StrStr@plt
	sd	a0,-64(s0)
	.loc 1 657 14
	lla	a1,.LC3
	ld	a0,-64(s0)
	call	StrStr@plt
	sd	a0,-64(s0)
	.loc 1 658 12
	ld	a5,-64(s0)
	addi	a5,a5,2
	sd	a5,-64(s0)
	.loc 1 659 18
	ld	a0,-64(s0)
	call	StrSize@plt
	sd	a0,-40(s0)
	.loc 1 664 9
	ld	a5,-88(s0)
	ld	a5,0(a5)
	.loc 1 664 8
	ld	a4,-40(s0)
	bgtu	a4,a5,.L84
	.loc 1 665 7
	ld	a5,-96(s0)
	ld	a4,0(a5)
	.loc 1 665 30
	ld	a5,-88(s0)
	ld	a5,0(a5)
	.loc 1 665 47
	srli	a5,a5,1
	.loc 1 665 7
	ld	a2,-64(s0)
	mv	a1,a5
	mv	a0,a4
	call	StrCpyS@plt
.L84:
	.loc 1 668 22
	ld	a5,-88(s0)
	ld	a4,-40(s0)
	sd	a4,0(a5)
	.loc 1 669 5
	ld	a5,-72(s0)
	mv	a0,a5
	call	FreePool@plt
	j	.L85
.L81:
	.loc 1 674 22
	ld	a0,-112(s0)
	call	GetFstStgFromBrsStg@plt
	sd	a0,-24(s0)
	.loc 1 676 15
	ld	a5,-96(s0)
	ld	a5,0(a5)
	mv	a0,a5
	call	StrLen@plt
	sd	a0,-32(s0)
	.loc 1 677 51
	ld	a5,-24(s0)
	ld	a5,56(a5)
	.loc 1 677 29
	mv	a0,a5
	call	StrLen@plt
	mv	a4,a0
	.loc 1 677 27 discriminator 1
	ld	a5,-32(s0)
	add	a5,a4,a5
	.loc 1 677 64 discriminator 1
	addi	a5,a5,2
	.loc 1 677 16 discriminator 1
	slli	a5,a5,1
	sd	a5,-40(s0)
	.loc 1 678 12
	ld	a5,-40(s0)
	srli	a5,a5,1
	sd	a5,-48(s0)
	.loc 1 679 18
	ld	a0,-40(s0)
	call	AllocateZeroPool@plt
	mv	a5,a0
	.loc 1 679 16 discriminator 1
	sd	a5,-72(s0)
	.loc 1 682 5
	ld	a4,-72(s0)
	.loc 1 682 48
	ld	a5,-24(s0)
	ld	a5,56(a5)
	.loc 1 682 5
	mv	a2,a5
	ld	a1,-48(s0)
	mv	a0,a4
	call	StrCpyS@plt
	.loc 1 683 5
	ld	a5,-72(s0)
	lla	a2,.LC3
	ld	a1,-48(s0)
	mv	a0,a5
	call	StrCatS@plt
	.loc 1 684 5
	ld	a4,-72(s0)
	ld	a5,-96(s0)
	ld	a5,0(a5)
	mv	a2,a5
	ld	a1,-48(s0)
	mv	a0,a4
	call	StrCatS@plt
	.loc 1 689 14
	ld	a5,-72(s0)
	mv	a1,a5
	ld	a0,-112(s0)
	call	ConfigRespToStorage
	sd	a0,-56(s0)
	.loc 1 690 5
	ld	a5,-72(s0)
	mv	a0,a5
	call	FreePool@plt
	.loc 1 691 36
	ld	a5,-56(s0)
	.loc 1 691 8
	bge	a5,zero,.L85
	.loc 1 692 14
	ld	a5,-56(s0)
	j	.L86
.L85:
	.loc 1 696 10
	li	a5,0
.L86:
	.loc 1 697 1
	mv	a0,a5
	ld	ra,104(sp)
	.cfi_restore 1
	ld	s0,96(sp)
	.cfi_restore 8
	.cfi_def_cfa 2, 112
	addi	sp,sp,112
	.cfi_def_cfa_offset 0
	jr	ra
	.cfi_endproc
.LFE9:
	.size	ProcessStorage, .-ProcessStorage
	.section	.text.BrowserCallback,"ax",@progbits
	.align	1
	.globl	BrowserCallback
	.type	BrowserCallback, @function
BrowserCallback:
.LFB10:
	.loc 1 736 1
	.cfi_startproc
	addi	sp,sp,-112
	.cfi_def_cfa_offset 112
	sd	ra,104(sp)
	sd	s0,96(sp)
	.cfi_offset 1, -8
	.cfi_offset 8, -16
	addi	s0,sp,112
	.cfi_def_cfa 8, 0
	sd	a0,-72(s0)
	sd	a1,-80(s0)
	sd	a2,-88(s0)
	sd	a4,-104(s0)
	sd	a5,-112(s0)
	mv	a5,a3
	sb	a5,-89(s0)
	.loc 1 744 6
	ld	a5,-80(s0)
	beq	a5,zero,.L88
	.loc 1 744 57 discriminator 1
	ld	a5,-88(s0)
	.loc 1 744 41 discriminator 1
	bne	a5,zero,.L89
.L88:
	.loc 1 745 12
	li	a5,-1
	slli	a5,a5,63
	addi	a5,a5,2
	j	.L116
.L89:
	.loc 1 748 15
	ld	a5,-80(s0)
	ld	a5,0(a5)
	.loc 1 748 13
	sd	a5,-64(s0)
	.loc 1 749 11
	sd	zero,-40(s0)
	.loc 1 750 9
	sb	zero,-49(s0)
	.loc 1 751 10
	sd	zero,-24(s0)
	.loc 1 753 6
	ld	a5,-104(s0)
	beq	a5,zero,.L91
	.loc 1 757 12
	lla	a0,gBrowserStorageList
	call	GetFirstNode@plt
	sd	a0,-32(s0)
	.loc 1 758 11
	j	.L92
.L107:
	.loc 1 759 19
	ld	a5,-32(s0)
	addi	a5,a5,-8
	.loc 1 759 121
	ld	a4,0(a5)
	.loc 1 759 206
	li	a5,1196707840
	addi	a5,a5,834
	bne	a4,a5,.L93
	.loc 1 759 15 discriminator 1
	ld	a5,-32(s0)
	addi	a5,a5,-8
	sd	a5,-40(s0)
	j	.L94
.L93:
	.loc 1 759 15 is_stmt 0 discriminator 2
	sd	zero,-40(s0)
.L94:
	.loc 1 760 14 is_stmt 1
	ld	a1,-32(s0)
	lla	a0,gBrowserStorageList
	call	GetNextNode@plt
	sd	a0,-32(s0)
	.loc 1 764 25
	ld	a5,-40(s0)
	addi	a5,a5,40
	.loc 1 764 12
	ld	a1,-104(s0)
	mv	a0,a5
	call	CompareGuid@plt
	mv	a5,a0
	.loc 1 764 10 discriminator 1
	beq	a5,zero,.L117
	.loc 1 768 19
	ld	a5,-40(s0)
	lbu	a5,24(a5)
	.loc 1 768 10
	beq	a5,zero,.L97
	.loc 1 769 19
	ld	a5,-40(s0)
	lbu	a5,24(a5)
	.loc 1 768 32 discriminator 1
	mv	a4,a5
	li	a5,3
	bne	a4,a5,.L98
.L97:
	.loc 1 774 12
	ld	a5,-112(s0)
	bne	a5,zero,.L99
	.loc 1 775 18
	li	a5,-1
	slli	a5,a5,63
	addi	a5,a5,14
	j	.L116
.L99:
	.loc 1 778 28
	ld	a5,-40(s0)
	ld	a5,56(a5)
	.loc 1 778 13
	ld	a1,-112(s0)
	mv	a0,a5
	call	StrCmp@plt
	mv	a5,a0
	.loc 1 778 12 discriminator 1
	bne	a5,zero,.L118
.L98:
	.loc 1 783 19
	ld	a5,-40(s0)
	lbu	a5,24(a5)
	.loc 1 783 10
	mv	a4,a5
	li	a5,1
	beq	a4,a5,.L100
	.loc 1 784 19
	ld	a5,-40(s0)
	lbu	a5,24(a5)
	.loc 1 783 32 discriminator 1
	bne	a5,zero,.L101
.L100:
	.loc 1 786 34
	lla	a5,mSystemLevelFormSet
	ld	a5,0(a5)
	.loc 1 786 12
	beq	a5,zero,.L102
	.loc 1 786 74 discriminator 1
	lla	a5,mSystemLevelFormSet
	ld	a5,0(a5)
	ld	a5,40(a5)
	.loc 1 786 51 discriminator 1
	bne	a5,zero,.L103
.L102:
	.loc 1 787 18
	li	a5,-1
	slli	a5,a5,63
	addi	a5,a5,14
	j	.L116
.L103:
	.loc 1 790 20
	ld	a5,-40(s0)
	ld	a4,32(a5)
	.loc 1 790 54
	lla	a5,mSystemLevelFormSet
	ld	a5,0(a5)
	ld	a5,40(a5)
	.loc 1 790 12
	bne	a4,a5,.L119
.L101:
	.loc 1 795 16
	lbu	a2,-89(s0)
	addi	a4,s0,-88
	addi	a5,s0,-64
	ld	a3,-40(s0)
	mv	a1,a4
	mv	a0,a5
	call	ProcessStorage
	sd	a0,-24(s0)
	.loc 1 796 38
	ld	a5,-24(s0)
	.loc 1 796 10
	bge	a5,zero,.L104
	.loc 1 797 16
	ld	a5,-24(s0)
	j	.L116
.L104:
	.loc 1 800 18
	ld	a5,-40(s0)
	lbu	a5,24(a5)
	.loc 1 800 10
	mv	a4,a5
	li	a5,3
	bne	a4,a5,.L105
	.loc 1 801 9
	ld	a5,-88(s0)
	li	a2,1
	mv	a1,a5
	ld	a0,-40(s0)
	call	ConfigRequestAdjust
.L105:
	.loc 1 808 13
	li	a5,1
	sb	a5,-49(s0)
	.loc 1 809 7
	j	.L106
.L117:
	.loc 1 765 9
	nop
	j	.L92
.L118:
	.loc 1 779 11
	nop
	j	.L92
.L119:
	.loc 1 791 11
	nop
.L92:
	.loc 1 758 13
	ld	a1,-32(s0)
	lla	a0,gBrowserStorageList
	call	IsNull@plt
	mv	a5,a0
	.loc 1 758 12 discriminator 1
	beq	a5,zero,.L107
.L106:
	.loc 1 812 8
	lbu	a5,-49(s0)
	andi	a5,a5,0xff
	bne	a5,zero,.L108
	.loc 1 813 14
	li	a5,-1
	slli	a5,a5,63
	addi	a5,a5,14
	j	.L116
.L91:
	.loc 1 819 29
	lla	a5,mSystemLevelFormSet
	ld	a5,0(a5)
	.loc 1 819 8
	bne	a5,zero,.L109
	.loc 1 820 14
	li	a5,-1
	slli	a5,a5,63
	addi	a5,a5,6
	j	.L116
.L109:
	.loc 1 826 46
	lla	a5,mSystemLevelFormSet
	ld	a5,0(a5)
	.loc 1 826 26
	addi	a5,a5,232
	.loc 1 826 12
	mv	a0,a5
	call	GetFirstNode@plt
	sd	a0,-32(s0)
	.loc 1 827 37
	lla	a5,mSystemLevelFormSet
	ld	a5,0(a5)
	.loc 1 827 17
	addi	a5,a5,232
	.loc 1 827 9
	ld	a1,-32(s0)
	mv	a0,a5
	call	IsNull@plt
	mv	a5,a0
	.loc 1 827 8 discriminator 1
	beq	a5,zero,.L110
	.loc 1 828 14
	li	a5,-1
	slli	a5,a5,63
	addi	a5,a5,3
	j	.L116
.L110:
	.loc 1 831 24
	ld	a5,-32(s0)
	addi	a5,a5,-8
	.loc 1 831 126
	ld	a4,0(a5)
	.loc 1 831 211
	li	a5,1196707840
	addi	a5,a5,838
	bne	a4,a5,.L111
	.loc 1 831 20 discriminator 1
	ld	a5,-32(s0)
	addi	a5,a5,-8
	sd	a5,-48(s0)
	j	.L112
.L111:
	.loc 1 831 20 is_stmt 0 discriminator 2
	sd	zero,-48(s0)
.L112:
	.loc 1 833 14 is_stmt 1
	ld	a5,-48(s0)
	ld	a3,48(a5)
	lbu	a2,-89(s0)
	addi	a4,s0,-88
	addi	a5,s0,-64
	mv	a1,a4
	mv	a0,a5
	call	ProcessStorage
	sd	a0,-24(s0)
	.loc 1 834 36
	ld	a5,-24(s0)
	.loc 1 834 8
	bge	a5,zero,.L108
	.loc 1 835 14
	ld	a5,-24(s0)
	j	.L116
.L108:
	.loc 1 839 6
	lbu	a5,-89(s0)
	andi	a5,a5,0xff
	beq	a5,zero,.L113
	.loc 1 840 27
	ld	a5,-80(s0)
	ld	a4,0(a5)
	.loc 1 840 24
	ld	a5,-64(s0)
	.loc 1 840 65
	bltu	a4,a5,.L114
	.loc 1 840 12 discriminator 1
	sd	zero,-24(s0)
	j	.L115
.L114:
	.loc 1 840 12 is_stmt 0 discriminator 2
	li	a5,-1
	slli	a5,a5,63
	addi	a5,a5,5
	sd	a5,-24(s0)
.L115:
	.loc 1 841 22 is_stmt 1
	ld	a4,-64(s0)
	ld	a5,-80(s0)
	sd	a4,0(a5)
.L113:
	.loc 1 844 10
	ld	a5,-24(s0)
.L116:
	.loc 1 845 1
	mv	a0,a5
	ld	ra,104(sp)
	.cfi_restore 1
	ld	s0,96(sp)
	.cfi_restore 8
	.cfi_def_cfa 2, 112
	addi	sp,sp,112
	.cfi_def_cfa_offset 0
	jr	ra
	.cfi_endproc
.LFE10:
	.size	BrowserCallback, .-BrowserCallback
	.section	.text.FormDisplayCallback,"ax",@progbits
	.align	1
	.globl	FormDisplayCallback
	.type	FormDisplayCallback, @function
FormDisplayCallback:
.LFB11:
	.loc 1 860 1
	.cfi_startproc
	addi	sp,sp,-32
	.cfi_def_cfa_offset 32
	sd	ra,24(sp)
	sd	s0,16(sp)
	.cfi_offset 1, -8
	.cfi_offset 8, -16
	addi	s0,sp,32
	.cfi_def_cfa 8, 0
	sd	a0,-24(s0)
	sd	a1,-32(s0)
	.loc 1 861 20
	lla	a5,mFormDisplay
	ld	a5,0(a5)
	.loc 1 861 6
	bne	a5,zero,.L123
	.loc 1 865 6
	la	a5,gBS
	ld	a5,0(a5)
	ld	a5,320(a5)
	.loc 1 865 3
	lla	a2,mFormDisplay
	li	a1,0
	la	a0,gEdkiiFormDisplayEngineProtocolGuid
	jalr	a5
.LVL2:
	j	.L120
.L123:
	.loc 1 862 5
	nop
.L120:
	.loc 1 870 1
	ld	ra,24(sp)
	.cfi_restore 1
	ld	s0,16(sp)
	.cfi_restore 8
	.cfi_def_cfa 2, 32
	addi	sp,sp,32
	.cfi_def_cfa_offset 0
	jr	ra
	.cfi_endproc
.LFE11:
	.size	FormDisplayCallback, .-FormDisplayCallback
	.section	.text.InitializeSetup,"ax",@progbits
	.align	1
	.globl	InitializeSetup
	.type	InitializeSetup, @function
InitializeSetup:
.LFB12:
	.loc 1 888 1
	.cfi_startproc
	addi	sp,sp,-48
	.cfi_def_cfa_offset 48
	sd	ra,40(sp)
	sd	s0,32(sp)
	.cfi_offset 1, -8
	.cfi_offset 8, -16
	addi	s0,sp,48
	.cfi_def_cfa 8, 0
	sd	a0,-40(s0)
	sd	a1,-48(s0)
	.loc 1 895 15
	la	a5,gBS
	ld	a5,0(a5)
	ld	a5,320(a5)
	.loc 1 895 12
	lla	a2,mHiiDatabase
	li	a1,0
	la	a0,gEfiHiiDatabaseProtocolGuid
	jalr	a5
.LVL3:
	sd	a0,-24(s0)
	.loc 1 902 15
	la	a5,gBS
	ld	a5,0(a5)
	ld	a5,320(a5)
	.loc 1 902 12
	lla	a2,mHiiConfigRouting
	li	a1,0
	la	a0,gEfiHiiConfigRoutingProtocolGuid
	jalr	a5
.LVL4:
	sd	a0,-24(s0)
	.loc 1 909 15
	la	a5,gBS
	ld	a5,0(a5)
	ld	a5,320(a5)
	.loc 1 909 12
	lla	a2,mPathFromText
	li	a1,0
	la	a0,gEfiDevicePathFromTextProtocolGuid
	jalr	a5
.LVL5:
	sd	a0,-24(s0)
	.loc 1 918 23
	lla	a5,mPrivateData
	sd	zero,8(a5)
	.loc 1 919 15
	la	a5,gBS
	ld	a5,0(a5)
	ld	a5,128(a5)
	.loc 1 919 12
	lla	a3,mPrivateData+16
	li	a2,0
	la	a1,gEfiFormBrowser2ProtocolGuid
	lla	a0,mPrivateData+8
	jalr	a5
.LVL6:
	sd	a0,-24(s0)
	.loc 1 930 3
	lla	a0,mPrivateData+112
	call	InitializeListHead@plt
	.loc 1 931 3
	lla	a0,mPrivateData+128
	call	InitializeListHead@plt
	.loc 1 932 23
	lla	a5,mPrivateData
	sd	zero,8(a5)
	.loc 1 933 15
	la	a5,gBS
	ld	a5,0(a5)
	ld	a5,128(a5)
	.loc 1 933 12
	lla	a3,mPrivateData+64
	li	a2,0
	la	a1,gEdkiiFormBrowserEx2ProtocolGuid
	lla	a0,mPrivateData+8
	jalr	a5
.LVL7:
	sd	a0,-24(s0)
	.loc 1 941 15
	la	a5,gBS
	ld	a5,0(a5)
	ld	a5,128(a5)
	.loc 1 941 12
	lla	a3,mPrivateData+32
	li	a2,0
	la	a1,gEdkiiFormBrowserExProtocolGuid
	lla	a0,mPrivateData+8
	jalr	a5
.LVL8:
	sd	a0,-24(s0)
	.loc 1 949 3
	call	InitializeDisplayFormData@plt
	.loc 1 951 15
	la	a5,gBS
	ld	a5,0(a5)
	ld	a5,320(a5)
	.loc 1 951 12
	lla	a2,mFormDisplay
	li	a1,0
	la	a0,gEdkiiFormDisplayEngineProtocolGuid
	jalr	a5
.LVL9:
	sd	a0,-24(s0)
	.loc 1 957 34
	ld	a5,-24(s0)
	.loc 1 957 6
	bge	a5,zero,.L125
	.loc 1 958 5
	addi	a5,s0,-32
	mv	a4,a5
	li	a3,0
	lla	a2,FormDisplayCallback
	li	a1,8
	la	a0,gEdkiiFormDisplayEngineProtocolGuid
	call	EfiCreateProtocolNotifyEvent@plt
.L125:
	.loc 1 967 10
	li	a5,0
	.loc 1 968 1
	mv	a0,a5
	ld	ra,40(sp)
	.cfi_restore 1
	ld	s0,32(sp)
	.cfi_restore 8
	.cfi_def_cfa 2, 48
	addi	sp,sp,48
	.cfi_def_cfa_offset 0
	jr	ra
	.cfi_endproc
.LFE12:
	.size	InitializeSetup, .-InitializeSetup
	.section	.text.NewString,"ax",@progbits
	.align	1
	.globl	NewString
	.type	NewString, @function
NewString:
.LFB13:
	.loc 1 985 1
	.cfi_startproc
	addi	sp,sp,-48
	.cfi_def_cfa_offset 48
	sd	ra,40(sp)
	sd	s0,32(sp)
	.cfi_offset 1, -8
	.cfi_offset 8, -16
	addi	s0,sp,48
	.cfi_def_cfa 8, 0
	sd	a0,-40(s0)
	sd	a1,-48(s0)
	.loc 1 988 14
	li	a3,0
	ld	a2,-40(s0)
	li	a1,0
	ld	a0,-48(s0)
	call	HiiSetString@plt
	mv	a5,a0
	sh	a5,-18(s0)
	.loc 1 991 10
	lhu	a5,-18(s0)
	.loc 1 992 1
	mv	a0,a5
	ld	ra,40(sp)
	.cfi_restore 1
	ld	s0,32(sp)
	.cfi_restore 8
	.cfi_def_cfa 2, 48
	addi	sp,sp,48
	.cfi_def_cfa_offset 0
	jr	ra
	.cfi_endproc
.LFE13:
	.size	NewString, .-NewString
	.section	.text.DeleteString,"ax",@progbits
	.align	1
	.globl	DeleteString
	.type	DeleteString, @function
DeleteString:
.LFB14:
	.loc 1 1008 1
	.cfi_startproc
	addi	sp,sp,-48
	.cfi_def_cfa_offset 48
	sd	ra,40(sp)
	sd	s0,32(sp)
	.cfi_offset 1, -8
	.cfi_offset 8, -16
	addi	s0,sp,48
	.cfi_def_cfa 8, 0
	mv	a5,a0
	sd	a1,-48(s0)
	sh	a5,-34(s0)
	.loc 1 1011 12
	sh	zero,-18(s0)
	.loc 1 1012 3
	addi	a4,s0,-18
	lhu	a5,-34(s0)
	li	a3,0
	mv	a2,a4
	mv	a1,a5
	ld	a0,-48(s0)
	call	HiiSetString@plt
	.loc 1 1013 10
	li	a5,0
	.loc 1 1014 1
	mv	a0,a5
	ld	ra,40(sp)
	.cfi_restore 1
	ld	s0,32(sp)
	.cfi_restore 8
	.cfi_def_cfa 2, 48
	addi	sp,sp,48
	.cfi_def_cfa_offset 0
	jr	ra
	.cfi_endproc
.LFE14:
	.size	DeleteString, .-DeleteString
	.section	.text.GetToken,"ax",@progbits
	.align	1
	.globl	GetToken
	.type	GetToken, @function
GetToken:
.LFB15:
	.loc 1 1031 1
	.cfi_startproc
	addi	sp,sp,-48
	.cfi_def_cfa_offset 48
	sd	ra,40(sp)
	sd	s0,32(sp)
	.cfi_offset 1, -8
	.cfi_offset 8, -16
	addi	s0,sp,48
	.cfi_def_cfa 8, 0
	mv	a5,a0
	sd	a1,-48(s0)
	sh	a5,-34(s0)
	.loc 1 1034 6
	ld	a5,-48(s0)
	bne	a5,zero,.L132
	.loc 1 1035 12
	li	a5,0
	j	.L133
.L132:
	.loc 1 1038 12
	lhu	a5,-34(s0)
	li	a2,0
	mv	a1,a5
	ld	a0,-48(s0)
	call	HiiGetString@plt
	sd	a0,-24(s0)
	.loc 1 1039 6
	ld	a5,-24(s0)
	bne	a5,zero,.L134
	.loc 1 1040 14
	lla	a5,mUnknownString
	ld	a5,0(a5)
	mv	a0,a5
	call	StrSize@plt
	mv	a4,a0
	.loc 1 1040 14 is_stmt 0 discriminator 1
	lla	a5,mUnknownString
	ld	a5,0(a5)
	mv	a1,a5
	mv	a0,a4
	call	AllocateCopyPool@plt
	sd	a0,-24(s0)
.L134:
	.loc 1 1044 10 is_stmt 1
	ld	a5,-24(s0)
.L133:
	.loc 1 1045 1
	mv	a0,a5
	ld	ra,40(sp)
	.cfi_restore 1
	ld	s0,32(sp)
	.cfi_restore 8
	.cfi_def_cfa 2, 48
	addi	sp,sp,48
	.cfi_def_cfa_offset 0
	jr	ra
	.cfi_endproc
.LFE15:
	.size	GetToken, .-GetToken
	.section	.text.NewStringCpy,"ax",@progbits
	.align	1
	.globl	NewStringCpy
	.type	NewStringCpy, @function
NewStringCpy:
.LFB16:
	.loc 1 1059 1
	.cfi_startproc
	addi	sp,sp,-32
	.cfi_def_cfa_offset 32
	sd	ra,24(sp)
	sd	s0,16(sp)
	.cfi_offset 1, -8
	.cfi_offset 8, -16
	addi	s0,sp,32
	.cfi_def_cfa 8, 0
	sd	a0,-24(s0)
	sd	a1,-32(s0)
	.loc 1 1060 7
	ld	a5,-24(s0)
	ld	a5,0(a5)
	.loc 1 1060 6
	beq	a5,zero,.L136
	.loc 1 1061 5
	ld	a5,-24(s0)
	ld	a5,0(a5)
	mv	a0,a5
	call	FreePool@plt
.L136:
	.loc 1 1064 11
	ld	a0,-32(s0)
	call	StrSize@plt
	mv	a5,a0
	.loc 1 1064 11 is_stmt 0 discriminator 1
	ld	a1,-32(s0)
	mv	a0,a5
	call	AllocateCopyPool@plt
	mv	a4,a0
	.loc 1 1064 9 is_stmt 1 discriminator 2
	ld	a5,-24(s0)
	sd	a4,0(a5)
	.loc 1 1066 1
	nop
	ld	ra,24(sp)
	.cfi_restore 1
	ld	s0,16(sp)
	.cfi_restore 8
	.cfi_def_cfa 2, 32
	addi	sp,sp,32
	.cfi_def_cfa_offset 0
	jr	ra
	.cfi_endproc
.LFE16:
	.size	NewStringCpy, .-NewStringCpy
	.section	.text.NewStringCat,"ax",@progbits
	.align	1
	.globl	NewStringCat
	.type	NewStringCat, @function
NewStringCat:
.LFB17:
	.loc 1 1080 1
	.cfi_startproc
	addi	sp,sp,-64
	.cfi_def_cfa_offset 64
	sd	ra,56(sp)
	sd	s0,48(sp)
	sd	s1,40(sp)
	.cfi_offset 1, -8
	.cfi_offset 8, -16
	.cfi_offset 9, -24
	addi	s0,sp,64
	.cfi_def_cfa 8, 0
	sd	a0,-56(s0)
	sd	a1,-64(s0)
	.loc 1 1084 7
	ld	a5,-56(s0)
	ld	a5,0(a5)
	.loc 1 1084 6
	bne	a5,zero,.L138
	.loc 1 1085 5
	ld	a1,-64(s0)
	ld	a0,-56(s0)
	call	NewStringCpy
	.loc 1 1086 5
	j	.L137
.L138:
	.loc 1 1089 13
	ld	a5,-56(s0)
	ld	a5,0(a5)
	mv	a0,a5
	call	StrSize@plt
	mv	s1,a0
	.loc 1 1089 31 discriminator 1
	ld	a0,-64(s0)
	call	StrSize@plt
	mv	a5,a0
	.loc 1 1089 29 discriminator 2
	add	a5,s1,a5
	.loc 1 1089 45 discriminator 2
	addi	a5,a5,-1
	.loc 1 1089 10 discriminator 2
	srli	a5,a5,1
	sd	a5,-40(s0)
	.loc 1 1090 40
	ld	a5,-40(s0)
	slli	a5,a5,1
	.loc 1 1090 15
	mv	a0,a5
	call	AllocateZeroPool@plt
	sd	a0,-48(s0)
	.loc 1 1093 3
	ld	a5,-56(s0)
	ld	a5,0(a5)
	mv	a2,a5
	ld	a1,-40(s0)
	ld	a0,-48(s0)
	call	StrCpyS@plt
	.loc 1 1094 3
	ld	a2,-64(s0)
	ld	a1,-40(s0)
	ld	a0,-48(s0)
	call	StrCatS@plt
	.loc 1 1096 3
	ld	a5,-56(s0)
	ld	a5,0(a5)
	mv	a0,a5
	call	FreePool@plt
	.loc 1 1097 9
	ld	a5,-56(s0)
	ld	a4,-48(s0)
	sd	a4,0(a5)
.L137:
	.loc 1 1098 1
	ld	ra,56(sp)
	.cfi_restore 1
	ld	s0,48(sp)
	.cfi_restore 8
	.cfi_def_cfa 2, 64
	ld	s1,40(sp)
	.cfi_restore 9
	addi	sp,sp,64
	.cfi_def_cfa_offset 0
	jr	ra
	.cfi_endproc
.LFE17:
	.size	NewStringCat, .-NewStringCat
	.section	.text.GetValueByName,"ax",@progbits
	.align	1
	.globl	GetValueByName
	.type	GetValueByName, @function
GetValueByName:
.LFB18:
	.loc 1 1119 1
	.cfi_startproc
	addi	sp,sp,-64
	.cfi_def_cfa_offset 64
	sd	ra,56(sp)
	sd	s0,48(sp)
	.cfi_offset 1, -8
	.cfi_offset 8, -16
	addi	s0,sp,64
	.cfi_def_cfa 8, 0
	sd	a0,-40(s0)
	sd	a1,-48(s0)
	sd	a2,-56(s0)
	mv	a5,a3
	sw	a5,-60(s0)
	.loc 1 1123 6
	lw	a5,-60(s0)
	sext.w	a5,a5
	beq	a5,zero,.L141
	.loc 1 1123 51 discriminator 1
	lw	a5,-60(s0)
	sext.w	a4,a5
	li	a5,1
	beq	a4,a5,.L141
	.loc 1 1124 12
	li	a5,-1
	slli	a5,a5,63
	addi	a5,a5,2
	j	.L142
.L141:
	.loc 1 1127 10
	ld	a5,-56(s0)
	sd	zero,0(a5)
	.loc 1 1129 24
	ld	a5,-40(s0)
	addi	a5,a5,88
	.loc 1 1129 10
	mv	a0,a5
	call	GetFirstNode@plt
	sd	a0,-24(s0)
	.loc 1 1130 9
	j	.L143
.L149:
	.loc 1 1131 14
	ld	a5,-24(s0)
	addi	a5,a5,-8
	.loc 1 1131 116
	ld	a4,0(a5)
	.loc 1 1131 201
	li	a5,1414746112
	addi	a5,a5,1614
	bne	a4,a5,.L144
	.loc 1 1131 10 discriminator 1
	ld	a5,-24(s0)
	addi	a5,a5,-8
	sd	a5,-32(s0)
	j	.L145
.L144:
	.loc 1 1131 10 is_stmt 0 discriminator 2
	sd	zero,-32(s0)
.L145:
	.loc 1 1133 27 is_stmt 1
	ld	a5,-32(s0)
	ld	a5,24(a5)
	.loc 1 1133 9
	mv	a1,a5
	ld	a0,-48(s0)
	call	StrCmp@plt
	mv	a5,a0
	.loc 1 1133 8 discriminator 1
	bne	a5,zero,.L146
	.loc 1 1134 10
	lw	a5,-60(s0)
	sext.w	a5,a5
	bne	a5,zero,.L147
	.loc 1 1135 9
	ld	a5,-32(s0)
	ld	a5,40(a5)
	mv	a1,a5
	ld	a0,-56(s0)
	call	NewStringCpy
	j	.L148
.L147:
	.loc 1 1137 9
	ld	a5,-32(s0)
	ld	a5,32(a5)
	mv	a1,a5
	ld	a0,-56(s0)
	call	NewStringCpy
.L148:
	.loc 1 1140 14
	li	a5,0
	j	.L142
.L146:
	.loc 1 1143 25
	ld	a5,-40(s0)
	addi	a5,a5,88
	.loc 1 1143 12
	ld	a1,-24(s0)
	mv	a0,a5
	call	GetNextNode@plt
	sd	a0,-24(s0)
.L143:
	.loc 1 1130 19
	ld	a5,-40(s0)
	addi	a5,a5,88
	.loc 1 1130 11
	ld	a1,-24(s0)
	mv	a0,a5
	call	IsNull@plt
	mv	a5,a0
	.loc 1 1130 10 discriminator 1
	beq	a5,zero,.L149
	.loc 1 1146 10
	li	a5,-1
	slli	a5,a5,63
	addi	a5,a5,14
.L142:
	.loc 1 1147 1
	mv	a0,a5
	ld	ra,56(sp)
	.cfi_restore 1
	ld	s0,48(sp)
	.cfi_restore 8
	.cfi_def_cfa 2, 64
	addi	sp,sp,64
	.cfi_def_cfa_offset 0
	jr	ra
	.cfi_endproc
.LFE18:
	.size	GetValueByName, .-GetValueByName
	.section	.text.SetValueByName,"ax",@progbits
	.align	1
	.globl	SetValueByName
	.type	SetValueByName, @function
SetValueByName:
.LFB19:
	.loc 1 1170 1
	.cfi_startproc
	addi	sp,sp,-96
	.cfi_def_cfa_offset 96
	sd	ra,88(sp)
	sd	s0,80(sp)
	.cfi_offset 1, -8
	.cfi_offset 8, -16
	addi	s0,sp,96
	.cfi_def_cfa 8, 0
	sd	a0,-56(s0)
	sd	a1,-64(s0)
	sd	a2,-72(s0)
	mv	a5,a3
	sd	a4,-88(s0)
	sw	a5,-76(s0)
	.loc 1 1175 6
	lw	a5,-76(s0)
	sext.w	a5,a5
	beq	a5,zero,.L151
	.loc 1 1175 49 discriminator 1
	lw	a5,-76(s0)
	sext.w	a4,a5
	li	a5,1
	beq	a4,a5,.L151
	.loc 1 1176 12
	li	a5,-1
	slli	a5,a5,63
	addi	a5,a5,2
	j	.L152
.L151:
	.loc 1 1179 24
	ld	a5,-56(s0)
	addi	a5,a5,88
	.loc 1 1179 10
	mv	a0,a5
	call	GetFirstNode@plt
	sd	a0,-24(s0)
	.loc 1 1180 9
	j	.L153
.L163:
	.loc 1 1181 14
	ld	a5,-24(s0)
	addi	a5,a5,-8
	.loc 1 1181 116
	ld	a4,0(a5)
	.loc 1 1181 201
	li	a5,1414746112
	addi	a5,a5,1614
	bne	a4,a5,.L154
	.loc 1 1181 10 discriminator 1
	ld	a5,-24(s0)
	addi	a5,a5,-8
	sd	a5,-32(s0)
	j	.L155
.L154:
	.loc 1 1181 10 is_stmt 0 discriminator 2
	sd	zero,-32(s0)
.L155:
	.loc 1 1183 27 is_stmt 1
	ld	a5,-32(s0)
	ld	a5,24(a5)
	.loc 1 1183 9
	mv	a1,a5
	ld	a0,-64(s0)
	call	StrCmp@plt
	mv	a5,a0
	.loc 1 1183 8 discriminator 1
	bne	a5,zero,.L156
	.loc 1 1184 10
	lw	a5,-76(s0)
	sext.w	a5,a5
	bne	a5,zero,.L157
	.loc 1 1185 16
	ld	a5,-32(s0)
	ld	a5,40(a5)
	sd	a5,-40(s0)
	j	.L158
.L157:
	.loc 1 1187 16
	ld	a5,-32(s0)
	ld	a5,32(a5)
	sd	a5,-40(s0)
.L158:
	.loc 1 1190 10
	ld	a5,-40(s0)
	beq	a5,zero,.L159
	.loc 1 1191 9
	ld	a0,-40(s0)
	call	FreePool@plt
.L159:
	.loc 1 1194 16
	ld	a0,-72(s0)
	call	StrSize@plt
	mv	a5,a0
	.loc 1 1194 16 is_stmt 0 discriminator 1
	ld	a1,-72(s0)
	mv	a0,a5
	call	AllocateCopyPool@plt
	sd	a0,-40(s0)
	.loc 1 1196 10 is_stmt 1
	lw	a5,-76(s0)
	sext.w	a5,a5
	bne	a5,zero,.L160
	.loc 1 1197 25
	ld	a5,-32(s0)
	ld	a4,-40(s0)
	sd	a4,40(a5)
	j	.L161
.L160:
	.loc 1 1199 21
	ld	a5,-32(s0)
	ld	a4,-40(s0)
	sd	a4,32(a5)
.L161:
	.loc 1 1202 10
	ld	a5,-88(s0)
	beq	a5,zero,.L162
	.loc 1 1203 21
	ld	a5,-88(s0)
	ld	a4,-32(s0)
	sd	a4,0(a5)
.L162:
	.loc 1 1206 14
	li	a5,0
	j	.L152
.L156:
	.loc 1 1209 25
	ld	a5,-56(s0)
	addi	a5,a5,88
	.loc 1 1209 12
	ld	a1,-24(s0)
	mv	a0,a5
	call	GetNextNode@plt
	sd	a0,-24(s0)
.L153:
	.loc 1 1180 19
	ld	a5,-56(s0)
	addi	a5,a5,88
	.loc 1 1180 11
	ld	a1,-24(s0)
	mv	a0,a5
	call	IsNull@plt
	mv	a5,a0
	.loc 1 1180 10 discriminator 1
	beq	a5,zero,.L163
	.loc 1 1212 10
	li	a5,-1
	slli	a5,a5,63
	addi	a5,a5,14
.L152:
	.loc 1 1213 1
	mv	a0,a5
	ld	ra,88(sp)
	.cfi_restore 1
	ld	s0,80(sp)
	.cfi_restore 8
	.cfi_def_cfa 2, 96
	addi	sp,sp,96
	.cfi_def_cfa_offset 0
	jr	ra
	.cfi_endproc
.LFE19:
	.size	SetValueByName, .-SetValueByName
	.section	.rodata
	.align	3
.LC4:
	.string	"="
	.zero	2
	.section	.text.StorageToConfigResp,"ax",@progbits
	.align	1
	.globl	StorageToConfigResp
	.type	StorageToConfigResp, @function
StorageToConfigResp:
.LFB20:
	.loc 1 1234 1
	.cfi_startproc
	addi	sp,sp,-96
	.cfi_def_cfa_offset 96
	sd	ra,88(sp)
	sd	s0,80(sp)
	.cfi_offset 1, -8
	.cfi_offset 8, -16
	addi	s0,sp,96
	.cfi_def_cfa 8, 0
	sd	a0,-72(s0)
	sd	a1,-80(s0)
	sd	a2,-88(s0)
	mv	a5,a3
	sb	a5,-89(s0)
	.loc 1 1242 10
	sd	zero,-24(s0)
	.loc 1 1244 18
	ld	a5,-72(s0)
	lbu	a5,24(a5)
	sext.w	a5,a5
	.loc 1 1244 3
	li	a4,3
	beq	a5,a4,.L165
	li	a4,3
	bgt	a5,a4,.L166
	beq	a5,zero,.L165
	li	a4,1
	beq	a5,a4,.L167
	j	.L166
.L165:
	.loc 1 1247 52
	lbu	a5,-89(s0)
	andi	a5,a5,0xff
	beq	a5,zero,.L168
	.loc 1 1247 17 discriminator 1
	ld	a5,-72(s0)
	ld	a5,80(a5)
	sd	a5,-48(s0)
	j	.L169
.L168:
	.loc 1 1247 17 is_stmt 0 discriminator 2
	ld	a5,-72(s0)
	ld	a5,72(a5)
	sd	a5,-48(s0)
.L169:
	.loc 1 1248 33 is_stmt 1
	lla	a5,mHiiConfigRouting
	ld	a5,0(a5)
	ld	a6,24(a5)
	.loc 1 1248 16
	lla	a5,mHiiConfigRouting
	ld	a0,0(a5)
	.loc 1 1252 47
	ld	a5,-72(s0)
	lhu	a5,64(a5)
	.loc 1 1248 16
	mv	a3,a5
	addi	a5,s0,-64
	ld	a4,-80(s0)
	ld	a2,-48(s0)
	ld	a1,-88(s0)
	jalr	a6
.LVL10:
	sd	a0,-24(s0)
	.loc 1 1256 7
	j	.L170
.L167:
	.loc 1 1259 19
	ld	a5,-80(s0)
	sd	zero,0(a5)
	.loc 1 1260 24
	ld	a0,-72(s0)
	call	GetFstStgFromBrsStg@plt
	sd	a0,-56(s0)
	.loc 1 1262 7
	ld	a5,-56(s0)
	ld	a5,56(a5)
	mv	a1,a5
	ld	a0,-80(s0)
	call	NewStringCat
	.loc 1 1264 28
	ld	a5,-72(s0)
	addi	a5,a5,88
	.loc 1 1264 14
	mv	a0,a5
	call	GetFirstNode@plt
	sd	a0,-32(s0)
	.loc 1 1265 13
	j	.L171
.L176:
	.loc 1 1266 18
	ld	a5,-32(s0)
	addi	a5,a5,-8
	.loc 1 1266 120
	ld	a4,0(a5)
	.loc 1 1266 205
	li	a5,1414746112
	addi	a5,a5,1614
	bne	a4,a5,.L172
	.loc 1 1266 14 discriminator 1
	ld	a5,-32(s0)
	addi	a5,a5,-8
	sd	a5,-40(s0)
	j	.L173
.L172:
	.loc 1 1266 14 is_stmt 0 discriminator 2
	sd	zero,-40(s0)
.L173:
	.loc 1 1268 40 is_stmt 1
	ld	a5,-40(s0)
	ld	a5,24(a5)
	.loc 1 1268 13
	mv	a1,a5
	ld	a0,-88(s0)
	call	StrStr@plt
	mv	a5,a0
	.loc 1 1268 12 discriminator 1
	beq	a5,zero,.L174
	.loc 1 1269 11
	lla	a1,.LC3
	ld	a0,-80(s0)
	call	NewStringCat
	.loc 1 1270 11
	ld	a5,-40(s0)
	ld	a5,24(a5)
	mv	a1,a5
	ld	a0,-80(s0)
	call	NewStringCat
	.loc 1 1271 11
	lla	a1,.LC4
	ld	a0,-80(s0)
	call	NewStringCat
	.loc 1 1272 14
	lbu	a5,-89(s0)
	andi	a5,a5,0xff
	beq	a5,zero,.L175
	.loc 1 1273 13
	ld	a5,-40(s0)
	ld	a5,40(a5)
	mv	a1,a5
	ld	a0,-80(s0)
	call	NewStringCat
	j	.L174
.L175:
	.loc 1 1275 13
	ld	a5,-40(s0)
	ld	a5,32(a5)
	mv	a1,a5
	ld	a0,-80(s0)
	call	NewStringCat
.L174:
	.loc 1 1279 29
	ld	a5,-72(s0)
	addi	a5,a5,88
	.loc 1 1279 16
	ld	a1,-32(s0)
	mv	a0,a5
	call	GetNextNode@plt
	sd	a0,-32(s0)
.L171:
	.loc 1 1265 23
	ld	a5,-72(s0)
	addi	a5,a5,88
	.loc 1 1265 15
	ld	a1,-32(s0)
	mv	a0,a5
	call	IsNull@plt
	mv	a5,a0
	.loc 1 1265 14 discriminator 1
	beq	a5,zero,.L176
	.loc 1 1282 7
	j	.L170
.L166:
	.loc 1 1286 14
	li	a5,-1
	slli	a5,a5,63
	addi	a5,a5,2
	sd	a5,-24(s0)
	.loc 1 1287 7
	nop
.L170:
	.loc 1 1290 10
	ld	a5,-24(s0)
	.loc 1 1291 1
	mv	a0,a5
	ld	ra,88(sp)
	.cfi_restore 1
	ld	s0,80(sp)
	.cfi_restore 8
	.cfi_def_cfa 2, 96
	addi	sp,sp,96
	.cfi_def_cfa_offset 0
	jr	ra
	.cfi_endproc
.LFE20:
	.size	StorageToConfigResp, .-StorageToConfigResp
	.section	.text.ConfigRespToStorage,"ax",@progbits
	.align	1
	.globl	ConfigRespToStorage
	.type	ConfigRespToStorage, @function
ConfigRespToStorage:
.LFB21:
	.loc 1 1308 1
	.cfi_startproc
	addi	sp,sp,-80
	.cfi_def_cfa_offset 80
	sd	ra,72(sp)
	sd	s0,64(sp)
	.cfi_offset 1, -8
	.cfi_offset 8, -16
	addi	s0,sp,80
	.cfi_def_cfa 8, 0
	sd	a0,-72(s0)
	sd	a1,-80(s0)
	.loc 1 1316 10
	sd	zero,-24(s0)
	.loc 1 1318 18
	ld	a5,-72(s0)
	lbu	a5,24(a5)
	sext.w	a5,a5
	.loc 1 1318 3
	li	a4,3
	beq	a5,a4,.L179
	li	a4,3
	bgt	a5,a4,.L180
	beq	a5,zero,.L179
	li	a4,1
	beq	a5,a4,.L181
	j	.L180
.L179:
	.loc 1 1321 27
	ld	a5,-72(s0)
	lhu	a5,64(a5)
	.loc 1 1321 18
	sd	a5,-64(s0)
	.loc 1 1322 33
	lla	a5,mHiiConfigRouting
	ld	a5,0(a5)
	ld	a5,32(a5)
	.loc 1 1322 16
	lla	a4,mHiiConfigRouting
	ld	a0,0(a4)
	ld	a4,-72(s0)
	ld	a2,80(a4)
	addi	a4,s0,-56
	addi	a3,s0,-64
	ld	a1,-80(s0)
	jalr	a5
.LVL11:
	sd	a0,-24(s0)
	.loc 1 1329 7
	j	.L182
.L181:
	.loc 1 1332 16
	lla	a1,.LC2
	ld	a0,-80(s0)
	call	StrStr@plt
	sd	a0,-32(s0)
	.loc 1 1333 10
	ld	a5,-32(s0)
	beq	a5,zero,.L191
	.loc 1 1337 16
	lla	a1,.LC3
	ld	a0,-80(s0)
	call	StrStr@plt
	sd	a0,-32(s0)
	.loc 1 1338 13
	j	.L184
.L188:
	.loc 1 1342 16
	ld	a5,-32(s0)
	addi	a5,a5,2
	sd	a5,-32(s0)
	.loc 1 1343 14
	ld	a5,-32(s0)
	sd	a5,-40(s0)
	.loc 1 1344 18
	lla	a1,.LC4
	ld	a0,-32(s0)
	call	StrStr@plt
	sd	a0,-32(s0)
	.loc 1 1345 12
	ld	a5,-32(s0)
	beq	a5,zero,.L192
	.loc 1 1349 17
	ld	a5,-32(s0)
	sh	zero,0(a5)
	.loc 1 1354 16
	ld	a5,-32(s0)
	addi	a5,a5,2
	sd	a5,-32(s0)
	.loc 1 1355 15
	ld	a5,-32(s0)
	sd	a5,-48(s0)
	.loc 1 1356 18
	lla	a1,.LC3
	ld	a0,-32(s0)
	call	StrStr@plt
	sd	a0,-32(s0)
	.loc 1 1357 12
	ld	a5,-32(s0)
	beq	a5,zero,.L187
	.loc 1 1358 19
	ld	a5,-32(s0)
	sh	zero,0(a5)
.L187:
	.loc 1 1361 9
	li	a4,0
	li	a3,0
	ld	a2,-48(s0)
	ld	a1,-40(s0)
	ld	a0,-72(s0)
	call	SetValueByName
.L184:
	.loc 1 1338 21
	ld	a5,-32(s0)
	bne	a5,zero,.L188
	.loc 1 1364 7
	j	.L182
.L192:
	.loc 1 1346 11
	nop
	.loc 1 1364 7
	j	.L182
.L180:
	.loc 1 1368 14
	li	a5,-1
	slli	a5,a5,63
	addi	a5,a5,2
	sd	a5,-24(s0)
	.loc 1 1369 7
	j	.L182
.L191:
	.loc 1 1334 9
	nop
.L182:
	.loc 1 1372 10
	ld	a5,-24(s0)
	.loc 1 1373 1
	mv	a0,a5
	ld	ra,72(sp)
	.cfi_restore 1
	ld	s0,64(sp)
	.cfi_restore 8
	.cfi_def_cfa 2, 80
	addi	sp,sp,80
	.cfi_def_cfa_offset 0
	jr	ra
	.cfi_endproc
.LFE21:
	.size	ConfigRespToStorage, .-ConfigRespToStorage
	.section	.text.GetBitsQuestionValue,"ax",@progbits
	.align	1
	.globl	GetBitsQuestionValue
	.type	GetBitsQuestionValue, @function
GetBitsQuestionValue:
.LFB22:
	.loc 1 1388 1
	.cfi_startproc
	addi	sp,sp,-64
	.cfi_def_cfa_offset 64
	sd	ra,56(sp)
	sd	s0,48(sp)
	.cfi_offset 1, -8
	.cfi_offset 8, -16
	addi	s0,sp,64
	.cfi_def_cfa 8, 0
	sd	a0,-56(s0)
	sd	a1,-64(s0)
	.loc 1 1394 22
	ld	a5,-56(s0)
	lhu	a5,70(a5)
	.loc 1 1394 12
	andi	a5,a5,7
	sd	a5,-24(s0)
	.loc 1 1395 31
	ld	a5,-56(s0)
	lhu	a5,68(a5)
	mv	a4,a5
	.loc 1 1395 21
	ld	a5,-24(s0)
	add	a5,a4,a5
	.loc 1 1395 10
	addi	a5,a5,-1
	sd	a5,-32(s0)
	.loc 1 1397 51
	ld	a5,-56(s0)
	lhu	a5,66(a5)
	.loc 1 1397 3
	mv	a4,a5
	addi	a5,s0,-40
	mv	a2,a4
	ld	a1,-64(s0)
	mv	a0,a5
	call	CopyMem@plt
	.loc 1 1399 12
	lw	a5,-40(s0)
	ld	a2,-32(s0)
	ld	a1,-24(s0)
	mv	a0,a5
	call	BitFieldRead32@plt
	mv	a5,a0
	.loc 1 1399 10 discriminator 1
	sw	a5,-36(s0)
	.loc 1 1406 21
	ld	a5,-56(s0)
	addi	a4,a5,114
	.loc 1 1406 74
	ld	a5,-56(s0)
	lhu	a5,66(a5)
	.loc 1 1406 3
	mv	a3,a5
	addi	a5,s0,-36
	mv	a2,a3
	mv	a1,a5
	mv	a0,a4
	call	CopyMem@plt
	.loc 1 1407 1
	nop
	ld	ra,56(sp)
	.cfi_restore 1
	ld	s0,48(sp)
	.cfi_restore 8
	.cfi_def_cfa 2, 64
	addi	sp,sp,64
	.cfi_def_cfa_offset 0
	jr	ra
	.cfi_endproc
.LFE22:
	.size	GetBitsQuestionValue, .-GetBitsQuestionValue
	.section	.text.SetBitsQuestionValue,"ax",@progbits
	.align	1
	.globl	SetBitsQuestionValue
	.type	SetBitsQuestionValue, @function
SetBitsQuestionValue:
.LFB23:
	.loc 1 1424 1
	.cfi_startproc
	addi	sp,sp,-80
	.cfi_def_cfa_offset 80
	sd	ra,72(sp)
	sd	s0,64(sp)
	.cfi_offset 1, -8
	.cfi_offset 8, -16
	addi	s0,sp,80
	.cfi_def_cfa 8, 0
	sd	a0,-56(s0)
	sd	a1,-64(s0)
	mv	a5,a2
	sw	a5,-68(s0)
	.loc 1 1430 22
	ld	a5,-56(s0)
	lhu	a5,70(a5)
	.loc 1 1430 12
	andi	a5,a5,7
	sd	a5,-24(s0)
	.loc 1 1431 31
	ld	a5,-56(s0)
	lhu	a5,68(a5)
	mv	a4,a5
	.loc 1 1431 21
	ld	a5,-24(s0)
	add	a5,a4,a5
	.loc 1 1431 10
	addi	a5,a5,-1
	sd	a5,-32(s0)
	.loc 1 1433 47
	ld	a5,-56(s0)
	lhu	a5,66(a5)
	.loc 1 1433 3
	mv	a4,a5
	addi	a5,s0,-36
	mv	a2,a4
	ld	a1,-64(s0)
	mv	a0,a5
	call	CopyMem@plt
	.loc 1 1435 12
	lw	a5,-36(s0)
	lw	a4,-68(s0)
	mv	a3,a4
	ld	a2,-32(s0)
	ld	a1,-24(s0)
	mv	a0,a5
	call	BitFieldWrite32@plt
	mv	a5,a0
	.loc 1 1435 10 discriminator 1
	sw	a5,-40(s0)
	.loc 1 1437 46
	ld	a5,-56(s0)
	lhu	a5,66(a5)
	.loc 1 1437 3
	mv	a4,a5
	addi	a5,s0,-40
	mv	a2,a4
	mv	a1,a5
	ld	a0,-64(s0)
	call	CopyMem@plt
	.loc 1 1438 1
	nop
	ld	ra,72(sp)
	.cfi_restore 1
	ld	s0,64(sp)
	.cfi_restore 8
	.cfi_def_cfa 2, 80
	addi	sp,sp,80
	.cfi_def_cfa_offset 0
	jr	ra
	.cfi_endproc
.LFE23:
	.size	SetBitsQuestionValue, .-SetBitsQuestionValue
	.section	.text.BufferToValue,"ax",@progbits
	.align	1
	.globl	BufferToValue
	.type	BufferToValue, @function
BufferToValue:
.LFB24:
	.loc 1 1454 1
	.cfi_startproc
	addi	sp,sp,-144
	.cfi_def_cfa_offset 144
	sd	ra,136(sp)
	sd	s0,128(sp)
	.cfi_offset 1, -8
	.cfi_offset 8, -16
	addi	s0,sp,144
	.cfi_def_cfa 8, 0
	sd	a0,-136(s0)
	sd	a1,-144(s0)
	.loc 1 1469 10
	sd	zero,-72(s0)
	.loc 1 1471 43
	ld	a5,-136(s0)
	lbu	a5,96(a5)
	.loc 1 1471 14
	mv	a4,a5
	li	a5,7
	bne	a4,a5,.L196
	.loc 1 1471 12 discriminator 1
	li	a5,1
	sb	a5,-49(s0)
	j	.L197
.L196:
	.loc 1 1471 12 is_stmt 0 discriminator 2
	sb	zero,-49(s0)
.L197:
	.loc 1 1472 16 is_stmt 1
	ld	a5,-136(s0)
	ld	a5,56(a5)
	.loc 1 1472 25
	lbu	a5,24(a5)
	.loc 1 1472 6
	beq	a5,zero,.L198
	.loc 1 1473 16
	ld	a5,-136(s0)
	ld	a5,56(a5)
	.loc 1 1473 25
	lbu	a5,24(a5)
	.loc 1 1472 38 discriminator 1
	mv	a4,a5
	li	a5,3
	bne	a4,a5,.L199
.L198:
	.loc 1 1475 21
	li	a5,1
	sb	a5,-25(s0)
	j	.L200
.L199:
	.loc 1 1477 21
	sb	zero,-25(s0)
.L200:
	.loc 1 1483 15
	ld	a5,-136(s0)
	ld	a5,136(a5)
	.loc 1 1483 6
	beq	a5,zero,.L201
	.loc 1 1487 9
	ld	a5,-136(s0)
	ld	a5,136(a5)
	sd	a5,-40(s0)
	j	.L202
.L201:
	.loc 1 1492 17
	ld	a5,-136(s0)
	lbu	a5,73(a5)
	.loc 1 1492 8
	beq	a5,zero,.L203
	.loc 1 1493 51
	ld	a5,-136(s0)
	lhu	a5,66(a5)
	.loc 1 1493 25
	mv	a0,a5
	call	AllocateZeroPool@plt
	sd	a0,-72(s0)
	.loc 1 1494 10
	ld	a5,-72(s0)
	bne	a5,zero,.L204
	.loc 1 1495 16
	li	a5,-1
	slli	a5,a5,63
	addi	a5,a5,9
	j	.L220
.L204:
	.loc 1 1498 11
	ld	a5,-72(s0)
	sd	a5,-40(s0)
	j	.L202
.L203:
	.loc 1 1500 11
	ld	a5,-136(s0)
	addi	a5,a5,114
	sd	a5,-40(s0)
.L202:
	.loc 1 1507 13
	ld	a5,-144(s0)
	sd	a5,-24(s0)
	.loc 1 1508 9
	j	.L206
.L208:
	.loc 1 1509 14
	ld	a5,-24(s0)
	addi	a5,a5,2
	sd	a5,-24(s0)
.L206:
	.loc 1 1508 10
	ld	a5,-24(s0)
	lhu	a5,0(a5)
	.loc 1 1508 30
	beq	a5,zero,.L207
	.loc 1 1508 33 discriminator 1
	ld	a5,-24(s0)
	lhu	a5,0(a5)
	.loc 1 1508 30 discriminator 1
	sext.w	a4,a5
	li	a5,38
	bne	a4,a5,.L208
.L207:
	.loc 1 1512 12
	ld	a5,-24(s0)
	lhu	a5,0(a5)
	sh	a5,-74(s0)
	.loc 1 1513 14
	ld	a5,-24(s0)
	sh	zero,0(a5)
	.loc 1 1515 15
	ld	a0,-144(s0)
	call	StrLen@plt
	sd	a0,-88(s0)
	.loc 1 1523 34
	ld	a5,-136(s0)
	lhu	a5,66(a5)
	.loc 1 1523 49
	slli	a5,a5,1
	.loc 1 1523 6
	ld	a4,-88(s0)
	bleu	a4,a5,.L209
	.loc 1 1524 29
	ld	a5,-136(s0)
	lhu	a5,66(a5)
	.loc 1 1524 12
	slli	a5,a5,1
	sd	a5,-64(s0)
	j	.L210
.L209:
	.loc 1 1526 12
	ld	a5,-88(s0)
	sd	a5,-64(s0)
.L210:
	.loc 1 1529 10
	sd	zero,-96(s0)
	.loc 1 1530 6
	lbu	a5,-25(s0)
	andi	a5,a5,0xff
	bne	a5,zero,.L211
	.loc 1 1530 24 discriminator 1
	lbu	a5,-49(s0)
	andi	a5,a5,0xff
	beq	a5,zero,.L211
	.loc 1 1535 12
	ld	a5,-40(s0)
	sd	a5,-104(s0)
	.loc 1 1536 5
	addi	a5,s0,-120
	li	a1,10
	mv	a0,a5
	call	ZeroMem@plt
	.loc 1 1537 16
	sd	zero,-48(s0)
	.loc 1 1537 5
	j	.L212
.L213:
	.loc 1 1538 66
	ld	a5,-48(s0)
	slli	a5,a5,1
	ld	a4,-144(s0)
	add	a4,a4,a5
	.loc 1 1538 7
	addi	a5,s0,-120
	li	a3,4
	mv	a2,a4
	li	a1,5
	mv	a0,a5
	call	StrnCpyS@plt
	.loc 1 1539 33
	addi	a5,s0,-120
	mv	a0,a5
	call	StrHexToUint64@plt
	mv	a3,a0
	.loc 1 1539 19 discriminator 1
	ld	a5,-48(s0)
	srli	a5,a5,2
	.loc 1 1539 13 discriminator 1
	slli	a5,a5,1
	ld	a4,-104(s0)
	add	a5,a4,a5
	.loc 1 1539 25 discriminator 1
	slli	a4,a3,48
	srli	a4,a4,48
	.loc 1 1539 23 discriminator 1
	sh	a4,0(a5)
	.loc 1 1537 43 discriminator 3
	ld	a5,-48(s0)
	addi	a5,a5,4
	sd	a5,-48(s0)
.L212:
	.loc 1 1537 27 discriminator 1
	ld	a4,-48(s0)
	ld	a5,-64(s0)
	bltu	a4,a5,.L213
	.loc 1 1545 17
	ld	a5,-48(s0)
	srli	a5,a5,2
	.loc 1 1545 11
	slli	a5,a5,1
	ld	a4,-104(s0)
	add	a5,a4,a5
	.loc 1 1545 21
	sh	zero,0(a5)
	j	.L214
.L211:
	.loc 1 1547 5
	addi	a5,s0,-120
	li	a1,10
	mv	a0,a5
	call	ZeroMem@plt
	.loc 1 1548 16
	sd	zero,-48(s0)
	.loc 1 1548 5
	j	.L215
.L218:
	.loc 1 1549 35
	ld	a4,-88(s0)
	ld	a5,-48(s0)
	sub	a5,a4,a5
	.loc 1 1549 24
	slli	a5,a5,1
	addi	a5,a5,-2
	ld	a4,-144(s0)
	add	a5,a4,a5
	lhu	a5,0(a5)
	.loc 1 1549 17
	sh	a5,-120(s0)
	.loc 1 1550 27
	addi	a5,s0,-120
	mv	a0,a5
	call	StrHexToUint64@plt
	mv	a5,a0
	.loc 1 1550 18 discriminator 1
	sb	a5,-105(s0)
	.loc 1 1551 18
	ld	a5,-48(s0)
	andi	a5,a5,1
	.loc 1 1551 10
	bne	a5,zero,.L216
	.loc 1 1552 18
	ld	a5,-48(s0)
	srli	a5,a5,1
	.loc 1 1552 12
	ld	a4,-40(s0)
	add	a5,a4,a5
	.loc 1 1552 22
	lbu	a4,-105(s0)
	sb	a4,0(a5)
	j	.L217
.L216:
	.loc 1 1554 44
	lbu	a5,-105(s0)
	slliw	a5,a5,4
	andi	a3,a5,0xff
	.loc 1 1554 61
	ld	a5,-48(s0)
	srli	a5,a5,1
	.loc 1 1554 55
	ld	a4,-40(s0)
	add	a5,a4,a5
	lbu	a4,0(a5)
	.loc 1 1554 18
	ld	a5,-48(s0)
	srli	a5,a5,1
	.loc 1 1554 12
	ld	a2,-40(s0)
	add	a5,a2,a5
	.loc 1 1554 24
	addw	a4,a3,a4
	andi	a4,a4,0xff
	.loc 1 1554 22
	sb	a4,0(a5)
.L217:
	.loc 1 1548 42 discriminator 2
	ld	a5,-48(s0)
	addi	a5,a5,1
	sd	a5,-48(s0)
.L215:
	.loc 1 1548 27 discriminator 1
	ld	a4,-48(s0)
	ld	a5,-64(s0)
	bltu	a4,a5,.L218
.L214:
	.loc 1 1559 14
	ld	a5,-24(s0)
	lhu	a4,-74(s0)
	sh	a4,0(a5)
	.loc 1 1561 6
	ld	a5,-72(s0)
	beq	a5,zero,.L219
	.loc 1 1561 43 discriminator 1
	ld	a5,-136(s0)
	lbu	a5,73(a5)
	.loc 1 1561 32 discriminator 1
	beq	a5,zero,.L219
	.loc 1 1562 5
	ld	a1,-72(s0)
	ld	a0,-136(s0)
	call	GetBitsQuestionValue
	.loc 1 1563 5
	ld	a0,-72(s0)
	call	FreePool@plt
.L219:
	.loc 1 1566 10
	ld	a5,-96(s0)
.L220:
	.loc 1 1567 1
	mv	a0,a5
	ld	ra,136(sp)
	.cfi_restore 1
	ld	s0,128(sp)
	.cfi_restore 8
	.cfi_def_cfa 2, 144
	addi	sp,sp,144
	.cfi_def_cfa_offset 0
	jr	ra
	.cfi_endproc
.LFE24:
	.size	BufferToValue, .-BufferToValue
	.section	.rodata
	.align	3
.LC5:
	.string	"&"
	.string	"V"
	.string	"A"
	.string	"L"
	.string	"U"
	.string	"E"
	.zero	2
	.section	.text.GetQuestionValue,"ax",@progbits
	.align	1
	.globl	GetQuestionValue
	.type	GetQuestionValue, @function
GetQuestionValue:
.LFB25:
	.loc 1 1587 1
	.cfi_startproc
	addi	sp,sp,-176
	.cfi_def_cfa_offset 176
	sd	ra,168(sp)
	sd	s0,160(sp)
	.cfi_offset 1, -8
	.cfi_offset 8, -16
	addi	s0,sp,176
	.cfi_def_cfa 8, 0
	sd	a0,-152(s0)
	sd	a1,-160(s0)
	sd	a2,-168(s0)
	mv	a5,a3
	sw	a5,-172(s0)
	.loc 1 1605 10
	sd	zero,-24(s0)
	.loc 1 1606 9
	sd	zero,-144(s0)
	.loc 1 1607 10
	sd	zero,-136(s0)
	.loc 1 1609 6
	lw	a5,-172(s0)
	sext.w	a4,a5
	li	a5,3
	bleu	a4,a5,.L222
	.loc 1 1610 12
	li	a5,-1
	slli	a5,a5,63
	addi	a5,a5,2
	j	.L274
.L222:
	.loc 1 1616 15
	ld	a5,-168(s0)
	ld	a5,200(a5)
	.loc 1 1616 6
	beq	a5,zero,.L224
	.loc 1 1617 14
	ld	a5,-168(s0)
	ld	a5,200(a5)
	mv	a2,a5
	ld	a1,-160(s0)
	ld	a0,-152(s0)
	call	EvaluateExpression@plt
	sd	a0,-24(s0)
	.loc 1 1618 9
	ld	a5,-24(s0)
	.loc 1 1618 8
	blt	a5,zero,.L225
	.loc 1 1619 19
	ld	a5,-168(s0)
	ld	a5,200(a5)
	.loc 1 1619 44
	lbu	a5,32(a5)
	.loc 1 1619 10
	mv	a4,a5
	li	a5,11
	bne	a4,a5,.L226
	.loc 1 1621 21
	ld	a5,-168(s0)
	lhu	a4,66(a5)
	.loc 1 1621 46
	ld	a5,-168(s0)
	ld	a5,200(a5)
	.loc 1 1621 71
	lhu	a5,48(a5)
	.loc 1 1621 12
	sext.w	a4,a4
	sext.w	a5,a5
	bleu	a4,a5,.L227
	.loc 1 1622 38
	ld	a5,-168(s0)
	ld	a4,104(a5)
	.loc 1 1622 55
	ld	a5,-168(s0)
	ld	a5,200(a5)
	.loc 1 1622 80
	ld	a3,40(a5)
	.loc 1 1622 97
	ld	a5,-168(s0)
	ld	a5,200(a5)
	.loc 1 1622 122
	lhu	a5,48(a5)
	.loc 1 1622 11
	mv	a2,a5
	mv	a1,a3
	mv	a0,a4
	call	CopyMem@plt
	.loc 1 1623 50
	ld	a5,-168(s0)
	ld	a5,200(a5)
	.loc 1 1623 75
	lhu	a4,48(a5)
	.loc 1 1623 40
	ld	a5,-168(s0)
	sh	a4,112(a5)
	j	.L228
.L227:
	.loc 1 1625 38
	ld	a5,-168(s0)
	ld	a4,104(a5)
	.loc 1 1625 55
	ld	a5,-168(s0)
	ld	a5,200(a5)
	.loc 1 1625 80
	ld	a3,40(a5)
	.loc 1 1625 97
	ld	a5,-168(s0)
	lhu	a5,66(a5)
	.loc 1 1625 11
	mv	a2,a5
	mv	a1,a3
	mv	a0,a4
	call	CopyMem@plt
	.loc 1 1626 50
	ld	a5,-168(s0)
	lhu	a4,66(a5)
	.loc 1 1626 40
	ld	a5,-168(s0)
	sh	a4,112(a5)
.L228:
	.loc 1 1629 27
	ld	a5,-168(s0)
	ld	a5,200(a5)
	.loc 1 1629 52
	ld	a5,40(a5)
	.loc 1 1629 9
	mv	a0,a5
	call	FreePool@plt
.L226:
	.loc 1 1632 41
	ld	a5,-168(s0)
	ld	a5,200(a5)
	.loc 1 1632 66
	lbu	a4,32(a5)
	.loc 1 1632 31
	ld	a5,-168(s0)
	sb	a4,96(a5)
	.loc 1 1633 16
	ld	a5,-168(s0)
	addi	a4,a5,114
	.loc 1 1633 52
	ld	a5,-168(s0)
	ld	a5,200(a5)
	.loc 1 1633 43
	addi	a5,a5,50
	.loc 1 1633 7
	li	a2,22
	mv	a1,a5
	mv	a0,a4
	call	CopyMem@plt
.L225:
	.loc 1 1636 12
	ld	a5,-24(s0)
	j	.L274
.L224:
	.loc 1 1642 16
	ld	a5,-168(s0)
	ld	a5,312(a5)
	.loc 1 1642 6
	beq	a5,zero,.L229
	.loc 1 1642 58 discriminator 1
	ld	a5,-160(s0)
	lhu	a5,28(a5)
	.loc 1 1642 50 discriminator 1
	sext.w	a4,a5
	li	a5,1
	bne	a4,a5,.L229
	.loc 1 1643 14
	ld	a5,-168(s0)
	ld	a5,312(a5)
	mv	a2,a5
	ld	a1,-160(s0)
	ld	a0,-152(s0)
	call	EvaluateExpression@plt
	sd	a0,-24(s0)
	.loc 1 1644 9
	ld	a5,-24(s0)
	.loc 1 1644 8
	blt	a5,zero,.L229
	.loc 1 1645 19
	ld	a5,-168(s0)
	ld	a5,312(a5)
	.loc 1 1645 43
	lbu	a5,32(a5)
	.loc 1 1644 63 discriminator 1
	mv	a4,a5
	li	a5,7
	bleu	a4,a5,.L230
	.loc 1 1645 69
	ld	a5,-168(s0)
	ld	a5,312(a5)
	.loc 1 1645 93
	lbu	a5,32(a5)
	.loc 1 1645 57
	mv	a4,a5
	li	a5,11
	bne	a4,a5,.L229
.L230:
	.loc 1 1650 19
	ld	a5,-168(s0)
	ld	a5,312(a5)
	.loc 1 1650 43
	lbu	a5,32(a5)
	.loc 1 1650 10
	mv	a4,a5
	li	a5,11
	bne	a4,a5,.L231
	.loc 1 1652 21
	ld	a5,-168(s0)
	lhu	a4,66(a5)
	.loc 1 1652 46
	ld	a5,-168(s0)
	ld	a5,312(a5)
	.loc 1 1652 70
	lhu	a5,48(a5)
	.loc 1 1652 12
	sext.w	a4,a4
	sext.w	a5,a5
	bleu	a4,a5,.L232
	.loc 1 1653 38
	ld	a5,-168(s0)
	ld	a4,104(a5)
	.loc 1 1653 55
	ld	a5,-168(s0)
	ld	a5,312(a5)
	.loc 1 1653 79
	ld	a3,40(a5)
	.loc 1 1653 96
	ld	a5,-168(s0)
	ld	a5,312(a5)
	.loc 1 1653 120
	lhu	a5,48(a5)
	.loc 1 1653 11
	mv	a2,a5
	mv	a1,a3
	mv	a0,a4
	call	CopyMem@plt
	.loc 1 1654 50
	ld	a5,-168(s0)
	ld	a5,312(a5)
	.loc 1 1654 74
	lhu	a4,48(a5)
	.loc 1 1654 40
	ld	a5,-168(s0)
	sh	a4,112(a5)
	j	.L233
.L232:
	.loc 1 1656 38
	ld	a5,-168(s0)
	ld	a4,104(a5)
	.loc 1 1656 55
	ld	a5,-168(s0)
	ld	a5,312(a5)
	.loc 1 1656 79
	ld	a3,40(a5)
	.loc 1 1656 96
	ld	a5,-168(s0)
	lhu	a5,66(a5)
	.loc 1 1656 11
	mv	a2,a5
	mv	a1,a3
	mv	a0,a4
	call	CopyMem@plt
	.loc 1 1657 50
	ld	a5,-168(s0)
	lhu	a4,66(a5)
	.loc 1 1657 40
	ld	a5,-168(s0)
	sh	a4,112(a5)
.L233:
	.loc 1 1660 27
	ld	a5,-168(s0)
	ld	a5,312(a5)
	.loc 1 1660 51
	ld	a5,40(a5)
	.loc 1 1660 9
	mv	a0,a5
	call	FreePool@plt
.L231:
	.loc 1 1663 41
	ld	a5,-168(s0)
	ld	a5,312(a5)
	.loc 1 1663 65
	lbu	a4,32(a5)
	.loc 1 1663 31
	ld	a5,-168(s0)
	sb	a4,96(a5)
	.loc 1 1664 16
	ld	a5,-168(s0)
	addi	a4,a5,114
	.loc 1 1664 52
	ld	a5,-168(s0)
	ld	a5,312(a5)
	.loc 1 1664 43
	addi	a5,a5,50
	.loc 1 1664 7
	li	a2,22
	mv	a1,a5
	mv	a0,a4
	call	CopyMem@plt
	.loc 1 1665 14
	li	a5,0
	j	.L274
.L229:
	.loc 1 1672 11
	ld	a5,-168(s0)
	ld	a5,56(a5)
	sd	a5,-56(s0)
	.loc 1 1673 17
	ld	a5,-168(s0)
	addi	a5,a5,114
	sd	a5,-64(s0)
	.loc 1 1674 6
	ld	a5,-56(s0)
	bne	a5,zero,.L234
	.loc 1 1678 18
	ld	a5,-168(s0)
	lbu	a5,24(a5)
	.loc 1 1678 8
	mv	a4,a5
	li	a5,26
	beq	a4,a5,.L235
	.loc 1 1678 49 discriminator 1
	ld	a5,-168(s0)
	lbu	a5,24(a5)
	.loc 1 1678 37 discriminator 1
	mv	a4,a5
	li	a5,27
	bne	a4,a5,.L236
.L235:
	.loc 1 1682 23
	ld	a5,-168(s0)
	lbu	a5,145(a5)
	.loc 1 1682 31
	sext.w	a5,a5
	andi	a5,a5,48
	sext.w	a5,a5
	.loc 1 1682 7
	li	a4,16
	beq	a5,a4,.L237
	li	a4,32
	beq	a5,a4,.L238
	j	.L275
.L237:
	.loc 1 1684 23
	la	a5,gRT
	ld	a5,0(a5)
	ld	a5,24(a5)
	.loc 1 1684 20
	addi	a4,s0,-120
	li	a1,0
	mv	a0,a4
	jalr	a5
.LVL12:
	sd	a0,-24(s0)
	.loc 1 1685 11
	j	.L240
.L238:
	.loc 1 1688 23
	la	a5,gRT
	ld	a5,0(a5)
	ld	a5,40(a5)
	.loc 1 1688 20
	addi	a2,s0,-120
	addi	a3,s0,-90
	addi	a4,s0,-89
	mv	a1,a3
	mv	a0,a4
	jalr	a5
.LVL13:
	sd	a0,-24(s0)
	.loc 1 1689 11
	j	.L240
.L275:
	.loc 1 1696 18
	li	a5,0
	j	.L274
.L240:
	.loc 1 1699 38
	ld	a5,-24(s0)
	.loc 1 1699 10
	bge	a5,zero,.L241
	.loc 1 1700 21
	ld	a5,-168(s0)
	lbu	a5,24(a5)
	.loc 1 1700 12
	mv	a4,a5
	li	a5,26
	bne	a4,a5,.L242
	.loc 1 1701 36
	ld	a5,-64(s0)
	lbu	a4,0(a5)
	ori	a4,a4,-1
	sb	a4,0(a5)
	lbu	a4,1(a5)
	andi	a4,a4,0
	sb	a4,1(a5)
	.loc 1 1702 37
	ld	a5,-64(s0)
	li	a4,-1
	sb	a4,2(a5)
	.loc 1 1703 35
	ld	a5,-64(s0)
	li	a4,-1
	sb	a4,3(a5)
	j	.L243
.L242:
	.loc 1 1705 36
	ld	a5,-64(s0)
	li	a4,-1
	sb	a4,0(a5)
	.loc 1 1706 38
	ld	a5,-64(s0)
	li	a4,-1
	sb	a4,1(a5)
	.loc 1 1707 38
	ld	a5,-64(s0)
	li	a4,-1
	sb	a4,2(a5)
.L243:
	.loc 1 1710 16
	li	a5,0
	j	.L274
.L241:
	.loc 1 1713 19
	ld	a5,-168(s0)
	lbu	a5,24(a5)
	.loc 1 1713 10
	mv	a4,a5
	li	a5,26
	bne	a4,a5,.L244
	.loc 1 1714 43
	lhu	a4,-120(s0)
	.loc 1 1714 34
	ld	a5,-64(s0)
	andi	a3,a4,255
	lbu	a2,0(a5)
	andi	a2,a2,0
	or	a3,a2,a3
	sb	a3,0(a5)
	srliw	a4,a4,8
	slli	a4,a4,48
	srli	a4,a4,48
	lbu	a3,1(a5)
	andi	a3,a3,0
	or	a4,a3,a4
	sb	a4,1(a5)
	.loc 1 1715 44
	lbu	a4,-118(s0)
	.loc 1 1715 35
	ld	a5,-64(s0)
	sb	a4,2(a5)
	.loc 1 1716 42
	lbu	a4,-117(s0)
	.loc 1 1716 33
	ld	a5,-64(s0)
	sb	a4,3(a5)
	j	.L236
.L244:
	.loc 1 1718 43
	lbu	a4,-116(s0)
	.loc 1 1718 34
	ld	a5,-64(s0)
	sb	a4,0(a5)
	.loc 1 1719 45
	lbu	a4,-115(s0)
	.loc 1 1719 36
	ld	a5,-64(s0)
	sb	a4,1(a5)
	.loc 1 1720 45
	lbu	a4,-114(s0)
	.loc 1 1720 36
	ld	a5,-64(s0)
	sb	a4,2(a5)
.L236:
	.loc 1 1724 12
	li	a5,0
	j	.L274
.L234:
	.loc 1 1730 26
	ld	a5,-168(s0)
	lhu	a5,66(a5)
	.loc 1 1730 16
	sd	a5,-104(s0)
	.loc 1 1731 14
	ld	a5,-56(s0)
	lbu	a5,24(a5)
	.loc 1 1731 6
	mv	a4,a5
	li	a5,2
	bne	a4,a5,.L245
	.loc 1 1732 17
	ld	a5,-168(s0)
	ld	a5,136(a5)
	.loc 1 1732 8
	beq	a5,zero,.L246
	.loc 1 1733 11
	ld	a5,-168(s0)
	ld	a5,136(a5)
	sd	a5,-32(s0)
	j	.L247
.L246:
	.loc 1 1735 11
	ld	a5,-64(s0)
	sd	a5,-32(s0)
.L247:
	.loc 1 1738 17
	la	a5,gRT
	ld	a5,0(a5)
	ld	a5,72(a5)
	.loc 1 1738 14
	ld	a4,-168(s0)
	ld	a0,80(a4)
	ld	a4,-56(s0)
	addi	a1,a4,40
	addi	a3,s0,-104
	ld	a4,-32(s0)
	li	a2,0
	jalr	a5
.LVL14:
	sd	a0,-24(s0)
	.loc 1 1748 12
	li	a5,0
	j	.L274
.L245:
	.loc 1 1754 15
	ld	a5,-168(s0)
	ld	a5,136(a5)
	.loc 1 1754 6
	beq	a5,zero,.L248
	.loc 1 1758 9
	ld	a5,-168(s0)
	ld	a5,136(a5)
	sd	a5,-32(s0)
	j	.L249
.L248:
	.loc 1 1763 9
	ld	a5,-168(s0)
	addi	a5,a5,114
	sd	a5,-32(s0)
.L249:
	.loc 1 1766 15
	ld	a5,-56(s0)
	lbu	a5,24(a5)
	.loc 1 1766 6
	beq	a5,zero,.L250
	.loc 1 1767 15
	ld	a5,-56(s0)
	lbu	a5,24(a5)
	.loc 1 1766 28 discriminator 1
	mv	a4,a5
	li	a5,3
	bne	a4,a5,.L251
.L250:
	.loc 1 1769 21
	li	a5,1
	sb	a5,-41(s0)
	j	.L252
.L251:
	.loc 1 1771 21
	sb	zero,-41(s0)
.L252:
	.loc 1 1774 6
	lw	a5,-172(s0)
	sext.w	a5,a5
	beq	a5,zero,.L253
	.loc 1 1774 51 discriminator 1
	lw	a5,-172(s0)
	sext.w	a4,a5
	li	a5,1
	bne	a4,a5,.L254
.L253:
	.loc 1 1775 8
	lbu	a5,-41(s0)
	andi	a5,a5,0xff
	beq	a5,zero,.L255
	.loc 1 1776 10
	lw	a5,-172(s0)
	sext.w	a5,a5
	bne	a5,zero,.L256
	.loc 1 1781 21
	ld	a5,-168(s0)
	lbu	a5,73(a5)
	.loc 1 1781 12
	beq	a5,zero,.L257
	.loc 1 1782 50
	ld	a5,-56(s0)
	ld	a5,80(a5)
	.loc 1 1782 87
	ld	a4,-168(s0)
	lhu	a4,64(a4)
	.loc 1 1782 11
	add	a5,a5,a4
	mv	a1,a5
	ld	a0,-168(s0)
	call	GetBitsQuestionValue
	.loc 1 1775 8
	j	.L261
.L257:
	.loc 1 1784 32
	ld	a5,-56(s0)
	ld	a5,80(a5)
	.loc 1 1784 69
	ld	a4,-168(s0)
	lhu	a4,64(a4)
	.loc 1 1784 45
	add	a5,a5,a4
	.loc 1 1784 11
	ld	a4,-104(s0)
	mv	a2,a4
	mv	a1,a5
	ld	a0,-32(s0)
	call	CopyMem@plt
	.loc 1 1775 8
	j	.L261
.L256:
	.loc 1 1791 21
	ld	a5,-168(s0)
	lbu	a5,73(a5)
	.loc 1 1791 12
	beq	a5,zero,.L259
	.loc 1 1792 50
	ld	a5,-56(s0)
	ld	a5,72(a5)
	.loc 1 1792 83
	ld	a4,-168(s0)
	lhu	a4,64(a4)
	.loc 1 1792 11
	add	a5,a5,a4
	mv	a1,a5
	ld	a0,-168(s0)
	call	GetBitsQuestionValue
	.loc 1 1775 8
	j	.L261
.L259:
	.loc 1 1794 32
	ld	a5,-56(s0)
	ld	a5,72(a5)
	.loc 1 1794 65
	ld	a4,-168(s0)
	lhu	a4,64(a4)
	.loc 1 1794 41
	add	a5,a5,a4
	.loc 1 1794 11
	ld	a4,-104(s0)
	mv	a2,a4
	mv	a1,a5
	ld	a0,-32(s0)
	call	CopyMem@plt
	.loc 1 1775 8
	j	.L261
.L255:
	.loc 1 1798 13
	sd	zero,-144(s0)
	.loc 1 1799 16
	ld	a5,-168(s0)
	ld	a5,80(a5)
	lw	a3,-172(s0)
	addi	a4,s0,-144
	mv	a2,a4
	mv	a1,a5
	ld	a0,-56(s0)
	call	GetValueByName
	sd	a0,-24(s0)
	.loc 1 1800 38
	ld	a5,-24(s0)
	.loc 1 1800 10
	bge	a5,zero,.L260
	.loc 1 1801 16
	ld	a5,-24(s0)
	j	.L274
.L260:
	.loc 1 1805 16
	ld	a5,-144(s0)
	mv	a1,a5
	ld	a0,-168(s0)
	call	BufferToValue
	sd	a0,-24(s0)
	.loc 1 1806 7
	ld	a5,-144(s0)
	mv	a0,a5
	call	FreePool@plt
	.loc 1 1775 8
	j	.L261
.L254:
	.loc 1 1809 22
	ld	a5,-168(s0)
	lhu	a5,50(a5)
	mv	a1,a5
	ld	a0,-152(s0)
	call	GetFstStgFromVarId@plt
	sd	a0,-72(s0)
	.loc 1 1815 8
	lbu	a5,-41(s0)
	andi	a5,a5,0xff
	beq	a5,zero,.L262
	.loc 1 1816 38
	ld	a5,-72(s0)
	ld	a5,56(a5)
	.loc 1 1816 16
	mv	a0,a5
	call	StrLen@plt
	sd	a0,-40(s0)
	.loc 1 1817 33
	ld	a5,-168(s0)
	ld	a5,88(a5)
	.loc 1 1817 17
	mv	a0,a5
	call	StrLen@plt
	mv	a4,a0
	.loc 1 1817 14 discriminator 1
	ld	a5,-40(s0)
	add	a5,a5,a4
	sd	a5,-40(s0)
	j	.L263
.L262:
	.loc 1 1819 38
	ld	a5,-72(s0)
	ld	a5,56(a5)
	.loc 1 1819 16
	mv	a0,a5
	call	StrLen@plt
	sd	a0,-40(s0)
	.loc 1 1820 33
	ld	a5,-168(s0)
	ld	a5,80(a5)
	.loc 1 1820 17
	mv	a0,a5
	call	StrLen@plt
	mv	a5,a0
	.loc 1 1820 49 discriminator 1
	addi	a5,a5,1
	.loc 1 1820 14 discriminator 1
	ld	a4,-40(s0)
	add	a5,a4,a5
	sd	a5,-40(s0)
.L263:
	.loc 1 1824 12
	ld	a5,-40(s0)
	addi	a5,a5,1
	sd	a5,-80(s0)
	.loc 1 1825 46
	ld	a5,-80(s0)
	slli	a5,a5,1
	.loc 1 1825 21
	mv	a0,a5
	call	AllocateZeroPool@plt
	sd	a0,-88(s0)
	.loc 1 1828 51
	ld	a5,-72(s0)
	ld	a5,56(a5)
	.loc 1 1828 5
	mv	a2,a5
	ld	a1,-80(s0)
	ld	a0,-88(s0)
	call	StrCpyS@plt
	.loc 1 1829 8
	lbu	a5,-41(s0)
	andi	a5,a5,0xff
	beq	a5,zero,.L264
	.loc 1 1830 47
	ld	a5,-168(s0)
	ld	a5,88(a5)
	.loc 1 1830 7
	mv	a2,a5
	ld	a1,-80(s0)
	ld	a0,-88(s0)
	call	StrCatS@plt
	j	.L265
.L264:
	.loc 1 1832 7
	lla	a2,.LC3
	ld	a1,-80(s0)
	ld	a0,-88(s0)
	call	StrCatS@plt
	.loc 1 1833 47
	ld	a5,-168(s0)
	ld	a5,80(a5)
	.loc 1 1833 7
	mv	a2,a5
	ld	a1,-80(s0)
	ld	a0,-88(s0)
	call	StrCatS@plt
.L265:
	.loc 1 1839 31
	lla	a5,mHiiConfigRouting
	ld	a5,0(a5)
	ld	a5,0(a5)
	.loc 1 1839 14
	lla	a4,mHiiConfigRouting
	ld	a4,0(a4)
	addi	a3,s0,-136
	addi	a2,s0,-128
	ld	a1,-88(s0)
	mv	a0,a4
	jalr	a5
.LVL15:
	sd	a0,-24(s0)
	.loc 1 1845 5
	ld	a0,-88(s0)
	call	FreePool@plt
	.loc 1 1846 36
	ld	a5,-24(s0)
	.loc 1 1846 8
	bge	a5,zero,.L266
	.loc 1 1847 14
	ld	a5,-24(s0)
	j	.L274
.L266:
	.loc 1 1853 8
	lbu	a5,-41(s0)
	andi	a5,a5,0xff
	beq	a5,zero,.L267
	.loc 1 1854 15
	ld	a5,-136(s0)
	lla	a1,.LC5
	mv	a0,a5
	call	StrStr@plt
	mv	a5,a0
	.loc 1 1854 13 discriminator 1
	sd	a5,-144(s0)
	.loc 1 1855 17
	ld	a5,-144(s0)
	.loc 1 1855 10
	bne	a5,zero,.L268
	.loc 1 1856 9
	ld	a5,-136(s0)
	mv	a0,a5
	call	FreePool@plt
	.loc 1 1857 16
	li	a5,-1
	slli	a5,a5,63
	addi	a5,a5,14
	j	.L274
.L268:
	.loc 1 1863 21
	ld	a5,-144(s0)
	addi	a5,a5,12
	.loc 1 1863 13
	sd	a5,-144(s0)
	j	.L269
.L267:
	.loc 1 1865 22
	ld	a4,-136(s0)
	ld	a5,-40(s0)
	slli	a5,a5,1
	add	a5,a4,a5
	.loc 1 1865 13
	sd	a5,-144(s0)
.L269:
	.loc 1 1868 9
	ld	a5,-144(s0)
	lhu	a5,0(a5)
	.loc 1 1868 8
	sext.w	a4,a5
	li	a5,61
	beq	a4,a5,.L270
	.loc 1 1869 7
	ld	a5,-136(s0)
	mv	a0,a5
	call	FreePool@plt
	.loc 1 1870 14
	li	a5,-1
	slli	a5,a5,63
	addi	a5,a5,14
	j	.L274
.L270:
	.loc 1 1876 19
	ld	a5,-144(s0)
	addi	a5,a5,2
	.loc 1 1876 11
	sd	a5,-144(s0)
	.loc 1 1878 14
	ld	a5,-144(s0)
	mv	a1,a5
	ld	a0,-168(s0)
	call	BufferToValue
	sd	a0,-24(s0)
	.loc 1 1879 36
	ld	a5,-24(s0)
	.loc 1 1879 8
	bge	a5,zero,.L271
	.loc 1 1880 7
	ld	a5,-136(s0)
	mv	a0,a5
	call	FreePool@plt
	.loc 1 1881 14
	ld	a5,-24(s0)
	j	.L274
.L271:
	.loc 1 1887 8
	lbu	a5,-41(s0)
	andi	a5,a5,0xff
	beq	a5,zero,.L272
	.loc 1 1888 23
	ld	a5,-56(s0)
	ld	a5,80(a5)
	.loc 1 1888 60
	ld	a4,-168(s0)
	lhu	a4,64(a4)
	.loc 1 1888 36
	add	a5,a5,a4
	.loc 1 1888 7
	ld	a4,-104(s0)
	mv	a2,a4
	ld	a1,-32(s0)
	mv	a0,a5
	call	CopyMem@plt
	j	.L273
.L272:
	.loc 1 1890 7
	ld	a5,-168(s0)
	ld	a5,80(a5)
	ld	a2,-144(s0)
	li	a4,0
	li	a3,0
	mv	a1,a5
	ld	a0,-56(s0)
	call	SetValueByName
.L273:
	.loc 1 1893 16
	ld	a5,-136(s0)
	.loc 1 1893 8
	beq	a5,zero,.L261
	.loc 1 1894 7
	ld	a5,-136(s0)
	mv	a0,a5
	call	FreePool@plt
.L261:
	.loc 1 1898 10
	ld	a5,-24(s0)
.L274:
	.loc 1 1899 1
	mv	a0,a5
	ld	ra,168(sp)
	.cfi_restore 1
	ld	s0,160(sp)
	.cfi_restore 8
	.cfi_def_cfa 2, 176
	addi	sp,sp,176
	.cfi_def_cfa_offset 0
	jr	ra
	.cfi_endproc
.LFE25:
	.size	GetQuestionValue, .-GetQuestionValue
	.section	.rodata
	.align	3
.LC6:
	.string	"&"
	.string	"V"
	.string	"A"
	.string	"L"
	.string	"U"
	.string	"E"
	.string	"="
	.zero	2
	.section	.text.SetQuestionValue,"ax",@progbits
	.align	1
	.globl	SetQuestionValue
	.type	SetQuestionValue, @function
SetQuestionValue:
.LFB26:
	.loc 1 1919 1
	.cfi_startproc
	addi	sp,sp,-224
	.cfi_def_cfa_offset 224
	sd	ra,216(sp)
	sd	s0,208(sp)
	.cfi_offset 1, -8
	.cfi_offset 8, -16
	addi	s0,sp,224
	.cfi_def_cfa 8, 0
	sd	a0,-200(s0)
	sd	a1,-208(s0)
	sd	a2,-216(s0)
	mv	a5,a3
	sw	a5,-220(s0)
	.loc 1 1943 10
	sd	zero,-24(s0)
	.loc 1 1944 8
	sd	zero,-184(s0)
	.loc 1 1946 6
	lw	a5,-220(s0)
	sext.w	a4,a5
	li	a5,3
	bleu	a4,a5,.L277
	.loc 1 1947 12
	li	a5,-1
	slli	a5,a5,63
	addi	a5,a5,2
	j	.L332
.L277:
	.loc 1 1953 15
	ld	a5,-216(s0)
	ld	a5,200(a5)
	.loc 1 1953 6
	beq	a5,zero,.L279
	.loc 1 1954 12
	ld	a5,-24(s0)
	j	.L332
.L279:
	.loc 1 1960 16
	ld	a5,-216(s0)
	ld	a5,320(a5)
	.loc 1 1960 6
	beq	a5,zero,.L280
	.loc 1 1960 59 discriminator 1
	ld	a5,-208(s0)
	lhu	a5,28(a5)
	.loc 1 1960 51 discriminator 1
	sext.w	a4,a5
	li	a5,1
	bne	a4,a5,.L280
	.loc 1 1961 14
	ld	a5,-216(s0)
	ld	a5,320(a5)
	mv	a2,a5
	ld	a1,-208(s0)
	ld	a0,-200(s0)
	call	EvaluateExpression@plt
	sd	a0,-24(s0)
	.loc 1 1962 36
	ld	a5,-24(s0)
	.loc 1 1962 8
	bge	a5,zero,.L280
	.loc 1 1963 14
	ld	a5,-24(s0)
	j	.L332
.L280:
	.loc 1 1970 11
	ld	a5,-216(s0)
	ld	a5,56(a5)
	sd	a5,-96(s0)
	.loc 1 1971 17
	ld	a5,-216(s0)
	addi	a5,a5,114
	sd	a5,-104(s0)
	.loc 1 1972 6
	ld	a5,-96(s0)
	bne	a5,zero,.L281
	.loc 1 1976 18
	ld	a5,-216(s0)
	lbu	a5,24(a5)
	.loc 1 1976 8
	mv	a4,a5
	li	a5,26
	beq	a4,a5,.L282
	.loc 1 1976 49 discriminator 1
	ld	a5,-216(s0)
	lbu	a5,24(a5)
	.loc 1 1976 37 discriminator 1
	mv	a4,a5
	li	a5,27
	bne	a4,a5,.L283
.L282:
	.loc 1 1980 23
	ld	a5,-216(s0)
	lbu	a5,145(a5)
	.loc 1 1980 31
	sext.w	a5,a5
	andi	a5,a5,48
	sext.w	a5,a5
	.loc 1 1980 7
	li	a4,16
	beq	a5,a4,.L284
	li	a4,32
	beq	a5,a4,.L285
	j	.L333
.L284:
	.loc 1 1982 23
	la	a5,gRT
	ld	a5,0(a5)
	ld	a5,24(a5)
	.loc 1 1982 20
	addi	a4,s0,-168
	li	a1,0
	mv	a0,a4
	jalr	a5
.LVL16:
	sd	a0,-24(s0)
	.loc 1 1983 11
	j	.L287
.L285:
	.loc 1 1986 23
	la	a5,gRT
	ld	a5,0(a5)
	ld	a5,40(a5)
	.loc 1 1986 20
	addi	a2,s0,-168
	addi	a3,s0,-146
	addi	a4,s0,-145
	mv	a1,a3
	mv	a0,a4
	jalr	a5
.LVL17:
	sd	a0,-24(s0)
	.loc 1 1987 11
	j	.L287
.L333:
	.loc 1 1994 18
	li	a5,0
	j	.L332
.L287:
	.loc 1 1997 38
	ld	a5,-24(s0)
	.loc 1 1997 10
	bge	a5,zero,.L288
	.loc 1 1998 16
	ld	a5,-24(s0)
	j	.L332
.L288:
	.loc 1 2001 19
	ld	a5,-216(s0)
	lbu	a5,24(a5)
	.loc 1 2001 10
	mv	a4,a5
	li	a5,26
	bne	a4,a5,.L289
	.loc 1 2002 43
	ld	a5,-104(s0)
	lbu	a4,0(a5)
	lbu	a5,1(a5)
	slli	a5,a5,8
	or	a5,a5,a4
	slli	a5,a5,48
	srli	a5,a5,48
	.loc 1 2002 22
	sh	a5,-168(s0)
	.loc 1 2003 44
	ld	a5,-104(s0)
	lbu	a5,2(a5)
	.loc 1 2003 23
	sb	a5,-166(s0)
	.loc 1 2004 42
	ld	a5,-104(s0)
	lbu	a5,3(a5)
	.loc 1 2004 21
	sb	a5,-165(s0)
	j	.L290
.L289:
	.loc 1 2006 43
	ld	a5,-104(s0)
	lbu	a5,0(a5)
	.loc 1 2006 22
	sb	a5,-164(s0)
	.loc 1 2007 45
	ld	a5,-104(s0)
	lbu	a5,1(a5)
	.loc 1 2007 24
	sb	a5,-163(s0)
	.loc 1 2008 45
	ld	a5,-104(s0)
	lbu	a5,2(a5)
	.loc 1 2008 24
	sb	a5,-162(s0)
.L290:
	.loc 1 2011 20
	ld	a5,-216(s0)
	lbu	a5,145(a5)
	.loc 1 2011 28
	sext.w	a5,a5
	andi	a5,a5,48
	sext.w	a4,a5
	.loc 1 2011 10
	li	a5,16
	bne	a4,a5,.L291
	.loc 1 2012 21
	la	a5,gRT
	ld	a5,0(a5)
	ld	a5,32(a5)
	.loc 1 2012 18
	addi	a4,s0,-168
	mv	a0,a4
	jalr	a5
.LVL18:
	sd	a0,-24(s0)
	j	.L283
.L291:
	.loc 1 2014 21
	la	a5,gRT
	ld	a5,0(a5)
	ld	a5,48(a5)
	.loc 1 2014 18
	addi	a4,s0,-168
	mv	a1,a4
	li	a0,1
	jalr	a5
.LVL19:
	sd	a0,-24(s0)
.L283:
	.loc 1 2018 12
	ld	a5,-24(s0)
	j	.L332
.L281:
	.loc 1 2024 26
	ld	a5,-216(s0)
	lhu	a5,66(a5)
	.loc 1 2024 16
	sd	a5,-112(s0)
	.loc 1 2025 14
	ld	a5,-96(s0)
	lbu	a5,24(a5)
	.loc 1 2025 6
	mv	a4,a5
	li	a5,2
	bne	a4,a5,.L292
	.loc 1 2026 17
	ld	a5,-216(s0)
	ld	a5,136(a5)
	.loc 1 2026 8
	beq	a5,zero,.L293
	.loc 1 2027 11
	ld	a5,-216(s0)
	ld	a5,136(a5)
	sd	a5,-32(s0)
	j	.L294
.L293:
	.loc 1 2029 11
	ld	a5,-104(s0)
	sd	a5,-32(s0)
.L294:
	.loc 1 2032 17
	la	a5,gRT
	ld	a5,0(a5)
	ld	a5,88(a5)
	.loc 1 2032 14
	ld	a4,-216(s0)
	ld	a0,80(a4)
	ld	a4,-96(s0)
	addi	a1,a4,40
	ld	a4,-96(s0)
	lw	a2,104(a4)
	ld	a4,-32(s0)
	ld	a3,-112(s0)
	jalr	a5
.LVL20:
	sd	a0,-24(s0)
	.loc 1 2039 12
	ld	a5,-24(s0)
	j	.L332
.L292:
	.loc 1 2045 15
	ld	a5,-216(s0)
	ld	a5,136(a5)
	.loc 1 2045 6
	beq	a5,zero,.L295
	.loc 1 2046 9
	ld	a5,-216(s0)
	ld	a5,136(a5)
	sd	a5,-32(s0)
	j	.L296
.L295:
	.loc 1 2048 9
	ld	a5,-216(s0)
	addi	a5,a5,114
	sd	a5,-32(s0)
.L296:
	.loc 1 2051 15
	ld	a5,-96(s0)
	lbu	a5,24(a5)
	.loc 1 2051 6
	beq	a5,zero,.L297
	.loc 1 2052 15
	ld	a5,-96(s0)
	lbu	a5,24(a5)
	.loc 1 2051 28 discriminator 1
	mv	a4,a5
	li	a5,3
	bne	a4,a5,.L298
.L297:
	.loc 1 2054 21
	li	a5,1
	sb	a5,-49(s0)
	j	.L299
.L298:
	.loc 1 2056 21
	sb	zero,-49(s0)
.L299:
	.loc 1 2059 43
	ld	a5,-216(s0)
	lbu	a5,96(a5)
	.loc 1 2059 14
	mv	a4,a5
	li	a5,7
	bne	a4,a5,.L300
	.loc 1 2059 12 discriminator 1
	li	a5,1
	sb	a5,-50(s0)
	j	.L301
.L300:
	.loc 1 2059 12 is_stmt 0 discriminator 2
	sb	zero,-50(s0)
.L301:
	.loc 1 2061 6 is_stmt 1
	lw	a5,-220(s0)
	sext.w	a5,a5
	beq	a5,zero,.L302
	.loc 1 2061 49 discriminator 1
	lw	a5,-220(s0)
	sext.w	a4,a5
	li	a5,1
	bne	a4,a5,.L303
.L302:
	.loc 1 2062 8
	lbu	a5,-49(s0)
	andi	a5,a5,0xff
	beq	a5,zero,.L304
	.loc 1 2063 10
	lw	a5,-220(s0)
	sext.w	a5,a5
	bne	a5,zero,.L305
	.loc 1 2068 21
	ld	a5,-216(s0)
	lbu	a5,73(a5)
	.loc 1 2068 12
	beq	a5,zero,.L306
	.loc 1 2069 50
	ld	a5,-96(s0)
	ld	a5,80(a5)
	.loc 1 2069 87
	ld	a4,-216(s0)
	lhu	a4,64(a4)
	.loc 1 2069 11
	add	a4,a5,a4
	.loc 1 2069 108
	ld	a5,-32(s0)
	lbu	a5,0(a5)
	.loc 1 2069 11
	sext.w	a5,a5
	mv	a2,a5
	mv	a1,a4
	ld	a0,-216(s0)
	call	SetBitsQuestionValue
	.loc 1 2062 8
	j	.L334
.L306:
	.loc 1 2071 27
	ld	a5,-96(s0)
	ld	a5,80(a5)
	.loc 1 2071 64
	ld	a4,-216(s0)
	lhu	a4,64(a4)
	.loc 1 2071 40
	add	a5,a5,a4
	.loc 1 2071 11
	ld	a2,-112(s0)
	ld	a1,-32(s0)
	mv	a0,a5
	call	CopyMem@plt
	.loc 1 2062 8
	j	.L334
.L305:
	.loc 1 2073 17
	lw	a5,-220(s0)
	sext.w	a4,a5
	li	a5,1
	bne	a4,a5,.L334
	.loc 1 2078 21
	ld	a5,-216(s0)
	lbu	a5,73(a5)
	.loc 1 2078 12
	beq	a5,zero,.L308
	.loc 1 2079 50
	ld	a5,-96(s0)
	ld	a5,72(a5)
	.loc 1 2079 83
	ld	a4,-216(s0)
	lhu	a4,64(a4)
	.loc 1 2079 11
	add	a4,a5,a4
	.loc 1 2079 104
	ld	a5,-32(s0)
	lbu	a5,0(a5)
	.loc 1 2079 11
	sext.w	a5,a5
	mv	a2,a5
	mv	a1,a4
	ld	a0,-216(s0)
	call	SetBitsQuestionValue
	.loc 1 2062 8
	j	.L334
.L308:
	.loc 1 2081 27
	ld	a5,-96(s0)
	ld	a5,72(a5)
	.loc 1 2081 60
	ld	a4,-216(s0)
	lhu	a4,64(a4)
	.loc 1 2081 36
	add	a5,a5,a4
	.loc 1 2081 11
	ld	a2,-112(s0)
	ld	a1,-32(s0)
	mv	a0,a5
	call	CopyMem@plt
	.loc 1 2062 8
	j	.L334
.L304:
	.loc 1 2085 10
	lbu	a5,-50(s0)
	andi	a5,a5,0xff
	beq	a5,zero,.L309
	.loc 1 2089 15
	sd	zero,-40(s0)
	.loc 1 2090 23
	ld	a0,-32(s0)
	call	StrLen@plt
	mv	a5,a0
	.loc 1 2090 19 discriminator 1
	slli	a5,a5,3
	addi	a5,a5,2
	sd	a5,-144(s0)
	.loc 1 2091 17
	ld	a0,-144(s0)
	call	AllocateZeroPool@plt
	sd	a0,-40(s0)
	.loc 1 2096 17
	ld	a5,-32(s0)
	sd	a5,-72(s0)
	.loc 1 2097 19
	ld	a5,-40(s0)
	sd	a5,-80(s0)
	.loc 1 2098 9
	j	.L310
.L311:
	.loc 1 2101 45
	ld	a4,-40(s0)
	.loc 1 2101 26
	ld	a5,-80(s0)
	.loc 1 2101 23
	sub	a4,a4,a5
	ld	a5,-144(s0)
	add	a1,a4,a5
	.loc 1 2103 13
	ld	a5,-72(s0)
	lhu	a5,0(a5)
	.loc 1 2099 11
	li	a4,4
	mv	a3,a5
	li	a2,160
	ld	a0,-80(s0)
	call	UnicodeValueToStringS@plt
	.loc 1 2106 78
	ld	a4,-40(s0)
	.loc 1 2106 59
	ld	a5,-80(s0)
	.loc 1 2106 56
	sub	a4,a4,a5
	ld	a5,-144(s0)
	add	a5,a4,a5
	.loc 1 2106 93
	srli	a5,a5,1
	.loc 1 2106 24
	mv	a1,a5
	ld	a0,-80(s0)
	call	StrnLenS@plt
	mv	a5,a0
	.loc 1 2106 21 discriminator 1
	slli	a5,a5,1
	ld	a4,-80(s0)
	add	a5,a4,a5
	sd	a5,-80(s0)
	.loc 1 2098 43 discriminator 2
	ld	a5,-72(s0)
	addi	a5,a5,2
	sd	a5,-72(s0)
.L310:
	.loc 1 2098 17 discriminator 1
	ld	a5,-72(s0)
	lhu	a5,0(a5)
	.loc 1 2098 26 discriminator 1
	bne	a5,zero,.L311
	j	.L312
.L309:
	.loc 1 2109 34
	ld	a5,-112(s0)
	slli	a5,a5,1
	.loc 1 2109 19
	addi	a5,a5,1
	sd	a5,-144(s0)
	.loc 1 2110 45
	ld	a5,-144(s0)
	slli	a5,a5,1
	.loc 1 2110 17
	mv	a0,a5
	call	AllocateZeroPool@plt
	sd	a0,-40(s0)
	.loc 1 2115 40
	ld	a5,-112(s0)
	addi	a5,a5,-1
	.loc 1 2115 19
	ld	a4,-32(s0)
	add	a5,a4,a5
	sd	a5,-64(s0)
	.loc 1 2116 19
	ld	a5,-40(s0)
	sd	a5,-80(s0)
	.loc 1 2117 20
	sd	zero,-88(s0)
	.loc 1 2117 9
	j	.L313
.L314:
	.loc 1 2120 23
	ld	a5,-144(s0)
	slli	a4,a5,1
	.loc 1 2120 63
	ld	a3,-40(s0)
	.loc 1 2120 44
	ld	a5,-80(s0)
	.loc 1 2120 41
	sub	a5,a3,a5
	add	a1,a4,a5
	.loc 1 2122 13
	ld	a5,-64(s0)
	lbu	a5,0(a5)
	.loc 1 2118 11
	li	a4,2
	mv	a3,a5
	li	a2,160
	ld	a0,-80(s0)
	call	UnicodeValueToStringS@plt
	.loc 1 2125 58
	ld	a4,-80(s0)
	.loc 1 2125 77
	ld	a5,-40(s0)
	.loc 1 2125 75
	sub	a5,a4,a5
	.loc 1 2125 91
	srli	a5,a5,1
	.loc 1 2125 55
	ld	a4,-144(s0)
	sub	a5,a4,a5
	.loc 1 2125 24
	mv	a1,a5
	ld	a0,-80(s0)
	call	StrnLenS@plt
	mv	a5,a0
	.loc 1 2125 21 discriminator 1
	slli	a5,a5,1
	ld	a4,-80(s0)
	add	a5,a4,a5
	sd	a5,-80(s0)
	.loc 1 2117 52 discriminator 3
	ld	a5,-88(s0)
	addi	a5,a5,1
	sd	a5,-88(s0)
	.loc 1 2117 65 discriminator 3
	ld	a5,-64(s0)
	addi	a5,a5,-1
	sd	a5,-64(s0)
.L313:
	.loc 1 2117 31 discriminator 1
	ld	a4,-88(s0)
	ld	a5,-112(s0)
	bltu	a4,a5,.L314
.L312:
	.loc 1 2129 16
	ld	a5,-216(s0)
	ld	a5,80(a5)
	addi	a4,s0,-184
	lw	a3,-220(s0)
	ld	a2,-40(s0)
	mv	a1,a5
	ld	a0,-96(s0)
	call	SetValueByName
	sd	a0,-24(s0)
	.loc 1 2130 7
	ld	a0,-40(s0)
	call	FreePool@plt
	.loc 1 2131 38
	ld	a5,-24(s0)
	.loc 1 2131 10
	bge	a5,zero,.L334
	.loc 1 2132 16
	ld	a5,-24(s0)
	j	.L332
.L303:
	.loc 1 2135 13
	lw	a5,-220(s0)
	sext.w	a4,a5
	li	a5,2
	bne	a4,a5,.L315
	.loc 1 2140 8
	lbu	a5,-49(s0)
	andi	a5,a5,0xff
	beq	a5,zero,.L316
	.loc 1 2141 32
	ld	a5,-216(s0)
	ld	a5,88(a5)
	.loc 1 2141 16
	mv	a0,a5
	call	StrLen@plt
	mv	a5,a0
	.loc 1 2141 14 discriminator 1
	addi	a5,a5,7
	sd	a5,-48(s0)
	j	.L317
.L316:
	.loc 1 2143 32
	ld	a5,-216(s0)
	ld	a5,80(a5)
	.loc 1 2143 16
	mv	a0,a5
	call	StrLen@plt
	mv	a5,a0
	.loc 1 2143 14 discriminator 1
	addi	a5,a5,2
	sd	a5,-48(s0)
.L317:
	.loc 1 2146 8
	lbu	a5,-49(s0)
	andi	a5,a5,0xff
	bne	a5,zero,.L318
	.loc 1 2146 26 discriminator 1
	lbu	a5,-50(s0)
	andi	a5,a5,0xff
	beq	a5,zero,.L318
	.loc 1 2147 18
	ld	a0,-32(s0)
	call	StrLen@plt
	mv	a5,a0
	.loc 1 2147 41 discriminator 1
	slli	a5,a5,2
	.loc 1 2147 14 discriminator 1
	ld	a4,-48(s0)
	add	a5,a4,a5
	sd	a5,-48(s0)
	.loc 1 2147 7
	j	.L319
.L318:
	.loc 1 2149 31
	ld	a5,-112(s0)
	slli	a5,a5,1
	.loc 1 2149 14
	ld	a4,-48(s0)
	add	a5,a4,a5
	sd	a5,-48(s0)
.L319:
	.loc 1 2152 22
	ld	a5,-216(s0)
	lhu	a5,50(a5)
	mv	a1,a5
	ld	a0,-200(s0)
	call	GetFstStgFromVarId@plt
	sd	a0,-120(s0)
	.loc 1 2154 36
	ld	a5,-120(s0)
	ld	a5,56(a5)
	.loc 1 2154 14
	mv	a0,a5
	call	StrLen@plt
	mv	a4,a0
	.loc 1 2154 49 discriminator 1
	ld	a5,-48(s0)
	add	a5,a4,a5
	.loc 1 2154 12 discriminator 1
	addi	a5,a5,1
	sd	a5,-128(s0)
	.loc 1 2155 43
	ld	a5,-128(s0)
	slli	a5,a5,1
	.loc 1 2155 18
	mv	a0,a5
	call	AllocateZeroPool@plt
	sd	a0,-136(s0)
	.loc 1 2158 48
	ld	a5,-120(s0)
	ld	a5,56(a5)
	.loc 1 2158 5
	mv	a2,a5
	ld	a1,-128(s0)
	ld	a0,-136(s0)
	call	StrCpyS@plt
	.loc 1 2159 8
	lbu	a5,-49(s0)
	andi	a5,a5,0xff
	beq	a5,zero,.L320
	.loc 1 2160 44
	ld	a5,-216(s0)
	ld	a5,88(a5)
	.loc 1 2160 7
	mv	a2,a5
	ld	a1,-128(s0)
	ld	a0,-136(s0)
	call	StrCatS@plt
	.loc 1 2161 7
	lla	a2,.LC6
	ld	a1,-128(s0)
	ld	a0,-136(s0)
	call	StrCatS@plt
	j	.L321
.L320:
	.loc 1 2163 7
	lla	a2,.LC3
	ld	a1,-128(s0)
	ld	a0,-136(s0)
	call	StrCatS@plt
	.loc 1 2164 44
	ld	a5,-216(s0)
	ld	a5,80(a5)
	.loc 1 2164 7
	mv	a2,a5
	ld	a1,-128(s0)
	ld	a0,-136(s0)
	call	StrCatS@plt
	.loc 1 2165 7
	lla	a2,.LC4
	ld	a1,-128(s0)
	ld	a0,-136(s0)
	call	StrCatS@plt
.L321:
	.loc 1 2168 26
	ld	a0,-136(s0)
	call	StrLen@plt
	mv	a5,a0
	.loc 1 2168 24 discriminator 1
	slli	a5,a5,1
	.loc 1 2168 11 discriminator 1
	ld	a4,-136(s0)
	add	a5,a4,a5
	sd	a5,-40(s0)
	.loc 1 2170 8
	lbu	a5,-49(s0)
	andi	a5,a5,0xff
	bne	a5,zero,.L322
	.loc 1 2170 26 discriminator 1
	lbu	a5,-50(s0)
	andi	a5,a5,0xff
	beq	a5,zero,.L322
	.loc 1 2174 15
	ld	a5,-32(s0)
	sd	a5,-72(s0)
	.loc 1 2175 17
	ld	a5,-40(s0)
	sd	a5,-80(s0)
	.loc 1 2176 7
	j	.L323
.L324:
	.loc 1 2179 18
	ld	a5,-128(s0)
	slli	a4,a5,1
	.loc 1 2179 58
	ld	a3,-136(s0)
	.loc 1 2179 39
	ld	a5,-80(s0)
	.loc 1 2179 36
	sub	a5,a3,a5
	add	a1,a4,a5
	.loc 1 2181 11
	ld	a5,-72(s0)
	lhu	a5,0(a5)
	.loc 1 2177 9
	li	a4,4
	mv	a3,a5
	li	a2,160
	ld	a0,-80(s0)
	call	UnicodeValueToStringS@plt
	.loc 1 2184 53
	ld	a4,-80(s0)
	.loc 1 2184 72
	ld	a5,-136(s0)
	.loc 1 2184 70
	sub	a5,a4,a5
	.loc 1 2184 91
	srli	a5,a5,1
	.loc 1 2184 50
	ld	a4,-128(s0)
	sub	a5,a4,a5
	.loc 1 2184 22
	mv	a1,a5
	ld	a0,-80(s0)
	call	StrnLenS@plt
	mv	a5,a0
	.loc 1 2184 19 discriminator 1
	slli	a5,a5,1
	ld	a4,-80(s0)
	add	a5,a4,a5
	sd	a5,-80(s0)
	.loc 1 2176 41 discriminator 2
	ld	a5,-72(s0)
	addi	a5,a5,2
	sd	a5,-72(s0)
.L323:
	.loc 1 2176 15 discriminator 1
	ld	a5,-72(s0)
	lhu	a5,0(a5)
	.loc 1 2176 24 discriminator 1
	bne	a5,zero,.L324
	.loc 1 2170 8
	j	.L325
.L322:
	.loc 1 2190 38
	ld	a5,-112(s0)
	addi	a5,a5,-1
	.loc 1 2190 17
	ld	a4,-32(s0)
	add	a5,a4,a5
	sd	a5,-64(s0)
	.loc 1 2191 17
	ld	a5,-40(s0)
	sd	a5,-80(s0)
	.loc 1 2192 18
	sd	zero,-88(s0)
	.loc 1 2192 7
	j	.L326
.L327:
	.loc 1 2195 18
	ld	a5,-128(s0)
	slli	a4,a5,1
	.loc 1 2195 58
	ld	a3,-136(s0)
	.loc 1 2195 39
	ld	a5,-80(s0)
	.loc 1 2195 36
	sub	a5,a3,a5
	add	a1,a4,a5
	.loc 1 2197 11
	ld	a5,-64(s0)
	lbu	a5,0(a5)
	.loc 1 2193 9
	li	a4,2
	mv	a3,a5
	li	a2,160
	ld	a0,-80(s0)
	call	UnicodeValueToStringS@plt
	.loc 1 2200 53
	ld	a4,-80(s0)
	.loc 1 2200 72
	ld	a5,-136(s0)
	.loc 1 2200 70
	sub	a5,a4,a5
	.loc 1 2200 91
	srli	a5,a5,1
	.loc 1 2200 50
	ld	a4,-128(s0)
	sub	a5,a4,a5
	.loc 1 2200 22
	mv	a1,a5
	ld	a0,-80(s0)
	call	StrnLenS@plt
	mv	a5,a0
	.loc 1 2200 19 discriminator 1
	slli	a5,a5,1
	ld	a4,-80(s0)
	add	a5,a4,a5
	sd	a5,-80(s0)
	.loc 1 2192 50 discriminator 3
	ld	a5,-88(s0)
	addi	a5,a5,1
	sd	a5,-88(s0)
	.loc 1 2192 63 discriminator 3
	ld	a5,-64(s0)
	addi	a5,a5,-1
	sd	a5,-64(s0)
.L326:
	.loc 1 2192 29 discriminator 1
	ld	a4,-88(s0)
	ld	a5,-112(s0)
	bltu	a4,a5,.L327
.L325:
	.loc 1 2207 20
	ld	a5,-40(s0)
	sd	a5,-80(s0)
	.loc 1 2207 5
	j	.L328
.L330:
	.loc 1 2208 12
	ld	a5,-40(s0)
	lhu	a5,0(a5)
	.loc 1 2208 10
	sext.w	a4,a5
	li	a5,64
	bleu	a4,a5,.L329
	.loc 1 2208 32 discriminator 1
	ld	a5,-40(s0)
	lhu	a5,0(a5)
	.loc 1 2208 28 discriminator 1
	sext.w	a4,a5
	li	a5,90
	bgtu	a4,a5,.L329
	.loc 1 2209 27
	ld	a5,-40(s0)
	lhu	a5,0(a5)
	.loc 1 2209 18
	addiw	a5,a5,32
	slli	a4,a5,48
	srli	a4,a4,48
	.loc 1 2209 16
	ld	a5,-40(s0)
	sh	a4,0(a5)
.L329:
	.loc 1 2207 51 discriminator 2
	ld	a5,-40(s0)
	addi	a5,a5,2
	sd	a5,-40(s0)
.L328:
	.loc 1 2207 29 discriminator 1
	ld	a5,-40(s0)
	lhu	a5,0(a5)
	.loc 1 2207 36 discriminator 1
	bne	a5,zero,.L330
	.loc 1 2216 31
	lla	a5,mHiiConfigRouting
	ld	a5,0(a5)
	ld	a5,16(a5)
	.loc 1 2216 14
	lla	a4,mHiiConfigRouting
	ld	a4,0(a4)
	addi	a3,s0,-176
	mv	a2,a3
	ld	a1,-136(s0)
	mv	a0,a4
	jalr	a5
.LVL21:
	sd	a0,-24(s0)
	.loc 1 2221 36
	ld	a5,-24(s0)
	.loc 1 2221 8
	bge	a5,zero,.L331
	.loc 1 2222 7
	ld	a0,-136(s0)
	call	FreePool@plt
	.loc 1 2223 14
	ld	a5,-24(s0)
	j	.L332
.L331:
	.loc 1 2226 5
	ld	a0,-136(s0)
	call	FreePool@plt
	.loc 1 2231 21
	ld	a5,-96(s0)
	ld	a5,72(a5)
	.loc 1 2231 54
	ld	a4,-216(s0)
	lhu	a4,64(a4)
	.loc 1 2231 30
	add	a5,a5,a4
	.loc 1 2231 5
	ld	a2,-112(s0)
	ld	a1,-32(s0)
	mv	a0,a5
	call	CopyMem@plt
	j	.L315
.L334:
	.loc 1 2062 8
	nop
.L315:
	.loc 1 2234 10
	ld	a5,-24(s0)
.L332:
	.loc 1 2235 1
	mv	a0,a5
	ld	ra,216(sp)
	.cfi_restore 1
	ld	s0,208(sp)
	.cfi_restore 8
	.cfi_def_cfa 2, 224
	addi	sp,sp,224
	.cfi_def_cfa_offset 0
	jr	ra
	.cfi_endproc
.LFE26:
	.size	SetQuestionValue, .-SetQuestionValue
	.section	.text.ValidateQuestion,"ax",@progbits
	.align	1
	.globl	ValidateQuestion
	.type	ValidateQuestion, @function
ValidateQuestion:
.LFB27:
	.loc 1 2256 1
	.cfi_startproc
	addi	sp,sp,-96
	.cfi_def_cfa_offset 96
	sd	ra,88(sp)
	sd	s0,80(sp)
	.cfi_offset 1, -8
	.cfi_offset 8, -16
	addi	s0,sp,96
	.cfi_def_cfa 8, 0
	sd	a0,-72(s0)
	sd	a1,-80(s0)
	sd	a2,-88(s0)
	sd	a3,-96(s0)
	.loc 1 2264 17
	sw	zero,-44(s0)
	.loc 1 2265 12
	sd	zero,-56(s0)
	.loc 1 2267 3
	ld	a4,-96(s0)
	li	a5,9
	beq	a4,a5,.L336
	ld	a4,-96(s0)
	li	a5,9
	bgtu	a4,a5,.L337
	ld	a5,-96(s0)
	beq	a5,zero,.L338
	ld	a4,-96(s0)
	li	a5,1
	beq	a4,a5,.L339
	j	.L337
.L338:
	.loc 1 2269 16
	ld	a5,-88(s0)
	addi	a5,a5,256
	sd	a5,-32(s0)
	.loc 1 2270 7
	j	.L340
.L336:
	.loc 1 2273 16
	ld	a5,-88(s0)
	addi	a5,a5,288
	sd	a5,-32(s0)
	.loc 1 2274 7
	j	.L340
.L339:
	.loc 1 2277 16
	ld	a5,-88(s0)
	addi	a5,a5,272
	sd	a5,-32(s0)
	.loc 1 2278 7
	j	.L340
.L337:
	.loc 1 2282 14
	li	a5,-1
	slli	a5,a5,63
	addi	a5,a5,3
	j	.L341
.L340:
	.loc 1 2285 10
	ld	a0,-32(s0)
	call	GetFirstNode@plt
	sd	a0,-24(s0)
	.loc 1 2286 9
	j	.L342
.L357:
	.loc 1 2287 20
	ld	a5,-24(s0)
	addi	a5,a5,-8
	.loc 1 2287 122
	ld	a4,0(a5)
	.loc 1 2287 207
	li	a5,1347960832
	addi	a5,a5,1350
	bne	a4,a5,.L343
	.loc 1 2287 16 discriminator 1
	ld	a5,-24(s0)
	addi	a5,a5,-8
	sd	a5,-40(s0)
	j	.L344
.L343:
	.loc 1 2287 16 is_stmt 0 discriminator 2
	sd	zero,-40(s0)
.L344:
	.loc 1 2292 14 is_stmt 1
	ld	a2,-40(s0)
	ld	a1,-80(s0)
	ld	a0,-72(s0)
	call	EvaluateExpression@plt
	sd	a0,-64(s0)
	.loc 1 2293 36
	ld	a5,-64(s0)
	.loc 1 2293 8
	bge	a5,zero,.L345
	.loc 1 2294 14
	ld	a5,-64(s0)
	j	.L341
.L345:
	.loc 1 2297 9
	ld	a5,-40(s0)
	addi	a5,a5,32
	mv	a0,a5
	call	IsTrue@plt
	mv	a5,a0
	.loc 1 2297 8 discriminator 1
	beq	a5,zero,.L346
	.loc 1 2298 7
	ld	a4,-96(s0)
	li	a5,9
	beq	a4,a5,.L347
	ld	a4,-96(s0)
	li	a5,9
	bgtu	a4,a5,.L358
	ld	a5,-96(s0)
	beq	a5,zero,.L349
	ld	a4,-96(s0)
	li	a5,1
	beq	a4,a5,.L350
	.loc 1 2321 11
	j	.L358
.L349:
	.loc 1 2300 25
	li	a5,-2147483648
	addi	a5,a5,6
	sw	a5,-44(s0)
	.loc 1 2301 11
	j	.L351
.L347:
	.loc 1 2304 25
	li	a5,-2147483648
	addi	a5,a5,7
	sw	a5,-44(s0)
	.loc 1 2305 11
	j	.L351
.L350:
	.loc 1 2308 25
	li	a5,-2147483648
	addi	a5,a5,2
	sw	a5,-44(s0)
	.loc 1 2313 25
	ld	a5,-40(s0)
	lhu	a5,26(a5)
	.loc 1 2313 14
	beq	a5,zero,.L359
	.loc 1 2314 24
	ld	a5,-40(s0)
	lhu	a4,26(a5)
	ld	a5,-72(s0)
	ld	a5,40(a5)
	mv	a1,a5
	mv	a0,a4
	call	GetToken
	sd	a0,-56(s0)
	.loc 1 2317 11
	j	.L359
.L358:
	.loc 1 2321 11
	nop
	j	.L351
.L359:
	.loc 1 2317 11
	nop
.L351:
	.loc 1 2324 10
	ld	a4,-96(s0)
	li	a5,1
	bne	a4,a5,.L353
	.loc 1 2324 25 discriminator 1
	lla	a5,mSystemSubmit
	lbu	a5,0(a5)
	.loc 1 2324 11 discriminator 1
	bne	a5,zero,.L354
.L353:
	.loc 1 2329 9
	ld	a5,-72(s0)
	ld	a4,40(a5)
	ld	a5,-40(s0)
	ld	a2,80(a5)
	lw	a5,-44(s0)
	ld	a3,-56(s0)
	mv	a1,a4
	mv	a0,a5
	call	PopupErrorMessage
.L354:
	.loc 1 2332 10
	ld	a5,-56(s0)
	beq	a5,zero,.L355
	.loc 1 2333 9
	ld	a0,-56(s0)
	call	FreePool@plt
.L355:
	.loc 1 2336 10
	ld	a4,-96(s0)
	li	a5,9
	bne	a4,a5,.L356
	.loc 1 2337 16
	li	a5,0
	j	.L341
.L356:
	.loc 1 2339 16
	li	a5,-1
	slli	a5,a5,63
	addi	a5,a5,6
	j	.L341
.L346:
	.loc 1 2343 12
	ld	a1,-24(s0)
	ld	a0,-32(s0)
	call	GetNextNode@plt
	sd	a0,-24(s0)
.L342:
	.loc 1 2286 11
	ld	a1,-24(s0)
	ld	a0,-32(s0)
	call	IsNull@plt
	mv	a5,a0
	.loc 1 2286 10 discriminator 1
	beq	a5,zero,.L357
	.loc 1 2346 10
	li	a5,0
.L341:
	.loc 1 2347 1
	mv	a0,a5
	ld	ra,88(sp)
	.cfi_restore 1
	ld	s0,80(sp)
	.cfi_restore 8
	.cfi_def_cfa 2, 96
	addi	sp,sp,96
	.cfi_def_cfa_offset 0
	jr	ra
	.cfi_endproc
.LFE27:
	.size	ValidateQuestion, .-ValidateQuestion
	.section	.text.ValueChangedValidation,"ax",@progbits
	.align	1
	.globl	ValueChangedValidation
	.type	ValueChangedValidation, @function
ValueChangedValidation:
.LFB28:
	.loc 1 2369 1
	.cfi_startproc
	addi	sp,sp,-64
	.cfi_def_cfa_offset 64
	sd	ra,56(sp)
	sd	s0,48(sp)
	.cfi_offset 1, -8
	.cfi_offset 8, -16
	addi	s0,sp,64
	.cfi_def_cfa 8, 0
	sd	a0,-40(s0)
	sd	a1,-48(s0)
	sd	a2,-56(s0)
	.loc 1 2372 10
	sd	zero,-24(s0)
	.loc 1 2377 21
	ld	a5,-56(s0)
	addi	a5,a5,256
	.loc 1 2377 8
	mv	a0,a5
	call	IsListEmpty@plt
	mv	a5,a0
	.loc 1 2377 6 discriminator 1
	bne	a5,zero,.L361
	.loc 1 2378 14
	li	a3,0
	ld	a2,-56(s0)
	ld	a1,-48(s0)
	ld	a0,-40(s0)
	call	ValidateQuestion
	sd	a0,-24(s0)
	.loc 1 2379 36
	ld	a5,-24(s0)
	.loc 1 2379 8
	bge	a5,zero,.L361
	.loc 1 2380 14
	ld	a5,-24(s0)
	j	.L362
.L361:
	.loc 1 2387 21
	ld	a5,-56(s0)
	addi	a5,a5,288
	.loc 1 2387 8
	mv	a0,a5
	call	IsListEmpty@plt
	mv	a5,a0
	.loc 1 2387 6 discriminator 1
	bne	a5,zero,.L363
	.loc 1 2388 14
	li	a3,9
	ld	a2,-56(s0)
	ld	a1,-48(s0)
	ld	a0,-40(s0)
	call	ValidateQuestion
	sd	a0,-24(s0)
.L363:
	.loc 1 2391 10
	ld	a5,-24(s0)
.L362:
	.loc 1 2392 1
	mv	a0,a5
	ld	ra,56(sp)
	.cfi_restore 1
	ld	s0,48(sp)
	.cfi_restore 8
	.cfi_def_cfa 2, 64
	addi	sp,sp,64
	.cfi_def_cfa_offset 0
	jr	ra
	.cfi_endproc
.LFE28:
	.size	ValueChangedValidation, .-ValueChangedValidation
	.section	.text.NoSubmitCheck,"ax",@progbits
	.align	1
	.globl	NoSubmitCheck
	.type	NoSubmitCheck, @function
NoSubmitCheck:
.LFB29:
	.loc 1 2411 1
	.cfi_startproc
	addi	sp,sp,-96
	.cfi_def_cfa_offset 96
	sd	ra,88(sp)
	sd	s0,80(sp)
	.cfi_offset 1, -8
	.cfi_offset 8, -16
	addi	s0,sp,96
	.cfi_def_cfa 8, 0
	sd	a0,-72(s0)
	sd	a1,-80(s0)
	sd	a2,-88(s0)
	.loc 1 2418 28
	ld	a5,-72(s0)
	addi	a5,a5,280
	.loc 1 2418 14
	mv	a0,a5
	call	GetFirstNode@plt
	sd	a0,-48(s0)
	.loc 1 2419 9
	j	.L365
.L378:
	.loc 1 2420 14
	ld	a5,-48(s0)
	addi	a5,a5,-8
	.loc 1 2420 124
	ld	a4,0(a5)
	.loc 1 2420 209
	li	a5,1297235968
	addi	a5,a5,1606
	bne	a4,a5,.L366
	.loc 1 2420 10 discriminator 1
	ld	a5,-48(s0)
	addi	a5,a5,-8
	sd	a5,-40(s0)
	j	.L367
.L366:
	.loc 1 2420 10 is_stmt 0 discriminator 2
	sd	zero,-40(s0)
.L367:
	.loc 1 2421 29 is_stmt 1
	ld	a5,-72(s0)
	addi	a5,a5,280
	.loc 1 2421 16
	ld	a1,-48(s0)
	mv	a0,a5
	call	GetNextNode@plt
	sd	a0,-48(s0)
	.loc 1 2423 10
	ld	a5,-80(s0)
	ld	a5,0(a5)
	.loc 1 2423 8
	beq	a5,zero,.L368
	.loc 1 2423 44 discriminator 1
	ld	a5,-80(s0)
	ld	a5,0(a5)
	.loc 1 2423 40 discriminator 1
	ld	a4,-40(s0)
	bne	a4,a5,.L379
.L368:
	.loc 1 2427 26
	ld	a5,-40(s0)
	addi	a5,a5,88
	.loc 1 2427 12
	mv	a0,a5
	call	GetFirstNode@plt
	sd	a0,-24(s0)
	.loc 1 2428 11
	j	.L370
.L377:
	.loc 1 2429 20
	ld	a5,-24(s0)
	addi	a5,a5,-8
	.loc 1 2429 136
	ld	a4,0(a5)
	.loc 1 2429 221
	li	a5,1096044544
	addi	a5,a5,838
	bne	a4,a5,.L371
	.loc 1 2429 16 discriminator 1
	ld	a5,-24(s0)
	addi	a5,a5,-8
	sd	a5,-32(s0)
	j	.L372
.L371:
	.loc 1 2429 16 is_stmt 0 discriminator 2
	sd	zero,-32(s0)
.L372:
	.loc 1 2430 16 is_stmt 1
	li	a3,1
	ld	a2,-32(s0)
	ld	a1,-40(s0)
	ld	a0,-72(s0)
	call	ValidateQuestion
	sd	a0,-56(s0)
	.loc 1 2431 38
	ld	a5,-56(s0)
	.loc 1 2431 10
	bge	a5,zero,.L373
	.loc 1 2432 13
	ld	a5,-80(s0)
	ld	a5,0(a5)
	.loc 1 2432 12
	bne	a5,zero,.L374
	.loc 1 2433 24
	ld	a5,-80(s0)
	ld	a4,-40(s0)
	sd	a4,0(a5)
.L374:
	.loc 1 2436 12
	ld	a5,-88(s0)
	beq	a5,zero,.L375
	.loc 1 2437 22
	ld	a5,-88(s0)
	ld	a4,-32(s0)
	sd	a4,0(a5)
.L375:
	.loc 1 2440 16
	ld	a5,-56(s0)
	j	.L376
.L373:
	.loc 1 2443 27
	ld	a5,-40(s0)
	addi	a5,a5,88
	.loc 1 2443 14
	ld	a1,-24(s0)
	mv	a0,a5
	call	GetNextNode@plt
	sd	a0,-24(s0)
.L370:
	.loc 1 2428 21
	ld	a5,-40(s0)
	addi	a5,a5,88
	.loc 1 2428 13
	ld	a1,-24(s0)
	mv	a0,a5
	call	IsNull@plt
	mv	a5,a0
	.loc 1 2428 12 discriminator 1
	beq	a5,zero,.L377
	j	.L365
.L379:
	.loc 1 2424 7
	nop
.L365:
	.loc 1 2419 19
	ld	a5,-72(s0)
	addi	a5,a5,280
	.loc 1 2419 11
	ld	a1,-48(s0)
	mv	a0,a5
	call	IsNull@plt
	mv	a5,a0
	.loc 1 2419 10 discriminator 1
	beq	a5,zero,.L378
	.loc 1 2447 10
	li	a5,0
.L376:
	.loc 1 2448 1
	mv	a0,a5
	ld	ra,88(sp)
	.cfi_restore 1
	ld	s0,80(sp)
	.cfi_restore 8
	.cfi_def_cfa 2, 96
	addi	sp,sp,96
	.cfi_def_cfa_offset 0
	jr	ra
	.cfi_endproc
.LFE29:
	.size	NoSubmitCheck, .-NoSubmitCheck
	.section	.text.SynchronizeStorage,"ax",@progbits
	.align	1
	.globl	SynchronizeStorage
	.type	SynchronizeStorage, @function
SynchronizeStorage:
.LFB30:
	.loc 1 2469 1
	.cfi_startproc
	addi	sp,sp,-112
	.cfi_def_cfa_offset 112
	sd	ra,104(sp)
	sd	s0,96(sp)
	.cfi_offset 1, -8
	.cfi_offset 8, -16
	addi	s0,sp,112
	.cfi_def_cfa 8, 0
	sd	a0,-88(s0)
	sd	a1,-96(s0)
	mv	a5,a2
	sb	a5,-97(s0)
	.loc 1 2479 10
	sd	zero,-24(s0)
	.loc 1 2480 10
	sd	zero,-72(s0)
	.loc 1 2482 15
	ld	a5,-88(s0)
	lbu	a5,24(a5)
	.loc 1 2482 6
	beq	a5,zero,.L381
	.loc 1 2483 15
	ld	a5,-88(s0)
	lbu	a5,24(a5)
	.loc 1 2482 28 discriminator 1
	mv	a4,a5
	li	a5,3
	bne	a4,a5,.L382
.L381:
	.loc 1 2485 25
	ld	a5,-88(s0)
	lhu	a5,64(a5)
	.loc 1 2485 16
	sd	a5,-80(s0)
	.loc 1 2487 8
	lbu	a5,-97(s0)
	andi	a5,a5,0xff
	beq	a5,zero,.L383
	.loc 1 2488 11
	ld	a5,-88(s0)
	ld	a5,80(a5)
	sd	a5,-48(s0)
	.loc 1 2489 11
	ld	a5,-88(s0)
	ld	a5,72(a5)
	sd	a5,-56(s0)
	j	.L384
.L383:
	.loc 1 2491 11
	ld	a5,-88(s0)
	ld	a5,72(a5)
	sd	a5,-48(s0)
	.loc 1 2492 11
	ld	a5,-88(s0)
	ld	a5,80(a5)
	sd	a5,-56(s0)
.L384:
	.loc 1 2495 8
	ld	a5,-96(s0)
	beq	a5,zero,.L385
	.loc 1 2496 33
	lla	a5,mHiiConfigRouting
	ld	a5,0(a5)
	ld	a6,24(a5)
	.loc 1 2496 16
	lla	a5,mHiiConfigRouting
	ld	a0,0(a5)
	ld	a3,-80(s0)
	addi	a5,s0,-64
	addi	a4,s0,-72
	ld	a2,-48(s0)
	ld	a1,-96(s0)
	jalr	a6
.LVL22:
	sd	a0,-24(s0)
	.loc 1 2504 38
	ld	a5,-24(s0)
	.loc 1 2504 10
	bge	a5,zero,.L386
	.loc 1 2505 16
	ld	a5,-24(s0)
	j	.L398
.L386:
	.loc 1 2508 33
	lla	a5,mHiiConfigRouting
	ld	a5,0(a5)
	ld	a5,32(a5)
	.loc 1 2508 16
	lla	a4,mHiiConfigRouting
	ld	a0,0(a4)
	ld	a1,-72(s0)
	addi	a4,s0,-64
	addi	a3,s0,-80
	ld	a2,-56(s0)
	jalr	a5
.LVL23:
	sd	a0,-24(s0)
	.loc 1 2515 18
	ld	a5,-72(s0)
	.loc 1 2515 10
	beq	a5,zero,.L399
	.loc 1 2516 9
	ld	a5,-72(s0)
	mv	a0,a5
	call	FreePool@plt
	.loc 1 2495 8
	j	.L399
.L385:
	.loc 1 2519 7
	ld	a5,-80(s0)
	mv	a2,a5
	ld	a1,-48(s0)
	ld	a0,-56(s0)
	call	CopyMem@plt
	.loc 1 2495 8
	j	.L399
.L382:
	.loc 1 2521 21
	ld	a5,-88(s0)
	lbu	a5,24(a5)
	.loc 1 2521 13
	mv	a4,a5
	li	a5,1
	bne	a4,a5,.L389
	.loc 1 2522 26
	ld	a5,-88(s0)
	addi	a5,a5,88
	.loc 1 2522 12
	mv	a0,a5
	call	GetFirstNode@plt
	sd	a0,-32(s0)
	.loc 1 2523 11
	j	.L390
.L397:
	.loc 1 2524 16
	ld	a5,-32(s0)
	addi	a5,a5,-8
	.loc 1 2524 118
	ld	a4,0(a5)
	.loc 1 2524 203
	li	a5,1414746112
	addi	a5,a5,1614
	bne	a4,a5,.L391
	.loc 1 2524 12 discriminator 1
	ld	a5,-32(s0)
	addi	a5,a5,-8
	sd	a5,-40(s0)
	j	.L392
.L391:
	.loc 1 2524 12 is_stmt 0 discriminator 2
	sd	zero,-40(s0)
.L392:
	.loc 1 2526 10 is_stmt 1
	ld	a5,-96(s0)
	beq	a5,zero,.L393
	.loc 1 2526 75 discriminator 1
	ld	a5,-40(s0)
	ld	a5,24(a5)
	.loc 1 2526 48 discriminator 1
	mv	a1,a5
	ld	a0,-96(s0)
	call	StrStr@plt
	mv	a5,a0
	.loc 1 2526 44 discriminator 3
	bne	a5,zero,.L394
.L393:
	.loc 1 2526 101 discriminator 4
	ld	a5,-96(s0)
	bne	a5,zero,.L395
.L394:
	.loc 1 2529 12
	lbu	a5,-97(s0)
	andi	a5,a5,0xff
	beq	a5,zero,.L396
	.loc 1 2530 11
	ld	a5,-40(s0)
	addi	a4,a5,32
	ld	a5,-40(s0)
	ld	a5,40(a5)
	mv	a1,a5
	mv	a0,a4
	call	NewStringCpy
	j	.L395
.L396:
	.loc 1 2532 11
	ld	a5,-40(s0)
	addi	a4,a5,40
	ld	a5,-40(s0)
	ld	a5,32(a5)
	mv	a1,a5
	mv	a0,a4
	call	NewStringCpy
.L395:
	.loc 1 2536 27
	ld	a5,-88(s0)
	addi	a5,a5,88
	.loc 1 2536 14
	ld	a1,-32(s0)
	mv	a0,a5
	call	GetNextNode@plt
	sd	a0,-32(s0)
.L390:
	.loc 1 2523 21
	ld	a5,-88(s0)
	addi	a5,a5,88
	.loc 1 2523 13
	ld	a1,-32(s0)
	mv	a0,a5
	call	IsNull@plt
	mv	a5,a0
	.loc 1 2523 12 discriminator 1
	beq	a5,zero,.L397
	j	.L389
.L399:
	.loc 1 2495 8
	nop
.L389:
	.loc 1 2540 10
	ld	a5,-24(s0)
.L398:
	.loc 1 2541 1
	mv	a0,a5
	ld	ra,104(sp)
	.cfi_restore 1
	ld	s0,96(sp)
	.cfi_restore 8
	.cfi_def_cfa 2, 112
	addi	sp,sp,112
	.cfi_def_cfa_offset 0
	jr	ra
	.cfi_endproc
.LFE30:
	.size	SynchronizeStorage, .-SynchronizeStorage
	.section	.text.SendDiscardInfoToDriver,"ax",@progbits
	.align	1
	.globl	SendDiscardInfoToDriver
	.type	SendDiscardInfoToDriver, @function
SendDiscardInfoToDriver:
.LFB31:
	.loc 1 2556 1
	.cfi_startproc
	addi	sp,sp,-64
	.cfi_def_cfa_offset 64
	sd	ra,56(sp)
	sd	s0,48(sp)
	.cfi_offset 1, -8
	.cfi_offset 8, -16
	addi	s0,sp,64
	.cfi_def_cfa 8, 0
	sd	a0,-56(s0)
	sd	a1,-64(s0)
	.loc 1 2562 14
	ld	a5,-56(s0)
	ld	a5,56(a5)
	.loc 1 2562 6
	beq	a5,zero,.L416
	.loc 1 2566 24
	ld	a5,-64(s0)
	addi	a5,a5,88
	.loc 1 2566 10
	mv	a0,a5
	call	GetFirstNode@plt
	sd	a0,-24(s0)
	.loc 1 2567 9
	j	.L403
.L415:
	.loc 1 2568 18
	ld	a5,-24(s0)
	addi	a5,a5,-8
	.loc 1 2568 134
	ld	a4,0(a5)
	.loc 1 2568 219
	li	a5,1096044544
	addi	a5,a5,838
	bne	a4,a5,.L404
	.loc 1 2568 14 discriminator 1
	ld	a5,-24(s0)
	addi	a5,a5,-8
	sd	a5,-32(s0)
	j	.L405
.L404:
	.loc 1 2568 14 is_stmt 0 discriminator 2
	sd	zero,-32(s0)
.L405:
	.loc 1 2569 25 is_stmt 1
	ld	a5,-64(s0)
	addi	a5,a5,88
	.loc 1 2569 12
	ld	a1,-24(s0)
	mv	a0,a5
	call	GetNextNode@plt
	sd	a0,-24(s0)
	.loc 1 2571 18
	ld	a5,-32(s0)
	ld	a5,56(a5)
	.loc 1 2571 8
	beq	a5,zero,.L417
	.loc 1 2571 57 discriminator 2
	ld	a5,-32(s0)
	ld	a5,56(a5)
	.loc 1 2571 66 discriminator 2
	lbu	a5,24(a5)
	.loc 1 2571 45 discriminator 2
	mv	a4,a5
	li	a5,2
	beq	a4,a5,.L417
	.loc 1 2575 18
	ld	a5,-32(s0)
	lbu	a5,72(a5)
	.loc 1 2575 34
	sext.w	a5,a5
	andi	a5,a5,4
	sext.w	a5,a5
	.loc 1 2575 8
	beq	a5,zero,.L418
	.loc 1 2579 17
	ld	a5,-32(s0)
	lbu	a5,24(a5)
	.loc 1 2579 8
	mv	a4,a5
	li	a5,8
	beq	a4,a5,.L419
	.loc 1 2583 18
	ld	a5,-32(s0)
	lbu	a5,197(a5)
	.loc 1 2583 8
	beq	a5,zero,.L420
	.loc 1 2590 5
	li	a3,0
	ld	a2,-32(s0)
	ld	a1,-64(s0)
	ld	a0,-56(s0)
	call	GetQuestionValue
	.loc 1 2592 17
	ld	a5,-32(s0)
	lbu	a5,24(a5)
	.loc 1 2592 8
	mv	a4,a5
	li	a5,28
	bne	a4,a5,.L412
	.loc 1 2593 7
	ld	a5,-56(s0)
	ld	a4,40(a5)
	ld	a5,-32(s0)
	lhu	a1,114(a5)
	.loc 1 2593 92
	ld	a5,-32(s0)
	ld	a5,136(a5)
	.loc 1 2593 7
	li	a3,0
	mv	a2,a5
	mv	a0,a4
	call	HiiSetString@plt
.L412:
	.loc 1 2596 27
	ld	a5,-32(s0)
	lbu	a5,96(a5)
	.loc 1 2596 8
	mv	a4,a5
	li	a5,11
	bne	a4,a5,.L413
	.loc 1 2597 17
	ld	a5,-32(s0)
	ld	a5,136(a5)
	sd	a5,-40(s0)
	j	.L414
.L413:
	.loc 1 2599 17
	ld	a5,-32(s0)
	addi	a5,a5,114
	sd	a5,-40(s0)
.L414:
	.loc 1 2602 19
	sd	zero,-48(s0)
	.loc 1 2603 12
	ld	a5,-56(s0)
	ld	a5,56(a5)
	.loc 1 2603 26
	ld	a6,16(a5)
	.loc 1 2604 37
	ld	a5,-56(s0)
	ld	a0,56(a5)
	.loc 1 2603 5
	ld	a5,-32(s0)
	lhu	a2,48(a5)
	ld	a5,-32(s0)
	lbu	a3,96(a5)
	addi	a5,s0,-48
	ld	a4,-40(s0)
	li	a1,1
	jalr	a6
.LVL24:
	j	.L403
.L417:
	.loc 1 2572 7
	nop
	j	.L403
.L418:
	.loc 1 2576 7
	nop
	j	.L403
.L419:
	.loc 1 2580 7
	nop
	j	.L403
.L420:
	.loc 1 2584 7
	nop
.L403:
	.loc 1 2567 19
	ld	a5,-64(s0)
	addi	a5,a5,88
	.loc 1 2567 11
	ld	a1,-24(s0)
	mv	a0,a5
	call	IsNull@plt
	mv	a5,a0
	.loc 1 2567 10 discriminator 1
	beq	a5,zero,.L415
	j	.L400
.L416:
	.loc 1 2563 5 discriminator 1
	nop
.L400:
	.loc 1 2612 1
	ld	ra,56(sp)
	.cfi_restore 1
	ld	s0,48(sp)
	.cfi_restore 8
	.cfi_def_cfa 2, 64
	addi	sp,sp,64
	.cfi_def_cfa_offset 0
	jr	ra
	.cfi_endproc
.LFE31:
	.size	SendDiscardInfoToDriver, .-SendDiscardInfoToDriver
	.section	.text.SubmitCallbackForForm,"ax",@progbits
	.align	1
	.globl	SubmitCallbackForForm
	.type	SubmitCallbackForForm, @function
SubmitCallbackForForm:
.LFB32:
	.loc 1 2627 1
	.cfi_startproc
	addi	sp,sp,-64
	.cfi_def_cfa_offset 64
	sd	ra,56(sp)
	sd	s0,48(sp)
	.cfi_offset 1, -8
	.cfi_offset 8, -16
	addi	s0,sp,64
	.cfi_def_cfa 8, 0
	sd	a0,-56(s0)
	sd	a1,-64(s0)
	.loc 1 2633 14
	ld	a5,-56(s0)
	ld	a5,56(a5)
	.loc 1 2633 6
	beq	a5,zero,.L435
	.loc 1 2637 24
	ld	a5,-64(s0)
	addi	a5,a5,88
	.loc 1 2637 10
	mv	a0,a5
	call	GetFirstNode@plt
	sd	a0,-24(s0)
	.loc 1 2638 9
	j	.L424
.L434:
	.loc 1 2639 18
	ld	a5,-24(s0)
	addi	a5,a5,-8
	.loc 1 2639 134
	ld	a4,0(a5)
	.loc 1 2639 219
	li	a5,1096044544
	addi	a5,a5,838
	bne	a4,a5,.L425
	.loc 1 2639 14 discriminator 1
	ld	a5,-24(s0)
	addi	a5,a5,-8
	sd	a5,-32(s0)
	j	.L426
.L425:
	.loc 1 2639 14 is_stmt 0 discriminator 2
	sd	zero,-32(s0)
.L426:
	.loc 1 2640 25 is_stmt 1
	ld	a5,-64(s0)
	addi	a5,a5,88
	.loc 1 2640 12
	ld	a1,-24(s0)
	mv	a0,a5
	call	GetNextNode@plt
	sd	a0,-24(s0)
	.loc 1 2642 18
	ld	a5,-32(s0)
	ld	a5,56(a5)
	.loc 1 2642 8
	beq	a5,zero,.L436
	.loc 1 2642 57 discriminator 2
	ld	a5,-32(s0)
	ld	a5,56(a5)
	.loc 1 2642 66 discriminator 2
	lbu	a5,24(a5)
	.loc 1 2642 45 discriminator 2
	mv	a4,a5
	li	a5,2
	beq	a4,a5,.L436
	.loc 1 2646 18
	ld	a5,-32(s0)
	lbu	a5,72(a5)
	.loc 1 2646 34
	sext.w	a5,a5
	andi	a5,a5,4
	sext.w	a5,a5
	.loc 1 2646 8
	beq	a5,zero,.L437
	.loc 1 2650 17
	ld	a5,-32(s0)
	lbu	a5,24(a5)
	.loc 1 2650 8
	mv	a4,a5
	li	a5,8
	beq	a4,a5,.L438
	.loc 1 2654 27
	ld	a5,-32(s0)
	lbu	a5,96(a5)
	.loc 1 2654 8
	mv	a4,a5
	li	a5,11
	bne	a4,a5,.L432
	.loc 1 2655 17
	ld	a5,-32(s0)
	ld	a5,136(a5)
	sd	a5,-40(s0)
	j	.L433
.L432:
	.loc 1 2657 17
	ld	a5,-32(s0)
	addi	a5,a5,114
	sd	a5,-40(s0)
.L433:
	.loc 1 2660 19
	sd	zero,-48(s0)
	.loc 1 2661 12
	ld	a5,-56(s0)
	ld	a5,56(a5)
	.loc 1 2661 26
	ld	a6,16(a5)
	.loc 1 2662 37
	ld	a5,-56(s0)
	ld	a0,56(a5)
	.loc 1 2661 5
	ld	a5,-32(s0)
	lhu	a2,48(a5)
	ld	a5,-32(s0)
	lbu	a3,96(a5)
	addi	a5,s0,-48
	ld	a4,-40(s0)
	li	a1,5
	jalr	a6
.LVL25:
	j	.L424
.L436:
	.loc 1 2643 7
	nop
	j	.L424
.L437:
	.loc 1 2647 7
	nop
	j	.L424
.L438:
	.loc 1 2651 7
	nop
.L424:
	.loc 1 2638 19
	ld	a5,-64(s0)
	addi	a5,a5,88
	.loc 1 2638 11
	ld	a1,-24(s0)
	mv	a0,a5
	call	IsNull@plt
	mv	a5,a0
	.loc 1 2638 10 discriminator 1
	beq	a5,zero,.L434
	j	.L421
.L435:
	.loc 1 2634 5 discriminator 1
	nop
.L421:
	.loc 1 2670 1
	ld	ra,56(sp)
	.cfi_restore 1
	ld	s0,48(sp)
	.cfi_restore 8
	.cfi_def_cfa 2, 64
	addi	sp,sp,64
	.cfi_def_cfa_offset 0
	jr	ra
	.cfi_endproc
.LFE32:
	.size	SubmitCallbackForForm, .-SubmitCallbackForForm
	.section	.text.SubmitCallback,"ax",@progbits
	.align	1
	.globl	SubmitCallback
	.type	SubmitCallback, @function
SubmitCallback:
.LFB33:
	.loc 1 2684 1
	.cfi_startproc
	addi	sp,sp,-48
	.cfi_def_cfa_offset 48
	sd	ra,40(sp)
	sd	s0,32(sp)
	.cfi_offset 1, -8
	.cfi_offset 8, -16
	addi	s0,sp,48
	.cfi_def_cfa 8, 0
	sd	a0,-40(s0)
	sd	a1,-48(s0)
	.loc 1 2688 6
	ld	a5,-48(s0)
	beq	a5,zero,.L440
	.loc 1 2689 5
	ld	a1,-48(s0)
	ld	a0,-40(s0)
	call	SubmitCallbackForForm
	.loc 1 2690 5
	j	.L439
.L440:
	.loc 1 2693 24
	ld	a5,-40(s0)
	addi	a5,a5,280
	.loc 1 2693 10
	mv	a0,a5
	call	GetFirstNode@plt
	sd	a0,-32(s0)
	.loc 1 2694 9
	j	.L442
.L445:
	.loc 1 2695 21
	ld	a5,-32(s0)
	addi	a5,a5,-8
	.loc 1 2695 127
	ld	a4,0(a5)
	.loc 1 2695 212
	li	a5,1297235968
	addi	a5,a5,1606
	bne	a4,a5,.L443
	.loc 1 2695 17 discriminator 1
	ld	a5,-32(s0)
	addi	a5,a5,-8
	sd	a5,-24(s0)
	j	.L444
.L443:
	.loc 1 2695 17 is_stmt 0 discriminator 2
	sd	zero,-24(s0)
.L444:
	.loc 1 2696 25 is_stmt 1
	ld	a5,-40(s0)
	addi	a5,a5,280
	.loc 1 2696 12
	ld	a1,-32(s0)
	mv	a0,a5
	call	GetNextNode@plt
	sd	a0,-32(s0)
	.loc 1 2698 5
	ld	a1,-24(s0)
	ld	a0,-40(s0)
	call	SubmitCallbackForForm
.L442:
	.loc 1 2694 19
	ld	a5,-40(s0)
	addi	a5,a5,280
	.loc 1 2694 11
	ld	a1,-32(s0)
	mv	a0,a5
	call	IsNull@plt
	mv	a5,a0
	.loc 1 2694 10 discriminator 1
	beq	a5,zero,.L445
.L439:
	.loc 1 2700 1
	ld	ra,40(sp)
	.cfi_restore 1
	ld	s0,32(sp)
	.cfi_restore 8
	.cfi_def_cfa 2, 48
	addi	sp,sp,48
	.cfi_def_cfa_offset 0
	jr	ra
	.cfi_endproc
.LFE33:
	.size	SubmitCallback, .-SubmitCallback
	.section	.text.ValidateHiiHandle,"ax",@progbits
	.align	1
	.globl	ValidateHiiHandle
	.type	ValidateHiiHandle, @function
ValidateHiiHandle:
.LFB34:
	.loc 1 2715 1
	.cfi_startproc
	addi	sp,sp,-64
	.cfi_def_cfa_offset 64
	sd	ra,56(sp)
	sd	s0,48(sp)
	.cfi_offset 1, -8
	.cfi_offset 8, -16
	addi	s0,sp,64
	.cfi_def_cfa 8, 0
	sd	a0,-56(s0)
	.loc 1 2720 6
	ld	a5,-56(s0)
	bne	a5,zero,.L447
	.loc 1 2721 12
	li	a5,0
	j	.L448
.L447:
	.loc 1 2724 8
	sb	zero,-25(s0)
	.loc 1 2726 16
	li	a0,0
	call	HiiGetHiiHandles@plt
	sd	a0,-40(s0)
	.loc 1 2729 14
	sd	zero,-24(s0)
	.loc 1 2729 3
	j	.L449
.L452:
	.loc 1 2730 19
	ld	a5,-24(s0)
	slli	a5,a5,3
	ld	a4,-40(s0)
	add	a5,a4,a5
	ld	a5,0(a5)
	.loc 1 2730 8
	ld	a4,-56(s0)
	bne	a4,a5,.L450
	.loc 1 2731 12
	li	a5,1
	sb	a5,-25(s0)
	.loc 1 2732 7
	j	.L451
.L450:
	.loc 1 2729 59 discriminator 2
	ld	a5,-24(s0)
	addi	a5,a5,1
	sd	a5,-24(s0)
.L449:
	.loc 1 2729 29 discriminator 1
	ld	a5,-24(s0)
	slli	a5,a5,3
	ld	a4,-40(s0)
	add	a5,a4,a5
	ld	a5,0(a5)
	.loc 1 2729 37 discriminator 1
	bne	a5,zero,.L452
.L451:
	.loc 1 2736 3
	ld	a0,-40(s0)
	call	FreePool@plt
	.loc 1 2738 10
	lbu	a5,-25(s0)
.L448:
	.loc 1 2739 1
	mv	a0,a5
	ld	ra,56(sp)
	.cfi_restore 1
	ld	s0,48(sp)
	.cfi_restore 8
	.cfi_def_cfa 2, 64
	addi	sp,sp,64
	.cfi_def_cfa_offset 0
	jr	ra
	.cfi_endproc
.LFE34:
	.size	ValidateHiiHandle, .-ValidateHiiHandle
	.section	.text.ValidateFormSet,"ax",@progbits
	.align	1
	.globl	ValidateFormSet
	.type	ValidateFormSet, @function
ValidateFormSet:
.LFB35:
	.loc 1 2754 1
	.cfi_startproc
	addi	sp,sp,-48
	.cfi_def_cfa_offset 48
	sd	ra,40(sp)
	sd	s0,32(sp)
	.cfi_offset 1, -8
	.cfi_offset 8, -16
	addi	s0,sp,48
	.cfi_def_cfa 8, 0
	sd	a0,-40(s0)
	.loc 1 2759 10
	ld	a5,-40(s0)
	ld	a5,40(a5)
	mv	a0,a5
	call	ValidateHiiHandle
	mv	a5,a0
	sb	a5,-17(s0)
	.loc 1 2763 6
	lbu	a5,-17(s0)
	andi	a5,a5,0xff
	bne	a5,zero,.L454
	.loc 1 2763 45 discriminator 1
	la	a5,gCurrentSelection
	ld	a5,0(a5)
	ld	a5,88(a5)
	.loc 1 2763 13 discriminator 1
	ld	a4,-40(s0)
	beq	a4,a5,.L454
	.loc 1 2764 5
	ld	a0,-40(s0)
	call	CleanBrowserStorage
	.loc 1 2765 22
	ld	a5,-40(s0)
	addi	a5,a5,8
	.loc 1 2765 5
	mv	a0,a5
	call	RemoveEntryList@plt
	.loc 1 2766 5
	ld	a0,-40(s0)
	call	DestroyFormSet@plt
.L454:
	.loc 1 2769 10
	lbu	a5,-17(s0)
	.loc 1 2770 1
	mv	a0,a5
	ld	ra,40(sp)
	.cfi_restore 1
	ld	s0,32(sp)
	.cfi_restore 8
	.cfi_def_cfa 2, 48
	addi	sp,sp,48
	.cfi_def_cfa_offset 0
	jr	ra
	.cfi_endproc
.LFE35:
	.size	ValidateFormSet, .-ValidateFormSet
	.section	.text.UpdateFlagForForm,"ax",@progbits
	.align	1
	.globl	UpdateFlagForForm
	.type	UpdateFlagForForm, @function
UpdateFlagForForm:
.LFB36:
	.loc 1 2787 1
	.cfi_startproc
	addi	sp,sp,-80
	.cfi_def_cfa_offset 80
	sd	ra,72(sp)
	sd	s0,64(sp)
	.cfi_offset 1, -8
	.cfi_offset 8, -16
	addi	s0,sp,80
	.cfi_def_cfa 8, 0
	mv	a5,a0
	sd	a1,-64(s0)
	sd	a2,-72(s0)
	sb	a5,-49(s0)
	.loc 1 2792 24
	ld	a5,-72(s0)
	addi	a5,a5,88
	.loc 1 2792 10
	mv	a0,a5
	call	GetFirstNode@plt
	sd	a0,-24(s0)
	.loc 1 2793 9
	j	.L457
.L463:
	.loc 1 2794 18
	ld	a5,-24(s0)
	addi	a5,a5,-8
	.loc 1 2794 134
	ld	a4,0(a5)
	.loc 1 2794 219
	li	a5,1096044544
	addi	a5,a5,838
	bne	a4,a5,.L458
	.loc 1 2794 14 discriminator 1
	ld	a5,-24(s0)
	addi	a5,a5,-8
	sd	a5,-32(s0)
	j	.L459
.L458:
	.loc 1 2794 14 is_stmt 0 discriminator 2
	sd	zero,-32(s0)
.L459:
	.loc 1 2795 25 is_stmt 1
	ld	a5,-72(s0)
	addi	a5,a5,88
	.loc 1 2795 12
	ld	a1,-24(s0)
	mv	a0,a5
	call	GetNextNode@plt
	sd	a0,-24(s0)
	.loc 1 2797 18
	ld	a5,-32(s0)
	lbu	a5,197(a5)
	.loc 1 2797 8
	beq	a5,zero,.L464
	.loc 1 2801 14
	ld	a5,-32(s0)
	lbu	a5,197(a5)
	sb	a5,-33(s0)
	.loc 1 2806 30
	li	a3,3
	ld	a2,-32(s0)
	ld	a1,-72(s0)
	ld	a0,-64(s0)
	call	IsQuestionValueChanged
	mv	a5,a0
	mv	a4,a5
	.loc 1 2806 28 discriminator 1
	ld	a5,-32(s0)
	sb	a4,197(a5)
	.loc 1 2811 8
	lbu	a5,-49(s0)
	andi	a5,a5,0xff
	beq	a5,zero,.L457
	.loc 1 2811 17 discriminator 1
	lbu	a5,-33(s0)
	andi	a5,a5,0xff
	beq	a5,zero,.L457
	.loc 1 2811 41 discriminator 2
	ld	a5,-32(s0)
	lbu	a5,197(a5)
	.loc 1 2811 29 discriminator 2
	bne	a5,zero,.L457
	.loc 1 2812 20
	ld	a5,-32(s0)
	lbu	a5,72(a5)
	.loc 1 2812 36
	sext.w	a5,a5
	andi	a5,a5,16
	sext.w	a5,a5
	.loc 1 2812 10
	beq	a5,zero,.L462
	.loc 1 2813 33
	lla	a5,gResetRequiredFormLevel
	li	a4,1
	sb	a4,0(a5)
	.loc 1 2814 35
	lla	a5,gResetRequiredSystemLevel
	li	a4,1
	sb	a4,0(a5)
.L462:
	.loc 1 2817 20
	ld	a5,-32(s0)
	lbu	a5,72(a5)
	.loc 1 2817 36
	sext.w	a5,a5
	andi	a5,a5,64
	sext.w	a5,a5
	.loc 1 2817 10
	beq	a5,zero,.L457
	.loc 1 2818 24
	lla	a5,gFlagReconnect
	li	a4,1
	sb	a4,0(a5)
	j	.L457
.L464:
	.loc 1 2798 7
	nop
.L457:
	.loc 1 2793 19
	ld	a5,-72(s0)
	addi	a5,a5,88
	.loc 1 2793 11
	ld	a1,-24(s0)
	mv	a0,a5
	call	IsNull@plt
	mv	a5,a0
	.loc 1 2793 10 discriminator 1
	beq	a5,zero,.L463
	.loc 1 2822 1
	nop
	nop
	ld	ra,72(sp)
	.cfi_restore 1
	ld	s0,64(sp)
	.cfi_restore 8
	.cfi_def_cfa 2, 80
	addi	sp,sp,80
	.cfi_def_cfa_offset 0
	jr	ra
	.cfi_endproc
.LFE36:
	.size	UpdateFlagForForm, .-UpdateFlagForForm
	.section	.text.ValueChangeResetFlagUpdate,"ax",@progbits
	.align	1
	.globl	ValueChangeResetFlagUpdate
	.type	ValueChangeResetFlagUpdate, @function
ValueChangeResetFlagUpdate:
.LFB37:
	.loc 1 2841 1
	.cfi_startproc
	addi	sp,sp,-64
	.cfi_def_cfa_offset 64
	sd	ra,56(sp)
	sd	s0,48(sp)
	.cfi_offset 1, -8
	.cfi_offset 8, -16
	addi	s0,sp,64
	.cfi_def_cfa 8, 0
	mv	a5,a0
	sd	a1,-48(s0)
	sd	a2,-56(s0)
	sb	a5,-33(s0)
	.loc 1 2845 6
	ld	a5,-56(s0)
	beq	a5,zero,.L466
	.loc 1 2846 5
	lbu	a5,-33(s0)
	ld	a2,-56(s0)
	ld	a1,-48(s0)
	mv	a0,a5
	call	UpdateFlagForForm
	.loc 1 2847 5
	j	.L465
.L466:
	.loc 1 2850 24
	ld	a5,-48(s0)
	addi	a5,a5,280
	.loc 1 2850 10
	mv	a0,a5
	call	GetFirstNode@plt
	sd	a0,-32(s0)
	.loc 1 2851 9
	j	.L468
.L471:
	.loc 1 2852 21
	ld	a5,-32(s0)
	addi	a5,a5,-8
	.loc 1 2852 127
	ld	a4,0(a5)
	.loc 1 2852 212
	li	a5,1297235968
	addi	a5,a5,1606
	bne	a4,a5,.L469
	.loc 1 2852 17 discriminator 1
	ld	a5,-32(s0)
	addi	a5,a5,-8
	sd	a5,-24(s0)
	j	.L470
.L469:
	.loc 1 2852 17 is_stmt 0 discriminator 2
	sd	zero,-24(s0)
.L470:
	.loc 1 2853 25 is_stmt 1
	ld	a5,-48(s0)
	addi	a5,a5,280
	.loc 1 2853 12
	ld	a1,-32(s0)
	mv	a0,a5
	call	GetNextNode@plt
	sd	a0,-32(s0)
	.loc 1 2855 5
	lbu	a5,-33(s0)
	ld	a2,-24(s0)
	ld	a1,-48(s0)
	mv	a0,a5
	call	UpdateFlagForForm
.L468:
	.loc 1 2851 19
	ld	a5,-48(s0)
	addi	a5,a5,280
	.loc 1 2851 11
	ld	a1,-32(s0)
	mv	a0,a5
	call	IsNull@plt
	mv	a5,a0
	.loc 1 2851 10 discriminator 1
	beq	a5,zero,.L471
.L465:
	.loc 1 2857 1
	ld	ra,56(sp)
	.cfi_restore 1
	ld	s0,48(sp)
	.cfi_restore 8
	.cfi_def_cfa 2, 64
	addi	sp,sp,64
	.cfi_def_cfa_offset 0
	jr	ra
	.cfi_endproc
.LFE37:
	.size	ValueChangeResetFlagUpdate, .-ValueChangeResetFlagUpdate
	.section	.rodata
	.align	3
.LC7:
	.string	"P"
	.string	"A"
	.string	"T"
	.string	"H"
	.string	"="
	.zero	2
	.align	3
.LC8:
	.string	"&"
	.string	"O"
	.string	"F"
	.string	"F"
	.string	"S"
	.string	"E"
	.string	"T"
	.string	"="
	.zero	2
	.section	.text.FindQuestionFromProgress,"ax",@progbits
	.align	1
	.globl	FindQuestionFromProgress
	.type	FindQuestionFromProgress, @function
FindQuestionFromProgress:
.LFB38:
	.loc 1 2883 1
	.cfi_startproc
	addi	sp,sp,-128
	.cfi_def_cfa_offset 128
	sd	ra,120(sp)
	sd	s0,112(sp)
	.cfi_offset 1, -8
	.cfi_offset 8, -16
	addi	s0,sp,128
	.cfi_def_cfa 8, 0
	sd	a0,-88(s0)
	sd	a1,-96(s0)
	sd	a2,-104(s0)
	sd	a3,-112(s0)
	sd	a4,-120(s0)
	.loc 1 2894 14
	sd	zero,-48(s0)
	.loc 1 2895 12
	ld	a5,-112(s0)
	sd	zero,0(a5)
	.loc 1 2896 16
	ld	a5,-120(s0)
	sd	zero,0(a5)
	.loc 1 2901 7
	ld	a5,-104(s0)
	lhu	a5,0(a5)
	.loc 1 2901 6
	sext.w	a4,a5
	li	a5,38
	bne	a4,a5,.L473
	.loc 1 2902 13
	ld	a5,-104(s0)
	addi	a5,a5,2
	sd	a5,-104(s0)
	j	.L474
.L473:
	.loc 1 2907 16
	ld	a5,-96(s0)
	lbu	a5,24(a5)
	.loc 1 2907 8
	mv	a4,a5
	li	a5,1
	bne	a4,a5,.L475
	.loc 1 2911 16
	lla	a1,.LC7
	ld	a0,-104(s0)
	call	StrStr@plt
	sd	a0,-64(s0)
	.loc 1 2913 13
	j	.L476
.L477:
	.loc 1 2914 15
	ld	a5,-64(s0)
	addi	a5,a5,2
	sd	a5,-64(s0)
.L476:
	.loc 1 2913 14
	ld	a5,-64(s0)
	lhu	a5,0(a5)
	.loc 1 2913 22
	sext.w	a4,a5
	li	a5,38
	bne	a4,a5,.L477
	.loc 1 2917 15
	ld	a5,-64(s0)
	sh	zero,0(a5)
	j	.L478
.L475:
	.loc 1 2922 16
	lla	a1,.LC8
	ld	a0,-104(s0)
	call	StrStr@plt
	sd	a0,-64(s0)
	.loc 1 2924 15
	ld	a5,-64(s0)
	sh	zero,0(a5)
.L478:
	.loc 1 2927 14
	ld	a5,-64(s0)
	addi	a5,a5,2
	sd	a5,-104(s0)
.L474:
	.loc 1 2933 14
	ld	a5,-96(s0)
	lbu	a5,24(a5)
	.loc 1 2933 6
	mv	a4,a5
	li	a5,1
	bne	a4,a5,.L479
	.loc 1 2938 14
	lla	a1,.LC4
	ld	a0,-104(s0)
	call	StrStr@plt
	sd	a0,-64(s0)
	.loc 1 2940 13
	ld	a5,-64(s0)
	sh	zero,0(a5)
	j	.L480
.L479:
	.loc 1 2946 14
	lla	a1,.LC6
	ld	a0,-104(s0)
	call	StrStr@plt
	sd	a0,-64(s0)
	.loc 1 2948 13
	ld	a5,-64(s0)
	sh	zero,0(a5)
.L480:
	.loc 1 2954 24
	ld	a5,-88(s0)
	addi	a5,a5,280
	.loc 1 2954 10
	mv	a0,a5
	call	GetFirstNode@plt
	sd	a0,-24(s0)
	.loc 1 2955 9
	j	.L481
.L499:
	.loc 1 2956 14
	ld	a5,-24(s0)
	addi	a5,a5,-8
	.loc 1 2956 120
	ld	a4,0(a5)
	.loc 1 2956 205
	li	a5,1297235968
	addi	a5,a5,1606
	bne	a4,a5,.L482
	.loc 1 2956 10 discriminator 1
	ld	a5,-24(s0)
	addi	a5,a5,-8
	sd	a5,-56(s0)
	j	.L483
.L482:
	.loc 1 2956 10 is_stmt 0 discriminator 2
	sd	zero,-56(s0)
.L483:
	.loc 1 2957 25 is_stmt 1
	ld	a5,-88(s0)
	addi	a5,a5,280
	.loc 1 2957 12
	ld	a1,-24(s0)
	mv	a0,a5
	call	GetNextNode@plt
	sd	a0,-24(s0)
	.loc 1 2962 33
	ld	a5,-56(s0)
	addi	a5,a5,104
	.loc 1 2962 19
	mv	a0,a5
	call	GetFirstNode@plt
	sd	a0,-32(s0)
	.loc 1 2963 11
	j	.L484
.L490:
	.loc 1 2964 22
	ld	a5,-32(s0)
	addi	a5,a5,-8
	.loc 1 2964 155
	ld	a4,0(a5)
	.loc 1 2964 240
	li	a5,1397899264
	addi	a5,a5,838
	bne	a4,a5,.L485
	.loc 1 2964 18 discriminator 1
	ld	a5,-32(s0)
	addi	a5,a5,-8
	sd	a5,-48(s0)
	j	.L486
.L485:
	.loc 1 2964 18 is_stmt 0 discriminator 2
	sd	zero,-48(s0)
.L486:
	.loc 1 2965 34 is_stmt 1
	ld	a5,-56(s0)
	addi	a5,a5,104
	.loc 1 2965 21
	ld	a1,-32(s0)
	mv	a0,a5
	call	GetNextNode@plt
	sd	a0,-32(s0)
	.loc 1 2967 32
	ld	a5,-48(s0)
	ld	a5,88(a5)
	.loc 1 2967 10
	ld	a4,-96(s0)
	bne	a4,a5,.L503
	.loc 1 2971 29
	ld	a5,-48(s0)
	ld	a5,40(a5)
	.loc 1 2971 11
	ld	a1,-104(s0)
	mv	a0,a5
	call	StrStr@plt
	mv	a5,a0
	.loc 1 2971 10 discriminator 1
	beq	a5,zero,.L484
	.loc 1 2975 18
	ld	a5,-112(s0)
	ld	a4,-56(s0)
	sd	a4,0(a5)
	.loc 1 2976 9
	j	.L489
.L503:
	.loc 1 2968 9
	nop
.L484:
	.loc 1 2963 21
	ld	a5,-56(s0)
	addi	a5,a5,104
	.loc 1 2963 13
	ld	a1,-32(s0)
	mv	a0,a5
	call	IsNull@plt
	mv	a5,a0
	.loc 1 2963 12 discriminator 1
	beq	a5,zero,.L490
.L489:
	.loc 1 2980 9
	ld	a5,-112(s0)
	ld	a5,0(a5)
	.loc 1 2980 8
	beq	a5,zero,.L491
	.loc 1 2981 37
	ld	a5,-56(s0)
	addi	a5,a5,88
	.loc 1 2981 23
	mv	a0,a5
	call	GetFirstNode@plt
	sd	a0,-40(s0)
	.loc 1 2982 13
	j	.L492
.L497:
	.loc 1 2983 23
	ld	a5,-40(s0)
	addi	a5,a5,-8
	.loc 1 2983 148
	ld	a4,0(a5)
	.loc 1 2983 233
	li	a5,1096044544
	addi	a5,a5,838
	bne	a4,a5,.L493
	.loc 1 2983 19 discriminator 1
	ld	a5,-40(s0)
	addi	a5,a5,-8
	sd	a5,-72(s0)
	j	.L494
.L493:
	.loc 1 2983 19 is_stmt 0 discriminator 2
	sd	zero,-72(s0)
.L494:
	.loc 1 2984 38 is_stmt 1
	ld	a5,-56(s0)
	addi	a5,a5,88
	.loc 1 2984 25
	ld	a1,-40(s0)
	mv	a0,a5
	call	GetNextNode@plt
	sd	a0,-40(s0)
	.loc 1 2986 23
	ld	a5,-72(s0)
	ld	a5,88(a5)
	.loc 1 2986 12
	beq	a5,zero,.L495
	.loc 1 2986 73 discriminator 1
	ld	a5,-72(s0)
	ld	a5,88(a5)
	.loc 1 2986 56 discriminator 1
	ld	a1,-104(s0)
	mv	a0,a5
	call	StrStr@plt
	mv	a5,a0
	.loc 1 2986 52 discriminator 2
	beq	a5,zero,.L495
	.loc 1 2987 24
	ld	a5,-120(s0)
	ld	a4,-72(s0)
	sd	a4,0(a5)
	.loc 1 2988 11
	j	.L491
.L495:
	.loc 1 2991 23
	ld	a5,-72(s0)
	ld	a5,80(a5)
	.loc 1 2991 12
	beq	a5,zero,.L492
	.loc 1 2991 76 discriminator 1
	ld	a5,-72(s0)
	ld	a5,80(a5)
	.loc 1 2991 59 discriminator 1
	ld	a1,-104(s0)
	mv	a0,a5
	call	StrStr@plt
	mv	a5,a0
	.loc 1 2991 55 discriminator 2
	beq	a5,zero,.L492
	.loc 1 2992 24
	ld	a5,-120(s0)
	ld	a4,-72(s0)
	sd	a4,0(a5)
	.loc 1 2993 11
	j	.L491
.L492:
	.loc 1 2982 23
	ld	a5,-56(s0)
	addi	a5,a5,88
	.loc 1 2982 15
	ld	a1,-40(s0)
	mv	a0,a5
	call	IsNull@plt
	mv	a5,a0
	.loc 1 2982 14 discriminator 1
	beq	a5,zero,.L497
.L491:
	.loc 1 2998 9
	ld	a5,-112(s0)
	ld	a5,0(a5)
	.loc 1 2998 8
	bne	a5,zero,.L504
.L481:
	.loc 1 2955 19
	ld	a5,-88(s0)
	addi	a5,a5,280
	.loc 1 2955 11
	ld	a1,-24(s0)
	mv	a0,a5
	call	IsNull@plt
	mv	a5,a0
	.loc 1 2955 10 discriminator 1
	beq	a5,zero,.L499
	j	.L498
.L504:
	.loc 1 2999 7
	nop
.L498:
	.loc 1 3006 14
	ld	a5,-96(s0)
	lbu	a5,24(a5)
	.loc 1 3006 6
	mv	a4,a5
	li	a5,1
	bne	a4,a5,.L500
	.loc 1 3007 13
	ld	a5,-64(s0)
	li	a4,61
	sh	a4,0(a5)
	j	.L501
.L500:
	.loc 1 3009 13
	ld	a5,-64(s0)
	li	a4,38
	sh	a4,0(a5)
.L501:
	.loc 1 3012 20
	ld	a5,-112(s0)
	ld	a5,0(a5)
	.loc 1 3012 10
	snez	a5,a5
	andi	a5,a5,0xff
	.loc 1 3013 1
	mv	a0,a5
	ld	ra,120(sp)
	.cfi_restore 1
	ld	s0,112(sp)
	.cfi_restore 8
	.cfi_def_cfa 2, 128
	addi	sp,sp,128
	.cfi_def_cfa_offset 0
	jr	ra
	.cfi_endproc
.LFE38:
	.size	FindQuestionFromProgress, .-FindQuestionFromProgress
	.section	.text.GetSyncRestoreConfigRequest,"ax",@progbits
	.align	1
	.globl	GetSyncRestoreConfigRequest
	.type	GetSyncRestoreConfigRequest, @function
GetSyncRestoreConfigRequest:
.LFB39:
	.loc 1 3034 1
	.cfi_startproc
	addi	sp,sp,-112
	.cfi_def_cfa_offset 112
	sd	ra,104(sp)
	sd	s0,96(sp)
	.cfi_offset 1, -8
	.cfi_offset 8, -16
	addi	s0,sp,112
	.cfi_def_cfa 8, 0
	sd	a0,-72(s0)
	sd	a1,-80(s0)
	sd	a2,-88(s0)
	sd	a3,-96(s0)
	sd	a4,-104(s0)
	.loc 1 3047 7
	ld	a5,-88(s0)
	lhu	a5,0(a5)
	.loc 1 3047 6
	sext.w	a4,a5
	li	a5,71
	bne	a4,a5,.L506
	.loc 1 3048 29
	ld	a0,-80(s0)
	call	StrSize@plt
	mv	a5,a0
	.loc 1 3048 29 is_stmt 0 discriminator 1
	ld	a1,-80(s0)
	mv	a0,a5
	call	AllocateCopyPool@plt
	mv	a4,a0
	.loc 1 3048 27 is_stmt 1 discriminator 2
	ld	a5,-96(s0)
	sd	a4,0(a5)
	.loc 1 3050 5
	j	.L505
.L506:
	.loc 1 3056 14
	ld	a5,-72(s0)
	lbu	a5,24(a5)
	.loc 1 3056 6
	mv	a4,a5
	li	a5,1
	bne	a4,a5,.L508
	.loc 1 3061 14
	lla	a1,.LC4
	ld	a0,-88(s0)
	call	StrStr@plt
	sd	a0,-24(s0)
	.loc 1 3063 13
	ld	a5,-24(s0)
	sh	zero,0(a5)
	.loc 1 3067 23
	lla	a1,.LC7
	ld	a0,-80(s0)
	call	StrStr@plt
	sd	a0,-32(s0)
	.loc 1 3069 11
	j	.L509
.L510:
	.loc 1 3070 22
	ld	a5,-32(s0)
	addi	a5,a5,2
	sd	a5,-32(s0)
.L509:
	.loc 1 3069 12
	ld	a5,-32(s0)
	lhu	a5,0(a5)
	.loc 1 3069 29
	sext.w	a4,a5
	li	a5,38
	bne	a4,a5,.L510
	j	.L511
.L508:
	.loc 1 3077 14
	lla	a1,.LC6
	ld	a0,-88(s0)
	call	StrStr@plt
	sd	a0,-24(s0)
	.loc 1 3079 13
	ld	a5,-24(s0)
	sh	zero,0(a5)
	.loc 1 3083 23
	lla	a1,.LC8
	ld	a0,-80(s0)
	call	StrStr@plt
	sd	a0,-32(s0)
.L511:
	.loc 1 3089 16
	ld	a1,-88(s0)
	ld	a0,-80(s0)
	call	StrStr@plt
	sd	a0,-40(s0)
	.loc 1 3094 20
	ld	a0,-40(s0)
	call	StrSize@plt
	sd	a0,-48(s0)
	.loc 1 3095 32
	ld	a4,-32(s0)
	ld	a5,-80(s0)
	sub	a5,a4,a5
	.loc 1 3095 49
	mv	a4,a5
	.loc 1 3095 67
	ld	a5,-48(s0)
	add	a5,a4,a5
	.loc 1 3095 13
	addi	a5,a5,2
	sd	a5,-56(s0)
	.loc 1 3096 27
	ld	a0,-56(s0)
	call	AllocateZeroPool@plt
	mv	a4,a0
	.loc 1 3096 25 discriminator 1
	ld	a5,-96(s0)
	sd	a4,0(a5)
	.loc 1 3098 3
	ld	a5,-96(s0)
	ld	a0,0(a5)
	.loc 1 3098 46
	ld	a5,-56(s0)
	srli	a1,a5,1
	.loc 1 3098 96
	ld	a4,-32(s0)
	ld	a5,-80(s0)
	sub	a5,a4,a5
	srai	a5,a5,1
	.loc 1 3098 3
	mv	a3,a5
	ld	a2,-80(s0)
	call	StrnCpyS@plt
	.loc 1 3099 3
	ld	a5,-96(s0)
	ld	a4,0(a5)
	.loc 1 3099 45
	ld	a5,-56(s0)
	srli	a5,a5,1
	.loc 1 3099 3
	ld	a2,-40(s0)
	mv	a1,a5
	mv	a0,a4
	call	StrCatS@plt
	.loc 1 3103 14
	ld	a0,-80(s0)
	call	StrSize@plt
	mv	a4,a0
	.loc 1 3103 38 discriminator 1
	ld	a5,-48(s0)
	sub	a5,a4,a5
	.loc 1 3103 12 discriminator 1
	addi	a5,a5,2
	sd	a5,-64(s0)
	.loc 1 3104 24
	ld	a0,-64(s0)
	call	AllocateZeroPool@plt
	mv	a4,a0
	.loc 1 3104 22 discriminator 1
	ld	a5,-104(s0)
	sd	a4,0(a5)
	.loc 1 3106 3
	ld	a5,-104(s0)
	ld	a4,0(a5)
	.loc 1 3106 42
	ld	a5,-64(s0)
	srli	a1,a5,1
	.loc 1 3106 85
	ld	a5,-64(s0)
	srli	a5,a5,1
	.loc 1 3106 103
	addi	a5,a5,-1
	.loc 1 3106 3
	mv	a3,a5
	ld	a2,-80(s0)
	mv	a0,a4
	call	StrnCpyS@plt
	.loc 1 3111 14
	ld	a5,-72(s0)
	lbu	a5,24(a5)
	.loc 1 3111 6
	mv	a4,a5
	li	a5,1
	bne	a4,a5,.L512
	.loc 1 3112 13
	ld	a5,-24(s0)
	li	a4,61
	sh	a4,0(a5)
	j	.L505
.L512:
	.loc 1 3114 13
	ld	a5,-24(s0)
	li	a4,38
	sh	a4,0(a5)
.L505:
	.loc 1 3116 1
	ld	ra,104(sp)
	.cfi_restore 1
	ld	s0,96(sp)
	.cfi_restore 8
	.cfi_def_cfa 2, 112
	addi	sp,sp,112
	.cfi_def_cfa_offset 0
	jr	ra
	.cfi_endproc
.LFE39:
	.size	GetSyncRestoreConfigRequest, .-GetSyncRestoreConfigRequest
	.section	.rodata
	.align	3
.LC9:
	.string	"S"
	.string	"u"
	.string	"b"
	.string	"m"
	.string	"i"
	.string	"t"
	.string	" "
	.string	"F"
	.string	"a"
	.string	"i"
	.string	"l"
	.string	" "
	.string	"F"
	.string	"o"
	.string	"r"
	.string	" "
	.string	"F"
	.string	"o"
	.string	"r"
	.string	"m"
	.string	":"
	.string	" "
	.string	"%"
	.string	"s"
	.string	"."
	.zero	2
	.section	.text.ConfirmSaveFail,"ax",@progbits
	.align	1
	.globl	ConfirmSaveFail
	.type	ConfirmSaveFail, @function
ConfirmSaveFail:
.LFB40:
	.loc 1 3132 1
	.cfi_startproc
	addi	sp,sp,-64
	.cfi_def_cfa_offset 64
	sd	ra,56(sp)
	sd	s0,48(sp)
	.cfi_offset 1, -8
	.cfi_offset 8, -16
	addi	s0,sp,64
	.cfi_def_cfa 8, 0
	mv	a5,a0
	sd	a1,-64(s0)
	sh	a5,-50(s0)
	.loc 1 3137 15
	lhu	a5,-50(s0)
	ld	a1,-64(s0)
	mv	a0,a5
	call	GetToken
	sd	a0,-24(s0)
	.loc 1 3139 18
	li	a0,512
	call	AllocateZeroPool@plt
	sd	a0,-32(s0)
	.loc 1 3144 28
	ld	a0,-24(s0)
	call	StrSize@plt
	mv	a5,a0
	.loc 1 3144 26 discriminator 1
	addi	a5,a5,48
	.loc 1 3142 3
	ld	a3,-24(s0)
	lla	a2,.LC9
	mv	a1,a5
	ld	a0,-32(s0)
	call	UnicodeSPrint@plt
	.loc 1 3149 12
	ld	a3,-32(s0)
	li	a2,0
	li	a1,0
	li	a5,-2147483648
	addi	a0,a5,1
	call	PopupErrorMessage
	mv	a5,a0
	sw	a5,-36(s0)
	.loc 1 3151 3
	ld	a0,-32(s0)
	call	FreePool@plt
	.loc 1 3152 3
	ld	a0,-24(s0)
	call	FreePool@plt
	.loc 1 3154 10
	lw	a5,-36(s0)
	.loc 1 3155 1
	mv	a0,a5
	ld	ra,56(sp)
	.cfi_restore 1
	ld	s0,48(sp)
	.cfi_restore 8
	.cfi_def_cfa 2, 64
	addi	sp,sp,64
	.cfi_def_cfa_offset 0
	jr	ra
	.cfi_endproc
.LFE40:
	.size	ConfirmSaveFail, .-ConfirmSaveFail
	.section	.rodata
	.align	3
.LC10:
	.string	"N"
	.string	"O"
	.string	"_"
	.string	"S"
	.string	"U"
	.string	"B"
	.string	"M"
	.string	"I"
	.string	"T"
	.string	"_"
	.string	"I"
	.string	"F"
	.string	" "
	.string	"e"
	.string	"r"
	.string	"r"
	.string	"o"
	.string	"r"
	.string	" "
	.string	"F"
	.string	"o"
	.string	"r"
	.string	" "
	.string	"F"
	.string	"o"
	.string	"r"
	.string	"m"
	.string	":"
	.string	" "
	.string	"%"
	.string	"s"
	.string	"."
	.zero	2
	.section	.text.ConfirmNoSubmitFail,"ax",@progbits
	.align	1
	.globl	ConfirmNoSubmitFail
	.type	ConfirmNoSubmitFail, @function
ConfirmNoSubmitFail:
.LFB41:
	.loc 1 3171 1
	.cfi_startproc
	addi	sp,sp,-64
	.cfi_def_cfa_offset 64
	sd	ra,56(sp)
	sd	s0,48(sp)
	.cfi_offset 1, -8
	.cfi_offset 8, -16
	addi	s0,sp,64
	.cfi_def_cfa 8, 0
	mv	a5,a0
	sd	a1,-64(s0)
	sh	a5,-50(s0)
	.loc 1 3176 15
	lhu	a5,-50(s0)
	ld	a1,-64(s0)
	mv	a0,a5
	call	GetToken
	sd	a0,-24(s0)
	.loc 1 3178 18
	li	a0,512
	call	AllocateZeroPool@plt
	sd	a0,-32(s0)
	.loc 1 3183 28
	ld	a0,-24(s0)
	call	StrSize@plt
	mv	a5,a0
	.loc 1 3183 26 discriminator 1
	addi	a5,a5,48
	.loc 1 3181 3
	ld	a3,-24(s0)
	lla	a2,.LC10
	mv	a1,a5
	ld	a0,-32(s0)
	call	UnicodeSPrint@plt
	.loc 1 3188 12
	ld	a3,-32(s0)
	li	a2,0
	li	a1,0
	li	a5,-2147483648
	addi	a0,a5,8
	call	PopupErrorMessage
	mv	a5,a0
	sw	a5,-36(s0)
	.loc 1 3190 3
	ld	a0,-32(s0)
	call	FreePool@plt
	.loc 1 3191 3
	ld	a0,-24(s0)
	call	FreePool@plt
	.loc 1 3193 10
	lw	a5,-36(s0)
	.loc 1 3194 1
	mv	a0,a5
	ld	ra,56(sp)
	.cfi_restore 1
	ld	s0,48(sp)
	.cfi_restore 8
	.cfi_def_cfa 2, 64
	addi	sp,sp,64
	.cfi_def_cfa_offset 0
	jr	ra
	.cfi_endproc
.LFE41:
	.size	ConfirmNoSubmitFail, .-ConfirmNoSubmitFail
	.section	.text.DiscardForm,"ax",@progbits
	.align	1
	.globl	DiscardForm
	.type	DiscardForm, @function
DiscardForm:
.LFB42:
	.loc 1 3213 1
	.cfi_startproc
	addi	sp,sp,-96
	.cfi_def_cfa_offset 96
	sd	ra,88(sp)
	sd	s0,80(sp)
	.cfi_offset 1, -8
	.cfi_offset 8, -16
	addi	s0,sp,96
	.cfi_def_cfa 8, 0
	sd	a0,-72(s0)
	sd	a1,-80(s0)
	mv	a5,a2
	sw	a5,-84(s0)
	.loc 1 3223 6
	lw	a5,-84(s0)
	sext.w	a4,a5
	li	a5,2
	bleu	a4,a5,.L518
	.loc 1 3224 12
	li	a5,-1
	slli	a5,a5,63
	addi	a5,a5,3
	j	.L519
.L518:
	.loc 1 3227 6
	lw	a5,-84(s0)
	sext.w	a5,a5
	bne	a5,zero,.L520
	.loc 1 3227 38 discriminator 1
	ld	a0,-80(s0)
	call	IsNvUpdateRequiredForForm@plt
	mv	a5,a0
	.loc 1 3227 35 discriminator 2
	beq	a5,zero,.L520
	.loc 1 3228 16
	sd	zero,-40(s0)
	.loc 1 3229 26
	ld	a5,-80(s0)
	addi	a5,a5,104
	.loc 1 3229 12
	mv	a0,a5
	call	GetFirstNode@plt
	sd	a0,-24(s0)
	.loc 1 3230 11
	j	.L521
.L527:
	.loc 1 3231 22
	ld	a5,-24(s0)
	addi	a5,a5,-8
	.loc 1 3231 148
	ld	a4,0(a5)
	.loc 1 3231 233
	li	a5,1397899264
	addi	a5,a5,838
	bne	a4,a5,.L522
	.loc 1 3231 18 discriminator 1
	ld	a5,-24(s0)
	addi	a5,a5,-8
	sd	a5,-40(s0)
	j	.L523
.L522:
	.loc 1 3231 18 is_stmt 0 discriminator 2
	sd	zero,-40(s0)
.L523:
	.loc 1 3232 27 is_stmt 1
	ld	a5,-80(s0)
	addi	a5,a5,104
	.loc 1 3232 14
	ld	a1,-24(s0)
	mv	a0,a5
	call	GetNextNode@plt
	sd	a0,-24(s0)
	.loc 1 3234 21
	ld	a5,-40(s0)
	ld	a5,88(a5)
	.loc 1 3234 30
	lbu	a5,24(a5)
	.loc 1 3234 10
	mv	a4,a5
	li	a5,2
	beq	a4,a5,.L547
	.loc 1 3241 21
	ld	a5,-40(s0)
	ld	a5,56(a5)
	.loc 1 3241 10
	beq	a5,zero,.L548
	.loc 1 3248 7
	ld	a5,-40(s0)
	ld	a4,88(a5)
	ld	a5,-40(s0)
	ld	a5,40(a5)
	li	a2,0
	mv	a1,a5
	mv	a0,a4
	call	SynchronizeStorage
	.loc 1 3253 7
	ld	a1,-80(s0)
	ld	a0,-72(s0)
	call	SendDiscardInfoToDriver
	j	.L521
.L547:
	.loc 1 3235 9
	nop
	j	.L521
.L548:
	.loc 1 3242 9
	nop
.L521:
	.loc 1 3230 21
	ld	a5,-80(s0)
	addi	a5,a5,104
	.loc 1 3230 13
	ld	a1,-24(s0)
	mv	a0,a5
	call	IsNull@plt
	mv	a5,a0
	.loc 1 3230 12 discriminator 1
	beq	a5,zero,.L527
	.loc 1 3256 5
	ld	a2,-80(s0)
	ld	a1,-72(s0)
	li	a0,0
	call	ValueChangeResetFlagUpdate
	j	.L528
.L520:
	.loc 1 3257 13
	lw	a5,-84(s0)
	sext.w	a4,a5
	li	a5,1
	bne	a4,a5,.L529
	.loc 1 3257 48 discriminator 1
	ld	a0,-72(s0)
	call	IsNvUpdateRequiredForFormSet@plt
	mv	a5,a0
	.loc 1 3257 45 discriminator 2
	beq	a5,zero,.L529
	.loc 1 3261 26
	ld	a5,-72(s0)
	addi	a5,a5,232
	.loc 1 3261 12
	mv	a0,a5
	call	GetFirstNode@plt
	sd	a0,-24(s0)
	.loc 1 3262 11
	j	.L530
.L536:
	.loc 1 3263 19
	ld	a5,-24(s0)
	addi	a5,a5,-8
	.loc 1 3263 121
	ld	a4,0(a5)
	.loc 1 3263 206
	li	a5,1196707840
	addi	a5,a5,838
	bne	a4,a5,.L531
	.loc 1 3263 15 discriminator 1
	ld	a5,-24(s0)
	addi	a5,a5,-8
	sd	a5,-32(s0)
	j	.L532
.L531:
	.loc 1 3263 15 is_stmt 0 discriminator 2
	sd	zero,-32(s0)
.L532:
	.loc 1 3264 27 is_stmt 1
	ld	a5,-72(s0)
	addi	a5,a5,232
	.loc 1 3264 14
	ld	a1,-24(s0)
	mv	a0,a5
	call	GetNextNode@plt
	sd	a0,-24(s0)
	.loc 1 3266 18
	ld	a5,-32(s0)
	ld	a5,48(a5)
	.loc 1 3266 34
	lbu	a5,24(a5)
	.loc 1 3266 10
	mv	a4,a5
	li	a5,2
	beq	a4,a5,.L549
	.loc 1 3273 18
	ld	a5,-32(s0)
	ld	a5,88(a5)
	.loc 1 3273 10
	beq	a5,zero,.L550
	.loc 1 3277 7
	ld	a5,-32(s0)
	ld	a4,48(a5)
	ld	a5,-32(s0)
	ld	a5,64(a5)
	li	a2,0
	mv	a1,a5
	mv	a0,a4
	call	SynchronizeStorage
	j	.L530
.L549:
	.loc 1 3267 9
	nop
	j	.L530
.L550:
	.loc 1 3274 9
	nop
.L530:
	.loc 1 3262 21
	ld	a5,-72(s0)
	addi	a5,a5,232
	.loc 1 3262 13
	ld	a1,-24(s0)
	mv	a0,a5
	call	IsNull@plt
	mv	a5,a0
	.loc 1 3262 12 discriminator 1
	beq	a5,zero,.L536
	.loc 1 3280 26
	ld	a5,-72(s0)
	addi	a5,a5,280
	.loc 1 3280 12
	mv	a0,a5
	call	GetFirstNode@plt
	sd	a0,-24(s0)
	.loc 1 3281 11
	j	.L537
.L540:
	.loc 1 3282 16
	ld	a5,-24(s0)
	addi	a5,a5,-8
	.loc 1 3282 122
	ld	a4,0(a5)
	.loc 1 3282 207
	li	a5,1297235968
	addi	a5,a5,1606
	bne	a4,a5,.L538
	.loc 1 3282 12 discriminator 1
	ld	a5,-24(s0)
	addi	a5,a5,-8
	sd	a5,-80(s0)
	j	.L539
.L538:
	.loc 1 3282 12 is_stmt 0 discriminator 2
	sd	zero,-80(s0)
.L539:
	.loc 1 3283 27 is_stmt 1
	ld	a5,-72(s0)
	addi	a5,a5,280
	.loc 1 3283 14
	ld	a1,-24(s0)
	mv	a0,a5
	call	GetNextNode@plt
	sd	a0,-24(s0)
	.loc 1 3288 7
	ld	a1,-80(s0)
	ld	a0,-72(s0)
	call	SendDiscardInfoToDriver
.L537:
	.loc 1 3281 21
	ld	a5,-72(s0)
	addi	a5,a5,280
	.loc 1 3281 13
	ld	a1,-24(s0)
	mv	a0,a5
	call	IsNull@plt
	mv	a5,a0
	.loc 1 3281 12 discriminator 1
	beq	a5,zero,.L540
	.loc 1 3291 5
	li	a2,0
	ld	a1,-72(s0)
	li	a0,0
	call	ValueChangeResetFlagUpdate
	j	.L528
.L529:
	.loc 1 3292 13
	lw	a5,-84(s0)
	sext.w	a4,a5
	li	a5,2
	bne	a4,a5,.L528
	.loc 1 3296 16
	lla	a5,mSystemLevelFormSet
	ld	a5,0(a5)
	sd	a5,-56(s0)
	.loc 1 3301 12
	lla	a0,gBrowserFormSetList
	call	GetFirstNode@plt
	sd	a0,-24(s0)
	.loc 1 3302 11
	j	.L541
.L546:
	.loc 1 3303 24
	ld	a5,-24(s0)
	addi	a5,a5,-8
	.loc 1 3303 136
	ld	a4,0(a5)
	.loc 1 3303 221
	li	a5,1397112832
	addi	a5,a5,582
	bne	a4,a5,.L542
	.loc 1 3303 20 discriminator 1
	ld	a5,-24(s0)
	addi	a5,a5,-8
	sd	a5,-48(s0)
	j	.L543
.L542:
	.loc 1 3303 20 is_stmt 0 discriminator 2
	sd	zero,-48(s0)
.L543:
	.loc 1 3304 14 is_stmt 1
	ld	a1,-24(s0)
	lla	a0,gBrowserFormSetList
	call	GetNextNode@plt
	sd	a0,-24(s0)
	.loc 1 3305 12
	ld	a0,-48(s0)
	call	ValidateFormSet
	mv	a5,a0
	.loc 1 3305 10 discriminator 1
	beq	a5,zero,.L551
	.loc 1 3309 27
	lla	a5,mSystemLevelFormSet
	ld	a4,-48(s0)
	sd	a4,0(a5)
	.loc 1 3311 7
	li	a2,1
	li	a1,0
	ld	a0,-48(s0)
	call	DiscardForm
	.loc 1 3312 12
	ld	a5,-48(s0)
	ld	a5,40(a5)
	mv	a0,a5
	call	IsHiiHandleInBrowserContext
	mv	a5,a0
	.loc 1 3312 10 discriminator 1
	bne	a5,zero,.L541
	.loc 1 3316 9
	ld	a0,-48(s0)
	call	CleanBrowserStorage
	.loc 1 3317 26
	ld	a5,-48(s0)
	addi	a5,a5,8
	.loc 1 3317 9
	mv	a0,a5
	call	RemoveEntryList@plt
	.loc 1 3318 9
	ld	a0,-48(s0)
	call	DestroyFormSet@plt
	j	.L541
.L551:
	.loc 1 3306 9
	nop
.L541:
	.loc 1 3302 13
	ld	a1,-24(s0)
	lla	a0,gBrowserFormSetList
	call	IsNull@plt
	mv	a5,a0
	.loc 1 3302 12 discriminator 1
	beq	a5,zero,.L546
	.loc 1 3322 25
	lla	a5,mSystemLevelFormSet
	ld	a4,-56(s0)
	sd	a4,0(a5)
.L528:
	.loc 1 3325 10
	li	a5,0
.L519:
	.loc 1 3326 1
	mv	a0,a5
	ld	ra,88(sp)
	.cfi_restore 1
	ld	s0,80(sp)
	.cfi_restore 8
	.cfi_def_cfa 2, 96
	addi	sp,sp,96
	.cfi_def_cfa_offset 0
	jr	ra
	.cfi_endproc
.LFE42:
	.size	DiscardForm, .-DiscardForm
	.section	.text.SubmitForForm,"ax",@progbits
	.align	1
	.globl	SubmitForForm
	.type	SubmitForForm, @function
SubmitForForm:
.LFB43:
	.loc 1 3343 1
	.cfi_startproc
	addi	sp,sp,-96
	.cfi_def_cfa_offset 96
	sd	ra,88(sp)
	sd	s0,80(sp)
	.cfi_offset 1, -8
	.cfi_offset 8, -16
	addi	s0,sp,96
	.cfi_def_cfa 8, 0
	sd	a0,-88(s0)
	sd	a1,-96(s0)
	.loc 1 3352 18
	sb	zero,-41(s0)
	.loc 1 3354 8
	ld	a5,-96(s0)
	mv	a0,a5
	call	IsNvUpdateRequiredForForm@plt
	mv	a5,a0
	.loc 1 3354 6 discriminator 1
	bne	a5,zero,.L553
	.loc 1 3355 12
	li	a5,0
	j	.L578
.L553:
	.loc 1 3358 12
	addi	a5,s0,-96
	li	a2,0
	mv	a1,a5
	ld	a0,-88(s0)
	call	NoSubmitCheck
	sd	a0,-24(s0)
	.loc 1 3359 34
	ld	a5,-24(s0)
	.loc 1 3359 6
	bge	a5,zero,.L555
	.loc 1 3360 12
	ld	a5,-24(s0)
	j	.L578
.L555:
	.loc 1 3363 29
	ld	a5,-96(s0)
	.loc 1 3363 24
	addi	a5,a5,104
	.loc 1 3363 10
	mv	a0,a5
	call	GetFirstNode@plt
	sd	a0,-32(s0)
	.loc 1 3364 9
	j	.L556
.L564:
	.loc 1 3365 20
	ld	a5,-32(s0)
	addi	a5,a5,-8
	.loc 1 3365 146
	ld	a4,0(a5)
	.loc 1 3365 231
	li	a5,1397899264
	addi	a5,a5,838
	bne	a4,a5,.L557
	.loc 1 3365 16 discriminator 1
	ld	a5,-32(s0)
	addi	a5,a5,-8
	sd	a5,-40(s0)
	j	.L558
.L557:
	.loc 1 3365 16 is_stmt 0 discriminator 2
	sd	zero,-40(s0)
.L558:
	.loc 1 3366 30 is_stmt 1
	ld	a5,-96(s0)
	.loc 1 3366 25
	addi	a5,a5,104
	.loc 1 3366 12
	ld	a1,-32(s0)
	mv	a0,a5
	call	GetNextNode@plt
	sd	a0,-32(s0)
	.loc 1 3368 13
	ld	a5,-40(s0)
	ld	a5,88(a5)
	sd	a5,-56(s0)
	.loc 1 3369 16
	ld	a5,-56(s0)
	lbu	a5,24(a5)
	.loc 1 3369 8
	mv	a4,a5
	li	a5,2
	beq	a4,a5,.L579
	.loc 1 3376 19
	ld	a5,-40(s0)
	ld	a5,56(a5)
	.loc 1 3376 8
	beq	a5,zero,.L580
	.loc 1 3383 14
	ld	a5,-40(s0)
	ld	a4,88(a5)
	ld	a5,-40(s0)
	ld	a2,40(a5)
	addi	a5,s0,-64
	li	a3,1
	mv	a1,a5
	mv	a0,a4
	call	StorageToConfigResp
	sd	a0,-24(s0)
	.loc 1 3384 36
	ld	a5,-24(s0)
	.loc 1 3384 8
	bge	a5,zero,.L562
	.loc 1 3385 14
	ld	a5,-24(s0)
	j	.L578
.L562:
	.loc 1 3391 31
	lla	a5,mHiiConfigRouting
	ld	a5,0(a5)
	ld	a5,16(a5)
	.loc 1 3391 14
	lla	a4,mHiiConfigRouting
	ld	a4,0(a4)
	ld	a3,-64(s0)
	addi	a2,s0,-72
	mv	a1,a3
	mv	a0,a4
	jalr	a5
.LVL26:
	sd	a0,-24(s0)
	.loc 1 3397 36
	ld	a5,-24(s0)
	.loc 1 3397 8
	bge	a5,zero,.L563
	.loc 1 3401 22
	li	a5,1
	sb	a5,-41(s0)
	.loc 1 3402 7
	ld	a5,-40(s0)
	ld	a0,88(a5)
	.loc 1 3402 67
	ld	a5,-40(s0)
	ld	a1,40(a5)
	.loc 1 3402 7
	ld	a2,-72(s0)
	.loc 1 3402 94
	ld	a5,-40(s0)
	addi	a3,a5,72
	.loc 1 3402 129
	ld	a5,-40(s0)
	addi	a5,a5,80
	.loc 1 3402 7
	mv	a4,a5
	call	GetSyncRestoreConfigRequest
	.loc 1 3403 7
	ld	a5,-40(s0)
	addi	a5,a5,24
	mv	a1,a5
	lla	a0,gBrowserSaveFailFormSetList
	call	InsertTailList@plt
	.loc 1 3404 7
	ld	a5,-64(s0)
	mv	a0,a5
	call	FreePool@plt
	.loc 1 3405 7
	j	.L556
.L563:
	.loc 1 3408 5
	ld	a5,-64(s0)
	mv	a0,a5
	call	FreePool@plt
	.loc 1 3412 5
	ld	a5,-40(s0)
	ld	a4,88(a5)
	ld	a5,-40(s0)
	ld	a5,40(a5)
	li	a2,1
	mv	a1,a5
	mv	a0,a4
	call	SynchronizeStorage
	j	.L556
.L579:
	.loc 1 3370 7
	nop
	j	.L556
.L580:
	.loc 1 3377 7
	nop
.L556:
	.loc 1 3364 24
	ld	a5,-96(s0)
	.loc 1 3364 19
	addi	a5,a5,104
	.loc 1 3364 11
	ld	a1,-32(s0)
	mv	a0,a5
	call	IsNull@plt
	mv	a5,a0
	.loc 1 3364 10 discriminator 1
	beq	a5,zero,.L564
	.loc 1 3418 8
	lla	a0,gBrowserSaveFailFormSetList
	call	IsListEmpty@plt
	mv	a5,a0
	.loc 1 3418 6 discriminator 1
	bne	a5,zero,.L565
	.loc 1 3419 30
	ld	a5,-96(s0)
	.loc 1 3419 9
	lhu	a4,26(a5)
	ld	a5,-88(s0)
	ld	a5,40(a5)
	mv	a1,a5
	mv	a0,a4
	call	ConfirmSaveFail
	mv	a5,a0
	mv	a4,a5
	.loc 1 3419 8 discriminator 1
	li	a5,1
	bne	a4,a5,.L566
	.loc 1 3420 14
	lla	a0,gBrowserSaveFailFormSetList
	call	GetFirstNode@plt
	sd	a0,-32(s0)
	.loc 1 3421 13
	j	.L567
.L571:
	.loc 1 3422 24
	ld	a5,-32(s0)
	addi	a5,a5,-24
	.loc 1 3422 158
	ld	a4,0(a5)
	.loc 1 3422 243
	li	a5,1397899264
	addi	a5,a5,838
	bne	a4,a5,.L568
	.loc 1 3422 20 discriminator 1
	ld	a5,-32(s0)
	addi	a5,a5,-24
	sd	a5,-40(s0)
	j	.L569
.L568:
	.loc 1 3422 20 is_stmt 0 discriminator 2
	sd	zero,-40(s0)
.L569:
	.loc 1 3423 16 is_stmt 1
	ld	a1,-32(s0)
	lla	a0,gBrowserSaveFailFormSetList
	call	GetNextNode@plt
	sd	a0,-32(s0)
	.loc 1 3428 9
	ld	a5,-40(s0)
	ld	a4,88(a5)
	ld	a5,-40(s0)
	ld	a5,72(a5)
	li	a2,0
	mv	a1,a5
	mv	a0,a4
	call	SynchronizeStorage
	.loc 1 3429 29
	ld	a5,-40(s0)
	ld	a5,72(a5)
	.loc 1 3429 9
	mv	a0,a5
	call	FreePool@plt
	.loc 1 3430 42
	ld	a5,-40(s0)
	sd	zero,72(a5)
	.loc 1 3431 23
	ld	a5,-40(s0)
	ld	a5,80(a5)
	.loc 1 3431 12
	beq	a5,zero,.L570
	.loc 1 3432 11
	ld	a5,-40(s0)
	ld	a4,88(a5)
	ld	a5,-40(s0)
	ld	a5,80(a5)
	li	a2,1
	mv	a1,a5
	mv	a0,a4
	call	SynchronizeStorage
	.loc 1 3433 31
	ld	a5,-40(s0)
	ld	a5,80(a5)
	.loc 1 3433 11
	mv	a0,a5
	call	FreePool@plt
	.loc 1 3434 41
	ld	a5,-40(s0)
	sd	zero,80(a5)
.L570:
	.loc 1 3437 16
	sd	zero,-24(s0)
.L567:
	.loc 1 3421 15
	ld	a1,-32(s0)
	lla	a0,gBrowserSaveFailFormSetList
	call	IsNull@plt
	mv	a5,a0
	.loc 1 3421 14 discriminator 1
	beq	a5,zero,.L571
	.loc 1 3440 7
	ld	a5,-96(s0)
	mv	a1,a5
	ld	a0,-88(s0)
	call	SendDiscardInfoToDriver
	j	.L573
.L566:
	.loc 1 3442 14
	li	a5,-1
	slli	a5,a5,63
	addi	a5,a5,3
	sd	a5,-24(s0)
	.loc 1 3448 11
	j	.L573
.L576:
	.loc 1 3449 14
	lla	a0,gBrowserSaveFailFormSetList
	call	GetFirstNode@plt
	sd	a0,-32(s0)
	.loc 1 3450 22
	ld	a5,-32(s0)
	addi	a5,a5,-24
	.loc 1 3450 156
	ld	a4,0(a5)
	.loc 1 3450 241
	li	a5,1397899264
	addi	a5,a5,838
	bne	a4,a5,.L574
	.loc 1 3450 18 discriminator 1
	ld	a5,-32(s0)
	addi	a5,a5,-24
	sd	a5,-40(s0)
	j	.L575
.L574:
	.loc 1 3450 18 is_stmt 0 discriminator 2
	sd	zero,-40(s0)
.L575:
	.loc 1 3451 24 is_stmt 1
	ld	a5,-40(s0)
	addi	a5,a5,24
	.loc 1 3451 7
	mv	a0,a5
	call	RemoveEntryList@plt
.L573:
	.loc 1 3448 13
	lla	a0,gBrowserSaveFailFormSetList
	call	IsListEmpty@plt
	mv	a5,a0
	.loc 1 3448 12 discriminator 1
	beq	a5,zero,.L576
.L565:
	.loc 1 3458 3
	ld	a5,-96(s0)
	mv	a2,a5
	ld	a1,-88(s0)
	li	a0,1
	call	ValueChangeResetFlagUpdate
	.loc 1 3463 6
	lbu	a5,-41(s0)
	andi	a5,a5,0xff
	bne	a5,zero,.L577
	.loc 1 3464 5
	ld	a5,-96(s0)
	mv	a1,a5
	ld	a0,-88(s0)
	call	SubmitCallback
.L577:
	.loc 1 3467 10
	ld	a5,-24(s0)
.L578:
	.loc 1 3468 1
	mv	a0,a5
	ld	ra,88(sp)
	.cfi_restore 1
	ld	s0,80(sp)
	.cfi_restore 8
	.cfi_def_cfa 2, 96
	addi	sp,sp,96
	.cfi_def_cfa_offset 0
	jr	ra
	.cfi_endproc
.LFE43:
	.size	SubmitForForm, .-SubmitForForm
	.section	.text.SubmitForFormSet,"ax",@progbits
	.align	1
	.globl	SubmitForFormSet
	.type	SubmitForFormSet, @function
SubmitForFormSet:
.LFB44:
	.loc 1 3491 1
	.cfi_startproc
	addi	sp,sp,-112
	.cfi_def_cfa_offset 112
	sd	ra,104(sp)
	sd	s0,96(sp)
	.cfi_offset 1, -8
	.cfi_offset 8, -16
	addi	s0,sp,112
	.cfi_def_cfa 8, 0
	sd	a0,-104(s0)
	mv	a5,a1
	sb	a5,-105(s0)
	.loc 1 3504 15
	sb	zero,-41(s0)
	.loc 1 3505 21
	sb	zero,-42(s0)
	.loc 1 3506 17
	sb	zero,-43(s0)
	.loc 1 3508 8
	ld	a0,-104(s0)
	call	IsNvUpdateRequiredForFormSet@plt
	mv	a5,a0
	.loc 1 3508 6 discriminator 1
	bne	a5,zero,.L582
	.loc 1 3509 12
	li	a5,0
	j	.L616
.L582:
	.loc 1 3512 8
	sd	zero,-80(s0)
	.loc 1 3513 12
	addi	a4,s0,-88
	addi	a5,s0,-80
	mv	a2,a4
	mv	a1,a5
	ld	a0,-104(s0)
	call	NoSubmitCheck
	sd	a0,-24(s0)
	.loc 1 3514 34
	ld	a5,-24(s0)
	.loc 1 3514 6
	bge	a5,zero,.L584
	.loc 1 3515 8
	lbu	a5,-105(s0)
	andi	a5,a5,0xff
	beq	a5,zero,.L585
	.loc 1 3519 29
	ld	a4,-80(s0)
	ld	a5,-104(s0)
	sd	a4,200(a5)
	.loc 1 3520 34
	ld	a4,-88(s0)
	ld	a5,-104(s0)
	sd	a4,208(a5)
	.loc 1 3521 7
	ld	a5,-104(s0)
	addi	a5,a5,24
	mv	a1,a5
	lla	a0,gBrowserSaveFailFormSetList
	call	InsertHeadList@plt
.L585:
	.loc 1 3524 12
	ld	a5,-24(s0)
	j	.L616
.L584:
	.loc 1 3527 8
	sd	zero,-80(s0)
	.loc 1 3528 12
	sd	zero,-88(s0)
	.loc 1 3532 24
	ld	a5,-104(s0)
	addi	a5,a5,232
	.loc 1 3532 10
	mv	a0,a5
	call	GetFirstNode@plt
	sd	a0,-32(s0)
	.loc 1 3533 9
	j	.L586
.L596:
	.loc 1 3534 24
	ld	a5,-32(s0)
	addi	a5,a5,-8
	.loc 1 3534 126
	ld	a4,0(a5)
	.loc 1 3534 211
	li	a5,1196707840
	addi	a5,a5,838
	bne	a4,a5,.L587
	.loc 1 3534 20 discriminator 1
	ld	a5,-32(s0)
	addi	a5,a5,-8
	sd	a5,-40(s0)
	j	.L588
.L587:
	.loc 1 3534 20 is_stmt 0 discriminator 2
	sd	zero,-40(s0)
.L588:
	.loc 1 3535 13 is_stmt 1
	ld	a5,-40(s0)
	ld	a5,48(a5)
	sd	a5,-56(s0)
	.loc 1 3536 25
	ld	a5,-104(s0)
	addi	a5,a5,232
	.loc 1 3536 12
	ld	a1,-32(s0)
	mv	a0,a5
	call	GetNextNode@plt
	sd	a0,-32(s0)
	.loc 1 3538 16
	ld	a5,-56(s0)
	lbu	a5,24(a5)
	.loc 1 3538 8
	mv	a4,a5
	li	a5,2
	beq	a4,a5,.L617
	.loc 1 3545 23
	ld	a5,-40(s0)
	ld	a5,88(a5)
	.loc 1 3545 8
	beq	a5,zero,.L618
	.loc 1 3552 14
	ld	a5,-40(s0)
	ld	a4,64(a5)
	addi	a5,s0,-64
	li	a3,1
	mv	a2,a4
	mv	a1,a5
	ld	a0,-56(s0)
	call	StorageToConfigResp
	sd	a0,-24(s0)
	.loc 1 3553 36
	ld	a5,-24(s0)
	.loc 1 3553 8
	bge	a5,zero,.L592
	.loc 1 3554 14
	ld	a5,-24(s0)
	j	.L616
.L592:
	.loc 1 3560 31
	lla	a5,mHiiConfigRouting
	ld	a5,0(a5)
	ld	a5,16(a5)
	.loc 1 3560 14
	lla	a4,mHiiConfigRouting
	ld	a4,0(a4)
	ld	a3,-64(s0)
	addi	a2,s0,-72
	mv	a1,a3
	mv	a0,a4
	jalr	a5
.LVL27:
	sd	a0,-24(s0)
	.loc 1 3565 36
	ld	a5,-24(s0)
	.loc 1 3565 8
	bge	a5,zero,.L593
	.loc 1 3569 25
	li	a5,1
	sb	a5,-42(s0)
	.loc 1 3570 7
	ld	a5,-40(s0)
	ld	a0,48(a5)
	.loc 1 3570 82
	ld	a5,-40(s0)
	ld	a1,64(a5)
	.loc 1 3570 7
	ld	a2,-72(s0)
	.loc 1 3570 109
	ld	a5,-40(s0)
	addi	a3,a5,104
	.loc 1 3570 148
	ld	a5,-40(s0)
	addi	a5,a5,112
	.loc 1 3570 7
	mv	a4,a5
	call	GetSyncRestoreConfigRequest
	.loc 1 3571 7
	ld	a5,-104(s0)
	addi	a4,a5,248
	ld	a5,-40(s0)
	addi	a5,a5,24
	mv	a1,a5
	mv	a0,a4
	call	InsertTailList@plt
	.loc 1 3572 10
	lbu	a5,-41(s0)
	andi	a5,a5,0xff
	bne	a5,zero,.L594
	.loc 1 3577 9
	ld	a5,-72(s0)
	addi	a4,s0,-88
	addi	a3,s0,-80
	mv	a2,a5
	ld	a1,-56(s0)
	ld	a0,-104(s0)
	call	FindQuestionFromProgress
	.loc 1 3579 31
	ld	a4,-80(s0)
	ld	a5,-104(s0)
	sd	a4,200(a5)
	.loc 1 3580 36
	ld	a4,-88(s0)
	ld	a5,-104(s0)
	sd	a4,208(a5)
	.loc 1 3581 12
	lbu	a5,-105(s0)
	andi	a5,a5,0xff
	beq	a5,zero,.L595
	.loc 1 3582 11
	ld	a5,-104(s0)
	addi	a5,a5,24
	mv	a1,a5
	lla	a0,gBrowserSaveFailFormSetList
	call	InsertTailList@plt
.L595:
	.loc 1 3585 21
	li	a5,1
	sb	a5,-41(s0)
.L594:
	.loc 1 3588 7
	ld	a5,-64(s0)
	mv	a0,a5
	call	FreePool@plt
	.loc 1 3589 7
	j	.L586
.L593:
	.loc 1 3592 5
	ld	a5,-64(s0)
	mv	a0,a5
	call	FreePool@plt
	.loc 1 3596 5
	ld	a5,-40(s0)
	ld	a5,64(a5)
	li	a2,1
	mv	a1,a5
	ld	a0,-56(s0)
	call	SynchronizeStorage
	j	.L586
.L617:
	.loc 1 3539 7
	nop
	j	.L586
.L618:
	.loc 1 3546 7
	nop
.L586:
	.loc 1 3533 19
	ld	a5,-104(s0)
	addi	a5,a5,232
	.loc 1 3533 11
	ld	a1,-32(s0)
	mv	a0,a5
	call	IsNull@plt
	mv	a5,a0
	.loc 1 3533 10 discriminator 1
	beq	a5,zero,.L596
	.loc 1 3602 12
	ld	a5,-80(s0)
	.loc 1 3602 6
	beq	a5,zero,.L597
	.loc 1 3603 8
	lbu	a5,-105(s0)
	andi	a5,a5,0xff
	bne	a5,zero,.L598
	.loc 1 3607 32
	ld	a5,-80(s0)
	.loc 1 3607 11
	lhu	a4,26(a5)
	ld	a5,-104(s0)
	ld	a5,40(a5)
	mv	a1,a5
	mv	a0,a4
	call	ConfirmSaveFail
	mv	a5,a0
	mv	a4,a5
	.loc 1 3607 10 discriminator 1
	li	a5,1
	bne	a4,a5,.L599
	.loc 1 3608 23
	li	a5,1
	sb	a5,-43(s0)
	.loc 1 3609 30
	ld	a5,-104(s0)
	addi	a5,a5,248
	.loc 1 3609 16
	mv	a0,a5
	call	GetFirstNode@plt
	sd	a0,-32(s0)
	.loc 1 3610 15
	j	.L600
.L604:
	.loc 1 3611 30
	ld	a5,-32(s0)
	addi	a5,a5,-24
	.loc 1 3611 140
	ld	a4,0(a5)
	.loc 1 3611 225
	li	a5,1196707840
	addi	a5,a5,838
	bne	a4,a5,.L601
	.loc 1 3611 26 discriminator 1
	ld	a5,-32(s0)
	addi	a5,a5,-24
	sd	a5,-40(s0)
	j	.L602
.L601:
	.loc 1 3611 26 is_stmt 0 discriminator 2
	sd	zero,-40(s0)
.L602:
	.loc 1 3612 19 is_stmt 1
	ld	a5,-40(s0)
	ld	a5,48(a5)
	sd	a5,-56(s0)
	.loc 1 3613 31
	ld	a5,-104(s0)
	addi	a5,a5,248
	.loc 1 3613 18
	ld	a1,-32(s0)
	mv	a0,a5
	call	GetNextNode@plt
	sd	a0,-32(s0)
	.loc 1 3618 11
	ld	a5,-40(s0)
	ld	a4,48(a5)
	ld	a5,-40(s0)
	ld	a5,104(a5)
	li	a2,0
	mv	a1,a5
	mv	a0,a4
	call	SynchronizeStorage
	.loc 1 3619 35
	ld	a5,-40(s0)
	ld	a5,104(a5)
	.loc 1 3619 11
	mv	a0,a5
	call	FreePool@plt
	.loc 1 3620 48
	ld	a5,-40(s0)
	sd	zero,104(a5)
	.loc 1 3621 29
	ld	a5,-40(s0)
	ld	a5,112(a5)
	.loc 1 3621 14
	beq	a5,zero,.L603
	.loc 1 3622 13
	ld	a5,-40(s0)
	ld	a4,48(a5)
	ld	a5,-40(s0)
	ld	a5,112(a5)
	li	a2,1
	mv	a1,a5
	mv	a0,a4
	call	SynchronizeStorage
	.loc 1 3623 37
	ld	a5,-40(s0)
	ld	a5,112(a5)
	.loc 1 3623 13
	mv	a0,a5
	call	FreePool@plt
	.loc 1 3624 47
	ld	a5,-40(s0)
	sd	zero,112(a5)
.L603:
	.loc 1 3627 18
	sd	zero,-24(s0)
.L600:
	.loc 1 3610 25
	ld	a5,-104(s0)
	addi	a5,a5,248
	.loc 1 3610 17
	ld	a1,-32(s0)
	mv	a0,a5
	call	IsNull@plt
	mv	a5,a0
	.loc 1 3610 16 discriminator 1
	beq	a5,zero,.L604
	j	.L606
.L599:
	.loc 1 3630 80
	ld	a5,-80(s0)
	.loc 1 3630 9
	addi	a5,a5,56
	mv	a1,a5
	lla	a0,mPrivateData+112
	call	UiCopyMenuList
	.loc 1 3632 26
	la	a5,gCurrentSelection
	ld	a5,0(a5)
	.loc 1 3632 35
	li	a4,2
	sd	a4,80(a5)
	.loc 1 3633 26
	la	a5,gCurrentSelection
	ld	a5,0(a5)
	.loc 1 3633 44
	ld	a4,-104(s0)
	ld	a4,40(a4)
	.loc 1 3633 35
	sd	a4,0(a5)
	.loc 1 3634 37
	la	a5,gCurrentSelection
	ld	a5,0(a5)
	.loc 1 3634 19
	addi	a4,a5,8
	.loc 1 3634 52
	ld	a5,-104(s0)
	addi	a5,a5,92
	.loc 1 3634 9
	mv	a1,a5
	mv	a0,a4
	call	CopyGuid@plt
	.loc 1 3635 41
	ld	a4,-80(s0)
	.loc 1 3635 26
	la	a5,gCurrentSelection
	ld	a5,0(a5)
	.loc 1 3635 41
	lhu	a4,24(a4)
	.loc 1 3635 35
	sh	a4,24(a5)
	.loc 1 3636 49
	ld	a4,-88(s0)
	.loc 1 3636 26
	la	a5,gCurrentSelection
	ld	a5,0(a5)
	.loc 1 3636 49
	lhu	a4,48(a4)
	.loc 1 3636 39
	sh	a4,26(a5)
	.loc 1 3638 16
	li	a5,-1
	slli	a5,a5,63
	addi	a5,a5,3
	sd	a5,-24(s0)
	.loc 1 3644 13
	j	.L606
.L609:
	.loc 1 3645 30
	ld	a5,-104(s0)
	addi	a5,a5,248
	.loc 1 3645 16
	mv	a0,a5
	call	GetFirstNode@plt
	sd	a0,-32(s0)
	.loc 1 3646 28
	ld	a5,-32(s0)
	addi	a5,a5,-24
	.loc 1 3646 138
	ld	a4,0(a5)
	.loc 1 3646 223
	li	a5,1196707840
	addi	a5,a5,838
	bne	a4,a5,.L607
	.loc 1 3646 24 discriminator 1
	ld	a5,-32(s0)
	addi	a5,a5,-24
	sd	a5,-40(s0)
	j	.L608
.L607:
	.loc 1 3646 24 is_stmt 0 discriminator 2
	sd	zero,-40(s0)
.L608:
	.loc 1 3647 26 is_stmt 1
	ld	a5,-40(s0)
	addi	a5,a5,24
	.loc 1 3647 9
	mv	a0,a5
	call	RemoveEntryList@plt
.L606:
	.loc 1 3644 28
	ld	a5,-104(s0)
	addi	a5,a5,248
	.loc 1 3644 15
	mv	a0,a5
	call	IsListEmpty@plt
	mv	a5,a0
	.loc 1 3644 14 discriminator 1
	beq	a5,zero,.L609
	j	.L597
.L598:
	.loc 1 3653 14
	li	a5,-1
	slli	a5,a5,63
	addi	a5,a5,3
	sd	a5,-24(s0)
.L597:
	.loc 1 3660 6
	lbu	a5,-43(s0)
	andi	a5,a5,0xff
	beq	a5,zero,.L610
	.loc 1 3661 26
	ld	a5,-104(s0)
	addi	a5,a5,280
	.loc 1 3661 12
	mv	a0,a5
	call	GetFirstNode@plt
	sd	a0,-32(s0)
	.loc 1 3662 11
	j	.L611
.L614:
	.loc 1 3663 16
	ld	a5,-32(s0)
	addi	a5,a5,-8
	.loc 1 3663 122
	ld	a4,0(a5)
	.loc 1 3663 207
	li	a5,1297235968
	addi	a5,a5,1606
	bne	a4,a5,.L612
	.loc 1 3663 207 is_stmt 0 discriminator 1
	ld	a5,-32(s0)
	addi	a5,a5,-8
	j	.L613
.L612:
	.loc 1 3663 207 discriminator 2
	li	a5,0
.L613:
	.loc 1 3663 12 is_stmt 1 discriminator 4
	sd	a5,-80(s0)
	.loc 1 3664 27
	ld	a5,-104(s0)
	addi	a5,a5,280
	.loc 1 3664 14
	ld	a1,-32(s0)
	mv	a0,a5
	call	GetNextNode@plt
	sd	a0,-32(s0)
	.loc 1 3668 7
	ld	a5,-80(s0)
	mv	a1,a5
	ld	a0,-104(s0)
	call	SendDiscardInfoToDriver
.L611:
	.loc 1 3662 21
	ld	a5,-104(s0)
	addi	a5,a5,280
	.loc 1 3662 13
	ld	a1,-32(s0)
	mv	a0,a5
	call	IsNull@plt
	mv	a5,a0
	.loc 1 3662 12 discriminator 1
	beq	a5,zero,.L614
.L610:
	.loc 1 3675 3
	li	a2,0
	ld	a1,-104(s0)
	li	a0,1
	call	ValueChangeResetFlagUpdate
	.loc 1 3680 6
	lbu	a5,-42(s0)
	andi	a5,a5,0xff
	bne	a5,zero,.L615
	.loc 1 3681 5
	li	a1,0
	ld	a0,-104(s0)
	call	SubmitCallback
.L615:
	.loc 1 3684 10
	ld	a5,-24(s0)
.L616:
	.loc 1 3685 1
	mv	a0,a5
	ld	ra,104(sp)
	.cfi_restore 1
	ld	s0,96(sp)
	.cfi_restore 8
	.cfi_def_cfa 2, 112
	addi	sp,sp,112
	.cfi_def_cfa_offset 0
	jr	ra
	.cfi_endproc
.LFE44:
	.size	SubmitForFormSet, .-SubmitForFormSet
	.section	.text.SubmitForSystem,"ax",@progbits
	.align	1
	.globl	SubmitForSystem
	.type	SubmitForSystem, @function
SubmitForSystem:
.LFB45:
	.loc 1 3698 1
	.cfi_startproc
	addi	sp,sp,-96
	.cfi_def_cfa_offset 96
	sd	ra,88(sp)
	sd	s0,80(sp)
	.cfi_offset 1, -8
	.cfi_offset 8, -16
	addi	s0,sp,96
	.cfi_def_cfa 8, 0
	.loc 1 3709 17
	lla	a5,mSystemSubmit
	li	a4,1
	sb	a4,0(a5)
	.loc 1 3710 10
	lla	a0,gBrowserFormSetList
	call	GetFirstNode@plt
	sd	a0,-32(s0)
	.loc 1 3711 9
	j	.L620
.L626:
	.loc 1 3712 22
	ld	a5,-32(s0)
	addi	a5,a5,-8
	.loc 1 3712 134
	ld	a4,0(a5)
	.loc 1 3712 219
	li	a5,1397112832
	addi	a5,a5,582
	bne	a4,a5,.L621
	.loc 1 3712 18 discriminator 1
	ld	a5,-32(s0)
	addi	a5,a5,-8
	sd	a5,-64(s0)
	j	.L622
.L621:
	.loc 1 3712 18 is_stmt 0 discriminator 2
	sd	zero,-64(s0)
.L622:
	.loc 1 3713 12 is_stmt 1
	ld	a1,-32(s0)
	lla	a0,gBrowserFormSetList
	call	GetNextNode@plt
	sd	a0,-32(s0)
	.loc 1 3714 10
	ld	a0,-64(s0)
	call	ValidateFormSet
	mv	a5,a0
	.loc 1 3714 8 discriminator 1
	beq	a5,zero,.L663
	.loc 1 3718 14
	li	a1,1
	ld	a0,-64(s0)
	call	SubmitForFormSet
	sd	a0,-24(s0)
	.loc 1 3719 36
	ld	a5,-24(s0)
	.loc 1 3719 8
	blt	a5,zero,.L664
	.loc 1 3726 10
	ld	a5,-64(s0)
	ld	a5,40(a5)
	mv	a0,a5
	call	IsHiiHandleInBrowserContext
	mv	a5,a0
	.loc 1 3726 8 discriminator 1
	bne	a5,zero,.L620
	.loc 1 3727 7
	ld	a0,-64(s0)
	call	CleanBrowserStorage
	.loc 1 3728 24
	ld	a5,-64(s0)
	addi	a5,a5,8
	.loc 1 3728 7
	mv	a0,a5
	call	RemoveEntryList@plt
	.loc 1 3729 7
	ld	a0,-64(s0)
	call	DestroyFormSet@plt
	j	.L620
.L663:
	.loc 1 3715 7
	nop
	j	.L620
.L664:
	.loc 1 3720 7
	nop
.L620:
	.loc 1 3711 11
	ld	a1,-32(s0)
	lla	a0,gBrowserFormSetList
	call	IsNull@plt
	mv	a5,a0
	.loc 1 3711 10 discriminator 1
	beq	a5,zero,.L626
	.loc 1 3733 17
	lla	a5,mSystemSubmit
	sb	zero,0(a5)
	.loc 1 3735 10
	sd	zero,-24(s0)
	.loc 1 3740 10
	lla	a0,gBrowserSaveFailFormSetList
	call	GetFirstNode@plt
	sd	a0,-32(s0)
	.loc 1 3741 9
	j	.L627
.L653:
	.loc 1 3742 22
	ld	a5,-32(s0)
	addi	a5,a5,-24
	.loc 1 3742 142
	ld	a4,0(a5)
	.loc 1 3742 227
	li	a5,1397112832
	addi	a5,a5,582
	bne	a4,a5,.L628
	.loc 1 3742 18 discriminator 1
	ld	a5,-32(s0)
	addi	a5,a5,-24
	sd	a5,-64(s0)
	j	.L629
.L628:
	.loc 1 3742 18 is_stmt 0 discriminator 2
	sd	zero,-64(s0)
.L629:
	.loc 1 3743 12 is_stmt 1
	ld	a1,-32(s0)
	lla	a0,gBrowserSaveFailFormSetList
	call	GetNextNode@plt
	sd	a0,-32(s0)
	.loc 1 3745 10
	ld	a0,-64(s0)
	call	ValidateFormSet
	mv	a5,a0
	.loc 1 3745 8 discriminator 1
	beq	a5,zero,.L665
	.loc 1 3749 24
	ld	a5,-64(s0)
	ld	a5,200(a5)
	.loc 1 3749 10
	sd	a5,-80(s0)
	.loc 1 3750 28
	ld	a5,-64(s0)
	ld	a5,208(a5)
	.loc 1 3750 14
	sd	a5,-88(s0)
	.loc 1 3755 22
	ld	a5,-64(s0)
	addi	a5,a5,248
	.loc 1 3755 9
	mv	a0,a5
	call	IsListEmpty@plt
	mv	a5,a0
	.loc 1 3755 8 discriminator 1
	beq	a5,zero,.L632
	.loc 1 3759 48
	ld	a5,-80(s0)
	.loc 1 3759 23
	lhu	a4,26(a5)
	ld	a5,-64(s0)
	ld	a5,40(a5)
	mv	a1,a5
	mv	a0,a4
	call	ConfirmNoSubmitFail
	mv	a5,a0
	sw	a5,-68(s0)
	j	.L633
.L632:
	.loc 1 3761 44
	ld	a5,-80(s0)
	.loc 1 3761 23
	lhu	a4,26(a5)
	ld	a5,-64(s0)
	ld	a5,40(a5)
	mv	a1,a5
	mv	a0,a4
	call	ConfirmSaveFail
	mv	a5,a0
	sw	a5,-68(s0)
.L633:
	.loc 1 3764 8
	lw	a5,-68(s0)
	sext.w	a4,a5
	li	a5,1
	bne	a4,a5,.L634
	.loc 1 3765 24
	ld	a5,-64(s0)
	addi	a5,a5,248
	.loc 1 3765 11
	mv	a0,a5
	call	IsListEmpty@plt
	mv	a5,a0
	.loc 1 3765 10 discriminator 1
	beq	a5,zero,.L635
	.loc 1 3766 37
	ld	a5,-64(s0)
	addi	a5,a5,232
	.loc 1 3766 23
	mv	a0,a5
	call	GetFirstNode@plt
	sd	a0,-48(s0)
	.loc 1 3767 15
	j	.L636
.L639:
	.loc 1 3768 30
	ld	a5,-48(s0)
	addi	a5,a5,-8
	.loc 1 3768 139
	ld	a4,0(a5)
	.loc 1 3768 224
	li	a5,1196707840
	addi	a5,a5,838
	bne	a4,a5,.L637
	.loc 1 3768 26 discriminator 1
	ld	a5,-48(s0)
	addi	a5,a5,-8
	sd	a5,-56(s0)
	j	.L638
.L637:
	.loc 1 3768 26 is_stmt 0 discriminator 2
	sd	zero,-56(s0)
.L638:
	.loc 1 3769 38 is_stmt 1
	ld	a5,-64(s0)
	addi	a5,a5,232
	.loc 1 3769 25
	ld	a1,-48(s0)
	mv	a0,a5
	call	GetNextNode@plt
	sd	a0,-48(s0)
	.loc 1 3771 11
	ld	a5,-56(s0)
	ld	a4,48(a5)
	ld	a5,-56(s0)
	ld	a5,64(a5)
	li	a2,0
	mv	a1,a5
	mv	a0,a4
	call	SynchronizeStorage
.L636:
	.loc 1 3767 25
	ld	a5,-64(s0)
	addi	a5,a5,232
	.loc 1 3767 17
	ld	a1,-48(s0)
	mv	a0,a5
	call	IsNull@plt
	mv	a5,a0
	.loc 1 3767 16 discriminator 1
	beq	a5,zero,.L639
	j	.L640
.L635:
	.loc 1 3774 37
	ld	a5,-64(s0)
	addi	a5,a5,248
	.loc 1 3774 23
	mv	a0,a5
	call	GetFirstNode@plt
	sd	a0,-48(s0)
	.loc 1 3775 15
	j	.L641
.L645:
	.loc 1 3776 30
	ld	a5,-48(s0)
	addi	a5,a5,-24
	.loc 1 3776 147
	ld	a4,0(a5)
	.loc 1 3776 232
	li	a5,1196707840
	addi	a5,a5,838
	bne	a4,a5,.L642
	.loc 1 3776 26 discriminator 1
	ld	a5,-48(s0)
	addi	a5,a5,-24
	sd	a5,-56(s0)
	j	.L643
.L642:
	.loc 1 3776 26 is_stmt 0 discriminator 2
	sd	zero,-56(s0)
.L643:
	.loc 1 3777 38 is_stmt 1
	ld	a5,-64(s0)
	addi	a5,a5,248
	.loc 1 3777 25
	ld	a1,-48(s0)
	mv	a0,a5
	call	GetNextNode@plt
	sd	a0,-48(s0)
	.loc 1 3782 11
	ld	a5,-56(s0)
	ld	a4,48(a5)
	ld	a5,-56(s0)
	ld	a5,104(a5)
	li	a2,0
	mv	a1,a5
	mv	a0,a4
	call	SynchronizeStorage
	.loc 1 3783 35
	ld	a5,-56(s0)
	ld	a5,104(a5)
	.loc 1 3783 11
	mv	a0,a5
	call	FreePool@plt
	.loc 1 3784 48
	ld	a5,-56(s0)
	sd	zero,104(a5)
	.loc 1 3785 30
	ld	a5,-56(s0)
	ld	a5,112(a5)
	.loc 1 3785 14
	beq	a5,zero,.L641
	.loc 1 3786 13
	ld	a5,-56(s0)
	ld	a4,48(a5)
	ld	a5,-56(s0)
	ld	a5,112(a5)
	li	a2,1
	mv	a1,a5
	mv	a0,a4
	call	SynchronizeStorage
	.loc 1 3787 37
	ld	a5,-56(s0)
	ld	a5,112(a5)
	.loc 1 3787 13
	mv	a0,a5
	call	FreePool@plt
	.loc 1 3788 47
	ld	a5,-56(s0)
	sd	zero,112(a5)
.L641:
	.loc 1 3775 25
	ld	a5,-64(s0)
	addi	a5,a5,248
	.loc 1 3775 17
	ld	a1,-48(s0)
	mv	a0,a5
	call	IsNull@plt
	mv	a5,a0
	.loc 1 3775 16 discriminator 1
	beq	a5,zero,.L645
.L640:
	.loc 1 3793 32
	ld	a5,-64(s0)
	addi	a5,a5,280
	.loc 1 3793 18
	mv	a0,a5
	call	GetFirstNode@plt
	sd	a0,-40(s0)
	.loc 1 3794 13
	j	.L646
.L649:
	.loc 1 3795 18
	ld	a5,-40(s0)
	addi	a5,a5,-8
	.loc 1 3795 128
	ld	a4,0(a5)
	.loc 1 3795 213
	li	a5,1297235968
	addi	a5,a5,1606
	bne	a4,a5,.L647
	.loc 1 3795 213 is_stmt 0 discriminator 1
	ld	a5,-40(s0)
	addi	a5,a5,-8
	j	.L648
.L647:
	.loc 1 3795 213 discriminator 2
	li	a5,0
.L648:
	.loc 1 3795 14 is_stmt 1 discriminator 4
	sd	a5,-80(s0)
	.loc 1 3796 33
	ld	a5,-64(s0)
	addi	a5,a5,280
	.loc 1 3796 20
	ld	a1,-40(s0)
	mv	a0,a5
	call	GetNextNode@plt
	sd	a0,-40(s0)
	.loc 1 3800 9
	ld	a5,-80(s0)
	mv	a1,a5
	ld	a0,-64(s0)
	call	SendDiscardInfoToDriver
.L646:
	.loc 1 3794 23
	ld	a5,-64(s0)
	addi	a5,a5,280
	.loc 1 3794 15
	ld	a1,-40(s0)
	mv	a0,a5
	call	IsNull@plt
	mv	a5,a0
	.loc 1 3794 14 discriminator 1
	beq	a5,zero,.L649
	.loc 1 3803 12
	ld	a5,-64(s0)
	ld	a5,40(a5)
	mv	a0,a5
	call	IsHiiHandleInBrowserContext
	mv	a5,a0
	.loc 1 3803 10 discriminator 1
	bne	a5,zero,.L650
	.loc 1 3804 9
	ld	a0,-64(s0)
	call	CleanBrowserStorage
	.loc 1 3805 26
	ld	a5,-64(s0)
	addi	a5,a5,8
	.loc 1 3805 9
	mv	a0,a5
	call	RemoveEntryList@plt
	.loc 1 3806 26
	ld	a5,-64(s0)
	addi	a5,a5,24
	.loc 1 3806 9
	mv	a0,a5
	call	RemoveEntryList@plt
	.loc 1 3807 9
	ld	a0,-64(s0)
	call	DestroyFormSet@plt
	j	.L627
.L650:
	.loc 1 3809 9
	li	a2,0
	ld	a1,-64(s0)
	li	a0,0
	call	ValueChangeResetFlagUpdate
	j	.L627
.L634:
	.loc 1 3812 24
	ld	a5,-64(s0)
	addi	a5,a5,248
	.loc 1 3812 11
	mv	a0,a5
	call	IsListEmpty@plt
	mv	a5,a0
	.loc 1 3812 10 discriminator 1
	beq	a5,zero,.L651
	.loc 1 3813 9
	addi	a4,s0,-88
	addi	a5,s0,-80
	mv	a2,a4
	mv	a1,a5
	ld	a0,-64(s0)
	call	NoSubmitCheck
.L651:
	.loc 1 3816 78
	ld	a5,-80(s0)
	.loc 1 3816 7
	addi	a5,a5,56
	mv	a1,a5
	lla	a0,mPrivateData+112
	call	UiCopyMenuList
	.loc 1 3818 24
	la	a5,gCurrentSelection
	ld	a5,0(a5)
	.loc 1 3818 33
	li	a4,2
	sd	a4,80(a5)
	.loc 1 3819 24
	la	a5,gCurrentSelection
	ld	a5,0(a5)
	.loc 1 3819 47
	ld	a4,-64(s0)
	ld	a4,40(a4)
	.loc 1 3819 33
	sd	a4,0(a5)
	.loc 1 3820 35
	la	a5,gCurrentSelection
	ld	a5,0(a5)
	.loc 1 3820 17
	addi	a4,a5,8
	.loc 1 3820 50
	ld	a5,-64(s0)
	addi	a5,a5,92
	.loc 1 3820 7
	mv	a1,a5
	mv	a0,a4
	call	CopyGuid@plt
	.loc 1 3821 39
	ld	a4,-80(s0)
	.loc 1 3821 24
	la	a5,gCurrentSelection
	ld	a5,0(a5)
	.loc 1 3821 39
	lhu	a4,24(a4)
	.loc 1 3821 33
	sh	a4,24(a5)
	.loc 1 3822 47
	ld	a4,-88(s0)
	.loc 1 3822 24
	la	a5,gCurrentSelection
	ld	a5,0(a5)
	.loc 1 3822 47
	lhu	a4,48(a4)
	.loc 1 3822 37
	sh	a4,26(a5)
	.loc 1 3824 14
	li	a5,-1
	slli	a5,a5,63
	addi	a5,a5,3
	sd	a5,-24(s0)
	.loc 1 3825 7
	j	.L652
.L665:
	.loc 1 3746 7
	nop
.L627:
	.loc 1 3741 11
	ld	a1,-32(s0)
	lla	a0,gBrowserSaveFailFormSetList
	call	IsNull@plt
	mv	a5,a0
	.loc 1 3741 10 discriminator 1
	beq	a5,zero,.L653
.L652:
	.loc 1 3832 9
	j	.L654
.L661:
	.loc 1 3833 12
	lla	a0,gBrowserSaveFailFormSetList
	call	GetFirstNode@plt
	sd	a0,-32(s0)
	.loc 1 3834 22
	ld	a5,-32(s0)
	addi	a5,a5,-24
	.loc 1 3834 142
	ld	a4,0(a5)
	.loc 1 3834 227
	li	a5,1397112832
	addi	a5,a5,582
	bne	a4,a5,.L655
	.loc 1 3834 18 discriminator 1
	ld	a5,-32(s0)
	addi	a5,a5,-24
	sd	a5,-64(s0)
	j	.L656
.L655:
	.loc 1 3834 18 is_stmt 0 discriminator 2
	sd	zero,-64(s0)
.L656:
	.loc 1 3835 22 is_stmt 1
	ld	a5,-64(s0)
	addi	a5,a5,24
	.loc 1 3835 5
	mv	a0,a5
	call	RemoveEntryList@plt
	.loc 1 3837 11
	j	.L657
.L660:
	.loc 1 3838 35
	ld	a5,-64(s0)
	addi	a5,a5,248
	.loc 1 3838 21
	mv	a0,a5
	call	GetFirstNode@plt
	sd	a0,-48(s0)
	.loc 1 3839 26
	ld	a5,-48(s0)
	addi	a5,a5,-24
	.loc 1 3839 143
	ld	a4,0(a5)
	.loc 1 3839 228
	li	a5,1196707840
	addi	a5,a5,838
	bne	a4,a5,.L658
	.loc 1 3839 22 discriminator 1
	ld	a5,-48(s0)
	addi	a5,a5,-24
	sd	a5,-56(s0)
	j	.L659
.L658:
	.loc 1 3839 22 is_stmt 0 discriminator 2
	sd	zero,-56(s0)
.L659:
	.loc 1 3840 24 is_stmt 1
	ld	a5,-56(s0)
	addi	a5,a5,24
	.loc 1 3840 7
	mv	a0,a5
	call	RemoveEntryList@plt
.L657:
	.loc 1 3837 26
	ld	a5,-64(s0)
	addi	a5,a5,248
	.loc 1 3837 13
	mv	a0,a5
	call	IsListEmpty@plt
	mv	a5,a0
	.loc 1 3837 12 discriminator 1
	beq	a5,zero,.L660
.L654:
	.loc 1 3832 11
	lla	a0,gBrowserSaveFailFormSetList
	call	IsListEmpty@plt
	mv	a5,a0
	.loc 1 3832 10 discriminator 1
	beq	a5,zero,.L661
	.loc 1 3844 10
	ld	a5,-24(s0)
	.loc 1 3845 1
	mv	a0,a5
	ld	ra,88(sp)
	.cfi_restore 1
	ld	s0,80(sp)
	.cfi_restore 8
	.cfi_def_cfa 2, 96
	addi	sp,sp,96
	.cfi_def_cfa_offset 0
	jr	ra
	.cfi_endproc
.LFE45:
	.size	SubmitForSystem, .-SubmitForSystem
	.section	.text.SubmitForm,"ax",@progbits
	.align	1
	.globl	SubmitForm
	.type	SubmitForm, @function
SubmitForm:
.LFB46:
	.loc 1 3864 1
	.cfi_startproc
	addi	sp,sp,-64
	.cfi_def_cfa_offset 64
	sd	ra,56(sp)
	sd	s0,48(sp)
	.cfi_offset 1, -8
	.cfi_offset 8, -16
	addi	s0,sp,64
	.cfi_def_cfa 8, 0
	sd	a0,-40(s0)
	sd	a1,-48(s0)
	mv	a5,a2
	sw	a5,-52(s0)
	.loc 1 3867 3
	lw	a5,-52(s0)
	sext.w	a4,a5
	li	a5,2
	beq	a4,a5,.L667
	lw	a5,-52(s0)
	sext.w	a4,a5
	li	a5,2
	bgtu	a4,a5,.L668
	lw	a5,-52(s0)
	sext.w	a5,a5
	beq	a5,zero,.L669
	lw	a5,-52(s0)
	sext.w	a4,a5
	li	a5,1
	beq	a4,a5,.L670
	j	.L668
.L669:
	.loc 1 3869 16
	ld	a1,-48(s0)
	ld	a0,-40(s0)
	call	SubmitForForm
	sd	a0,-24(s0)
	.loc 1 3870 7
	j	.L671
.L670:
	.loc 1 3873 16
	li	a1,0
	ld	a0,-40(s0)
	call	SubmitForFormSet
	sd	a0,-24(s0)
	.loc 1 3874 7
	j	.L671
.L667:
	.loc 1 3877 16
	call	SubmitForSystem
	sd	a0,-24(s0)
	.loc 1 3878 7
	j	.L671
.L668:
	.loc 1 3881 14
	li	a5,-1
	slli	a5,a5,63
	addi	a5,a5,3
	sd	a5,-24(s0)
	.loc 1 3882 7
	nop
.L671:
	.loc 1 3885 10
	ld	a5,-24(s0)
	.loc 1 3886 1
	mv	a0,a5
	ld	ra,56(sp)
	.cfi_restore 1
	ld	s0,48(sp)
	.cfi_restore 8
	.cfi_def_cfa 2, 64
	addi	sp,sp,64
	.cfi_def_cfa_offset 0
	jr	ra
	.cfi_endproc
.LFE46:
	.size	SubmitForm, .-SubmitForm
	.section	.text.HiiToLower,"ax",@progbits
	.align	1
	.globl	HiiToLower
	.type	HiiToLower, @function
HiiToLower:
.LFB47:
	.loc 1 3900 1
	.cfi_startproc
	addi	sp,sp,-48
	.cfi_def_cfa_offset 48
	sd	ra,40(sp)
	sd	s0,32(sp)
	.cfi_offset 1, -8
	.cfi_offset 8, -16
	addi	s0,sp,48
	.cfi_def_cfa 8, 0
	sd	a0,-40(s0)
	.loc 1 3909 15
	ld	a5,-40(s0)
	sd	a5,-24(s0)
	.loc 1 3909 37
	sb	zero,-25(s0)
	.loc 1 3909 3
	j	.L674
.L678:
	.loc 1 3910 9
	ld	a5,-24(s0)
	lhu	a5,0(a5)
	.loc 1 3910 8
	sext.w	a4,a5
	li	a5,61
	bne	a4,a5,.L675
	.loc 1 3911 13
	li	a5,1
	sb	a5,-25(s0)
	j	.L676
.L675:
	.loc 1 3912 16
	ld	a5,-24(s0)
	lhu	a5,0(a5)
	.loc 1 3912 15
	sext.w	a4,a5
	li	a5,38
	bne	a4,a5,.L677
	.loc 1 3913 13
	sb	zero,-25(s0)
	j	.L676
.L677:
	.loc 1 3914 15
	lbu	a5,-25(s0)
	andi	a5,a5,0xff
	beq	a5,zero,.L676
	.loc 1 3914 26 discriminator 1
	ld	a5,-24(s0)
	lhu	a5,0(a5)
	.loc 1 3914 22 discriminator 1
	sext.w	a4,a5
	li	a5,64
	bleu	a4,a5,.L676
	.loc 1 3914 47 discriminator 2
	ld	a5,-24(s0)
	lhu	a5,0(a5)
	.loc 1 3914 43 discriminator 2
	sext.w	a4,a5
	li	a5,70
	bgtu	a4,a5,.L676
	.loc 1 3915 26
	ld	a5,-24(s0)
	lhu	a5,0(a5)
	.loc 1 3915 17
	addiw	a5,a5,32
	slli	a4,a5,48
	srli	a4,a4,48
	.loc 1 3915 15
	ld	a5,-24(s0)
	sh	a4,0(a5)
.L676:
	.loc 1 3909 82 discriminator 2
	ld	a5,-24(s0)
	addi	a5,a5,2
	sd	a5,-24(s0)
.L674:
	.loc 1 3909 58 discriminator 1
	ld	a5,-24(s0)
	lhu	a5,0(a5)
	.loc 1 3909 66 discriminator 1
	bne	a5,zero,.L678
	.loc 1 3918 1
	nop
	nop
	ld	ra,40(sp)
	.cfi_restore 1
	ld	s0,32(sp)
	.cfi_restore 8
	.cfi_def_cfa 2, 48
	addi	sp,sp,48
	.cfi_def_cfa_offset 0
	jr	ra
	.cfi_endproc
.LFE47:
	.size	HiiToLower, .-HiiToLower
	.section	.text.GetOffsetFromConfigResp,"ax",@progbits
	.align	1
	.globl	GetOffsetFromConfigResp
	.type	GetOffsetFromConfigResp, @function
GetOffsetFromConfigResp:
.LFB48:
	.loc 1 3934 1
	.cfi_startproc
	addi	sp,sp,-64
	.cfi_def_cfa_offset 64
	sd	ra,56(sp)
	sd	s0,48(sp)
	sd	s1,40(sp)
	.cfi_offset 1, -8
	.cfi_offset 8, -16
	.cfi_offset 9, -24
	addi	s0,sp,64
	.cfi_def_cfa 8, 0
	sd	a0,-56(s0)
	sd	a1,-64(s0)
	.loc 1 3941 15
	ld	a5,-56(s0)
	ld	a5,56(a5)
	.loc 1 3941 24
	lbu	a5,24(a5)
	.loc 1 3941 6
	mv	a4,a5
	li	a5,1
	bne	a4,a5,.L680
	.loc 1 3942 50
	ld	a5,-56(s0)
	ld	a5,80(a5)
	.loc 1 3942 22
	mv	a1,a5
	ld	a0,-64(s0)
	call	StrStr@plt
	sd	a0,-40(s0)
	.loc 1 3943 8
	ld	a5,-40(s0)
	beq	a5,zero,.L681
	.loc 1 3947 41
	ld	a5,-56(s0)
	ld	a5,80(a5)
	.loc 1 3947 25
	mv	a0,a5
	call	StrLen@plt
	mv	a5,a0
	.loc 1 3947 57 discriminator 1
	addi	a5,a5,1
	.loc 1 3947 22 discriminator 1
	slli	a5,a5,1
	ld	a4,-40(s0)
	add	a5,a4,a5
	sd	a5,-40(s0)
.L681:
	.loc 1 3950 12
	ld	a5,-40(s0)
	j	.L682
.L680:
	.loc 1 3960 3
	ld	a0,-64(s0)
	call	HiiToLower
	.loc 1 3965 48
	ld	a5,-56(s0)
	ld	a5,88(a5)
	.loc 1 3965 20
	mv	a1,a5
	ld	a0,-64(s0)
	call	StrStr@plt
	sd	a0,-40(s0)
	.loc 1 3966 6
	ld	a5,-40(s0)
	beq	a5,zero,.L683
	.loc 1 3970 39
	ld	a5,-56(s0)
	ld	a5,88(a5)
	.loc 1 3970 23
	mv	a0,a5
	call	StrLen@plt
	mv	s1,a0
	.loc 1 3970 54 discriminator 1
	lla	a0,.LC6
	call	StrLen@plt
	mv	a5,a0
	.loc 1 3970 52 discriminator 2
	add	a5,s1,a5
	.loc 1 3970 20 discriminator 2
	slli	a5,a5,1
	ld	a4,-40(s0)
	add	a5,a4,a5
	sd	a5,-40(s0)
	.loc 1 3971 12
	ld	a5,-40(s0)
	j	.L682
.L683:
	.loc 1 3977 50
	ld	a5,-56(s0)
	ld	a5,88(a5)
	.loc 1 3977 15
	mv	a0,a5
	call	StrSize@plt
	mv	a4,a0
	.loc 1 3977 72 discriminator 1
	ld	a5,-56(s0)
	ld	a5,88(a5)
	.loc 1 3977 15 discriminator 1
	mv	a1,a5
	mv	a0,a4
	call	AllocateCopyPool@plt
	sd	a0,-48(s0)
	.loc 1 3979 3
	ld	a0,-48(s0)
	call	HiiToLower
	.loc 1 3980 20
	ld	a1,-48(s0)
	ld	a0,-64(s0)
	call	StrStr@plt
	sd	a0,-40(s0)
	.loc 1 3981 3
	ld	a0,-48(s0)
	call	FreePool@plt
	.loc 1 3983 6
	ld	a5,-40(s0)
	beq	a5,zero,.L684
	.loc 1 3987 39
	ld	a5,-56(s0)
	ld	a5,88(a5)
	.loc 1 3987 23
	mv	a0,a5
	call	StrLen@plt
	mv	s1,a0
	.loc 1 3987 54 discriminator 1
	lla	a0,.LC6
	call	StrLen@plt
	mv	a5,a0
	.loc 1 3987 52 discriminator 2
	add	a5,s1,a5
	.loc 1 3987 20 discriminator 2
	slli	a5,a5,1
	ld	a4,-40(s0)
	add	a5,a4,a5
	sd	a5,-40(s0)
.L684:
	.loc 1 3990 10
	ld	a5,-40(s0)
.L682:
	.loc 1 3991 1
	mv	a0,a5
	ld	ra,56(sp)
	.cfi_restore 1
	ld	s0,48(sp)
	.cfi_restore 8
	.cfi_def_cfa 2, 64
	ld	s1,40(sp)
	.cfi_restore 9
	addi	sp,sp,64
	.cfi_def_cfa_offset 0
	jr	ra
	.cfi_endproc
.LFE48:
	.size	GetOffsetFromConfigResp, .-GetOffsetFromConfigResp
	.section	.text.GetDefaultValueFromAltCfg,"ax",@progbits
	.align	1
	.globl	GetDefaultValueFromAltCfg
	.type	GetDefaultValueFromAltCfg, @function
GetDefaultValueFromAltCfg:
.LFB49:
	.loc 1 4009 1
	.cfi_startproc
	addi	sp,sp,-96
	.cfi_def_cfa_offset 96
	sd	ra,88(sp)
	sd	s0,80(sp)
	.cfi_offset 1, -8
	.cfi_offset 8, -16
	addi	s0,sp,96
	.cfi_def_cfa 8, 0
	sd	a0,-72(s0)
	sd	a1,-80(s0)
	sd	a2,-88(s0)
	.loc 1 4017 11
	ld	a5,-88(s0)
	ld	a5,56(a5)
	sd	a5,-56(s0)
	.loc 1 4018 6
	ld	a5,-56(s0)
	beq	a5,zero,.L686
	.loc 1 4018 44 discriminator 1
	ld	a5,-56(s0)
	lbu	a5,24(a5)
	.loc 1 4018 33 discriminator 1
	mv	a4,a5
	li	a5,2
	bne	a4,a5,.L687
.L686:
	.loc 1 4019 12
	li	a5,-1
	slli	a5,a5,63
	addi	a5,a5,14
	j	.L688
.L687:
	.loc 1 4026 14
	sd	zero,-32(s0)
	.loc 1 4027 24
	ld	a5,-80(s0)
	addi	a5,a5,104
	.loc 1 4027 10
	mv	a0,a5
	call	GetFirstNode@plt
	sd	a0,-40(s0)
	.loc 1 4028 9
	j	.L689
.L693:
	.loc 1 4029 20
	ld	a5,-40(s0)
	addi	a5,a5,-8
	.loc 1 4029 146
	ld	a4,0(a5)
	.loc 1 4029 231
	li	a5,1397899264
	addi	a5,a5,838
	bne	a4,a5,.L690
	.loc 1 4029 16 discriminator 1
	ld	a5,-40(s0)
	addi	a5,a5,-8
	sd	a5,-48(s0)
	j	.L691
.L690:
	.loc 1 4029 16 is_stmt 0 discriminator 2
	sd	zero,-48(s0)
.L691:
	.loc 1 4030 25 is_stmt 1
	ld	a5,-80(s0)
	addi	a5,a5,104
	.loc 1 4030 12
	ld	a1,-40(s0)
	mv	a0,a5
	call	GetNextNode@plt
	sd	a0,-40(s0)
	.loc 1 4032 30
	ld	a5,-48(s0)
	ld	a5,88(a5)
	.loc 1 4032 8
	ld	a4,-56(s0)
	bne	a4,a5,.L689
	.loc 1 4033 18
	ld	a5,-48(s0)
	ld	a5,48(a5)
	sd	a5,-32(s0)
	.loc 1 4034 7
	j	.L692
.L689:
	.loc 1 4028 19
	ld	a5,-80(s0)
	addi	a5,a5,104
	.loc 1 4028 11
	ld	a1,-40(s0)
	mv	a0,a5
	call	IsNull@plt
	mv	a5,a0
	.loc 1 4028 10 discriminator 1
	beq	a5,zero,.L693
.L692:
	.loc 1 4038 6
	ld	a5,-32(s0)
	bne	a5,zero,.L694
	.loc 1 4039 26
	ld	a5,-72(s0)
	addi	a5,a5,232
	.loc 1 4039 12
	mv	a0,a5
	call	GetFirstNode@plt
	sd	a0,-40(s0)
	.loc 1 4040 11
	j	.L695
.L698:
	.loc 1 4041 26
	ld	a5,-40(s0)
	addi	a5,a5,-8
	.loc 1 4041 128
	ld	a4,0(a5)
	.loc 1 4041 213
	li	a5,1196707840
	addi	a5,a5,838
	bne	a4,a5,.L696
	.loc 1 4041 22 discriminator 1
	ld	a5,-40(s0)
	addi	a5,a5,-8
	sd	a5,-24(s0)
	j	.L697
.L696:
	.loc 1 4041 22 is_stmt 0 discriminator 2
	sd	zero,-24(s0)
.L697:
	.loc 1 4042 27 is_stmt 1
	ld	a5,-72(s0)
	addi	a5,a5,232
	.loc 1 4042 14
	ld	a1,-40(s0)
	mv	a0,a5
	call	GetNextNode@plt
	sd	a0,-40(s0)
	.loc 1 4044 36
	ld	a5,-24(s0)
	ld	a5,48(a5)
	.loc 1 4044 10
	ld	a4,-56(s0)
	bne	a4,a5,.L695
	.loc 1 4045 20
	ld	a5,-24(s0)
	ld	a5,72(a5)
	sd	a5,-32(s0)
	.loc 1 4046 9
	j	.L694
.L695:
	.loc 1 4040 21
	ld	a5,-72(s0)
	addi	a5,a5,232
	.loc 1 4040 13
	ld	a1,-40(s0)
	mv	a0,a5
	call	IsNull@plt
	mv	a5,a0
	.loc 1 4040 12 discriminator 1
	beq	a5,zero,.L698
.L694:
	.loc 1 4051 6
	ld	a5,-32(s0)
	bne	a5,zero,.L699
	.loc 1 4052 12
	li	a5,-1
	slli	a5,a5,63
	addi	a5,a5,14
	j	.L688
.L699:
	.loc 1 4055 11
	ld	a1,-32(s0)
	ld	a0,-88(s0)
	call	GetOffsetFromConfigResp
	sd	a0,-64(s0)
	.loc 1 4056 6
	ld	a5,-64(s0)
	bne	a5,zero,.L700
	.loc 1 4057 12
	li	a5,-1
	slli	a5,a5,63
	addi	a5,a5,14
	j	.L688
.L700:
	.loc 1 4060 10
	ld	a1,-64(s0)
	ld	a0,-88(s0)
	call	BufferToValue
	mv	a5,a0
.L688:
	.loc 1 4061 1
	mv	a0,a5
	ld	ra,88(sp)
	.cfi_restore 1
	ld	s0,80(sp)
	.cfi_restore 8
	.cfi_def_cfa 2, 96
	addi	sp,sp,96
	.cfi_def_cfa_offset 0
	jr	ra
	.cfi_endproc
.LFE49:
	.size	GetDefaultValueFromAltCfg, .-GetDefaultValueFromAltCfg
	.section	.text.GetDefaultIdForCallBack,"ax",@progbits
	.align	1
	.globl	GetDefaultIdForCallBack
	.type	GetDefaultIdForCallBack, @function
GetDefaultIdForCallBack:
.LFB50:
	.loc 1 4075 1
	.cfi_startproc
	addi	sp,sp,-32
	.cfi_def_cfa_offset 32
	sd	ra,24(sp)
	sd	s0,16(sp)
	.cfi_offset 1, -8
	.cfi_offset 8, -16
	addi	s0,sp,32
	.cfi_def_cfa 8, 0
	sd	a0,-24(s0)
	.loc 1 4076 6
	ld	a5,-24(s0)
	bne	a5,zero,.L702
	.loc 1 4077 12
	li	a5,4096
	j	.L703
.L702:
	.loc 1 4078 13
	ld	a4,-24(s0)
	li	a5,1
	bne	a4,a5,.L704
	.loc 1 4079 12
	li	a5,4096
	addi	a5,a5,1
	j	.L703
.L704:
	.loc 1 4080 13
	ld	a4,-24(s0)
	li	a5,2
	bne	a4,a5,.L705
	.loc 1 4081 12
	li	a5,4096
	addi	a5,a5,2
	j	.L703
.L705:
	.loc 1 4082 13
	ld	a4,-24(s0)
	li	a5,16384
	bltu	a4,a5,.L706
	.loc 1 4082 36 discriminator 1
	ld	a4,-24(s0)
	li	a5,20480
	bgeu	a4,a5,.L706
	.loc 1 4083 31
	ld	a4,-24(s0)
	li	a5,-8192
	add	a5,a4,a5
	j	.L703
.L706:
	.loc 1 4084 13
	ld	a4,-24(s0)
	li	a5,32768
	bltu	a4,a5,.L707
	.loc 1 4084 36 discriminator 1
	ld	a4,-24(s0)
	li	a5,36864
	bgeu	a4,a5,.L707
	.loc 1 4085 31
	ld	a4,-24(s0)
	li	a5,-20480
	add	a5,a4,a5
	j	.L703
.L707:
	.loc 1 4086 13
	ld	a4,-24(s0)
	li	a5,49152
	bltu	a4,a5,.L708
	.loc 1 4086 36 discriminator 1
	ld	a4,-24(s0)
	li	a5,53248
	bgeu	a4,a5,.L708
	.loc 1 4087 31
	ld	a4,-24(s0)
	li	a5,-32768
	add	a5,a4,a5
	j	.L703
.L708:
	.loc 1 4089 12
	li	a5,-1
.L703:
	.loc 1 4091 1
	mv	a0,a5
	ld	ra,24(sp)
	.cfi_restore 1
	ld	s0,16(sp)
	.cfi_restore 8
	.cfi_def_cfa 2, 32
	addi	sp,sp,32
	.cfi_def_cfa_offset 0
	jr	ra
	.cfi_endproc
.LFE50:
	.size	GetDefaultIdForCallBack, .-GetDefaultIdForCallBack
	.section	.text.GetArrayData,"ax",@progbits
	.align	1
	.globl	GetArrayData
	.type	GetArrayData, @function
GetArrayData:
.LFB51:
	.loc 1 4109 1
	.cfi_startproc
	addi	sp,sp,-64
	.cfi_def_cfa_offset 64
	sd	ra,56(sp)
	sd	s0,48(sp)
	.cfi_offset 1, -8
	.cfi_offset 8, -16
	addi	s0,sp,64
	.cfi_def_cfa 8, 0
	sd	a0,-40(s0)
	mv	a5,a1
	sd	a2,-56(s0)
	sb	a5,-41(s0)
	.loc 1 4114 8
	sd	zero,-24(s0)
	.loc 1 4115 3
	lbu	a5,-41(s0)
	sext.w	a5,a5
	li	a4,3
	beq	a5,a4,.L710
	li	a4,3
	bgt	a5,a4,.L717
	li	a4,2
	beq	a5,a4,.L712
	li	a4,2
	bgt	a5,a4,.L717
	beq	a5,zero,.L713
	li	a4,1
	beq	a5,a4,.L714
	.loc 1 4133 7
	j	.L717
.L713:
	.loc 1 4117 41
	ld	a4,-40(s0)
	ld	a5,-56(s0)
	add	a5,a4,a5
	.loc 1 4117 22
	lbu	a5,0(a5)
	.loc 1 4117 12
	sd	a5,-24(s0)
	.loc 1 4118 7
	j	.L715
.L714:
	.loc 1 4121 42
	ld	a5,-56(s0)
	slli	a5,a5,1
	ld	a4,-40(s0)
	add	a5,a4,a5
	.loc 1 4121 22
	lhu	a5,0(a5)
	.loc 1 4121 12
	sd	a5,-24(s0)
	.loc 1 4122 7
	j	.L715
.L712:
	.loc 1 4125 42
	ld	a5,-56(s0)
	slli	a5,a5,2
	ld	a4,-40(s0)
	add	a5,a4,a5
	.loc 1 4125 22
	lw	a5,0(a5)
	.loc 1 4125 12
	slli	a5,a5,32
	srli	a5,a5,32
	sd	a5,-24(s0)
	.loc 1 4126 7
	j	.L715
.L710:
	.loc 1 4129 42
	ld	a5,-56(s0)
	slli	a5,a5,3
	ld	a4,-40(s0)
	add	a5,a4,a5
	.loc 1 4129 12
	ld	a5,0(a5)
	sd	a5,-24(s0)
	.loc 1 4130 7
	j	.L715
.L717:
	.loc 1 4133 7
	nop
.L715:
	.loc 1 4136 10
	ld	a5,-24(s0)
	.loc 1 4137 1
	mv	a0,a5
	ld	ra,56(sp)
	.cfi_restore 1
	ld	s0,48(sp)
	.cfi_restore 8
	.cfi_def_cfa 2, 64
	addi	sp,sp,64
	.cfi_def_cfa_offset 0
	jr	ra
	.cfi_endproc
.LFE51:
	.size	GetArrayData, .-GetArrayData
	.section	.text.SetArrayData,"ax",@progbits
	.align	1
	.globl	SetArrayData
	.type	SetArrayData, @function
SetArrayData:
.LFB52:
	.loc 1 4155 1
	.cfi_startproc
	addi	sp,sp,-48
	.cfi_def_cfa_offset 48
	sd	ra,40(sp)
	sd	s0,32(sp)
	.cfi_offset 1, -8
	.cfi_offset 8, -16
	addi	s0,sp,48
	.cfi_def_cfa 8, 0
	sd	a0,-24(s0)
	mv	a5,a1
	sd	a2,-40(s0)
	sd	a3,-48(s0)
	sb	a5,-25(s0)
	.loc 1 4158 3
	lbu	a5,-25(s0)
	sext.w	a5,a5
	li	a4,3
	beq	a5,a4,.L719
	li	a4,3
	bgt	a5,a4,.L725
	li	a4,2
	beq	a5,a4,.L721
	li	a4,2
	bgt	a5,a4,.L725
	beq	a5,zero,.L722
	li	a4,1
	beq	a5,a4,.L723
	.loc 1 4176 7
	j	.L725
.L722:
	.loc 1 4160 26
	ld	a4,-24(s0)
	ld	a5,-40(s0)
	add	a5,a4,a5
	.loc 1 4160 37
	ld	a4,-48(s0)
	andi	a4,a4,0xff
	.loc 1 4160 35
	sb	a4,0(a5)
	.loc 1 4161 7
	j	.L724
.L723:
	.loc 1 4164 27
	ld	a5,-40(s0)
	slli	a5,a5,1
	ld	a4,-24(s0)
	add	a5,a4,a5
	.loc 1 4164 38
	ld	a4,-48(s0)
	slli	a4,a4,48
	srli	a4,a4,48
	.loc 1 4164 36
	sh	a4,0(a5)
	.loc 1 4165 7
	j	.L724
.L721:
	.loc 1 4168 27
	ld	a5,-40(s0)
	slli	a5,a5,2
	ld	a4,-24(s0)
	add	a5,a4,a5
	.loc 1 4168 38
	ld	a4,-48(s0)
	sext.w	a4,a4
	.loc 1 4168 36
	sw	a4,0(a5)
	.loc 1 4169 7
	j	.L724
.L719:
	.loc 1 4172 27
	ld	a5,-40(s0)
	slli	a5,a5,3
	ld	a4,-24(s0)
	add	a5,a4,a5
	.loc 1 4172 36
	ld	a4,-48(s0)
	sd	a4,0(a5)
	.loc 1 4173 7
	j	.L724
.L725:
	.loc 1 4176 7
	nop
.L724:
	.loc 1 4178 1
	nop
	ld	ra,40(sp)
	.cfi_restore 1
	ld	s0,32(sp)
	.cfi_restore 8
	.cfi_def_cfa 2, 48
	addi	sp,sp,48
	.cfi_def_cfa_offset 0
	jr	ra
	.cfi_endproc
.LFE52:
	.size	SetArrayData, .-SetArrayData
	.section	.text.ValueToOption,"ax",@progbits
	.align	1
	.globl	ValueToOption
	.type	ValueToOption, @function
ValueToOption:
.LFB53:
	.loc 1 4195 1
	.cfi_startproc
	addi	sp,sp,-64
	.cfi_def_cfa_offset 64
	sd	ra,56(sp)
	sd	s0,48(sp)
	.cfi_offset 1, -8
	.cfi_offset 8, -16
	addi	s0,sp,64
	.cfi_def_cfa 8, 0
	sd	a0,-56(s0)
	sd	a1,-64(s0)
	.loc 1 4200 24
	ld	a5,-56(s0)
	addi	a5,a5,224
	.loc 1 4200 10
	mv	a0,a5
	call	GetFirstNode@plt
	sd	a0,-24(s0)
	.loc 1 4201 9
	j	.L727
.L733:
	.loc 1 4202 16
	ld	a5,-24(s0)
	addi	a5,a5,-8
	.loc 1 4202 118
	ld	a4,0(a5)
	.loc 1 4202 203
	li	a5,1414549504
	addi	a5,a5,-175
	bne	a4,a5,.L728
	.loc 1 4202 12 discriminator 1
	ld	a5,-24(s0)
	addi	a5,a5,-8
	sd	a5,-32(s0)
	j	.L729
.L728:
	.loc 1 4202 12 is_stmt 0 discriminator 2
	sd	zero,-32(s0)
.L729:
	.loc 1 4204 10 is_stmt 1
	ld	a5,-32(s0)
	addi	a5,a5,40
	addi	a4,s0,-40
	li	a3,0
	mv	a2,a4
	ld	a1,-64(s0)
	mv	a0,a5
	call	CompareHiiValue@plt
	mv	a5,a0
	.loc 1 4204 8 discriminator 1
	bne	a5,zero,.L730
	.loc 1 4204 113 discriminator 2
	ld	a5,-40(s0)
	.loc 1 4204 102 discriminator 2
	bne	a5,zero,.L730
	.loc 1 4208 18
	ld	a5,-32(s0)
	ld	a5,88(a5)
	.loc 1 4208 10
	beq	a5,zero,.L731
	.loc 1 4209 13
	ld	a5,-32(s0)
	ld	a5,88(a5)
	li	a3,0
	li	a2,0
	li	a1,0
	mv	a0,a5
	call	EvaluateExpressionList@plt
	mv	a5,a0
	.loc 1 4208 56 discriminator 1
	bne	a5,zero,.L730
.L731:
	.loc 1 4211 16
	ld	a5,-32(s0)
	j	.L734
.L730:
	.loc 1 4215 25
	ld	a5,-56(s0)
	addi	a5,a5,224
	.loc 1 4215 12
	ld	a1,-24(s0)
	mv	a0,a5
	call	GetNextNode@plt
	sd	a0,-24(s0)
.L727:
	.loc 1 4201 19
	ld	a5,-56(s0)
	addi	a5,a5,224
	.loc 1 4201 11
	ld	a1,-24(s0)
	mv	a0,a5
	call	IsNull@plt
	mv	a5,a0
	.loc 1 4201 10 discriminator 1
	beq	a5,zero,.L733
	.loc 1 4218 10
	li	a5,0
.L734:
	.loc 1 4219 1
	mv	a0,a5
	ld	ra,56(sp)
	.cfi_restore 1
	ld	s0,48(sp)
	.cfi_restore 8
	.cfi_def_cfa 2, 64
	addi	sp,sp,64
	.cfi_def_cfa_offset 0
	jr	ra
	.cfi_endproc
.LFE53:
	.size	ValueToOption, .-ValueToOption
	.section	.text.GetQuestionDefault,"ax",@progbits
	.align	1
	.globl	GetQuestionDefault
	.type	GetQuestionDefault, @function
GetQuestionDefault:
.LFB54:
	.loc 1 4239 1
	.cfi_startproc
	addi	sp,sp,-192
	.cfi_def_cfa_offset 192
	sd	ra,184(sp)
	sd	s0,176(sp)
	sd	s1,168(sp)
	.cfi_offset 1, -8
	.cfi_offset 8, -16
	.cfi_offset 9, -24
	addi	s0,sp,192
	.cfi_def_cfa 8, 0
	sd	a0,-168(s0)
	sd	a1,-176(s0)
	sd	a2,-184(s0)
	mv	a5,a3
	sh	a5,-186(s0)
	.loc 1 4256 10
	li	a5,-1
	slli	a5,a5,63
	addi	a5,a5,14
	sd	a5,-40(s0)
	.loc 1 4257 12
	sd	zero,-104(s0)
	.loc 1 4258 21
	lhu	a5,-186(s0)
	sh	a5,-106(s0)
	.loc 1 4259 31
	ld	a5,-168(s0)
	addi	a5,a5,264
	.loc 1 4259 17
	mv	a0,a5
	call	GetFirstNode@plt
	sd	a0,-96(s0)
	.loc 1 4264 15
	ld	a5,-184(s0)
	lhu	a5,48(a5)
	.loc 1 4264 6
	beq	a5,zero,.L736
	.loc 1 4276 1
	nop
	j	.L737
.L736:
	.loc 1 4265 12
	ld	a5,-40(s0)
	j	.L814
.L737:
	.loc 1 4277 12
	ld	a5,-184(s0)
	addi	a5,a5,96
	sd	a5,-120(s0)
	.loc 1 4278 13
	ld	a5,-120(s0)
	addi	a5,a5,18
	sd	a5,-80(s0)
	.loc 1 4279 15
	ld	a5,-120(s0)
	lbu	a5,0(a5)
	.loc 1 4279 6
	mv	a4,a5
	li	a5,11
	bne	a4,a5,.L739
	.loc 1 4283 15
	ld	a5,-184(s0)
	ld	a5,136(a5)
	sd	a5,-80(s0)
.L739:
	.loc 1 4289 16
	ld	a5,-168(s0)
	ld	a5,56(a5)
	sd	a5,-128(s0)
	.loc 1 4290 12
	lhu	a5,-186(s0)
	mv	a0,a5
	call	GetDefaultIdForCallBack
	sd	a0,-136(s0)
	.loc 1 4291 6
	ld	a5,-136(s0)
	ble	a5,zero,.L740
	.loc 1 4291 33 discriminator 1
	ld	a5,-184(s0)
	lbu	a5,72(a5)
	.loc 1 4291 49 discriminator 1
	sext.w	a5,a5
	andi	a5,a5,4
	sext.w	a5,a5
	.loc 1 4291 20 discriminator 1
	beq	a5,zero,.L740
	.loc 1 4291 63 discriminator 2
	ld	a5,-128(s0)
	beq	a5,zero,.L740
	.loc 1 4292 19
	sd	zero,-152(s0)
	.loc 1 4293 26
	ld	a5,-128(s0)
	ld	a6,16(a5)
	.loc 1 4293 14
	ld	a1,-136(s0)
	ld	a5,-184(s0)
	lhu	a2,48(a5)
	ld	a5,-120(s0)
	lbu	a3,0(a5)
	addi	a5,s0,-152
	ld	a4,-80(s0)
	ld	a0,-128(s0)
	jalr	a6
.LVL28:
	sd	a0,-40(s0)
	.loc 1 4301 9
	ld	a5,-40(s0)
	.loc 1 4301 8
	blt	a5,zero,.L740
	.loc 1 4302 19
	ld	a5,-120(s0)
	lbu	a5,0(a5)
	.loc 1 4302 10
	mv	a4,a5
	li	a5,7
	bne	a4,a5,.L741
	.loc 1 4303 21
	ld	a5,-184(s0)
	lhu	a4,114(a5)
	ld	a5,-168(s0)
	ld	a5,40(a5)
	mv	a1,a5
	mv	a0,a4
	call	GetToken
	sd	a0,-144(s0)
	.loc 1 4307 13
	ld	a0,-144(s0)
	call	StrLen@plt
	mv	a5,a0
	.loc 1 4307 32 discriminator 1
	slli	a5,a5,1
	.loc 1 4307 61 discriminator 1
	ld	a4,-184(s0)
	lhu	a4,66(a4)
	.loc 1 4307 12 discriminator 1
	bgtu	a5,a4,.L742
	.loc 1 4308 28
	ld	a5,-184(s0)
	ld	a4,136(a5)
	.loc 1 4308 51
	ld	a5,-184(s0)
	lhu	a5,66(a5)
	.loc 1 4308 11
	mv	a1,a5
	mv	a0,a4
	call	ZeroMem@plt
	.loc 1 4309 28
	ld	a5,-184(s0)
	ld	s1,136(a5)
	.loc 1 4309 11
	ld	a0,-144(s0)
	call	StrSize@plt
	mv	a5,a0
	.loc 1 4309 11 is_stmt 0 discriminator 1
	mv	a2,a5
	ld	a1,-144(s0)
	mv	a0,s1
	call	CopyMem@plt
	j	.L743
.L742:
	.loc 1 4311 28 is_stmt 1
	ld	a5,-184(s0)
	ld	a4,136(a5)
	.loc 1 4311 62
	ld	a5,-184(s0)
	lhu	a5,66(a5)
	.loc 1 4311 11
	mv	a2,a5
	ld	a1,-144(s0)
	mv	a0,a4
	call	CopyMem@plt
.L743:
	.loc 1 4314 9
	ld	a0,-144(s0)
	call	FreePool@plt
.L741:
	.loc 1 4317 14
	ld	a5,-40(s0)
	j	.L814
.L740:
	.loc 1 4324 6
	ld	a5,-128(s0)
	beq	a5,zero,.L744
	.loc 1 4325 14
	ld	a2,-184(s0)
	ld	a1,-176(s0)
	ld	a0,-168(s0)
	call	GetDefaultValueFromAltCfg
	sd	a0,-40(s0)
	.loc 1 4326 9
	ld	a5,-40(s0)
	.loc 1 4326 8
	blt	a5,zero,.L744
	.loc 1 4327 14
	ld	a5,-40(s0)
	j	.L814
.L744:
	.loc 1 4334 21
	ld	a5,-184(s0)
	addi	a5,a5,208
	.loc 1 4334 8
	mv	a0,a5
	call	IsListEmpty@plt
	mv	a5,a0
	.loc 1 4334 6 discriminator 1
	bne	a5,zero,.L745
	.loc 1 4335 26
	ld	a5,-184(s0)
	addi	a5,a5,208
	.loc 1 4335 12
	mv	a0,a5
	call	GetFirstNode@plt
	sd	a0,-48(s0)
	.loc 1 4336 11
	j	.L746
.L760:
	.loc 1 4337 19
	ld	a5,-48(s0)
	addi	a5,a5,-8
	.loc 1 4337 123
	ld	a4,0(a5)
	.loc 1 4337 208
	li	a5,1413890048
	addi	a5,a5,1105
	bne	a4,a5,.L747
	.loc 1 4337 15 discriminator 1
	ld	a5,-48(s0)
	addi	a5,a5,-8
	sd	a5,-56(s0)
	j	.L748
.L747:
	.loc 1 4337 15 is_stmt 0 discriminator 2
	sd	zero,-56(s0)
.L748:
	.loc 1 4339 18 is_stmt 1
	ld	a5,-56(s0)
	lhu	a5,24(a5)
	.loc 1 4339 10
	lhu	a4,-186(s0)
	sext.w	a4,a4
	sext.w	a5,a5
	bne	a4,a5,.L749
	.loc 1 4340 20
	ld	a5,-56(s0)
	ld	a5,72(a5)
	.loc 1 4340 12
	beq	a5,zero,.L750
	.loc 1 4344 20
	ld	a5,-56(s0)
	ld	a5,72(a5)
	mv	a2,a5
	ld	a1,-176(s0)
	ld	a0,-168(s0)
	call	EvaluateExpression@plt
	sd	a0,-40(s0)
	.loc 1 4345 42
	ld	a5,-40(s0)
	.loc 1 4345 14
	bge	a5,zero,.L751
	.loc 1 4346 20
	ld	a5,-40(s0)
	j	.L814
.L751:
	.loc 1 4349 22
	ld	a5,-56(s0)
	ld	a5,72(a5)
	.loc 1 4349 47
	lbu	a5,32(a5)
	.loc 1 4349 14
	mv	a4,a5
	li	a5,11
	bne	a4,a5,.L752
	.loc 1 4351 25
	ld	a5,-184(s0)
	lhu	a4,66(a5)
	.loc 1 4351 49
	ld	a5,-56(s0)
	ld	a5,72(a5)
	.loc 1 4351 74
	lhu	a5,48(a5)
	.loc 1 4351 16
	sext.w	a4,a4
	sext.w	a5,a5
	bleu	a4,a5,.L753
	.loc 1 4352 42
	ld	a5,-184(s0)
	ld	a4,104(a5)
	.loc 1 4352 58
	ld	a5,-56(s0)
	ld	a5,72(a5)
	.loc 1 4352 83
	ld	a3,40(a5)
	.loc 1 4352 99
	ld	a5,-56(s0)
	ld	a5,72(a5)
	.loc 1 4352 124
	lhu	a5,48(a5)
	.loc 1 4352 15
	mv	a2,a5
	mv	a1,a3
	mv	a0,a4
	call	CopyMem@plt
	.loc 1 4353 53
	ld	a5,-56(s0)
	ld	a5,72(a5)
	.loc 1 4353 78
	lhu	a4,48(a5)
	.loc 1 4353 44
	ld	a5,-184(s0)
	sh	a4,112(a5)
	j	.L754
.L753:
	.loc 1 4355 42
	ld	a5,-184(s0)
	ld	a4,104(a5)
	.loc 1 4355 58
	ld	a5,-56(s0)
	ld	a5,72(a5)
	.loc 1 4355 83
	ld	a3,40(a5)
	.loc 1 4355 100
	ld	a5,-184(s0)
	lhu	a5,66(a5)
	.loc 1 4355 15
	mv	a2,a5
	mv	a1,a3
	mv	a0,a4
	call	CopyMem@plt
	.loc 1 4356 54
	ld	a5,-184(s0)
	lhu	a4,66(a5)
	.loc 1 4356 44
	ld	a5,-184(s0)
	sh	a4,112(a5)
.L754:
	.loc 1 4359 30
	ld	a5,-56(s0)
	ld	a5,72(a5)
	.loc 1 4359 55
	ld	a5,40(a5)
	.loc 1 4359 13
	mv	a0,a5
	call	FreePool@plt
.L752:
	.loc 1 4362 35
	ld	a5,-56(s0)
	ld	a5,72(a5)
	.loc 1 4362 60
	lbu	a4,32(a5)
	.loc 1 4362 26
	ld	a5,-120(s0)
	sb	a4,0(a5)
	.loc 1 4363 20
	ld	a5,-120(s0)
	addi	a4,a5,18
	.loc 1 4363 46
	ld	a5,-56(s0)
	ld	a5,72(a5)
	.loc 1 4363 38
	addi	a5,a5,50
	.loc 1 4363 11
	li	a2,22
	mv	a1,a5
	mv	a0,a4
	call	CopyMem@plt
	j	.L755
.L750:
	.loc 1 4368 29
	ld	a5,-56(s0)
	lbu	a5,32(a5)
	.loc 1 4368 14
	mv	a4,a5
	li	a5,11
	bne	a4,a5,.L756
	.loc 1 4370 30
	ld	a5,-120(s0)
	ld	a4,8(a5)
	.loc 1 4370 54
	ld	a5,-56(s0)
	ld	a3,40(a5)
	.loc 1 4370 77
	ld	a5,-56(s0)
	lhu	a5,48(a5)
	.loc 1 4370 13
	mv	a2,a5
	mv	a1,a3
	mv	a0,a4
	call	CopyMem@plt
	j	.L755
.L756:
	.loc 1 4372 32
	ld	a5,-56(s0)
	addi	a5,a5,32
	.loc 1 4372 13
	li	a2,40
	mv	a1,a5
	ld	a0,-120(s0)
	call	CopyMem@plt
.L755:
	.loc 1 4376 21
	ld	a5,-120(s0)
	lbu	a5,0(a5)
	.loc 1 4376 12
	mv	a4,a5
	li	a5,7
	bne	a4,a5,.L757
	.loc 1 4377 22
	ld	a5,-168(s0)
	ld	a4,40(a5)
	ld	a5,-120(s0)
	lhu	a5,18(a5)
	li	a2,0
	mv	a1,a5
	mv	a0,a4
	call	HiiGetString@plt
	sd	a0,-104(s0)
	.loc 1 4378 14
	ld	a5,-104(s0)
	bne	a5,zero,.L758
	.loc 1 4379 20
	li	a5,-1
	slli	a5,a5,63
	addi	a5,a5,14
	j	.L814
.L758:
	.loc 1 4382 23
	ld	a5,-184(s0)
	lhu	a5,66(a5)
	mv	s1,a5
	.loc 1 4382 40
	ld	a0,-104(s0)
	call	StrSize@plt
	mv	a5,a0
	.loc 1 4382 14 discriminator 1
	bleu	s1,a5,.L759
	.loc 1 4383 30
	ld	a5,-184(s0)
	ld	a4,136(a5)
	.loc 1 4383 53
	ld	a5,-184(s0)
	lhu	a5,66(a5)
	.loc 1 4383 13
	mv	a1,a5
	mv	a0,a4
	call	ZeroMem@plt
	.loc 1 4384 30
	ld	a5,-184(s0)
	ld	s1,136(a5)
	.loc 1 4384 13
	ld	a0,-104(s0)
	call	StrSize@plt
	mv	a5,a0
	.loc 1 4384 13 is_stmt 0 discriminator 1
	mv	a2,a5
	ld	a1,-104(s0)
	mv	a0,s1
	call	CopyMem@plt
	j	.L757
.L759:
	.loc 1 4386 30 is_stmt 1
	ld	a5,-184(s0)
	ld	a4,136(a5)
	.loc 1 4386 63
	ld	a5,-184(s0)
	lhu	a5,66(a5)
	.loc 1 4386 13
	mv	a2,a5
	ld	a1,-104(s0)
	mv	a0,a4
	call	CopyMem@plt
.L757:
	.loc 1 4390 16
	li	a5,0
	j	.L814
.L749:
	.loc 1 4393 27
	ld	a5,-184(s0)
	addi	a5,a5,208
	.loc 1 4393 14
	ld	a1,-48(s0)
	mv	a0,a5
	call	GetNextNode@plt
	sd	a0,-48(s0)
.L746:
	.loc 1 4336 21
	ld	a5,-184(s0)
	addi	a5,a5,208
	.loc 1 4336 13
	ld	a1,-48(s0)
	mv	a0,a5
	call	IsNull@plt
	mv	a5,a0
	.loc 1 4336 12 discriminator 1
	beq	a5,zero,.L760
.L745:
	.loc 1 4400 16
	ld	a5,-184(s0)
	lbu	a5,24(a5)
	.loc 1 4400 6
	mv	a4,a5
	li	a5,5
	bne	a4,a5,.L761
	.loc 1 4400 52 discriminator 1
	ld	a5,-184(s0)
	addi	a5,a5,224
	.loc 1 4400 39 discriminator 1
	mv	a0,a5
	call	IsListEmpty@plt
	mv	a5,a0
	.loc 1 4400 35 discriminator 2
	bne	a5,zero,.L761
	.loc 1 4401 8
	lhu	a5,-186(s0)
	sext.w	a4,a5
	li	a5,1
	bgtu	a4,a5,.L761
	.loc 1 4405 28
	ld	a5,-184(s0)
	addi	a5,a5,224
	.loc 1 4405 14
	mv	a0,a5
	call	GetFirstNode@plt
	sd	a0,-48(s0)
	.loc 1 4406 13
	j	.L762
.L769:
	.loc 1 4407 20
	ld	a5,-48(s0)
	addi	a5,a5,-8
	.loc 1 4407 122
	ld	a4,0(a5)
	.loc 1 4407 207
	li	a5,1414549504
	addi	a5,a5,-175
	bne	a4,a5,.L763
	.loc 1 4407 16 discriminator 1
	ld	a5,-48(s0)
	addi	a5,a5,-8
	sd	a5,-64(s0)
	j	.L764
.L763:
	.loc 1 4407 16 is_stmt 0 discriminator 2
	sd	zero,-64(s0)
.L764:
	.loc 1 4408 29 is_stmt 1
	ld	a5,-184(s0)
	addi	a5,a5,224
	.loc 1 4408 16
	ld	a1,-48(s0)
	mv	a0,a5
	call	GetNextNode@plt
	sd	a0,-48(s0)
	.loc 1 4410 20
	ld	a5,-64(s0)
	ld	a5,88(a5)
	.loc 1 4410 12
	beq	a5,zero,.L765
	.loc 1 4411 14
	ld	a5,-64(s0)
	ld	a5,88(a5)
	li	a3,0
	li	a2,0
	li	a1,0
	mv	a0,a5
	call	EvaluateExpressionList@plt
	mv	a5,a0
	.loc 1 4410 58 discriminator 1
	bne	a5,zero,.L816
.L765:
	.loc 1 4416 12
	lhu	a5,-186(s0)
	sext.w	a5,a5
	bne	a5,zero,.L767
	.loc 1 4416 47 discriminator 1
	ld	a5,-64(s0)
	lbu	a5,34(a5)
	.loc 1 4416 55 discriminator 1
	sext.w	a5,a5
	andi	a5,a5,16
	sext.w	a5,a5
	.loc 1 4416 36 discriminator 1
	bne	a5,zero,.L768
.L767:
	.loc 1 4416 70 discriminator 3
	lhu	a5,-186(s0)
	sext.w	a4,a5
	li	a5,1
	bne	a4,a5,.L762
	.loc 1 4417 47
	ld	a5,-64(s0)
	lbu	a5,34(a5)
	.loc 1 4417 55
	sext.w	a5,a5
	andi	a5,a5,32
	sext.w	a5,a5
	.loc 1 4417 36
	beq	a5,zero,.L762
.L768:
	.loc 1 4420 30
	ld	a5,-64(s0)
	addi	a5,a5,40
	.loc 1 4420 11
	li	a2,40
	mv	a1,a5
	ld	a0,-120(s0)
	call	CopyMem@plt
	.loc 1 4422 18
	li	a5,0
	j	.L814
.L816:
	.loc 1 4413 11
	nop
.L762:
	.loc 1 4406 23
	ld	a5,-184(s0)
	addi	a5,a5,224
	.loc 1 4406 15
	ld	a1,-48(s0)
	mv	a0,a5
	call	IsNull@plt
	mv	a5,a0
	.loc 1 4406 14 discriminator 1
	beq	a5,zero,.L769
.L761:
	.loc 1 4431 15
	ld	a5,-184(s0)
	lbu	a5,24(a5)
	.loc 1 4431 6
	mv	a4,a5
	li	a5,6
	bne	a4,a5,.L774
	.loc 1 4432 8
	lhu	a5,-186(s0)
	sext.w	a4,a5
	li	a5,1
	bgtu	a4,a5,.L774
	.loc 1 4436 10
	lhu	a5,-186(s0)
	sext.w	a5,a5
	bne	a5,zero,.L771
	.loc 1 4436 47 discriminator 1
	ld	a5,-184(s0)
	lbu	a5,145(a5)
	.loc 1 4436 55 discriminator 1
	sext.w	a5,a5
	andi	a5,a5,1
	sext.w	a5,a5
	.loc 1 4436 34 discriminator 1
	bne	a5,zero,.L772
.L771:
	.loc 1 4436 70 discriminator 3
	lhu	a5,-186(s0)
	sext.w	a4,a5
	li	a5,1
	bne	a4,a5,.L773
	.loc 1 4437 47
	ld	a5,-184(s0)
	lbu	a5,145(a5)
	.loc 1 4437 55
	sext.w	a5,a5
	andi	a5,a5,2
	sext.w	a5,a5
	.loc 1 4437 34
	beq	a5,zero,.L773
.L772:
	.loc 1 4440 27
	ld	a5,-120(s0)
	li	a4,1
	sb	a4,18(a5)
.L773:
	.loc 1 4443 14
	li	a5,0
	j	.L814
.L778:
	.loc 1 4453 22
	ld	a5,-96(s0)
	addi	a5,a5,-8
	.loc 1 4453 141
	ld	a4,0(a5)
	.loc 1 4453 226
	li	a5,1397112832
	addi	a5,a5,1094
	bne	a4,a5,.L775
	.loc 1 4453 18 discriminator 1
	ld	a5,-96(s0)
	addi	a5,a5,-8
	sd	a5,-88(s0)
	j	.L776
.L775:
	.loc 1 4453 18 is_stmt 0 discriminator 2
	sd	zero,-88(s0)
.L776:
	.loc 1 4454 32 is_stmt 1
	ld	a5,-168(s0)
	addi	a5,a5,264
	.loc 1 4454 19
	ld	a1,-96(s0)
	mv	a0,a5
	call	GetNextNode@plt
	sd	a0,-96(s0)
	.loc 1 4455 15
	ld	a5,-88(s0)
	lhu	a5,24(a5)
	sh	a5,-186(s0)
	.loc 1 4456 8
	lhu	a4,-186(s0)
	lhu	a5,-106(s0)
	sext.w	a4,a4
	sext.w	a5,a5
	bne	a4,a5,.L737
.L774:
	.loc 1 4452 19
	ld	a5,-168(s0)
	addi	a5,a5,264
	.loc 1 4452 11
	ld	a1,-96(s0)
	mv	a0,a5
	call	IsNull@plt
	mv	a5,a0
	.loc 1 4452 10 discriminator 1
	beq	a5,zero,.L778
	.loc 1 4466 10
	li	a5,-1
	slli	a5,a5,63
	addi	a5,a5,14
	sd	a5,-40(s0)
	.loc 1 4467 19
	ld	a5,-184(s0)
	lbu	a5,24(a5)
	sext.w	a5,a5
	.loc 1 4467 3
	li	a4,35
	beq	a5,a4,.L779
	li	a4,35
	bgt	a5,a4,.L817
	li	a4,7
	beq	a5,a4,.L781
	li	a4,7
	bgt	a5,a4,.L817
	li	a4,5
	beq	a5,a4,.L782
	li	a4,6
	bne	a5,a4,.L817
	.loc 1 4469 25
	ld	a5,-120(s0)
	sb	zero,18(a5)
	.loc 1 4470 14
	sd	zero,-40(s0)
	.loc 1 4471 7
	j	.L783
.L781:
	.loc 1 4477 20
	ld	a5,-184(s0)
	lbu	a5,145(a5)
	.loc 1 4477 28
	sext.w	a5,a5
	andi	a5,a5,48
	sext.w	a5,a5
	.loc 1 4477 10
	bne	a5,zero,.L784
	.loc 1 4481 25
	ld	a5,-184(s0)
	lbu	a5,145(a5)
	.loc 1 4481 33
	sext.w	a5,a5
	andi	a5,a5,3
	sext.w	a5,a5
	.loc 1 4481 9
	li	a4,3
	beq	a5,a4,.L785
	li	a4,3
	bgt	a5,a4,.L818
	li	a4,2
	beq	a5,a4,.L787
	li	a4,2
	bgt	a5,a4,.L818
	beq	a5,zero,.L788
	li	a4,1
	beq	a5,a4,.L789
	.loc 1 4511 13
	j	.L818
.L788:
	.loc 1 4483 39
	ld	a5,-120(s0)
	lbu	a5,18(a5)
	slliw	a4,a5,24
	sraiw	a4,a4,24
	.loc 1 4483 59
	ld	a5,-184(s0)
	ld	a5,152(a5)
	.loc 1 4483 45
	slliw	a5,a5,24
	sraiw	a5,a5,24
	.loc 1 4483 16
	blt	a4,a5,.L790
	.loc 1 4483 95 discriminator 1
	ld	a5,-120(s0)
	lbu	a5,18(a5)
	slliw	a4,a5,24
	sraiw	a4,a4,24
	.loc 1 4483 115 discriminator 1
	ld	a5,-184(s0)
	ld	a5,160(a5)
	.loc 1 4483 101 discriminator 1
	slliw	a5,a5,24
	sraiw	a5,a5,24
	.loc 1 4483 70 discriminator 1
	ble	a4,a5,.L819
.L790:
	.loc 1 4484 51
	ld	a5,-184(s0)
	ld	a5,152(a5)
	.loc 1 4484 36
	andi	a4,a5,0xff
	.loc 1 4484 34
	ld	a5,-120(s0)
	sb	a4,18(a5)
	.loc 1 4485 22
	sd	zero,-40(s0)
	.loc 1 4488 13
	j	.L819
.L789:
	.loc 1 4490 40
	ld	a5,-120(s0)
	lhu	a5,18(a5)
	slliw	a4,a5,16
	sraiw	a4,a4,16
	.loc 1 4490 62
	ld	a5,-184(s0)
	ld	a5,152(a5)
	.loc 1 4490 47
	slliw	a5,a5,16
	sraiw	a5,a5,16
	.loc 1 4490 16
	blt	a4,a5,.L793
	.loc 1 4490 99 discriminator 1
	ld	a5,-120(s0)
	lhu	a5,18(a5)
	slliw	a4,a5,16
	sraiw	a4,a4,16
	.loc 1 4490 121 discriminator 1
	ld	a5,-184(s0)
	ld	a5,160(a5)
	.loc 1 4490 106 discriminator 1
	slliw	a5,a5,16
	sraiw	a5,a5,16
	.loc 1 4490 73 discriminator 1
	ble	a4,a5,.L820
.L793:
	.loc 1 4491 53
	ld	a5,-184(s0)
	ld	a5,152(a5)
	.loc 1 4491 37
	slli	a4,a5,48
	srli	a4,a4,48
	.loc 1 4491 35
	ld	a5,-120(s0)
	sh	a4,18(a5)
	.loc 1 4492 22
	sd	zero,-40(s0)
	.loc 1 4495 13
	j	.L820
.L787:
	.loc 1 4497 40
	ld	a5,-120(s0)
	ld	a5,16(a5)
	srli	a5,a5,16
	andi	a5,a5,-1
	sext.w	a5,a5
	.loc 1 4497 18
	mv	a4,a5
	.loc 1 4497 62
	ld	a5,-184(s0)
	ld	a5,152(a5)
	.loc 1 4497 47
	sext.w	a5,a5
	.loc 1 4497 16
	blt	a4,a5,.L795
	.loc 1 4497 99 discriminator 1
	ld	a5,-120(s0)
	ld	a5,16(a5)
	srli	a5,a5,16
	andi	a5,a5,-1
	sext.w	a5,a5
	.loc 1 4497 77 discriminator 1
	mv	a4,a5
	.loc 1 4497 121 discriminator 1
	ld	a5,-184(s0)
	ld	a5,160(a5)
	.loc 1 4497 106 discriminator 1
	sext.w	a5,a5
	.loc 1 4497 73 discriminator 1
	ble	a4,a5,.L821
.L795:
	.loc 1 4498 53
	ld	a5,-184(s0)
	ld	a5,152(a5)
	.loc 1 4498 37
	sext.w	a4,a5
	.loc 1 4498 35
	ld	a5,-120(s0)
	slli	a3,a4,32
	srli	a3,a3,32
	slli	a3,a3,48
	srli	a3,a3,48
	lhu	a2,18(a5)
	andi	a2,a2,0
	or	a3,a2,a3
	sh	a3,18(a5)
	srliw	a4,a4,16
	slli	a4,a4,32
	srli	a4,a4,32
	lhu	a3,20(a5)
	andi	a3,a3,0
	or	a4,a3,a4
	sh	a4,20(a5)
	.loc 1 4499 22
	sd	zero,-40(s0)
	.loc 1 4502 13
	j	.L821
.L785:
	.loc 1 4504 40
	ld	a5,-120(s0)
	ld	a4,16(a5)
	srli	a4,a4,16
	ld	a5,24(a5)
	slli	a5,a5,48
	srli	a5,a5,48
	slli	a5,a5,48
	or	a5,a5,a4
	.loc 1 4504 18
	mv	a4,a5
	.loc 1 4504 62
	ld	a5,-184(s0)
	ld	a5,152(a5)
	.loc 1 4504 16
	blt	a4,a5,.L797
	.loc 1 4504 99 discriminator 1
	ld	a5,-120(s0)
	ld	a4,16(a5)
	srli	a4,a4,16
	ld	a5,24(a5)
	slli	a5,a5,48
	srli	a5,a5,48
	slli	a5,a5,48
	or	a5,a5,a4
	.loc 1 4504 77 discriminator 1
	mv	a4,a5
	.loc 1 4504 121 discriminator 1
	ld	a5,-184(s0)
	ld	a5,160(a5)
	.loc 1 4504 73 discriminator 1
	ble	a4,a5,.L822
.L797:
	.loc 1 4505 45
	ld	a5,-184(s0)
	ld	a4,152(a5)
	.loc 1 4505 35
	ld	a5,-120(s0)
	slli	a3,a4,48
	srli	a3,a3,48
	lhu	a2,18(a5)
	andi	a2,a2,0
	or	a3,a2,a3
	sh	a3,18(a5)
	srli	a3,a4,16
	slli	a3,a3,48
	srli	a3,a3,48
	lhu	a2,20(a5)
	andi	a2,a2,0
	or	a3,a2,a3
	sh	a3,20(a5)
	srli	a3,a4,32
	slli	a3,a3,48
	srli	a3,a3,48
	lhu	a2,22(a5)
	andi	a2,a2,0
	or	a3,a2,a3
	sh	a3,22(a5)
	srli	a4,a4,48
	lhu	a3,24(a5)
	andi	a3,a3,0
	or	a4,a3,a4
	sh	a4,24(a5)
	.loc 1 4506 22
	sd	zero,-40(s0)
	.loc 1 4509 13
	j	.L822
.L784:
	.loc 1 4514 29
	ld	a5,-120(s0)
	ld	a4,16(a5)
	srli	a4,a4,16
	ld	a5,24(a5)
	slli	a5,a5,48
	srli	a5,a5,48
	slli	a5,a5,48
	or	a5,a5,a4
	mv	a4,a5
	.loc 1 4514 44
	ld	a5,-184(s0)
	ld	a5,152(a5)
	.loc 1 4514 12
	bltu	a4,a5,.L800
	.loc 1 4514 74 discriminator 1
	ld	a5,-120(s0)
	ld	a4,16(a5)
	srli	a4,a4,16
	ld	a5,24(a5)
	slli	a5,a5,48
	srli	a5,a5,48
	slli	a5,a5,48
	or	a5,a5,a4
	mv	a4,a5
	.loc 1 4514 89 discriminator 1
	ld	a5,-184(s0)
	ld	a5,160(a5)
	.loc 1 4514 55 discriminator 1
	bleu	a4,a5,.L823
.L800:
	.loc 1 4515 41
	ld	a5,-184(s0)
	ld	a4,152(a5)
	.loc 1 4515 31
	ld	a5,-120(s0)
	slli	a3,a4,48
	srli	a3,a3,48
	lhu	a2,18(a5)
	andi	a2,a2,0
	or	a3,a2,a3
	sh	a3,18(a5)
	srli	a3,a4,16
	slli	a3,a3,48
	srli	a3,a3,48
	lhu	a2,20(a5)
	andi	a2,a2,0
	or	a3,a2,a3
	sh	a3,20(a5)
	srli	a3,a4,32
	slli	a3,a3,48
	srli	a3,a3,48
	lhu	a2,22(a5)
	andi	a2,a2,0
	or	a3,a2,a3
	sh	a3,22(a5)
	srli	a4,a4,48
	lhu	a3,24(a5)
	andi	a3,a3,0
	or	a4,a3,a4
	sh	a4,24(a5)
	.loc 1 4516 18
	sd	zero,-40(s0)
	.loc 1 4520 7
	j	.L823
.L818:
	.loc 1 4511 13
	nop
	j	.L823
.L819:
	.loc 1 4488 13
	nop
	j	.L823
.L820:
	.loc 1 4495 13
	nop
	j	.L823
.L821:
	.loc 1 4502 13
	nop
	j	.L823
.L822:
	.loc 1 4509 13
	nop
	.loc 1 4520 7
	j	.L823
.L782:
	.loc 1 4526 11
	ld	a1,-120(s0)
	ld	a0,-184(s0)
	call	ValueToOption
	mv	a5,a0
	.loc 1 4526 10 discriminator 1
	bne	a5,zero,.L824
	.loc 1 4527 30
	ld	a5,-184(s0)
	addi	a5,a5,224
	.loc 1 4527 16
	mv	a0,a5
	call	GetFirstNode@plt
	sd	a0,-48(s0)
	.loc 1 4528 15
	j	.L802
.L806:
	.loc 1 4529 22
	ld	a5,-48(s0)
	addi	a5,a5,-8
	.loc 1 4529 124
	ld	a4,0(a5)
	.loc 1 4529 209
	li	a5,1414549504
	addi	a5,a5,-175
	bne	a4,a5,.L803
	.loc 1 4529 18 discriminator 1
	ld	a5,-48(s0)
	addi	a5,a5,-8
	sd	a5,-64(s0)
	j	.L804
.L803:
	.loc 1 4529 18 is_stmt 0 discriminator 2
	sd	zero,-64(s0)
.L804:
	.loc 1 4530 31 is_stmt 1
	ld	a5,-184(s0)
	addi	a5,a5,224
	.loc 1 4530 18
	ld	a1,-48(s0)
	mv	a0,a5
	call	GetNextNode@plt
	sd	a0,-48(s0)
	.loc 1 4532 22
	ld	a5,-64(s0)
	ld	a5,88(a5)
	.loc 1 4532 14
	beq	a5,zero,.L805
	.loc 1 4533 16
	ld	a5,-64(s0)
	ld	a5,88(a5)
	li	a3,0
	li	a2,0
	li	a1,0
	mv	a0,a5
	call	EvaluateExpressionList@plt
	mv	a5,a0
	.loc 1 4532 60 discriminator 1
	beq	a5,zero,.L805
	.loc 1 4535 13
	j	.L802
.L805:
	.loc 1 4538 30
	ld	a5,-64(s0)
	addi	a5,a5,40
	.loc 1 4538 11
	li	a2,40
	mv	a1,a5
	ld	a0,-120(s0)
	call	CopyMem@plt
	.loc 1 4539 18
	sd	zero,-40(s0)
	.loc 1 4540 11
	nop
	.loc 1 4544 7
	j	.L824
.L802:
	.loc 1 4528 25
	ld	a5,-184(s0)
	addi	a5,a5,224
	.loc 1 4528 17
	ld	a1,-48(s0)
	mv	a0,a5
	call	IsNull@plt
	mv	a5,a0
	.loc 1 4528 16 discriminator 1
	beq	a5,zero,.L806
	.loc 1 4544 7
	j	.L824
.L779:
	.loc 1 4550 13
	sb	zero,-65(s0)
	.loc 1 4551 28
	ld	a5,-184(s0)
	addi	a5,a5,224
	.loc 1 4551 14
	mv	a0,a5
	call	GetFirstNode@plt
	sd	a0,-48(s0)
	.loc 1 4552 13
	j	.L807
.L813:
	.loc 1 4553 16
	sd	zero,-40(s0)
	.loc 1 4554 20
	ld	a5,-48(s0)
	addi	a5,a5,-8
	.loc 1 4554 122
	ld	a4,0(a5)
	.loc 1 4554 207
	li	a5,1414549504
	addi	a5,a5,-175
	bne	a4,a5,.L808
	.loc 1 4554 16 discriminator 1
	ld	a5,-48(s0)
	addi	a5,a5,-8
	sd	a5,-64(s0)
	j	.L809
.L808:
	.loc 1 4554 16 is_stmt 0 discriminator 2
	sd	zero,-64(s0)
.L809:
	.loc 1 4555 29 is_stmt 1
	ld	a5,-184(s0)
	addi	a5,a5,224
	.loc 1 4555 16
	ld	a1,-48(s0)
	mv	a0,a5
	call	GetNextNode@plt
	sd	a0,-48(s0)
	.loc 1 4557 20
	ld	a5,-64(s0)
	ld	a5,88(a5)
	.loc 1 4557 12
	beq	a5,zero,.L810
	.loc 1 4558 14
	ld	a5,-64(s0)
	ld	a5,88(a5)
	li	a3,0
	li	a2,0
	li	a1,0
	mv	a0,a5
	call	EvaluateExpressionList@plt
	mv	a5,a0
	.loc 1 4557 58 discriminator 1
	bne	a5,zero,.L825
.L810:
	.loc 1 4563 31
	ld	a5,-184(s0)
	ld	a0,136(a5)
	.loc 1 4563 9
	ld	a5,-184(s0)
	lbu	a1,144(a5)
	lbu	a2,-65(s0)
	ld	a5,-64(s0)
	ld	a4,56(a5)
	srli	a4,a4,16
	ld	a5,64(a5)
	slli	a5,a5,48
	srli	a5,a5,48
	slli	a5,a5,48
	or	a5,a5,a4
	mv	a3,a5
	call	SetArrayData
	.loc 1 4565 14
	lbu	a5,-65(s0)
	addiw	a5,a5,1
	sb	a5,-65(s0)
	.loc 1 4566 30
	ld	a5,-184(s0)
	lbu	a4,146(a5)
	.loc 1 4566 12
	lbu	a5,-65(s0)
	andi	a5,a5,0xff
	bgeu	a5,a4,.L826
	j	.L807
.L825:
	.loc 1 4560 11
	nop
.L807:
	.loc 1 4552 23
	ld	a5,-184(s0)
	addi	a5,a5,224
	.loc 1 4552 15
	ld	a1,-48(s0)
	mv	a0,a5
	call	IsNull@plt
	mv	a5,a0
	.loc 1 4552 14 discriminator 1
	beq	a5,zero,.L813
	.loc 1 4571 7
	j	.L783
.L826:
	.loc 1 4567 11
	nop
	.loc 1 4571 7
	j	.L783
.L817:
	.loc 1 4574 7
	nop
	j	.L783
.L823:
	.loc 1 4520 7
	nop
	j	.L783
.L824:
	.loc 1 4544 7
	nop
.L783:
	.loc 1 4577 10
	ld	a5,-40(s0)
.L814:
	.loc 1 4578 1
	mv	a0,a5
	ld	ra,184(sp)
	.cfi_restore 1
	ld	s0,176(sp)
	.cfi_restore 8
	.cfi_def_cfa 2, 192
	ld	s1,168(sp)
	.cfi_restore 9
	addi	sp,sp,192
	.cfi_def_cfa_offset 0
	jr	ra
	.cfi_endproc
.LFE54:
	.size	GetQuestionDefault, .-GetQuestionDefault
	.section	.text.ExtractAltCfgForForm,"ax",@progbits
	.align	1
	.globl	ExtractAltCfgForForm
	.type	ExtractAltCfgForForm, @function
ExtractAltCfgForForm:
.LFB55:
	.loc 1 4596 1
	.cfi_startproc
	addi	sp,sp,-112
	.cfi_def_cfa_offset 112
	sd	ra,104(sp)
	sd	s0,96(sp)
	.cfi_offset 1, -8
	.cfi_offset 8, -16
	addi	s0,sp,112
	.cfi_def_cfa 8, 0
	sd	a0,-88(s0)
	sd	a1,-96(s0)
	mv	a5,a2
	sd	a3,-112(s0)
	sh	a5,-98(s0)
	.loc 1 4610 24
	ld	a5,-88(s0)
	addi	a5,a5,232
	.loc 1 4610 10
	mv	a0,a5
	call	GetFirstNode@plt
	sd	a0,-24(s0)
	.loc 1 4611 9
	j	.L828
.L834:
	.loc 1 4612 24
	ld	a5,-24(s0)
	addi	a5,a5,-8
	.loc 1 4612 126
	ld	a4,0(a5)
	.loc 1 4612 211
	li	a5,1196707840
	addi	a5,a5,838
	bne	a4,a5,.L829
	.loc 1 4612 20 discriminator 1
	ld	a5,-24(s0)
	addi	a5,a5,-8
	sd	a5,-40(s0)
	j	.L830
.L829:
	.loc 1 4612 20 is_stmt 0 discriminator 2
	sd	zero,-40(s0)
.L830:
	.loc 1 4613 13 is_stmt 1
	ld	a5,-40(s0)
	ld	a5,48(a5)
	sd	a5,-48(s0)
	.loc 1 4614 25
	ld	a5,-88(s0)
	addi	a5,a5,232
	.loc 1 4614 12
	ld	a1,-24(s0)
	mv	a0,a5
	call	GetNextNode@plt
	sd	a0,-24(s0)
	.loc 1 4615 8
	ld	a5,-112(s0)
	beq	a5,zero,.L831
	.loc 1 4615 42 discriminator 1
	ld	a4,-112(s0)
	ld	a5,-48(s0)
	bne	a4,a5,.L845
.L831:
	.loc 1 4619 17
	ld	a5,-48(s0)
	lbu	a5,24(a5)
	.loc 1 4619 8
	mv	a4,a5
	li	a5,2
	beq	a4,a5,.L828
	.loc 1 4620 24
	ld	a5,-40(s0)
	ld	a5,88(a5)
	.loc 1 4619 30 discriminator 1
	beq	a5,zero,.L828
	.loc 1 4621 23
	ld	a5,-40(s0)
	lbu	a5,80(a5)
	.loc 1 4620 45
	bne	a5,zero,.L846
	j	.L828
.L845:
	.loc 1 4616 7
	nop
.L828:
	.loc 1 4611 19
	ld	a5,-88(s0)
	addi	a5,a5,232
	.loc 1 4611 11
	ld	a1,-24(s0)
	mv	a0,a5
	call	IsNull@plt
	mv	a5,a0
	.loc 1 4611 10 discriminator 1
	beq	a5,zero,.L834
	.loc 1 4630 24
	ld	a5,-96(s0)
	addi	a5,a5,104
	.loc 1 4630 10
	mv	a0,a5
	call	GetFirstNode@plt
	sd	a0,-24(s0)
	.loc 1 4631 9
	j	.L835
.L844:
	.loc 1 4632 20
	ld	a5,-24(s0)
	addi	a5,a5,-8
	.loc 1 4632 146
	ld	a4,0(a5)
	.loc 1 4632 231
	li	a5,1397899264
	addi	a5,a5,838
	bne	a4,a5,.L836
	.loc 1 4632 16 discriminator 1
	ld	a5,-24(s0)
	addi	a5,a5,-8
	sd	a5,-32(s0)
	j	.L837
.L836:
	.loc 1 4632 16 is_stmt 0 discriminator 2
	sd	zero,-32(s0)
.L837:
	.loc 1 4633 25 is_stmt 1
	ld	a5,-96(s0)
	addi	a5,a5,104
	.loc 1 4633 12
	ld	a1,-24(s0)
	mv	a0,a5
	call	GetNextNode@plt
	sd	a0,-24(s0)
	.loc 1 4635 13
	ld	a5,-32(s0)
	ld	a5,88(a5)
	sd	a5,-48(s0)
	.loc 1 4636 8
	ld	a5,-112(s0)
	beq	a5,zero,.L838
	.loc 1 4636 42 discriminator 1
	ld	a4,-112(s0)
	ld	a5,-48(s0)
	bne	a4,a5,.L847
.L838:
	.loc 1 4640 16
	ld	a5,-48(s0)
	lbu	a5,24(a5)
	.loc 1 4640 8
	mv	a4,a5
	li	a5,2
	beq	a4,a5,.L848
	.loc 1 4647 19
	ld	a5,-32(s0)
	ld	a5,56(a5)
	.loc 1 4647 8
	beq	a5,zero,.L849
	.loc 1 4654 31
	lla	a5,mHiiConfigRouting
	ld	a5,0(a5)
	ld	a5,0(a5)
	.loc 1 4654 14
	lla	a4,mHiiConfigRouting
	ld	a0,0(a4)
	.loc 1 4656 45
	ld	a4,-32(s0)
	ld	a4,40(a4)
	.loc 1 4654 14
	addi	a3,s0,-80
	addi	a2,s0,-72
	mv	a1,a4
	jalr	a5
.LVL29:
	sd	a0,-56(s0)
	.loc 1 4660 36
	ld	a5,-56(s0)
	.loc 1 4660 8
	blt	a5,zero,.L850
	.loc 1 4668 31
	lla	a5,mHiiConfigRouting
	ld	a5,0(a5)
	ld	a7,40(a5)
	.loc 1 4668 14
	lla	a5,mHiiConfigRouting
	ld	a0,0(a5)
	ld	a1,-80(s0)
	.loc 1 4671 35
	ld	a5,-48(s0)
	addi	a2,a5,40
	.loc 1 4672 42
	ld	a5,-48(s0)
	ld	a3,56(a5)
	.loc 1 4668 14
	addi	a4,s0,-64
	addi	a5,s0,-98
	mv	a6,a4
	li	a4,0
	jalr	a7
.LVL30:
	sd	a0,-56(s0)
	.loc 1 4677 5
	ld	a5,-80(s0)
	mv	a0,a5
	call	FreePool@plt
	.loc 1 4678 36
	ld	a5,-56(s0)
	.loc 1 4678 8
	blt	a5,zero,.L851
	.loc 1 4682 31
	ld	a4,-64(s0)
	ld	a5,-32(s0)
	sd	a4,48(a5)
	j	.L835
.L847:
	.loc 1 4637 7
	nop
	j	.L835
.L848:
	.loc 1 4641 7
	nop
	j	.L835
.L849:
	.loc 1 4648 7
	nop
	j	.L835
.L850:
	.loc 1 4661 7
	nop
	j	.L835
.L851:
	.loc 1 4679 7
	nop
.L835:
	.loc 1 4631 19
	ld	a5,-96(s0)
	addi	a5,a5,104
	.loc 1 4631 11
	ld	a1,-24(s0)
	mv	a0,a5
	call	IsNull@plt
	mv	a5,a0
	.loc 1 4631 10 discriminator 1
	beq	a5,zero,.L844
	j	.L827
.L846:
	.loc 1 4623 7 discriminator 1
	nop
.L827:
	.loc 1 4684 1
	ld	ra,104(sp)
	.cfi_restore 1
	ld	s0,96(sp)
	.cfi_restore 8
	.cfi_def_cfa 2, 112
	addi	sp,sp,112
	.cfi_def_cfa_offset 0
	jr	ra
	.cfi_endproc
.LFE55:
	.size	ExtractAltCfgForForm, .-ExtractAltCfgForForm
	.section	.text.CleanAltCfgForForm,"ax",@progbits
	.align	1
	.globl	CleanAltCfgForForm
	.type	CleanAltCfgForForm, @function
CleanAltCfgForForm:
.LFB56:
	.loc 1 4696 1
	.cfi_startproc
	addi	sp,sp,-48
	.cfi_def_cfa_offset 48
	sd	ra,40(sp)
	sd	s0,32(sp)
	.cfi_offset 1, -8
	.cfi_offset 8, -16
	addi	s0,sp,48
	.cfi_def_cfa 8, 0
	sd	a0,-40(s0)
	.loc 1 4700 24
	ld	a5,-40(s0)
	addi	a5,a5,104
	.loc 1 4700 10
	mv	a0,a5
	call	GetFirstNode@plt
	sd	a0,-24(s0)
	.loc 1 4701 9
	j	.L853
.L857:
	.loc 1 4702 20
	ld	a5,-24(s0)
	addi	a5,a5,-8
	.loc 1 4702 146
	ld	a4,0(a5)
	.loc 1 4702 231
	li	a5,1397899264
	addi	a5,a5,838
	bne	a4,a5,.L854
	.loc 1 4702 16 discriminator 1
	ld	a5,-24(s0)
	addi	a5,a5,-8
	sd	a5,-32(s0)
	j	.L855
.L854:
	.loc 1 4702 16 is_stmt 0 discriminator 2
	sd	zero,-32(s0)
.L855:
	.loc 1 4703 25 is_stmt 1
	ld	a5,-40(s0)
	addi	a5,a5,104
	.loc 1 4703 12
	ld	a1,-24(s0)
	mv	a0,a5
	call	GetNextNode@plt
	sd	a0,-24(s0)
	.loc 1 4705 19
	ld	a5,-32(s0)
	ld	a5,48(a5)
	.loc 1 4705 8
	beq	a5,zero,.L853
	.loc 1 4706 27
	ld	a5,-32(s0)
	ld	a5,48(a5)
	.loc 1 4706 7
	mv	a0,a5
	call	FreePool@plt
	.loc 1 4707 33
	ld	a5,-32(s0)
	sd	zero,48(a5)
.L853:
	.loc 1 4701 19
	ld	a5,-40(s0)
	addi	a5,a5,104
	.loc 1 4701 11
	ld	a1,-24(s0)
	mv	a0,a5
	call	IsNull@plt
	mv	a5,a0
	.loc 1 4701 10 discriminator 1
	beq	a5,zero,.L857
	.loc 1 4710 1
	nop
	nop
	ld	ra,40(sp)
	.cfi_restore 1
	ld	s0,32(sp)
	.cfi_restore 8
	.cfi_def_cfa 2, 48
	addi	sp,sp,48
	.cfi_def_cfa_offset 0
	jr	ra
	.cfi_endproc
.LFE56:
	.size	CleanAltCfgForForm, .-CleanAltCfgForForm
	.section	.text.ExtractAltCfgForFormSet,"ax",@progbits
	.align	1
	.globl	ExtractAltCfgForFormSet
	.type	ExtractAltCfgForFormSet, @function
ExtractAltCfgForFormSet:
.LFB57:
	.loc 1 4726 1
	.cfi_startproc
	addi	sp,sp,-112
	.cfi_def_cfa_offset 112
	sd	ra,104(sp)
	sd	s0,96(sp)
	.cfi_offset 1, -8
	.cfi_offset 8, -16
	addi	s0,sp,112
	.cfi_def_cfa 8, 0
	sd	a0,-88(s0)
	mv	a5,a1
	sd	a2,-104(s0)
	sh	a5,-90(s0)
	.loc 1 4735 24
	ld	a5,-88(s0)
	addi	a5,a5,232
	.loc 1 4735 10
	mv	a0,a5
	call	GetFirstNode@plt
	sd	a0,-24(s0)
	.loc 1 4736 9
	j	.L859
.L868:
	.loc 1 4737 24
	ld	a5,-24(s0)
	addi	a5,a5,-8
	.loc 1 4737 126
	ld	a4,0(a5)
	.loc 1 4737 211
	li	a5,1196707840
	addi	a5,a5,838
	bne	a4,a5,.L860
	.loc 1 4737 20 discriminator 1
	ld	a5,-24(s0)
	addi	a5,a5,-8
	sd	a5,-32(s0)
	j	.L861
.L860:
	.loc 1 4737 20 is_stmt 0 discriminator 2
	sd	zero,-32(s0)
.L861:
	.loc 1 4738 13 is_stmt 1
	ld	a5,-32(s0)
	ld	a5,48(a5)
	sd	a5,-40(s0)
	.loc 1 4739 25
	ld	a5,-88(s0)
	addi	a5,a5,232
	.loc 1 4739 12
	ld	a1,-24(s0)
	mv	a0,a5
	call	GetNextNode@plt
	sd	a0,-24(s0)
	.loc 1 4741 8
	ld	a5,-104(s0)
	beq	a5,zero,.L862
	.loc 1 4741 42 discriminator 1
	ld	a4,-104(s0)
	ld	a5,-40(s0)
	bne	a4,a5,.L869
.L862:
	.loc 1 4745 16
	ld	a5,-40(s0)
	lbu	a5,24(a5)
	.loc 1 4745 8
	mv	a4,a5
	li	a5,2
	beq	a4,a5,.L870
	.loc 1 4752 23
	ld	a5,-32(s0)
	ld	a5,88(a5)
	.loc 1 4752 8
	beq	a5,zero,.L871
	.loc 1 4756 35
	ld	a5,-32(s0)
	li	a4,1
	sb	a4,80(a5)
	.loc 1 4761 31
	lla	a5,mHiiConfigRouting
	ld	a5,0(a5)
	ld	a5,0(a5)
	.loc 1 4761 14
	lla	a4,mHiiConfigRouting
	ld	a0,0(a4)
	.loc 1 4763 49
	ld	a4,-32(s0)
	ld	a4,64(a4)
	.loc 1 4761 14
	addi	a3,s0,-72
	addi	a2,s0,-64
	mv	a1,a4
	jalr	a5
.LVL31:
	sd	a0,-48(s0)
	.loc 1 4767 36
	ld	a5,-48(s0)
	.loc 1 4767 8
	blt	a5,zero,.L872
	.loc 1 4775 31
	lla	a5,mHiiConfigRouting
	ld	a5,0(a5)
	ld	a7,40(a5)
	.loc 1 4775 14
	lla	a5,mHiiConfigRouting
	ld	a0,0(a5)
	ld	a1,-72(s0)
	.loc 1 4778 35
	ld	a5,-40(s0)
	addi	a2,a5,40
	.loc 1 4779 42
	ld	a5,-40(s0)
	ld	a3,56(a5)
	.loc 1 4775 14
	addi	a4,s0,-56
	addi	a5,s0,-90
	mv	a6,a4
	li	a4,0
	jalr	a7
.LVL32:
	sd	a0,-48(s0)
	.loc 1 4785 5
	ld	a5,-72(s0)
	mv	a0,a5
	call	FreePool@plt
	.loc 1 4786 36
	ld	a5,-48(s0)
	.loc 1 4786 8
	blt	a5,zero,.L873
	.loc 1 4790 35
	ld	a4,-56(s0)
	ld	a5,-32(s0)
	sd	a4,72(a5)
	j	.L859
.L869:
	.loc 1 4742 7
	nop
	j	.L859
.L870:
	.loc 1 4746 7
	nop
	j	.L859
.L871:
	.loc 1 4753 7
	nop
	j	.L859
.L872:
	.loc 1 4768 7
	nop
	j	.L859
.L873:
	.loc 1 4787 7
	nop
.L859:
	.loc 1 4736 19
	ld	a5,-88(s0)
	addi	a5,a5,232
	.loc 1 4736 11
	ld	a1,-24(s0)
	mv	a0,a5
	call	IsNull@plt
	mv	a5,a0
	.loc 1 4736 10 discriminator 1
	beq	a5,zero,.L868
	.loc 1 4792 1
	nop
	nop
	ld	ra,104(sp)
	.cfi_restore 1
	ld	s0,96(sp)
	.cfi_restore 8
	.cfi_def_cfa 2, 112
	addi	sp,sp,112
	.cfi_def_cfa_offset 0
	jr	ra
	.cfi_endproc
.LFE57:
	.size	ExtractAltCfgForFormSet, .-ExtractAltCfgForFormSet
	.section	.text.CleanAltCfgForFormSet,"ax",@progbits
	.align	1
	.globl	CleanAltCfgForFormSet
	.type	CleanAltCfgForFormSet, @function
CleanAltCfgForFormSet:
.LFB58:
	.loc 1 4804 1
	.cfi_startproc
	addi	sp,sp,-48
	.cfi_def_cfa_offset 48
	sd	ra,40(sp)
	sd	s0,32(sp)
	.cfi_offset 1, -8
	.cfi_offset 8, -16
	addi	s0,sp,48
	.cfi_def_cfa 8, 0
	sd	a0,-40(s0)
	.loc 1 4808 24
	ld	a5,-40(s0)
	addi	a5,a5,232
	.loc 1 4808 10
	mv	a0,a5
	call	GetFirstNode@plt
	sd	a0,-24(s0)
	.loc 1 4809 9
	j	.L875
.L879:
	.loc 1 4810 24
	ld	a5,-24(s0)
	addi	a5,a5,-8
	.loc 1 4810 126
	ld	a4,0(a5)
	.loc 1 4810 211
	li	a5,1196707840
	addi	a5,a5,838
	bne	a4,a5,.L876
	.loc 1 4810 20 discriminator 1
	ld	a5,-24(s0)
	addi	a5,a5,-8
	sd	a5,-32(s0)
	j	.L877
.L876:
	.loc 1 4810 20 is_stmt 0 discriminator 2
	sd	zero,-32(s0)
.L877:
	.loc 1 4811 25 is_stmt 1
	ld	a5,-40(s0)
	addi	a5,a5,232
	.loc 1 4811 12
	ld	a1,-24(s0)
	mv	a0,a5
	call	GetNextNode@plt
	sd	a0,-24(s0)
	.loc 1 4813 23
	ld	a5,-32(s0)
	ld	a5,72(a5)
	.loc 1 4813 8
	beq	a5,zero,.L878
	.loc 1 4814 31
	ld	a5,-32(s0)
	ld	a5,72(a5)
	.loc 1 4814 7
	mv	a0,a5
	call	FreePool@plt
	.loc 1 4815 37
	ld	a5,-32(s0)
	sd	zero,72(a5)
.L878:
	.loc 1 4818 35
	ld	a5,-32(s0)
	sb	zero,80(a5)
.L875:
	.loc 1 4809 19
	ld	a5,-40(s0)
	addi	a5,a5,232
	.loc 1 4809 11
	ld	a1,-24(s0)
	mv	a0,a5
	call	IsNull@plt
	mv	a5,a0
	.loc 1 4809 10 discriminator 1
	beq	a5,zero,.L879
	.loc 1 4820 1
	nop
	nop
	ld	ra,40(sp)
	.cfi_restore 1
	ld	s0,32(sp)
	.cfi_restore 8
	.cfi_def_cfa 2, 48
	addi	sp,sp,48
	.cfi_def_cfa_offset 0
	jr	ra
	.cfi_endproc
.LFE58:
	.size	CleanAltCfgForFormSet, .-CleanAltCfgForFormSet
	.section	.text.ExtractDefault,"ax",@progbits
	.align	1
	.globl	ExtractDefault
	.type	ExtractDefault, @function
ExtractDefault:
.LFB59:
	.loc 1 4854 1
	.cfi_startproc
	addi	sp,sp,-112
	.cfi_def_cfa_offset 112
	sd	ra,104(sp)
	sd	s0,96(sp)
	.cfi_offset 1, -8
	.cfi_offset 8, -16
	addi	s0,sp,112
	.cfi_def_cfa 8, 0
	sd	a0,-72(s0)
	sd	a1,-80(s0)
	mv	a0,a2
	mv	a1,a3
	mv	a2,a4
	sd	a5,-104(s0)
	mv	a3,a6
	mv	a4,a7
	mv	a5,a0
	sh	a5,-82(s0)
	mv	a5,a1
	sw	a5,-88(s0)
	mv	a5,a2
	sw	a5,-92(s0)
	mv	a5,a3
	sb	a5,-93(s0)
	mv	a5,a4
	sb	a5,-94(s0)
	.loc 1 4862 10
	sd	zero,-24(s0)
	.loc 1 4867 6
	lw	a5,-88(s0)
	sext.w	a4,a5
	li	a5,2
	bgtu	a4,a5,.L881
	.loc 1 4867 34 discriminator 1
	lw	a5,-92(s0)
	sext.w	a4,a5
	li	a5,2
	bleu	a4,a5,.L882
.L881:
	.loc 1 4868 12
	li	a5,-1
	slli	a5,a5,63
	addi	a5,a5,3
	j	.L883
.L882:
	.loc 1 4871 6
	lw	a5,-92(s0)
	sext.w	a4,a5
	li	a5,1
	bne	a4,a5,.L884
	.loc 1 4871 54 discriminator 1
	ld	a5,-104(s0)
	bne	a5,zero,.L884
	.loc 1 4872 12
	li	a5,-1
	slli	a5,a5,63
	addi	a5,a5,3
	j	.L883
.L884:
	.loc 1 4875 6
	lw	a5,-88(s0)
	sext.w	a5,a5
	bne	a5,zero,.L885
	.loc 1 4879 8
	lbu	a5,-94(s0)
	andi	a5,a5,0xff
	bne	a5,zero,.L886
	.loc 1 4879 24 discriminator 1
	lw	a5,-92(s0)
	sext.w	a5,a5
	beq	a5,zero,.L886
	.loc 1 4880 7
	lhu	a5,-82(s0)
	ld	a3,-104(s0)
	mv	a2,a5
	ld	a1,-80(s0)
	ld	a0,-72(s0)
	call	ExtractAltCfgForForm
.L886:
	.loc 1 4886 26
	ld	a5,-80(s0)
	addi	a5,a5,88
	.loc 1 4886 12
	mv	a0,a5
	call	GetFirstNode@plt
	sd	a0,-40(s0)
	.loc 1 4887 11
	j	.L887
.L897:
	.loc 1 4888 20
	ld	a5,-40(s0)
	addi	a5,a5,-8
	.loc 1 4888 136
	ld	a4,0(a5)
	.loc 1 4888 221
	li	a5,1096044544
	addi	a5,a5,838
	bne	a4,a5,.L888
	.loc 1 4888 16 discriminator 1
	ld	a5,-40(s0)
	addi	a5,a5,-8
	sd	a5,-48(s0)
	j	.L889
.L888:
	.loc 1 4888 16 is_stmt 0 discriminator 2
	sd	zero,-48(s0)
.L889:
	.loc 1 4889 27 is_stmt 1
	ld	a5,-80(s0)
	addi	a5,a5,88
	.loc 1 4889 14
	ld	a1,-40(s0)
	mv	a0,a5
	call	GetNextNode@plt
	sd	a0,-40(s0)
	.loc 1 4894 10
	lw	a5,-92(s0)
	sext.w	a4,a5
	li	a5,1
	bne	a4,a5,.L890
	.loc 1 4894 70 discriminator 1
	ld	a5,-48(s0)
	ld	a5,56(a5)
	.loc 1 4894 58 discriminator 1
	ld	a4,-104(s0)
	bne	a4,a5,.L911
.L890:
	.loc 1 4901 10
	lw	a5,-92(s0)
	sext.w	a5,a5
	bne	a5,zero,.L892
	.loc 1 4901 72 discriminator 1
	ld	a5,-48(s0)
	ld	a5,56(a5)
	.loc 1 4901 60 discriminator 1
	bne	a5,zero,.L912
.L892:
	.loc 1 4908 19
	ld	a5,-48(s0)
	ld	a5,304(a5)
	.loc 1 4908 10
	beq	a5,zero,.L893
	.loc 1 4909 13
	ld	a5,-48(s0)
	ld	a5,304(a5)
	ld	a3,-80(s0)
	ld	a2,-72(s0)
	li	a1,1
	mv	a0,a5
	call	EvaluateExpressionList@plt
	mv	a5,a0
	mv	a4,a5
	.loc 1 4909 12 discriminator 1
	li	a5,3
	beq	a4,a5,.L913
.L893:
	.loc 1 4914 10
	lbu	a5,-93(s0)
	andi	a5,a5,0xff
	beq	a5,zero,.L894
	.loc 1 4918 18
	ld	a5,-72(s0)
	ld	a5,56(a5)
	ld	a2,-72(s0)
	ld	a1,-48(s0)
	mv	a0,a5
	call	ProcessRetrieveForQuestion@plt
	sd	a0,-24(s0)
.L894:
	.loc 1 4924 10
	lbu	a5,-93(s0)
	andi	a5,a5,0xff
	beq	a5,zero,.L895
	.loc 1 4924 61 discriminator 1
	ld	a5,-24(s0)
	.loc 1 4924 31 discriminator 1
	bge	a5,zero,.L896
.L895:
	.loc 1 4925 18
	lhu	a5,-82(s0)
	mv	a3,a5
	ld	a2,-48(s0)
	ld	a1,-80(s0)
	ld	a0,-72(s0)
	call	GetQuestionDefault
	sd	a0,-24(s0)
	.loc 1 4926 40
	ld	a5,-24(s0)
	.loc 1 4926 12
	blt	a5,zero,.L914
.L896:
	.loc 1 4934 20
	ld	a5,-48(s0)
	ld	a5,56(a5)
	.loc 1 4934 10
	beq	a5,zero,.L887
	.loc 1 4935 20
	ld	a5,-48(s0)
	ld	a5,56(a5)
	.loc 1 4935 29
	lbu	a5,24(a5)
	.loc 1 4934 47 discriminator 1
	mv	a4,a5
	li	a5,2
	beq	a4,a5,.L887
	.loc 1 4937 9
	li	a3,0
	ld	a2,-48(s0)
	ld	a1,-80(s0)
	ld	a0,-72(s0)
	call	SetQuestionValue
	j	.L887
.L911:
	.loc 1 4895 9
	nop
	j	.L887
.L912:
	.loc 1 4902 9
	nop
	j	.L887
.L913:
	.loc 1 4910 11
	nop
	j	.L887
.L914:
	.loc 1 4927 11
	nop
.L887:
	.loc 1 4887 21
	ld	a5,-80(s0)
	addi	a5,a5,88
	.loc 1 4887 13
	ld	a1,-40(s0)
	mv	a0,a5
	call	IsNull@plt
	mv	a5,a0
	.loc 1 4887 12 discriminator 1
	beq	a5,zero,.L897
	.loc 1 4944 8
	lbu	a5,-94(s0)
	andi	a5,a5,0xff
	bne	a5,zero,.L898
	.loc 1 4944 24 discriminator 1
	lw	a5,-92(s0)
	sext.w	a5,a5
	beq	a5,zero,.L898
	.loc 1 4945 7
	ld	a0,-80(s0)
	call	CleanAltCfgForForm
	j	.L898
.L885:
	.loc 1 4947 13
	lw	a5,-88(s0)
	sext.w	a4,a5
	li	a5,1
	bne	a4,a5,.L899
	.loc 1 4951 8
	lbu	a5,-94(s0)
	andi	a5,a5,0xff
	bne	a5,zero,.L900
	.loc 1 4951 24 discriminator 1
	lw	a5,-92(s0)
	sext.w	a5,a5
	beq	a5,zero,.L900
	.loc 1 4952 7
	lhu	a5,-82(s0)
	ld	a2,-104(s0)
	mv	a1,a5
	ld	a0,-72(s0)
	call	ExtractAltCfgForFormSet
.L900:
	.loc 1 4955 30
	ld	a5,-72(s0)
	addi	a5,a5,280
	.loc 1 4955 16
	mv	a0,a5
	call	GetFirstNode@plt
	sd	a0,-32(s0)
	.loc 1 4956 11
	j	.L901
.L904:
	.loc 1 4957 16
	ld	a5,-32(s0)
	addi	a5,a5,-8
	.loc 1 4957 126
	ld	a4,0(a5)
	.loc 1 4957 211
	li	a5,1297235968
	addi	a5,a5,1606
	bne	a4,a5,.L902
	.loc 1 4957 12 discriminator 1
	ld	a5,-32(s0)
	addi	a5,a5,-8
	sd	a5,-80(s0)
	j	.L903
.L902:
	.loc 1 4957 12 is_stmt 0 discriminator 2
	sd	zero,-80(s0)
.L903:
	.loc 1 4958 7 is_stmt 1
	lbu	a3,-94(s0)
	lbu	a5,-93(s0)
	lw	a4,-92(s0)
	lhu	a2,-82(s0)
	mv	a7,a3
	mv	a6,a5
	ld	a5,-104(s0)
	li	a3,0
	ld	a1,-80(s0)
	ld	a0,-72(s0)
	call	ExtractDefault
	.loc 1 4959 31
	ld	a5,-72(s0)
	addi	a5,a5,280
	.loc 1 4959 18
	ld	a1,-32(s0)
	mv	a0,a5
	call	GetNextNode@plt
	sd	a0,-32(s0)
.L901:
	.loc 1 4956 21
	ld	a5,-72(s0)
	addi	a5,a5,280
	.loc 1 4956 13
	ld	a1,-32(s0)
	mv	a0,a5
	call	IsNull@plt
	mv	a5,a0
	.loc 1 4956 12 discriminator 1
	beq	a5,zero,.L904
	.loc 1 4965 8
	lbu	a5,-94(s0)
	andi	a5,a5,0xff
	bne	a5,zero,.L898
	.loc 1 4965 24 discriminator 1
	lw	a5,-92(s0)
	sext.w	a5,a5
	beq	a5,zero,.L898
	.loc 1 4966 7
	ld	a0,-72(s0)
	call	CleanAltCfgForFormSet
	j	.L898
.L899:
	.loc 1 4968 13
	lw	a5,-88(s0)
	sext.w	a4,a5
	li	a5,2
	bne	a4,a5,.L898
	.loc 1 4972 5
	call	LoadAllHiiFormset
	.loc 1 4974 16
	lla	a5,mSystemLevelFormSet
	ld	a5,0(a5)
	sd	a5,-64(s0)
	.loc 1 4979 12
	lla	a0,gBrowserFormSetList
	call	GetFirstNode@plt
	sd	a0,-40(s0)
	.loc 1 4980 11
	j	.L905
.L910:
	.loc 1 4981 24
	ld	a5,-40(s0)
	addi	a5,a5,-8
	.loc 1 4981 136
	ld	a4,0(a5)
	.loc 1 4981 221
	li	a5,1397112832
	addi	a5,a5,582
	bne	a4,a5,.L906
	.loc 1 4981 20 discriminator 1
	ld	a5,-40(s0)
	addi	a5,a5,-8
	sd	a5,-56(s0)
	j	.L907
.L906:
	.loc 1 4981 20 is_stmt 0 discriminator 2
	sd	zero,-56(s0)
.L907:
	.loc 1 4982 14 is_stmt 1
	ld	a1,-40(s0)
	lla	a0,gBrowserFormSetList
	call	GetNextNode@plt
	sd	a0,-40(s0)
	.loc 1 4983 12
	ld	a0,-56(s0)
	call	ValidateFormSet
	mv	a5,a0
	.loc 1 4983 10 discriminator 1
	beq	a5,zero,.L915
	.loc 1 4987 27
	lla	a5,mSystemLevelFormSet
	ld	a4,-56(s0)
	sd	a4,0(a5)
	.loc 1 4989 7
	lbu	a3,-94(s0)
	lbu	a5,-93(s0)
	lw	a4,-92(s0)
	lhu	a2,-82(s0)
	mv	a7,a3
	mv	a6,a5
	ld	a5,-104(s0)
	li	a3,1
	li	a1,0
	ld	a0,-56(s0)
	call	ExtractDefault
	j	.L905
.L915:
	.loc 1 4984 9
	nop
.L905:
	.loc 1 4980 13
	ld	a1,-40(s0)
	lla	a0,gBrowserFormSetList
	call	IsNull@plt
	mv	a5,a0
	.loc 1 4980 12 discriminator 1
	beq	a5,zero,.L910
	.loc 1 4992 25
	lla	a5,mSystemLevelFormSet
	ld	a4,-64(s0)
	sd	a4,0(a5)
.L898:
	.loc 1 4995 10
	li	a5,0
.L883:
	.loc 1 4996 1
	mv	a0,a5
	ld	ra,104(sp)
	.cfi_restore 1
	ld	s0,96(sp)
	.cfi_restore 8
	.cfi_def_cfa 2, 112
	addi	sp,sp,112
	.cfi_def_cfa_offset 0
	jr	ra
	.cfi_endproc
.LFE59:
	.size	ExtractDefault, .-ExtractDefault
	.section	.text.IsQuestionValueChanged,"ax",@progbits
	.align	1
	.globl	IsQuestionValueChanged
	.type	IsQuestionValueChanged, @function
IsQuestionValueChanged:
.LFB60:
	.loc 1 5017 1
	.cfi_startproc
	addi	sp,sp,-176
	.cfi_def_cfa_offset 176
	sd	ra,168(sp)
	sd	s0,160(sp)
	.cfi_offset 1, -8
	.cfi_offset 8, -16
	addi	s0,sp,176
	.cfi_def_cfa 8, 0
	sd	a0,-152(s0)
	sd	a1,-160(s0)
	sd	a2,-168(s0)
	mv	a5,a3
	sw	a5,-172(s0)
	.loc 1 5029 16
	ld	a5,-168(s0)
	ld	a5,56(a5)
	.loc 1 5029 6
	bne	a5,zero,.L917
	.loc 1 5029 55 discriminator 1
	ld	a5,-168(s0)
	lbu	a5,24(a5)
	.loc 1 5029 43 discriminator 1
	mv	a4,a5
	li	a5,27
	beq	a4,a5,.L917
	.loc 1 5029 86 discriminator 2
	ld	a5,-168(s0)
	lbu	a5,24(a5)
	.loc 1 5029 74 discriminator 2
	mv	a4,a5
	li	a5,26
	beq	a4,a5,.L917
	.loc 1 5030 12
	li	a5,0
	j	.L933
.L917:
	.loc 1 5033 16
	sd	zero,-24(s0)
	.loc 1 5034 17
	sd	zero,-32(s0)
	.loc 1 5035 16
	sb	zero,-33(s0)
	.loc 1 5037 19
	ld	a5,-168(s0)
	lbu	a5,24(a5)
	sext.w	a5,a5
	.loc 1 5037 3
	li	a4,35
	beq	a5,a4,.L919
	li	a4,35
	bgt	a5,a4,.L920
	li	a4,8
	beq	a5,a4,.L921
	li	a4,28
	beq	a5,a4,.L921
	j	.L920
.L919:
	.loc 1 5039 29
	ld	a5,-168(s0)
	lhu	a5,66(a5)
	.loc 1 5039 19
	sd	a5,-48(s0)
	.loc 1 5040 61
	ld	a5,-168(s0)
	ld	a5,136(a5)
	.loc 1 5040 22
	mv	a1,a5
	ld	a0,-48(s0)
	call	AllocateCopyPool@plt
	sd	a0,-24(s0)
	.loc 1 5042 7
	j	.L922
.L921:
	.loc 1 5046 36
	ld	a5,-168(s0)
	ld	a5,160(a5)
	.loc 1 5046 19
	slli	a5,a5,1
	sd	a5,-48(s0)
	.loc 1 5047 61
	ld	a5,-168(s0)
	ld	a5,136(a5)
	.loc 1 5047 22
	mv	a1,a5
	ld	a0,-48(s0)
	call	AllocateCopyPool@plt
	sd	a0,-24(s0)
	.loc 1 5049 7
	j	.L922
.L920:
	.loc 1 5052 19
	sd	zero,-48(s0)
	.loc 1 5053 7
	nop
.L922:
	.loc 1 5056 26
	ld	a5,-168(s0)
	addi	a4,a5,96
	.loc 1 5056 3
	addi	a5,s0,-96
	li	a2,40
	mv	a1,a4
	mv	a0,a5
	call	CopyMem@plt
	.loc 1 5058 6
	lw	a5,-172(s0)
	sext.w	a4,a5
	li	a5,3
	bne	a4,a5,.L923
	.loc 1 5059 14
	li	a3,0
	ld	a2,-168(s0)
	ld	a1,-160(s0)
	ld	a0,-152(s0)
	call	GetQuestionValue
	sd	a0,-56(s0)
	.loc 1 5062 21
	ld	a5,-168(s0)
	lbu	a5,24(a5)
	sext.w	a5,a5
	.loc 1 5062 5
	li	a4,35
	beq	a5,a4,.L924
	li	a4,35
	bgt	a5,a4,.L925
	li	a4,8
	beq	a5,a4,.L926
	li	a4,28
	beq	a5,a4,.L926
	j	.L925
.L924:
	.loc 1 5064 31
	ld	a5,-168(s0)
	lhu	a5,66(a5)
	.loc 1 5064 21
	sd	a5,-48(s0)
	.loc 1 5065 64
	ld	a5,-168(s0)
	ld	a5,136(a5)
	.loc 1 5065 25
	mv	a1,a5
	ld	a0,-48(s0)
	call	AllocateCopyPool@plt
	sd	a0,-32(s0)
	.loc 1 5067 9
	j	.L927
.L926:
	.loc 1 5071 38
	ld	a5,-168(s0)
	ld	a5,160(a5)
	.loc 1 5071 21
	slli	a5,a5,1
	sd	a5,-48(s0)
	.loc 1 5072 64
	ld	a5,-168(s0)
	ld	a5,136(a5)
	.loc 1 5072 25
	mv	a1,a5
	ld	a0,-48(s0)
	call	AllocateCopyPool@plt
	sd	a0,-32(s0)
	.loc 1 5074 9
	j	.L927
.L925:
	.loc 1 5077 21
	sd	zero,-48(s0)
	.loc 1 5078 9
	nop
.L927:
	.loc 1 5081 29
	ld	a5,-168(s0)
	addi	a4,a5,96
	.loc 1 5081 5
	addi	a5,s0,-136
	li	a2,40
	mv	a1,a4
	mv	a0,a5
	call	CopyMem@plt
	.loc 1 5083 14
	li	a3,1
	ld	a2,-168(s0)
	ld	a1,-160(s0)
	ld	a0,-152(s0)
	call	GetQuestionValue
	sd	a0,-56(s0)
	.loc 1 5086 37
	ld	a5,-168(s0)
	addi	a4,a5,96
	.loc 1 5086 10
	addi	a5,s0,-136
	li	a2,40
	mv	a1,a4
	mv	a0,a5
	call	CompareMem@plt
	mv	a5,a0
	.loc 1 5086 8 discriminator 1
	bne	a5,zero,.L928
	.loc 1 5087 45
	ld	a5,-168(s0)
	ld	a5,136(a5)
	.loc 1 5087 10
	ld	a2,-48(s0)
	mv	a1,a5
	ld	a0,-32(s0)
	call	CompareMem@plt
	mv	a5,a0
	.loc 1 5086 88 discriminator 2
	beq	a5,zero,.L929
.L928:
	.loc 1 5089 20
	li	a5,1
	sb	a5,-33(s0)
	j	.L929
.L923:
	.loc 1 5092 14
	lw	a5,-172(s0)
	mv	a3,a5
	ld	a2,-168(s0)
	ld	a1,-160(s0)
	ld	a0,-152(s0)
	call	GetQuestionValue
	sd	a0,-56(s0)
	.loc 1 5095 36
	ld	a5,-168(s0)
	addi	a4,a5,96
	.loc 1 5095 10
	addi	a5,s0,-96
	li	a2,40
	mv	a1,a4
	mv	a0,a5
	call	CompareMem@plt
	mv	a5,a0
	.loc 1 5095 8 discriminator 1
	bne	a5,zero,.L930
	.loc 1 5096 44
	ld	a5,-168(s0)
	ld	a5,136(a5)
	.loc 1 5096 10
	ld	a2,-48(s0)
	mv	a1,a5
	ld	a0,-24(s0)
	call	CompareMem@plt
	mv	a5,a0
	.loc 1 5095 87 discriminator 2
	beq	a5,zero,.L929
.L930:
	.loc 1 5098 20
	li	a5,1
	sb	a5,-33(s0)
.L929:
	.loc 1 5102 12
	ld	a5,-168(s0)
	addi	a5,a5,96
	.loc 1 5102 3
	addi	a4,s0,-96
	li	a2,40
	mv	a1,a4
	mv	a0,a5
	call	CopyMem@plt
	.loc 1 5103 6
	ld	a5,-24(s0)
	beq	a5,zero,.L931
	.loc 1 5104 22
	ld	a5,-168(s0)
	ld	a5,136(a5)
	.loc 1 5104 5
	ld	a2,-48(s0)
	ld	a1,-24(s0)
	mv	a0,a5
	call	CopyMem@plt
	.loc 1 5105 5
	ld	a0,-24(s0)
	call	FreePool@plt
.L931:
	.loc 1 5108 6
	ld	a5,-32(s0)
	beq	a5,zero,.L932
	.loc 1 5109 5
	ld	a0,-32(s0)
	call	FreePool@plt
.L932:
	.loc 1 5112 26
	ld	a5,-168(s0)
	lbu	a4,-33(s0)
	sb	a4,197(a5)
	.loc 1 5114 10
	lbu	a5,-33(s0)
.L933:
	.loc 1 5115 1
	mv	a0,a5
	ld	ra,168(sp)
	.cfi_restore 1
	ld	s0,160(sp)
	.cfi_restore 8
	.cfi_def_cfa 2, 176
	addi	sp,sp,176
	.cfi_def_cfa_offset 0
	jr	ra
	.cfi_endproc
.LFE60:
	.size	IsQuestionValueChanged, .-IsQuestionValueChanged
	.section	.text.LoadFormConfig,"ax",@progbits
	.align	1
	.globl	LoadFormConfig
	.type	LoadFormConfig, @function
LoadFormConfig:
.LFB61:
	.loc 1 5136 1
	.cfi_startproc
	addi	sp,sp,-80
	.cfi_def_cfa_offset 80
	sd	ra,72(sp)
	sd	s0,64(sp)
	.cfi_offset 1, -8
	.cfi_offset 8, -16
	addi	s0,sp,80
	.cfi_def_cfa 8, 0
	sd	a0,-56(s0)
	sd	a1,-64(s0)
	sd	a2,-72(s0)
	.loc 1 5141 24
	ld	a5,-72(s0)
	addi	a5,a5,88
	.loc 1 5141 10
	mv	a0,a5
	call	GetFirstNode@plt
	sd	a0,-32(s0)
	.loc 1 5142 9
	j	.L935
.L944:
	.loc 1 5143 18
	ld	a5,-32(s0)
	addi	a5,a5,-8
	.loc 1 5143 134
	ld	a4,0(a5)
	.loc 1 5143 219
	li	a5,1096044544
	addi	a5,a5,838
	bne	a4,a5,.L936
	.loc 1 5143 14 discriminator 1
	ld	a5,-32(s0)
	addi	a5,a5,-8
	sd	a5,-40(s0)
	j	.L937
.L936:
	.loc 1 5143 14 is_stmt 0 discriminator 2
	sd	zero,-40(s0)
.L937:
	.loc 1 5148 18 is_stmt 1
	ld	a5,-40(s0)
	lbu	a5,24(a5)
	.loc 1 5148 8
	mv	a4,a5
	li	a5,8
	bne	a4,a5,.L938
	.loc 1 5148 50 discriminator 1
	ld	a5,-40(s0)
	lbu	a5,72(a5)
	.loc 1 5148 66 discriminator 1
	sext.w	a5,a5
	andi	a5,a5,4
	sext.w	a5,a5
	.loc 1 5148 37 discriminator 1
	bne	a5,zero,.L938
	.loc 1 5149 16
	li	a3,2
	ld	a2,-40(s0)
	ld	a1,-72(s0)
	ld	a0,-64(s0)
	call	GetQuestionValue
	sd	a0,-24(s0)
	.loc 1 5149 14
	j	.L939
.L938:
	.loc 1 5151 16
	li	a3,0
	ld	a2,-40(s0)
	ld	a1,-72(s0)
	ld	a0,-64(s0)
	call	GetQuestionValue
	sd	a0,-24(s0)
.L939:
	.loc 1 5154 36
	ld	a5,-24(s0)
	.loc 1 5154 8
	bge	a5,zero,.L940
	.loc 1 5155 14
	ld	a5,-24(s0)
	j	.L941
.L940:
	.loc 1 5158 18
	ld	a5,-40(s0)
	lbu	a5,24(a5)
	.loc 1 5158 8
	mv	a4,a5
	li	a5,28
	beq	a4,a5,.L942
	.loc 1 5158 49 discriminator 1
	ld	a5,-40(s0)
	lbu	a5,24(a5)
	.loc 1 5158 37 discriminator 1
	mv	a4,a5
	li	a5,8
	bne	a4,a5,.L943
.L942:
	.loc 1 5159 7
	ld	a5,-64(s0)
	ld	a4,40(a5)
	ld	a5,-40(s0)
	lhu	a1,114(a5)
	.loc 1 5159 92
	ld	a5,-40(s0)
	ld	a5,136(a5)
	.loc 1 5159 7
	li	a3,0
	mv	a2,a5
	mv	a0,a4
	call	HiiSetString@plt
.L943:
	.loc 1 5162 25
	ld	a5,-72(s0)
	addi	a5,a5,88
	.loc 1 5162 12
	ld	a1,-32(s0)
	mv	a0,a5
	call	GetNextNode@plt
	sd	a0,-32(s0)
.L935:
	.loc 1 5142 19
	ld	a5,-72(s0)
	addi	a5,a5,88
	.loc 1 5142 11
	ld	a1,-32(s0)
	mv	a0,a5
	call	IsNull@plt
	mv	a5,a0
	.loc 1 5142 10 discriminator 1
	beq	a5,zero,.L944
	.loc 1 5165 10
	li	a5,0
.L941:
	.loc 1 5166 1
	mv	a0,a5
	ld	ra,72(sp)
	.cfi_restore 1
	ld	s0,64(sp)
	.cfi_restore 8
	.cfi_def_cfa 2, 80
	addi	sp,sp,80
	.cfi_def_cfa_offset 0
	jr	ra
	.cfi_endproc
.LFE61:
	.size	LoadFormConfig, .-LoadFormConfig
	.section	.text.LoadFormSetConfig,"ax",@progbits
	.align	1
	.globl	LoadFormSetConfig
	.type	LoadFormSetConfig, @function
LoadFormSetConfig:
.LFB62:
	.loc 1 5185 1
	.cfi_startproc
	addi	sp,sp,-64
	.cfi_def_cfa_offset 64
	sd	ra,56(sp)
	sd	s0,48(sp)
	.cfi_offset 1, -8
	.cfi_offset 8, -16
	addi	s0,sp,64
	.cfi_def_cfa 8, 0
	sd	a0,-56(s0)
	sd	a1,-64(s0)
	.loc 1 5190 24
	ld	a5,-64(s0)
	addi	a5,a5,280
	.loc 1 5190 10
	mv	a0,a5
	call	GetFirstNode@plt
	sd	a0,-24(s0)
	.loc 1 5191 9
	j	.L946
.L951:
	.loc 1 5192 14
	ld	a5,-24(s0)
	addi	a5,a5,-8
	.loc 1 5192 120
	ld	a4,0(a5)
	.loc 1 5192 205
	li	a5,1297235968
	addi	a5,a5,1606
	bne	a4,a5,.L947
	.loc 1 5192 10 discriminator 1
	ld	a5,-24(s0)
	addi	a5,a5,-8
	sd	a5,-32(s0)
	j	.L948
.L947:
	.loc 1 5192 10 is_stmt 0 discriminator 2
	sd	zero,-32(s0)
.L948:
	.loc 1 5197 14 is_stmt 1
	ld	a2,-32(s0)
	ld	a1,-64(s0)
	ld	a0,-56(s0)
	call	LoadFormConfig
	sd	a0,-40(s0)
	.loc 1 5198 36
	ld	a5,-40(s0)
	.loc 1 5198 8
	bge	a5,zero,.L949
	.loc 1 5199 14
	ld	a5,-40(s0)
	j	.L950
.L949:
	.loc 1 5202 25
	ld	a5,-64(s0)
	addi	a5,a5,280
	.loc 1 5202 12
	ld	a1,-24(s0)
	mv	a0,a5
	call	GetNextNode@plt
	sd	a0,-24(s0)
.L946:
	.loc 1 5191 19
	ld	a5,-64(s0)
	addi	a5,a5,280
	.loc 1 5191 11
	ld	a1,-24(s0)
	mv	a0,a5
	call	IsNull@plt
	mv	a5,a0
	.loc 1 5191 10 discriminator 1
	beq	a5,zero,.L951
	.loc 1 5208 27
	ld	a5,-64(s0)
	li	a4,1
	sb	a4,88(a5)
	.loc 1 5210 10
	li	a5,0
.L950:
	.loc 1 5211 1
	mv	a0,a5
	ld	ra,56(sp)
	.cfi_restore 1
	ld	s0,48(sp)
	.cfi_restore 8
	.cfi_def_cfa 2, 64
	addi	sp,sp,64
	.cfi_def_cfa_offset 0
	jr	ra
	.cfi_endproc
.LFE62:
	.size	LoadFormSetConfig, .-LoadFormSetConfig
	.section	.text.RemoveElement,"ax",@progbits
	.align	1
	.globl	RemoveElement
	.type	RemoveElement, @function
RemoveElement:
.LFB63:
	.loc 1 5225 1
	.cfi_startproc
	addi	sp,sp,-48
	.cfi_def_cfa_offset 48
	sd	ra,40(sp)
	sd	s0,32(sp)
	.cfi_offset 1, -8
	.cfi_offset 8, -16
	addi	s0,sp,48
	.cfi_def_cfa 8, 0
	sd	a0,-40(s0)
	sd	a1,-48(s0)
	.loc 1 5231 27
	ld	a5,-40(s0)
	ld	a5,112(a5)
	.loc 1 5231 12
	ld	a1,-48(s0)
	mv	a0,a5
	call	StrStr@plt
	sd	a0,-24(s0)
	.loc 1 5233 6
	ld	a5,-24(s0)
	beq	a5,zero,.L955
	.loc 1 5240 11
	ld	a5,-24(s0)
	sd	a5,-32(s0)
	.loc 1 5241 13
	ld	a0,-48(s0)
	call	StrLen@plt
	mv	a5,a0
	.loc 1 5241 10 discriminator 1
	slli	a5,a5,1
	ld	a4,-24(s0)
	add	a5,a4,a5
	sd	a5,-24(s0)
	.loc 1 5242 3
	ld	a0,-24(s0)
	call	StrSize@plt
	mv	a5,a0
	.loc 1 5242 3 is_stmt 0 discriminator 1
	mv	a2,a5
	ld	a1,-24(s0)
	ld	a0,-32(s0)
	call	CopyMem@plt
	.loc 1 5244 27 is_stmt 1
	ld	a0,-48(s0)
	call	StrLen@plt
	mv	a4,a0
	.loc 1 5244 10 discriminator 1
	ld	a5,-40(s0)
	ld	a5,120(a5)
	.loc 1 5244 24 discriminator 1
	add	a4,a4,a5
	ld	a5,-40(s0)
	sd	a4,120(a5)
	j	.L952
.L955:
	.loc 1 5234 5
	nop
.L952:
	.loc 1 5245 1
	ld	ra,40(sp)
	.cfi_restore 1
	ld	s0,32(sp)
	.cfi_restore 8
	.cfi_def_cfa 2, 48
	addi	sp,sp,48
	.cfi_def_cfa_offset 0
	jr	ra
	.cfi_endproc
.LFE63:
	.size	RemoveElement, .-RemoveElement
	.section	.rodata
	.align	3
.LC11:
	.string	"&"
	.string	"O"
	.string	"F"
	.string	"F"
	.string	"S"
	.string	"E"
	.string	"T"
	.zero	2
	.section	.text.RemoveConfigRequest,"ax",@progbits
	.align	1
	.globl	RemoveConfigRequest
	.type	RemoveConfigRequest, @function
RemoveConfigRequest:
.LFB64:
	.loc 1 5259 1
	.cfi_startproc
	addi	sp,sp,-64
	.cfi_def_cfa_offset 64
	sd	ra,56(sp)
	sd	s0,48(sp)
	.cfi_offset 1, -8
	.cfi_offset 8, -16
	addi	s0,sp,64
	.cfi_def_cfa 8, 0
	sd	a0,-56(s0)
	sd	a1,-64(s0)
	.loc 1 5267 6
	ld	a5,-64(s0)
	beq	a5,zero,.L967
	.loc 1 5271 14
	ld	a5,-56(s0)
	ld	a5,48(a5)
	.loc 1 5271 30
	lbu	a5,24(a5)
	.loc 1 5271 6
	mv	a4,a5
	li	a5,1
	bne	a4,a5,.L959
	.loc 1 5275 15
	lla	a5,.LC3
	sd	a5,-32(s0)
	j	.L960
.L959:
	.loc 1 5280 15
	lla	a5,.LC11
	sd	a5,-32(s0)
.L960:
	.loc 1 5286 14
	ld	a5,-56(s0)
	ld	a5,48(a5)
	.loc 1 5286 30
	lbu	a5,24(a5)
	.loc 1 5286 6
	mv	a4,a5
	li	a5,1
	bne	a4,a5,.L961
	.loc 1 5287 22
	lla	a1,.LC2
	ld	a0,-64(s0)
	call	StrStr@plt
	sd	a0,-24(s0)
	.loc 1 5289 22
	ld	a1,-32(s0)
	ld	a0,-24(s0)
	call	StrStr@plt
	sd	a0,-24(s0)
	j	.L963
.L961:
	.loc 1 5291 22
	ld	a1,-32(s0)
	ld	a0,-64(s0)
	call	StrStr@plt
	sd	a0,-24(s0)
	.loc 1 5294 9
	j	.L963
.L966:
	.loc 1 5298 49
	ld	a5,-24(s0)
	addi	a5,a5,2
	.loc 1 5298 26
	ld	a1,-32(s0)
	mv	a0,a5
	call	StrStr@plt
	sd	a0,-40(s0)
	.loc 1 5303 8
	ld	a5,-40(s0)
	beq	a5,zero,.L964
	.loc 1 5307 27
	ld	a5,-40(s0)
	sh	zero,0(a5)
.L964:
	.loc 1 5310 5
	ld	a5,-56(s0)
	ld	a5,48(a5)
	ld	a1,-24(s0)
	mv	a0,a5
	call	RemoveElement
	.loc 1 5312 8
	ld	a5,-40(s0)
	beq	a5,zero,.L965
	.loc 1 5316 27
	ld	a5,-40(s0)
	li	a4,38
	sh	a4,0(a5)
.L965:
	.loc 1 5319 20
	ld	a5,-40(s0)
	sd	a5,-24(s0)
.L963:
	.loc 1 5294 25
	ld	a5,-24(s0)
	bne	a5,zero,.L966
	.loc 1 5325 22
	ld	a5,-56(s0)
	ld	a5,48(a5)
	.loc 1 5325 38
	ld	a4,112(a5)
	.loc 1 5325 62
	ld	a5,-56(s0)
	ld	a5,56(a5)
	.loc 1 5325 7
	mv	a1,a5
	mv	a0,a4
	call	StrCmp@plt
	mv	a5,a0
	.loc 1 5325 6 discriminator 1
	bne	a5,zero,.L956
	.loc 1 5326 22
	ld	a5,-56(s0)
	ld	a5,48(a5)
	.loc 1 5326 38
	ld	a5,112(a5)
	.loc 1 5326 5
	mv	a0,a5
	call	FreePool@plt
	.loc 1 5327 12
	ld	a5,-56(s0)
	ld	a5,48(a5)
	.loc 1 5327 44
	sd	zero,112(a5)
	.loc 1 5328 12
	ld	a5,-56(s0)
	ld	a5,48(a5)
	.loc 1 5328 42
	sd	zero,120(a5)
	j	.L956
.L967:
	.loc 1 5268 5
	nop
.L956:
	.loc 1 5330 1
	ld	ra,56(sp)
	.cfi_restore 1
	ld	s0,48(sp)
	.cfi_restore 8
	.cfi_def_cfa 2, 64
	addi	sp,sp,64
	.cfi_def_cfa_offset 0
	jr	ra
	.cfi_endproc
.LFE64:
	.size	RemoveConfigRequest, .-RemoveConfigRequest
	.section	.text.CleanBrowserStorage,"ax",@progbits
	.align	1
	.globl	CleanBrowserStorage
	.type	CleanBrowserStorage, @function
CleanBrowserStorage:
.LFB65:
	.loc 1 5342 1
	.cfi_startproc
	addi	sp,sp,-48
	.cfi_def_cfa_offset 48
	sd	ra,40(sp)
	sd	s0,32(sp)
	.cfi_offset 1, -8
	.cfi_offset 8, -16
	addi	s0,sp,48
	.cfi_def_cfa 8, 0
	sd	a0,-40(s0)
	.loc 1 5346 24
	ld	a5,-40(s0)
	addi	a5,a5,232
	.loc 1 5346 10
	mv	a0,a5
	call	GetFirstNode@plt
	sd	a0,-24(s0)
	.loc 1 5347 9
	j	.L969
.L978:
	.loc 1 5348 17
	ld	a5,-24(s0)
	addi	a5,a5,-8
	.loc 1 5348 119
	ld	a4,0(a5)
	.loc 1 5348 204
	li	a5,1196707840
	addi	a5,a5,838
	bne	a4,a5,.L970
	.loc 1 5348 13 discriminator 1
	ld	a5,-24(s0)
	addi	a5,a5,-8
	sd	a5,-32(s0)
	j	.L971
.L970:
	.loc 1 5348 13 is_stmt 0 discriminator 2
	sd	zero,-32(s0)
.L971:
	.loc 1 5349 25 is_stmt 1
	ld	a5,-40(s0)
	addi	a5,a5,232
	.loc 1 5349 12
	ld	a1,-24(s0)
	mv	a0,a5
	call	GetNextNode@plt
	sd	a0,-24(s0)
	.loc 1 5351 16
	ld	a5,-32(s0)
	ld	a5,48(a5)
	.loc 1 5351 32
	lbu	a5,24(a5)
	.loc 1 5351 8
	mv	a4,a5
	li	a5,3
	bne	a4,a5,.L972
	.loc 1 5352 19
	ld	a5,-32(s0)
	ld	a5,64(a5)
	.loc 1 5352 10
	beq	a5,zero,.L979
	.loc 1 5352 63 discriminator 2
	ld	a5,-32(s0)
	ld	a5,48(a5)
	.loc 1 5352 79 discriminator 2
	ld	a5,112(a5)
	.loc 1 5352 52 discriminator 2
	beq	a5,zero,.L979
	.loc 1 5356 7
	ld	a5,-32(s0)
	ld	a5,64(a5)
	mv	a1,a5
	ld	a0,-32(s0)
	call	RemoveConfigRequest
	j	.L969
.L972:
	.loc 1 5357 24
	ld	a5,-32(s0)
	ld	a5,48(a5)
	.loc 1 5357 40
	lbu	a5,24(a5)
	.loc 1 5357 15
	beq	a5,zero,.L976
	.loc 1 5358 24
	ld	a5,-32(s0)
	ld	a5,48(a5)
	.loc 1 5358 40
	lbu	a5,24(a5)
	.loc 1 5357 53 discriminator 1
	mv	a4,a5
	li	a5,1
	bne	a4,a5,.L969
.L976:
	.loc 1 5360 18
	ld	a5,-32(s0)
	ld	a5,48(a5)
	.loc 1 5360 34
	ld	a5,112(a5)
	.loc 1 5360 10
	beq	a5,zero,.L977
	.loc 1 5361 26
	ld	a5,-32(s0)
	ld	a5,48(a5)
	.loc 1 5361 42
	ld	a5,112(a5)
	.loc 1 5361 9
	mv	a0,a5
	call	FreePool@plt
	.loc 1 5362 16
	ld	a5,-32(s0)
	ld	a5,48(a5)
	.loc 1 5362 48
	sd	zero,112(a5)
.L977:
	.loc 1 5365 14
	ld	a5,-32(s0)
	ld	a5,48(a5)
	.loc 1 5365 44
	sb	zero,25(a5)
	j	.L969
.L979:
	.loc 1 5353 9
	nop
.L969:
	.loc 1 5347 19
	ld	a5,-40(s0)
	addi	a5,a5,232
	.loc 1 5347 11
	ld	a1,-24(s0)
	mv	a0,a5
	call	IsNull@plt
	mv	a5,a0
	.loc 1 5347 10 discriminator 1
	beq	a5,zero,.L978
	.loc 1 5368 1
	nop
	nop
	ld	ra,40(sp)
	.cfi_restore 1
	ld	s0,32(sp)
	.cfi_restore 8
	.cfi_def_cfa 2, 48
	addi	sp,sp,48
	.cfi_def_cfa_offset 0
	jr	ra
	.cfi_endproc
.LFE65:
	.size	CleanBrowserStorage, .-CleanBrowserStorage
	.section	.text.ElementValidation,"ax",@progbits
	.align	1
	.globl	ElementValidation
	.type	ElementValidation, @function
ElementValidation:
.LFB66:
	.loc 1 5385 1
	.cfi_startproc
	addi	sp,sp,-32
	.cfi_def_cfa_offset 32
	sd	ra,24(sp)
	sd	s0,16(sp)
	.cfi_offset 1, -8
	.cfi_offset 8, -16
	addi	s0,sp,32
	.cfi_def_cfa 8, 0
	sd	a0,-24(s0)
	sd	a1,-32(s0)
	.loc 1 5386 32
	ld	a5,-24(s0)
	ld	a5,112(a5)
	.loc 1 5386 10
	ld	a1,-32(s0)
	mv	a0,a5
	call	StrStr@plt
	mv	a5,a0
	.loc 1 5386 101 discriminator 1
	snez	a5,a5
	andi	a5,a5,0xff
	.loc 1 5387 1
	mv	a0,a5
	ld	ra,24(sp)
	.cfi_restore 1
	ld	s0,16(sp)
	.cfi_restore 8
	.cfi_def_cfa 2, 32
	addi	sp,sp,32
	.cfi_def_cfa_offset 0
	jr	ra
	.cfi_endproc
.LFE66:
	.size	ElementValidation, .-ElementValidation
	.section	.text.AppendConfigRequest,"ax",@progbits
	.align	1
	.globl	AppendConfigRequest
	.type	AppendConfigRequest, @function
AppendConfigRequest:
.LFB67:
	.loc 1 5403 1
	.cfi_startproc
	addi	sp,sp,-80
	.cfi_def_cfa_offset 80
	sd	ra,72(sp)
	sd	s0,64(sp)
	.cfi_offset 1, -8
	.cfi_offset 8, -16
	addi	s0,sp,80
	.cfi_def_cfa 8, 0
	sd	a0,-56(s0)
	sd	a1,-64(s0)
	sd	a2,-72(s0)
	.loc 1 5409 15
	ld	a0,-72(s0)
	call	StrLen@plt
	sd	a0,-40(s0)
	.loc 1 5410 17
	ld	a5,-56(s0)
	ld	a5,0(a5)
	.loc 1 5410 76
	beq	a5,zero,.L983
	.loc 1 5410 51 discriminator 1
	ld	a5,-56(s0)
	ld	a5,0(a5)
	mv	a0,a5
	call	StrSize@plt
	sd	a0,-24(s0)
	j	.L984
.L983:
	.loc 1 5410 14 discriminator 2
	li	a5,2
	sd	a5,-24(s0)
.L984:
	.loc 1 5411 23
	ld	a5,-24(s0)
	srli	a4,a5,1
	.loc 1 5411 43
	ld	a5,-64(s0)
	ld	a5,0(a5)
	.loc 1 5411 10
	add	a5,a4,a5
	sd	a5,-32(s0)
	.loc 1 5416 19
	ld	a5,-64(s0)
	ld	a5,0(a5)
	.loc 1 5416 6
	ld	a4,-40(s0)
	bleu	a4,a5,.L985
	.loc 1 5420 25
	ld	a5,-24(s0)
	srli	a5,a5,1
	.loc 1 5420 12
	addi	a5,a5,1024
	sd	a5,-32(s0)
	.loc 1 5421 39
	ld	a5,-32(s0)
	slli	a5,a5,1
	.loc 1 5421 14
	mv	a0,a5
	call	AllocateZeroPool@plt
	sd	a0,-48(s0)
	.loc 1 5424 9
	ld	a5,-56(s0)
	ld	a5,0(a5)
	.loc 1 5424 8
	beq	a5,zero,.L986
	.loc 1 5425 7
	ld	a5,-56(s0)
	ld	a5,0(a5)
	ld	a2,-24(s0)
	mv	a1,a5
	ld	a0,-48(s0)
	call	CopyMem@plt
	.loc 1 5426 7
	ld	a5,-56(s0)
	ld	a5,0(a5)
	mv	a0,a5
	call	FreePool@plt
.L986:
	.loc 1 5429 20
	ld	a5,-56(s0)
	ld	a4,-48(s0)
	sd	a4,0(a5)
	.loc 1 5430 18
	ld	a5,-64(s0)
	li	a4,1024
	sd	a4,0(a5)
.L985:
	.loc 1 5433 3
	ld	a5,-56(s0)
	ld	a5,0(a5)
	ld	a2,-72(s0)
	ld	a1,-32(s0)
	mv	a0,a5
	call	StrCatS@plt
	.loc 1 5434 3
	ld	a5,-64(s0)
	ld	a4,0(a5)
	.loc 1 5434 16
	ld	a5,-40(s0)
	sub	a4,a4,a5
	ld	a5,-64(s0)
	sd	a4,0(a5)
	.loc 1 5435 1
	nop
	ld	ra,72(sp)
	.cfi_restore 1
	ld	s0,64(sp)
	.cfi_restore 8
	.cfi_def_cfa 2, 80
	addi	sp,sp,80
	.cfi_def_cfa_offset 0
	jr	ra
	.cfi_endproc
.LFE67:
	.size	AppendConfigRequest, .-AppendConfigRequest
	.section	.text.ConfigRequestAdjust,"ax",@progbits
	.align	1
	.globl	ConfigRequestAdjust
	.type	ConfigRequestAdjust, @function
ConfigRequestAdjust:
.LFB68:
	.loc 1 5454 1
	.cfi_startproc
	addi	sp,sp,-112
	.cfi_def_cfa_offset 112
	sd	ra,104(sp)
	sd	s0,96(sp)
	.cfi_offset 1, -8
	.cfi_offset 8, -16
	addi	s0,sp,112
	.cfi_def_cfa 8, 0
	sd	a0,-88(s0)
	sd	a1,-96(s0)
	mv	a5,a2
	sb	a5,-97(s0)
	.loc 1 5463 10
	sb	zero,-57(s0)
	.loc 1 5464 20
	sd	zero,-40(s0)
	.loc 1 5465 12
	sd	zero,-56(s0)
	.loc 1 5467 6
	ld	a5,-96(s0)
	beq	a5,zero,.L988
	.loc 1 5468 19
	ld	a5,-96(s0)
	sd	a5,-72(s0)
	j	.L989
.L988:
	.loc 1 5470 19
	ld	a5,-88(s0)
	ld	a5,112(a5)
	sd	a5,-72(s0)
.L989:
	.loc 1 5473 14
	ld	a5,-88(s0)
	ld	a5,112(a5)
	.loc 1 5473 6
	bne	a5,zero,.L990
	.loc 1 5474 30
	ld	a0,-72(s0)
	call	StrSize@plt
	mv	a5,a0
	.loc 1 5474 30 is_stmt 0 discriminator 1
	ld	a1,-72(s0)
	mv	a0,a5
	call	AllocateCopyPool@plt
	mv	a4,a0
	.loc 1 5474 28 is_stmt 1 discriminator 2
	ld	a5,-88(s0)
	sd	a4,112(a5)
	.loc 1 5475 12
	li	a5,1
	j	.L991
.L990:
	.loc 1 5478 14
	ld	a5,-88(s0)
	lbu	a5,24(a5)
	.loc 1 5478 6
	mv	a4,a5
	li	a5,1
	bne	a4,a5,.L992
	.loc 1 5482 15
	lla	a5,.LC3
	sd	a5,-48(s0)
	j	.L993
.L992:
	.loc 1 5487 15
	lla	a5,.LC11
	sd	a5,-48(s0)
	.loc 1 5488 14
	lla	a5,.LC5
	sd	a5,-56(s0)
.L993:
	.loc 1 5494 14
	ld	a5,-88(s0)
	lbu	a5,24(a5)
	.loc 1 5494 6
	mv	a4,a5
	li	a5,1
	bne	a4,a5,.L994
	.loc 1 5495 22
	lla	a1,.LC2
	ld	a0,-72(s0)
	call	StrStr@plt
	sd	a0,-24(s0)
	.loc 1 5497 22
	ld	a1,-48(s0)
	ld	a0,-24(s0)
	call	StrStr@plt
	sd	a0,-24(s0)
	j	.L996
.L994:
	.loc 1 5499 22
	ld	a1,-48(s0)
	ld	a0,-72(s0)
	call	StrStr@plt
	sd	a0,-24(s0)
	.loc 1 5502 9
	j	.L996
.L1004:
	.loc 1 5506 49
	ld	a5,-24(s0)
	addi	a5,a5,2
	.loc 1 5506 26
	ld	a1,-48(s0)
	mv	a0,a5
	call	StrStr@plt
	sd	a0,-32(s0)
	.loc 1 5511 8
	ld	a5,-32(s0)
	beq	a5,zero,.L997
	.loc 1 5512 10
	lbu	a5,-97(s0)
	andi	a5,a5,0xff
	beq	a5,zero,.L998
	.loc 1 5512 33 discriminator 1
	ld	a5,-88(s0)
	lbu	a5,24(a5)
	.loc 1 5512 22 discriminator 1
	mv	a4,a5
	li	a5,3
	bne	a4,a5,.L998
	.loc 1 5513 26
	ld	a5,-32(s0)
	sd	a5,-40(s0)
	.loc 1 5514 30
	ld	a1,-56(s0)
	ld	a0,-24(s0)
	call	StrStr@plt
	sd	a0,-32(s0)
.L998:
	.loc 1 5521 27
	ld	a5,-32(s0)
	sh	zero,0(a5)
	j	.L999
.L997:
	.loc 1 5523 10
	lbu	a5,-97(s0)
	andi	a5,a5,0xff
	beq	a5,zero,.L999
	.loc 1 5523 33 discriminator 1
	ld	a5,-88(s0)
	lbu	a5,24(a5)
	.loc 1 5523 22 discriminator 1
	mv	a4,a5
	li	a5,3
	bne	a4,a5,.L999
	.loc 1 5524 26
	ld	a5,-32(s0)
	sd	a5,-40(s0)
	.loc 1 5525 30
	ld	a1,-56(s0)
	ld	a0,-24(s0)
	call	StrStr@plt
	sd	a0,-32(s0)
	.loc 1 5530 29
	ld	a5,-32(s0)
	sh	zero,0(a5)
.L999:
	.loc 1 5534 10
	ld	a1,-24(s0)
	ld	a0,-88(s0)
	call	ElementValidation
	mv	a5,a0
	.loc 1 5534 8 discriminator 1
	bne	a5,zero,.L1000
	.loc 1 5538 7
	ld	a5,-88(s0)
	addi	a4,a5,112
	ld	a5,-88(s0)
	addi	a5,a5,120
	ld	a2,-24(s0)
	mv	a1,a5
	mv	a0,a4
	call	AppendConfigRequest
	.loc 1 5539 14
	li	a5,1
	sb	a5,-57(s0)
.L1000:
	.loc 1 5542 8
	ld	a5,-32(s0)
	beq	a5,zero,.L1001
	.loc 1 5546 27
	ld	a5,-32(s0)
	li	a4,38
	sh	a4,0(a5)
.L1001:
	.loc 1 5549 8
	lbu	a5,-97(s0)
	andi	a5,a5,0xff
	beq	a5,zero,.L1002
	.loc 1 5549 31 discriminator 1
	ld	a5,-88(s0)
	lbu	a5,24(a5)
	.loc 1 5549 20 discriminator 1
	mv	a4,a5
	li	a5,3
	bne	a4,a5,.L1002
	.loc 1 5550 22
	ld	a5,-40(s0)
	sd	a5,-24(s0)
	j	.L996
.L1002:
	.loc 1 5552 22
	ld	a5,-32(s0)
	sd	a5,-24(s0)
.L996:
	.loc 1 5502 25
	ld	a5,-24(s0)
	bne	a5,zero,.L1004
	.loc 1 5556 10
	lbu	a5,-57(s0)
.L991:
	.loc 1 5557 1
	mv	a0,a5
	ld	ra,104(sp)
	.cfi_restore 1
	ld	s0,96(sp)
	.cfi_restore 8
	.cfi_def_cfa 2, 112
	addi	sp,sp,112
	.cfi_def_cfa_offset 0
	jr	ra
	.cfi_endproc
.LFE68:
	.size	ConfigRequestAdjust, .-ConfigRequestAdjust
	.section	.rodata
	.align	3
.LC12:
	.string	"%"
	.string	"s"
	.string	"&"
	.string	"O"
	.string	"F"
	.string	"F"
	.string	"S"
	.string	"E"
	.string	"T"
	.string	"="
	.string	"0"
	.string	"&"
	.string	"W"
	.string	"I"
	.string	"D"
	.string	"T"
	.string	"H"
	.string	"="
	.string	"%"
	.string	"0"
	.string	"4"
	.string	"x"
	.zero	2
	.align	3
.LC13:
	.string	"&"
	.string	"G"
	.string	"U"
	.string	"I"
	.string	"D"
	.string	"="
	.zero	2
	.section	.text.LoadStorage,"ax",@progbits
	.align	1
	.globl	LoadStorage
	.type	LoadStorage, @function
LoadStorage:
.LFB69:
	.loc 1 5571 1
	.cfi_startproc
	addi	sp,sp,-96
	.cfi_def_cfa_offset 96
	sd	ra,88(sp)
	sd	s0,80(sp)
	sd	s1,72(sp)
	.cfi_offset 1, -8
	.cfi_offset 8, -16
	.cfi_offset 9, -24
	addi	s0,sp,96
	.cfi_def_cfa 8, 0
	sd	a0,-88(s0)
	sd	a1,-96(s0)
	.loc 1 5579 17
	sd	zero,-40(s0)
	.loc 1 5581 18
	ld	a5,-96(s0)
	ld	a5,48(a5)
	.loc 1 5581 34
	lbu	a5,24(a5)
	sext.w	a5,a5
	.loc 1 5581 3
	li	a4,3
	beq	a5,a4,.L1006
	li	a4,3
	bgt	a5,a4,.L1023
	li	a4,1
	bgt	a5,a4,.L1023
	bge	a5,zero,.L1009
	.loc 1 5614 7
	j	.L1023
.L1006:
	.loc 1 5586 18
	ld	a5,-96(s0)
	ld	a5,48(a5)
	.loc 1 5586 34
	ld	a5,112(a5)
	.loc 1 5586 10
	beq	a5,zero,.L1024
	.loc 1 5587 9
	ld	a5,-96(s0)
	ld	a4,48(a5)
	ld	a5,-96(s0)
	ld	a5,64(a5)
	li	a2,0
	mv	a1,a5
	mv	a0,a4
	call	ConfigRequestAdjust
	.loc 1 5588 9
	j	.L1005
.L1009:
	.loc 1 5598 18
	ld	a5,-96(s0)
	ld	a5,88(a5)
	.loc 1 5598 10
	beq	a5,zero,.L1025
	.loc 1 5605 18
	ld	a5,-96(s0)
	ld	a5,48(a5)
	.loc 1 5605 34
	lbu	a5,25(a5)
	.loc 1 5605 10
	beq	a5,zero,.L1014
	.loc 1 5606 9
	ld	a5,-96(s0)
	ld	a4,48(a5)
	ld	a5,-96(s0)
	ld	a5,64(a5)
	li	a2,0
	mv	a1,a5
	mv	a0,a4
	call	ConfigRequestAdjust
	.loc 1 5607 9
	j	.L1005
.L1014:
	.loc 1 5610 14
	ld	a5,-96(s0)
	ld	a5,48(a5)
	.loc 1 5610 44
	li	a4,1
	sb	a4,25(a5)
	.loc 1 5611 7
	j	.L1012
.L1024:
	.loc 1 5591 7
	nop
.L1012:
	.loc 1 5617 14
	ld	a5,-96(s0)
	ld	a5,48(a5)
	.loc 1 5617 30
	lbu	a5,24(a5)
	.loc 1 5617 6
	mv	a4,a5
	li	a5,1
	beq	a4,a5,.L1015
	.loc 1 5623 30
	ld	a5,-96(s0)
	ld	a5,56(a5)
	.loc 1 5623 14
	mv	a0,a5
	call	StrSize@plt
	mv	a5,a0
	.loc 1 5623 12 discriminator 1
	addi	a5,a5,40
	sd	a5,-48(s0)
	.loc 1 5624 21
	ld	a0,-48(s0)
	call	AllocateZeroPool@plt
	sd	a0,-40(s0)
	.loc 1 5626 5
	ld	a5,-96(s0)
	ld	a3,56(a5)
	.loc 1 5631 14
	ld	a5,-96(s0)
	ld	a5,48(a5)
	.loc 1 5631 30
	lhu	a5,64(a5)
	.loc 1 5626 5
	sext.w	a5,a5
	mv	a4,a5
	lla	a2,.LC12
	ld	a1,-48(s0)
	ld	a0,-40(s0)
	call	UnicodeSPrint@plt
	j	.L1016
.L1015:
	.loc 1 5634 19
	ld	a5,-96(s0)
	ld	a5,64(a5)
	sd	a5,-40(s0)
.L1016:
	.loc 1 5637 14
	ld	a5,-96(s0)
	ld	a5,48(a5)
	.loc 1 5637 30
	lbu	a5,24(a5)
	.loc 1 5637 6
	mv	a4,a5
	li	a5,3
	bne	a4,a5,.L1017
	.loc 1 5641 17
	la	a5,gRT
	ld	a5,0(a5)
	ld	a5,72(a5)
	.loc 1 5641 39
	ld	a4,-96(s0)
	ld	a4,48(a4)
	.loc 1 5641 14
	ld	a0,56(a4)
	.loc 1 5641 72
	ld	a4,-96(s0)
	ld	a4,48(a4)
	.loc 1 5641 14
	addi	a1,a4,40
	.loc 1 5641 130
	ld	a4,-96(s0)
	ld	a4,48(a4)
	.loc 1 5641 121
	addi	a3,a4,64
	.loc 1 5641 163
	ld	a4,-96(s0)
	ld	a4,48(a4)
	.loc 1 5641 179
	ld	a4,80(a4)
	.loc 1 5641 14
	li	a2,0
	jalr	a5
.LVL33:
	sd	a0,-56(s0)
	.loc 1 5642 36
	ld	a5,-56(s0)
	.loc 1 5642 8
	bge	a5,zero,.L1018
	.loc 1 5643 7
	ld	a5,-96(s0)
	ld	a5,48(a5)
	li	a7,1
	li	a6,1
	li	a4,1
	li	a3,1
	li	a2,0
	li	a1,0
	ld	a0,-88(s0)
	call	ExtractDefault
	j	.L1018
.L1017:
	.loc 1 5649 31
	lla	a5,mHiiConfigRouting
	ld	a5,0(a5)
	ld	a5,0(a5)
	.loc 1 5649 14
	lla	a4,mHiiConfigRouting
	ld	a4,0(a4)
	addi	a3,s0,-80
	addi	a2,s0,-72
	ld	a1,-40(s0)
	mv	a0,a4
	jalr	a5
.LVL34:
	sd	a0,-56(s0)
	.loc 1 5659 36
	ld	a5,-56(s0)
	.loc 1 5659 8
	bge	a5,zero,.L1019
	.loc 1 5660 7
	ld	a5,-96(s0)
	ld	a5,48(a5)
	li	a7,1
	li	a6,1
	li	a4,1
	li	a3,1
	li	a2,0
	li	a1,0
	ld	a0,-88(s0)
	call	ExtractDefault
	j	.L1018
.L1019:
	.loc 1 5665 16
	ld	a5,-80(s0)
	lla	a1,.LC13
	mv	a0,a5
	call	StrStr@plt
	sd	a0,-64(s0)
	.loc 1 5666 10
	ld	a5,-64(s0)
	beq	a5,zero,.L1020
	.loc 1 5667 17
	ld	a5,-64(s0)
	sh	zero,0(a5)
.L1020:
	.loc 1 5670 16
	ld	a5,-96(s0)
	ld	a5,48(a5)
	ld	a4,-80(s0)
	mv	a1,a4
	mv	a0,a5
	call	ConfigRespToStorage
	sd	a0,-56(s0)
	.loc 1 5671 7
	ld	a5,-80(s0)
	mv	a0,a5
	call	FreePool@plt
.L1018:
	.loc 1 5675 78
	ld	a5,-96(s0)
	ld	a5,64(a5)
	.loc 1 5675 44
	mv	a0,a5
	call	StrSize@plt
	mv	a3,a0
	.loc 1 5675 103 discriminator 1
	ld	a5,-96(s0)
	ld	a4,64(a5)
	.loc 1 5675 10 discriminator 1
	ld	a5,-96(s0)
	ld	s1,48(a5)
	.loc 1 5675 44 discriminator 1
	mv	a1,a4
	mv	a0,a3
	call	AllocateCopyPool@plt
	mv	a5,a0
	.loc 1 5675 42 discriminator 2
	sd	a5,112(s1)
	.loc 1 5680 3
	ld	a5,-96(s0)
	ld	a5,48(a5)
	li	a2,1
	li	a1,0
	mv	a0,a5
	call	SynchronizeStorage
	.loc 1 5682 14
	ld	a5,-96(s0)
	ld	a5,48(a5)
	.loc 1 5682 30
	lbu	a5,24(a5)
	.loc 1 5682 6
	mv	a4,a5
	li	a5,1
	beq	a4,a5,.L1005
	.loc 1 5683 8
	ld	a5,-40(s0)
	beq	a5,zero,.L1005
	.loc 1 5684 7
	ld	a0,-40(s0)
	call	FreePool@plt
	j	.L1005
.L1023:
	.loc 1 5614 7
	nop
	j	.L1005
.L1025:
	.loc 1 5599 9
	nop
.L1005:
	.loc 1 5687 1
	ld	ra,88(sp)
	.cfi_restore 1
	ld	s0,80(sp)
	.cfi_restore 8
	.cfi_def_cfa 2, 96
	ld	s1,72(sp)
	.cfi_restore 9
	addi	sp,sp,96
	.cfi_def_cfa_offset 0
	jr	ra
	.cfi_endproc
.LFE69:
	.size	LoadStorage, .-LoadStorage
	.section	.text.SyncStatusForQuestion,"ax",@progbits
	.align	1
	.globl	SyncStatusForQuestion
	.type	SyncStatusForQuestion, @function
SyncStatusForQuestion:
.LFB70:
	.loc 1 5701 1
	.cfi_startproc
	addi	sp,sp,-64
	.cfi_def_cfa_offset 64
	sd	ra,56(sp)
	sd	s0,48(sp)
	.cfi_offset 1, -8
	.cfi_offset 8, -16
	addi	s0,sp,64
	.cfi_def_cfa 8, 0
	sd	a0,-56(s0)
	sd	a1,-64(s0)
	.loc 1 5710 24
	ld	a5,-56(s0)
	addi	a5,a5,280
	.loc 1 5710 10
	mv	a0,a5
	call	GetFirstNode@plt
	sd	a0,-24(s0)
	.loc 1 5711 9
	j	.L1027
.L1035:
	.loc 1 5712 14
	ld	a5,-24(s0)
	addi	a5,a5,-8
	.loc 1 5712 120
	ld	a4,0(a5)
	.loc 1 5712 205
	li	a5,1297235968
	addi	a5,a5,1606
	bne	a4,a5,.L1028
	.loc 1 5712 10 discriminator 1
	ld	a5,-24(s0)
	addi	a5,a5,-8
	sd	a5,-40(s0)
	j	.L1029
.L1028:
	.loc 1 5712 10 is_stmt 0 discriminator 2
	sd	zero,-40(s0)
.L1029:
	.loc 1 5713 25 is_stmt 1
	ld	a5,-56(s0)
	addi	a5,a5,280
	.loc 1 5713 12
	ld	a1,-24(s0)
	mv	a0,a5
	call	GetNextNode@plt
	sd	a0,-24(s0)
	.loc 1 5718 34
	ld	a5,-40(s0)
	addi	a5,a5,88
	.loc 1 5718 20
	mv	a0,a5
	call	GetFirstNode@plt
	sd	a0,-32(s0)
	.loc 1 5719 11
	j	.L1030
.L1034:
	.loc 1 5720 20
	ld	a5,-32(s0)
	addi	a5,a5,-8
	.loc 1 5720 144
	ld	a4,0(a5)
	.loc 1 5720 229
	li	a5,1096044544
	addi	a5,a5,838
	bne	a4,a5,.L1031
	.loc 1 5720 16 discriminator 1
	ld	a5,-32(s0)
	addi	a5,a5,-8
	sd	a5,-48(s0)
	j	.L1032
.L1031:
	.loc 1 5720 16 is_stmt 0 discriminator 2
	sd	zero,-48(s0)
.L1032:
	.loc 1 5721 35 is_stmt 1
	ld	a5,-40(s0)
	addi	a5,a5,88
	.loc 1 5721 22
	ld	a1,-32(s0)
	mv	a0,a5
	call	GetNextNode@plt
	sd	a0,-32(s0)
	.loc 1 5723 19
	ld	a5,-48(s0)
	lhu	a4,48(a5)
	.loc 1 5723 46
	ld	a5,-64(s0)
	lhu	a5,48(a5)
	.loc 1 5723 10
	sext.w	a4,a4
	sext.w	a5,a5
	bne	a4,a5,.L1030
	.loc 1 5724 32
	ld	a5,-48(s0)
	li	a4,1
	sb	a4,197(a5)
	.loc 1 5725 9
	j	.L1026
.L1030:
	.loc 1 5719 21
	ld	a5,-40(s0)
	addi	a5,a5,88
	.loc 1 5719 13
	ld	a1,-32(s0)
	mv	a0,a5
	call	IsNull@plt
	mv	a5,a0
	.loc 1 5719 12 discriminator 1
	beq	a5,zero,.L1034
.L1027:
	.loc 1 5711 19
	ld	a5,-56(s0)
	addi	a5,a5,280
	.loc 1 5711 11
	ld	a1,-24(s0)
	mv	a0,a5
	call	IsNull@plt
	mv	a5,a0
	.loc 1 5711 10 discriminator 1
	beq	a5,zero,.L1035
.L1026:
	.loc 1 5729 1
	ld	ra,56(sp)
	.cfi_restore 1
	ld	s0,48(sp)
	.cfi_restore 8
	.cfi_def_cfa 2, 64
	addi	sp,sp,64
	.cfi_def_cfa_offset 0
	jr	ra
	.cfi_endproc
.LFE70:
	.size	SyncStatusForQuestion, .-SyncStatusForQuestion
	.section	.text.SyncStatusForFormSet,"ax",@progbits
	.align	1
	.globl	SyncStatusForFormSet
	.type	SyncStatusForFormSet, @function
SyncStatusForFormSet:
.LFB71:
	.loc 1 5743 1
	.cfi_startproc
	addi	sp,sp,-64
	.cfi_def_cfa_offset 64
	sd	ra,56(sp)
	sd	s0,48(sp)
	.cfi_offset 1, -8
	.cfi_offset 8, -16
	addi	s0,sp,64
	.cfi_def_cfa 8, 0
	sd	a0,-56(s0)
	sd	a1,-64(s0)
	.loc 1 5752 24
	ld	a5,-64(s0)
	addi	a5,a5,280
	.loc 1 5752 10
	mv	a0,a5
	call	GetFirstNode@plt
	sd	a0,-24(s0)
	.loc 1 5753 9
	j	.L1037
.L1046:
	.loc 1 5754 14
	ld	a5,-24(s0)
	addi	a5,a5,-8
	.loc 1 5754 120
	ld	a4,0(a5)
	.loc 1 5754 205
	li	a5,1297235968
	addi	a5,a5,1606
	bne	a4,a5,.L1038
	.loc 1 5754 10 discriminator 1
	ld	a5,-24(s0)
	addi	a5,a5,-8
	sd	a5,-40(s0)
	j	.L1039
.L1038:
	.loc 1 5754 10 is_stmt 0 discriminator 2
	sd	zero,-40(s0)
.L1039:
	.loc 1 5755 25 is_stmt 1
	ld	a5,-64(s0)
	addi	a5,a5,280
	.loc 1 5755 12
	ld	a1,-24(s0)
	mv	a0,a5
	call	GetNextNode@plt
	sd	a0,-24(s0)
	.loc 1 5760 34
	ld	a5,-40(s0)
	addi	a5,a5,88
	.loc 1 5760 20
	mv	a0,a5
	call	GetFirstNode@plt
	sd	a0,-32(s0)
	.loc 1 5761 11
	j	.L1040
.L1045:
	.loc 1 5762 20
	ld	a5,-32(s0)
	addi	a5,a5,-8
	.loc 1 5762 144
	ld	a4,0(a5)
	.loc 1 5762 229
	li	a5,1096044544
	addi	a5,a5,838
	bne	a4,a5,.L1041
	.loc 1 5762 16 discriminator 1
	ld	a5,-32(s0)
	addi	a5,a5,-8
	sd	a5,-48(s0)
	j	.L1042
.L1041:
	.loc 1 5762 16 is_stmt 0 discriminator 2
	sd	zero,-48(s0)
.L1042:
	.loc 1 5763 35 is_stmt 1
	ld	a5,-40(s0)
	addi	a5,a5,88
	.loc 1 5763 22
	ld	a1,-32(s0)
	mv	a0,a5
	call	GetNextNode@plt
	sd	a0,-32(s0)
	.loc 1 5765 20
	ld	a5,-48(s0)
	lbu	a5,197(a5)
	.loc 1 5765 10
	beq	a5,zero,.L1047
	.loc 1 5772 7
	ld	a1,-48(s0)
	ld	a0,-56(s0)
	call	SyncStatusForQuestion
	j	.L1040
.L1047:
	.loc 1 5766 9
	nop
.L1040:
	.loc 1 5761 21
	ld	a5,-40(s0)
	addi	a5,a5,88
	.loc 1 5761 13
	ld	a1,-32(s0)
	mv	a0,a5
	call	IsNull@plt
	mv	a5,a0
	.loc 1 5761 12 discriminator 1
	beq	a5,zero,.L1045
.L1037:
	.loc 1 5753 19
	ld	a5,-64(s0)
	addi	a5,a5,280
	.loc 1 5753 11
	ld	a1,-24(s0)
	mv	a0,a5
	call	IsNull@plt
	mv	a5,a0
	.loc 1 5753 10 discriminator 1
	beq	a5,zero,.L1046
	.loc 1 5775 1
	nop
	nop
	ld	ra,56(sp)
	.cfi_restore 1
	ld	s0,48(sp)
	.cfi_restore 8
	.cfi_def_cfa 2, 64
	addi	sp,sp,64
	.cfi_def_cfa_offset 0
	jr	ra
	.cfi_endproc
.LFE71:
	.size	SyncStatusForFormSet, .-SyncStatusForFormSet
	.section	.text.InitializeCurrentSetting,"ax",@progbits
	.align	1
	.globl	InitializeCurrentSetting
	.type	InitializeCurrentSetting, @function
InitializeCurrentSetting:
.LFB72:
	.loc 1 5787 1
	.cfi_startproc
	addi	sp,sp,-64
	.cfi_def_cfa_offset 64
	sd	ra,56(sp)
	sd	s0,48(sp)
	.cfi_offset 1, -8
	.cfi_offset 8, -16
	addi	s0,sp,64
	.cfi_def_cfa 8, 0
	sd	a0,-56(s0)
	.loc 1 5796 16
	ld	a5,-56(s0)
	ld	a5,40(a5)
	mv	a0,a5
	call	GetFormSetFromHiiHandle
	sd	a0,-40(s0)
	.loc 1 5797 6
	ld	a5,-40(s0)
	beq	a5,zero,.L1049
	.loc 1 5798 5
	ld	a1,-40(s0)
	ld	a0,-56(s0)
	call	SyncStatusForFormSet
	.loc 1 5799 22
	ld	a5,-40(s0)
	addi	a5,a5,8
	.loc 1 5799 5
	mv	a0,a5
	call	RemoveEntryList@plt
	.loc 1 5800 5
	ld	a0,-40(s0)
	call	DestroyFormSet@plt
.L1049:
	.loc 1 5803 3
	ld	a5,-56(s0)
	addi	a5,a5,8
	mv	a1,a5
	lla	a0,gBrowserFormSetList
	call	InsertTailList@plt
	.loc 1 5808 3
	li	a7,0
	li	a6,1
	li	a5,0
	li	a4,0
	li	a3,1
	li	a2,0
	li	a1,0
	ld	a0,-56(s0)
	call	ExtractDefault
	.loc 1 5813 24
	ld	a5,-56(s0)
	addi	a5,a5,232
	.loc 1 5813 10
	mv	a0,a5
	call	GetFirstNode@plt
	sd	a0,-24(s0)
	.loc 1 5814 9
	j	.L1050
.L1053:
	.loc 1 5815 17
	ld	a5,-24(s0)
	addi	a5,a5,-8
	.loc 1 5815 119
	ld	a4,0(a5)
	.loc 1 5815 204
	li	a5,1196707840
	addi	a5,a5,838
	bne	a4,a5,.L1051
	.loc 1 5815 13 discriminator 1
	ld	a5,-24(s0)
	addi	a5,a5,-8
	sd	a5,-32(s0)
	j	.L1052
.L1051:
	.loc 1 5815 13 is_stmt 0 discriminator 2
	sd	zero,-32(s0)
.L1052:
	.loc 1 5817 5 is_stmt 1
	ld	a1,-32(s0)
	ld	a0,-56(s0)
	call	LoadStorage
	.loc 1 5819 25
	ld	a5,-56(s0)
	addi	a5,a5,232
	.loc 1 5819 12
	ld	a1,-24(s0)
	mv	a0,a5
	call	GetNextNode@plt
	sd	a0,-24(s0)
.L1050:
	.loc 1 5814 19
	ld	a5,-56(s0)
	addi	a5,a5,232
	.loc 1 5814 11
	ld	a1,-24(s0)
	mv	a0,a5
	call	IsNull@plt
	mv	a5,a0
	.loc 1 5814 10 discriminator 1
	beq	a5,zero,.L1053
	.loc 1 5821 1
	nop
	nop
	ld	ra,56(sp)
	.cfi_restore 1
	ld	s0,48(sp)
	.cfi_restore 8
	.cfi_def_cfa 2, 64
	addi	sp,sp,64
	.cfi_def_cfa_offset 0
	jr	ra
	.cfi_endproc
.LFE72:
	.size	InitializeCurrentSetting, .-InitializeCurrentSetting
	.section	.text.GetIfrBinaryData,"ax",@progbits
	.align	1
	.globl	GetIfrBinaryData
	.type	GetIfrBinaryData, @function
GetIfrBinaryData:
.LFB73:
	.loc 1 5849 1
	.cfi_startproc
	addi	sp,sp,-144
	.cfi_def_cfa_offset 144
	sd	ra,136(sp)
	sd	s0,128(sp)
	.cfi_offset 1, -8
	.cfi_offset 8, -16
	addi	s0,sp,144
	.cfi_def_cfa 8, 0
	sd	a0,-120(s0)
	sd	a1,-128(s0)
	sd	a2,-136(s0)
	sd	a3,-144(s0)
	.loc 1 5865 14
	sd	zero,-40(s0)
	.loc 1 5866 11
	sd	zero,-72(s0)
	.loc 1 5867 3
	addi	a5,s0,-104
	li	a1,4
	mv	a0,a5
	call	ZeroMem@plt
	.loc 1 5872 6
	ld	a5,-128(s0)
	bne	a5,zero,.L1055
	.loc 1 5873 19
	la	a5,gZeroGuid
	sd	a5,-64(s0)
	j	.L1056
.L1055:
	.loc 1 5875 19
	ld	a5,-128(s0)
	sd	a5,-64(s0)
.L1056:
	.loc 1 5881 14
	sd	zero,-96(s0)
	.loc 1 5882 18
	sd	zero,-32(s0)
	.loc 1 5883 24
	lla	a5,mHiiDatabase
	ld	a5,0(a5)
	ld	a5,32(a5)
	.loc 1 5883 12
	lla	a4,mHiiDatabase
	ld	a4,0(a4)
	addi	a2,s0,-96
	ld	a3,-32(s0)
	ld	a1,-120(s0)
	mv	a0,a4
	jalr	a5
.LVL35:
	sd	a0,-24(s0)
	.loc 1 5884 6
	ld	a4,-24(s0)
	li	a5,-1
	slli	a5,a5,63
	addi	a5,a5,5
	bne	a4,a5,.L1057
	.loc 1 5885 22
	ld	a5,-96(s0)
	mv	a0,a5
	call	AllocatePool@plt
	sd	a0,-32(s0)
	.loc 1 5888 26
	lla	a5,mHiiDatabase
	ld	a5,0(a5)
	ld	a5,32(a5)
	.loc 1 5888 14
	lla	a4,mHiiDatabase
	ld	a4,0(a4)
	addi	a2,s0,-96
	ld	a3,-32(s0)
	ld	a1,-120(s0)
	mv	a0,a4
	jalr	a5
.LVL36:
	sd	a0,-24(s0)
.L1057:
	.loc 1 5891 34
	ld	a5,-24(s0)
	.loc 1 5891 6
	bge	a5,zero,.L1058
	.loc 1 5892 12
	ld	a5,-24(s0)
	j	.L1076
.L1058:
	.loc 1 5900 10
	li	a5,20
	sw	a5,-44(s0)
	.loc 1 5901 11
	sw	zero,-48(s0)
	.loc 1 5902 32
	ld	a5,-32(s0)
	addi	a4,a5,16
	.loc 1 5902 3
	addi	a5,s0,-100
	li	a2,4
	mv	a1,a4
	mv	a0,a5
	call	CopyMem@plt
	.loc 1 5904 18
	sb	zero,-50(s0)
	.loc 1 5905 9
	j	.L1060
.L1072:
	.loc 1 5906 41
	lwu	a5,-44(s0)
	.loc 1 5906 13
	ld	a4,-32(s0)
	add	a5,a4,a5
	sd	a5,-72(s0)
	.loc 1 5907 5
	addi	a5,s0,-104
	li	a2,4
	ld	a1,-72(s0)
	mv	a0,a5
	call	CopyMem@plt
	.loc 1 5909 22
	lbu	a5,-101(s0)
	.loc 1 5909 8
	mv	a4,a5
	li	a5,2
	bne	a4,a5,.L1061
	.loc 1 5913 15
	li	a5,4
	sw	a5,-48(s0)
	.loc 1 5914 13
	j	.L1062
.L1070:
	.loc 1 5915 30
	lwu	a5,-48(s0)
	.loc 1 5915 20
	ld	a4,-72(s0)
	add	a5,a4,a5
	sd	a5,-40(s0)
	.loc 1 5917 46
	ld	a5,-40(s0)
	lbu	a5,0(a5)
	.loc 1 5917 12
	mv	a4,a5
	li	a5,14
	bne	a4,a5,.L1063
	.loc 1 5921 15
	ld	a0,-64(s0)
	call	IsZeroGuid@plt
	mv	a5,a0
	.loc 1 5921 14 discriminator 1
	bne	a5,zero,.L1064
	.loc 1 5922 67
	ld	a5,-40(s0)
	addi	a5,a5,2
	.loc 1 5922 15
	mv	a1,a5
	ld	a0,-64(s0)
	call	CompareGuid@plt
	mv	a5,a0
	.loc 1 5921 42 discriminator 2
	bne	a5,zero,.L1064
	.loc 1 5927 48
	ld	a5,-40(s0)
	lbu	a5,1(a5)
	andi	a5,a5,127
	andi	a5,a5,0xff
	.loc 1 5927 14
	mv	a4,a5
	li	a5,22
	bleu	a4,a5,.L1065
	.loc 1 5931 73
	ld	a5,-40(s0)
	lbu	a5,22(a5)
	.loc 1 5931 31
	andi	a5,a5,3
	sb	a5,-73(s0)
	.loc 1 5932 23
	ld	a5,-40(s0)
	addi	a5,a5,23
	sd	a5,-88(s0)
	.loc 1 5933 24
	sb	zero,-49(s0)
	.loc 1 5933 13
	j	.L1066
.L1069:
	.loc 1 5934 57
	lbu	a5,-49(s0)
	slli	a5,a5,4
	ld	a4,-88(s0)
	add	a5,a4,a5
	.loc 1 5934 19
	mv	a1,a5
	ld	a0,-64(s0)
	call	CompareGuid@plt
	mv	a5,a0
	.loc 1 5934 18 discriminator 1
	beq	a5,zero,.L1067
	.loc 1 5935 32
	li	a5,1
	sb	a5,-50(s0)
	.loc 1 5936 17
	j	.L1068
.L1067:
	.loc 1 5933 61 discriminator 2
	lbu	a5,-49(s0)
	addiw	a5,a5,1
	sb	a5,-49(s0)
.L1066:
	.loc 1 5933 35 discriminator 1
	lbu	a5,-49(s0)
	mv	a4,a5
	lbu	a5,-73(s0)
	andi	a4,a4,0xff
	andi	a5,a5,0xff
	bltu	a4,a5,.L1069
.L1068:
	.loc 1 5940 16
	lbu	a5,-50(s0)
	andi	a5,a5,0xff
	beq	a5,zero,.L1063
	.loc 1 5941 15
	j	.L1064
.L1065:
	.loc 1 5943 21
	ld	a4,-64(s0)
	la	a5,gEfiHiiPlatformSetupFormsetGuid
	bne	a4,a5,.L1063
	.loc 1 5944 28
	li	a5,1
	sb	a5,-50(s0)
	.loc 1 5945 13
	j	.L1064
.L1063:
	.loc 1 5949 53
	ld	a5,-40(s0)
	lbu	a5,1(a5)
	andi	a5,a5,127
	andi	a5,a5,0xff
	sext.w	a5,a5
	.loc 1 5949 17
	lw	a4,-48(s0)
	addw	a5,a4,a5
	sw	a5,-48(s0)
.L1062:
	.loc 1 5914 37
	ld	a5,-104(s0)
	mv	a4,a5
	li	a5,16777216
	addi	a5,a5,-1
	and	a5,a4,a5
	sext.w	a5,a5
	mv	a4,a5
	.loc 1 5914 22
	lw	a5,-48(s0)
	sext.w	a5,a5
	bltu	a5,a4,.L1070
.L1064:
	.loc 1 5952 34
	ld	a5,-104(s0)
	mv	a4,a5
	li	a5,16777216
	addi	a5,a5,-1
	and	a5,a4,a5
	sext.w	a5,a5
	mv	a4,a5
	.loc 1 5952 10
	lw	a5,-48(s0)
	sext.w	a5,a5
	bltu	a5,a4,.L1077
.L1061:
	.loc 1 5960 28
	ld	a5,-104(s0)
	mv	a4,a5
	li	a5,16777216
	addi	a5,a5,-1
	and	a5,a4,a5
	sext.w	a5,a5
	.loc 1 5960 12
	lw	a4,-44(s0)
	addw	a5,a4,a5
	sw	a5,-44(s0)
.L1060:
	.loc 1 5905 17
	lw	a5,-100(s0)
	lw	a4,-44(s0)
	sext.w	a4,a4
	bltu	a4,a5,.L1072
	j	.L1071
.L1077:
	.loc 1 5956 9
	nop
.L1071:
	.loc 1 5963 14
	lw	a5,-100(s0)
	.loc 1 5963 6
	lw	a4,-44(s0)
	sext.w	a4,a4
	bltu	a4,a5,.L1073
	.loc 1 5967 5
	ld	a0,-32(s0)
	call	FreePool@plt
	.loc 1 5968 12
	li	a5,-1
	slli	a5,a5,63
	addi	a5,a5,14
	j	.L1076
.L1073:
	.loc 1 5971 6
	ld	a5,-128(s0)
	beq	a5,zero,.L1074
	.loc 1 5975 27
	ld	a5,-40(s0)
	addi	a5,a5,2
	.loc 1 5975 5
	li	a2,16
	mv	a1,a5
	ld	a0,-128(s0)
	call	CopyMem@plt
.L1074:
	.loc 1 5983 32
	ld	a5,-104(s0)
	mv	a4,a5
	li	a5,16777216
	addi	a5,a5,-1
	and	a5,a4,a5
	sext.w	a5,a5
	mv	a4,a5
	.loc 1 5983 40
	lw	a5,-48(s0)
	subw	a5,a4,a5
	sext.w	a5,a5
	slli	a4,a5,32
	srli	a4,a4,32
	.loc 1 5983 17
	ld	a5,-136(s0)
	sd	a4,0(a5)
	.loc 1 5984 17
	ld	a5,-136(s0)
	ld	a5,0(a5)
	ld	a1,-40(s0)
	mv	a0,a5
	call	AllocateCopyPool@plt
	mv	a4,a0
	.loc 1 5984 15 discriminator 1
	ld	a5,-144(s0)
	sd	a4,0(a5)
	.loc 1 5986 3
	ld	a0,-32(s0)
	call	FreePool@plt
	.loc 1 5988 7
	ld	a5,-144(s0)
	ld	a5,0(a5)
	.loc 1 5988 6
	bne	a5,zero,.L1075
	.loc 1 5989 12
	li	a5,-1
	slli	a5,a5,63
	addi	a5,a5,9
	j	.L1076
.L1075:
	.loc 1 5992 10
	li	a5,0
.L1076:
	.loc 1 5993 1
	mv	a0,a5
	ld	ra,136(sp)
	.cfi_restore 1
	ld	s0,128(sp)
	.cfi_restore 8
