	.file	"DxePcdLib.c"
	.option pic
	.option norelax
	.attribute arch, "rv64i2p1_m2p0_a2p1_f2p2_d2p2_c2p0_zicsr2p0_zifencei2p0_zmmul1p0_zaamo1p0_zalrsc1p0_zca1p0_zcd1p0"
	.attribute unaligned_access, 0
	.attribute stack_align, 16
	.text
.Ltext0:
	.cfi_sections	.debug_frame
	.file 0 "/home/kapoagaeming/spacemit-image-builder/components/Build/Milk-V-Jupiter/RELEASE_GCC5/RISCV64/MdePkg/Library/DxePcdLib/DxePcdLib" "/home/kapoagaeming/spacemit-image-builder/components/edk2/MdePkg/Library/DxePcdLib/DxePcdLib.c"
	.globl	mPcd
	.section	.bss.mPcd,"aw",@nobits
	.align	3
	.type	mPcd, @object
	.size	mPcd, 8
mPcd:
	.zero	8
	.globl	mPiPcd
	.section	.bss.mPiPcd,"aw",@nobits
	.align	3
	.type	mPiPcd, @object
	.size	mPiPcd, 8
mPiPcd:
	.zero	8
	.globl	mPcdInfo
	.section	.bss.mPcdInfo,"aw",@nobits
	.align	3
	.type	mPcdInfo, @object
	.size	mPcdInfo, 8
mPcdInfo:
	.zero	8
	.globl	mPiPcdInfo
	.section	.bss.mPiPcdInfo,"aw",@nobits
	.align	3
	.type	mPiPcdInfo, @object
	.size	mPiPcdInfo, 8
mPiPcdInfo:
	.zero	8
	.section	.text.GetPiPcdProtocol,"ax",@progbits
	.align	1
	.globl	GetPiPcdProtocol
	.type	GetPiPcdProtocol, @function
GetPiPcdProtocol:
.LFB0:
	.file 1 "/home/kapoagaeming/spacemit-image-builder/components/edk2/MdePkg/Library/DxePcdLib/DxePcdLib.c"
	.loc 1 37 1
	.cfi_startproc
	addi	sp,sp,-32
	.cfi_def_cfa_offset 32
	sd	ra,24(sp)
	sd	s0,16(sp)
	.cfi_offset 1, -8
	.cfi_offset 8, -16
	addi	s0,sp,32
	.cfi_def_cfa 8, 0
	.loc 1 40 14
	lla	a5,mPiPcd
	ld	a5,0(a5)
	.loc 1 40 6
	bne	a5,zero,.L2
	.loc 1 45 17
	la	a5,gBS
	ld	a5,0(a5)
	ld	a5,320(a5)
	.loc 1 45 14
	lla	a2,mPiPcd
	li	a1,0
	la	a0,gEfiPcdProtocolGuid
	jalr	a5
.LVL0:
	sd	a0,-24(s0)
.L2:
	.loc 1 50 10
	lla	a5,mPiPcd
	ld	a5,0(a5)
	.loc 1 51 1
	mv	a0,a5
	ld	ra,24(sp)
	.cfi_restore 1
	ld	s0,16(sp)
	.cfi_restore 8
	.cfi_def_cfa 2, 32
	addi	sp,sp,32
	.cfi_def_cfa_offset 0
	jr	ra
	.cfi_endproc
.LFE0:
	.size	GetPiPcdProtocol, .-GetPiPcdProtocol
	.section	.text.GetPcdProtocol,"ax",@progbits
	.align	1
	.globl	GetPcdProtocol
	.type	GetPcdProtocol, @function
GetPcdProtocol:
.LFB1:
	.loc 1 63 1
	.cfi_startproc
	addi	sp,sp,-32
	.cfi_def_cfa_offset 32
	sd	ra,24(sp)
	sd	s0,16(sp)
	.cfi_offset 1, -8
	.cfi_offset 8, -16
	addi	s0,sp,32
	.cfi_def_cfa 8, 0
	.loc 1 66 12
	lla	a5,mPcd
	ld	a5,0(a5)
	.loc 1 66 6
	bne	a5,zero,.L5
	.loc 1 71 17
	la	a5,gBS
	ld	a5,0(a5)
	ld	a5,320(a5)
	.loc 1 71 14
	lla	a2,mPcd
	li	a1,0
	la	a0,gPcdProtocolGuid
	jalr	a5
.LVL1:
	sd	a0,-24(s0)
.L5:
	.loc 1 76 10
	lla	a5,mPcd
	ld	a5,0(a5)
	.loc 1 77 1
	mv	a0,a5
	ld	ra,24(sp)
	.cfi_restore 1
	ld	s0,16(sp)
	.cfi_restore 8
	.cfi_def_cfa 2, 32
	addi	sp,sp,32
	.cfi_def_cfa_offset 0
	jr	ra
	.cfi_endproc
.LFE1:
	.size	GetPcdProtocol, .-GetPcdProtocol
	.section	.text.GetPiPcdInfoProtocolPointer,"ax",@progbits
	.align	1
	.globl	GetPiPcdInfoProtocolPointer
	.type	GetPiPcdInfoProtocolPointer, @function
GetPiPcdInfoProtocolPointer:
.LFB2:
	.loc 1 88 1
	.cfi_startproc
	addi	sp,sp,-32
	.cfi_def_cfa_offset 32
	sd	ra,24(sp)
	sd	s0,16(sp)
	.cfi_offset 1, -8
	.cfi_offset 8, -16
	addi	s0,sp,32
	.cfi_def_cfa 8, 0
	.loc 1 91 18
	lla	a5,mPiPcdInfo
	ld	a5,0(a5)
	.loc 1 91 6
	bne	a5,zero,.L8
	.loc 1 92 17
	la	a5,gBS
	ld	a5,0(a5)
	ld	a5,320(a5)
	.loc 1 92 14
	lla	a2,mPiPcdInfo
	li	a1,0
	la	a0,gEfiGetPcdInfoProtocolGuid
	jalr	a5
.LVL2:
	sd	a0,-24(s0)
.L8:
	.loc 1 97 10
	lla	a5,mPiPcdInfo
	ld	a5,0(a5)
	.loc 1 98 1
	mv	a0,a5
	ld	ra,24(sp)
	.cfi_restore 1
	ld	s0,16(sp)
	.cfi_restore 8
	.cfi_def_cfa 2, 32
	addi	sp,sp,32
	.cfi_def_cfa_offset 0
	jr	ra
	.cfi_endproc
.LFE2:
	.size	GetPiPcdInfoProtocolPointer, .-GetPiPcdInfoProtocolPointer
	.section	.text.GetPcdInfoProtocolPointer,"ax",@progbits
	.align	1
	.globl	GetPcdInfoProtocolPointer
	.type	GetPcdInfoProtocolPointer, @function
GetPcdInfoProtocolPointer:
.LFB3:
	.loc 1 109 1
	.cfi_startproc
	addi	sp,sp,-32
	.cfi_def_cfa_offset 32
	sd	ra,24(sp)
	sd	s0,16(sp)
	.cfi_offset 1, -8
	.cfi_offset 8, -16
	addi	s0,sp,32
	.cfi_def_cfa 8, 0
	.loc 1 112 16
	lla	a5,mPcdInfo
	ld	a5,0(a5)
	.loc 1 112 6
	bne	a5,zero,.L11
	.loc 1 113 17
	la	a5,gBS
	ld	a5,0(a5)
	ld	a5,320(a5)
	.loc 1 113 14
	lla	a2,mPcdInfo
	li	a1,0
	la	a0,gGetPcdInfoProtocolGuid
	jalr	a5
.LVL3:
	sd	a0,-24(s0)
.L11:
	.loc 1 118 10
	lla	a5,mPcdInfo
	ld	a5,0(a5)
	.loc 1 119 1
	mv	a0,a5
	ld	ra,24(sp)
	.cfi_restore 1
	ld	s0,16(sp)
	.cfi_restore 8
	.cfi_def_cfa 2, 32
	addi	sp,sp,32
	.cfi_def_cfa_offset 0
	jr	ra
	.cfi_endproc
.LFE3:
	.size	GetPcdInfoProtocolPointer, .-GetPcdInfoProtocolPointer
	.section	.text.LibPcdSetSku,"ax",@progbits
	.align	1
	.globl	LibPcdSetSku
	.type	LibPcdSetSku, @function
LibPcdSetSku:
.LFB4:
	.loc 1 137 1
	.cfi_startproc
	addi	sp,sp,-32
	.cfi_def_cfa_offset 32
	sd	ra,24(sp)
	sd	s0,16(sp)
	.cfi_offset 1, -8
	.cfi_offset 8, -16
	addi	s0,sp,32
	.cfi_def_cfa 8, 0
	sd	a0,-24(s0)
	.loc 1 138 3
	call	GetPcdProtocol
	mv	a5,a0
	.loc 1 138 20 discriminator 1
	ld	a5,0(a5)
	.loc 1 138 3 discriminator 1
	ld	a0,-24(s0)
	jalr	a5
.LVL4:
	.loc 1 140 10
	ld	a5,-24(s0)
	.loc 1 141 1
	mv	a0,a5
	ld	ra,24(sp)
	.cfi_restore 1
	ld	s0,16(sp)
	.cfi_restore 8
	.cfi_def_cfa 2, 32
	addi	sp,sp,32
	.cfi_def_cfa_offset 0
	jr	ra
	.cfi_endproc
.LFE4:
	.size	LibPcdSetSku, .-LibPcdSetSku
	.section	.text.LibPcdGet8,"ax",@progbits
	.align	1
	.globl	LibPcdGet8
	.type	LibPcdGet8, @function
LibPcdGet8:
.LFB5:
	.loc 1 158 1
	.cfi_startproc
	addi	sp,sp,-32
	.cfi_def_cfa_offset 32
	sd	ra,24(sp)
	sd	s0,16(sp)
	.cfi_offset 1, -8
	.cfi_offset 8, -16
	addi	s0,sp,32
	.cfi_def_cfa 8, 0
	sd	a0,-24(s0)
	.loc 1 159 10
	call	GetPcdProtocol
	mv	a5,a0
	.loc 1 159 27 discriminator 1
	ld	a5,8(a5)
	.loc 1 159 10 discriminator 1
	ld	a0,-24(s0)
	jalr	a5
.LVL5:
	mv	a5,a0
	.loc 1 160 1
	mv	a0,a5
	ld	ra,24(sp)
	.cfi_restore 1
	ld	s0,16(sp)
	.cfi_restore 8
	.cfi_def_cfa 2, 32
	addi	sp,sp,32
	.cfi_def_cfa_offset 0
	jr	ra
	.cfi_endproc
.LFE5:
	.size	LibPcdGet8, .-LibPcdGet8
	.section	.text.LibPcdGet16,"ax",@progbits
	.align	1
	.globl	LibPcdGet16
	.type	LibPcdGet16, @function
LibPcdGet16:
.LFB6:
	.loc 1 177 1
	.cfi_startproc
	addi	sp,sp,-32
	.cfi_def_cfa_offset 32
	sd	ra,24(sp)
	sd	s0,16(sp)
	.cfi_offset 1, -8
	.cfi_offset 8, -16
	addi	s0,sp,32
	.cfi_def_cfa 8, 0
	sd	a0,-24(s0)
	.loc 1 178 10
	call	GetPcdProtocol
	mv	a5,a0
	.loc 1 178 27 discriminator 1
	ld	a5,16(a5)
	.loc 1 178 10 discriminator 1
	ld	a0,-24(s0)
	jalr	a5
.LVL6:
	mv	a5,a0
	.loc 1 179 1
	mv	a0,a5
	ld	ra,24(sp)
	.cfi_restore 1
	ld	s0,16(sp)
	.cfi_restore 8
	.cfi_def_cfa 2, 32
	addi	sp,sp,32
	.cfi_def_cfa_offset 0
	jr	ra
	.cfi_endproc
.LFE6:
	.size	LibPcdGet16, .-LibPcdGet16
	.section	.text.LibPcdGet32,"ax",@progbits
	.align	1
	.globl	LibPcdGet32
	.type	LibPcdGet32, @function
LibPcdGet32:
.LFB7:
	.loc 1 196 1
	.cfi_startproc
	addi	sp,sp,-32
	.cfi_def_cfa_offset 32
	sd	ra,24(sp)
	sd	s0,16(sp)
	.cfi_offset 1, -8
	.cfi_offset 8, -16
	addi	s0,sp,32
	.cfi_def_cfa 8, 0
	sd	a0,-24(s0)
	.loc 1 197 10
	call	GetPcdProtocol
	mv	a5,a0
	.loc 1 197 27 discriminator 1
	ld	a5,24(a5)
	.loc 1 197 10 discriminator 1
	ld	a0,-24(s0)
	jalr	a5
.LVL7:
	mv	a5,a0
	.loc 1 198 1
	mv	a0,a5
	ld	ra,24(sp)
	.cfi_restore 1
	ld	s0,16(sp)
	.cfi_restore 8
	.cfi_def_cfa 2, 32
	addi	sp,sp,32
	.cfi_def_cfa_offset 0
	jr	ra
	.cfi_endproc
.LFE7:
	.size	LibPcdGet32, .-LibPcdGet32
	.section	.text.LibPcdGet64,"ax",@progbits
	.align	1
	.globl	LibPcdGet64
	.type	LibPcdGet64, @function
LibPcdGet64:
.LFB8:
	.loc 1 215 1
	.cfi_startproc
	addi	sp,sp,-32
	.cfi_def_cfa_offset 32
	sd	ra,24(sp)
	sd	s0,16(sp)
	.cfi_offset 1, -8
	.cfi_offset 8, -16
	addi	s0,sp,32
	.cfi_def_cfa 8, 0
	sd	a0,-24(s0)
	.loc 1 216 10
	call	GetPcdProtocol
	mv	a5,a0
	.loc 1 216 27 discriminator 1
	ld	a5,32(a5)
	.loc 1 216 10 discriminator 1
	ld	a0,-24(s0)
	jalr	a5
.LVL8:
	mv	a5,a0
	.loc 1 217 1
	mv	a0,a5
	ld	ra,24(sp)
	.cfi_restore 1
	ld	s0,16(sp)
	.cfi_restore 8
	.cfi_def_cfa 2, 32
	addi	sp,sp,32
	.cfi_def_cfa_offset 0
	jr	ra
	.cfi_endproc
.LFE8:
	.size	LibPcdGet64, .-LibPcdGet64
	.section	.text.LibPcdGetPtr,"ax",@progbits
	.align	1
	.globl	LibPcdGetPtr
	.type	LibPcdGetPtr, @function
LibPcdGetPtr:
.LFB9:
	.loc 1 234 1
	.cfi_startproc
	addi	sp,sp,-32
	.cfi_def_cfa_offset 32
	sd	ra,24(sp)
	sd	s0,16(sp)
	.cfi_offset 1, -8
	.cfi_offset 8, -16
	addi	s0,sp,32
	.cfi_def_cfa 8, 0
	sd	a0,-24(s0)
	.loc 1 235 10
	call	GetPcdProtocol
	mv	a5,a0
	.loc 1 235 27 discriminator 1
	ld	a5,40(a5)
	.loc 1 235 10 discriminator 1
	ld	a0,-24(s0)
	jalr	a5
.LVL9:
	mv	a5,a0
	.loc 1 236 1
	mv	a0,a5
	ld	ra,24(sp)
	.cfi_restore 1
	ld	s0,16(sp)
	.cfi_restore 8
	.cfi_def_cfa 2, 32
	addi	sp,sp,32
	.cfi_def_cfa_offset 0
	jr	ra
	.cfi_endproc
.LFE9:
	.size	LibPcdGetPtr, .-LibPcdGetPtr
	.section	.text.LibPcdGetBool,"ax",@progbits
	.align	1
	.globl	LibPcdGetBool
	.type	LibPcdGetBool, @function
LibPcdGetBool:
.LFB10:
	.loc 1 253 1
	.cfi_startproc
	addi	sp,sp,-32
	.cfi_def_cfa_offset 32
	sd	ra,24(sp)
	sd	s0,16(sp)
	.cfi_offset 1, -8
	.cfi_offset 8, -16
	addi	s0,sp,32
	.cfi_def_cfa 8, 0
	sd	a0,-24(s0)
	.loc 1 254 10
	call	GetPcdProtocol
	mv	a5,a0
	.loc 1 254 27 discriminator 1
	ld	a5,48(a5)
	.loc 1 254 10 discriminator 1
	ld	a0,-24(s0)
	jalr	a5
.LVL10:
	mv	a5,a0
	.loc 1 255 1
	mv	a0,a5
	ld	ra,24(sp)
	.cfi_restore 1
	ld	s0,16(sp)
	.cfi_restore 8
	.cfi_def_cfa 2, 32
	addi	sp,sp,32
	.cfi_def_cfa_offset 0
	jr	ra
	.cfi_endproc
.LFE10:
	.size	LibPcdGetBool, .-LibPcdGetBool
	.section	.text.LibPcdGetSize,"ax",@progbits
	.align	1
	.globl	LibPcdGetSize
	.type	LibPcdGetSize, @function
LibPcdGetSize:
.LFB11:
	.loc 1 270 1
	.cfi_startproc
	addi	sp,sp,-32
	.cfi_def_cfa_offset 32
	sd	ra,24(sp)
	sd	s0,16(sp)
	.cfi_offset 1, -8
	.cfi_offset 8, -16
	addi	s0,sp,32
	.cfi_def_cfa 8, 0
	sd	a0,-24(s0)
	.loc 1 271 10
	call	GetPcdProtocol
	mv	a5,a0
	.loc 1 271 27 discriminator 1
	ld	a5,56(a5)
	.loc 1 271 10 discriminator 1
	ld	a0,-24(s0)
	jalr	a5
.LVL11:
	mv	a5,a0
	.loc 1 272 1
	mv	a0,a5
	ld	ra,24(sp)
	.cfi_restore 1
	ld	s0,16(sp)
	.cfi_restore 8
	.cfi_def_cfa 2, 32
	addi	sp,sp,32
	.cfi_def_cfa_offset 0
	jr	ra
	.cfi_endproc
.LFE11:
	.size	LibPcdGetSize, .-LibPcdGetSize
	.section	.text.LibPcdGetEx8,"ax",@progbits
	.align	1
	.globl	LibPcdGetEx8
	.type	LibPcdGetEx8, @function
LibPcdGetEx8:
.LFB12:
	.loc 1 294 1
	.cfi_startproc
	addi	sp,sp,-32
	.cfi_def_cfa_offset 32
	sd	ra,24(sp)
	sd	s0,16(sp)
	.cfi_offset 1, -8
	.cfi_offset 8, -16
	addi	s0,sp,32
	.cfi_def_cfa 8, 0
	sd	a0,-24(s0)
	sd	a1,-32(s0)
	.loc 1 297 10
	call	GetPiPcdProtocol
	mv	a5,a0
	.loc 1 297 29 discriminator 1
	ld	a5,8(a5)
	.loc 1 297 10 discriminator 1
	ld	a1,-32(s0)
	ld	a0,-24(s0)
	jalr	a5
.LVL12:
	mv	a5,a0
	.loc 1 298 1
	mv	a0,a5
	ld	ra,24(sp)
	.cfi_restore 1
	ld	s0,16(sp)
	.cfi_restore 8
	.cfi_def_cfa 2, 32
	addi	sp,sp,32
	.cfi_def_cfa_offset 0
	jr	ra
	.cfi_endproc
.LFE12:
	.size	LibPcdGetEx8, .-LibPcdGetEx8
	.section	.text.LibPcdGetEx16,"ax",@progbits
	.align	1
	.globl	LibPcdGetEx16
	.type	LibPcdGetEx16, @function
LibPcdGetEx16:
.LFB13:
	.loc 1 320 1
	.cfi_startproc
	addi	sp,sp,-32
	.cfi_def_cfa_offset 32
	sd	ra,24(sp)
	sd	s0,16(sp)
	.cfi_offset 1, -8
	.cfi_offset 8, -16
	addi	s0,sp,32
	.cfi_def_cfa 8, 0
	sd	a0,-24(s0)
	sd	a1,-32(s0)
	.loc 1 323 10
	call	GetPiPcdProtocol
	mv	a5,a0
	.loc 1 323 29 discriminator 1
	ld	a5,16(a5)
	.loc 1 323 10 discriminator 1
	ld	a1,-32(s0)
	ld	a0,-24(s0)
	jalr	a5
.LVL13:
	mv	a5,a0
	.loc 1 324 1
	mv	a0,a5
	ld	ra,24(sp)
	.cfi_restore 1
	ld	s0,16(sp)
	.cfi_restore 8
	.cfi_def_cfa 2, 32
	addi	sp,sp,32
	.cfi_def_cfa_offset 0
	jr	ra
	.cfi_endproc
.LFE13:
	.size	LibPcdGetEx16, .-LibPcdGetEx16
	.section	.text.LibPcdGetEx32,"ax",@progbits
	.align	1
	.globl	LibPcdGetEx32
	.type	LibPcdGetEx32, @function
LibPcdGetEx32:
.LFB14:
	.loc 1 343 1
	.cfi_startproc
	addi	sp,sp,-32
	.cfi_def_cfa_offset 32
	sd	ra,24(sp)
	sd	s0,16(sp)
	.cfi_offset 1, -8
	.cfi_offset 8, -16
	addi	s0,sp,32
	.cfi_def_cfa 8, 0
	sd	a0,-24(s0)
	sd	a1,-32(s0)
	.loc 1 346 10
	call	GetPiPcdProtocol
	mv	a5,a0
	.loc 1 346 29 discriminator 1
	ld	a5,24(a5)
	.loc 1 346 10 discriminator 1
	ld	a1,-32(s0)
	ld	a0,-24(s0)
	jalr	a5
.LVL14:
	mv	a5,a0
	.loc 1 347 1
	mv	a0,a5
	ld	ra,24(sp)
	.cfi_restore 1
	ld	s0,16(sp)
	.cfi_restore 8
	.cfi_def_cfa 2, 32
	addi	sp,sp,32
	.cfi_def_cfa_offset 0
	jr	ra
	.cfi_endproc
.LFE14:
	.size	LibPcdGetEx32, .-LibPcdGetEx32
	.section	.text.LibPcdGetEx64,"ax",@progbits
	.align	1
	.globl	LibPcdGetEx64
	.type	LibPcdGetEx64, @function
LibPcdGetEx64:
.LFB15:
	.loc 1 369 1
	.cfi_startproc
	addi	sp,sp,-32
	.cfi_def_cfa_offset 32
	sd	ra,24(sp)
	sd	s0,16(sp)
	.cfi_offset 1, -8
	.cfi_offset 8, -16
	addi	s0,sp,32
	.cfi_def_cfa 8, 0
	sd	a0,-24(s0)
	sd	a1,-32(s0)
	.loc 1 372 10
	call	GetPiPcdProtocol
	mv	a5,a0
	.loc 1 372 29 discriminator 1
	ld	a5,32(a5)
	.loc 1 372 10 discriminator 1
	ld	a1,-32(s0)
	ld	a0,-24(s0)
	jalr	a5
.LVL15:
	mv	a5,a0
	.loc 1 373 1
	mv	a0,a5
	ld	ra,24(sp)
	.cfi_restore 1
	ld	s0,16(sp)
	.cfi_restore 8
	.cfi_def_cfa 2, 32
	addi	sp,sp,32
	.cfi_def_cfa_offset 0
	jr	ra
	.cfi_endproc
.LFE15:
	.size	LibPcdGetEx64, .-LibPcdGetEx64
	.section	.text.LibPcdGetExPtr,"ax",@progbits
	.align	1
	.globl	LibPcdGetExPtr
	.type	LibPcdGetExPtr, @function
LibPcdGetExPtr:
.LFB16:
	.loc 1 395 1
	.cfi_startproc
	addi	sp,sp,-32
	.cfi_def_cfa_offset 32
	sd	ra,24(sp)
	sd	s0,16(sp)
	.cfi_offset 1, -8
	.cfi_offset 8, -16
	addi	s0,sp,32
	.cfi_def_cfa 8, 0
	sd	a0,-24(s0)
	sd	a1,-32(s0)
	.loc 1 398 10
	call	GetPiPcdProtocol
	mv	a5,a0
	.loc 1 398 29 discriminator 1
	ld	a5,40(a5)
	.loc 1 398 10 discriminator 1
	ld	a1,-32(s0)
	ld	a0,-24(s0)
	jalr	a5
.LVL16:
	mv	a5,a0
	.loc 1 399 1
	mv	a0,a5
	ld	ra,24(sp)
	.cfi_restore 1
	ld	s0,16(sp)
	.cfi_restore 8
	.cfi_def_cfa 2, 32
	addi	sp,sp,32
	.cfi_def_cfa_offset 0
	jr	ra
	.cfi_endproc
.LFE16:
	.size	LibPcdGetExPtr, .-LibPcdGetExPtr
	.section	.text.LibPcdGetExBool,"ax",@progbits
	.align	1
	.globl	LibPcdGetExBool
	.type	LibPcdGetExBool, @function
LibPcdGetExBool:
.LFB17:
	.loc 1 421 1
	.cfi_startproc
	addi	sp,sp,-32
	.cfi_def_cfa_offset 32
	sd	ra,24(sp)
	sd	s0,16(sp)
	.cfi_offset 1, -8
	.cfi_offset 8, -16
	addi	s0,sp,32
	.cfi_def_cfa 8, 0
	sd	a0,-24(s0)
	sd	a1,-32(s0)
	.loc 1 424 10
	call	GetPiPcdProtocol
	mv	a5,a0
	.loc 1 424 29 discriminator 1
	ld	a5,48(a5)
	.loc 1 424 10 discriminator 1
	ld	a1,-32(s0)
	ld	a0,-24(s0)
	jalr	a5
.LVL17:
	mv	a5,a0
	.loc 1 425 1
	mv	a0,a5
	ld	ra,24(sp)
	.cfi_restore 1
	ld	s0,16(sp)
	.cfi_restore 8
	.cfi_def_cfa 2, 32
	addi	sp,sp,32
	.cfi_def_cfa_offset 0
	jr	ra
	.cfi_endproc
.LFE17:
	.size	LibPcdGetExBool, .-LibPcdGetExBool
	.section	.text.LibPcdGetExSize,"ax",@progbits
	.align	1
	.globl	LibPcdGetExSize
	.type	LibPcdGetExSize, @function
LibPcdGetExSize:
.LFB18:
	.loc 1 447 1
	.cfi_startproc
	addi	sp,sp,-32
	.cfi_def_cfa_offset 32
	sd	ra,24(sp)
	sd	s0,16(sp)
	.cfi_offset 1, -8
	.cfi_offset 8, -16
	addi	s0,sp,32
	.cfi_def_cfa 8, 0
	sd	a0,-24(s0)
	sd	a1,-32(s0)
	.loc 1 450 10
	call	GetPiPcdProtocol
	mv	a5,a0
	.loc 1 450 29 discriminator 1
	ld	a5,56(a5)
	.loc 1 450 10 discriminator 1
	ld	a1,-32(s0)
	ld	a0,-24(s0)
	jalr	a5
.LVL18:
	mv	a5,a0
	.loc 1 451 1
	mv	a0,a5
	ld	ra,24(sp)
	.cfi_restore 1
	ld	s0,16(sp)
	.cfi_restore 8
	.cfi_def_cfa 2, 32
	addi	sp,sp,32
	.cfi_def_cfa_offset 0
	jr	ra
	.cfi_endproc
.LFE18:
	.size	LibPcdGetExSize, .-LibPcdGetExSize
	.section	.text.LibPcdSet8S,"ax",@progbits
	.align	1
	.globl	LibPcdSet8S
	.type	LibPcdSet8S, @function
LibPcdSet8S:
.LFB19:
	.loc 1 471 1
	.cfi_startproc
	addi	sp,sp,-32
	.cfi_def_cfa_offset 32
	sd	ra,24(sp)
	sd	s0,16(sp)
	.cfi_offset 1, -8
	.cfi_offset 8, -16
	addi	s0,sp,32
	.cfi_def_cfa 8, 0
	sd	a0,-24(s0)
	mv	a5,a1
	sb	a5,-25(s0)
	.loc 1 472 10
	call	GetPcdProtocol
	mv	a5,a0
	.loc 1 472 27 discriminator 1
	ld	a5,120(a5)
	.loc 1 472 10 discriminator 1
	lbu	a4,-25(s0)
	mv	a1,a4
	ld	a0,-24(s0)
	jalr	a5
.LVL19:
	mv	a5,a0
	.loc 1 473 1
	mv	a0,a5
	ld	ra,24(sp)
	.cfi_restore 1
	ld	s0,16(sp)
	.cfi_restore 8
	.cfi_def_cfa 2, 32
	addi	sp,sp,32
	.cfi_def_cfa_offset 0
	jr	ra
	.cfi_endproc
.LFE19:
	.size	LibPcdSet8S, .-LibPcdSet8S
	.section	.text.LibPcdSet16S,"ax",@progbits
	.align	1
	.globl	LibPcdSet16S
	.type	LibPcdSet16S, @function
LibPcdSet16S:
.LFB20:
	.loc 1 493 1
	.cfi_startproc
	addi	sp,sp,-32
	.cfi_def_cfa_offset 32
	sd	ra,24(sp)
	sd	s0,16(sp)
	.cfi_offset 1, -8
	.cfi_offset 8, -16
	addi	s0,sp,32
	.cfi_def_cfa 8, 0
	sd	a0,-24(s0)
	mv	a5,a1
	sh	a5,-26(s0)
	.loc 1 494 10
	call	GetPcdProtocol
	mv	a5,a0
	.loc 1 494 27 discriminator 1
	ld	a5,128(a5)
	.loc 1 494 10 discriminator 1
	lhu	a4,-26(s0)
	mv	a1,a4
	ld	a0,-24(s0)
	jalr	a5
.LVL20:
	mv	a5,a0
	.loc 1 495 1
	mv	a0,a5
	ld	ra,24(sp)
	.cfi_restore 1
	ld	s0,16(sp)
	.cfi_restore 8
	.cfi_def_cfa 2, 32
	addi	sp,sp,32
	.cfi_def_cfa_offset 0
	jr	ra
	.cfi_endproc
.LFE20:
	.size	LibPcdSet16S, .-LibPcdSet16S
	.section	.text.LibPcdSet32S,"ax",@progbits
	.align	1
	.globl	LibPcdSet32S
	.type	LibPcdSet32S, @function
LibPcdSet32S:
.LFB21:
	.loc 1 515 1
	.cfi_startproc
	addi	sp,sp,-32
	.cfi_def_cfa_offset 32
	sd	ra,24(sp)
	sd	s0,16(sp)
	.cfi_offset 1, -8
	.cfi_offset 8, -16
	addi	s0,sp,32
	.cfi_def_cfa 8, 0
	sd	a0,-24(s0)
	mv	a5,a1
	sw	a5,-28(s0)
	.loc 1 516 10
	call	GetPcdProtocol
	mv	a5,a0
	.loc 1 516 27 discriminator 1
	ld	a5,136(a5)
	.loc 1 516 10 discriminator 1
	lw	a4,-28(s0)
	mv	a1,a4
	ld	a0,-24(s0)
	jalr	a5
.LVL21:
	mv	a5,a0
	.loc 1 517 1
	mv	a0,a5
	ld	ra,24(sp)
	.cfi_restore 1
	ld	s0,16(sp)
	.cfi_restore 8
	.cfi_def_cfa 2, 32
	addi	sp,sp,32
	.cfi_def_cfa_offset 0
	jr	ra
	.cfi_endproc
.LFE21:
	.size	LibPcdSet32S, .-LibPcdSet32S
	.section	.text.LibPcdSet64S,"ax",@progbits
	.align	1
	.globl	LibPcdSet64S
	.type	LibPcdSet64S, @function
LibPcdSet64S:
.LFB22:
	.loc 1 537 1
	.cfi_startproc
	addi	sp,sp,-32
	.cfi_def_cfa_offset 32
	sd	ra,24(sp)
	sd	s0,16(sp)
	.cfi_offset 1, -8
	.cfi_offset 8, -16
	addi	s0,sp,32
	.cfi_def_cfa 8, 0
	sd	a0,-24(s0)
	sd	a1,-32(s0)
	.loc 1 538 10
	call	GetPcdProtocol
	mv	a5,a0
	.loc 1 538 27 discriminator 1
	ld	a5,144(a5)
	.loc 1 538 10 discriminator 1
	ld	a1,-32(s0)
	ld	a0,-24(s0)
	jalr	a5
.LVL22:
	mv	a5,a0
	.loc 1 539 1
	mv	a0,a5
	ld	ra,24(sp)
	.cfi_restore 1
	ld	s0,16(sp)
	.cfi_restore 8
	.cfi_def_cfa 2, 32
	addi	sp,sp,32
	.cfi_def_cfa_offset 0
	jr	ra
	.cfi_endproc
.LFE22:
	.size	LibPcdSet64S, .-LibPcdSet64S
	.section	.text.LibPcdSetPtrS,"ax",@progbits
	.align	1
	.globl	LibPcdSetPtrS
	.type	LibPcdSetPtrS, @function
LibPcdSetPtrS:
.LFB23:
	.loc 1 570 1
	.cfi_startproc
	addi	sp,sp,-48
	.cfi_def_cfa_offset 48
	sd	ra,40(sp)
	sd	s0,32(sp)
	.cfi_offset 1, -8
	.cfi_offset 8, -16
	addi	s0,sp,48
	.cfi_def_cfa 8, 0
	sd	a0,-24(s0)
	sd	a1,-32(s0)
	sd	a2,-40(s0)
	.loc 1 577 10
	call	GetPcdProtocol
	mv	a5,a0
	.loc 1 577 27 discriminator 1
	ld	a5,152(a5)
	.loc 1 577 10 discriminator 1
	ld	a2,-40(s0)
	ld	a1,-32(s0)
	ld	a0,-24(s0)
	jalr	a5
.LVL23:
	mv	a5,a0
	.loc 1 578 1
	mv	a0,a5
	ld	ra,40(sp)
	.cfi_restore 1
	ld	s0,32(sp)
	.cfi_restore 8
	.cfi_def_cfa 2, 48
	addi	sp,sp,48
	.cfi_def_cfa_offset 0
	jr	ra
	.cfi_endproc
.LFE23:
	.size	LibPcdSetPtrS, .-LibPcdSetPtrS
	.section	.text.LibPcdSetBoolS,"ax",@progbits
	.align	1
	.globl	LibPcdSetBoolS
	.type	LibPcdSetBoolS, @function
LibPcdSetBoolS:
.LFB24:
	.loc 1 598 1
	.cfi_startproc
	addi	sp,sp,-32
	.cfi_def_cfa_offset 32
	sd	ra,24(sp)
	sd	s0,16(sp)
	.cfi_offset 1, -8
	.cfi_offset 8, -16
	addi	s0,sp,32
	.cfi_def_cfa 8, 0
	sd	a0,-24(s0)
	mv	a5,a1
	sb	a5,-25(s0)
	.loc 1 599 10
	call	GetPcdProtocol
	mv	a5,a0
	.loc 1 599 27 discriminator 1
	ld	a5,160(a5)
	.loc 1 599 10 discriminator 1
	lbu	a4,-25(s0)
	mv	a1,a4
	ld	a0,-24(s0)
	jalr	a5
.LVL24:
	mv	a5,a0
	.loc 1 600 1
	mv	a0,a5
	ld	ra,24(sp)
	.cfi_restore 1
	ld	s0,16(sp)
	.cfi_restore 8
	.cfi_def_cfa 2, 32
	addi	sp,sp,32
	.cfi_def_cfa_offset 0
	jr	ra
	.cfi_endproc
.LFE24:
	.size	LibPcdSetBoolS, .-LibPcdSetBoolS
	.section	.text.LibPcdSetEx8S,"ax",@progbits
	.align	1
	.globl	LibPcdSetEx8S
	.type	LibPcdSetEx8S, @function
LibPcdSetEx8S:
.LFB25:
	.loc 1 625 1
	.cfi_startproc
	addi	sp,sp,-48
	.cfi_def_cfa_offset 48
	sd	ra,40(sp)
	sd	s0,32(sp)
	.cfi_offset 1, -8
	.cfi_offset 8, -16
	addi	s0,sp,48
	.cfi_def_cfa 8, 0
	sd	a0,-24(s0)
	sd	a1,-32(s0)
	mv	a5,a2
	sb	a5,-33(s0)
	.loc 1 628 10
	call	GetPiPcdProtocol
	mv	a5,a0
	.loc 1 628 29 discriminator 1
	ld	a5,64(a5)
	.loc 1 628 10 discriminator 1
	lbu	a4,-33(s0)
	mv	a2,a4
	ld	a1,-32(s0)
	ld	a0,-24(s0)
	jalr	a5
.LVL25:
	mv	a5,a0
	.loc 1 629 1
	mv	a0,a5
	ld	ra,40(sp)
	.cfi_restore 1
	ld	s0,32(sp)
	.cfi_restore 8
	.cfi_def_cfa 2, 48
	addi	sp,sp,48
	.cfi_def_cfa_offset 0
	jr	ra
	.cfi_endproc
.LFE25:
	.size	LibPcdSetEx8S, .-LibPcdSetEx8S
	.section	.text.LibPcdSetEx16S,"ax",@progbits
	.align	1
	.globl	LibPcdSetEx16S
	.type	LibPcdSetEx16S, @function
LibPcdSetEx16S:
.LFB26:
	.loc 1 654 1
	.cfi_startproc
	addi	sp,sp,-48
	.cfi_def_cfa_offset 48
	sd	ra,40(sp)
	sd	s0,32(sp)
	.cfi_offset 1, -8
	.cfi_offset 8, -16
	addi	s0,sp,48
	.cfi_def_cfa 8, 0
	sd	a0,-24(s0)
	sd	a1,-32(s0)
	mv	a5,a2
	sh	a5,-34(s0)
	.loc 1 657 10
	call	GetPiPcdProtocol
	mv	a5,a0
	.loc 1 657 29 discriminator 1
	ld	a5,72(a5)
	.loc 1 657 10 discriminator 1
	lhu	a4,-34(s0)
	mv	a2,a4
	ld	a1,-32(s0)
	ld	a0,-24(s0)
	jalr	a5
.LVL26:
	mv	a5,a0
	.loc 1 658 1
	mv	a0,a5
	ld	ra,40(sp)
	.cfi_restore 1
	ld	s0,32(sp)
	.cfi_restore 8
	.cfi_def_cfa 2, 48
	addi	sp,sp,48
	.cfi_def_cfa_offset 0
	jr	ra
	.cfi_endproc
.LFE26:
	.size	LibPcdSetEx16S, .-LibPcdSetEx16S
	.section	.text.LibPcdSetEx32S,"ax",@progbits
	.align	1
	.globl	LibPcdSetEx32S
	.type	LibPcdSetEx32S, @function
LibPcdSetEx32S:
.LFB27:
	.loc 1 683 1
	.cfi_startproc
	addi	sp,sp,-48
	.cfi_def_cfa_offset 48
	sd	ra,40(sp)
	sd	s0,32(sp)
	.cfi_offset 1, -8
	.cfi_offset 8, -16
	addi	s0,sp,48
	.cfi_def_cfa 8, 0
	sd	a0,-24(s0)
	sd	a1,-32(s0)
	mv	a5,a2
	sw	a5,-36(s0)
	.loc 1 686 10
	call	GetPiPcdProtocol
	mv	a5,a0
	.loc 1 686 29 discriminator 1
	ld	a5,80(a5)
	.loc 1 686 10 discriminator 1
	lw	a4,-36(s0)
	mv	a2,a4
	ld	a1,-32(s0)
	ld	a0,-24(s0)
	jalr	a5
.LVL27:
	mv	a5,a0
	.loc 1 687 1
	mv	a0,a5
	ld	ra,40(sp)
	.cfi_restore 1
	ld	s0,32(sp)
	.cfi_restore 8
	.cfi_def_cfa 2, 48
	addi	sp,sp,48
	.cfi_def_cfa_offset 0
	jr	ra
	.cfi_endproc
.LFE27:
	.size	LibPcdSetEx32S, .-LibPcdSetEx32S
	.section	.text.LibPcdSetEx64S,"ax",@progbits
	.align	1
	.globl	LibPcdSetEx64S
	.type	LibPcdSetEx64S, @function
LibPcdSetEx64S:
.LFB28:
	.loc 1 712 1
	.cfi_startproc
	addi	sp,sp,-48
	.cfi_def_cfa_offset 48
	sd	ra,40(sp)
	sd	s0,32(sp)
	.cfi_offset 1, -8
	.cfi_offset 8, -16
	addi	s0,sp,48
	.cfi_def_cfa 8, 0
	sd	a0,-24(s0)
	sd	a1,-32(s0)
	sd	a2,-40(s0)
	.loc 1 715 10
	call	GetPiPcdProtocol
	mv	a5,a0
	.loc 1 715 29 discriminator 1
	ld	a5,88(a5)
	.loc 1 715 10 discriminator 1
	ld	a2,-40(s0)
	ld	a1,-32(s0)
	ld	a0,-24(s0)
	jalr	a5
.LVL28:
	mv	a5,a0
	.loc 1 716 1
	mv	a0,a5
	ld	ra,40(sp)
	.cfi_restore 1
	ld	s0,32(sp)
	.cfi_restore 8
	.cfi_def_cfa 2, 48
	addi	sp,sp,48
	.cfi_def_cfa_offset 0
	jr	ra
	.cfi_endproc
.LFE28:
	.size	LibPcdSetEx64S, .-LibPcdSetEx64S
	.section	.text.LibPcdSetExPtrS,"ax",@progbits
	.align	1
	.globl	LibPcdSetExPtrS
	.type	LibPcdSetExPtrS, @function
LibPcdSetExPtrS:
.LFB29:
	.loc 1 748 1
	.cfi_startproc
	addi	sp,sp,-48
	.cfi_def_cfa_offset 48
	sd	ra,40(sp)
	sd	s0,32(sp)
	.cfi_offset 1, -8
	.cfi_offset 8, -16
	addi	s0,sp,48
	.cfi_def_cfa 8, 0
	sd	a0,-24(s0)
	sd	a1,-32(s0)
	sd	a2,-40(s0)
	sd	a3,-48(s0)
	.loc 1 757 10
	call	GetPiPcdProtocol
	mv	a5,a0
	.loc 1 757 29 discriminator 1
	ld	a5,96(a5)
	.loc 1 757 10 discriminator 1
	ld	a3,-48(s0)
	ld	a2,-40(s0)
	ld	a1,-32(s0)
	ld	a0,-24(s0)
	jalr	a5
.LVL29:
	mv	a5,a0
	.loc 1 758 1
	mv	a0,a5
	ld	ra,40(sp)
	.cfi_restore 1
	ld	s0,32(sp)
	.cfi_restore 8
	.cfi_def_cfa 2, 48
	addi	sp,sp,48
	.cfi_def_cfa_offset 0
	jr	ra
	.cfi_endproc
.LFE29:
	.size	LibPcdSetExPtrS, .-LibPcdSetExPtrS
	.section	.text.LibPcdSetExBoolS,"ax",@progbits
	.align	1
	.globl	LibPcdSetExBoolS
	.type	LibPcdSetExBoolS, @function
LibPcdSetExBoolS:
.LFB30:
	.loc 1 783 1
	.cfi_startproc
	addi	sp,sp,-48
	.cfi_def_cfa_offset 48
	sd	ra,40(sp)
	sd	s0,32(sp)
	.cfi_offset 1, -8
	.cfi_offset 8, -16
	addi	s0,sp,48
	.cfi_def_cfa 8, 0
	sd	a0,-24(s0)
	sd	a1,-32(s0)
	mv	a5,a2
	sb	a5,-33(s0)
	.loc 1 786 10
	call	GetPiPcdProtocol
	mv	a5,a0
	.loc 1 786 29 discriminator 1
	ld	a5,104(a5)
	.loc 1 786 10 discriminator 1
	lbu	a4,-33(s0)
	mv	a2,a4
	ld	a1,-32(s0)
	ld	a0,-24(s0)
	jalr	a5
.LVL30:
	mv	a5,a0
	.loc 1 787 1
	mv	a0,a5
	ld	ra,40(sp)
	.cfi_restore 1
	ld	s0,32(sp)
	.cfi_restore 8
	.cfi_def_cfa 2, 48
	addi	sp,sp,48
	.cfi_def_cfa_offset 0
	jr	ra
	.cfi_endproc
.LFE30:
	.size	LibPcdSetExBoolS, .-LibPcdSetExBoolS
	.section	.text.LibPcdCallbackOnSet,"ax",@progbits
	.align	1
	.globl	LibPcdCallbackOnSet
	.type	LibPcdCallbackOnSet, @function
LibPcdCallbackOnSet:
.LFB31:
	.loc 1 812 1
	.cfi_startproc
	addi	sp,sp,-64
	.cfi_def_cfa_offset 64
	sd	ra,56(sp)
	sd	s0,48(sp)
	.cfi_offset 1, -8
	.cfi_offset 8, -16
	addi	s0,sp,64
	.cfi_def_cfa 8, 0
	sd	a0,-40(s0)
	sd	a1,-48(s0)
	sd	a2,-56(s0)
	.loc 1 817 12
	call	GetPiPcdProtocol
	mv	a5,a0
	.loc 1 817 31 discriminator 1
	ld	a5,112(a5)
	.loc 1 817 12 discriminator 1
	ld	a2,-56(s0)
	ld	a1,-48(s0)
	ld	a0,-40(s0)
	jalr	a5
.LVL31:
	sd	a0,-24(s0)
	.loc 1 820 3
	nop
	.loc 1 821 1
	ld	ra,56(sp)
	.cfi_restore 1
	ld	s0,48(sp)
	.cfi_restore 8
	.cfi_def_cfa 2, 64
	addi	sp,sp,64
	.cfi_def_cfa_offset 0
	jr	ra
	.cfi_endproc
.LFE31:
	.size	LibPcdCallbackOnSet, .-LibPcdCallbackOnSet
	.section	.text.LibPcdCancelCallback,"ax",@progbits
	.align	1
	.globl	LibPcdCancelCallback
	.type	LibPcdCancelCallback, @function
LibPcdCancelCallback:
.LFB32:
	.loc 1 843 1
	.cfi_startproc
	addi	sp,sp,-64
	.cfi_def_cfa_offset 64
	sd	ra,56(sp)
	sd	s0,48(sp)
	.cfi_offset 1, -8
	.cfi_offset 8, -16
	addi	s0,sp,64
	.cfi_def_cfa 8, 0
	sd	a0,-40(s0)
	sd	a1,-48(s0)
	sd	a2,-56(s0)
	.loc 1 848 12
	call	GetPiPcdProtocol
	mv	a5,a0
	.loc 1 848 31 discriminator 1
	ld	a5,120(a5)
	.loc 1 848 12 discriminator 1
	ld	a2,-56(s0)
	ld	a1,-48(s0)
	ld	a0,-40(s0)
	jalr	a5
.LVL32:
	sd	a0,-24(s0)
	.loc 1 851 3
	nop
	.loc 1 852 1
	ld	ra,56(sp)
	.cfi_restore 1
	ld	s0,48(sp)
	.cfi_restore 8
	.cfi_def_cfa 2, 64
	addi	sp,sp,64
	.cfi_def_cfa_offset 0
	jr	ra
	.cfi_endproc
.LFE32:
	.size	LibPcdCancelCallback, .-LibPcdCancelCallback
	.section	.text.LibPcdGetNextToken,"ax",@progbits
	.align	1
	.globl	LibPcdGetNextToken
	.type	LibPcdGetNextToken, @function
LibPcdGetNextToken:
.LFB33:
	.loc 1 879 1
	.cfi_startproc
	addi	sp,sp,-48
	.cfi_def_cfa_offset 48
	sd	ra,40(sp)
	sd	s0,32(sp)
	.cfi_offset 1, -8
	.cfi_offset 8, -16
	addi	s0,sp,48
	.cfi_def_cfa 8, 0
	sd	a0,-40(s0)
	sd	a1,-48(s0)
	.loc 1 882 12
	call	GetPiPcdProtocol
	mv	a5,a0
	.loc 1 882 31 discriminator 1
	ld	a5,128(a5)
	.loc 1 882 12 discriminator 1
	addi	a4,s0,-48
	mv	a1,a4
	ld	a0,-40(s0)
	jalr	a5
.LVL33:
	sd	a0,-24(s0)
	.loc 1 885 10
	ld	a5,-48(s0)
	.loc 1 886 1
	mv	a0,a5
	ld	ra,40(sp)
	.cfi_restore 1
	ld	s0,32(sp)
	.cfi_restore 8
	.cfi_def_cfa 2, 48
	addi	sp,sp,48
	.cfi_def_cfa_offset 0
	jr	ra
	.cfi_endproc
.LFE33:
	.size	LibPcdGetNextToken, .-LibPcdGetNextToken
	.section	.text.LibPcdGetNextTokenSpace,"ax",@progbits
	.align	1
	.globl	LibPcdGetNextTokenSpace
	.type	LibPcdGetNextTokenSpace, @function
LibPcdGetNextTokenSpace:
.LFB34:
	.loc 1 906 1
	.cfi_startproc
	addi	sp,sp,-32
	.cfi_def_cfa_offset 32
	sd	ra,24(sp)
	sd	s0,16(sp)
	.cfi_offset 1, -8
	.cfi_offset 8, -16
	addi	s0,sp,32
	.cfi_def_cfa 8, 0
	sd	a0,-24(s0)
	.loc 1 907 3
	call	GetPiPcdProtocol
	mv	a5,a0
	.loc 1 907 22 discriminator 1
	ld	a5,136(a5)
	.loc 1 907 3 discriminator 1
	addi	a4,s0,-24
	mv	a0,a4
	jalr	a5
.LVL34:
	.loc 1 909 10
	ld	a5,-24(s0)
	.loc 1 910 1
	mv	a0,a5
	ld	ra,24(sp)
	.cfi_restore 1
	ld	s0,16(sp)
	.cfi_restore 8
	.cfi_def_cfa 2, 32
	addi	sp,sp,32
	.cfi_def_cfa_offset 0
	jr	ra
	.cfi_endproc
.LFE34:
	.size	LibPcdGetNextTokenSpace, .-LibPcdGetNextTokenSpace
	.section	.text.LibPatchPcdSetPtr,"ax",@progbits
	.align	1
	.globl	LibPatchPcdSetPtr
	.type	LibPatchPcdSetPtr, @function
LibPatchPcdSetPtr:
.LFB35:
	.loc 1 943 1
	.cfi_startproc
	addi	sp,sp,-48
	.cfi_def_cfa_offset 48
	sd	ra,40(sp)
	sd	s0,32(sp)
	.cfi_offset 1, -8
	.cfi_offset 8, -16
	addi	s0,sp,48
	.cfi_def_cfa 8, 0
	sd	a0,-24(s0)
	sd	a1,-32(s0)
	sd	a2,-40(s0)
	sd	a3,-48(s0)
	.loc 1 951 8
	ld	a5,-40(s0)
	ld	a5,0(a5)
	.loc 1 951 6
	ld	a4,-32(s0)
	bltu	a4,a5,.L76
	.loc 1 952 8
	ld	a5,-40(s0)
	ld	a4,0(a5)
	.loc 1 951 42 discriminator 1
	li	a5,-1
	bne	a4,a5,.L77
.L76:
	.loc 1 954 19
	ld	a5,-40(s0)
	ld	a4,-32(s0)
	sd	a4,0(a5)
	.loc 1 955 12
	li	a5,0
	j	.L78
.L77:
	.loc 1 958 3
	ld	a5,-40(s0)
	ld	a5,0(a5)
	mv	a2,a5
	ld	a1,-48(s0)
	ld	a0,-24(s0)
	call	CopyMem@plt
	.loc 1 960 10
	ld	a5,-48(s0)
.L78:
	.loc 1 961 1
	mv	a0,a5
	ld	ra,40(sp)
	.cfi_restore 1
	ld	s0,32(sp)
	.cfi_restore 8
	.cfi_def_cfa 2, 48
	addi	sp,sp,48
	.cfi_def_cfa_offset 0
	jr	ra
	.cfi_endproc
.LFE35:
	.size	LibPatchPcdSetPtr, .-LibPatchPcdSetPtr
	.section	.text.LibPatchPcdSetPtrS,"ax",@progbits
	.align	1
	.globl	LibPatchPcdSetPtrS
	.type	LibPatchPcdSetPtrS, @function
LibPatchPcdSetPtrS:
.LFB36:
	.loc 1 994 1
	.cfi_startproc
	addi	sp,sp,-48
	.cfi_def_cfa_offset 48
	sd	ra,40(sp)
	sd	s0,32(sp)
	.cfi_offset 1, -8
	.cfi_offset 8, -16
	addi	s0,sp,48
	.cfi_def_cfa 8, 0
	sd	a0,-24(s0)
	sd	a1,-32(s0)
	sd	a2,-40(s0)
	sd	a3,-48(s0)
	.loc 1 1002 8
	ld	a5,-40(s0)
	ld	a5,0(a5)
	.loc 1 1002 6
	ld	a4,-32(s0)
	bltu	a4,a5,.L80
	.loc 1 1003 8
	ld	a5,-40(s0)
	ld	a4,0(a5)
	.loc 1 1002 42 discriminator 1
	li	a5,-1
	bne	a4,a5,.L81
.L80:
	.loc 1 1005 19
	ld	a5,-40(s0)
	ld	a4,-32(s0)
	sd	a4,0(a5)
	.loc 1 1006 12
	li	a5,-1
	slli	a5,a5,63
	addi	a5,a5,2
	j	.L82
.L81:
	.loc 1 1009 3
	ld	a5,-40(s0)
	ld	a5,0(a5)
	mv	a2,a5
	ld	a1,-48(s0)
	ld	a0,-24(s0)
	call	CopyMem@plt
	.loc 1 1011 10
	li	a5,0
.L82:
	.loc 1 1012 1
	mv	a0,a5
	ld	ra,40(sp)
	.cfi_restore 1
	ld	s0,32(sp)
	.cfi_restore 8
	.cfi_def_cfa 2, 48
	addi	sp,sp,48
	.cfi_def_cfa_offset 0
	jr	ra
	.cfi_endproc
.LFE36:
	.size	LibPatchPcdSetPtrS, .-LibPatchPcdSetPtrS
	.section	.text.LibPatchPcdSetPtrAndSize,"ax",@progbits
	.align	1
	.globl	LibPatchPcdSetPtrAndSize
	.type	LibPatchPcdSetPtrAndSize, @function
LibPatchPcdSetPtrAndSize:
.LFB37:
	.loc 1 1048 1
	.cfi_startproc
	addi	sp,sp,-64
	.cfi_def_cfa_offset 64
	sd	ra,56(sp)
	sd	s0,48(sp)
	.cfi_offset 1, -8
	.cfi_offset 8, -16
	addi	s0,sp,64
	.cfi_def_cfa 8, 0
	sd	a0,-24(s0)
	sd	a1,-32(s0)
	sd	a2,-40(s0)
	sd	a3,-48(s0)
	sd	a4,-56(s0)
	.loc 1 1057 8
	ld	a5,-48(s0)
	ld	a5,0(a5)
	.loc 1 1057 6
	ld	a4,-40(s0)
	bltu	a4,a5,.L84
	.loc 1 1058 8
	ld	a5,-48(s0)
	ld	a4,0(a5)
	.loc 1 1057 42 discriminator 1
	li	a5,-1
	bne	a4,a5,.L85
.L84:
	.loc 1 1060 19
	ld	a5,-48(s0)
	ld	a4,-40(s0)
	sd	a4,0(a5)
	.loc 1 1061 12
	li	a5,0
	j	.L86
.L85:
	.loc 1 1064 3
	ld	a5,-48(s0)
	ld	a5,0(a5)
	mv	a2,a5
	ld	a1,-56(s0)
	ld	a0,-24(s0)
	call	CopyMem@plt
	.loc 1 1065 26
	ld	a5,-48(s0)
	ld	a4,0(a5)
	.loc 1 1065 24
	ld	a5,-32(s0)
	sd	a4,0(a5)
	.loc 1 1067 10
	ld	a5,-56(s0)
.L86:
	.loc 1 1068 1
	mv	a0,a5
	ld	ra,56(sp)
	.cfi_restore 1
	ld	s0,48(sp)
	.cfi_restore 8
	.cfi_def_cfa 2, 64
	addi	sp,sp,64
	.cfi_def_cfa_offset 0
	jr	ra
	.cfi_endproc
.LFE37:
	.size	LibPatchPcdSetPtrAndSize, .-LibPatchPcdSetPtrAndSize
	.section	.text.LibPatchPcdSetPtrAndSizeS,"ax",@progbits
	.align	1
	.globl	LibPatchPcdSetPtrAndSizeS
	.type	LibPatchPcdSetPtrAndSizeS, @function
LibPatchPcdSetPtrAndSizeS:
.LFB38:
	.loc 1 1104 1
	.cfi_startproc
	addi	sp,sp,-64
	.cfi_def_cfa_offset 64
	sd	ra,56(sp)
	sd	s0,48(sp)
	.cfi_offset 1, -8
	.cfi_offset 8, -16
	addi	s0,sp,64
	.cfi_def_cfa 8, 0
	sd	a0,-24(s0)
	sd	a1,-32(s0)
	sd	a2,-40(s0)
	sd	a3,-48(s0)
	sd	a4,-56(s0)
	.loc 1 1113 8
	ld	a5,-48(s0)
	ld	a5,0(a5)
	.loc 1 1113 6
	ld	a4,-40(s0)
	bltu	a4,a5,.L88
	.loc 1 1114 8
	ld	a5,-48(s0)
	ld	a4,0(a5)
	.loc 1 1113 42 discriminator 1
	li	a5,-1
	bne	a4,a5,.L89
.L88:
	.loc 1 1116 19
	ld	a5,-48(s0)
	ld	a4,-40(s0)
	sd	a4,0(a5)
	.loc 1 1117 12
	li	a5,-1
	slli	a5,a5,63
	addi	a5,a5,2
	j	.L90
.L89:
	.loc 1 1120 3
	ld	a5,-48(s0)
	ld	a5,0(a5)
	mv	a2,a5
	ld	a1,-56(s0)
	ld	a0,-24(s0)
	call	CopyMem@plt
	.loc 1 1121 26
	ld	a5,-48(s0)
	ld	a4,0(a5)
	.loc 1 1121 24
	ld	a5,-32(s0)
	sd	a4,0(a5)
	.loc 1 1123 10
	li	a5,0
.L90:
	.loc 1 1124 1
	mv	a0,a5
	ld	ra,56(sp)
	.cfi_restore 1
	ld	s0,48(sp)
	.cfi_restore 8
	.cfi_def_cfa 2, 64
	addi	sp,sp,64
	.cfi_def_cfa_offset 0
	jr	ra
	.cfi_endproc
.LFE38:
	.size	LibPatchPcdSetPtrAndSizeS, .-LibPatchPcdSetPtrAndSizeS
	.section	.text.LibPcdGetInfo,"ax",@progbits
	.align	1
	.globl	LibPcdGetInfo
	.type	LibPcdGetInfo, @function
LibPcdGetInfo:
.LFB39:
	.loc 1 1144 1
	.cfi_startproc
	addi	sp,sp,-48
	.cfi_def_cfa_offset 48
	sd	ra,40(sp)
	sd	s0,32(sp)
	.cfi_offset 1, -8
	.cfi_offset 8, -16
	addi	s0,sp,48
	.cfi_def_cfa 8, 0
	sd	a0,-40(s0)
	sd	a1,-48(s0)
	.loc 1 1147 12
	call	GetPcdInfoProtocolPointer
	mv	a5,a0
	.loc 1 1147 40 discriminator 1
	ld	a5,0(a5)
	.loc 1 1147 12 discriminator 1
	ld	a1,-48(s0)
	ld	a0,-40(s0)
	jalr	a5
.LVL35:
	sd	a0,-24(s0)
	.loc 1 1149 1
	nop
	ld	ra,40(sp)
	.cfi_restore 1
	ld	s0,32(sp)
	.cfi_restore 8
	.cfi_def_cfa 2, 48
	addi	sp,sp,48
	.cfi_def_cfa_offset 0
	jr	ra
	.cfi_endproc
.LFE39:
	.size	LibPcdGetInfo, .-LibPcdGetInfo
	.section	.text.LibPcdGetInfoEx,"ax",@progbits
	.align	1
	.globl	LibPcdGetInfoEx
	.type	LibPcdGetInfoEx, @function
LibPcdGetInfoEx:
.LFB40:
	.loc 1 1171 1
	.cfi_startproc
	addi	sp,sp,-64
	.cfi_def_cfa_offset 64
	sd	ra,56(sp)
	sd	s0,48(sp)
	.cfi_offset 1, -8
	.cfi_offset 8, -16
	addi	s0,sp,64
	.cfi_def_cfa 8, 0
	sd	a0,-40(s0)
	sd	a1,-48(s0)
	sd	a2,-56(s0)
	.loc 1 1174 12
	call	GetPiPcdInfoProtocolPointer
	mv	a5,a0
	.loc 1 1174 42 discriminator 1
	ld	a5,0(a5)
	.loc 1 1174 12 discriminator 1
	ld	a2,-56(s0)
	ld	a1,-48(s0)
	ld	a0,-40(s0)
	jalr	a5
.LVL36:
	sd	a0,-24(s0)
	.loc 1 1176 1
	nop
	ld	ra,56(sp)
	.cfi_restore 1
	ld	s0,48(sp)
	.cfi_restore 8
	.cfi_def_cfa 2, 64
	addi	sp,sp,64
	.cfi_def_cfa_offset 0
	jr	ra
	.cfi_endproc
.LFE40:
	.size	LibPcdGetInfoEx, .-LibPcdGetInfoEx
	.section	.text.LibPcdGetSku,"ax",@progbits
	.align	1
	.globl	LibPcdGetSku
	.type	LibPcdGetSku, @function
LibPcdGetSku:
.LFB41:
	.loc 1 1190 1
	.cfi_startproc
	addi	sp,sp,-16
	.cfi_def_cfa_offset 16
	sd	ra,8(sp)
	sd	s0,0(sp)
	.cfi_offset 1, -8
	.cfi_offset 8, -16
	addi	s0,sp,16
	.cfi_def_cfa 8, 0
	.loc 1 1191 10
	call	GetPiPcdInfoProtocolPointer
	mv	a5,a0
	.loc 1 1191 40 discriminator 1
	ld	a5,8(a5)
	.loc 1 1191 10 discriminator 1
	jalr	a5
.LVL37:
	mv	a5,a0
	.loc 1 1192 1
	mv	a0,a5
	ld	ra,8(sp)
	.cfi_restore 1
	ld	s0,0(sp)
	.cfi_restore 8
	.cfi_def_cfa 2, 16
	addi	sp,sp,16
	.cfi_def_cfa_offset 0
	jr	ra
	.cfi_endproc
.LFE41:
	.size	LibPcdGetSku, .-LibPcdGetSku
	.text
.Letext0:
	.file 2 "/home/kapoagaeming/spacemit-image-builder/components/edk2/MdePkg/Include/RiscV64/ProcessorBind.h"
	.file 3 "/home/kapoagaeming/spacemit-image-builder/components/edk2/MdePkg/Include/Base.h"
	.file 4 "/home/kapoagaeming/spacemit-image-builder/components/edk2/MdePkg/Include/Uefi/UefiBaseType.h"
	.file 5 "/home/kapoagaeming/spacemit-image-builder/components/edk2/MdePkg/Include/Uefi/UefiMultiPhase.h"
	.file 6 "/home/kapoagaeming/spacemit-image-builder/components/edk2/MdePkg/Include/Protocol/DevicePath.h"
	.file 7 "/home/kapoagaeming/spacemit-image-builder/components/edk2/MdePkg/Include/Uefi/UefiSpec.h"
	.file 8 "/home/kapoagaeming/spacemit-image-builder/components/edk2/MdePkg/Include/Pi/PiMultiPhase.h"
	.file 9 "/home/kapoagaeming/spacemit-image-builder/components/Build/Milk-V-Jupiter/RELEASE_GCC5/RISCV64/MdePkg/Library/DxePcdLib/DxePcdLib/DEBUG/AutoGen.h"
	.file 10 "/home/kapoagaeming/spacemit-image-builder/components/edk2/MdePkg/Include/Protocol/Pcd.h"
	.file 11 "/home/kapoagaeming/spacemit-image-builder/components/edk2/MdePkg/Include/Protocol/PiPcd.h"
	.file 12 "/home/kapoagaeming/spacemit-image-builder/components/edk2/MdePkg/Include/Protocol/PcdInfo.h"
	.file 13 "/home/kapoagaeming/spacemit-image-builder/components/edk2/MdePkg/Include/Protocol/PiPcdInfo.h"
	.file 14 "/home/kapoagaeming/spacemit-image-builder/components/edk2/MdePkg/Include/Library/PcdLib.h"
	.file 15 "/home/kapoagaeming/spacemit-image-builder/components/edk2/MdePkg/Include/Library/UefiBootServicesTableLib.h"
	.file 16 "/home/kapoagaeming/spacemit-image-builder/components/edk2/MdePkg/Include/Library/BaseMemoryLib.h"
	.section	.note.GNU-stack,"",@progbits
