	.file	"PlatformBootManager.c"
	.option pic
	.option norelax
	.attribute arch, "rv64i2p1_m2p0_a2p1_f2p2_d2p2_c2p0_zicsr2p0_zifencei2p0_zmmul1p0_zaamo1p0_zalrsc1p0_zca1p0_zcd1p0"
	.attribute unaligned_access, 0
	.attribute stack_align, 16
	.text
.Ltext0:
	.cfi_sections	.debug_frame
	.file 0 "/home/kapoagaeming/spacemit-image-builder/components/Build/Milk-V-Jupiter/RELEASE_GCC5/RISCV64/Silicon/Spacemit/Library/PlatformBootManagerLib/PlatformBootManagerLib" "/home/kapoagaeming/spacemit-image-builder/components/edk2-platforms/Silicon/Spacemit/Library/PlatformBootManagerLib/PlatformBootManager.c"
	.section	.data.mSerialConsoleDevicePath,"aw"
	.align	3
	.type	mSerialConsoleDevicePath, @object
	.size	mSerialConsoleDevicePath, 63
mSerialConsoleDevicePath:
	.byte	1
	.byte	4
	.string	"\024"
	.word	-744981173
	.half	-26854
	.half	17247
	.base64	"jK9JZ+tickE="
	.byte	3
	.byte	14
	.string	"\023"
	.word	0
	.8byte	115200
	.byte	8
	.byte	1
	.byte	1
	.byte	3
	.byte	10
	.string	"\024"
	.4byte	2106682752
	.2byte	23473
	.2byte	17804
	.base64	"pI/iX91R75Q="
	.byte	127
	.byte	-1
	.string	"\004"
	.section	.data.mUsbKeyboard,"aw"
	.align	3
	.type	mUsbKeyboard, @object
	.size	mUsbKeyboard, 15
mUsbKeyboard:
	.byte	3
	.byte	15
	.string	"\013"
	.half	-1
	.half	-1
	.byte	3
	.byte	1
	.byte	1
	.byte	127
	.byte	-1
	.string	"\004"
	.section	.text.FilterAndProcess,"ax",@progbits
	.align	1
	.type	FilterAndProcess, @function
FilterAndProcess:
.LFB0:
	.file 1 "/home/kapoagaeming/spacemit-image-builder/components/edk2-platforms/Silicon/Spacemit/Library/PlatformBootManagerLib/PlatformBootManager.c"
	.loc 1 134 1
	.cfi_startproc
	addi	sp,sp,-96
	.cfi_def_cfa_offset 96
	sd	ra,88(sp)
	sd	s0,80(sp)
	.cfi_offset 1, -8
	.cfi_offset 8, -16
	addi	s0,sp,96
	.cfi_def_cfa 8, 0
	sd	a0,-72(s0)
	sd	a1,-80(s0)
	sd	a2,-88(s0)
	.loc 1 140 15
	la	a5,gBS
	ld	a5,0(a5)
	ld	a5,312(a5)
	.loc 1 140 12
	addi	a4,s0,-48
	addi	a3,s0,-56
	li	a2,0
	ld	a1,-72(s0)
	li	a0,2
	jalr	a5
.LVL0:
	sd	a0,-40(s0)
	.loc 1 147 34
	ld	a5,-40(s0)
	.loc 1 147 6
	blt	a5,zero,.L10
	.loc 1 162 12
	sd	zero,-24(s0)
	.loc 1 162 3
	j	.L4
.L9:
.LBB2:
	.loc 1 170 53
	ld	a4,-48(s0)
	ld	a5,-24(s0)
	slli	a5,a5,3
	add	a5,a4,a5
	.loc 1 170 24
	ld	a5,0(a5)
	mv	a0,a5
	call	DevicePathFromHandle@plt
	mv	a5,a0
	.loc 1 169 22
	li	a2,0
	li	a1,0
	mv	a0,a5
	call	ConvertDevicePathToText@plt
	sd	a0,-32(s0)
	.loc 1 174 8
	ld	a5,-32(s0)
	bne	a5,zero,.L5
	.loc 1 175 22
	lla	a5,Fallback.0
	sd	a5,-32(s0)
.L5:
	.loc 1 178 8
	ld	a5,-80(s0)
	beq	a5,zero,.L6
	.loc 1 178 52 discriminator 1
	ld	a4,-48(s0)
	ld	a5,-24(s0)
	slli	a5,a5,3
	add	a5,a4,a5
	.loc 1 178 37 discriminator 1
	ld	a4,0(a5)
	ld	a5,-80(s0)
	ld	a1,-32(s0)
	mv	a0,a4
	jalr	a5
.LVL1:
	mv	a5,a0
	.loc 1 178 34 discriminator 2
	beq	a5,zero,.L7
.L6:
	.loc 1 179 23
	ld	a4,-48(s0)
	ld	a5,-24(s0)
	slli	a5,a5,3
	add	a5,a4,a5
	.loc 1 179 7
	ld	a4,0(a5)
	ld	a5,-88(s0)
	ld	a1,-32(s0)
	mv	a0,a4
	jalr	a5
.LVL2:
.L7:
	.loc 1 182 8
	ld	a4,-32(s0)
	lla	a5,Fallback.0
	beq	a4,a5,.L8
	.loc 1 183 7
	ld	a0,-32(s0)
	call	FreePool@plt
.L8:
.LBE2:
	.loc 1 162 34 discriminator 2
	ld	a5,-24(s0)
	addi	a5,a5,1
	sd	a5,-24(s0)
.L4:
	.loc 1 162 21 discriminator 1
	ld	a5,-56(s0)
	ld	a4,-24(s0)
	bltu	a4,a5,.L9
	.loc 1 187 6
	la	a5,gBS
	ld	a5,0(a5)
	ld	a5,72(a5)
	.loc 1 187 3
	ld	a4,-48(s0)
	mv	a0,a4
	jalr	a5
.LVL3:
	j	.L1
.L10:
	.loc 1 158 5 discriminator 1
	nop
.L1:
	.loc 1 188 1
	ld	ra,88(sp)
	.cfi_restore 1
	ld	s0,80(sp)
	.cfi_restore 8
	.cfi_def_cfa 2, 96
	addi	sp,sp,96
	.cfi_def_cfa_offset 0
	jr	ra
	.cfi_endproc
.LFE0:
	.size	FilterAndProcess, .-FilterAndProcess
	.section	.text.IsPciDisplay,"ax",@progbits
	.align	1
	.type	IsPciDisplay, @function
IsPciDisplay:
.LFB1:
	.loc 1 200 1
	.cfi_startproc
	addi	sp,sp,-112
	.cfi_def_cfa_offset 112
	sd	ra,104(sp)
	sd	s0,96(sp)
	.cfi_offset 1, -8
	.cfi_offset 8, -16
	addi	s0,sp,112
	.cfi_def_cfa 8, 0
	sd	a0,-104(s0)
	sd	a1,-112(s0)
	.loc 1 205 15
	la	a5,gBS
	ld	a5,0(a5)
	ld	a5,152(a5)
	.loc 1 205 12
	addi	a4,s0,-32
	mv	a2,a4
	la	a1,gEfiPciIoProtocolGuid
	ld	a0,-104(s0)
	jalr	a5
.LVL4:
	sd	a0,-24(s0)
	.loc 1 210 34
	ld	a5,-24(s0)
	.loc 1 210 6
	bge	a5,zero,.L12
	.loc 1 214 12
	li	a5,0
	j	.L15
.L12:
	.loc 1 217 17
	ld	a5,-32(s0)
	.loc 1 217 22
	ld	a5,48(a5)
	.loc 1 217 12
	ld	a0,-32(s0)
	addi	a4,s0,-96
	li	a3,16
	li	a2,0
	li	a1,2
	jalr	a5
.LVL5:
	sd	a0,-24(s0)
	.loc 1 224 34
	ld	a5,-24(s0)
	.loc 1 224 6
	bge	a5,zero,.L14
	.loc 1 226 12
	li	a5,0
	j	.L15
.L14:
	.loc 1 229 32
	lbu	a5,-85(s0)
	.loc 1 229 36
	sext.w	a4,a5
	li	a5,3
	sub	a5,a4,a5
	seqz	a5,a5
	andi	a5,a5,0xff
.L15:
	.loc 1 230 1
	mv	a0,a5
	ld	ra,104(sp)
	.cfi_restore 1
	ld	s0,96(sp)
	.cfi_restore 8
	.cfi_def_cfa 2, 112
	addi	sp,sp,112
	.cfi_def_cfa_offset 0
	jr	ra
	.cfi_endproc
.LFE1:
	.size	IsPciDisplay, .-IsPciDisplay
	.section	.text.Connect,"ax",@progbits
	.align	1
	.type	Connect, @function
Connect:
.LFB2:
	.loc 1 243 1
	.cfi_startproc
	addi	sp,sp,-48
	.cfi_def_cfa_offset 48
	sd	ra,40(sp)
	sd	s0,32(sp)
	.cfi_offset 1, -8
	.cfi_offset 8, -16
	addi	s0,sp,48
	.cfi_def_cfa 8, 0
	sd	a0,-40(s0)
	sd	a1,-48(s0)
	.loc 1 246 15
	la	a5,gBS
	ld	a5,0(a5)
	ld	a5,264(a5)
	.loc 1 246 12
	li	a3,0
	li	a2,0
	li	a1,0
	ld	a0,-40(s0)
	jalr	a5
.LVL6:
	sd	a0,-24(s0)
	.loc 1 259 1
	nop
	ld	ra,40(sp)
	.cfi_restore 1
	ld	s0,32(sp)
	.cfi_restore 8
	.cfi_def_cfa 2, 48
	addi	sp,sp,48
	.cfi_def_cfa_offset 0
	jr	ra
	.cfi_endproc
.LFE2:
	.size	Connect, .-Connect
	.section	.text.AddOutput,"ax",@progbits
	.align	1
	.type	AddOutput, @function
AddOutput:
.LFB3:
	.loc 1 272 1
	.cfi_startproc
	addi	sp,sp,-48
	.cfi_def_cfa_offset 48
	sd	ra,40(sp)
	sd	s0,32(sp)
	.cfi_offset 1, -8
	.cfi_offset 8, -16
	addi	s0,sp,48
	.cfi_def_cfa 8, 0
	sd	a0,-40(s0)
	sd	a1,-48(s0)
	.loc 1 276 16
	ld	a0,-40(s0)
	call	DevicePathFromHandle@plt
	sd	a0,-24(s0)
	.loc 1 277 6
	ld	a5,-24(s0)
	beq	a5,zero,.L21
	.loc 1 288 12
	li	a2,0
	ld	a1,-24(s0)
	li	a0,1
	call	EfiBootManagerUpdateConsoleVariable@plt
	sd	a0,-32(s0)
	.loc 1 289 34
	ld	a5,-32(s0)
	.loc 1 289 6
	blt	a5,zero,.L22
	.loc 1 300 12
	li	a2,0
	ld	a1,-24(s0)
	li	a0,2
	call	EfiBootManagerUpdateConsoleVariable@plt
	sd	a0,-32(s0)
	j	.L17
.L21:
	.loc 1 285 5
	nop
	j	.L17
.L22:
	.loc 1 297 5
	nop
.L17:
	.loc 1 318 1
	ld	ra,40(sp)
	.cfi_restore 1
	ld	s0,32(sp)
	.cfi_restore 8
	.cfi_def_cfa 2, 48
	addi	sp,sp,48
	.cfi_def_cfa_offset 0
	jr	ra
	.cfi_endproc
.LFE3:
	.size	AddOutput, .-AddOutput
	.section	.text.PlatformRegisterOptionsAndKeys,"ax",@progbits
	.align	1
	.type	PlatformRegisterOptionsAndKeys, @function
PlatformRegisterOptionsAndKeys:
.LFB4:
	.loc 1 325 1
	.cfi_startproc
	addi	sp,sp,-144
	.cfi_def_cfa_offset 144
	sd	ra,136(sp)
	sd	s0,128(sp)
	.cfi_offset 1, -8
	.cfi_offset 8, -16
	addi	s0,sp,144
	.cfi_def_cfa 8, 0
	.loc 1 335 18
	sh	zero,-32(s0)
	.loc 1 336 21
	li	a5,13
	sh	a5,-30(s0)
	.loc 1 337 12
	addi	a5,s0,-32
	li	a2,0
	mv	a1,a5
	li	a0,0
	call	EfiBootManagerRegisterContinueKeyOption@plt
	sd	a0,-24(s0)
	.loc 1 343 15
	li	a5,12
	sh	a5,-40(s0)
	.loc 1 344 18
	sh	zero,-38(s0)
	.loc 1 345 12
	addi	a5,s0,-136
	mv	a0,a5
	call	EfiBootManagerGetBootManagerMenu@plt
	sd	a0,-24(s0)
	.loc 1 349 32
	ld	a5,-136(s0)
	.loc 1 347 12
	slli	a5,a5,48
	srli	a5,a5,48
	addi	a3,s0,-40
	li	a4,0
	li	a2,0
	mv	a1,a5
	li	a0,0
	call	EfiBootManagerAddKeyOptionVariable@plt
	sd	a0,-24(s0)
	.loc 1 359 7
	la	a5,_gPcd_FixedAtBuild_PcdEscEnterBootMenu
	lbu	a5,0(a5)
	.loc 1 359 6
	beq	a5,zero,.L25
	.loc 1 360 18
	li	a5,23
	sh	a5,-48(s0)
	.loc 1 361 21
	sh	zero,-46(s0)
	.loc 1 364 34
	ld	a5,-136(s0)
	.loc 1 362 14
	slli	a5,a5,48
	srli	a5,a5,48
	addi	a3,s0,-48
	li	a4,0
	li	a2,0
	mv	a1,a5
	li	a0,0
	call	EfiBootManagerAddKeyOptionVariable@plt
	sd	a0,-24(s0)
.L25:
	.loc 1 371 1
	nop
	ld	ra,136(sp)
	.cfi_restore 1
	ld	s0,128(sp)
	.cfi_restore 8
	.cfi_def_cfa 2, 144
	addi	sp,sp,144
	.cfi_def_cfa_offset 0
	jr	ra
	.cfi_endproc
.LFE4:
	.size	PlatformRegisterOptionsAndKeys, .-PlatformRegisterOptionsAndKeys
	.section	.text.PlatformRegisterFvBootOption,"ax",@progbits
	.align	1
	.type	PlatformRegisterFvBootOption, @function
PlatformRegisterFvBootOption:
.LFB5:
	.loc 1 387 1
	.cfi_startproc
	addi	sp,sp,-208
	.cfi_def_cfa_offset 208
	sd	ra,200(sp)
	sd	s0,192(sp)
	.cfi_offset 1, -8
	.cfi_offset 8, -16
	addi	s0,sp,208
	.cfi_def_cfa 8, 0
	sd	a0,-184(s0)
	sd	a1,-192(s0)
	mv	a5,a2
	sw	a5,-196(s0)
	.loc 1 397 15
	la	a5,gBS
	ld	a5,0(a5)
	ld	a5,152(a5)
	.loc 1 397 12
	la	a4,gImageHandle
	ld	a4,0(a4)
	addi	a3,s0,-176
	mv	a2,a3
	la	a1,gEfiLoadedImageProtocolGuid
	mv	a0,a4
	jalr	a5
.LVL7:
	sd	a0,-24(s0)
	.loc 1 404 3
	addi	a5,s0,-168
	ld	a1,-184(s0)
	mv	a0,a5
	call	EfiInitializeFwVolDevicepathNode@plt
	.loc 1 405 49
	ld	a5,-176(s0)
	.loc 1 405 16
	ld	a5,24(a5)
	mv	a0,a5
	call	DevicePathFromHandle@plt
	sd	a0,-32(s0)
	.loc 1 407 16
	addi	a5,s0,-168
	mv	a1,a5
	ld	a0,-32(s0)
	call	AppendDevicePathNode@plt
	sd	a0,-32(s0)
	.loc 1 413 12
	lw	a3,-196(s0)
	addi	a0,s0,-136
	li	a7,0
	li	a6,0
	ld	a5,-32(s0)
	ld	a4,-192(s0)
	li	a2,2
	li	a1,65536
	call	EfiBootManagerInitializeLoadOption@plt
	sd	a0,-24(s0)
	.loc 1 424 3
	ld	a0,-32(s0)
	call	FreePool@plt
	.loc 1 426 17
	addi	a5,s0,-144
	li	a1,2
	mv	a0,a5
	call	EfiBootManagerGetLoadOptions@plt
	sd	a0,-40(s0)
	.loc 1 431 17
	ld	a4,-144(s0)
	addi	a5,s0,-136
	mv	a2,a4
	ld	a1,-40(s0)
	mv	a0,a5
	call	EfiBootManagerFindLoadOption@plt
	sd	a0,-48(s0)
	.loc 1 437 6
	ld	a4,-48(s0)
	li	a5,-1
	bne	a4,a5,.L27
	.loc 1 438 14
	addi	a5,s0,-136
	li	a1,-1
	mv	a0,a5
	call	EfiBootManagerAddLoadOptionVariable@plt
	sd	a0,-24(s0)
.L27:
	.loc 1 442 3
	addi	a5,s0,-136
	mv	a0,a5
	call	EfiBootManagerFreeLoadOption@plt
	.loc 1 443 3
	ld	a5,-144(s0)
	mv	a1,a5
	ld	a0,-40(s0)
	call	EfiBootManagerFreeLoadOptions@plt
	.loc 1 444 1
	nop
	ld	ra,200(sp)
	.cfi_restore 1
	ld	s0,192(sp)
	.cfi_restore 8
	.cfi_def_cfa 2, 208
	addi	sp,sp,208
	.cfi_def_cfa_offset 0
	jr	ra
	.cfi_endproc
.LFE5:
	.size	PlatformRegisterFvBootOption, .-PlatformRegisterFvBootOption
	.section	.text.PlatformBootManagerBeforeConsole,"ax",@progbits
	.align	1
	.globl	PlatformBootManagerBeforeConsole
	.type	PlatformBootManagerBeforeConsole, @function
PlatformBootManagerBeforeConsole:
.LFB6:
	.loc 1 459 1
	.cfi_startproc
	addi	sp,sp,-16
	.cfi_def_cfa_offset 16
	sd	ra,8(sp)
	sd	s0,0(sp)
	.cfi_offset 1, -8
	.cfi_offset 8, -16
	addi	s0,sp,16
	.cfi_def_cfa 8, 0
	.loc 1 465 3
	la	a0,gEfiEndOfDxeEventGroupGuid
	call	EfiEventGroupSignal@plt
	.loc 1 475 3
	lla	a2,Connect
	li	a1,0
	la	a0,gEfiPciRootBridgeIoProtocolGuid
	call	FilterAndProcess
	.loc 1 482 3
	lla	a2,Connect
	lla	a1,IsPciDisplay
	la	a0,gEfiPciIoProtocolGuid
	call	FilterAndProcess
	.loc 1 488 3
	lla	a2,AddOutput
	li	a1,0
	la	a0,gEfiGraphicsOutputProtocolGuid
	call	FilterAndProcess
	.loc 1 493 3
	li	a2,0
	lla	a1,mUsbKeyboard
	li	a0,0
	call	EfiBootManagerUpdateConsoleVariable@plt
	.loc 1 498 3
	li	a2,0
	lla	a1,mSerialConsoleDevicePath
	li	a0,0
	call	EfiBootManagerUpdateConsoleVariable@plt
	.loc 1 499 3
	li	a2,0
	lla	a1,mSerialConsoleDevicePath
	li	a0,1
	call	EfiBootManagerUpdateConsoleVariable@plt
	.loc 1 500 3
	li	a2,0
	lla	a1,mSerialConsoleDevicePath
	li	a0,2
	call	EfiBootManagerUpdateConsoleVariable@plt
	.loc 1 505 3
	call	PlatformRegisterOptionsAndKeys
	.loc 1 506 1
	nop
	ld	ra,8(sp)
	.cfi_restore 1
	ld	s0,0(sp)
	.cfi_restore 8
	.cfi_def_cfa 2, 16
	addi	sp,sp,16
	.cfi_def_cfa_offset 0
	jr	ra
	.cfi_endproc
.LFE6:
	.size	PlatformBootManagerBeforeConsole, .-PlatformBootManagerBeforeConsole
	.section	.rodata
	.align	3
.LC0:
	.string	"U"
	.string	"E"
	.string	"F"
	.string	"I"
	.string	" "
	.string	"S"
	.string	"h"
	.string	"e"
	.string	"l"
	.string	"l"
	.zero	2
	.section	.text.PlatformBootManagerAfterConsole,"ax",@progbits
	.align	1
	.globl	PlatformBootManagerAfterConsole
	.type	PlatformBootManagerAfterConsole, @function
PlatformBootManagerAfterConsole:
.LFB7:
	.loc 1 523 1
	.cfi_startproc
	addi	sp,sp,-16
	.cfi_def_cfa_offset 16
	sd	ra,8(sp)
	sd	s0,0(sp)
	.cfi_offset 1, -8
	.cfi_offset 8, -16
	addi	s0,sp,16
	.cfi_def_cfa 8, 0
	.loc 1 529 3
	call	BootLogoEnableLogo@plt
	.loc 1 534 3
	call	EfiBootManagerConnectAll@plt
	.loc 1 539 3
	call	EfiBootManagerRefreshAllBootOption@plt
	.loc 1 544 3
	li	a2,1
	lla	a1,.LC0
	la	a0,gUefiShellFileGuid
	call	PlatformRegisterFvBootOption
	.loc 1 545 1
	nop
	ld	ra,8(sp)
	.cfi_restore 1
	ld	s0,0(sp)
	.cfi_restore 8
	.cfi_def_cfa 2, 16
	addi	sp,sp,16
	.cfi_def_cfa_offset 0
	jr	ra
	.cfi_endproc
.LFE7:
	.size	PlatformBootManagerAfterConsole, .-PlatformBootManagerAfterConsole
	.section	.text.PlatformBootManagerWaitCallback,"ax",@progbits
	.align	1
	.globl	PlatformBootManagerWaitCallback
	.type	PlatformBootManagerWaitCallback, @function
PlatformBootManagerWaitCallback:
.LFB8:
	.loc 1 557 1
	.cfi_startproc
	addi	sp,sp,-32
	.cfi_def_cfa_offset 32
	sd	ra,24(sp)
	sd	s0,16(sp)
	.cfi_offset 1, -8
	.cfi_offset 8, -16
	addi	s0,sp,32
	.cfi_def_cfa 8, 0
	mv	a5,a0
	sh	a5,-18(s0)
	.loc 1 559 3
	nop
	.loc 1 560 1
	ld	ra,24(sp)
	.cfi_restore 1
	ld	s0,16(sp)
	.cfi_restore 8
	.cfi_def_cfa 2, 32
	addi	sp,sp,32
	.cfi_def_cfa_offset 0
	jr	ra
	.cfi_endproc
.LFE8:
	.size	PlatformBootManagerWaitCallback, .-PlatformBootManagerWaitCallback
	.section	.text.PlatformBootManagerUnableToBoot,"ax",@progbits
	.align	1
	.globl	PlatformBootManagerUnableToBoot
	.type	PlatformBootManagerUnableToBoot, @function
PlatformBootManagerUnableToBoot:
.LFB9:
	.loc 1 574 1
	.cfi_startproc
	addi	sp,sp,-16
	.cfi_def_cfa_offset 16
	sd	ra,8(sp)
	sd	s0,0(sp)
	.cfi_offset 1, -8
	.cfi_offset 8, -16
	addi	s0,sp,16
	.cfi_def_cfa 8, 0
	.loc 1 576 3
	nop
	.loc 1 577 1
	ld	ra,8(sp)
	.cfi_restore 1
	ld	s0,0(sp)
	.cfi_restore 8
	.cfi_def_cfa 2, 16
	addi	sp,sp,16
	.cfi_def_cfa_offset 0
	jr	ra
	.cfi_endproc
.LFE9:
	.size	PlatformBootManagerUnableToBoot, .-PlatformBootManagerUnableToBoot
	.section	.data.Fallback.0,"aw"
	.align	3
	.type	Fallback.0, @object
	.size	Fallback.0, 52
Fallback.0:
	.string	"<"
	.string	"d"
	.string	"e"
	.string	"v"
	.string	"i"
	.string	"c"
	.string	"e"
	.string	" "
	.string	"p"
	.string	"a"
	.string	"t"
	.string	"h"
	.string	" "
	.string	"u"
	.string	"n"
	.string	"a"
	.string	"v"
	.string	"a"
	.string	"i"
	.string	"l"
	.string	"a"
	.string	"b"
	.string	"l"
	.string	"e"
	.string	">"
	.zero	2
	.text
.Letext0:
	.file 2 "/home/kapoagaeming/spacemit-image-builder/components/edk2/MdePkg/Include/RiscV64/ProcessorBind.h"
	.file 3 "/home/kapoagaeming/spacemit-image-builder/components/edk2/MdePkg/Include/Base.h"
	.file 4 "/home/kapoagaeming/spacemit-image-builder/components/edk2/MdePkg/Include/Uefi/UefiBaseType.h"
	.file 5 "/home/kapoagaeming/spacemit-image-builder/components/edk2/MdePkg/Include/Uefi/UefiMultiPhase.h"
	.file 6 "/home/kapoagaeming/spacemit-image-builder/components/edk2/MdePkg/Include/Protocol/DevicePath.h"
	.file 7 "/home/kapoagaeming/spacemit-image-builder/components/edk2/MdePkg/Include/Protocol/SimpleTextIn.h"
	.file 8 "/home/kapoagaeming/spacemit-image-builder/components/edk2/MdePkg/Include/Protocol/SimpleTextOut.h"
	.file 9 "/home/kapoagaeming/spacemit-image-builder/components/edk2/MdePkg/Include/Uefi/UefiSpec.h"
	.file 10 "/home/kapoagaeming/spacemit-image-builder/components/Build/Milk-V-Jupiter/RELEASE_GCC5/RISCV64/Silicon/Spacemit/Library/PlatformBootManagerLib/PlatformBootManagerLib/DEBUG/AutoGen.h"
	.file 11 "/home/kapoagaeming/spacemit-image-builder/components/edk2/MdePkg/Include/IndustryStandard/Pci22.h"
	.file 12 "/home/kapoagaeming/spacemit-image-builder/components/edk2/MdePkg/Include/Protocol/GraphicsOutput.h"
	.file 13 "/home/kapoagaeming/spacemit-image-builder/components/edk2/MdeModulePkg/Include/Library/UefiBootManagerLib.h"
	.file 14 "/home/kapoagaeming/spacemit-image-builder/components/edk2/MdePkg/Include/Library/UefiBootServicesTableLib.h"
	.file 15 "/home/kapoagaeming/spacemit-image-builder/components/edk2/MdePkg/Include/Protocol/LoadedImage.h"
	.file 16 "/home/kapoagaeming/spacemit-image-builder/components/edk2/MdePkg/Include/Protocol/PciIo.h"
	.file 17 "/home/kapoagaeming/spacemit-image-builder/components/edk2/MdePkg/Include/Protocol/PciRootBridgeIo.h"
	.file 18 "/home/kapoagaeming/spacemit-image-builder/components/edk2/MdePkg/Include/Library/UefiLib.h"
	.file 19 "/home/kapoagaeming/spacemit-image-builder/components/edk2/MdePkg/Include/Library/DevicePathLib.h"
	.file 20 "/home/kapoagaeming/spacemit-image-builder/components/edk2/MdePkg/Include/Library/MemoryAllocationLib.h"
	.file 21 "/home/kapoagaeming/spacemit-image-builder/components/edk2/MdeModulePkg/Include/Library/BootLogoLib.h"
	.section	.note.GNU-stack,"",@progbits
