	.file	"UefiHandleParsingLib.c"
	.option pic
	.option norelax
	.attribute arch, "rv64i2p1_m2p0_a2p1_f2p2_d2p2_c2p0_zicsr2p0_zifencei2p0_zmmul1p0_zaamo1p0_zalrsc1p0_zca1p0_zcd1p0"
	.attribute unaligned_access, 0
	.attribute stack_align, 16
	.text
.Ltext0:
	.cfi_sections	.debug_frame
	.file 0 "/home/kapoagaeming/Downloads/spacemit-image-builder/components/Build/Milk-V-Jupiter/RELEASE_GCC5/RISCV64/ShellPkg/Library/UefiHandleParsingLib/UefiHandleParsingLib" "/home/kapoagaeming/Downloads/spacemit-image-builder/components/edk2/ShellPkg/Library/UefiHandleParsingLib/UefiHandleParsingLib.c"
	.globl	mHandleParsingHiiHandle
	.section	.bss.mHandleParsingHiiHandle,"aw",@nobits
	.align	3
	.type	mHandleParsingHiiHandle, @object
	.size	mHandleParsingHiiHandle, 8
mHandleParsingHiiHandle:
	.zero	8
	.globl	mHandleList
	.section	.bss.mHandleList,"aw",@nobits
	.align	3
	.type	mHandleList, @object
	.size	mHandleList, 40
mHandleList:
	.zero	40
	.globl	mGuidList
	.section	.bss.mGuidList,"aw",@nobits
	.align	3
	.type	mGuidList, @object
	.size	mGuidList, 8
mGuidList:
	.zero	8
	.globl	mGuidListCount
	.section	.bss.mGuidListCount,"aw",@nobits
	.align	3
	.type	mGuidListCount, @object
	.size	mGuidListCount, 8
mGuidListCount:
	.zero	8
	.section	.text.FindLoadedImageFileName,"ax",@progbits
	.align	1
	.globl	FindLoadedImageFileName
	.type	FindLoadedImageFileName, @function
FindLoadedImageFileName:
.LFB0:
	.file 1 "/home/kapoagaeming/Downloads/spacemit-image-builder/components/edk2/ShellPkg/Library/UefiHandleParsingLib/UefiHandleParsingLib.c"
	.loc 1 38 1
	.cfi_startproc
	addi	sp,sp,-80
	.cfi_def_cfa_offset 80
	sd	ra,72(sp)
	sd	s0,64(sp)
	.cfi_offset 1, -8
	.cfi_offset 8, -16
	addi	s0,sp,80
	.cfi_def_cfa 8, 0
	sd	a0,-72(s0)
	.loc 1 46 6
	ld	a5,-72(s0)
	beq	a5,zero,.L2
	.loc 1 46 52 discriminator 1
	ld	a5,-72(s0)
	ld	a5,32(a5)
	.loc 1 46 37 discriminator 1
	bne	a5,zero,.L3
.L2:
	.loc 1 47 12
	li	a5,0
	j	.L8
.L3:
	.loc 1 50 101
	ld	a5,-72(s0)
	ld	a5,32(a5)
	.loc 1 50 14
	mv	a0,a5
	call	EfiGetNameGuidFromFwVolDevicePathNode@plt
	sd	a0,-24(s0)
	.loc 1 52 6
	ld	a5,-24(s0)
	bne	a5,zero,.L5
	.loc 1 53 12
	li	a5,0
	j	.L8
.L5:
	.loc 1 59 15
	la	a5,gBS
	ld	a5,0(a5)
	ld	a5,152(a5)
	.loc 1 59 12
	ld	a4,-72(s0)
	ld	a4,24(a4)
	addi	a3,s0,-40
	mv	a2,a3
	la	a1,gEfiFirmwareVolume2ProtocolGuid
	mv	a0,a4
	jalr	a5
.LVL0:
	sd	a0,-32(s0)
	.loc 1 64 34
	ld	a5,-32(s0)
	.loc 1 64 6
	bge	a5,zero,.L6
	.loc 1 65 12
	li	a5,0
	j	.L8
.L6:
	.loc 1 71 10
	sd	zero,-48(s0)
	.loc 1 72 14
	ld	a5,-40(s0)
	ld	a7,24(a5)
	.loc 1 72 12
	ld	a0,-40(s0)
	addi	a3,s0,-60
	addi	a5,s0,-56
	addi	a4,s0,-48
	mv	a6,a3
	li	a3,0
	li	a2,21
	ld	a1,-24(s0)
	jalr	a7
.LVL1:
	sd	a0,-32(s0)
	.loc 1 74 34
	ld	a5,-32(s0)
	.loc 1 74 6
	bge	a5,zero,.L7
	.loc 1 75 12
	li	a5,0
	j	.L8
.L7:
	.loc 1 82 10
	ld	a5,-48(s0)
.L8:
	.loc 1 83 1
	mv	a0,a5
	ld	ra,72(sp)
	.cfi_restore 1
	ld	s0,64(sp)
	.cfi_restore 8
	.cfi_def_cfa 2, 80
	addi	sp,sp,80
	.cfi_def_cfa_offset 0
	jr	ra
	.cfi_endproc
.LFE0:
	.size	FindLoadedImageFileName, .-FindLoadedImageFileName
	.section	.rodata
	.align	3
.LC0:
	.string	"E"
	.string	"f"
	.string	"i"
	.string	"R"
	.string	"e"
	.string	"s"
	.string	"e"
	.string	"r"
	.string	"v"
	.string	"e"
	.string	"d"
	.string	"M"
	.string	"e"
	.string	"m"
	.string	"o"
	.string	"r"
	.string	"y"
	.string	"T"
	.string	"y"
	.string	"p"
	.string	"e"
	.zero	2
	.align	3
.LC1:
	.string	"E"
	.string	"f"
	.string	"i"
	.string	"L"
	.string	"o"
	.string	"a"
	.string	"d"
	.string	"e"
	.string	"r"
	.string	"C"
	.string	"o"
	.string	"d"
	.string	"e"
	.zero	2
	.align	3
.LC2:
	.string	"E"
	.string	"f"
	.string	"i"
	.string	"L"
	.string	"o"
	.string	"a"
	.string	"d"
	.string	"e"
	.string	"r"
	.string	"D"
	.string	"a"
	.string	"t"
	.string	"a"
	.zero	2
	.align	3
.LC3:
	.string	"E"
	.string	"f"
	.string	"i"
	.string	"B"
	.string	"o"
	.string	"o"
	.string	"t"
	.string	"S"
	.string	"e"
	.string	"r"
	.string	"v"
	.string	"i"
	.string	"c"
	.string	"e"
	.string	"s"
	.string	"C"
	.string	"o"
	.string	"d"
	.string	"e"
	.zero	2
	.align	3
.LC4:
	.string	"E"
	.string	"f"
	.string	"i"
	.string	"B"
	.string	"o"
	.string	"o"
	.string	"t"
	.string	"S"
	.string	"e"
	.string	"r"
	.string	"v"
	.string	"i"
	.string	"c"
	.string	"e"
	.string	"s"
	.string	"D"
	.string	"a"
	.string	"t"
	.string	"a"
	.zero	2
	.align	3
.LC5:
	.string	"E"
	.string	"f"
	.string	"i"
	.string	"R"
	.string	"u"
	.string	"n"
	.string	"t"
	.string	"i"
	.string	"m"
	.string	"e"
	.string	"S"
	.string	"e"
	.string	"r"
	.string	"v"
	.string	"i"
	.string	"c"
	.string	"e"
	.string	"s"
	.string	"C"
	.string	"o"
	.string	"d"
	.string	"e"
	.zero	2
	.align	3
.LC6:
	.string	"E"
	.string	"f"
	.string	"i"
	.string	"R"
	.string	"u"
	.string	"n"
	.string	"t"
	.string	"i"
	.string	"m"
	.string	"e"
	.string	"S"
	.string	"e"
	.string	"r"
	.string	"v"
	.string	"i"
	.string	"c"
	.string	"e"
	.string	"s"
	.string	"D"
	.string	"a"
	.string	"t"
	.string	"a"
	.zero	2
	.align	3
.LC7:
	.string	"E"
	.string	"f"
	.string	"i"
	.string	"C"
	.string	"o"
	.string	"n"
	.string	"v"
	.string	"e"
	.string	"n"
	.string	"t"
	.string	"i"
	.string	"o"
	.string	"n"
	.string	"a"
	.string	"l"
	.string	"M"
	.string	"e"
	.string	"m"
	.string	"o"
	.string	"r"
	.string	"y"
	.zero	2
	.align	3
.LC8:
	.string	"E"
	.string	"f"
	.string	"i"
	.string	"U"
	.string	"n"
	.string	"u"
	.string	"s"
	.string	"a"
	.string	"b"
	.string	"l"
	.string	"e"
	.string	"M"
	.string	"e"
	.string	"m"
	.string	"o"
	.string	"r"
	.string	"y"
	.zero	2
	.align	3
.LC9:
	.string	"E"
	.string	"f"
	.string	"i"
	.string	"A"
	.string	"C"
	.string	"P"
	.string	"I"
	.string	"R"
	.string	"e"
	.string	"c"
	.string	"l"
	.string	"a"
	.string	"i"
	.string	"m"
	.string	"M"
	.string	"e"
	.string	"m"
	.string	"o"
	.string	"r"
	.string	"y"
	.zero	2
	.align	3
.LC10:
	.string	"E"
	.string	"f"
	.string	"i"
	.string	"A"
	.string	"C"
	.string	"P"
	.string	"I"
	.string	"M"
	.string	"e"
	.string	"m"
	.string	"o"
	.string	"r"
	.string	"y"
	.string	"N"
	.string	"V"
	.string	"S"
	.zero	2
	.align	3
.LC11:
	.string	"E"
	.string	"f"
	.string	"i"
	.string	"M"
	.string	"e"
	.string	"m"
	.string	"o"
	.string	"r"
	.string	"y"
	.string	"M"
	.string	"a"
	.string	"p"
	.string	"p"
	.string	"e"
	.string	"d"
	.string	"I"
	.string	"O"
	.zero	2
	.align	3
.LC12:
	.string	"E"
	.string	"f"
	.string	"i"
	.string	"M"
	.string	"e"
	.string	"m"
	.string	"o"
	.string	"r"
	.string	"y"
	.string	"M"
	.string	"a"
	.string	"p"
	.string	"p"
	.string	"e"
	.string	"d"
	.string	"I"
	.string	"O"
	.string	"P"
	.string	"o"
	.string	"r"
	.string	"t"
	.string	"S"
	.string	"p"
	.string	"a"
	.string	"c"
	.string	"e"
	.zero	2
	.align	3
.LC13:
	.string	"E"
	.string	"f"
	.string	"i"
	.string	"P"
	.string	"a"
	.string	"l"
	.string	"C"
	.string	"o"
	.string	"d"
	.string	"e"
	.zero	2
	.align	3
.LC14:
	.string	"E"
	.string	"f"
	.string	"i"
	.string	"M"
	.string	"a"
	.string	"x"
	.string	"M"
	.string	"e"
	.string	"m"
	.string	"o"
	.string	"r"
	.string	"y"
	.string	"T"
	.string	"y"
	.string	"p"
	.string	"e"
	.zero	2
	.section	.text.ConvertMemoryType,"ax",@progbits
	.align	1
	.globl	ConvertMemoryType
	.type	ConvertMemoryType, @function
ConvertMemoryType:
.LFB1:
	.loc 1 96 1
	.cfi_startproc
	addi	sp,sp,-48
	.cfi_def_cfa_offset 48
	sd	ra,40(sp)
	sd	s0,32(sp)
	.cfi_offset 1, -8
	.cfi_offset 8, -16
	addi	s0,sp,48
	.cfi_def_cfa 8, 0
	mv	a5,a0
	sw	a5,-36(s0)
	.loc 1 99 10
	sd	zero,-24(s0)
	.loc 1 101 3
	lw	a5,-36(s0)
	sext.w	a4,a5
	li	a5,16
	beq	a4,a5,.L10
	lw	a5,-36(s0)
	sext.w	a4,a5
	li	a5,16
	bgtu	a4,a5,.L11
	lw	a5,-36(s0)
	sext.w	a4,a5
	li	a5,13
	beq	a4,a5,.L12
	lw	a5,-36(s0)
	sext.w	a4,a5
	li	a5,13
	bgtu	a4,a5,.L11
	lw	a5,-36(s0)
	sext.w	a4,a5
	li	a5,12
	beq	a4,a5,.L13
	lw	a5,-36(s0)
	sext.w	a4,a5
	li	a5,12
	bgtu	a4,a5,.L11
	lw	a5,-36(s0)
	sext.w	a4,a5
	li	a5,11
	beq	a4,a5,.L14
	lw	a5,-36(s0)
	sext.w	a4,a5
	li	a5,11
	bgtu	a4,a5,.L11
	lw	a5,-36(s0)
	sext.w	a4,a5
	li	a5,10
	beq	a4,a5,.L15
	lw	a5,-36(s0)
	sext.w	a4,a5
	li	a5,10
	bgtu	a4,a5,.L11
	lw	a5,-36(s0)
	sext.w	a4,a5
	li	a5,9
	beq	a4,a5,.L16
	lw	a5,-36(s0)
	sext.w	a4,a5
	li	a5,9
	bgtu	a4,a5,.L11
	lw	a5,-36(s0)
	sext.w	a4,a5
	li	a5,8
	beq	a4,a5,.L17
	lw	a5,-36(s0)
	sext.w	a4,a5
	li	a5,8
	bgtu	a4,a5,.L11
	lw	a5,-36(s0)
	sext.w	a4,a5
	li	a5,7
	beq	a4,a5,.L18
	lw	a5,-36(s0)
	sext.w	a4,a5
	li	a5,7
	bgtu	a4,a5,.L11
	lw	a5,-36(s0)
	sext.w	a4,a5
	li	a5,6
	beq	a4,a5,.L19
	lw	a5,-36(s0)
	sext.w	a4,a5
	li	a5,6
	bgtu	a4,a5,.L11
	lw	a5,-36(s0)
	sext.w	a4,a5
	li	a5,5
	beq	a4,a5,.L20
	lw	a5,-36(s0)
	sext.w	a4,a5
	li	a5,5
	bgtu	a4,a5,.L11
	lw	a5,-36(s0)
	sext.w	a4,a5
	li	a5,4
	beq	a4,a5,.L21
	lw	a5,-36(s0)
	sext.w	a4,a5
	li	a5,4
	bgtu	a4,a5,.L11
	lw	a5,-36(s0)
	sext.w	a4,a5
	li	a5,3
	beq	a4,a5,.L22
	lw	a5,-36(s0)
	sext.w	a4,a5
	li	a5,3
	bgtu	a4,a5,.L11
	lw	a5,-36(s0)
	sext.w	a4,a5
	li	a5,2
	beq	a4,a5,.L23
	lw	a5,-36(s0)
	sext.w	a4,a5
	li	a5,2
	bgtu	a4,a5,.L11
	lw	a5,-36(s0)
	sext.w	a5,a5
	beq	a5,zero,.L24
	lw	a5,-36(s0)
	sext.w	a4,a5
	li	a5,1
	beq	a4,a5,.L25
	j	.L11
.L24:
	.loc 1 102 33
	addi	a5,s0,-24
	li	a3,0
	lla	a2,.LC0
	li	a1,0
	mv	a0,a5
	call	StrnCatGrow@plt
	.loc 1 103 7
	j	.L11
.L25:
	.loc 1 104 25
	addi	a5,s0,-24
	li	a3,0
	lla	a2,.LC1
	li	a1,0
	mv	a0,a5
	call	StrnCatGrow@plt
	.loc 1 105 7
	j	.L11
.L23:
	.loc 1 106 25
	addi	a5,s0,-24
	li	a3,0
	lla	a2,.LC2
	li	a1,0
	mv	a0,a5
	call	StrnCatGrow@plt
	.loc 1 107 7
	j	.L11
.L22:
	.loc 1 108 31
	addi	a5,s0,-24
	li	a3,0
	lla	a2,.LC3
	li	a1,0
	mv	a0,a5
	call	StrnCatGrow@plt
	.loc 1 109 7
	j	.L11
.L21:
	.loc 1 110 31
	addi	a5,s0,-24
	li	a3,0
	lla	a2,.LC4
	li	a1,0
	mv	a0,a5
	call	StrnCatGrow@plt
	.loc 1 111 7
	j	.L11
.L20:
	.loc 1 112 34
	addi	a5,s0,-24
	li	a3,0
	lla	a2,.LC5
	li	a1,0
	mv	a0,a5
	call	StrnCatGrow@plt
	.loc 1 113 7
	j	.L11
.L19:
	.loc 1 114 34
	addi	a5,s0,-24
	li	a3,0
	lla	a2,.LC6
	li	a1,0
	mv	a0,a5
	call	StrnCatGrow@plt
	.loc 1 115 7
	j	.L11
.L18:
	.loc 1 116 33
	addi	a5,s0,-24
	li	a3,0
	lla	a2,.LC7
	li	a1,0
	mv	a0,a5
	call	StrnCatGrow@plt
	.loc 1 117 7
	j	.L11
.L17:
	.loc 1 118 29
	addi	a5,s0,-24
	li	a3,0
	lla	a2,.LC8
	li	a1,0
	mv	a0,a5
	call	StrnCatGrow@plt
	.loc 1 119 7
	j	.L11
.L16:
	.loc 1 120 32
	addi	a5,s0,-24
	li	a3,0
	lla	a2,.LC9
	li	a1,0
	mv	a0,a5
	call	StrnCatGrow@plt
	.loc 1 121 7
	j	.L11
.L15:
	.loc 1 122 28
	addi	a5,s0,-24
	li	a3,0
	lla	a2,.LC10
	li	a1,0
	mv	a0,a5
	call	StrnCatGrow@plt
	.loc 1 123 7
	j	.L11
.L14:
	.loc 1 124 29
	addi	a5,s0,-24
	li	a3,0
	lla	a2,.LC11
	li	a1,0
	mv	a0,a5
	call	StrnCatGrow@plt
	.loc 1 125 7
	j	.L11
.L13:
	.loc 1 126 38
	addi	a5,s0,-24
	li	a3,0
	lla	a2,.LC12
	li	a1,0
	mv	a0,a5
	call	StrnCatGrow@plt
	.loc 1 127 7
	j	.L11
.L12:
	.loc 1 128 22
	addi	a5,s0,-24
	li	a3,0
	lla	a2,.LC13
	li	a1,0
	mv	a0,a5
	call	StrnCatGrow@plt
	.loc 1 129 7
	j	.L11
.L10:
	.loc 1 130 28
	addi	a5,s0,-24
	li	a3,0
	lla	a2,.LC14
	li	a1,0
	mv	a0,a5
	call	StrnCatGrow@plt
	.loc 1 131 7
	nop
.L11:
	.loc 1 135 10
	ld	a5,-24(s0)
	.loc 1 136 1
	mv	a0,a5
	ld	ra,40(sp)
	.cfi_restore 1
	ld	s0,32(sp)
	.cfi_restore 8
	.cfi_def_cfa 2, 48
	addi	sp,sp,48
	.cfi_def_cfa_offset 0
	jr	ra
	.cfi_endproc
.LFE1:
	.size	ConvertMemoryType, .-ConvertMemoryType
	.section	.rodata
	.align	3
.LC15:
	.string	"P"
	.string	"i"
	.string	"x"
	.string	"e"
	.string	"l"
	.string	"R"
	.string	"e"
	.string	"d"
	.string	"G"
	.string	"r"
	.string	"e"
	.string	"e"
	.string	"n"
	.string	"B"
	.string	"l"
	.string	"u"
	.string	"e"
	.string	"R"
	.string	"e"
	.string	"s"
	.string	"e"
	.string	"r"
	.string	"v"
	.string	"e"
	.string	"d"
	.string	"8"
	.string	"B"
	.string	"i"
	.string	"t"
	.string	"P"
	.string	"e"
	.string	"r"
	.string	"C"
	.string	"o"
	.string	"l"
	.string	"o"
	.string	"r"
	.zero	2
	.align	3
.LC16:
	.string	"P"
	.string	"i"
	.string	"x"
	.string	"e"
	.string	"l"
	.string	"B"
	.string	"l"
	.string	"u"
	.string	"e"
	.string	"G"
	.string	"r"
	.string	"e"
	.string	"e"
	.string	"n"
	.string	"R"
	.string	"e"
	.string	"d"
	.string	"R"
	.string	"e"
	.string	"s"
	.string	"e"
	.string	"r"
	.string	"v"
	.string	"e"
	.string	"d"
	.string	"8"
	.string	"B"
	.string	"i"
	.string	"t"
	.string	"P"
	.string	"e"
	.string	"r"
	.string	"C"
	.string	"o"
	.string	"l"
	.string	"o"
	.string	"r"
	.zero	2
	.align	3
.LC17:
	.string	"P"
	.string	"i"
	.string	"x"
	.string	"e"
	.string	"l"
	.string	"B"
	.string	"i"
	.string	"t"
	.string	"M"
	.string	"a"
	.string	"s"
	.string	"k"
	.zero	2
	.align	3
.LC18:
	.string	"P"
	.string	"i"
	.string	"x"
	.string	"e"
	.string	"l"
	.string	"B"
	.string	"l"
	.string	"t"
	.string	"O"
	.string	"n"
	.string	"l"
	.string	"y"
	.zero	2
	.align	3
.LC19:
	.string	"P"
	.string	"i"
	.string	"x"
	.string	"e"
	.string	"l"
	.string	"F"
	.string	"o"
	.string	"r"
	.string	"m"
	.string	"a"
	.string	"t"
	.string	"M"
	.string	"a"
	.string	"x"
	.zero	2
	.section	.text.ConvertPixelFormat,"ax",@progbits
	.align	1
	.globl	ConvertPixelFormat
	.type	ConvertPixelFormat, @function
ConvertPixelFormat:
.LFB2:
	.loc 1 149 1
	.cfi_startproc
	addi	sp,sp,-48
	.cfi_def_cfa_offset 48
	sd	ra,40(sp)
	sd	s0,32(sp)
	.cfi_offset 1, -8
	.cfi_offset 8, -16
	addi	s0,sp,48
	.cfi_def_cfa 8, 0
	mv	a5,a0
	sw	a5,-36(s0)
	.loc 1 152 10
	sd	zero,-24(s0)
	.loc 1 154 3
	lw	a5,-36(s0)
	sext.w	a4,a5
	li	a5,4
	beq	a4,a5,.L28
	lw	a5,-36(s0)
	sext.w	a4,a5
	li	a5,4
	bgtu	a4,a5,.L29
	lw	a5,-36(s0)
	sext.w	a4,a5
	li	a5,3
	beq	a4,a5,.L30
	lw	a5,-36(s0)
	sext.w	a4,a5
	li	a5,3
	bgtu	a4,a5,.L29
	lw	a5,-36(s0)
	sext.w	a4,a5
	li	a5,2
	beq	a4,a5,.L31
	lw	a5,-36(s0)
	sext.w	a4,a5
	li	a5,2
	bgtu	a4,a5,.L29
	lw	a5,-36(s0)
	sext.w	a5,a5
	beq	a5,zero,.L32
	lw	a5,-36(s0)
	sext.w	a4,a5
	li	a5,1
	beq	a4,a5,.L33
	j	.L29
.L32:
	.loc 1 155 49
	addi	a5,s0,-24
	li	a3,0
	lla	a2,.LC15
	li	a1,0
	mv	a0,a5
	call	StrnCatGrow@plt
	.loc 1 156 7
	j	.L29
.L33:
	.loc 1 157 49
	addi	a5,s0,-24
	li	a3,0
	lla	a2,.LC16
	li	a1,0
	mv	a0,a5
	call	StrnCatGrow@plt
	.loc 1 158 7
	j	.L29
.L31:
	.loc 1 159 24
	addi	a5,s0,-24
	li	a3,0
	lla	a2,.LC17
	li	a1,0
	mv	a0,a5
	call	StrnCatGrow@plt
	.loc 1 160 7
	j	.L29
.L30:
	.loc 1 161 24
	addi	a5,s0,-24
	li	a3,0
	lla	a2,.LC18
	li	a1,0
	mv	a0,a5
	call	StrnCatGrow@plt
	.loc 1 162 7
	j	.L29
.L28:
	.loc 1 163 26
	addi	a5,s0,-24
	li	a3,0
	lla	a2,.LC19
	li	a1,0
	mv	a0,a5
	call	StrnCatGrow@plt
	.loc 1 164 7
	nop
.L29:
	.loc 1 168 10
	ld	a5,-24(s0)
	.loc 1 169 1
	mv	a0,a5
	ld	ra,40(sp)
	.cfi_restore 1
	ld	s0,32(sp)
	.cfi_restore 8
	.cfi_def_cfa 2, 48
	addi	sp,sp,48
	.cfi_def_cfa_offset 0
	jr	ra
	.cfi_endproc
.LFE2:
	.size	ConvertPixelFormat, .-ConvertPixelFormat
	.section	.text.HandleParsingLibConstructor,"ax",@progbits
	.align	1
	.globl	HandleParsingLibConstructor
	.type	HandleParsingLibConstructor, @function
HandleParsingLibConstructor:
.LFB3:
	.loc 1 185 1
	.cfi_startproc
	addi	sp,sp,-32
	.cfi_def_cfa_offset 32
	sd	ra,24(sp)
	sd	s0,16(sp)
	.cfi_offset 1, -8
	.cfi_offset 8, -16
	addi	s0,sp,32
	.cfi_def_cfa 8, 0
	sd	a0,-24(s0)
	sd	a1,-32(s0)
	.loc 1 186 18
	lla	a5,mGuidListCount
	sd	zero,0(a5)
	.loc 1 187 13
	lla	a5,mGuidList
	sd	zero,0(a5)
	.loc 1 192 10
	li	a5,0
	.loc 1 193 1
	mv	a0,a5
	ld	ra,24(sp)
	.cfi_restore 1
	ld	s0,16(sp)
	.cfi_restore 8
	.cfi_def_cfa 2, 32
	addi	sp,sp,32
	.cfi_def_cfa_offset 0
	jr	ra
	.cfi_endproc
.LFE3:
	.size	HandleParsingLibConstructor, .-HandleParsingLibConstructor
	.section	.text.HandleParsingHiiInit,"ax",@progbits
	.align	1
	.globl	HandleParsingHiiInit
	.type	HandleParsingHiiInit, @function
HandleParsingHiiInit:
.LFB4:
	.loc 1 203 1
	.cfi_startproc
	addi	sp,sp,-16
	.cfi_def_cfa_offset 16
	sd	ra,8(sp)
	sd	s0,0(sp)
	.cfi_offset 1, -8
	.cfi_offset 8, -16
	addi	s0,sp,16
	.cfi_def_cfa 8, 0
	.loc 1 204 31
	lla	a5,mHandleParsingHiiHandle
	ld	a5,0(a5)
	.loc 1 204 6
	bne	a5,zero,.L39
	.loc 1 205 31
	la	a5,gImageHandle
	ld	a5,0(a5)
	li	a3,0
	la	a2,UefiHandleParsingLibStrings
	mv	a1,a5
	la	a0,gHandleParsingHiiGuid
	call	HiiAddPackages@plt
	mv	a4,a0
	.loc 1 205 29 discriminator 1
	lla	a5,mHandleParsingHiiHandle
	sd	a4,0(a5)
.L39:
	.loc 1 208 1
	nop
	ld	ra,8(sp)
	.cfi_restore 1
	ld	s0,0(sp)
	.cfi_restore 8
	.cfi_def_cfa 2, 16
	addi	sp,sp,16
	.cfi_def_cfa_offset 0
	jr	ra
	.cfi_endproc
.LFE4:
	.size	HandleParsingHiiInit, .-HandleParsingHiiInit
	.section	.text.HandleParsingLibDestructor,"ax",@progbits
	.align	1
	.globl	HandleParsingLibDestructor
	.type	HandleParsingLibDestructor, @function
HandleParsingLibDestructor:
.LFB5:
	.loc 1 224 1
	.cfi_startproc
	addi	sp,sp,-48
	.cfi_def_cfa_offset 48
	sd	ra,40(sp)
	sd	s0,32(sp)
	.cfi_offset 1, -8
	.cfi_offset 8, -16
	addi	s0,sp,48
	.cfi_def_cfa 8, 0
	sd	a0,-40(s0)
	sd	a1,-48(s0)
	.loc 1 227 18
	sd	zero,-24(s0)
	.loc 1 227 3
	j	.L41
.L44:
	.loc 1 228 24
	lla	a5,mGuidList
	ld	a3,0(a5)
	ld	a4,-24(s0)
	mv	a5,a4
	slli	a5,a5,1
	add	a5,a5,a4
	slli	a5,a5,3
	add	a5,a3,a5
	.loc 1 228 35
	ld	a5,8(a5)
	.loc 1 228 13
	beq	a5,zero,.L42
	.loc 1 228 82 discriminator 1
	lla	a5,mGuidList
	ld	a3,0(a5)
	ld	a4,-24(s0)
	mv	a5,a4
	slli	a5,a5,1
	add	a5,a5,a4
	slli	a5,a5,3
	add	a5,a3,a5
	.loc 1 228 93 discriminator 1
	ld	a5,8(a5)
	.loc 1 228 63 discriminator 1
	mv	a0,a5
	call	FreePool@plt
	.loc 1 228 114 discriminator 2
	lla	a5,mGuidList
	ld	a3,0(a5)
	ld	a4,-24(s0)
	mv	a5,a4
	slli	a5,a5,1
	add	a5,a5,a4
	slli	a5,a5,3
	add	a5,a3,a5
	.loc 1 228 134 discriminator 2
	sd	zero,8(a5)
.L42:
	.loc 1 227 89 discriminator 2
	ld	a5,-24(s0)
	addi	a5,a5,1
	sd	a5,-24(s0)
.L41:
	.loc 1 227 33 discriminator 1
	lla	a5,mGuidList
	ld	a5,0(a5)
	.loc 1 227 49 discriminator 1
	beq	a5,zero,.L43
	.loc 1 227 62 discriminator 3
	lla	a5,mGuidListCount
	ld	a5,0(a5)
	.loc 1 227 49 discriminator 3
	ld	a4,-24(s0)
	bltu	a4,a5,.L44
.L43:
	.loc 1 231 24
	lla	a5,mGuidList
	ld	a5,0(a5)
	.loc 1 231 11
	beq	a5,zero,.L45
	.loc 1 231 43 discriminator 1
	lla	a5,mGuidList
	ld	a5,0(a5)
	mv	a0,a5
	call	FreePool@plt
	.loc 1 231 78 discriminator 2
	lla	a5,mGuidList
	sd	zero,0(a5)
.L45:
	.loc 1 232 31
	lla	a5,mHandleParsingHiiHandle
	ld	a5,0(a5)
	.loc 1 232 6
	beq	a5,zero,.L46
	.loc 1 233 5
	lla	a5,mHandleParsingHiiHandle
	ld	a5,0(a5)
	mv	a0,a5
	call	HiiRemovePackages@plt
.L46:
	.loc 1 236 10
	li	a5,0
	.loc 1 237 1
	mv	a0,a5
	ld	ra,40(sp)
	.cfi_restore 1
	ld	s0,32(sp)
	.cfi_restore 8
	.cfi_def_cfa 2, 48
	addi	sp,sp,48
	.cfi_def_cfa_offset 0
	jr	ra
	.cfi_endproc
.LFE5:
	.size	HandleParsingLibDestructor, .-HandleParsingLibDestructor
	.section	.text.LoadedImageProtocolDumpInformation,"ax",@progbits
	.align	1
	.globl	LoadedImageProtocolDumpInformation
	.type	LoadedImageProtocolDumpInformation, @function
LoadedImageProtocolDumpInformation:
.LFB6:
	.loc 1 255 1
	.cfi_startproc
	addi	sp,sp,-176
	.cfi_def_cfa_offset 176
	sd	ra,168(sp)
	sd	s0,160(sp)
	.cfi_offset 1, -8
	.cfi_offset 8, -16
	addi	s0,sp,176
	.cfi_def_cfa 8, 0
	sd	a0,-104(s0)
	mv	a5,a1
	sb	a5,-105(s0)
	.loc 1 266 15
	la	a5,gBS
	ld	a5,0(a5)
	ld	a6,280(a5)
	.loc 1 266 12
	la	a5,gImageHandle
	ld	a3,0(a5)
	addi	a2,s0,-88
	li	a5,2
	li	a4,0
	la	a1,gEfiLoadedImageProtocolGuid
	ld	a0,-104(s0)
	jalr	a6
.LVL2:
	sd	a0,-40(s0)
	.loc 1 275 34
	ld	a5,-40(s0)
	.loc 1 275 6
	bge	a5,zero,.L49
	.loc 1 276 12
	li	a5,0
	j	.L64
.L49:
	.loc 1 279 14
	ld	a5,-88(s0)
	mv	a0,a5
	call	FindLoadedImageFileName
	sd	a0,-32(s0)
	.loc 1 280 50
	ld	a5,-88(s0)
	ld	a5,32(a5)
	.loc 1 280 14
	li	a2,1
	li	a1,1
	mv	a0,a5
	call	ConvertDevicePathToText@plt
	sd	a0,-48(s0)
	.loc 1 281 6
	lbu	a5,-105(s0)
	andi	a5,a5,0xff
	bne	a5,zero,.L51
	.loc 1 282 8
	ld	a5,-32(s0)
	bne	a5,zero,.L52
	.loc 1 283 16
	ld	a5,-48(s0)
	sd	a5,-32(s0)
	j	.L53
.L52:
	.loc 1 285 15
	ld	a5,-48(s0)
	beq	a5,zero,.L53
	.loc 1 285 46 discriminator 1
	ld	a0,-48(s0)
	call	FreePool@plt
	.loc 1 285 79 discriminator 2
	sd	zero,-48(s0)
.L53:
	.loc 1 288 12
	ld	a5,-32(s0)
	j	.L64
.L51:
	.loc 1 291 3
	call	HandleParsingHiiInit
	.loc 1 292 10
	sd	zero,-24(s0)
	.loc 1 293 6
	ld	a5,-32(s0)
	beq	a5,zero,.L54
	.loc 1 294 12
	lla	a5,mHandleParsingHiiHandle
	ld	a5,0(a5)
	li	a2,0
	li	a1,298
	mv	a0,a5
	call	HiiGetString@plt
	sd	a0,-56(s0)
	.loc 1 296 8
	ld	a5,-56(s0)
	beq	a5,zero,.L55
	.loc 1 297 16
	ld	a2,-32(s0)
	ld	a1,-56(s0)
	li	a0,0
	call	CatSPrint@plt
	sd	a0,-24(s0)
.L55:
	.loc 1 300 13
	ld	a5,-56(s0)
	beq	a5,zero,.L56
	.loc 1 300 40 discriminator 1
	ld	a0,-56(s0)
	call	FreePool@plt
	.loc 1 300 65 discriminator 2
	sd	zero,-56(s0)
.L56:
	.loc 1 301 13
	ld	a5,-32(s0)
	beq	a5,zero,.L57
	.loc 1 301 44 discriminator 1
	ld	a0,-32(s0)
	call	FreePool@plt
	.loc 1 301 77 discriminator 2
	sd	zero,-32(s0)
.L57:
	.loc 1 302 8
	ld	a5,-24(s0)
	bne	a5,zero,.L54
	.loc 1 303 14
	li	a5,0
	j	.L64
.L54:
	.loc 1 307 10
	lla	a5,mHandleParsingHiiHandle
	ld	a5,0(a5)
	li	a2,0
	li	a1,299
	mv	a0,a5
	call	HiiGetString@plt
	sd	a0,-56(s0)
	.loc 1 308 6
	ld	a5,-56(s0)
	bne	a5,zero,.L58
	.loc 1 309 12
	li	a5,0
	j	.L64
.L58:
	.loc 1 312 55
	ld	a5,-88(s0)
	.loc 1 312 17
	ld	a5,64(a5)
	mv	a0,a5
	call	PeCoffLoaderGetPdbPointer@plt
	sd	a0,-64(s0)
	.loc 1 313 44
	ld	a5,-88(s0)
	lw	a5,84(a5)
	.loc 1 313 14
	mv	a0,a5
	call	ConvertMemoryType
	sd	a0,-72(s0)
	.loc 1 314 44
	ld	a5,-88(s0)
	lw	a5,80(a5)
	.loc 1 314 14
	mv	a0,a5
	call	ConvertMemoryType
	sd	a0,-80(s0)
	.loc 1 315 6
	ld	a5,-64(s0)
	beq	a5,zero,.L59
	.loc 1 315 37 discriminator 1
	ld	a5,-72(s0)
	beq	a5,zero,.L59
	.loc 1 315 67 discriminator 2
	ld	a5,-80(s0)
	beq	a5,zero,.L59
	.loc 1 315 97 discriminator 3
	ld	a5,-48(s0)
	beq	a5,zero,.L59
	.loc 1 319 27
	ld	a5,-88(s0)
	.loc 1 316 14
	lw	a0,0(a5)
	.loc 1 320 27
	ld	a5,-88(s0)
	.loc 1 316 14
	ld	t1,8(a5)
	.loc 1 321 27
	ld	a5,-88(s0)
	.loc 1 316 14
	ld	t3,16(a5)
	.loc 1 322 27
	ld	a5,-88(s0)
	.loc 1 316 14
	ld	t4,24(a5)
	.loc 1 325 27
	ld	a5,-88(s0)
	.loc 1 316 14
	lw	a5,48(a5)
	.loc 1 326 27
	ld	a4,-88(s0)
	.loc 1 316 14
	ld	a4,56(a4)
	.loc 1 327 27
	ld	a3,-88(s0)
	.loc 1 316 14
	ld	a3,64(a3)
	.loc 1 328 27
	ld	a2,-88(s0)
	.loc 1 316 14
	ld	a2,72(a2)
	.loc 1 331 27
	ld	a1,-88(s0)
	.loc 1 316 14
	ld	a1,88(a1)
	sd	a1,48(sp)
	ld	a1,-72(s0)
	sd	a1,40(sp)
	ld	a1,-80(s0)
	sd	a1,32(sp)
	sd	a2,24(sp)
	sd	a3,16(sp)
	sd	a4,8(sp)
	sd	a5,0(sp)
	ld	a7,-64(s0)
	ld	a6,-48(s0)
	mv	a5,t4
	mv	a4,t3
	mv	a3,t1
	mv	a2,a0
	ld	a1,-56(s0)
	ld	a0,-24(s0)
	call	CatSPrint@plt
	sd	a0,-24(s0)
.L59:
	.loc 1 335 11
	ld	a5,-56(s0)
	beq	a5,zero,.L60
	.loc 1 335 38 discriminator 1
	ld	a0,-56(s0)
	call	FreePool@plt
	.loc 1 335 63 discriminator 2
	sd	zero,-56(s0)
.L60:
	.loc 1 336 11
	ld	a5,-48(s0)
	beq	a5,zero,.L61
	.loc 1 336 42 discriminator 1
	ld	a0,-48(s0)
	call	FreePool@plt
	.loc 1 336 75 discriminator 2
	sd	zero,-48(s0)
.L61:
	.loc 1 337 11
	ld	a5,-80(s0)
	beq	a5,zero,.L62
	.loc 1 337 42 discriminator 1
	ld	a0,-80(s0)
	call	FreePool@plt
	.loc 1 337 75 discriminator 2
	sd	zero,-80(s0)
.L62:
	.loc 1 338 11
	ld	a5,-72(s0)
	beq	a5,zero,.L63
	.loc 1 338 42 discriminator 1
	ld	a0,-72(s0)
	call	FreePool@plt
	.loc 1 338 75 discriminator 2
	sd	zero,-72(s0)
.L63:
	.loc 1 340 10
	ld	a5,-24(s0)
.L64:
	.loc 1 341 1
	mv	a0,a5
	ld	ra,168(sp)
	.cfi_restore 1
	ld	s0,160(sp)
	.cfi_restore 8
	.cfi_def_cfa 2, 176
	addi	sp,sp,176
	.cfi_def_cfa_offset 0
	jr	ra
	.cfi_endproc
.LFE6:
	.size	LoadedImageProtocolDumpInformation, .-LoadedImageProtocolDumpInformation
	.section	.rodata
	.align	3
.LC20:
	.string	"G"
	.string	"r"
	.string	"a"
	.string	"p"
	.string	"h"
	.string	"i"
	.string	"c"
	.string	"s"
	.string	"O"
	.string	"u"
	.string	"t"
	.string	"p"
	.string	"u"
	.string	"t"
	.zero	2
	.section	.text.GraphicsOutputProtocolDumpInformation,"ax",@progbits
	.align	1
	.globl	GraphicsOutputProtocolDumpInformation
	.type	GraphicsOutputProtocolDumpInformation, @function
GraphicsOutputProtocolDumpInformation:
.LFB7:
	.loc 1 359 1
	.cfi_startproc
	addi	sp,sp,-176
	.cfi_def_cfa_offset 176
	sd	ra,168(sp)
	sd	s0,160(sp)
	.cfi_offset 1, -8
	.cfi_offset 8, -16
	addi	s0,sp,176
	.cfi_def_cfa 8, 0
	sd	a0,-104(s0)
	mv	a5,a1
	sb	a5,-105(s0)
	.loc 1 370 6
	lbu	a5,-105(s0)
	andi	a5,a5,0xff
	bne	a5,zero,.L66
	.loc 1 371 13
	lla	a1,.LC20
	li	a0,0
	call	CatSPrint@plt
	mv	a5,a0
	j	.L97
.L66:
	.loc 1 374 3
	call	HandleParsingHiiInit
	.loc 1 376 10
	lla	a5,mHandleParsingHiiHandle
	ld	a5,0(a5)
	li	a2,0
	li	a1,300
	mv	a0,a5
	call	HiiGetString@plt
	sd	a0,-32(s0)
	.loc 1 377 6
	ld	a5,-32(s0)
	bne	a5,zero,.L68
	.loc 1 378 12
	li	a5,0
	j	.L97
.L68:
	.loc 1 381 15
	la	a5,gBS
	ld	a5,0(a5)
	ld	a6,280(a5)
	.loc 1 381 12
	la	a5,gImageHandle
	ld	a3,0(a5)
	addi	a2,s0,-72
	li	a5,2
	li	a4,0
	la	a1,gEfiGraphicsOutputProtocolGuid
	ld	a0,-104(s0)
	jalr	a6
.LVL3:
	sd	a0,-48(s0)
	.loc 1 390 34
	ld	a5,-48(s0)
	.loc 1 390 6
	bge	a5,zero,.L69
	.loc 1 391 13
	ld	a5,-32(s0)
	beq	a5,zero,.L70
	.loc 1 391 40 discriminator 1
	ld	a0,-32(s0)
	call	FreePool@plt
	.loc 1 391 65 discriminator 2
	sd	zero,-32(s0)
.L70:
	.loc 1 392 12
	li	a5,0
	j	.L97
.L69:
	.loc 1 395 43
	ld	a5,-72(s0)
	ld	a5,24(a5)
	.loc 1 395 49
	ld	a5,8(a5)
	.loc 1 395 55
	lw	a5,12(a5)
	.loc 1 395 9
	mv	a0,a5
	call	ConvertPixelFormat
	sd	a0,-56(s0)
	.loc 1 396 6
	ld	a5,-56(s0)
	bne	a5,zero,.L71
	.loc 1 397 13
	ld	a5,-32(s0)
	beq	a5,zero,.L72
	.loc 1 397 40 discriminator 1
	ld	a0,-32(s0)
	call	FreePool@plt
	.loc 1 397 65 discriminator 2
	sd	zero,-32(s0)
.L72:
	.loc 1 398 12
	li	a5,0
	j	.L97
.L71:
	.loc 1 404 28
	ld	a5,-72(s0)
	ld	a5,24(a5)
	.loc 1 401 12
	lw	t1,0(a5)
	.loc 1 405 28
	ld	a5,-72(s0)
	ld	a5,24(a5)
	.loc 1 401 12
	lw	t3,4(a5)
	.loc 1 406 28
	ld	a5,-72(s0)
	ld	a5,24(a5)
	.loc 1 401 12
	ld	t4,24(a5)
	.loc 1 407 36
	ld	a5,-72(s0)
	ld	a5,24(a5)
	.loc 1 407 42
	ld	t5,32(a5)
	.loc 1 408 36
	ld	a5,-72(s0)
	ld	a5,24(a5)
	.loc 1 408 42
	ld	t6,16(a5)
	.loc 1 409 28
	ld	a5,-72(s0)
	ld	a5,24(a5)
	.loc 1 409 34
	ld	a5,8(a5)
	.loc 1 401 12
	lw	a7,0(a5)
	.loc 1 410 28
	ld	a5,-72(s0)
	ld	a5,24(a5)
	.loc 1 410 34
	ld	a5,8(a5)
	.loc 1 401 12
	lw	a2,4(a5)
	.loc 1 411 28
	ld	a5,-72(s0)
	ld	a5,24(a5)
	.loc 1 411 34
	ld	a5,8(a5)
	.loc 1 401 12
	lw	a1,8(a5)
	.loc 1 413 28
	ld	a5,-72(s0)
	ld	a5,24(a5)
	.loc 1 413 34
	ld	a5,8(a5)
	.loc 1 401 12
	lw	a0,32(a5)
	.loc 1 414 28
	ld	a5,-72(s0)
	ld	a5,24(a5)
	.loc 1 414 34
	ld	a5,8(a5)
	.loc 1 414 40
	lw	a4,12(a5)
	.loc 1 401 12
	li	a5,2
	bne	a4,a5,.L73
	.loc 1 414 90
	ld	a5,-72(s0)
	ld	a5,24(a5)
	.loc 1 414 96
	ld	a5,8(a5)
	.loc 1 401 12 discriminator 1
	lw	a5,16(a5)
	j	.L74
.L73:
	.loc 1 401 12 is_stmt 0 discriminator 2
	li	a5,0
.L74:
	.loc 1 415 28 is_stmt 1
	ld	a4,-72(s0)
	ld	a4,24(a4)
	.loc 1 415 34
	ld	a4,8(a4)
	.loc 1 415 40
	lw	a3,12(a4)
	.loc 1 401 12 discriminator 4
	li	a4,2
	bne	a3,a4,.L75
	.loc 1 415 90
	ld	a4,-72(s0)
	ld	a4,24(a4)
	.loc 1 415 96
	ld	a4,8(a4)
	.loc 1 401 12 discriminator 5
	lw	a4,20(a4)
	j	.L76
.L75:
	.loc 1 401 12 is_stmt 0 discriminator 6
	li	a4,0
.L76:
	.loc 1 416 28 is_stmt 1
	ld	a3,-72(s0)
	ld	a3,24(a3)
	.loc 1 416 34
	ld	a3,8(a3)
	.loc 1 416 40
	lw	a6,12(a3)
	.loc 1 401 12 discriminator 8
	li	a3,2
	bne	a6,a3,.L77
	.loc 1 416 90
	ld	a3,-72(s0)
	ld	a3,24(a3)
	.loc 1 416 96
	ld	a3,8(a3)
	.loc 1 401 12 discriminator 9
	lw	a3,24(a3)
	j	.L78
.L77:
	.loc 1 401 12 is_stmt 0 discriminator 10
	li	a3,0
.L78:
	.loc 1 401 12 discriminator 12
	sd	a3,48(sp)
	sd	a4,40(sp)
	sd	a5,32(sp)
	sd	a0,24(sp)
	ld	a5,-56(s0)
	sd	a5,16(sp)
	sd	a1,8(sp)
	sd	a2,0(sp)
	mv	a6,t6
	mv	a5,t5
	mv	a4,t4
	mv	a3,t3
	mv	a2,t1
	ld	a1,-32(s0)
	li	a0,0
	call	CatSPrint@plt
	sd	a0,-24(s0)
	.loc 1 419 11 is_stmt 1
	ld	a5,-32(s0)
	beq	a5,zero,.L79
	.loc 1 419 38 discriminator 1
	ld	a0,-32(s0)
	call	FreePool@plt
	.loc 1 419 63 discriminator 2
	sd	zero,-32(s0)
.L79:
	.loc 1 420 6
	ld	a5,-24(s0)
	beq	a5,zero,.L98
	.loc 1 424 10
	lla	a5,mHandleParsingHiiHandle
	ld	a5,0(a5)
	li	a2,0
	li	a1,301
	mv	a0,a5
	call	HiiGetString@plt
	sd	a0,-32(s0)
	.loc 1 425 6
	ld	a5,-32(s0)
	bne	a5,zero,.L82
	.loc 1 426 13
	ld	a5,-24(s0)
	beq	a5,zero,.L99
	.loc 1 426 42 discriminator 1
	ld	a0,-24(s0)
	call	FreePool@plt
	.loc 1 426 71 discriminator 2
	sd	zero,-24(s0)
	.loc 1 427 5
	j	.L99
.L82:
	.loc 1 430 16
	ld	a1,-32(s0)
	ld	a0,-24(s0)
	call	CatSPrint@plt
	sd	a0,-64(s0)
	.loc 1 431 11
	ld	a5,-24(s0)
	beq	a5,zero,.L84
	.loc 1 431 40 discriminator 1
	ld	a0,-24(s0)
	call	FreePool@plt
	.loc 1 431 69 discriminator 2
	sd	zero,-24(s0)
.L84:
	.loc 1 432 6
	ld	a5,-64(s0)
	beq	a5,zero,.L100
	.loc 1 436 10
	ld	a5,-64(s0)
	sd	a5,-24(s0)
	.loc 1 437 11
	ld	a5,-32(s0)
	beq	a5,zero,.L86
	.loc 1 437 38 discriminator 1
	ld	a0,-32(s0)
	call	FreePool@plt
	.loc 1 437 63 discriminator 2
	sd	zero,-32(s0)
.L86:
	.loc 1 439 10
	lla	a5,mHandleParsingHiiHandle
	ld	a5,0(a5)
	li	a2,0
	li	a1,302
	mv	a0,a5
	call	HiiGetString@plt
	sd	a0,-32(s0)
	.loc 1 440 6
	ld	a5,-32(s0)
	bne	a5,zero,.L87
	.loc 1 441 13
	ld	a5,-24(s0)
	beq	a5,zero,.L101
	.loc 1 441 42 discriminator 1
	ld	a0,-24(s0)
	call	FreePool@plt
	.loc 1 441 71 discriminator 2
	sd	zero,-24(s0)
	.loc 1 442 5
	j	.L101
.L87:
	.loc 1 445 13
	sw	zero,-36(s0)
	.loc 1 445 3
	j	.L89
.L94:
	.loc 1 446 28
	ld	a5,-72(s0)
	ld	a5,0(a5)
	.loc 1 446 14
	ld	a4,-72(s0)
	addi	a3,s0,-88
	addi	a2,s0,-80
	lw	a1,-36(s0)
	mv	a0,a4
	jalr	a5
.LVL4:
	sd	a0,-48(s0)
	.loc 1 452 36
	ld	a5,-48(s0)
	.loc 1 452 8
	blt	a5,zero,.L102
	.loc 1 460 27
	ld	a5,-88(s0)
	.loc 1 456 18
	lw	a3,4(a5)
	.loc 1 461 27
	ld	a5,-88(s0)
	.loc 1 456 18
	lw	a4,8(a5)
	lw	a5,-36(s0)
	mv	a2,a5
	ld	a1,-32(s0)
	ld	a0,-24(s0)
	call	CatSPrint@plt
	sd	a0,-64(s0)
	.loc 1 464 24
	ld	a5,-88(s0)
	.loc 1 464 13
	beq	a5,zero,.L92
	.loc 1 464 43 discriminator 1
	ld	a5,-88(s0)
	mv	a0,a5
	call	FreePool@plt
	.loc 1 464 74 discriminator 2
	sd	zero,-88(s0)
.L92:
	.loc 1 465 13
	ld	a5,-24(s0)
	beq	a5,zero,.L93
	.loc 1 465 42 discriminator 1
	ld	a0,-24(s0)
	call	FreePool@plt
	.loc 1 465 71 discriminator 2
	sd	zero,-24(s0)
.L93:
	.loc 1 466 12
	ld	a5,-64(s0)
	sd	a5,-24(s0)
	j	.L91
.L102:
	.loc 1 453 7
	nop
.L91:
	.loc 1 445 60 discriminator 2
	lw	a5,-36(s0)
	addiw	a5,a5,1
	sw	a5,-36(s0)
.L89:
	.loc 1 445 39 discriminator 1
	ld	a5,-72(s0)
	ld	a5,24(a5)
	.loc 1 445 45 discriminator 1
	lw	a5,0(a5)
	.loc 1 445 23 discriminator 1
	lw	a4,-36(s0)
	sext.w	a4,a4
	bltu	a4,a5,.L94
	.loc 1 469 1
	j	.L81
.L98:
	.loc 1 421 5
	nop
	j	.L81
.L99:
	.loc 1 427 5
	nop
	j	.L81
.L100:
	.loc 1 433 5
	nop
	j	.L81
.L101:
	.loc 1 442 5
	nop
.L81:
	.loc 1 470 11
	ld	a5,-32(s0)
	beq	a5,zero,.L95
	.loc 1 470 38 discriminator 1
	ld	a0,-32(s0)
	call	FreePool@plt
	.loc 1 470 63 discriminator 2
	sd	zero,-32(s0)
.L95:
	.loc 1 471 11
	ld	a5,-56(s0)
	beq	a5,zero,.L96
	.loc 1 471 37 discriminator 1
	ld	a0,-56(s0)
	call	FreePool@plt
	.loc 1 471 60 discriminator 2
	sd	zero,-56(s0)
.L96:
	.loc 1 473 10
	ld	a5,-24(s0)
.L97:
	.loc 1 474 1
	mv	a0,a5
	ld	ra,168(sp)
	.cfi_restore 1
	ld	s0,160(sp)
	.cfi_restore 8
	.cfi_def_cfa 2, 176
	addi	sp,sp,176
	.cfi_def_cfa_offset 0
	jr	ra
	.cfi_endproc
.LFE7:
	.size	GraphicsOutputProtocolDumpInformation, .-GraphicsOutputProtocolDumpInformation
	.section	.rodata
	.align	3
.LC21:
	.string	"E"
	.string	"D"
	.string	"I"
	.string	"D"
	.string	"D"
	.string	"i"
	.string	"s"
	.string	"c"
	.string	"o"
	.string	"v"
	.string	"e"
	.string	"r"
	.string	"e"
	.string	"d"
	.zero	2
	.section	.text.EdidDiscoveredProtocolDumpInformation,"ax",@progbits
	.align	1
	.globl	EdidDiscoveredProtocolDumpInformation
	.type	EdidDiscoveredProtocolDumpInformation, @function
EdidDiscoveredProtocolDumpInformation:
.LFB8:
	.loc 1 492 1
	.cfi_startproc
	addi	sp,sp,-80
	.cfi_def_cfa_offset 80
	sd	ra,72(sp)
	sd	s0,64(sp)
	.cfi_offset 1, -8
	.cfi_offset 8, -16
	addi	s0,sp,80
	.cfi_def_cfa 8, 0
	sd	a0,-72(s0)
	mv	a5,a1
	sb	a5,-73(s0)
	.loc 1 499 6
	lbu	a5,-73(s0)
	andi	a5,a5,0xff
	bne	a5,zero,.L104
	.loc 1 500 13
	lla	a1,.LC21
	li	a0,0
	call	CatSPrint@plt
	mv	a5,a0
	j	.L114
.L104:
	.loc 1 503 15
	la	a5,gBS
	ld	a5,0(a5)
	ld	a6,280(a5)
	.loc 1 503 12
	addi	a2,s0,-56
	li	a5,2
	li	a4,0
	li	a3,0
	la	a1,gEfiEdidDiscoveredProtocolGuid
	ld	a0,-72(s0)
	jalr	a6
.LVL5:
	sd	a0,-32(s0)
	.loc 1 512 34
	ld	a5,-32(s0)
	.loc 1 512 6
	bge	a5,zero,.L106
	.loc 1 513 12
	li	a5,0
	j	.L114
.L106:
	.loc 1 516 10
	lla	a5,mHandleParsingHiiHandle
	ld	a5,0(a5)
	li	a2,0
	li	a1,304
	mv	a0,a5
	call	HiiGetString@plt
	sd	a0,-40(s0)
	.loc 1 517 6
	ld	a5,-40(s0)
	bne	a5,zero,.L107
	.loc 1 518 12
	li	a5,0
	j	.L114
.L107:
	.loc 1 521 57
	ld	a5,-56(s0)
	.loc 1 521 12
	lw	a5,0(a5)
	mv	a2,a5
	ld	a1,-40(s0)
	li	a0,0
	call	CatSPrint@plt
	sd	a0,-24(s0)
	.loc 1 522 11
	ld	a5,-40(s0)
	beq	a5,zero,.L108
	.loc 1 522 38 discriminator 1
	ld	a0,-40(s0)
	call	FreePool@plt
	.loc 1 522 63 discriminator 2
	sd	zero,-40(s0)
.L108:
	.loc 1 523 6
	ld	a5,-24(s0)
	bne	a5,zero,.L109
	.loc 1 524 12
	li	a5,0
	j	.L114
.L109:
	.loc 1 527 21
	ld	a5,-56(s0)
	lw	a5,0(a5)
	.loc 1 527 6
	beq	a5,zero,.L110
	.loc 1 528 12
	lla	a5,mHandleParsingHiiHandle
	ld	a5,0(a5)
	li	a2,0
	li	a1,305
	mv	a0,a5
	call	HiiGetString@plt
	sd	a0,-40(s0)
	.loc 1 529 8
	ld	a5,-40(s0)
	bne	a5,zero,.L111
	.loc 1 530 15
	ld	a5,-24(s0)
	beq	a5,zero,.L112
	.loc 1 530 44 discriminator 1
	ld	a0,-24(s0)
	call	FreePool@plt
	.loc 1 530 73 discriminator 2
	sd	zero,-24(s0)
.L112:
	.loc 1 531 14
	li	a5,0
	j	.L114
.L111:
	.loc 1 534 18
	ld	a1,-40(s0)
	ld	a0,-24(s0)
	call	CatSPrint@plt
	sd	a0,-48(s0)
	.loc 1 535 13
	ld	a5,-24(s0)
	beq	a5,zero,.L113
	.loc 1 535 42 discriminator 1
	ld	a0,-24(s0)
	call	FreePool@plt
	.loc 1 535 71 discriminator 2
	sd	zero,-24(s0)
.L113:
	.loc 1 536 12
	ld	a5,-48(s0)
	sd	a5,-24(s0)
	.loc 1 538 59
	ld	a5,-56(s0)
	lw	a5,0(a5)
	.loc 1 538 18
	slli	a3,a5,32
	srli	a3,a3,32
	.loc 1 538 87
	ld	a5,-56(s0)
	ld	a5,8(a5)
	.loc 1 538 18
	mv	a4,a5
	li	a2,0
	li	a1,4
	ld	a0,-24(s0)
	call	CatSDumpHex@plt
	sd	a0,-48(s0)
	.loc 1 539 12
	ld	a5,-48(s0)
	sd	a5,-24(s0)
.L110:
	.loc 1 542 10
	ld	a5,-24(s0)
.L114:
	.loc 1 543 1
	mv	a0,a5
	ld	ra,72(sp)
	.cfi_restore 1
	ld	s0,64(sp)
	.cfi_restore 8
	.cfi_def_cfa 2, 80
	addi	sp,sp,80
	.cfi_def_cfa_offset 0
	jr	ra
	.cfi_endproc
.LFE8:
	.size	EdidDiscoveredProtocolDumpInformation, .-EdidDiscoveredProtocolDumpInformation
	.section	.rodata
	.align	3
.LC22:
	.string	"E"
	.string	"D"
	.string	"I"
	.string	"D"
	.string	"A"
	.string	"c"
	.string	"t"
	.string	"i"
	.string	"v"
	.string	"e"
	.zero	2
	.section	.text.EdidActiveProtocolDumpInformation,"ax",@progbits
	.align	1
	.globl	EdidActiveProtocolDumpInformation
	.type	EdidActiveProtocolDumpInformation, @function
EdidActiveProtocolDumpInformation:
.LFB9:
	.loc 1 561 1
	.cfi_startproc
	addi	sp,sp,-80
	.cfi_def_cfa_offset 80
	sd	ra,72(sp)
	sd	s0,64(sp)
	.cfi_offset 1, -8
	.cfi_offset 8, -16
	addi	s0,sp,80
	.cfi_def_cfa 8, 0
	sd	a0,-72(s0)
	mv	a5,a1
	sb	a5,-73(s0)
	.loc 1 568 6
	lbu	a5,-73(s0)
	andi	a5,a5,0xff
	bne	a5,zero,.L116
	.loc 1 569 13
	lla	a1,.LC22
	li	a0,0
	call	CatSPrint@plt
	mv	a5,a0
	j	.L126
.L116:
	.loc 1 572 15
	la	a5,gBS
	ld	a5,0(a5)
	ld	a6,280(a5)
	.loc 1 572 12
	addi	a2,s0,-56
	li	a5,2
	li	a4,0
	li	a3,0
	la	a1,gEfiEdidActiveProtocolGuid
	ld	a0,-72(s0)
	jalr	a6
.LVL6:
	sd	a0,-32(s0)
	.loc 1 581 34
	ld	a5,-32(s0)
	.loc 1 581 6
	bge	a5,zero,.L118
	.loc 1 582 12
	li	a5,0
	j	.L126
.L118:
	.loc 1 585 10
	lla	a5,mHandleParsingHiiHandle
	ld	a5,0(a5)
	li	a2,0
	li	a1,306
	mv	a0,a5
	call	HiiGetString@plt
	sd	a0,-40(s0)
	.loc 1 586 6
	ld	a5,-40(s0)
	bne	a5,zero,.L119
	.loc 1 587 12
	li	a5,0
	j	.L126
.L119:
	.loc 1 590 53
	ld	a5,-56(s0)
	.loc 1 590 12
	lw	a5,0(a5)
	mv	a2,a5
	ld	a1,-40(s0)
	li	a0,0
	call	CatSPrint@plt
	sd	a0,-24(s0)
	.loc 1 591 11
	ld	a5,-40(s0)
	beq	a5,zero,.L120
	.loc 1 591 38 discriminator 1
	ld	a0,-40(s0)
	call	FreePool@plt
	.loc 1 591 63 discriminator 2
	sd	zero,-40(s0)
.L120:
	.loc 1 592 6
	ld	a5,-24(s0)
	bne	a5,zero,.L121
	.loc 1 593 12
	li	a5,0
	j	.L126
.L121:
	.loc 1 596 17
	ld	a5,-56(s0)
	lw	a5,0(a5)
	.loc 1 596 6
	beq	a5,zero,.L122
	.loc 1 597 12
	lla	a5,mHandleParsingHiiHandle
	ld	a5,0(a5)
	li	a2,0
	li	a1,307
	mv	a0,a5
	call	HiiGetString@plt
	sd	a0,-40(s0)
	.loc 1 598 8
	ld	a5,-40(s0)
	bne	a5,zero,.L123
	.loc 1 599 15
	ld	a5,-24(s0)
	beq	a5,zero,.L124
	.loc 1 599 44 discriminator 1
	ld	a0,-24(s0)
	call	FreePool@plt
	.loc 1 599 73 discriminator 2
	sd	zero,-24(s0)
.L124:
	.loc 1 600 14
	li	a5,0
	j	.L126
.L123:
	.loc 1 603 18
	ld	a1,-40(s0)
	ld	a0,-24(s0)
	call	CatSPrint@plt
	sd	a0,-48(s0)
	.loc 1 604 13
	ld	a5,-24(s0)
	beq	a5,zero,.L125
	.loc 1 604 42 discriminator 1
	ld	a0,-24(s0)
	call	FreePool@plt
	.loc 1 604 71 discriminator 2
	sd	zero,-24(s0)
.L125:
	.loc 1 605 12
	ld	a5,-48(s0)
	sd	a5,-24(s0)
	.loc 1 607 55
	ld	a5,-56(s0)
	lw	a5,0(a5)
	.loc 1 607 18
	slli	a3,a5,32
	srli	a3,a3,32
	.loc 1 607 79
	ld	a5,-56(s0)
	ld	a5,8(a5)
	.loc 1 607 18
	mv	a4,a5
	li	a2,0
	li	a1,4
	ld	a0,-24(s0)
	call	CatSDumpHex@plt
	sd	a0,-48(s0)
	.loc 1 608 12
	ld	a5,-48(s0)
	sd	a5,-24(s0)
.L122:
	.loc 1 611 10
	ld	a5,-24(s0)
.L126:
	.loc 1 612 1
	mv	a0,a5
	ld	ra,72(sp)
	.cfi_restore 1
	ld	s0,64(sp)
	.cfi_restore 8
	.cfi_def_cfa 2, 80
	addi	sp,sp,80
	.cfi_def_cfa_offset 0
	jr	ra
	.cfi_endproc
.LFE9:
	.size	EdidActiveProtocolDumpInformation, .-EdidActiveProtocolDumpInformation
	.section	.rodata
	.align	3
.LC23:
	.string	"P"
	.string	"c"
	.string	"i"
	.string	"R"
	.string	"o"
	.string	"o"
	.string	"t"
	.string	"B"
	.string	"r"
	.string	"i"
	.string	"d"
	.string	"g"
	.string	"e"
	.string	"I"
	.string	"o"
	.zero	2
	.align	3
.LC24:
	.string	"\r"
	.string	"\n"
	.string	"%"
	.string	"s"
	.zero	2
	.align	3
.LC25:
	.string	"%"
	.string	"%"
	.string	"H"
	.string	"%"
	.string	"0"
	.string	"2"
	.string	"x"
	.string	" "
	.string	" "
	.string	" "
	.string	" "
	.string	"%"
	.string	"0"
	.string	"1"
	.string	"6"
	.string	"l"
	.string	"x"
	.string	" "
	.string	" "
	.string	"%"
	.string	"0"
	.string	"1"
	.string	"6"
	.string	"l"
	.string	"x"
	.string	" "
	.string	" "
	.string	"%"
	.string	"0"
	.string	"2"
	.string	"x"
	.string	"%"
	.string	"%"
	.string	"N"
	.zero	2
	.section	.text.PciRootBridgeIoDumpInformation,"ax",@progbits
	.align	1
	.globl	PciRootBridgeIoDumpInformation
	.type	PciRootBridgeIoDumpInformation, @function
PciRootBridgeIoDumpInformation:
.LFB10:
	.loc 1 630 1
	.cfi_startproc
	addi	sp,sp,-96
	.cfi_def_cfa_offset 96
	sd	ra,88(sp)
	sd	s0,80(sp)
	.cfi_offset 1, -8
	.cfi_offset 8, -16
	addi	s0,sp,96
	.cfi_def_cfa 8, 0
	sd	a0,-88(s0)
	mv	a5,a1
	sb	a5,-89(s0)
	.loc 1 640 10
	sd	zero,-32(s0)
	.loc 1 642 6
	lbu	a5,-89(s0)
	andi	a5,a5,0xff
	bne	a5,zero,.L128
	.loc 1 643 13
	lla	a1,.LC23
	li	a0,0
	call	CatSPrint@plt
	mv	a5,a0
	j	.L149
.L128:
	.loc 1 646 3
	call	HandleParsingHiiInit
	.loc 1 648 15
	la	a5,gBS
	ld	a5,0(a5)
	ld	a5,152(a5)
	.loc 1 648 12
	addi	a4,s0,-56
	mv	a2,a4
	la	a1,gEfiPciRootBridgeIoProtocolGuid
	ld	a0,-88(s0)
	jalr	a5
.LVL7:
	sd	a0,-40(s0)
	.loc 1 654 34
	ld	a5,-40(s0)
	.loc 1 654 6
	bge	a5,zero,.L130
	.loc 1 655 12
	li	a5,0
	j	.L149
.L130:
	.loc 1 658 10
	lla	a5,mHandleParsingHiiHandle
	ld	a5,0(a5)
	li	a2,0
	li	a1,288
	mv	a0,a5
	call	HiiGetString@plt
	sd	a0,-24(s0)
	.loc 1 659 6
	ld	a5,-24(s0)
	bne	a5,zero,.L131
	.loc 1 660 12
	li	a5,0
	j	.L149
.L131:
	.loc 1 663 57
	ld	a5,-56(s0)
	.loc 1 663 11
	ld	a5,0(a5)
	mv	a2,a5
	ld	a1,-24(s0)
	li	a0,0
	call	CatSPrint@plt
	sd	a0,-48(s0)
	.loc 1 664 3
	ld	a0,-24(s0)
	call	FreePool@plt
	.loc 1 665 10
	ld	a5,-48(s0)
	sd	a5,-32(s0)
	.loc 1 666 9
	sd	zero,-48(s0)
	.loc 1 668 10
	lla	a5,mHandleParsingHiiHandle
	ld	a5,0(a5)
	li	a2,0
	li	a1,289
	mv	a0,a5
	call	HiiGetString@plt
	sd	a0,-24(s0)
	.loc 1 669 6
	ld	a5,-24(s0)
	bne	a5,zero,.L132
	.loc 1 670 13
	ld	a5,-32(s0)
	beq	a5,zero,.L133
	.loc 1 670 42 discriminator 1
	ld	a0,-32(s0)
	call	FreePool@plt
	.loc 1 670 71 discriminator 2
	sd	zero,-32(s0)
.L133:
	.loc 1 671 12
	li	a5,0
	j	.L149
.L132:
	.loc 1 674 51
	ld	a5,-56(s0)
	.loc 1 674 11
	lw	a5,144(a5)
	mv	a2,a5
	ld	a1,-24(s0)
	ld	a0,-32(s0)
	call	CatSPrint@plt
	sd	a0,-48(s0)
	.loc 1 675 3
	ld	a0,-24(s0)
	call	FreePool@plt
	.loc 1 676 3
	ld	a0,-32(s0)
	call	FreePool@plt
	.loc 1 677 10
	ld	a5,-48(s0)
	sd	a5,-32(s0)
	.loc 1 678 9
	sd	zero,-48(s0)
	.loc 1 680 12
	sd	zero,-72(s0)
	.loc 1 681 14
	sd	zero,-80(s0)
	.loc 1 682 27
	ld	a5,-56(s0)
	ld	a5,120(a5)
	.loc 1 682 12
	ld	a4,-56(s0)
	addi	a2,s0,-80
	addi	a3,s0,-72
	mv	a1,a3
	mv	a0,a4
	jalr	a5
.LVL8:
	sd	a0,-40(s0)
	.loc 1 683 7
	ld	a5,-40(s0)
	.loc 1 683 6
	blt	a5,zero,.L134
	.loc 1 684 12
	lla	a5,mHandleParsingHiiHandle
	ld	a5,0(a5)
	li	a2,0
	li	a1,290
	mv	a0,a5
	call	HiiGetString@plt
	sd	a0,-24(s0)
	.loc 1 685 8
	ld	a5,-24(s0)
	bne	a5,zero,.L135
	.loc 1 686 15
	ld	a5,-32(s0)
	beq	a5,zero,.L136
	.loc 1 686 44 discriminator 1
	ld	a0,-32(s0)
	call	FreePool@plt
	.loc 1 686 73 discriminator 2
	sd	zero,-32(s0)
.L136:
	.loc 1 687 14
	li	a5,0
	j	.L149
.L135:
	.loc 1 690 13
	ld	a5,-80(s0)
	mv	a2,a5
	ld	a1,-24(s0)
	ld	a0,-32(s0)
	call	CatSPrint@plt
	sd	a0,-48(s0)
	.loc 1 691 5
	ld	a0,-24(s0)
	call	FreePool@plt
	.loc 1 692 5
	ld	a0,-32(s0)
	call	FreePool@plt
	.loc 1 693 12
	ld	a5,-48(s0)
	sd	a5,-32(s0)
	.loc 1 694 11
	sd	zero,-48(s0)
	.loc 1 696 12
	lla	a5,mHandleParsingHiiHandle
	ld	a5,0(a5)
	li	a2,0
	li	a1,291
	mv	a0,a5
	call	HiiGetString@plt
	sd	a0,-24(s0)
	.loc 1 697 8
	ld	a5,-24(s0)
	bne	a5,zero,.L137
	.loc 1 698 15
	ld	a5,-32(s0)
	beq	a5,zero,.L138
	.loc 1 698 44 discriminator 1
	ld	a0,-32(s0)
	call	FreePool@plt
	.loc 1 698 73 discriminator 2
	sd	zero,-32(s0)
.L138:
	.loc 1 699 14
	li	a5,0
	j	.L149
.L137:
	.loc 1 702 13
	ld	a5,-72(s0)
	mv	a2,a5
	ld	a1,-24(s0)
	ld	a0,-32(s0)
	call	CatSPrint@plt
	sd	a0,-48(s0)
	.loc 1 703 5
	ld	a0,-24(s0)
	call	FreePool@plt
	.loc 1 704 5
	ld	a0,-32(s0)
	call	FreePool@plt
	.loc 1 705 12
	ld	a5,-48(s0)
	sd	a5,-32(s0)
	.loc 1 706 11
	sd	zero,-48(s0)
.L134:
	.loc 1 709 17
	sd	zero,-64(s0)
	.loc 1 710 27
	ld	a5,-56(s0)
	ld	a5,136(a5)
	.loc 1 710 12
	ld	a4,-56(s0)
	addi	a3,s0,-64
	mv	a1,a3
	mv	a0,a4
	jalr	a5
.LVL9:
	sd	a0,-40(s0)
	.loc 1 711 7
	ld	a5,-40(s0)
	.loc 1 711 6
	blt	a5,zero,.L139
	.loc 1 711 79 discriminator 1
	ld	a5,-64(s0)
	.loc 1 711 61 discriminator 1
	beq	a5,zero,.L139
	.loc 1 712 12
	lla	a5,mHandleParsingHiiHandle
	ld	a5,0(a5)
	li	a2,0
	li	a1,295
	mv	a0,a5
	call	HiiGetString@plt
	sd	a0,-24(s0)
	.loc 1 713 8
	ld	a5,-24(s0)
	bne	a5,zero,.L140
	.loc 1 714 15
	ld	a5,-32(s0)
	beq	a5,zero,.L141
	.loc 1 714 44 discriminator 1
	ld	a0,-32(s0)
	call	FreePool@plt
	.loc 1 714 73 discriminator 2
	sd	zero,-32(s0)
.L141:
	.loc 1 715 14
	li	a5,0
	j	.L149
.L140:
	.loc 1 718 13
	ld	a5,-72(s0)
	mv	a2,a5
	ld	a1,-24(s0)
	ld	a0,-32(s0)
	call	CatSPrint@plt
	sd	a0,-48(s0)
	.loc 1 719 5
	ld	a0,-24(s0)
	call	FreePool@plt
	.loc 1 720 5
	ld	a0,-32(s0)
	call	FreePool@plt
	.loc 1 721 12
	ld	a5,-48(s0)
	sd	a5,-32(s0)
	.loc 1 722 11
	sd	zero,-48(s0)
	.loc 1 723 11
	j	.L142
.L148:
	.loc 1 724 12
	sd	zero,-24(s0)
	.loc 1 725 28
	ld	a5,-64(s0)
	lbu	a5,3(a5)
	sext.w	a5,a5
	.loc 1 725 7
	li	a4,2
	beq	a5,a4,.L143
	li	a4,2
	bgt	a5,a4,.L144
	beq	a5,zero,.L145
	li	a4,1
	beq	a5,a4,.L146
	j	.L144
.L145:
	.loc 1 727 18
	lla	a5,mHandleParsingHiiHandle
	ld	a5,0(a5)
	li	a2,0
	li	a1,293
	mv	a0,a5
	call	HiiGetString@plt
	sd	a0,-24(s0)
	.loc 1 728 11
	j	.L144
.L146:
	.loc 1 730 18
	lla	a5,mHandleParsingHiiHandle
	ld	a5,0(a5)
	li	a2,0
	li	a1,294
	mv	a0,a5
	call	HiiGetString@plt
	sd	a0,-24(s0)
	.loc 1 731 11
	j	.L144
.L143:
	.loc 1 733 18
	lla	a5,mHandleParsingHiiHandle
	ld	a5,0(a5)
	li	a2,0
	li	a1,292
	mv	a0,a5
	call	HiiGetString@plt
	sd	a0,-24(s0)
	.loc 1 734 11
	nop
.L144:
	.loc 1 737 10
	ld	a5,-24(s0)
	beq	a5,zero,.L147
	.loc 1 738 17
	ld	a2,-24(s0)
	lla	a1,.LC24
	ld	a0,-32(s0)
	call	CatSPrint@plt
	sd	a0,-48(s0)
	.loc 1 739 9
	ld	a0,-24(s0)
	call	FreePool@plt
	.loc 1 740 9
	ld	a0,-32(s0)
	call	FreePool@plt
	.loc 1 741 16
	ld	a5,-48(s0)
	sd	a5,-32(s0)
	.loc 1 742 15
	sd	zero,-48(s0)
.L147:
	.loc 1 748 30
	ld	a5,-64(s0)
	lbu	a5,5(a5)
	.loc 1 745 15
	sext.w	a2,a5
	.loc 1 749 30
	ld	a5,-64(s0)
	.loc 1 745 15
	lbu	a4,14(a5)
	lbu	a3,15(a5)
	slli	a3,a3,8
	or	a4,a3,a4
	lbu	a3,16(a5)
	slli	a3,a3,16
	or	a4,a3,a4
	lbu	a3,17(a5)
	slli	a3,a3,24
	or	a4,a3,a4
	lbu	a3,18(a5)
	slli	a3,a3,32
	or	a4,a3,a4
	lbu	a3,19(a5)
	slli	a3,a3,40
	or	a4,a3,a4
	lbu	a3,20(a5)
	slli	a3,a3,48
	or	a4,a3,a4
	lbu	a5,21(a5)
	slli	a5,a5,56
	or	a5,a5,a4
	mv	a1,a5
	.loc 1 750 30
	ld	a5,-64(s0)
	.loc 1 745 15
	lbu	a4,22(a5)
	lbu	a3,23(a5)
	slli	a3,a3,8
	or	a4,a3,a4
	lbu	a3,24(a5)
	slli	a3,a3,16
	or	a4,a3,a4
	lbu	a3,25(a5)
	slli	a3,a3,24
	or	a4,a3,a4
	lbu	a3,26(a5)
	slli	a3,a3,32
	or	a4,a3,a4
	lbu	a3,27(a5)
	slli	a3,a3,40
	or	a4,a3,a4
	lbu	a3,28(a5)
	slli	a3,a3,48
	or	a4,a3,a4
	lbu	a5,29(a5)
	slli	a5,a5,56
	or	a5,a5,a4
	mv	a0,a5
	.loc 1 751 30
	ld	a5,-64(s0)
	.loc 1 745 15
	lbu	a4,6(a5)
	lbu	a3,7(a5)
	slli	a3,a3,8
	or	a4,a3,a4
	lbu	a3,8(a5)
	slli	a3,a3,16
	or	a4,a3,a4
	lbu	a3,9(a5)
	slli	a3,a3,24
	or	a4,a3,a4
	lbu	a3,10(a5)
	slli	a3,a3,32
	or	a4,a3,a4
	lbu	a3,11(a5)
	slli	a3,a3,40
	or	a4,a3,a4
	lbu	a3,12(a5)
	slli	a3,a3,48
	or	a4,a3,a4
	lbu	a5,13(a5)
	slli	a5,a5,56
	or	a5,a5,a4
	mv	a4,a0
	mv	a3,a1
	lla	a1,.LC25
	ld	a0,-32(s0)
	call	CatSPrint@plt
	sd	a0,-48(s0)
	.loc 1 753 7
	ld	a0,-32(s0)
	call	FreePool@plt
	.loc 1 754 14
	ld	a5,-48(s0)
	sd	a5,-32(s0)
	.loc 1 755 13
	sd	zero,-48(s0)
	.loc 1 756 20
	ld	a5,-64(s0)
	addi	a5,a5,46
	sd	a5,-64(s0)
.L142:
	.loc 1 723 25
	ld	a5,-64(s0)
	lbu	a5,0(a5)
	.loc 1 723 32
	mv	a4,a5
	li	a5,138
	beq	a4,a5,.L148
.L139:
	.loc 1 760 10
	ld	a5,-32(s0)
.L149:
	.loc 1 761 1
	mv	a0,a5
	ld	ra,88(sp)
	.cfi_restore 1
	ld	s0,80(sp)
	.cfi_restore 8
	.cfi_def_cfa 2, 96
	addi	sp,sp,96
	.cfi_def_cfa_offset 0
	jr	ra
	.cfi_endproc
.LFE10:
	.size	PciRootBridgeIoDumpInformation, .-PciRootBridgeIoDumpInformation
	.section	.rodata
	.align	3
.LC26:
	.zero	2
	.section	.text.TxtOutProtocolDumpInformation,"ax",@progbits
	.align	1
	.globl	TxtOutProtocolDumpInformation
	.type	TxtOutProtocolDumpInformation, @function
TxtOutProtocolDumpInformation:
.LFB11:
	.loc 1 779 1
	.cfi_startproc
	addi	sp,sp,-112
	.cfi_def_cfa_offset 112
	sd	ra,104(sp)
	sd	s0,96(sp)
	.cfi_offset 1, -8
	.cfi_offset 8, -16
	addi	s0,sp,112
	.cfi_def_cfa 8, 0
	sd	a0,-104(s0)
	mv	a5,a1
	sb	a5,-105(s0)
	.loc 1 790 6
	lbu	a5,-105(s0)
	andi	a5,a5,0xff
	bne	a5,zero,.L151
	.loc 1 791 12
	li	a5,0
	j	.L166
.L151:
	.loc 1 794 3
	call	HandleParsingHiiInit
	.loc 1 796 10
	sd	zero,-32(s0)
	.loc 1 797 8
	sd	zero,-40(s0)
	.loc 1 799 15
	la	a5,gBS
	ld	a5,0(a5)
	ld	a5,152(a5)
	.loc 1 799 12
	addi	a4,s0,-72
	mv	a2,a4
	la	a1,gEfiSimpleTextOutProtocolGuid
	ld	a0,-104(s0)
	jalr	a5
.LVL10:
	sd	a0,-48(s0)
	.loc 1 808 14
	ld	a5,-72(s0)
	ld	a5,72(a5)
	.loc 1 808 20
	lw	a5,0(a5)
	.loc 1 808 30
	addiw	a5,a5,1
	sext.w	a5,a5
	.loc 1 808 35
	mv	a4,a5
	mv	a5,a4
	slliw	a5,a5,2
	addw	a5,a5,a4
	slliw	a5,a5,4
	sext.w	a5,a5
	.loc 1 808 8
	sd	a5,-40(s0)
	.loc 1 809 12
	ld	a0,-40(s0)
	call	AllocateZeroPool@plt
	sd	a0,-32(s0)
	.loc 1 810 6
	ld	a5,-32(s0)
	bne	a5,zero,.L153
	.loc 1 811 12
	li	a5,0
	j	.L166
.L153:
	.loc 1 814 10
	lla	a5,mHandleParsingHiiHandle
	ld	a5,0(a5)
	li	a2,0
	li	a1,111
	mv	a0,a5
	call	HiiGetString@plt
	sd	a0,-56(s0)
	.loc 1 815 6
	ld	a5,-56(s0)
	beq	a5,zero,.L154
	.loc 1 816 5
	ld	a3,-72(s0)
	.loc 1 816 48
	ld	a5,-72(s0)
	ld	a5,72(a5)
	.loc 1 816 5
	lw	a5,8(a5)
	mv	a4,a5
	ld	a2,-56(s0)
	ld	a1,-40(s0)
	ld	a0,-32(s0)
	call	UnicodeSPrint@plt
	.loc 1 817 5
	ld	a0,-56(s0)
	call	FreePool@plt
.L154:
	.loc 1 823 10
	lla	a5,mHandleParsingHiiHandle
	ld	a5,0(a5)
	li	a2,0
	li	a1,112
	mv	a0,a5
	call	HiiGetString@plt
	sd	a0,-56(s0)
	.loc 1 824 6
	ld	a5,-56(s0)
	bne	a5,zero,.L155
	.loc 1 825 5
	ld	a0,-32(s0)
	call	FreePool@plt
	.loc 1 826 12
	li	a5,0
	j	.L166
.L155:
	.loc 1 829 14
	sd	zero,-24(s0)
	.loc 1 829 3
	j	.L156
.L165:
	.loc 1 830 17
	ld	a5,-72(s0)
	ld	a5,24(a5)
	.loc 1 830 14
	ld	a4,-72(s0)
	ld	a1,-24(s0)
	addi	a3,s0,-88
	addi	a2,s0,-80
	mv	a0,a4
	jalr	a5
.LVL11:
	sd	a0,-48(s0)
	.loc 1 831 22
	ld	a0,-32(s0)
	call	StrSize@plt
	mv	a4,a0
	.loc 1 831 13 discriminator 1
	ld	a5,-40(s0)
	sub	a5,a5,a4
	sd	a5,-64(s0)
	.loc 1 833 16
	ld	a0,-32(s0)
	call	StrLen@plt
	mv	a5,a0
	.loc 1 833 14 discriminator 1
	slli	a5,a5,1
	.loc 1 832 5
	ld	a4,-32(s0)
	add	a0,a4,a5
	ld	a5,-56(s0)
	beq	a5,zero,.L157
	.loc 1 832 5 is_stmt 0 discriminator 1
	ld	a2,-56(s0)
	j	.L158
.L157:
	.loc 1 832 5 discriminator 2
	lla	a2,.LC26
.L158:
	.loc 1 836 19 is_stmt 1
	ld	a5,-72(s0)
	ld	a5,72(a5)
	.loc 1 836 25
	lw	a5,4(a5)
	mv	a4,a5
	.loc 1 832 5 discriminator 4
	ld	a5,-24(s0)
	bne	a5,a4,.L159
	.loc 1 832 5 is_stmt 0 discriminator 5
	li	a3,42
	j	.L160
.L159:
	.loc 1 832 5 discriminator 6
	li	a3,32
.L160:
	.loc 1 838 7 is_stmt 1
	ld	a5,-48(s0)
	.loc 1 832 5 discriminator 8
	blt	a5,zero,.L161
	.loc 1 838 63
	ld	a5,-80(s0)
	.loc 1 832 5 discriminator 9
	mv	a4,a5
	j	.L162
.L161:
	.loc 1 832 5 is_stmt 0 discriminator 10
	li	a4,-1
.L162:
	.loc 1 839 7 is_stmt 1
	ld	a5,-48(s0)
	.loc 1 832 5 discriminator 12
	blt	a5,zero,.L163
	.loc 1 839 63
	ld	a5,-88(s0)
	j	.L164
.L163:
	.loc 1 832 5 discriminator 14
	li	a5,-1
.L164:
	.loc 1 832 5 is_stmt 0 discriminator 16
	mv	a6,a5
	mv	a5,a4
	ld	a4,-24(s0)
	ld	a1,-64(s0)
	call	UnicodeSPrint@plt
	.loc 1 829 52 is_stmt 1 discriminator 2
	ld	a5,-24(s0)
	addi	a5,a5,1
	sd	a5,-24(s0)
.L156:
	.loc 1 829 30 discriminator 1
	ld	a5,-72(s0)
	ld	a5,72(a5)
	.loc 1 829 36 discriminator 1
	lw	a5,0(a5)
	mv	a4,a5
	.loc 1 829 25 discriminator 1
	ld	a5,-24(s0)
	blt	a5,a4,.L165
	.loc 1 843 3
	ld	a0,-56(s0)
	call	FreePool@plt
	.loc 1 844 10
	ld	a5,-32(s0)
.L166:
	.loc 1 845 1
	mv	a0,a5
	ld	ra,104(sp)
	.cfi_restore 1
	ld	s0,96(sp)
	.cfi_restore 8
	.cfi_def_cfa 2, 112
	addi	sp,sp,112
	.cfi_def_cfa_offset 0
	jr	ra
	.cfi_endproc
.LFE11:
	.size	TxtOutProtocolDumpInformation, .-TxtOutProtocolDumpInformation
	.section	.rodata.VersionStringSize,"a"
	.align	3
	.type	VersionStringSize, @object
	.size	VersionStringSize, 8
VersionStringSize:
	.dword	60
	.section	.rodata
	.align	3
.LC27:
	.string	"0"
	.string	"x"
	.string	"%"
	.string	"0"
	.string	"8"
	.string	"x"
	.zero	2
	.section	.text.DriverEfiVersionProtocolDumpInformation,"ax",@progbits
	.align	1
	.globl	DriverEfiVersionProtocolDumpInformation
	.type	DriverEfiVersionProtocolDumpInformation, @function
DriverEfiVersionProtocolDumpInformation:
.LFB12:
	.loc 1 865 1
	.cfi_startproc
	addi	sp,sp,-64
	.cfi_def_cfa_offset 64
	sd	ra,56(sp)
	sd	s0,48(sp)
	.cfi_offset 1, -8
	.cfi_offset 8, -16
	addi	s0,sp,64
	.cfi_def_cfa 8, 0
	sd	a0,-56(s0)
	mv	a5,a1
	sb	a5,-57(s0)
	.loc 1 870 15
	la	a5,gBS
	ld	a5,0(a5)
	ld	a5,152(a5)
	.loc 1 870 12
	addi	a4,s0,-40
	mv	a2,a4
	la	a1,gEfiDriverSupportedEfiVersionProtocolGuid
	ld	a0,-56(s0)
	jalr	a5
.LVL12:
	sd	a0,-24(s0)
	.loc 1 878 12
	li	a5,60
	mv	a0,a5
	call	AllocateZeroPool@plt
	sd	a0,-32(s0)
	.loc 1 879 6
	ld	a5,-32(s0)
	beq	a5,zero,.L168
	.loc 1 880 5
	li	a4,60
	.loc 1 880 74
	ld	a5,-40(s0)
	.loc 1 880 5
	lw	a5,4(a5)
	mv	a3,a5
	lla	a2,.LC27
	mv	a1,a4
	ld	a0,-32(s0)
	call	UnicodeSPrint@plt
.L168:
	.loc 1 883 10
	ld	a5,-32(s0)
	.loc 1 884 1
	mv	a0,a5
	ld	ra,56(sp)
	.cfi_restore 1
	ld	s0,48(sp)
	.cfi_restore 8
	.cfi_def_cfa 2, 64
	addi	sp,sp,64
	.cfi_def_cfa_offset 0
	jr	ra
	.cfi_endproc
.LFE12:
	.size	DriverEfiVersionProtocolDumpInformation, .-DriverEfiVersionProtocolDumpInformation
	.section	.rodata
	.align	3
.LC28:
	.string	"."
	.string	"."
	.zero	2
	.section	.text.ConvertDevicePathToShortText,"ax",@progbits
	.align	1
	.globl	ConvertDevicePathToShortText
	.type	ConvertDevicePathToShortText, @function
ConvertDevicePathToShortText:
.LFB13:
	.loc 1 903 1
	.cfi_startproc
	addi	sp,sp,-80
	.cfi_def_cfa_offset 80
	sd	ra,72(sp)
	sd	s0,64(sp)
	.cfi_offset 1, -8
	.cfi_offset 8, -16
	addi	s0,sp,80
	.cfi_def_cfa 8, 0
	sd	a0,-56(s0)
	mv	a5,a1
	sd	a2,-72(s0)
	sb	a5,-57(s0)
	.loc 1 911 10
	li	a2,1
	li	a1,1
	ld	a0,-56(s0)
	call	ConvertDevicePathToText@plt
	sd	a0,-24(s0)
	.loc 1 912 6
	lbu	a5,-57(s0)
	andi	a5,a5,0xff
	bne	a5,zero,.L171
	.loc 1 912 16 discriminator 1
	ld	a5,-24(s0)
	beq	a5,zero,.L171
	.loc 1 912 46 discriminator 2
	ld	a0,-24(s0)
	call	StrLen@plt
	mv	a4,a0
	.loc 1 912 42 discriminator 3
	ld	a5,-72(s0)
	bgeu	a5,a4,.L171
	.loc 1 913 11
	sd	zero,-32(s0)
	.loc 1 914 10
	sd	zero,-40(s0)
	.loc 1 915 13
	addi	a4,s0,-40
	addi	a5,s0,-32
	li	a3,0
	lla	a2,.LC28
	mv	a1,a4
	mv	a0,a5
	call	StrnCatGrow@plt
	mv	a5,a0
	.loc 1 915 11 discriminator 1
	sd	a5,-32(s0)
	.loc 1 916 47
	ld	a0,-24(s0)
	call	StrLen@plt
	mv	a4,a0
	.loc 1 916 61 discriminator 1
	ld	a5,-72(s0)
	sub	a5,a4,a5
	addi	a5,a5,2
	.loc 1 916 45 discriminator 1
	slli	a5,a5,1
	ld	a4,-24(s0)
	add	a2,a4,a5
	.loc 1 916 13 discriminator 1
	addi	a4,s0,-40
	addi	a5,s0,-32
	li	a3,0
	mv	a1,a4
	mv	a0,a5
	call	StrnCatGrow@plt
	mv	a5,a0
	.loc 1 916 11 discriminator 2
	sd	a5,-32(s0)
	.loc 1 917 5
	ld	a0,-24(s0)
	call	FreePool@plt
	.loc 1 918 10
	ld	a5,-32(s0)
	sd	a5,-24(s0)
.L171:
	.loc 1 921 10
	ld	a5,-24(s0)
	.loc 1 922 1
	mv	a0,a5
	ld	ra,72(sp)
	.cfi_restore 1
	ld	s0,64(sp)
	.cfi_restore 8
	.cfi_def_cfa 2, 80
	addi	sp,sp,80
	.cfi_def_cfa_offset 0
	jr	ra
	.cfi_endproc
.LFE13:
	.size	ConvertDevicePathToShortText, .-ConvertDevicePathToShortText
	.section	.rodata
	.align	3
.LC29:
	.string	" "
	.string	" "
	.zero	2
	.section	.text.DevicePathProtocolDumpInformationEx,"ax",@progbits
	.align	1
	.type	DevicePathProtocolDumpInformationEx, @function
DevicePathProtocolDumpInformationEx:
.LFB14:
	.loc 1 942 1
	.cfi_startproc
	addi	sp,sp,-112
	.cfi_def_cfa_offset 112
	sd	ra,104(sp)
	sd	s0,96(sp)
	sd	s1,88(sp)
	.cfi_offset 1, -8
	.cfi_offset 8, -16
	.cfi_offset 9, -24
	addi	s0,sp,112
	.cfi_def_cfa 8, 0
	sd	a0,-88(s0)
	mv	a5,a1
	sd	a2,-104(s0)
	sb	a5,-89(s0)
	.loc 1 949 14
	sd	zero,-40(s0)
	.loc 1 950 18
	sd	zero,-48(s0)
	.loc 1 951 15
	la	a5,gBS
	ld	a5,0(a5)
	ld	a6,280(a5)
	.loc 1 951 12
	la	a5,gImageHandle
	ld	a3,0(a5)
	addi	a2,s0,-72
	li	a5,2
	li	a4,0
	ld	a1,-104(s0)
	ld	a0,-88(s0)
	jalr	a6
.LVL13:
	sd	a0,-56(s0)
	.loc 1 952 7
	ld	a5,-56(s0)
	.loc 1 952 6
	blt	a5,zero,.L174
	.loc 1 953 18
	ld	a5,-72(s0)
	lbu	a4,-89(s0)
	li	a2,30
	mv	a1,a4
	mv	a0,a5
	call	ConvertDevicePathToShortText
	sd	a0,-40(s0)
	.loc 1 954 8
	lbu	a5,-89(s0)
	andi	a5,a5,0xff
	beq	a5,zero,.L175
	.loc 1 955 14
	ld	a0,-40(s0)
	call	StrSize@plt
	mv	a5,a0
	.loc 1 955 12 discriminator 1
	addi	a5,a5,4
	sd	a5,-64(s0)
	.loc 1 956 24
	ld	a0,-64(s0)
	call	AllocateZeroPool@plt
	sd	a0,-48(s0)
	.loc 1 957 10
	ld	a5,-48(s0)
	beq	a5,zero,.L176
	.loc 1 958 39
	ld	a5,-64(s0)
	srli	a5,a5,1
	.loc 1 958 9
	li	a3,2
	lla	a2,.LC29
	mv	a1,a5
	ld	a0,-48(s0)
	call	StrnCatS@plt
	.loc 1 959 39
	ld	a5,-64(s0)
	srli	s1,a5,1
	.loc 1 959 9
	ld	a0,-40(s0)
	call	StrLen@plt
	mv	a5,a0
	.loc 1 959 9 is_stmt 0 discriminator 1
	mv	a3,a5
	ld	a2,-40(s0)
	mv	a1,s1
	ld	a0,-48(s0)
	call	StrnCatS@plt
.L176:
	.loc 1 962 7 is_stmt 1
	ld	a0,-40(s0)
	call	FreePool@plt
	.loc 1 963 18
	ld	a5,-48(s0)
	sd	a5,-40(s0)
.L175:
	.loc 1 966 8
	la	a5,gBS
	ld	a5,0(a5)
	ld	a5,288(a5)
	.loc 1 966 5
	la	a4,gImageHandle
	ld	a4,0(a4)
	li	a3,0
	mv	a2,a4
	ld	a1,-104(s0)
	ld	a0,-88(s0)
	jalr	a5
.LVL14:
.L174:
	.loc 1 969 10
	ld	a5,-40(s0)
	.loc 1 970 1
	mv	a0,a5
	ld	ra,104(sp)
	.cfi_restore 1
	ld	s0,96(sp)
	.cfi_restore 8
	.cfi_def_cfa 2, 112
	ld	s1,88(sp)
	.cfi_restore 9
	addi	sp,sp,112
	.cfi_def_cfa_offset 0
	jr	ra
	.cfi_endproc
.LFE14:
	.size	DevicePathProtocolDumpInformationEx, .-DevicePathProtocolDumpInformationEx
	.section	.text.DevicePathProtocolDumpInformation,"ax",@progbits
	.align	1
	.globl	DevicePathProtocolDumpInformation
	.type	DevicePathProtocolDumpInformation, @function
DevicePathProtocolDumpInformation:
.LFB15:
	.loc 1 988 1
	.cfi_startproc
	addi	sp,sp,-32
	.cfi_def_cfa_offset 32
	sd	ra,24(sp)
	sd	s0,16(sp)
	.cfi_offset 1, -8
	.cfi_offset 8, -16
	addi	s0,sp,32
	.cfi_def_cfa 8, 0
	sd	a0,-24(s0)
	mv	a5,a1
	sb	a5,-25(s0)
	.loc 1 989 10
	lbu	a5,-25(s0)
	la	a2,gEfiDevicePathProtocolGuid
	mv	a1,a5
	ld	a0,-24(s0)
	call	DevicePathProtocolDumpInformationEx
	mv	a5,a0
	.loc 1 990 1
	mv	a0,a5
	ld	ra,24(sp)
	.cfi_restore 1
	ld	s0,16(sp)
	.cfi_restore 8
	.cfi_def_cfa 2, 32
	addi	sp,sp,32
	.cfi_def_cfa_offset 0
	jr	ra
	.cfi_endproc
.LFE15:
	.size	DevicePathProtocolDumpInformation, .-DevicePathProtocolDumpInformation
	.section	.text.LoadedImageDevicePathProtocolDumpInformation,"ax",@progbits
	.align	1
	.globl	LoadedImageDevicePathProtocolDumpInformation
	.type	LoadedImageDevicePathProtocolDumpInformation, @function
LoadedImageDevicePathProtocolDumpInformation:
.LFB16:
	.loc 1 1008 1
	.cfi_startproc
	addi	sp,sp,-32
	.cfi_def_cfa_offset 32
	sd	ra,24(sp)
	sd	s0,16(sp)
	.cfi_offset 1, -8
	.cfi_offset 8, -16
	addi	s0,sp,32
	.cfi_def_cfa 8, 0
	sd	a0,-24(s0)
	mv	a5,a1
	sb	a5,-25(s0)
	.loc 1 1009 10
	lbu	a5,-25(s0)
	la	a2,gEfiLoadedImageDevicePathProtocolGuid
	mv	a1,a5
	ld	a0,-24(s0)
	call	DevicePathProtocolDumpInformationEx
	mv	a5,a0
	.loc 1 1010 1
	mv	a0,a5
	ld	ra,24(sp)
	.cfi_restore 1
	ld	s0,16(sp)
	.cfi_restore 8
	.cfi_def_cfa 2, 32
	addi	sp,sp,32
	.cfi_def_cfa_offset 0
	jr	ra
	.cfi_endproc
.LFE16:
	.size	LoadedImageDevicePathProtocolDumpInformation, .-LoadedImageDevicePathProtocolDumpInformation
	.section	.text.BusSpecificDriverOverrideProtocolDumpInformation,"ax",@progbits
	.align	1
	.globl	BusSpecificDriverOverrideProtocolDumpInformation
	.type	BusSpecificDriverOverrideProtocolDumpInformation, @function
BusSpecificDriverOverrideProtocolDumpInformation:
.LFB17:
	.loc 1 1028 1
	.cfi_startproc
	addi	sp,sp,-112
	.cfi_def_cfa_offset 112
	sd	ra,104(sp)
	sd	s0,96(sp)
	sd	s1,88(sp)
	.cfi_offset 1, -8
	.cfi_offset 8, -16
	.cfi_offset 9, -24
	addi	s0,sp,112
	.cfi_def_cfa 8, 0
	sd	a0,-104(s0)
	mv	a5,a1
	sb	a5,-105(s0)
	.loc 1 1038 6
	lbu	a5,-105(s0)
	andi	a5,a5,0xff
	bne	a5,zero,.L183
	.loc 1 1039 12
	li	a5,0
	j	.L191
.L183:
	.loc 1 1042 8
	sd	zero,-96(s0)
	.loc 1 1043 13
	sd	zero,-56(s0)
	.loc 1 1044 10
	sd	zero,-64(s0)
	.loc 1 1045 14
	sd	zero,-48(s0)
	.loc 1 1046 15
	sd	zero,-88(s0)
	.loc 1 1048 15
	la	a5,gBS
	ld	a5,0(a5)
	ld	a6,280(a5)
	.loc 1 1048 12
	la	a5,gImageHandle
	ld	a3,0(a5)
	addi	a2,s0,-72
	li	a5,2
	li	a4,0
	la	a1,gEfiBusSpecificDriverOverrideProtocolGuid
	ld	a0,-104(s0)
	jalr	a6
.LVL15:
	sd	a0,-40(s0)
	.loc 1 1056 34
	ld	a5,-40(s0)
	.loc 1 1056 6
	bge	a5,zero,.L185
	.loc 1 1057 12
	li	a5,0
	j	.L191
.L185:
	.loc 1 1060 3
	call	HandleParsingHiiInit
	.loc 1 1061 15
	lla	a5,mHandleParsingHiiHandle
	ld	a5,0(a5)
	li	a2,0
	li	a1,303
	mv	a0,a5
	call	HiiGetString@plt
	sd	a0,-56(s0)
	.loc 1 1062 6
	ld	a5,-56(s0)
	bne	a5,zero,.L186
	.loc 1 1063 12
	li	a5,0
	j	.L191
.L186:
	.loc 1 1067 39
	ld	a5,-72(s0)
	ld	a5,0(a5)
	.loc 1 1067 14
	ld	a4,-72(s0)
	addi	a3,s0,-88
	mv	a1,a3
	mv	a0,a4
	jalr	a5
.LVL16:
	sd	a0,-40(s0)
	.loc 1 1071 9
	ld	a5,-40(s0)
	.loc 1 1071 8
	blt	a5,zero,.L187
	.loc 1 1072 19
	la	a5,gBS
	ld	a5,0(a5)
	ld	a5,152(a5)
	.loc 1 1072 16
	ld	a4,-88(s0)
	addi	a3,s0,-80
	mv	a2,a3
	la	a1,gEfiLoadedImageProtocolGuid
	mv	a0,a4
	jalr	a5
.LVL17:
	sd	a0,-40(s0)
	.loc 1 1077 11
	ld	a5,-40(s0)
	.loc 1 1077 10
	blt	a5,zero,.L187
	.loc 1 1078 22
	ld	a5,-88(s0)
	mv	a0,a5
	call	ConvertHandleToHandleIndex
	mv	s1,a0
	.loc 1 1082 60
	ld	a5,-80(s0)
	ld	a5,32(a5)
	.loc 1 1078 22
	li	a2,1
	li	a1,1
	mv	a0,a5
	call	ConvertDevicePathToText@plt
	mv	a5,a0
	.loc 1 1078 22 is_stmt 0 discriminator 2
	mv	a3,a5
	mv	a2,s1
	ld	a1,-56(s0)
	ld	a0,-48(s0)
	call	CatSPrint@plt
	sd	a0,-48(s0)
	.loc 1 1084 12 is_stmt 1
	ld	a5,-48(s0)
	beq	a5,zero,.L192
	.loc 1 1088 9
	addi	a4,s0,-96
	addi	a5,s0,-64
	li	a3,0
	ld	a2,-48(s0)
	mv	a1,a4
	mv	a0,a5
	call	StrnCatGrow@plt
	.loc 1 1089 17
	ld	a5,-48(s0)
	beq	a5,zero,.L187
	.loc 1 1089 50 discriminator 1
	ld	a0,-48(s0)
	call	FreePool@plt
	.loc 1 1089 87 discriminator 2
	sd	zero,-48(s0)
.L187:
	.loc 1 1092 12
	ld	a5,-40(s0)
	bge	a5,zero,.L186
	j	.L189
.L192:
	.loc 1 1085 11
	nop
.L189:
	.loc 1 1094 11
	ld	a5,-56(s0)
	beq	a5,zero,.L190
	.loc 1 1094 43 discriminator 1
	ld	a0,-56(s0)
	call	FreePool@plt
	.loc 1 1094 78 discriminator 2
	sd	zero,-56(s0)
.L190:
	.loc 1 1095 10
	ld	a5,-64(s0)
.L191:
	.loc 1 1096 1
	mv	a0,a5
	ld	ra,104(sp)
	.cfi_restore 1
	ld	s0,96(sp)
	.cfi_restore 8
	.cfi_def_cfa 2, 112
	ld	s1,88(sp)
	.cfi_restore 9
	addi	sp,sp,112
	.cfi_def_cfa_offset 0
	jr	ra
	.cfi_endproc
.LFE17:
	.size	BusSpecificDriverOverrideProtocolDumpInformation, .-BusSpecificDriverOverrideProtocolDumpInformation
	.section	.rodata
	.align	3
.LC30:
	.string	"R"
	.string	"e"
	.string	"m"
	.string	"o"
	.string	"v"
	.string	"a"
	.string	"b"
	.string	"l"
	.string	"e"
	.string	" "
	.zero	2
	.align	3
.LC31:
	.string	"F"
	.string	"i"
	.string	"x"
	.string	"e"
	.string	"d"
	.string	" "
	.zero	2
	.align	3
.LC32:
	.string	"n"
	.string	"o"
	.string	"t"
	.string	"-"
	.string	"p"
	.string	"r"
	.string	"e"
	.string	"s"
	.string	"e"
	.string	"n"
	.string	"t"
	.string	" "
	.zero	2
	.align	3
.LC33:
	.string	"p"
	.string	"a"
	.string	"r"
	.string	"t"
	.string	"i"
	.string	"t"
	.string	"i"
	.string	"o"
	.string	"n"
	.zero	2
	.align	3
.LC34:
	.string	"r"
	.string	"a"
	.string	"w"
	.zero	2
	.align	3
.LC35:
	.string	"r"
	.string	"o"
	.zero	2
	.align	3
.LC36:
	.string	"r"
	.string	"w"
	.zero	2
	.align	3
.LC37:
	.string	"c"
	.string	"a"
	.string	"c"
	.string	"h"
	.string	"e"
	.string	"d"
	.zero	2
	.align	3
.LC38:
	.string	"!"
	.string	"c"
	.string	"a"
	.string	"c"
	.string	"h"
	.string	"e"
	.string	"d"
	.zero	2
	.section	.text.BlockIoProtocolDumpInformation,"ax",@progbits
	.align	1
	.globl	BlockIoProtocolDumpInformation
	.type	BlockIoProtocolDumpInformation, @function
BlockIoProtocolDumpInformation:
.LFB18:
	.loc 1 1114 1
	.cfi_startproc
	addi	sp,sp,-160
	.cfi_def_cfa_offset 160
	sd	ra,152(sp)
	sd	s0,144(sp)
	sd	s1,136(sp)
	sd	s2,128(sp)
	sd	s3,120(sp)
	sd	s4,112(sp)
	sd	s5,104(sp)
	.cfi_offset 1, -8
	.cfi_offset 8, -16
	.cfi_offset 9, -24
	.cfi_offset 18, -32
	.cfi_offset 19, -40
	.cfi_offset 20, -48
	.cfi_offset 21, -56
	addi	s0,sp,160
	.cfi_def_cfa 8, 0
	sd	a0,-120(s0)
	mv	a5,a1
	sb	a5,-121(s0)
	.loc 1 1121 6
	lbu	a5,-121(s0)
	andi	a5,a5,0xff
	bne	a5,zero,.L194
	.loc 1 1122 12
	li	a5,0
	j	.L209
.L194:
	.loc 1 1125 13
	sd	zero,-72(s0)
	.loc 1 1126 10
	sd	zero,-80(s0)
	.loc 1 1128 15
	la	a5,gBS
	ld	a5,0(a5)
	ld	a6,280(a5)
	.loc 1 1128 12
	la	a5,gImageHandle
	ld	a3,0(a5)
	addi	a2,s0,-104
	li	a5,2
	li	a4,0
	la	a1,gEfiBlockIoProtocolGuid
	ld	a0,-120(s0)
	jalr	a6
.LVL18:
	sd	a0,-88(s0)
	.loc 1 1136 34
	ld	a5,-88(s0)
	.loc 1 1136 6
	bge	a5,zero,.L196
	.loc 1 1137 12
	li	a5,0
	j	.L209
.L196:
	.loc 1 1140 23
	ld	a5,-104(s0)
	.loc 1 1140 14
	ld	a5,8(a5)
	sd	a5,-96(s0)
	.loc 1 1147 10
	ld	a5,-104(s0)
	ld	a5,24(a5)
	.loc 1 1147 3
	ld	a0,-104(s0)
	.loc 1 1149 21
	ld	a4,-104(s0)
	ld	a4,8(a4)
	.loc 1 1147 3
	lw	a1,0(a4)
	li	a4,0
	li	a3,0
	li	a2,0
	jalr	a5
.LVL19:
	.loc 1 1155 3
	call	HandleParsingHiiInit
	.loc 1 1156 15
	lla	a5,mHandleParsingHiiHandle
	ld	a5,0(a5)
	li	a2,0
	li	a1,285
	mv	a0,a5
	call	HiiGetString@plt
	sd	a0,-72(s0)
	.loc 1 1157 6
	ld	a5,-72(s0)
	bne	a5,zero,.L197
	.loc 1 1158 12
	li	a5,0
	j	.L209
.L197:
	.loc 1 1164 24
	ld	a5,-96(s0)
	lbu	a5,4(a5)
	.loc 1 1161 12
	beq	a5,zero,.L198
	.loc 1 1161 12 is_stmt 0 discriminator 1
	lla	s1,.LC30
	j	.L199
.L198:
	.loc 1 1161 12 discriminator 2
	lla	s1,.LC31
.L199:
	.loc 1 1165 24 is_stmt 1
	ld	a5,-96(s0)
	lbu	a5,5(a5)
	.loc 1 1161 12 discriminator 4
	beq	a5,zero,.L200
	.loc 1 1161 12 is_stmt 0 discriminator 5
	lla	s2,.LC26
	j	.L201
.L200:
	.loc 1 1161 12 discriminator 6
	lla	s2,.LC32
.L201:
	.loc 1 1161 12 discriminator 8
	ld	a5,-96(s0)
	lw	s3,0(a5)
	ld	a5,-96(s0)
	lw	s4,12(a5)
	ld	a5,-96(s0)
	ld	s5,24(a5)
	.loc 1 1169 36 is_stmt 1
	ld	a5,-96(s0)
	ld	a5,24(a5)
	.loc 1 1169 48
	addi	a4,a5,1
	.loc 1 1161 12 discriminator 8
	ld	a5,-96(s0)
	lw	a5,12(a5)
	mv	a1,a5
	mv	a0,a4
	call	MultU64x32@plt
	mv	a2,a0
	.loc 1 1170 24
	ld	a5,-96(s0)
	lbu	a5,6(a5)
	.loc 1 1161 12 discriminator 8
	beq	a5,zero,.L202
	.loc 1 1161 12 is_stmt 0 discriminator 10
	lla	a5,.LC33
	j	.L203
.L202:
	.loc 1 1161 12 discriminator 11
	lla	a5,.LC34
.L203:
	.loc 1 1171 24 is_stmt 1
	ld	a4,-96(s0)
	lbu	a4,7(a4)
	.loc 1 1161 12 discriminator 13
	beq	a4,zero,.L204
	.loc 1 1161 12 is_stmt 0 discriminator 14
	lla	a4,.LC35
	j	.L205
.L204:
	.loc 1 1161 12 discriminator 15
	lla	a4,.LC36
.L205:
	.loc 1 1172 24 is_stmt 1
	ld	a3,-96(s0)
	lbu	a3,8(a3)
	.loc 1 1161 12 discriminator 17
	beq	a3,zero,.L206
	.loc 1 1161 12 is_stmt 0 discriminator 18
	lla	a3,.LC37
	j	.L207
.L206:
	.loc 1 1161 12 discriminator 19
	lla	a3,.LC38
.L207:
	.loc 1 1161 12 discriminator 21
	sd	a3,16(sp)
	sd	a4,8(sp)
	sd	a5,0(sp)
	mv	a7,a2
	mv	a6,s5
	mv	a5,s4
	mv	a4,s3
	mv	a3,s2
	mv	a2,s1
	ld	a1,-72(s0)
	ld	a0,-80(s0)
	call	CatSPrint@plt
	sd	a0,-80(s0)
	.loc 1 1175 11 is_stmt 1
	ld	a5,-72(s0)
	beq	a5,zero,.L208
	.loc 1 1175 43 discriminator 1
	ld	a0,-72(s0)
	call	FreePool@plt
	.loc 1 1175 78 discriminator 2
	sd	zero,-72(s0)
.L208:
	.loc 1 1176 10
	ld	a5,-80(s0)
.L209:
	.loc 1 1177 1
	mv	a0,a5
	ld	ra,152(sp)
	.cfi_restore 1
	ld	s0,144(sp)
	.cfi_restore 8
	.cfi_def_cfa 2, 160
	ld	s1,136(sp)
	.cfi_restore 9
	ld	s2,128(sp)
	.cfi_restore 18
	ld	s3,120(sp)
	.cfi_restore 19
	ld	s4,112(sp)
	.cfi_restore 20
	ld	s5,104(sp)
	.cfi_restore 21
	addi	sp,sp,160
	.cfi_def_cfa_offset 0
	jr	ra
	.cfi_endproc
.LFE18:
	.size	BlockIoProtocolDumpInformation, .-BlockIoProtocolDumpInformation
	.section	.rodata
	.align	3
.LC39:
	.string	"I"
	.string	"A"
	.string	"-"
	.string	"3"
	.string	"2"
	.zero	2
	.align	3
.LC40:
	.string	"I"
	.string	"P"
	.string	"F"
	.zero	2
	.align	3
.LC41:
	.string	"E"
	.string	"B"
	.string	"C"
	.zero	2
	.section	.text.DebugSupportProtocolDumpInformation,"ax",@progbits
	.align	1
	.globl	DebugSupportProtocolDumpInformation
	.type	DebugSupportProtocolDumpInformation, @function
DebugSupportProtocolDumpInformation:
.LFB19:
	.loc 1 1193 1
	.cfi_startproc
	addi	sp,sp,-64
	.cfi_def_cfa_offset 64
	sd	ra,56(sp)
	sd	s0,48(sp)
	.cfi_offset 1, -8
	.cfi_offset 8, -16
	addi	s0,sp,64
	.cfi_def_cfa 8, 0
	sd	a0,-56(s0)
	mv	a5,a1
	sb	a5,-57(s0)
	.loc 1 1199 6
	lbu	a5,-57(s0)
	andi	a5,a5,0xff
	bne	a5,zero,.L211
	.loc 1 1200 12
	li	a5,0
	j	.L224
.L211:
	.loc 1 1203 13
	sd	zero,-24(s0)
	.loc 1 1204 10
	sd	zero,-32(s0)
	.loc 1 1205 15
	la	a5,gBS
	ld	a5,0(a5)
	ld	a6,280(a5)
	.loc 1 1205 12
	la	a5,gImageHandle
	ld	a3,0(a5)
	addi	a2,s0,-48
	li	a5,2
	li	a4,0
	la	a1,gEfiDebugSupportProtocolGuid
	ld	a0,-56(s0)
	jalr	a6
.LVL20:
	sd	a0,-40(s0)
	.loc 1 1213 34
	ld	a5,-40(s0)
	.loc 1 1213 6
	bge	a5,zero,.L213
	.loc 1 1214 12
	li	a5,0
	j	.L224
.L213:
	.loc 1 1217 3
	call	HandleParsingHiiInit
	.loc 1 1218 15
	lla	a5,mHandleParsingHiiHandle
	ld	a5,0(a5)
	li	a2,0
	li	a1,286
	mv	a0,a5
	call	HiiGetString@plt
	sd	a0,-24(s0)
	.loc 1 1219 6
	ld	a5,-24(s0)
	bne	a5,zero,.L214
	.loc 1 1220 12
	li	a5,0
	j	.L224
.L214:
	.loc 1 1226 23
	ld	a5,-48(s0)
	lw	a5,0(a5)
	.loc 1 1226 3
	li	a4,4096
	addi	a4,a4,-324
	beq	a5,a4,.L215
	li	a4,4096
	addi	a4,a4,-324
	bgtu	a5,a4,.L216
	li	a4,332
	beq	a5,a4,.L217
	li	a4,512
	beq	a5,a4,.L218
	j	.L216
.L217:
	.loc 1 1228 16
	lla	a2,.LC39
	ld	a1,-24(s0)
	ld	a0,-32(s0)
	call	CatSPrint@plt
	sd	a0,-32(s0)
	.loc 1 1229 7
	j	.L219
.L218:
	.loc 1 1231 16
	lla	a2,.LC40
	ld	a1,-24(s0)
	ld	a0,-32(s0)
	call	CatSPrint@plt
	sd	a0,-32(s0)
	.loc 1 1232 7
	j	.L219
.L215:
	.loc 1 1234 16
	lla	a2,.LC41
	ld	a1,-24(s0)
	ld	a0,-32(s0)
	call	CatSPrint@plt
	sd	a0,-32(s0)
	.loc 1 1235 7
	j	.L219
.L216:
	.loc 1 1237 15
	ld	a5,-24(s0)
	beq	a5,zero,.L220
	.loc 1 1237 47 discriminator 1
	ld	a0,-24(s0)
	call	FreePool@plt
	.loc 1 1237 82 discriminator 2
	sd	zero,-24(s0)
.L220:
	.loc 1 1238 19
	lla	a5,mHandleParsingHiiHandle
	ld	a5,0(a5)
	li	a2,0
	li	a1,287
	mv	a0,a5
	call	HiiGetString@plt
	sd	a0,-24(s0)
	.loc 1 1239 93
	ld	a5,-24(s0)
	beq	a5,zero,.L221
	.loc 1 1239 86 discriminator 1
	ld	a5,-48(s0)
	lw	a5,0(a5)
	.loc 1 1239 44 discriminator 1
	mv	a2,a5
	ld	a1,-24(s0)
	ld	a0,-32(s0)
	call	CatSPrint@plt
	sd	a0,-32(s0)
	.loc 1 1240 7
	j	.L225
.L221:
	.loc 1 1239 14 discriminator 2
	sd	zero,-32(s0)
.L225:
	.loc 1 1240 7
	nop
.L219:
	.loc 1 1243 11
	ld	a5,-24(s0)
	beq	a5,zero,.L223
	.loc 1 1243 43 discriminator 1
	ld	a0,-24(s0)
	call	FreePool@plt
	.loc 1 1243 78 discriminator 2
	sd	zero,-24(s0)
.L223:
	.loc 1 1244 10
	ld	a5,-32(s0)
.L224:
	.loc 1 1245 1
	mv	a0,a5
	ld	ra,56(sp)
	.cfi_restore 1
	ld	s0,48(sp)
	.cfi_restore 8
	.cfi_def_cfa 2, 64
	addi	sp,sp,64
	.cfi_def_cfa_offset 0
	jr	ra
	.cfi_endproc
.LFE19:
	.size	DebugSupportProtocolDumpInformation, .-DebugSupportProtocolDumpInformation
	.section	.rodata
	.align	3
.LC42:
	.string	"\r"
	.string	"\n"
	.string	" "
	.string	" "
	.string	" "
	.string	" "
	.string	" "
	.string	" "
	.string	" "
	.string	"%"
	.string	"0"
	.string	"2"
	.string	"x"
	.zero	2
	.align	3
.LC43:
	.string	"%"
	.string	"0"
	.string	"2"
	.string	"x"
	.zero	2
	.section	.text.PciIoProtocolDumpInformation,"ax",@progbits
	.align	1
	.globl	PciIoProtocolDumpInformation
	.type	PciIoProtocolDumpInformation, @function
PciIoProtocolDumpInformation:
.LFB20:
	.loc 1 1263 1
	.cfi_startproc
	addi	sp,sp,-224
	.cfi_def_cfa_offset 224
	sd	ra,216(sp)
	sd	s0,208(sp)
	.cfi_offset 1, -8
	.cfi_offset 8, -16
	addi	s0,sp,224
	.cfi_def_cfa 8, 0
	sd	a0,-168(s0)
	mv	a5,a1
	sb	a5,-169(s0)
	.loc 1 1276 6
	lbu	a5,-169(s0)
	andi	a5,a5,0xff
	bne	a5,zero,.L227
	.loc 1 1277 12
	li	a5,0
	j	.L236
.L227:
	.loc 1 1280 10
	sd	zero,-40(s0)
	.loc 1 1281 13
	sd	zero,-48(s0)
	.loc 1 1282 14
	sd	zero,-32(s0)
	.loc 1 1283 15
	la	a5,gBS
	ld	a5,0(a5)
	ld	a6,280(a5)
	.loc 1 1283 12
	la	a5,gImageHandle
	ld	a3,0(a5)
	addi	a2,s0,-64
	li	a5,2
	li	a4,0
	la	a1,gEfiPciIoProtocolGuid
	ld	a0,-168(s0)
	jalr	a6
.LVL21:
	sd	a0,-56(s0)
	.loc 1 1292 34
	ld	a5,-56(s0)
	.loc 1 1292 6
	bge	a5,zero,.L229
	.loc 1 1293 12
	li	a5,0
	j	.L236
.L229:
	.loc 1 1296 8
	ld	a5,-64(s0)
	.loc 1 1296 13
	ld	a5,48(a5)
	.loc 1 1296 3
	ld	a0,-64(s0)
	addi	a4,s0,-128
	li	a3,64
	li	a2,0
	li	a1,0
	jalr	a5
.LVL22:
	.loc 1 1297 8
	ld	a5,-64(s0)
	ld	a5,112(a5)
	.loc 1 1297 3
	ld	a0,-64(s0)
	addi	a4,s0,-160
	addi	a3,s0,-152
	addi	a2,s0,-144
	addi	a1,s0,-136
	jalr	a5
.LVL23:
	.loc 1 1298 3
	call	HandleParsingHiiInit
	.loc 1 1299 15
	lla	a5,mHandleParsingHiiHandle
	ld	a5,0(a5)
	li	a2,0
	li	a1,296
	mv	a0,a5
	call	HiiGetString@plt
	sd	a0,-48(s0)
	.loc 1 1300 6
	ld	a5,-48(s0)
	bne	a5,zero,.L230
	.loc 1 1301 12
	li	a5,0
	j	.L236
.L230:
	.loc 1 1304 12
	ld	a0,-136(s0)
	ld	t1,-144(s0)
	ld	t3,-152(s0)
	ld	t4,-160(s0)
	.loc 1 1311 19
	ld	a5,-64(s0)
	.loc 1 1304 12
	ld	a6,144(a5)
	.loc 1 1312 19
	ld	a5,-64(s0)
	.loc 1 1304 12
	ld	a7,152(a5)
	.loc 1 1313 21
	lhu	a5,-128(s0)
	.loc 1 1304 12
	sext.w	a5,a5
	.loc 1 1314 21
	lhu	a4,-126(s0)
	.loc 1 1304 12
	sext.w	a4,a4
	.loc 1 1315 31
	lbu	a3,-119(s0)
	.loc 1 1304 12
	sext.w	a3,a3
	.loc 1 1316 31
	lbu	a2,-118(s0)
	.loc 1 1304 12
	sext.w	a2,a2
	.loc 1 1317 31
	lbu	a1,-117(s0)
	.loc 1 1304 12
	sext.w	a1,a1
	sd	a1,32(sp)
	sd	a2,24(sp)
	sd	a3,16(sp)
	sd	a4,8(sp)
	sd	a5,0(sp)
	mv	a5,t4
	mv	a4,t3
	mv	a3,t1
	mv	a2,a0
	ld	a1,-48(s0)
	li	a0,0
	call	CatSPrint@plt
	sd	a0,-40(s0)
	.loc 1 1319 6
	ld	a5,-40(s0)
	bne	a5,zero,.L231
	.loc 1 1320 5
	ld	a0,-48(s0)
	call	FreePool@plt
	.loc 1 1321 12
	li	a5,0
	j	.L236
.L231:
	.loc 1 1324 14
	sd	zero,-24(s0)
	.loc 1 1324 3
	j	.L232
.L235:
	.loc 1 1325 16
	ld	a5,-24(s0)
	andi	a5,a5,15
	.loc 1 1325 8
	bne	a5,zero,.L233
	.loc 1 1326 77
	addi	a4,s0,-128
	ld	a5,-24(s0)
	add	a5,a4,a5
	.loc 1 1326 59
	lbu	a5,0(a5)
	.loc 1 1326 20
	sext.w	a5,a5
	mv	a2,a5
	lla	a1,.LC42
	ld	a0,-40(s0)
	call	CatSPrint@plt
	sd	a0,-32(s0)
	j	.L234
.L233:
	.loc 1 1328 66
	addi	a4,s0,-128
	ld	a5,-24(s0)
	add	a5,a4,a5
	.loc 1 1328 48
	lbu	a5,0(a5)
	.loc 1 1328 20
	sext.w	a5,a5
	mv	a2,a5
	lla	a1,.LC43
	ld	a0,-40(s0)
	call	CatSPrint@plt
	sd	a0,-32(s0)
.L234:
	.loc 1 1331 5
	ld	a0,-40(s0)
	call	FreePool@plt
	.loc 1 1332 12
	ld	a5,-32(s0)
	sd	a5,-40(s0)
	.loc 1 1333 16
	sd	zero,-32(s0)
	.loc 1 1324 46 discriminator 2
	ld	a5,-24(s0)
	addi	a5,a5,1
	sd	a5,-24(s0)
.L232:
	.loc 1 1324 25 discriminator 1
	ld	a4,-24(s0)
	li	a5,63
	bleu	a4,a5,.L235
	.loc 1 1336 3
	ld	a0,-48(s0)
	call	FreePool@plt
	.loc 1 1337 10
	ld	a5,-40(s0)
.L236:
	.loc 1 1338 1
	mv	a0,a5
	ld	ra,216(sp)
	.cfi_restore 1
	ld	s0,208(sp)
	.cfi_restore 8
	.cfi_def_cfa 2, 224
	addi	sp,sp,224
	.cfi_def_cfa_offset 0
	jr	ra
	.cfi_endproc
.LFE20:
	.size	PciIoProtocolDumpInformation, .-PciIoProtocolDumpInformation
	.section	.text.UsbIoProtocolDumpInformation,"ax",@progbits
	.align	1
	.globl	UsbIoProtocolDumpInformation
	.type	UsbIoProtocolDumpInformation, @function
UsbIoProtocolDumpInformation:
.LFB21:
	.loc 1 1356 1
	.cfi_startproc
	addi	sp,sp,-80
	.cfi_def_cfa_offset 80
	sd	ra,72(sp)
	sd	s0,64(sp)
	.cfi_offset 1, -8
	.cfi_offset 8, -16
	addi	s0,sp,80
	.cfi_def_cfa 8, 0
	sd	a0,-72(s0)
	mv	a5,a1
	sb	a5,-73(s0)
	.loc 1 1363 6
	lbu	a5,-73(s0)
	andi	a5,a5,0xff
	bne	a5,zero,.L238
	.loc 1 1364 12
	li	a5,0
	j	.L242
.L238:
	.loc 1 1367 10
	sd	zero,-24(s0)
	.loc 1 1368 13
	sd	zero,-32(s0)
	.loc 1 1369 15
	la	a5,gBS
	ld	a5,0(a5)
	ld	a6,280(a5)
	.loc 1 1369 12
	la	a5,gImageHandle
	ld	a3,0(a5)
	addi	a2,s0,-48
	li	a5,2
	li	a4,0
	la	a1,gEfiUsbIoProtocolGuid
	ld	a0,-72(s0)
	jalr	a6
.LVL24:
	sd	a0,-40(s0)
	.loc 1 1378 34
	ld	a5,-40(s0)
	.loc 1 1378 6
	bge	a5,zero,.L240
	.loc 1 1379 12
	li	a5,0
	j	.L242
.L240:
	.loc 1 1382 8
	ld	a5,-48(s0)
	ld	a5,64(a5)
	.loc 1 1382 3
	ld	a4,-48(s0)
	addi	a3,s0,-64
	mv	a1,a3
	mv	a0,a4
	jalr	a5
.LVL25:
	.loc 1 1383 3
	call	HandleParsingHiiInit
	.loc 1 1384 15
	lla	a5,mHandleParsingHiiHandle
	ld	a5,0(a5)
	li	a2,0
	li	a1,297
	mv	a0,a5
	call	HiiGetString@plt
	sd	a0,-32(s0)
	.loc 1 1385 6
	ld	a5,-32(s0)
	bne	a5,zero,.L241
	.loc 1 1386 12
	li	a5,0
	j	.L242
.L241:
	.loc 1 1392 27
	lbu	a5,-62(s0)
	.loc 1 1389 12
	sext.w	a2,a5
	.loc 1 1393 27
	lbu	a5,-59(s0)
	.loc 1 1389 12
	sext.w	a3,a5
	.loc 1 1394 27
	lbu	a5,-58(s0)
	.loc 1 1389 12
	sext.w	a4,a5
	.loc 1 1395 27
	lbu	a5,-57(s0)
	.loc 1 1389 12
	sext.w	a5,a5
	ld	a1,-32(s0)
	li	a0,0
	call	CatSPrint@plt
	sd	a0,-24(s0)
	.loc 1 1398 3
	ld	a0,-32(s0)
	call	FreePool@plt
	.loc 1 1399 10
	ld	a5,-24(s0)
.L242:
	.loc 1 1400 1
	mv	a0,a5
	ld	ra,72(sp)
	.cfi_restore 1
	ld	s0,64(sp)
	.cfi_restore 8
	.cfi_def_cfa 2, 80
	addi	sp,sp,80
	.cfi_def_cfa_offset 0
	jr	ra
	.cfi_endproc
.LFE21:
	.size	UsbIoProtocolDumpInformation, .-UsbIoProtocolDumpInformation
	.section	.rodata
	.align	3
.LC44:
	.string	"A"
	.string	"d"
	.string	"a"
	.string	"p"
	.string	"t"
	.string	"e"
	.string	"r"
	.string	"I"
	.string	"n"
	.string	"f"
	.string	"o"
	.zero	2
	.align	3
.LC45:
	.string	"g"
	.string	"E"
	.string	"f"
	.string	"i"
	.string	"A"
	.string	"d"
	.string	"a"
	.string	"p"
	.string	"t"
	.string	"e"
	.string	"r"
	.string	"I"
	.string	"n"
	.string	"f"
	.string	"o"
	.string	"M"
	.string	"e"
	.string	"d"
	.string	"i"
	.string	"a"
	.string	"S"
	.string	"t"
	.string	"a"
	.string	"t"
	.string	"e"
	.string	"G"
	.string	"u"
	.string	"i"
	.string	"d"
	.zero	2
	.align	3
.LC46:
	.string	"g"
	.string	"E"
	.string	"f"
	.string	"i"
	.string	"A"
	.string	"d"
	.string	"a"
	.string	"p"
	.string	"t"
	.string	"e"
	.string	"r"
	.string	"I"
	.string	"n"
	.string	"f"
	.string	"o"
	.string	"N"
	.string	"e"
	.string	"t"
	.string	"w"
	.string	"o"
	.string	"r"
	.string	"k"
	.string	"B"
	.string	"o"
	.string	"o"
	.string	"t"
	.string	"G"
	.string	"u"
	.string	"i"
	.string	"d"
	.zero	2
	.align	3
.LC47:
	.string	"g"
	.string	"E"
	.string	"f"
	.string	"i"
	.string	"A"
	.string	"d"
	.string	"a"
	.string	"p"
	.string	"t"
	.string	"e"
	.string	"r"
	.string	"I"
	.string	"n"
	.string	"f"
	.string	"o"
	.string	"S"
	.string	"a"
	.string	"n"
	.string	"M"
	.string	"a"
	.string	"c"
	.string	"A"
	.string	"d"
	.string	"d"
	.string	"r"
	.string	"e"
	.string	"s"
	.string	"s"
	.string	"G"
	.string	"u"
	.string	"i"
	.string	"d"
	.zero	2
	.align	3
.LC48:
	.string	"g"
	.string	"E"
	.string	"f"
	.string	"i"
	.string	"A"
	.string	"d"
	.string	"a"
	.string	"p"
	.string	"t"
	.string	"e"
	.string	"r"
	.string	"I"
	.string	"n"
	.string	"f"
	.string	"o"
	.string	"U"
	.string	"n"
	.string	"d"
	.string	"i"
	.string	"I"
	.string	"p"
	.string	"v"
	.string	"6"
	.string	"S"
	.string	"u"
	.string	"p"
	.string	"p"
	.string	"o"
	.string	"r"
	.string	"t"
	.string	"G"
	.string	"u"
	.string	"i"
	.string	"d"
	.zero	2
	.align	3
.LC49:
	.string	"U"
	.string	"n"
	.string	"k"
	.string	"n"
	.string	"o"
	.string	"w"
	.string	"n"
	.string	"I"
	.string	"n"
	.string	"f"
	.string	"o"
	.string	"T"
	.string	"y"
	.string	"p"
	.string	"e"
	.zero	2
	.section	.text.AdapterInformationDumpInformation,"ax",@progbits
	.align	1
	.globl	AdapterInformationDumpInformation
	.type	AdapterInformationDumpInformation, @function
AdapterInformationDumpInformation:
.LFB22:
	.loc 1 1416 1
	.cfi_startproc
	addi	sp,sp,-144
	.cfi_def_cfa_offset 144
	sd	ra,136(sp)
	sd	s0,128(sp)
	.cfi_offset 1, -8
	.cfi_offset 8, -16
	addi	s0,sp,144
	.cfi_def_cfa 8, 0
	sd	a0,-120(s0)
	mv	a5,a1
	sb	a5,-121(s0)
	.loc 1 1429 6
	lbu	a5,-121(s0)
	andi	a5,a5,0xff
	bne	a5,zero,.L244
	.loc 1 1430 13
	lla	a1,.LC44
	li	a0,0
	call	CatSPrint@plt
	mv	a5,a0
	j	.L299
.L244:
	.loc 1 1433 19
	sd	zero,-88(s0)
	.loc 1 1434 20
	sd	zero,-96(s0)
	.loc 1 1436 15
	la	a5,gBS
	ld	a5,0(a5)
	ld	a6,280(a5)
	.loc 1 1436 12
	addi	a2,s0,-72
	li	a5,2
	li	a4,0
	li	a3,0
	la	a1,gEfiAdapterInformationProtocolGuid
	ld	a0,-120(s0)
	jalr	a6
.LVL26:
	sd	a0,-48(s0)
	.loc 1 1445 34
	ld	a5,-48(s0)
	.loc 1 1445 6
	bge	a5,zero,.L246
	.loc 1 1446 12
	li	a5,0
	j	.L299
.L246:
	.loc 1 1452 32
	ld	a5,-72(s0)
	ld	a5,16(a5)
	.loc 1 1452 12
	ld	a4,-72(s0)
	addi	a2,s0,-80
	addi	a3,s0,-88
	mv	a1,a3
	mv	a0,a4
	jalr	a5
.LVL27:
	sd	a0,-48(s0)
	.loc 1 1457 10
	sd	zero,-40(s0)
	.loc 1 1458 34
	ld	a5,-48(s0)
	.loc 1 1458 6
	bge	a5,zero,.L247
	.loc 1 1459 15
	lla	a5,mHandleParsingHiiHandle
	ld	a5,0(a5)
	li	a2,0
	li	a1,308
	mv	a0,a5
	call	HiiGetString@plt
	sd	a0,-32(s0)
	.loc 1 1460 8
	ld	a5,-32(s0)
	beq	a5,zero,.L300
	.loc 1 1461 16
	ld	a2,-48(s0)
	ld	a1,-32(s0)
	li	a0,0
	call	CatSPrint@plt
	sd	a0,-40(s0)
	j	.L249
.L247:
	.loc 1 1466 15
	lla	a5,mHandleParsingHiiHandle
	ld	a5,0(a5)
	li	a2,0
	li	a1,309
	mv	a0,a5
	call	HiiGetString@plt
	sd	a0,-32(s0)
	.loc 1 1467 8
	ld	a5,-32(s0)
	beq	a5,zero,.L301
	.loc 1 1471 14
	ld	a1,-32(s0)
	li	a0,0
	call	CatSPrint@plt
	sd	a0,-40(s0)
	.loc 1 1472 8
	ld	a5,-40(s0)
	beq	a5,zero,.L302
	.loc 1 1476 13
	ld	a5,-32(s0)
	beq	a5,zero,.L253
	.loc 1 1476 43 discriminator 1
	ld	a0,-32(s0)
	call	FreePool@plt
	.loc 1 1476 74 discriminator 2
	sd	zero,-32(s0)
.L253:
	.loc 1 1478 20
	sd	zero,-24(s0)
	.loc 1 1478 5
	j	.L254
.L294:
	.loc 1 1479 17
	lla	a5,mHandleParsingHiiHandle
	ld	a5,0(a5)
	li	a2,0
	li	a1,310
	mv	a0,a5
	call	HiiGetString@plt
	sd	a0,-32(s0)
	.loc 1 1480 10
	ld	a5,-32(s0)
	beq	a5,zero,.L303
	.loc 1 1484 20
	ld	a5,-24(s0)
	addi	a2,a5,1
	ld	a4,-88(s0)
	.loc 1 1484 81
	ld	a5,-24(s0)
	slli	a5,a5,4
	.loc 1 1484 20
	add	a5,a4,a5
	mv	a3,a5
	ld	a1,-32(s0)
	ld	a0,-40(s0)
	call	CatSPrint@plt
	sd	a0,-56(s0)
	.loc 1 1485 15
	ld	a5,-40(s0)
	beq	a5,zero,.L256
	.loc 1 1485 44 discriminator 1
	ld	a0,-40(s0)
	call	FreePool@plt
	.loc 1 1485 73 discriminator 2
	sd	zero,-40(s0)
.L256:
	.loc 1 1486 14
	ld	a5,-56(s0)
	sd	a5,-40(s0)
	.loc 1 1487 15
	ld	a5,-32(s0)
	beq	a5,zero,.L257
	.loc 1 1487 45 discriminator 1
	ld	a0,-32(s0)
	call	FreePool@plt
	.loc 1 1487 76 discriminator 2
	sd	zero,-32(s0)
.L257:
	.loc 1 1489 17
	lla	a5,mHandleParsingHiiHandle
	ld	a5,0(a5)
	li	a2,0
	li	a1,311
	mv	a0,a5
	call	HiiGetString@plt
	sd	a0,-32(s0)
	.loc 1 1490 10
	ld	a5,-32(s0)
	beq	a5,zero,.L304
	.loc 1 1494 11
	ld	a4,-88(s0)
	.loc 1 1494 40
	ld	a5,-24(s0)
	slli	a5,a5,4
	.loc 1 1494 24
	add	a5,a4,a5
	.loc 1 1494 11
	la	a1,gEfiAdapterInfoMediaStateGuid
	mv	a0,a5
	call	CompareGuid@plt
	mv	a5,a0
	.loc 1 1494 10 discriminator 1
	beq	a5,zero,.L259
	.loc 1 1495 22
	lla	a2,.LC45
	ld	a1,-32(s0)
	ld	a0,-40(s0)
	call	CatSPrint@plt
	sd	a0,-56(s0)
	.loc 1 1496 17
	ld	a5,-40(s0)
	beq	a5,zero,.L260
	.loc 1 1496 46 discriminator 1
	ld	a0,-40(s0)
	call	FreePool@plt
	.loc 1 1496 75 discriminator 2
	sd	zero,-40(s0)
.L260:
	.loc 1 1497 16
	ld	a5,-56(s0)
	sd	a5,-40(s0)
	j	.L261
.L259:
	.loc 1 1498 18
	ld	a4,-88(s0)
	.loc 1 1498 47
	ld	a5,-24(s0)
	slli	a5,a5,4
	.loc 1 1498 31
	add	a5,a4,a5
	.loc 1 1498 18
	la	a1,gEfiAdapterInfoNetworkBootGuid
	mv	a0,a5
	call	CompareGuid@plt
	mv	a5,a0
	.loc 1 1498 17 discriminator 1
	beq	a5,zero,.L262
	.loc 1 1499 22
	lla	a2,.LC46
	ld	a1,-32(s0)
	ld	a0,-40(s0)
	call	CatSPrint@plt
	sd	a0,-56(s0)
	.loc 1 1500 17
	ld	a5,-40(s0)
	beq	a5,zero,.L263
	.loc 1 1500 46 discriminator 1
	ld	a0,-40(s0)
	call	FreePool@plt
	.loc 1 1500 75 discriminator 2
	sd	zero,-40(s0)
.L263:
	.loc 1 1501 16
	ld	a5,-56(s0)
	sd	a5,-40(s0)
	j	.L261
.L262:
	.loc 1 1502 18
	ld	a4,-88(s0)
	.loc 1 1502 47
	ld	a5,-24(s0)
	slli	a5,a5,4
	.loc 1 1502 31
	add	a5,a4,a5
	.loc 1 1502 18
	la	a1,gEfiAdapterInfoSanMacAddressGuid
	mv	a0,a5
	call	CompareGuid@plt
	mv	a5,a0
	.loc 1 1502 17 discriminator 1
	beq	a5,zero,.L264
	.loc 1 1503 22
	lla	a2,.LC47
	ld	a1,-32(s0)
	ld	a0,-40(s0)
	call	CatSPrint@plt
	sd	a0,-56(s0)
	.loc 1 1504 17
	ld	a5,-40(s0)
	beq	a5,zero,.L265
	.loc 1 1504 46 discriminator 1
	ld	a0,-40(s0)
	call	FreePool@plt
	.loc 1 1504 75 discriminator 2
	sd	zero,-40(s0)
.L265:
	.loc 1 1505 16
	ld	a5,-56(s0)
	sd	a5,-40(s0)
	j	.L261
.L264:
	.loc 1 1506 18
	ld	a4,-88(s0)
	.loc 1 1506 47
	ld	a5,-24(s0)
	slli	a5,a5,4
	.loc 1 1506 31
	add	a5,a4,a5
	.loc 1 1506 18
	la	a1,gEfiAdapterInfoUndiIpv6SupportGuid
	mv	a0,a5
	call	CompareGuid@plt
	mv	a5,a0
	.loc 1 1506 17 discriminator 1
	beq	a5,zero,.L266
	.loc 1 1507 22
	lla	a2,.LC48
	ld	a1,-32(s0)
	ld	a0,-40(s0)
	call	CatSPrint@plt
	sd	a0,-56(s0)
	.loc 1 1508 17
	ld	a5,-40(s0)
	beq	a5,zero,.L267
	.loc 1 1508 46 discriminator 1
	ld	a0,-40(s0)
	call	FreePool@plt
	.loc 1 1508 75 discriminator 2
	sd	zero,-40(s0)
.L267:
	.loc 1 1509 16
	ld	a5,-56(s0)
	sd	a5,-40(s0)
	j	.L261
.L266:
	.loc 1 1511 19
	ld	a4,-88(s0)
	.loc 1 1511 58
	ld	a5,-24(s0)
	slli	a5,a5,4
	.loc 1 1511 42
	add	a5,a4,a5
	.loc 1 1511 19
	li	a1,0
	mv	a0,a5
	call	GetStringNameFromGuid
	sd	a0,-64(s0)
	.loc 1 1512 12
	ld	a5,-64(s0)
	bne	a5,zero,.L268
	.loc 1 1513 24
	lla	a2,.LC49
	ld	a1,-32(s0)
	ld	a0,-40(s0)
	call	CatSPrint@plt
	sd	a0,-56(s0)
	.loc 1 1514 19
	ld	a5,-40(s0)
	beq	a5,zero,.L269
	.loc 1 1514 48 discriminator 1
	ld	a0,-40(s0)
	call	FreePool@plt
	.loc 1 1514 77 discriminator 2
	sd	zero,-40(s0)
.L269:
	.loc 1 1515 18
	ld	a5,-56(s0)
	sd	a5,-40(s0)
	.loc 1 1517 19
	ld	a5,-32(s0)
	beq	a5,zero,.L270
	.loc 1 1517 49 discriminator 1
	ld	a0,-32(s0)
	call	FreePool@plt
	.loc 1 1517 80 discriminator 2
	sd	zero,-32(s0)
.L270:
	.loc 1 1518 19
	ld	a5,-64(s0)
	beq	a5,zero,.L305
	.loc 1 1518 49 discriminator 1
	ld	a0,-64(s0)
	call	FreePool@plt
	.loc 1 1518 80 discriminator 2
	sd	zero,-64(s0)
	.loc 1 1522 11
	j	.L305
.L268:
	.loc 1 1524 24
	ld	a2,-64(s0)
	ld	a1,-32(s0)
	ld	a0,-40(s0)
	call	CatSPrint@plt
	sd	a0,-56(s0)
	.loc 1 1525 19
	ld	a5,-40(s0)
	beq	a5,zero,.L273
	.loc 1 1525 48 discriminator 1
	ld	a0,-40(s0)
	call	FreePool@plt
	.loc 1 1525 77 discriminator 2
	sd	zero,-40(s0)
.L273:
	.loc 1 1526 18
	ld	a5,-56(s0)
	sd	a5,-40(s0)
	.loc 1 1527 19
	ld	a5,-64(s0)
	beq	a5,zero,.L261
	.loc 1 1527 49 discriminator 1
	ld	a0,-64(s0)
	call	FreePool@plt
	.loc 1 1527 80 discriminator 2
	sd	zero,-64(s0)
.L261:
	.loc 1 1531 15
	ld	a5,-32(s0)
	beq	a5,zero,.L274
	.loc 1 1531 45 discriminator 1
	ld	a0,-32(s0)
	call	FreePool@plt
	.loc 1 1531 76 discriminator 2
	sd	zero,-32(s0)
.L274:
	.loc 1 1533 36
	ld	a5,-72(s0)
	ld	a5,0(a5)
	.loc 1 1533 16
	ld	a0,-72(s0)
	ld	a3,-88(s0)
	.loc 1 1535 56
	ld	a4,-24(s0)
	slli	a4,a4,4
	.loc 1 1533 16
	add	a4,a3,a4
	addi	a3,s0,-104
	addi	a2,s0,-96
	mv	a1,a4
	jalr	a5
.LVL28:
	sd	a0,-48(s0)
	.loc 1 1540 38
	ld	a5,-48(s0)
	.loc 1 1540 10
	bge	a5,zero,.L275
	.loc 1 1541 19
	lla	a5,mHandleParsingHiiHandle
	ld	a5,0(a5)
	li	a2,0
	li	a1,312
	mv	a0,a5
	call	HiiGetString@plt
	sd	a0,-32(s0)
	.loc 1 1542 12
	ld	a5,-32(s0)
	beq	a5,zero,.L306
	.loc 1 1546 22
	ld	a2,-48(s0)
	ld	a1,-32(s0)
	ld	a0,-40(s0)
	call	CatSPrint@plt
	sd	a0,-56(s0)
	.loc 1 1547 17
	ld	a5,-40(s0)
	beq	a5,zero,.L277
	.loc 1 1547 46 discriminator 1
	ld	a0,-40(s0)
	call	FreePool@plt
	.loc 1 1547 75 discriminator 2
	sd	zero,-40(s0)
.L277:
	.loc 1 1548 16
	ld	a5,-56(s0)
	sd	a5,-40(s0)
	j	.L278
.L275:
	.loc 1 1550 13
	ld	a4,-88(s0)
	.loc 1 1550 42
	ld	a5,-24(s0)
	slli	a5,a5,4
	.loc 1 1550 26
	add	a5,a4,a5
	.loc 1 1550 13
	la	a1,gEfiAdapterInfoMediaStateGuid
	mv	a0,a5
	call	CompareGuid@plt
	mv	a5,a0
	.loc 1 1550 12 discriminator 1
	beq	a5,zero,.L279
	.loc 1 1551 21
	lla	a5,mHandleParsingHiiHandle
	ld	a5,0(a5)
	li	a2,0
	li	a1,313
	mv	a0,a5
	call	HiiGetString@plt
	sd	a0,-32(s0)
	.loc 1 1552 14
	ld	a5,-32(s0)
	beq	a5,zero,.L307
	.loc 1 1559 27
	ld	a5,-96(s0)
	.loc 1 1556 24
	ld	a4,0(a5)
	.loc 1 1560 27
	ld	a5,-96(s0)
	.loc 1 1556 24
	ld	a5,0(a5)
	mv	a3,a5
	mv	a2,a4
	ld	a1,-32(s0)
	ld	a0,-40(s0)
	call	CatSPrint@plt
	sd	a0,-56(s0)
	.loc 1 1562 19
	ld	a5,-40(s0)
	beq	a5,zero,.L281
	.loc 1 1562 48 discriminator 1
	ld	a0,-40(s0)
	call	FreePool@plt
	.loc 1 1562 77 discriminator 2
	sd	zero,-40(s0)
.L281:
	.loc 1 1563 18
	ld	a5,-56(s0)
	sd	a5,-40(s0)
	j	.L278
.L279:
	.loc 1 1564 20
	ld	a4,-88(s0)
	.loc 1 1564 49
	ld	a5,-24(s0)
	slli	a5,a5,4
	.loc 1 1564 33
	add	a5,a4,a5
	.loc 1 1564 20
	la	a1,gEfiAdapterInfoNetworkBootGuid
	mv	a0,a5
	call	CompareGuid@plt
	mv	a5,a0
	.loc 1 1564 19 discriminator 1
	beq	a5,zero,.L282
	.loc 1 1565 21
	lla	a5,mHandleParsingHiiHandle
	ld	a5,0(a5)
	li	a2,0
	li	a1,314
	mv	a0,a5
	call	HiiGetString@plt
	sd	a0,-32(s0)
	.loc 1 1566 14
	ld	a5,-32(s0)
	beq	a5,zero,.L308
	.loc 1 1573 27
	ld	a5,-96(s0)
	.loc 1 1573 77
	lbu	a5,0(a5)
	.loc 1 1570 24
	sext.w	a2,a5
	.loc 1 1574 27
	ld	a5,-96(s0)
	.loc 1 1574 77
	lbu	a5,1(a5)
	.loc 1 1570 24
	sext.w	a3,a5
	.loc 1 1575 27
	ld	a5,-96(s0)
	.loc 1 1575 77
	lbu	a5,2(a5)
	.loc 1 1570 24
	sext.w	a1,a5
	.loc 1 1576 27
	ld	a5,-96(s0)
	.loc 1 1576 77
	lbu	a5,3(a5)
	.loc 1 1570 24
	sext.w	a0,a5
	.loc 1 1577 27
	ld	a5,-96(s0)
	.loc 1 1577 77
	lbu	a5,4(a5)
	.loc 1 1570 24
	sext.w	a6,a5
	.loc 1 1578 27
	ld	a5,-96(s0)
	.loc 1 1578 77
	lbu	a5,5(a5)
	.loc 1 1570 24
	sext.w	a7,a5
	.loc 1 1579 27
	ld	a5,-96(s0)
	.loc 1 1579 77
	lbu	a5,6(a5)
	.loc 1 1570 24
	sext.w	a5,a5
	.loc 1 1580 27
	ld	a4,-96(s0)
	.loc 1 1580 77
	lbu	a4,7(a4)
	.loc 1 1570 24
	sext.w	a4,a4
	sd	a4,8(sp)
	sd	a5,0(sp)
	mv	a5,a0
	mv	a4,a1
	ld	a1,-32(s0)
	ld	a0,-40(s0)
	call	CatSPrint@plt
	sd	a0,-56(s0)
	.loc 1 1582 19
	ld	a5,-40(s0)
	beq	a5,zero,.L284
	.loc 1 1582 48 discriminator 1
	ld	a0,-40(s0)
	call	FreePool@plt
	.loc 1 1582 77 discriminator 2
	sd	zero,-40(s0)
.L284:
	.loc 1 1583 18
	ld	a5,-56(s0)
	sd	a5,-40(s0)
	j	.L278
.L282:
	.loc 1 1584 20
	ld	a4,-88(s0)
	.loc 1 1584 49
	ld	a5,-24(s0)
	slli	a5,a5,4
	.loc 1 1584 33
	add	a5,a4,a5
	.loc 1 1584 20
	la	a1,gEfiAdapterInfoSanMacAddressGuid
	mv	a0,a5
	call	CompareGuid@plt
	mv	a5,a0
	.loc 1 1584 19 discriminator 1
	mv	a4,a5
	li	a5,1
	bne	a4,a5,.L285
	.loc 1 1585 21
	lla	a5,mHandleParsingHiiHandle
	ld	a5,0(a5)
	li	a2,0
	li	a1,315
	mv	a0,a5
	call	HiiGetString@plt
	sd	a0,-32(s0)
	.loc 1 1586 14
	ld	a5,-32(s0)
	beq	a5,zero,.L309
	.loc 1 1593 27
	ld	a5,-96(s0)
	.loc 1 1593 100
	lbu	a5,0(a5)
	.loc 1 1590 24
	sext.w	a2,a5
	.loc 1 1594 27
	ld	a5,-96(s0)
	.loc 1 1594 100
	lbu	a5,1(a5)
	.loc 1 1590 24
	sext.w	a3,a5
	.loc 1 1595 27
	ld	a5,-96(s0)
	.loc 1 1595 100
	lbu	a5,2(a5)
	.loc 1 1590 24
	sext.w	a4,a5
	.loc 1 1596 27
	ld	a5,-96(s0)
	.loc 1 1596 100
	lbu	a5,3(a5)
	.loc 1 1590 24
	sext.w	a1,a5
	.loc 1 1597 27
	ld	a5,-96(s0)
	.loc 1 1597 100
	lbu	a5,4(a5)
	.loc 1 1590 24
	sext.w	a0,a5
	.loc 1 1598 27
	ld	a5,-96(s0)
	.loc 1 1598 100
	lbu	a5,5(a5)
	.loc 1 1590 24
	sext.w	a5,a5
	mv	a7,a5
	mv	a6,a0
	mv	a5,a1
	ld	a1,-32(s0)
	ld	a0,-40(s0)
	call	CatSPrint@plt
	sd	a0,-56(s0)
	.loc 1 1600 19
	ld	a5,-40(s0)
	beq	a5,zero,.L287
	.loc 1 1600 48 discriminator 1
	ld	a0,-40(s0)
	call	FreePool@plt
	.loc 1 1600 77 discriminator 2
	sd	zero,-40(s0)
.L287:
	.loc 1 1601 18
	ld	a5,-56(s0)
	sd	a5,-40(s0)
	j	.L278
.L285:
	.loc 1 1602 20
	ld	a4,-88(s0)
	.loc 1 1602 49
	ld	a5,-24(s0)
	slli	a5,a5,4
	.loc 1 1602 33
	add	a5,a4,a5
	.loc 1 1602 20
	la	a1,gEfiAdapterInfoUndiIpv6SupportGuid
	mv	a0,a5
	call	CompareGuid@plt
	mv	a5,a0
	.loc 1 1602 19 discriminator 1
	mv	a4,a5
	li	a5,1
	bne	a4,a5,.L288
	.loc 1 1603 21
	lla	a5,mHandleParsingHiiHandle
	ld	a5,0(a5)
	li	a2,0
	li	a1,316
	mv	a0,a5
	call	HiiGetString@plt
	sd	a0,-32(s0)
	.loc 1 1604 14
	ld	a5,-32(s0)
	beq	a5,zero,.L310
	.loc 1 1611 27
	ld	a5,-96(s0)
	.loc 1 1611 82
	lbu	a5,0(a5)
	.loc 1 1608 24
	sext.w	a5,a5
	mv	a2,a5
	ld	a1,-32(s0)
	ld	a0,-40(s0)
	call	CatSPrint@plt
	sd	a0,-56(s0)
	.loc 1 1613 19
	ld	a5,-40(s0)
	beq	a5,zero,.L290
	.loc 1 1613 48 discriminator 1
	ld	a0,-40(s0)
	call	FreePool@plt
	.loc 1 1613 77 discriminator 2
	sd	zero,-40(s0)
.L290:
	.loc 1 1614 18
	ld	a5,-56(s0)
	sd	a5,-40(s0)
	j	.L278
.L288:
	.loc 1 1616 21
	lla	a5,mHandleParsingHiiHandle
	ld	a5,0(a5)
	li	a2,0
	li	a1,317
	mv	a0,a5
	call	HiiGetString@plt
	sd	a0,-32(s0)
	.loc 1 1617 14
	ld	a5,-32(s0)
	beq	a5,zero,.L311
	.loc 1 1621 24
	ld	a4,-88(s0)
	.loc 1 1621 68
	ld	a5,-24(s0)
	slli	a5,a5,4
	.loc 1 1621 24
	add	a5,a4,a5
	mv	a2,a5
	ld	a1,-32(s0)
	ld	a0,-40(s0)
	call	CatSPrint@plt
	sd	a0,-56(s0)
	.loc 1 1622 19
	ld	a5,-40(s0)
	beq	a5,zero,.L292
	.loc 1 1622 48 discriminator 1
	ld	a0,-40(s0)
	call	FreePool@plt
	.loc 1 1622 77 discriminator 2
	sd	zero,-40(s0)
.L292:
	.loc 1 1623 18
	ld	a5,-56(s0)
	sd	a5,-40(s0)
.L278:
	.loc 1 1627 15
	ld	a5,-32(s0)
	beq	a5,zero,.L293
	.loc 1 1627 45 discriminator 1
	ld	a0,-32(s0)
	call	FreePool@plt
	.loc 1 1627 76 discriminator 2
	sd	zero,-32(s0)
.L293:
	.loc 1 1628 35
	ld	a5,-96(s0)
	.loc 1 1628 15
	beq	a5,zero,.L272
	.loc 1 1628 54 discriminator 1
	ld	a5,-96(s0)
	mv	a0,a5
	call	FreePool@plt
	.loc 1 1628 103 discriminator 2
	sd	zero,-96(s0)
	j	.L272
.L305:
	.loc 1 1522 11
	nop
.L272:
	.loc 1 1478 68 discriminator 2
	ld	a5,-24(s0)
	addi	a5,a5,1
	sd	a5,-24(s0)
.L254:
	.loc 1 1478 35 discriminator 1
	ld	a5,-80(s0)
	ld	a4,-24(s0)
	bltu	a4,a5,.L294
.L249:
	.loc 1 1632 30
	ld	a5,-88(s0)
	.loc 1 1632 11
	beq	a5,zero,.L295
	.loc 1 1632 49 discriminator 1
	ld	a5,-88(s0)
	mv	a0,a5
	call	FreePool@plt
	.loc 1 1632 96 discriminator 2
	sd	zero,-88(s0)
.L295:
	.loc 1 1633 10
	ld	a5,-40(s0)
	j	.L299
.L300:
	.loc 1 1463 7
	nop
	j	.L250
.L301:
	.loc 1 1468 7
	nop
	j	.L250
.L302:
	.loc 1 1473 7
	nop
	j	.L250
.L303:
	.loc 1 1481 9
	nop
	j	.L250
.L304:
	.loc 1 1491 9
	nop
	j	.L250
.L306:
	.loc 1 1543 11
	nop
	j	.L250
.L307:
	.loc 1 1553 13
	nop
	j	.L250
.L308:
	.loc 1 1567 13
	nop
	j	.L250
.L309:
	.loc 1 1587 13
	nop
	j	.L250
.L310:
	.loc 1 1605 13
	nop
	j	.L250
.L311:
	.loc 1 1618 13
	nop
.L250:
	.loc 1 1636 11
	ld	a5,-40(s0)
	beq	a5,zero,.L296
	.loc 1 1636 40 discriminator 1
	ld	a0,-40(s0)
	call	FreePool@plt
	.loc 1 1636 69 discriminator 2
	sd	zero,-40(s0)
.L296:
	.loc 1 1637 30
	ld	a5,-88(s0)
	.loc 1 1637 11
	beq	a5,zero,.L297
	.loc 1 1637 49 discriminator 1
	ld	a5,-88(s0)
	mv	a0,a5
	call	FreePool@plt
	.loc 1 1637 96 discriminator 2
	sd	zero,-88(s0)
.L297:
	.loc 1 1638 31
	ld	a5,-96(s0)
	.loc 1 1638 11
	beq	a5,zero,.L298
	.loc 1 1638 50 discriminator 1
	ld	a5,-96(s0)
	mv	a0,a5
	call	FreePool@plt
	.loc 1 1638 99 discriminator 2
	sd	zero,-96(s0)
.L298:
	.loc 1 1639 10
	li	a5,0
.L299:
	.loc 1 1640 1
	mv	a0,a5
	ld	ra,136(sp)
	.cfi_restore 1
	ld	s0,128(sp)
	.cfi_restore 8
	.cfi_def_cfa 2, 144
	addi	sp,sp,144
	.cfi_def_cfa_offset 0
	jr	ra
	.cfi_endproc
.LFE22:
	.size	AdapterInformationDumpInformation, .-AdapterInformationDumpInformation
	.section	.rodata
	.align	3
.LC50:
	.string	"F"
	.string	"i"
	.string	"r"
	.string	"m"
	.string	"w"
	.string	"a"
	.string	"r"
	.string	"e"
	.string	"M"
	.string	"a"
	.string	"n"
	.string	"a"
	.string	"g"
	.string	"e"
	.string	"m"
	.string	"e"
	.string	"n"
	.string	"t"
	.zero	2
	.align	3
.LC51:
	.string	"N"
	.string	"o"
	.string	"n"
	.string	"e"
	.zero	2
	.align	3
.LC52:
	.string	"("
	.zero	2
	.align	3
.LC53:
	.string	" "
	.string	"I"
	.string	"M"
	.string	"A"
	.string	"G"
	.string	"E"
	.string	"_"
	.string	"A"
	.string	"T"
	.string	"T"
	.string	"R"
	.string	"I"
	.string	"B"
	.string	"U"
	.string	"T"
	.string	"E"
	.string	"_"
	.string	"I"
	.string	"M"
	.string	"A"
	.string	"G"
	.string	"E"
	.string	"_"
	.string	"U"
	.string	"P"
	.string	"D"
	.string	"A"
	.string	"T"
	.string	"A"
	.string	"B"
	.string	"L"
	.string	"E"
	.zero	2
	.align	3
.LC54:
	.string	" "
	.string	"I"
	.string	"M"
	.string	"A"
	.string	"G"
	.string	"E"
	.string	"_"
	.string	"A"
	.string	"T"
	.string	"T"
	.string	"R"
	.string	"I"
	.string	"B"
	.string	"U"
	.string	"T"
	.string	"E"
	.string	"_"
	.string	"R"
	.string	"E"
	.string	"S"
	.string	"E"
	.string	"T"
	.string	"_"
	.string	"R"
	.string	"E"
	.string	"Q"
	.string	"U"
	.string	"I"
	.string	"R"
	.string	"E"
	.string	"D"
	.zero	2
	.align	3
.LC55:
	.string	" "
	.string	"I"
	.string	"M"
	.string	"A"
	.string	"G"
	.string	"E"
	.string	"_"
	.string	"A"
	.string	"T"
	.string	"T"
	.string	"R"
	.string	"I"
	.string	"B"
	.string	"U"
	.string	"T"
	.string	"E"
	.string	"_"
	.string	"A"
	.string	"U"
	.string	"T"
	.string	"H"
	.string	"E"
	.string	"N"
	.string	"T"
	.string	"I"
	.string	"C"
	.string	"A"
	.string	"T"
	.string	"I"
	.string	"O"
	.string	"N"
	.string	"_"
	.string	"R"
	.string	"E"
	.string	"Q"
	.string	"U"
	.string	"I"
	.string	"R"
	.string	"E"
	.string	"D"
	.zero	2
	.align	3
.LC56:
	.string	" "
	.string	"I"
	.string	"M"
	.string	"A"
	.string	"G"
	.string	"E"
	.string	"_"
	.string	"A"
	.string	"T"
	.string	"T"
	.string	"R"
	.string	"I"
	.string	"B"
	.string	"U"
	.string	"T"
	.string	"E"
	.string	"_"
	.string	"I"
	.string	"N"
	.string	"_"
	.string	"U"
	.string	"S"
	.string	"E"
	.zero	2
	.align	3
.LC57:
	.string	" "
	.string	"I"
	.string	"M"
	.string	"A"
	.string	"G"
	.string	"E"
	.string	"_"
	.string	"A"
	.string	"T"
	.string	"T"
	.string	"R"
	.string	"I"
	.string	"B"
	.string	"U"
	.string	"T"
	.string	"E"
	.string	"_"
	.string	"U"
	.string	"E"
	.string	"F"
	.string	"I"
	.string	"_"
	.string	"I"
	.string	"M"
	.string	"A"
	.string	"G"
	.string	"E"
	.zero	2
	.align	3
.LC58:
	.string	" "
	.string	")"
	.zero	2
	.section	.text.FirmwareManagementDumpInformation,"ax",@progbits
	.align	1
	.globl	FirmwareManagementDumpInformation
	.type	FirmwareManagementDumpInformation, @function
FirmwareManagementDumpInformation:
.LFB23:
	.loc 1 1656 1
	.cfi_startproc
	addi	sp,sp,-256
	.cfi_def_cfa_offset 256
	sd	ra,248(sp)
	sd	s0,240(sp)
	.cfi_offset 1, -8
	.cfi_offset 8, -16
	addi	s0,sp,256
	.cfi_def_cfa 8, 0
	sd	a0,-168(s0)
	mv	a5,a1
	sb	a5,-169(s0)
	.loc 1 1682 14
	sb	zero,-59(s0)
	.loc 1 1683 17
	li	a5,1
	sd	a5,-120(s0)
	.loc 1 1684 20
	sd	zero,-56(s0)
	.loc 1 1685 9
	sb	zero,-81(s0)
	.loc 1 1686 22
	sb	zero,-82(s0)
	.loc 1 1687 13
	sd	zero,-32(s0)
	.loc 1 1688 15
	sd	zero,-40(s0)
	.loc 1 1689 15
	sd	zero,-48(s0)
	.loc 1 1690 22
	sd	zero,-152(s0)
	.loc 1 1691 10
	sd	zero,-72(s0)
	.loc 1 1692 14
	sd	zero,-96(s0)
	.loc 1 1693 11
	sd	zero,-104(s0)
	.loc 1 1694 23
	sd	zero,-80(s0)
	.loc 1 1696 6
	lbu	a5,-169(s0)
	andi	a5,a5,0xff
	bne	a5,zero,.L313
	.loc 1 1697 13
	lla	a1,.LC50
	li	a0,0
	call	CatSPrint@plt
	mv	a5,a0
	j	.L396
.L313:
	.loc 1 1700 15
	la	a5,gBS
	ld	a5,0(a5)
	ld	a6,280(a5)
	.loc 1 1700 12
	addi	a2,s0,-112
	li	a5,2
	li	a4,0
	li	a3,0
	la	a1,gEfiFirmwareManagementProtocolGuid
	ld	a0,-168(s0)
	jalr	a6
.LVL29:
	sd	a0,-24(s0)
	.loc 1 1709 34
	ld	a5,-24(s0)
	.loc 1 1709 6
	bge	a5,zero,.L315
	.loc 1 1710 12
	li	a5,0
	j	.L396
.L315:
	.loc 1 1713 29
	ld	a5,-112(s0)
	ld	t1,0(a5)
	.loc 1 1713 12
	ld	a0,-112(s0)
	addi	a6,s0,-152
	addi	a2,s0,-136
	addi	a5,s0,-128
	addi	a4,s0,-137
	addi	a3,s0,-132
	addi	a1,s0,-120
	mv	a7,a6
	mv	a6,a2
	ld	a2,-32(s0)
	jalr	t1
.LVL30:
	sd	a0,-24(s0)
	.loc 1 1724 6
	ld	a4,-24(s0)
	li	a5,-1
	slli	a5,a5,63
	addi	a5,a5,5
	bne	a4,a5,.L316
	.loc 1 1725 17
	ld	a5,-120(s0)
	mv	a0,a5
	call	AllocateZeroPool@plt
	sd	a0,-32(s0)
	.loc 1 1727 8
	ld	a5,-32(s0)
	bne	a5,zero,.L317
	.loc 1 1728 14
	li	a5,-1
	slli	a5,a5,63
	addi	a5,a5,9
	sd	a5,-24(s0)
	j	.L316
.L317:
	.loc 1 1730 33
	ld	a5,-112(s0)
	ld	t1,0(a5)
	.loc 1 1730 16
	ld	a0,-112(s0)
	addi	a6,s0,-152
	addi	a2,s0,-136
	addi	a5,s0,-128
	addi	a4,s0,-137
	addi	a3,s0,-132
	addi	a1,s0,-120
	mv	a7,a6
	mv	a6,a2
	ld	a2,-32(s0)
	jalr	t1
.LVL31:
	sd	a0,-24(s0)
.L316:
	.loc 1 1743 34
	ld	a5,-24(s0)
	.loc 1 1743 6
	blt	a5,zero,.L397
	.loc 1 1750 25
	lw	a4,-132(s0)
	.loc 1 1750 6
	li	a5,4
	bgtu	a4,a5,.L320
	.loc 1 1751 8
	ld	a5,-32(s0)
	beq	a5,zero,.L398
	.loc 1 1755 17
	ld	a5,-32(s0)
	sd	a5,-40(s0)
	.loc 1 1756 17
	ld	a5,-32(s0)
	sd	a5,-48(s0)
	.loc 1 1761 15
	lla	a5,mHandleParsingHiiHandle
	ld	a5,0(a5)
	li	a2,0
	li	a1,319
	mv	a0,a5
	call	HiiGetString@plt
	sd	a0,-104(s0)
	.loc 1 1762 8
	ld	a5,-104(s0)
	beq	a5,zero,.L399
	.loc 1 1766 14
	ld	a5,-120(s0)
	mv	a2,a5
	ld	a1,-104(s0)
	li	a0,0
	call	CatSPrint@plt
	sd	a0,-72(s0)
	.loc 1 1767 8
	ld	a5,-72(s0)
	beq	a5,zero,.L400
	.loc 1 1771 13
	ld	a5,-104(s0)
	beq	a5,zero,.L324
	.loc 1 1771 43 discriminator 1
	ld	a0,-104(s0)
	call	FreePool@plt
	.loc 1 1771 74 discriminator 2
	sd	zero,-104(s0)
.L324:
	.loc 1 1776 15
	lla	a5,mHandleParsingHiiHandle
	ld	a5,0(a5)
	li	a2,0
	li	a1,320
	mv	a0,a5
	call	HiiGetString@plt
	sd	a0,-104(s0)
	.loc 1 1777 8
	ld	a5,-104(s0)
	beq	a5,zero,.L401
	.loc 1 1781 18
	lw	a5,-132(s0)
	mv	a2,a5
	ld	a1,-104(s0)
	ld	a0,-72(s0)
	call	CatSPrint@plt
	sd	a0,-96(s0)
	.loc 1 1782 13
	ld	a5,-72(s0)
	beq	a5,zero,.L326
	.loc 1 1782 42 discriminator 1
	ld	a0,-72(s0)
	call	FreePool@plt
	.loc 1 1782 71 discriminator 2
	sd	zero,-72(s0)
.L326:
	.loc 1 1783 12
	ld	a5,-96(s0)
	sd	a5,-72(s0)
	.loc 1 1784 13
	ld	a5,-104(s0)
	beq	a5,zero,.L327
	.loc 1 1784 43 discriminator 1
	ld	a0,-104(s0)
	call	FreePool@plt
	.loc 1 1784 74 discriminator 2
	sd	zero,-104(s0)
.L327:
	.loc 1 1789 15
	lla	a5,mHandleParsingHiiHandle
	ld	a5,0(a5)
	li	a2,0
	li	a1,321
	mv	a0,a5
	call	HiiGetString@plt
	sd	a0,-104(s0)
	.loc 1 1790 8
	ld	a5,-104(s0)
	beq	a5,zero,.L402
	.loc 1 1794 18
	lbu	a5,-137(s0)
	sext.w	a5,a5
	mv	a2,a5
	ld	a1,-104(s0)
	ld	a0,-72(s0)
	call	CatSPrint@plt
	sd	a0,-96(s0)
	.loc 1 1795 13
	ld	a5,-72(s0)
	beq	a5,zero,.L329
	.loc 1 1795 42 discriminator 1
	ld	a0,-72(s0)
	call	FreePool@plt
	.loc 1 1795 71 discriminator 2
	sd	zero,-72(s0)
.L329:
	.loc 1 1796 12
	ld	a5,-96(s0)
	sd	a5,-72(s0)
	.loc 1 1797 13
	ld	a5,-104(s0)
	beq	a5,zero,.L330
	.loc 1 1797 43 discriminator 1
	ld	a0,-104(s0)
	call	FreePool@plt
	.loc 1 1797 74 discriminator 2
	sd	zero,-104(s0)
.L330:
	.loc 1 1802 15
	lla	a5,mHandleParsingHiiHandle
	ld	a5,0(a5)
	li	a2,0
	li	a1,322
	mv	a0,a5
	call	HiiGetString@plt
	sd	a0,-104(s0)
	.loc 1 1803 8
	ld	a5,-104(s0)
	beq	a5,zero,.L403
	.loc 1 1807 18
	ld	a5,-128(s0)
	mv	a2,a5
	ld	a1,-104(s0)
	ld	a0,-72(s0)
	call	CatSPrint@plt
	sd	a0,-96(s0)
	.loc 1 1808 13
	ld	a5,-72(s0)
	beq	a5,zero,.L332
	.loc 1 1808 42 discriminator 1
	ld	a0,-72(s0)
	call	FreePool@plt
	.loc 1 1808 71 discriminator 2
	sd	zero,-72(s0)
.L332:
	.loc 1 1809 12
	ld	a5,-96(s0)
	sd	a5,-72(s0)
	.loc 1 1810 13
	ld	a5,-104(s0)
	beq	a5,zero,.L333
	.loc 1 1810 43 discriminator 1
	ld	a0,-104(s0)
	call	FreePool@plt
	.loc 1 1810 74 discriminator 2
	sd	zero,-104(s0)
.L333:
	.loc 1 1815 15
	lla	a5,mHandleParsingHiiHandle
	ld	a5,0(a5)
	li	a2,0
	li	a1,323
	mv	a0,a5
	call	HiiGetString@plt
	sd	a0,-104(s0)
	.loc 1 1816 8
	ld	a5,-104(s0)
	beq	a5,zero,.L404
	.loc 1 1820 18
	lw	a5,-136(s0)
	mv	a2,a5
	ld	a1,-104(s0)
	ld	a0,-72(s0)
	call	CatSPrint@plt
	sd	a0,-96(s0)
	.loc 1 1821 13
	ld	a5,-72(s0)
	beq	a5,zero,.L335
	.loc 1 1821 42 discriminator 1
	ld	a0,-72(s0)
	call	FreePool@plt
	.loc 1 1821 71 discriminator 2
	sd	zero,-72(s0)
.L335:
	.loc 1 1822 12
	ld	a5,-96(s0)
	sd	a5,-72(s0)
	.loc 1 1823 13
	ld	a5,-104(s0)
	beq	a5,zero,.L336
	.loc 1 1823 43 discriminator 1
	ld	a0,-104(s0)
	call	FreePool@plt
	.loc 1 1823 74 discriminator 2
	sd	zero,-104(s0)
.L336:
	.loc 1 1828 15
	lla	a5,mHandleParsingHiiHandle
	ld	a5,0(a5)
	li	a2,0
	li	a1,324
	mv	a0,a5
	call	HiiGetString@plt
	sd	a0,-104(s0)
	.loc 1 1829 8
	ld	a5,-104(s0)
	beq	a5,zero,.L405
	.loc 1 1833 18
	ld	a5,-152(s0)
	mv	a2,a5
	ld	a1,-104(s0)
	ld	a0,-72(s0)
	call	CatSPrint@plt
	sd	a0,-96(s0)
	.loc 1 1834 13
	ld	a5,-72(s0)
	beq	a5,zero,.L338
	.loc 1 1834 42 discriminator 1
	ld	a0,-72(s0)
	call	FreePool@plt
	.loc 1 1834 71 discriminator 2
	sd	zero,-72(s0)
.L338:
	.loc 1 1835 12
	ld	a5,-96(s0)
	sd	a5,-72(s0)
	.loc 1 1836 13
	ld	a5,-104(s0)
	beq	a5,zero,.L339
	.loc 1 1836 43 discriminator 1
	ld	a0,-104(s0)
	call	FreePool@plt
	.loc 1 1836 74 discriminator 2
	sd	zero,-104(s0)
.L339:
	.loc 1 1838 16
	sb	zero,-57(s0)
	.loc 1 1838 5
	j	.L340
.L377:
	.loc 1 1843 15
	ld	a5,-80(s0)
	beq	a5,zero,.L341
	.loc 1 1843 57 discriminator 1
	ld	a0,-80(s0)
	call	FreePool@plt
	.loc 1 1843 112 discriminator 2
	sd	zero,-80(s0)
.L341:
	.loc 1 1844 26
	sb	zero,-82(s0)
	.loc 1 1845 24
	sd	zero,-56(s0)
	.loc 1 1846 29
	lw	a4,-132(s0)
	.loc 1 1846 10
	li	a5,1
	bne	a4,a5,.L342
	.loc 1 1847 24
	lbu	a4,-57(s0)
	li	a5,88
	mul	a5,a4,a5
	ld	a4,-40(s0)
	add	a5,a4,a5
	.loc 1 1847 31
	ld	a5,64(a5)
	.loc 1 1847 12
	beq	a5,zero,.L343
	.loc 1 1848 30
	li	a5,1
	sb	a5,-82(s0)
	.loc 1 1849 41
	lbu	a4,-57(s0)
	li	a5,88
	mul	a5,a4,a5
	ld	a4,-40(s0)
	add	a5,a4,a5
	.loc 1 1849 28
	ld	a5,72(a5)
	sd	a5,-56(s0)
	j	.L343
.L342:
	.loc 1 1851 36
	lw	a4,-132(s0)
	.loc 1 1851 17
	li	a5,2
	bne	a4,a5,.L344
	.loc 1 1852 24
	lbu	a4,-57(s0)
	mv	a5,a4
	slli	a5,a5,1
	add	a5,a5,a4
	slli	a5,a5,5
	mv	a4,a5
	ld	a5,-48(s0)
	add	a5,a5,a4
	.loc 1 1852 31
	ld	a5,64(a5)
	.loc 1 1852 12
	beq	a5,zero,.L343
	.loc 1 1853 30
	li	a5,1
	sb	a5,-82(s0)
	.loc 1 1854 41
	lbu	a4,-57(s0)
	mv	a5,a4
	slli	a5,a5,1
	add	a5,a5,a4
	slli	a5,a5,5
	mv	a4,a5
	ld	a5,-48(s0)
	add	a5,a5,a4
	.loc 1 1854 28
	ld	a5,72(a5)
	sd	a5,-56(s0)
	j	.L343
.L344:
	.loc 1 1857 22
	lbu	a4,-57(s0)
	mv	a5,a4
	slli	a5,a5,4
	sub	a5,a5,a4
	slli	a5,a5,3
	mv	a4,a5
	ld	a5,-32(s0)
	add	a5,a5,a4
	.loc 1 1857 29
	ld	a5,64(a5)
	.loc 1 1857 12
	beq	a5,zero,.L343
	.loc 1 1858 30
	li	a5,1
	sb	a5,-82(s0)
	.loc 1 1859 39
	lbu	a4,-57(s0)
	mv	a5,a4
	slli	a5,a5,4
	sub	a5,a5,a4
	slli	a5,a5,3
	mv	a4,a5
	ld	a5,-32(s0)
	add	a5,a5,a4
	.loc 1 1859 28
	ld	a5,72(a5)
	sd	a5,-56(s0)
.L343:
	.loc 1 1863 10
	lbu	a5,-82(s0)
	andi	a5,a5,0xff
	bne	a5,zero,.L345
	.loc 1 1864 31
	lla	a1,.LC51
	li	a0,0
	call	CatSPrint@plt
	sd	a0,-80(s0)
	j	.L346
.L345:
	.loc 1 1866 31
	lla	a1,.LC52
	li	a0,0
	call	CatSPrint@plt
	sd	a0,-80(s0)
	.loc 1 1868 12
	ld	a5,-80(s0)
	beq	a5,zero,.L406
	.loc 1 1872 31
	ld	a5,-56(s0)
	andi	a5,a5,1
	.loc 1 1872 12
	beq	a5,zero,.L348
	.loc 1 1873 24
	lla	a1,.LC53
	ld	a0,-80(s0)
	call	CatSPrint@plt
	sd	a0,-96(s0)
	.loc 1 1874 14
	ld	a5,-96(s0)
	beq	a5,zero,.L407
	.loc 1 1878 19
	ld	a5,-80(s0)
	beq	a5,zero,.L350
	.loc 1 1878 61 discriminator 1
	ld	a0,-80(s0)
	call	FreePool@plt
	.loc 1 1878 116 discriminator 2
	sd	zero,-80(s0)
.L350:
	.loc 1 1879 31
	ld	a5,-96(s0)
	sd	a5,-80(s0)
.L348:
	.loc 1 1882 31
	ld	a5,-56(s0)
	andi	a5,a5,2
	.loc 1 1882 12
	beq	a5,zero,.L351
	.loc 1 1883 24
	lla	a1,.LC54
	ld	a0,-80(s0)
	call	CatSPrint@plt
	sd	a0,-96(s0)
	.loc 1 1884 14
	ld	a5,-96(s0)
	beq	a5,zero,.L408
	.loc 1 1888 19
	ld	a5,-80(s0)
	beq	a5,zero,.L353
	.loc 1 1888 61 discriminator 1
	ld	a0,-80(s0)
	call	FreePool@plt
	.loc 1 1888 116 discriminator 2
	sd	zero,-80(s0)
.L353:
	.loc 1 1889 31
	ld	a5,-96(s0)
	sd	a5,-80(s0)
.L351:
	.loc 1 1892 31
	ld	a5,-56(s0)
	andi	a5,a5,4
	.loc 1 1892 12
	beq	a5,zero,.L354
	.loc 1 1893 24
	lla	a1,.LC55
	ld	a0,-80(s0)
	call	CatSPrint@plt
	sd	a0,-96(s0)
	.loc 1 1894 14
	ld	a5,-96(s0)
	beq	a5,zero,.L409
	.loc 1 1898 19
	ld	a5,-80(s0)
	beq	a5,zero,.L356
	.loc 1 1898 61 discriminator 1
	ld	a0,-80(s0)
	call	FreePool@plt
	.loc 1 1898 116 discriminator 2
	sd	zero,-80(s0)
.L356:
	.loc 1 1899 31
	ld	a5,-96(s0)
	sd	a5,-80(s0)
.L354:
	.loc 1 1902 31
	ld	a5,-56(s0)
	andi	a5,a5,8
	.loc 1 1902 12
	beq	a5,zero,.L357
	.loc 1 1903 24
	lla	a1,.LC56
	ld	a0,-80(s0)
	call	CatSPrint@plt
	sd	a0,-96(s0)
	.loc 1 1904 14
	ld	a5,-96(s0)
	beq	a5,zero,.L410
	.loc 1 1908 19
	ld	a5,-80(s0)
	beq	a5,zero,.L359
	.loc 1 1908 61 discriminator 1
	ld	a0,-80(s0)
	call	FreePool@plt
	.loc 1 1908 116 discriminator 2
	sd	zero,-80(s0)
.L359:
	.loc 1 1909 31
	ld	a5,-96(s0)
	sd	a5,-80(s0)
.L357:
	.loc 1 1912 31
	ld	a5,-56(s0)
	andi	a5,a5,16
	.loc 1 1912 12
	beq	a5,zero,.L360
	.loc 1 1913 24
	lla	a1,.LC57
	ld	a0,-80(s0)
	call	CatSPrint@plt
	sd	a0,-96(s0)
	.loc 1 1914 14
	ld	a5,-96(s0)
	beq	a5,zero,.L411
	.loc 1 1918 19
	ld	a5,-80(s0)
	beq	a5,zero,.L362
	.loc 1 1918 61 discriminator 1
	ld	a0,-80(s0)
	call	FreePool@plt
	.loc 1 1918 116 discriminator 2
	sd	zero,-80(s0)
.L362:
	.loc 1 1919 31
	ld	a5,-96(s0)
	sd	a5,-80(s0)
.L360:
	.loc 1 1922 22
	lla	a1,.LC58
	ld	a0,-80(s0)
	call	CatSPrint@plt
	sd	a0,-96(s0)
	.loc 1 1923 12
	ld	a5,-96(s0)
	beq	a5,zero,.L412
	.loc 1 1927 17
	ld	a5,-80(s0)
	beq	a5,zero,.L364
	.loc 1 1927 59 discriminator 1
	ld	a0,-80(s0)
	call	FreePool@plt
	.loc 1 1927 114 discriminator 2
	sd	zero,-80(s0)
.L364:
	.loc 1 1928 29
	ld	a5,-96(s0)
	sd	a5,-80(s0)
.L346:
	.loc 1 1931 29
	lw	a4,-132(s0)
	.loc 1 1931 10
	li	a5,1
	bne	a4,a5,.L365
	.loc 1 1932 24
	lbu	a4,-57(s0)
	li	a5,88
	mul	a5,a4,a5
	ld	a4,-40(s0)
	add	a5,a4,a5
	.loc 1 1932 31
	lbu	a5,0(a5)
	.loc 1 1932 12
	beq	a5,zero,.L366
	.loc 1 1933 21
	lbu	a5,-59(s0)
	addiw	a5,a5,1
	sb	a5,-59(s0)
.L366:
	.loc 1 1936 19
	lla	a5,mHandleParsingHiiHandle
	ld	a5,0(a5)
	li	a2,0
	li	a1,326
	mv	a0,a5
	call	HiiGetString@plt
	sd	a0,-104(s0)
	.loc 1 1937 12
	ld	a5,-104(s0)
	beq	a5,zero,.L413
	.loc 1 1941 22
	lbu	a5,-57(s0)
	sext.w	a0,a5
	.loc 1 1945 35
	lbu	a4,-57(s0)
	li	a5,88
	mul	a5,a4,a5
	ld	a4,-40(s0)
	add	a5,a4,a5
	.loc 1 1945 42
	lbu	a5,0(a5)
	.loc 1 1941 22
	sext.w	t1,a5
	.loc 1 1946 36
	lbu	a4,-57(s0)
	li	a5,88
	mul	a5,a4,a5
	ld	a4,-40(s0)
	add	a5,a4,a5
	.loc 1 1941 22
	addi	t3,a5,4
	.loc 1 1947 35
	lbu	a4,-57(s0)
	li	a5,88
	mul	a5,a4,a5
	ld	a4,-40(s0)
	add	a5,a4,a5
	.loc 1 1941 22
	ld	t4,24(a5)
	.loc 1 1948 35
	lbu	a4,-57(s0)
	li	a5,88
	mul	a5,a4,a5
	ld	a4,-40(s0)
	add	a5,a4,a5
	.loc 1 1941 22
	ld	a6,32(a5)
	.loc 1 1949 35
	lbu	a4,-57(s0)
	li	a5,88
	mul	a5,a4,a5
	ld	a4,-40(s0)
	add	a5,a4,a5
	.loc 1 1941 22
	lw	a7,40(a5)
	.loc 1 1950 35
	lbu	a4,-57(s0)
	li	a5,88
	mul	a5,a4,a5
	ld	a4,-40(s0)
	add	a5,a4,a5
	.loc 1 1941 22
	ld	a5,48(a5)
	.loc 1 1951 35
	lbu	a3,-57(s0)
	li	a4,88
	mul	a4,a3,a4
	ld	a3,-40(s0)
	add	a4,a3,a4
	.loc 1 1941 22
	ld	a4,56(a4)
	.loc 1 1952 35
	lbu	a2,-57(s0)
	li	a3,88
	mul	a3,a2,a3
	ld	a2,-40(s0)
	add	a3,a2,a3
	.loc 1 1941 22
	ld	a3,64(a3)
	.loc 1 1954 35
	lbu	a1,-57(s0)
	li	a2,88
	mul	a2,a1,a2
	ld	a1,-40(s0)
	add	a2,a1,a2
	.loc 1 1941 22
	ld	a2,80(a2)
	sd	a2,32(sp)
	ld	a2,-80(s0)
	sd	a2,24(sp)
	sd	a3,16(sp)
	sd	a4,8(sp)
	sd	a5,0(sp)
	mv	a5,t4
	mv	a4,t3
	mv	a3,t1
	mv	a2,a0
	ld	a1,-104(s0)
	ld	a0,-72(s0)
	call	CatSPrint@plt
	sd	a0,-96(s0)
	.loc 1 1956 17
	ld	a5,-72(s0)
	beq	a5,zero,.L368
	.loc 1 1956 46 discriminator 1
	ld	a0,-72(s0)
	call	FreePool@plt
	.loc 1 1956 75 discriminator 2
	sd	zero,-72(s0)
.L368:
	.loc 1 1957 16
	ld	a5,-96(s0)
	sd	a5,-72(s0)
	.loc 1 1958 17
	ld	a5,-104(s0)
	beq	a5,zero,.L369
	.loc 1 1958 47 discriminator 1
	ld	a0,-104(s0)
	call	FreePool@plt
	.loc 1 1958 78 discriminator 2
	sd	zero,-104(s0)
	j	.L369
.L365:
	.loc 1 1959 36
	lw	a4,-132(s0)
	.loc 1 1959 17
	li	a5,2
	bne	a4,a5,.L370
	.loc 1 1960 24
	lbu	a4,-57(s0)
	mv	a5,a4
	slli	a5,a5,1
	add	a5,a5,a4
	slli	a5,a5,5
	mv	a4,a5
	ld	a5,-48(s0)
	add	a5,a5,a4
	.loc 1 1960 31
	lbu	a5,0(a5)
	.loc 1 1960 12
	beq	a5,zero,.L371
	.loc 1 1961 21
	lbu	a5,-59(s0)
	addiw	a5,a5,1
	sb	a5,-59(s0)
.L371:
	.loc 1 1964 19
	lla	a5,mHandleParsingHiiHandle
	ld	a5,0(a5)
	li	a2,0
	li	a1,327
	mv	a0,a5
	call	HiiGetString@plt
	sd	a0,-104(s0)
	.loc 1 1965 12
	ld	a5,-104(s0)
	beq	a5,zero,.L414
	.loc 1 1969 22
	lbu	a5,-57(s0)
	sext.w	t1,a5
	.loc 1 1973 35
	lbu	a4,-57(s0)
	mv	a5,a4
	slli	a5,a5,1
	add	a5,a5,a4
	slli	a5,a5,5
	mv	a4,a5
	ld	a5,-48(s0)
	add	a5,a5,a4
	.loc 1 1973 42
	lbu	a5,0(a5)
	.loc 1 1969 22
	sext.w	t3,a5
	.loc 1 1974 36
	lbu	a4,-57(s0)
	mv	a5,a4
	slli	a5,a5,1
	add	a5,a5,a4
	slli	a5,a5,5
	mv	a4,a5
	ld	a5,-48(s0)
	add	a5,a5,a4
	.loc 1 1969 22
	addi	t4,a5,4
	.loc 1 1975 35
	lbu	a4,-57(s0)
	mv	a5,a4
	slli	a5,a5,1
	add	a5,a5,a4
	slli	a5,a5,5
	mv	a4,a5
	ld	a5,-48(s0)
	add	a5,a5,a4
	.loc 1 1969 22
	ld	t5,24(a5)
	.loc 1 1976 35
	lbu	a4,-57(s0)
	mv	a5,a4
	slli	a5,a5,1
	add	a5,a5,a4
	slli	a5,a5,5
	mv	a4,a5
	ld	a5,-48(s0)
	add	a5,a5,a4
	.loc 1 1969 22
	ld	a6,32(a5)
	.loc 1 1977 35
	lbu	a4,-57(s0)
	mv	a5,a4
	slli	a5,a5,1
	add	a5,a5,a4
	slli	a5,a5,5
	mv	a4,a5
	ld	a5,-48(s0)
	add	a5,a5,a4
	.loc 1 1969 22
	lw	a7,40(a5)
	.loc 1 1978 35
	lbu	a4,-57(s0)
	mv	a5,a4
	slli	a5,a5,1
	add	a5,a5,a4
	slli	a5,a5,5
	mv	a4,a5
	ld	a5,-48(s0)
	add	a5,a5,a4
	.loc 1 1969 22
	ld	a3,48(a5)
	.loc 1 1979 35
	lbu	a4,-57(s0)
	mv	a5,a4
	slli	a5,a5,1
	add	a5,a5,a4
	slli	a5,a5,5
	mv	a4,a5
	ld	a5,-48(s0)
	add	a5,a5,a4
	.loc 1 1969 22
	ld	a2,56(a5)
	.loc 1 1980 35
	lbu	a4,-57(s0)
	mv	a5,a4
	slli	a5,a5,1
	add	a5,a5,a4
	slli	a5,a5,5
	mv	a4,a5
	ld	a5,-48(s0)
	add	a5,a5,a4
	.loc 1 1969 22
	ld	a1,64(a5)
	.loc 1 1982 35
	lbu	a4,-57(s0)
	mv	a5,a4
	slli	a5,a5,1
	add	a5,a5,a4
	slli	a5,a5,5
	mv	a4,a5
	ld	a5,-48(s0)
	add	a5,a5,a4
	.loc 1 1969 22
	ld	a0,80(a5)
	.loc 1 1983 35
	lbu	a4,-57(s0)
	mv	a5,a4
	slli	a5,a5,1
	add	a5,a5,a4
	slli	a5,a5,5
	mv	a4,a5
	ld	a5,-48(s0)
	add	a5,a5,a4
	.loc 1 1969 22
	lw	a5,88(a5)
	sd	a5,40(sp)
	sd	a0,32(sp)
	ld	a5,-80(s0)
	sd	a5,24(sp)
	sd	a1,16(sp)
	sd	a2,8(sp)
	sd	a3,0(sp)
	mv	a5,t5
	mv	a4,t4
	mv	a3,t3
	mv	a2,t1
	ld	a1,-104(s0)
	ld	a0,-72(s0)
	call	CatSPrint@plt
	sd	a0,-96(s0)
	.loc 1 1985 17
	ld	a5,-72(s0)
	beq	a5,zero,.L373
	.loc 1 1985 46 discriminator 1
	ld	a0,-72(s0)
	call	FreePool@plt
	.loc 1 1985 75 discriminator 2
	sd	zero,-72(s0)
.L373:
	.loc 1 1986 16
	ld	a5,-96(s0)
	sd	a5,-72(s0)
	.loc 1 1987 17
	ld	a5,-104(s0)
	beq	a5,zero,.L369
	.loc 1 1987 47 discriminator 1
	ld	a0,-104(s0)
	call	FreePool@plt
	.loc 1 1987 78 discriminator 2
	sd	zero,-104(s0)
	j	.L369
.L370:
	.loc 1 1989 22
	lbu	a4,-57(s0)
	mv	a5,a4
	slli	a5,a5,4
	sub	a5,a5,a4
	slli	a5,a5,3
	mv	a4,a5
	ld	a5,-32(s0)
	add	a5,a5,a4
	.loc 1 1989 29
	lbu	a5,0(a5)
	.loc 1 1989 12
	beq	a5,zero,.L374
	.loc 1 1990 21
	lbu	a5,-59(s0)
	addiw	a5,a5,1
	sb	a5,-59(s0)
.L374:
	.loc 1 1993 19
	lla	a5,mHandleParsingHiiHandle
	ld	a5,0(a5)
	li	a2,0
	li	a1,325
	mv	a0,a5
	call	HiiGetString@plt
	sd	a0,-104(s0)
	.loc 1 1994 12
	ld	a5,-104(s0)
	beq	a5,zero,.L415
	.loc 1 1998 22
	lbu	a5,-57(s0)
	sext.w	t3,a5
	.loc 1 2002 33
	lbu	a4,-57(s0)
	mv	a5,a4
	slli	a5,a5,4
	sub	a5,a5,a4
	slli	a5,a5,3
	mv	a4,a5
	ld	a5,-32(s0)
	add	a5,a5,a4
	.loc 1 2002 40
	lbu	a5,0(a5)
	.loc 1 1998 22
	sext.w	t4,a5
	.loc 1 2003 34
	lbu	a4,-57(s0)
	mv	a5,a4
	slli	a5,a5,4
	sub	a5,a5,a4
	slli	a5,a5,3
	mv	a4,a5
	ld	a5,-32(s0)
	add	a5,a5,a4
	.loc 1 1998 22
	addi	t5,a5,4
	.loc 1 2004 33
	lbu	a4,-57(s0)
	mv	a5,a4
	slli	a5,a5,4
	sub	a5,a5,a4
	slli	a5,a5,3
	mv	a4,a5
	ld	a5,-32(s0)
	add	a5,a5,a4
	.loc 1 1998 22
	ld	t6,24(a5)
	.loc 1 2005 33
	lbu	a4,-57(s0)
	mv	a5,a4
	slli	a5,a5,4
	sub	a5,a5,a4
	slli	a5,a5,3
	mv	a4,a5
	ld	a5,-32(s0)
	add	a5,a5,a4
	.loc 1 1998 22
	ld	t0,32(a5)
	.loc 1 2006 33
	lbu	a4,-57(s0)
	mv	a5,a4
	slli	a5,a5,4
	sub	a5,a5,a4
	slli	a5,a5,3
	mv	a4,a5
	ld	a5,-32(s0)
	add	a5,a5,a4
	.loc 1 1998 22
	lw	t2,40(a5)
	.loc 1 2007 33
	lbu	a4,-57(s0)
	mv	a5,a4
	slli	a5,a5,4
	sub	a5,a5,a4
	slli	a5,a5,3
	mv	a4,a5
	ld	a5,-32(s0)
	add	a5,a5,a4
	.loc 1 1998 22
	ld	a3,48(a5)
	.loc 1 2008 33
	lbu	a4,-57(s0)
	mv	a5,a4
	slli	a5,a5,4
	sub	a5,a5,a4
	slli	a5,a5,3
	mv	a4,a5
	ld	a5,-32(s0)
	add	a5,a5,a4
	.loc 1 1998 22
	ld	a2,56(a5)
	.loc 1 2009 33
	lbu	a4,-57(s0)
	mv	a5,a4
	slli	a5,a5,4
	sub	a5,a5,a4
	slli	a5,a5,3
	mv	a4,a5
	ld	a5,-32(s0)
	add	a5,a5,a4
	.loc 1 1998 22
	ld	a1,64(a5)
	.loc 1 2011 33
	lbu	a4,-57(s0)
	mv	a5,a4
	slli	a5,a5,4
	sub	a5,a5,a4
	slli	a5,a5,3
	mv	a4,a5
	ld	a5,-32(s0)
	add	a5,a5,a4
	.loc 1 1998 22
	ld	a0,80(a5)
	.loc 1 2012 33
	lbu	a4,-57(s0)
	mv	a5,a4
	slli	a5,a5,4
	sub	a5,a5,a4
	slli	a5,a5,3
	mv	a4,a5
	ld	a5,-32(s0)
	add	a5,a5,a4
	.loc 1 1998 22
	lw	a6,88(a5)
	.loc 1 2013 33
	lbu	a4,-57(s0)
	mv	a5,a4
	slli	a5,a5,4
	sub	a5,a5,a4
	slli	a5,a5,3
	mv	a4,a5
	ld	a5,-32(s0)
	add	a5,a5,a4
	.loc 1 1998 22
	lw	a7,92(a5)
	.loc 1 2014 33
	lbu	a4,-57(s0)
	mv	a5,a4
	slli	a5,a5,4
	sub	a5,a5,a4
	slli	a5,a5,3
	mv	a4,a5
	ld	a5,-32(s0)
	add	a5,a5,a4
	.loc 1 1998 22
	lw	t1,96(a5)
	.loc 1 2015 33
	lbu	a4,-57(s0)
	mv	a5,a4
	slli	a5,a5,4
	sub	a5,a5,a4
	slli	a5,a5,3
	mv	a4,a5
	ld	a5,-32(s0)
	add	a5,a5,a4
	.loc 1 1998 22
	ld	a5,104(a5)
	sd	a5,64(sp)
	sd	t1,56(sp)
	sd	a7,48(sp)
	sd	a6,40(sp)
	sd	a0,32(sp)
	ld	a5,-80(s0)
	sd	a5,24(sp)
	sd	a1,16(sp)
	sd	a2,8(sp)
	sd	a3,0(sp)
	mv	a7,t2
	mv	a6,t0
	mv	a5,t6
	mv	a4,t5
	mv	a3,t4
	mv	a2,t3
	ld	a1,-104(s0)
	ld	a0,-72(s0)
	call	CatSPrint@plt
	sd	a0,-96(s0)
	.loc 1 2017 17
	ld	a5,-72(s0)
	beq	a5,zero,.L376
	.loc 1 2017 46 discriminator 1
	ld	a0,-72(s0)
	call	FreePool@plt
	.loc 1 2017 75 discriminator 2
	sd	zero,-72(s0)
.L376:
	.loc 1 2018 16
	ld	a5,-96(s0)
	sd	a5,-72(s0)
	.loc 1 2019 17
	ld	a5,-104(s0)
	beq	a5,zero,.L369
	.loc 1 2019 47 discriminator 1
	ld	a0,-104(s0)
	call	FreePool@plt
	.loc 1 2019 78 discriminator 2
	sd	zero,-104(s0)
.L369:
	.loc 1 1838 51 discriminator 2
	lbu	a5,-57(s0)
	addiw	a5,a5,1
	sb	a5,-57(s0)
.L340:
	.loc 1 1838 27 discriminator 1
	lbu	a4,-137(s0)
	lbu	a5,-57(s0)
	andi	a5,a5,0xff
	bltu	a5,a4,.L377
.L320:
	.loc 1 2024 6
	lbu	a5,-59(s0)
	andi	a5,a5,0xff
	beq	a5,zero,.L416
	.loc 1 2025 16
	sb	zero,-57(s0)
	.loc 1 2025 5
	j	.L379
.L385:
	.loc 1 2026 19
	lbu	a5,-57(s0)
	addiw	a5,a5,1
	sb	a5,-58(s0)
	.loc 1 2026 7
	j	.L380
.L384:
	.loc 1 2027 31
	lw	a4,-132(s0)
	.loc 1 2027 12
	li	a5,1
	bne	a4,a5,.L381
	.loc 1 2028 26
	lbu	a4,-57(s0)
	li	a5,88
	mul	a5,a4,a5
	ld	a4,-40(s0)
	add	a5,a4,a5
	.loc 1 2028 33
	ld	a4,24(a5)
	.loc 1 2028 56
	lbu	a3,-58(s0)
	li	a5,88
	mul	a5,a3,a5
	ld	a3,-40(s0)
	add	a5,a3,a5
	.loc 1 2028 64
	ld	a5,24(a5)
	.loc 1 2028 14
	bne	a4,a5,.L382
	.loc 1 2029 19
	li	a5,1
	sb	a5,-81(s0)
	.loc 1 2033 13
	j	.L378
.L381:
	.loc 1 2035 38
	lw	a4,-132(s0)
	.loc 1 2035 19
	li	a5,2
	bne	a4,a5,.L383
	.loc 1 2036 26
	lbu	a4,-57(s0)
	mv	a5,a4
	slli	a5,a5,1
	add	a5,a5,a4
	slli	a5,a5,5
	mv	a4,a5
	ld	a5,-48(s0)
	add	a5,a5,a4
	.loc 1 2036 33
	ld	a3,24(a5)
	.loc 1 2036 56
	lbu	a4,-58(s0)
	mv	a5,a4
	slli	a5,a5,1
	add	a5,a5,a4
	slli	a5,a5,5
	mv	a4,a5
	ld	a5,-48(s0)
	add	a5,a5,a4
	.loc 1 2036 64
	ld	a5,24(a5)
	.loc 1 2036 14
	bne	a3,a5,.L382
	.loc 1 2037 19
	li	a5,1
	sb	a5,-81(s0)
	.loc 1 2041 13
	j	.L378
.L383:
	.loc 1 2044 24
	lbu	a4,-57(s0)
	mv	a5,a4
	slli	a5,a5,4
	sub	a5,a5,a4
	slli	a5,a5,3
	mv	a4,a5
	ld	a5,-32(s0)
	add	a5,a5,a4
	.loc 1 2044 31
	ld	a3,24(a5)
	.loc 1 2044 52
	lbu	a4,-58(s0)
	mv	a5,a4
	slli	a5,a5,4
	sub	a5,a5,a4
	slli	a5,a5,3
	mv	a4,a5
	ld	a5,-32(s0)
	add	a5,a5,a4
	.loc 1 2044 60
	ld	a5,24(a5)
	.loc 1 2044 14
	bne	a3,a5,.L382
	.loc 1 2045 19
	li	a5,1
	sb	a5,-81(s0)
	.loc 1 2049 13
	j	.L378
.L382:
	.loc 1 2026 62 discriminator 2
	lbu	a5,-58(s0)
	addiw	a5,a5,1
	sb	a5,-58(s0)
.L380:
	.loc 1 2026 37 discriminator 1
	lbu	a4,-137(s0)
	lbu	a5,-58(s0)
	andi	a5,a5,0xff
	bltu	a5,a4,.L384
	.loc 1 2025 51 discriminator 2
	lbu	a5,-57(s0)
	addiw	a5,a5,1
	sb	a5,-57(s0)
.L379:
	.loc 1 2025 27 discriminator 1
	lbu	a4,-137(s0)
	lbu	a5,-57(s0)
	andi	a5,a5,0xff
	bltu	a5,a4,.L385
.L416:
	.loc 1 2056 1
	nop
.L378:
	.loc 1 2060 6
	lbu	a5,-81(s0)
	andi	a5,a5,0xff
	beq	a5,zero,.L386
	.loc 1 2061 15
	lla	a5,mHandleParsingHiiHandle
	ld	a5,0(a5)
	li	a2,0
	li	a1,318
	mv	a0,a5
	call	HiiGetString@plt
	sd	a0,-104(s0)
	.loc 1 2062 8
	ld	a5,-104(s0)
	beq	a5,zero,.L417
	.loc 1 2066 18
	ld	a1,-104(s0)
	ld	a0,-72(s0)
	call	CatSPrint@plt
	sd	a0,-96(s0)
	.loc 1 2067 13
	ld	a5,-72(s0)
	beq	a5,zero,.L388
	.loc 1 2067 42 discriminator 1
	ld	a0,-72(s0)
	call	FreePool@plt
	.loc 1 2067 71 discriminator 2
	sd	zero,-72(s0)
.L388:
	.loc 1 2068 12
	ld	a5,-96(s0)
	sd	a5,-72(s0)
	.loc 1 2069 13
	ld	a5,-104(s0)
	beq	a5,zero,.L386
	.loc 1 2069 43 discriminator 1
	ld	a0,-104(s0)
	call	FreePool@plt
	.loc 1 2069 74 discriminator 2
	sd	zero,-104(s0)
.L386:
	.loc 1 2072 11
	ld	a5,-32(s0)
	beq	a5,zero,.L389
	.loc 1 2072 43 discriminator 1
	ld	a0,-32(s0)
	call	FreePool@plt
	.loc 1 2072 78 discriminator 2
	sd	zero,-32(s0)
.L389:
	.loc 1 2073 33
	ld	a5,-152(s0)
	.loc 1 2073 11
	beq	a5,zero,.L390
	.loc 1 2073 52 discriminator 1
	ld	a5,-152(s0)
	mv	a0,a5
	call	FreePool@plt
	.loc 1 2073 105 discriminator 2
	sd	zero,-152(s0)
.L390:
	.loc 1 2074 11
	ld	a5,-80(s0)
	beq	a5,zero,.L391
	.loc 1 2074 53 discriminator 1
	ld	a0,-80(s0)
	call	FreePool@plt
	.loc 1 2074 108 discriminator 2
	sd	zero,-80(s0)
.L391:
	.loc 1 2076 10
	ld	a5,-72(s0)
	j	.L396
.L397:
	.loc 1 1744 5
	nop
	j	.L319
.L398:
	.loc 1 1752 7
	nop
	j	.L319
.L399:
	.loc 1 1763 7
	nop
	j	.L319
.L400:
	.loc 1 1768 7
	nop
	j	.L319
.L401:
	.loc 1 1778 7
	nop
	j	.L319
.L402:
	.loc 1 1791 7
	nop
	j	.L319
.L403:
	.loc 1 1804 7
	nop
	j	.L319
.L404:
	.loc 1 1817 7
	nop
	j	.L319
.L405:
	.loc 1 1830 7
	nop
	j	.L319
.L406:
	.loc 1 1869 11
	nop
	j	.L319
.L407:
	.loc 1 1875 13
	nop
	j	.L319
.L408:
	.loc 1 1885 13
	nop
	j	.L319
.L409:
	.loc 1 1895 13
	nop
	j	.L319
.L410:
	.loc 1 1905 13
	nop
	j	.L319
.L411:
	.loc 1 1915 13
	nop
	j	.L319
.L412:
	.loc 1 1924 11
	nop
	j	.L319
.L413:
	.loc 1 1938 11
	nop
	j	.L319
.L414:
	.loc 1 1966 11
	nop
	j	.L319
.L415:
	.loc 1 1995 11
	nop
	j	.L319
.L417:
	.loc 1 2063 7
	nop
.L319:
	.loc 1 2079 11
	ld	a5,-72(s0)
	beq	a5,zero,.L392
	.loc 1 2079 40 discriminator 1
	ld	a0,-72(s0)
	call	FreePool@plt
	.loc 1 2079 69 discriminator 2
	sd	zero,-72(s0)
.L392:
	.loc 1 2080 11
	ld	a5,-32(s0)
	beq	a5,zero,.L393
	.loc 1 2080 43 discriminator 1
	ld	a0,-32(s0)
	call	FreePool@plt
	.loc 1 2080 78 discriminator 2
	sd	zero,-32(s0)
.L393:
	.loc 1 2081 33
	ld	a5,-152(s0)
	.loc 1 2081 11
	beq	a5,zero,.L394
	.loc 1 2081 52 discriminator 1
	ld	a5,-152(s0)
	mv	a0,a5
	call	FreePool@plt
	.loc 1 2081 105 discriminator 2
	sd	zero,-152(s0)
.L394:
	.loc 1 2082 11
	ld	a5,-80(s0)
	beq	a5,zero,.L395
	.loc 1 2082 53 discriminator 1
	ld	a0,-80(s0)
	call	FreePool@plt
	.loc 1 2082 108 discriminator 2
	sd	zero,-80(s0)
.L395:
	.loc 1 2084 10
	li	a5,0
.L396:
	.loc 1 2085 1
	mv	a0,a5
	ld	ra,248(sp)
	.cfi_restore 1
	ld	s0,240(sp)
	.cfi_restore 8
	.cfi_def_cfa 2, 256
	addi	sp,sp,256
	.cfi_def_cfa_offset 0
	jr	ra
	.cfi_endproc
.LFE23:
	.size	FirmwareManagementDumpInformation, .-FirmwareManagementDumpInformation
	.section	.rodata
	.align	3
.LC59:
	.string	"%"
	.string	"s"
	.string	"\r"
	.string	"\n"
	.string	"%"
	.string	"s"
	.zero	2
	.section	.text.PartitionInfoProtocolDumpInformation,"ax",@progbits
	.align	1
	.globl	PartitionInfoProtocolDumpInformation
	.type	PartitionInfoProtocolDumpInformation, @function
PartitionInfoProtocolDumpInformation:
.LFB24:
	.loc 1 2103 1
	.cfi_startproc
	addi	sp,sp,-80
	.cfi_def_cfa_offset 80
	sd	ra,72(sp)
	sd	s0,64(sp)
	.cfi_offset 1, -8
	.cfi_offset 8, -16
	addi	s0,sp,80
	.cfi_def_cfa 8, 0
	sd	a0,-72(s0)
	mv	a5,a1
	sb	a5,-73(s0)
	.loc 1 2110 6
	lbu	a5,-73(s0)
	andi	a5,a5,0xff
	bne	a5,zero,.L419
	.loc 1 2111 12
	li	a5,0
	j	.L434
.L419:
	.loc 1 2114 15
	la	a5,gBS
	ld	a5,0(a5)
	ld	a6,280(a5)
	.loc 1 2114 12
	la	a5,gImageHandle
	ld	a3,0(a5)
	addi	a2,s0,-56
	li	a5,2
	li	a4,0
	la	a1,gEfiPartitionInfoProtocolGuid
	ld	a0,-72(s0)
	jalr	a6
.LVL32:
	sd	a0,-40(s0)
	.loc 1 2122 34
	ld	a5,-40(s0)
	.loc 1 2122 6
	bge	a5,zero,.L421
	.loc 1 2123 12
	li	a5,0
	j	.L434
.L421:
	.loc 1 2126 3
	call	HandleParsingHiiInit
	.loc 1 2128 24
	ld	a5,-56(s0)
	lbu	a4,4(a5)
	lbu	a3,5(a5)
	slli	a3,a3,8
	or	a4,a3,a4
	lbu	a3,6(a5)
	slli	a3,a3,16
	or	a4,a3,a4
	lbu	a5,7(a5)
	slli	a5,a5,24
	or	a5,a5,a4
	sext.w	a5,a5
	.loc 1 2128 3
	li	a4,2
	beq	a5,a4,.L422
	li	a4,2
	bgtu	a5,a4,.L423
	beq	a5,zero,.L424
	li	a4,1
	beq	a5,a4,.L425
	j	.L423
.L424:
	.loc 1 2130 23
	lla	a5,mHandleParsingHiiHandle
	ld	a5,0(a5)
	li	a2,0
	li	a1,328
	mv	a0,a5
	call	HiiGetString@plt
	sd	a0,-24(s0)
	.loc 1 2131 7
	j	.L426
.L425:
	.loc 1 2133 23
	lla	a5,mHandleParsingHiiHandle
	ld	a5,0(a5)
	li	a2,0
	li	a1,329
	mv	a0,a5
	call	HiiGetString@plt
	sd	a0,-24(s0)
	.loc 1 2134 7
	j	.L426
.L422:
	.loc 1 2136 23
	lla	a5,mHandleParsingHiiHandle
	ld	a5,0(a5)
	li	a2,0
	li	a1,330
	mv	a0,a5
	call	HiiGetString@plt
	sd	a0,-24(s0)
	.loc 1 2137 7
	j	.L426
.L423:
	.loc 1 2139 21
	sd	zero,-24(s0)
	.loc 1 2140 7
	nop
.L426:
	.loc 1 2143 6
	ld	a5,-24(s0)
	bne	a5,zero,.L427
	.loc 1 2144 12
	li	a5,0
	j	.L434
.L427:
	.loc 1 2147 20
	ld	a5,-56(s0)
	lbu	a5,8(a5)
	.loc 1 2147 6
	mv	a4,a5
	li	a5,1
	bne	a4,a5,.L428
	.loc 1 2148 26
	lla	a5,mHandleParsingHiiHandle
	ld	a5,0(a5)
	li	a2,0
	li	a1,331
	mv	a0,a5
	call	HiiGetString@plt
	sd	a0,-32(s0)
	j	.L429
.L428:
	.loc 1 2150 26
	lla	a5,mHandleParsingHiiHandle
	ld	a5,0(a5)
	li	a2,0
	li	a1,332
	mv	a0,a5
	call	HiiGetString@plt
	sd	a0,-32(s0)
.L429:
	.loc 1 2153 6
	ld	a5,-32(s0)
	bne	a5,zero,.L430
	.loc 1 2154 13
	ld	a5,-24(s0)
	beq	a5,zero,.L431
	.loc 1 2154 49 discriminator 1
	ld	a0,-24(s0)
	call	FreePool@plt
	.loc 1 2154 92 discriminator 2
	sd	zero,-24(s0)
.L431:
	.loc 1 2155 12
	li	a5,0
	j	.L434
.L430:
	.loc 1 2158 12
	ld	a3,-32(s0)
	ld	a2,-24(s0)
	lla	a1,.LC59
	li	a0,0
	call	CatSPrint@plt
	sd	a0,-48(s0)
	.loc 1 2165 11
	ld	a5,-32(s0)
	beq	a5,zero,.L432
	.loc 1 2165 52 discriminator 1
	ld	a0,-32(s0)
	call	FreePool@plt
	.loc 1 2165 105 discriminator 2
	sd	zero,-32(s0)
.L432:
	.loc 1 2166 11
	ld	a5,-24(s0)
	beq	a5,zero,.L433
	.loc 1 2166 47 discriminator 1
	ld	a0,-24(s0)
	call	FreePool@plt
	.loc 1 2166 90 discriminator 2
	sd	zero,-24(s0)
.L433:
	.loc 1 2167 10
	ld	a5,-48(s0)
.L434:
	.loc 1 2168 1
	mv	a0,a5
	ld	ra,72(sp)
	.cfi_restore 1
	ld	s0,64(sp)
	.cfi_restore 8
	.cfi_def_cfa 2, 80
	addi	sp,sp,80
	.cfi_def_cfa_offset 0
	jr	ra
	.cfi_endproc
.LFE24:
	.size	PartitionInfoProtocolDumpInformation, .-PartitionInfoProtocolDumpInformation
	.section	.rodata.WinNtThunkProtocolGuid,"a"
	.align	3
	.type	WinNtThunkProtocolGuid, @object
	.size	WinNtThunkProtocolGuid, 16
WinNtThunkProtocolGuid:
	.word	1489311921
	.half	30451
	.half	4564
	.base64	"vOoAgMc8iIE="
	.section	.rodata.WinNtIoProtocolGuid,"a"
	.align	3
	.type	WinNtIoProtocolGuid, @object
	.size	WinNtIoProtocolGuid, 16
WinNtIoProtocolGuid:
	.word	-1762964778
	.half	-23766
	.half	4564
	.base64	"vP0AgMc8iIE="
	.section	.rodata.WinNtSerialPortGuid,"a"
	.align	3
	.type	WinNtSerialPortGuid, @object
	.size	WinNtSerialPortGuid, 16
WinNtSerialPortGuid:
	.word	211134781
	.half	-24570
	.half	4564
	.base64	"vPoAgMc8iIE="
	.section	.rodata.EfiIsaIoProtocolGuid,"a"
	.align	3
	.type	EfiIsaIoProtocolGuid, @object
	.size	EfiIsaIoProtocolGuid, 16
EfiIsaIoProtocolGuid:
	.word	2128788804
	.half	15776
	.half	4564
	.base64	"mjgAkCc/wU0="
	.section	.rodata.EfiIsaAcpiProtocolGuid,"a"
	.align	3
	.type	EfiIsaAcpiProtocolGuid, @object
	.size	EfiIsaAcpiProtocolGuid, 16
EfiIsaAcpiProtocolGuid:
	.word	1688769244
	.half	21857
	.half	17718
	.base64	"ksd5m/wYM1U="
	.section	.data.rel.ro.local.mGuidStringListNT,"aw"
	.align	3
	.type	mGuidStringListNT, @object
	.size	mGuidStringListNT, 96
mGuidStringListNT:
	.half	96
	.zero	6
	.dword	WinNtThunkProtocolGuid
	.dword	0
	.half	97
	.zero	6
	.dword	WinNtIoProtocolGuid
	.dword	0
	.half	98
	.zero	6
	.dword	WinNtSerialPortGuid
	.dword	0
	.half	0
	.zero	6
	.dword	0
	.dword	0
	.section	.data.rel.ro.mGuidStringList,"aw"
	.align	3
	.type	mGuidStringList, @object
	.size	mGuidStringList, 6744
mGuidStringList:
	.half	2
	.zero	6
	.dword	gEfiLoadedImageProtocolGuid
	.dword	LoadedImageProtocolDumpInformation
	.half	3
	.zero	6
	.dword	gEfiDevicePathProtocolGuid
	.dword	DevicePathProtocolDumpInformation
	.half	4
	.zero	6
	.dword	gEfiLoadedImageDevicePathProtocolGuid
	.dword	LoadedImageDevicePathProtocolDumpInformation
	.half	5
	.zero	6
	.dword	gEfiDevicePathUtilitiesProtocolGuid
	.dword	0
	.half	6
	.zero	6
	.dword	gEfiDevicePathToTextProtocolGuid
	.dword	0
	.half	7
	.zero	6
	.dword	gEfiDevicePathFromTextProtocolGuid
	.dword	0
	.half	8
	.zero	6
	.dword	gEfiPcAnsiGuid
	.dword	0
	.half	9
	.zero	6
	.dword	gEfiVT100Guid
	.dword	0
	.half	10
	.zero	6
	.dword	gEfiVT100PlusGuid
	.dword	0
	.half	11
	.zero	6
	.dword	gEfiVTUTF8Guid
	.dword	0
	.half	12
	.zero	6
	.dword	gEfiDriverBindingProtocolGuid
	.dword	0
	.half	13
	.zero	6
	.dword	gEfiPlatformDriverOverrideProtocolGuid
	.dword	0
	.half	14
	.zero	6
	.dword	gEfiBusSpecificDriverOverrideProtocolGuid
	.dword	BusSpecificDriverOverrideProtocolDumpInformation
	.half	15
	.zero	6
	.dword	gEfiDriverDiagnosticsProtocolGuid
	.dword	0
	.half	16
	.zero	6
	.dword	gEfiDriverDiagnostics2ProtocolGuid
	.dword	0
	.half	17
	.zero	6
	.dword	gEfiComponentNameProtocolGuid
	.dword	0
	.half	18
	.zero	6
	.dword	gEfiComponentName2ProtocolGuid
	.dword	0
	.half	19
	.zero	6
	.dword	gEfiPlatformToDriverConfigurationProtocolGuid
	.dword	0
	.half	20
	.zero	6
	.dword	gEfiDriverSupportedEfiVersionProtocolGuid
	.dword	DriverEfiVersionProtocolDumpInformation
	.half	21
	.zero	6
	.dword	gEfiSimpleTextInProtocolGuid
	.dword	0
	.half	22
	.zero	6
	.dword	gEfiSimpleTextInputExProtocolGuid
	.dword	0
	.half	23
	.zero	6
	.dword	gEfiSimpleTextOutProtocolGuid
	.dword	TxtOutProtocolDumpInformation
	.half	24
	.zero	6
	.dword	gEfiSimplePointerProtocolGuid
	.dword	0
	.half	25
	.zero	6
	.dword	gEfiAbsolutePointerProtocolGuid
	.dword	0
	.half	26
	.zero	6
	.dword	gEfiSerialIoProtocolGuid
	.dword	0
	.half	27
	.zero	6
	.dword	gEfiGraphicsOutputProtocolGuid
	.dword	GraphicsOutputProtocolDumpInformation
	.half	28
	.zero	6
	.dword	gEfiEdidDiscoveredProtocolGuid
	.dword	EdidDiscoveredProtocolDumpInformation
	.half	29
	.zero	6
	.dword	gEfiEdidActiveProtocolGuid
	.dword	EdidActiveProtocolDumpInformation
	.half	30
	.zero	6
	.dword	gEfiEdidOverrideProtocolGuid
	.dword	0
	.half	31
	.zero	6
	.dword	gEfiConsoleInDeviceGuid
	.dword	0
	.half	32
	.zero	6
	.dword	gEfiConsoleOutDeviceGuid
	.dword	0
	.half	33
	.zero	6
	.dword	gEfiStandardErrorDeviceGuid
	.dword	0
	.half	34
	.zero	6
	.dword	gEfiLoadFileProtocolGuid
	.dword	0
	.half	35
	.zero	6
	.dword	gEfiLoadFile2ProtocolGuid
	.dword	0
	.half	36
	.zero	6
	.dword	gEfiSimpleFileSystemProtocolGuid
	.dword	0
	.half	39
	.zero	6
	.dword	gEfiTapeIoProtocolGuid
	.dword	0
	.half	40
	.zero	6
	.dword	gEfiDiskIoProtocolGuid
	.dword	0
	.half	42
	.zero	6
	.dword	gEfiBlockIoProtocolGuid
	.dword	BlockIoProtocolDumpInformation
	.half	43
	.zero	6
	.dword	gEfiUnicodeCollationProtocolGuid
	.dword	0
	.half	44
	.zero	6
	.dword	gEfiUnicodeCollation2ProtocolGuid
	.dword	0
	.half	46
	.zero	6
	.dword	gEfiPciRootBridgeIoProtocolGuid
	.dword	PciRootBridgeIoDumpInformation
	.half	47
	.zero	6
	.dword	gEfiPciIoProtocolGuid
	.dword	PciIoProtocolDumpInformation
	.half	48
	.zero	6
	.dword	gEfiScsiPassThruProtocolGuid
	.dword	0
	.half	49
	.zero	6
	.dword	gEfiScsiIoProtocolGuid
	.dword	0
	.half	50
	.zero	6
	.dword	gEfiExtScsiPassThruProtocolGuid
	.dword	0
	.half	51
	.zero	6
	.dword	gEfiIScsiInitiatorNameProtocolGuid
	.dword	0
	.half	52
	.zero	6
	.dword	gEfiUsbIoProtocolGuid
	.dword	UsbIoProtocolDumpInformation
	.half	53
	.zero	6
	.dword	gEfiUsbHcProtocolGuid
	.dword	0
	.half	54
	.zero	6
	.dword	gEfiUsb2HcProtocolGuid
	.dword	0
	.half	55
	.zero	6
	.dword	gEfiDebugSupportProtocolGuid
	.dword	DebugSupportProtocolDumpInformation
	.half	56
	.zero	6
	.dword	gEfiDebugPortProtocolGuid
	.dword	0
	.half	57
	.zero	6
	.dword	gEfiDecompressProtocolGuid
	.dword	0
	.half	58
	.zero	6
	.dword	gEfiAcpiTableProtocolGuid
	.dword	0
	.half	59
	.zero	6
	.dword	gEfiEbcProtocolGuid
	.dword	0
	.half	60
	.zero	6
	.dword	gEfiSimpleNetworkProtocolGuid
	.dword	0
	.half	61
	.zero	6
	.dword	gEfiNetworkInterfaceIdentifierProtocolGuid
	.dword	0
	.half	62
	.zero	6
	.dword	gEfiNetworkInterfaceIdentifierProtocolGuid_31
	.dword	0
	.half	63
	.zero	6
	.dword	gEfiPxeBaseCodeProtocolGuid
	.dword	0
	.half	64
	.zero	6
	.dword	gEfiPxeBaseCodeCallbackProtocolGuid
	.dword	0
	.half	65
	.zero	6
	.dword	gEfiBisProtocolGuid
	.dword	0
	.half	66
	.zero	6
	.dword	gEfiManagedNetworkServiceBindingProtocolGuid
	.dword	0
	.half	67
	.zero	6
	.dword	gEfiManagedNetworkProtocolGuid
	.dword	0
	.half	68
	.zero	6
	.dword	gEfiArpServiceBindingProtocolGuid
	.dword	0
	.half	69
	.zero	6
	.dword	gEfiArpProtocolGuid
	.dword	0
	.half	70
	.zero	6
	.dword	gEfiDhcp4ServiceBindingProtocolGuid
	.dword	0
	.half	71
	.zero	6
	.dword	gEfiDhcp4ProtocolGuid
	.dword	0
	.half	72
	.zero	6
	.dword	gEfiTcp4ServiceBindingProtocolGuid
	.dword	0
	.half	73
	.zero	6
	.dword	gEfiTcp4ProtocolGuid
	.dword	0
	.half	74
	.zero	6
	.dword	gEfiIp4ServiceBindingProtocolGuid
	.dword	0
	.half	75
	.zero	6
	.dword	gEfiIp4ProtocolGuid
	.dword	0
	.half	76
	.zero	6
	.dword	gEfiIp4ConfigProtocolGuid
	.dword	0
	.half	77
	.zero	6
	.dword	gEfiIp4Config2ProtocolGuid
	.dword	0
	.half	78
	.zero	6
	.dword	gEfiUdp4ServiceBindingProtocolGuid
	.dword	0
	.half	79
	.zero	6
	.dword	gEfiUdp4ProtocolGuid
	.dword	0
	.half	80
	.zero	6
	.dword	gEfiMtftp4ServiceBindingProtocolGuid
	.dword	0
	.half	81
	.zero	6
	.dword	gEfiMtftp4ProtocolGuid
	.dword	0
	.half	84
	.zero	6
	.dword	gEfiAuthenticationInfoProtocolGuid
	.dword	0
	.half	82
	.zero	6
	.dword	gEfiHashServiceBindingProtocolGuid
	.dword	0
	.half	83
	.zero	6
	.dword	gEfiHashProtocolGuid
	.dword	0
	.half	85
	.zero	6
	.dword	gEfiHiiFontProtocolGuid
	.dword	0
	.half	86
	.zero	6
	.dword	gEfiHiiStringProtocolGuid
	.dword	0
	.half	87
	.zero	6
	.dword	gEfiHiiImageProtocolGuid
	.dword	0
	.half	88
	.zero	6
	.dword	gEfiHiiDatabaseProtocolGuid
	.dword	0
	.half	89
	.zero	6
	.dword	gEfiHiiConfigRoutingProtocolGuid
	.dword	0
	.half	90
	.zero	6
	.dword	gEfiHiiConfigAccessProtocolGuid
	.dword	0
	.half	91
	.zero	6
	.dword	gEfiFormBrowser2ProtocolGuid
	.dword	0
	.half	113
	.zero	6
	.dword	gEfiDriverFamilyOverrideProtocolGuid
	.dword	0
	.half	114
	.zero	6
	.dword	gPcdProtocolGuid
	.dword	0
	.half	115
	.zero	6
	.dword	gEfiTcgProtocolGuid
	.dword	0
	.half	116
	.zero	6
	.dword	gEfiHiiPackageListProtocolGuid
	.dword	0
	.half	99
	.zero	6
	.dword	gEfiShellInterfaceGuid
	.dword	0
	.half	101
	.zero	6
	.dword	gEfiShellEnvironment2Guid
	.dword	0
	.half	100
	.zero	6
	.dword	gEfiShellEnvironment2Guid
	.dword	0
	.half	102
	.zero	6
	.dword	gEfiDeviceIoProtocolGuid
	.dword	0
	.half	103
	.zero	6
	.dword	gEfiUgaDrawProtocolGuid
	.dword	0
	.half	104
	.zero	6
	.dword	gEfiUgaIoProtocolGuid
	.dword	0
	.half	105
	.zero	6
	.dword	gEfiPartTypeSystemPartGuid
	.dword	0
	.half	106
	.zero	6
	.dword	gEfiPartTypeLegacyMbrGuid
	.dword	0
	.half	107
	.zero	6
	.dword	gEfiDriverConfigurationProtocolGuid
	.dword	0
	.half	108
	.zero	6
	.dword	gEfiDriverConfiguration2ProtocolGuid
	.dword	0
	.half	109
	.zero	6
	.dword	EfiIsaIoProtocolGuid
	.dword	0
	.half	110
	.zero	6
	.dword	EfiIsaAcpiProtocolGuid
	.dword	0
	.half	37
	.zero	6
	.dword	gEfiFileInfoGuid
	.dword	0
	.half	38
	.zero	6
	.dword	gEfiFileSystemInfoGuid
	.dword	0
	.half	95
	.zero	6
	.dword	gEfiGlobalVariableGuid
	.dword	0
	.half	117
	.zero	6
	.dword	gEfiIp6ServiceBindingProtocolGuid
	.dword	0
	.half	118
	.zero	6
	.dword	gEfiIp6ProtocolGuid
	.dword	0
	.half	119
	.zero	6
	.dword	gEfiIp6ConfigProtocolGuid
	.dword	0
	.half	120
	.zero	6
	.dword	gEfiMtftp6ServiceBindingProtocolGuid
	.dword	0
	.half	121
	.zero	6
	.dword	gEfiMtftp6ProtocolGuid
	.dword	0
	.half	122
	.zero	6
	.dword	gEfiDhcp6ServiceBindingProtocolGuid
	.dword	0
	.half	123
	.zero	6
	.dword	gEfiDhcp6ProtocolGuid
	.dword	0
	.half	124
	.zero	6
	.dword	gEfiUdp6ServiceBindingProtocolGuid
	.dword	0
	.half	125
	.zero	6
	.dword	gEfiUdp6ProtocolGuid
	.dword	0
	.half	126
	.zero	6
	.dword	gEfiTcp6ServiceBindingProtocolGuid
	.dword	0
	.half	127
	.zero	6
	.dword	gEfiTcp6ProtocolGuid
	.dword	0
	.half	128
	.zero	6
	.dword	gEfiVlanConfigProtocolGuid
	.dword	0
	.half	129
	.zero	6
	.dword	gEfiEapProtocolGuid
	.dword	0
	.half	130
	.zero	6
	.dword	gEfiEapManagementProtocolGuid
	.dword	0
	.half	131
	.zero	6
	.dword	gEfiFtp4ServiceBindingProtocolGuid
	.dword	0
	.half	132
	.zero	6
	.dword	gEfiFtp4ProtocolGuid
	.dword	0
	.half	133
	.zero	6
	.dword	gEfiIpSecConfigProtocolGuid
	.dword	0
	.half	134
	.zero	6
	.dword	gEfiDriverHealthProtocolGuid
	.dword	0
	.half	135
	.zero	6
	.dword	gEfiDeferredImageLoadProtocolGuid
	.dword	0
	.half	136
	.zero	6
	.dword	gEfiUserCredentialProtocolGuid
	.dword	0
	.half	137
	.zero	6
	.dword	gEfiUserManagerProtocolGuid
	.dword	0
	.half	138
	.zero	6
	.dword	gEfiAtaPassThruProtocolGuid
	.dword	0
	.half	139
	.zero	6
	.dword	gEfiFirmwareManagementProtocolGuid
	.dword	FirmwareManagementDumpInformation
	.half	140
	.zero	6
	.dword	gEfiIpSecProtocolGuid
	.dword	0
	.half	141
	.zero	6
	.dword	gEfiIpSec2ProtocolGuid
	.dword	0
	.half	142
	.zero	6
	.dword	gEfiKmsProtocolGuid
	.dword	0
	.half	143
	.zero	6
	.dword	gEfiBlockIo2ProtocolGuid
	.dword	0
	.half	144
	.zero	6
	.dword	gEfiStorageSecurityCommandProtocolGuid
	.dword	0
	.half	145
	.zero	6
	.dword	gEfiUserCredential2ProtocolGuid
	.dword	0
	.half	41
	.zero	6
	.dword	gEfiDiskIo2ProtocolGuid
	.dword	0
	.half	45
	.zero	6
	.dword	gEfiAdapterInformationProtocolGuid
	.dword	AdapterInformationDumpInformation
	.half	264
	.zero	6
	.dword	gEfiTlsServiceBindingProtocolGuid
	.dword	0
	.half	265
	.zero	6
	.dword	gEfiTlsProtocolGuid
	.dword	0
	.half	266
	.zero	6
	.dword	gEfiTlsConfigurationProtocolGuid
	.dword	0
	.half	267
	.zero	6
	.dword	gEfiSupplicantServiceBindingProtocolGuid
	.dword	0
	.half	268
	.zero	6
	.dword	gEfiSupplicantProtocolGuid
	.dword	0
	.half	269
	.zero	6
	.dword	gEfiWiFi2ProtocolGuid
	.dword	0
	.half	270
	.zero	6
	.dword	gEfiRamDiskProtocolGuid
	.dword	0
	.half	271
	.zero	6
	.dword	gEfiHiiImageDecoderProtocolGuid
	.dword	0
	.half	272
	.zero	6
	.dword	gEfiHiiImageExProtocolGuid
	.dword	0
	.half	273
	.zero	6
	.dword	gEfiSdMmcPassThruProtocolGuid
	.dword	0
	.half	274
	.zero	6
	.dword	gEfiEraseBlockProtocolGuid
	.dword	0
	.half	275
	.zero	6
	.dword	gEfiBluetoothAttributeProtocolGuid
	.dword	0
	.half	276
	.zero	6
	.dword	gEfiBluetoothAttributeServiceBindingProtocolGuid
	.dword	0
	.half	277
	.zero	6
	.dword	gEfiBluetoothLeConfigProtocolGuid
	.dword	0
	.half	278
	.zero	6
	.dword	gEfiUfsDeviceConfigProtocolGuid
	.dword	0
	.half	279
	.zero	6
	.dword	gEfiHttpBootCallbackProtocolGuid
	.dword	0
	.half	280
	.zero	6
	.dword	gEfiResetNotificationProtocolGuid
	.dword	0
	.half	281
	.zero	6
	.dword	gEfiPartitionInfoProtocolGuid
	.dword	PartitionInfoProtocolDumpInformation
	.half	282
	.zero	6
	.dword	gEfiHiiPopupProtocolGuid
	.dword	0
	.half	241
	.zero	6
	.dword	gEfiRestExProtocolGuid
	.dword	0
	.half	242
	.zero	6
	.dword	gEfiRedfishDiscoverProtocolGuid
	.dword	0
	.half	283
	.zero	6
	.dword	gEfiIdeControllerInitProtocolGuid
	.dword	0
	.half	284
	.zero	6
	.dword	gEfiDiskInfoProtocolGuid
	.dword	0
	.half	147
	.zero	6
	.dword	gEfiBdsArchProtocolGuid
	.dword	0
	.half	148
	.zero	6
	.dword	gEfiCpuArchProtocolGuid
	.dword	0
	.half	149
	.zero	6
	.dword	gEfiMetronomeArchProtocolGuid
	.dword	0
	.half	150
	.zero	6
	.dword	gEfiMonotonicCounterArchProtocolGuid
	.dword	0
	.half	151
	.zero	6
	.dword	gEfiRealTimeClockArchProtocolGuid
	.dword	0
	.half	152
	.zero	6
	.dword	gEfiResetArchProtocolGuid
	.dword	0
	.half	153
	.zero	6
	.dword	gEfiRuntimeArchProtocolGuid
	.dword	0
	.half	154
	.zero	6
	.dword	gEfiSecurityArchProtocolGuid
	.dword	0
	.half	155
	.zero	6
	.dword	gEfiTimerArchProtocolGuid
	.dword	0
	.half	156
	.zero	6
	.dword	gEfiVariableWriteArchProtocolGuid
	.dword	0
	.half	157
	.zero	6
	.dword	gEfiVariableArchProtocolGuid
	.dword	0
	.half	158
	.zero	6
	.dword	gEfiSecurityPolicyProtocolGuid
	.dword	0
	.half	159
	.zero	6
	.dword	gEfiWatchdogTimerArchProtocolGuid
	.dword	0
	.half	160
	.zero	6
	.dword	gEfiStatusCodeRuntimeProtocolGuid
	.dword	0
	.half	161
	.zero	6
	.dword	gEfiSmbusHcProtocolGuid
	.dword	0
	.half	162
	.zero	6
	.dword	gEfiFirmwareVolume2ProtocolGuid
	.dword	0
	.half	163
	.zero	6
	.dword	gEfiFirmwareVolumeBlockProtocolGuid
	.dword	0
	.half	164
	.zero	6
	.dword	gEfiCapsuleArchProtocolGuid
	.dword	0
	.half	165
	.zero	6
	.dword	gEfiMpServiceProtocolGuid
	.dword	0
	.half	166
	.zero	6
	.dword	gEfiPciHostBridgeResourceAllocationProtocolGuid
	.dword	0
	.half	167
	.zero	6
	.dword	gEfiPciPlatformProtocolGuid
	.dword	0
	.half	168
	.zero	6
	.dword	gEfiPciOverrideProtocolGuid
	.dword	0
	.half	169
	.zero	6
	.dword	gEfiPciEnumerationCompleteProtocolGuid
	.dword	0
	.half	170
	.zero	6
	.dword	gEfiIncompatiblePciDeviceSupportProtocolGuid
	.dword	0
	.half	171
	.zero	6
	.dword	gEfiPciHotPlugInitProtocolGuid
	.dword	0
	.half	172
	.zero	6
	.dword	gEfiPciHotPlugRequestProtocolGuid
	.dword	0
	.half	173
	.zero	6
	.dword	gEfiSmbiosProtocolGuid
	.dword	0
	.half	174
	.zero	6
	.dword	gEfiS3SaveStateProtocolGuid
	.dword	0
	.half	175
	.zero	6
	.dword	gEfiS3SmmSaveStateProtocolGuid
	.dword	0
	.half	176
	.zero	6
	.dword	gEfiRscHandlerProtocolGuid
	.dword	0
	.half	177
	.zero	6
	.dword	gEfiSmmRscHandlerProtocolGuid
	.dword	0
	.half	178
	.zero	6
	.dword	gEfiAcpiSdtProtocolGuid
	.dword	0
	.half	179
	.zero	6
	.dword	gEfiSioProtocolGuid
	.dword	0
	.half	180
	.zero	6
	.dword	gEfiSmmCpuIo2ProtocolGuid
	.dword	0
	.half	181
	.zero	6
	.dword	gEfiSmmBase2ProtocolGuid
	.dword	0
	.half	182
	.zero	6
	.dword	gEfiSmmAccess2ProtocolGuid
	.dword	0
	.half	183
	.zero	6
	.dword	gEfiSmmControl2ProtocolGuid
	.dword	0
	.half	184
	.zero	6
	.dword	gEfiSmmConfigurationProtocolGuid
	.dword	0
	.half	185
	.zero	6
	.dword	gEfiSmmReadyToLockProtocolGuid
	.dword	0
	.half	186
	.zero	6
	.dword	gEfiDxeSmmReadyToLockProtocolGuid
	.dword	0
	.half	187
	.zero	6
	.dword	gEfiSmmCommunicationProtocolGuid
	.dword	0
	.half	188
	.zero	6
	.dword	gEfiSmmStatusCodeProtocolGuid
	.dword	0
	.half	189
	.zero	6
	.dword	gEfiSmmCpuProtocolGuid
	.dword	0
	.half	190
	.zero	6
	.dword	gEfiSmmPciRootBridgeIoProtocolGuid
	.dword	0
	.half	191
	.zero	6
	.dword	gEfiSmmSwDispatch2ProtocolGuid
	.dword	0
	.half	192
	.zero	6
	.dword	gEfiSmmSxDispatch2ProtocolGuid
	.dword	0
	.half	193
	.zero	6
	.dword	gEfiSmmPeriodicTimerDispatch2ProtocolGuid
	.dword	0
	.half	194
	.zero	6
	.dword	gEfiSmmUsbDispatch2ProtocolGuid
	.dword	0
	.half	195
	.zero	6
	.dword	gEfiSmmGpiDispatch2ProtocolGuid
	.dword	0
	.half	196
	.zero	6
	.dword	gEfiSmmStandbyButtonDispatch2ProtocolGuid
	.dword	0
	.half	197
	.zero	6
	.dword	gEfiSmmPowerButtonDispatch2ProtocolGuid
	.dword	0
	.half	198
	.zero	6
	.dword	gEfiSmmIoTrapDispatch2ProtocolGuid
	.dword	0
	.half	114
	.zero	6
	.dword	gEfiPcdProtocolGuid
	.dword	0
	.half	199
	.zero	6
	.dword	gEfiFirmwareVolumeBlock2ProtocolGuid
	.dword	0
	.half	200
	.zero	6
	.dword	gEfiCpuIo2ProtocolGuid
	.dword	0
	.half	201
	.zero	6
	.dword	gEfiLegacyRegion2ProtocolGuid
	.dword	0
	.half	202
	.zero	6
	.dword	gEfiSecurity2ArchProtocolGuid
	.dword	0
	.half	203
	.zero	6
	.dword	gEfiSmmEndOfDxeProtocolGuid
	.dword	0
	.half	204
	.zero	6
	.dword	gEfiIsaHcProtocolGuid
	.dword	0
	.half	205
	.zero	6
	.dword	gEfiIsaHcServiceBindingProtocolGuid
	.dword	0
	.half	206
	.zero	6
	.dword	gEfiSioControlProtocolGuid
	.dword	0
	.half	207
	.zero	6
	.dword	gEfiGetPcdInfoProtocolGuid
	.dword	0
	.half	208
	.zero	6
	.dword	gEfiI2cMasterProtocolGuid
	.dword	0
	.half	209
	.zero	6
	.dword	gEfiI2cIoProtocolGuid
	.dword	0
	.half	210
	.zero	6
	.dword	gEfiI2cEnumerateProtocolGuid
	.dword	0
	.half	211
	.zero	6
	.dword	gEfiI2cHostProtocolGuid
	.dword	0
	.half	212
	.zero	6
	.dword	gEfiI2cBusConfigurationManagementProtocolGuid
	.dword	0
	.half	213
	.zero	6
	.dword	gEfiTcg2ProtocolGuid
	.dword	0
	.half	214
	.zero	6
	.dword	gEfiTimestampProtocolGuid
	.dword	0
	.half	215
	.zero	6
	.dword	gEfiRngProtocolGuid
	.dword	0
	.half	216
	.zero	6
	.dword	gEfiNvmExpressPassThruProtocolGuid
	.dword	0
	.half	217
	.zero	6
	.dword	gEfiHash2ServiceBindingProtocolGuid
	.dword	0
	.half	218
	.zero	6
	.dword	gEfiHash2ProtocolGuid
	.dword	0
	.half	219
	.zero	6
	.dword	gEfiBlockIoCryptoProtocolGuid
	.dword	0
	.half	160
	.zero	6
	.dword	gEfiSmartCardReaderProtocolGuid
	.dword	0
	.half	220
	.zero	6
	.dword	gEfiSmartCardEdgeProtocolGuid
	.dword	0
	.half	221
	.zero	6
	.dword	gEfiUsbFunctionIoProtocolGuid
	.dword	0
	.half	222
	.zero	6
	.dword	gEfiBluetoothHcProtocolGuid
	.dword	0
	.half	223
	.zero	6
	.dword	gEfiBluetoothIoServiceBindingProtocolGuid
	.dword	0
	.half	224
	.zero	6
	.dword	gEfiBluetoothIoProtocolGuid
	.dword	0
	.half	225
	.zero	6
	.dword	gEfiBluetoothConfigProtocolGuid
	.dword	0
	.half	226
	.zero	6
	.dword	gEfiRegularExpressionProtocolGuid
	.dword	0
	.half	227
	.zero	6
	.dword	gEfiBootManagerPolicyProtocolGuid
	.dword	0
	.half	228
	.zero	6
	.dword	gEfiConfigKeywordHandlerProtocolGuid
	.dword	0
	.half	229
	.zero	6
	.dword	gEfiWiFiProtocolGuid
	.dword	0
	.half	230
	.zero	6
	.dword	gEfiEapManagement2ProtocolGuid
	.dword	0
	.half	231
	.zero	6
	.dword	gEfiEapConfigurationProtocolGuid
	.dword	0
	.half	232
	.zero	6
	.dword	gEfiPkcs7VerifyProtocolGuid
	.dword	0
	.half	233
	.zero	6
	.dword	gEfiDns4ServiceBindingProtocolGuid
	.dword	0
	.half	234
	.zero	6
	.dword	gEfiDns4ProtocolGuid
	.dword	0
	.half	235
	.zero	6
	.dword	gEfiDns6ServiceBindingProtocolGuid
	.dword	0
	.half	236
	.zero	6
	.dword	gEfiDns6ProtocolGuid
	.dword	0
	.half	237
	.zero	6
	.dword	gEfiHttpServiceBindingProtocolGuid
	.dword	0
	.half	238
	.zero	6
	.dword	gEfiHttpProtocolGuid
	.dword	0
	.half	239
	.zero	6
	.dword	gEfiHttpUtilitiesProtocolGuid
	.dword	0
	.half	240
	.zero	6
	.dword	gEfiRestProtocolGuid
	.dword	0
	.half	243
	.zero	6
	.dword	gEfiMmEndOfDxeProtocolGuid
	.dword	0
	.half	244
	.zero	6
	.dword	gEfiMmIoTrapDispatchProtocolGuid
	.dword	0
	.half	245
	.zero	6
	.dword	gEfiMmPowerButtonDispatchProtocolGuid
	.dword	0
	.half	246
	.zero	6
	.dword	gEfiMmStandbyButtonDispatchProtocolGuid
	.dword	0
	.half	247
	.zero	6
	.dword	gEfiMmGpiDispatchProtocolGuid
	.dword	0
	.half	248
	.zero	6
	.dword	gEfiMmUsbDispatchProtocolGuid
	.dword	0
	.half	249
	.zero	6
	.dword	gEfiMmPeriodicTimerDispatchProtocolGuid
	.dword	0
	.half	250
	.zero	6
	.dword	gEfiMmSxDispatchProtocolGuid
	.dword	0
	.half	251
	.zero	6
	.dword	gEfiMmSwDispatchProtocolGuid
	.dword	0
	.half	252
	.zero	6
	.dword	gEfiMmPciRootBridgeIoProtocolGuid
	.dword	0
	.half	253
	.zero	6
	.dword	gEfiMmCpuProtocolGuid
	.dword	0
	.half	254
	.zero	6
	.dword	gEfiMmStatusCodeProtocolGuid
	.dword	0
	.half	255
	.zero	6
	.dword	gEfiDxeMmReadyToLockProtocolGuid
	.dword	0
	.half	256
	.zero	6
	.dword	gEfiMmConfigurationProtocolGuid
	.dword	0
	.half	257
	.zero	6
	.dword	gEfiMmReadyToLockProtocolGuid
	.dword	0
	.half	258
	.zero	6
	.dword	gEfiMmControlProtocolGuid
	.dword	0
	.half	259
	.zero	6
	.dword	gEfiMmAccessProtocolGuid
	.dword	0
	.half	260
	.zero	6
	.dword	gEfiMmBaseProtocolGuid
	.dword	0
	.half	261
	.zero	6
	.dword	gEfiMmCpuIoProtocolGuid
	.dword	0
	.half	262
	.zero	6
	.dword	gEfiMmRscHandlerProtocolGuid
	.dword	0
	.half	263
	.zero	6
	.dword	gEfiMmCommunicationProtocolGuid
	.dword	0
	.half	92
	.zero	6
	.dword	gEfiShellParametersProtocolGuid
	.dword	0
	.half	93
	.zero	6
	.dword	gEfiShellProtocolGuid
	.dword	0
	.half	94
	.zero	6
	.dword	gEfiShellDynamicCommandProtocolGuid
	.dword	0
	.half	146
	.zero	6
	.dword	gGetPcdInfoProtocolGuid
	.dword	0
	.half	0
	.zero	6
	.dword	0
	.dword	0
	.section	.text.InternalShellGetNodeFromGuid,"ax",@progbits
	.align	1
	.globl	InternalShellGetNodeFromGuid
	.type	InternalShellGetNodeFromGuid, @function
InternalShellGetNodeFromGuid:
.LFB25:
	.loc 1 2585 1
	.cfi_startproc
	addi	sp,sp,-48
	.cfi_def_cfa_offset 48
	sd	ra,40(sp)
	sd	s0,32(sp)
	.cfi_offset 1, -8
	.cfi_offset 8, -16
	addi	s0,sp,48
	.cfi_def_cfa 8, 0
	sd	a0,-40(s0)
	.loc 1 2591 18
	sd	zero,-32(s0)
	.loc 1 2591 34
	lla	a5,mGuidList
	ld	a5,0(a5)
	sd	a5,-24(s0)
	.loc 1 2591 3
	j	.L436
.L440:
	.loc 1 2592 32
	ld	a5,-24(s0)
	ld	a5,8(a5)
	.loc 1 2592 9
	ld	a1,-40(s0)
	mv	a0,a5
	call	CompareGuid@plt
	mv	a5,a0
	.loc 1 2592 8 discriminator 1
	beq	a5,zero,.L437
	.loc 1 2593 14
	ld	a5,-24(s0)
	j	.L438
.L437:
	.loc 1 2591 113 discriminator 2
	ld	a5,-32(s0)
	addi	a5,a5,1
	sd	a5,-32(s0)
	.loc 1 2591 127 discriminator 2
	ld	a5,-24(s0)
	addi	a5,a5,24
	sd	a5,-24(s0)
.L436:
	.loc 1 2591 57 discriminator 1
	lla	a5,mGuidList
	ld	a5,0(a5)
	.loc 1 2591 73 discriminator 1
	beq	a5,zero,.L439
	.loc 1 2591 86 discriminator 3
	lla	a5,mGuidListCount
	ld	a5,0(a5)
	.loc 1 2591 73 discriminator 3
	ld	a4,-32(s0)
	bltu	a4,a5,.L440
.L439:
	.loc 1 2597 7
	la	a5,_gPcd_FixedAtBuild_PcdShellIncludeNtGuids
	lbu	a5,0(a5)
	.loc 1 2597 6
	beq	a5,zero,.L441
	.loc 1 2598 21
	lla	a5,mGuidStringListNT
	sd	a5,-24(s0)
	.loc 1 2598 5
	j	.L442
.L444:
	.loc 1 2599 34
	ld	a5,-24(s0)
	ld	a5,8(a5)
	.loc 1 2599 11
	ld	a1,-40(s0)
	mv	a0,a5
	call	CompareGuid@plt
	mv	a5,a0
	.loc 1 2599 10 discriminator 1
	beq	a5,zero,.L443
	.loc 1 2600 16
	ld	a5,-24(s0)
	j	.L438
.L443:
	.loc 1 2598 118 discriminator 2
	ld	a5,-24(s0)
	addi	a5,a5,24
	sd	a5,-24(s0)
.L442:
	.loc 1 2598 69 discriminator 1
	ld	a5,-24(s0)
	beq	a5,zero,.L441
	.loc 1 2598 82 discriminator 3
	ld	a5,-24(s0)
	ld	a5,8(a5)
	.loc 1 2598 69 discriminator 3
	bne	a5,zero,.L444
.L441:
	.loc 1 2605 19
	lla	a5,mGuidStringList
	sd	a5,-24(s0)
	.loc 1 2605 3
	j	.L445
.L448:
	.loc 1 2606 32
	ld	a5,-24(s0)
	ld	a5,8(a5)
	.loc 1 2606 9
	ld	a1,-40(s0)
	mv	a0,a5
	call	CompareGuid@plt
	mv	a5,a0
	.loc 1 2606 8 discriminator 1
	beq	a5,zero,.L446
	.loc 1 2607 14
	ld	a5,-24(s0)
	j	.L438
.L446:
	.loc 1 2605 114 discriminator 2
	ld	a5,-24(s0)
	addi	a5,a5,24
	sd	a5,-24(s0)
.L445:
	.loc 1 2605 65 discriminator 1
	ld	a5,-24(s0)
	beq	a5,zero,.L447
	.loc 1 2605 78 discriminator 3
	ld	a5,-24(s0)
	ld	a5,8(a5)
	.loc 1 2605 65 discriminator 3
	bne	a5,zero,.L448
.L447:
	.loc 1 2611 10
	li	a5,0
.L438:
	.loc 1 2612 1
	mv	a0,a5
	ld	ra,40(sp)
	.cfi_restore 1
	ld	s0,32(sp)
	.cfi_restore 8
	.cfi_def_cfa 2, 48
	addi	sp,sp,48
	.cfi_def_cfa_offset 0
	jr	ra
	.cfi_endproc
.LFE25:
	.size	InternalShellGetNodeFromGuid, .-InternalShellGetNodeFromGuid
	.section	.text.InsertNewGuidNameMapping,"ax",@progbits
	.align	1
	.globl	InsertNewGuidNameMapping
	.type	InsertNewGuidNameMapping, @function
InsertNewGuidNameMapping:
.LFB26:
	.loc 1 2632 1
	.cfi_startproc
	addi	sp,sp,-64
	.cfi_def_cfa_offset 64
	sd	ra,56(sp)
	sd	s0,48(sp)
	sd	s1,40(sp)
	.cfi_offset 1, -8
	.cfi_offset 8, -16
	.cfi_offset 9, -24
	addi	s0,sp,64
	.cfi_def_cfa 8, 0
	sd	a0,-40(s0)
	mv	a5,a1
	sd	a2,-56(s0)
	sh	a5,-42(s0)
	.loc 1 2636 15
	lla	a5,mGuidListCount
	ld	a4,0(a5)
	.loc 1 2637 32
	mv	a5,a4
	slli	a5,a5,1
	add	a5,a5,a4
	slli	a5,a5,3
	mv	a3,a5
	.loc 1 2636 15
	lla	a5,mGuidListCount
	ld	a5,0(a5)
	addi	a4,a5,1
	mv	a5,a4
	slli	a5,a5,1
	add	a5,a5,a4
	slli	a5,a5,3
	mv	a4,a5
	lla	a5,mGuidList
	ld	a5,0(a5)
	mv	a2,a5
	mv	a1,a4
	mv	a0,a3
	call	ReallocatePool@plt
	mv	a4,a0
	.loc 1 2636 13 discriminator 1
	lla	a5,mGuidList
	sd	a4,0(a5)
	.loc 1 2641 17
	lla	a5,mGuidList
	ld	a5,0(a5)
	.loc 1 2641 6
	bne	a5,zero,.L450
	.loc 1 2642 20
	lla	a5,mGuidListCount
	sd	zero,0(a5)
	.loc 1 2643 12
	li	a5,-1
	slli	a5,a5,63
	addi	a5,a5,9
	j	.L451
.L450:
	.loc 1 2646 17
	lla	a5,mGuidListCount
	ld	a5,0(a5)
	addi	a4,a5,1
	lla	a5,mGuidListCount
	sd	a4,0(a5)
	.loc 1 2648 12
	lla	a5,mGuidList
	ld	a3,0(a5)
	lla	a5,mGuidListCount
	ld	a4,0(a5)
	mv	a5,a4
	slli	a5,a5,1
	add	a5,a5,a4
	slli	a5,a5,3
	addi	a5,a5,-24
	add	s1,a3,a5
	.loc 1 2648 42
	ld	a1,-40(s0)
	li	a0,16
	call	AllocateCopyPool@plt
	mv	a5,a0
	.loc 1 2648 40 discriminator 1
	sd	a5,8(s1)
	.loc 1 2649 12
	lla	a5,mGuidList
	ld	a3,0(a5)
	lla	a5,mGuidListCount
	ld	a4,0(a5)
	mv	a5,a4
	slli	a5,a5,1
	add	a5,a5,a4
	slli	a5,a5,3
	addi	a5,a5,-24
	add	a5,a3,a5
	.loc 1 2649 42
	lhu	a4,-42(s0)
	sh	a4,0(a5)
	.loc 1 2650 12
	lla	a5,mGuidList
	ld	a3,0(a5)
	lla	a5,mGuidListCount
	ld	a4,0(a5)
	mv	a5,a4
	slli	a5,a5,1
	add	a5,a5,a4
	slli	a5,a5,3
	addi	a5,a5,-24
	add	a5,a3,a5
	.loc 1 2650 42
	ld	a4,-56(s0)
	sd	a4,16(a5)
	.loc 1 2652 16
	lla	a5,mGuidList
	ld	a3,0(a5)
	lla	a5,mGuidListCount
	ld	a4,0(a5)
	mv	a5,a4
	slli	a5,a5,1
	add	a5,a5,a4
	slli	a5,a5,3
	addi	a5,a5,-24
	add	a5,a3,a5
	.loc 1 2652 36
	ld	a5,8(a5)
	.loc 1 2652 6
	bne	a5,zero,.L452
	.loc 1 2653 12
	li	a5,-1
	slli	a5,a5,63
	addi	a5,a5,9
	j	.L451
.L452:
	.loc 1 2656 10
	li	a5,0
.L451:
	.loc 1 2657 1
	mv	a0,a5
	ld	ra,56(sp)
	.cfi_restore 1
	ld	s0,48(sp)
	.cfi_restore 8
	.cfi_def_cfa 2, 64
	ld	s1,40(sp)
	.cfi_restore 9
	addi	sp,sp,64
	.cfi_def_cfa_offset 0
	jr	ra
	.cfi_endproc
.LFE26:
	.size	InsertNewGuidNameMapping, .-InsertNewGuidNameMapping
	.section	.text.AddNewGuidNameMapping,"ax",@progbits
	.align	1
	.globl	AddNewGuidNameMapping
	.type	AddNewGuidNameMapping, @function
AddNewGuidNameMapping:
.LFB27:
	.loc 1 2680 1
	.cfi_startproc
	addi	sp,sp,-64
	.cfi_def_cfa_offset 64
	sd	ra,56(sp)
	sd	s0,48(sp)
	.cfi_offset 1, -8
	.cfi_offset 8, -16
	addi	s0,sp,64
	.cfi_def_cfa 8, 0
	sd	a0,-40(s0)
	sd	a1,-48(s0)
	sd	a2,-56(s0)
	.loc 1 2683 3
	call	HandleParsingHiiInit
	.loc 1 2685 6
	ld	a5,-40(s0)
	beq	a5,zero,.L454
	.loc 1 2685 30 discriminator 1
	ld	a5,-48(s0)
	bne	a5,zero,.L455
.L454:
	.loc 1 2686 12
	li	a5,-1
	slli	a5,a5,63
	addi	a5,a5,2
	j	.L456
.L455:
	.loc 1 2689 8
	ld	a0,-40(s0)
	call	InternalShellGetNodeFromGuid
	mv	a5,a0
	.loc 1 2689 6 discriminator 1
	beq	a5,zero,.L457
	.loc 1 2690 12
	li	a5,-1
	slli	a5,a5,63
	addi	a5,a5,15
	j	.L456
.L457:
	.loc 1 2693 12
	lla	a5,mHandleParsingHiiHandle
	ld	a5,0(a5)
	ld	a3,-56(s0)
	ld	a2,-48(s0)
	li	a1,0
	mv	a0,a5
	call	HiiSetString@plt
	mv	a5,a0
	sh	a5,-18(s0)
	.loc 1 2694 6
	lhu	a5,-18(s0)
	sext.w	a5,a5
	bne	a5,zero,.L458
	.loc 1 2695 12
	li	a5,-1
	slli	a5,a5,63
	addi	a5,a5,9
	j	.L456
.L458:
	.loc 1 2698 11
	lhu	a5,-18(s0)
	li	a2,0
	mv	a1,a5
	ld	a0,-40(s0)
	call	InsertNewGuidNameMapping
	mv	a5,a0
.L456:
	.loc 1 2699 1
	mv	a0,a5
	ld	ra,56(sp)
	.cfi_restore 1
	ld	s0,48(sp)
	.cfi_restore 8
	.cfi_def_cfa 2, 64
	addi	sp,sp,64
	.cfi_def_cfa_offset 0
	jr	ra
	.cfi_endproc
.LFE27:
	.size	AddNewGuidNameMapping, .-AddNewGuidNameMapping
	.section	.text.GetStringNameFromGuid,"ax",@progbits
	.align	1
	.globl	GetStringNameFromGuid
	.type	GetStringNameFromGuid, @function
GetStringNameFromGuid:
.LFB28:
	.loc 1 2718 1
	.cfi_startproc
	addi	sp,sp,-48
	.cfi_def_cfa_offset 48
	sd	ra,40(sp)
	sd	s0,32(sp)
	.cfi_offset 1, -8
	.cfi_offset 8, -16
	addi	s0,sp,48
	.cfi_def_cfa 8, 0
	sd	a0,-40(s0)
	sd	a1,-48(s0)
	.loc 1 2721 3
	call	HandleParsingHiiInit
	.loc 1 2723 8
	ld	a0,-40(s0)
	call	InternalShellGetNodeFromGuid
	sd	a0,-24(s0)
	.loc 1 2724 6
	ld	a5,-24(s0)
	bne	a5,zero,.L460
	.loc 1 2725 12
	li	a5,0
	j	.L461
.L460:
	.loc 1 2728 10
	lla	a5,mHandleParsingHiiHandle
	ld	a4,0(a5)
	.loc 1 2728 51
	ld	a5,-24(s0)
	lhu	a5,0(a5)
	.loc 1 2728 10
	ld	a2,-48(s0)
	mv	a1,a5
	mv	a0,a4
	call	HiiGetString@plt
	mv	a5,a0
.L461:
	.loc 1 2729 1
	mv	a0,a5
	ld	ra,40(sp)
	.cfi_restore 1
	ld	s0,32(sp)
	.cfi_restore 8
	.cfi_def_cfa 2, 48
	addi	sp,sp,48
	.cfi_def_cfa_offset 0
	jr	ra
	.cfi_endproc
.LFE28:
	.size	GetStringNameFromGuid, .-GetStringNameFromGuid
	.section	.text.GetProtocolInformationDump,"ax",@progbits
	.align	1
	.globl	GetProtocolInformationDump
	.type	GetProtocolInformationDump, @function
GetProtocolInformationDump:
.LFB29:
	.loc 1 2754 1
	.cfi_startproc
	addi	sp,sp,-64
	.cfi_def_cfa_offset 64
	sd	ra,56(sp)
	sd	s0,48(sp)
	.cfi_offset 1, -8
	.cfi_offset 8, -16
	addi	s0,sp,64
	.cfi_def_cfa 8, 0
	sd	a0,-40(s0)
	sd	a1,-48(s0)
	mv	a5,a2
	sb	a5,-49(s0)
	.loc 1 2760 6
	ld	a5,-40(s0)
	beq	a5,zero,.L463
	.loc 1 2760 35 discriminator 1
	ld	a5,-48(s0)
	bne	a5,zero,.L464
.L463:
	.loc 1 2761 12
	li	a5,0
	j	.L465
.L464:
	.loc 1 2764 8
	ld	a0,-48(s0)
	call	InternalShellGetNodeFromGuid
	sd	a0,-24(s0)
	.loc 1 2765 6
	ld	a5,-24(s0)
	beq	a5,zero,.L466
	.loc 1 2765 34 discriminator 1
	ld	a5,-24(s0)
	ld	a5,16(a5)
	.loc 1 2765 28 discriminator 1
	beq	a5,zero,.L466
	.loc 1 2766 15
	ld	a5,-24(s0)
	ld	a5,16(a5)
	.loc 1 2766 13
	lbu	a4,-49(s0)
	mv	a1,a4
	ld	a0,-40(s0)
	jalr	a5
.LVL33:
	mv	a5,a0
	j	.L465
.L466:
	.loc 1 2769 10
	li	a5,0
.L465:
	.loc 1 2770 1
	mv	a0,a5
	ld	ra,56(sp)
	.cfi_restore 1
	ld	s0,48(sp)
	.cfi_restore 8
	.cfi_def_cfa 2, 64
	addi	sp,sp,64
	.cfi_def_cfa_offset 0
	jr	ra
	.cfi_endproc
.LFE29:
	.size	GetProtocolInformationDump, .-GetProtocolInformationDump
	.section	.text.GetGuidFromStringName,"ax",@progbits
	.align	1
	.globl	GetGuidFromStringName
	.type	GetGuidFromStringName, @function
GetGuidFromStringName:
.LFB30:
	.loc 1 2790 1
	.cfi_startproc
	addi	sp,sp,-80
	.cfi_def_cfa_offset 80
	sd	ra,72(sp)
	sd	s0,64(sp)
	.cfi_offset 1, -8
	.cfi_offset 8, -16
	addi	s0,sp,80
	.cfi_def_cfa 8, 0
	sd	a0,-56(s0)
	sd	a1,-64(s0)
	sd	a2,-72(s0)
	.loc 1 2795 3
	call	HandleParsingHiiInit
	.loc 1 2798 6
	ld	a5,-72(s0)
	bne	a5,zero,.L468
	.loc 1 2799 12
	li	a5,-1
	slli	a5,a5,63
	addi	a5,a5,2
	j	.L488
.L468:
	.loc 1 2802 9
	ld	a5,-72(s0)
	sd	zero,0(a5)
	.loc 1 2804 7
	la	a5,_gPcd_FixedAtBuild_PcdShellIncludeNtGuids
	lbu	a5,0(a5)
	.loc 1 2804 6
	beq	a5,zero,.L470
	.loc 1 2805 21
	lla	a5,mGuidStringListNT
	sd	a5,-24(s0)
	.loc 1 2805 5
	j	.L471
.L475:
	.loc 1 2806 16
	lla	a5,mHandleParsingHiiHandle
	ld	a4,0(a5)
	.loc 1 2806 65
	ld	a5,-24(s0)
	lhu	a5,0(a5)
	.loc 1 2806 16
	ld	a2,-64(s0)
	mv	a1,a5
	mv	a0,a4
	call	HiiGetString@plt
	mv	a5,a0
	.loc 1 2806 14 discriminator 1
	sd	a5,-40(s0)
	.loc 1 2807 17
	ld	a5,-56(s0)
	.loc 1 2807 10
	beq	a5,zero,.L472
	.loc 1 2807 45 discriminator 1
	ld	a5,-40(s0)
	.loc 1 2807 34 discriminator 1
	beq	a5,zero,.L472
	.loc 1 2807 66 discriminator 2
	addi	a4,s0,-40
	addi	a5,s0,-56
	mv	a1,a4
	mv	a0,a5
	call	StringNoCaseCompare@plt
	mv	a5,a0
	.loc 1 2807 62 discriminator 3
	bne	a5,zero,.L472
	.loc 1 2808 27
	ld	a5,-24(s0)
	ld	a4,8(a5)
	.loc 1 2808 15
	ld	a5,-72(s0)
	sd	a4,0(a5)
.L472:
	.loc 1 2811 25
	ld	a5,-40(s0)
	.loc 1 2811 15
	beq	a5,zero,.L473
	.loc 1 2811 44 discriminator 1
	ld	a5,-40(s0)
	mv	a0,a5
	call	FreePool@plt
	.loc 1 2811 73 discriminator 2
	sd	zero,-40(s0)
.L473:
	.loc 1 2812 11
	ld	a5,-72(s0)
	ld	a5,0(a5)
	.loc 1 2812 10
	beq	a5,zero,.L474
	.loc 1 2813 16
	li	a5,0
	j	.L488
.L474:
	.loc 1 2805 118 discriminator 2
	ld	a5,-24(s0)
	addi	a5,a5,24
	sd	a5,-24(s0)
.L471:
	.loc 1 2805 69 discriminator 1
	ld	a5,-24(s0)
	beq	a5,zero,.L470
	.loc 1 2805 82 discriminator 3
	ld	a5,-24(s0)
	ld	a5,8(a5)
	.loc 1 2805 69 discriminator 3
	bne	a5,zero,.L475
.L470:
	.loc 1 2818 19
	lla	a5,mGuidStringList
	sd	a5,-24(s0)
	.loc 1 2818 3
	j	.L476
.L481:
	.loc 1 2819 14
	lla	a5,mHandleParsingHiiHandle
	ld	a4,0(a5)
	.loc 1 2819 63
	ld	a5,-24(s0)
	lhu	a5,0(a5)
	.loc 1 2819 14
	ld	a2,-64(s0)
	mv	a1,a5
	mv	a0,a4
	call	HiiGetString@plt
	mv	a5,a0
	.loc 1 2819 12 discriminator 1
	sd	a5,-40(s0)
	.loc 1 2820 15
	ld	a5,-56(s0)
	.loc 1 2820 8
	beq	a5,zero,.L477
	.loc 1 2820 43 discriminator 1
	ld	a5,-40(s0)
	.loc 1 2820 32 discriminator 1
	beq	a5,zero,.L477
	.loc 1 2820 64 discriminator 2
	addi	a4,s0,-40
	addi	a5,s0,-56
	mv	a1,a4
	mv	a0,a5
	call	StringNoCaseCompare@plt
	mv	a5,a0
	.loc 1 2820 60 discriminator 3
	bne	a5,zero,.L477
	.loc 1 2821 25
	ld	a5,-24(s0)
	ld	a4,8(a5)
	.loc 1 2821 13
	ld	a5,-72(s0)
	sd	a4,0(a5)
.L477:
	.loc 1 2824 23
	ld	a5,-40(s0)
	.loc 1 2824 13
	beq	a5,zero,.L478
	.loc 1 2824 42 discriminator 1
	ld	a5,-40(s0)
	mv	a0,a5
	call	FreePool@plt
	.loc 1 2824 71 discriminator 2
	sd	zero,-40(s0)
.L478:
	.loc 1 2825 9
	ld	a5,-72(s0)
	ld	a5,0(a5)
	.loc 1 2825 8
	beq	a5,zero,.L479
	.loc 1 2826 14
	li	a5,0
	j	.L488
.L479:
	.loc 1 2818 114 discriminator 2
	ld	a5,-24(s0)
	addi	a5,a5,24
	sd	a5,-24(s0)
.L476:
	.loc 1 2818 65 discriminator 1
	ld	a5,-24(s0)
	beq	a5,zero,.L480
	.loc 1 2818 78 discriminator 3
	ld	a5,-24(s0)
	ld	a5,8(a5)
	.loc 1 2818 65 discriminator 3
	bne	a5,zero,.L481
.L480:
	.loc 1 2830 18
	sd	zero,-32(s0)
	.loc 1 2830 34
	lla	a5,mGuidList
	ld	a5,0(a5)
	sd	a5,-24(s0)
	.loc 1 2830 3
	j	.L482
.L487:
	.loc 1 2831 14
	lla	a5,mHandleParsingHiiHandle
	ld	a4,0(a5)
	.loc 1 2831 63
	ld	a5,-24(s0)
	lhu	a5,0(a5)
	.loc 1 2831 14
	ld	a2,-64(s0)
	mv	a1,a5
	mv	a0,a4
	call	HiiGetString@plt
	mv	a5,a0
	.loc 1 2831 12 discriminator 1
	sd	a5,-40(s0)
	.loc 1 2832 15
	ld	a5,-56(s0)
	.loc 1 2832 8
	beq	a5,zero,.L483
	.loc 1 2832 43 discriminator 1
	ld	a5,-40(s0)
	.loc 1 2832 32 discriminator 1
	beq	a5,zero,.L483
	.loc 1 2832 64 discriminator 2
	addi	a4,s0,-40
	addi	a5,s0,-56
	mv	a1,a4
	mv	a0,a5
	call	StringNoCaseCompare@plt
	mv	a5,a0
	.loc 1 2832 60 discriminator 3
	bne	a5,zero,.L483
	.loc 1 2833 25
	ld	a5,-24(s0)
	ld	a4,8(a5)
	.loc 1 2833 13
	ld	a5,-72(s0)
	sd	a4,0(a5)
.L483:
	.loc 1 2836 23
	ld	a5,-40(s0)
	.loc 1 2836 13
	beq	a5,zero,.L484
	.loc 1 2836 42 discriminator 1
	ld	a5,-40(s0)
	mv	a0,a5
	call	FreePool@plt
	.loc 1 2836 71 discriminator 2
	sd	zero,-40(s0)
.L484:
	.loc 1 2837 9
	ld	a5,-72(s0)
	ld	a5,0(a5)
	.loc 1 2837 8
	beq	a5,zero,.L485
	.loc 1 2838 14
	li	a5,0
	j	.L488
.L485:
	.loc 1 2830 113 discriminator 2
	ld	a5,-32(s0)
	addi	a5,a5,1
	sd	a5,-32(s0)
	.loc 1 2830 127 discriminator 2
	ld	a5,-24(s0)
	addi	a5,a5,24
	sd	a5,-24(s0)
.L482:
	.loc 1 2830 57 discriminator 1
	lla	a5,mGuidList
	ld	a5,0(a5)
	.loc 1 2830 73 discriminator 1
	beq	a5,zero,.L486
	.loc 1 2830 86 discriminator 3
	lla	a5,mGuidListCount
	ld	a5,0(a5)
	.loc 1 2830 73 discriminator 3
	ld	a4,-32(s0)
	bltu	a4,a5,.L487
.L486:
	.loc 1 2842 10
	li	a5,-1
	slli	a5,a5,63
	addi	a5,a5,14
.L488:
	.loc 1 2843 1
	mv	a0,a5
	ld	ra,72(sp)
	.cfi_restore 1
	ld	s0,64(sp)
	.cfi_restore 8
	.cfi_def_cfa 2, 80
	addi	sp,sp,80
	.cfi_def_cfa_offset 0
	jr	ra
	.cfi_endproc
.LFE30:
	.size	GetGuidFromStringName, .-GetGuidFromStringName
	.section	.rodata
	.align	3
.LC60:
	.string	"L"
	.string	"a"
	.string	"n"
	.string	"g"
	.zero	2
	.align	3
.LC61:
	.string	"P"
	.string	"l"
	.string	"a"
	.string	"t"
	.string	"f"
	.string	"o"
	.string	"r"
	.string	"m"
	.string	"L"
	.string	"a"
	.string	"n"
	.string	"g"
	.zero	2
	.align	3
.LC62:
	.string	""
	.section	.text.GetBestLanguageForDriver,"ax",@progbits
	.align	1
	.globl	GetBestLanguageForDriver
	.type	GetBestLanguageForDriver, @function
GetBestLanguageForDriver:
.LFB31:
	.loc 1 2865 1
	.cfi_startproc
	addi	sp,sp,-64
	.cfi_def_cfa_offset 64
	sd	ra,56(sp)
	sd	s0,48(sp)
	.cfi_offset 1, -8
	.cfi_offset 8, -16
	addi	s0,sp,64
	.cfi_def_cfa 8, 0
	sd	a0,-40(s0)
	sd	a1,-48(s0)
	mv	a5,a2
	sb	a5,-49(s0)
	.loc 1 2869 3
	lbu	a5,-49(s0)
	andi	a5,a5,0xff
	beq	a5,zero,.L490
	.loc 1 2869 3 is_stmt 0 discriminator 1
	lla	a5,.LC60
	j	.L491
.L490:
	.loc 1 2869 3 discriminator 2
	lla	a5,.LC61
.L491:
	.loc 1 2869 3 discriminator 4
	addi	a4,s0,-32
	li	a3,0
	mv	a2,a4
	la	a1,gEfiGlobalVariableGuid
	mv	a0,a5
	call	GetVariable2@plt
	.loc 1 2871 18 is_stmt 1
	lbu	a1,-49(s0)
	ld	a5,-48(s0)
	beq	a5,zero,.L492
	.loc 1 2871 18 is_stmt 0 discriminator 1
	ld	a2,-48(s0)
	j	.L493
.L492:
	.loc 1 2871 18 discriminator 2
	lla	a2,.LC62
.L493:
	.loc 1 2875 38 is_stmt 1
	ld	a5,-32(s0)
	.loc 1 2871 18 discriminator 4
	beq	a5,zero,.L494
	.loc 1 2871 18 is_stmt 0 discriminator 5
	ld	a3,-32(s0)
	j	.L495
.L494:
	.loc 1 2871 18 discriminator 6
	lla	a3,.LC62
.L495:
	.loc 1 2871 18 discriminator 8
	li	a5,0
	ld	a4,-40(s0)
	ld	a0,-40(s0)
	call	GetBestLanguage@plt
	sd	a0,-24(s0)
	.loc 1 2880 24 is_stmt 1
	ld	a5,-32(s0)
	.loc 1 2880 6
	beq	a5,zero,.L496
	.loc 1 2881 5
	ld	a5,-32(s0)
	mv	a0,a5
	call	FreePool@plt
.L496:
	.loc 1 2884 10
	ld	a5,-24(s0)
	.loc 1 2885 1
	mv	a0,a5
	ld	ra,56(sp)
	.cfi_restore 1
	ld	s0,48(sp)
	.cfi_restore 8
	.cfi_def_cfa 2, 64
	addi	sp,sp,64
	.cfi_def_cfa_offset 0
	jr	ra
	.cfi_endproc
.LFE31:
	.size	GetBestLanguageForDriver, .-GetBestLanguageForDriver
	.section	.text.GetStringNameFromHandle,"ax",@progbits
	.align	1
	.globl	GetStringNameFromHandle
	.type	GetStringNameFromHandle, @function
GetStringNameFromHandle:
.LFB32:
	.loc 1 2903 1
	.cfi_startproc
	addi	sp,sp,-64
	.cfi_def_cfa_offset 64
	sd	ra,56(sp)
	sd	s0,48(sp)
	.cfi_offset 1, -8
	.cfi_offset 8, -16
	addi	s0,sp,64
	.cfi_def_cfa 8, 0
	sd	a0,-56(s0)
	sd	a1,-64(s0)
	.loc 1 2909 12
	sd	zero,-24(s0)
	.loc 1 2911 15
	la	a5,gBS
	ld	a5,0(a5)
	ld	a6,280(a5)
	.loc 1 2911 12
	la	a5,gImageHandle
	ld	a3,0(a5)
	addi	a2,s0,-40
	li	a5,2
	li	a4,0
	la	a1,gEfiComponentName2ProtocolGuid
	ld	a0,-56(s0)
	jalr	a6
.LVL34:
	sd	a0,-32(s0)
	.loc 1 2919 7
	ld	a5,-32(s0)
	.loc 1 2919 6
	blt	a5,zero,.L499
	.loc 1 2920 56
	ld	a5,-40(s0)
	ld	a5,16(a5)
	.loc 1 2920 16
	li	a2,0
	ld	a1,-64(s0)
	mv	a0,a5
	call	GetBestLanguageForDriver
	sd	a0,-24(s0)
	.loc 1 2921 8
	ld	a5,-24(s0)
	bne	a5,zero,.L500
	.loc 1 2922 14
	li	a5,0
	j	.L506
.L500:
	.loc 1 2925 28
	ld	a5,-40(s0)
	ld	a5,0(a5)
	.loc 1 2925 14
	ld	a4,-40(s0)
	addi	a3,s0,-48
	mv	a2,a3
	ld	a1,-24(s0)
	mv	a0,a4
	jalr	a5
.LVL35:
	sd	a0,-32(s0)
	.loc 1 2926 8
	ld	a5,-24(s0)
	beq	a5,zero,.L502
	.loc 1 2927 7
	ld	a0,-24(s0)
	call	FreePool@plt
	.loc 1 2928 16
	sd	zero,-24(s0)
.L502:
	.loc 1 2931 9
	ld	a5,-32(s0)
	.loc 1 2931 8
	blt	a5,zero,.L499
	.loc 1 2932 14
	ld	a5,-48(s0)
	j	.L506
.L499:
	.loc 1 2936 15
	la	a5,gBS
	ld	a5,0(a5)
	ld	a6,280(a5)
	.loc 1 2936 12
	la	a5,gImageHandle
	ld	a3,0(a5)
	addi	a2,s0,-40
	li	a5,2
	li	a4,0
	la	a1,gEfiComponentNameProtocolGuid
	ld	a0,-56(s0)
	jalr	a6
.LVL36:
	sd	a0,-32(s0)
	.loc 1 2944 7
	ld	a5,-32(s0)
	.loc 1 2944 6
	blt	a5,zero,.L503
	.loc 1 2945 56
	ld	a5,-40(s0)
	ld	a5,16(a5)
	.loc 1 2945 16
	li	a2,0
	ld	a1,-64(s0)
	mv	a0,a5
	call	GetBestLanguageForDriver
	sd	a0,-24(s0)
	.loc 1 2946 8
	ld	a5,-24(s0)
	bne	a5,zero,.L504
	.loc 1 2947 14
	li	a5,0
	j	.L506
.L504:
	.loc 1 2950 28
	ld	a5,-40(s0)
	ld	a5,0(a5)
	.loc 1 2950 14
	ld	a4,-40(s0)
	addi	a3,s0,-48
	mv	a2,a3
	ld	a1,-24(s0)
	mv	a0,a4
	jalr	a5
.LVL37:
	sd	a0,-32(s0)
	.loc 1 2951 8
	ld	a5,-24(s0)
	beq	a5,zero,.L505
	.loc 1 2952 7
	ld	a0,-24(s0)
	call	FreePool@plt
.L505:
	.loc 1 2955 9
	ld	a5,-32(s0)
	.loc 1 2955 8
	blt	a5,zero,.L503
	.loc 1 2956 14
	ld	a5,-48(s0)
	j	.L506
.L503:
	.loc 1 2960 10
	li	a5,0
.L506:
	.loc 1 2961 1
	mv	a0,a5
	ld	ra,56(sp)
	.cfi_restore 1
	ld	s0,48(sp)
	.cfi_restore 8
	.cfi_def_cfa 2, 64
	addi	sp,sp,64
	.cfi_def_cfa_offset 0
	jr	ra
	.cfi_endproc
.LFE32:
	.size	GetStringNameFromHandle, .-GetStringNameFromHandle
	.section	.text.InternalShellInitHandleList,"ax",@progbits
	.align	1
	.globl	InternalShellInitHandleList
	.type	InternalShellInitHandleList, @function
InternalShellInitHandleList:
.LFB33:
	.loc 1 2973 1
	.cfi_startproc
	addi	sp,sp,-48
	.cfi_def_cfa_offset 48
	sd	ra,40(sp)
	sd	s0,32(sp)
	.cfi_offset 1, -8
	.cfi_offset 8, -16
	addi	s0,sp,48
	.cfi_def_cfa 8, 0
	.loc 1 2979 18
	lla	a5,mHandleList
	ld	a5,32(a5)
	.loc 1 2979 6
	beq	a5,zero,.L508
	.loc 1 2980 12
	li	a5,0
	j	.L514
.L508:
	.loc 1 2983 3
	lla	a0,mHandleList
	call	InitializeListHead@plt
	.loc 1 2984 25
	lla	a5,mHandleList
	li	a4,1
	sd	a4,32(a5)
	.loc 1 2985 15
	la	a5,gBS
	ld	a5,0(a5)
	ld	a5,312(a5)
	.loc 1 2985 12
	addi	a4,s0,-40
	addi	a3,s0,-48
	li	a2,0
	li	a1,0
	li	a0,0
	jalr	a5
.LVL38:
	sd	a0,-24(s0)
	.loc 1 2993 34
	ld	a5,-24(s0)
	.loc 1 2993 6
	bge	a5,zero,.L510
	.loc 1 2994 12
	ld	a5,-24(s0)
	j	.L514
.L510:
	.loc 1 2997 30
	lla	a5,mHandleList
	li	a4,1
	sd	a4,32(a5)
	.loc 1 2997 3
	j	.L511
.L513:
	.loc 1 2998 18
	li	a0,32
	call	AllocateZeroPool@plt
	sd	a0,-32(s0)
	.loc 1 2999 8
	ld	a5,-32(s0)
	beq	a5,zero,.L512
	.loc 1 3000 43
	ld	a4,-40(s0)
	.loc 1 3000 55
	lla	a5,mHandleList
	ld	a5,32(a5)
	.loc 1 3000 43
	slli	a5,a5,3
	addi	a5,a5,-8
	add	a5,a4,a5
	ld	a4,0(a5)
	.loc 1 3000 29
	ld	a5,-32(s0)
	sd	a4,16(a5)
	.loc 1 3001 41
	lla	a5,mHandleList
	ld	a4,32(a5)
	.loc 1 3001 28
	ld	a5,-32(s0)
	sd	a4,24(a5)
	.loc 1 3002 7
	ld	a5,-32(s0)
	mv	a1,a5
	lla	a0,mHandleList
	call	InsertTailList@plt
.L512:
	.loc 1 2997 84 discriminator 2
	lla	a5,mHandleList
	ld	a5,32(a5)
	.loc 1 2997 94 discriminator 2
	addi	a4,a5,1
	lla	a5,mHandleList
	sd	a4,32(a5)
.L511:
	.loc 1 2997 46 discriminator 1
	lla	a5,mHandleList
	ld	a4,32(a5)
	.loc 1 2997 57 discriminator 1
	ld	a5,-48(s0)
	bleu	a4,a5,.L513
	.loc 1 3006 3
	ld	a5,-40(s0)
	mv	a0,a5
	call	FreePool@plt
	.loc 1 3007 10
	li	a5,0
.L514:
	.loc 1 3008 1
	mv	a0,a5
	ld	ra,40(sp)
	.cfi_restore 1
	ld	s0,32(sp)
	.cfi_restore 8
	.cfi_def_cfa 2, 48
	addi	sp,sp,48
	.cfi_def_cfa_offset 0
	jr	ra
	.cfi_endproc
.LFE33:
	.size	InternalShellInitHandleList, .-InternalShellInitHandleList
	.section	.text.ConvertHandleToHandleIndex,"ax",@progbits
	.align	1
	.globl	ConvertHandleToHandleIndex
	.type	ConvertHandleToHandleIndex, @function
ConvertHandleToHandleIndex:
.LFB34:
	.loc 1 3026 1
	.cfi_startproc
	addi	sp,sp,-64
	.cfi_def_cfa_offset 64
	sd	ra,56(sp)
	sd	s0,48(sp)
	.cfi_offset 1, -8
	.cfi_offset 8, -16
	addi	s0,sp,64
	.cfi_def_cfa 8, 0
	sd	a0,-56(s0)
	.loc 1 3032 6
	ld	a5,-56(s0)
	bne	a5,zero,.L516
	.loc 1 3033 12
	li	a5,0
	j	.L524
.L516:
	.loc 1 3036 3
	call	InternalShellInitHandleList
	.loc 1 3038 36
	lla	a0,mHandleList
	call	GetFirstNode@plt
	sd	a0,-24(s0)
	.loc 1 3038 3
	j	.L518
.L521:
	.loc 1 3043 19
	ld	a5,-24(s0)
	ld	a5,16(a5)
	.loc 1 3043 8
	ld	a4,-56(s0)
	bne	a4,a5,.L519
	.loc 1 3047 19
	la	a5,gBS
	ld	a5,0(a5)
	ld	a5,304(a5)
	.loc 1 3047 16
	addi	a3,s0,-48
	addi	a4,s0,-40
	mv	a2,a3
	mv	a1,a4
	ld	a0,-56(s0)
	jalr	a5
.LVL39:
	sd	a0,-32(s0)
	.loc 1 3048 38
	ld	a5,-32(s0)
	.loc 1 3048 10
	bge	a5,zero,.L520
	.loc 1 3052 26
	ld	a5,-24(s0)
	.loc 1 3052 9
	mv	a0,a5
	call	RemoveEntryList@plt
	.loc 1 3053 16
	li	a5,0
	j	.L524
.L520:
	.loc 1 3056 7
	ld	a5,-40(s0)
	mv	a0,a5
	call	FreePool@plt
	.loc 1 3057 25
	ld	a5,-24(s0)
	ld	a5,24(a5)
	j	.L524
.L519:
	.loc 1 3040 75
	ld	a5,-24(s0)
	.loc 1 3040 38
	mv	a1,a5
	lla	a0,mHandleList
	call	GetNextNode@plt
	sd	a0,-24(s0)
.L518:
	.loc 1 3039 43
	ld	a5,-24(s0)
	.loc 1 3039 11
	mv	a1,a5
	lla	a0,mHandleList
	call	IsNull@plt
	mv	a5,a0
	.loc 1 3039 10 discriminator 1
	beq	a5,zero,.L521
	.loc 1 3064 15
	la	a5,gBS
	ld	a5,0(a5)
	ld	a5,304(a5)
	.loc 1 3064 12
	addi	a3,s0,-48
	addi	a4,s0,-40
	mv	a2,a3
	mv	a1,a4
	ld	a0,-56(s0)
	jalr	a5
.LVL40:
	sd	a0,-32(s0)
	.loc 1 3065 34
	ld	a5,-32(s0)
	.loc 1 3065 6
	bge	a5,zero,.L522
	.loc 1 3069 12
	li	a5,0
	j	.L524
.L522:
	.loc 1 3072 3
	ld	a5,-40(s0)
	mv	a0,a5
	call	FreePool@plt
	.loc 1 3074 16
	li	a0,32
	call	AllocateZeroPool@plt
	sd	a0,-24(s0)
	.loc 1 3075 6
	ld	a5,-24(s0)
	bne	a5,zero,.L523
	.loc 1 3076 12
	li	a5,0
	j	.L524
.L523:
	.loc 1 3079 25
	ld	a5,-24(s0)
	ld	a4,-56(s0)
	sd	a4,16(a5)
	.loc 1 3080 37
	lla	a5,mHandleList
	ld	a5,32(a5)
	.loc 1 3080 47
	addi	a3,a5,1
	lla	a4,mHandleList
	sd	a3,32(a4)
	.loc 1 3080 24
	ld	a4,-24(s0)
	sd	a5,24(a4)
	.loc 1 3081 3
	ld	a5,-24(s0)
	mv	a1,a5
	lla	a0,mHandleList
	call	InsertTailList@plt
	.loc 1 3082 21
	ld	a5,-24(s0)
	ld	a5,24(a5)
.L524:
	.loc 1 3083 1
	mv	a0,a5
	ld	ra,56(sp)
	.cfi_restore 1
	ld	s0,48(sp)
	.cfi_restore 8
	.cfi_def_cfa 2, 64
	addi	sp,sp,64
	.cfi_def_cfa_offset 0
	jr	ra
	.cfi_endproc
.LFE34:
	.size	ConvertHandleToHandleIndex, .-ConvertHandleToHandleIndex
	.section	.text.ConvertHandleIndexToHandle,"ax",@progbits
	.align	1
	.globl	ConvertHandleIndexToHandle
	.type	ConvertHandleIndexToHandle, @function
ConvertHandleIndexToHandle:
.LFB35:
	.loc 1 3099 1
	.cfi_startproc
	addi	sp,sp,-64
	.cfi_def_cfa_offset 64
	sd	ra,56(sp)
	sd	s0,48(sp)
	.cfi_offset 1, -8
	.cfi_offset 8, -16
	addi	s0,sp,64
	.cfi_def_cfa 8, 0
	sd	a0,-56(s0)
	.loc 1 3105 3
	call	InternalShellInitHandleList
	.loc 1 3107 30
	lla	a5,mHandleList
	ld	a5,32(a5)
	.loc 1 3107 6
	ld	a4,-56(s0)
	bltu	a4,a5,.L526
	.loc 1 3108 12
	li	a5,0
	j	.L533
.L526:
	.loc 1 3111 36
	lla	a0,mHandleList
	call	GetFirstNode@plt
	sd	a0,-24(s0)
	.loc 1 3111 3
	j	.L528
.L532:
	.loc 1 3116 20
	ld	a5,-24(s0)
	ld	a5,24(a5)
	.loc 1 3116 8
	ld	a4,-56(s0)
	bne	a4,a5,.L529
	.loc 1 3116 58 discriminator 1
	ld	a5,-24(s0)
	ld	a5,16(a5)
	.loc 1 3116 44 discriminator 1
	beq	a5,zero,.L529
	.loc 1 3120 19
	la	a5,gBS
	ld	a5,0(a5)
	ld	a5,304(a5)
	.loc 1 3120 16
	ld	a4,-24(s0)
	ld	a4,16(a4)
	addi	a2,s0,-48
	addi	a3,s0,-40
	mv	a1,a3
	mv	a0,a4
	jalr	a5
.LVL41:
	sd	a0,-32(s0)
	.loc 1 3121 11
	ld	a5,-32(s0)
	.loc 1 3121 10
	blt	a5,zero,.L530
	.loc 1 3122 9
	ld	a5,-40(s0)
	mv	a0,a5
	call	FreePool@plt
	j	.L531
.L530:
	.loc 1 3127 31
	ld	a5,-24(s0)
	sd	zero,16(a5)
.L531:
	.loc 1 3130 25
	ld	a5,-24(s0)
	ld	a5,16(a5)
	j	.L533
.L529:
	.loc 1 3113 75
	ld	a5,-24(s0)
	.loc 1 3113 38
	mv	a1,a5
	lla	a0,mHandleList
	call	GetNextNode@plt
	sd	a0,-24(s0)
.L528:
	.loc 1 3112 43
	ld	a5,-24(s0)
	.loc 1 3112 11
	mv	a1,a5
	lla	a0,mHandleList
	call	IsNull@plt
	mv	a5,a0
	.loc 1 3112 10 discriminator 1
	beq	a5,zero,.L532
	.loc 1 3134 10
	li	a5,0
.L533:
	.loc 1 3135 1
	mv	a0,a5
	ld	ra,56(sp)
	.cfi_restore 1
	ld	s0,48(sp)
	.cfi_restore 8
	.cfi_def_cfa 2, 64
	addi	sp,sp,64
	.cfi_def_cfa_offset 0
	jr	ra
	.cfi_endproc
.LFE35:
	.size	ConvertHandleIndexToHandle, .-ConvertHandleIndexToHandle
	.section	.text.ParseHandleDatabaseByRelationshipWithType,"ax",@progbits
	.align	1
	.globl	ParseHandleDatabaseByRelationshipWithType
	.type	ParseHandleDatabaseByRelationshipWithType, @function
ParseHandleDatabaseByRelationshipWithType:
.LFB36:
	.loc 1 3172 1
	.cfi_startproc
	addi	sp,sp,-144
	.cfi_def_cfa_offset 144
	sd	ra,136(sp)
	sd	s0,128(sp)
	.cfi_offset 1, -8
	.cfi_offset 8, -16
	addi	s0,sp,144
	.cfi_def_cfa 8, 0
	sd	a0,-104(s0)
	sd	a1,-112(s0)
	sd	a2,-120(s0)
	sd	a3,-128(s0)
	sd	a4,-136(s0)
	.loc 1 3189 16
	ld	a5,-120(s0)
	sd	zero,0(a5)
	.loc 1 3190 17
	ld	a5,-128(s0)
	sd	zero,0(a5)
	.loc 1 3191 15
	ld	a5,-136(s0)
	sd	zero,0(a5)
	.loc 1 3196 15
	la	a5,gBS
	ld	a5,0(a5)
	ld	a5,312(a5)
	.loc 1 3196 12
	ld	a4,-128(s0)
	ld	a3,-120(s0)
	li	a2,0
	li	a1,0
	li	a0,0
	jalr	a5
.LVL42:
	sd	a0,-64(s0)
	.loc 1 3203 34
	ld	a5,-64(s0)
	.loc 1 3203 6
	bge	a5,zero,.L535
	.loc 1 3204 12
	ld	a5,-64(s0)
	j	.L600
.L535:
	.loc 1 3207 35
	ld	a5,-120(s0)
	ld	a5,0(a5)
	.loc 1 3207 48
	slli	a5,a5,3
	.loc 1 3207 17
	mv	a0,a5
	call	AllocateZeroPool@plt
	mv	a4,a0
	.loc 1 3207 15 discriminator 1
	ld	a5,-136(s0)
	sd	a4,0(a5)
	.loc 1 3208 7
	ld	a5,-136(s0)
	ld	a5,0(a5)
	.loc 1 3208 6
	bne	a5,zero,.L537
	.loc 1 3209 15
	ld	a5,-128(s0)
	ld	a5,0(a5)
	.loc 1 3209 13
	beq	a5,zero,.L538
	.loc 1 3209 49 discriminator 1
	ld	a5,-128(s0)
	ld	a5,0(a5)
	mv	a0,a5
	call	FreePool@plt
	.loc 1 3209 92 discriminator 2
	ld	a5,-128(s0)
	sd	zero,0(a5)
.L538:
	.loc 1 3210 18
	ld	a5,-120(s0)
	sd	zero,0(a5)
	.loc 1 3211 12
	li	a5,-1
	slli	a5,a5,63
	addi	a5,a5,9
	j	.L600
.L537:
	.loc 1 3214 28
	li	a5,-1
	sd	a5,-56(s0)
	.loc 1 3215 20
	sd	zero,-24(s0)
	.loc 1 3215 3
	j	.L539
.L541:
	.loc 1 3216 8
	ld	a5,-104(s0)
	beq	a5,zero,.L540
	.loc 1 3216 52 discriminator 1
	ld	a5,-128(s0)
	ld	a4,0(a5)
	.loc 1 3216 66 discriminator 1
	ld	a5,-24(s0)
	slli	a5,a5,3
	add	a5,a4,a5
	ld	a5,0(a5)
	.loc 1 3216 47 discriminator 1
	ld	a4,-104(s0)
	bne	a4,a5,.L540
	.loc 1 3217 32
	ld	a5,-24(s0)
	sd	a5,-56(s0)
.L540:
	.loc 1 3215 64 discriminator 2
	ld	a5,-24(s0)
	addi	a5,a5,1
	sd	a5,-24(s0)
.L539:
	.loc 1 3215 39 discriminator 1
	ld	a5,-120(s0)
	ld	a5,0(a5)
	.loc 1 3215 37 discriminator 1
	ld	a4,-24(s0)
	bltu	a4,a5,.L541
	.loc 1 3221 20
	sd	zero,-24(s0)
	.loc 1 3221 3
	j	.L542
.L599:
	.loc 1 3225 17
	la	a5,gBS
	ld	a5,0(a5)
	ld	a5,304(a5)
	.loc 1 3226 22
	ld	a4,-128(s0)
	ld	a3,0(a4)
	.loc 1 3226 36
	ld	a4,-24(s0)
	slli	a4,a4,3
	add	a4,a3,a4
	.loc 1 3225 14
	ld	a4,0(a4)
	addi	a2,s0,-80
	addi	a3,s0,-72
	mv	a1,a3
	mv	a0,a4
	jalr	a5
.LVL43:
	sd	a0,-64(s0)
	.loc 1 3230 36
	ld	a5,-64(s0)
	.loc 1 3230 8
	blt	a5,zero,.L601
	.loc 1 3234 24
	sd	zero,-32(s0)
	.loc 1 3234 5
	j	.L545
.L598:
	.loc 1 3238 41
	ld	a4,-72(s0)
	ld	a5,-32(s0)
	slli	a5,a5,3
	add	a5,a4,a5
	.loc 1 3238 11
	ld	a5,0(a5)
	la	a1,gEfiLoadedImageProtocolGuid
	mv	a0,a5
	call	CompareGuid@plt
	mv	a5,a0
	.loc 1 3238 10 discriminator 1
	beq	a5,zero,.L546
	.loc 1 3239 10
	ld	a5,-136(s0)
	ld	a4,0(a5)
	.loc 1 3239 22
	ld	a5,-24(s0)
	slli	a5,a5,3
	add	a5,a4,a5
	ld	a4,0(a5)
	.loc 1 3239 10
	ld	a5,-136(s0)
	ld	a3,0(a5)
	.loc 1 3239 22
	ld	a5,-24(s0)
	slli	a5,a5,3
	add	a5,a3,a5
	.loc 1 3239 36
	ori	a4,a4,2
	sd	a4,0(a5)
	j	.L547
.L546:
	.loc 1 3240 48
	ld	a4,-72(s0)
	ld	a5,-32(s0)
	slli	a5,a5,3
	add	a5,a4,a5
	.loc 1 3240 18
	ld	a5,0(a5)
	la	a1,gEfiDriverBindingProtocolGuid
	mv	a0,a5
	call	CompareGuid@plt
	mv	a5,a0
	.loc 1 3240 17 discriminator 1
	beq	a5,zero,.L548
	.loc 1 3241 10
	ld	a5,-136(s0)
	ld	a4,0(a5)
	.loc 1 3241 22
	ld	a5,-24(s0)
	slli	a5,a5,3
	add	a5,a4,a5
	ld	a4,0(a5)
	.loc 1 3241 10
	ld	a5,-136(s0)
	ld	a3,0(a5)
	.loc 1 3241 22
	ld	a5,-24(s0)
	slli	a5,a5,3
	add	a5,a3,a5
	.loc 1 3241 36
	ori	a4,a4,4
	sd	a4,0(a5)
	j	.L547
.L548:
	.loc 1 3242 48
	ld	a4,-72(s0)
	ld	a5,-32(s0)
	slli	a5,a5,3
	add	a5,a4,a5
	.loc 1 3242 18
	ld	a5,0(a5)
	la	a1,gEfiDriverConfiguration2ProtocolGuid
	mv	a0,a5
	call	CompareGuid@plt
	mv	a5,a0
	.loc 1 3242 17 discriminator 1
	beq	a5,zero,.L549
	.loc 1 3243 10
	ld	a5,-136(s0)
	ld	a4,0(a5)
	.loc 1 3243 22
	ld	a5,-24(s0)
	slli	a5,a5,3
	add	a5,a4,a5
	ld	a4,0(a5)
	.loc 1 3243 10
	ld	a5,-136(s0)
	ld	a3,0(a5)
	.loc 1 3243 22
	ld	a5,-24(s0)
	slli	a5,a5,3
	add	a5,a3,a5
	.loc 1 3243 36
	ori	a4,a4,32
	sd	a4,0(a5)
	j	.L547
.L549:
	.loc 1 3244 48
	ld	a4,-72(s0)
	ld	a5,-32(s0)
	slli	a5,a5,3
	add	a5,a4,a5
	.loc 1 3244 18
	ld	a5,0(a5)
	la	a1,gEfiDriverConfigurationProtocolGuid
	mv	a0,a5
	call	CompareGuid@plt
	mv	a5,a0
	.loc 1 3244 17 discriminator 1
	beq	a5,zero,.L550
	.loc 1 3245 10
	ld	a5,-136(s0)
	ld	a4,0(a5)
	.loc 1 3245 22
	ld	a5,-24(s0)
	slli	a5,a5,3
	add	a5,a4,a5
	ld	a4,0(a5)
	.loc 1 3245 10
	ld	a5,-136(s0)
	ld	a3,0(a5)
	.loc 1 3245 22
	ld	a5,-24(s0)
	slli	a5,a5,3
	add	a5,a3,a5
	.loc 1 3245 36
	ori	a4,a4,32
	sd	a4,0(a5)
	j	.L547
.L550:
	.loc 1 3246 48
	ld	a4,-72(s0)
	ld	a5,-32(s0)
	slli	a5,a5,3
	add	a5,a4,a5
	.loc 1 3246 18
	ld	a5,0(a5)
	la	a1,gEfiDriverDiagnostics2ProtocolGuid
	mv	a0,a5
	call	CompareGuid@plt
	mv	a5,a0
	.loc 1 3246 17 discriminator 1
	beq	a5,zero,.L551
	.loc 1 3247 10
	ld	a5,-136(s0)
	ld	a4,0(a5)
	.loc 1 3247 22
	ld	a5,-24(s0)
	slli	a5,a5,3
	add	a5,a4,a5
	ld	a4,0(a5)
	.loc 1 3247 10
	ld	a5,-136(s0)
	ld	a3,0(a5)
	.loc 1 3247 22
	ld	a5,-24(s0)
	slli	a5,a5,3
	add	a5,a3,a5
	.loc 1 3247 36
	ori	a4,a4,64
	sd	a4,0(a5)
	j	.L547
.L551:
	.loc 1 3248 48
	ld	a4,-72(s0)
	ld	a5,-32(s0)
	slli	a5,a5,3
	add	a5,a4,a5
	.loc 1 3248 18
	ld	a5,0(a5)
	la	a1,gEfiDriverDiagnosticsProtocolGuid
	mv	a0,a5
	call	CompareGuid@plt
	mv	a5,a0
	.loc 1 3248 17 discriminator 1
	beq	a5,zero,.L552
	.loc 1 3249 10
	ld	a5,-136(s0)
	ld	a4,0(a5)
	.loc 1 3249 22
	ld	a5,-24(s0)
	slli	a5,a5,3
	add	a5,a4,a5
	ld	a4,0(a5)
	.loc 1 3249 10
	ld	a5,-136(s0)
	ld	a3,0(a5)
	.loc 1 3249 22
	ld	a5,-24(s0)
	slli	a5,a5,3
	add	a5,a3,a5
	.loc 1 3249 36
	ori	a4,a4,64
	sd	a4,0(a5)
	j	.L547
.L552:
	.loc 1 3250 48
	ld	a4,-72(s0)
	ld	a5,-32(s0)
	slli	a5,a5,3
	add	a5,a4,a5
	.loc 1 3250 18
	ld	a5,0(a5)
	la	a1,gEfiComponentName2ProtocolGuid
	mv	a0,a5
	call	CompareGuid@plt
	mv	a5,a0
	.loc 1 3250 17 discriminator 1
	beq	a5,zero,.L553
	.loc 1 3251 10
	ld	a5,-136(s0)
	ld	a4,0(a5)
	.loc 1 3251 22
	ld	a5,-24(s0)
	slli	a5,a5,3
	add	a5,a4,a5
	ld	a4,0(a5)
	.loc 1 3251 10
	ld	a5,-136(s0)
	ld	a3,0(a5)
	.loc 1 3251 22
	ld	a5,-24(s0)
	slli	a5,a5,3
	add	a5,a3,a5
	.loc 1 3251 36
	ori	a4,a4,128
	sd	a4,0(a5)
	j	.L547
.L553:
	.loc 1 3252 48
	ld	a4,-72(s0)
	ld	a5,-32(s0)
	slli	a5,a5,3
	add	a5,a4,a5
	.loc 1 3252 18
	ld	a5,0(a5)
	la	a1,gEfiComponentNameProtocolGuid
	mv	a0,a5
	call	CompareGuid@plt
	mv	a5,a0
	.loc 1 3252 17 discriminator 1
	beq	a5,zero,.L554
	.loc 1 3253 10
	ld	a5,-136(s0)
	ld	a4,0(a5)
	.loc 1 3253 22
	ld	a5,-24(s0)
	slli	a5,a5,3
	add	a5,a4,a5
	ld	a4,0(a5)
	.loc 1 3253 10
	ld	a5,-136(s0)
	ld	a3,0(a5)
	.loc 1 3253 22
	ld	a5,-24(s0)
	slli	a5,a5,3
	add	a5,a3,a5
	.loc 1 3253 36
	ori	a4,a4,128
	sd	a4,0(a5)
	j	.L547
.L554:
	.loc 1 3254 48
	ld	a4,-72(s0)
	ld	a5,-32(s0)
	slli	a5,a5,3
	add	a5,a4,a5
	.loc 1 3254 18
	ld	a5,0(a5)
	la	a1,gEfiDevicePathProtocolGuid
	mv	a0,a5
	call	CompareGuid@plt
	mv	a5,a0
	.loc 1 3254 17 discriminator 1
	beq	a5,zero,.L547
	.loc 1 3255 10
	ld	a5,-136(s0)
	ld	a4,0(a5)
	.loc 1 3255 22
	ld	a5,-24(s0)
	slli	a5,a5,3
	add	a5,a4,a5
	ld	a4,0(a5)
	.loc 1 3255 10
	ld	a5,-136(s0)
	ld	a3,0(a5)
	.loc 1 3255 22
	ld	a5,-24(s0)
	slli	a5,a5,3
	add	a5,a3,a5
	.loc 1 3255 36
	ori	a4,a4,256
	sd	a4,0(a5)
.L547:
	.loc 1 3261 19
	la	a5,gBS
	ld	a5,0(a5)
	ld	a5,296(a5)
	.loc 1 3262 24
	ld	a4,-128(s0)
	ld	a3,0(a4)
	.loc 1 3262 38
	ld	a4,-24(s0)
	slli	a4,a4,3
	add	a4,a3,a4
	.loc 1 3261 16
	ld	a0,0(a4)
	.loc 1 3263 40
	ld	a3,-72(s0)
	ld	a4,-32(s0)
	slli	a4,a4,3
	add	a4,a3,a4
	.loc 1 3261 16
	ld	a4,0(a4)
	addi	a3,s0,-96
	addi	a2,s0,-88
	mv	a1,a4
	jalr	a5
.LVL44:
	sd	a0,-64(s0)
	.loc 1 3267 38
	ld	a5,-64(s0)
	.loc 1 3267 10
	blt	a5,zero,.L602
	.loc 1 3271 10
	ld	a5,-112(s0)
	bne	a5,zero,.L557
	.loc 1 3276 28
	sd	zero,-40(s0)
	.loc 1 3276 9
	j	.L558
.L565:
	.loc 1 3277 24
	ld	a3,-88(s0)
	ld	a4,-40(s0)
	mv	a5,a4
	slli	a5,a5,1
	add	a5,a5,a4
	slli	a5,a5,3
	add	a5,a3,a5
	.loc 1 3277 39
	ld	a5,0(a5)
	.loc 1 3277 14
	ld	a4,-104(s0)
	bne	a4,a5,.L559
	.loc 1 3277 89 discriminator 1
	ld	a3,-88(s0)
	ld	a4,-40(s0)
	mv	a5,a4
	slli	a5,a5,1
	add	a5,a5,a4
	slli	a5,a5,3
	add	a5,a3,a5
	.loc 1 3277 104 discriminator 1
	lw	a5,16(a5)
	.loc 1 3277 116 discriminator 1
	andi	a5,a5,16
	sext.w	a5,a5
	.loc 1 3277 76 discriminator 1
	beq	a5,zero,.L559
	.loc 1 3278 14
	ld	a5,-136(s0)
	ld	a4,0(a5)
	.loc 1 3278 26
	ld	a5,-24(s0)
	slli	a5,a5,3
	add	a5,a4,a5
	ld	a4,0(a5)
	.loc 1 3278 14
	ld	a5,-136(s0)
	ld	a3,0(a5)
	.loc 1 3278 26
	ld	a5,-24(s0)
	slli	a5,a5,3
	add	a5,a3,a5
	.loc 1 3278 40
	ori	a4,a4,1280
	sd	a4,0(a5)
	.loc 1 3279 16
	ld	a4,-56(s0)
	li	a5,-1
	beq	a4,a5,.L559
	.loc 1 3280 16
	ld	a5,-136(s0)
	ld	a4,0(a5)
	.loc 1 3280 28
	ld	a5,-56(s0)
	slli	a5,a5,3
	add	a5,a4,a5
	ld	a4,0(a5)
	.loc 1 3280 16
	ld	a5,-136(s0)
	ld	a3,0(a5)
	.loc 1 3280 28
	ld	a5,-56(s0)
	slli	a5,a5,3
	add	a5,a3,a5
	.loc 1 3280 55
	ori	a4,a4,8
	sd	a4,0(a5)
.L559:
	.loc 1 3284 24
	ld	a3,-88(s0)
	ld	a4,-40(s0)
	mv	a5,a4
	slli	a5,a5,1
	add	a5,a5,a4
	slli	a5,a5,3
	add	a5,a3,a5
	.loc 1 3284 39
	ld	a5,0(a5)
	.loc 1 3284 14
	ld	a4,-104(s0)
	bne	a4,a5,.L560
	.loc 1 3284 89 discriminator 1
	ld	a3,-88(s0)
	ld	a4,-40(s0)
	mv	a5,a4
	slli	a5,a5,1
	add	a5,a5,a4
	slli	a5,a5,3
	add	a5,a3,a5
	.loc 1 3284 104 discriminator 1
	lw	a5,16(a5)
	.loc 1 3284 116 discriminator 1
	andi	a5,a5,8
	sext.w	a5,a5
	.loc 1 3284 76 discriminator 1
	beq	a5,zero,.L560
	.loc 1 3285 14
	ld	a5,-136(s0)
	ld	a4,0(a5)
	.loc 1 3285 26
	ld	a5,-24(s0)
	slli	a5,a5,3
	add	a5,a4,a5
	ld	a4,0(a5)
	.loc 1 3285 14
	ld	a5,-136(s0)
	ld	a3,0(a5)
	.loc 1 3285 26
	ld	a5,-24(s0)
	slli	a5,a5,3
	add	a5,a3,a5
	.loc 1 3285 40
	ori	a4,a4,1280
	sd	a4,0(a5)
	.loc 1 3286 16
	ld	a4,-56(s0)
	li	a5,-1
	beq	a4,a5,.L561
	.loc 1 3287 16
	ld	a5,-136(s0)
	ld	a4,0(a5)
	.loc 1 3287 28
	ld	a5,-56(s0)
	slli	a5,a5,3
	add	a5,a4,a5
	ld	a4,0(a5)
	.loc 1 3287 16
	ld	a5,-136(s0)
	ld	a3,0(a5)
	.loc 1 3287 28
	ld	a5,-56(s0)
	slli	a5,a5,3
	add	a5,a3,a5
	.loc 1 3287 55
	ori	a4,a4,24
	sd	a4,0(a5)
.L561:
	.loc 1 3290 29
	sd	zero,-48(s0)
	.loc 1 3290 13
	j	.L562
.L564:
	.loc 1 3291 27
	ld	a3,-88(s0)
	ld	a4,-40(s0)
	mv	a5,a4
	slli	a5,a5,1
	add	a5,a5,a4
	slli	a5,a5,3
	add	a5,a3,a5
	.loc 1 3291 42
	ld	a4,8(a5)
	.loc 1 3291 64
	ld	a5,-128(s0)
	ld	a3,0(a5)
	.loc 1 3291 78
	ld	a5,-48(s0)
	slli	a5,a5,3
	add	a5,a3,a5
	ld	a5,0(a5)
	.loc 1 3291 18
	bne	a4,a5,.L563
	.loc 1 3292 18
	ld	a5,-136(s0)
	ld	a4,0(a5)
	.loc 1 3292 30
	ld	a5,-48(s0)
	slli	a5,a5,3
	add	a5,a4,a5
	ld	a3,0(a5)
	.loc 1 3292 18
	ld	a5,-136(s0)
	ld	a4,0(a5)
	.loc 1 3292 30
	ld	a5,-48(s0)
	slli	a5,a5,3
	add	a5,a4,a5
	.loc 1 3292 43
	li	a4,4096
	addi	a4,a4,-1792
	or	a4,a3,a4
	sd	a4,0(a5)
.L563:
	.loc 1 3290 71 discriminator 2
	ld	a5,-48(s0)
	addi	a5,a5,1
	sd	a5,-48(s0)
.L562:
	.loc 1 3290 47 discriminator 1
	ld	a5,-120(s0)
	ld	a5,0(a5)
	.loc 1 3290 45 discriminator 1
	ld	a4,-48(s0)
	bltu	a4,a5,.L564
.L560:
	.loc 1 3276 77 discriminator 2
	ld	a5,-40(s0)
	addi	a5,a5,1
	sd	a5,-40(s0)
.L558:
	.loc 1 3276 47 discriminator 1
	ld	a5,-96(s0)
	ld	a4,-40(s0)
	bltu	a4,a5,.L565
.L557:
	.loc 1 3299 10
	ld	a5,-104(s0)
	bne	a5,zero,.L566
	.loc 1 3299 49 discriminator 1
	ld	a5,-112(s0)
	beq	a5,zero,.L566
	.loc 1 3300 34
	ld	a5,-128(s0)
	ld	a4,0(a5)
	.loc 1 3300 48
	ld	a5,-24(s0)
	slli	a5,a5,3
	add	a5,a4,a5
	ld	a5,0(a5)
	.loc 1 3300 12
	ld	a4,-112(s0)
	bne	a4,a5,.L567
	.loc 1 3301 12
	ld	a5,-136(s0)
	ld	a4,0(a5)
	.loc 1 3301 24
	ld	a5,-24(s0)
	slli	a5,a5,3
	add	a5,a4,a5
	ld	a4,0(a5)
	.loc 1 3301 12
	ld	a5,-136(s0)
	ld	a3,0(a5)
	.loc 1 3301 24
	ld	a5,-24(s0)
	slli	a5,a5,3
	add	a5,a3,a5
	.loc 1 3301 38
	ori	a4,a4,1280
	sd	a4,0(a5)
	.loc 1 3302 30
	sd	zero,-40(s0)
	.loc 1 3302 11
	j	.L568
.L578:
	.loc 1 3303 26
	ld	a3,-88(s0)
	ld	a4,-40(s0)
	mv	a5,a4
	slli	a5,a5,1
	add	a5,a5,a4
	slli	a5,a5,3
	add	a5,a3,a5
	.loc 1 3303 41
	lw	a5,16(a5)
	.loc 1 3303 53
	andi	a5,a5,16
	sext.w	a5,a5
	.loc 1 3303 16
	beq	a5,zero,.L569
	.loc 1 3304 31
	sd	zero,-48(s0)
	.loc 1 3304 15
	j	.L570
.L572:
	.loc 1 3305 29
	ld	a3,-88(s0)
	ld	a4,-40(s0)
	mv	a5,a4
	slli	a5,a5,1
	add	a5,a5,a4
	slli	a5,a5,3
	add	a5,a3,a5
	.loc 1 3305 44
	ld	a4,0(a5)
	.loc 1 3305 61
	ld	a5,-128(s0)
	ld	a3,0(a5)
	.loc 1 3305 75
	ld	a5,-48(s0)
	slli	a5,a5,3
	add	a5,a3,a5
	ld	a5,0(a5)
	.loc 1 3305 20
	bne	a4,a5,.L571
	.loc 1 3306 20
	ld	a5,-136(s0)
	ld	a4,0(a5)
	.loc 1 3306 32
	ld	a5,-48(s0)
	slli	a5,a5,3
	add	a5,a4,a5
	ld	a4,0(a5)
	.loc 1 3306 20
	ld	a5,-136(s0)
	ld	a3,0(a5)
	.loc 1 3306 32
	ld	a5,-48(s0)
	slli	a5,a5,3
	add	a5,a3,a5
	.loc 1 3306 45
	ori	a4,a4,8
	sd	a4,0(a5)
.L571:
	.loc 1 3304 73 discriminator 2
	ld	a5,-48(s0)
	addi	a5,a5,1
	sd	a5,-48(s0)
.L570:
	.loc 1 3304 49 discriminator 1
	ld	a5,-120(s0)
	ld	a5,0(a5)
	.loc 1 3304 47 discriminator 1
	ld	a4,-48(s0)
	bltu	a4,a5,.L572
.L569:
	.loc 1 3311 26
	ld	a3,-88(s0)
	ld	a4,-40(s0)
	mv	a5,a4
	slli	a5,a5,1
	add	a5,a5,a4
	slli	a5,a5,3
	add	a5,a3,a5
	.loc 1 3311 41
	lw	a5,16(a5)
	.loc 1 3311 53
	andi	a5,a5,8
	sext.w	a5,a5
	.loc 1 3311 16
	beq	a5,zero,.L573
	.loc 1 3312 31
	sd	zero,-48(s0)
	.loc 1 3312 15
	j	.L574
.L577:
	.loc 1 3313 29
	ld	a3,-88(s0)
	ld	a4,-40(s0)
	mv	a5,a4
	slli	a5,a5,1
	add	a5,a5,a4
	slli	a5,a5,3
	add	a5,a3,a5
	.loc 1 3313 44
	ld	a4,0(a5)
	.loc 1 3313 61
	ld	a5,-128(s0)
	ld	a3,0(a5)
	.loc 1 3313 75
	ld	a5,-48(s0)
	slli	a5,a5,3
	add	a5,a3,a5
	ld	a5,0(a5)
	.loc 1 3313 20
	bne	a4,a5,.L575
	.loc 1 3314 20
	ld	a5,-136(s0)
	ld	a4,0(a5)
	.loc 1 3314 32
	ld	a5,-48(s0)
	slli	a5,a5,3
	add	a5,a4,a5
	ld	a4,0(a5)
	.loc 1 3314 20
	ld	a5,-136(s0)
	ld	a3,0(a5)
	.loc 1 3314 32
	ld	a5,-48(s0)
	slli	a5,a5,3
	add	a5,a3,a5
	.loc 1 3314 45
	ori	a4,a4,24
	sd	a4,0(a5)
.L575:
	.loc 1 3317 29
	ld	a3,-88(s0)
	ld	a4,-40(s0)
	mv	a5,a4
	slli	a5,a5,1
	add	a5,a5,a4
	slli	a5,a5,3
	add	a5,a3,a5
	.loc 1 3317 44
	ld	a4,8(a5)
	.loc 1 3317 66
	ld	a5,-128(s0)
	ld	a3,0(a5)
	.loc 1 3317 80
	ld	a5,-48(s0)
	slli	a5,a5,3
	add	a5,a3,a5
	ld	a5,0(a5)
	.loc 1 3317 20
	bne	a4,a5,.L576
	.loc 1 3318 20
	ld	a5,-136(s0)
	ld	a4,0(a5)
	.loc 1 3318 32
	ld	a5,-48(s0)
	slli	a5,a5,3
	add	a5,a4,a5
	ld	a3,0(a5)
	.loc 1 3318 20
	ld	a5,-136(s0)
	ld	a4,0(a5)
	.loc 1 3318 32
	ld	a5,-48(s0)
	slli	a5,a5,3
	add	a5,a4,a5
	.loc 1 3318 45
	li	a4,4096
	addi	a4,a4,-1792
	or	a4,a3,a4
	sd	a4,0(a5)
.L576:
	.loc 1 3312 73 discriminator 2
	ld	a5,-48(s0)
	addi	a5,a5,1
	sd	a5,-48(s0)
.L574:
	.loc 1 3312 49 discriminator 1
	ld	a5,-120(s0)
	ld	a5,0(a5)
	.loc 1 3312 47 discriminator 1
	ld	a4,-48(s0)
	bltu	a4,a5,.L577
.L573:
	.loc 1 3302 79 discriminator 2
	ld	a5,-40(s0)
	addi	a5,a5,1
	sd	a5,-40(s0)
.L568:
	.loc 1 3302 49 discriminator 1
	ld	a5,-96(s0)
	ld	a4,-40(s0)
	bltu	a4,a5,.L578
	j	.L566
.L567:
	.loc 1 3324 30
	sd	zero,-40(s0)
	.loc 1 3324 11
	j	.L579
.L581:
	.loc 1 3325 26
	ld	a3,-88(s0)
	ld	a4,-40(s0)
	mv	a5,a4
	slli	a5,a5,1
	add	a5,a5,a4
	slli	a5,a5,3
	add	a5,a3,a5
	.loc 1 3325 41
	lw	a5,16(a5)
	.loc 1 3325 53
	andi	a5,a5,8
	sext.w	a5,a5
	.loc 1 3325 16
	beq	a5,zero,.L580
	.loc 1 3326 27
	ld	a3,-88(s0)
	ld	a4,-40(s0)
	mv	a5,a4
	slli	a5,a5,1
	add	a5,a5,a4
	slli	a5,a5,3
	add	a5,a3,a5
	.loc 1 3326 42
	ld	a5,8(a5)
	.loc 1 3326 18
	ld	a4,-112(s0)
	bne	a4,a5,.L580
	.loc 1 3327 18
	ld	a5,-136(s0)
	ld	a4,0(a5)
	.loc 1 3327 30
	ld	a5,-24(s0)
	slli	a5,a5,3
	add	a5,a4,a5
	ld	a4,0(a5)
	.loc 1 3327 18
	ld	a5,-136(s0)
	ld	a3,0(a5)
	.loc 1 3327 30
	ld	a5,-24(s0)
	slli	a5,a5,3
	add	a5,a3,a5
	.loc 1 3327 44
	ori	a4,a4,768
	sd	a4,0(a5)
.L580:
	.loc 1 3324 79 discriminator 2
	ld	a5,-40(s0)
	addi	a5,a5,1
	sd	a5,-40(s0)
.L579:
	.loc 1 3324 49 discriminator 1
	ld	a5,-96(s0)
	ld	a4,-40(s0)
	bltu	a4,a5,.L581
.L566:
	.loc 1 3334 10
	ld	a5,-104(s0)
	beq	a5,zero,.L582
	.loc 1 3334 49 discriminator 1
	ld	a5,-112(s0)
	beq	a5,zero,.L582
	.loc 1 3335 34
	ld	a5,-128(s0)
	ld	a4,0(a5)
	.loc 1 3335 48
	ld	a5,-24(s0)
	slli	a5,a5,3
	add	a5,a4,a5
	ld	a5,0(a5)
	.loc 1 3335 12
	ld	a4,-112(s0)
	bne	a4,a5,.L583
	.loc 1 3336 12
	ld	a5,-136(s0)
	ld	a4,0(a5)
	.loc 1 3336 24
	ld	a5,-24(s0)
	slli	a5,a5,3
	add	a5,a4,a5
	ld	a4,0(a5)
	.loc 1 3336 12
	ld	a5,-136(s0)
	ld	a3,0(a5)
	.loc 1 3336 24
	ld	a5,-24(s0)
	slli	a5,a5,3
	add	a5,a3,a5
	.loc 1 3336 38
	ori	a4,a4,1280
	sd	a4,0(a5)
	.loc 1 3337 30
	sd	zero,-40(s0)
	.loc 1 3337 11
	j	.L584
.L594:
	.loc 1 3338 26
	ld	a3,-88(s0)
	ld	a4,-40(s0)
	mv	a5,a4
	slli	a5,a5,1
	add	a5,a5,a4
	slli	a5,a5,3
	add	a5,a3,a5
	.loc 1 3338 41
	lw	a5,16(a5)
	.loc 1 3338 53
	andi	a5,a5,16
	sext.w	a5,a5
	.loc 1 3338 16
	beq	a5,zero,.L585
	.loc 1 3339 27
	ld	a3,-88(s0)
	ld	a4,-40(s0)
	mv	a5,a4
	slli	a5,a5,1
	add	a5,a5,a4
	slli	a5,a5,3
	add	a5,a3,a5
	.loc 1 3339 42
	ld	a5,0(a5)
	.loc 1 3339 18
	ld	a4,-104(s0)
	bne	a4,a5,.L585
	.loc 1 3340 20
	ld	a4,-56(s0)
	li	a5,-1
	beq	a4,a5,.L585
	.loc 1 3341 20
	ld	a5,-136(s0)
	ld	a4,0(a5)
	.loc 1 3341 32
	ld	a5,-56(s0)
	slli	a5,a5,3
	add	a5,a4,a5
	ld	a4,0(a5)
	.loc 1 3341 20
	ld	a5,-136(s0)
	ld	a3,0(a5)
	.loc 1 3341 32
	ld	a5,-56(s0)
	slli	a5,a5,3
	add	a5,a3,a5
	.loc 1 3341 59
	ori	a4,a4,8
	sd	a4,0(a5)
.L585:
	.loc 1 3346 26
	ld	a3,-88(s0)
	ld	a4,-40(s0)
	mv	a5,a4
	slli	a5,a5,1
	add	a5,a5,a4
	slli	a5,a5,3
	add	a5,a3,a5
	.loc 1 3346 41
	lw	a5,16(a5)
	.loc 1 3346 53
	andi	a5,a5,8
	sext.w	a5,a5
	.loc 1 3346 16
	beq	a5,zero,.L586
	.loc 1 3347 27
	ld	a3,-88(s0)
	ld	a4,-40(s0)
	mv	a5,a4
	slli	a5,a5,1
	add	a5,a5,a4
	slli	a5,a5,3
	add	a5,a3,a5
	.loc 1 3347 42
	ld	a5,0(a5)
	.loc 1 3347 18
	ld	a4,-104(s0)
	bne	a4,a5,.L587
	.loc 1 3348 33
	sd	zero,-48(s0)
	.loc 1 3348 17
	j	.L588
.L590:
	.loc 1 3349 31
	ld	a3,-88(s0)
	ld	a4,-40(s0)
	mv	a5,a4
	slli	a5,a5,1
	add	a5,a5,a4
	slli	a5,a5,3
	add	a5,a3,a5
	.loc 1 3349 46
	ld	a4,8(a5)
	.loc 1 3349 68
	ld	a5,-128(s0)
	ld	a3,0(a5)
	.loc 1 3349 82
	ld	a5,-48(s0)
	slli	a5,a5,3
	add	a5,a3,a5
	ld	a5,0(a5)
	.loc 1 3349 22
	bne	a4,a5,.L589
	.loc 1 3350 22
	ld	a5,-136(s0)
	ld	a4,0(a5)
	.loc 1 3350 34
	ld	a5,-48(s0)
	slli	a5,a5,3
	add	a5,a4,a5
	ld	a3,0(a5)
	.loc 1 3350 22
	ld	a5,-136(s0)
	ld	a4,0(a5)
	.loc 1 3350 34
	ld	a5,-48(s0)
	slli	a5,a5,3
	add	a5,a4,a5
	.loc 1 3350 47
	li	a4,4096
	addi	a4,a4,-1792
	or	a4,a3,a4
	sd	a4,0(a5)
.L589:
	.loc 1 3348 75 discriminator 2
	ld	a5,-48(s0)
	addi	a5,a5,1
	sd	a5,-48(s0)
.L588:
	.loc 1 3348 51 discriminator 1
	ld	a5,-120(s0)
	ld	a5,0(a5)
	.loc 1 3348 49 discriminator 1
	ld	a4,-48(s0)
	bltu	a4,a5,.L590
.L587:
	.loc 1 3355 31
	sd	zero,-48(s0)
	.loc 1 3355 15
	j	.L591
.L593:
	.loc 1 3356 29
	ld	a3,-88(s0)
	ld	a4,-40(s0)
	mv	a5,a4
	slli	a5,a5,1
	add	a5,a5,a4
	slli	a5,a5,3
	add	a5,a3,a5
	.loc 1 3356 44
	ld	a4,0(a5)
	.loc 1 3356 61
	ld	a5,-128(s0)
	ld	a3,0(a5)
	.loc 1 3356 75
	ld	a5,-48(s0)
	slli	a5,a5,3
	add	a5,a3,a5
	ld	a5,0(a5)
	.loc 1 3356 20
	bne	a4,a5,.L592
	.loc 1 3357 20
	ld	a5,-136(s0)
	ld	a4,0(a5)
	.loc 1 3357 32
	ld	a5,-48(s0)
	slli	a5,a5,3
	add	a5,a4,a5
	ld	a4,0(a5)
	.loc 1 3357 20
	ld	a5,-136(s0)
	ld	a3,0(a5)
	.loc 1 3357 32
	ld	a5,-48(s0)
	slli	a5,a5,3
	add	a5,a3,a5
	.loc 1 3357 45
	ori	a4,a4,24
	sd	a4,0(a5)
.L592:
	.loc 1 3355 73 discriminator 2
	ld	a5,-48(s0)
	addi	a5,a5,1
	sd	a5,-48(s0)
.L591:
	.loc 1 3355 49 discriminator 1
	ld	a5,-120(s0)
	ld	a5,0(a5)
	.loc 1 3355 47 discriminator 1
	ld	a4,-48(s0)
	bltu	a4,a5,.L593
.L586:
	.loc 1 3337 79 discriminator 2
	ld	a5,-40(s0)
	addi	a5,a5,1
	sd	a5,-40(s0)
.L584:
	.loc 1 3337 49 discriminator 1
	ld	a5,-96(s0)
	ld	a4,-40(s0)
	bltu	a4,a5,.L594
	j	.L582
.L583:
	.loc 1 3363 30
	sd	zero,-40(s0)
	.loc 1 3363 11
	j	.L595
.L597:
	.loc 1 3364 26
	ld	a3,-88(s0)
	ld	a4,-40(s0)
	mv	a5,a4
	slli	a5,a5,1
	add	a5,a5,a4
	slli	a5,a5,3
	add	a5,a3,a5
	.loc 1 3364 41
	lw	a5,16(a5)
	.loc 1 3364 53
	andi	a5,a5,8
	sext.w	a5,a5
	.loc 1 3364 16
	beq	a5,zero,.L596
	.loc 1 3365 27
	ld	a3,-88(s0)
	ld	a4,-40(s0)
	mv	a5,a4
	slli	a5,a5,1
	add	a5,a5,a4
	slli	a5,a5,3
	add	a5,a3,a5
	.loc 1 3365 42
	ld	a5,8(a5)
	.loc 1 3365 18
	ld	a4,-112(s0)
	bne	a4,a5,.L596
	.loc 1 3366 18
	ld	a5,-136(s0)
	ld	a4,0(a5)
	.loc 1 3366 30
	ld	a5,-24(s0)
	slli	a5,a5,3
	add	a5,a4,a5
	ld	a4,0(a5)
	.loc 1 3366 18
	ld	a5,-136(s0)
	ld	a3,0(a5)
	.loc 1 3366 30
	ld	a5,-24(s0)
	slli	a5,a5,3
	add	a5,a3,a5
	.loc 1 3366 44
	ori	a4,a4,768
	sd	a4,0(a5)
.L596:
	.loc 1 3363 79 discriminator 2
	ld	a5,-40(s0)
	addi	a5,a5,1
	sd	a5,-40(s0)
.L595:
	.loc 1 3363 49 discriminator 1
	ld	a5,-96(s0)
	ld	a4,-40(s0)
	bltu	a4,a5,.L597
.L582:
	.loc 1 3373 7
	ld	a5,-88(s0)
	mv	a0,a5
	call	FreePool@plt
	j	.L556
.L602:
	.loc 1 3268 9
	nop
.L556:
	.loc 1 3234 70 discriminator 2
	ld	a5,-32(s0)
	addi	a5,a5,1
	sd	a5,-32(s0)
.L545:
	.loc 1 3234 43 discriminator 1
	ld	a5,-80(s0)
	ld	a4,-32(s0)
	bltu	a4,a5,.L598
	.loc 1 3376 5
	ld	a5,-72(s0)
	mv	a0,a5
	call	FreePool@plt
	j	.L544
.L601:
	.loc 1 3231 7
	nop
.L544:
	.loc 1 3221 64 discriminator 2
	ld	a5,-24(s0)
	addi	a5,a5,1
	sd	a5,-24(s0)
.L542:
	.loc 1 3221 39 discriminator 1
	ld	a5,-120(s0)
	ld	a5,0(a5)
	.loc 1 3221 37 discriminator 1
	ld	a4,-24(s0)
	bltu	a4,a5,.L599
	.loc 1 3379 10
	li	a5,0
.L600:
	.loc 1 3380 1
	mv	a0,a5
	ld	ra,136(sp)
	.cfi_restore 1
	ld	s0,128(sp)
	.cfi_restore 8
	.cfi_def_cfa 2, 144
	addi	sp,sp,144
	.cfi_def_cfa_offset 0
	jr	ra
	.cfi_endproc
.LFE36:
	.size	ParseHandleDatabaseByRelationshipWithType, .-ParseHandleDatabaseByRelationshipWithType
	.section	.text.ParseHandleDatabaseByRelationship,"ax",@progbits
	.align	1
	.globl	ParseHandleDatabaseByRelationship
	.type	ParseHandleDatabaseByRelationship, @function
ParseHandleDatabaseByRelationship:
.LFB37:
	.loc 1 3419 1
	.cfi_startproc
	addi	sp,sp,-112
	.cfi_def_cfa_offset 112
	sd	ra,104(sp)
	sd	s0,96(sp)
	.cfi_offset 1, -8
	.cfi_offset 8, -16
	addi	s0,sp,112
	.cfi_def_cfa 8, 0
	sd	a0,-72(s0)
	sd	a1,-80(s0)
	sd	a2,-88(s0)
	sd	a3,-96(s0)
	sd	a4,-104(s0)
	.loc 1 3429 139
	ld	a4,-88(s0)
	li	a5,-4096
	addi	a5,a5,1
	and	a5,a4,a5
	.loc 1 3429 6
	beq	a5,zero,.L604
	.loc 1 3430 12
	li	a5,-1
	slli	a5,a5,63
	addi	a5,a5,2
	j	.L620
.L604:
	.loc 1 3433 14
	ld	a4,-88(s0)
	li	a5,4096
	addi	a5,a5,-2048
	and	a5,a4,a5
	.loc 1 3433 6
	beq	a5,zero,.L606
	.loc 1 3433 34 discriminator 1
	ld	a5,-72(s0)
	bne	a5,zero,.L606
	.loc 1 3434 12
	li	a5,-1
	slli	a5,a5,63
	addi	a5,a5,2
	j	.L620
.L606:
	.loc 1 3437 24
	ld	a5,-96(s0)
	sd	zero,0(a5)
	.loc 1 3438 6
	ld	a5,-104(s0)
	beq	a5,zero,.L607
	.loc 1 3439 27
	ld	a5,-104(s0)
	sd	zero,0(a5)
.L607:
	.loc 1 3442 16
	sd	zero,-48(s0)
	.loc 1 3443 14
	sd	zero,-56(s0)
	.loc 1 3445 12
	addi	a4,s0,-56
	addi	a3,s0,-48
	addi	a5,s0,-40
	mv	a2,a5
	ld	a1,-80(s0)
	ld	a0,-72(s0)
	call	ParseHandleDatabaseByRelationshipWithType
	sd	a0,-24(s0)
	.loc 1 3452 7
	ld	a5,-24(s0)
	.loc 1 3452 6
	blt	a5,zero,.L608
	.loc 1 3456 22
	sd	zero,-32(s0)
	.loc 1 3456 5
	j	.L609
.L611:
	.loc 1 3457 22
	ld	a4,-56(s0)
	ld	a5,-32(s0)
	slli	a5,a5,3
	add	a5,a4,a5
	ld	a4,0(a5)
	.loc 1 3457 36
	ld	a5,-88(s0)
	and	a5,a4,a5
	.loc 1 3457 10
	ld	a4,-88(s0)
	bne	a4,a5,.L610
	.loc 1 3458 10
	ld	a5,-96(s0)
	ld	a5,0(a5)
	.loc 1 3458 31
	addi	a4,a5,1
	ld	a5,-96(s0)
	sd	a4,0(a5)
.L610:
	.loc 1 3456 65 discriminator 2
	ld	a5,-32(s0)
	addi	a5,a5,1
	sd	a5,-32(s0)
.L609:
	.loc 1 3456 39 discriminator 1
	ld	a5,-40(s0)
	ld	a4,-32(s0)
	bltu	a4,a5,.L611
	.loc 1 3465 9
	ld	a5,-96(s0)
	ld	a5,0(a5)
	.loc 1 3465 8
	bne	a5,zero,.L612
	.loc 1 3466 14
	li	a5,-1
	slli	a5,a5,63
	addi	a5,a5,14
	sd	a5,-24(s0)
	j	.L608
.L612:
	.loc 1 3468 10
	ld	a5,-104(s0)
	bne	a5,zero,.L613
	.loc 1 3472 16
	sd	zero,-24(s0)
	j	.L608
.L613:
	.loc 1 3477 52
	ld	a5,-96(s0)
	ld	a5,0(a5)
	.loc 1 3477 73
	addi	a5,a5,1
	.loc 1 3477 76
	slli	a5,a5,3
	.loc 1 3477 33
	mv	a0,a5
	call	AllocateZeroPool@plt
	mv	a4,a0
	.loc 1 3477 31 discriminator 1
	ld	a5,-104(s0)
	sd	a4,0(a5)
	.loc 1 3478 13
	ld	a5,-104(s0)
	ld	a5,0(a5)
	.loc 1 3478 12
	bne	a5,zero,.L614
	.loc 1 3479 18
	li	a5,-1
	slli	a5,a5,63
	addi	a5,a5,9
	sd	a5,-24(s0)
	j	.L608
.L614:
	.loc 1 3481 28
	sd	zero,-32(s0)
	.loc 1 3481 54
	ld	a5,-96(s0)
	sd	zero,0(a5)
	.loc 1 3481 11
	j	.L615
.L617:
	.loc 1 3489 28
	ld	a4,-56(s0)
	ld	a5,-32(s0)
	slli	a5,a5,3
	add	a5,a4,a5
	ld	a4,0(a5)
	.loc 1 3489 42
	ld	a5,-88(s0)
	and	a5,a4,a5
	.loc 1 3489 16
	ld	a4,-88(s0)
	bne	a4,a5,.L616
	.loc 1 3490 79
	ld	a4,-48(s0)
	ld	a5,-32(s0)
	slli	a5,a5,3
	add	a4,a4,a5
	.loc 1 3490 16
	ld	a5,-104(s0)
	ld	a3,0(a5)
	.loc 1 3490 40
	ld	a5,-96(s0)
	ld	a5,0(a5)
	.loc 1 3490 61
	addi	a1,a5,1
	ld	a2,-96(s0)
	sd	a1,0(a2)
	.loc 1 3490 38
	slli	a5,a5,3
	add	a5,a3,a5
	.loc 1 3490 79
	ld	a4,0(a4)
	.loc 1 3490 65
	sd	a4,0(a5)
.L616:
	.loc 1 3483 29
	ld	a5,-32(s0)
	addi	a5,a5,1
	sd	a5,-32(s0)
.L615:
	.loc 1 3482 30
	ld	a5,-40(s0)
	ld	a4,-32(s0)
	bltu	a4,a5,.L617
	.loc 1 3497 12
	ld	a5,-104(s0)
	ld	a4,0(a5)
	.loc 1 3497 35
	ld	a5,-96(s0)
	ld	a5,0(a5)
	.loc 1 3497 34
	slli	a5,a5,3
	add	a5,a4,a5
	.loc 1 3497 57
	sd	zero,0(a5)
	.loc 1 3499 18
	sd	zero,-24(s0)
.L608:
	.loc 1 3505 20
	ld	a5,-48(s0)
	.loc 1 3505 6
	beq	a5,zero,.L618
	.loc 1 3506 5
	ld	a5,-48(s0)
	mv	a0,a5
	call	FreePool@plt
.L618:
	.loc 1 3509 18
	ld	a5,-56(s0)
	.loc 1 3509 6
	beq	a5,zero,.L619
	.loc 1 3510 5
	ld	a5,-56(s0)
	mv	a0,a5
	call	FreePool@plt
.L619:
	.loc 1 3518 10
	ld	a5,-24(s0)
.L620:
	.loc 1 3519 1
	mv	a0,a5
	ld	ra,104(sp)
	.cfi_restore 1
	ld	s0,96(sp)
	.cfi_restore 8
	.cfi_def_cfa 2, 112
	addi	sp,sp,112
	.cfi_def_cfa_offset 0
	jr	ra
	.cfi_endproc
.LFE37:
	.size	ParseHandleDatabaseByRelationship, .-ParseHandleDatabaseByRelationship
	.section	.text.ParseHandleDatabaseForChildControllers,"ax",@progbits
	.align	1
	.globl	ParseHandleDatabaseForChildControllers
	.type	ParseHandleDatabaseForChildControllers, @function
ParseHandleDatabaseForChildControllers:
.LFB38:
	.loc 1 3540 1
	.cfi_startproc
	addi	sp,sp,-128
	.cfi_def_cfa_offset 128
	sd	ra,120(sp)
	sd	s0,112(sp)
	.cfi_offset 1, -8
	.cfi_offset 8, -16
	addi	s0,sp,128
	.cfi_def_cfa 8, 0
	sd	a0,-104(s0)
	sd	a1,-112(s0)
	sd	a2,-120(s0)
	.loc 1 3551 6
	ld	a5,-112(s0)
	bne	a5,zero,.L622
	.loc 1 3552 12
	li	a5,-1
	slli	a5,a5,63
	addi	a5,a5,2
	j	.L640
.L622:
	.loc 1 3555 24
	ld	a5,-112(s0)
	sd	zero,0(a5)
	.loc 1 3557 12
	addi	a4,s0,-72
	addi	a5,s0,-64
	mv	a3,a5
	li	a2,12
	ld	a1,-104(s0)
	li	a0,0
	call	ParseHandleDatabaseByRelationship
	sd	a0,-56(s0)
	.loc 1 3562 34
	ld	a5,-56(s0)
	.loc 1 3562 6
	bge	a5,zero,.L624
	.loc 1 3563 12
	ld	a5,-56(s0)
	j	.L640
.L624:
	.loc 1 3569 27
	li	a0,0
	call	GetHandleListByProtocol
	sd	a0,-48(s0)
	.loc 1 3570 6
	ld	a5,-48(s0)
	bne	a5,zero,.L625
	.loc 1 3571 5
	ld	a5,-72(s0)
	mv	a0,a5
	call	FreePool@plt
	.loc 1 3572 12
	li	a5,-1
	slli	a5,a5,63
	addi	a5,a5,14
	j	.L640
.L625:
	.loc 1 3575 33
	sd	zero,-32(s0)
	.loc 1 3575 3
	j	.L626
.L636:
	.loc 1 3576 73
	ld	a4,-72(s0)
	ld	a5,-32(s0)
	slli	a5,a5,3
	add	a5,a4,a5
	.loc 1 3576 14
	ld	a0,0(a5)
	addi	a4,s0,-88
	addi	a5,s0,-80
	mv	a3,a5
	li	a5,4096
	addi	a2,a5,-1792
	ld	a1,-104(s0)
	call	ParseHandleDatabaseByRelationship
	sd	a0,-56(s0)
	.loc 1 3582 36
	ld	a5,-56(s0)
	.loc 1 3582 8
	blt	a5,zero,.L641
	.loc 1 3586 37
	sd	zero,-40(s0)
	.loc 1 3586 5
	j	.L629
.L635:
	.loc 1 3591 24
	sd	zero,-24(s0)
	.loc 1 3591 7
	j	.L630
.L633:
	.loc 1 3592 34
	ld	a5,-24(s0)
	slli	a5,a5,3
	ld	a4,-48(s0)
	add	a5,a4,a5
	ld	a4,0(a5)
	.loc 1 3592 78
	ld	a3,-88(s0)
	ld	a5,-40(s0)
	slli	a5,a5,3
	add	a5,a3,a5
	ld	a5,0(a5)
	.loc 1 3592 12
	beq	a4,a5,.L642
	.loc 1 3591 76 discriminator 2
	ld	a5,-24(s0)
	addi	a5,a5,1
	sd	a5,-24(s0)
.L630:
	.loc 1 3591 43 discriminator 1
	ld	a5,-112(s0)
	ld	a5,0(a5)
	.loc 1 3591 41 discriminator 1
	ld	a4,-24(s0)
	bltu	a4,a5,.L633
	j	.L632
.L642:
	.loc 1 3593 11
	nop
.L632:
	.loc 1 3597 26
	ld	a5,-112(s0)
	ld	a5,0(a5)
	.loc 1 3597 10
	ld	a4,-24(s0)
	bltu	a4,a5,.L634
	.loc 1 3598 86
	ld	a4,-88(s0)
	ld	a5,-40(s0)
	slli	a5,a5,3
	add	a4,a4,a5
	.loc 1 3598 32
	ld	a5,-112(s0)
	ld	a5,0(a5)
	.loc 1 3598 53
	addi	a2,a5,1
	ld	a3,-112(s0)
	sd	a2,0(a3)
	.loc 1 3598 30
	slli	a5,a5,3
	ld	a3,-48(s0)
	add	a5,a3,a5
	.loc 1 3598 86
	ld	a4,0(a4)
	.loc 1 3598 57
	sd	a4,0(a5)
.L634:
	.loc 1 3588 36
	ld	a5,-40(s0)
	addi	a5,a5,1
	sd	a5,-40(s0)
.L629:
	.loc 1 3587 37
	ld	a5,-80(s0)
	ld	a4,-40(s0)
	bltu	a4,a5,.L635
	.loc 1 3602 5
	ld	a5,-88(s0)
	mv	a0,a5
	call	FreePool@plt
	j	.L628
.L641:
	.loc 1 3583 7
	nop
.L628:
	.loc 1 3575 115 discriminator 2
	ld	a5,-32(s0)
	addi	a5,a5,1
	sd	a5,-32(s0)
.L626:
	.loc 1 3575 63 discriminator 1
	ld	a5,-64(s0)
	ld	a4,-32(s0)
	bltu	a4,a5,.L636
	.loc 1 3605 3
	ld	a5,-72(s0)
	mv	a0,a5
	call	FreePool@plt
	.loc 1 3607 6
	ld	a5,-120(s0)
	beq	a5,zero,.L637
	.loc 1 3607 50 discriminator 1
	ld	a5,-112(s0)
	ld	a5,0(a5)
	.loc 1 3607 46 discriminator 1
	bne	a5,zero,.L638
.L637:
	.loc 1 3611 5
	ld	a0,-48(s0)
	call	FreePool@plt
	.loc 1 3612 27
	sd	zero,-48(s0)
.L638:
	.loc 1 3615 6
	ld	a5,-120(s0)
	beq	a5,zero,.L639
	.loc 1 3616 27
	ld	a5,-120(s0)
	ld	a4,-48(s0)
	sd	a4,0(a5)
.L639:
	.loc 1 3625 10
	li	a5,0
.L640:
	.loc 1 3626 1
	mv	a0,a5
	ld	ra,120(sp)
	.cfi_restore 1
	ld	s0,112(sp)
	.cfi_restore 8
	.cfi_def_cfa 2, 128
	addi	sp,sp,128
	.cfi_def_cfa_offset 0
	jr	ra
	.cfi_endproc
.LFE38:
	.size	ParseHandleDatabaseForChildControllers, .-ParseHandleDatabaseForChildControllers
	.section	.text.BuffernCatGrow,"ax",@progbits
	.align	1
	.globl	BuffernCatGrow
	.type	BuffernCatGrow, @function
BuffernCatGrow:
.LFB39:
	.loc 1 3650 1
	.cfi_startproc
	addi	sp,sp,-64
	.cfi_def_cfa_offset 64
	sd	ra,56(sp)
	sd	s0,48(sp)
	.cfi_offset 1, -8
	.cfi_offset 8, -16
	addi	s0,sp,64
	.cfi_def_cfa 8, 0
	sd	a0,-40(s0)
	sd	a1,-48(s0)
	sd	a2,-56(s0)
	sd	a3,-64(s0)
	.loc 1 3656 6
	ld	a5,-64(s0)
	beq	a5,zero,.L644
	.loc 1 3656 25 discriminator 1
	ld	a5,-56(s0)
	bne	a5,zero,.L645
.L644:
	.loc 1 3657 13
	ld	a5,-40(s0)
	ld	a5,0(a5)
	j	.L646
.L645:
	.loc 1 3660 6
	ld	a5,-48(s0)
	bne	a5,zero,.L647
	.loc 1 3661 26
	sd	zero,-24(s0)
	j	.L648
.L647:
	.loc 1 3663 26
	ld	a5,-48(s0)
	ld	a5,0(a5)
	sd	a5,-24(s0)
.L648:
	.loc 1 3666 29
	ld	a4,-24(s0)
	ld	a5,-64(s0)
	add	a5,a4,a5
	sd	a5,-32(s0)
	.loc 1 3668 6
	ld	a5,-48(s0)
	beq	a5,zero,.L649
	.loc 1 3669 22
	ld	a5,-48(s0)
	ld	a4,-24(s0)
	sd	a4,0(a5)
.L649:
	.loc 1 3672 6
	ld	a5,-24(s0)
	bne	a5,zero,.L650
	.loc 1 3674 26
	ld	a0,-32(s0)
	call	AllocateZeroPool@plt
	mv	a4,a0
	.loc 1 3674 24 discriminator 1
	ld	a5,-40(s0)
	sd	a4,0(a5)
	j	.L651
.L650:
	.loc 1 3677 26
	ld	a5,-40(s0)
	ld	a5,0(a5)
	mv	a2,a5
	ld	a1,-32(s0)
	ld	a0,-24(s0)
	call	ReallocatePool@plt
	mv	a4,a0
	.loc 1 3677 24 discriminator 1
	ld	a5,-40(s0)
	sd	a4,0(a5)
.L651:
	.loc 1 3683 31
	ld	a5,-40(s0)
	ld	a4,0(a5)
	.loc 1 3683 11
	ld	a5,-24(s0)
	add	a5,a4,a5
	ld	a2,-64(s0)
	ld	a1,-56(s0)
	mv	a0,a5
	call	CopyMem@plt
	mv	a5,a0
.L646:
	.loc 1 3684 1
	mv	a0,a5
	ld	ra,56(sp)
	.cfi_restore 1
	ld	s0,48(sp)
	.cfi_restore 8
	.cfi_def_cfa 2, 64
	addi	sp,sp,64
	.cfi_def_cfa_offset 0
	jr	ra
	.cfi_endproc
.LFE39:
	.size	BuffernCatGrow, .-BuffernCatGrow
	.section	.text.ParseHandleDatabaseForChildDevices,"ax",@progbits
	.align	1
	.globl	ParseHandleDatabaseForChildDevices
	.type	ParseHandleDatabaseForChildDevices, @function
ParseHandleDatabaseForChildDevices:
.LFB40:
	.loc 1 3704 1
	.cfi_startproc
	addi	sp,sp,-112
	.cfi_def_cfa_offset 112
	sd	ra,104(sp)
	sd	s0,96(sp)
	.cfi_offset 1, -8
	.cfi_offset 8, -16
	addi	s0,sp,112
	.cfi_def_cfa 8, 0
	sd	a0,-88(s0)
	sd	a1,-96(s0)
	sd	a2,-104(s0)
	.loc 1 3715 20
	sd	zero,-72(s0)
	.loc 1 3716 10
	sd	zero,-40(s0)
	.loc 1 3717 11
	sd	zero,-48(s0)
	.loc 1 3718 24
	ld	a5,-96(s0)
	sd	zero,0(a5)
	.loc 1 3720 12
	addi	a4,s0,-40
	addi	a5,s0,-56
	mv	a3,a5
	li	a2,1280
	li	a1,0
	ld	a0,-88(s0)
	call	ParseHandleDatabaseByRelationship
	sd	a0,-32(s0)
	.loc 1 3725 7
	ld	a5,-32(s0)
	.loc 1 3725 6
	blt	a5,zero,.L653
	.loc 1 3726 22
	sd	zero,-24(s0)
	.loc 1 3726 5
	j	.L654
.L658:
	.loc 1 3730 70
	ld	a4,-40(s0)
	ld	a5,-24(s0)
	slli	a5,a5,3
	add	a5,a4,a5
	.loc 1 3730 16
	ld	a1,0(a5)
	addi	a4,s0,-48
	addi	a5,s0,-64
	mv	a3,a5
	li	a5,4096
	addi	a2,a5,-1792
	ld	a0,-88(s0)
	call	ParseHandleDatabaseByRelationship
	sd	a0,-32(s0)
	.loc 1 3736 38
	ld	a5,-32(s0)
	.loc 1 3736 10
	blt	a5,zero,.L661
	.loc 1 3743 7
	ld	a5,-96(s0)
	ld	a4,0(a5)
	.loc 1 3743 28
	ld	a5,-64(s0)
	add	a4,a4,a5
	ld	a5,-96(s0)
	sd	a4,0(a5)
	.loc 1 3744 10
	ld	a5,-104(s0)
	beq	a5,zero,.L656
	.loc 1 3745 33
	ld	a4,-48(s0)
	ld	a5,-64(s0)
	.loc 1 3745 115
	slli	a3,a5,3
	.loc 1 3745 33
	addi	a5,s0,-72
	mv	a2,a4
	mv	a1,a5
	ld	a0,-104(s0)
	call	BuffernCatGrow
	mv	a4,a0
	.loc 1 3745 31 discriminator 1
	ld	a5,-104(s0)
	sd	a4,0(a5)
.L656:
	.loc 1 3751 19
	ld	a5,-48(s0)
	.loc 1 3751 10
	beq	a5,zero,.L657
	.loc 1 3752 9
	ld	a5,-48(s0)
	mv	a0,a5
	call	FreePool@plt
.L657:
	.loc 1 3726 60 discriminator 2
	ld	a5,-24(s0)
	addi	a5,a5,1
	sd	a5,-24(s0)
.L654:
	.loc 1 3726 39 discriminator 1
	ld	a5,-56(s0)
	ld	a4,-24(s0)
	bltu	a4,a5,.L658
	j	.L653
.L661:
	.loc 1 3737 9
	nop
.L653:
	.loc 1 3757 14
	ld	a5,-40(s0)
	.loc 1 3757 6
	beq	a5,zero,.L659
	.loc 1 3758 5
	ld	a5,-40(s0)
	mv	a0,a5
	call	FreePool@plt
.L659:
	.loc 1 3761 10
	ld	a5,-32(s0)
	.loc 1 3762 1
	mv	a0,a5
	ld	ra,104(sp)
	.cfi_restore 1
	ld	s0,96(sp)
	.cfi_restore 8
	.cfi_def_cfa 2, 112
	addi	sp,sp,112
	.cfi_def_cfa_offset 0
	jr	ra
	.cfi_endproc
.LFE40:
	.size	ParseHandleDatabaseForChildDevices, .-ParseHandleDatabaseForChildDevices
	.section	.text.GetHandleListByProtocol,"ax",@progbits
	.align	1
	.globl	GetHandleListByProtocol
	.type	GetHandleListByProtocol, @function
GetHandleListByProtocol:
.LFB41:
	.loc 1 3778 1
	.cfi_startproc
	addi	sp,sp,-64
	.cfi_def_cfa_offset 64
	sd	ra,56(sp)
	sd	s0,48(sp)
	.cfi_offset 1, -8
	.cfi_offset 8, -16
	addi	s0,sp,64
	.cfi_def_cfa 8, 0
	sd	a0,-56(s0)
	.loc 1 3783 8
	sd	zero,-40(s0)
	.loc 1 3784 14
	sd	zero,-24(s0)
	.loc 1 3789 6
	ld	a5,-56(s0)
	bne	a5,zero,.L663
	.loc 1 3790 17
	la	a5,gBS
	ld	a5,0(a5)
	ld	a5,176(a5)
	.loc 1 3790 14
	addi	a3,s0,-40
	ld	a4,-24(s0)
	li	a2,0
	li	a1,0
	li	a0,0
	jalr	a5
.LVL45:
	sd	a0,-32(s0)
	.loc 1 3791 8
	ld	a4,-32(s0)
	li	a5,-1
	slli	a5,a5,63
	addi	a5,a5,5
	bne	a4,a5,.L664
	.loc 1 3792 20
	ld	a5,-40(s0)
	.loc 1 3792 43
	addi	a5,a5,8
	.loc 1 3792 20
	mv	a0,a5
	call	AllocateZeroPool@plt
	sd	a0,-24(s0)
	.loc 1 3793 10
	ld	a5,-24(s0)
	bne	a5,zero,.L665
	.loc 1 3794 16
	li	a5,0
	j	.L670
.L665:
	.loc 1 3797 19
	la	a5,gBS
	ld	a5,0(a5)
	ld	a5,176(a5)
	.loc 1 3797 16
	addi	a3,s0,-40
	ld	a4,-24(s0)
	li	a2,0
	li	a1,0
	li	a0,0
	jalr	a5
.LVL46:
	sd	a0,-32(s0)
	.loc 1 3798 17
	ld	a5,-40(s0)
	andi	a5,a5,-8
	ld	a4,-24(s0)
	add	a5,a4,a5
	.loc 1 3798 44
	sd	zero,0(a5)
	j	.L664
.L663:
	.loc 1 3801 17
	la	a5,gBS
	ld	a5,0(a5)
	ld	a5,176(a5)
	.loc 1 3801 14
	addi	a3,s0,-40
	ld	a4,-24(s0)
	li	a2,0
	ld	a1,-56(s0)
	li	a0,2
	jalr	a5
.LVL47:
	sd	a0,-32(s0)
	.loc 1 3802 8
	ld	a4,-32(s0)
	li	a5,-1
	slli	a5,a5,63
	addi	a5,a5,5
	bne	a4,a5,.L664
	.loc 1 3803 20
	ld	a5,-40(s0)
	.loc 1 3803 43
	addi	a5,a5,8
	.loc 1 3803 20
	mv	a0,a5
	call	AllocateZeroPool@plt
	sd	a0,-24(s0)
	.loc 1 3804 10
	ld	a5,-24(s0)
	bne	a5,zero,.L667
	.loc 1 3805 16
	li	a5,0
	j	.L670
.L667:
	.loc 1 3808 19
	la	a5,gBS
	ld	a5,0(a5)
	ld	a5,176(a5)
	.loc 1 3808 16
	addi	a3,s0,-40
	ld	a4,-24(s0)
	li	a2,0
	ld	a1,-56(s0)
	li	a0,2
	jalr	a5
.LVL48:
	sd	a0,-32(s0)
	.loc 1 3809 17
	ld	a5,-40(s0)
	andi	a5,a5,-8
	ld	a4,-24(s0)
	add	a5,a4,a5
	.loc 1 3809 44
	sd	zero,0(a5)
.L664:
	.loc 1 3813 34
	ld	a5,-32(s0)
	.loc 1 3813 6
	bge	a5,zero,.L668
	.loc 1 3814 8
	ld	a5,-24(s0)
	beq	a5,zero,.L669
	.loc 1 3815 7
	ld	a0,-24(s0)
	call	FreePool@plt
.L669:
	.loc 1 3818 12
	li	a5,0
	j	.L670
.L668:
	.loc 1 3821 10
	ld	a5,-24(s0)
.L670:
	.loc 1 3822 1
	mv	a0,a5
	ld	ra,56(sp)
	.cfi_restore 1
	ld	s0,48(sp)
	.cfi_restore 8
	.cfi_def_cfa 2, 64
	addi	sp,sp,64
	.cfi_def_cfa_offset 0
	jr	ra
	.cfi_endproc
.LFE41:
	.size	GetHandleListByProtocol, .-GetHandleListByProtocol
	.section	.text.GetHandleListByProtocolList,"ax",@progbits
	.align	1
	.globl	GetHandleListByProtocolList
	.type	GetHandleListByProtocolList, @function
GetHandleListByProtocolList:
.LFB42:
	.loc 1 3838 1
	.cfi_startproc
	addi	sp,sp,-96
	.cfi_def_cfa_offset 96
	sd	ra,88(sp)
	sd	s0,80(sp)
	.cfi_offset 1, -8
	.cfi_offset 8, -16
	addi	s0,sp,96
	.cfi_def_cfa 8, 0
	sd	a0,-88(s0)
	.loc 1 3848 8
	sd	zero,-72(s0)
	.loc 1 3849 14
	sd	zero,-56(s0)
	.loc 1 3850 13
	li	a5,8
	sd	a5,-24(s0)
	.loc 1 3852 19
	ld	a5,-88(s0)
	sd	a5,-32(s0)
	.loc 1 3852 3
	j	.L672
.L675:
	.loc 1 3853 17
	la	a5,gBS
	ld	a5,0(a5)
	ld	a5,176(a5)
	.loc 1 3853 14
	ld	a4,-32(s0)
	ld	a1,0(a4)
	addi	a3,s0,-72
	li	a4,0
	li	a2,0
	li	a0,2
	jalr	a5
.LVL49:
	sd	a0,-64(s0)
	.loc 1 3854 8
	ld	a4,-64(s0)
	li	a5,-1
	slli	a5,a5,63
	addi	a5,a5,5
	bne	a4,a5,.L673
	.loc 1 3855 17
	ld	a5,-72(s0)
	ld	a4,-24(s0)
	add	a5,a4,a5
	sd	a5,-24(s0)
.L673:
	.loc 1 3852 105 discriminator 2
	ld	a5,-32(s0)
	addi	a5,a5,8
	sd	a5,-32(s0)
	.loc 1 3852 114 discriminator 2
	sd	zero,-72(s0)
.L672:
	.loc 1 3852 63 discriminator 1
	ld	a5,-32(s0)
	beq	a5,zero,.L674
	.loc 1 3852 66 discriminator 3
	ld	a5,-32(s0)
	ld	a5,0(a5)
	.loc 1 3852 63 discriminator 3
	bne	a5,zero,.L675
.L674:
	.loc 1 3862 6
	ld	a4,-24(s0)
	li	a5,8
	bne	a4,a5,.L676
	.loc 1 3863 12
	li	a5,0
	j	.L690
.L676:
	.loc 1 3866 16
	ld	a0,-24(s0)
	call	AllocateZeroPool@plt
	sd	a0,-56(s0)
	.loc 1 3867 6
	ld	a5,-56(s0)
	bne	a5,zero,.L678
	.loc 1 3868 12
	li	a5,0
	j	.L690
.L678:
	.loc 1 3871 8
	sd	zero,-72(s0)
	.loc 1 3872 19
	ld	a5,-88(s0)
	sd	a5,-32(s0)
	.loc 1 3872 3
	j	.L679
.L682:
	.loc 1 3873 26
	ld	a5,-72(s0)
	ld	a4,-24(s0)
	sub	a5,a4,a5
	.loc 1 3873 14
	sd	a5,-80(s0)
	.loc 1 3874 17
	la	a5,gBS
	ld	a5,0(a5)
	ld	a5,176(a5)
	.loc 1 3874 14
	ld	a4,-32(s0)
	ld	a1,0(a4)
	.loc 1 3874 107
	ld	a4,-72(s0)
	andi	a4,a4,-8
	.loc 1 3874 14
	ld	a3,-56(s0)
	add	a4,a3,a4
	addi	a3,s0,-80
	li	a2,0
	li	a0,2
	jalr	a5
.LVL50:
	sd	a0,-64(s0)
	.loc 1 3879 9
	ld	a5,-64(s0)
	.loc 1 3879 8
	blt	a5,zero,.L680
	.loc 1 3880 12
	ld	a4,-72(s0)
	ld	a5,-80(s0)
	add	a5,a4,a5
	sd	a5,-72(s0)
.L680:
	.loc 1 3872 105 discriminator 2
	ld	a5,-32(s0)
	addi	a5,a5,8
	sd	a5,-32(s0)
.L679:
	.loc 1 3872 63 discriminator 1
	ld	a5,-32(s0)
	beq	a5,zero,.L681
	.loc 1 3872 66 discriminator 3
	ld	a5,-32(s0)
	ld	a5,0(a5)
	.loc 1 3872 63 discriminator 3
	bne	a5,zero,.L682
.L681:
	.loc 1 3886 22
	ld	a5,-56(s0)
	sd	a5,-40(s0)
	.loc 1 3886 3
	j	.L683
.L689:
	.loc 1 3887 24
	ld	a5,-40(s0)
	addi	a5,a5,8
	sd	a5,-48(s0)
	.loc 1 3887 5
	j	.L684
.L687:
	.loc 1 3888 11
	ld	a5,-40(s0)
	ld	a4,0(a5)
	.loc 1 3888 29
	ld	a5,-48(s0)
	ld	a5,0(a5)
	.loc 1 3888 10
	bne	a4,a5,.L685
	.loc 1 3892 47
	ld	a5,-48(s0)
	addi	a3,a5,8
	.loc 1 3892 79
	ld	a4,-48(s0)
	ld	a5,-56(s0)
	sub	a5,a4,a5
	.loc 1 3892 62
	mv	a4,a5
	ld	a5,-24(s0)
	sub	a5,a5,a4
	addi	a5,a5,-8
	.loc 1 3892 9
	mv	a2,a5
	mv	a1,a3
	ld	a0,-48(s0)
	call	CopyMem@plt
.L685:
	.loc 1 3887 123 discriminator 2
	ld	a5,-48(s0)
	addi	a5,a5,8
	sd	a5,-48(s0)
.L684:
	.loc 1 3887 75 discriminator 1
	ld	a5,-48(s0)
	beq	a5,zero,.L686
	.loc 1 3887 78 discriminator 3
	ld	a5,-48(s0)
	ld	a5,0(a5)
	.loc 1 3887 75 discriminator 3
	bne	a5,zero,.L687
.L686:
	.loc 1 3886 114 discriminator 2
	ld	a5,-40(s0)
	addi	a5,a5,8
	sd	a5,-40(s0)
.L683:
	.loc 1 3886 66 discriminator 1
	ld	a5,-40(s0)
	beq	a5,zero,.L688
	.loc 1 3886 69 discriminator 3
	ld	a5,-40(s0)
	ld	a5,0(a5)
	.loc 1 3886 66 discriminator 3
	bne	a5,zero,.L689
.L688:
	.loc 1 3897 10
	ld	a5,-56(s0)
.L690:
	.loc 1 3898 1
	mv	a0,a5
	ld	ra,88(sp)
	.cfi_restore 1
	ld	s0,80(sp)
	.cfi_restore 8
	.cfi_def_cfa 2, 96
	addi	sp,sp,96
	.cfi_def_cfa_offset 0
	jr	ra
	.cfi_endproc
.LFE42:
	.size	GetHandleListByProtocolList, .-GetHandleListByProtocolList
	.section	.text.GetAllMappingGuids,"ax",@progbits
	.align	1
	.globl	GetAllMappingGuids
	.type	GetAllMappingGuids, @function
GetAllMappingGuids:
.LFB43:
	.loc 1 3917 1
	.cfi_startproc
	addi	sp,sp,-64
	.cfi_def_cfa_offset 64
	sd	ra,56(sp)
	sd	s0,48(sp)
	.cfi_offset 1, -8
	.cfi_offset 8, -16
	addi	s0,sp,64
	.cfi_def_cfa 8, 0
	sd	a0,-56(s0)
	sd	a1,-64(s0)
	.loc 1 3922 6
	ld	a5,-64(s0)
	bne	a5,zero,.L692
	.loc 1 3923 12
	li	a5,-1
	slli	a5,a5,63
	addi	a5,a5,2
	j	.L693
.L692:
	.loc 1 3926 15
	sd	zero,-24(s0)
	.loc 1 3927 7
	la	a5,_gPcd_FixedAtBuild_PcdShellIncludeNtGuids
	lbu	a5,0(a5)
	.loc 1 3927 6
	beq	a5,zero,.L694
	.loc 1 3928 17
	li	a5,3
	sd	a5,-24(s0)
.L694:
	.loc 1 3931 13
	li	a5,280
	sd	a5,-40(s0)
	.loc 1 3933 7
	ld	a5,-64(s0)
	ld	a4,0(a5)
	.loc 1 3933 28
	ld	a3,-24(s0)
	ld	a5,-40(s0)
	add	a3,a3,a5
	.loc 1 3933 40
	lla	a5,mGuidListCount
	ld	a5,0(a5)
	add	a5,a3,a5
	.loc 1 3933 6
	bgeu	a4,a5,.L695
	.loc 1 3934 26
	ld	a4,-24(s0)
	ld	a5,-40(s0)
	add	a4,a4,a5
	.loc 1 3934 38
	lla	a5,mGuidListCount
	ld	a5,0(a5)
	add	a4,a4,a5
	.loc 1 3934 12
	ld	a5,-64(s0)
	sd	a4,0(a5)
	.loc 1 3935 12
	li	a5,-1
	slli	a5,a5,63
	addi	a5,a5,5
	j	.L693
.L695:
	.loc 1 3938 14
	sd	zero,-32(s0)
	.loc 1 3938 3
	j	.L696
.L697:
	.loc 1 3939 21
	ld	a5,-32(s0)
	slli	a5,a5,4
	.loc 1 3939 15
	ld	a4,-56(s0)
	add	a2,a4,a5
	.loc 1 3939 54
	lla	a3,mGuidStringListNT
	ld	a4,-32(s0)
	mv	a5,a4
	slli	a5,a5,1
	add	a5,a5,a4
	slli	a5,a5,3
	add	a5,a3,a5
	ld	a5,8(a5)
	.loc 1 3939 5
	mv	a1,a5
	mv	a0,a2
	call	CopyGuid@plt
	.loc 1 3938 45 discriminator 3
	ld	a5,-32(s0)
	addi	a5,a5,1
	sd	a5,-32(s0)
.L696:
	.loc 1 3938 25 discriminator 1
	ld	a4,-32(s0)
	ld	a5,-24(s0)
	bltu	a4,a5,.L697
	.loc 1 3942 14
	sd	zero,-32(s0)
	.loc 1 3942 3
	j	.L698
.L699:
	.loc 1 3943 34
	ld	a4,-24(s0)
	ld	a5,-32(s0)
	add	a5,a4,a5
	.loc 1 3943 21
	slli	a5,a5,4
	.loc 1 3943 15
	ld	a4,-56(s0)
	add	a2,a4,a5
	.loc 1 3943 66
	lla	a3,mGuidStringList
	ld	a4,-32(s0)
	mv	a5,a4
	slli	a5,a5,1
	add	a5,a5,a4
	slli	a5,a5,3
	add	a5,a3,a5
	ld	a5,8(a5)
	.loc 1 3943 5
	mv	a1,a5
	mv	a0,a2
	call	CopyGuid@plt
	.loc 1 3942 43 discriminator 3
	ld	a5,-32(s0)
	addi	a5,a5,1
	sd	a5,-32(s0)
.L698:
	.loc 1 3942 25 discriminator 1
	ld	a4,-32(s0)
	ld	a5,-40(s0)
	bltu	a4,a5,.L699
	.loc 1 3946 14
	sd	zero,-32(s0)
	.loc 1 3946 3
	j	.L700
.L701:
	.loc 1 3947 34
	ld	a4,-24(s0)
	ld	a5,-40(s0)
	add	a4,a4,a5
	.loc 1 3947 46
	ld	a5,-32(s0)
	add	a5,a4,a5
	.loc 1 3947 21
	slli	a5,a5,4
	.loc 1 3947 15
	ld	a4,-56(s0)
	add	a2,a4,a5
	.loc 1 3947 65
	lla	a5,mGuidList
	ld	a3,0(a5)
	ld	a4,-32(s0)
	mv	a5,a4
	slli	a5,a5,1
	add	a5,a5,a4
	slli	a5,a5,3
	add	a5,a3,a5
	.loc 1 3947 72
	ld	a5,8(a5)
	.loc 1 3947 5
	mv	a1,a5
	mv	a0,a2
	call	CopyGuid@plt
	.loc 1 3946 48 discriminator 3
	ld	a5,-32(s0)
	addi	a5,a5,1
	sd	a5,-32(s0)
.L700:
	.loc 1 3946 25 discriminator 1
	lla	a5,mGuidListCount
	ld	a5,0(a5)
	ld	a4,-32(s0)
	bltu	a4,a5,.L701
	.loc 1 3950 10
	li	a5,0
.L693:
	.loc 1 3951 1
	mv	a0,a5
	ld	ra,56(sp)
	.cfi_restore 1
	ld	s0,48(sp)
	.cfi_restore 8
	.cfi_def_cfa 2, 64
	addi	sp,sp,64
	.cfi_def_cfa_offset 0
	jr	ra
	.cfi_endproc
.LFE43:
	.size	GetAllMappingGuids, .-GetAllMappingGuids
	.text
.Letext0:
	.file 2 "/home/kapoagaeming/Downloads/spacemit-image-builder/components/edk2/MdePkg/Include/RiscV64/ProcessorBind.h"
	.file 3 "/home/kapoagaeming/Downloads/spacemit-image-builder/components/edk2/MdePkg/Include/Base.h"
	.file 4 "/home/kapoagaeming/Downloads/spacemit-image-builder/components/edk2/MdePkg/Include/Uefi/UefiBaseType.h"
	.file 5 "/home/kapoagaeming/Downloads/spacemit-image-builder/components/edk2/MdePkg/Include/Uefi/UefiMultiPhase.h"
	.file 6 "/home/kapoagaeming/Downloads/spacemit-image-builder/components/edk2/MdePkg/Include/Guid/PcAnsi.h"
	.file 7 "/home/kapoagaeming/Downloads/spacemit-image-builder/components/edk2/MdePkg/Include/IndustryStandard/Acpi10.h"
	.file 8 "/home/kapoagaeming/Downloads/spacemit-image-builder/components/edk2/MdePkg/Include/Protocol/DevicePath.h"
	.file 9 "/home/kapoagaeming/Downloads/spacemit-image-builder/components/edk2/MdePkg/Include/Protocol/SimpleTextIn.h"
	.file 10 "/home/kapoagaeming/Downloads/spacemit-image-builder/components/edk2/MdePkg/Include/Protocol/SimpleTextInEx.h"
	.file 11 "/home/kapoagaeming/Downloads/spacemit-image-builder/components/edk2/MdePkg/Include/Protocol/SimpleTextOut.h"
	.file 12 "/home/kapoagaeming/Downloads/spacemit-image-builder/components/edk2/MdePkg/Include/Uefi/UefiSpec.h"
	.file 13 "/home/kapoagaeming/Downloads/spacemit-image-builder/components/edk2/MdePkg/Include/Uefi/UefiGpt.h"
	.file 14 "/home/kapoagaeming/Downloads/spacemit-image-builder/components/edk2/MdePkg/Include/Uefi/UefiInternalFormRepresentation.h"
	.file 15 "/home/kapoagaeming/Downloads/spacemit-image-builder/components/Build/Milk-V-Jupiter/RELEASE_GCC5/RISCV64/ShellPkg/Library/UefiHandleParsingLib/UefiHandleParsingLib/DEBUG/AutoGen.h"
	.file 16 "/home/kapoagaeming/Downloads/spacemit-image-builder/components/Build/Milk-V-Jupiter/RELEASE_GCC5/RISCV64/ShellPkg/Library/UefiHandleParsingLib/UefiHandleParsingLib/DEBUG/UefiHandleParsingLibStrDefs.h"
	.file 17 "/home/kapoagaeming/Downloads/spacemit-image-builder/components/edk2/MdePkg/Include/Protocol/LoadedImage.h"
	.file 18 "/home/kapoagaeming/Downloads/spacemit-image-builder/components/edk2/MdePkg/Include/Protocol/DriverBinding.h"
	.file 19 "/home/kapoagaeming/Downloads/spacemit-image-builder/components/edk2/MdePkg/Include/Protocol/DriverDiagnostics.h"
	.file 20 "/home/kapoagaeming/Downloads/spacemit-image-builder/components/edk2/MdePkg/Include/Protocol/DriverDiagnostics2.h"
	.file 21 "/home/kapoagaeming/Downloads/spacemit-image-builder/components/edk2/MdePkg/Include/Protocol/ComponentName2.h"
	.file 22 "/home/kapoagaeming/Downloads/spacemit-image-builder/components/edk2/MdePkg/Include/Protocol/ComponentName.h"
	.file 23 "/home/kapoagaeming/Downloads/spacemit-image-builder/components/edk2/MdePkg/Include/Protocol/BusSpecificDriverOverride.h"
	.file 24 "/home/kapoagaeming/Downloads/spacemit-image-builder/components/edk2/MdePkg/Include/Protocol/DriverSupportedEfiVersion.h"
	.file 25 "/home/kapoagaeming/Downloads/spacemit-image-builder/components/edk2/MdePkg/Include/Protocol/GraphicsOutput.h"
	.file 26 "/home/kapoagaeming/Downloads/spacemit-image-builder/components/edk2/MdePkg/Include/Protocol/EdidDiscovered.h"
	.file 27 "/home/kapoagaeming/Downloads/spacemit-image-builder/components/edk2/MdePkg/Include/Protocol/EdidActive.h"
	.file 28 "/home/kapoagaeming/Downloads/spacemit-image-builder/components/edk2/MdePkg/Include/Protocol/BlockIo.h"
	.file 29 "/home/kapoagaeming/Downloads/spacemit-image-builder/components/edk2/MdePkg/Include/Protocol/PciRootBridgeIo.h"
	.file 30 "/home/kapoagaeming/Downloads/spacemit-image-builder/components/edk2/MdePkg/Include/Protocol/PciIo.h"
	.file 31 "/home/kapoagaeming/Downloads/spacemit-image-builder/components/edk2/MdePkg/Include/IndustryStandard/Usb.h"
	.file 32 "/home/kapoagaeming/Downloads/spacemit-image-builder/components/edk2/MdePkg/Include/Protocol/UsbIo.h"
	.file 33 "/home/kapoagaeming/Downloads/spacemit-image-builder/components/edk2/MdePkg/Include/Protocol/DebugSupport.h"
	.file 34 "/home/kapoagaeming/Downloads/spacemit-image-builder/components/edk2/MdePkg/Include/Protocol/HiiDatabase.h"
	.file 35 "/home/kapoagaeming/Downloads/spacemit-image-builder/components/edk2/MdePkg/Include/Protocol/FirmwareManagement.h"
	.file 36 "/home/kapoagaeming/Downloads/spacemit-image-builder/components/edk2/MdePkg/Include/Protocol/AdapterInformation.h"
	.file 37 "/home/kapoagaeming/Downloads/spacemit-image-builder/components/edk2/MdePkg/Include/IndustryStandard/Mbr.h"
	.file 38 "/home/kapoagaeming/Downloads/spacemit-image-builder/components/edk2/MdePkg/Include/Protocol/PartitionInfo.h"
	.file 39 "/home/kapoagaeming/Downloads/spacemit-image-builder/components/edk2/MdePkg/Include/Library/UefiBootServicesTableLib.h"
	.file 40 "/home/kapoagaeming/Downloads/spacemit-image-builder/components/edk2/ShellPkg/Library/UefiHandleParsingLib/UefiHandleParsingLib.h"
	.file 41 "/home/kapoagaeming/Downloads/spacemit-image-builder/components/edk2/MdePkg/Include/IndustryStandard/Pci22.h"
	.file 42 "/home/kapoagaeming/Downloads/spacemit-image-builder/components/edk2/MdePkg/Include/Pi/PiFirmwareVolume.h"
	.file 43 "/home/kapoagaeming/Downloads/spacemit-image-builder/components/edk2/MdePkg/Include/Pi/PiFirmwareFile.h"
	.file 44 "/home/kapoagaeming/Downloads/spacemit-image-builder/components/edk2/MdePkg/Include/Protocol/FirmwareVolume2.h"
	.file 45 "/home/kapoagaeming/Downloads/spacemit-image-builder/components/edk2/MdePkg/Include/Library/BaseMemoryLib.h"
	.file 46 "/home/kapoagaeming/Downloads/spacemit-image-builder/components/edk2/MdePkg/Include/Library/BaseLib.h"
	.file 47 "/home/kapoagaeming/Downloads/spacemit-image-builder/components/edk2/MdePkg/Include/Library/UefiLib.h"
	.file 48 "/home/kapoagaeming/Downloads/spacemit-image-builder/components/edk2/MdeModulePkg/Include/Library/SortLib.h"
	.file 49 "/home/kapoagaeming/Downloads/spacemit-image-builder/components/edk2/MdeModulePkg/Include/Library/HiiLib.h"
	.file 50 "/home/kapoagaeming/Downloads/spacemit-image-builder/components/edk2/MdePkg/Include/Library/MemoryAllocationLib.h"
	.file 51 "/home/kapoagaeming/Downloads/spacemit-image-builder/components/edk2/MdePkg/Include/Library/PrintLib.h"
	.file 52 "/home/kapoagaeming/Downloads/spacemit-image-builder/components/edk2/ShellPkg/Include/Library/ShellCommandLib.h"
	.file 53 "/home/kapoagaeming/Downloads/spacemit-image-builder/components/edk2/MdePkg/Include/Library/PeCoffGetEntryPointLib.h"
	.file 54 "/home/kapoagaeming/Downloads/spacemit-image-builder/components/edk2/MdePkg/Include/Library/DevicePathLib.h"
	.file 55 "/home/kapoagaeming/Downloads/spacemit-image-builder/components/edk2/ShellPkg/Include/Library/ShellLib.h"
	.section	.note.GNU-stack,"",@progbits
