	.file	"CoreSectionExtraction.c"
	.option pic
	.option norelax
	.attribute arch, "rv64i2p1_m2p0_a2p1_f2p2_d2p2_c2p0_zicsr2p0_zifencei2p0_zmmul1p0_zaamo1p0_zalrsc1p0_zca1p0_zcd1p0"
	.attribute unaligned_access, 0
	.attribute stack_align, 16
	.text
.Ltext0:
	.cfi_sections	.debug_frame
	.file 0 "/home/kapoagaeming/spacemit-image-builder/components/Build/Milk-V-Jupiter/RELEASE_GCC5/RISCV64/MdeModulePkg/Core/Dxe/DxeMain" "/home/kapoagaeming/spacemit-image-builder/components/edk2/MdeModulePkg/Core/Dxe/SectionExtraction/CoreSectionExtraction.c"
	.globl	mStreamRoot
	.section	.data.rel.local.mStreamRoot,"aw"
	.align	3
	.type	mStreamRoot, @object
	.size	mStreamRoot, 16
mStreamRoot:
	.dword	mStreamRoot
	.dword	mStreamRoot
	.globl	mSectionExtractionHandle
	.section	.bss.mSectionExtractionHandle,"aw",@nobits
	.align	3
	.type	mSectionExtractionHandle, @object
	.size	mSectionExtractionHandle, 8
mSectionExtractionHandle:
	.zero	8
	.globl	mCustomGuidedSectionExtractionProtocol
	.section	.data.rel.local.mCustomGuidedSectionExtractionProtocol,"aw"
	.align	3
	.type	mCustomGuidedSectionExtractionProtocol, @object
	.size	mCustomGuidedSectionExtractionProtocol, 8
mCustomGuidedSectionExtractionProtocol:
	.dword	CustomGuidedSectionExtract
	.section	.text.InitializeSectionExtraction,"ax",@progbits
	.align	1
	.globl	InitializeSectionExtraction
	.type	InitializeSectionExtraction, @function
InitializeSectionExtraction:
.LFB0:
	.file 1 "/home/kapoagaeming/spacemit-image-builder/components/edk2/MdeModulePkg/Core/Dxe/SectionExtraction/CoreSectionExtraction.c"
	.loc 1 216 1
	.cfi_startproc
	addi	sp,sp,-64
	.cfi_def_cfa_offset 64
	sd	ra,56(sp)
	sd	s0,48(sp)
	.cfi_offset 1, -8
	.cfi_offset 8, -16
	addi	s0,sp,64
	.cfi_def_cfa 8, 0
	sd	a0,-56(s0)
	sd	a1,-64(s0)
	.loc 1 224 26
	addi	a5,s0,-40
	mv	a0,a5
	call	ExtractGuidedSectionGetGuidList@plt
	sd	a0,-32(s0)
	.loc 1 226 10
	sd	zero,-24(s0)
	.loc 1 230 9
	j	.L2
.L3:
	.loc 1 231 14
	ld	a4,-40(s0)
	.loc 1 233 40
	ld	a5,-32(s0)
	slli	a5,a5,4
	.loc 1 231 14
	add	a5,a4,a5
	lla	a3,mCustomGuidedSectionExtractionProtocol
	li	a2,0
	mv	a1,a5
	lla	a0,mSectionExtractionHandle
	call	CoreInstallProtocolInterface@plt
	sd	a0,-24(s0)
.L2:
	.loc 1 230 30
	ld	a5,-32(s0)
	addi	a4,a5,-1
	sd	a4,-32(s0)
	.loc 1 230 33
	bne	a5,zero,.L3
	.loc 1 240 10
	ld	a5,-24(s0)
	.loc 1 241 1
	mv	a0,a5
	ld	ra,56(sp)
	.cfi_restore 1
	ld	s0,48(sp)
	.cfi_restore 8
	.cfi_def_cfa 2, 64
	addi	sp,sp,64
	.cfi_def_cfa_offset 0
	jr	ra
	.cfi_endproc
.LFE0:
	.size	InitializeSectionExtraction, .-InitializeSectionExtraction
	.section	.text.IsValidSectionStream,"ax",@progbits
	.align	1
	.globl	IsValidSectionStream
	.type	IsValidSectionStream, @function
IsValidSectionStream:
.LFB1:
	.loc 1 257 1
	.cfi_startproc
	addi	sp,sp,-64
	.cfi_def_cfa_offset 64
	sd	ra,56(sp)
	sd	s0,48(sp)
	.cfi_offset 1, -8
	.cfi_offset 8, -16
	addi	s0,sp,64
	.cfi_def_cfa 8, 0
	sd	a0,-56(s0)
	sd	a1,-64(s0)
	.loc 1 263 15
	sd	zero,-24(s0)
	.loc 1 264 17
	ld	a5,-56(s0)
	sd	a5,-40(s0)
	.loc 1 266 9
	j	.L6
.L11:
	.loc 1 267 84
	ld	a5,-40(s0)
	lbu	a5,0(a5)
	sext.w	a4,a5
	.loc 1 267 154
	ld	a5,-40(s0)
	lbu	a5,1(a5)
	sext.w	a5,a5
	.loc 1 267 158
	slliw	a5,a5,8
	sext.w	a5,a5
	.loc 1 267 90
	or	a5,a4,a5
	sext.w	a4,a5
	.loc 1 267 228
	ld	a5,-40(s0)
	lbu	a5,2(a5)
	sext.w	a5,a5
	.loc 1 267 232
	slliw	a5,a5,16
	sext.w	a5,a5
	.loc 1 267 164
	or	a5,a4,a5
	sext.w	a4,a5
	.loc 1 267 8
	li	a5,16777216
	addi	a5,a5,-1
	bne	a4,a5,.L7
	.loc 1 268 78
	ld	a5,-40(s0)
	lbu	a4,4(a5)
	lbu	a3,5(a5)
	slli	a3,a3,8
	or	a4,a3,a4
	lbu	a3,6(a5)
	slli	a3,a3,16
	or	a4,a3,a4
	lbu	a5,7(a5)
	slli	a5,a5,24
	or	a5,a5,a4
	sext.w	a5,a5
	.loc 1 268 21
	slli	a5,a5,32
	srli	a5,a5,32
	sd	a5,-32(s0)
	j	.L8
.L7:
	.loc 1 270 97
	ld	a5,-40(s0)
	lbu	a5,0(a5)
	sext.w	a4,a5
	.loc 1 270 167
	ld	a5,-40(s0)
	lbu	a5,1(a5)
	sext.w	a5,a5
	.loc 1 270 171
	slliw	a5,a5,8
	sext.w	a5,a5
	.loc 1 270 103
	or	a5,a4,a5
	sext.w	a4,a5
	.loc 1 270 241
	ld	a5,-40(s0)
	lbu	a5,2(a5)
	sext.w	a5,a5
	.loc 1 270 245
	slliw	a5,a5,16
	sext.w	a5,a5
	.loc 1 270 177
	or	a5,a4,a5
	sext.w	a5,a5
	.loc 1 270 21
	slli	a5,a5,32
	srli	a5,a5,32
	sd	a5,-32(s0)
.L8:
	.loc 1 273 17
	ld	a4,-24(s0)
	ld	a5,-32(s0)
	add	a5,a4,a5
	sd	a5,-24(s0)
	.loc 1 275 8
	ld	a4,-24(s0)
	ld	a5,-64(s0)
	bne	a4,a5,.L9
	.loc 1 276 14
	li	a5,1
	j	.L10
.L9:
	.loc 1 282 19
	ld	a4,-40(s0)
	ld	a5,-32(s0)
	add	a5,a4,a5
	sd	a5,-40(s0)
	.loc 1 287 75
	ld	a5,-40(s0)
	.loc 1 287 100
	neg	a5,a5
	andi	a4,a5,3
	.loc 1 287 38
	ld	a5,-40(s0)
	.loc 1 287 62
	add	a5,a4,a5
	.loc 1 287 23
	sd	a5,-48(s0)
	.loc 1 288 20
	ld	a4,-48(s0)
	.loc 1 288 47
	ld	a5,-40(s0)
	.loc 1 288 45
	sub	a5,a4,a5
	.loc 1 288 17
	ld	a4,-24(s0)
	add	a5,a4,a5
	sd	a5,-24(s0)
	.loc 1 289 19
	ld	a5,-48(s0)
	sd	a5,-40(s0)
.L6:
	.loc 1 266 22
	ld	a4,-24(s0)
	ld	a5,-64(s0)
	bltu	a4,a5,.L11
	.loc 1 293 10
	li	a5,0
.L10:
	.loc 1 294 1
	mv	a0,a5
	ld	ra,56(sp)
	.cfi_restore 1
	ld	s0,48(sp)
	.cfi_restore 8
	.cfi_def_cfa 2, 64
	addi	sp,sp,64
	.cfi_def_cfa_offset 0
	jr	ra
	.cfi_endproc
.LFE1:
	.size	IsValidSectionStream, .-IsValidSectionStream
	.section	.text.OpenSectionStreamEx,"ax",@progbits
	.align	1
	.globl	OpenSectionStreamEx
	.type	OpenSectionStreamEx, @function
OpenSectionStreamEx:
.LFB2:
	.loc 1 337 1
	.cfi_startproc
	addi	sp,sp,-64
	.cfi_def_cfa_offset 64
	sd	ra,56(sp)
	sd	s0,48(sp)
	.cfi_offset 1, -8
	.cfi_offset 8, -16
	addi	s0,sp,64
	.cfi_def_cfa 8, 0
	sd	a0,-40(s0)
	sd	a1,-48(s0)
	mv	a5,a2
	sd	a4,-64(s0)
	sb	a5,-49(s0)
	mv	a5,a3
	sw	a5,-56(s0)
	.loc 1 344 15
	li	a0,72
	call	AllocatePool@plt
	sd	a0,-24(s0)
	.loc 1 345 6
	ld	a5,-24(s0)
	bne	a5,zero,.L13
	.loc 1 346 12
	li	a5,-1
	slli	a5,a5,63
	addi	a5,a5,9
	j	.L14
.L13:
	.loc 1 349 6
	lbu	a5,-49(s0)
	andi	a5,a5,0xff
	beq	a5,zero,.L15
	.loc 1 354 8
	ld	a5,-40(s0)
	beq	a5,zero,.L16
	.loc 1 355 33
	ld	a0,-40(s0)
	call	AllocatePool@plt
	mv	a4,a0
	.loc 1 355 31 discriminator 1
	ld	a5,-24(s0)
	sd	a4,32(a5)
	.loc 1 356 20
	ld	a5,-24(s0)
	ld	a5,32(a5)
	.loc 1 356 10
	bne	a5,zero,.L17
	.loc 1 357 9
	ld	a0,-24(s0)
	call	CoreFreePool@plt
	.loc 1 358 16
	li	a5,-1
	slli	a5,a5,63
	addi	a5,a5,9
	j	.L14
.L17:
	.loc 1 364 25
	ld	a5,-24(s0)
	ld	a5,32(a5)
	.loc 1 364 7
	ld	a2,-40(s0)
	ld	a1,-48(s0)
	mv	a0,a5
	call	CopyMem@plt
	j	.L18
.L16:
	.loc 1 369 31
	ld	a5,-24(s0)
	sd	zero,32(a5)
	j	.L18
.L15:
	.loc 1 377 29
	ld	a5,-24(s0)
	ld	a4,-48(s0)
	sd	a4,32(a5)
.L18:
	.loc 1 383 24
	ld	a5,-24(s0)
	li	a4,1397972992
	addi	a4,a4,-1965
	sw	a4,0(a5)
	.loc 1 384 29
	ld	a4,-24(s0)
	.loc 1 384 27
	ld	a5,-24(s0)
	sd	a4,24(a5)
	.loc 1 385 27
	ld	a5,-24(s0)
	ld	a4,-40(s0)
	sd	a4,40(a5)
	.loc 1 386 3
	ld	a5,-24(s0)
	addi	a5,a5,48
	mv	a0,a5
	call	InitializeListHead@plt
	.loc 1 387 35
	ld	a5,-24(s0)
	lw	a4,-56(s0)
	sw	a4,64(a5)
	.loc 1 392 12
	li	a0,16
	call	CoreRaiseTpl@plt
	sd	a0,-32(s0)
	.loc 1 393 3
	ld	a5,-24(s0)
	addi	a5,a5,8
	mv	a1,a5
	lla	a0,mStreamRoot
	call	InsertTailList@plt
	.loc 1 394 3
	ld	a0,-32(s0)
	call	CoreRestoreTpl@plt
	.loc 1 396 35
	ld	a5,-24(s0)
	ld	a4,24(a5)
	.loc 1 396 24
	ld	a5,-64(s0)
	sd	a4,0(a5)
	.loc 1 398 10
	li	a5,0
.L14:
	.loc 1 399 1
	mv	a0,a5
	ld	ra,56(sp)
	.cfi_restore 1
	ld	s0,48(sp)
	.cfi_restore 8
	.cfi_def_cfa 2, 64
	addi	sp,sp,64
	.cfi_def_cfa_offset 0
	jr	ra
	.cfi_endproc
.LFE2:
	.size	OpenSectionStreamEx, .-OpenSectionStreamEx
	.section	.text.OpenSectionStream,"ax",@progbits
	.align	1
	.globl	OpenSectionStream
	.type	OpenSectionStream, @function
OpenSectionStream:
.LFB3:
	.loc 1 423 1
	.cfi_startproc
	addi	sp,sp,-48
	.cfi_def_cfa_offset 48
	sd	ra,40(sp)
	sd	s0,32(sp)
	.cfi_offset 1, -8
	.cfi_offset 8, -16
	addi	s0,sp,48
	.cfi_def_cfa 8, 0
	sd	a0,-24(s0)
	sd	a1,-32(s0)
	sd	a2,-40(s0)
	.loc 1 427 8
	ld	a1,-24(s0)
	ld	a0,-32(s0)
	call	IsValidSectionStream
	mv	a5,a0
	.loc 1 427 6 discriminator 1
	bne	a5,zero,.L20
	.loc 1 428 12
	li	a5,-1
	slli	a5,a5,63
	addi	a5,a5,2
	j	.L21
.L20:
	.loc 1 431 10
	ld	a4,-40(s0)
	li	a3,0
	li	a2,0
	ld	a1,-32(s0)
	ld	a0,-24(s0)
	call	OpenSectionStreamEx
	mv	a5,a0
.L21:
	.loc 1 438 1
	mv	a0,a5
	ld	ra,40(sp)
	.cfi_restore 1
	ld	s0,32(sp)
	.cfi_restore 8
	.cfi_def_cfa 2, 48
	addi	sp,sp,48
	.cfi_def_cfa_offset 0
	jr	ra
	.cfi_endproc
.LFE3:
	.size	OpenSectionStream, .-OpenSectionStream
	.section	.text.ChildIsType,"ax",@progbits
	.align	1
	.globl	ChildIsType
	.type	ChildIsType, @function
ChildIsType:
.LFB4:
	.loc 1 462 1
	.cfi_startproc
	addi	sp,sp,-64
	.cfi_def_cfa_offset 64
	sd	ra,56(sp)
	sd	s0,48(sp)
	.cfi_offset 1, -8
	.cfi_offset 8, -16
	addi	s0,sp,64
	.cfi_def_cfa 8, 0
	sd	a0,-40(s0)
	sd	a1,-48(s0)
	mv	a5,a2
	sd	a3,-64(s0)
	sb	a5,-49(s0)
	.loc 1 465 6
	lbu	a5,-49(s0)
	andi	a5,a5,0xff
	bne	a5,zero,.L23
	.loc 1 466 12
	li	a5,1
	j	.L24
.L23:
	.loc 1 469 12
	ld	a5,-48(s0)
	lw	a4,24(a5)
	.loc 1 469 19
	lbu	a5,-49(s0)
	sext.w	a5,a5
	.loc 1 469 6
	beq	a4,a5,.L25
	.loc 1 470 12
	li	a5,0
	j	.L24
.L25:
	.loc 1 473 6
	lbu	a5,-49(s0)
	andi	a4,a5,0xff
	li	a5,2
	bne	a4,a5,.L26
	.loc 1 473 28 discriminator 1
	ld	a5,-64(s0)
	bne	a5,zero,.L27
.L26:
	.loc 1 474 12
	li	a5,1
	j	.L24
.L27:
	.loc 1 477 54
	ld	a5,-40(s0)
	ld	a4,32(a5)
	.loc 1 477 76
	ld	a5,-48(s0)
	lw	a5,32(a5)
	slli	a5,a5,32
	srli	a5,a5,32
	.loc 1 477 17
	add	a5,a4,a5
	sd	a5,-24(s0)
	.loc 1 478 82
	ld	a5,-24(s0)
	lbu	a5,0(a5)
	sext.w	a4,a5
	.loc 1 478 152
	ld	a5,-24(s0)
	lbu	a5,1(a5)
	sext.w	a5,a5
	.loc 1 478 156
	slliw	a5,a5,8
	sext.w	a5,a5
	.loc 1 478 88
	or	a5,a4,a5
	sext.w	a4,a5
	.loc 1 478 226
	ld	a5,-24(s0)
	lbu	a5,2(a5)
	sext.w	a5,a5
	.loc 1 478 230
	slliw	a5,a5,16
	sext.w	a5,a5
	.loc 1 478 162
	or	a5,a4,a5
	sext.w	a4,a5
	.loc 1 478 6
	li	a5,16777216
	addi	a5,a5,-1
	bne	a4,a5,.L28
	.loc 1 479 25
	ld	a5,-24(s0)
	addi	a5,a5,8
	.loc 1 479 12
	ld	a1,-64(s0)
	mv	a0,a5
	call	CompareGuid@plt
	mv	a5,a0
	j	.L24
.L28:
	.loc 1 481 25
	ld	a5,-24(s0)
	addi	a5,a5,4
	.loc 1 481 12
	ld	a1,-64(s0)
	mv	a0,a5
	call	CompareGuid@plt
	mv	a5,a0
.L24:
	.loc 1 483 1
	mv	a0,a5
	ld	ra,56(sp)
	.cfi_restore 1
	ld	s0,48(sp)
	.cfi_restore 8
	.cfi_def_cfa 2, 64
	addi	sp,sp,64
	.cfi_def_cfa_offset 0
	jr	ra
	.cfi_endproc
.LFE4:
	.size	ChildIsType, .-ChildIsType
	.section	.text.VerifyGuidedSectionGuid,"ax",@progbits
	.align	1
	.globl	VerifyGuidedSectionGuid
	.type	VerifyGuidedSectionGuid, @function
VerifyGuidedSectionGuid:
.LFB5:
	.loc 1 503 1
	.cfi_startproc
	addi	sp,sp,-64
	.cfi_def_cfa_offset 64
	sd	ra,56(sp)
	sd	s0,48(sp)
	.cfi_offset 1, -8
	.cfi_offset 8, -16
	addi	s0,sp,64
	.cfi_def_cfa 8, 0
	sd	a0,-56(s0)
	sd	a1,-64(s0)
	.loc 1 508 13
	sd	zero,-40(s0)
	.loc 1 513 12
	addi	a5,s0,-32
	mv	a1,a5
	ld	a0,-56(s0)
	call	EfiGetSystemConfigurationTable@plt
	sd	a0,-24(s0)
	.loc 1 514 6
	ld	a5,-24(s0)
	bne	a5,zero,.L30
	.loc 1 515 9
	ld	a5,-32(s0)
	ld	a1,-56(s0)
	mv	a0,a5
	call	CompareGuid@plt
	mv	a5,a0
	.loc 1 515 8 discriminator 1
	beq	a5,zero,.L30
	.loc 1 519 16
	addi	a5,s0,-40
	mv	a2,a5
	li	a1,0
	ld	a0,-56(s0)
	call	CoreLocateProtocol@plt
	sd	a0,-24(s0)
	.loc 1 520 11
	ld	a5,-24(s0)
	.loc 1 520 10
	blt	a5,zero,.L31
	.loc 1 520 79 discriminator 1
	ld	a5,-40(s0)
	.loc 1 520 65 discriminator 1
	beq	a5,zero,.L31
	.loc 1 524 34
	ld	a4,-40(s0)
	ld	a5,-64(s0)
	sd	a4,0(a5)
	.loc 1 525 16
	li	a5,1
	j	.L33
.L31:
	.loc 1 528 14
	li	a5,0
	j	.L33
.L30:
	.loc 1 532 10
	li	a5,0
.L33:
	.loc 1 533 1
	mv	a0,a5
	ld	ra,56(sp)
	.cfi_restore 1
	ld	s0,48(sp)
	.cfi_restore 8
	.cfi_def_cfa 2, 64
	addi	sp,sp,64
	.cfi_def_cfa_offset 0
	jr	ra
	.cfi_endproc
.LFE5:
	.size	VerifyGuidedSectionGuid, .-VerifyGuidedSectionGuid
	.section	.text.NotifyGuidedExtraction,"ax",@progbits
	.align	1
	.globl	NotifyGuidedExtraction
	.type	NotifyGuidedExtraction, @function
NotifyGuidedExtraction:
.LFB6:
	.loc 1 549 1
	.cfi_startproc
	addi	sp,sp,-96
	.cfi_def_cfa_offset 96
	sd	ra,88(sp)
	sd	s0,80(sp)
	.cfi_offset 1, -8
	.cfi_offset 8, -16
	addi	s0,sp,96
	.cfi_def_cfa 8, 0
	sd	a0,-88(s0)
	sd	a1,-96(s0)
	.loc 1 558 11
	ld	a5,-96(s0)
	sd	a5,-24(s0)
	.loc 1 560 54
	ld	a5,-24(s0)
	ld	a5,8(a5)
	.loc 1 560 68
	ld	a4,32(a5)
	.loc 1 560 92
	ld	a5,-24(s0)
	ld	a5,0(a5)
	.loc 1 560 103
	lw	a5,32(a5)
	slli	a5,a5,32
	srli	a5,a5,32
	.loc 1 560 16
	add	a5,a4,a5
	sd	a5,-32(s0)
	.loc 1 563 40
	ld	a5,-24(s0)
	ld	a5,0(a5)
	.loc 1 563 8
	ld	a5,48(a5)
	addi	a4,s0,-48
	mv	a1,a4
	mv	a0,a5
	call	VerifyGuidedSectionGuid
	mv	a5,a0
	.loc 1 563 6 discriminator 1
	beq	a5,zero,.L39
	.loc 1 567 28
	ld	a5,-48(s0)
	ld	a5,0(a5)
	.loc 1 567 12
	ld	a0,-48(s0)
	addi	a4,s0,-68
	addi	a3,s0,-64
	addi	a2,s0,-56
	ld	a1,-32(s0)
	jalr	a5
.LVL0:
	sd	a0,-40(s0)
	.loc 1 580 20
	ld	a5,-32(s0)
	lbu	a4,22(a5)
	lbu	a5,23(a5)
	slli	a5,a5,8
	or	a5,a5,a4
	slli	a5,a5,48
	srli	a5,a5,48
	.loc 1 580 33
	sext.w	a5,a5
	andi	a5,a5,2
	sext.w	a5,a5
	.loc 1 580 6
	beq	a5,zero,.L37
	.loc 1 584 36
	ld	a5,-24(s0)
	ld	a5,8(a5)
	.loc 1 584 50
	lw	a5,64(a5)
	.loc 1 584 73
	andi	a5,a5,15
	sext.w	a4,a5
	.loc 1 584 26
	lw	a5,-68(s0)
	or	a5,a4,a5
	sext.w	a5,a5
	sw	a5,-68(s0)
	j	.L38
.L37:
	.loc 1 590 35
	ld	a5,-24(s0)
	ld	a5,8(a5)
	.loc 1 590 49
	lw	a5,64(a5)
	.loc 1 590 26
	sw	a5,-68(s0)
.L38:
	.loc 1 593 12
	ld	a0,-64(s0)
	ld	a1,-56(s0)
	lw	a3,-68(s0)
	.loc 1 598 22
	ld	a5,-24(s0)
	ld	a5,0(a5)
	.loc 1 593 12
	addi	a5,a5,40
	mv	a4,a5
	li	a2,0
	call	OpenSectionStreamEx
	sd	a0,-40(s0)
	.loc 1 605 6
	la	a5,gBS
	ld	a5,0(a5)
	ld	a5,112(a5)
	.loc 1 605 3
	ld	a0,-88(s0)
	jalr	a5
.LVL1:
	.loc 1 606 10
	ld	a5,-24(s0)
	ld	a5,0(a5)
	.loc 1 606 29
	sd	zero,56(a5)
	.loc 1 607 3
	ld	a0,-24(s0)
	call	FreePool@plt
	j	.L34
.L39:
	.loc 1 564 5 discriminator 1
	nop
.L34:
	.loc 1 608 1
	ld	ra,88(sp)
	.cfi_restore 1
	ld	s0,80(sp)
	.cfi_restore 8
	.cfi_def_cfa 2, 96
	addi	sp,sp,96
	.cfi_def_cfa_offset 0
	jr	ra
	.cfi_endproc
.LFE6:
	.size	NotifyGuidedExtraction, .-NotifyGuidedExtraction
	.section	.text.CreateGuidedExtractionRpnEvent,"ax",@progbits
	.align	1
	.globl	CreateGuidedExtractionRpnEvent
	.type	CreateGuidedExtractionRpnEvent, @function
CreateGuidedExtractionRpnEvent:
.LFB7:
	.loc 1 622 1
	.cfi_startproc
	addi	sp,sp,-64
	.cfi_def_cfa_offset 64
	sd	ra,56(sp)
	sd	s0,48(sp)
	sd	s1,40(sp)
	.cfi_offset 1, -8
	.cfi_offset 8, -16
	.cfi_offset 9, -24
	addi	s0,sp,64
	.cfi_def_cfa 8, 0
	sd	a0,-56(s0)
	sd	a1,-64(s0)
	.loc 1 628 13
	li	a0,24
	call	AllocatePool@plt
	sd	a0,-40(s0)
	.loc 1 631 22
	ld	a5,-40(s0)
	ld	a4,-64(s0)
	sd	a4,0(a5)
	.loc 1 632 25
	ld	a5,-40(s0)
	ld	a4,-56(s0)
	sd	a4,8(a5)
	.loc 1 635 40
	ld	a5,-40(s0)
	ld	a5,0(a5)
	.loc 1 634 31
	ld	a0,48(a5)
	ld	a5,-40(s0)
	addi	a4,a5,16
	.loc 1 634 10
	ld	a5,-40(s0)
	ld	s1,0(a5)
	.loc 1 634 31
	ld	a3,-40(s0)
	lla	a2,NotifyGuidedExtraction
	li	a1,16
	call	EfiCreateProtocolNotifyEvent@plt
	mv	a5,a0
	.loc 1 634 29 discriminator 1
	sd	a5,56(s1)
	.loc 1 641 1
	nop
	ld	ra,56(sp)
	.cfi_restore 1
	ld	s0,48(sp)
	.cfi_restore 8
	.cfi_def_cfa 2, 64
	ld	s1,40(sp)
	.cfi_restore 9
	addi	sp,sp,64
	.cfi_def_cfa_offset 0
	jr	ra
	.cfi_endproc
.LFE7:
	.size	CreateGuidedExtractionRpnEvent, .-CreateGuidedExtractionRpnEvent
	.section	.text.CreateChildNode,"ax",@progbits
	.align	1
	.globl	CreateChildNode
	.type	CreateChildNode, @function
CreateChildNode:
.LFB8:
	.loc 1 670 1
	.cfi_startproc
	addi	sp,sp,-176
	.cfi_def_cfa_offset 176
	sd	ra,168(sp)
	sd	s0,160(sp)
	.cfi_offset 1, -8
	.cfi_offset 8, -16
	addi	s0,sp,176
	.cfi_def_cfa 8, 0
	sd	a0,-152(s0)
	mv	a5,a1
	sd	a2,-168(s0)
	sw	a5,-156(s0)
	.loc 1 690 55
	ld	a5,-152(s0)
	ld	a4,32(a5)
	.loc 1 690 70
	lwu	a5,-156(s0)
	.loc 1 690 17
	add	a5,a4,a5
	sd	a5,-56(s0)
	.loc 1 695 16
	li	a0,64
	call	AllocateZeroPool@plt
	mv	a4,a0
	.loc 1 695 14 discriminator 1
	ld	a5,-168(s0)
	sd	a4,0(a5)
	.loc 1 696 8
	ld	a5,-168(s0)
	ld	a5,0(a5)
	sd	a5,-64(s0)
	.loc 1 697 6
	ld	a5,-64(s0)
	bne	a5,zero,.L42
	.loc 1 698 12
	li	a5,-1
	slli	a5,a5,63
	addi	a5,a5,9
	j	.L73
.L42:
	.loc 1 704 19
	ld	a5,-64(s0)
	li	a4,1396924416
	addi	a4,a4,-1965
	sw	a4,0(a5)
	.loc 1 705 29
	ld	a5,-56(s0)
	lbu	a5,3(a5)
	sext.w	a4,a5
	.loc 1 705 14
	ld	a5,-64(s0)
	sw	a4,24(a5)
	.loc 1 706 82
	ld	a5,-56(s0)
	lbu	a5,0(a5)
	sext.w	a4,a5
	.loc 1 706 152
	ld	a5,-56(s0)
	lbu	a5,1(a5)
	sext.w	a5,a5
	.loc 1 706 156
	slliw	a5,a5,8
	sext.w	a5,a5
	.loc 1 706 88
	or	a5,a4,a5
	sext.w	a4,a5
	.loc 1 706 226
	ld	a5,-56(s0)
	lbu	a5,2(a5)
	sext.w	a5,a5
	.loc 1 706 230
	slliw	a5,a5,16
	sext.w	a5,a5
	.loc 1 706 162
	or	a5,a4,a5
	sext.w	a4,a5
	.loc 1 706 6
	li	a5,16777216
	addi	a5,a5,-1
	bne	a4,a5,.L44
	.loc 1 707 73
	ld	a5,-56(s0)
	lbu	a4,4(a5)
	lbu	a3,5(a5)
	slli	a3,a3,8
	or	a4,a3,a4
	lbu	a3,6(a5)
	slli	a3,a3,16
	or	a4,a3,a4
	lbu	a5,7(a5)
	slli	a5,a5,24
	or	a5,a5,a4
	sext.w	a4,a5
	.loc 1 707 16
	ld	a5,-64(s0)
	sw	a4,28(a5)
	j	.L45
.L44:
	.loc 1 709 92
	ld	a5,-56(s0)
	lbu	a5,0(a5)
	sext.w	a4,a5
	.loc 1 709 162
	ld	a5,-56(s0)
	lbu	a5,1(a5)
	sext.w	a5,a5
	.loc 1 709 166
	slliw	a5,a5,8
	sext.w	a5,a5
	.loc 1 709 98
	or	a5,a4,a5
	sext.w	a4,a5
	.loc 1 709 236
	ld	a5,-56(s0)
	lbu	a5,2(a5)
	sext.w	a5,a5
	.loc 1 709 240
	slliw	a5,a5,16
	sext.w	a5,a5
	.loc 1 709 172
	or	a5,a4,a5
	sext.w	a5,a5
	.loc 1 709 19
	mv	a4,a5
	.loc 1 709 16
	ld	a5,-64(s0)
	sw	a4,28(a5)
.L45:
	.loc 1 712 24
	ld	a5,-64(s0)
	lw	a4,-156(s0)
	sw	a4,32(a5)
	.loc 1 713 34
	ld	a5,-64(s0)
	sd	zero,40(a5)
	.loc 1 714 27
	ld	a5,-64(s0)
	sd	zero,48(a5)
	.loc 1 719 15
	ld	a5,-64(s0)
	lw	a5,24(a5)
	.loc 1 719 3
	li	a4,1
	beq	a5,a4,.L46
	li	a4,2
	beq	a5,a4,.L47
	.loc 1 939 7
	j	.L61
.L46:
	.loc 1 724 15
	ld	a5,-64(s0)
	lw	a4,28(a5)
	.loc 1 724 10
	li	a5,8
	bgtu	a4,a5,.L49
	.loc 1 725 9
	ld	a0,-64(s0)
	call	CoreFreePool@plt
	.loc 1 726 16
	li	a5,-1
	slli	a5,a5,63
	addi	a5,a5,14
	j	.L73
.L49:
	.loc 1 729 25
	ld	a5,-56(s0)
	sd	a5,-80(s0)
	.loc 1 731 90
	ld	a5,-80(s0)
	lbu	a5,0(a5)
	sext.w	a4,a5
	.loc 1 731 164
	ld	a5,-80(s0)
	lbu	a5,1(a5)
	sext.w	a5,a5
	.loc 1 731 168
	slliw	a5,a5,8
	sext.w	a5,a5
	.loc 1 731 96
	or	a5,a4,a5
	sext.w	a4,a5
	.loc 1 731 242
	ld	a5,-80(s0)
	lbu	a5,2(a5)
	sext.w	a5,a5
	.loc 1 731 246
	slliw	a5,a5,16
	sext.w	a5,a5
	.loc 1 731 174
	or	a5,a4,a5
	sext.w	a4,a5
	.loc 1 731 10
	li	a5,16777216
	addi	a5,a5,-1
	bne	a4,a5,.L50
	.loc 1 732 27
	ld	a5,-80(s0)
	addi	a5,a5,13
	sd	a5,-32(s0)
	.loc 1 733 101
	ld	a5,-80(s0)
	lbu	a4,4(a5)
	lbu	a3,5(a5)
	slli	a3,a3,8
	or	a4,a3,a4
	lbu	a3,6(a5)
	slli	a3,a3,16
	or	a4,a3,a4
	lbu	a5,7(a5)
	slli	a5,a5,24
	or	a5,a5,a4
	sext.w	a5,a5
	.loc 1 733 31
	addiw	a5,a5,-13
	sw	a5,-36(s0)
	.loc 1 734 28
	ld	a5,-80(s0)
	lbu	a4,8(a5)
	lbu	a3,9(a5)
	slli	a3,a3,8
	or	a4,a3,a4
	lbu	a3,10(a5)
	slli	a3,a3,16
	or	a4,a3,a4
	lbu	a5,11(a5)
	slli	a5,a5,24
	or	a5,a5,a4
	sw	a5,-40(s0)
	.loc 1 735 25
	ld	a5,-80(s0)
	lbu	a5,12(a5)
	sb	a5,-41(s0)
	j	.L51
.L50:
	.loc 1 737 27
	ld	a5,-80(s0)
	addi	a5,a5,9
	sd	a5,-32(s0)
	.loc 1 738 120
	ld	a5,-80(s0)
	lbu	a5,0(a5)
	sext.w	a4,a5
	.loc 1 738 194
	ld	a5,-80(s0)
	lbu	a5,1(a5)
	sext.w	a5,a5
	.loc 1 738 198
	slliw	a5,a5,8
	sext.w	a5,a5
	.loc 1 738 126
	or	a5,a4,a5
	sext.w	a4,a5
	.loc 1 738 272
	ld	a5,-80(s0)
	lbu	a5,2(a5)
	sext.w	a5,a5
	.loc 1 738 276
	slliw	a5,a5,16
	sext.w	a5,a5
	.loc 1 738 204
	or	a5,a4,a5
	sext.w	a5,a5
	.loc 1 738 31
	addiw	a5,a5,-9
	sw	a5,-36(s0)
	.loc 1 739 28
	ld	a5,-80(s0)
	lbu	a4,4(a5)
	lbu	a3,5(a5)
	slli	a3,a3,8
	or	a4,a3,a4
	lbu	a3,6(a5)
	slli	a3,a3,16
	or	a4,a3,a4
	lbu	a5,7(a5)
	slli	a5,a5,24
	or	a5,a5,a4
	sw	a5,-40(s0)
	.loc 1 740 25
	ld	a5,-80(s0)
	lbu	a5,8(a5)
	sb	a5,-41(s0)
.L51:
	.loc 1 746 10
	lw	a5,-40(s0)
	sext.w	a5,a5
	beq	a5,zero,.L52
	.loc 1 747 29
	lwu	a5,-40(s0)
	sd	a5,-128(s0)
	.loc 1 748 27
	ld	a5,-128(s0)
	mv	a0,a5
	call	AllocatePool@plt
	mv	a5,a0
	.loc 1 748 25 discriminator 1
	sd	a5,-112(s0)
	.loc 1 749 29
	ld	a5,-112(s0)
	.loc 1 749 12
	bne	a5,zero,.L53
	.loc 1 750 11
	ld	a0,-64(s0)
	call	CoreFreePool@plt
	.loc 1 751 18
	li	a5,-1
	slli	a5,a5,63
	addi	a5,a5,9
	j	.L73
.L53:
	.loc 1 754 12
	lbu	a5,-41(s0)
	andi	a5,a5,0xff
	bne	a5,zero,.L54
	.loc 1 758 11
	ld	a5,-112(s0)
	ld	a4,-128(s0)
	mv	a2,a4
	ld	a1,-32(s0)
	mv	a0,a5
	call	CopyMem@plt
	j	.L55
.L54:
	.loc 1 759 19
	lbu	a5,-41(s0)
	andi	a4,a5,0xff
	li	a5,1
	bne	a4,a5,.L55
	.loc 1 767 20
	addi	a5,s0,-96
	mv	a2,a5
	li	a1,0
	la	a0,gEfiDecompressProtocolGuid
	call	CoreLocateProtocol@plt
	sd	a0,-24(s0)
	.loc 1 771 30
	ld	a5,-96(s0)
	ld	a5,0(a5)
	.loc 1 771 20
	ld	a0,-96(s0)
	addi	a4,s0,-116
	addi	a3,s0,-128
	lw	a2,-36(s0)
	ld	a1,-32(s0)
	jalr	a5
.LVL2:
	sd	a0,-24(s0)
	.loc 1 778 42
	ld	a5,-24(s0)
	.loc 1 778 14
	blt	a5,zero,.L56
	.loc 1 778 92 discriminator 1
	lwu	a4,-40(s0)
	ld	a5,-128(s0)
	.loc 1 778 68 discriminator 1
	beq	a4,a5,.L57
.L56:
	.loc 1 779 13
	ld	a0,-64(s0)
	call	CoreFreePool@plt
	.loc 1 780 13
	ld	a5,-112(s0)
	mv	a0,a5
	call	CoreFreePool@plt
	.loc 1 781 17
	ld	a5,-24(s0)
	.loc 1 781 16
	blt	a5,zero,.L58
	.loc 1 782 22
	li	a5,-1
	slli	a5,a5,63
	addi	a5,a5,4
	sd	a5,-24(s0)
.L58:
	.loc 1 785 20
	ld	a5,-24(s0)
	j	.L73
.L57:
	.loc 1 788 27
	lw	a5,-116(s0)
	slli	a5,a5,32
	srli	a5,a5,32
	mv	a0,a5
	call	AllocatePool@plt
	sd	a0,-88(s0)
	.loc 1 789 14
	ld	a5,-88(s0)
	bne	a5,zero,.L59
	.loc 1 790 13
	ld	a0,-64(s0)
	call	CoreFreePool@plt
	.loc 1 791 13
	ld	a5,-112(s0)
	mv	a0,a5
	call	CoreFreePool@plt
	.loc 1 792 20
	li	a5,-1
	slli	a5,a5,63
	addi	a5,a5,9
	j	.L73
.L59:
	.loc 1 795 30
	ld	a5,-96(s0)
	ld	a7,8(a5)
	.loc 1 795 20
	ld	a0,-96(s0)
	ld	a3,-112(s0)
	ld	a5,-128(s0)
	sext.w	a4,a5
	lw	a5,-116(s0)
	lw	a2,-36(s0)
	mv	a6,a5
	ld	a5,-88(s0)
	ld	a1,-32(s0)
	jalr	a7
.LVL3:
	sd	a0,-24(s0)
	.loc 1 804 11
	ld	a0,-88(s0)
	call	CoreFreePool@plt
	.loc 1 805 42
	ld	a5,-24(s0)
	.loc 1 805 14
	bge	a5,zero,.L55
	.loc 1 806 13
	ld	a0,-64(s0)
	call	CoreFreePool@plt
	.loc 1 807 13
	ld	a5,-112(s0)
	mv	a0,a5
	call	CoreFreePool@plt
	.loc 1 808 20
	ld	a5,-24(s0)
	j	.L73
.L52:
	.loc 1 812 25
	sd	zero,-112(s0)
	.loc 1 813 29
	sd	zero,-128(s0)
.L55:
	.loc 1 816 16
	ld	a0,-128(s0)
	ld	a1,-112(s0)
	ld	a5,-152(s0)
	lw	a3,64(a5)
	ld	a5,-64(s0)
	addi	a5,a5,40
	mv	a4,a5
	li	a2,0
	call	OpenSectionStreamEx
	sd	a0,-24(s0)
	.loc 1 823 38
	ld	a5,-24(s0)
	.loc 1 823 10
	bge	a5,zero,.L74
	.loc 1 824 9
	ld	a0,-64(s0)
	call	CoreFreePool@plt
	.loc 1 825 9
	ld	a5,-112(s0)
	mv	a0,a5
	call	CoreFreePool@plt
	.loc 1 826 16
	ld	a5,-24(s0)
	j	.L73
.L47:
	.loc 1 832 20
	ld	a5,-56(s0)
	sd	a5,-72(s0)
	.loc 1 833 85
	ld	a5,-72(s0)
	lbu	a5,0(a5)
	sext.w	a4,a5
	.loc 1 833 154
	ld	a5,-72(s0)
	lbu	a5,1(a5)
	sext.w	a5,a5
	.loc 1 833 158
	slliw	a5,a5,8
	sext.w	a5,a5
	.loc 1 833 91
	or	a5,a4,a5
	sext.w	a4,a5
	.loc 1 833 227
	ld	a5,-72(s0)
	lbu	a5,2(a5)
	sext.w	a5,a5
	.loc 1 833 231
	slliw	a5,a5,16
	sext.w	a5,a5
	.loc 1 833 164
	or	a5,a4,a5
	sext.w	a4,a5
	.loc 1 833 10
	li	a5,16777216
	addi	a5,a5,-1
	bne	a4,a5,.L62
	.loc 1 834 35
	ld	a5,-72(s0)
	addi	a4,a5,8
	.loc 1 834 33
	ld	a5,-64(s0)
	sd	a4,48(a5)
	.loc 1 835 33
	ld	a5,-72(s0)
	lbu	a4,26(a5)
	lbu	a5,27(a5)
	slli	a5,a5,8
	or	a5,a5,a4
	sh	a5,-44(s0)
	j	.L63
.L62:
	.loc 1 837 35
	ld	a5,-72(s0)
	addi	a4,a5,4
	.loc 1 837 33
	ld	a5,-64(s0)
	sd	a4,48(a5)
	.loc 1 838 33
	ld	a5,-72(s0)
	lbu	a4,22(a5)
	lbu	a5,23(a5)
	slli	a5,a5,8
	or	a5,a5,a4
	sh	a5,-44(s0)
.L63:
	.loc 1 841 11
	ld	a5,-64(s0)
	ld	a5,48(a5)
	addi	a4,s0,-104
	mv	a1,a4
	mv	a0,a5
	call	VerifyGuidedSectionGuid
	mv	a5,a0
	.loc 1 841 10 discriminator 1
	beq	a5,zero,.L64
	.loc 1 846 34
	ld	a5,-104(s0)
	ld	a5,0(a5)
	.loc 1 846 18
	ld	a0,-104(s0)
	addi	a4,s0,-132
	addi	a3,s0,-128
	addi	a2,s0,-112
	ld	a1,-72(s0)
	jalr	a5
.LVL4:
	sd	a0,-24(s0)
	.loc 1 853 40
	ld	a5,-24(s0)
	.loc 1 853 12
	bge	a5,zero,.L65
	.loc 1 854 11
	ld	a5,-168(s0)
	ld	a5,0(a5)
	mv	a0,a5
	call	CoreFreePool@plt
	.loc 1 855 18
	li	a5,-1
	slli	a5,a5,63
	addi	a5,a5,24
	j	.L73
.L65:
	.loc 1 862 38
	lhu	a5,-44(s0)
	sext.w	a5,a5
	andi	a5,a5,2
	sext.w	a5,a5
	.loc 1 862 12
	beq	a5,zero,.L66
	.loc 1 866 41
	ld	a5,-152(s0)
	lw	a5,64(a5)
	.loc 1 866 64
	andi	a5,a5,15
	sext.w	a4,a5
	.loc 1 866 32
	lw	a5,-132(s0)
	or	a5,a4,a5
	sext.w	a5,a5
	sw	a5,-132(s0)
	j	.L67
.L66:
	.loc 1 872 40
	ld	a5,-152(s0)
	lw	a5,64(a5)
	.loc 1 872 32
	sw	a5,-132(s0)
.L67:
	.loc 1 875 18
	ld	a0,-128(s0)
	ld	a1,-112(s0)
	lw	a3,-132(s0)
	ld	a5,-64(s0)
	addi	a5,a5,40
	mv	a4,a5
	li	a2,0
	call	OpenSectionStreamEx
	sd	a0,-24(s0)
	.loc 1 882 40
	ld	a5,-24(s0)
	.loc 1 882 12
	bge	a5,zero,.L75
	.loc 1 883 11
	ld	a5,-168(s0)
	ld	a5,0(a5)
	mv	a0,a5
	call	CoreFreePool@plt
	.loc 1 884 11
	ld	a5,-112(s0)
	mv	a0,a5
	call	CoreFreePool@plt
	.loc 1 885 18
	ld	a5,-24(s0)
	j	.L73
.L64:
	.loc 1 891 38
	lhu	a5,-44(s0)
	sext.w	a5,a5
	andi	a5,a5,1
	sext.w	a5,a5
	.loc 1 891 12
	beq	a5,zero,.L69
	.loc 1 896 11
	ld	a1,-64(s0)
	ld	a0,-152(s0)
	call	CreateGuidedExtractionRpnEvent
	.loc 1 932 7
	j	.L75
.L69:
	.loc 1 901 40
	ld	a5,-152(s0)
	lw	a5,64(a5)
	.loc 1 901 32
	sw	a5,-132(s0)
	.loc 1 903 40
	lhu	a5,-44(s0)
	sext.w	a5,a5
	andi	a5,a5,2
	sext.w	a5,a5
	.loc 1 903 14
	beq	a5,zero,.L70
	.loc 1 904 34
	lw	a5,-132(s0)
	ori	a5,a5,6
	sext.w	a5,a5
	sw	a5,-132(s0)
.L70:
	.loc 1 907 89
	ld	a5,-72(s0)
	lbu	a5,0(a5)
	sext.w	a4,a5
	.loc 1 907 158
	ld	a5,-72(s0)
	lbu	a5,1(a5)
	sext.w	a5,a5
	.loc 1 907 162
	slliw	a5,a5,8
	sext.w	a5,a5
	.loc 1 907 95
	or	a5,a4,a5
	sext.w	a4,a5
	.loc 1 907 231
	ld	a5,-72(s0)
	lbu	a5,2(a5)
	sext.w	a5,a5
	.loc 1 907 235
	slliw	a5,a5,16
	sext.w	a5,a5
	.loc 1 907 168
	or	a5,a4,a5
	sext.w	a4,a5
	.loc 1 907 14
	li	a5,16777216
	addi	a5,a5,-1
	bne	a4,a5,.L71
	.loc 1 909 78
	ld	a5,-72(s0)
	lbu	a4,4(a5)
	lbu	a3,5(a5)
	slli	a3,a3,8
	or	a4,a3,a4
	lbu	a3,6(a5)
	slli	a3,a3,16
	or	a4,a3,a4
	lbu	a5,7(a5)
	slli	a5,a5,24
	or	a5,a5,a4
	sext.w	a4,a5
	.loc 1 909 139
	ld	a5,-72(s0)
	lbu	a3,24(a5)
	lbu	a5,25(a5)
	slli	a5,a5,8
	or	a5,a5,a3
	slli	a5,a5,48
	srli	a5,a5,48
	sext.w	a5,a5
	.loc 1 909 94
	subw	a5,a4,a5
	sext.w	a5,a5
	.loc 1 908 22
	slli	a0,a5,32
	srli	a0,a0,32
	.loc 1 910 91
	ld	a5,-72(s0)
	lbu	a4,24(a5)
	lbu	a5,25(a5)
	slli	a5,a5,8
	or	a5,a5,a4
	slli	a5,a5,48
	srli	a5,a5,48
	mv	a4,a5
	.loc 1 908 22
	ld	a5,-72(s0)
	add	a1,a5,a4
	lw	a3,-132(s0)
	ld	a5,-64(s0)
	addi	a5,a5,40
	mv	a4,a5
	li	a2,1
	call	OpenSectionStreamEx
	sd	a0,-24(s0)
	j	.L72
.L71:
	.loc 1 917 97
	ld	a5,-72(s0)
	lbu	a5,0(a5)
	sext.w	a4,a5
	.loc 1 917 166
	ld	a5,-72(s0)
	lbu	a5,1(a5)
	sext.w	a5,a5
	.loc 1 917 170
	slliw	a5,a5,8
	sext.w	a5,a5
	.loc 1 917 103
	or	a5,a4,a5
	sext.w	a4,a5
	.loc 1 917 239
	ld	a5,-72(s0)
	lbu	a5,2(a5)
	sext.w	a5,a5
	.loc 1 917 243
	slliw	a5,a5,16
	sext.w	a5,a5
	.loc 1 917 176
	or	a5,a4,a5
	sext.w	a5,a5
	.loc 1 917 25
	mv	a3,a5
	.loc 1 917 296
	ld	a5,-72(s0)
	lbu	a4,20(a5)
	lbu	a5,21(a5)
	slli	a5,a5,8
	or	a5,a5,a4
	slli	a5,a5,48
	srli	a5,a5,48
	sext.w	a5,a5
	.loc 1 917 252
	subw	a5,a3,a5
	sext.w	a5,a5
	.loc 1 916 22
	slli	a0,a5,32
	srli	a0,a0,32
	.loc 1 918 90
	ld	a5,-72(s0)
	lbu	a4,20(a5)
	lbu	a5,21(a5)
	slli	a5,a5,8
	or	a5,a5,a4
	slli	a5,a5,48
	srli	a5,a5,48
	mv	a4,a5
	.loc 1 916 22
	ld	a5,-72(s0)
	add	a1,a5,a4
	lw	a3,-132(s0)
	ld	a5,-64(s0)
	addi	a5,a5,40
	mv	a4,a5
	li	a2,1
	call	OpenSectionStreamEx
	sd	a0,-24(s0)
.L72:
	.loc 1 925 42
	ld	a5,-24(s0)
	.loc 1 925 14
	bge	a5,zero,.L75
	.loc 1 926 13
	ld	a0,-64(s0)
	call	CoreFreePool@plt
	.loc 1 927 20
	ld	a5,-24(s0)
	j	.L73
.L74:
	.loc 1 829 7
	nop
	j	.L61
.L75:
	.loc 1 932 7
	nop
.L61:
	.loc 1 945 3
	ld	a5,-152(s0)
	addi	a4,a5,48
	ld	a5,-64(s0)
	addi	a5,a5,8
	mv	a1,a5
	mv	a0,a4
	call	InsertTailList@plt
	.loc 1 947 10
	li	a5,0
.L73:
	.loc 1 948 1
	mv	a0,a5
	ld	ra,168(sp)
	.cfi_restore 1
	ld	s0,160(sp)
	.cfi_restore 8
	.cfi_def_cfa 2, 176
	addi	sp,sp,176
	.cfi_def_cfa_offset 0
	jr	ra
	.cfi_endproc
.LFE8:
	.size	CreateChildNode, .-CreateChildNode
	.section	.text.FindChildNode,"ax",@progbits
	.align	1
	.globl	FindChildNode
	.type	FindChildNode, @function
FindChildNode:
.LFB9:
	.loc 1 993 1
	.cfi_startproc
	addi	sp,sp,-128
	.cfi_def_cfa_offset 128
	sd	ra,120(sp)
	sd	s0,112(sp)
	.cfi_offset 1, -8
	.cfi_offset 8, -16
	addi	s0,sp,128
	.cfi_def_cfa 8, 0
	sd	a0,-72(s0)
	sd	a2,-88(s0)
	sd	a3,-96(s0)
	sd	a5,-104(s0)
	sd	a6,-112(s0)
	sd	a7,-120(s0)
	mv	a5,a1
	sb	a5,-73(s0)
	mv	a5,a4
	sw	a5,-80(s0)
	.loc 1 1003 13
	la	a5,_gPcd_FixedAtBuild_PcdFwVolDxeMaxEncapsulationDepth
	lw	a5,0(a5)
	.loc 1 1003 6
	lw	a4,-80(s0)
	sext.w	a4,a4
	bltu	a4,a5,.L77
	.loc 1 1004 12
	li	a5,-1
	slli	a5,a5,63
	addi	a5,a5,21
	j	.L94
.L77:
	.loc 1 1007 20
	sd	zero,-48(s0)
	.loc 1 1008 15
	li	a5,-1
	slli	a5,a5,63
	addi	a5,a5,14
	sd	a5,-24(s0)
	.loc 1 1010 19
	ld	a5,-72(s0)
	ld	a5,40(a5)
	.loc 1 1010 6
	bne	a5,zero,.L79
	.loc 1 1011 12
	li	a5,-1
	slli	a5,a5,63
	addi	a5,a5,14
	j	.L94
.L79:
	.loc 1 1014 20
	ld	a5,-72(s0)
	addi	a5,a5,48
	.loc 1 1014 7
	mv	a0,a5
	call	IsListEmpty@plt
	mv	a5,a0
	.loc 1 1014 6 discriminator 1
	beq	a5,zero,.L80
	.loc 1 1015 20
	ld	a5,-72(s0)
	ld	a4,40(a5)
	.loc 1 1014 45 discriminator 2
	li	a5,3
	bleu	a4,a5,.L80
	.loc 1 1024 14
	addi	a5,s0,-48
	mv	a2,a5
	li	a1,0
	ld	a0,-72(s0)
	call	CreateChildNode
	sd	a0,-32(s0)
	.loc 1 1025 36
	ld	a5,-32(s0)
	.loc 1 1025 8
	bge	a5,zero,.L80
	.loc 1 1026 14
	ld	a5,-32(s0)
	j	.L94
.L80:
	.loc 1 1037 87
	ld	a5,-72(s0)
	addi	a5,a5,48
	.loc 1 1037 73
	mv	a0,a5
	call	GetFirstNode@plt
	mv	a5,a0
	.loc 1 1037 24 discriminator 1
	addi	a5,a5,-8
	.loc 1 1037 176 discriminator 1
	lw	a4,0(a5)
	.loc 1 1037 261 discriminator 1
	li	a5,1396924416
	addi	a5,a5,-1965
	bne	a4,a5,.L81
	.loc 1 1037 327 discriminator 2
	ld	a5,-72(s0)
	addi	a5,a5,48
	.loc 1 1037 313 discriminator 2
	mv	a0,a5
	call	GetFirstNode@plt
	mv	a5,a0
	.loc 1 1037 261 discriminator 4
	addi	a5,a5,-8
	j	.L82
.L81:
	.loc 1 1037 261 is_stmt 0 discriminator 3
	li	a5,0
.L82:
	.loc 1 1037 20 is_stmt 1 discriminator 6
	sd	a5,-48(s0)
.L93:
	.loc 1 1041 9
	ld	a5,-48(s0)
	lbu	a4,-73(s0)
	ld	a3,-96(s0)
	mv	a2,a4
	mv	a1,a5
	ld	a0,-72(s0)
	call	ChildIsType
	mv	a5,a0
	.loc 1 1041 8 discriminator 1
	beq	a5,zero,.L83
	.loc 1 1045 8
	ld	a5,-88(s0)
	ld	a5,0(a5)
	.loc 1 1045 25
	addi	a4,a5,-1
	ld	a5,-88(s0)
	sd	a4,0(a5)
	.loc 1 1046 11
	ld	a5,-88(s0)
	ld	a5,0(a5)
	.loc 1 1046 10
	bne	a5,zero,.L83
	.loc 1 1050 21
	ld	a4,-48(s0)
	ld	a5,-104(s0)
	sd	a4,0(a5)
	.loc 1 1051 22
	ld	a5,-112(s0)
	ld	a4,-72(s0)
	sd	a4,0(a5)
	.loc 1 1052 45
	ld	a5,-72(s0)
	lw	a4,64(a5)
	.loc 1 1052 31
	ld	a5,-120(s0)
	sw	a4,0(a5)
	.loc 1 1053 16
	li	a5,0
	j	.L94
.L83:
	.loc 1 1062 25
	ld	a5,-48(s0)
	ld	a5,40(a5)
	.loc 1 1062 8
	beq	a5,zero,.L84
	.loc 1 1067 62
	ld	a5,-48(s0)
	ld	a5,40(a5)
	.loc 1 1066 16
	mv	a0,a5
	lw	a5,-80(s0)
	addiw	a5,a5,1
	sext.w	a4,a5
	addi	a3,s0,-64
	addi	a5,s0,-56
	lbu	a1,-73(s0)
	ld	a7,-120(s0)
	mv	a6,a3
	ld	a3,-96(s0)
	ld	a2,-88(s0)
	call	FindChildNode
	sd	a0,-32(s0)
	.loc 1 1076 11
	ld	a5,-88(s0)
	ld	a5,0(a5)
	.loc 1 1076 10
	bne	a5,zero,.L85
	.loc 1 1082 21
	ld	a4,-56(s0)
	ld	a5,-104(s0)
	sd	a4,0(a5)
	.loc 1 1083 22
	ld	a4,-64(s0)
	ld	a5,-112(s0)
	sd	a4,0(a5)
	.loc 1 1084 16
	li	a5,0
	j	.L94
.L85:
	.loc 1 1086 12
	ld	a4,-32(s0)
	li	a5,-1
	slli	a5,a5,63
	addi	a5,a5,21
	bne	a4,a5,.L86
	.loc 1 1092 18
	ld	a5,-32(s0)
	j	.L94
.L86:
	.loc 1 1099 21
	ld	a5,-32(s0)
	sd	a5,-24(s0)
	j	.L87
.L84:
	.loc 1 1101 33
	ld	a5,-48(s0)
	lw	a4,24(a5)
	.loc 1 1101 15
	li	a5,2
	bne	a4,a5,.L87
	.loc 1 1101 49 discriminator 1
	lbu	a5,-73(s0)
	andi	a4,a5,0xff
	li	a5,2
	beq	a4,a5,.L87
	.loc 1 1107 19
	li	a5,-1
	slli	a5,a5,63
	addi	a5,a5,24
	sd	a5,-24(s0)
.L87:
	.loc 1 1110 23
	ld	a5,-72(s0)
	addi	a4,a5,48
	.loc 1 1110 65
	ld	a5,-48(s0)
	.loc 1 1110 48
	addi	a5,a5,8
	.loc 1 1110 10
	mv	a1,a5
	mv	a0,a4
	call	IsNodeAtEnd@plt
	mv	a5,a0
	.loc 1 1110 8 discriminator 1
	bne	a5,zero,.L88
	.loc 1 1116 90
	ld	a5,-72(s0)
	addi	a4,a5,48
	.loc 1 1116 132
	ld	a5,-48(s0)
	.loc 1 1116 115
	addi	a5,a5,8
	.loc 1 1116 77
	mv	a1,a5
	mv	a0,a4
	call	GetNextNode@plt
	mv	a5,a0
	.loc 1 1116 28 discriminator 1
	addi	a5,a5,-8
	.loc 1 1116 204 discriminator 1
	lw	a4,0(a5)
	.loc 1 1116 289 discriminator 1
	li	a5,1396924416
	addi	a5,a5,-1965
	bne	a4,a5,.L89
	.loc 1 1116 354 discriminator 2
	ld	a5,-72(s0)
	addi	a4,a5,48
	.loc 1 1116 396 discriminator 2
	ld	a5,-48(s0)
	.loc 1 1116 379 discriminator 2
	addi	a5,a5,8
	.loc 1 1116 341 discriminator 2
	mv	a1,a5
	mv	a0,a4
	call	GetNextNode@plt
	mv	a5,a0
	.loc 1 1116 289 discriminator 4
	addi	a5,a5,-8
	j	.L90
.L89:
	.loc 1 1116 289 is_stmt 0 discriminator 3
	li	a5,0
.L90:
	.loc 1 1116 24 is_stmt 1 discriminator 6
	sd	a5,-48(s0)
	j	.L93
.L88:
	.loc 1 1123 41
	ld	a5,-48(s0)
	lw	a4,32(a5)
	.loc 1 1123 76
	ld	a5,-48(s0)
	lw	a5,28(a5)
	.loc 1 1123 23
	addw	a5,a4,a5
	sw	a5,-36(s0)
	.loc 1 1127 23
	lw	a5,-36(s0)
	addiw	a5,a5,3
	sw	a5,-36(s0)
	.loc 1 1128 23
	lw	a5,-36(s0)
	andi	a5,a5,-4
	sw	a5,-36(s0)
	.loc 1 1129 27
	lwu	a4,-36(s0)
	.loc 1 1129 42
	ld	a5,-72(s0)
	ld	a5,40(a5)
	.loc 1 1129 57
	addi	a5,a5,-4
	.loc 1 1129 10
	bgtu	a4,a5,.L92
	.loc 1 1133 18
	addi	a4,s0,-48
	lw	a5,-36(s0)
	mv	a2,a4
	mv	a1,a5
	ld	a0,-72(s0)
	call	CreateChildNode
	sd	a0,-32(s0)
	.loc 1 1134 40
	ld	a5,-32(s0)
	.loc 1 1134 12
	bge	a5,zero,.L93
	.loc 1 1135 18
	ld	a5,-32(s0)
	j	.L94
.L92:
	.loc 1 1139 16
	ld	a5,-24(s0)
.L94:
	.loc 1 1143 1
	mv	a0,a5
	ld	ra,120(sp)
	.cfi_restore 1
	ld	s0,112(sp)
	.cfi_restore 8
	.cfi_def_cfa 2, 128
	addi	sp,sp,128
	.cfi_def_cfa_offset 0
	jr	ra
	.cfi_endproc
.LFE9:
	.size	FindChildNode, .-FindChildNode
	.section	.text.FindStreamNode,"ax",@progbits
	.align	1
	.globl	FindStreamNode
	.type	FindStreamNode, @function
FindStreamNode:
.LFB10:
	.loc 1 1162 1
	.cfi_startproc
	addi	sp,sp,-48
	.cfi_def_cfa_offset 48
	sd	ra,40(sp)
	sd	s0,32(sp)
	.cfi_offset 1, -8
	.cfi_offset 8, -16
	addi	s0,sp,48
	.cfi_def_cfa 8, 0
	sd	a0,-40(s0)
	sd	a1,-48(s0)
	.loc 1 1165 8
	lla	a0,mStreamRoot
	call	IsListEmpty@plt
	mv	a5,a0
	.loc 1 1165 6 discriminator 1
	bne	a5,zero,.L96
	.loc 1 1166 70
	lla	a0,mStreamRoot
	call	GetFirstNode@plt
	mv	a5,a0
	.loc 1 1166 20 discriminator 1
	addi	a5,a5,-8
	.loc 1 1166 163 discriminator 1
	lw	a4,0(a5)
	.loc 1 1166 248 discriminator 1
	li	a5,1397972992
	addi	a5,a5,-1965
	bne	a4,a5,.L97
	.loc 1 1166 301 discriminator 2
	lla	a0,mStreamRoot
	call	GetFirstNode@plt
	mv	a5,a0
	.loc 1 1166 16 discriminator 4
	addi	a5,a5,-8
	sd	a5,-24(s0)
	j	.L104
.L97:
	.loc 1 1166 16 is_stmt 0 discriminator 3
	sd	zero,-24(s0)
.L104:
	.loc 1 1168 21 is_stmt 1
	ld	a5,-24(s0)
	ld	a5,24(a5)
	.loc 1 1168 10
	ld	a4,-40(s0)
	bne	a4,a5,.L99
	.loc 1 1169 22
	ld	a5,-48(s0)
	ld	a4,-24(s0)
	sd	a4,0(a5)
	.loc 1 1170 16
	li	a5,0
	j	.L100
.L99:
	.loc 1 1171 45
	ld	a5,-24(s0)
	addi	a5,a5,8
	.loc 1 1171 18
	mv	a1,a5
	lla	a0,mStreamRoot
	call	IsNodeAtEnd@plt
	mv	a5,a0
	.loc 1 1171 17 discriminator 1
	bne	a5,zero,.L105
	.loc 1 1174 101
	ld	a5,-24(s0)
	addi	a5,a5,8
	.loc 1 1174 74
	mv	a1,a5
	lla	a0,mStreamRoot
	call	GetNextNode@plt
	mv	a5,a0
	.loc 1 1174 24 discriminator 1
	addi	a5,a5,-8
	.loc 1 1174 185 discriminator 1
	lw	a4,0(a5)
	.loc 1 1174 270 discriminator 1
	li	a5,1397972992
	addi	a5,a5,-1965
	bne	a4,a5,.L102
	.loc 1 1174 350 discriminator 2
	ld	a5,-24(s0)
	addi	a5,a5,8
	.loc 1 1174 323 discriminator 2
	mv	a1,a5
	lla	a0,mStreamRoot
	call	GetNextNode@plt
	mv	a5,a0
	.loc 1 1174 20 discriminator 4
	addi	a5,a5,-8
	sd	a5,-24(s0)
	j	.L104
.L102:
	.loc 1 1174 20 is_stmt 0 discriminator 3
	sd	zero,-24(s0)
	.loc 1 1168 10 is_stmt 1
	j	.L104
.L105:
	.loc 1 1172 9
	nop
.L96:
	.loc 1 1179 10
	li	a5,-1
	slli	a5,a5,63
	addi	a5,a5,14
.L100:
	.loc 1 1180 1
	mv	a0,a5
	ld	ra,40(sp)
	.cfi_restore 1
	ld	s0,32(sp)
	.cfi_restore 8
	.cfi_def_cfa 2, 48
	addi	sp,sp,48
	.cfi_def_cfa_offset 0
	jr	ra
	.cfi_endproc
.LFE10:
	.size	FindStreamNode, .-FindStreamNode
	.section	.text.GetSection,"ax",@progbits
	.align	1
	.globl	GetSection
	.type	GetSection, @function
GetSection:
.LFB11:
	.loc 1 1252 1
	.cfi_startproc
	addi	sp,sp,-176
	.cfi_def_cfa_offset 176
	sd	ra,168(sp)
	sd	s0,160(sp)
	.cfi_offset 1, -8
	.cfi_offset 8, -16
	addi	s0,sp,176
	.cfi_def_cfa 8, 0
	sd	a0,-120(s0)
	sd	a1,-128(s0)
	sd	a2,-136(s0)
	sd	a3,-144(s0)
	sd	a4,-152(s0)
	sd	a5,-160(s0)
	sd	a6,-168(s0)
	mv	a5,a7
	sb	a5,-169(s0)
	.loc 1 1265 19
	sd	zero,-88(s0)
	.loc 1 1266 12
	li	a0,16
	call	CoreRaiseTpl@plt
	sd	a0,-48(s0)
	.loc 1 1267 30
	ld	a5,-144(s0)
	addi	a5,a5,1
	.loc 1 1267 12
	sd	a5,-104(s0)
	.loc 1 1272 12
	addi	a5,s0,-72
	mv	a1,a5
	ld	a0,-120(s0)
	call	FindStreamNode
	sd	a0,-24(s0)
	.loc 1 1273 34
	ld	a5,-24(s0)
	.loc 1 1273 6
	bge	a5,zero,.L107
	.loc 1 1274 12
	li	a5,-1
	slli	a5,a5,63
	addi	a5,a5,2
	sd	a5,-24(s0)
	.loc 1 1275 5
	j	.L108
.L107:
	.loc 1 1281 6
	ld	a5,-128(s0)
	bne	a5,zero,.L109
	.loc 1 1285 26
	ld	a5,-72(s0)
	.loc 1 1285 14
	ld	a5,40(a5)
	sd	a5,-32(s0)
	.loc 1 1286 28
	ld	a5,-72(s0)
	.loc 1 1286 16
	ld	a5,32(a5)
	sd	a5,-40(s0)
	.loc 1 1287 39
	ld	a5,-72(s0)
	lw	a4,64(a5)
	.loc 1 1287 27
	ld	a5,-168(s0)
	sw	a4,0(a5)
	j	.L110
.L109:
	.loc 1 1292 14
	ld	a0,-72(s0)
	ld	a5,-128(s0)
	lbu	a1,0(a5)
	addi	a3,s0,-92
	addi	a4,s0,-88
	addi	a5,s0,-80
	addi	a2,s0,-104
	mv	a7,a3
	mv	a6,a4
	li	a4,0
	ld	a3,-136(s0)
	call	FindChildNode
	sd	a0,-24(s0)
	.loc 1 1302 36
	ld	a5,-24(s0)
	.loc 1 1302 8
	bge	a5,zero,.L111
	.loc 1 1303 10
	ld	a4,-24(s0)
	li	a5,-1
	slli	a5,a5,63
	addi	a5,a5,21
	bne	a4,a5,.L119
	.loc 1 1312 16
	li	a5,-1
	slli	a5,a5,63
	addi	a5,a5,14
	sd	a5,-24(s0)
	.loc 1 1315 7
	j	.L119
.L111:
	.loc 1 1318 60
	ld	a5,-88(s0)
	ld	a4,32(a5)
	.loc 1 1318 86
	ld	a5,-80(s0)
	lw	a5,32(a5)
	slli	a5,a5,32
	srli	a5,a5,32
	.loc 1 1318 13
	add	a5,a4,a5
	sd	a5,-56(s0)
	.loc 1 1320 78
	ld	a5,-56(s0)
	lbu	a5,0(a5)
	sext.w	a4,a5
	.loc 1 1320 142
	ld	a5,-56(s0)
	lbu	a5,1(a5)
	sext.w	a5,a5
	.loc 1 1320 146
	slliw	a5,a5,8
	sext.w	a5,a5
	.loc 1 1320 84
	or	a5,a4,a5
	sext.w	a4,a5
	.loc 1 1320 210
	ld	a5,-56(s0)
	lbu	a5,2(a5)
	sext.w	a5,a5
	.loc 1 1320 214
	slliw	a5,a5,16
	sext.w	a5,a5
	.loc 1 1320 152
	or	a5,a4,a5
	sext.w	a4,a5
	.loc 1 1320 8
	li	a5,16777216
	addi	a5,a5,-1
	bne	a4,a5,.L113
	.loc 1 1322 10
	lbu	a5,-169(s0)
	andi	a5,a5,0xff
	bne	a5,zero,.L114
	.loc 1 1324 16
	li	a5,-1
	slli	a5,a5,63
	addi	a5,a5,14
	sd	a5,-24(s0)
	.loc 1 1325 9
	j	.L108
.L114:
	.loc 1 1328 67
	ld	a5,-56(s0)
	lbu	a4,4(a5)
	lbu	a3,5(a5)
	slli	a3,a3,8
	or	a4,a3,a4
	lbu	a3,6(a5)
	slli	a3,a3,16
	or	a4,a3,a4
	lbu	a5,7(a5)
	slli	a5,a5,24
	or	a5,a5,a4
	sext.w	a5,a5
	slli	a5,a5,32
	srli	a5,a5,32
	.loc 1 1328 16
	addi	a5,a5,-8
	sd	a5,-32(s0)
	.loc 1 1329 18
	ld	a5,-56(s0)
	addi	a5,a5,8
	sd	a5,-40(s0)
	j	.L115
.L113:
	.loc 1 1331 86
	ld	a5,-56(s0)
	lbu	a5,0(a5)
	sext.w	a4,a5
	.loc 1 1331 150
	ld	a5,-56(s0)
	lbu	a5,1(a5)
	sext.w	a5,a5
	.loc 1 1331 154
	slliw	a5,a5,8
	sext.w	a5,a5
	.loc 1 1331 92
	or	a5,a4,a5
	sext.w	a4,a5
	.loc 1 1331 218
	ld	a5,-56(s0)
	lbu	a5,2(a5)
	sext.w	a5,a5
	.loc 1 1331 222
	slliw	a5,a5,16
	sext.w	a5,a5
	.loc 1 1331 160
	or	a5,a4,a5
	sext.w	a5,a5
	.loc 1 1331 19
	slli	a5,a5,32
	srli	a5,a5,32
	.loc 1 1331 16
	addi	a5,a5,-4
	sd	a5,-32(s0)
	.loc 1 1332 18
	ld	a5,-56(s0)
	addi	a5,a5,4
	sd	a5,-40(s0)
.L115:
	.loc 1 1335 27
	lw	a4,-92(s0)
	ld	a5,-168(s0)
	sw	a4,0(a5)
.L110:
	.loc 1 1338 15
	ld	a5,-32(s0)
	sd	a5,-64(s0)
	.loc 1 1339 7
	ld	a5,-152(s0)
	ld	a5,0(a5)
	.loc 1 1339 6
	beq	a5,zero,.L116
	.loc 1 1343 9
	ld	a5,-160(s0)
	ld	a5,0(a5)
	.loc 1 1343 8
	ld	a4,-32(s0)
	bleu	a4,a5,.L117
	.loc 1 1344 14
	li	a5,4
	sd	a5,-24(s0)
	.loc 1 1345 16
	ld	a5,-160(s0)
	ld	a5,0(a5)
	sd	a5,-32(s0)
	j	.L117
.L116:
	.loc 1 1351 15
	ld	a0,-32(s0)
	call	AllocatePool@plt
	mv	a4,a0
	.loc 1 1351 13 discriminator 1
	ld	a5,-152(s0)
	sd	a4,0(a5)
	.loc 1 1352 9
	ld	a5,-152(s0)
	ld	a5,0(a5)
	.loc 1 1352 8
	bne	a5,zero,.L117
	.loc 1 1353 14
	li	a5,-1
	slli	a5,a5,63
	addi	a5,a5,9
	sd	a5,-24(s0)
	.loc 1 1354 7
	j	.L108
.L117:
	.loc 1 1358 3
	ld	a5,-152(s0)
	ld	a5,0(a5)
	ld	a2,-32(s0)
	ld	a1,-40(s0)
	mv	a0,a5
	call	CopyMem@plt
	.loc 1 1359 15
	ld	a5,-160(s0)
	ld	a4,-64(s0)
	sd	a4,0(a5)
	j	.L108
.L119:
	.loc 1 1315 7
	nop
.L108:
	.loc 1 1362 3
	ld	a0,-48(s0)
	call	CoreRestoreTpl@plt
	.loc 1 1364 10
	ld	a5,-24(s0)
	.loc 1 1365 1
	mv	a0,a5
	ld	ra,168(sp)
	.cfi_restore 1
	ld	s0,160(sp)
	.cfi_restore 8
	.cfi_def_cfa 2, 176
	addi	sp,sp,176
	.cfi_def_cfa_offset 0
	jr	ra
	.cfi_endproc
.LFE11:
	.size	GetSection, .-GetSection
	.section	.text.FreeChildNode,"ax",@progbits
	.align	1
	.globl	FreeChildNode
	.type	FreeChildNode, @function
FreeChildNode:
.LFB12:
	.loc 1 1377 1
	.cfi_startproc
	addi	sp,sp,-32
	.cfi_def_cfa_offset 32
	sd	ra,24(sp)
	sd	s0,16(sp)
	.cfi_offset 1, -8
	.cfi_offset 8, -16
	addi	s0,sp,32
	.cfi_def_cfa 8, 0
	sd	a0,-24(s0)
	.loc 1 1382 20
	ld	a5,-24(s0)
	addi	a5,a5,8
	.loc 1 1382 3
	mv	a0,a5
	call	RemoveEntryList@plt
	.loc 1 1384 16
	ld	a5,-24(s0)
	ld	a5,40(a5)
	.loc 1 1384 6
	beq	a5,zero,.L121
	.loc 1 1389 5
	ld	a5,-24(s0)
	ld	a5,40(a5)
	li	a1,1
	mv	a0,a5
	call	CloseSectionStream
.L121:
	.loc 1 1392 16
	ld	a5,-24(s0)
	ld	a5,56(a5)
	.loc 1 1392 6
	beq	a5,zero,.L122
	.loc 1 1393 8
	la	a5,gBS
	ld	a5,0(a5)
	ld	a5,112(a5)
	.loc 1 1393 5
	ld	a4,-24(s0)
	ld	a4,56(a4)
	mv	a0,a4
	jalr	a5
.LVL5:
.L122:
	.loc 1 1399 3
	ld	a0,-24(s0)
	call	CoreFreePool@plt
	.loc 1 1400 1
	nop
	ld	ra,24(sp)
	.cfi_restore 1
	ld	s0,16(sp)
	.cfi_restore 8
	.cfi_def_cfa 2, 32
	addi	sp,sp,32
	.cfi_def_cfa_offset 0
	jr	ra
	.cfi_endproc
.LFE12:
	.size	FreeChildNode, .-FreeChildNode
	.section	.text.CloseSectionStream,"ax",@progbits
	.align	1
	.globl	CloseSectionStream
	.type	CloseSectionStream, @function
CloseSectionStream:
.LFB13:
	.loc 1 1421 1
	.cfi_startproc
	addi	sp,sp,-80
	.cfi_def_cfa_offset 80
	sd	ra,72(sp)
	sd	s0,64(sp)
	.cfi_offset 1, -8
	.cfi_offset 8, -16
	addi	s0,sp,80
	.cfi_def_cfa 8, 0
	sd	a0,-72(s0)
	mv	a5,a1
	sb	a5,-73(s0)
	.loc 1 1428 12
	li	a0,16
	call	CoreRaiseTpl@plt
	sd	a0,-40(s0)
	.loc 1 1433 12
	addi	a5,s0,-56
	mv	a1,a5
	ld	a0,-72(s0)
	call	FindStreamNode
	sd	a0,-24(s0)
	.loc 1 1434 7
	ld	a5,-24(s0)
	.loc 1 1434 6
	blt	a5,zero,.L124
	.loc 1 1438 33
	ld	a5,-56(s0)
	.loc 1 1438 22
	addi	a5,a5,8
	.loc 1 1438 5
	mv	a0,a5
	call	RemoveEntryList@plt
	.loc 1 1439 11
	j	.L125
.L128:
	.loc 1 1440 39
	ld	a5,-56(s0)
	.loc 1 1440 28
	addi	a5,a5,48
	.loc 1 1440 14
	mv	a0,a5
	call	GetFirstNode@plt
	sd	a0,-48(s0)
	.loc 1 1441 21
	ld	a5,-48(s0)
	addi	a5,a5,-8
	.loc 1 1441 139
	lw	a4,0(a5)
	.loc 1 1441 224
	li	a5,1396924416
	addi	a5,a5,-1965
	bne	a4,a5,.L126
	.loc 1 1441 17 discriminator 1
	ld	a5,-48(s0)
	addi	a5,a5,-8
	sd	a5,-32(s0)
	j	.L127
.L126:
	.loc 1 1441 17 is_stmt 0 discriminator 2
	sd	zero,-32(s0)
.L127:
	.loc 1 1442 7 is_stmt 1
	ld	a0,-32(s0)
	call	FreeChildNode
.L125:
	.loc 1 1439 37
	ld	a5,-56(s0)
	.loc 1 1439 26
	addi	a5,a5,48
	.loc 1 1439 13
	mv	a0,a5
	call	IsListEmpty@plt
	mv	a5,a0
	.loc 1 1439 12 discriminator 1
	beq	a5,zero,.L128
	.loc 1 1445 8
	lbu	a5,-73(s0)
	andi	a5,a5,0xff
	beq	a5,zero,.L129
	.loc 1 1446 31
	ld	a5,-56(s0)
	ld	a5,32(a5)
	.loc 1 1446 7
	mv	a0,a5
	call	CoreFreePool@plt
.L129:
	.loc 1 1449 5
	ld	a5,-56(s0)
	mv	a0,a5
	call	CoreFreePool@plt
	.loc 1 1450 12
	sd	zero,-24(s0)
	j	.L130
.L124:
	.loc 1 1452 12
	li	a5,-1
	slli	a5,a5,63
	addi	a5,a5,2
	sd	a5,-24(s0)
.L130:
	.loc 1 1455 3
	ld	a0,-40(s0)
	call	CoreRestoreTpl@plt
	.loc 1 1456 10
	ld	a5,-24(s0)
	.loc 1 1457 1
	mv	a0,a5
	ld	ra,72(sp)
	.cfi_restore 1
	ld	s0,64(sp)
	.cfi_restore 8
	.cfi_def_cfa 2, 80
	addi	sp,sp,80
	.cfi_def_cfa_offset 0
	jr	ra
	.cfi_endproc
.LFE13:
	.size	CloseSectionStream, .-CloseSectionStream
	.section	.text.CustomGuidedSectionExtract,"ax",@progbits
	.align	1
	.globl	CustomGuidedSectionExtract
	.type	CustomGuidedSectionExtract, @function
CustomGuidedSectionExtract:
.LFB14:
	.loc 1 1551 1
	.cfi_startproc
	addi	sp,sp,-112
	.cfi_def_cfa_offset 112
	sd	ra,104(sp)
	sd	s0,96(sp)
	.cfi_offset 1, -8
	.cfi_offset 8, -16
	addi	s0,sp,112
	.cfi_def_cfa 8, 0
	sd	a0,-72(s0)
	sd	a1,-80(s0)
	sd	a2,-88(s0)
	sd	a3,-96(s0)
	sd	a4,-104(s0)
	.loc 1 1562 17
	sd	zero,-32(s0)
	.loc 1 1563 25
	sd	zero,-24(s0)
	.loc 1 1568 12
	addi	a3,s0,-50
	addi	a4,s0,-48
	addi	a5,s0,-44
	mv	a2,a4
	mv	a1,a5
	ld	a0,-80(s0)
	call	ExtractGuidedSectionGetInfo@plt
	sd	a0,-40(s0)
	.loc 1 1575 34
	ld	a5,-40(s0)
	.loc 1 1575 6
	bge	a5,zero,.L133
	.loc 1 1577 12
	ld	a5,-40(s0)
	j	.L144
.L133:
	.loc 1 1580 25
	lw	a5,-48(s0)
	.loc 1 1580 6
	beq	a5,zero,.L135
	.loc 1 1584 21
	lw	a5,-48(s0)
	slli	a5,a5,32
	srli	a5,a5,32
	mv	a0,a5
	call	AllocatePool@plt
	sd	a0,-32(s0)
	.loc 1 1585 8
	ld	a5,-32(s0)
	bne	a5,zero,.L135
	.loc 1 1586 14
	li	a5,-1
	slli	a5,a5,63
	addi	a5,a5,9
	j	.L144
.L135:
	.loc 1 1590 24
	lw	a5,-44(s0)
	.loc 1 1590 6
	beq	a5,zero,.L136
	.loc 1 1594 29
	lw	a5,-44(s0)
	slli	a5,a5,32
	srli	a5,a5,32
	mv	a0,a5
	call	AllocatePool@plt
	sd	a0,-24(s0)
	.loc 1 1595 8
	ld	a5,-24(s0)
	bne	a5,zero,.L137
	.loc 1 1596 10
	ld	a5,-32(s0)
	beq	a5,zero,.L138
	.loc 1 1597 9
	ld	a0,-32(s0)
	call	FreePool@plt
.L138:
	.loc 1 1600 14
	li	a5,-1
	slli	a5,a5,63
	addi	a5,a5,9
	j	.L144
.L137:
	.loc 1 1603 19
	ld	a5,-88(s0)
	ld	a4,-24(s0)
	sd	a4,0(a5)
.L136:
	.loc 1 1609 12
	ld	a3,-104(s0)
	ld	a2,-32(s0)
	ld	a1,-88(s0)
	ld	a0,-80(s0)
	call	ExtractGuidedSectionDecode@plt
	sd	a0,-40(s0)
	.loc 1 1615 34
	ld	a5,-40(s0)
	.loc 1 1615 6
	bge	a5,zero,.L139
	.loc 1 1619 8
	ld	a5,-24(s0)
	beq	a5,zero,.L140
	.loc 1 1620 7
	ld	a0,-24(s0)
	call	CoreFreePool@plt
.L140:
	.loc 1 1623 8
	ld	a5,-32(s0)
	beq	a5,zero,.L141
	.loc 1 1624 7
	ld	a0,-32(s0)
	call	CoreFreePool@plt
.L141:
	.loc 1 1628 12
	ld	a5,-40(s0)
	j	.L144
.L139:
	.loc 1 1631 7
	ld	a5,-88(s0)
	ld	a5,0(a5)
	.loc 1 1631 6
	ld	a4,-24(s0)
	beq	a4,a5,.L142
	.loc 1 1636 5
	ld	a5,-88(s0)
	ld	a5,0(a5)
	lw	a4,-44(s0)
	slli	a4,a4,32
	srli	a4,a4,32
	mv	a2,a4
	mv	a1,a5
	ld	a0,-24(s0)
	call	CopyMem@plt
	.loc 1 1637 19
	ld	a5,-88(s0)
	ld	a4,-24(s0)
	sd	a4,0(a5)
.L142:
	.loc 1 1643 17
	lw	a5,-44(s0)
	slli	a4,a5,32
	srli	a4,a4,32
	.loc 1 1643 15
	ld	a5,-96(s0)
	sd	a4,0(a5)
	.loc 1 1648 6
	ld	a5,-32(s0)
	beq	a5,zero,.L143
	.loc 1 1649 5
	ld	a0,-32(s0)
	call	CoreFreePool@plt
.L143:
	.loc 1 1652 10
	li	a5,0
.L144:
	.loc 1 1653 1
	mv	a0,a5
	ld	ra,104(sp)
	.cfi_restore 1
	ld	s0,96(sp)
	.cfi_restore 8
	.cfi_def_cfa 2, 112
	addi	sp,sp,112
	.cfi_def_cfa_offset 0
	jr	ra
	.cfi_endproc
.LFE14:
	.size	CustomGuidedSectionExtract, .-CustomGuidedSectionExtract
	.text
.Letext0:
	.file 2 "/home/kapoagaeming/spacemit-image-builder/components/edk2/MdePkg/Include/RiscV64/ProcessorBind.h"
	.file 3 "/home/kapoagaeming/spacemit-image-builder/components/edk2/MdePkg/Include/Base.h"
	.file 4 "/home/kapoagaeming/spacemit-image-builder/components/edk2/MdePkg/Include/Uefi/UefiBaseType.h"
	.file 5 "/home/kapoagaeming/spacemit-image-builder/components/edk2/MdePkg/Include/Uefi/UefiMultiPhase.h"
	.file 6 "/home/kapoagaeming/spacemit-image-builder/components/edk2/MdePkg/Include/Protocol/DevicePath.h"
	.file 7 "/home/kapoagaeming/spacemit-image-builder/components/edk2/MdePkg/Include/Protocol/SimpleTextIn.h"
	.file 8 "/home/kapoagaeming/spacemit-image-builder/components/edk2/MdePkg/Include/Protocol/SimpleTextOut.h"
	.file 9 "/home/kapoagaeming/spacemit-image-builder/components/edk2/MdePkg/Include/Uefi/UefiSpec.h"
	.file 10 "/home/kapoagaeming/spacemit-image-builder/components/edk2/MdePkg/Include/Pi/PiFirmwareFile.h"
	.file 11 "/home/kapoagaeming/spacemit-image-builder/components/Build/Milk-V-Jupiter/RELEASE_GCC5/RISCV64/MdeModulePkg/Core/Dxe/DxeMain/DEBUG/AutoGen.h"
	.file 12 "/home/kapoagaeming/spacemit-image-builder/components/edk2/MdePkg/Include/Protocol/GuidedSectionExtraction.h"
	.file 13 "/home/kapoagaeming/spacemit-image-builder/components/edk2/MdePkg/Include/Protocol/Decompress.h"
	.file 14 "/home/kapoagaeming/spacemit-image-builder/components/edk2/MdePkg/Include/Library/ExtractGuidedSectionLib.h"
	.file 15 "/home/kapoagaeming/spacemit-image-builder/components/edk2/MdePkg/Include/Library/BaseLib.h"
	.file 16 "/home/kapoagaeming/spacemit-image-builder/components/edk2/MdePkg/Include/Library/MemoryAllocationLib.h"
	.file 17 "/home/kapoagaeming/spacemit-image-builder/components/edk2/MdePkg/Include/Library/UefiLib.h"
	.file 18 "/home/kapoagaeming/spacemit-image-builder/components/edk2/MdeModulePkg/Core/Dxe/DxeMain.h"
	.file 19 "/home/kapoagaeming/spacemit-image-builder/components/edk2/MdePkg/Include/Library/BaseMemoryLib.h"
	.file 20 "/home/kapoagaeming/spacemit-image-builder/components/edk2/MdePkg/Include/Library/UefiBootServicesTableLib.h"
	.section	.note.GNU-stack,"",@progbits
