	.file	"UefiShellBcfgCommandLib.c"
	.option pic
	.option norelax
	.attribute arch, "rv64i2p1_m2p0_a2p1_f2p2_d2p2_c2p0_zicsr2p0_zifencei2p0_zmmul1p0_zaamo1p0_zalrsc1p0_zca1p0_zcd1p0"
	.attribute unaligned_access, 0
	.attribute stack_align, 16
	.text
.Ltext0:
	.cfi_sections	.debug_frame
	.file 0 "/home/kapoagaeming/spacemit-image-builder/components/Build/Milk-V-Jupiter/RELEASE_GCC5/RISCV64/ShellPkg/Library/UefiShellBcfgCommandLib/UefiShellBcfgCommandLib" "/home/kapoagaeming/spacemit-image-builder/components/edk2/ShellPkg/Library/UefiShellBcfgCommandLib/UefiShellBcfgCommandLib.c"
	.section	.rodata.mFileName,"a"
	.align	3
	.type	mFileName, @object
	.size	mFileName, 28
mFileName:
	.string	"S"
	.string	"h"
	.string	"e"
	.string	"l"
	.string	"l"
	.string	"C"
	.string	"o"
	.string	"m"
	.string	"m"
	.string	"a"
	.string	"n"
	.string	"d"
	.string	"s"
	.zero	2
	.section	.bss.gShellBcfgHiiHandle,"aw",@nobits
	.align	3
	.type	gShellBcfgHiiHandle, @object
	.size	gShellBcfgHiiHandle, 8
gShellBcfgHiiHandle:
	.zero	8
	.section	.rodata
	.align	3
.LC0:
	.string	"B"
	.string	"o"
	.string	"o"
	.string	"t"
	.zero	2
	.align	3
.LC1:
	.string	"D"
	.string	"r"
	.string	"i"
	.string	"v"
	.string	"e"
	.string	"r"
	.zero	2
	.align	3
.LC2:
	.string	"%"
	.string	"s"
	.string	"%"
	.string	"0"
	.string	"4"
	.string	"x"
	.zero	2
	.section	.text.UpdateOptionalData,"ax",@progbits
	.align	1
	.globl	UpdateOptionalData
	.type	UpdateOptionalData, @function
UpdateOptionalData:
.LFB0:
	.file 1 "/home/kapoagaeming/spacemit-image-builder/components/edk2/ShellPkg/Library/UefiShellBcfgCommandLib/UefiShellBcfgCommandLib.c"
	.loc 1 95 1
	.cfi_startproc
	addi	sp,sp,-128
	.cfi_def_cfa_offset 128
	sd	ra,120(sp)
	sd	s0,112(sp)
	.cfi_offset 1, -8
	.cfi_offset 8, -16
	addi	s0,sp,128
	.cfi_def_cfa 8, 0
	mv	a5,a0
	sd	a1,-112(s0)
	sd	a2,-120(s0)
	mv	a4,a3
	sh	a5,-98(s0)
	mv	a5,a4
	sw	a5,-104(s0)
	.loc 1 105 3
	lw	a5,-104(s0)
	sext.w	a5,a5
	bne	a5,zero,.L2
	.loc 1 105 3 is_stmt 0 discriminator 1
	lla	a5,.LC0
	j	.L3
.L2:
	.loc 1 105 3 discriminator 2
	lla	a5,.LC1
.L3:
	.loc 1 105 3 discriminator 4
	lhu	a4,-98(s0)
	sext.w	a4,a4
	addi	a0,s0,-88
	mv	a3,a5
	lla	a2,.LC2
	li	a1,24
	call	UnicodeSPrint@plt
	.loc 1 107 16 is_stmt 1
	sd	zero,-96(s0)
	.loc 1 108 16
	sd	zero,-32(s0)
	.loc 1 109 11
	sd	zero,-48(s0)
	.loc 1 110 11
	sd	zero,-40(s0)
	.loc 1 112 15
	la	a5,gRT
	ld	a5,0(a5)
	ld	a5,72(a5)
	.loc 1 112 12
	addi	a3,s0,-96
	addi	a0,s0,-88
	ld	a4,-32(s0)
	li	a2,0
	la	a1,gEfiGlobalVariableGuid
	jalr	a5
.LVL0:
	sd	a0,-24(s0)
	.loc 1 119 6
	ld	a4,-24(s0)
	li	a5,-1
	slli	a5,a5,63
	addi	a5,a5,5
	bne	a4,a5,.L4
	.loc 1 120 20
	ld	a5,-96(s0)
	mv	a0,a5
	call	AllocateZeroPool@plt
	sd	a0,-32(s0)
	.loc 1 121 8
	ld	a5,-32(s0)
	bne	a5,zero,.L5
	.loc 1 122 14
	li	a5,-1
	slli	a5,a5,63
	addi	a5,a5,9
	j	.L12
.L5:
	.loc 1 125 17
	la	a5,gRT
	ld	a5,0(a5)
	ld	a5,72(a5)
	.loc 1 125 14
	addi	a3,s0,-96
	addi	a0,s0,-88
	ld	a4,-32(s0)
	li	a2,0
	la	a1,gEfiGlobalVariableGuid
	jalr	a5
.LVL1:
	sd	a0,-24(s0)
.L4:
	.loc 1 134 7
	ld	a5,-24(s0)
	.loc 1 134 6
	blt	a5,zero,.L7
	.loc 1 140 103
	ld	a5,-32(s0)
	addi	a5,a5,6
	.loc 1 140 51
	mv	a0,a5
	call	StrSize@plt
	mv	a5,a0
	.loc 1 140 13 discriminator 1
	addi	a5,a5,6
	sd	a5,-56(s0)
	.loc 1 142 42
	ld	a5,-32(s0)
	addi	a5,a5,4
	.loc 1 142 17
	lhu	a5,0(a5)
	mv	a4,a5
	.loc 1 142 13
	ld	a5,-56(s0)
	add	a5,a5,a4
	sd	a5,-56(s0)
	.loc 1 144 43
	ld	a4,-96(s0)
	.loc 1 144 28
	ld	a5,-56(s0)
	sub	a5,a4,a5
	sd	a5,-64(s0)
	.loc 1 145 28
	ld	a4,-96(s0)
	ld	a5,-64(s0)
	sub	a5,a4,a5
	.loc 1 145 13
	ld	a4,-112(s0)
	add	a5,a4,a5
	sd	a5,-40(s0)
	.loc 1 146 15
	ld	a0,-40(s0)
	call	AllocatePool@plt
	sd	a0,-48(s0)
	.loc 1 147 8
	ld	a5,-48(s0)
	bne	a5,zero,.L8
	.loc 1 148 14
	li	a5,-1
	slli	a5,a5,63
	addi	a5,a5,9
	sd	a5,-24(s0)
	j	.L7
.L8:
	.loc 1 150 7
	ld	a4,-96(s0)
	ld	a5,-64(s0)
	sub	a5,a4,a5
	mv	a2,a5
	ld	a1,-32(s0)
	ld	a0,-48(s0)
	call	CopyMem@plt
	.loc 1 151 39
	ld	a4,-96(s0)
	ld	a5,-64(s0)
	sub	a5,a4,a5
	ld	a4,-48(s0)
	add	a5,a4,a5
	.loc 1 151 7
	ld	a2,-112(s0)
	ld	a1,-120(s0)
	mv	a0,a5
	call	CopyMem@plt
.L7:
	.loc 1 155 7
	ld	a5,-24(s0)
	.loc 1 155 6
	blt	a5,zero,.L9
	.loc 1 159 17
	la	a5,gRT
	ld	a5,0(a5)
	ld	a5,88(a5)
	.loc 1 159 14
	addi	a0,s0,-88
	ld	a4,-48(s0)
	ld	a3,-40(s0)
	li	a2,7
	la	a1,gEfiGlobalVariableGuid
	jalr	a5
.LVL2:
	sd	a0,-24(s0)
.L9:
	.loc 1 168 11
	ld	a5,-32(s0)
	beq	a5,zero,.L10
	.loc 1 168 46 discriminator 1
	ld	a0,-32(s0)
	call	FreePool@plt
	.loc 1 168 87 discriminator 2
	sd	zero,-32(s0)
.L10:
	.loc 1 169 11
	ld	a5,-48(s0)
	beq	a5,zero,.L11
	.loc 1 169 41 discriminator 1
	ld	a0,-48(s0)
	call	FreePool@plt
	.loc 1 169 72 discriminator 2
	sd	zero,-48(s0)
.L11:
	.loc 1 170 10
	ld	a5,-24(s0)
.L12:
	.loc 1 171 1
	mv	a0,a5
	ld	ra,120(sp)
	.cfi_restore 1
	ld	s0,112(sp)
	.cfi_restore 8
	.cfi_def_cfa 2, 128
	addi	sp,sp,128
	.cfi_def_cfa_offset 0
	jr	ra
	.cfi_endproc
.LFE0:
	.size	UpdateOptionalData, .-UpdateOptionalData
	.section	.rodata
	.align	3
.LC3:
	.string	"%"
	.string	"B"
	.string	"o"
	.string	"o"
	.string	"t"
	.string	"%"
	.string	"0"
	.string	"4"
	.string	"x"
	.zero	2
	.section	.text.GetBootOptionCrc,"ax",@progbits
	.align	1
	.globl	GetBootOptionCrc
	.type	GetBootOptionCrc, @function
GetBootOptionCrc:
.LFB1:
	.loc 1 187 1
	.cfi_startproc
	addi	sp,sp,-80
	.cfi_def_cfa_offset 80
	sd	ra,72(sp)
	sd	s0,64(sp)
	.cfi_offset 1, -8
	.cfi_offset 8, -16
	addi	s0,sp,80
	.cfi_def_cfa 8, 0
	sd	a0,-72(s0)
	mv	a5,a1
	sh	a5,-74(s0)
	.loc 1 193 10
	sd	zero,-32(s0)
	.loc 1 194 14
	sd	zero,-64(s0)
	.loc 1 199 3
	lhu	a5,-74(s0)
	sext.w	a4,a5
	addi	a5,s0,-56
	mv	a3,a4
	lla	a2,.LC3
	li	a1,24
	mv	a0,a5
	call	UnicodeSPrint@plt
	.loc 1 200 15
	la	a5,gRT
	ld	a5,0(a5)
	ld	a5,72(a5)
	.loc 1 200 12
	addi	a3,s0,-64
	addi	a0,s0,-56
	li	a4,0
	li	a2,0
	la	a1,gEfiGlobalVariableGuid
	jalr	a5
.LVL3:
	sd	a0,-24(s0)
	.loc 1 207 6
	ld	a4,-24(s0)
	li	a5,-1
	slli	a5,a5,63
	addi	a5,a5,5
	bne	a4,a5,.L14
	.loc 1 208 14
	ld	a5,-64(s0)
	mv	a0,a5
	call	AllocateZeroPool@plt
	sd	a0,-32(s0)
	.loc 1 209 8
	ld	a5,-32(s0)
	bne	a5,zero,.L15
	.loc 1 210 14
	li	a5,-1
	slli	a5,a5,63
	addi	a5,a5,9
	j	.L19
.L15:
	.loc 1 213 17
	la	a5,gRT
	ld	a5,0(a5)
	ld	a5,72(a5)
	.loc 1 213 14
	addi	a3,s0,-64
	addi	a0,s0,-56
	ld	a4,-32(s0)
	li	a2,0
	la	a1,gEfiGlobalVariableGuid
	jalr	a5
.LVL4:
	sd	a0,-24(s0)
.L14:
	.loc 1 225 7
	ld	a5,-24(s0)
	.loc 1 225 6
	blt	a5,zero,.L17
	.loc 1 226 17
	la	a5,gBS
	ld	a5,0(a5)
	ld	a5,344(a5)
	.loc 1 226 14
	ld	a4,-64(s0)
	ld	a2,-72(s0)
	mv	a1,a4
	ld	a0,-32(s0)
	jalr	a5
.LVL5:
	sd	a0,-24(s0)
.L17:
	.loc 1 229 11
	ld	a5,-32(s0)
	beq	a5,zero,.L18
	.loc 1 229 40 discriminator 1
	ld	a0,-32(s0)
	call	FreePool@plt
	.loc 1 229 69 discriminator 2
	sd	zero,-32(s0)
.L18:
	.loc 1 230 10
	li	a5,0
.L19:
	.loc 1 231 1
	mv	a0,a5
	ld	ra,72(sp)
	.cfi_restore 1
	ld	s0,64(sp)
	.cfi_restore 8
	.cfi_def_cfa 2, 80
	addi	sp,sp,80
	.cfi_def_cfa_offset 0
	jr	ra
	.cfi_endproc
.LFE1:
	.size	GetBootOptionCrc, .-GetBootOptionCrc
	.section	.text.GetDevicePathForDriverHandle,"ax",@progbits
	.align	1
	.globl	GetDevicePathForDriverHandle
	.type	GetDevicePathForDriverHandle, @function
GetDevicePathForDriverHandle:
.LFB2:
	.loc 1 249 1
	.cfi_startproc
	addi	sp,sp,-64
	.cfi_def_cfa_offset 64
	sd	ra,56(sp)
	sd	s0,48(sp)
	.cfi_offset 1, -8
	.cfi_offset 8, -16
	addi	s0,sp,64
	.cfi_def_cfa 8, 0
	sd	a0,-56(s0)
	sd	a1,-64(s0)
	.loc 1 254 15
	la	a5,gBS
	ld	a5,0(a5)
	ld	a6,280(a5)
	.loc 1 254 12
	la	a5,gImageHandle
	ld	a3,0(a5)
	addi	a2,s0,-32
	li	a5,2
	li	a4,0
	la	a1,gEfiLoadedImageProtocolGuid
	ld	a0,-56(s0)
	jalr	a6
.LVL6:
	sd	a0,-24(s0)
	.loc 1 262 7
	ld	a5,-24(s0)
	.loc 1 262 6
	blt	a5,zero,.L21
	.loc 1 263 17
	la	a5,gBS
	ld	a5,0(a5)
	ld	a6,280(a5)
	.loc 1 264 32
	ld	a5,-32(s0)
	.loc 1 263 14
	ld	a0,24(a5)
	la	a5,gImageHandle
	ld	a3,0(a5)
	addi	a2,s0,-40
	li	a5,2
	li	a4,0
	la	a1,gEfiDevicePathProtocolGuid
	jalr	a6
.LVL7:
	sd	a0,-24(s0)
	.loc 1 271 9
	ld	a5,-24(s0)
	.loc 1 271 8
	blt	a5,zero,.L22
	.loc 1 274 19
	ld	a4,-40(s0)
	.loc 1 274 65
	ld	a5,-32(s0)
	ld	a5,32(a5)
	.loc 1 274 19
	mv	a1,a5
	mv	a0,a4
	call	AppendDevicePath@plt
	mv	a4,a0
	.loc 1 274 17 discriminator 1
	ld	a5,-64(s0)
	sd	a4,0(a5)
	.loc 1 275 10
	la	a5,gBS
	ld	a5,0(a5)
	ld	a5,288(a5)
	.loc 1 276 25
	ld	a4,-32(s0)
	.loc 1 275 7
	ld	a0,24(a4)
	la	a4,gImageHandle
	ld	a4,0(a4)
	li	a3,0
	mv	a2,a4
	la	a1,gEfiDevicePathProtocolGuid
	jalr	a5
.LVL8:
.L22:
	.loc 1 283 8
	la	a5,gBS
	ld	a5,0(a5)
	ld	a5,288(a5)
	.loc 1 283 5
	la	a4,gImageHandle
	ld	a4,0(a4)
	li	a3,0
	mv	a2,a4
	la	a1,gEfiLoadedImageProtocolGuid
	ld	a0,-56(s0)
	jalr	a5
.LVL9:
.L21:
	.loc 1 291 10
	ld	a5,-24(s0)
	.loc 1 292 1
	mv	a0,a5
	ld	ra,56(sp)
	.cfi_restore 1
	ld	s0,48(sp)
	.cfi_restore 8
	.cfi_def_cfa 2, 64
	addi	sp,sp,64
	.cfi_def_cfa_offset 0
	jr	ra
	.cfi_endproc
.LFE2:
	.size	GetDevicePathForDriverHandle, .-GetDevicePathForDriverHandle
	.section	.rodata
	.align	3
.LC4:
	.string	"H"
	.string	"a"
	.string	"n"
	.string	"d"
	.string	"l"
	.string	"e"
	.string	" "
	.string	"N"
	.string	"u"
	.string	"m"
	.string	"b"
	.string	"e"
	.string	"r"
	.zero	2
	.align	3
.LC5:
	.string	"b"
	.string	"c"
	.string	"f"
	.string	"g"
	.zero	2
	.align	3
.LC6:
	.string	"H"
	.string	"a"
	.string	"n"
	.string	"d"
	.string	"l"
	.string	"e"
	.string	" "
	.string	"s"
	.string	"h"
	.string	"o"
	.string	"u"
	.string	"l"
	.string	"d"
	.string	" "
	.string	"p"
	.string	"o"
	.string	"i"
	.string	"n"
	.string	"t"
	.string	" "
	.string	"t"
	.string	"o"
	.string	" "
	.string	"d"
	.string	"r"
	.string	"i"
	.string	"v"
	.string	"e"
	.string	"r"
	.string	" "
	.string	"i"
	.string	"m"
	.string	"a"
	.string	"g"
	.string	"e"
	.string	"."
	.zero	2
	.align	3
.LC7:
	.string	"H"
	.string	"a"
	.string	"n"
	.string	"d"
	.string	"l"
	.string	"e"
	.string	" "
	.string	"s"
	.string	"h"
	.string	"o"
	.string	"u"
	.string	"l"
	.string	"d"
	.string	" "
	.string	"p"
	.string	"o"
	.string	"i"
	.string	"n"
	.string	"t"
	.string	" "
	.string	"t"
	.string	"o"
	.string	" "
	.string	"c"
	.string	"o"
	.string	"n"
	.string	"t"
	.string	"r"
	.string	"o"
	.string	"l"
	.string	"l"
	.string	"e"
	.string	"r"
	.string	"."
	.zero	2
	.section	.text.GetDevicePathByHandle,"ax",@progbits
	.align	1
	.globl	GetDevicePathByHandle
	.type	GetDevicePathByHandle, @function
GetDevicePathByHandle:
.LFB3:
	.loc 1 311 1
	.cfi_startproc
	addi	sp,sp,-96
	.cfi_def_cfa_offset 96
	sd	ra,88(sp)
	sd	s0,80(sp)
	.cfi_offset 1, -8
	.cfi_offset 8, -16
	addi	s0,sp,96
	.cfi_def_cfa 8, 0
	sd	a0,-72(s0)
	mv	a5,a1
	sd	a2,-88(s0)
	sw	a5,-76(s0)
	.loc 1 319 15
	sw	zero,-20(s0)
	.loc 1 321 6
	ld	a5,-72(s0)
	bne	a5,zero,.L25
	.loc 1 322 5
	lla	a5,gShellBcfgHiiHandle
	ld	a4,0(a5)
	lla	a6,.LC4
	lla	a5,.LC5
	li	a3,5
	li	a2,0
	li	a1,-1
	li	a0,-1
	call	ShellPrintHiiEx@plt
	.loc 1 323 12
	li	a5,2
	j	.L35
.L25:
	.loc 1 326 12
	addi	a5,s0,-40
	li	a4,0
	mv	a3,a5
	li	a2,12
	ld	a1,-72(s0)
	li	a0,0
	call	ParseHandleDatabaseByRelationship@plt
	sd	a0,-32(s0)
	.loc 1 327 34
	ld	a5,-32(s0)
	.loc 1 327 6
	bge	a5,zero,.L27
	.loc 1 328 30
	sd	zero,-40(s0)
.L27:
	.loc 1 331 12
	addi	a5,s0,-48
	li	a4,0
	mv	a3,a5
	li	a2,512
	ld	a1,-72(s0)
	li	a0,0
	call	ParseHandleDatabaseByRelationship@plt
	sd	a0,-32(s0)
	.loc 1 332 34
	ld	a5,-32(s0)
	.loc 1 332 6
	bge	a5,zero,.L28
	.loc 1 333 33
	sd	zero,-48(s0)
.L28:
	.loc 1 336 12
	addi	a5,s0,-56
	li	a2,0
	mv	a1,a5
	ld	a0,-72(s0)
	call	ParseHandleDatabaseForChildControllers@plt
	sd	a0,-32(s0)
	.loc 1 337 34
	ld	a5,-32(s0)
	.loc 1 337 6
	bge	a5,zero,.L29
	.loc 1 338 32
	sd	zero,-56(s0)
.L29:
	.loc 1 341 15
	la	a5,gBS
	ld	a5,0(a5)
	ld	a5,152(a5)
	.loc 1 341 12
	ld	a2,-88(s0)
	la	a1,gEfiDevicePathProtocolGuid
	ld	a0,-72(s0)
	jalr	a5
.LVL10:
	sd	a0,-32(s0)
	.loc 1 343 33
	ld	a5,-40(s0)
	.loc 1 343 6
	bne	a5,zero,.L30
	.loc 1 344 36
	ld	a5,-48(s0)
	.loc 1 343 38 discriminator 1
	bne	a5,zero,.L30
	.loc 1 345 35
	ld	a5,-56(s0)
	.loc 1 344 41
	bne	a5,zero,.L30
	.loc 1 346 7
	ld	a5,-32(s0)
	.loc 1 345 40
	blt	a5,zero,.L31
.L30:
	.loc 1 352 8
	lw	a5,-76(s0)
	sext.w	a4,a5
	li	a5,1
	bne	a4,a5,.L33
	.loc 1 353 7
	lla	a5,gShellBcfgHiiHandle
	ld	a4,0(a5)
	lla	a6,.LC6
	lla	a5,.LC5
	li	a3,5
	li	a2,0
	li	a1,-1
	li	a0,-1
	call	ShellPrintHiiEx@plt
	.loc 1 362 19
	li	a5,14
	sw	a5,-20(s0)
	.loc 1 352 8
	j	.L33
.L31:
	.loc 1 368 8
	lw	a5,-76(s0)
	sext.w	a5,a5
	bne	a5,zero,.L34
	.loc 1 369 7
	lla	a5,gShellBcfgHiiHandle
	ld	a4,0(a5)
	lla	a6,.LC7
	lla	a5,.LC5
	li	a3,5
	li	a2,0
	li	a1,-1
	li	a0,-1
	call	ShellPrintHiiEx@plt
	.loc 1 378 19
	li	a5,14
	sw	a5,-20(s0)
	j	.L33
.L34:
	.loc 1 380 29
	ld	a1,-88(s0)
	ld	a0,-72(s0)
	call	GetDevicePathForDriverHandle
	mv	a5,a0
	.loc 1 380 10 discriminator 1
	bge	a5,zero,.L33
	.loc 1 381 21
	li	a5,14
	sw	a5,-20(s0)
.L33:
	.loc 1 386 10
	lw	a5,-20(s0)
.L35:
	.loc 1 387 1
	mv	a0,a5
	ld	ra,88(sp)
	.cfi_restore 1
	ld	s0,80(sp)
	.cfi_restore 8
	.cfi_def_cfa 2, 96
	addi	sp,sp,96
	.cfi_def_cfa_offset 0
	jr	ra
	.cfi_endproc
.LFE3:
	.size	GetDevicePathByHandle, .-GetDevicePathByHandle
	.section	.rodata
	.align	3
.LC8:
	.string	"B"
	.string	"o"
	.string	"o"
	.string	"t"
	.string	"%"
	.string	"0"
	.string	"4"
	.string	"x"
	.zero	2
	.align	3
.LC9:
	.string	"D"
	.string	"r"
	.string	"i"
	.string	"v"
	.string	"e"
	.string	"r"
	.string	"%"
	.string	"0"
	.string	"4"
	.string	"x"
	.zero	2
	.section	.text.BcfgMod,"ax",@progbits
	.align	1
	.globl	BcfgMod
	.type	BcfgMod, @function
BcfgMod:
.LFB4:
	.loc 1 404 1
	.cfi_startproc
	addi	sp,sp,-272
	.cfi_def_cfa_offset 272
	sd	ra,264(sp)
	sd	s0,256(sp)
	.cfi_offset 1, -8
	.cfi_offset 8, -16
	addi	s0,sp,272
	.cfi_def_cfa 8, 0
	sd	a0,-264(s0)
	sd	a1,-272(s0)
	.loc 1 416 15
	sw	zero,-20(s0)
	.loc 1 417 12
	sd	zero,-152(s0)
	.loc 1 418 14
	sd	zero,-32(s0)
	.loc 1 419 20
	sd	zero,-160(s0)
	.loc 1 421 3
	addi	a5,s0,-248
	li	a1,88
	mv	a0,a5
	call	ZeroMem@plt
	.loc 1 423 22
	ld	a5,-264(s0)
	lw	a4,4(a5)
	.loc 1 423 6
	li	a5,7
	bne	a4,a5,.L37
	.loc 1 423 62 discriminator 1
	ld	a5,-264(s0)
	ld	a5,32(a5)
	.loc 1 423 45 discriminator 1
	beq	a5,zero,.L38
.L37:
	.loc 1 424 22
	ld	a5,-264(s0)
	lw	a4,4(a5)
	.loc 1 423 94 discriminator 3
	li	a5,8
	bne	a4,a5,.L39
	.loc 1 424 63
	ld	a5,-264(s0)
	ld	a5,24(a5)
	.loc 1 424 46
	beq	a5,zero,.L38
.L39:
	.loc 1 425 22
	ld	a5,-264(s0)
	lw	a4,4(a5)
	.loc 1 424 92 discriminator 1
	li	a5,9
	bne	a4,a5,.L40
	.loc 1 425 63
	ld	a5,-264(s0)
	ld	a5,24(a5)
	.loc 1 425 46
	beq	a5,zero,.L38
.L40:
	.loc 1 426 22
	ld	a5,-264(s0)
	lw	a4,4(a5)
	.loc 1 425 92 discriminator 1
	li	a5,10
	bne	a4,a5,.L41
	.loc 1 426 63
	ld	a5,-264(s0)
	ld	a5,16(a5)
	.loc 1 426 46
	beq	a5,zero,.L38
.L41:
	.loc 1 427 21
	ld	a5,-264(s0)
	lhu	a5,8(a5)
	mv	a4,a5
	.loc 1 426 84 discriminator 1
	ld	a5,-272(s0)
	bgeu	a5,a4,.L42
.L38:
	.loc 1 430 12
	li	a5,2
	j	.L70
.L42:
	.loc 1 433 20
	ld	a5,-264(s0)
	lw	a4,4(a5)
	.loc 1 433 6
	li	a5,10
	bne	a4,a5,.L44
	.loc 1 434 17
	ld	a5,-264(s0)
	ld	a5,16(a5)
	mv	a0,a5
	call	ConvertHandleIndexToHandle@plt
	sd	a0,-56(s0)
	.loc 1 435 8
	ld	a5,-56(s0)
	bne	a5,zero,.L45
	.loc 1 436 7
	lla	a5,gShellBcfgHiiHandle
	ld	a4,0(a5)
	lla	a6,.LC4
	lla	a5,.LC5
	li	a3,5
	li	a2,0
	li	a1,-1
	li	a0,-1
	call	ShellPrintHiiEx@plt
	.loc 1 437 14
	li	a5,2
	j	.L70
.L45:
	.loc 1 440 66
	ld	a5,-264(s0)
	lw	a5,0(a5)
	.loc 1 440 19
	addi	a4,s0,-160
	mv	a2,a4
	mv	a1,a5
	ld	a0,-56(s0)
	call	GetDevicePathByHandle
	mv	a5,a0
	sw	a5,-20(s0)
	.loc 1 441 8
	lw	a5,-20(s0)
	sext.w	a5,a5
	bne	a5,zero,.L46
	.loc 1 442 20
	ld	a5,-160(s0)
	mv	a0,a5
	call	DuplicateDevicePath@plt
	sd	a0,-32(s0)
	j	.L46
.L44:
	.loc 1 444 28
	ld	a5,-264(s0)
	lw	a4,4(a5)
	.loc 1 444 13
	li	a5,8
	beq	a4,a5,.L47
	.loc 1 444 69 discriminator 1
	ld	a5,-264(s0)
	lw	a4,4(a5)
	.loc 1 444 52 discriminator 1
	li	a5,9
	bne	a4,a5,.L46
.L47:
	.loc 1 448 50
	ld	a5,-264(s0)
	ld	a5,24(a5)
	.loc 1 448 5
	addi	a4,s0,-152
	mv	a2,a4
	li	a1,1
	mv	a0,a5
	call	ShellOpenFileMetaArg@plt
	.loc 1 449 18
	ld	a5,-152(s0)
	.loc 1 449 8
	bne	a5,zero,.L48
	.loc 1 453 7
	lla	a5,gShellBcfgHiiHandle
	ld	a4,0(a5)
	.loc 1 453 97
	ld	a5,-264(s0)
	ld	a5,24(a5)
	.loc 1 453 7
	mv	a6,a5
	lla	a5,.LC5
	li	a3,10
	li	a2,0
	li	a1,-1
	li	a0,-1
	call	ShellPrintHiiEx@plt
	.loc 1 454 19
	li	a5,2
	sw	a5,-20(s0)
	j	.L49
.L48:
	.loc 1 455 24
	ld	a5,-152(s0)
	.loc 1 455 30
	ld	a4,0(a5)
	.loc 1 455 54
	ld	a5,-152(s0)
	.loc 1 455 60
	ld	a5,8(a5)
	.loc 1 455 15
	beq	a4,a5,.L50
	.loc 1 459 7
	lla	a5,gShellBcfgHiiHandle
	ld	a4,0(a5)
	.loc 1 459 97
	ld	a5,-264(s0)
	ld	a5,24(a5)
	.loc 1 459 7
	mv	a6,a5
	lla	a5,.LC5
	li	a3,17
	li	a2,0
	li	a1,-1
	li	a0,-1
	call	ShellPrintHiiEx@plt
	.loc 1 460 19
	li	a5,2
	sw	a5,-20(s0)
	j	.L49
.L50:
	.loc 1 462 59
	ld	a5,-152(s0)
	.loc 1 462 36
	mv	a0,a5
	call	GetFirstNode@plt
	sd	a0,-48(s0)
	.loc 1 463 32
	ld	a5,-48(s0)
	ld	a5,16(a5)
	.loc 1 463 10
	bge	a5,zero,.L51
	.loc 1 464 9
	lla	a5,gShellBcfgHiiHandle
	ld	a4,0(a5)
	.loc 1 464 99
	ld	a5,-264(s0)
	ld	a5,24(a5)
	.loc 1 464 9
	mv	a6,a5
	lla	a5,.LC5
	li	a3,18
	li	a2,0
	li	a1,-1
	li	a0,-1
	call	ShellPrintHiiEx@plt
	.loc 1 465 21
	li	a5,2
	sw	a5,-20(s0)
	j	.L49
.L51:
	.loc 1 467 45
	la	a5,gEfiShellProtocol
	ld	a5,0(a5)
	ld	a5,64(a5)
	.loc 1 467 28
	ld	a4,-48(s0)
	ld	a4,24(a4)
	mv	a0,a4
	jalr	a5
.LVL11:
	mv	a5,a0
	.loc 1 467 26 discriminator 1
	sd	a5,-160(s0)
	.loc 1 468 30
	ld	a5,-160(s0)
	.loc 1 468 12
	bne	a5,zero,.L49
	.loc 1 469 11
	lla	a5,gShellBcfgHiiHandle
	ld	a4,0(a5)
	ld	a5,-48(s0)
	ld	a5,24(a5)
	mv	a6,a5
	lla	a5,.LC5
	li	a3,19
	li	a2,0
	li	a1,-1
	li	a0,-1
	call	ShellPrintHiiEx@plt
	.loc 1 470 23
	li	a5,3
	sw	a5,-20(s0)
.L49:
	.loc 1 475 8
	lw	a5,-20(s0)
	sext.w	a5,a5
	bne	a5,zero,.L46
	.loc 1 476 24
	ld	a5,-264(s0)
	lw	a4,4(a5)
	.loc 1 476 10
	li	a5,9
	bne	a4,a5,.L52
	.loc 1 477 21
	li	a5,2
	sw	a5,-20(s0)
	.loc 1 478 26
	ld	a5,-160(s0)
	sd	a5,-40(s0)
	.loc 1 479 15
	j	.L53
.L56:
	.loc 1 480 16
	ld	a0,-40(s0)
	call	DevicePathType@plt
	mv	a5,a0
	.loc 1 480 14 discriminator 1
	mv	a4,a5
	li	a5,4
	bne	a4,a5,.L54
	.loc 1 481 16
	ld	a0,-40(s0)
	call	DevicePathSubType@plt
	mv	a5,a0
	.loc 1 480 59 discriminator 2
	mv	a4,a5
	li	a5,1
	bne	a4,a5,.L54
	.loc 1 487 25
	sw	zero,-20(s0)
	.loc 1 488 26
	ld	a0,-40(s0)
	call	DuplicateDevicePath@plt
	sd	a0,-32(s0)
	.loc 1 489 13
	j	.L57
.L54:
	.loc 1 491 32
	ld	a0,-40(s0)
	call	NextDevicePathNode@plt
	sd	a0,-40(s0)
.L53:
	.loc 1 479 17
	ld	a0,-40(s0)
	call	IsDevicePathEnd@plt
	mv	a5,a0
	.loc 1 479 16 discriminator 1
	beq	a5,zero,.L56
	j	.L57
.L52:
	.loc 1 495 22
	ld	a5,-160(s0)
	mv	a0,a5
	call	DuplicateDevicePath@plt
	sd	a0,-32(s0)
.L57:
	.loc 1 498 7
	ld	a5,-160(s0)
	mv	a0,a5
	call	FreePool@plt
.L46:
	.loc 1 502 6
	lw	a5,-20(s0)
	sext.w	a5,a5
	bne	a5,zero,.L58
	.loc 1 503 22
	ld	a5,-264(s0)
	lw	a5,0(a5)
	.loc 1 503 8
	bne	a5,zero,.L59
	.loc 1 504 79
	ld	a5,-264(s0)
	ld	a4,40(a5)
	.loc 1 504 100
	ld	a5,-264(s0)
	lhu	a5,8(a5)
	.loc 1 504 86
	slli	a5,a5,1
	add	a5,a4,a5
	lhu	a5,0(a5)
	.loc 1 504 7
	sext.w	a4,a5
	addi	a5,s0,-144
	mv	a3,a4
	lla	a2,.LC8
	li	a1,80
	mv	a0,a5
	call	UnicodeSPrint@plt
	j	.L60
.L59:
	.loc 1 506 81
	ld	a5,-264(s0)
	ld	a4,40(a5)
	.loc 1 506 102
	ld	a5,-264(s0)
	lhu	a5,8(a5)
	.loc 1 506 88
	slli	a5,a5,1
	add	a5,a4,a5
	lhu	a5,0(a5)
	.loc 1 506 7
	sext.w	a4,a5
	addi	a5,s0,-144
	mv	a3,a4
	lla	a2,.LC9
	li	a1,80
	mv	a0,a5
	call	UnicodeSPrint@plt
.L60:
	.loc 1 509 14
	addi	a4,s0,-248
	addi	a5,s0,-144
	mv	a1,a4
	mv	a0,a5
	call	EfiBootManagerVariableToLoadOption@plt
	sd	a0,-64(s0)
	.loc 1 510 36
	ld	a5,-64(s0)
	.loc 1 510 8
	bge	a5,zero,.L58
	.loc 1 511 7
	lla	a5,gShellBcfgHiiHandle
	ld	a5,0(a5)
	mv	a4,a5
	li	a3,25
	li	a2,0
	li	a1,-1
	li	a0,-1
	call	ShellPrintHiiEx@plt
	.loc 1 512 19
	li	a5,14
	sw	a5,-20(s0)
.L58:
	.loc 1 516 6
	lw	a5,-20(s0)
	sext.w	a5,a5
	bne	a5,zero,.L61
	.loc 1 517 22
	ld	a5,-264(s0)
	lw	a4,4(a5)
	.loc 1 517 8
	li	a5,7
	bne	a4,a5,.L62
	.loc 1 518 27
	ld	a5,-232(s0)
	.loc 1 518 15
	beq	a5,zero,.L63
	.loc 1 518 80 discriminator 1
	ld	a5,-232(s0)
	.loc 1 518 60 discriminator 1
	mv	a0,a5
	call	FreePool@plt
	.loc 1 518 121 discriminator 2
	sd	zero,-232(s0)
.L63:
	.loc 1 519 72
	ld	a5,-264(s0)
	ld	a5,32(a5)
	.loc 1 519 32
	mv	a0,a5
	call	StrSize@plt
	mv	a4,a0
	.loc 1 519 101 discriminator 1
	ld	a5,-264(s0)
	ld	a5,32(a5)
	.loc 1 519 32 discriminator 1
	mv	a1,a5
	mv	a0,a4
	call	AllocateCopyPool@plt
	mv	a5,a0
	.loc 1 519 30 discriminator 2
	sd	a5,-232(s0)
	j	.L64
.L62:
	.loc 1 521 27
	ld	a5,-224(s0)
	.loc 1 521 15
	beq	a5,zero,.L65
	.loc 1 521 77 discriminator 1
	ld	a5,-224(s0)
	.loc 1 521 57 discriminator 1
	mv	a0,a5
	call	FreePool@plt
	.loc 1 521 112 discriminator 2
	sd	zero,-224(s0)
.L65:
	.loc 1 522 10
	ld	a5,-32(s0)
	beq	a5,zero,.L66
	.loc 1 523 31
	ld	a0,-32(s0)
	call	DuplicateDevicePath@plt
	mv	a5,a0
	.loc 1 523 29 discriminator 1
	sd	a5,-224(s0)
	j	.L64
.L66:
	.loc 1 525 9
	lla	a5,gShellBcfgHiiHandle
	ld	a4,0(a5)
	addi	a5,s0,-144
	mv	a6,a5
	lla	a5,.LC5
	li	a3,9
	li	a2,0
	li	a1,-1
	li	a0,-1
	call	ShellPrintHiiEx@plt
	.loc 1 526 9
	j	.L67
.L64:
	.loc 1 530 14
	addi	a5,s0,-248
	mv	a0,a5
	call	EfiBootManagerLoadOptionToVariable@plt
	sd	a0,-64(s0)
	.loc 1 531 36
	ld	a5,-64(s0)
	.loc 1 531 8
	bge	a5,zero,.L61
	.loc 1 532 7
	lla	a5,gShellBcfgHiiHandle
	ld	a4,0(a5)
	addi	a5,s0,-144
	mv	a6,a5
	lla	a5,.LC5
	li	a3,22
	li	a2,0
	li	a1,-1
	li	a0,-1
	call	ShellPrintHiiEx@plt
	.loc 1 533 19
	li	a5,2
	sw	a5,-20(s0)
.L61:
	.loc 1 537 3
	addi	a5,s0,-248
	mv	a0,a5
	call	EfiBootManagerFreeLoadOption@plt
.L67:
	.loc 1 541 6
	ld	a5,-32(s0)
	beq	a5,zero,.L68
	.loc 1 542 5
	ld	a0,-32(s0)
	call	FreePool@plt
.L68:
	.loc 1 545 16
	ld	a5,-152(s0)
	.loc 1 545 6
	beq	a5,zero,.L69
	.loc 1 546 5
	addi	a5,s0,-152
	mv	a0,a5
	call	ShellCloseFileMetaArg@plt
.L69:
	.loc 1 549 10
	lw	a5,-20(s0)
.L70:
	.loc 1 550 1
	mv	a0,a5
	ld	ra,264(sp)
	.cfi_restore 1
	ld	s0,256(sp)
	.cfi_restore 8
	.cfi_def_cfa 2, 272
	addi	sp,sp,272
	.cfi_def_cfa_offset 0
	jr	ra
	.cfi_endproc
.LFE4:
	.size	BcfgMod, .-BcfgMod
	.section	.rodata
	.align	3
.LC10:
	.string	"B"
	.string	"o"
	.string	"o"
	.string	"t"
	.string	"O"
	.string	"r"
	.string	"d"
	.string	"e"
	.string	"r"
	.zero	2
	.align	3
.LC11:
	.string	"D"
	.string	"r"
	.string	"i"
	.string	"v"
	.string	"e"
	.string	"r"
	.string	"O"
	.string	"r"
	.string	"d"
	.string	"e"
	.string	"r"
	.zero	2
	.align	3
.LC12:
	.string	"b"
	.string	"c"
	.string	"f"
	.string	"g"
	.string	":"
	.string	" "
	.string	"A"
	.string	"d"
	.string	"d"
	.string	" "
	.string	"%"
	.string	"s"
	.string	" "
	.string	"a"
	.string	"s"
	.string	" "
	.string	"%"
	.string	"x"
	.string	"\n"
	.zero	2
	.section	.text.BcfgAdd,"ax",@progbits
	.align	1
	.globl	BcfgAdd
	.type	BcfgAdd, @function
BcfgAdd:
.LFB5:
	.loc 1 580 1
	.cfi_startproc
	addi	sp,sp,-320
	.cfi_def_cfa_offset 320
	sd	ra,312(sp)
	sd	s0,304(sp)
	.cfi_offset 1, -8
	.cfi_offset 8, -16
	addi	s0,sp,320
	.cfi_def_cfa 8, 0
	sd	a0,-280(s0)
	sd	a1,-288(s0)
	sd	a2,-296(s0)
	sd	a3,-304(s0)
	sd	a4,-312(s0)
	mv	a3,a6
	mv	a4,a7
	sw	a5,-316(s0)
	mv	a5,a3
	sb	a5,-317(s0)
	mv	a5,a4
	sb	a5,-318(s0)
	.loc 1 603 6
	lbu	a5,-317(s0)
	andi	a5,a5,0xff
	bne	a5,zero,.L72
	.loc 1 604 8
	ld	a5,-288(s0)
	beq	a5,zero,.L73
	.loc 1 604 32 discriminator 1
	ld	a5,-296(s0)
	bne	a5,zero,.L74
.L73:
	.loc 1 605 14
	li	a5,2
	j	.L125
.L72:
	.loc 1 608 8
	ld	a5,0(s0)
	bne	a5,zero,.L74
	.loc 1 609 14
	li	a5,2
	j	.L125
.L74:
	.loc 1 613 6
	ld	a4,-280(s0)
	ld	a5,-312(s0)
	bleu	a4,a5,.L76
	.loc 1 614 14
	ld	a5,-312(s0)
	sd	a5,-280(s0)
.L76:
	.loc 1 617 7
	sd	zero,-88(s0)
	.loc 1 618 12
	sd	zero,-152(s0)
	.loc 1 619 12
	sd	zero,-160(s0)
	.loc 1 620 11
	sd	zero,-96(s0)
	.loc 1 621 15
	sw	zero,-76(s0)
	.loc 1 622 18
	li	a5,65536
	addi	a5,a5,-1
	sd	a5,-64(s0)
	.loc 1 624 6
	lbu	a5,-317(s0)
	andi	a5,a5,0xff
	beq	a5,zero,.L77
	.loc 1 625 17
	ld	a0,0(s0)
	call	ConvertHandleIndexToHandle@plt
	sd	a0,-120(s0)
	.loc 1 626 8
	ld	a5,-120(s0)
	bne	a5,zero,.L78
	.loc 1 627 7
	lla	a5,gShellBcfgHiiHandle
	ld	a4,0(a5)
	lla	a6,.LC4
	lla	a5,.LC5
	li	a3,5
	li	a2,0
	li	a1,-1
	li	a0,-1
	call	ShellPrintHiiEx@plt
	.loc 1 628 19
	li	a5,2
	sw	a5,-76(s0)
	j	.L85
.L78:
	.loc 1 630 10
	lw	a5,-316(s0)
	sext.w	a5,a5
	bne	a5,zero,.L80
	.loc 1 634 18
	addi	a5,s0,-248
	li	a4,0
	mv	a3,a5
	li	a2,12
	ld	a1,-120(s0)
	li	a0,0
	call	ParseHandleDatabaseByRelationship@plt
	sd	a0,-24(s0)
	.loc 1 640 18
	addi	a5,s0,-256
	li	a4,0
	mv	a3,a5
	li	a2,512
	ld	a1,-120(s0)
	li	a0,0
	call	ParseHandleDatabaseByRelationship@plt
	sd	a0,-24(s0)
	.loc 1 646 18
	addi	a5,s0,-264
	li	a2,0
	mv	a1,a5
	ld	a0,-120(s0)
	call	ParseHandleDatabaseForChildControllers@plt
	sd	a0,-24(s0)
	.loc 1 652 40
	ld	a5,-248(s0)
	.loc 1 652 12
	bne	a5,zero,.L81
	.loc 1 653 44
	ld	a5,-256(s0)
	.loc 1 653 12
	bne	a5,zero,.L81
	.loc 1 654 43
	ld	a5,-264(s0)
	.loc 1 654 12
	beq	a5,zero,.L82
.L81:
	.loc 1 656 20
	sd	zero,-152(s0)
	.loc 1 657 23
	la	a5,gBS
	ld	a5,0(a5)
	ld	a5,152(a5)
	.loc 1 657 20
	addi	a4,s0,-152
	mv	a2,a4
	la	a1,gEfiDevicePathProtocolGuid
	ld	a0,-120(s0)
	jalr	a5
.LVL12:
	sd	a0,-24(s0)
.L82:
	.loc 1 664 40
	ld	a5,-24(s0)
	.loc 1 664 12
	bge	a5,zero,.L85
	.loc 1 665 11
	lla	a5,gShellBcfgHiiHandle
	ld	a4,0(a5)
	ld	a6,0(s0)
	lla	a5,.LC5
	li	a3,16
	li	a2,0
	li	a1,-1
	li	a0,-1
	call	ShellPrintHiiEx@plt
	.loc 1 666 23
	li	a5,2
	sw	a5,-76(s0)
	j	.L85
.L80:
	.loc 1 672 18
	addi	a5,s0,-248
	li	a4,0
	mv	a3,a5
	li	a2,12
	ld	a1,-120(s0)
	li	a0,0
	call	ParseHandleDatabaseByRelationship@plt
	sd	a0,-24(s0)
	.loc 1 678 18
	addi	a5,s0,-256
	li	a4,0
	mv	a3,a5
	li	a2,512
	ld	a1,-120(s0)
	li	a0,0
	call	ParseHandleDatabaseByRelationship@plt
	sd	a0,-24(s0)
	.loc 1 684 18
	addi	a5,s0,-264
	li	a2,0
	mv	a1,a5
	ld	a0,-120(s0)
	call	ParseHandleDatabaseForChildControllers@plt
	sd	a0,-24(s0)
	.loc 1 690 21
	la	a5,gBS
	ld	a5,0(a5)
	ld	a5,152(a5)
	.loc 1 690 18
	addi	a4,s0,-152
	mv	a2,a4
	la	a1,gEfiDevicePathProtocolGuid
	ld	a0,-120(s0)
	jalr	a5
.LVL13:
	sd	a0,-24(s0)
	.loc 1 696 40
	ld	a5,-248(s0)
	.loc 1 696 12
	bne	a5,zero,.L83
	.loc 1 697 44
	ld	a5,-256(s0)
	.loc 1 697 12
	bne	a5,zero,.L83
	.loc 1 698 43
	ld	a5,-264(s0)
	.loc 1 698 12
	bne	a5,zero,.L83
	.loc 1 699 15
	ld	a5,-24(s0)
	.loc 1 699 12
	blt	a5,zero,.L84
.L83:
	.loc 1 701 11
	lla	a5,gShellBcfgHiiHandle
	ld	a4,0(a5)
	lla	a6,.LC4
	lla	a5,.LC5
	li	a3,5
	li	a2,0
	li	a1,-1
	li	a0,-1
	call	ShellPrintHiiEx@plt
	.loc 1 702 23
	li	a5,2
	sw	a5,-76(s0)
	j	.L85
.L84:
	.loc 1 707 20
	addi	a5,s0,-152
	mv	a1,a5
	ld	a0,-120(s0)
	call	GetDevicePathForDriverHandle
	sd	a0,-24(s0)
	j	.L85
.L77:
	.loc 1 715 5
	addi	a5,s0,-160
	mv	a2,a5
	li	a1,1
	ld	a0,-288(s0)
	call	ShellOpenFileMetaArg@plt
	.loc 1 717 18
	ld	a5,-160(s0)
	.loc 1 717 8
	bne	a5,zero,.L86
	.loc 1 721 7
	lla	a5,gShellBcfgHiiHandle
	ld	a4,0(a5)
	ld	a6,-288(s0)
	lla	a5,.LC5
	li	a3,10
	li	a2,0
	li	a1,-1
	li	a0,-1
	call	ShellPrintHiiEx@plt
	.loc 1 722 19
	li	a5,2
	sw	a5,-76(s0)
	j	.L85
.L86:
	.loc 1 723 24
	ld	a5,-160(s0)
	.loc 1 723 30
	ld	a4,0(a5)
	.loc 1 723 54
	ld	a5,-160(s0)
	.loc 1 723 60
	ld	a5,8(a5)
	.loc 1 723 15
	beq	a4,a5,.L87
	.loc 1 727 7
	lla	a5,gShellBcfgHiiHandle
	ld	a4,0(a5)
	ld	a6,-288(s0)
	lla	a5,.LC5
	li	a3,17
	li	a2,0
	li	a1,-1
	li	a0,-1
	call	ShellPrintHiiEx@plt
	.loc 1 728 19
	li	a5,2
	sw	a5,-76(s0)
	j	.L85
.L87:
	.loc 1 730 59
	ld	a5,-160(s0)
	.loc 1 730 36
	mv	a0,a5
	call	GetFirstNode@plt
	sd	a0,-104(s0)
	.loc 1 731 32
	ld	a5,-104(s0)
	ld	a5,16(a5)
	.loc 1 731 10
	bge	a5,zero,.L88
	.loc 1 732 9
	lla	a5,gShellBcfgHiiHandle
	ld	a4,0(a5)
	ld	a6,-288(s0)
	lla	a5,.LC5
	li	a3,18
	li	a2,0
	li	a1,-1
	li	a0,-1
	call	ShellPrintHiiEx@plt
	.loc 1 733 21
	li	a5,2
	sw	a5,-76(s0)
	j	.L85
.L88:
	.loc 1 742 39
	la	a5,gEfiShellProtocol
	ld	a5,0(a5)
	ld	a5,64(a5)
	.loc 1 742 22
	ld	a4,-104(s0)
	ld	a4,24(a4)
	mv	a0,a4
	jalr	a5
.LVL14:
	sd	a0,-112(s0)
	.loc 1 743 12
	ld	a5,-112(s0)
	bne	a5,zero,.L89
	.loc 1 744 11
	lla	a5,gShellBcfgHiiHandle
	ld	a4,0(a5)
	ld	a5,-104(s0)
	ld	a5,24(a5)
	mv	a6,a5
	lla	a5,.LC5
	li	a3,19
	li	a2,0
	li	a1,-1
	li	a0,-1
	call	ShellPrintHiiEx@plt
	.loc 1 745 23
	li	a5,3
	sw	a5,-76(s0)
	j	.L85
.L89:
	.loc 1 747 14
	lbu	a5,-318(s0)
	andi	a5,a5,0xff
	beq	a5,zero,.L90
	.loc 1 748 21
	ld	a5,-112(s0)
	sd	a5,-32(s0)
	.loc 1 749 25
	li	a5,2
	sw	a5,-76(s0)
	.loc 1 750 19
	j	.L91
.L94:
	.loc 1 751 20
	ld	a0,-32(s0)
	call	DevicePathType@plt
	mv	a5,a0
	.loc 1 751 18 discriminator 1
	mv	a4,a5
	li	a5,4
	bne	a4,a5,.L92
	.loc 1 752 20
	ld	a0,-32(s0)
	call	DevicePathSubType@plt
	mv	a5,a0
	.loc 1 751 54 discriminator 2
	mv	a4,a5
	li	a5,1
	bne	a4,a5,.L92
	.loc 1 757 29
	sw	zero,-76(s0)
	.loc 1 758 28
	ld	a0,-32(s0)
	call	DuplicateDevicePath@plt
	mv	a5,a0
	.loc 1 758 26 discriminator 1
	sd	a5,-152(s0)
	.loc 1 759 17
	j	.L95
.L92:
	.loc 1 762 25
	ld	a0,-32(s0)
	call	NextDevicePathNode@plt
	sd	a0,-32(s0)
.L91:
	.loc 1 750 21
	ld	a0,-32(s0)
	call	IsDevicePathEnd@plt
	mv	a5,a0
	.loc 1 750 20 discriminator 1
	beq	a5,zero,.L94
	j	.L95
.L90:
	.loc 1 765 24
	ld	a0,-112(s0)
	call	DuplicateDevicePath@plt
	mv	a5,a0
	.loc 1 765 22 discriminator 1
	sd	a5,-152(s0)
.L95:
	.loc 1 768 11
	ld	a0,-112(s0)
	call	FreePool@plt
.L85:
	.loc 1 774 6
	lw	a5,-76(s0)
	sext.w	a5,a5
	bne	a5,zero,.L96
	.loc 1 778 11
	sb	zero,-49(s0)
	.loc 1 779 25
	sd	zero,-64(s0)
	.loc 1 779 5
	j	.L97
.L104:
	.loc 1 780 13
	li	a5,1
	sb	a5,-49(s0)
	.loc 1 781 18
	sd	zero,-72(s0)
	.loc 1 781 7
	j	.L98
.L101:
	.loc 1 782 25
	ld	a5,-72(s0)
	slli	a5,a5,1
	ld	a4,-304(s0)
	add	a5,a4,a5
	lhu	a5,0(a5)
	mv	a4,a5
	.loc 1 782 12
	ld	a5,-64(s0)
	bne	a5,a4,.L99
	.loc 1 783 17
	sb	zero,-49(s0)
	.loc 1 784 11
	j	.L100
.L99:
	.loc 1 781 48 discriminator 2
	ld	a5,-72(s0)
	addi	a5,a5,1
	sd	a5,-72(s0)
.L98:
	.loc 1 781 29 discriminator 1
	ld	a4,-72(s0)
	ld	a5,-312(s0)
	bltu	a4,a5,.L101
.L100:
	.loc 1 788 10
	lbu	a5,-49(s0)
	andi	a5,a5,0xff
	bne	a5,zero,.L126
	.loc 1 779 69 discriminator 2
	ld	a5,-64(s0)
	addi	a5,a5,1
	sd	a5,-64(s0)
.L97:
	.loc 1 779 45 discriminator 1
	ld	a4,-64(s0)
	li	a5,65536
	addi	a5,a5,-2
	bleu	a4,a5,.L104
	j	.L103
.L126:
	.loc 1 789 9
	nop
.L103:
	.loc 1 793 8
	ld	a4,-64(s0)
	li	a5,65536
	addi	a5,a5,-1
	bne	a4,a5,.L105
	.loc 1 794 7
	lla	a5,gShellBcfgHiiHandle
	ld	a4,0(a5)
	lla	a5,.LC5
	li	a3,20
	li	a2,0
	li	a1,-1
	li	a0,-1
	call	ShellPrintHiiEx@plt
	j	.L96
.L105:
	.loc 1 796 7
	lla	a5,gShellBcfgHiiHandle
	ld	a4,0(a5)
	ld	a5,-64(s0)
	li	a3,21
	li	a2,0
	li	a1,-1
	li	a0,-1
	call	ShellPrintHiiEx@plt
.L96:
	.loc 1 800 6
	lw	a5,-76(s0)
	sext.w	a5,a5
	bne	a5,zero,.L106
	.loc 1 804 16
	ld	a0,-296(s0)
	call	StrSize@plt
	sd	a0,-128(s0)
	.loc 1 805 18
	ld	a5,-152(s0)
	.loc 1 805 8
	bne	a5,zero,.L107
	.loc 1 807 19
	li	a5,3
	sw	a5,-76(s0)
	.loc 1 808 22
	sd	zero,-40(s0)
	j	.L108
.L107:
	.loc 1 810 22
	ld	a5,-152(s0)
	mv	a0,a5
	call	GetDevicePathSize@plt
	sd	a0,-48(s0)
	.loc 1 812 87
	ld	a4,-128(s0)
	ld	a5,-48(s0)
	add	a5,a4,a5
	addi	a5,a5,6
	.loc 1 812 24
	mv	a0,a5
	call	AllocateZeroPool@plt
	sd	a0,-40(s0)
.L108:
	.loc 1 815 8
	ld	a5,-40(s0)
	beq	a5,zero,.L109
	.loc 1 816 21
	ld	a5,-40(s0)
	sd	a5,-136(s0)
	.loc 1 817 35
	ld	a5,-40(s0)
	li	a4,1
	sw	a4,0(a5)
	.loc 1 818 22
	ld	a5,-40(s0)
	addi	a5,a5,4
	sd	a5,-40(s0)
	.loc 1 820 37
	ld	a5,-48(s0)
	slli	a4,a5,48
	srli	a4,a4,48
	.loc 1 820 35
	ld	a5,-40(s0)
	sh	a4,0(a5)
	.loc 1 821 22
	ld	a5,-40(s0)
	addi	a5,a5,2
	sd	a5,-40(s0)
	.loc 1 823 7
	ld	a2,-128(s0)
	ld	a1,-296(s0)
	ld	a0,-40(s0)
	call	CopyMem@plt
	.loc 1 824 22
	ld	a4,-40(s0)
	ld	a5,-128(s0)
	add	a5,a4,a5
	sd	a5,-40(s0)
	.loc 1 826 7
	ld	a5,-152(s0)
	ld	a2,-48(s0)
	mv	a1,a5
	ld	a0,-40(s0)
	call	CopyMem@plt
	.loc 1 828 7
	lw	a5,-316(s0)
	sext.w	a5,a5
	bne	a5,zero,.L110
	.loc 1 828 7 is_stmt 0 discriminator 1
	lla	a5,.LC0
	j	.L111
.L110:
	.loc 1 828 7 discriminator 2
	lla	a5,.LC1
.L111:
	.loc 1 828 7 discriminator 4
	addi	a0,s0,-240
	ld	a4,-64(s0)
	mv	a3,a5
	lla	a2,.LC2
	li	a1,80
	call	UnicodeSPrint@plt
	.loc 1 829 19 is_stmt 1
	la	a5,gRT
	ld	a5,0(a5)
	ld	a5,88(a5)
	.loc 1 833 68
	ld	a3,-128(s0)
	ld	a4,-48(s0)
	add	a4,a3,a4
	addi	a3,a4,6
	.loc 1 829 16
	addi	a0,s0,-240
	ld	a4,-136(s0)
	li	a2,7
	la	a1,gEfiGlobalVariableGuid
	jalr	a5
.LVL15:
	sd	a0,-24(s0)
	.loc 1 837 7
	ld	a0,-136(s0)
	call	FreePool@plt
	j	.L112
.L109:
	.loc 1 839 14
	li	a5,-1
	slli	a5,a5,63
	addi	a5,a5,9
	sd	a5,-24(s0)
.L112:
	.loc 1 842 36
	ld	a5,-24(s0)
	.loc 1 842 8
	bge	a5,zero,.L113
	.loc 1 843 7
	lla	a5,gShellBcfgHiiHandle
	ld	a4,0(a5)
	addi	a5,s0,-240
	mv	a6,a5
	lla	a5,.LC5
	li	a3,22
	li	a2,0
	li	a1,-1
	li	a0,-1
	call	ShellPrintHiiEx@plt
	j	.L106
.L113:
	.loc 1 845 48
	ld	a5,-312(s0)
	addi	a5,a5,1
	.loc 1 845 53
	slli	a5,a5,1
	.loc 1 845 18
	mv	a0,a5
	call	AllocateZeroPool@plt
	sd	a0,-144(s0)
	.loc 1 846 10
	ld	a5,-144(s0)
	beq	a5,zero,.L106
	.loc 1 847 55
	ld	a5,-312(s0)
	slli	a5,a5,1
	.loc 1 847 9
	mv	a2,a5
	ld	a1,-304(s0)
	ld	a0,-144(s0)
	call	CopyMem@plt
	.loc 1 852 20
	ld	a5,-312(s0)
	sd	a5,-72(s0)
	.loc 1 852 9
	j	.L114
.L115:
	.loc 1 853 37
	ld	a5,-72(s0)
	slli	a5,a5,1
	addi	a5,a5,-2
	ld	a4,-144(s0)
	add	a4,a4,a5
	.loc 1 853 19
	ld	a5,-72(s0)
	slli	a5,a5,1
	ld	a3,-144(s0)
	add	a5,a3,a5
	.loc 1 853 37
	lhu	a4,0(a4)
	.loc 1 853 27
	sh	a4,0(a5)
	.loc 1 852 57 discriminator 3
	ld	a5,-72(s0)
	addi	a5,a5,-1
	sd	a5,-72(s0)
.L114:
	.loc 1 852 40 discriminator 1
	ld	a4,-72(s0)
	ld	a5,-280(s0)
	bgtu	a4,a5,.L115
	.loc 1 856 17
	ld	a5,-280(s0)
	slli	a5,a5,1
	ld	a4,-144(s0)
	add	a5,a4,a5
	.loc 1 856 30
	ld	a4,-64(s0)
	slli	a4,a4,48
	srli	a4,a4,48
	.loc 1 856 28
	sh	a4,0(a5)
	.loc 1 857 21
	la	a5,gRT
	ld	a5,0(a5)
	ld	a6,88(a5)
	.loc 1 857 18
	lw	a5,-316(s0)
	sext.w	a5,a5
	bne	a5,zero,.L116
	.loc 1 857 18 is_stmt 0 discriminator 1
	lla	a5,.LC10
	j	.L117
.L116:
	.loc 1 857 18 discriminator 2
	lla	a5,.LC11
.L117:
	.loc 1 861 49 is_stmt 1
	ld	a4,-312(s0)
	addi	a4,a4,1
	.loc 1 861 54
	slli	a3,a4,1
	.loc 1 857 18
	ld	a4,-144(s0)
	li	a2,7
	la	a1,gEfiGlobalVariableGuid
	mv	a0,a5
	jalr	a6
.LVL16:
	sd	a0,-24(s0)
	.loc 1 865 9
	ld	a0,-144(s0)
	call	FreePool@plt
	.loc 1 867 40
	ld	a5,-24(s0)
	.loc 1 867 12
	bge	a5,zero,.L118
	.loc 1 868 11
	lla	a5,gShellBcfgHiiHandle
	ld	a4,0(a5)
	lw	a5,-316(s0)
	sext.w	a5,a5
	bne	a5,zero,.L119
	.loc 1 868 11 is_stmt 0 discriminator 1
	lla	a5,.LC10
	j	.L120
.L119:
	.loc 1 868 11 discriminator 2
	lla	a5,.LC11
.L120:
	.loc 1 868 11 discriminator 4
	mv	a6,a5
	lla	a5,.LC5
	li	a3,13
	li	a2,0
	li	a1,-1
	li	a0,-1
	call	ShellPrintHiiEx@plt
	.loc 1 869 23 is_stmt 1
	li	a5,2
	sw	a5,-76(s0)
	j	.L106
.L118:
	.loc 1 871 11
	addi	a5,s0,-240
	ld	a2,-280(s0)
	mv	a1,a5
	lla	a0,.LC12
	call	Print@plt
.L106:
	.loc 1 880 17
	ld	a5,-152(s0)
	.loc 1 880 6
	beq	a5,zero,.L121
	.loc 1 880 34 discriminator 1
	lbu	a5,-317(s0)
	andi	a5,a5,0xff
	bne	a5,zero,.L121
	.loc 1 881 5
	ld	a5,-152(s0)
	mv	a0,a5
	call	FreePool@plt
.L121:
	.loc 1 884 6
	ld	a5,-88(s0)
	beq	a5,zero,.L122
	.loc 1 885 5
	ld	a0,-88(s0)
	call	FreePool@plt
.L122:
	.loc 1 888 6
	ld	a5,-96(s0)
	beq	a5,zero,.L123
	.loc 1 889 5
	ld	a0,-96(s0)
	call	FreePool@plt
.L123:
	.loc 1 892 16
	ld	a5,-160(s0)
	.loc 1 892 6
	beq	a5,zero,.L124
	.loc 1 893 5
	addi	a5,s0,-160
	mv	a0,a5
	call	ShellCloseFileMetaArg@plt
.L124:
	.loc 1 896 10
	lw	a5,-76(s0)
.L125:
	.loc 1 897 1
	mv	a0,a5
	ld	ra,312(sp)
	.cfi_restore 1
	ld	s0,304(sp)
	.cfi_restore 8
	.cfi_def_cfa 2, 320
	addi	sp,sp,320
	.cfi_def_cfa_offset 0
	jr	ra
	.cfi_endproc
.LFE5:
	.size	BcfgAdd, .-BcfgAdd
	.section	.text.BcfgRemove,"ax",@progbits
	.align	1
	.globl	BcfgRemove
	.type	BcfgRemove, @function
BcfgRemove:
.LFB6:
	.loc 1 917 1
	.cfi_startproc
	addi	sp,sp,-96
	.cfi_def_cfa_offset 96
	sd	ra,88(sp)
	sd	s0,80(sp)
	.cfi_offset 1, -8
	.cfi_offset 8, -16
	addi	s0,sp,96
	.cfi_def_cfa 8, 0
	mv	a5,a0
	sd	a1,-80(s0)
	sd	a2,-88(s0)
	mv	a4,a3
	sw	a5,-68(s0)
	mv	a5,a4
	sh	a5,-70(s0)
	.loc 1 923 3
	lw	a5,-68(s0)
	sext.w	a5,a5
	bne	a5,zero,.L128
	.loc 1 923 3 is_stmt 0 discriminator 1
	lla	a5,.LC0
	j	.L129
.L128:
	.loc 1 923 3 discriminator 2
	lla	a5,.LC1
.L129:
	.loc 1 923 131 is_stmt 1 discriminator 4
	lhu	a4,-70(s0)
	slli	a4,a4,1
	ld	a3,-80(s0)
	add	a4,a3,a4
	lhu	a4,0(a4)
	.loc 1 923 3 discriminator 4
	sext.w	a4,a4
	addi	a0,s0,-64
	mv	a3,a5
	lla	a2,.LC2
	li	a1,24
	call	UnicodeSPrint@plt
	.loc 1 924 15
	la	a5,gRT
	ld	a5,0(a5)
	ld	a5,88(a5)
	.loc 1 924 12
	addi	a0,s0,-64
	li	a4,0
	li	a3,0
	li	a2,7
	la	a1,gEfiGlobalVariableGuid
	jalr	a5
.LVL17:
	sd	a0,-24(s0)
	.loc 1 931 34
	ld	a5,-24(s0)
	.loc 1 931 6
	bge	a5,zero,.L130
	.loc 1 932 5
	lla	a5,gShellBcfgHiiHandle
	ld	a4,0(a5)
	addi	a5,s0,-64
	mv	a6,a5
	lla	a5,.LC5
	li	a3,13
	li	a2,0
	li	a1,-1
	li	a0,-1
	call	ShellPrintHiiEx@plt
	.loc 1 933 12
	li	a5,2
	j	.L139
.L130:
	.loc 1 936 42
	ld	a5,-88(s0)
	slli	a5,a5,1
	.loc 1 936 14
	mv	a0,a5
	call	AllocateZeroPool@plt
	sd	a0,-32(s0)
	.loc 1 937 6
	ld	a5,-32(s0)
	beq	a5,zero,.L132
	.loc 1 938 14
	ld	a5,-88(s0)
	sd	a5,-40(s0)
	.loc 1 939 48
	ld	a5,-88(s0)
	slli	a5,a5,1
	.loc 1 939 5
	mv	a2,a5
	ld	a1,-80(s0)
	ld	a0,-32(s0)
	call	CopyMem@plt
	.loc 1 940 22
	lhu	a5,-70(s0)
	slli	a5,a5,1
	ld	a4,-32(s0)
	add	a3,a4,a5
	.loc 1 940 50
	lhu	a5,-70(s0)
	addi	a5,a5,1
	slli	a5,a5,1
	ld	a4,-32(s0)
	add	a1,a4,a5
	.loc 1 940 66
	lhu	a5,-70(s0)
	ld	a4,-88(s0)
	sub	a5,a4,a5
	.loc 1 940 77
	addi	a5,a5,-1
	.loc 1 940 81
	slli	a5,a5,1
	.loc 1 940 5
	mv	a2,a5
	mv	a0,a3
	call	CopyMem@plt
	.loc 1 941 13
	ld	a5,-40(s0)
	addi	a5,a5,-1
	sd	a5,-40(s0)
	.loc 1 943 17
	la	a5,gRT
	ld	a5,0(a5)
	ld	a6,88(a5)
	.loc 1 943 14
	lw	a5,-68(s0)
	sext.w	a5,a5
	bne	a5,zero,.L133
	.loc 1 943 14 is_stmt 0 discriminator 1
	lla	a5,.LC10
	j	.L134
.L133:
	.loc 1 943 14 discriminator 2
	lla	a5,.LC11
.L134:
	.loc 1 947 29 is_stmt 1
	ld	a4,-40(s0)
	slli	a3,a4,1
	.loc 1 943 14
	ld	a4,-32(s0)
	li	a2,7
	la	a1,gEfiGlobalVariableGuid
	mv	a0,a5
	jalr	a6
.LVL18:
	sd	a0,-24(s0)
	.loc 1 950 5
	ld	a0,-32(s0)
	call	FreePool@plt
	j	.L135
.L132:
	.loc 1 952 12
	li	a5,-1
	slli	a5,a5,63
	addi	a5,a5,9
	sd	a5,-24(s0)
.L135:
	.loc 1 955 34
	ld	a5,-24(s0)
	.loc 1 955 6
	bge	a5,zero,.L136
	.loc 1 956 5
	lla	a5,gShellBcfgHiiHandle
	ld	a4,0(a5)
	lw	a5,-68(s0)
	sext.w	a5,a5
	bne	a5,zero,.L137
	.loc 1 956 5 is_stmt 0 discriminator 1
	lla	a5,.LC10
	j	.L138
.L137:
	.loc 1 956 5 discriminator 2
	lla	a5,.LC11
.L138:
	.loc 1 956 5 discriminator 4
	mv	a6,a5
	lla	a5,.LC5
	li	a3,13
	li	a2,0
	li	a1,-1
	li	a0,-1
	call	ShellPrintHiiEx@plt
	.loc 1 957 12 is_stmt 1
	li	a5,2
	j	.L139
.L136:
	.loc 1 960 10
	li	a5,0
.L139:
	.loc 1 961 1
	mv	a0,a5
	ld	ra,88(sp)
	.cfi_restore 1
	ld	s0,80(sp)
	.cfi_restore 8
	.cfi_def_cfa 2, 96
	addi	sp,sp,96
	.cfi_def_cfa_offset 0
	jr	ra
	.cfi_endproc
.LFE6:
	.size	BcfgRemove, .-BcfgRemove
	.section	.text.BcfgMove,"ax",@progbits
	.align	1
	.globl	BcfgMove
	.type	BcfgMove, @function
BcfgMove:
.LFB7:
	.loc 1 983 1
	.cfi_startproc
	addi	sp,sp,-80
	.cfi_def_cfa_offset 80
	sd	ra,72(sp)
	sd	s0,64(sp)
	.cfi_offset 1, -8
	.cfi_offset 8, -16
	addi	s0,sp,80
	.cfi_def_cfa 8, 0
	mv	a5,a0
	sd	a1,-64(s0)
	sd	a2,-72(s0)
	sw	a5,-52(s0)
	mv	a5,a3
	sh	a5,-54(s0)
	mv	a5,a4
	sh	a5,-56(s0)
	.loc 1 988 42
	ld	a5,-72(s0)
	slli	a5,a5,1
	.loc 1 988 14
	ld	a1,-64(s0)
	mv	a0,a5
	call	AllocateCopyPool@plt
	sd	a0,-24(s0)
	.loc 1 989 6
	ld	a5,-24(s0)
	bne	a5,zero,.L141
	.loc 1 990 12
	li	a5,9
	j	.L142
.L141:
	.loc 1 996 19
	lhu	a5,-56(s0)
	.loc 1 996 6
	ld	a4,-72(s0)
	bgtu	a4,a5,.L143
	.loc 1 997 8
	ld	a5,-72(s0)
	beq	a5,zero,.L144
	.loc 1 998 21
	ld	a5,-72(s0)
	slli	a5,a5,48
	srli	a5,a5,48
	.loc 1 998 19
	addiw	a5,a5,-1
	sh	a5,-56(s0)
	j	.L143
.L144:
	.loc 1 1000 19
	sh	zero,-56(s0)
.L143:
	.loc 1 1004 22
	lhu	a5,-54(s0)
	slli	a5,a5,1
	ld	a4,-64(s0)
	add	a5,a4,a5
	.loc 1 1004 8
	lhu	a5,0(a5)
	sh	a5,-26(s0)
	.loc 1 1005 20
	lhu	a5,-54(s0)
	slli	a5,a5,1
	ld	a4,-24(s0)
	add	a3,a4,a5
	.loc 1 1005 54
	lhu	a5,-54(s0)
	addi	a5,a5,1
	slli	a5,a5,1
	ld	a4,-24(s0)
	add	a1,a4,a5
	.loc 1 1005 70
	lhu	a5,-54(s0)
	ld	a4,-72(s0)
	sub	a5,a4,a5
	.loc 1 1005 84
	addi	a5,a5,-1
	.loc 1 1005 88
	slli	a5,a5,1
	.loc 1 1005 3
	mv	a2,a5
	mv	a0,a3
	call	CopyMem@plt
	.loc 1 1006 32
	lhu	a5,-56(s0)
	addi	a5,a5,1
	slli	a5,a5,1
	ld	a4,-24(s0)
	add	a3,a4,a5
	.loc 1 1006 44
	lhu	a5,-56(s0)
	slli	a5,a5,1
	ld	a4,-24(s0)
	add	a1,a4,a5
	.loc 1 1006 70
	lhu	a5,-56(s0)
	ld	a4,-72(s0)
	sub	a5,a4,a5
	.loc 1 1006 84
	addi	a5,a5,-1
	.loc 1 1006 88
	slli	a5,a5,1
	.loc 1 1006 3
	mv	a2,a5
	mv	a0,a3
	call	CopyMem@plt
	.loc 1 1007 11
	lhu	a5,-56(s0)
	slli	a5,a5,1
	ld	a4,-24(s0)
	add	a5,a4,a5
	.loc 1 1007 25
	lhu	a4,-26(s0)
	sh	a4,0(a5)
	.loc 1 1009 15
	la	a5,gRT
	ld	a5,0(a5)
	ld	a6,88(a5)
	.loc 1 1009 12
	lw	a5,-52(s0)
	sext.w	a5,a5
	bne	a5,zero,.L145
	.loc 1 1009 12 is_stmt 0 discriminator 1
	lla	a5,.LC10
	j	.L146
.L145:
	.loc 1 1009 12 discriminator 2
	lla	a5,.LC11
.L146:
	.loc 1 1013 29 is_stmt 1
	ld	a4,-72(s0)
	slli	a3,a4,1
	.loc 1 1009 12
	ld	a4,-24(s0)
	li	a2,7
	la	a1,gEfiGlobalVariableGuid
	mv	a0,a5
	jalr	a6
.LVL19:
	sd	a0,-40(s0)
	.loc 1 1017 3
	ld	a0,-24(s0)
	call	FreePool@plt
	.loc 1 1019 34
	ld	a5,-40(s0)
	.loc 1 1019 6
	bge	a5,zero,.L147
	.loc 1 1020 5
	lla	a5,gShellBcfgHiiHandle
	ld	a4,0(a5)
	lw	a5,-52(s0)
	sext.w	a5,a5
	bne	a5,zero,.L148
	.loc 1 1020 5 is_stmt 0 discriminator 1
	lla	a5,.LC10
	j	.L149
.L148:
	.loc 1 1020 5 discriminator 2
	lla	a5,.LC11
.L149:
	.loc 1 1020 5 discriminator 4
	mv	a6,a5
	lla	a5,.LC5
	li	a3,13
	li	a2,0
	li	a1,-1
	li	a0,-1
	call	ShellPrintHiiEx@plt
	.loc 1 1021 12 is_stmt 1
	li	a5,2
	j	.L142
.L147:
	.loc 1 1024 10
	li	a5,0
.L142:
	.loc 1 1025 1
	mv	a0,a5
	ld	ra,72(sp)
	.cfi_restore 1
	ld	s0,64(sp)
	.cfi_restore 8
	.cfi_def_cfa 2, 80
	addi	sp,sp,80
	.cfi_def_cfa_offset 0
	jr	ra
	.cfi_endproc
.LFE7:
	.size	BcfgMove, .-BcfgMove
	.section	.rodata
	.align	3
.LC13:
	.string	" "
	.zero	2
	.align	3
.LC14:
	.string	"O"
	.string	"p"
	.string	"t"
	.string	"i"
	.string	"o"
	.string	"n"
	.string	" "
	.string	"I"
	.string	"n"
	.string	"d"
	.string	"e"
	.string	"x"
	.zero	2
	.align	3
.LC15:
	.string	"\""
	.zero	2
	.align	3
.LC16:
	.string	"K"
	.string	"e"
	.string	"y"
	.string	"%"
	.string	"0"
	.string	"4"
	.string	"x"
	.zero	2
	.section	.text.BcfgAddOpt,"ax",@progbits
	.align	1
	.globl	BcfgAddOpt
	.type	BcfgAddOpt, @function
BcfgAddOpt:
.LFB8:
	.loc 1 1044 1
	.cfi_startproc
	addi	sp,sp,-192
	.cfi_def_cfa_offset 192
	sd	ra,184(sp)
	sd	s0,176(sp)
	.cfi_offset 1, -8
	.cfi_offset 8, -16
	addi	s0,sp,192
	.cfi_def_cfa 8, 0
	sd	a0,-168(s0)
	sd	a1,-176(s0)
	sd	a2,-184(s0)
	mv	a5,a3
	sw	a5,-188(s0)
	.loc 1 1063 10
	sd	zero,-40(s0)
	.loc 1 1064 15
	sw	zero,-28(s0)
	.loc 1 1065 10
	ld	a5,-168(s0)
	sd	a5,-56(s0)
	.loc 1 1066 12
	sd	zero,-120(s0)
	.loc 1 1067 8
	sd	zero,-64(s0)
	.loc 1 1068 19
	sd	zero,-24(s0)
	.loc 1 1069 16
	sd	zero,-152(s0)
	.loc 1 1071 3
	addi	a5,s0,-104
	li	a1,10
	mv	a0,a5
	call	ZeroMem@plt
	.loc 1 1072 3
	addi	a5,s0,-144
	li	a1,24
	mv	a0,a5
	call	ZeroMem@plt
	.loc 1 1074 9
	j	.L151
.L152:
	.loc 1 1075 11
	ld	a5,-56(s0)
	addi	a5,a5,2
	sd	a5,-56(s0)
.L151:
	.loc 1 1074 16
	ld	a5,-56(s0)
	lhu	a5,0(a5)
	.loc 1 1074 20
	sext.w	a4,a5
	li	a5,32
	beq	a4,a5,.L152
	.loc 1 1081 12
	addi	a5,s0,-112
	li	a3,1
	li	a2,1
	mv	a1,a5
	ld	a0,-56(s0)
	call	ShellConvertStringToUint64@plt
	sd	a0,-40(s0)
	.loc 1 1082 34
	ld	a5,-40(s0)
	.loc 1 1082 6
	blt	a5,zero,.L153
	.loc 1 1082 65 discriminator 1
	ld	a5,-112(s0)
	slli	a5,a5,48
	srli	a5,a5,48
	mv	a4,a5
	.loc 1 1082 87 discriminator 1
	ld	a5,-112(s0)
	.loc 1 1082 60 discriminator 1
	bne	a4,a5,.L153
	.loc 1 1082 108 discriminator 2
	lla	a1,.LC13
	ld	a0,-56(s0)
	call	StrStr@plt
	mv	a5,a0
	.loc 1 1082 104 discriminator 3
	beq	a5,zero,.L153
	.loc 1 1082 152 discriminator 4
	ld	a5,-112(s0)
	slli	a4,a5,48
	srli	a4,a4,48
	.loc 1 1082 177 discriminator 4
	ld	a5,-184(s0)
	slli	a5,a5,48
	srli	a5,a5,48
	.loc 1 1082 147 discriminator 4
	sext.w	a4,a4
	sext.w	a5,a5
	bleu	a4,a5,.L154
.L153:
	.loc 1 1083 5
	lla	a5,gShellBcfgHiiHandle
	ld	a4,0(a5)
	lla	a6,.LC14
	lla	a5,.LC5
	li	a3,5
	li	a2,0
	li	a1,-1
	li	a0,-1
	call	ShellPrintHiiEx@plt
	.loc 1 1084 17
	li	a5,2
	sw	a5,-28(s0)
	.loc 1 1085 12
	lw	a5,-28(s0)
	j	.L209
.L154:
	.loc 1 1088 17
	ld	a5,-112(s0)
	.loc 1 1088 15
	sh	a5,-70(s0)
	.loc 1 1090 10
	lla	a1,.LC13
	ld	a0,-56(s0)
	call	StrStr@plt
	sd	a0,-80(s0)
	.loc 1 1091 6
	ld	a5,-80(s0)
	beq	a5,zero,.L157
	.loc 1 1092 12
	ld	a5,-80(s0)
	sd	a5,-56(s0)
	.loc 1 1095 9
	j	.L157
.L158:
	.loc 1 1096 11
	ld	a5,-56(s0)
	addi	a5,a5,2
	sd	a5,-56(s0)
.L157:
	.loc 1 1095 16
	ld	a5,-56(s0)
	lhu	a5,0(a5)
	.loc 1 1095 20
	sext.w	a4,a5
	li	a5,32
	beq	a4,a5,.L158
	.loc 1 1102 13
	ld	a5,-56(s0)
	lhu	a5,0(a5)
	.loc 1 1102 6
	sext.w	a4,a5
	li	a5,34
	bne	a4,a5,.L159
	.loc 1 1106 12
	ld	a5,-56(s0)
	addi	a5,a5,2
	lla	a1,.LC15
	mv	a0,a5
	call	StrStr@plt
	sd	a0,-80(s0)
	.loc 1 1107 8
	ld	a5,-80(s0)
	beq	a5,zero,.L160
	.loc 1 1107 36 discriminator 1
	ld	a0,-80(s0)
	call	StrLen@plt
	mv	a4,a0
	.loc 1 1107 32 discriminator 2
	li	a5,1
	beq	a4,a5,.L161
.L160:
	.loc 1 1108 7
	lla	a5,gShellBcfgHiiHandle
	ld	a4,0(a5)
	ld	a6,-56(s0)
	lla	a5,.LC5
	li	a3,5
	li	a2,0
	li	a1,-1
	li	a0,-1
	call	ShellPrintHiiEx@plt
	.loc 1 1109 19
	li	a5,2
	sw	a5,-28(s0)
	j	.L167
.L161:
	.loc 1 1111 18
	ld	a5,-56(s0)
	addi	a4,a5,2
	addi	a5,s0,-120
	li	a3,0
	mv	a2,a4
	li	a1,0
	mv	a0,a5
	call	StrnCatGrow@plt
	mv	a5,a0
	.loc 1 1111 16 discriminator 1
	sd	a5,-120(s0)
	.loc 1 1112 20
	ld	a5,-120(s0)
	.loc 1 1112 10
	bne	a5,zero,.L163
	.loc 1 1113 9
	lla	a5,gShellBcfgHiiHandle
	ld	a4,0(a5)
	lla	a5,.LC5
	li	a3,12
	li	a2,0
	li	a1,-1
	li	a0,-1
	call	ShellPrintHiiEx@plt
	.loc 1 1114 21
	li	a5,9
	sw	a5,-28(s0)
	.loc 1 1115 16
	lw	a5,-28(s0)
	j	.L209
.L163:
	.loc 1 1118 15
	ld	a5,-120(s0)
	lla	a1,.LC15
	mv	a0,a5
	call	StrStr@plt
	sd	a0,-88(s0)
	.loc 1 1119 10
	ld	a5,-88(s0)
	bne	a5,zero,.L164
	.loc 1 1121 9
	lla	a5,gShellBcfgHiiHandle
	ld	a4,0(a5)
	ld	a6,-56(s0)
	lla	a5,.LC5
	li	a3,5
	li	a2,0
	li	a1,-1
	li	a0,-1
	call	ShellPrintHiiEx@plt
	.loc 1 1122 21
	li	a5,2
	sw	a5,-28(s0)
	.loc 1 1123 16
	lw	a5,-28(s0)
	j	.L209
.L164:
	.loc 1 1126 16
	ld	a5,-88(s0)
	sh	zero,0(a5)
	.loc 1 1127 12
	ld	a5,-88(s0)
	addi	a5,a5,2
	sd	a5,-88(s0)
	.loc 1 1128 11
	ld	a0,-88(s0)
	call	StrLen@plt
	mv	a5,a0
	.loc 1 1128 10 discriminator 1
	beq	a5,zero,.L165
	.loc 1 1129 9
	lla	a5,gShellBcfgHiiHandle
	ld	a4,0(a5)
	ld	a6,-56(s0)
	lla	a5,.LC5
	li	a3,5
	li	a2,0
	li	a1,-1
	li	a0,-1
	call	ShellPrintHiiEx@plt
	.loc 1 1130 21
	li	a5,2
	sw	a5,-28(s0)
.L165:
	.loc 1 1133 29
	ld	a0,-56(s0)
	call	ShellFileExists@plt
	mv	a5,a0
	.loc 1 1133 10 discriminator 1
	bge	a5,zero,.L166
	.loc 1 1137 14
	ld	a5,-120(s0)
	sd	a5,-64(s0)
	.loc 1 1138 18
	sd	zero,-120(s0)
	j	.L167
.L166:
	.loc 1 1140 20
	addi	a5,s0,-120
	li	a3,0
	ld	a2,-56(s0)
	li	a1,0
	mv	a0,a5
	call	StrnCatGrow@plt
	mv	a5,a0
	.loc 1 1140 18 discriminator 1
	sd	a5,-120(s0)
	j	.L167
.L159:
	.loc 1 1147 9
	lla	a1,.LC13
	ld	a0,-56(s0)
	call	StrStr@plt
	mv	a5,a0
	.loc 1 1147 8 discriminator 1
	bne	a5,zero,.L168
	.loc 1 1151 29
	ld	a0,-56(s0)
	call	ShellFileExists@plt
	mv	a5,a0
	.loc 1 1151 10 discriminator 1
	bge	a5,zero,.L169
	.loc 1 1152 9
	lla	a5,gShellBcfgHiiHandle
	ld	a4,0(a5)
	ld	a6,-56(s0)
	lla	a5,.LC5
	li	a3,11
	li	a2,0
	li	a1,-1
	li	a0,-1
	call	ShellPrintHiiEx@plt
	.loc 1 1153 21
	li	a5,2
	sw	a5,-28(s0)
	j	.L167
.L169:
	.loc 1 1155 20
	addi	a5,s0,-120
	li	a3,0
	ld	a2,-56(s0)
	li	a1,0
	mv	a0,a5
	call	StrnCatGrow@plt
	mv	a5,a0
	.loc 1 1155 18 discriminator 1
	sd	a5,-120(s0)
	j	.L167
.L168:
	.loc 1 1158 10
	lw	a5,-188(s0)
	sext.w	a5,a5
	beq	a5,zero,.L170
	.loc 1 1159 9
	lla	a5,gShellBcfgHiiHandle
	ld	a4,0(a5)
	lla	a5,.LC5
	li	a3,7
	li	a2,0
	li	a1,-1
	li	a0,-1
	call	ShellPrintHiiEx@plt
	.loc 1 1160 21
	li	a5,2
	sw	a5,-28(s0)
.L170:
	.loc 1 1163 10
	lw	a5,-28(s0)
	sext.w	a5,a5
	bne	a5,zero,.L171
	.loc 1 1167 18
	addi	a5,s0,-112
	li	a3,1
	li	a2,0
	mv	a1,a5
	ld	a0,-56(s0)
	call	ShellConvertStringToUint64@plt
	sd	a0,-40(s0)
	.loc 1 1168 40
	ld	a5,-40(s0)
	.loc 1 1168 12
	blt	a5,zero,.L172
	.loc 1 1168 71 discriminator 1
	ld	a5,-112(s0)
	sext.w	a5,a5
	slli	a4,a5,32
	srli	a4,a4,32
	.loc 1 1168 93 discriminator 1
	ld	a5,-112(s0)
	.loc 1 1168 66 discriminator 1
	bne	a4,a5,.L172
	.loc 1 1168 114 discriminator 2
	lla	a1,.LC13
	ld	a0,-56(s0)
	call	StrStr@plt
	mv	a5,a0
	.loc 1 1168 110 discriminator 3
	bne	a5,zero,.L173
.L172:
	.loc 1 1169 11
	lla	a5,gShellBcfgHiiHandle
	ld	a4,0(a5)
	ld	a6,-56(s0)
	lla	a5,.LC5
	li	a3,5
	li	a2,0
	li	a1,-1
	li	a0,-1
	call	ShellPrintHiiEx@plt
	.loc 1 1170 23
	li	a5,2
	sw	a5,-28(s0)
.L173:
	.loc 1 1173 44
	ld	a5,-112(s0)
	sext.w	a5,a5
	.loc 1 1173 42
	sw	a5,-104(s0)
	.loc 1 1174 16
	lla	a1,.LC13
	ld	a0,-56(s0)
	call	StrStr@plt
	sd	a0,-80(s0)
	.loc 1 1175 12
	ld	a5,-80(s0)
	beq	a5,zero,.L175
	.loc 1 1176 18
	ld	a5,-80(s0)
	sd	a5,-56(s0)
	.loc 1 1179 15
	j	.L175
.L176:
	.loc 1 1180 17
	ld	a5,-56(s0)
	addi	a5,a5,2
	sd	a5,-56(s0)
.L175:
	.loc 1 1179 22
	ld	a5,-56(s0)
	lhu	a5,0(a5)
	.loc 1 1179 26
	sext.w	a4,a5
	li	a5,32
	beq	a4,a5,.L176
.L171:
	.loc 1 1184 10
	lw	a5,-28(s0)
	sext.w	a5,a5
	bne	a5,zero,.L177
	.loc 1 1189 121
	ld	a5,-104(s0)
	srli	a5,a5,30
	andi	a5,a5,3
	andi	a5,a5,0xff
	.loc 1 1189 91
	slli	a5,a5,2
	.loc 1 1189 65
	addi	a5,a5,10
	.loc 1 1189 27
	mv	a0,a5
	call	AllocatePool@plt
	sd	a0,-24(s0)
	.loc 1 1190 12
	ld	a5,-24(s0)
	bne	a5,zero,.L178
	.loc 1 1191 11
	lla	a5,gShellBcfgHiiHandle
	ld	a4,0(a5)
	lla	a5,.LC5
	li	a3,2
	li	a2,0
	li	a1,-1
	li	a0,-1
	call	ShellPrintHiiEx@plt
	.loc 1 1192 23
	li	a5,9
	sw	a5,-28(s0)
	.loc 1 1193 18
	lw	a5,-28(s0)
	j	.L209
.L178:
	.loc 1 1196 9
	addi	a5,s0,-104
	li	a2,10
	mv	a1,a5
	ld	a0,-24(s0)
	call	CopyMem@plt
.L177:
	.loc 1 1199 24
	sw	zero,-44(s0)
	.loc 1 1199 7
	j	.L179
.L191:
	.loc 1 1203 18
	addi	a5,s0,-112
	li	a3,1
	li	a2,0
	mv	a1,a5
	ld	a0,-56(s0)
	call	ShellConvertStringToUint64@plt
	sd	a0,-40(s0)
	.loc 1 1204 40
	ld	a5,-40(s0)
	.loc 1 1204 12
	blt	a5,zero,.L180
	.loc 1 1204 71 discriminator 1
	ld	a5,-112(s0)
	slli	a5,a5,48
	srli	a5,a5,48
	mv	a4,a5
	.loc 1 1204 93 discriminator 1
	ld	a5,-112(s0)
	.loc 1 1204 66 discriminator 1
	bne	a4,a5,.L180
	.loc 1 1204 114 discriminator 2
	lla	a1,.LC13
	ld	a0,-56(s0)
	call	StrStr@plt
	mv	a5,a0
	.loc 1 1204 110 discriminator 3
	bne	a5,zero,.L181
.L180:
	.loc 1 1205 11
	lla	a5,gShellBcfgHiiHandle
	ld	a4,0(a5)
	ld	a6,-56(s0)
	lla	a5,.LC5
	li	a3,5
	li	a2,0
	li	a1,-1
	li	a0,-1
	call	ShellPrintHiiEx@plt
	.loc 1 1206 23
	li	a5,2
	sw	a5,-28(s0)
.L181:
	.loc 1 1209 107
	ld	a3,-112(s0)
	.loc 1 1209 82
	lwu	a5,-44(s0)
	slli	a5,a5,2
	addi	a5,a5,10
	ld	a4,-24(s0)
	add	a5,a4,a5
	.loc 1 1209 107
	slli	a4,a3,48
	srli	a4,a4,48
	.loc 1 1209 105
	sh	a4,0(a5)
	.loc 1 1210 16
	lla	a1,.LC13
	ld	a0,-56(s0)
	call	StrStr@plt
	sd	a0,-80(s0)
	.loc 1 1211 12
	ld	a5,-80(s0)
	beq	a5,zero,.L183
	.loc 1 1212 18
	ld	a5,-80(s0)
	sd	a5,-56(s0)
	.loc 1 1215 15
	j	.L183
.L184:
	.loc 1 1216 17
	ld	a5,-56(s0)
	addi	a5,a5,2
	sd	a5,-56(s0)
.L183:
	.loc 1 1215 22
	ld	a5,-56(s0)
	lhu	a5,0(a5)
	.loc 1 1215 26
	sext.w	a4,a5
	li	a5,32
	beq	a4,a5,.L184
	.loc 1 1222 18
	addi	a5,s0,-112
	li	a3,1
	li	a2,0
	mv	a1,a5
	ld	a0,-56(s0)
	call	ShellConvertStringToUint64@plt
	sd	a0,-40(s0)
	.loc 1 1223 40
	ld	a5,-40(s0)
	.loc 1 1223 12
	blt	a5,zero,.L185
	.loc 1 1223 71 discriminator 1
	ld	a5,-112(s0)
	slli	a5,a5,48
	srli	a5,a5,48
	mv	a4,a5
	.loc 1 1223 93 discriminator 1
	ld	a5,-112(s0)
	.loc 1 1223 66 discriminator 1
	beq	a4,a5,.L186
.L185:
	.loc 1 1224 11
	lla	a5,gShellBcfgHiiHandle
	ld	a4,0(a5)
	ld	a6,-56(s0)
	lla	a5,.LC5
	li	a3,5
	li	a2,0
	li	a1,-1
	li	a0,-1
	call	ShellPrintHiiEx@plt
	.loc 1 1225 23
	li	a5,2
	sw	a5,-28(s0)
.L186:
	.loc 1 1228 110
	ld	a3,-112(s0)
	.loc 1 1228 82
	lwu	a5,-44(s0)
	slli	a5,a5,2
	addi	a5,a5,10
	ld	a4,-24(s0)
	add	a5,a4,a5
	.loc 1 1228 110
	slli	a4,a3,48
	srli	a4,a4,48
	.loc 1 1228 108
	sh	a4,2(a5)
	.loc 1 1229 16
	lla	a1,.LC13
	ld	a0,-56(s0)
	call	StrStr@plt
	sd	a0,-80(s0)
	.loc 1 1230 12
	ld	a5,-80(s0)
	beq	a5,zero,.L188
	.loc 1 1231 18
	ld	a5,-80(s0)
	sd	a5,-56(s0)
	.loc 1 1234 15
	j	.L188
.L189:
	.loc 1 1235 17
	ld	a5,-56(s0)
	addi	a5,a5,2
	sd	a5,-56(s0)
.L188:
	.loc 1 1234 22
	ld	a5,-56(s0)
	lhu	a5,0(a5)
	.loc 1 1234 26
	sext.w	a4,a5
	li	a5,32
	beq	a4,a5,.L189
	.loc 1 1199 130 discriminator 2
	lw	a5,-44(s0)
	addiw	a5,a5,1
	sw	a5,-44(s0)
.L179:
	.loc 1 1199 58 discriminator 1
	lw	a5,-28(s0)
	sext.w	a5,a5
	bne	a5,zero,.L190
	.loc 1 1199 103 discriminator 3
	ld	a5,-104(s0)
	srli	a5,a5,30
	andi	a5,a5,3
	andi	a5,a5,0xff
	sext.w	a5,a5
	.loc 1 1199 58 discriminator 3
	lw	a4,-44(s0)
	sext.w	a4,a4
	bltu	a4,a5,.L191
.L190:
	.loc 1 1239 10
	lw	a5,-28(s0)
	sext.w	a5,a5
	bne	a5,zero,.L192
	.loc 1 1244 51
	lhu	a5,-70(s0)
	slli	a5,a5,1
	ld	a4,-176(s0)
	add	a5,a4,a5
	lhu	a4,0(a5)
	.loc 1 1244 37
	ld	a5,-24(s0)
	andi	a3,a4,255
	lbu	a2,8(a5)
	andi	a2,a2,0
	or	a3,a2,a3
	sb	a3,8(a5)
	srliw	a4,a4,8
	slli	a4,a4,48
	srli	a4,a4,48
	lbu	a3,9(a5)
	andi	a3,a3,0
	or	a4,a3,a4
	sb	a4,9(a5)
	.loc 1 1245 18
	ld	a5,-24(s0)
	addi	a3,a5,4
	ld	a5,-24(s0)
	lbu	a4,8(a5)
	lbu	a5,9(a5)
	slli	a5,a5,8
	or	a5,a5,a4
	slli	a5,a5,48
	srli	a5,a5,48
	mv	a1,a5
	mv	a0,a3
	call	GetBootOptionCrc
	sd	a0,-40(s0)
	.loc 1 1246 40
	ld	a5,-40(s0)
	.loc 1 1246 12
	bge	a5,zero,.L192
	.loc 1 1247 11
	lla	a5,gShellBcfgHiiHandle
	ld	a4,0(a5)
	lla	a6,.LC14
	lla	a5,.LC5
	li	a3,5
	li	a2,0
	li	a1,-1
	li	a0,-1
	call	ShellPrintHiiEx@plt
	.loc 1 1248 23
	li	a5,2
	sw	a5,-28(s0)
.L192:
	.loc 1 1252 10
	lw	a5,-28(s0)
	sext.w	a5,a5
	bne	a5,zero,.L167
	.loc 1 1253 20
	sd	zero,-88(s0)
	.loc 1 1253 45
	sw	zero,-68(s0)
	.loc 1 1253 9
	j	.L193
.L197:
	.loc 1 1254 11
	lw	a4,-68(s0)
	addi	a5,s0,-144
	mv	a3,a4
	lla	a2,.LC16
	li	a1,24
	mv	a0,a5
	call	UnicodeSPrint@plt
	.loc 1 1255 20
	addi	a4,s0,-152
	addi	a5,s0,-144
	li	a2,0
	mv	a1,a4
	mv	a0,a5
	call	GetEfiGlobalVariable2@plt
	sd	a0,-40(s0)
	.loc 1 1256 14
	ld	a4,-40(s0)
	li	a5,-1
	slli	a5,a5,63
	addi	a5,a5,14
	beq	a4,a5,.L210
	.loc 1 1260 15
	ld	a5,-40(s0)
	.loc 1 1260 14
	blt	a5,zero,.L196
	.loc 1 1261 37
	ld	a5,-152(s0)
	.loc 1 1261 21
	beq	a5,zero,.L196
	.loc 1 1261 56 discriminator 1
	ld	a5,-152(s0)
	mv	a0,a5
	call	FreePool@plt
	.loc 1 1261 97 discriminator 2
	sd	zero,-152(s0)
.L196:
	.loc 1 1253 78 discriminator 2
	lw	a5,-68(s0)
	addiw	a5,a5,1
	sw	a5,-68(s0)
.L193:
	.loc 1 1253 59 discriminator 1
	lw	a5,-68(s0)
	sext.w	a4,a5
	li	a5,65536
	bltu	a4,a5,.L197
	j	.L195
.L210:
	.loc 1 1257 13
	nop
.L195:
	.loc 1 1265 12
	lw	a5,-68(s0)
	sext.w	a4,a5
	li	a5,65536
	bgeu	a4,a5,.L198
	.loc 1 1266 23
	la	a5,gRT
	ld	a5,0(a5)
	ld	a5,88(a5)
	.loc 1 1270 107
	ld	a4,-104(s0)
	srli	a4,a4,30
	andi	a4,a4,3
	andi	a4,a4,0xff
	.loc 1 1270 77
	slli	a4,a4,2
	.loc 1 1270 51
	addi	a3,a4,10
	.loc 1 1266 20
	addi	a0,s0,-144
	ld	a4,-24(s0)
	li	a2,7
	la	a1,gEfiGlobalVariableGuid
	jalr	a5
.LVL20:
	sd	a0,-40(s0)
	.loc 1 1273 42
	ld	a5,-40(s0)
	.loc 1 1273 14
	bge	a5,zero,.L167
	.loc 1 1274 13
	lla	a5,gShellBcfgHiiHandle
	ld	a4,0(a5)
	addi	a5,s0,-144
	mv	a6,a5
	lla	a5,.LC5
	li	a3,22
	li	a2,0
	li	a1,-1
	li	a0,-1
	call	ShellPrintHiiEx@plt
	.loc 1 1275 25
	li	a5,2
	sw	a5,-28(s0)
	j	.L167
.L198:
	.loc 1 1278 11
	lla	a5,gShellBcfgHiiHandle
	ld	a4,0(a5)
	lla	a5,.LC5
	li	a3,23
	li	a2,0
	li	a1,-1
	li	a0,-1
	call	ShellPrintHiiEx@plt
	.loc 1 1279 23
	li	a5,2
	sw	a5,-28(s0)
.L167:
	.loc 1 1292 6
	lw	a5,-28(s0)
	sext.w	a5,a5
	bne	a5,zero,.L199
	.loc 1 1292 52 discriminator 1
	ld	a5,-120(s0)
	.loc 1 1292 38 discriminator 1
	bne	a5,zero,.L200
	.loc 1 1292 69 discriminator 2
	ld	a5,-64(s0)
	beq	a5,zero,.L199
.L200:
	.loc 1 1293 18
	ld	a5,-120(s0)
	.loc 1 1293 8
	beq	a5,zero,.L201
	.loc 1 1297 16
	ld	a5,-120(s0)
	addi	a4,s0,-160
	li	a3,0
	li	a2,1
	mv	a1,a4
	mv	a0,a5
	call	ShellOpenFileByName@plt
	sd	a0,-40(s0)
	.loc 1 1303 11
	ld	a5,-40(s0)
	.loc 1 1303 10
	blt	a5,zero,.L202
	.loc 1 1304 18
	ld	a5,-160(s0)
	addi	a4,s0,-112
	mv	a1,a4
	mv	a0,a5
	call	ShellGetFileSize@plt
	sd	a0,-40(s0)
.L202:
	.loc 1 1307 14
	ld	a5,-112(s0)
	mv	a0,a5
	call	AllocateZeroPool@plt
	sd	a0,-64(s0)
	.loc 1 1308 10
	ld	a5,-64(s0)
	bne	a5,zero,.L203
	.loc 1 1309 9
	lla	a5,gShellBcfgHiiHandle
	ld	a4,0(a5)
	lla	a5,.LC5
	li	a3,2
	li	a2,0
	li	a1,-1
	li	a0,-1
	call	ShellPrintHiiEx@plt
	.loc 1 1310 21
	li	a5,9
	sw	a5,-28(s0)
.L203:
	.loc 1 1313 11
	ld	a5,-40(s0)
	.loc 1 1313 10
	blt	a5,zero,.L204
	.loc 1 1314 18
	ld	a5,-160(s0)
	addi	a4,s0,-112
	ld	a2,-64(s0)
	mv	a1,a4
	mv	a0,a5
	call	ShellReadFile@plt
	sd	a0,-40(s0)
	j	.L204
.L201:
	.loc 1 1317 22
	ld	a0,-64(s0)
	call	StrSize@plt
	mv	a5,a0
	.loc 1 1317 20 discriminator 1
	sd	a5,-112(s0)
.L204:
	.loc 1 1320 9
	ld	a5,-40(s0)
	.loc 1 1320 8
	blt	a5,zero,.L205
	.loc 1 1320 63 discriminator 1
	lw	a5,-28(s0)
	sext.w	a5,a5
	bne	a5,zero,.L205
	.loc 1 1320 97 discriminator 2
	ld	a5,-64(s0)
	beq	a5,zero,.L205
	.loc 1 1321 48
	lhu	a5,-70(s0)
	slli	a5,a5,1
	ld	a4,-176(s0)
	add	a5,a4,a5
	.loc 1 1321 16
	lhu	a5,0(a5)
	ld	a4,-112(s0)
	lw	a3,-188(s0)
	ld	a2,-64(s0)
	mv	a1,a4
	mv	a0,a5
	call	UpdateOptionalData
	sd	a0,-40(s0)
	.loc 1 1322 38
	ld	a5,-40(s0)
	.loc 1 1322 10
	bge	a5,zero,.L205
	.loc 1 1323 9
	lla	a5,gShellBcfgHiiHandle
	ld	a4,0(a5)
	addi	a5,s0,-144
	mv	a6,a5
	lla	a5,.LC5
	li	a3,22
	li	a2,0
	li	a1,-1
	li	a0,-1
	call	ShellPrintHiiEx@plt
	.loc 1 1324 21
	li	a5,2
	sw	a5,-28(s0)
.L205:
	.loc 1 1328 36
	ld	a5,-40(s0)
	.loc 1 1328 8
	bge	a5,zero,.L199
	.loc 1 1328 62 discriminator 1
	lw	a5,-28(s0)
	sext.w	a5,a5
	bne	a5,zero,.L199
	.loc 1 1329 7
	lla	a5,gShellBcfgHiiHandle
	ld	a4,0(a5)
	addi	a5,s0,-144
	mv	a6,a5
	lla	a5,.LC5
	li	a3,22
	li	a2,0
	li	a1,-1
	li	a0,-1
	call	ShellPrintHiiEx@plt
	.loc 1 1330 19
	li	a5,2
	sw	a5,-28(s0)
.L199:
	.loc 1 1334 11
	ld	a5,-64(s0)
	beq	a5,zero,.L206
	.loc 1 1334 38 discriminator 1
	ld	a0,-64(s0)
	call	FreePool@plt
	.loc 1 1334 63 discriminator 2
	sd	zero,-64(s0)
.L206:
	.loc 1 1335 11
	ld	a5,-24(s0)
	beq	a5,zero,.L207
	.loc 1 1335 49 discriminator 1
	ld	a0,-24(s0)
	call	FreePool@plt
	.loc 1 1335 96 discriminator 2
	sd	zero,-24(s0)
.L207:
	.loc 1 1336 23
	ld	a5,-120(s0)
	.loc 1 1336 11
	beq	a5,zero,.L208
	.loc 1 1336 42 discriminator 1
	ld	a5,-120(s0)
	mv	a0,a5
	call	FreePool@plt
	.loc 1 1336 75 discriminator 2
	sd	zero,-120(s0)
.L208:
	.loc 1 1337 10
	lw	a5,-28(s0)
.L209:
	.loc 1 1338 1
	mv	a0,a5
	ld	ra,184(sp)
	.cfi_restore 1
	ld	s0,176(sp)
	.cfi_restore 8
	.cfi_def_cfa 2, 192
	addi	sp,sp,192
	.cfi_def_cfa_offset 0
	jr	ra
	.cfi_endproc
.LFE8:
	.size	BcfgAddOpt, .-BcfgAddOpt
	.section	.text.BcfgDisplayDump,"ax",@progbits
	.align	1
	.globl	BcfgDisplayDump
	.type	BcfgDisplayDump, @function
BcfgDisplayDump:
.LFB9:
	.loc 1 1358 1
	.cfi_startproc
	addi	sp,sp,-176
	.cfi_def_cfa_offset 176
	sd	ra,168(sp)
	sd	s0,160(sp)
	.cfi_offset 1, -8
	.cfi_offset 8, -16
	addi	s0,sp,176
	.cfi_def_cfa 8, 0
	sd	a0,-136(s0)
	sd	a1,-144(s0)
	sd	a2,-152(s0)
	mv	a5,a3
	sb	a5,-153(s0)
	.loc 1 1372 6
	ld	a5,-144(s0)
	bne	a5,zero,.L212
	.loc 1 1373 5
	lla	a5,gShellBcfgHiiHandle
	ld	a4,0(a5)
	lla	a5,.LC5
	li	a3,25
	li	a2,0
	li	a1,-1
	li	a0,-1
	call	ShellPrintHiiEx@plt
	.loc 1 1374 12
	li	a5,0
	j	.L229
.L212:
	.loc 1 1377 10
	sd	zero,-56(s0)
	.loc 1 1379 16
	sd	zero,-40(s0)
	.loc 1 1379 3
	j	.L214
.L226:
	.loc 1 1380 12
	sd	zero,-32(s0)
	.loc 1 1381 16
	sd	zero,-104(s0)
	.loc 1 1382 19
	sd	zero,-48(s0)
	.loc 1 1384 84
	ld	a5,-40(s0)
	slli	a5,a5,1
	ld	a4,-152(s0)
	add	a5,a4,a5
	lhu	a5,0(a5)
	.loc 1 1384 5
	sext.w	a4,a5
	addi	a5,s0,-128
	ld	a3,-136(s0)
	lla	a2,.LC2
	li	a1,24
	mv	a0,a5
	call	UnicodeSPrint@plt
	.loc 1 1386 17
	la	a5,gRT
	ld	a5,0(a5)
	ld	a5,72(a5)
	.loc 1 1386 14
	addi	a3,s0,-104
	addi	a0,s0,-128
	ld	a4,-32(s0)
	li	a2,0
	la	a1,gEfiGlobalVariableGuid
	jalr	a5
.LVL21:
	sd	a0,-24(s0)
	.loc 1 1393 8
	ld	a4,-24(s0)
	li	a5,-1
	slli	a5,a5,63
	addi	a5,a5,5
	bne	a4,a5,.L215
	.loc 1 1394 16
	ld	a5,-104(s0)
	mv	a0,a5
	call	AllocateZeroPool@plt
	sd	a0,-32(s0)
	.loc 1 1395 10
	ld	a5,-32(s0)
	bne	a5,zero,.L216
	.loc 1 1396 9
	lla	a5,gShellBcfgHiiHandle
	ld	a4,0(a5)
	lla	a5,.LC5
	li	a3,2
	li	a2,0
	li	a1,-1
	li	a0,-1
	call	ShellPrintHiiEx@plt
	.loc 1 1397 9
	ld	a5,-56(s0)
	addi	a5,a5,1
	sd	a5,-56(s0)
	.loc 1 1398 9
	j	.L217
.L216:
	.loc 1 1401 19
	la	a5,gRT
	ld	a5,0(a5)
	ld	a5,72(a5)
	.loc 1 1401 16
	addi	a3,s0,-104
	addi	a0,s0,-128
	ld	a4,-32(s0)
	li	a2,0
	la	a1,gEfiGlobalVariableGuid
	jalr	a5
.LVL22:
	sd	a0,-24(s0)
.L215:
	.loc 1 1410 36
	ld	a5,-24(s0)
	.loc 1 1410 8
	blt	a5,zero,.L218
	.loc 1 1410 62 discriminator 1
	ld	a5,-32(s0)
	bne	a5,zero,.L219
.L218:
	.loc 1 1411 7
	lla	a5,gShellBcfgHiiHandle
	ld	a4,0(a5)
	addi	a5,s0,-128
	mv	a6,a5
	lla	a5,.LC5
	li	a3,14
	li	a2,0
	li	a1,-1
	li	a0,-1
	call	ShellPrintHiiEx@plt
	.loc 1 1412 7
	ld	a5,-56(s0)
	addi	a5,a5,1
	sd	a5,-56(s0)
	.loc 1 1413 7
	j	.L217
.L219:
	.loc 1 1420 20
	ld	a4,-104(s0)
	.loc 1 1420 8
	li	a5,7
	bgtu	a4,a5,.L220
	.loc 1 1421 7
	lla	a5,gShellBcfgHiiHandle
	ld	a4,0(a5)
	addi	a5,s0,-128
	mv	a6,a5
	lla	a5,.LC5
	li	a3,15
	li	a2,0
	li	a1,-1
	li	a0,-1
	call	ShellPrintHiiEx@plt
	.loc 1 1430 7
	ld	a5,-56(s0)
	addi	a5,a5,1
	sd	a5,-56(s0)
	.loc 1 1431 7
	j	.L217
.L220:
	.loc 1 1434 16
	ld	a5,-32(s0)
	sd	a5,-64(s0)
	.loc 1 1435 17
	ld	a5,-32(s0)
	addi	a5,a5,6
	sd	a5,-72(s0)
	.loc 1 1436 23
	ld	a0,-72(s0)
	call	StrSize@plt
	sd	a0,-80(s0)
	.loc 1 1438 19
	ld	a5,-64(s0)
	lbu	a4,4(a5)
	lbu	a5,5(a5)
	slli	a5,a5,8
	or	a5,a5,a4
	slli	a5,a5,48
	srli	a5,a5,48
	.loc 1 1438 8
	beq	a5,zero,.L221
	.loc 1 1439 20
	ld	a4,-72(s0)
	ld	a5,-80(s0)
	add	a5,a4,a5
	sd	a5,-88(s0)
	.loc 1 1440 23
	li	a2,0
	li	a1,1
	ld	a0,-88(s0)
	call	ConvertDevicePathToText@plt
	sd	a0,-48(s0)
	.loc 1 1441 10
	ld	a5,-48(s0)
	bne	a5,zero,.L221
	.loc 1 1442 9
	lla	a5,gShellBcfgHiiHandle
	ld	a4,0(a5)
	lla	a5,.LC5
	li	a3,2
	li	a2,0
	li	a1,-1
	li	a0,-1
	call	ShellPrintHiiEx@plt
	.loc 1 1443 9
	ld	a5,-56(s0)
	addi	a5,a5,1
	sd	a5,-56(s0)
	.loc 1 1444 9
	j	.L217
.L221:
	.loc 1 1449 36
	ld	a5,-64(s0)
	lbu	a4,4(a5)
	lbu	a5,5(a5)
	slli	a5,a5,8
	or	a5,a5,a4
	slli	a5,a5,48
	srli	a5,a5,48
	mv	a4,a5
	.loc 1 1448 63
	ld	a5,-80(s0)
	add	a5,a4,a5
	.loc 1 1448 24
	addi	a5,a5,6
	sd	a5,-96(s0)
	.loc 1 1451 5
	lla	a5,gShellBcfgHiiHandle
	ld	a3,0(a5)
	.loc 1 1461 26
	ld	a5,-104(s0)
	.loc 1 1451 5
	ld	a4,-96(s0)
	bltu	a4,a5,.L222
	.loc 1 1451 5 is_stmt 0 discriminator 1
	li	a5,78
	j	.L223
.L222:
	.loc 1 1451 5 discriminator 2
	li	a5,89
.L223:
	.loc 1 1451 5 discriminator 4
	addi	a4,s0,-128
	sd	a5,8(sp)
	ld	a5,-48(s0)
	sd	a5,0(sp)
	ld	a7,-72(s0)
	mv	a6,a4
	ld	a5,-40(s0)
	mv	a4,a3
	li	a3,26
	li	a2,0
	li	a1,-1
	li	a0,-1
	call	ShellPrintHiiEx@plt
	.loc 1 1463 8 is_stmt 1
	lbu	a5,-153(s0)
	andi	a5,a5,0xff
	beq	a5,zero,.L230
	.loc 1 1463 46 discriminator 1
	ld	a5,-104(s0)
	.loc 1 1463 23 discriminator 1
	ld	a4,-96(s0)
	bgeu	a4,a5,.L230
	.loc 1 1464 7
	ld	a4,-104(s0)
	ld	a5,-96(s0)
	sub	a2,a4,a5
	.loc 1 1468 16
	ld	a4,-32(s0)
	ld	a5,-96(s0)
	add	a5,a4,a5
	.loc 1 1464 7
	mv	a3,a5
	li	a1,0
	li	a0,2
	call	DumpHex@plt
	j	.L217
.L230:
	.loc 1 1472 1
	nop
.L217:
	.loc 1 1473 8
	ld	a5,-32(s0)
	beq	a5,zero,.L224
	.loc 1 1474 7
	ld	a0,-32(s0)
	call	FreePool@plt
.L224:
	.loc 1 1477 8
	ld	a5,-48(s0)
	beq	a5,zero,.L225
	.loc 1 1478 7
	ld	a0,-48(s0)
	call	FreePool@plt
.L225:
	.loc 1 1379 50 discriminator 2
	ld	a5,-40(s0)
	addi	a5,a5,1
	sd	a5,-40(s0)
.L214:
	.loc 1 1379 29 discriminator 1
	ld	a4,-40(s0)
	ld	a5,-144(s0)
	bltu	a4,a5,.L226
	.loc 1 1482 49
	ld	a5,-56(s0)
	beq	a5,zero,.L227
	.loc 1 1482 49 is_stmt 0 discriminator 1
	li	a5,2
	.loc 1 1482 49
	j	.L229
.L227:
	.loc 1 1482 49 discriminator 2
	li	a5,0
.L229:
	.loc 1 1483 1 is_stmt 1
	mv	a0,a5
	ld	ra,168(sp)
	.cfi_restore 1
	ld	s0,160(sp)
	.cfi_restore 8
	.cfi_def_cfa 2, 176
	addi	sp,sp,176
	.cfi_def_cfa_offset 0
	jr	ra
	.cfi_endproc
.LFE9:
	.size	BcfgDisplayDump, .-BcfgDisplayDump
	.section	.text.InitBcfgStruct,"ax",@progbits
	.align	1
	.globl	InitBcfgStruct
	.type	InitBcfgStruct, @function
InitBcfgStruct:
.LFB10:
	.loc 1 1494 1
	.cfi_startproc
	addi	sp,sp,-32
	.cfi_def_cfa_offset 32
	sd	ra,24(sp)
	sd	s0,16(sp)
	.cfi_offset 1, -8
	.cfi_offset 8, -16
	addi	s0,sp,32
	.cfi_def_cfa 8, 0
	sd	a0,-24(s0)
	.loc 1 1496 18
	ld	a5,-24(s0)
	li	a4,2
	sw	a4,0(a5)
	.loc 1 1497 16
	ld	a5,-24(s0)
	li	a4,11
	sw	a4,4(a5)
	.loc 1 1498 19
	ld	a5,-24(s0)
	sh	zero,8(a5)
	.loc 1 1499 19
	ld	a5,-24(s0)
	sh	zero,10(a5)
	.loc 1 1500 23
	ld	a5,-24(s0)
	sd	zero,16(a5)
	.loc 1 1501 20
	ld	a5,-24(s0)
	sd	zero,24(a5)
	.loc 1 1502 23
	ld	a5,-24(s0)
	sd	zero,32(a5)
	.loc 1 1503 17
	ld	a5,-24(s0)
	sd	zero,40(a5)
	.loc 1 1504 19
	ld	a5,-24(s0)
	sd	zero,48(a5)
	.loc 1 1505 1
	nop
	ld	ra,24(sp)
	.cfi_restore 1
	ld	s0,16(sp)
	.cfi_restore 8
	.cfi_def_cfa 2, 32
	addi	sp,sp,32
	.cfi_def_cfa_offset 0
	jr	ra
	.cfi_endproc
.LFE10:
	.size	InitBcfgStruct, .-InitBcfgStruct
	.section	.rodata
	.align	3
.LC17:
	.string	"-"
	.string	"v"
	.zero	2
	.align	3
.LC18:
	.string	"-"
	.string	"o"
	.string	"p"
	.string	"t"
	.zero	2
	.section	.data.rel.ro.local.ParamList,"aw"
	.align	3
	.type	ParamList, @object
	.size	ParamList, 48
ParamList:
	.dword	.LC17
	.word	0
	.zero	4
	.dword	.LC18
	.word	5
	.zero	4
	.dword	0
	.word	7
	.zero	4
	.section	.rodata
	.align	3
.LC19:
	.string	"d"
	.string	"r"
	.string	"i"
	.string	"v"
	.string	"e"
	.string	"r"
	.zero	2
	.align	3
.LC20:
	.string	"b"
	.string	"o"
	.string	"o"
	.string	"t"
	.zero	2
	.align	3
.LC21:
	.string	"N"
	.string	"U"
	.string	"L"
	.string	"L"
	.zero	2
	.align	3
.LC22:
	.string	"d"
	.string	"u"
	.string	"m"
	.string	"p"
	.zero	2
	.align	3
.LC23:
	.string	"-"
	.string	"v"
	.string	" "
	.string	"("
	.string	"w"
	.string	"i"
	.string	"t"
	.string	"h"
	.string	"o"
	.string	"u"
	.string	"t"
	.string	" "
	.string	"d"
	.string	"u"
	.string	"m"
	.string	"p"
	.string	")"
	.zero	2
	.align	3
.LC24:
	.string	"a"
	.string	"d"
	.string	"d"
	.zero	2
	.align	3
.LC25:
	.string	"a"
	.string	"d"
	.string	"d"
	.string	"p"
	.zero	2
	.align	3
.LC26:
	.string	"a"
	.string	"d"
	.string	"d"
	.string	"h"
	.zero	2
	.align	3
.LC27:
	.string	"r"
	.string	"m"
	.zero	2
	.align	3
.LC28:
	.string	"m"
	.string	"v"
	.zero	2
	.align	3
.LC29:
	.string	"m"
	.string	"o"
	.string	"d"
	.zero	2
	.align	3
.LC30:
	.string	"m"
	.string	"o"
	.string	"d"
	.string	"f"
	.zero	2
	.align	3
.LC31:
	.string	"m"
	.string	"o"
	.string	"d"
	.string	"p"
	.zero	2
	.align	3
.LC32:
	.string	"m"
	.string	"o"
	.string	"d"
	.string	"h"
	.zero	2
	.align	3
.LC33:
	.zero	2
	.section	.text.ShellCommandRunBcfg,"ax",@progbits
	.align	1
	.globl	ShellCommandRunBcfg
	.type	ShellCommandRunBcfg, @function
ShellCommandRunBcfg:
.LFB11:
	.loc 1 1525 1
	.cfi_startproc
	addi	sp,sp,-208
	.cfi_def_cfa_offset 208
	sd	ra,200(sp)
	sd	s0,192(sp)
	sd	s1,184(sp)
	sd	s2,176(sp)
	sd	s3,168(sp)
	.cfi_offset 1, -8
	.cfi_offset 8, -16
	.cfi_offset 9, -24
	.cfi_offset 18, -32
	.cfi_offset 19, -40
	addi	s0,sp,208
	.cfi_def_cfa 8, 0
	sd	a0,-184(s0)
	sd	a1,-192(s0)
	.loc 1 1537 10
	sd	zero,-168(s0)
	.loc 1 1538 16
	sd	zero,-104(s0)
	.loc 1 1539 11
	sd	zero,-96(s0)
	.loc 1 1540 15
	sw	zero,-52(s0)
	.loc 1 1542 3
	addi	a5,s0,-160
	mv	a0,a5
	call	InitBcfgStruct
	.loc 1 1547 12
	call	ShellInitialize@plt
	sd	a0,-72(s0)
	.loc 1 1550 12
	call	CommandInit@plt
	sd	a0,-72(s0)
	.loc 1 1556 12
	addi	a2,s0,-104
	addi	a5,s0,-96
	li	a4,0
	li	a3,1
	mv	a1,a5
	lla	a0,ParamList
	call	ShellCommandLineParseEx@plt
	sd	a0,-72(s0)
	.loc 1 1557 34
	ld	a5,-72(s0)
	.loc 1 1557 6
	bge	a5,zero,.L233
	.loc 1 1558 8
	ld	a4,-72(s0)
	li	a5,-1
	slli	a5,a5,63
	addi	a5,a5,10
	bne	a4,a5,.L234
	.loc 1 1558 86 discriminator 1
	ld	a5,-104(s0)
	.loc 1 1558 69 discriminator 1
	beq	a5,zero,.L234
	.loc 1 1559 7
	lla	a5,gShellBcfgHiiHandle
	ld	a4,0(a5)
	ld	a5,-104(s0)
	mv	a6,a5
	lla	a5,.LC5
	li	a3,3
	li	a2,0
	li	a1,-1
	li	a0,-1
	call	ShellPrintHiiEx@plt
	.loc 1 1560 7
	ld	a5,-104(s0)
	mv	a0,a5
	call	FreePool@plt
	.loc 1 1561 19
	li	a5,2
	sw	a5,-52(s0)
	j	.L234
.L233:
	.loc 1 1569 9
	ld	a5,-96(s0)
	lla	a1,.LC18
	mv	a0,a5
	call	ShellCommandLineGetFlag@plt
	mv	a5,a0
	.loc 1 1569 8 discriminator 1
	beq	a5,zero,.L235
	.loc 1 1570 34
	ld	a5,-96(s0)
	lla	a1,.LC18
	mv	a0,a5
	call	ShellCommandLineGetValue@plt
	mv	a5,a0
	.loc 1 1570 32 discriminator 1
	sd	a5,-112(s0)
	.loc 1 1571 27
	ld	a5,-112(s0)
	.loc 1 1571 10
	bne	a5,zero,.L236
	.loc 1 1572 9
	lla	a5,gShellBcfgHiiHandle
	ld	a4,0(a5)
	lla	a6,.LC18
	lla	a5,.LC5
	li	a3,4
	li	a2,0
	li	a1,-1
	li	a0,-1
	call	ShellPrintHiiEx@plt
	.loc 1 1573 21
	li	a5,2
	sw	a5,-52(s0)
.L236:
	.loc 1 1576 29
	li	a5,6
	sw	a5,-156(s0)
.L235:
	.loc 1 1582 11
	ld	a5,-96(s0)
	mv	a0,a5
	call	ShellCommandLineGetCount@plt
	mv	a4,a0
	.loc 1 1582 8 discriminator 1
	li	a5,2
	bgtu	a4,a5,.L237
	.loc 1 1582 71 discriminator 2
	lw	a4,-156(s0)
	.loc 1 1582 51 discriminator 2
	li	a5,6
	bne	a4,a5,.L238
.L237:
	.loc 1 1583 11
	ld	a5,-96(s0)
	mv	a0,a5
	call	ShellCommandLineGetCount@plt
	mv	a4,a0
	.loc 1 1582 94 discriminator 4
	li	a5,1
	bgtu	a4,a5,.L239
	.loc 1 1583 71
	lw	a4,-156(s0)
	.loc 1 1583 51
	li	a5,6
	bne	a4,a5,.L239
.L238:
	.loc 1 1586 7
	lla	a5,gShellBcfgHiiHandle
	ld	a4,0(a5)
	lla	a5,.LC5
	li	a3,8
	li	a2,0
	li	a1,-1
	li	a0,-1
	call	ShellPrintHiiEx@plt
	.loc 1 1587 19
	li	a5,2
	sw	a5,-52(s0)
	j	.L240
.L239:
	.loc 1 1588 33
	la	a5,gUnicodeCollation
	ld	a5,0(a5)
	ld	s1,0(a5)
	.loc 1 1588 16
	la	a5,gUnicodeCollation
	ld	s2,0(a5)
	.loc 1 1588 74
	ld	a5,-96(s0)
	li	a1,1
	mv	a0,a5
	call	ShellCommandLineGetRawValue@plt
	mv	a5,a0
	.loc 1 1588 16 discriminator 1
	lla	a2,.LC19
	mv	a1,a5
	mv	a0,s2
	jalr	s1
.LVL23:
	mv	a5,a0
	.loc 1 1588 15 discriminator 2
	bne	a5,zero,.L241
	.loc 1 1589 31
	li	a5,1
	sw	a5,-160(s0)
	j	.L240
.L241:
	.loc 1 1590 33
	la	a5,gUnicodeCollation
	ld	a5,0(a5)
	ld	s1,0(a5)
	.loc 1 1590 16
	la	a5,gUnicodeCollation
	ld	s2,0(a5)
	.loc 1 1590 74
	ld	a5,-96(s0)
	li	a1,1
	mv	a0,a5
	call	ShellCommandLineGetRawValue@plt
	mv	a5,a0
	.loc 1 1590 16 discriminator 1
	lla	a2,.LC20
	mv	a1,a5
	mv	a0,s2
	jalr	s1
.LVL24:
	mv	a5,a0
	.loc 1 1590 15 discriminator 2
	bne	a5,zero,.L242
	.loc 1 1591 31
	sw	zero,-160(s0)
	j	.L240
.L242:
	.loc 1 1593 7
	lla	a5,gShellBcfgHiiHandle
	ld	a4,0(a5)
	lla	a5,.LC5
	li	a3,6
	li	a2,0
	li	a1,-1
	li	a0,-1
	call	ShellPrintHiiEx@plt
	.loc 1 1594 19
	li	a5,2
	sw	a5,-52(s0)
.L240:
	.loc 1 1600 8
	lw	a5,-52(s0)
	sext.w	a5,a5
	bne	a5,zero,.L243
	.loc 1 1600 60 discriminator 1
	lw	a4,-160(s0)
	.loc 1 1600 40 discriminator 1
	li	a5,1
	bgtu	a4,a5,.L243
	.loc 1 1601 14
	sd	zero,-168(s0)
	.loc 1 1602 19
	la	a5,gRT
	ld	a5,0(a5)
	ld	a6,72(a5)
	.loc 1 1603 39
	lw	a5,-160(s0)
	.loc 1 1602 16
	bne	a5,zero,.L244
	.loc 1 1602 16 is_stmt 0 discriminator 1
	lla	a5,.LC10
	j	.L245
.L244:
	.loc 1 1602 16 discriminator 2
	lla	a5,.LC11
.L245:
	.loc 1 1607 39 is_stmt 1
	ld	a4,-120(s0)
	.loc 1 1602 16
	addi	a3,s0,-168
	li	a2,0
	la	a1,gEfiGlobalVariableGuid
	mv	a0,a5
	jalr	a6
.LVL25:
	sd	a0,-72(s0)
	.loc 1 1609 10
	ld	a4,-72(s0)
	li	a5,-1
	slli	a5,a5,63
	addi	a5,a5,5
	bne	a4,a5,.L243
	.loc 1 1610 34
	ld	a5,-168(s0)
	.loc 1 1610 58
	addi	a5,a5,8
	.loc 1 1610 34
	mv	a0,a5
	call	AllocateZeroPool@plt
	mv	a5,a0
	.loc 1 1610 32 discriminator 1
	sd	a5,-120(s0)
	.loc 1 1611 29
	ld	a5,-120(s0)
	.loc 1 1611 12
	bne	a5,zero,.L246
	.loc 1 1612 23
	li	a5,9
	sw	a5,-52(s0)
	j	.L243
.L246:
	.loc 1 1614 23
	la	a5,gRT
	ld	a5,0(a5)
	ld	a6,72(a5)
	.loc 1 1615 43
	lw	a5,-160(s0)
	.loc 1 1614 20
	bne	a5,zero,.L247
	.loc 1 1614 20 is_stmt 0 discriminator 1
	lla	a5,.LC10
	j	.L248
.L247:
	.loc 1 1614 20 discriminator 2
	lla	a5,.LC11
.L248:
	.loc 1 1619 43 is_stmt 1
	ld	a4,-120(s0)
	.loc 1 1614 20 discriminator 4
	addi	a3,s0,-168
	li	a2,0
	la	a1,gEfiGlobalVariableGuid
	mv	a0,a5
	jalr	a6
.LVL26:
	sd	a0,-72(s0)
.L243:
	.loc 1 1625 29
	ld	a5,-168(s0)
	srli	a5,a5,1
	.loc 1 1625 11
	sh	a5,-74(s0)
	.loc 1 1630 8
	lw	a5,-52(s0)
	sext.w	a5,a5
	bne	a5,zero,.L249
	.loc 1 1630 60 discriminator 1
	lw	a4,-160(s0)
	.loc 1 1630 40 discriminator 1
	li	a5,1
	bgtu	a4,a5,.L249
	.loc 1 1631 24
	li	a5,2
	sd	a5,-64(s0)
	.loc 1 1631 7
	j	.L250
.L313:
	.loc 1 1632 24
	ld	a5,-96(s0)
	ld	a1,-64(s0)
	mv	a0,a5
	call	ShellCommandLineGetRawValue@plt
	sd	a0,-88(s0)
	.loc 1 1633 12
	ld	a5,-88(s0)
	bne	a5,zero,.L251
	.loc 1 1634 11
	lla	a5,gShellBcfgHiiHandle
	ld	a4,0(a5)
	lla	a6,.LC21
	lla	a5,.LC5
	li	a3,5
	li	a2,0
	li	a1,-1
	li	a0,-1
	call	ShellPrintHiiEx@plt
	.loc 1 1635 23
	li	a5,2
	sw	a5,-52(s0)
	.loc 1 1636 11
	j	.L234
.L251:
	.loc 1 1639 30
	la	a5,gUnicodeCollation
	ld	a5,0(a5)
	ld	a5,0(a5)
	.loc 1 1639 13
	la	a4,gUnicodeCollation
	ld	a4,0(a4)
	lla	a2,.LC22
	ld	a1,-88(s0)
	mv	a0,a4
	jalr	a5
.LVL27:
	mv	a5,a0
	.loc 1 1639 12 discriminator 1
	bne	a5,zero,.L252
	.loc 1 1640 33
	sw	zero,-156(s0)
	.loc 1 1641 15
	ld	a5,-96(s0)
	mv	a0,a5
	call	ShellCommandLineGetCount@plt
	mv	a4,a0
	.loc 1 1641 14 discriminator 1
	li	a5,3
	bleu	a4,a5,.L253
	.loc 1 1642 13
	lla	a5,gShellBcfgHiiHandle
	ld	a4,0(a5)
	lla	a5,.LC5
	li	a3,9
	li	a2,0
	li	a1,-1
	li	a0,-1
	call	ShellPrintHiiEx@plt
	.loc 1 1643 25
	li	a5,2
	sw	a5,-52(s0)
	j	.L253
.L252:
	.loc 1 1645 20
	ld	a5,-96(s0)
	lla	a1,.LC17
	mv	a0,a5
	call	ShellCommandLineGetFlag@plt
	mv	a5,a0
	.loc 1 1645 19 discriminator 1
	beq	a5,zero,.L254
	.loc 1 1646 11
	lla	a5,gShellBcfgHiiHandle
	ld	a4,0(a5)
	lla	a6,.LC23
	lla	a5,.LC5
	li	a3,5
	li	a2,0
	li	a1,-1
	li	a0,-1
	call	ShellPrintHiiEx@plt
	.loc 1 1647 23
	li	a5,2
	sw	a5,-52(s0)
	j	.L253
.L254:
	.loc 1 1648 37
	la	a5,gUnicodeCollation
	ld	a5,0(a5)
	ld	a5,0(a5)
	.loc 1 1648 20
	la	a4,gUnicodeCollation
	ld	a4,0(a4)
	lla	a2,.LC24
	ld	a1,-88(s0)
	mv	a0,a4
	jalr	a5
.LVL28:
	mv	a5,a0
	.loc 1 1648 19 discriminator 1
	bne	a5,zero,.L255
	.loc 1 1649 28
	ld	a5,-64(s0)
	addi	s1,a5,3
	.loc 1 1649 36
	ld	a5,-96(s0)
	mv	a0,a5
	call	ShellCommandLineGetCount@plt
	mv	a5,a0
	.loc 1 1649 14 discriminator 1
	bltu	s1,a5,.L256
	.loc 1 1650 13
	lla	a5,gShellBcfgHiiHandle
	ld	a4,0(a5)
	lla	a5,.LC5
	li	a3,8
	li	a2,0
	li	a1,-1
	li	a0,-1
	call	ShellPrintHiiEx@plt
	.loc 1 1651 25
	li	a5,2
	sw	a5,-52(s0)
.L256:
	.loc 1 1654 33
	li	a5,1
	sw	a5,-156(s0)
	.loc 1 1655 26
	ld	a4,-96(s0)
	.loc 1 1655 24
	ld	a5,-64(s0)
	addi	a5,a5,1
	sd	a5,-64(s0)
	.loc 1 1655 26
	ld	a1,-64(s0)
	mv	a0,a4
	call	ShellCommandLineGetRawValue@plt
	sd	a0,-88(s0)
	.loc 1 1656 14
	ld	a5,-88(s0)
	beq	a5,zero,.L257
	.loc 1 1656 50 discriminator 1
	li	a2,0
	li	a1,1
	ld	a0,-88(s0)
	call	ShellIsHexOrDecimalNumber@plt
	mv	a5,a0
	.loc 1 1656 46 discriminator 2
	bne	a5,zero,.L258
.L257:
	.loc 1 1657 13
	lla	a5,gShellBcfgHiiHandle
	ld	a4,0(a5)
	ld	a6,-88(s0)
	lla	a5,.LC5
	li	a3,5
	li	a2,0
	li	a1,-1
	li	a0,-1
	call	ShellPrintHiiEx@plt
	.loc 1 1658 25
	li	a5,2
	sw	a5,-52(s0)
	j	.L253
.L258:
	.loc 1 1660 22
	addi	a5,s0,-176
	li	a3,0
	li	a2,1
	mv	a1,a5
	ld	a0,-88(s0)
	call	ShellConvertStringToUint64@plt
	sd	a0,-72(s0)
	.loc 1 1661 40
	ld	a5,-176(s0)
	slli	a5,a5,48
	srli	a5,a5,48
	.loc 1 1661 38
	sh	a5,-152(s0)
	.loc 1 1663 41
	ld	a4,-96(s0)
	.loc 1 1663 39
	ld	a5,-64(s0)
	addi	a5,a5,1
	sd	a5,-64(s0)
	.loc 1 1663 41
	ld	a1,-64(s0)
	mv	a0,a4
	call	ShellCommandLineGetRawValue@plt
	mv	a4,a0
	.loc 1 1663 41 is_stmt 0 discriminator 1
	addi	a5,s0,-160
	addi	a5,a5,24
	li	a3,0
	mv	a2,a4
	li	a1,0
	mv	a0,a5
	call	StrnCatGrow@plt
	mv	a5,a0
	.loc 1 1663 39 is_stmt 1 discriminator 2
	sd	a5,-136(s0)
	.loc 1 1665 44
	ld	a4,-96(s0)
	.loc 1 1665 42
	ld	a5,-64(s0)
	addi	a5,a5,1
	sd	a5,-64(s0)
	.loc 1 1665 44
	ld	a1,-64(s0)
	mv	a0,a4
	call	ShellCommandLineGetRawValue@plt
	mv	a4,a0
	.loc 1 1665 44 is_stmt 0 discriminator 1
	addi	a5,s0,-160
	addi	a5,a5,32
	li	a3,0
	mv	a2,a4
	li	a1,0
	mv	a0,a5
	call	StrnCatGrow@plt
	mv	a5,a0
	.loc 1 1665 42 is_stmt 1 discriminator 2
	sd	a5,-128(s0)
	j	.L253
.L255:
	.loc 1 1667 37
	la	a5,gUnicodeCollation
	ld	a5,0(a5)
	ld	a5,0(a5)
	.loc 1 1667 20
	la	a4,gUnicodeCollation
	ld	a4,0(a4)
	lla	a2,.LC25
	ld	a1,-88(s0)
	mv	a0,a4
	jalr	a5
.LVL29:
	mv	a5,a0
	.loc 1 1667 19 discriminator 1
	bne	a5,zero,.L260
	.loc 1 1668 28
	ld	a5,-64(s0)
	addi	s1,a5,3
	.loc 1 1668 36
	ld	a5,-96(s0)
	mv	a0,a5
	call	ShellCommandLineGetCount@plt
	mv	a5,a0
	.loc 1 1668 14 discriminator 1
	bltu	s1,a5,.L261
	.loc 1 1669 13
	lla	a5,gShellBcfgHiiHandle
	ld	a4,0(a5)
	lla	a5,.LC5
	li	a3,8
	li	a2,0
	li	a1,-1
	li	a0,-1
	call	ShellPrintHiiEx@plt
	.loc 1 1670 25
	li	a5,2
	sw	a5,-52(s0)
.L261:
	.loc 1 1673 33
	li	a5,2
	sw	a5,-156(s0)
	.loc 1 1674 26
	ld	a4,-96(s0)
	.loc 1 1674 24
	ld	a5,-64(s0)
	addi	a5,a5,1
	sd	a5,-64(s0)
	.loc 1 1674 26
	ld	a1,-64(s0)
	mv	a0,a4
	call	ShellCommandLineGetRawValue@plt
	sd	a0,-88(s0)
	.loc 1 1675 14
	ld	a5,-88(s0)
	beq	a5,zero,.L262
	.loc 1 1675 50 discriminator 1
	li	a2,0
	li	a1,1
	ld	a0,-88(s0)
	call	ShellIsHexOrDecimalNumber@plt
	mv	a5,a0
	.loc 1 1675 46 discriminator 2
	bne	a5,zero,.L263
.L262:
	.loc 1 1676 13
	lla	a5,gShellBcfgHiiHandle
	ld	a4,0(a5)
	ld	a6,-88(s0)
	lla	a5,.LC5
	li	a3,5
	li	a2,0
	li	a1,-1
	li	a0,-1
	call	ShellPrintHiiEx@plt
	.loc 1 1677 25
	li	a5,2
	sw	a5,-52(s0)
	j	.L253
.L263:
	.loc 1 1679 22
	addi	a5,s0,-176
	li	a3,0
	li	a2,1
	mv	a1,a5
	ld	a0,-88(s0)
	call	ShellConvertStringToUint64@plt
	sd	a0,-72(s0)
	.loc 1 1680 40
	ld	a5,-176(s0)
	slli	a5,a5,48
	srli	a5,a5,48
	.loc 1 1680 38
	sh	a5,-152(s0)
	.loc 1 1682 41
	ld	a4,-96(s0)
	.loc 1 1682 39
	ld	a5,-64(s0)
	addi	a5,a5,1
	sd	a5,-64(s0)
	.loc 1 1682 41
	ld	a1,-64(s0)
	mv	a0,a4
	call	ShellCommandLineGetRawValue@plt
	mv	a4,a0
	.loc 1 1682 41 is_stmt 0 discriminator 1
	addi	a5,s0,-160
	addi	a5,a5,24
	li	a3,0
	mv	a2,a4
	li	a1,0
	mv	a0,a5
	call	StrnCatGrow@plt
	mv	a5,a0
	.loc 1 1682 39 is_stmt 1 discriminator 2
	sd	a5,-136(s0)
	.loc 1 1684 44
	ld	a4,-96(s0)
	.loc 1 1684 42
	ld	a5,-64(s0)
	addi	a5,a5,1
	sd	a5,-64(s0)
	.loc 1 1684 44
	ld	a1,-64(s0)
	mv	a0,a4
	call	ShellCommandLineGetRawValue@plt
	mv	a4,a0
	.loc 1 1684 44 is_stmt 0 discriminator 1
	addi	a5,s0,-160
	addi	a5,a5,32
	li	a3,0
	mv	a2,a4
	li	a1,0
	mv	a0,a5
	call	StrnCatGrow@plt
	mv	a5,a0
	.loc 1 1684 42 is_stmt 1 discriminator 2
	sd	a5,-128(s0)
	j	.L253
.L260:
	.loc 1 1686 37
	la	a5,gUnicodeCollation
	ld	a5,0(a5)
	ld	a5,0(a5)
	.loc 1 1686 20
	la	a4,gUnicodeCollation
	ld	a4,0(a4)
	lla	a2,.LC26
	ld	a1,-88(s0)
	mv	a0,a4
	jalr	a5
.LVL30:
	mv	a5,a0
	.loc 1 1686 19 discriminator 1
	bne	a5,zero,.L265
	.loc 1 1687 28
	ld	a5,-64(s0)
	addi	s1,a5,3
	.loc 1 1687 36
	ld	a5,-96(s0)
	mv	a0,a5
	call	ShellCommandLineGetCount@plt
	mv	a5,a0
	.loc 1 1687 14 discriminator 1
	bltu	s1,a5,.L266
	.loc 1 1688 13
	lla	a5,gShellBcfgHiiHandle
	ld	a4,0(a5)
	lla	a5,.LC5
	li	a3,8
	li	a2,0
	li	a1,-1
	li	a0,-1
	call	ShellPrintHiiEx@plt
	.loc 1 1689 25
	li	a5,2
	sw	a5,-52(s0)
.L266:
	.loc 1 1692 33
	li	a5,3
	sw	a5,-156(s0)
	.loc 1 1693 26
	ld	a4,-96(s0)
	.loc 1 1693 24
	ld	a5,-64(s0)
	addi	a5,a5,1
	sd	a5,-64(s0)
	.loc 1 1693 26
	ld	a1,-64(s0)
	mv	a0,a4
	call	ShellCommandLineGetRawValue@plt
	sd	a0,-88(s0)
	.loc 1 1694 14
	ld	a5,-88(s0)
	beq	a5,zero,.L267
	.loc 1 1694 50 discriminator 1
	li	a2,0
	li	a1,1
	ld	a0,-88(s0)
	call	ShellIsHexOrDecimalNumber@plt
	mv	a5,a0
	.loc 1 1694 46 discriminator 2
	bne	a5,zero,.L268
.L267:
	.loc 1 1695 13
	lla	a5,gShellBcfgHiiHandle
	ld	a4,0(a5)
	ld	a6,-88(s0)
	lla	a5,.LC5
	li	a3,5
	li	a2,0
	li	a1,-1
	li	a0,-1
	call	ShellPrintHiiEx@plt
	.loc 1 1696 25
	li	a5,2
	sw	a5,-52(s0)
	j	.L253
.L268:
	.loc 1 1698 22
	addi	a5,s0,-176
	li	a3,0
	li	a2,1
	mv	a1,a5
	ld	a0,-88(s0)
	call	ShellConvertStringToUint64@plt
	sd	a0,-72(s0)
	.loc 1 1699 40
	ld	a5,-176(s0)
	slli	a5,a5,48
	srli	a5,a5,48
	.loc 1 1699 38
	sh	a5,-152(s0)
	.loc 1 1700 28
	ld	a4,-96(s0)
	.loc 1 1700 26
	ld	a5,-64(s0)
	addi	a5,a5,1
	sd	a5,-64(s0)
	.loc 1 1700 28
	ld	a1,-64(s0)
	mv	a0,a4
	call	ShellCommandLineGetRawValue@plt
	sd	a0,-88(s0)
	.loc 1 1701 16
	ld	a5,-88(s0)
	beq	a5,zero,.L270
	.loc 1 1701 52 discriminator 1
	li	a2,0
	li	a1,1
	ld	a0,-88(s0)
	call	ShellIsHexOrDecimalNumber@plt
	mv	a5,a0
	.loc 1 1701 48 discriminator 2
	bne	a5,zero,.L271
.L270:
	.loc 1 1702 15
	lla	a5,gShellBcfgHiiHandle
	ld	a4,0(a5)
	ld	a6,-88(s0)
	lla	a5,.LC5
	li	a3,5
	li	a2,0
	li	a1,-1
	li	a0,-1
	call	ShellPrintHiiEx@plt
	.loc 1 1703 27
	li	a5,2
	sw	a5,-52(s0)
	j	.L253
.L271:
	.loc 1 1705 24
	addi	a5,s0,-176
	li	a3,0
	li	a2,1
	mv	a1,a5
	ld	a0,-88(s0)
	call	ShellConvertStringToUint64@plt
	sd	a0,-72(s0)
	.loc 1 1706 46
	ld	a5,-176(s0)
	slli	a5,a5,48
	srli	a5,a5,48
	.loc 1 1706 44
	sd	a5,-144(s0)
	.loc 1 1708 46
	ld	a4,-96(s0)
	.loc 1 1708 44
	ld	a5,-64(s0)
	addi	a5,a5,1
	sd	a5,-64(s0)
	.loc 1 1708 46
	ld	a1,-64(s0)
	mv	a0,a4
	call	ShellCommandLineGetRawValue@plt
	mv	a4,a0
	.loc 1 1708 46 is_stmt 0 discriminator 1
	addi	a5,s0,-160
	addi	a5,a5,32
	li	a3,0
	mv	a2,a4
	li	a1,0
	mv	a0,a5
	call	StrnCatGrow@plt
	mv	a5,a0
	.loc 1 1708 44 is_stmt 1 discriminator 2
	sd	a5,-128(s0)
	j	.L253
.L265:
	.loc 1 1711 37
	la	a5,gUnicodeCollation
	ld	a5,0(a5)
	ld	a5,0(a5)
	.loc 1 1711 20
	la	a4,gUnicodeCollation
	ld	a4,0(a4)
	lla	a2,.LC27
	ld	a1,-88(s0)
	mv	a0,a4
	jalr	a5
.LVL31:
	mv	a5,a0
	.loc 1 1711 19 discriminator 1
	bne	a5,zero,.L272
	.loc 1 1712 28
	ld	a5,-64(s0)
	addi	s1,a5,1
	.loc 1 1712 36
	ld	a5,-96(s0)
	mv	a0,a5
	call	ShellCommandLineGetCount@plt
	mv	a5,a0
	.loc 1 1712 14 discriminator 1
	bltu	s1,a5,.L273
	.loc 1 1713 13
	lla	a5,gShellBcfgHiiHandle
	ld	a4,0(a5)
	lla	a5,.LC5
	li	a3,8
	li	a2,0
	li	a1,-1
	li	a0,-1
	call	ShellPrintHiiEx@plt
	.loc 1 1714 25
	li	a5,2
	sw	a5,-52(s0)
.L273:
	.loc 1 1717 33
	li	a5,4
	sw	a5,-156(s0)
	.loc 1 1718 26
	ld	a4,-96(s0)
	.loc 1 1718 24
	ld	a5,-64(s0)
	addi	a5,a5,1
	sd	a5,-64(s0)
	.loc 1 1718 26
	ld	a1,-64(s0)
	mv	a0,a4
	call	ShellCommandLineGetRawValue@plt
	sd	a0,-88(s0)
	.loc 1 1719 14
	ld	a5,-88(s0)
	beq	a5,zero,.L274
	.loc 1 1719 50 discriminator 1
	li	a2,0
	li	a1,1
	ld	a0,-88(s0)
	call	ShellIsHexOrDecimalNumber@plt
	mv	a5,a0
	.loc 1 1719 46 discriminator 2
	bne	a5,zero,.L275
.L274:
	.loc 1 1720 13
	lla	a5,gShellBcfgHiiHandle
	ld	a4,0(a5)
	ld	a6,-88(s0)
	lla	a5,.LC5
	li	a3,5
	li	a2,0
	li	a1,-1
	li	a0,-1
	call	ShellPrintHiiEx@plt
	.loc 1 1721 25
	li	a5,2
	sw	a5,-52(s0)
	j	.L253
.L275:
	.loc 1 1723 22
	addi	a5,s0,-176
	li	a3,0
	li	a2,1
	mv	a1,a5
	ld	a0,-88(s0)
	call	ShellConvertStringToUint64@plt
	sd	a0,-72(s0)
	.loc 1 1724 40
	ld	a5,-176(s0)
	slli	a5,a5,48
	srli	a5,a5,48
	.loc 1 1724 38
	sh	a5,-152(s0)
	.loc 1 1725 33
	lhu	a5,-152(s0)
	.loc 1 1725 16
	lhu	a4,-74(s0)
	sext.w	a4,a4
	sext.w	a5,a5
	bgtu	a4,a5,.L253
	.loc 1 1726 15
	lla	a5,gShellBcfgHiiHandle
	ld	a4,0(a5)
	lhu	a5,-74(s0)
	sext.w	a5,a5
	mv	a6,a5
	lla	a5,.LC5
	li	a3,24
	li	a2,0
	li	a1,-1
	li	a0,-1
	call	ShellPrintHiiEx@plt
	.loc 1 1727 27
	li	a5,2
	sw	a5,-52(s0)
	j	.L253
.L272:
	.loc 1 1730 37
	la	a5,gUnicodeCollation
	ld	a5,0(a5)
	ld	a5,0(a5)
	.loc 1 1730 20
	la	a4,gUnicodeCollation
	ld	a4,0(a4)
	lla	a2,.LC28
	ld	a1,-88(s0)
	mv	a0,a4
	jalr	a5
.LVL32:
	mv	a5,a0
	.loc 1 1730 19 discriminator 1
	bne	a5,zero,.L277
	.loc 1 1731 28
	ld	a5,-64(s0)
	addi	s1,a5,2
	.loc 1 1731 36
	ld	a5,-96(s0)
	mv	a0,a5
	call	ShellCommandLineGetCount@plt
	mv	a5,a0
	.loc 1 1731 14 discriminator 1
	bltu	s1,a5,.L278
	.loc 1 1732 13
	lla	a5,gShellBcfgHiiHandle
	ld	a4,0(a5)
	lla	a5,.LC5
	li	a3,8
	li	a2,0
	li	a1,-1
	li	a0,-1
	call	ShellPrintHiiEx@plt
	.loc 1 1733 25
	li	a5,2
	sw	a5,-52(s0)
.L278:
	.loc 1 1736 33
	li	a5,5
	sw	a5,-156(s0)
	.loc 1 1737 26
	ld	a4,-96(s0)
	.loc 1 1737 24
	ld	a5,-64(s0)
	addi	a5,a5,1
	sd	a5,-64(s0)
	.loc 1 1737 26
	ld	a1,-64(s0)
	mv	a0,a4
	call	ShellCommandLineGetRawValue@plt
	sd	a0,-88(s0)
	.loc 1 1738 14
	ld	a5,-88(s0)
	beq	a5,zero,.L279
	.loc 1 1738 50 discriminator 1
	li	a2,0
	li	a1,1
	ld	a0,-88(s0)
	call	ShellIsHexOrDecimalNumber@plt
	mv	a5,a0
	.loc 1 1738 46 discriminator 2
	bne	a5,zero,.L280
.L279:
	.loc 1 1739 13
	lla	a5,gShellBcfgHiiHandle
	ld	a4,0(a5)
	ld	a6,-88(s0)
	lla	a5,.LC5
	li	a3,5
	li	a2,0
	li	a1,-1
	li	a0,-1
	call	ShellPrintHiiEx@plt
	.loc 1 1740 25
	li	a5,2
	sw	a5,-52(s0)
	j	.L253
.L280:
	.loc 1 1742 22
	addi	a5,s0,-176
	li	a3,0
	li	a2,1
	mv	a1,a5
	ld	a0,-88(s0)
	call	ShellConvertStringToUint64@plt
	sd	a0,-72(s0)
	.loc 1 1743 40
	ld	a5,-176(s0)
	slli	a5,a5,48
	srli	a5,a5,48
	.loc 1 1743 38
	sh	a5,-152(s0)
	.loc 1 1744 33
	lhu	a5,-152(s0)
	.loc 1 1744 16
	lhu	a4,-74(s0)
	sext.w	a4,a4
	sext.w	a5,a5
	bgtu	a4,a5,.L282
	.loc 1 1745 15
	lla	a5,gShellBcfgHiiHandle
	ld	a4,0(a5)
	lhu	a5,-74(s0)
	sext.w	a5,a5
	mv	a6,a5
	lla	a5,.LC5
	li	a3,24
	li	a2,0
	li	a1,-1
	li	a0,-1
	call	ShellPrintHiiEx@plt
	.loc 1 1746 27
	li	a5,2
	sw	a5,-52(s0)
	j	.L253
.L282:
	.loc 1 1748 30
	ld	a4,-96(s0)
	.loc 1 1748 28
	ld	a5,-64(s0)
	addi	a5,a5,1
	sd	a5,-64(s0)
	.loc 1 1748 30
	ld	a1,-64(s0)
	mv	a0,a4
	call	ShellCommandLineGetRawValue@plt
	sd	a0,-88(s0)
	.loc 1 1749 18
	ld	a5,-88(s0)
	beq	a5,zero,.L283
	.loc 1 1749 54 discriminator 1
	li	a2,0
	li	a1,1
	ld	a0,-88(s0)
	call	ShellIsHexOrDecimalNumber@plt
	mv	a5,a0
	.loc 1 1749 50 discriminator 2
	bne	a5,zero,.L284
.L283:
	.loc 1 1750 17
	lla	a5,gShellBcfgHiiHandle
	ld	a4,0(a5)
	ld	a6,-88(s0)
	lla	a5,.LC5
	li	a3,5
	li	a2,0
	li	a1,-1
	li	a0,-1
	call	ShellPrintHiiEx@plt
	.loc 1 1751 29
	li	a5,2
	sw	a5,-52(s0)
	j	.L285
.L284:
	.loc 1 1753 26
	addi	a5,s0,-176
	li	a3,0
	li	a2,1
	mv	a1,a5
	ld	a0,-88(s0)
	call	ShellConvertStringToUint64@plt
	sd	a0,-72(s0)
	.loc 1 1754 44
	ld	a5,-176(s0)
	slli	a5,a5,48
	srli	a5,a5,48
	.loc 1 1754 42
	sh	a5,-150(s0)
.L285:
	.loc 1 1757 37
	lhu	a4,-150(s0)
	.loc 1 1757 65
	lhu	a5,-152(s0)
	.loc 1 1757 18
	sext.w	a4,a4
	sext.w	a5,a5
	beq	a4,a5,.L286
	.loc 1 1758 38
	lhu	a5,-150(s0)
	.loc 1 1758 18
	lhu	a4,-74(s0)
	sext.w	a4,a4
	sext.w	a5,a5
	bgtu	a4,a5,.L253
.L286:
	.loc 1 1761 17
	lla	a5,gShellBcfgHiiHandle
	ld	a4,0(a5)
	lhu	a5,-74(s0)
	sext.w	a5,a5
	mv	a6,a5
	lla	a5,.LC5
	li	a3,24
	li	a2,0
	li	a1,-1
	li	a0,-1
	call	ShellPrintHiiEx@plt
	.loc 1 1762 29
	li	a5,2
	sw	a5,-52(s0)
	j	.L253
.L277:
	.loc 1 1766 37
	la	a5,gUnicodeCollation
	ld	a5,0(a5)
	ld	a5,0(a5)
	.loc 1 1766 20
	la	a4,gUnicodeCollation
	ld	a4,0(a4)
	lla	a2,.LC29
	ld	a1,-88(s0)
	mv	a0,a4
	jalr	a5
.LVL33:
	mv	a5,a0
	.loc 1 1766 19 discriminator 1
	bne	a5,zero,.L287
	.loc 1 1767 28
	ld	a5,-64(s0)
	addi	s1,a5,2
	.loc 1 1767 36
	ld	a5,-96(s0)
	mv	a0,a5
	call	ShellCommandLineGetCount@plt
	mv	a5,a0
	.loc 1 1767 14 discriminator 1
	bltu	s1,a5,.L288
	.loc 1 1768 13
	lla	a5,gShellBcfgHiiHandle
	ld	a4,0(a5)
	lla	a5,.LC5
	li	a3,8
	li	a2,0
	li	a1,-1
	li	a0,-1
	call	ShellPrintHiiEx@plt
	.loc 1 1769 25
	li	a5,2
	sw	a5,-52(s0)
	j	.L253
.L288:
	.loc 1 1771 35
	li	a5,7
	sw	a5,-156(s0)
	.loc 1 1772 28
	ld	a4,-96(s0)
	.loc 1 1772 26
	ld	a5,-64(s0)
	addi	a5,a5,1
	sd	a5,-64(s0)
	.loc 1 1772 28
	ld	a1,-64(s0)
	mv	a0,a4
	call	ShellCommandLineGetRawValue@plt
	sd	a0,-88(s0)
	.loc 1 1773 16
	ld	a5,-88(s0)
	beq	a5,zero,.L290
	.loc 1 1773 52 discriminator 1
	li	a2,0
	li	a1,1
	ld	a0,-88(s0)
	call	ShellIsHexOrDecimalNumber@plt
	mv	a5,a0
	.loc 1 1773 48 discriminator 2
	bne	a5,zero,.L291
.L290:
	.loc 1 1774 15
	lla	a5,gShellBcfgHiiHandle
	ld	a4,0(a5)
	ld	a6,-88(s0)
	lla	a5,.LC5
	li	a3,5
	li	a2,0
	li	a1,-1
	li	a0,-1
	call	ShellPrintHiiEx@plt
	.loc 1 1775 27
	li	a5,2
	sw	a5,-52(s0)
	j	.L253
.L291:
	.loc 1 1777 24
	addi	a5,s0,-176
	li	a3,0
	li	a2,1
	mv	a1,a5
	ld	a0,-88(s0)
	call	ShellConvertStringToUint64@plt
	sd	a0,-72(s0)
	.loc 1 1778 42
	ld	a5,-176(s0)
	slli	a5,a5,48
	srli	a5,a5,48
	.loc 1 1778 40
	sh	a5,-152(s0)
	.loc 1 1779 35
	lhu	a5,-152(s0)
	.loc 1 1779 18
	lhu	a4,-74(s0)
	sext.w	a4,a4
	sext.w	a5,a5
	bgtu	a4,a5,.L292
	.loc 1 1780 17
	lla	a5,gShellBcfgHiiHandle
	ld	a4,0(a5)
	lhu	a5,-74(s0)
	sext.w	a5,a5
	mv	a6,a5
	lla	a5,.LC5
	li	a3,24
	li	a2,0
	li	a1,-1
	li	a0,-1
	call	ShellPrintHiiEx@plt
	.loc 1 1781 29
	li	a5,2
	sw	a5,-52(s0)
	j	.L253
.L292:
	.loc 1 1784 48
	ld	a4,-96(s0)
	.loc 1 1784 46
	ld	a5,-64(s0)
	addi	a5,a5,1
	sd	a5,-64(s0)
	.loc 1 1784 48
	ld	a1,-64(s0)
	mv	a0,a4
	call	ShellCommandLineGetRawValue@plt
	mv	a4,a0
	.loc 1 1784 48 is_stmt 0 discriminator 1
	addi	a5,s0,-160
	addi	a5,a5,32
	li	a3,0
	mv	a2,a4
	li	a1,0
	mv	a0,a5
	call	StrnCatGrow@plt
	mv	a5,a0
	.loc 1 1784 46 is_stmt 1 discriminator 2
	sd	a5,-128(s0)
	j	.L253
.L287:
	.loc 1 1788 37
	la	a5,gUnicodeCollation
	ld	a5,0(a5)
	ld	a5,0(a5)
	.loc 1 1788 20
	la	a4,gUnicodeCollation
	ld	a4,0(a4)
	lla	a2,.LC30
	ld	a1,-88(s0)
	mv	a0,a4
	jalr	a5
.LVL34:
	mv	a5,a0
	.loc 1 1788 19 discriminator 1
	bne	a5,zero,.L293
	.loc 1 1789 28
	ld	a5,-64(s0)
	addi	s1,a5,2
	.loc 1 1789 36
	ld	a5,-96(s0)
	mv	a0,a5
	call	ShellCommandLineGetCount@plt
	mv	a5,a0
	.loc 1 1789 14 discriminator 1
	bltu	s1,a5,.L294
	.loc 1 1790 13
	lla	a5,gShellBcfgHiiHandle
	ld	a4,0(a5)
	lla	a5,.LC5
	li	a3,8
	li	a2,0
	li	a1,-1
	li	a0,-1
	call	ShellPrintHiiEx@plt
	.loc 1 1791 25
	li	a5,2
	sw	a5,-52(s0)
	j	.L253
.L294:
	.loc 1 1793 35
	li	a5,8
	sw	a5,-156(s0)
	.loc 1 1794 28
	ld	a4,-96(s0)
	.loc 1 1794 26
	ld	a5,-64(s0)
	addi	a5,a5,1
	sd	a5,-64(s0)
	.loc 1 1794 28
	ld	a1,-64(s0)
	mv	a0,a4
	call	ShellCommandLineGetRawValue@plt
	sd	a0,-88(s0)
	.loc 1 1795 16
	ld	a5,-88(s0)
	beq	a5,zero,.L296
	.loc 1 1795 52 discriminator 1
	li	a2,0
	li	a1,1
	ld	a0,-88(s0)
	call	ShellIsHexOrDecimalNumber@plt
	mv	a5,a0
	.loc 1 1795 48 discriminator 2
	bne	a5,zero,.L297
.L296:
	.loc 1 1796 15
	lla	a5,gShellBcfgHiiHandle
	ld	a4,0(a5)
	ld	a6,-88(s0)
	lla	a5,.LC5
	li	a3,5
	li	a2,0
	li	a1,-1
	li	a0,-1
	call	ShellPrintHiiEx@plt
	.loc 1 1797 27
	li	a5,2
	sw	a5,-52(s0)
	j	.L253
.L297:
	.loc 1 1799 24
	addi	a5,s0,-176
	li	a3,0
	li	a2,1
	mv	a1,a5
	ld	a0,-88(s0)
	call	ShellConvertStringToUint64@plt
	sd	a0,-72(s0)
	.loc 1 1800 42
	ld	a5,-176(s0)
	slli	a5,a5,48
	srli	a5,a5,48
	.loc 1 1800 40
	sh	a5,-152(s0)
	.loc 1 1801 35
	lhu	a5,-152(s0)
	.loc 1 1801 18
	lhu	a4,-74(s0)
	sext.w	a4,a4
	sext.w	a5,a5
	bgtu	a4,a5,.L298
	.loc 1 1802 17
	lla	a5,gShellBcfgHiiHandle
	ld	a4,0(a5)
	lhu	a5,-74(s0)
	sext.w	a5,a5
	mv	a6,a5
	lla	a5,.LC5
	li	a3,24
	li	a2,0
	li	a1,-1
	li	a0,-1
	call	ShellPrintHiiEx@plt
	.loc 1 1803 29
	li	a5,2
	sw	a5,-52(s0)
	j	.L253
.L298:
	.loc 1 1806 45
	ld	a4,-96(s0)
	.loc 1 1806 43
	ld	a5,-64(s0)
	addi	a5,a5,1
	sd	a5,-64(s0)
	.loc 1 1806 45
	ld	a1,-64(s0)
	mv	a0,a4
	call	ShellCommandLineGetRawValue@plt
	mv	a4,a0
	.loc 1 1806 45 is_stmt 0 discriminator 1
	addi	a5,s0,-160
	addi	a5,a5,24
	li	a3,0
	mv	a2,a4
	li	a1,0
	mv	a0,a5
	call	StrnCatGrow@plt
	mv	a5,a0
	.loc 1 1806 43 is_stmt 1 discriminator 2
	sd	a5,-136(s0)
	j	.L253
.L293:
	.loc 1 1810 37
	la	a5,gUnicodeCollation
	ld	a5,0(a5)
	ld	a5,0(a5)
	.loc 1 1810 20
	la	a4,gUnicodeCollation
	ld	a4,0(a4)
	lla	a2,.LC31
	ld	a1,-88(s0)
	mv	a0,a4
	jalr	a5
.LVL35:
	mv	a5,a0
	.loc 1 1810 19 discriminator 1
	bne	a5,zero,.L299
	.loc 1 1811 28
	ld	a5,-64(s0)
	addi	s1,a5,2
	.loc 1 1811 36
	ld	a5,-96(s0)
	mv	a0,a5
	call	ShellCommandLineGetCount@plt
	mv	a5,a0
	.loc 1 1811 14 discriminator 1
	bltu	s1,a5,.L300
	.loc 1 1812 13
	lla	a5,gShellBcfgHiiHandle
	ld	a4,0(a5)
	lla	a5,.LC5
	li	a3,8
	li	a2,0
	li	a1,-1
	li	a0,-1
	call	ShellPrintHiiEx@plt
	.loc 1 1813 25
	li	a5,2
	sw	a5,-52(s0)
	j	.L253
.L300:
	.loc 1 1815 35
	li	a5,9
	sw	a5,-156(s0)
	.loc 1 1816 28
	ld	a4,-96(s0)
	.loc 1 1816 26
	ld	a5,-64(s0)
	addi	a5,a5,1
	sd	a5,-64(s0)
	.loc 1 1816 28
	ld	a1,-64(s0)
	mv	a0,a4
	call	ShellCommandLineGetRawValue@plt
	sd	a0,-88(s0)
	.loc 1 1817 16
	ld	a5,-88(s0)
	beq	a5,zero,.L302
	.loc 1 1817 52 discriminator 1
	li	a2,0
	li	a1,1
	ld	a0,-88(s0)
	call	ShellIsHexOrDecimalNumber@plt
	mv	a5,a0
	.loc 1 1817 48 discriminator 2
	bne	a5,zero,.L303
.L302:
	.loc 1 1818 15
	lla	a5,gShellBcfgHiiHandle
	ld	a4,0(a5)
	ld	a6,-88(s0)
	lla	a5,.LC5
	li	a3,5
	li	a2,0
	li	a1,-1
	li	a0,-1
	call	ShellPrintHiiEx@plt
	.loc 1 1819 27
	li	a5,2
	sw	a5,-52(s0)
	j	.L253
.L303:
	.loc 1 1821 24
	addi	a5,s0,-176
	li	a3,0
	li	a2,1
	mv	a1,a5
	ld	a0,-88(s0)
	call	ShellConvertStringToUint64@plt
	sd	a0,-72(s0)
	.loc 1 1822 42
	ld	a5,-176(s0)
	slli	a5,a5,48
	srli	a5,a5,48
	.loc 1 1822 40
	sh	a5,-152(s0)
	.loc 1 1823 35
	lhu	a5,-152(s0)
	.loc 1 1823 18
	lhu	a4,-74(s0)
	sext.w	a4,a4
	sext.w	a5,a5
	bgtu	a4,a5,.L304
	.loc 1 1824 17
	lla	a5,gShellBcfgHiiHandle
	ld	a4,0(a5)
	lhu	a5,-74(s0)
	sext.w	a5,a5
	mv	a6,a5
	lla	a5,.LC5
	li	a3,24
	li	a2,0
	li	a1,-1
	li	a0,-1
	call	ShellPrintHiiEx@plt
	.loc 1 1825 29
	li	a5,2
	sw	a5,-52(s0)
	j	.L253
.L304:
	.loc 1 1828 45
	ld	a4,-96(s0)
	.loc 1 1828 43
	ld	a5,-64(s0)
	addi	a5,a5,1
	sd	a5,-64(s0)
	.loc 1 1828 45
	ld	a1,-64(s0)
	mv	a0,a4
	call	ShellCommandLineGetRawValue@plt
	mv	a4,a0
	.loc 1 1828 45 is_stmt 0 discriminator 1
	addi	a5,s0,-160
	addi	a5,a5,24
	li	a3,0
	mv	a2,a4
	li	a1,0
	mv	a0,a5
	call	StrnCatGrow@plt
	mv	a5,a0
	.loc 1 1828 43 is_stmt 1 discriminator 2
	sd	a5,-136(s0)
	j	.L253
.L299:
	.loc 1 1832 37
	la	a5,gUnicodeCollation
	ld	a5,0(a5)
	ld	a5,0(a5)
	.loc 1 1832 20
	la	a4,gUnicodeCollation
	ld	a4,0(a4)
	lla	a2,.LC32
	ld	a1,-88(s0)
	mv	a0,a4
	jalr	a5
.LVL36:
	mv	a5,a0
	.loc 1 1832 19 discriminator 1
	bne	a5,zero,.L305
	.loc 1 1833 28
	ld	a5,-64(s0)
	addi	s1,a5,2
	.loc 1 1833 36
	ld	a5,-96(s0)
	mv	a0,a5
	call	ShellCommandLineGetCount@plt
	mv	a5,a0
	.loc 1 1833 14 discriminator 1
	bltu	s1,a5,.L306
	.loc 1 1834 13
	lla	a5,gShellBcfgHiiHandle
	ld	a4,0(a5)
	lla	a5,.LC5
	li	a3,8
	li	a2,0
	li	a1,-1
	li	a0,-1
	call	ShellPrintHiiEx@plt
	.loc 1 1835 25
	li	a5,2
	sw	a5,-52(s0)
	j	.L253
.L306:
	.loc 1 1837 35
	li	a5,10
	sw	a5,-156(s0)
	.loc 1 1838 28
	ld	a4,-96(s0)
	.loc 1 1838 26
	ld	a5,-64(s0)
	addi	a5,a5,1
	sd	a5,-64(s0)
	.loc 1 1838 28
	ld	a1,-64(s0)
	mv	a0,a4
	call	ShellCommandLineGetRawValue@plt
	sd	a0,-88(s0)
	.loc 1 1839 16
	ld	a5,-88(s0)
	beq	a5,zero,.L308
	.loc 1 1839 52 discriminator 1
	li	a2,0
	li	a1,1
	ld	a0,-88(s0)
	call	ShellIsHexOrDecimalNumber@plt
	mv	a5,a0
	.loc 1 1839 48 discriminator 2
	bne	a5,zero,.L309
.L308:
	.loc 1 1840 15
	lla	a5,gShellBcfgHiiHandle
	ld	a4,0(a5)
	ld	a6,-88(s0)
	lla	a5,.LC5
	li	a3,5
	li	a2,0
	li	a1,-1
	li	a0,-1
	call	ShellPrintHiiEx@plt
	.loc 1 1841 27
	li	a5,2
	sw	a5,-52(s0)
	j	.L253
.L309:
	.loc 1 1843 24
	addi	a5,s0,-176
	li	a3,0
	li	a2,1
	mv	a1,a5
	ld	a0,-88(s0)
	call	ShellConvertStringToUint64@plt
	sd	a0,-72(s0)
	.loc 1 1844 42
	ld	a5,-176(s0)
	slli	a5,a5,48
	srli	a5,a5,48
	.loc 1 1844 40
	sh	a5,-152(s0)
	.loc 1 1845 35
	lhu	a5,-152(s0)
	.loc 1 1845 18
	lhu	a4,-74(s0)
	sext.w	a4,a4
	sext.w	a5,a5
	bgtu	a4,a5,.L310
	.loc 1 1846 17
	lla	a5,gShellBcfgHiiHandle
	ld	a4,0(a5)
	lhu	a5,-74(s0)
	sext.w	a5,a5
	mv	a6,a5
	lla	a5,.LC5
	li	a3,24
	li	a2,0
	li	a1,-1
	li	a0,-1
	call	ShellPrintHiiEx@plt
	.loc 1 1847 29
	li	a5,2
	sw	a5,-52(s0)
	j	.L253
.L310:
	.loc 1 1849 32
	ld	a4,-96(s0)
	.loc 1 1849 30
	ld	a5,-64(s0)
	addi	a5,a5,1
	sd	a5,-64(s0)
	.loc 1 1849 32
	ld	a1,-64(s0)
	mv	a0,a4
	call	ShellCommandLineGetRawValue@plt
	sd	a0,-88(s0)
	.loc 1 1850 20
	ld	a5,-88(s0)
	beq	a5,zero,.L311
	.loc 1 1850 56 discriminator 1
	li	a2,0
	li	a1,1
	ld	a0,-88(s0)
	call	ShellIsHexOrDecimalNumber@plt
	mv	a5,a0
	.loc 1 1850 52 discriminator 2
	bne	a5,zero,.L312
.L311:
	.loc 1 1851 19
	lla	a5,gShellBcfgHiiHandle
	ld	a4,0(a5)
	ld	a6,-88(s0)
	lla	a5,.LC5
	li	a3,5
	li	a2,0
	li	a1,-1
	li	a0,-1
	call	ShellPrintHiiEx@plt
	.loc 1 1852 31
	li	a5,2
	sw	a5,-52(s0)
	j	.L253
.L312:
	.loc 1 1854 28
	addi	a5,s0,-176
	li	a3,0
	li	a2,1
	mv	a1,a5
	ld	a0,-88(s0)
	call	ShellConvertStringToUint64@plt
	sd	a0,-72(s0)
	.loc 1 1855 50
	ld	a5,-176(s0)
	slli	a5,a5,48
	srli	a5,a5,48
	.loc 1 1855 48
	sd	a5,-144(s0)
	j	.L253
.L305:
	.loc 1 1861 11
	lla	a5,gShellBcfgHiiHandle
	ld	a4,0(a5)
	ld	a6,-88(s0)
	lla	a5,.LC5
	li	a3,5
	li	a2,0
	li	a1,-1
	li	a0,-1
	call	ShellPrintHiiEx@plt
	.loc 1 1862 23
	li	a5,2
	sw	a5,-52(s0)
.L253:
	.loc 1 1631 122 discriminator 2
	ld	a5,-64(s0)
	addi	a5,a5,1
	sd	a5,-64(s0)
.L250:
	.loc 1 1631 43 discriminator 1
	ld	a5,-96(s0)
	mv	a0,a5
	call	ShellCommandLineGetCount@plt
	mv	a4,a0
	.loc 1 1631 78 discriminator 3
	ld	a5,-64(s0)
	bgeu	a5,a4,.L249
	.loc 1 1631 78 is_stmt 0 discriminator 4
	lw	a5,-52(s0)
	sext.w	a5,a5
	beq	a5,zero,.L313
.L249:
	.loc 1 1867 8 is_stmt 1
	lw	a5,-52(s0)
	sext.w	a5,a5
	bne	a5,zero,.L330
	.loc 1 1867 60 discriminator 1
	lw	a4,-160(s0)
	.loc 1 1867 40 discriminator 1
	li	a5,1
	bgtu	a4,a5,.L330
	.loc 1 1867 105 discriminator 2
	lw	a4,-156(s0)
	.loc 1 1867 85 discriminator 2
	li	a5,10
	bgtu	a4,a5,.L330
	.loc 1 1871 31
	lw	a5,-156(s0)
	.loc 1 1871 7
	li	a4,10
	bgtu	a5,a4,.L234
	li	a4,7
	bgeu	a5,a4,.L314
	li	a4,6
	beq	a5,a4,.L315
	li	a4,6
	bgtu	a5,a4,.L234
	li	a4,5
	beq	a5,a4,.L316
	li	a4,5
	bgtu	a5,a4,.L234
	li	a4,4
	beq	a5,a4,.L317
	li	a4,4
	bgtu	a5,a4,.L234
	beq	a5,zero,.L318
	addiw	a5,a5,-1
	sext.w	a4,a5
	li	a5,2
	bgtu	a4,a5,.L234
	j	.L329
.L318:
	.loc 1 1874 43
	lw	a5,-160(s0)
	.loc 1 1873 25
	bne	a5,zero,.L320
	.loc 1 1873 25 is_stmt 0 discriminator 1
	lla	s1,.LC0
	j	.L321
.L320:
	.loc 1 1873 25 discriminator 2
	lla	s1,.LC1
.L321:
	.loc 1 1873 25 discriminator 4
	lhu	s2,-74(s0)
	.loc 1 1876 43 is_stmt 1
	ld	s3,-120(s0)
	.loc 1 1877 27
	ld	a5,-96(s0)
	lla	a1,.LC17
	mv	a0,a5
	call	ShellCommandLineGetFlag@plt
	mv	a5,a0
	.loc 1 1873 25 discriminator 4
	mv	a3,a5
	mv	a2,s3
	mv	a1,s2
	mv	a0,s1
	call	BcfgDisplayDump
	mv	a5,a0
	sw	a5,-52(s0)
	.loc 1 1879 11
	j	.L234
.L316:
	.loc 1 1882 43
	lw	a5,-160(s0)
	.loc 1 1883 43
	ld	a1,-120(s0)
	.loc 1 1881 25
	lhu	a2,-74(s0)
	.loc 1 1885 43
	lhu	a3,-152(s0)
	.loc 1 1881 25
	lhu	a4,-150(s0)
	mv	a0,a5
	call	BcfgMove
	mv	a5,a0
	sw	a5,-52(s0)
	.loc 1 1888 11
	j	.L234
.L317:
	.loc 1 1891 43
	lw	a5,-160(s0)
	.loc 1 1892 43
	ld	a4,-120(s0)
	.loc 1 1890 25
	lhu	a2,-74(s0)
	.loc 1 1894 43
	lhu	a3,-152(s0)
	.loc 1 1890 25
	mv	a1,a4
	mv	a0,a5
	call	BcfgRemove
	mv	a5,a0
	sw	a5,-52(s0)
	.loc 1 1896 11
	j	.L234
.L329:
	.loc 1 1901 43
	lhu	a5,-152(s0)
	.loc 1 1900 25
	mv	t3,a5
	.loc 1 1902 43
	ld	a1,-136(s0)
	.loc 1 1903 43
	ld	a5,-128(s0)
	.loc 1 1900 25
	beq	a5,zero,.L322
	.loc 1 1900 25 is_stmt 0 discriminator 1
	ld	a2,-128(s0)
	j	.L323
.L322:
	.loc 1 1900 25 discriminator 2
	lla	a2,.LC33
.L323:
	.loc 1 1904 43 is_stmt 1
	ld	a3,-120(s0)
	.loc 1 1900 25 discriminator 4
	lhu	a0,-74(s0)
	.loc 1 1906 43
	lw	t1,-160(s0)
	.loc 1 1907 53
	lw	a4,-156(s0)
	.loc 1 1907 27
	li	a5,3
	sub	a5,a4,a5
	seqz	a5,a5
	andi	a5,a5,0xff
	.loc 1 1900 25 discriminator 4
	mv	a6,a5
	.loc 1 1908 53
	lw	a4,-156(s0)
	.loc 1 1908 27
	li	a5,2
	sub	a5,a4,a5
	seqz	a5,a5
	andi	a5,a5,0xff
	.loc 1 1900 25 discriminator 4
	mv	a4,a5
	.loc 1 1909 43
	ld	a5,-144(s0)
	.loc 1 1900 25 discriminator 4
	sd	a5,0(sp)
	mv	a7,a4
	mv	a5,t1
	mv	a4,a0
	mv	a0,t3
	call	BcfgAdd
	mv	a5,a0
	sw	a5,-52(s0)
	.loc 1 1911 11
	j	.L234
.L314:
	.loc 1 1916 25
	lhu	a4,-74(s0)
	addi	a5,s0,-160
	mv	a1,a4
	mv	a0,a5
	call	BcfgMod
	mv	a5,a0
	sw	a5,-52(s0)
	.loc 1 1917 11
	j	.L234
.L315:
	.loc 1 1919 25
	ld	a5,-112(s0)
	.loc 1 1921 43
	ld	a4,-120(s0)
	.loc 1 1919 25
	lhu	a2,-74(s0)
	.loc 1 1923 43
	lw	a3,-160(s0)
	.loc 1 1919 25
	mv	a1,a4
	mv	a0,a5
	call	BcfgAddOpt
	mv	a5,a0
	sw	a5,-52(s0)
	.loc 1 1925 11
	j	.L234
.L330:
	.loc 1 1932 1
	nop
.L234:
	.loc 1 1934 15
	ld	a5,-96(s0)
	.loc 1 1934 6
	beq	a5,zero,.L324
	.loc 1 1935 5
	ld	a5,-96(s0)
	mv	a0,a5
	call	ShellCommandLineFreeVarList@plt
.L324:
	.loc 1 1938 23
	ld	a5,-136(s0)
	.loc 1 1938 6
	beq	a5,zero,.L325
	.loc 1 1939 31
	ld	a5,-136(s0)
	.loc 1 1939 5
	mv	a0,a5
	call	FreePool@plt
.L325:
	.loc 1 1942 23
	ld	a5,-128(s0)
	.loc 1 1942 6
	beq	a5,zero,.L326
	.loc 1 1943 31
	ld	a5,-128(s0)
	.loc 1 1943 5
	mv	a0,a5
	call	FreePool@plt
.L326:
	.loc 1 1946 23
	ld	a5,-120(s0)
	.loc 1 1946 6
	beq	a5,zero,.L327
	.loc 1 1947 31
	ld	a5,-120(s0)
	.loc 1 1947 5
	mv	a0,a5
	call	FreePool@plt
.L327:
	.loc 1 1950 10
	lw	a5,-52(s0)
	.loc 1 1951 1
	mv	a0,a5
	ld	ra,200(sp)
	.cfi_restore 1
	ld	s0,192(sp)
	.cfi_restore 8
	.cfi_def_cfa 2, 208
	ld	s1,184(sp)
	.cfi_restore 9
	ld	s2,176(sp)
	.cfi_restore 18
	ld	s3,168(sp)
	.cfi_restore 19
	addi	sp,sp,208
	.cfi_def_cfa_offset 0
	jr	ra
	.cfi_endproc
.LFE11:
	.size	ShellCommandRunBcfg, .-ShellCommandRunBcfg
	.section	.text.ShellCommandGetManFileNameBcfg,"ax",@progbits
	.align	1
	.globl	ShellCommandGetManFileNameBcfg
	.type	ShellCommandGetManFileNameBcfg, @function
ShellCommandGetManFileNameBcfg:
.LFB12:
	.loc 1 1963 1
	.cfi_startproc
	addi	sp,sp,-16
	.cfi_def_cfa_offset 16
	sd	ra,8(sp)
	sd	s0,0(sp)
	.cfi_offset 1, -8
	.cfi_offset 8, -16
	addi	s0,sp,16
	.cfi_def_cfa 8, 0
	.loc 1 1964 10
	lla	a5,mFileName
	.loc 1 1965 1
	mv	a0,a5
	ld	ra,8(sp)
	.cfi_restore 1
	ld	s0,0(sp)
	.cfi_restore 8
	.cfi_def_cfa 2, 16
	addi	sp,sp,16
	.cfi_def_cfa_offset 0
	jr	ra
	.cfi_endproc
.LFE12:
	.size	ShellCommandGetManFileNameBcfg, .-ShellCommandGetManFileNameBcfg
	.section	.text.BcfgLibraryRegisterBcfgCommand,"ax",@progbits
	.align	1
	.globl	BcfgLibraryRegisterBcfgCommand
	.type	BcfgLibraryRegisterBcfgCommand, @function
BcfgLibraryRegisterBcfgCommand:
.LFB13:
	.loc 1 1986 1
	.cfi_startproc
	addi	sp,sp,-48
	.cfi_def_cfa_offset 48
	sd	ra,40(sp)
	sd	s0,32(sp)
	.cfi_offset 1, -8
	.cfi_offset 8, -16
	addi	s0,sp,48
	.cfi_def_cfa 8, 0
	sd	a0,-24(s0)
	sd	a1,-32(s0)
	sd	a2,-40(s0)
	.loc 1 1987 27
	lla	a5,gShellBcfgHiiHandle
	ld	a5,0(a5)
	.loc 1 1987 6
	beq	a5,zero,.L334
	.loc 1 1988 12
	li	a5,0
	j	.L335
.L334:
	.loc 1 1991 25
	la	a5,gImageHandle
	ld	a5,0(a5)
	li	a3,0
	la	a2,UefiShellBcfgCommandLibStrings
	mv	a1,a5
	la	a0,gShellBcfgHiiGuid
	call	HiiAddPackages@plt
	mv	a4,a0
	.loc 1 1991 23 discriminator 1
	lla	a5,gShellBcfgHiiHandle
	sd	a4,0(a5)
	.loc 1 1992 27
	lla	a5,gShellBcfgHiiHandle
	ld	a5,0(a5)
	.loc 1 1992 6
	bne	a5,zero,.L336
	.loc 1 1993 12
	li	a5,-1
	slli	a5,a5,63
	addi	a5,a5,7
	j	.L335
.L336:
	.loc 1 1999 3
	lla	a5,gShellBcfgHiiHandle
	ld	a5,0(a5)
	li	a7,27
	mv	a6,a5
	li	a5,0
	ld	a4,-40(s0)
	li	a3,0
	lla	a2,ShellCommandGetManFileNameBcfg
	lla	a1,ShellCommandRunBcfg
	lla	a0,.LC5
	call	ShellCommandRegisterCommandName@plt
	.loc 1 2001 10
	li	a5,0
.L335:
	.loc 1 2002 1
	mv	a0,a5
	ld	ra,40(sp)
	.cfi_restore 1
	ld	s0,32(sp)
	.cfi_restore 8
	.cfi_def_cfa 2, 48
	addi	sp,sp,48
	.cfi_def_cfa_offset 0
	jr	ra
	.cfi_endproc
.LFE13:
	.size	BcfgLibraryRegisterBcfgCommand, .-BcfgLibraryRegisterBcfgCommand
	.section	.text.BcfgLibraryUnregisterBcfgCommand,"ax",@progbits
	.align	1
	.globl	BcfgLibraryUnregisterBcfgCommand
	.type	BcfgLibraryUnregisterBcfgCommand, @function
BcfgLibraryUnregisterBcfgCommand:
.LFB14:
	.loc 1 2016 1
	.cfi_startproc
	addi	sp,sp,-32
	.cfi_def_cfa_offset 32
	sd	ra,24(sp)
	sd	s0,16(sp)
	.cfi_offset 1, -8
	.cfi_offset 8, -16
	addi	s0,sp,32
	.cfi_def_cfa 8, 0
	sd	a0,-24(s0)
	sd	a1,-32(s0)
	.loc 1 2017 27
	lla	a5,gShellBcfgHiiHandle
	ld	a5,0(a5)
	.loc 1 2017 6
	beq	a5,zero,.L338
	.loc 1 2018 5
	lla	a5,gShellBcfgHiiHandle
	ld	a5,0(a5)
	mv	a0,a5
	call	HiiRemovePackages@plt
.L338:
	.loc 1 2021 23
	lla	a5,gShellBcfgHiiHandle
	sd	zero,0(a5)
	.loc 1 2022 10
	li	a5,0
	.loc 1 2023 1
	mv	a0,a5
	ld	ra,24(sp)
	.cfi_restore 1
	ld	s0,16(sp)
	.cfi_restore 8
	.cfi_def_cfa 2, 32
	addi	sp,sp,32
	.cfi_def_cfa_offset 0
	jr	ra
	.cfi_endproc
.LFE14:
	.size	BcfgLibraryUnregisterBcfgCommand, .-BcfgLibraryUnregisterBcfgCommand
	.text
.Letext0:
	.file 2 "/home/kapoagaeming/spacemit-image-builder/components/edk2/MdePkg/Include/RiscV64/ProcessorBind.h"
	.file 3 "/home/kapoagaeming/spacemit-image-builder/components/edk2/MdePkg/Include/Base.h"
	.file 4 "/home/kapoagaeming/spacemit-image-builder/components/edk2/MdePkg/Include/Uefi/UefiBaseType.h"
	.file 5 "/home/kapoagaeming/spacemit-image-builder/components/edk2/MdePkg/Include/Uefi/UefiMultiPhase.h"
	.file 6 "/home/kapoagaeming/spacemit-image-builder/components/edk2/MdePkg/Include/Protocol/DevicePath.h"
	.file 7 "/home/kapoagaeming/spacemit-image-builder/components/edk2/MdePkg/Include/Protocol/SimpleTextIn.h"
	.file 8 "/home/kapoagaeming/spacemit-image-builder/components/edk2/MdePkg/Include/Protocol/SimpleTextOut.h"
	.file 9 "/home/kapoagaeming/spacemit-image-builder/components/edk2/MdePkg/Include/Uefi/UefiSpec.h"
	.file 10 "/home/kapoagaeming/spacemit-image-builder/components/edk2/MdePkg/Include/Uefi/UefiInternalFormRepresentation.h"
	.file 11 "/home/kapoagaeming/spacemit-image-builder/components/Build/Milk-V-Jupiter/RELEASE_GCC5/RISCV64/ShellPkg/Library/UefiShellBcfgCommandLib/UefiShellBcfgCommandLib/DEBUG/AutoGen.h"
	.file 12 "/home/kapoagaeming/spacemit-image-builder/components/Build/Milk-V-Jupiter/RELEASE_GCC5/RISCV64/ShellPkg/Library/UefiShellBcfgCommandLib/UefiShellBcfgCommandLib/DEBUG/UefiShellBcfgCommandLibStrDefs.h"
	.file 13 "/home/kapoagaeming/spacemit-image-builder/components/edk2/MdePkg/Include/Guid/GlobalVariable.h"
	.file 14 "/home/kapoagaeming/spacemit-image-builder/components/edk2/MdePkg/Include/Guid/FileInfo.h"
	.file 15 "/home/kapoagaeming/spacemit-image-builder/components/edk2/MdePkg/Include/Protocol/Shell.h"
	.file 16 "/home/kapoagaeming/spacemit-image-builder/components/edk2/MdePkg/Include/Protocol/LoadedImage.h"
	.file 17 "/home/kapoagaeming/spacemit-image-builder/components/edk2/MdePkg/Include/Protocol/UnicodeCollation.h"
	.file 18 "/home/kapoagaeming/spacemit-image-builder/components/edk2/MdePkg/Include/Library/UefiBootServicesTableLib.h"
	.file 19 "/home/kapoagaeming/spacemit-image-builder/components/edk2/ShellPkg/Include/Library/ShellCommandLib.h"
	.file 20 "/home/kapoagaeming/spacemit-image-builder/components/edk2/ShellPkg/Include/Library/ShellLib.h"
	.file 21 "/home/kapoagaeming/spacemit-image-builder/components/edk2/MdePkg/Include/Library/UefiRuntimeServicesTableLib.h"
	.file 22 "/home/kapoagaeming/spacemit-image-builder/components/edk2/MdeModulePkg/Include/Library/UefiBootManagerLib.h"
	.file 23 "/home/kapoagaeming/spacemit-image-builder/components/edk2/MdeModulePkg/Include/Library/HiiLib.h"
	.file 24 "/home/kapoagaeming/spacemit-image-builder/components/edk2/MdePkg/Include/Library/DevicePathLib.h"
	.file 25 "/home/kapoagaeming/spacemit-image-builder/components/edk2/MdePkg/Include/Library/UefiLib.h"
	.file 26 "/home/kapoagaeming/spacemit-image-builder/components/edk2/MdePkg/Include/Library/BaseLib.h"
	.file 27 "/home/kapoagaeming/spacemit-image-builder/components/edk2/MdePkg/Include/Library/MemoryAllocationLib.h"
	.file 28 "/home/kapoagaeming/spacemit-image-builder/components/edk2/ShellPkg/Include/Library/HandleParsingLib.h"
	.file 29 "/home/kapoagaeming/spacemit-image-builder/components/edk2/MdePkg/Include/Library/BaseMemoryLib.h"
	.file 30 "/home/kapoagaeming/spacemit-image-builder/components/edk2/MdePkg/Include/Library/PrintLib.h"
	.section	.note.GNU-stack,"",@progbits
