	.file	"AutoGen.c"
	.option pic
	.option norelax
	.attribute arch, "rv64i2p1_m2p0_a2p1_f2p2_d2p2_c2p0_zicsr2p0_zifencei2p0_zmmul1p0_zaamo1p0_zalrsc1p0_zca1p0_zcd1p0"
	.attribute unaligned_access, 0
	.attribute stack_align, 16
	.text
.Ltext0:
	.cfi_sections	.debug_frame
	.file 0 "/home/kapoagaeming/Downloads/spacemit-image-builder/components/Build/Milk-V-Jupiter/RELEASE_GCC5/RISCV64/Silicon/Spacemit/K1/Drivers/LedControl/LedControl" "/home/kapoagaeming/Downloads/spacemit-image-builder/components/Build/Milk-V-Jupiter/RELEASE_GCC5/RISCV64/Silicon/Spacemit/K1/Drivers/LedControl/LedControl/DEBUG/AutoGen.c"
	.globl	gEfiCallerIdGuid
	.section	.data.gEfiCallerIdGuid,"aw"
	.align	3
	.type	gEfiCallerIdGuid, @object
	.size	gEfiCallerIdGuid, 16
gEfiCallerIdGuid:
	.word	1569488463
	.half	-25702
	.half	19037
	.base64	"s+L3jGFPVio="
	.globl	gEdkiiDscPlatformGuid
	.section	.data.gEdkiiDscPlatformGuid,"aw"
	.align	3
	.type	gEdkiiDscPlatformGuid, @object
	.size	gEdkiiDscPlatformGuid, 16
gEdkiiDscPlatformGuid:
	.word	-1093915514
	.half	809
	.half	18550
	.base64	"mLFXzDezPfM="
	.globl	gEfiCallerBaseName
	.section	.rodata
	.align	3
.LC0:
	.string	"LedControl"
	.section	.data.rel.local.gEfiCallerBaseName,"aw"
	.align	3
	.type	gEfiCallerBaseName, @object
	.size	gEfiCallerBaseName, 8
gEfiCallerBaseName:
	.dword	.LC0
	.globl	gSpacemitTokenSpaceGuid
	.section	.data.gSpacemitTokenSpaceGuid,"aw"
	.align	3
	.type	gSpacemitTokenSpaceGuid, @object
	.size	gSpacemitTokenSpaceGuid, 16
gSpacemitTokenSpaceGuid:
	.word	214524533
	.half	15414
	.half	18954
	.base64	"qDNTBN8K0EQ="
	.globl	gEfiMdePkgTokenSpaceGuid
	.section	.data.gEfiMdePkgTokenSpaceGuid,"aw"
	.align	3
	.type	gEfiMdePkgTokenSpaceGuid, @object
	.size	gEfiMdePkgTokenSpaceGuid, 16
gEfiMdePkgTokenSpaceGuid:
	.word	-1857360921
	.half	17973
	.half	17819
	.base64	"qhwR4hmwOhA="
	.globl	gUefiCpuPkgTokenSpaceGuid
	.section	.data.gUefiCpuPkgTokenSpaceGuid,"aw"
	.align	3
	.type	gUefiCpuPkgTokenSpaceGuid, @object
	.size	gUefiCpuPkgTokenSpaceGuid, 16
gUefiCpuPkgTokenSpaceGuid:
	.word	-1408909517
	.half	-26278
	.half	20180
	.base64	"qrjveugPXLA="
	.globl	gEmbeddedGpioProtocolGuid
	.section	.data.gEmbeddedGpioProtocolGuid,"aw"
	.align	3
	.type	gEmbeddedGpioProtocolGuid, @object
	.size	gEmbeddedGpioProtocolGuid, 16
gEmbeddedGpioProtocolGuid:
	.word	396403671
	.half	-16219
	.half	17973
	.base64	"u9UHIYff4u4="
	.globl	gEfiRscHandlerProtocolGuid
	.section	.data.gEfiRscHandlerProtocolGuid,"aw"
	.align	3
	.type	gEfiRscHandlerProtocolGuid, @object
	.size	gEfiRscHandlerProtocolGuid, 16
gEfiRscHandlerProtocolGuid:
	.word	-2044647114
	.half	3702
	.half	16840
	.base64	"oDoq8vwcOeI="
	.globl	gLedControlProtocolGuid
	.section	.data.gLedControlProtocolGuid,"aw"
	.align	3
	.type	gLedControlProtocolGuid, @object
	.size	gLedControlProtocolGuid, 16
gLedControlProtocolGuid:
	.word	635726807
	.half	16088
	.half	-17472
	.base64	"K0r61SsbZXU="
	.globl	gPcdProtocolGuid
	.section	.data.gPcdProtocolGuid,"aw"
	.align	3
	.type	gPcdProtocolGuid, @object
	.size	gPcdProtocolGuid, 16
gPcdProtocolGuid:
	.word	296960006
	.half	-10149
	.half	19722
	.base64	"opDVpXExDvc="
	.globl	gEfiPcdProtocolGuid
	.section	.data.gEfiPcdProtocolGuid,"aw"
	.align	3
	.type	gEfiPcdProtocolGuid, @object
	.size	gEfiPcdProtocolGuid, 16
gEfiPcdProtocolGuid:
	.word	329511158
	.half	9802
	.half	16112
	.base64	"8uDexRI0LzQ="
	.globl	gGetPcdInfoProtocolGuid
	.section	.data.gGetPcdInfoProtocolGuid,"aw"
	.align	3
	.type	gGetPcdInfoProtocolGuid, @object
	.size	gGetPcdInfoProtocolGuid, 16
gGetPcdInfoProtocolGuid:
	.word	1541672791
	.half	-1432
	.half	17936
	.base64	"u7/pxfza02U="
	.globl	gEfiGetPcdInfoProtocolGuid
	.section	.data.gEfiGetPcdInfoProtocolGuid,"aw"
	.align	3
	.type	gEfiGetPcdInfoProtocolGuid, @object
	.size	gEfiGetPcdInfoProtocolGuid, 16
gEfiGetPcdInfoProtocolGuid:
	.word	-49331080
	.half	3837
	.half	17949
	.base64	"ui3ljEX9X14="
	.globl	gEfiLoadedImageProtocolGuid
	.section	.data.gEfiLoadedImageProtocolGuid,"aw"
	.align	3
	.type	gEfiLoadedImageProtocolGuid, @object
	.size	gEfiLoadedImageProtocolGuid, 16
gEfiLoadedImageProtocolGuid:
	.word	1528508833
	.half	-27294
	.half	4562
	.base64	"jj8AoMlpcjs="
	.globl	_gPcd_SkuId_Array
	.section	.bss._gPcd_SkuId_Array,"aw",@nobits
	.align	3
	.type	_gPcd_SkuId_Array, @object
	.size	_gPcd_SkuId_Array, 8
_gPcd_SkuId_Array:
	.zero	8
	.globl	_gPcd_FixedAtBuild_PcdLedConfigs
	.section	.rodata._gPcd_FixedAtBuild_PcdLedConfigs,"a"
	.align	3
	.type	_gPcd_FixedAtBuild_PcdLedConfigs, @object
	.size	_gPcd_FixedAtBuild_PcdLedConfigs, 24
_gPcd_FixedAtBuild_PcdLedConfigs:
	.base64	"AQAAAGQAAADIAAAAuAsAAGAAAAABAAAA"
	.globl	_gPcd_FixedAtBuild_Size_PcdLedConfigs
	.section	.rodata._gPcd_FixedAtBuild_Size_PcdLedConfigs,"a"
	.align	3
	.type	_gPcd_FixedAtBuild_Size_PcdLedConfigs, @object
	.size	_gPcd_FixedAtBuild_Size_PcdLedConfigs, 8
_gPcd_FixedAtBuild_Size_PcdLedConfigs:
	.dword	24
	.globl	_gPcd_FixedAtBuild_PcdVerifyNodeInList
	.section	.rodata._gPcd_FixedAtBuild_PcdVerifyNodeInList,"a"
	.type	_gPcd_FixedAtBuild_PcdVerifyNodeInList, @object
	.size	_gPcd_FixedAtBuild_PcdVerifyNodeInList, 1
_gPcd_FixedAtBuild_PcdVerifyNodeInList:
	.zero	1
	.globl	_gPcd_FixedAtBuild_PcdMaximumLinkedListLength
	.section	.rodata._gPcd_FixedAtBuild_PcdMaximumLinkedListLength,"a"
	.align	2
	.type	_gPcd_FixedAtBuild_PcdMaximumLinkedListLength, @object
	.size	_gPcd_FixedAtBuild_PcdMaximumLinkedListLength, 4
_gPcd_FixedAtBuild_PcdMaximumLinkedListLength:
	.word	1000000
	.globl	_gPcd_FixedAtBuild_PcdMaximumAsciiStringLength
	.section	.rodata._gPcd_FixedAtBuild_PcdMaximumAsciiStringLength,"a"
	.align	2
	.type	_gPcd_FixedAtBuild_PcdMaximumAsciiStringLength, @object
	.size	_gPcd_FixedAtBuild_PcdMaximumAsciiStringLength, 4
_gPcd_FixedAtBuild_PcdMaximumAsciiStringLength:
	.word	1000000
	.globl	_gPcd_FixedAtBuild_PcdMaximumUnicodeStringLength
	.section	.rodata._gPcd_FixedAtBuild_PcdMaximumUnicodeStringLength,"a"
	.align	2
	.type	_gPcd_FixedAtBuild_PcdMaximumUnicodeStringLength, @object
	.size	_gPcd_FixedAtBuild_PcdMaximumUnicodeStringLength, 4
_gPcd_FixedAtBuild_PcdMaximumUnicodeStringLength:
	.word	1000000
	.globl	_gPcd_FixedAtBuild_PcdControlFlowEnforcementPropertyMask
	.section	.rodata._gPcd_FixedAtBuild_PcdControlFlowEnforcementPropertyMask,"a"
	.align	2
	.type	_gPcd_FixedAtBuild_PcdControlFlowEnforcementPropertyMask, @object
	.size	_gPcd_FixedAtBuild_PcdControlFlowEnforcementPropertyMask, 4
_gPcd_FixedAtBuild_PcdControlFlowEnforcementPropertyMask:
	.zero	4
	.globl	_gPcd_FixedAtBuild_PcdSpeculationBarrierType
	.section	.rodata._gPcd_FixedAtBuild_PcdSpeculationBarrierType,"a"
	.type	_gPcd_FixedAtBuild_PcdSpeculationBarrierType, @object
	.size	_gPcd_FixedAtBuild_PcdSpeculationBarrierType, 1
_gPcd_FixedAtBuild_PcdSpeculationBarrierType:
	.byte	1
	.globl	_gPcd_FixedAtBuild_PcdDebugPrintErrorLevel
	.section	.rodata._gPcd_FixedAtBuild_PcdDebugPrintErrorLevel,"a"
	.align	2
	.type	_gPcd_FixedAtBuild_PcdDebugPrintErrorLevel, @object
	.size	_gPcd_FixedAtBuild_PcdDebugPrintErrorLevel, 4
_gPcd_FixedAtBuild_PcdDebugPrintErrorLevel:
	.word	-2147483577
	.globl	_gPcd_FixedAtBuild_PcdDebugClearMemoryValue
	.section	.rodata._gPcd_FixedAtBuild_PcdDebugClearMemoryValue,"a"
	.type	_gPcd_FixedAtBuild_PcdDebugClearMemoryValue, @object
	.size	_gPcd_FixedAtBuild_PcdDebugClearMemoryValue, 1
_gPcd_FixedAtBuild_PcdDebugClearMemoryValue:
	.byte	-81
	.globl	_gPcd_FixedAtBuild_PcdDebugPropertyMask
	.section	.rodata._gPcd_FixedAtBuild_PcdDebugPropertyMask,"a"
	.type	_gPcd_FixedAtBuild_PcdDebugPropertyMask, @object
	.size	_gPcd_FixedAtBuild_PcdDebugPropertyMask, 1
_gPcd_FixedAtBuild_PcdDebugPropertyMask:
	.byte	47
	.globl	_gPcd_FixedAtBuild_PcdFixedDebugPrintErrorLevel
	.section	.rodata._gPcd_FixedAtBuild_PcdFixedDebugPrintErrorLevel,"a"
	.align	2
	.type	_gPcd_FixedAtBuild_PcdFixedDebugPrintErrorLevel, @object
	.size	_gPcd_FixedAtBuild_PcdFixedDebugPrintErrorLevel, 4
_gPcd_FixedAtBuild_PcdFixedDebugPrintErrorLevel:
	.word	-1
	.globl	_gPcd_FixedAtBuild_PcdCpuCoreCrystalClockFrequency
	.section	.rodata._gPcd_FixedAtBuild_PcdCpuCoreCrystalClockFrequency,"a"
	.align	3
	.type	_gPcd_FixedAtBuild_PcdCpuCoreCrystalClockFrequency, @object
	.size	_gPcd_FixedAtBuild_PcdCpuCoreCrystalClockFrequency, 8
_gPcd_FixedAtBuild_PcdCpuCoreCrystalClockFrequency:
	.dword	24000000
	.section	.text.ProcessLibraryConstructorList,"ax",@progbits
	.align	1
	.globl	ProcessLibraryConstructorList
	.type	ProcessLibraryConstructorList, @function
ProcessLibraryConstructorList:
.LFB0:
	.file 1 "/home/kapoagaeming/Downloads/spacemit-image-builder/components/Build/Milk-V-Jupiter/RELEASE_GCC5/RISCV64/Silicon/Spacemit/K1/Drivers/LedControl/LedControl/DEBUG/AutoGen.c"
	.loc 1 164 1
	.cfi_startproc
	addi	sp,sp,-48
	.cfi_def_cfa_offset 48
	sd	ra,40(sp)
	sd	s0,32(sp)
	.cfi_offset 1, -8
	.cfi_offset 8, -16
	addi	s0,sp,48
	.cfi_def_cfa 8, 0
	sd	a0,-40(s0)
	sd	a1,-48(s0)
	.loc 1 167 12
	call	BaseDebugLibSerialPortConstructor@plt
	sd	a0,-24(s0)
	.loc 1 170 12
	ld	a1,-48(s0)
	ld	a0,-40(s0)
	call	UefiBootServicesTableLibConstructor@plt
	sd	a0,-24(s0)
	.loc 1 173 1
	nop
	ld	ra,40(sp)
	.cfi_restore 1
	ld	s0,32(sp)
	.cfi_restore 8
	.cfi_def_cfa 2, 48
	addi	sp,sp,48
	.cfi_def_cfa_offset 0
	jr	ra
	.cfi_endproc
.LFE0:
	.size	ProcessLibraryConstructorList, .-ProcessLibraryConstructorList
	.section	.text.ProcessLibraryDestructorList,"ax",@progbits
	.align	1
	.globl	ProcessLibraryDestructorList
	.type	ProcessLibraryDestructorList, @function
ProcessLibraryDestructorList:
.LFB1:
	.loc 1 183 1
	.cfi_startproc
	addi	sp,sp,-32
	.cfi_def_cfa_offset 32
	sd	ra,24(sp)
	sd	s0,16(sp)
	.cfi_offset 1, -8
	.cfi_offset 8, -16
	addi	s0,sp,32
	.cfi_def_cfa 8, 0
	sd	a0,-24(s0)
	sd	a1,-32(s0)
	.loc 1 185 1
	nop
	ld	ra,24(sp)
	.cfi_restore 1
	ld	s0,16(sp)
	.cfi_restore 8
	.cfi_def_cfa 2, 32
	addi	sp,sp,32
	.cfi_def_cfa_offset 0
	jr	ra
	.cfi_endproc
.LFE1:
	.size	ProcessLibraryDestructorList, .-ProcessLibraryDestructorList
	.globl	_gUefiDriverRevision
	.section	.rodata._gUefiDriverRevision,"a"
	.align	2
	.type	_gUefiDriverRevision, @object
	.size	_gUefiDriverRevision, 4
_gUefiDriverRevision:
	.zero	4
	.globl	_gDxeRevision
	.section	.rodata._gDxeRevision,"a"
	.align	2
	.type	_gDxeRevision, @object
	.size	_gDxeRevision, 4
_gDxeRevision:
	.zero	4
	.section	.text.ProcessModuleEntryPointList,"ax",@progbits
	.align	1
	.globl	ProcessModuleEntryPointList
	.type	ProcessModuleEntryPointList, @function
ProcessModuleEntryPointList:
.LFB2:
	.loc 1 198 1
	.cfi_startproc
	addi	sp,sp,-32
	.cfi_def_cfa_offset 32
	sd	ra,24(sp)
	sd	s0,16(sp)
	.cfi_offset 1, -8
	.cfi_offset 8, -16
	addi	s0,sp,32
	.cfi_def_cfa 8, 0
	sd	a0,-24(s0)
	sd	a1,-32(s0)
	.loc 1 199 10
	ld	a1,-32(s0)
	ld	a0,-24(s0)
	call	LedControlDriverEntryPoint@plt
	mv	a5,a0
	.loc 1 200 1
	mv	a0,a5
	ld	ra,24(sp)
	.cfi_restore 1
	ld	s0,16(sp)
	.cfi_restore 8
	.cfi_def_cfa 2, 32
	addi	sp,sp,32
	.cfi_def_cfa_offset 0
	jr	ra
	.cfi_endproc
.LFE2:
	.size	ProcessModuleEntryPointList, .-ProcessModuleEntryPointList
	.section	.text.ExitDriver,"ax",@progbits
	.align	1
	.globl	ExitDriver
	.type	ExitDriver, @function
ExitDriver:
.LFB3:
	.loc 1 207 1
	.cfi_startproc
	addi	sp,sp,-32
	.cfi_def_cfa_offset 32
	sd	ra,24(sp)
	sd	s0,16(sp)
	.cfi_offset 1, -8
	.cfi_offset 8, -16
	addi	s0,sp,32
	.cfi_def_cfa 8, 0
	sd	a0,-24(s0)
	.loc 1 208 34
	ld	a5,-24(s0)
	.loc 1 208 6
	bge	a5,zero,.L6
	.loc 1 209 5
	la	a5,gImageHandle
	ld	a4,0(a5)
	la	a5,gST
	ld	a5,0(a5)
	mv	a1,a5
	mv	a0,a4
	call	ProcessLibraryDestructorList
.L6:
	.loc 1 211 6
	la	a5,gBS
	ld	a5,0(a5)
	ld	a5,216(a5)
	.loc 1 211 3
	la	a4,gImageHandle
	ld	a4,0(a4)
	li	a3,0
	li	a2,0
	ld	a1,-24(s0)
	mv	a0,a4
	jalr	a5
.LVL0:
	.loc 1 212 1
	nop
	ld	ra,24(sp)
	.cfi_restore 1
	ld	s0,16(sp)
	.cfi_restore 8
	.cfi_def_cfa 2, 32
	addi	sp,sp,32
	.cfi_def_cfa_offset 0
	jr	ra
	.cfi_endproc
.LFE3:
	.size	ExitDriver, .-ExitDriver
	.globl	_gDriverUnloadImageCount
	.section	.rodata._gDriverUnloadImageCount,"a"
	.type	_gDriverUnloadImageCount, @object
	.size	_gDriverUnloadImageCount, 1
_gDriverUnloadImageCount:
	.zero	1
	.section	.text.ProcessModuleUnloadList,"ax",@progbits
	.align	1
	.globl	ProcessModuleUnloadList
	.type	ProcessModuleUnloadList, @function
ProcessModuleUnloadList:
.LFB4:
	.loc 1 221 1
	.cfi_startproc
	addi	sp,sp,-32
	.cfi_def_cfa_offset 32
	sd	ra,24(sp)
	sd	s0,16(sp)
	.cfi_offset 1, -8
	.cfi_offset 8, -16
	addi	s0,sp,32
	.cfi_def_cfa 8, 0
	sd	a0,-24(s0)
	.loc 1 222 10
	li	a5,0
	.loc 1 223 1
	mv	a0,a5
	ld	ra,24(sp)
	.cfi_restore 1
	ld	s0,16(sp)
	.cfi_restore 8
	.cfi_def_cfa 2, 32
	addi	sp,sp,32
	.cfi_def_cfa_offset 0
	jr	ra
	.cfi_endproc
.LFE4:
	.size	ProcessModuleUnloadList, .-ProcessModuleUnloadList
	.text
.Letext0:
	.file 2 "/home/kapoagaeming/Downloads/spacemit-image-builder/components/edk2/MdePkg/Include/RiscV64/ProcessorBind.h"
	.file 3 "/home/kapoagaeming/Downloads/spacemit-image-builder/components/edk2/MdePkg/Include/Base.h"
	.file 4 "/home/kapoagaeming/Downloads/spacemit-image-builder/components/edk2/MdePkg/Include/Uefi/UefiBaseType.h"
	.file 5 "/home/kapoagaeming/Downloads/spacemit-image-builder/components/edk2/MdePkg/Include/Uefi/UefiMultiPhase.h"
	.file 6 "/home/kapoagaeming/Downloads/spacemit-image-builder/components/edk2/MdePkg/Include/Protocol/DevicePath.h"
	.file 7 "/home/kapoagaeming/Downloads/spacemit-image-builder/components/edk2/MdePkg/Include/Protocol/SimpleTextIn.h"
	.file 8 "/home/kapoagaeming/Downloads/spacemit-image-builder/components/edk2/MdePkg/Include/Protocol/SimpleTextOut.h"
	.file 9 "/home/kapoagaeming/Downloads/spacemit-image-builder/components/edk2/MdePkg/Include/Uefi/UefiSpec.h"
	.file 10 "/home/kapoagaeming/Downloads/spacemit-image-builder/components/Build/Milk-V-Jupiter/RELEASE_GCC5/RISCV64/Silicon/Spacemit/K1/Drivers/LedControl/LedControl/DEBUG/AutoGen.h"
	.file 11 "/home/kapoagaeming/Downloads/spacemit-image-builder/components/edk2/MdePkg/Include/Library/UefiBootServicesTableLib.h"
	.file 12 "/home/kapoagaeming/Downloads/spacemit-image-builder/components/edk2/MdePkg/Include/Library/UefiDriverEntryPoint.h"
	.section	.note.GNU-stack,"",@progbits
