	.file	"DeviceManager.c"
	.option pic
	.option norelax
	.attribute arch, "rv64i2p1_m2p0_a2p1_f2p2_d2p2_c2p0_zicsr2p0_zifencei2p0_zmmul1p0_zaamo1p0_zalrsc1p0_zca1p0_zcd1p0"
	.attribute unaligned_access, 0
	.attribute stack_align, 16
	.text
.Ltext0:
	.cfi_sections	.debug_frame
	.file 0 "/home/kapoagaeming/Downloads/spacemit-image-builder/components/Build/Milk-V-Jupiter/RELEASE_GCC5/RISCV64/MdeModulePkg/Library/DeviceManagerUiLib/DeviceManagerUiLib" "/home/kapoagaeming/Downloads/spacemit-image-builder/components/edk2/MdeModulePkg/Library/DeviceManagerUiLib/DeviceManager.c"
	.globl	gDeviceManagerPrivate
	.section	.data.rel.local.gDeviceManagerPrivate,"aw"
	.align	3
	.type	gDeviceManagerPrivate, @object
	.size	gDeviceManagerPrivate, 56
gDeviceManagerPrivate:
	.dword	1111706948
	.dword	0
	.dword	0
	.dword	DeviceManagerExtractConfig
	.dword	DeviceManagerRouteConfig
	.dword	DeviceManagerCallback
	.zero	8
	.globl	mDeviceManagerGuid
	.section	.data.mDeviceManagerGuid,"aw"
	.align	3
	.type	mDeviceManagerGuid, @object
	.size	mDeviceManagerGuid, 16
mDeviceManagerGuid:
	.word	1052748006
	.half	20765
	.half	19291
	.base64	"qV/7OCYPHCc="
	.globl	mSelectedMacAddrString
	.section	.bss.mSelectedMacAddrString,"aw",@nobits
	.align	3
	.type	mSelectedMacAddrString, @object
	.size	mSelectedMacAddrString, 8
mSelectedMacAddrString:
	.zero	8
	.globl	mMacDeviceList
	.section	.bss.mMacDeviceList,"aw",@nobits
	.align	3
	.type	mMacDeviceList, @object
	.size	mMacDeviceList, 24
mMacDeviceList:
	.zero	24
	.globl	mDeviceManagerHiiVendorDevicePath
	.section	.data.mDeviceManagerHiiVendorDevicePath,"aw"
	.align	3
	.type	mDeviceManagerHiiVendorDevicePath, @object
	.size	mDeviceManagerHiiVendorDevicePath, 24
mDeviceManagerHiiVendorDevicePath:
	.byte	1
	.byte	4
	.string	"\024"
	.word	270891424
	.half	13958
	.half	18030
	.base64	"rNiAwIcET0o="
	.byte	127
	.byte	-1
	.string	"\004"
	.section	.text.DmExtractDevicePathFromHiiHandle,"ax",@progbits
	.align	1
	.globl	DmExtractDevicePathFromHiiHandle
	.type	DmExtractDevicePathFromHiiHandle, @function
DmExtractDevicePathFromHiiHandle:
.LFB0:
	.file 1 "/home/kapoagaeming/Downloads/spacemit-image-builder/components/edk2/MdeModulePkg/Library/DeviceManagerUiLib/DeviceManager.c"
	.loc 1 76 1
	.cfi_startproc
	addi	sp,sp,-48
	.cfi_def_cfa_offset 48
	sd	ra,40(sp)
	sd	s0,32(sp)
	.cfi_offset 1, -8
	.cfi_offset 8, -16
	addi	s0,sp,48
	.cfi_def_cfa 8, 0
	sd	a0,-40(s0)
	.loc 1 82 6
	ld	a5,-40(s0)
	bne	a5,zero,.L2
	.loc 1 83 12
	li	a5,0
	j	.L5
.L2:
	.loc 1 86 24
	la	a5,gHiiDatabase
	ld	a5,0(a5)
	ld	a5,80(a5)
	.loc 1 86 12
	la	a4,gHiiDatabase
	ld	a4,0(a4)
	addi	a3,s0,-32
	mv	a2,a3
	ld	a1,-40(s0)
	mv	a0,a4
	jalr	a5
.LVL0:
	sd	a0,-24(s0)
	.loc 1 87 34
	ld	a5,-24(s0)
	.loc 1 87 6
	bge	a5,zero,.L4
	.loc 1 88 12
	li	a5,0
	j	.L5
.L4:
	.loc 1 94 10
	ld	a5,-32(s0)
	.loc 1 94 35
	mv	a0,a5
	call	DevicePathFromHandle@plt
	mv	a5,a0
	.loc 1 94 10 discriminator 1
	li	a2,0
	li	a1,0
	mv	a0,a5
	call	ConvertDevicePathToText@plt
	mv	a5,a0
.L5:
	.loc 1 95 1
	mv	a0,a5
	ld	ra,40(sp)
	.cfi_restore 1
	ld	s0,32(sp)
	.cfi_restore 8
	.cfi_def_cfa 2, 48
	addi	sp,sp,48
	.cfi_def_cfa_offset 0
	jr	ra
	.cfi_endproc
.LFE0:
	.size	DmExtractDevicePathFromHiiHandle, .-DmExtractDevicePathFromHiiHandle
	.section	.rodata
	.align	3
.LC0:
	.string	"M"
	.string	"A"
	.string	"C"
	.string	":"
	.zero	2
	.section	.text.GetMacAddressString,"ax",@progbits
	.align	1
	.globl	GetMacAddressString
	.type	GetMacAddressString, @function
GetMacAddressString:
.LFB1:
	.loc 1 110 1
	.cfi_startproc
	addi	sp,sp,-96
	.cfi_def_cfa_offset 96
	sd	ra,88(sp)
	sd	s0,80(sp)
	.cfi_offset 1, -8
	.cfi_offset 8, -16
	addi	s0,sp,96
	.cfi_def_cfa 8, 0
	sd	a0,-88(s0)
	sd	a1,-96(s0)
	.loc 1 119 10
	sh	zero,-50(s0)
	.loc 1 120 10
	sd	zero,-64(s0)
	.loc 1 123 17
	li	a5,32
	sd	a5,-24(s0)
	.loc 1 124 22
	ld	a5,-88(s0)
	lbu	a5,36(a5)
	.loc 1 124 6
	mv	a4,a5
	li	a5,1
	beq	a4,a5,.L7
	.loc 1 124 58 discriminator 1
	ld	a5,-88(s0)
	lbu	a5,36(a5)
	.loc 1 124 40 discriminator 1
	bne	a5,zero,.L8
.L7:
	.loc 1 125 19
	li	a5,6
	sd	a5,-24(s0)
.L8:
	.loc 1 132 18
	ld	a5,-24(s0)
	addi	a5,a5,2
	slli	a4,a5,1
	.loc 1 132 38
	ld	a5,-24(s0)
	add	a5,a4,a5
	.loc 1 132 64
	addi	a5,a5,5
	.loc 1 132 13
	slli	a5,a5,1
	sd	a5,-72(s0)
	.loc 1 133 12
	ld	a0,-72(s0)
	call	AllocateZeroPool@plt
	sd	a0,-64(s0)
	.loc 1 134 6
	ld	a5,-64(s0)
	bne	a5,zero,.L9
	.loc 1 135 12
	li	a5,0
	j	.L10
.L9:
	.loc 1 138 12
	ld	a5,-96(s0)
	ld	a4,-64(s0)
	sd	a4,0(a5)
	.loc 1 139 30
	ld	a5,-72(s0)
	srli	a5,a5,1
	.loc 1 139 3
	lla	a2,.LC0
	mv	a1,a5
	ld	a0,-64(s0)
	call	StrCpyS@plt
	.loc 1 140 10
	ld	a5,-64(s0)
	addi	a5,a5,8
	sd	a5,-64(s0)
	.loc 1 145 13
	ld	a5,-88(s0)
	addi	a5,a5,4
	sd	a5,-40(s0)
	.loc 1 146 14
	sd	zero,-32(s0)
	.loc 1 146 3
	j	.L11
.L13:
	.loc 1 149 43
	ld	a5,-96(s0)
	ld	a5,0(a5)
	.loc 1 149 36
	mv	a4,a5
	.loc 1 149 20
	ld	a5,-64(s0)
	.loc 1 149 17
	sub	a4,a4,a5
	ld	a5,-72(s0)
	add	a1,a4,a5
	.loc 1 151 18
	ld	a5,-40(s0)
	addi	a4,a5,1
	sd	a4,-40(s0)
	.loc 1 151 7
	lbu	a5,0(a5)
	.loc 1 147 5
	li	a4,2
	mv	a3,a5
	li	a2,160
	ld	a0,-64(s0)
	call	UnicodeValueToStringS@plt
	.loc 1 154 70
	ld	a5,-96(s0)
	ld	a5,0(a5)
	.loc 1 154 63
	mv	a4,a5
	.loc 1 154 47
	ld	a5,-64(s0)
	.loc 1 154 44
	sub	a4,a4,a5
	ld	a5,-72(s0)
	add	a5,a4,a5
	.loc 1 154 81
	srli	a5,a5,1
	.loc 1 154 15
	mv	a1,a5
	ld	a0,-64(s0)
	call	StrnLenS@plt
	mv	a5,a0
	.loc 1 154 12 discriminator 1
	slli	a5,a5,1
	ld	a4,-64(s0)
	add	a5,a4,a5
	sd	a5,-64(s0)
	.loc 1 155 31
	ld	a5,-24(s0)
	addi	a5,a5,-1
	.loc 1 155 8
	ld	a4,-32(s0)
	bgeu	a4,a5,.L12
	.loc 1 156 14
	ld	a5,-64(s0)
	addi	a4,a5,2
	sd	a4,-64(s0)
	.loc 1 156 17
	li	a4,58
	sh	a4,0(a5)
.L12:
	.loc 1 146 47 discriminator 2
	ld	a5,-32(s0)
	addi	a5,a5,1
	sd	a5,-32(s0)
.L11:
	.loc 1 146 25 discriminator 1
	ld	a4,-32(s0)
	ld	a5,-24(s0)
	bltu	a4,a5,.L13
	.loc 1 164 8
	ld	a5,-88(s0)
	sd	a5,-48(s0)
	.loc 1 165 9
	j	.L14
.L16:
	.loc 1 166 14
	ld	a5,-48(s0)
	lbu	a5,0(a5)
	.loc 1 166 8
	mv	a4,a5
	li	a5,3
	bne	a4,a5,.L15
	.loc 1 166 38 discriminator 1
	ld	a5,-48(s0)
	lbu	a5,1(a5)
	.loc 1 166 30 discriminator 1
	mv	a4,a5
	li	a5,20
	bne	a4,a5,.L15
	.loc 1 167 14
	ld	a5,-48(s0)
	lbu	a4,4(a5)
	lbu	a5,5(a5)
	slli	a5,a5,8
	or	a5,a5,a4
	sh	a5,-50(s0)
.L15:
	.loc 1 170 12
	ld	a0,-48(s0)
	call	NextDevicePathNode@plt
	sd	a0,-48(s0)
.L14:
	.loc 1 165 11
	ld	a0,-48(s0)
	call	IsDevicePathEnd@plt
	mv	a5,a0
	.loc 1 165 10 discriminator 1
	beq	a5,zero,.L16
	.loc 1 173 6
	lhu	a5,-50(s0)
	sext.w	a5,a5
	beq	a5,zero,.L17
	.loc 1 174 12
	ld	a5,-64(s0)
	addi	a4,a5,2
	sd	a4,-64(s0)
	.loc 1 174 15
	li	a4,92
	sh	a4,0(a5)
	.loc 1 177 43
	ld	a5,-96(s0)
	ld	a5,0(a5)
	.loc 1 177 36
	mv	a4,a5
	.loc 1 177 20
	ld	a5,-64(s0)
	.loc 1 177 17
	sub	a4,a4,a5
	ld	a5,-72(s0)
	add	a5,a4,a5
	.loc 1 175 5
	lhu	a3,-50(s0)
	li	a4,4
	li	a2,160
	mv	a1,a5
	ld	a0,-64(s0)
	call	UnicodeValueToStringS@plt
	.loc 1 182 70
	ld	a5,-96(s0)
	ld	a5,0(a5)
	.loc 1 182 63
	mv	a4,a5
	.loc 1 182 47
	ld	a5,-64(s0)
	.loc 1 182 44
	sub	a4,a4,a5
	ld	a5,-72(s0)
	add	a5,a4,a5
	.loc 1 182 81
	srli	a5,a5,1
	.loc 1 182 15
	mv	a1,a5
	ld	a0,-64(s0)
	call	StrnLenS@plt
	mv	a5,a0
	.loc 1 182 12 discriminator 1
	slli	a5,a5,1
	ld	a4,-64(s0)
	add	a5,a4,a5
	sd	a5,-64(s0)
.L17:
	.loc 1 188 11
	ld	a5,-64(s0)
	sh	zero,0(a5)
	.loc 1 190 10
	li	a5,1
.L10:
	.loc 1 191 1
	mv	a0,a5
	ld	ra,88(sp)
	.cfi_restore 1
	ld	s0,80(sp)
	.cfi_restore 8
	.cfi_def_cfa 2, 96
	addi	sp,sp,96
	.cfi_def_cfa_offset 0
	jr	ra
	.cfi_endproc
.LFE1:
	.size	GetMacAddressString, .-GetMacAddressString
	.section	.text.AddIdToMacDeviceList,"ax",@progbits
	.align	1
	.globl	AddIdToMacDeviceList
	.type	AddIdToMacDeviceList, @function
AddIdToMacDeviceList:
.LFB2:
	.loc 1 206 1
	.cfi_startproc
	addi	sp,sp,-80
	.cfi_def_cfa_offset 80
	sd	ra,72(sp)
	sd	s0,64(sp)
	.cfi_offset 1, -8
	.cfi_offset 8, -16
	addi	s0,sp,80
	.cfi_def_cfa 8, 0
	sd	a0,-72(s0)
	.loc 1 213 13
	lla	a5,gDeviceManagerPrivate
	ld	a5,8(a5)
	sd	a5,-40(s0)
	.loc 1 214 18
	sd	zero,-24(s0)
	.loc 1 216 14
	sd	zero,-32(s0)
	.loc 1 216 3
	j	.L19
.L23:
	.loc 1 217 59
	lla	a5,mMacDeviceList
	ld	a4,16(a5)
	.loc 1 217 68
	ld	a5,-32(s0)
	slli	a5,a5,2
	add	a5,a4,a5
	.loc 1 217 20
	lhu	a5,0(a5)
	li	a2,0
	mv	a1,a5
	ld	a0,-40(s0)
	call	HiiGetString@plt
	sd	a0,-56(s0)
	.loc 1 218 8
	ld	a5,-56(s0)
	bne	a5,zero,.L20
	.loc 1 219 14
	li	a5,0
	j	.L21
.L20:
	.loc 1 225 9
	ld	a1,-56(s0)
	ld	a0,-72(s0)
	call	StrCmp@plt
	mv	a5,a0
	.loc 1 225 8 discriminator 1
	bne	a5,zero,.L22
	.loc 1 226 14
	li	a5,0
	j	.L21
.L22:
	.loc 1 216 59 discriminator 2
	ld	a5,-32(s0)
	addi	a5,a5,1
	sd	a5,-32(s0)
.L19:
	.loc 1 216 41 discriminator 1
	lla	a5,mMacDeviceList
	ld	a5,0(a5)
	.loc 1 216 25 discriminator 1
	ld	a4,-32(s0)
	bltu	a4,a5,.L23
	.loc 1 230 14
	li	a3,0
	ld	a2,-72(s0)
	li	a1,0
	ld	a0,-40(s0)
	call	HiiSetString@plt
	mv	a5,a0
	sh	a5,-42(s0)
	.loc 1 234 21
	lla	a5,mMacDeviceList
	ld	a4,8(a5)
	.loc 1 234 49
	lla	a5,mMacDeviceList
	ld	a5,0(a5)
	.loc 1 234 61
	addi	a5,a5,1
	.loc 1 234 6
	bleu	a4,a5,.L24
	.loc 1 235 19
	lla	a5,mMacDeviceList
	ld	a4,16(a5)
	.loc 1 235 43
	lla	a5,mMacDeviceList
	ld	a5,0(a5)
	.loc 1 235 28
	slli	a5,a5,2
	add	a5,a4,a5
	.loc 1 235 65
	lhu	a4,-42(s0)
	sh	a4,0(a5)
	.loc 1 236 101
	lla	a5,mMacDeviceList
	ld	a5,0(a5)
	.loc 1 236 69
	slli	a3,a5,48
	srli	a3,a3,48
	.loc 1 236 19
	lla	a5,mMacDeviceList
	ld	a4,16(a5)
	.loc 1 236 43
	lla	a5,mMacDeviceList
	ld	a5,0(a5)
	.loc 1 236 28
	slli	a5,a5,2
	add	a5,a4,a5
	.loc 1 236 69
	li	a4,8192
	addw	a4,a3,a4
	slli	a4,a4,48
	srli	a4,a4,48
	.loc 1 236 67
	sh	a4,2(a5)
	j	.L25
.L24:
	.loc 1 238 19
	lla	a5,mMacDeviceList
	ld	a5,8(a5)
	.loc 1 238 31
	addi	a4,a5,10
	lla	a5,mMacDeviceList
	sd	a4,8(a5)
	.loc 1 239 23
	lla	a5,mMacDeviceList
	ld	a5,0(a5)
	.loc 1 239 8
	beq	a5,zero,.L26
	.loc 1 241 66
	lla	a5,mMacDeviceList
	ld	a5,0(a5)
	.loc 1 241 50
	slli	a4,a5,2
	.loc 1 242 66
	lla	a5,mMacDeviceList
	ld	a5,8(a5)
	.loc 1 242 50
	slli	a3,a5,2
	.loc 1 243 40
	lla	a5,mMacDeviceList
	ld	a5,16(a5)
	.loc 1 240 24
	mv	a2,a5
	mv	a1,a3
	mv	a0,a4
	call	ReallocatePool@plt
	sd	a0,-24(s0)
	j	.L27
.L26:
	.loc 1 246 96
	lla	a5,mMacDeviceList
	ld	a5,8(a5)
	.loc 1 246 80
	slli	a5,a5,2
	.loc 1 246 42
	mv	a0,a5
	call	AllocatePool@plt
	sd	a0,-24(s0)
.L27:
	.loc 1 249 8
	ld	a5,-24(s0)
	bne	a5,zero,.L28
	.loc 1 250 14
	li	a5,0
	j	.L21
.L28:
	.loc 1 253 34
	lla	a5,mMacDeviceList
	ld	a5,0(a5)
	.loc 1 253 19
	slli	a5,a5,2
	ld	a4,-24(s0)
	add	a5,a4,a5
	.loc 1 253 56
	lhu	a4,-42(s0)
	sh	a4,0(a5)
	.loc 1 254 92
	lla	a5,mMacDeviceList
	ld	a5,0(a5)
	.loc 1 254 60
	slli	a3,a5,48
	srli	a3,a3,48
	.loc 1 254 34
	lla	a5,mMacDeviceList
	ld	a5,0(a5)
	.loc 1 254 19
	slli	a5,a5,2
	ld	a4,-24(s0)
	add	a5,a4,a5
	.loc 1 254 60
	li	a4,8192
	addw	a4,a3,a4
	slli	a4,a4,48
	srli	a4,a4,48
	.loc 1 254 58
	sh	a4,2(a5)
	.loc 1 256 29
	lla	a5,mMacDeviceList
	ld	a4,-24(s0)
	sd	a4,16(a5)
.L25:
	.loc 1 259 17
	lla	a5,mMacDeviceList
	ld	a5,0(a5)
	.loc 1 259 28
	addi	a4,a5,1
	lla	a5,mMacDeviceList
	sd	a4,0(a5)
	.loc 1 261 10
	li	a5,1
.L21:
	.loc 1 262 1
	mv	a0,a5
	ld	ra,72(sp)
	.cfi_restore 1
	ld	s0,64(sp)
	.cfi_restore 8
	.cfi_def_cfa 2, 80
	addi	sp,sp,80
	.cfi_def_cfa_offset 0
	jr	ra
	.cfi_endproc
.LFE2:
	.size	AddIdToMacDeviceList, .-AddIdToMacDeviceList
	.section	.text.IsMacAddressDevicePath,"ax",@progbits
	.align	1
	.globl	IsMacAddressDevicePath
	.type	IsMacAddressDevicePath, @function
IsMacAddressDevicePath:
.LFB3:
	.loc 1 285 1
	.cfi_startproc
	addi	sp,sp,-80
	.cfi_def_cfa_offset 80
	sd	ra,72(sp)
	sd	s0,64(sp)
	.cfi_offset 1, -8
	.cfi_offset 8, -16
	addi	s0,sp,80
	.cfi_def_cfa 8, 0
	sd	a0,-56(s0)
	mv	a5,a1
	sd	a2,-72(s0)
	sh	a5,-58(s0)
	.loc 1 291 16
	ld	a5,-72(s0)
	sb	zero,0(a5)
	.loc 1 292 13
	sb	zero,-25(s0)
	.loc 1 293 10
	sd	zero,-40(s0)
	.loc 1 295 14
	ld	a5,-56(s0)
	sd	a5,-24(s0)
	.loc 1 300 9
	j	.L30
.L38:
	.loc 1 301 10
	ld	a0,-24(s0)
	call	DevicePathType@plt
	mv	a5,a0
	.loc 1 301 8 discriminator 1
	mv	a4,a5
	li	a5,3
	bne	a4,a5,.L31
	.loc 1 302 10
	ld	a0,-24(s0)
	call	DevicePathSubType@plt
	mv	a5,a0
	.loc 1 301 47 discriminator 2
	mv	a4,a5
	li	a5,11
	bne	a4,a5,.L31
	.loc 1 304 17
	li	a5,1
	sb	a5,-25(s0)
	.loc 1 306 10
	lhu	a5,-58(s0)
	sext.w	a4,a5
	li	a5,4096
	bne	a4,a5,.L32
	.loc 1 307 22
	ld	a5,-72(s0)
	li	a4,1
	sb	a4,0(a5)
	.loc 1 308 9
	j	.L33
.L32:
	.loc 1 311 12
	addi	a5,s0,-40
	mv	a1,a5
	ld	a0,-24(s0)
	call	GetMacAddressString
	mv	a5,a0
	.loc 1 311 10 discriminator 1
	beq	a5,zero,.L41
	.loc 1 315 10
	lhu	a5,-58(s0)
	sext.w	a4,a5
	li	a5,4096
	addi	a5,a5,2
	bne	a4,a5,.L35
	.loc 1 316 13
	ld	a4,-40(s0)
	lla	a5,mSelectedMacAddrString
	ld	a5,0(a5)
	mv	a1,a5
	mv	a0,a4
	call	StrCmp@plt
	mv	a5,a0
	.loc 1 316 12 discriminator 1
	bne	a5,zero,.L42
	.loc 1 317 24
	ld	a5,-72(s0)
	li	a4,1
	sb	a4,0(a5)
	.loc 1 320 9
	j	.L42
.L35:
	.loc 1 323 10
	lhu	a5,-58(s0)
	sext.w	a4,a5
	li	a5,4096
	addi	a5,a5,1
	bne	a4,a5,.L31
	.loc 1 328 13
	ld	a5,-40(s0)
	mv	a0,a5
	call	AddIdToMacDeviceList
	mv	a5,a0
	.loc 1 328 12 discriminator 1
	beq	a5,zero,.L43
	.loc 1 329 24
	ld	a5,-72(s0)
	li	a4,1
	sb	a4,0(a5)
	.loc 1 332 9
	j	.L43
.L31:
	.loc 1 336 18
	ld	a0,-24(s0)
	call	NextDevicePathNode@plt
	sd	a0,-24(s0)
.L30:
	.loc 1 300 11
	ld	a0,-24(s0)
	call	IsDevicePathEnd@plt
	mv	a5,a0
	.loc 1 300 10 discriminator 1
	beq	a5,zero,.L38
	j	.L33
.L41:
	.loc 1 312 9
	nop
	j	.L33
.L42:
	.loc 1 320 9
	nop
	j	.L33
.L43:
	.loc 1 332 9
	nop
.L33:
	.loc 1 339 14
	ld	a5,-40(s0)
	.loc 1 339 6
	beq	a5,zero,.L39
	.loc 1 340 5
	ld	a5,-40(s0)
	mv	a0,a5
	call	FreePool@plt
.L39:
	.loc 1 343 10
	lbu	a5,-25(s0)
	.loc 1 344 1
	mv	a0,a5
	ld	ra,72(sp)
	.cfi_restore 1
	ld	s0,64(sp)
	.cfi_restore 8
	.cfi_def_cfa 2, 80
	addi	sp,sp,80
	.cfi_def_cfa_offset 0
	jr	ra
	.cfi_endproc
.LFE3:
	.size	IsMacAddressDevicePath, .-IsMacAddressDevicePath
	.section	.text.IsNeedAddNetworkMenu,"ax",@progbits
	.align	1
	.globl	IsNeedAddNetworkMenu
	.type	IsNeedAddNetworkMenu, @function
IsNeedAddNetworkMenu:
.LFB4:
	.loc 1 363 1
	.cfi_startproc
	addi	sp,sp,-128
	.cfi_def_cfa_offset 128
	sd	ra,120(sp)
	sd	s0,112(sp)
	.cfi_offset 1, -8
	.cfi_offset 8, -16
	addi	s0,sp,128
	.cfi_def_cfa 8, 0
	sd	a0,-104(s0)
	mv	a5,a1
	sd	a2,-120(s0)
	sh	a5,-106(s0)
	.loc 1 375 13
	sb	zero,-89(s0)
	.loc 1 376 18
	sd	zero,-88(s0)
	.loc 1 377 6
	ld	a5,-104(s0)
	beq	a5,zero,.L45
	.loc 1 377 32 discriminator 1
	ld	a5,-120(s0)
	bne	a5,zero,.L46
.L45:
	.loc 1 378 12
	li	a5,0
	j	.L64
.L46:
	.loc 1 381 14
	ld	a5,-120(s0)
	sd	zero,0(a5)
	.loc 1 383 24
	la	a5,gHiiDatabase
	ld	a5,0(a5)
	ld	a5,80(a5)
	.loc 1 383 12
	la	a4,gHiiDatabase
	ld	a4,0(a4)
	addi	a3,s0,-48
	mv	a2,a3
	ld	a1,-104(s0)
	mv	a0,a4
	jalr	a5
.LVL1:
	sd	a0,-32(s0)
	.loc 1 384 34
	ld	a5,-32(s0)
	.loc 1 384 6
	bge	a5,zero,.L48
	.loc 1 385 12
	li	a5,0
	j	.L64
.L48:
	.loc 1 391 15
	la	a5,gBS
	ld	a5,0(a5)
	ld	a5,152(a5)
	.loc 1 391 12
	ld	a4,-48(s0)
	addi	a3,s0,-64
	mv	a2,a3
	la	a1,gEfiDevicePathProtocolGuid
	mv	a0,a4
	jalr	a5
.LVL2:
	sd	a0,-32(s0)
	.loc 1 392 34
	ld	a5,-32(s0)
	.loc 1 392 6
	bge	a5,zero,.L49
	.loc 1 393 12
	li	a5,0
	j	.L64
.L49:
	.loc 1 396 17
	ld	a5,-64(s0)
	sd	a5,-72(s0)
	.loc 1 404 7
	ld	a5,-72(s0)
	addi	a3,s0,-89
	lhu	a4,-106(s0)
	mv	a2,a3
	mv	a1,a4
	mv	a0,a5
	call	IsMacAddressDevicePath
	mv	a5,a0
	.loc 1 404 6 discriminator 1
	beq	a5,zero,.L50
	.loc 1 405 8
	lhu	a5,-106(s0)
	sext.w	a4,a5
	li	a5,4096
	addi	a5,a5,1
	bne	a4,a5,.L51
	.loc 1 405 36 discriminator 1
	lbu	a5,-89(s0)
	beq	a5,zero,.L51
	.loc 1 406 20
	ld	a5,-120(s0)
	li	a4,1
	sd	a4,0(a5)
.L51:
	.loc 1 409 12
	lbu	a5,-89(s0)
	j	.L64
.L50:
	.loc 1 416 17
	ld	a5,-64(s0)
	sd	a5,-72(s0)
	.loc 1 417 15
	la	a5,gBS
	ld	a5,0(a5)
	ld	a5,184(a5)
	.loc 1 417 12
	addi	a3,s0,-56
	addi	a4,s0,-72
	mv	a2,a3
	mv	a1,a4
	la	a0,gEfiDevicePathProtocolGuid
	jalr	a5
.LVL3:
	sd	a0,-32(s0)
	.loc 1 418 34
	ld	a5,-32(s0)
	.loc 1 418 6
	bge	a5,zero,.L52
	.loc 1 419 12
	li	a5,0
	j	.L64
.L52:
	.loc 1 422 8
	ld	a5,-72(s0)
	mv	a0,a5
	call	IsDevicePathEnd@plt
	mv	a5,a0
	.loc 1 422 6 discriminator 1
	bne	a5,zero,.L53
	.loc 1 423 12
	li	a5,0
	j	.L64
.L53:
	.loc 1 431 15
	la	a5,gBS
	ld	a5,0(a5)
	ld	a5,296(a5)
	.loc 1 431 12
	ld	a4,-56(s0)
	addi	a3,s0,-40
	addi	a2,s0,-88
	la	a1,gEfiPciIoProtocolGuid
	mv	a0,a4
	jalr	a5
.LVL4:
	sd	a0,-32(s0)
	.loc 1 437 34
	ld	a5,-32(s0)
	.loc 1 437 6
	bge	a5,zero,.L54
	.loc 1 438 12
	li	a5,0
	j	.L64
.L54:
	.loc 1 444 10
	li	a5,-1
	slli	a5,a5,63
	addi	a5,a5,3
	sd	a5,-32(s0)
	.loc 1 445 14
	sd	zero,-24(s0)
	.loc 1 445 3
	j	.L55
.L62:
	.loc 1 449 24
	ld	a3,-88(s0)
	ld	a4,-24(s0)
	mv	a5,a4
	slli	a5,a5,1
	add	a5,a5,a4
	slli	a5,a5,3
	add	a5,a3,a5
	.loc 1 449 31
	lw	a5,16(a5)
	.loc 1 449 43
	andi	a5,a5,8
	sext.w	a5,a5
	.loc 1 449 8
	beq	a5,zero,.L56
	.loc 1 450 19
	la	a5,gBS
	ld	a5,0(a5)
	ld	a6,280(a5)
	.loc 1 451 37
	ld	a3,-88(s0)
	ld	a4,-24(s0)
	mv	a5,a4
	slli	a5,a5,1
	add	a5,a5,a4
	slli	a5,a5,3
	add	a5,a3,a5
	.loc 1 450 16
	ld	a0,8(a5)
	addi	a2,s0,-80
	li	a5,2
	li	a4,0
	li	a3,0
	la	a1,gEfiDevicePathProtocolGuid
	jalr	a6
.LVL5:
	sd	a0,-32(s0)
	.loc 1 458 38
	ld	a5,-32(s0)
	.loc 1 458 10
	blt	a5,zero,.L65
	.loc 1 465 12
	ld	a5,-80(s0)
	addi	a3,s0,-89
	lhu	a4,-106(s0)
	mv	a2,a3
	mv	a1,a4
	mv	a0,a5
	call	IsMacAddressDevicePath
	mv	a5,a0
	.loc 1 465 10 discriminator 1
	beq	a5,zero,.L66
	.loc 1 474 12
	lhu	a5,-106(s0)
	sext.w	a4,a5
	li	a5,4096
	addi	a5,a5,1
	bne	a4,a5,.L67
	.loc 1 475 15
	lbu	a5,-89(s0)
	.loc 1 475 14
	beq	a5,zero,.L68
	.loc 1 476 14
	ld	a5,-120(s0)
	ld	a5,0(a5)
	.loc 1 476 26
	addi	a4,a5,1
	ld	a5,-120(s0)
	sd	a4,0(a5)
	.loc 1 479 11
	j	.L68
.L65:
	.loc 1 459 9
	nop
	j	.L56
.L66:
	.loc 1 469 9
	nop
	j	.L56
.L68:
	.loc 1 479 11
	nop
.L56:
	.loc 1 445 44 discriminator 2
	ld	a5,-24(s0)
	addi	a5,a5,1
	sd	a5,-24(s0)
.L55:
	.loc 1 445 25 discriminator 1
	ld	a5,-40(s0)
	ld	a4,-24(s0)
	bltu	a4,a5,.L62
	.loc 1 490 1
	j	.L61
.L67:
	.loc 1 484 11
	nop
.L61:
	.loc 1 491 22
	ld	a5,-88(s0)
	.loc 1 491 6
	beq	a5,zero,.L63
	.loc 1 492 5
	ld	a5,-88(s0)
	mv	a0,a5
	call	FreePool@plt
.L63:
	.loc 1 495 10
	lbu	a5,-89(s0)
.L64:
	.loc 1 496 1
	mv	a0,a5
	ld	ra,120(sp)
	.cfi_restore 1
	ld	s0,112(sp)
	.cfi_restore 8
	.cfi_def_cfa 2, 128
	addi	sp,sp,128
	.cfi_def_cfa_offset 0
	jr	ra
	.cfi_endproc
.LFE4:
	.size	IsNeedAddNetworkMenu, .-IsNeedAddNetworkMenu
	.section	.rodata
	.align	3
.LC1:
	.string	"%"
	.string	"s"
	.string	" "
	.string	"%"
	.string	"s"
	.zero	2
	.section	.text.CreateDeviceManagerForm,"ax",@progbits
	.align	1
	.globl	CreateDeviceManagerForm
	.type	CreateDeviceManagerForm, @function
CreateDeviceManagerForm:
.LFB5:
	.loc 1 508 1
	.cfi_startproc
	addi	sp,sp,-224
	.cfi_def_cfa_offset 224
	sd	ra,216(sp)
	sd	s0,208(sp)
	.cfi_offset 1, -8
	.cfi_offset 8, -16
	addi	s0,sp,224
	.cfi_def_cfa 8, 0
	mv	a5,a0
	sh	a5,-194(s0)
	.loc 1 534 12
	sd	zero,-56(s0)
	.loc 1 535 14
	sd	zero,-192(s0)
	.loc 1 536 10
	sd	zero,-184(s0)
	.loc 1 538 13
	lla	a5,gDeviceManagerPrivate
	ld	a5,8(a5)
	sd	a5,-72(s0)
	.loc 1 539 18
	sb	zero,-33(s0)
	.loc 1 540 16
	sd	zero,-176(s0)
	.loc 1 544 6
	lhu	a5,-194(s0)
	sext.w	a4,a5
	li	a5,4096
	addi	a5,a5,1
	bne	a4,a5,.L70
	.loc 1 544 52 discriminator 1
	lla	a5,mMacDeviceList
	ld	a5,0(a5)
	.loc 1 544 34 discriminator 1
	beq	a5,zero,.L70
	.loc 1 545 31
	lla	a5,mMacDeviceList
	sd	zero,0(a5)
.L70:
	.loc 1 551 6
	lhu	a5,-194(s0)
	sext.w	a4,a5
	li	a5,4096
	addi	a5,a5,2
	bne	a4,a5,.L71
	.loc 1 552 14
	li	a2,0
	li	a1,8
	ld	a0,-72(s0)
	call	HiiGetString@plt
	sd	a0,-32(s0)
	.loc 1 553 8
	ld	a5,-32(s0)
	beq	a5,zero,.L96
	.loc 1 557 20
	lla	a5,mSelectedMacAddrString
	ld	a5,0(a5)
	mv	a0,a5
	call	StrLen@plt
	mv	a5,a0
	.loc 1 557 18 discriminator 1
	slli	a5,a5,1
	sd	a5,-80(s0)
	.loc 1 558 22
	ld	a0,-32(s0)
	call	StrLen@plt
	mv	a5,a0
	.loc 1 558 38 discriminator 1
	addi	a5,a5,2
	.loc 1 558 43 discriminator 1
	slli	a5,a5,1
	.loc 1 558 18 discriminator 1
	ld	a4,-80(s0)
	add	a5,a4,a5
	sd	a5,-80(s0)
	.loc 1 559 22
	ld	a0,-80(s0)
	call	AllocatePool@plt
	sd	a0,-88(s0)
	.loc 1 560 5
	lla	a5,mSelectedMacAddrString
	ld	a5,0(a5)
	mv	a4,a5
	ld	a3,-32(s0)
	lla	a2,.LC1
	ld	a1,-80(s0)
	ld	a0,-88(s0)
	call	UnicodeSPrint@plt
	.loc 1 561 5
	li	a3,0
	ld	a2,-88(s0)
	li	a1,9
	ld	a0,-72(s0)
	call	HiiSetString@plt
	.loc 1 562 5
	ld	a0,-32(s0)
	call	FreePool@plt
	.loc 1 563 5
	ld	a0,-88(s0)
	call	FreePool@plt
.L71:
	.loc 1 569 23
	call	HiiAllocateOpCodeHandle@plt
	sd	a0,-96(s0)
	.loc 1 572 21
	call	HiiAllocateOpCodeHandle@plt
	sd	a0,-104(s0)
	.loc 1 578 38
	li	a3,21
	li	a2,0
	la	a1,gEfiIfrTianoGuid
	ld	a0,-96(s0)
	call	HiiCreateGuidOpCode@plt
	sd	a0,-112(s0)
	.loc 1 579 28
	ld	a5,-112(s0)
	sb	zero,18(a5)
	.loc 1 583 24
	lhu	a5,-194(s0)
	addiw	a5,a5,256
	slli	a4,a5,48
	srli	a4,a4,48
	.loc 1 583 22
	ld	a5,-112(s0)
	andi	a3,a4,255
	lbu	a2,19(a5)
	andi	a2,a2,0
	or	a3,a2,a3
	sb	a3,19(a5)
	srliw	a4,a4,8
	slli	a4,a4,48
	srli	a4,a4,48
	lbu	a3,20(a5)
	andi	a3,a3,0
	or	a4,a3,a4
	sb	a4,20(a5)
	.loc 1 588 36
	li	a3,21
	li	a2,0
	la	a1,gEfiIfrTianoGuid
	ld	a0,-104(s0)
	call	HiiCreateGuidOpCode@plt
	sd	a0,-120(s0)
	.loc 1 589 26
	ld	a5,-120(s0)
	sb	zero,18(a5)
	.loc 1 590 20
	ld	a5,-120(s0)
	lbu	a4,19(a5)
	ori	a4,a4,-1
	sb	a4,19(a5)
	lbu	a4,20(a5)
	ori	a4,a4,-1
	sb	a4,20(a5)
	.loc 1 595 16
	li	a0,0
	call	HiiGetHiiHandles@plt
	sd	a0,-128(s0)
	.loc 1 601 14
	sd	zero,-24(s0)
	.loc 1 601 3
	j	.L74
.L95:
	.loc 1 602 52
	ld	a5,-24(s0)
	slli	a5,a5,3
	ld	a4,-128(s0)
	add	a5,a4,a5
	.loc 1 602 14
	ld	a5,0(a5)
	addi	a3,s0,-192
	addi	a4,s0,-184
	mv	a2,a3
	mv	a1,a4
	mv	a0,a5
	call	HiiGetFormSetFromHiiHandle@plt
	sd	a0,-136(s0)
	.loc 1 603 36
	ld	a5,-136(s0)
	.loc 1 603 8
	blt	a5,zero,.L97
	.loc 1 607 9
	ld	a5,-184(s0)
	sd	a5,-64(s0)
	.loc 1 608 11
	j	.L77
.L94:
	.loc 1 609 45
	ld	a5,-64(s0)
	lbu	a5,1(a5)
	andi	a5,a5,127
	andi	a5,a5,0xff
	mv	a4,a5
	.loc 1 609 16
	ld	a5,-56(s0)
	add	a5,a5,a4
	sd	a5,-56(s0)
	.loc 1 610 37
	ld	a5,-64(s0)
	lbu	a5,1(a5)
	andi	a5,a5,127
	andi	a5,a5,0xff
	.loc 1 610 10
	mv	a4,a5
	li	a5,22
	bgtu	a4,a5,.L78
	.loc 1 611 42
	ld	a5,-64(s0)
	lbu	a5,1(a5)
	andi	a5,a5,127
	andi	a5,a5,0xff
	mv	a4,a5
	.loc 1 611 13
	ld	a5,-64(s0)
	add	a5,a5,a4
	sd	a5,-64(s0)
	.loc 1 612 9
	j	.L77
.L78:
	.loc 1 615 55
	ld	a5,-64(s0)
	lbu	a5,22(a5)
	.loc 1 615 20
	andi	a5,a5,3
	sb	a5,-37(s0)
	.loc 1 616 17
	ld	a5,-64(s0)
	addi	a5,a5,23
	sd	a5,-48(s0)
	.loc 1 617 13
	j	.L80
.L93:
	.loc 1 618 13
	ld	a1,-48(s0)
	la	a0,gEfiHiiPlatformSetupFormsetGuid
	call	CompareGuid@plt
	mv	a5,a0
	.loc 1 618 12 discriminator 1
	bne	a5,zero,.L81
	.loc 1 619 20
	ld	a5,-48(s0)
	addi	a5,a5,16
	sd	a5,-48(s0)
	.loc 1 620 11
	j	.L80
.L81:
	.loc 1 623 42
	ld	a5,-24(s0)
	slli	a5,a5,3
	ld	a4,-128(s0)
	add	a5,a4,a5
	.loc 1 623 18
	ld	a3,0(a5)
	ld	a5,-64(s0)
	lbu	a4,18(a5)
	lbu	a5,19(a5)
	slli	a5,a5,8
	or	a5,a5,a4
	slli	a5,a5,48
	srli	a5,a5,48
	li	a2,0
	mv	a1,a5
	mv	a0,a3
	call	HiiGetString@plt
	sd	a0,-32(s0)
	.loc 1 624 12
	ld	a5,-32(s0)
	bne	a5,zero,.L82
	.loc 1 625 20
	li	a2,0
	li	a1,5
	ld	a0,-72(s0)
	call	HiiGetString@plt
	sd	a0,-32(s0)
.L82:
	.loc 1 629 17
	li	a3,0
	ld	a2,-32(s0)
	li	a1,0
	ld	a0,-72(s0)
	call	HiiSetString@plt
	mv	a5,a0
	sh	a5,-138(s0)
	.loc 1 630 9
	ld	a0,-32(s0)
	call	FreePool@plt
	.loc 1 632 42
	ld	a5,-24(s0)
	slli	a5,a5,3
	ld	a4,-128(s0)
	add	a5,a4,a5
	.loc 1 632 18
	ld	a3,0(a5)
	ld	a5,-64(s0)
	lbu	a4,20(a5)
	lbu	a5,21(a5)
	slli	a5,a5,8
	or	a5,a5,a4
	slli	a5,a5,48
	srli	a5,a5,48
	li	a2,0
	mv	a1,a5
	mv	a0,a3
	call	HiiGetString@plt
	sd	a0,-32(s0)
	.loc 1 633 12
	ld	a5,-32(s0)
	bne	a5,zero,.L83
	.loc 1 634 20
	li	a2,0
	li	a1,5
	ld	a0,-72(s0)
	call	HiiGetString@plt
	sd	a0,-32(s0)
.L83:
	.loc 1 638 21
	li	a3,0
	ld	a2,-32(s0)
	li	a1,0
	ld	a0,-72(s0)
	call	HiiSetString@plt
	mv	a5,a0
	sh	a5,-140(s0)
	.loc 1 639 9
	ld	a0,-32(s0)
	call	FreePool@plt
	.loc 1 641 32
	ld	a5,-64(s0)
	addi	a4,a5,2
	.loc 1 641 9
	addi	a5,s0,-168
	li	a2,16
	mv	a1,a4
	mv	a0,a5
	call	CopyMem@plt
	.loc 1 646 45
	ld	a5,-24(s0)
	slli	a5,a5,3
	ld	a4,-128(s0)
	add	a5,a4,a5
	.loc 1 646 13
	ld	a5,0(a5)
	addi	a3,s0,-176
	lhu	a4,-194(s0)
	mv	a2,a3
	mv	a1,a4
	mv	a0,a5
	call	IsNeedAddNetworkMenu
	mv	a5,a0
	.loc 1 646 12 discriminator 1
	beq	a5,zero,.L84
	.loc 1 647 14
	lhu	a5,-194(s0)
	sext.w	a4,a5
	li	a5,4096
	bne	a4,a5,.L85
	.loc 1 651 16
	lbu	a5,-33(s0)
	andi	a5,a5,0xff
	bne	a5,zero,.L98
	.loc 1 652 30
	li	a5,1
	sb	a5,-33(s0)
	.loc 1 653 15
	li	a5,16384
	addi	a5,a5,-1
	li	a4,4
	li	a3,11
	li	a2,12
	li	a1,4096
	addi	a1,a1,1
	ld	a0,-96(s0)
	call	HiiCreateGotoOpCode@plt
	.loc 1 726 9
	j	.L98
.L85:
	.loc 1 662 21
	lhu	a5,-194(s0)
	sext.w	a4,a5
	li	a5,4096
	addi	a5,a5,1
	bne	a4,a5,.L87
	.loc 1 666 19
	j	.L88
.L89:
	.loc 1 670 31
	lla	a5,mMacDeviceList
	ld	a4,16(a5)
	.loc 1 670 55
	lla	a5,mMacDeviceList
	ld	a3,0(a5)
	.loc 1 670 67
	ld	a5,-176(s0)
	sub	a5,a3,a5
	.loc 1 670 40
	slli	a5,a5,2
	add	a5,a4,a5
	.loc 1 667 15
	lhu	a2,0(a5)
	.loc 1 673 31
	lla	a5,mMacDeviceList
	ld	a4,16(a5)
	.loc 1 673 55
	lla	a5,mMacDeviceList
	ld	a3,0(a5)
	.loc 1 673 67
	ld	a5,-176(s0)
	sub	a5,a3,a5
	.loc 1 673 40
	slli	a5,a5,2
	add	a5,a4,a5
	.loc 1 667 15
	lhu	a5,2(a5)
	li	a4,4
	li	a3,14
	li	a1,4096
	addi	a1,a1,2
	ld	a0,-96(s0)
	call	HiiCreateGotoOpCode@plt
	.loc 1 675 28
	ld	a5,-176(s0)
	addi	a5,a5,-1
	sd	a5,-176(s0)
.L88:
	.loc 1 666 33
	ld	a5,-176(s0)
	bne	a5,zero,.L89
	.loc 1 726 9
	j	.L98
.L87:
	.loc 1 677 21
	lhu	a5,-194(s0)
	sext.w	a4,a5
	li	a5,4096
	addi	a5,a5,2
	bne	a4,a5,.L98
	.loc 1 681 73
	ld	a5,-24(s0)
	slli	a5,a5,3
	ld	a4,-128(s0)
	add	a5,a4,a5
	.loc 1 681 29
	ld	a5,0(a5)
	mv	a0,a5
	call	DmExtractDevicePathFromHiiHandle
	sd	a0,-152(s0)
	.loc 1 682 26
	sh	zero,-36(s0)
	.loc 1 683 16
	ld	a5,-152(s0)
	beq	a5,zero,.L90
	.loc 1 684 30
	li	a3,0
	ld	a2,-152(s0)
	li	a1,0
	ld	a0,-72(s0)
	call	HiiSetString@plt
	mv	a5,a0
	sh	a5,-36(s0)
	.loc 1 685 15
	ld	a0,-152(s0)
	call	FreePool@plt
.L90:
	.loc 1 688 13
	ld	a5,-24(s0)
	slli	a4,a5,48
	srli	a4,a4,48
	.loc 1 694 15
	li	a5,16384
	addw	a5,a4,a5
	slli	a4,a5,48
	srli	a4,a4,48
	.loc 1 688 13
	addi	a1,s0,-168
	lhu	a3,-140(s0)
	lhu	a2,-138(s0)
	lhu	a5,-36(s0)
	sd	a5,0(sp)
	mv	a7,a1
	li	a6,0
	mv	a5,a4
	li	a4,0
	li	a1,0
	ld	a0,-96(s0)
	call	HiiCreateGotoExOpCode@plt
	.loc 1 726 9
	j	.L98
.L84:
	.loc 1 704 14
	lhu	a5,-194(s0)
	sext.w	a4,a5
	li	a5,4096
	bne	a4,a5,.L98
	.loc 1 705 73
	ld	a5,-24(s0)
	slli	a5,a5,3
	ld	a4,-128(s0)
	add	a5,a4,a5
	.loc 1 705 29
	ld	a5,0(a5)
	mv	a0,a5
	call	DmExtractDevicePathFromHiiHandle
	sd	a0,-152(s0)
	.loc 1 706 26
	sh	zero,-36(s0)
	.loc 1 707 16
	ld	a5,-152(s0)
	beq	a5,zero,.L91
	.loc 1 708 30
	li	a3,0
	ld	a2,-152(s0)
	li	a1,0
	ld	a0,-72(s0)
	call	HiiSetString@plt
	mv	a5,a0
	sh	a5,-36(s0)
	.loc 1 709 15
	ld	a0,-152(s0)
	call	FreePool@plt
.L91:
	.loc 1 712 13
	ld	a5,-24(s0)
	slli	a4,a5,48
	srli	a4,a4,48
	.loc 1 718 15
	li	a5,16384
	addw	a5,a4,a5
	slli	a4,a5,48
	srli	a4,a4,48
	.loc 1 712 13
	addi	a1,s0,-168
	lhu	a3,-140(s0)
	lhu	a2,-138(s0)
	lhu	a5,-36(s0)
	sd	a5,0(sp)
	mv	a7,a1
	li	a6,0
	mv	a5,a4
	li	a4,0
	li	a1,0
	ld	a0,-96(s0)
	call	HiiCreateGotoExOpCode@plt
	.loc 1 726 9
	j	.L98
.L80:
	.loc 1 617 26
	lbu	a5,-37(s0)
	addiw	a4,a5,-1
	sb	a4,-37(s0)
	.loc 1 617 29
	bne	a5,zero,.L93
	j	.L92
.L98:
	.loc 1 726 9
	nop
.L92:
	.loc 1 729 40
	ld	a5,-64(s0)
	lbu	a5,1(a5)
	andi	a5,a5,127
	andi	a5,a5,0xff
	mv	a4,a5
	.loc 1 729 11
	ld	a5,-64(s0)
	add	a5,a5,a4
	sd	a5,-64(s0)
.L77:
	.loc 1 608 21
	ld	a5,-192(s0)
	ld	a4,-56(s0)
	bltu	a4,a5,.L94
	.loc 1 732 5
	ld	a5,-184(s0)
	mv	a0,a5
	call	FreePool@plt
	.loc 1 733 12
	sd	zero,-184(s0)
	.loc 1 734 14
	sd	zero,-56(s0)
	.loc 1 735 16
	sd	zero,-192(s0)
	j	.L76
.L97:
	.loc 1 604 7
	nop
.L76:
	.loc 1 601 59 discriminator 2
	ld	a5,-24(s0)
	addi	a5,a5,1
	sd	a5,-24(s0)
.L74:
	.loc 1 601 29 discriminator 1
	ld	a5,-24(s0)
	slli	a5,a5,3
	ld	a4,-128(s0)
	add	a5,a4,a5
	ld	a5,0(a5)
	.loc 1 601 37 discriminator 1
	bne	a5,zero,.L95
	.loc 1 738 3
	lhu	a5,-194(s0)
	ld	a4,-104(s0)
	ld	a3,-96(s0)
	mv	a2,a5
	lla	a1,mDeviceManagerGuid
	ld	a0,-72(s0)
	call	HiiUpdateForm@plt
	.loc 1 746 3
	ld	a0,-96(s0)
	call	HiiFreeOpCodeHandle@plt
	.loc 1 747 3
	ld	a0,-104(s0)
	call	HiiFreeOpCodeHandle@plt
	.loc 1 748 3
	ld	a0,-128(s0)
	call	FreePool@plt
	j	.L69
.L96:
	.loc 1 554 7 discriminator 1
	nop
.L69:
	.loc 1 749 1
	ld	ra,216(sp)
	.cfi_restore 1
	ld	s0,208(sp)
	.cfi_restore 8
	.cfi_def_cfa 2, 224
	addi	sp,sp,224
	.cfi_def_cfa_offset 0
	jr	ra
	.cfi_endproc
.LFE5:
	.size	CreateDeviceManagerForm, .-CreateDeviceManagerForm
	.section	.text.DeviceManagerExtractConfig,"ax",@progbits
	.align	1
	.globl	DeviceManagerExtractConfig
	.type	DeviceManagerExtractConfig, @function
DeviceManagerExtractConfig:
.LFB6:
	.loc 1 781 1
	.cfi_startproc
	addi	sp,sp,-48
	.cfi_def_cfa_offset 48
	sd	ra,40(sp)
	sd	s0,32(sp)
	.cfi_offset 1, -8
	.cfi_offset 8, -16
	addi	s0,sp,48
	.cfi_def_cfa 8, 0
	sd	a0,-24(s0)
	sd	a1,-32(s0)
	sd	a2,-40(s0)
	sd	a3,-48(s0)
	.loc 1 782 6
	ld	a5,-40(s0)
	beq	a5,zero,.L100
	.loc 1 782 34 discriminator 1
	ld	a5,-48(s0)
	bne	a5,zero,.L101
.L100:
	.loc 1 783 12
	li	a5,-1
	slli	a5,a5,63
	addi	a5,a5,2
	j	.L102
.L101:
	.loc 1 786 13
	ld	a5,-40(s0)
	ld	a4,-32(s0)
	sd	a4,0(a5)
	.loc 1 787 10
	li	a5,-1
	slli	a5,a5,63
	addi	a5,a5,14
.L102:
	.loc 1 788 1
	mv	a0,a5
	ld	ra,40(sp)
	.cfi_restore 1
	ld	s0,32(sp)
	.cfi_restore 8
	.cfi_def_cfa 2, 48
	addi	sp,sp,48
	.cfi_def_cfa_offset 0
	jr	ra
	.cfi_endproc
.LFE6:
	.size	DeviceManagerExtractConfig, .-DeviceManagerExtractConfig
	.section	.text.DeviceManagerRouteConfig,"ax",@progbits
	.align	1
	.globl	DeviceManagerRouteConfig
	.type	DeviceManagerRouteConfig, @function
DeviceManagerRouteConfig:
.LFB7:
	.loc 1 812 1
	.cfi_startproc
	addi	sp,sp,-48
	.cfi_def_cfa_offset 48
	sd	ra,40(sp)
	sd	s0,32(sp)
	.cfi_offset 1, -8
	.cfi_offset 8, -16
	addi	s0,sp,48
	.cfi_def_cfa 8, 0
	sd	a0,-24(s0)
	sd	a1,-32(s0)
	sd	a2,-40(s0)
	.loc 1 813 6
	ld	a5,-32(s0)
	beq	a5,zero,.L104
	.loc 1 813 39 discriminator 1
	ld	a5,-40(s0)
	bne	a5,zero,.L105
.L104:
	.loc 1 814 12
	li	a5,-1
	slli	a5,a5,63
	addi	a5,a5,2
	j	.L106
.L105:
	.loc 1 817 13
	ld	a5,-40(s0)
	ld	a4,-32(s0)
	sd	a4,0(a5)
	.loc 1 819 10
	li	a5,-1
	slli	a5,a5,63
	addi	a5,a5,14
.L106:
	.loc 1 820 1
	mv	a0,a5
	ld	ra,40(sp)
	.cfi_restore 1
	ld	s0,32(sp)
	.cfi_restore 8
	.cfi_def_cfa 2, 48
	addi	sp,sp,48
	.cfi_def_cfa_offset 0
	jr	ra
	.cfi_endproc
.LFE7:
	.size	DeviceManagerRouteConfig, .-DeviceManagerRouteConfig
	.section	.text.DeviceManagerCallback,"ax",@progbits
	.align	1
	.globl	DeviceManagerCallback
	.type	DeviceManagerCallback, @function
DeviceManagerCallback:
.LFB8:
	.loc 1 848 1
	.cfi_startproc
	addi	sp,sp,-80
	.cfi_def_cfa_offset 80
	sd	ra,72(sp)
	sd	s0,64(sp)
	.cfi_offset 1, -8
	.cfi_offset 8, -16
	addi	s0,sp,80
	.cfi_def_cfa 8, 0
	sd	a0,-40(s0)
	sd	a1,-48(s0)
	sd	a4,-64(s0)
	sd	a5,-72(s0)
	mv	a5,a2
	sh	a5,-50(s0)
	mv	a5,a3
	sb	a5,-51(s0)
	.loc 1 851 6
	ld	a5,-48(s0)
	beq	a5,zero,.L108
	.loc 1 855 12
	li	a5,-1
	slli	a5,a5,63
	addi	a5,a5,3
	j	.L109
.L108:
	.loc 1 858 6
	ld	a5,-64(s0)
	beq	a5,zero,.L110
	.loc 1 858 31 discriminator 1
	ld	a5,-72(s0)
	bne	a5,zero,.L111
.L110:
	.loc 1 859 12
	li	a5,-1
	slli	a5,a5,63
	addi	a5,a5,2
	j	.L109
.L111:
	.loc 1 862 6
	lhu	a5,-50(s0)
	sext.w	a4,a5
	li	a5,12288
	bgeu	a4,a5,.L112
	.loc 1 862 38 discriminator 1
	lhu	a5,-50(s0)
	sext.w	a4,a5
	li	a5,8192
	bltu	a4,a5,.L112
	.loc 1 866 19
	sd	zero,-24(s0)
	.loc 1 866 5
	j	.L113
.L115:
	.loc 1 867 25
	lla	a5,mMacDeviceList
	ld	a4,16(a5)
	.loc 1 867 34
	ld	a5,-24(s0)
	slli	a5,a5,2
	add	a5,a4,a5
	.loc 1 867 44
	lhu	a5,2(a5)
	.loc 1 867 10
	lhu	a4,-50(s0)
	sext.w	a4,a4
	sext.w	a5,a5
	bne	a4,a5,.L114
	.loc 1 868 34
	lla	a5,gDeviceManagerPrivate
	ld	a3,8(a5)
	.loc 1 868 95
	lla	a5,mMacDeviceList
	ld	a4,16(a5)
	.loc 1 868 104
	ld	a5,-24(s0)
	slli	a5,a5,2
	add	a5,a4,a5
	.loc 1 868 34
	lhu	a5,0(a5)
	li	a2,0
	mv	a1,a5
	mv	a0,a3
	call	HiiGetString@plt
	mv	a4,a0
	.loc 1 868 32 discriminator 1
	lla	a5,mSelectedMacAddrString
	sd	a4,0(a5)
.L114:
	.loc 1 866 70 discriminator 2
	ld	a5,-24(s0)
	addi	a5,a5,1
	sd	a5,-24(s0)
.L113:
	.loc 1 866 49 discriminator 1
	lla	a5,mMacDeviceList
	ld	a5,0(a5)
	.loc 1 866 33 discriminator 1
	ld	a4,-24(s0)
	bltu	a4,a5,.L115
	.loc 1 872 5
	li	a5,4096
	addi	a0,a5,2
	call	CreateDeviceManagerForm
	j	.L116
.L112:
	.loc 1 873 13
	lhu	a5,-50(s0)
	sext.w	a4,a5
	li	a5,16384
	addi	a5,a5,-1
	bne	a4,a5,.L116
	.loc 1 874 5
	li	a5,4096
	addi	a0,a5,1
	call	CreateDeviceManagerForm
.L116:
	.loc 1 877 10
	li	a5,0
.L109:
	.loc 1 878 1
	mv	a0,a5
	ld	ra,72(sp)
	.cfi_restore 1
	ld	s0,64(sp)
	.cfi_restore 8
	.cfi_def_cfa 2, 80
	addi	sp,sp,80
	.cfi_def_cfa_offset 0
	jr	ra
	.cfi_endproc
.LFE8:
	.size	DeviceManagerCallback, .-DeviceManagerCallback
	.section	.text.DeviceManagerUiLibConstructor,"ax",@progbits
	.align	1
	.globl	DeviceManagerUiLibConstructor
	.type	DeviceManagerUiLibConstructor, @function
DeviceManagerUiLibConstructor:
.LFB9:
	.loc 1 896 1
	.cfi_startproc
	addi	sp,sp,-48
	.cfi_def_cfa_offset 48
	sd	ra,40(sp)
	sd	s0,32(sp)
	.cfi_offset 1, -8
	.cfi_offset 8, -16
	addi	s0,sp,48
	.cfi_def_cfa 8, 0
	sd	a0,-40(s0)
	sd	a1,-48(s0)
	.loc 1 899 38
	lla	a5,gDeviceManagerPrivate
	sd	zero,16(a5)
	.loc 1 900 15
	la	a5,gBS
	ld	a5,0(a5)
	ld	a6,328(a5)
	.loc 1 900 12
	li	a5,0
	lla	a4,gDeviceManagerPrivate+24
	la	a3,gEfiHiiConfigAccessProtocolGuid
	lla	a2,mDeviceManagerHiiVendorDevicePath
	la	a1,gEfiDevicePathProtocolGuid
	lla	a0,gDeviceManagerPrivate+16
	jalr	a6
.LVL6:
	sd	a0,-24(s0)
	.loc 1 913 37
	lla	a5,gDeviceManagerPrivate
	ld	a5,16(a5)
	li	a4,0
	la	a3,DeviceManagerUiLibStrings
	la	a2,DeviceManagerVfrBin
	mv	a1,a5
	lla	a0,mDeviceManagerGuid
	call	HiiAddPackages@plt
	mv	a4,a0
	.loc 1 913 35 discriminator 1
	lla	a5,gDeviceManagerPrivate
	sd	a4,8(a5)
	.loc 1 927 3
	call	EfiBootManagerConnectAll@plt
	.loc 1 932 3
	li	a0,4096
	call	CreateDeviceManagerForm
	.loc 1 934 10
	li	a5,0
	.loc 1 935 1
	mv	a0,a5
	ld	ra,40(sp)
	.cfi_restore 1
	ld	s0,32(sp)
	.cfi_restore 8
	.cfi_def_cfa 2, 48
	addi	sp,sp,48
	.cfi_def_cfa_offset 0
	jr	ra
	.cfi_endproc
.LFE9:
	.size	DeviceManagerUiLibConstructor, .-DeviceManagerUiLibConstructor
	.section	.text.DeviceManagerUiLibDestructor,"ax",@progbits
	.align	1
	.globl	DeviceManagerUiLibDestructor
	.type	DeviceManagerUiLibDestructor, @function
DeviceManagerUiLibDestructor:
.LFB10:
	.loc 1 951 1
	.cfi_startproc
	addi	sp,sp,-48
	.cfi_def_cfa_offset 48
	sd	ra,40(sp)
	sd	s0,32(sp)
	.cfi_offset 1, -8
	.cfi_offset 8, -16
	addi	s0,sp,48
	.cfi_def_cfa 8, 0
	sd	a0,-40(s0)
	sd	a1,-48(s0)
	.loc 1 954 15
	la	a5,gBS
	ld	a5,0(a5)
	ld	a6,336(a5)
	.loc 1 954 12
	lla	a5,gDeviceManagerPrivate
	ld	a0,16(a5)
	li	a5,0
	lla	a4,gDeviceManagerPrivate+24
	la	a3,gEfiHiiConfigAccessProtocolGuid
	lla	a2,mDeviceManagerHiiVendorDevicePath
	la	a1,gEfiDevicePathProtocolGuid
	jalr	a6
.LVL7:
	sd	a0,-24(s0)
	.loc 1 964 3
	lla	a5,gDeviceManagerPrivate
	ld	a5,8(a5)
	mv	a0,a5
	call	HiiRemovePackages@plt
	.loc 1 966 10
	li	a5,0
	.loc 1 967 1
	mv	a0,a5
	ld	ra,40(sp)
	.cfi_restore 1
	ld	s0,32(sp)
	.cfi_restore 8
	.cfi_def_cfa 2, 48
	addi	sp,sp,48
	.cfi_def_cfa_offset 0
	jr	ra
	.cfi_endproc
.LFE10:
	.size	DeviceManagerUiLibDestructor, .-DeviceManagerUiLibDestructor
	.text
.Letext0:
	.file 2 "/home/kapoagaeming/Downloads/spacemit-image-builder/components/edk2/MdePkg/Include/RiscV64/ProcessorBind.h"
	.file 3 "/home/kapoagaeming/Downloads/spacemit-image-builder/components/edk2/MdePkg/Include/Base.h"
	.file 4 "/home/kapoagaeming/Downloads/spacemit-image-builder/components/edk2/MdePkg/Include/Uefi/UefiBaseType.h"
	.file 5 "/home/kapoagaeming/Downloads/spacemit-image-builder/components/edk2/MdePkg/Include/Uefi/UefiMultiPhase.h"
	.file 6 "/home/kapoagaeming/Downloads/spacemit-image-builder/components/edk2/MdePkg/Include/Protocol/DevicePath.h"
	.file 7 "/home/kapoagaeming/Downloads/spacemit-image-builder/components/edk2/MdePkg/Include/Protocol/SimpleTextIn.h"
	.file 8 "/home/kapoagaeming/Downloads/spacemit-image-builder/components/edk2/MdePkg/Include/Protocol/SimpleTextOut.h"
	.file 9 "/home/kapoagaeming/Downloads/spacemit-image-builder/components/edk2/MdePkg/Include/Uefi/UefiSpec.h"
	.file 10 "/home/kapoagaeming/Downloads/spacemit-image-builder/components/edk2/MdePkg/Include/Uefi/UefiInternalFormRepresentation.h"
	.file 11 "/home/kapoagaeming/Downloads/spacemit-image-builder/components/Build/Milk-V-Jupiter/RELEASE_GCC5/RISCV64/MdeModulePkg/Library/DeviceManagerUiLib/DeviceManagerUiLib/DEBUG/AutoGen.h"
	.file 12 "/home/kapoagaeming/Downloads/spacemit-image-builder/components/Build/Milk-V-Jupiter/RELEASE_GCC5/RISCV64/MdeModulePkg/Library/DeviceManagerUiLib/DeviceManagerUiLib/DEBUG/DeviceManagerUiLibStrDefs.h"
	.file 13 "/home/kapoagaeming/Downloads/spacemit-image-builder/components/edk2/MdeModulePkg/Include/Guid/MdeModuleHii.h"
	.file 14 "/home/kapoagaeming/Downloads/spacemit-image-builder/components/edk2/MdePkg/Include/Protocol/FormBrowser2.h"
	.file 15 "/home/kapoagaeming/Downloads/spacemit-image-builder/components/edk2/MdePkg/Include/Protocol/HiiConfigAccess.h"
	.file 16 "/home/kapoagaeming/Downloads/spacemit-image-builder/components/edk2/MdePkg/Include/Protocol/PciIo.h"
	.file 17 "/home/kapoagaeming/Downloads/spacemit-image-builder/components/edk2/MdePkg/Include/Protocol/HiiDatabase.h"
	.file 18 "/home/kapoagaeming/Downloads/spacemit-image-builder/components/edk2/MdeModulePkg/Include/Library/UefiHiiServicesLib.h"
	.file 19 "/home/kapoagaeming/Downloads/spacemit-image-builder/components/edk2/MdeModulePkg/Library/DeviceManagerUiLib/DeviceManager.h"
	.file 20 "/home/kapoagaeming/Downloads/spacemit-image-builder/components/edk2/MdeModulePkg/Include/Library/HiiLib.h"
	.file 21 "/home/kapoagaeming/Downloads/spacemit-image-builder/components/edk2/MdePkg/Include/Library/BaseMemoryLib.h"
	.file 22 "/home/kapoagaeming/Downloads/spacemit-image-builder/components/edk2/MdePkg/Include/Library/PrintLib.h"
	.file 23 "/home/kapoagaeming/Downloads/spacemit-image-builder/components/edk2/MdePkg/Include/Library/BaseLib.h"
	.file 24 "/home/kapoagaeming/Downloads/spacemit-image-builder/components/edk2/MdePkg/Include/Library/MemoryAllocationLib.h"
	.file 25 "/home/kapoagaeming/Downloads/spacemit-image-builder/components/edk2/MdePkg/Include/Library/DevicePathLib.h"
	.file 26 "/home/kapoagaeming/Downloads/spacemit-image-builder/components/edk2/MdePkg/Include/Library/UefiBootServicesTableLib.h"
	.file 27 "/home/kapoagaeming/Downloads/spacemit-image-builder/components/edk2/MdeModulePkg/Include/Library/UefiBootManagerLib.h"
	.section	.note.GNU-stack,"",@progbits
