	.file	"UefiLibPrint.c"
	.option pic
	.option norelax
	.attribute arch, "rv64i2p1_m2p0_a2p1_f2p2_d2p2_c2p0_zicsr2p0_zifencei2p0_zmmul1p0_zaamo1p0_zalrsc1p0_zca1p0_zcd1p0"
	.attribute unaligned_access, 0
	.attribute stack_align, 16
	.text
.Ltext0:
	.cfi_sections	.debug_frame
	.file 0 "/home/kapoagaeming/spacemit-image-builder/components/Build/Milk-V-Jupiter/RELEASE_GCC5/RISCV64/MdePkg/Library/UefiLib/UefiLib" "/home/kapoagaeming/spacemit-image-builder/components/edk2/MdePkg/Library/UefiLib/UefiLibPrint.c"
	.globl	mEfiColors
	.section	.data.mEfiColors,"aw"
	.align	3
	.type	mEfiColors, @object
	.size	mEfiColors, 64
mEfiColors:
	.byte	0
	.byte	0
	.byte	0
	.byte	0
	.byte	-104
	.byte	0
	.byte	0
	.byte	0
	.byte	0
	.byte	-104
	.byte	0
	.byte	0
	.byte	-104
	.byte	-104
	.byte	0
	.byte	0
	.byte	0
	.byte	0
	.byte	-104
	.byte	0
	.byte	-104
	.byte	0
	.byte	-104
	.byte	0
	.byte	0
	.byte	-104
	.byte	-104
	.byte	0
	.byte	-104
	.byte	-104
	.byte	-104
	.byte	0
	.byte	16
	.byte	16
	.byte	16
	.byte	0
	.byte	-1
	.byte	16
	.byte	16
	.byte	0
	.byte	16
	.byte	-1
	.byte	16
	.byte	0
	.byte	-1
	.byte	-1
	.byte	16
	.byte	0
	.byte	16
	.byte	16
	.byte	-1
	.byte	0
	.byte	-16
	.byte	16
	.byte	-1
	.byte	0
	.byte	16
	.byte	-1
	.byte	-1
	.byte	0
	.byte	-1
	.byte	-1
	.byte	-1
	.byte	0
	.section	.text.InternalPrint,"ax",@progbits
	.align	1
	.globl	InternalPrint
	.type	InternalPrint, @function
InternalPrint:
.LFB0:
	.file 1 "/home/kapoagaeming/spacemit-image-builder/components/edk2/MdePkg/Library/UefiLib/UefiLibPrint.c"
	.loc 1 55 1
	.cfi_startproc
	addi	sp,sp,-80
	.cfi_def_cfa_offset 80
	sd	ra,72(sp)
	sd	s0,64(sp)
	.cfi_offset 1, -8
	.cfi_offset 8, -16
	addi	s0,sp,80
	.cfi_def_cfa 8, 0
	sd	a0,-56(s0)
	sd	a1,-64(s0)
	sd	a2,-72(s0)
	.loc 1 65 65
	la	a5,_gPcd_FixedAtBuild_PcdUefiLibMaxPrintBufferSize
	lw	a5,0(a5)
	addiw	a5,a5,1
	sext.w	a5,a5
	slli	a5,a5,32
	srli	a5,a5,32
	.loc 1 65 14
	slli	a5,a5,1
	sd	a5,-32(s0)
	.loc 1 67 22
	ld	a0,-32(s0)
	call	AllocatePool@plt
	sd	a0,-40(s0)
	.loc 1 69 6
	ld	a5,-40(s0)
	bne	a5,zero,.L2
	.loc 1 71 12
	li	a5,0
	j	.L3
.L2:
	.loc 1 74 12
	ld	a3,-72(s0)
	ld	a2,-56(s0)
	ld	a1,-32(s0)
	ld	a0,-40(s0)
	call	UnicodeVSPrint@plt
	sd	a0,-24(s0)
	.loc 1 76 6
	ld	a5,-64(s0)
	beq	a5,zero,.L4
	.loc 1 76 33 discriminator 1
	ld	a5,-24(s0)
	beq	a5,zero,.L4
	.loc 1 80 21
	ld	a5,-64(s0)
	ld	a5,8(a5)
	.loc 1 80 14
	ld	a1,-40(s0)
	ld	a0,-64(s0)
	jalr	a5
.LVL0:
	sd	a0,-48(s0)
	.loc 1 81 36
	ld	a5,-48(s0)
	.loc 1 81 8
	bge	a5,zero,.L4
	.loc 1 82 14
	sd	zero,-24(s0)
.L4:
	.loc 1 86 3
	ld	a0,-40(s0)
	call	FreePool@plt
	.loc 1 88 10
	ld	a5,-24(s0)
.L3:
	.loc 1 89 1
	mv	a0,a5
	ld	ra,72(sp)
	.cfi_restore 1
	ld	s0,64(sp)
	.cfi_restore 8
	.cfi_def_cfa 2, 80
	addi	sp,sp,80
	.cfi_def_cfa_offset 0
	jr	ra
	.cfi_endproc
.LFE0:
	.size	InternalPrint, .-InternalPrint
	.section	.text.Print,"ax",@progbits
	.align	1
	.globl	Print
	.type	Print, @function
Print:
.LFB1:
	.loc 1 117 1
	.cfi_startproc
	addi	sp,sp,-112
	.cfi_def_cfa_offset 112
	sd	ra,40(sp)
	sd	s0,32(sp)
	.cfi_offset 1, -72
	.cfi_offset 8, -80
	addi	s0,sp,48
	.cfi_def_cfa 8, 64
	sd	a0,-40(s0)
	sd	a1,8(s0)
	sd	a2,16(s0)
	sd	a3,24(s0)
	sd	a4,32(s0)
	sd	a5,40(s0)
	sd	a6,48(s0)
	sd	a7,56(s0)
	.loc 1 121 3
	addi	a5,s0,64
	sd	a5,-48(s0)
	ld	a5,-48(s0)
	addi	a5,a5,-56
	sd	a5,-32(s0)
	.loc 1 123 38
	la	a5,gST
	ld	a5,0(a5)
	.loc 1 123 12
	ld	a5,64(a5)
	ld	a4,-32(s0)
	mv	a2,a4
	mv	a1,a5
	ld	a0,-40(s0)
	call	InternalPrint
	sd	a0,-24(s0)
	.loc 1 127 10
	ld	a5,-24(s0)
	.loc 1 128 1
	mv	a0,a5
	ld	ra,40(sp)
	.cfi_restore 1
	ld	s0,32(sp)
	.cfi_restore 8
	.cfi_def_cfa 2, 112
	addi	sp,sp,112
	.cfi_def_cfa_offset 0
	jr	ra
	.cfi_endproc
.LFE1:
	.size	Print, .-Print
	.section	.text.ErrorPrint,"ax",@progbits
	.align	1
	.globl	ErrorPrint
	.type	ErrorPrint, @function
ErrorPrint:
.LFB2:
	.loc 1 156 1
	.cfi_startproc
	addi	sp,sp,-112
	.cfi_def_cfa_offset 112
	sd	ra,40(sp)
	sd	s0,32(sp)
	.cfi_offset 1, -72
	.cfi_offset 8, -80
	addi	s0,sp,48
	.cfi_def_cfa 8, 64
	sd	a0,-40(s0)
	sd	a1,8(s0)
	sd	a2,16(s0)
	sd	a3,24(s0)
	sd	a4,32(s0)
	sd	a5,40(s0)
	sd	a6,48(s0)
	sd	a7,56(s0)
	.loc 1 160 3
	addi	a5,s0,64
	sd	a5,-48(s0)
	ld	a5,-48(s0)
	addi	a5,a5,-56
	sd	a5,-32(s0)
	.loc 1 162 38
	la	a5,gST
	ld	a5,0(a5)
	.loc 1 162 12
	ld	a5,80(a5)
	ld	a4,-32(s0)
	mv	a2,a4
	mv	a1,a5
	ld	a0,-40(s0)
	call	InternalPrint
	sd	a0,-24(s0)
	.loc 1 166 10
	ld	a5,-24(s0)
	.loc 1 167 1
	mv	a0,a5
	ld	ra,40(sp)
	.cfi_restore 1
	ld	s0,32(sp)
	.cfi_restore 8
	.cfi_def_cfa 2, 112
	addi	sp,sp,112
	.cfi_def_cfa_offset 0
	jr	ra
	.cfi_endproc
.LFE2:
	.size	ErrorPrint, .-ErrorPrint
	.section	.text.AsciiInternalPrint,"ax",@progbits
	.align	1
	.globl	AsciiInternalPrint
	.type	AsciiInternalPrint, @function
AsciiInternalPrint:
.LFB3:
	.loc 1 194 1
	.cfi_startproc
	addi	sp,sp,-80
	.cfi_def_cfa_offset 80
	sd	ra,72(sp)
	sd	s0,64(sp)
	.cfi_offset 1, -8
	.cfi_offset 8, -16
	addi	s0,sp,80
	.cfi_def_cfa 8, 0
	sd	a0,-56(s0)
	sd	a1,-64(s0)
	sd	a2,-72(s0)
	.loc 1 203 65
	la	a5,_gPcd_FixedAtBuild_PcdUefiLibMaxPrintBufferSize
	lw	a5,0(a5)
	addiw	a5,a5,1
	sext.w	a5,a5
	slli	a5,a5,32
	srli	a5,a5,32
	.loc 1 203 14
	slli	a5,a5,1
	sd	a5,-32(s0)
	.loc 1 205 22
	ld	a0,-32(s0)
	call	AllocatePool@plt
	sd	a0,-40(s0)
	.loc 1 207 6
	ld	a5,-40(s0)
	bne	a5,zero,.L10
	.loc 1 209 12
	li	a5,0
	j	.L11
.L10:
	.loc 1 212 12
	ld	a3,-72(s0)
	ld	a2,-56(s0)
	ld	a1,-32(s0)
	ld	a0,-40(s0)
	call	UnicodeVSPrintAsciiFormat@plt
	sd	a0,-24(s0)
	.loc 1 214 6
	ld	a5,-64(s0)
	beq	a5,zero,.L12
	.loc 1 218 21
	ld	a5,-64(s0)
	ld	a5,8(a5)
	.loc 1 218 14
	ld	a1,-40(s0)
	ld	a0,-64(s0)
	jalr	a5
.LVL1:
	sd	a0,-48(s0)
	.loc 1 219 36
	ld	a5,-48(s0)
	.loc 1 219 8
	bge	a5,zero,.L12
	.loc 1 220 14
	sd	zero,-24(s0)
.L12:
	.loc 1 224 3
	ld	a0,-40(s0)
	call	FreePool@plt
	.loc 1 226 10
	ld	a5,-24(s0)
.L11:
	.loc 1 227 1
	mv	a0,a5
	ld	ra,72(sp)
	.cfi_restore 1
	ld	s0,64(sp)
	.cfi_restore 8
	.cfi_def_cfa 2, 80
	addi	sp,sp,80
	.cfi_def_cfa_offset 0
	jr	ra
	.cfi_endproc
.LFE3:
	.size	AsciiInternalPrint, .-AsciiInternalPrint
	.section	.text.AsciiPrint,"ax",@progbits
	.align	1
	.globl	AsciiPrint
	.type	AsciiPrint, @function
AsciiPrint:
.LFB4:
	.loc 1 254 1
	.cfi_startproc
	addi	sp,sp,-112
	.cfi_def_cfa_offset 112
	sd	ra,40(sp)
	sd	s0,32(sp)
	.cfi_offset 1, -72
	.cfi_offset 8, -80
	addi	s0,sp,48
	.cfi_def_cfa 8, 64
	sd	a0,-40(s0)
	sd	a1,8(s0)
	sd	a2,16(s0)
	sd	a3,24(s0)
	sd	a4,32(s0)
	sd	a5,40(s0)
	sd	a6,48(s0)
	sd	a7,56(s0)
	.loc 1 260 3
	addi	a5,s0,64
	sd	a5,-48(s0)
	ld	a5,-48(s0)
	addi	a5,a5,-56
	sd	a5,-32(s0)
	.loc 1 262 43
	la	a5,gST
	ld	a5,0(a5)
	.loc 1 262 12
	ld	a5,64(a5)
	ld	a4,-32(s0)
	mv	a2,a4
	mv	a1,a5
	ld	a0,-40(s0)
	call	AsciiInternalPrint
	sd	a0,-24(s0)
	.loc 1 266 10
	ld	a5,-24(s0)
	.loc 1 267 1
	mv	a0,a5
	ld	ra,40(sp)
	.cfi_restore 1
	ld	s0,32(sp)
	.cfi_restore 8
	.cfi_def_cfa 2, 112
	addi	sp,sp,112
	.cfi_def_cfa_offset 0
	jr	ra
	.cfi_endproc
.LFE4:
	.size	AsciiPrint, .-AsciiPrint
	.section	.text.AsciiErrorPrint,"ax",@progbits
	.align	1
	.globl	AsciiErrorPrint
	.type	AsciiErrorPrint, @function
AsciiErrorPrint:
.LFB5:
	.loc 1 294 1
	.cfi_startproc
	addi	sp,sp,-112
	.cfi_def_cfa_offset 112
	sd	ra,40(sp)
	sd	s0,32(sp)
	.cfi_offset 1, -72
	.cfi_offset 8, -80
	addi	s0,sp,48
	.cfi_def_cfa 8, 64
	sd	a0,-40(s0)
	sd	a1,8(s0)
	sd	a2,16(s0)
	sd	a3,24(s0)
	sd	a4,32(s0)
	sd	a5,40(s0)
	sd	a6,48(s0)
	sd	a7,56(s0)
	.loc 1 300 3
	addi	a5,s0,64
	sd	a5,-48(s0)
	ld	a5,-48(s0)
	addi	a5,a5,-56
	sd	a5,-32(s0)
	.loc 1 302 43
	la	a5,gST
	ld	a5,0(a5)
	.loc 1 302 12
	ld	a5,80(a5)
	ld	a4,-32(s0)
	mv	a2,a4
	mv	a1,a5
	ld	a0,-40(s0)
	call	AsciiInternalPrint
	sd	a0,-24(s0)
	.loc 1 306 10
	ld	a5,-24(s0)
	.loc 1 307 1
	mv	a0,a5
	ld	ra,40(sp)
	.cfi_restore 1
	ld	s0,32(sp)
	.cfi_restore 8
	.cfi_def_cfa 2, 112
	addi	sp,sp,112
	.cfi_def_cfa_offset 0
	jr	ra
	.cfi_endproc
.LFE5:
	.size	AsciiErrorPrint, .-AsciiErrorPrint
	.section	.text.InternalPrintGraphic,"ax",@progbits
	.align	1
	.globl	InternalPrintGraphic
	.type	InternalPrintGraphic, @function
InternalPrintGraphic:
.LFB6:
	.loc 1 351 1
	.cfi_startproc
	addi	sp,sp,-240
	.cfi_def_cfa_offset 240
	sd	ra,232(sp)
	sd	s0,224(sp)
	sd	s1,216(sp)
	.cfi_offset 1, -8
	.cfi_offset 8, -16
	.cfi_offset 9, -24
	addi	s0,sp,240
	.cfi_def_cfa 8, 0
	sd	a0,-184(s0)
	sd	a1,-192(s0)
	sd	a2,-200(s0)
	sd	a3,-208(s0)
	sd	a4,-216(s0)
	sd	a5,-224(s0)
	.loc 1 370 24
	sw	zero,-76(s0)
	.loc 1 371 22
	sw	zero,-80(s0)
	.loc 1 372 7
	sd	zero,-104(s0)
	.loc 1 373 16
	sd	zero,-136(s0)
	.loc 1 375 22
	la	a5,gST
	ld	a5,0(a5)
	.loc 1 375 17
	ld	a5,56(a5)
	sd	a5,-72(s0)
	.loc 1 379 15
	la	a5,gBS
	ld	a5,0(a5)
	ld	a5,152(a5)
	.loc 1 379 12
	addi	a4,s0,-152
	mv	a2,a4
	la	a1,gEfiGraphicsOutputProtocolGuid
	ld	a0,-72(s0)
	jalr	a5
.LVL2:
	sd	a0,-40(s0)
	.loc 1 385 11
	sd	zero,-160(s0)
	.loc 1 386 34
	ld	a5,-40(s0)
	.loc 1 386 6
	bge	a5,zero,.L18
	.loc 1 386 60 discriminator 1
	la	a5,_gPcd_FixedAtBuild_PcdUgaConsumeSupport
	lbu	a5,0(a5)
	beq	a5,zero,.L18
	.loc 1 390 20
	sd	zero,-152(s0)
	.loc 1 392 17
	la	a5,gBS
	ld	a5,0(a5)
	ld	a5,152(a5)
	.loc 1 392 14
	addi	a4,s0,-160
	mv	a2,a4
	la	a1,gEfiUgaDrawProtocolGuid
	ld	a0,-72(s0)
	jalr	a5
.LVL3:
	sd	a0,-40(s0)
.L18:
	.loc 1 399 34
	ld	a5,-40(s0)
	.loc 1 399 6
	blt	a5,zero,.L44
	.loc 1 403 15
	la	a5,gBS
	ld	a5,0(a5)
	ld	a5,152(a5)
	.loc 1 403 12
	addi	a4,s0,-168
	mv	a2,a4
	la	a1,gEfiSimpleTextOutProtocolGuid
	ld	a0,-72(s0)
	jalr	a5
.LVL4:
	sd	a0,-40(s0)
	.loc 1 409 34
	ld	a5,-40(s0)
	.loc 1 409 6
	blt	a5,zero,.L45
	.loc 1 413 22
	ld	a5,-152(s0)
	.loc 1 413 6
	beq	a5,zero,.L22
	.loc 1 414 42
	ld	a5,-152(s0)
	ld	a5,24(a5)
	.loc 1 414 48
	ld	a5,8(a5)
	.loc 1 414 54
	lw	a5,4(a5)
	.loc 1 414 26
	sw	a5,-76(s0)
	.loc 1 415 40
	ld	a5,-152(s0)
	ld	a5,24(a5)
	.loc 1 415 46
	ld	a5,8(a5)
	.loc 1 415 52
	lw	a5,8(a5)
	.loc 1 415 24
	sw	a5,-80(s0)
	j	.L23
.L22:
	.loc 1 416 23
	ld	a5,-160(s0)
	.loc 1 416 13
	beq	a5,zero,.L46
	.loc 1 416 40 discriminator 1
	la	a5,_gPcd_FixedAtBuild_PcdUgaConsumeSupport
	lbu	a5,0(a5)
	beq	a5,zero,.L46
	.loc 1 417 12
	ld	a5,-160(s0)
	ld	a5,0(a5)
	.loc 1 417 5
	ld	a0,-160(s0)
	addi	a4,s0,-88
	addi	a3,s0,-84
	addi	a2,s0,-80
	addi	a1,s0,-76
	jalr	a5
.LVL5:
.L23:
	.loc 1 424 15
	la	a5,gBS
	ld	a5,0(a5)
	ld	a5,320(a5)
	.loc 1 424 12
	addi	a4,s0,-96
	mv	a2,a4
	li	a1,0
	la	a0,gEfiHiiFontProtocolGuid
	jalr	a5
.LVL6:
	sd	a0,-40(s0)
	.loc 1 425 34
	ld	a5,-40(s0)
	.loc 1 425 6
	blt	a5,zero,.L47
	.loc 1 429 29
	li	a0,16
	call	AllocateZeroPool@plt
	mv	a5,a0
	.loc 1 429 7 discriminator 1
	sd	a5,-104(s0)
	.loc 1 431 11
	ld	a5,-104(s0)
	.loc 1 431 6
	beq	a5,zero,.L48
	.loc 1 436 16
	lw	a4,-76(s0)
	.loc 1 436 6
	ld	a5,-104(s0)
	.loc 1 436 16
	slli	a4,a4,48
	srli	a4,a4,48
	.loc 1 436 14
	sh	a4,0(a5)
	.loc 1 437 17
	lw	a4,-80(s0)
	.loc 1 437 6
	ld	a5,-104(s0)
	.loc 1 437 17
	slli	a4,a4,48
	srli	a4,a4,48
	.loc 1 437 15
	sh	a4,2(a5)
	.loc 1 439 3
	addi	a5,s0,-128
	li	a1,20
	mv	a0,a5
	call	ZeroMem@plt
	.loc 1 441 6
	ld	a5,-200(s0)
	beq	a5,zero,.L27
	.loc 1 442 5
	addi	a5,s0,-128
	li	a2,4
	ld	a1,-200(s0)
	mv	a0,a5
	call	CopyMem@plt
	j	.L28
.L27:
	.loc 1 446 22
	ld	a5,-168(s0)
	ld	a5,72(a5)
	.loc 1 446 28
	lw	a5,8(a5)
	.loc 1 446 40
	andi	a5,a5,15
	sext.w	a5,a5
	.loc 1 446 7
	slli	a4,a5,2
	lla	a5,mEfiColors
	add	a4,a4,a5
	.loc 1 444 5
	addi	a5,s0,-128
	li	a2,4
	mv	a1,a4
	mv	a0,a5
	call	CopyMem@plt
.L28:
	.loc 1 451 6
	ld	a5,-208(s0)
	beq	a5,zero,.L29
	.loc 1 452 5
	addi	a5,s0,-128
	addi	a5,a5,4
	li	a2,4
	ld	a1,-208(s0)
	mv	a0,a5
	call	CopyMem@plt
	j	.L30
.L29:
	.loc 1 456 22
	ld	a5,-168(s0)
	ld	a5,72(a5)
	.loc 1 456 28
	lw	a5,8(a5)
	.loc 1 456 40
	sraiw	a5,a5,4
	sext.w	a5,a5
	.loc 1 456 7
	slli	a4,a5,2
	lla	a5,mEfiColors
	add	a4,a4,a5
	.loc 1 454 5
	addi	a5,s0,-128
	addi	a5,a5,4
	li	a2,4
	mv	a1,a4
	mv	a0,a5
	call	CopyMem@plt
.L30:
	.loc 1 461 22
	ld	a5,-152(s0)
	.loc 1 461 6
	beq	a5,zero,.L31
	.loc 1 462 8
	ld	a5,-104(s0)
	.loc 1 462 23
	ld	a4,-152(s0)
	sd	a4,8(a5)
	.loc 1 464 21
	ld	a5,-96(s0)
	ld	t1,0(a5)
	.loc 1 464 14
	ld	a0,-96(s0)
	addi	a2,s0,-136
	addi	a4,s0,-104
	addi	a3,s0,-128
	sd	zero,8(sp)
	addi	a5,s0,-144
	sd	a5,0(sp)
	mv	a7,a2
	ld	a6,-192(s0)
	ld	a5,-184(s0)
	ld	a2,-216(s0)
	li	a1,237
	jalr	t1
.LVL7:
	sd	a0,-40(s0)
	.loc 1 478 36
	ld	a5,-40(s0)
	.loc 1 478 8
	bge	a5,zero,.L32
	.loc 1 479 7
	j	.L20
.L31:
	.loc 1 481 14
	la	a5,_gPcd_FixedAtBuild_PcdUgaConsumeSupport
	lbu	a5,0(a5)
	.loc 1 481 13
	beq	a5,zero,.L49
	.loc 1 487 12
	ld	a5,-104(s0)
	lhu	a5,0(a5)
	mv	s1,a5
	.loc 1 487 68
	ld	a5,-104(s0)
	lhu	a5,2(a5)
	sext.w	a5,a5
	.loc 1 487 22
	slliw	a5,a5,2
	sext.w	a5,a5
	mv	a1,a5
	li	a0,-1
	call	DivU64x32@plt
	mv	a5,a0
	.loc 1 487 8 discriminator 1
	bgtu	s1,a5,.L50
	.loc 1 491 54
	ld	a5,-104(s0)
	lhu	a5,0(a5)
	.loc 1 491 43
	sext.w	a4,a5
	.loc 1 491 67
	ld	a5,-104(s0)
	lhu	a5,2(a5)
	sext.w	a5,a5
	.loc 1 491 62
	mulw	a5,a4,a5
	sext.w	a5,a5
	slli	a5,a5,32
	srli	a5,a5,32
	.loc 1 491 76
	slli	a5,a5,2
	.loc 1 491 8
	ld	s1,-104(s0)
	.loc 1 491 25
	mv	a0,a5
	call	AllocateZeroPool@plt
	mv	a5,a0
	.loc 1 491 23 discriminator 1
	sd	a5,8(s1)
	.loc 1 498 21
	ld	a5,-96(s0)
	ld	t1,0(a5)
	.loc 1 498 14
	ld	a0,-96(s0)
	addi	a2,s0,-136
	addi	a4,s0,-104
	addi	a3,s0,-128
	sd	zero,8(sp)
	addi	a5,s0,-144
	sd	a5,0(sp)
	mv	a7,a2
	ld	a6,-192(s0)
	ld	a5,-184(s0)
	ld	a2,-216(s0)
	li	a1,109
	jalr	t1
.LVL8:
	sd	a0,-40(s0)
	.loc 1 513 9
	ld	a5,-40(s0)
	.loc 1 513 8
	blt	a5,zero,.L51
	.loc 1 521 28
	ld	a5,-144(s0)
	.loc 1 521 10
	beq	a5,zero,.L36
	.loc 1 522 29
	ld	a5,-136(s0)
	.loc 1 522 15
	ld	a5,24(a5)
	sd	a5,-48(s0)
	.loc 1 523 30
	ld	a5,-136(s0)
	.loc 1 523 16
	ld	a5,16(a5)
	sd	a5,-56(s0)
	.loc 1 524 20
	ld	a5,-104(s0)
	lhu	a5,0(a5)
	.loc 1 524 15
	slli	a5,a5,2
	sd	a5,-64(s0)
	j	.L37
.L36:
	.loc 1 526 15
	sd	zero,-48(s0)
	.loc 1 527 16
	sd	zero,-56(s0)
	.loc 1 528 15
	sd	zero,-64(s0)
.L37:
	.loc 1 531 23
	ld	a5,-160(s0)
	ld	t1,16(a5)
	.loc 1 531 16
	ld	a0,-160(s0)
	.loc 1 533 47
	ld	a5,-104(s0)
	.loc 1 533 54
	ld	a1,8(a5)
	.loc 1 531 16
	ld	a5,-64(s0)
	sd	a5,8(sp)
	ld	a5,-56(s0)
	sd	a5,0(sp)
	ld	a7,-48(s0)
	ld	a6,-192(s0)
	ld	a5,-184(s0)
	ld	a4,-192(s0)
	ld	a3,-184(s0)
	li	a2,2
	jalr	t1
.LVL9:
	sd	a0,-40(s0)
	.loc 1 547 18
	ld	a5,-104(s0)
	.loc 1 547 25
	ld	a5,8(a5)
	.loc 1 547 5
	mv	a0,a5
	call	FreePool@plt
.L32:
	.loc 1 555 24
	ld	a5,-144(s0)
	.loc 1 555 6
	beq	a5,zero,.L39
	.loc 1 556 28
	ld	a5,-136(s0)
	.loc 1 556 31
	ld	a4,8(a5)
	.loc 1 556 55
	ld	a5,-136(s0)
	.loc 1 556 58
	ld	a5,0(a5)
	.loc 1 556 41
	sub	a5,a4,a5
	.loc 1 556 14
	addi	a5,a5,1
	sd	a5,-224(s0)
	j	.L40
.L39:
	.loc 1 558 14
	sd	zero,-224(s0)
.L40:
	.loc 1 561 3
	ld	a5,-136(s0)
	mv	a0,a5
	call	FreePool@plt
	.loc 1 562 3
	ld	a5,-104(s0)
	mv	a0,a5
	call	FreePool@plt
	.loc 1 563 10
	ld	a5,-224(s0)
	j	.L43
.L44:
	.loc 1 400 5
	nop
	j	.L20
.L45:
	.loc 1 410 5
	nop
	j	.L20
.L46:
	.loc 1 419 5
	nop
	j	.L20
.L47:
	.loc 1 426 5
	nop
	j	.L20
.L48:
	.loc 1 433 5
	nop
	j	.L20
.L49:
	.loc 1 549 5
	nop
	j	.L20
.L50:
	.loc 1 488 7
	nop
	j	.L20
.L51:
	.loc 1 544 7
	nop
.L20:
	.loc 1 566 11
	ld	a5,-104(s0)
	.loc 1 566 6
	beq	a5,zero,.L42
	.loc 1 567 5
	ld	a5,-104(s0)
	mv	a0,a5
	call	FreePool@plt
.L42:
	.loc 1 570 10
	li	a5,0
.L43:
	.loc 1 571 1
	mv	a0,a5
	ld	ra,232(sp)
	.cfi_restore 1
	ld	s0,224(sp)
	.cfi_restore 8
	.cfi_def_cfa 2, 240
	ld	s1,216(sp)
	.cfi_restore 9
	addi	sp,sp,240
	.cfi_def_cfa_offset 0
	jr	ra
	.cfi_endproc
.LFE6:
	.size	InternalPrintGraphic, .-InternalPrintGraphic
	.section	.text.PrintXY,"ax",@progbits
	.align	1
	.globl	PrintXY
	.type	PrintXY, @function
PrintXY:
.LFB7:
	.loc 1 625 1
	.cfi_startproc
	addi	sp,sp,-144
	.cfi_def_cfa_offset 144
	sd	ra,104(sp)
	sd	s0,96(sp)
	.cfi_offset 1, -40
	.cfi_offset 8, -48
	addi	s0,sp,112
	.cfi_def_cfa 8, 32
	sd	a0,-72(s0)
	sd	a1,-80(s0)
	sd	a2,-88(s0)
	sd	a3,-96(s0)
	sd	a4,-104(s0)
	sd	a5,8(s0)
	sd	a6,16(s0)
	sd	a7,24(s0)
	.loc 1 635 3
	addi	a5,s0,32
	sd	a5,-112(s0)
	ld	a5,-112(s0)
	addi	a5,a5,-24
	sd	a5,-56(s0)
	.loc 1 637 65
	la	a5,_gPcd_FixedAtBuild_PcdUefiLibMaxPrintBufferSize
	lw	a5,0(a5)
	addiw	a5,a5,1
	sext.w	a5,a5
	slli	a5,a5,32
	srli	a5,a5,32
	.loc 1 637 14
	slli	a5,a5,1
	sd	a5,-24(s0)
	.loc 1 639 22
	ld	a0,-24(s0)
	call	AllocatePool@plt
	sd	a0,-32(s0)
	.loc 1 641 6
	ld	a5,-32(s0)
	bne	a5,zero,.L53
	.loc 1 643 12
	li	a5,0
	j	.L55
.L53:
	.loc 1 646 14
	ld	a5,-56(s0)
	mv	a3,a5
	ld	a2,-104(s0)
	ld	a1,-24(s0)
	ld	a0,-32(s0)
	call	UnicodeVSPrint@plt
	sd	a0,-40(s0)
	.loc 1 650 15
	ld	a5,-40(s0)
	ld	a4,-32(s0)
	ld	a3,-96(s0)
	ld	a2,-88(s0)
	ld	a1,-80(s0)
	ld	a0,-72(s0)
	call	InternalPrintGraphic
	sd	a0,-48(s0)
	.loc 1 652 3
	ld	a0,-32(s0)
	call	FreePool@plt
	.loc 1 654 10
	ld	a5,-48(s0)
.L55:
	.loc 1 655 1
	mv	a0,a5
	ld	ra,104(sp)
	.cfi_restore 1
	ld	s0,96(sp)
	.cfi_restore 8
	.cfi_def_cfa 2, 144
	addi	sp,sp,144
	.cfi_def_cfa_offset 0
	jr	ra
	.cfi_endproc
.LFE7:
	.size	PrintXY, .-PrintXY
	.section	.text.AsciiPrintXY,"ax",@progbits
	.align	1
	.globl	AsciiPrintXY
	.type	AsciiPrintXY, @function
AsciiPrintXY:
.LFB8:
	.loc 1 708 1
	.cfi_startproc
	addi	sp,sp,-144
	.cfi_def_cfa_offset 144
	sd	ra,104(sp)
	sd	s0,96(sp)
	.cfi_offset 1, -40
	.cfi_offset 8, -48
	addi	s0,sp,112
	.cfi_def_cfa 8, 32
	sd	a0,-72(s0)
	sd	a1,-80(s0)
	sd	a2,-88(s0)
	sd	a3,-96(s0)
	sd	a4,-104(s0)
	sd	a5,8(s0)
	sd	a6,16(s0)
	sd	a7,24(s0)
	.loc 1 717 3
	addi	a5,s0,32
	sd	a5,-112(s0)
	ld	a5,-112(s0)
	addi	a5,a5,-24
	sd	a5,-56(s0)
	.loc 1 719 65
	la	a5,_gPcd_FixedAtBuild_PcdUefiLibMaxPrintBufferSize
	lw	a5,0(a5)
	addiw	a5,a5,1
	sext.w	a5,a5
	slli	a5,a5,32
	srli	a5,a5,32
	.loc 1 719 14
	slli	a5,a5,1
	sd	a5,-24(s0)
	.loc 1 721 22
	ld	a0,-24(s0)
	call	AllocatePool@plt
	sd	a0,-32(s0)
	.loc 1 723 6
	ld	a5,-32(s0)
	bne	a5,zero,.L57
	.loc 1 725 12
	li	a5,0
	j	.L59
.L57:
	.loc 1 728 14
	ld	a5,-56(s0)
	mv	a3,a5
	ld	a2,-104(s0)
	ld	a1,-24(s0)
	ld	a0,-32(s0)
	call	UnicodeSPrintAsciiFormat@plt
	sd	a0,-40(s0)
	.loc 1 732 15
	ld	a5,-40(s0)
	ld	a4,-32(s0)
	ld	a3,-96(s0)
	ld	a2,-88(s0)
	ld	a1,-80(s0)
	ld	a0,-72(s0)
	call	InternalPrintGraphic
	sd	a0,-48(s0)
	.loc 1 734 3
	ld	a0,-32(s0)
	call	FreePool@plt
	.loc 1 736 10
	ld	a5,-48(s0)
.L59:
	.loc 1 737 1
	mv	a0,a5
	ld	ra,104(sp)
	.cfi_restore 1
	ld	s0,96(sp)
	.cfi_restore 8
	.cfi_def_cfa 2, 144
	addi	sp,sp,144
	.cfi_def_cfa_offset 0
	jr	ra
	.cfi_endproc
.LFE8:
	.size	AsciiPrintXY, .-AsciiPrintXY
	.section	.text.CatVSPrint,"ax",@progbits
	.align	1
	.globl	CatVSPrint
	.type	CatVSPrint, @function
CatVSPrint:
.LFB9:
	.loc 1 767 1
	.cfi_startproc
	addi	sp,sp,-80
	.cfi_def_cfa_offset 80
	sd	ra,72(sp)
	sd	s0,64(sp)
	.cfi_offset 1, -8
	.cfi_offset 8, -16
	addi	s0,sp,80
	.cfi_def_cfa 8, 0
	sd	a0,-56(s0)
	sd	a1,-64(s0)
	sd	a2,-72(s0)
	.loc 1 773 3
	ld	a5,-72(s0)
	sd	a5,-48(s0)
	.loc 1 774 24
	ld	a5,-48(s0)
	mv	a1,a5
	ld	a0,-64(s0)
	call	SPrintLength@plt
	sd	a0,-32(s0)
	.loc 1 777 6
	ld	a5,-56(s0)
	beq	a5,zero,.L61
	.loc 1 778 20
	ld	a0,-56(s0)
	call	StrSize@plt
	mv	a4,a0
	.loc 1 778 59 discriminator 1
	ld	a5,-32(s0)
	slli	a5,a5,1
	.loc 1 778 18 discriminator 1
	add	a5,a4,a5
	sd	a5,-24(s0)
	j	.L62
.L61:
	.loc 1 780 36
	ld	a5,-32(s0)
	addi	a5,a5,1
	.loc 1 780 18
	slli	a5,a5,1
	sd	a5,-24(s0)
.L62:
	.loc 1 783 20
	ld	a0,-24(s0)
	call	AllocatePool@plt
	sd	a0,-40(s0)
	.loc 1 785 6
	ld	a5,-40(s0)
	bne	a5,zero,.L63
	.loc 1 786 12
	li	a5,0
	j	.L66
.L63:
	.loc 1 788 23
	ld	a5,-40(s0)
	sh	zero,0(a5)
	.loc 1 791 6
	ld	a5,-56(s0)
	beq	a5,zero,.L65
	.loc 1 792 43
	ld	a5,-24(s0)
	srli	a5,a5,1
	.loc 1 792 5
	ld	a2,-56(s0)
	mv	a1,a5
	ld	a0,-40(s0)
	call	StrCpyS@plt
.L65:
	.loc 1 795 36
	ld	a0,-40(s0)
	call	StrLen@plt
	mv	a5,a0
	.loc 1 795 34 discriminator 1
	slli	a5,a5,1
	.loc 1 795 3 discriminator 1
	ld	a4,-40(s0)
	add	a4,a4,a5
	.loc 1 795 80 discriminator 1
	ld	a5,-32(s0)
	addi	a5,a5,1
	.loc 1 795 84 discriminator 1
	slli	a5,a5,1
	.loc 1 795 3 discriminator 1
	ld	a3,-72(s0)
	ld	a2,-64(s0)
	mv	a1,a5
	mv	a0,a4
	call	UnicodeVSPrint@plt
	.loc 1 799 10
	ld	a5,-40(s0)
.L66:
	.loc 1 800 1
	mv	a0,a5
	ld	ra,72(sp)
	.cfi_restore 1
	ld	s0,64(sp)
	.cfi_restore 8
	.cfi_def_cfa 2, 80
	addi	sp,sp,80
	.cfi_def_cfa_offset 0
	jr	ra
	.cfi_endproc
.LFE9:
	.size	CatVSPrint, .-CatVSPrint
	.section	.text.CatSPrint,"ax",@progbits
	.align	1
	.globl	CatSPrint
	.type	CatSPrint, @function
CatSPrint:
.LFB10:
	.loc 1 832 1
	.cfi_startproc
	addi	sp,sp,-112
	.cfi_def_cfa_offset 112
	sd	ra,56(sp)
	sd	s0,48(sp)
	.cfi_offset 1, -56
	.cfi_offset 8, -64
	addi	s0,sp,64
	.cfi_def_cfa 8, 48
	sd	a0,-40(s0)
	sd	a1,-48(s0)
	sd	a2,0(s0)
	sd	a3,8(s0)
	sd	a4,16(s0)
	sd	a5,24(s0)
	sd	a6,32(s0)
	sd	a7,40(s0)
	.loc 1 836 3
	addi	a5,s0,48
	sd	a5,-56(s0)
	ld	a5,-56(s0)
	addi	a5,a5,-48
	sd	a5,-32(s0)
	.loc 1 837 15
	ld	a5,-32(s0)
	mv	a2,a5
	ld	a1,-48(s0)
	ld	a0,-40(s0)
	call	CatVSPrint
	sd	a0,-24(s0)
	.loc 1 839 10
	ld	a5,-24(s0)
	.loc 1 840 1
	mv	a0,a5
	ld	ra,56(sp)
	.cfi_restore 1
	ld	s0,48(sp)
	.cfi_restore 8
	.cfi_def_cfa 2, 112
	addi	sp,sp,112
	.cfi_def_cfa_offset 0
	jr	ra
	.cfi_endproc
.LFE10:
	.size	CatSPrint, .-CatSPrint
	.text
.Letext0:
	.file 2 "/home/kapoagaeming/spacemit-image-builder/components/edk2/MdePkg/Include/RiscV64/ProcessorBind.h"
	.file 3 "/home/kapoagaeming/spacemit-image-builder/components/edk2/MdePkg/Include/Base.h"
	.file 4 "/home/kapoagaeming/spacemit-image-builder/components/edk2/MdePkg/Include/Uefi/UefiBaseType.h"
	.file 5 "/home/kapoagaeming/spacemit-image-builder/components/edk2/MdePkg/Include/Uefi/UefiMultiPhase.h"
	.file 6 "/home/kapoagaeming/spacemit-image-builder/components/edk2/MdePkg/Include/Protocol/DevicePath.h"
	.file 7 "/home/kapoagaeming/spacemit-image-builder/components/edk2/MdePkg/Include/Protocol/SimpleTextIn.h"
	.file 8 "/home/kapoagaeming/spacemit-image-builder/components/edk2/MdePkg/Include/Protocol/SimpleTextOut.h"
	.file 9 "/home/kapoagaeming/spacemit-image-builder/components/edk2/MdePkg/Include/Uefi/UefiSpec.h"
	.file 10 "/home/kapoagaeming/spacemit-image-builder/components/edk2/MdePkg/Include/Uefi/UefiInternalFormRepresentation.h"
	.file 11 "/home/kapoagaeming/spacemit-image-builder/components/Build/Milk-V-Jupiter/RELEASE_GCC5/RISCV64/MdePkg/Library/UefiLib/UefiLib/DEBUG/AutoGen.h"
	.file 12 "/home/kapoagaeming/spacemit-image-builder/components/edk2/MdePkg/Include/Protocol/GraphicsOutput.h"
	.file 13 "/home/kapoagaeming/spacemit-image-builder/components/edk2/MdePkg/Include/Protocol/UgaDraw.h"
	.file 14 "/home/kapoagaeming/spacemit-image-builder/components/edk2/MdePkg/Include/Protocol/HiiImage.h"
	.file 15 "/home/kapoagaeming/spacemit-image-builder/components/edk2/MdePkg/Include/Protocol/HiiFont.h"
	.file 16 "/home/kapoagaeming/spacemit-image-builder/components/edk2/MdePkg/Include/Library/UefiBootServicesTableLib.h"
	.file 17 "/home/kapoagaeming/spacemit-image-builder/components/edk2/MdePkg/Include/Library/BaseLib.h"
	.file 18 "/home/kapoagaeming/spacemit-image-builder/components/edk2/MdePkg/Include/Library/PrintLib.h"
	.file 19 "/home/kapoagaeming/spacemit-image-builder/components/edk2/MdePkg/Include/Library/BaseMemoryLib.h"
	.file 20 "/home/kapoagaeming/spacemit-image-builder/components/edk2/MdePkg/Include/Library/MemoryAllocationLib.h"
	.section	.note.GNU-stack,"",@progbits
