	.file	"UefiNotTiano.c"
	.option pic
	.option norelax
	.attribute arch, "rv64i2p1_m2p0_a2p1_f2p2_d2p2_c2p0_zicsr2p0_zifencei2p0_zmmul1p0_zaamo1p0_zalrsc1p0_zca1p0_zcd1p0"
	.attribute unaligned_access, 0
	.attribute stack_align, 16
	.text
.Ltext0:
	.cfi_sections	.debug_frame
	.file 0 "/home/kapoagaeming/spacemit-image-builder/components/Build/Milk-V-Jupiter/RELEASE_GCC5/RISCV64/MdePkg/Library/UefiLib/UefiLib" "/home/kapoagaeming/spacemit-image-builder/components/edk2/MdePkg/Library/UefiLib/UefiNotTiano.c"
	.section	.text.EfiCreateEventLegacyBoot,"ax",@progbits
	.align	1
	.globl	EfiCreateEventLegacyBoot
	.type	EfiCreateEventLegacyBoot, @function
EfiCreateEventLegacyBoot:
.LFB0:
	.file 1 "/home/kapoagaeming/spacemit-image-builder/components/edk2/MdePkg/Library/UefiLib/UefiNotTiano.c"
	.loc 1 38 1
	.cfi_startproc
	addi	sp,sp,-32
	.cfi_def_cfa_offset 32
	sd	ra,24(sp)
	sd	s0,16(sp)
	.cfi_offset 1, -8
	.cfi_offset 8, -16
	addi	s0,sp,32
	.cfi_def_cfa 8, 0
	sd	a0,-24(s0)
	.loc 1 39 10
	ld	a3,-24(s0)
	li	a2,0
	la	a1,EfiEventEmptyFunction
	li	a0,8
	call	EfiCreateEventLegacyBootEx
	mv	a5,a0
	.loc 1 45 1
	mv	a0,a5
	ld	ra,24(sp)
	.cfi_restore 1
	ld	s0,16(sp)
	.cfi_restore 8
	.cfi_def_cfa 2, 32
	addi	sp,sp,32
	.cfi_def_cfa_offset 0
	jr	ra
	.cfi_endproc
.LFE0:
	.size	EfiCreateEventLegacyBoot, .-EfiCreateEventLegacyBoot
	.section	.text.EfiCreateEventLegacyBootEx,"ax",@progbits
	.align	1
	.globl	EfiCreateEventLegacyBootEx
	.type	EfiCreateEventLegacyBootEx, @function
EfiCreateEventLegacyBootEx:
.LFB1:
	.loc 1 74 1
	.cfi_startproc
	addi	sp,sp,-64
	.cfi_def_cfa_offset 64
	sd	ra,56(sp)
	sd	s0,48(sp)
	.cfi_offset 1, -8
	.cfi_offset 8, -16
	addi	s0,sp,64
	.cfi_def_cfa 8, 0
	sd	a0,-40(s0)
	sd	a1,-48(s0)
	sd	a2,-56(s0)
	sd	a3,-64(s0)
	.loc 1 80 10
	la	a5,gST
	ld	a5,0(a5)
	.loc 1 80 15
	lw	a4,8(a5)
	.loc 1 80 6
	li	a5,131072
	bgeu	a4,a5,.L4
	.loc 1 84 12
	li	a5,-1
	slli	a5,a5,63
	addi	a5,a5,3
	j	.L5
.L4:
	.loc 1 89 8
	ld	a5,-48(s0)
	bne	a5,zero,.L6
	.loc 1 94 28
	la	a5,EfiEventEmptyFunction
	sd	a5,-24(s0)
	j	.L7
.L6:
	.loc 1 96 28
	ld	a5,-48(s0)
	sd	a5,-24(s0)
.L7:
	.loc 1 99 17
	la	a5,gBS
	ld	a5,0(a5)
	ld	a6,368(a5)
	.loc 1 99 14
	ld	a5,-64(s0)
	la	a4,gEfiEventLegacyBootGuid
	ld	a3,-56(s0)
	ld	a2,-24(s0)
	ld	a1,-40(s0)
	li	a0,512
	jalr	a6
.LVL0:
	sd	a0,-32(s0)
	.loc 1 109 10
	ld	a5,-32(s0)
.L5:
	.loc 1 110 1
	mv	a0,a5
	ld	ra,56(sp)
	.cfi_restore 1
	ld	s0,48(sp)
	.cfi_restore 8
	.cfi_def_cfa 2, 64
	addi	sp,sp,64
	.cfi_def_cfa_offset 0
	jr	ra
	.cfi_endproc
.LFE1:
	.size	EfiCreateEventLegacyBootEx, .-EfiCreateEventLegacyBootEx
	.section	.text.EfiCreateEventReadyToBoot,"ax",@progbits
	.align	1
	.globl	EfiCreateEventReadyToBoot
	.type	EfiCreateEventReadyToBoot, @function
EfiCreateEventReadyToBoot:
.LFB2:
	.loc 1 134 1
	.cfi_startproc
	addi	sp,sp,-32
	.cfi_def_cfa_offset 32
	sd	ra,24(sp)
	sd	s0,16(sp)
	.cfi_offset 1, -8
	.cfi_offset 8, -16
	addi	s0,sp,32
	.cfi_def_cfa 8, 0
	sd	a0,-24(s0)
	.loc 1 135 10
	ld	a3,-24(s0)
	li	a2,0
	la	a1,EfiEventEmptyFunction
	li	a0,8
	call	EfiCreateEventReadyToBootEx
	mv	a5,a0
	.loc 1 141 1
	mv	a0,a5
	ld	ra,24(sp)
	.cfi_restore 1
	ld	s0,16(sp)
	.cfi_restore 8
	.cfi_def_cfa 2, 32
	addi	sp,sp,32
	.cfi_def_cfa_offset 0
	jr	ra
	.cfi_endproc
.LFE2:
	.size	EfiCreateEventReadyToBoot, .-EfiCreateEventReadyToBoot
	.section	.text.EfiCreateEventReadyToBootEx,"ax",@progbits
	.align	1
	.globl	EfiCreateEventReadyToBootEx
	.type	EfiCreateEventReadyToBootEx, @function
EfiCreateEventReadyToBootEx:
.LFB3:
	.loc 1 170 1
	.cfi_startproc
	addi	sp,sp,-64
	.cfi_def_cfa_offset 64
	sd	ra,56(sp)
	sd	s0,48(sp)
	.cfi_offset 1, -8
	.cfi_offset 8, -16
	addi	s0,sp,64
	.cfi_def_cfa 8, 0
	sd	a0,-40(s0)
	sd	a1,-48(s0)
	sd	a2,-56(s0)
	sd	a3,-64(s0)
	.loc 1 176 10
	la	a5,gST
	ld	a5,0(a5)
	.loc 1 176 15
	lw	a4,8(a5)
	.loc 1 176 6
	li	a5,131072
	bgeu	a4,a5,.L11
	.loc 1 180 12
	li	a5,-1
	slli	a5,a5,63
	addi	a5,a5,3
	j	.L12
.L11:
	.loc 1 185 8
	ld	a5,-48(s0)
	bne	a5,zero,.L13
	.loc 1 190 28
	la	a5,EfiEventEmptyFunction
	sd	a5,-24(s0)
	j	.L14
.L13:
	.loc 1 192 28
	ld	a5,-48(s0)
	sd	a5,-24(s0)
.L14:
	.loc 1 195 17
	la	a5,gBS
	ld	a5,0(a5)
	ld	a6,368(a5)
	.loc 1 195 14
	ld	a5,-64(s0)
	la	a4,gEfiEventReadyToBootGuid
	ld	a3,-56(s0)
	ld	a2,-24(s0)
	ld	a1,-40(s0)
	li	a0,512
	jalr	a6
.LVL1:
	sd	a0,-32(s0)
	.loc 1 205 10
	ld	a5,-32(s0)
.L12:
	.loc 1 206 1
	mv	a0,a5
	ld	ra,56(sp)
	.cfi_restore 1
	ld	s0,48(sp)
	.cfi_restore 8
	.cfi_def_cfa 2, 64
	addi	sp,sp,64
	.cfi_def_cfa_offset 0
	jr	ra
	.cfi_endproc
.LFE3:
	.size	EfiCreateEventReadyToBootEx, .-EfiCreateEventReadyToBootEx
	.section	.text.EfiSignalEventReadyToBoot,"ax",@progbits
	.align	1
	.globl	EfiSignalEventReadyToBoot
	.type	EfiSignalEventReadyToBoot, @function
EfiSignalEventReadyToBoot:
.LFB4:
	.loc 1 222 1
	.cfi_startproc
	addi	sp,sp,-48
	.cfi_def_cfa_offset 48
	sd	ra,40(sp)
	sd	s0,32(sp)
	.cfi_offset 1, -8
	.cfi_offset 8, -16
	addi	s0,sp,48
	.cfi_def_cfa 8, 0
	.loc 1 227 12
	addi	a5,s0,-32
	mv	a0,a5
	call	EfiCreateEventReadyToBoot
	sd	a0,-24(s0)
	.loc 1 228 7
	ld	a5,-24(s0)
	.loc 1 228 6
	blt	a5,zero,.L16
	.loc 1 229 8
	la	a5,gBS
	ld	a5,0(a5)
	ld	a5,104(a5)
	.loc 1 229 5
	ld	a4,-32(s0)
	mv	a0,a4
	jalr	a5
.LVL2:
	.loc 1 230 8
	la	a5,gBS
	ld	a5,0(a5)
	ld	a5,112(a5)
	.loc 1 230 5
	ld	a4,-32(s0)
	mv	a0,a4
	jalr	a5
.LVL3:
.L16:
	.loc 1 233 15
	la	a5,gBS
	ld	a5,0(a5)
	ld	a6,368(a5)
	.loc 1 233 12
	addi	a5,s0,-40
	la	a4,gEfiEventAfterReadyToBootGuid
	li	a3,0
	la	a2,EfiEventEmptyFunction
	li	a1,8
	li	a0,512
	jalr	a6
.LVL4:
	sd	a0,-24(s0)
	.loc 1 241 7
	ld	a5,-24(s0)
	.loc 1 241 6
	blt	a5,zero,.L18
	.loc 1 242 8
	la	a5,gBS
	ld	a5,0(a5)
	ld	a5,104(a5)
	.loc 1 242 5
	ld	a4,-40(s0)
	mv	a0,a4
	jalr	a5
.LVL5:
	.loc 1 243 8
	la	a5,gBS
	ld	a5,0(a5)
	ld	a5,112(a5)
	.loc 1 243 5
	ld	a4,-40(s0)
	mv	a0,a4
	jalr	a5
.LVL6:
.L18:
	.loc 1 245 1
	nop
	ld	ra,40(sp)
	.cfi_restore 1
	ld	s0,32(sp)
	.cfi_restore 8
	.cfi_def_cfa 2, 48
	addi	sp,sp,48
	.cfi_def_cfa_offset 0
	jr	ra
	.cfi_endproc
.LFE4:
	.size	EfiSignalEventReadyToBoot, .-EfiSignalEventReadyToBoot
	.section	.text.EfiSignalEventLegacyBoot,"ax",@progbits
	.align	1
	.globl	EfiSignalEventLegacyBoot
	.type	EfiSignalEventLegacyBoot, @function
EfiSignalEventLegacyBoot:
.LFB5:
	.loc 1 261 1
	.cfi_startproc
	addi	sp,sp,-32
	.cfi_def_cfa_offset 32
	sd	ra,24(sp)
	sd	s0,16(sp)
	.cfi_offset 1, -8
	.cfi_offset 8, -16
	addi	s0,sp,32
	.cfi_def_cfa 8, 0
	.loc 1 265 12
	addi	a5,s0,-32
	mv	a0,a5
	call	EfiCreateEventLegacyBoot
	sd	a0,-24(s0)
	.loc 1 266 7
	ld	a5,-24(s0)
	.loc 1 266 6
	blt	a5,zero,.L21
	.loc 1 267 8
	la	a5,gBS
	ld	a5,0(a5)
	ld	a5,104(a5)
	.loc 1 267 5
	ld	a4,-32(s0)
	mv	a0,a4
	jalr	a5
.LVL7:
	.loc 1 268 8
	la	a5,gBS
	ld	a5,0(a5)
	ld	a5,112(a5)
	.loc 1 268 5
	ld	a4,-32(s0)
	mv	a0,a4
	jalr	a5
.LVL8:
.L21:
	.loc 1 270 1
	nop
	ld	ra,24(sp)
	.cfi_restore 1
	ld	s0,16(sp)
	.cfi_restore 8
	.cfi_def_cfa 2, 32
	addi	sp,sp,32
	.cfi_def_cfa_offset 0
	jr	ra
	.cfi_endproc
.LFE5:
	.size	EfiSignalEventLegacyBoot, .-EfiSignalEventLegacyBoot
	.section	.text.EfiGetNameGuidFromFwVolDevicePathNode,"ax",@progbits
	.align	1
	.globl	EfiGetNameGuidFromFwVolDevicePathNode
	.type	EfiGetNameGuidFromFwVolDevicePathNode, @function
EfiGetNameGuidFromFwVolDevicePathNode:
.LFB6:
	.loc 1 295 1
	.cfi_startproc
	addi	sp,sp,-32
	.cfi_def_cfa_offset 32
	sd	ra,24(sp)
	sd	s0,16(sp)
	.cfi_offset 1, -8
	.cfi_offset 8, -16
	addi	s0,sp,32
	.cfi_def_cfa 8, 0
	sd	a0,-24(s0)
	.loc 1 298 24
	ld	a5,-24(s0)
	.loc 1 298 8
	mv	a0,a5
	call	DevicePathType@plt
	mv	a5,a0
	.loc 1 298 6 discriminator 1
	mv	a4,a5
	li	a5,4
	bne	a4,a5,.L23
	.loc 1 299 27
	ld	a5,-24(s0)
	.loc 1 299 8
	mv	a0,a5
	call	DevicePathSubType@plt
	mv	a5,a0
	.loc 1 298 60 discriminator 2
	mv	a4,a5
	li	a5,6
	bne	a4,a5,.L23
	.loc 1 301 12
	ld	a5,-24(s0)
	addi	a5,a5,4
	j	.L24
.L23:
	.loc 1 304 10
	li	a5,0
.L24:
	.loc 1 305 1
	mv	a0,a5
	ld	ra,24(sp)
	.cfi_restore 1
	ld	s0,16(sp)
	.cfi_restore 8
	.cfi_def_cfa 2, 32
	addi	sp,sp,32
	.cfi_def_cfa_offset 0
	jr	ra
	.cfi_endproc
.LFE6:
	.size	EfiGetNameGuidFromFwVolDevicePathNode, .-EfiGetNameGuidFromFwVolDevicePathNode
	.section	.text.EfiInitializeFwVolDevicepathNode,"ax",@progbits
	.align	1
	.globl	EfiInitializeFwVolDevicepathNode
	.type	EfiInitializeFwVolDevicepathNode, @function
EfiInitializeFwVolDevicepathNode:
.LFB7:
	.loc 1 329 1
	.cfi_startproc
	addi	sp,sp,-32
	.cfi_def_cfa_offset 32
	sd	ra,24(sp)
	sd	s0,16(sp)
	.cfi_offset 1, -8
	.cfi_offset 8, -16
	addi	s0,sp,32
	.cfi_def_cfa 8, 0
	sd	a0,-24(s0)
	sd	a1,-32(s0)
	.loc 1 336 33
	ld	a5,-24(s0)
	li	a4,4
	sb	a4,0(a5)
	.loc 1 337 36
	ld	a5,-24(s0)
	li	a4,6
	sb	a4,1(a5)
	.loc 1 338 28
	ld	a5,-24(s0)
	.loc 1 338 3
	li	a1,20
	mv	a0,a5
	call	SetDevicePathNodeLength@plt
	.loc 1 340 13
	ld	a5,-24(s0)
	addi	a5,a5,4
	.loc 1 340 3
	ld	a1,-32(s0)
	mv	a0,a5
	call	CopyGuid@plt
	.loc 1 341 1
	nop
	ld	ra,24(sp)
	.cfi_restore 1
	ld	s0,16(sp)
	.cfi_restore 8
	.cfi_def_cfa 2, 32
	addi	sp,sp,32
	.cfi_def_cfa_offset 0
	jr	ra
	.cfi_endproc
.LFE7:
	.size	EfiInitializeFwVolDevicepathNode, .-EfiInitializeFwVolDevicepathNode
	.text
.Letext0:
	.file 2 "/home/kapoagaeming/spacemit-image-builder/components/edk2/MdePkg/Include/RiscV64/ProcessorBind.h"
	.file 3 "/home/kapoagaeming/spacemit-image-builder/components/edk2/MdePkg/Include/Base.h"
	.file 4 "/home/kapoagaeming/spacemit-image-builder/components/edk2/MdePkg/Include/Uefi/UefiBaseType.h"
	.file 5 "/home/kapoagaeming/spacemit-image-builder/components/edk2/MdePkg/Include/Uefi/UefiMultiPhase.h"
	.file 6 "/home/kapoagaeming/spacemit-image-builder/components/edk2/MdePkg/Include/Protocol/DevicePath.h"
	.file 7 "/home/kapoagaeming/spacemit-image-builder/components/edk2/MdePkg/Include/Protocol/SimpleTextIn.h"
	.file 8 "/home/kapoagaeming/spacemit-image-builder/components/edk2/MdePkg/Include/Protocol/SimpleTextOut.h"
	.file 9 "/home/kapoagaeming/spacemit-image-builder/components/edk2/MdePkg/Include/Uefi/UefiSpec.h"
	.file 10 "/home/kapoagaeming/spacemit-image-builder/components/Build/Milk-V-Jupiter/RELEASE_GCC5/RISCV64/MdePkg/Library/UefiLib/UefiLib/DEBUG/AutoGen.h"
	.file 11 "/home/kapoagaeming/spacemit-image-builder/components/edk2/MdePkg/Include/Library/UefiBootServicesTableLib.h"
	.file 12 "/home/kapoagaeming/spacemit-image-builder/components/edk2/MdePkg/Include/Library/BaseMemoryLib.h"
	.file 13 "/home/kapoagaeming/spacemit-image-builder/components/edk2/MdePkg/Include/Library/DevicePathLib.h"
	.file 14 "/home/kapoagaeming/spacemit-image-builder/components/edk2/MdePkg/Include/Library/UefiLib.h"
	.section	.note.GNU-stack,"",@progbits
