	.file	"Connect.c"
	.option pic
	.option norelax
	.attribute arch, "rv64i2p1_m2p0_a2p1_f2p2_d2p2_c2p0_zicsr2p0_zifencei2p0_zmmul1p0_zaamo1p0_zalrsc1p0_zca1p0_zcd1p0"
	.attribute unaligned_access, 0
	.attribute stack_align, 16
	.text
.Ltext0:
	.cfi_sections	.debug_frame
	.file 0 "/home/kapoagaeming/Downloads/spacemit-image-builder/components/Build/Milk-V-Jupiter/RELEASE_GCC5/RISCV64/ShellPkg/Library/UefiShellDriver1CommandsLib/UefiShellDriver1CommandsLib" "/home/kapoagaeming/Downloads/spacemit-image-builder/components/edk2/ShellPkg/Library/UefiShellDriver1CommandsLib/Connect.c"
	.section	.text.ShellConnectDevicePath,"ax",@progbits
	.align	1
	.globl	ShellConnectDevicePath
	.type	ShellConnectDevicePath, @function
ShellConnectDevicePath:
.LFB0:
	.file 1 "/home/kapoagaeming/Downloads/spacemit-image-builder/components/edk2/ShellPkg/Library/UefiShellDriver1CommandsLib/Connect.c"
	.loc 1 28 1
	.cfi_startproc
	addi	sp,sp,-64
	.cfi_def_cfa_offset 64
	sd	ra,56(sp)
	sd	s0,48(sp)
	.cfi_offset 1, -8
	.cfi_offset 8, -16
	addi	s0,sp,64
	.cfi_def_cfa 8, 0
	sd	a0,-56(s0)
	.loc 1 34 6
	ld	a5,-56(s0)
	bne	a5,zero,.L2
	.loc 1 35 12
	li	a5,-1
	slli	a5,a5,63
	addi	a5,a5,2
	j	.L8
.L2:
	.loc 1 38 18
	sd	zero,-32(s0)
.L7:
	.loc 1 40 25
	ld	a5,-56(s0)
	sd	a5,-40(s0)
	.loc 1 41 17
	la	a5,gBS
	ld	a5,0(a5)
	ld	a5,184(a5)
	.loc 1 41 14
	addi	a3,s0,-48
	addi	a4,s0,-40
	mv	a2,a3
	mv	a1,a4
	la	a0,gEfiDevicePathProtocolGuid
	jalr	a5
.LVL0:
	sd	a0,-24(s0)
	.loc 1 43 9
	ld	a5,-24(s0)
	.loc 1 43 8
	blt	a5,zero,.L4
	.loc 1 43 74 discriminator 1
	ld	a5,-48(s0)
	.loc 1 43 63 discriminator 1
	beq	a5,zero,.L4
	.loc 1 44 26
	ld	a5,-48(s0)
	.loc 1 44 10
	ld	a4,-32(s0)
	bne	a4,a5,.L5
	.loc 1 45 16
	li	a5,-1
	slli	a5,a5,63
	addi	a5,a5,14
	sd	a5,-24(s0)
	j	.L4
.L5:
	.loc 1 47 24
	ld	a5,-48(s0)
	sd	a5,-32(s0)
	.loc 1 48 21
	la	a5,gBS
	ld	a5,0(a5)
	ld	a5,264(a5)
	.loc 1 48 18
	ld	a4,-48(s0)
	ld	a2,-40(s0)
	li	a3,0
	li	a1,0
	mv	a0,a4
	jalr	a5
.LVL1:
	sd	a0,-24(s0)
.L4:
	.loc 1 51 12
	ld	a5,-24(s0)
	.loc 1 51 66
	blt	a5,zero,.L6
	.loc 1 51 70 discriminator 1
	ld	a5,-40(s0)
	mv	a0,a5
	call	IsDevicePathEnd@plt
	mv	a5,a0
	.loc 1 51 66 discriminator 2
	beq	a5,zero,.L7
.L6:
	.loc 1 53 10
	ld	a5,-24(s0)
.L8:
	.loc 1 54 1
	mv	a0,a5
	ld	ra,56(sp)
	.cfi_restore 1
	ld	s0,48(sp)
	.cfi_restore 8
	.cfi_def_cfa 2, 64
	addi	sp,sp,64
	.cfi_def_cfa_offset 0
	jr	ra
	.cfi_endproc
.LFE0:
	.size	ShellConnectDevicePath, .-ShellConnectDevicePath
	.section	.text.ShellConnectPciRootBridge,"ax",@progbits
	.align	1
	.globl	ShellConnectPciRootBridge
	.type	ShellConnectPciRootBridge, @function
ShellConnectPciRootBridge:
.LFB1:
	.loc 1 67 1
	.cfi_startproc
	addi	sp,sp,-48
	.cfi_def_cfa_offset 48
	sd	ra,40(sp)
	sd	s0,32(sp)
	.cfi_offset 1, -8
	.cfi_offset 8, -16
	addi	s0,sp,48
	.cfi_def_cfa 8, 0
	.loc 1 73 25
	sd	zero,-40(s0)
	.loc 1 75 15
	la	a5,gBS
	ld	a5,0(a5)
	ld	a5,312(a5)
	.loc 1 75 12
	addi	a4,s0,-48
	addi	a3,s0,-40
	li	a2,0
	la	a1,gEfiPciRootBridgeIoProtocolGuid
	li	a0,2
	jalr	a5
.LVL2:
	sd	a0,-32(s0)
	.loc 1 82 34
	ld	a5,-32(s0)
	.loc 1 82 6
	bge	a5,zero,.L10
	.loc 1 83 12
	ld	a5,-32(s0)
	j	.L14
.L10:
	.loc 1 86 24
	sd	zero,-24(s0)
	.loc 1 86 3
	j	.L12
.L13:
	.loc 1 87 8
	la	a5,gBS
	ld	a5,0(a5)
	ld	a5,264(a5)
	.loc 1 87 51
	ld	a3,-48(s0)
	ld	a4,-24(s0)
	slli	a4,a4,3
	add	a4,a3,a4
	.loc 1 87 5
	ld	a4,0(a4)
	li	a3,0
	li	a2,0
	li	a1,0
	mv	a0,a4
	jalr	a5
.LVL3:
	.loc 1 86 85 discriminator 3
	ld	a5,-24(s0)
	addi	a5,a5,1
	sd	a5,-24(s0)
.L12:
	.loc 1 86 45 discriminator 1
	ld	a5,-40(s0)
	ld	a4,-24(s0)
	bltu	a4,a5,.L13
	.loc 1 90 3
	ld	a5,-48(s0)
	mv	a0,a5
	call	FreePool@plt
	.loc 1 92 10
	li	a5,0
.L14:
	.loc 1 93 1
	mv	a0,a5
	ld	ra,40(sp)
	.cfi_restore 1
	ld	s0,32(sp)
	.cfi_restore 8
	.cfi_def_cfa 2, 48
	addi	sp,sp,48
	.cfi_def_cfa_offset 0
	jr	ra
	.cfi_endproc
.LFE1:
	.size	ShellConnectPciRootBridge, .-ShellConnectPciRootBridge
	.section	.rodata
	.align	3
.LC0:
	.string	"C"
	.string	"o"
	.string	"n"
	.string	"n"
	.string	"e"
	.string	"c"
	.string	"t"
	.zero	2
	.section	.text.ConnectControllers,"ax",@progbits
	.align	1
	.globl	ConnectControllers
	.type	ConnectControllers, @function
ConnectControllers:
.LFB2:
	.loc 1 114 1
	.cfi_startproc
	addi	sp,sp,-112
	.cfi_def_cfa_offset 112
	sd	ra,104(sp)
	sd	s0,96(sp)
	sd	s1,88(sp)
	.cfi_offset 1, -8
	.cfi_offset 8, -16
	.cfi_offset 9, -24
	addi	s0,sp,112
	.cfi_def_cfa 8, 0
	sd	a0,-88(s0)
	sd	a1,-96(s0)
	mv	a5,a2
	sb	a5,-97(s0)
	mv	a5,a3
	sb	a5,-98(s0)
	mv	a5,a4
	sb	a5,-99(s0)
	.loc 1 121 24
	sd	zero,-48(s0)
	.loc 1 122 10
	li	a5,-1
	slli	a5,a5,63
	addi	a5,a5,14
	sd	a5,-72(s0)
	.loc 1 123 11
	li	a5,-1
	slli	a5,a5,63
	addi	a5,a5,14
	sd	a5,-40(s0)
	.loc 1 128 6
	ld	a5,-96(s0)
	bne	a5,zero,.L16
	.loc 1 129 22
	sd	zero,-56(s0)
	j	.L17
.L16:
	.loc 1 131 24
	li	a0,16
	call	AllocateZeroPool@plt
	sd	a0,-56(s0)
	.loc 1 132 8
	ld	a5,-56(s0)
	bne	a5,zero,.L18
	.loc 1 133 14
	li	a5,-1
	slli	a5,a5,63
	addi	a5,a5,9
	j	.L19
.L18:
	.loc 1 136 25
	ld	a5,-56(s0)
	ld	a4,-96(s0)
	sd	a4,0(a5)
	.loc 1 137 21
	ld	a5,-56(s0)
	addi	a5,a5,8
	.loc 1 137 25
	sd	zero,0(a5)
.L17:
	.loc 1 144 6
	ld	a5,-88(s0)
	bne	a5,zero,.L20
	.loc 1 145 28
	la	a0,gEfiDevicePathProtocolGuid
	call	GetHandleListByProtocol@plt
	sd	a0,-48(s0)
	.loc 1 146 23
	ld	a5,-48(s0)
	sd	a5,-64(s0)
	.loc 1 146 5
	j	.L21
.L27:
	.loc 1 151 19
	la	a5,gBS
	ld	a5,0(a5)
	ld	a5,264(a5)
	.loc 1 151 16
	ld	a4,-64(s0)
	ld	a4,0(a4)
	lbu	a3,-97(s0)
	li	a2,0
	ld	a1,-56(s0)
	mv	a0,a4
	jalr	a5
.LVL4:
	sd	a0,-72(s0)
	.loc 1 152 11
	ld	a5,-72(s0)
	.loc 1 152 10
	blt	a5,zero,.L22
	.loc 1 153 17
	sd	zero,-40(s0)
.L22:
	.loc 1 156 10
	lbu	a5,-98(s0)
	andi	a5,a5,0xff
	beq	a5,zero,.L23
	.loc 1 156 22 discriminator 1
	ld	a5,-72(s0)
	.loc 1 156 19 discriminator 1
	bge	a5,zero,.L24
.L23:
	.loc 1 156 77 discriminator 3
	lbu	a5,-99(s0)
	andi	a5,a5,0xff
	beq	a5,zero,.L25
.L24:
	.loc 1 157 9
	la	a5,gShellDriver1HiiHandle
	ld	s1,0(a5)
	ld	a5,-64(s0)
	ld	a5,0(a5)
	mv	a0,a5
	call	ConvertHandleToHandleIndex@plt
	mv	a5,a0
	.loc 1 157 9 is_stmt 0 discriminator 1
	ld	a7,-72(s0)
	mv	a6,a5
	lla	a5,.LC0
	mv	a4,s1
	li	a3,24
	li	a2,0
	li	a1,-1
	li	a0,-1
	call	ShellPrintHiiEx@plt
.L25:
	.loc 1 148 24 is_stmt 1
	ld	a5,-64(s0)
	addi	a5,a5,8
	sd	a5,-64(s0)
.L21:
	.loc 1 147 41
	ld	a5,-64(s0)
	beq	a5,zero,.L26
	.loc 1 147 44 discriminator 1
	ld	a5,-64(s0)
	ld	a5,0(a5)
	.loc 1 147 41 discriminator 1
	bne	a5,zero,.L27
	j	.L26
.L20:
	.loc 1 161 17
	la	a5,gBS
	ld	a5,0(a5)
	ld	a5,264(a5)
	.loc 1 161 14
	lbu	a4,-97(s0)
	mv	a3,a4
	li	a2,0
	ld	a1,-56(s0)
	ld	a0,-88(s0)
	jalr	a5
.LVL5:
	sd	a0,-72(s0)
	.loc 1 162 9
	ld	a5,-72(s0)
	.loc 1 162 8
	blt	a5,zero,.L28
	.loc 1 163 15
	sd	zero,-40(s0)
.L28:
	.loc 1 166 8
	lbu	a5,-98(s0)
	andi	a5,a5,0xff
	beq	a5,zero,.L29
	.loc 1 166 20 discriminator 1
	ld	a5,-72(s0)
	.loc 1 166 17 discriminator 1
	bge	a5,zero,.L30
.L29:
	.loc 1 166 75 discriminator 3
	lbu	a5,-99(s0)
	andi	a5,a5,0xff
	beq	a5,zero,.L26
.L30:
	.loc 1 167 7
	la	a5,gShellDriver1HiiHandle
	ld	s1,0(a5)
	ld	a0,-88(s0)
	call	ConvertHandleToHandleIndex@plt
	mv	a5,a0
	.loc 1 167 7 is_stmt 0 discriminator 1
	ld	a7,-72(s0)
	mv	a6,a5
	lla	a5,.LC0
	mv	a4,s1
	li	a3,24
	li	a2,0
	li	a1,-1
	li	a0,-1
	call	ShellPrintHiiEx@plt
.L26:
	.loc 1 174 6 is_stmt 1
	ld	a5,-48(s0)
	beq	a5,zero,.L31
	.loc 1 175 5
	ld	a0,-48(s0)
	call	FreePool@plt
.L31:
	.loc 1 178 6
	ld	a5,-56(s0)
	beq	a5,zero,.L32
	.loc 1 179 5
	ld	a0,-56(s0)
	call	FreePool@plt
.L32:
	.loc 1 182 10
	ld	a5,-40(s0)
.L19:
	.loc 1 183 1
	mv	a0,a5
	ld	ra,104(sp)
	.cfi_restore 1
	ld	s0,96(sp)
	.cfi_restore 8
	.cfi_def_cfa 2, 112
	ld	s1,88(sp)
	.cfi_restore 9
	addi	sp,sp,112
	.cfi_def_cfa_offset 0
	jr	ra
	.cfi_endproc
.LFE2:
	.size	ConnectControllers, .-ConnectControllers
	.section	.text.ShellConnectFromDevPaths,"ax",@progbits
	.align	1
	.globl	ShellConnectFromDevPaths
	.type	ShellConnectFromDevPaths, @function
ShellConnectFromDevPaths:
.LFB3:
	.loc 1 196 1
	.cfi_startproc
	addi	sp,sp,-144
	.cfi_def_cfa_offset 144
	sd	ra,136(sp)
	sd	s0,128(sp)
	.cfi_offset 1, -8
	.cfi_offset 8, -16
	addi	s0,sp,144
	.cfi_def_cfa 8, 0
	sd	a0,-136(s0)
	.loc 1 211 11
	sd	zero,-24(s0)
	.loc 1 212 10
	sd	zero,-80(s0)
	.loc 1 213 23
	sb	zero,-41(s0)
	.loc 1 218 15
	la	a5,gRT
	ld	a5,0(a5)
	ld	a5,72(a5)
	.loc 1 218 12
	addi	a3,s0,-80
	ld	a4,-24(s0)
	li	a2,0
	la	a1,gEfiGlobalVariableGuid
	ld	a0,-136(s0)
	jalr	a5
.LVL6:
	sd	a0,-56(s0)
	.loc 1 219 6
	ld	a4,-56(s0)
	li	a5,-1
	slli	a5,a5,63
	addi	a5,a5,5
	bne	a4,a5,.L34
	.loc 1 220 15
	ld	a5,-80(s0)
	mv	a0,a5
	call	AllocateZeroPool@plt
	sd	a0,-24(s0)
	.loc 1 221 8
	ld	a5,-24(s0)
	bne	a5,zero,.L35
	.loc 1 222 14
	li	a5,-1
	slli	a5,a5,63
	addi	a5,a5,9
	j	.L55
.L35:
	.loc 1 225 17
	la	a5,gRT
	ld	a5,0(a5)
	ld	a5,72(a5)
	.loc 1 225 14
	addi	a3,s0,-80
	ld	a4,-24(s0)
	li	a2,0
	la	a1,gEfiGlobalVariableGuid
	ld	a0,-136(s0)
	jalr	a5
.LVL7:
	sd	a0,-56(s0)
	.loc 1 226 36
	ld	a5,-56(s0)
	.loc 1 226 8
	bge	a5,zero,.L37
	.loc 1 227 10
	ld	a5,-24(s0)
	beq	a5,zero,.L38
	.loc 1 228 9
	ld	a0,-24(s0)
	call	FreePool@plt
.L38:
	.loc 1 231 14
	ld	a5,-56(s0)
	j	.L55
.L34:
	.loc 1 233 41
	ld	a5,-56(s0)
	.loc 1 233 13
	bge	a5,zero,.L37
	.loc 1 234 12
	ld	a5,-56(s0)
	j	.L55
.L37:
	.loc 1 237 10
	li	a5,-1
	slli	a5,a5,63
	addi	a5,a5,14
	sd	a5,-56(s0)
	.loc 1 239 17
	ld	a5,-24(s0)
	sd	a5,-72(s0)
.L52:
	.loc 1 247 16
	addi	a4,s0,-96
	addi	a5,s0,-72
	mv	a1,a4
	mv	a0,a5
	call	GetNextDevicePathInstance@plt
	sd	a0,-64(s0)
	.loc 1 248 8
	ld	a5,-64(s0)
	bne	a5,zero,.L39
	.loc 1 249 10
	ld	a5,-24(s0)
	beq	a5,zero,.L40
	.loc 1 250 9
	ld	a0,-24(s0)
	call	FreePool@plt
.L40:
	.loc 1 253 14
	li	a5,-1
	slli	a5,a5,63
	addi	a5,a5,3
	j	.L55
.L39:
	.loc 1 256 10
	ld	a5,-64(s0)
	sd	a5,-32(s0)
	.loc 1 257 11
	j	.L41
.L42:
	.loc 1 258 14
	ld	a0,-32(s0)
	call	NextDevicePathNode@plt
	sd	a0,-32(s0)
.L41:
	.loc 1 257 13
	ld	a0,-32(s0)
	call	IsDevicePathEndType@plt
	mv	a5,a0
	.loc 1 257 12 discriminator 1
	beq	a5,zero,.L42
	.loc 1 261 5
	ld	a0,-32(s0)
	call	SetDevicePathEndNode@plt
	.loc 1 265 10
	ld	a0,-64(s0)
	call	DevicePathType@plt
	mv	a5,a0
	.loc 1 265 8 discriminator 1
	mv	a4,a5
	li	a5,3
	bne	a4,a5,.L43
	.loc 1 266 12
	ld	a0,-64(s0)
	call	DevicePathSubType@plt
	mv	a5,a0
	.loc 1 265 45 discriminator 2
	mv	a4,a5
	li	a5,15
	beq	a4,a5,.L44
	.loc 1 267 13
	ld	a0,-64(s0)
	call	DevicePathSubType@plt
	mv	a5,a0
	.loc 1 267 9 discriminator 1
	mv	a4,a5
	li	a5,16
	bne	a4,a5,.L43
.L44:
	.loc 1 270 16
	call	ShellConnectPciRootBridge
	sd	a0,-56(s0)
	.loc 1 271 38
	ld	a5,-56(s0)
	.loc 1 271 10
	bge	a5,zero,.L45
	.loc 1 272 9
	ld	a0,-64(s0)
	call	FreePool@plt
	.loc 1 273 9
	ld	a0,-24(s0)
	call	FreePool@plt
	.loc 1 274 16
	ld	a5,-56(s0)
	j	.L55
.L45:
	.loc 1 277 19
	la	a5,gBS
	ld	a5,0(a5)
	ld	a5,312(a5)
	.loc 1 277 16
	addi	a4,s0,-104
	addi	a3,s0,-88
	li	a2,0
	la	a1,gEfiPciIoProtocolGuid
	li	a0,2
	jalr	a5
.LVL8:
	sd	a0,-56(s0)
	.loc 1 285 11
	ld	a5,-56(s0)
	.loc 1 285 10
	blt	a5,zero,.L46
	.loc 1 286 20
	sd	zero,-40(s0)
	.loc 1 286 9
	j	.L47
.L49:
	.loc 1 287 23
	la	a5,gBS
	ld	a5,0(a5)
	ld	a5,152(a5)
	.loc 1 288 38
	ld	a3,-104(s0)
	ld	a4,-40(s0)
	slli	a4,a4,3
	add	a4,a3,a4
	.loc 1 287 20
	ld	a4,0(a4)
	addi	a3,s0,-112
	mv	a2,a3
	la	a1,gEfiPciIoProtocolGuid
	mv	a0,a4
	jalr	a5
.LVL9:
	sd	a0,-56(s0)
	.loc 1 293 15
	ld	a5,-56(s0)
	.loc 1 293 14
	blt	a5,zero,.L48
	.loc 1 294 27
	ld	a5,-112(s0)
	.loc 1 294 32
	ld	a5,48(a5)
	.loc 1 294 22
	ld	a0,-112(s0)
	addi	a4,s0,-120
	li	a3,3
	li	a2,9
	li	a1,0
	jalr	a5
.LVL10:
	sd	a0,-56(s0)
	.loc 1 295 17
	ld	a5,-56(s0)
	.loc 1 295 16
	blt	a5,zero,.L48
	.loc 1 296 33
	lbu	a5,-118(s0)
	.loc 1 296 18
	mv	a4,a5
	li	a5,12
	bne	a4,a5,.L48
	.loc 1 297 33
	lbu	a5,-119(s0)
	.loc 1 296 38 discriminator 1
	mv	a4,a5
	li	a5,3
	bne	a4,a5,.L48
	.loc 1 299 29
	la	a5,gBS
	ld	a5,0(a5)
	ld	a5,264(a5)
	.loc 1 300 44
	ld	a3,-104(s0)
	ld	a4,-40(s0)
	slli	a4,a4,3
	add	a4,a3,a4
	.loc 1 299 26
	ld	a4,0(a4)
	li	a3,0
	ld	a2,-64(s0)
	li	a1,0
	mv	a0,a4
	jalr	a5
.LVL11:
	sd	a0,-56(s0)
	.loc 1 305 21
	ld	a5,-56(s0)
	.loc 1 305 20
	blt	a5,zero,.L48
	.loc 1 306 39
	li	a5,1
	sb	a5,-41(s0)
.L48:
	.loc 1 286 56 discriminator 2
	ld	a5,-40(s0)
	addi	a5,a5,1
	sd	a5,-40(s0)
.L47:
	.loc 1 286 31 discriminator 1
	ld	a5,-88(s0)
	ld	a4,-40(s0)
	bltu	a4,a5,.L49
.L46:
	.loc 1 314 23
	ld	a5,-104(s0)
	.loc 1 314 10
	beq	a5,zero,.L51
	.loc 1 315 9
	ld	a5,-104(s0)
	mv	a0,a5
	call	FreePool@plt
	.loc 1 314 10
	j	.L51
.L43:
	.loc 1 321 16
	ld	a0,-64(s0)
	call	ShellConnectDevicePath
	sd	a0,-56(s0)
	.loc 1 322 11
	ld	a5,-56(s0)
	.loc 1 322 10
	blt	a5,zero,.L51
	.loc 1 323 29
	li	a5,1
	sb	a5,-41(s0)
.L51:
	.loc 1 327 5
	ld	a0,-64(s0)
	call	FreePool@plt
	.loc 1 328 26
	ld	a5,-72(s0)
	bne	a5,zero,.L52
	.loc 1 330 6
	ld	a5,-24(s0)
	beq	a5,zero,.L53
	.loc 1 331 5
	ld	a0,-24(s0)
	call	FreePool@plt
.L53:
	.loc 1 334 6
	lbu	a5,-41(s0)
	andi	a5,a5,0xff
	beq	a5,zero,.L54
	.loc 1 335 12
	li	a5,0
	j	.L55
.L54:
	.loc 1 337 12
	li	a5,-1
	slli	a5,a5,63
	addi	a5,a5,14
.L55:
	.loc 1 339 1
	mv	a0,a5
	ld	ra,136(sp)
	.cfi_restore 1
	ld	s0,128(sp)
	.cfi_restore 8
	.cfi_def_cfa 2, 144
	addi	sp,sp,144
	.cfi_def_cfa_offset 0
	jr	ra
	.cfi_endproc
.LFE3:
	.size	ShellConnectFromDevPaths, .-ShellConnectFromDevPaths
	.section	.text.ConvertAndConnectControllers,"ax",@progbits
	.align	1
	.globl	ConvertAndConnectControllers
	.type	ConvertAndConnectControllers, @function
ConvertAndConnectControllers:
.LFB4:
	.loc 1 360 1
	.cfi_startproc
	addi	sp,sp,-48
	.cfi_def_cfa_offset 48
	sd	ra,40(sp)
	sd	s0,32(sp)
	.cfi_offset 1, -8
	.cfi_offset 8, -16
	addi	s0,sp,48
	.cfi_def_cfa 8, 0
	sd	a0,-24(s0)
	sd	a1,-32(s0)
	mv	a5,a2
	mv	a4,a3
	sb	a5,-33(s0)
	mv	a5,a4
	sb	a5,-34(s0)
	.loc 1 364 6
	ld	a5,-24(s0)
	bne	a5,zero,.L57
	.loc 1 364 35 discriminator 1
	ld	a5,-32(s0)
	bne	a5,zero,.L58
.L57:
	.loc 1 365 6
	ld	a5,-24(s0)
	beq	a5,zero,.L59
	.loc 1 365 36 discriminator 1
	ld	a5,-32(s0)
	bne	a5,zero,.L59
.L58:
	.loc 1 373 8
	ld	a5,-24(s0)
	bne	a5,zero,.L60
	.loc 1 374 32
	la	a5,gBS
	ld	a5,0(a5)
	ld	a6,280(a5)
	.loc 1 374 29
	la	a5,gImageHandle
	ld	a4,0(a5)
	li	a5,4
	li	a3,0
	li	a2,0
	la	a1,gEfiDriverBindingProtocolGuid
	ld	a0,-32(s0)
	jalr	a6
.LVL12:
	mv	a5,a0
	.loc 1 374 10 discriminator 1
	bge	a5,zero,.L59
	.loc 1 376 17
	ld	a5,-32(s0)
	sd	a5,-24(s0)
	.loc 1 377 17
	sd	zero,-32(s0)
	j	.L59
.L60:
	.loc 1 382 32
	la	a5,gBS
	ld	a5,0(a5)
	ld	a6,280(a5)
	.loc 1 382 29
	la	a5,gImageHandle
	ld	a4,0(a5)
	li	a5,4
	li	a3,0
	li	a2,0
	la	a1,gEfiDriverBindingProtocolGuid
	ld	a0,-24(s0)
	jalr	a6
.LVL13:
	mv	a5,a0
	.loc 1 382 10 discriminator 1
	blt	a5,zero,.L59
	.loc 1 386 17
	ld	a5,-24(s0)
	sd	a5,-32(s0)
	.loc 1 387 17
	sd	zero,-24(s0)
.L59:
	.loc 1 392 102
	ld	a5,-32(s0)
	beq	a5,zero,.L61
	.loc 1 392 102 is_stmt 0 discriminator 1
	ld	a5,-24(s0)
	beq	a5,zero,.L61
	.loc 1 392 102 discriminator 3
	li	a5,1
	.loc 1 392 102
	j	.L62
.L61:
	.loc 1 392 102 discriminator 4
	li	a5,0
.L62:
	.loc 1 392 11 is_stmt 1 discriminator 6
	andi	a4,a5,0xff
	lbu	a3,-34(s0)
	lbu	a5,-33(s0)
	mv	a2,a5
	ld	a1,-32(s0)
	ld	a0,-24(s0)
	call	ConnectControllers
	mv	a5,a0
	.loc 1 393 1
	mv	a0,a5
	ld	ra,40(sp)
	.cfi_restore 1
	ld	s0,32(sp)
	.cfi_restore 8
	.cfi_def_cfa 2, 48
	addi	sp,sp,48
	.cfi_def_cfa_offset 0
	jr	ra
	.cfi_endproc
.LFE4:
	.size	ConvertAndConnectControllers, .-ConvertAndConnectControllers
	.section	.rodata
	.align	3
.LC1:
	.string	"-"
	.string	"c"
	.zero	2
	.align	3
.LC2:
	.string	"-"
	.string	"r"
	.zero	2
	.section	.data.rel.ro.local.ParamList,"aw"
	.align	3
	.type	ParamList, @object
	.size	ParamList, 48
ParamList:
	.dword	.LC1
	.word	0
	.zero	4
	.dword	.LC2
	.word	0
	.zero	4
	.dword	0
	.word	7
	.zero	4
	.section	.rodata
	.align	3
.LC3:
	.string	"c"
	.string	"o"
	.string	"n"
	.string	"n"
	.string	"e"
	.string	"c"
	.string	"t"
	.zero	2
	.align	3
.LC4:
	.string	"C"
	.string	"o"
	.string	"n"
	.string	"I"
	.string	"n"
	.string	"D"
	.string	"e"
	.string	"v"
	.zero	2
	.align	3
.LC5:
	.string	"C"
	.string	"o"
	.string	"n"
	.string	"O"
	.string	"u"
	.string	"t"
	.string	"D"
	.string	"e"
	.string	"v"
	.zero	2
	.align	3
.LC6:
	.string	"E"
	.string	"r"
	.string	"r"
	.string	"O"
	.string	"u"
	.string	"t"
	.string	"D"
	.string	"e"
	.string	"v"
	.zero	2
	.align	3
.LC7:
	.string	"E"
	.string	"r"
	.string	"r"
	.string	"O"
	.string	"u"
	.string	"t"
	.zero	2
	.align	3
.LC8:
	.string	"C"
	.string	"o"
	.string	"n"
	.string	"I"
	.string	"n"
	.zero	2
	.align	3
.LC9:
	.string	"C"
	.string	"o"
	.string	"n"
	.string	"O"
	.string	"u"
	.string	"t"
	.zero	2
	.section	.text.ShellCommandRunConnect,"ax",@progbits
	.align	1
	.globl	ShellCommandRunConnect
	.type	ShellCommandRunConnect, @function
ShellCommandRunConnect:
.LFB5:
	.loc 1 413 1
	.cfi_startproc
	addi	sp,sp,-112
	.cfi_def_cfa_offset 112
	sd	ra,104(sp)
	sd	s0,96(sp)
	.cfi_offset 1, -8
	.cfi_offset 8, -16
	addi	s0,sp,112
	.cfi_def_cfa 8, 0
	sd	a0,-104(s0)
	sd	a1,-112(s0)
	.loc 1 425 15
	sw	zero,-28(s0)
	.loc 1 429 12
	call	ShellInitialize@plt
	sd	a0,-24(s0)
	.loc 1 432 12
	call	CommandInit@plt
	sd	a0,-24(s0)
	.loc 1 438 12
	addi	a2,s0,-88
	addi	a5,s0,-80
	li	a4,0
	li	a3,1
	mv	a1,a5
	lla	a0,ParamList
	call	ShellCommandLineParseEx@plt
	sd	a0,-24(s0)
	.loc 1 439 34
	ld	a5,-24(s0)
	.loc 1 439 6
	bge	a5,zero,.L65
	.loc 1 440 8
	ld	a4,-24(s0)
	li	a5,-1
	slli	a5,a5,63
	addi	a5,a5,10
	bne	a4,a5,.L66
	.loc 1 440 86 discriminator 1
	ld	a5,-88(s0)
	.loc 1 440 69 discriminator 1
	beq	a5,zero,.L66
	.loc 1 441 7
	la	a5,gShellDriver1HiiHandle
	ld	a4,0(a5)
	ld	a5,-88(s0)
	mv	a6,a5
	lla	a5,.LC3
	li	a3,2
	li	a2,0
	li	a1,-1
	li	a0,-1
	call	ShellPrintHiiEx@plt
	.loc 1 442 7
	ld	a5,-88(s0)
	mv	a0,a5
	call	FreePool@plt
	.loc 1 443 19
	li	a5,2
	sw	a5,-28(s0)
	j	.L66
.L65:
	.loc 1 451 27
	la	a5,gInReconnect
	lbu	a5,0(a5)
	.loc 1 451 33
	beq	a5,zero,.L67
	.loc 1 451 11 discriminator 1
	li	a5,4
	sd	a5,-40(s0)
	j	.L68
.L67:
	.loc 1 451 11 is_stmt 0 discriminator 2
	li	a5,3
	sd	a5,-40(s0)
.L68:
	.loc 1 452 11 is_stmt 1
	ld	a5,-80(s0)
	mv	a0,a5
	call	ShellCommandLineGetCount@plt
	mv	a4,a0
	.loc 1 452 8 discriminator 1
	ld	a5,-40(s0)
	bltu	a5,a4,.L69
	.loc 1 453 12
	ld	a5,-80(s0)
	lla	a1,.LC1
	mv	a0,a5
	call	ShellCommandLineGetFlag@plt
	mv	a5,a0
	.loc 1 453 8 discriminator 1
	beq	a5,zero,.L70
	.loc 1 453 57 discriminator 2
	ld	a5,-80(s0)
	mv	a0,a5
	call	ShellCommandLineGetCount@plt
	mv	a4,a0
	.loc 1 453 53 discriminator 3
	li	a5,1
	bgtu	a4,a5,.L69
.L70:
	.loc 1 454 12
	ld	a5,-80(s0)
	lla	a1,.LC2
	mv	a0,a5
	call	ShellCommandLineGetFlag@plt
	mv	a5,a0
	.loc 1 454 8 discriminator 1
	beq	a5,zero,.L71
	.loc 1 454 57 discriminator 2
	ld	a5,-80(s0)
	mv	a0,a5
	call	ShellCommandLineGetCount@plt
	mv	a4,a0
	.loc 1 454 53 discriminator 3
	li	a5,2
	bgtu	a4,a5,.L69
.L71:
	.loc 1 455 12
	ld	a5,-80(s0)
	lla	a1,.LC2
	mv	a0,a5
	call	ShellCommandLineGetFlag@plt
	mv	a5,a0
	.loc 1 455 8 discriminator 1
	beq	a5,zero,.L72
	.loc 1 455 56 discriminator 2
	ld	a5,-80(s0)
	lla	a1,.LC1
	mv	a0,a5
	call	ShellCommandLineGetFlag@plt
	mv	a5,a0
	.loc 1 455 53 discriminator 3
	beq	a5,zero,.L72
.L69:
	.loc 1 461 7
	la	a5,gShellDriver1HiiHandle
	ld	a4,0(a5)
	lla	a5,.LC3
	li	a3,6
	li	a2,0
	li	a1,-1
	li	a0,-1
	call	ShellPrintHiiEx@plt
	.loc 1 462 19
	li	a5,2
	sw	a5,-28(s0)
	j	.L73
.L72:
	.loc 1 463 16
	ld	a5,-80(s0)
	lla	a1,.LC1
	mv	a0,a5
	call	ShellCommandLineGetFlag@plt
	mv	a5,a0
	.loc 1 463 15 discriminator 1
	beq	a5,zero,.L74
	.loc 1 468 16
	lla	a0,.LC4
	call	ShellConnectFromDevPaths
	sd	a0,-24(s0)
	.loc 1 469 38
	ld	a5,-24(s0)
	.loc 1 469 10
	bge	a5,zero,.L75
	.loc 1 470 9
	lla	a0,.LC5
	call	ShellConnectFromDevPaths
	j	.L76
.L75:
	.loc 1 472 18
	lla	a0,.LC5
	call	ShellConnectFromDevPaths
	sd	a0,-24(s0)
.L76:
	.loc 1 475 38
	ld	a5,-24(s0)
	.loc 1 475 10
	bge	a5,zero,.L77
	.loc 1 476 9
	lla	a0,.LC6
	call	ShellConnectFromDevPaths
	j	.L78
.L77:
	.loc 1 478 18
	lla	a0,.LC6
	call	ShellConnectFromDevPaths
	sd	a0,-24(s0)
.L78:
	.loc 1 481 38
	ld	a5,-24(s0)
	.loc 1 481 10
	bge	a5,zero,.L79
	.loc 1 482 9
	lla	a0,.LC7
	call	ShellConnectFromDevPaths
	j	.L80
.L79:
	.loc 1 484 18
	lla	a0,.LC7
	call	ShellConnectFromDevPaths
	sd	a0,-24(s0)
.L80:
	.loc 1 487 38
	ld	a5,-24(s0)
	.loc 1 487 10
	bge	a5,zero,.L81
	.loc 1 488 9
	lla	a0,.LC8
	call	ShellConnectFromDevPaths
	j	.L82
.L81:
	.loc 1 490 18
	lla	a0,.LC8
	call	ShellConnectFromDevPaths
	sd	a0,-24(s0)
.L82:
	.loc 1 493 38
	ld	a5,-24(s0)
	.loc 1 493 10
	bge	a5,zero,.L83
	.loc 1 494 9
	lla	a0,.LC9
	call	ShellConnectFromDevPaths
	j	.L84
.L83:
	.loc 1 496 18
	lla	a0,.LC9
	call	ShellConnectFromDevPaths
	sd	a0,-24(s0)
.L84:
	.loc 1 499 38
	ld	a5,-24(s0)
	.loc 1 499 10
	bge	a5,zero,.L73
	.loc 1 500 21
	li	a5,7
	sw	a5,-28(s0)
	j	.L73
.L74:
	.loc 1 506 16
	ld	a5,-80(s0)
	li	a1,1
	mv	a0,a5
	call	ShellCommandLineGetRawValue@plt
	sd	a0,-64(s0)
	.loc 1 507 16
	ld	a5,-80(s0)
	li	a1,2
	mv	a0,a5
	call	ShellCommandLineGetRawValue@plt
	sd	a0,-72(s0)
	.loc 1 508 15
	ld	a5,-80(s0)
	mv	a0,a5
	call	ShellCommandLineGetCount@plt
	sd	a0,-40(s0)
	.loc 1 510 10
	ld	a5,-64(s0)
	beq	a5,zero,.L85
	.loc 1 511 18
	addi	a5,s0,-96
	li	a3,0
	li	a2,1
	mv	a1,a5
	ld	a0,-64(s0)
	call	ShellConvertStringToUint64@plt
	sd	a0,-24(s0)
	.loc 1 512 40
	ld	a5,-24(s0)
	.loc 1 512 12
	bge	a5,zero,.L86
	.loc 1 513 11
	la	a5,gShellDriver1HiiHandle
	ld	a4,0(a5)
	ld	a6,-64(s0)
	lla	a5,.LC3
	li	a3,7
	li	a2,0
	li	a1,-1
	li	a0,-1
	call	ShellPrintHiiEx@plt
	.loc 1 514 23
	li	a5,2
	sw	a5,-28(s0)
	.loc 1 515 23
	ld	a5,-80(s0)
	.loc 1 515 14
	beq	a5,zero,.L87
	.loc 1 516 13
	ld	a5,-80(s0)
	mv	a0,a5
	call	ShellCommandLineFreeVarList@plt
.L87:
	.loc 1 519 18
	lw	a5,-28(s0)
	j	.L96
.L86:
	.loc 1 522 19
	ld	a5,-96(s0)
	mv	a0,a5
	call	ConvertHandleIndexToHandle@plt
	sd	a0,-48(s0)
	.loc 1 523 40
	ld	a5,-24(s0)
	.loc 1 523 12
	bge	a5,zero,.L89
	.loc 1 524 11
	la	a5,gShellDriver1HiiHandle
	ld	a4,0(a5)
	ld	a6,-64(s0)
	lla	a5,.LC3
	li	a3,7
	li	a2,0
	li	a1,-1
	li	a0,-1
	call	ShellPrintHiiEx@plt
	.loc 1 525 23
	li	a5,2
	sw	a5,-28(s0)
	j	.L89
.L85:
	.loc 1 528 17
	sd	zero,-48(s0)
.L89:
	.loc 1 531 10
	ld	a5,-72(s0)
	beq	a5,zero,.L90
	.loc 1 532 18
	addi	a5,s0,-96
	li	a3,0
	li	a2,1
	mv	a1,a5
	ld	a0,-72(s0)
	call	ShellConvertStringToUint64@plt
	sd	a0,-24(s0)
	.loc 1 533 13
	ld	a5,-24(s0)
	.loc 1 533 12
	blt	a5,zero,.L91
	.loc 1 534 21
	ld	a5,-96(s0)
	mv	a0,a5
	call	ConvertHandleIndexToHandle@plt
	sd	a0,-56(s0)
	j	.L92
.L91:
	.loc 1 536 11
	la	a5,gShellDriver1HiiHandle
	ld	a4,0(a5)
	ld	a6,-72(s0)
	lla	a5,.LC3
	li	a3,7
	li	a2,0
	li	a1,-1
	li	a0,-1
	call	ShellPrintHiiEx@plt
	.loc 1 537 23
	li	a5,2
	sw	a5,-28(s0)
	j	.L92
.L90:
	.loc 1 540 17
	sd	zero,-56(s0)
.L92:
	.loc 1 543 10
	lw	a5,-28(s0)
	sext.w	a5,a5
	bne	a5,zero,.L73
	.loc 1 544 12
	ld	a5,-64(s0)
	beq	a5,zero,.L93
	.loc 1 544 38 discriminator 1
	ld	a5,-48(s0)
	bne	a5,zero,.L93
	.loc 1 545 11
	la	a5,gShellDriver1HiiHandle
	ld	a4,0(a5)
	ld	a6,-64(s0)
	lla	a5,.LC3
	li	a3,7
	li	a2,0
	li	a1,-1
	li	a0,-1
	call	ShellPrintHiiEx@plt
	.loc 1 546 23
	li	a5,2
	sw	a5,-28(s0)
	j	.L73
.L93:
	.loc 1 547 19
	ld	a5,-72(s0)
	beq	a5,zero,.L94
	.loc 1 547 45 discriminator 1
	ld	a5,-56(s0)
	bne	a5,zero,.L94
	.loc 1 548 11
	la	a5,gShellDriver1HiiHandle
	ld	a4,0(a5)
	ld	a6,-72(s0)
	lla	a5,.LC3
	li	a3,7
	li	a2,0
	li	a1,-1
	li	a0,-1
	call	ShellPrintHiiEx@plt
	.loc 1 549 23
	li	a5,2
	sw	a5,-28(s0)
	j	.L73
.L94:
	.loc 1 550 19
	ld	a5,-56(s0)
	beq	a5,zero,.L95
	.loc 1 550 46 discriminator 1
	ld	a5,-48(s0)
	beq	a5,zero,.L95
	.loc 1 550 99 discriminator 2
	la	a5,gBS
	ld	a5,0(a5)
	ld	a6,280(a5)
	.loc 1 550 96 discriminator 2
	la	a5,gImageHandle
	ld	a3,0(a5)
	li	a5,4
	li	a4,0
	li	a2,0
	la	a1,gEfiDriverBindingProtocolGuid
	ld	a0,-56(s0)
	jalr	a6
.LVL14:
	mv	a5,a0
	.loc 1 550 75 discriminator 3
	bge	a5,zero,.L95
	.loc 1 551 11
	la	a5,gShellDriver1HiiHandle
	ld	a4,0(a5)
	ld	a6,-72(s0)
	lla	a5,.LC3
	li	a3,7
	li	a2,0
	li	a1,-1
	li	a0,-1
	call	ShellPrintHiiEx@plt
	.loc 1 552 23
	li	a5,2
	sw	a5,-28(s0)
	j	.L73
.L95:
	.loc 1 554 68
	ld	a5,-80(s0)
	lla	a1,.LC2
	mv	a0,a5
	call	ShellCommandLineGetFlag@plt
	mv	a5,a0
	mv	a4,a5
	.loc 1 554 110 discriminator 1
	ld	a5,-40(s0)
	snez	a5,a5
	andi	a5,a5,0xff
	.loc 1 554 20 discriminator 1
	mv	a3,a5
	mv	a2,a4
	ld	a1,-56(s0)
	ld	a0,-48(s0)
	call	ConvertAndConnectControllers
	sd	a0,-24(s0)
	.loc 1 555 42
	ld	a5,-24(s0)
	.loc 1 555 14
	bge	a5,zero,.L73
	.loc 1 556 13
	la	a5,gShellDriver1HiiHandle
	ld	a5,0(a5)
	mv	a4,a5
	li	a3,26
	li	a2,0
	li	a1,-1
	li	a0,-1
	call	ShellPrintHiiEx@plt
	.loc 1 557 25
	li	a5,7
	sw	a5,-28(s0)
.L73:
	.loc 1 563 5
	ld	a5,-80(s0)
	mv	a0,a5
	call	ShellCommandLineFreeVarList@plt
.L66:
	.loc 1 566 10
	lw	a5,-28(s0)
.L96:
	.loc 1 567 1
	mv	a0,a5
	ld	ra,104(sp)
	.cfi_restore 1
	ld	s0,96(sp)
	.cfi_restore 8
	.cfi_def_cfa 2, 112
	addi	sp,sp,112
	.cfi_def_cfa_offset 0
	jr	ra
	.cfi_endproc
.LFE5:
	.size	ShellCommandRunConnect, .-ShellCommandRunConnect
	.text
.Letext0:
	.file 2 "/home/kapoagaeming/Downloads/spacemit-image-builder/components/edk2/MdePkg/Include/RiscV64/ProcessorBind.h"
	.file 3 "/home/kapoagaeming/Downloads/spacemit-image-builder/components/edk2/MdePkg/Include/Base.h"
	.file 4 "/home/kapoagaeming/Downloads/spacemit-image-builder/components/edk2/MdePkg/Include/Uefi/UefiBaseType.h"
	.file 5 "/home/kapoagaeming/Downloads/spacemit-image-builder/components/edk2/MdePkg/Include/Uefi/UefiMultiPhase.h"
	.file 6 "/home/kapoagaeming/Downloads/spacemit-image-builder/components/edk2/MdePkg/Include/Protocol/DevicePath.h"
	.file 7 "/home/kapoagaeming/Downloads/spacemit-image-builder/components/edk2/MdePkg/Include/Protocol/SimpleTextIn.h"
	.file 8 "/home/kapoagaeming/Downloads/spacemit-image-builder/components/edk2/MdePkg/Include/Protocol/SimpleTextOut.h"
	.file 9 "/home/kapoagaeming/Downloads/spacemit-image-builder/components/edk2/MdePkg/Include/Uefi/UefiSpec.h"
	.file 10 "/home/kapoagaeming/Downloads/spacemit-image-builder/components/edk2/MdePkg/Include/Uefi/UefiInternalFormRepresentation.h"
	.file 11 "/home/kapoagaeming/Downloads/spacemit-image-builder/components/Build/Milk-V-Jupiter/RELEASE_GCC5/RISCV64/ShellPkg/Library/UefiShellDriver1CommandsLib/UefiShellDriver1CommandsLib/DEBUG/AutoGen.h"
	.file 12 "/home/kapoagaeming/Downloads/spacemit-image-builder/components/edk2/MdePkg/Include/Protocol/Shell.h"
	.file 13 "/home/kapoagaeming/Downloads/spacemit-image-builder/components/edk2/MdePkg/Include/Protocol/PciIo.h"
	.file 14 "/home/kapoagaeming/Downloads/spacemit-image-builder/components/edk2/MdePkg/Include/Protocol/PciRootBridgeIo.h"
	.file 15 "/home/kapoagaeming/Downloads/spacemit-image-builder/components/edk2/MdePkg/Include/Library/UefiBootServicesTableLib.h"
	.file 16 "/home/kapoagaeming/Downloads/spacemit-image-builder/components/edk2/ShellPkg/Include/Library/ShellLib.h"
	.file 17 "/home/kapoagaeming/Downloads/spacemit-image-builder/components/edk2/MdePkg/Include/Protocol/DriverBinding.h"
	.file 18 "/home/kapoagaeming/Downloads/spacemit-image-builder/components/edk2/MdePkg/Include/Library/UefiRuntimeServicesTableLib.h"
	.file 19 "/home/kapoagaeming/Downloads/spacemit-image-builder/components/edk2/ShellPkg/Library/UefiShellDriver1CommandsLib/UefiShellDriver1CommandsLib.h"
	.file 20 "/home/kapoagaeming/Downloads/spacemit-image-builder/components/edk2/ShellPkg/Include/Library/HandleParsingLib.h"
	.file 21 "/home/kapoagaeming/Downloads/spacemit-image-builder/components/edk2/ShellPkg/Include/Library/ShellCommandLib.h"
	.file 22 "/home/kapoagaeming/Downloads/spacemit-image-builder/components/edk2/MdePkg/Include/Library/DevicePathLib.h"
	.file 23 "/home/kapoagaeming/Downloads/spacemit-image-builder/components/edk2/MdePkg/Include/Library/MemoryAllocationLib.h"
	.section	.note.GNU-stack,"",@progbits
