	.file	"Devices.c"
	.option pic
	.option norelax
	.attribute arch, "rv64i2p1_m2p0_a2p1_f2p2_d2p2_c2p0_zicsr2p0_zifencei2p0_zmmul1p0_zaamo1p0_zalrsc1p0_zca1p0_zcd1p0"
	.attribute unaligned_access, 0
	.attribute stack_align, 16
	.text
.Ltext0:
	.cfi_sections	.debug_frame
	.file 0 "/home/kapoagaeming/Downloads/spacemit-image-builder/components/Build/Milk-V-Jupiter/RELEASE_GCC5/RISCV64/ShellPkg/Library/UefiShellDriver1CommandsLib/UefiShellDriver1CommandsLib" "/home/kapoagaeming/Downloads/spacemit-image-builder/components/edk2/ShellPkg/Library/UefiShellDriver1CommandsLib/Devices.c"
	.section	.text.GetDeviceHandleInfo,"ax",@progbits
	.align	1
	.globl	GetDeviceHandleInfo
	.type	GetDeviceHandleInfo, @function
GetDeviceHandleInfo:
.LFB0:
	.file 1 "/home/kapoagaeming/Downloads/spacemit-image-builder/components/edk2/ShellPkg/Library/UefiShellDriver1CommandsLib/Devices.c"
	.loc 1 50 1
	.cfi_startproc
	addi	sp,sp,-112
	.cfi_def_cfa_offset 112
	sd	ra,104(sp)
	sd	s0,96(sp)
	.cfi_offset 1, -8
	.cfi_offset 8, -16
	addi	s0,sp,112
	.cfi_def_cfa 8, 0
	sd	a0,-56(s0)
	sd	a1,-64(s0)
	sd	a2,-72(s0)
	sd	a3,-80(s0)
	sd	a4,-88(s0)
	sd	a5,-96(s0)
	sd	a6,-104(s0)
	sd	a7,-112(s0)
	.loc 1 55 6
	ld	a5,-56(s0)
	beq	a5,zero,.L2
	.loc 1 56 6
	ld	a5,-64(s0)
	beq	a5,zero,.L2
	.loc 1 57 6
	ld	a5,-72(s0)
	beq	a5,zero,.L2
	.loc 1 58 6
	ld	a5,-80(s0)
	beq	a5,zero,.L2
	.loc 1 59 6
	ld	a5,-88(s0)
	beq	a5,zero,.L2
	.loc 1 60 6
	ld	a5,-96(s0)
	beq	a5,zero,.L2
	.loc 1 61 6
	ld	a5,-104(s0)
	beq	a5,zero,.L2
	.loc 1 62 6
	ld	a5,-112(s0)
	bne	a5,zero,.L3
.L2:
	.loc 1 64 12
	li	a5,-1
	slli	a5,a5,63
	addi	a5,a5,2
	j	.L14
.L3:
	.loc 1 67 8
	ld	a5,-72(s0)
	sb	zero,0(a5)
	.loc 1 68 9
	ld	a5,-80(s0)
	sb	zero,0(a5)
	.loc 1 69 13
	ld	a5,-104(s0)
	sd	zero,0(a5)
	.loc 1 70 12
	ld	a5,-88(s0)
	sd	zero,0(a5)
	.loc 1 71 12
	ld	a5,-96(s0)
	sd	zero,0(a5)
	.loc 1 72 9
	ld	a5,-64(s0)
	li	a4,32
	sh	a4,0(a5)
	.loc 1 73 9
	ld	a5,-112(s0)
	sd	zero,0(a5)
	.loc 1 74 16
	sd	zero,-40(s0)
	.loc 1 75 10
	sd	zero,-32(s0)
	.loc 1 77 20
	la	a5,gEfiShellProtocol
	ld	a5,0(a5)
	ld	a5,168(a5)
	.loc 1 77 3
	ld	a3,-112(s0)
	ld	a2,0(s0)
	li	a1,3
	ld	a0,-56(s0)
	jalr	a5
.LVL0:
	.loc 1 79 12
	li	a2,0
	ld	a1,-104(s0)
	ld	a0,-56(s0)
	call	ParseHandleDatabaseForChildControllers@plt
	sd	a0,-32(s0)
	.loc 1 81 12
	li	a4,0
	ld	a3,-88(s0)
	li	a2,512
	ld	a1,-56(s0)
	li	a0,0
	call	ParseHandleDatabaseByRelationship@plt
	sd	a0,-32(s0)
	.loc 1 82 6
	ld	a5,-88(s0)
	beq	a5,zero,.L5
	.loc 1 82 34 discriminator 1
	ld	a5,-104(s0)
	beq	a5,zero,.L5
	.loc 1 83 9
	ld	a5,-88(s0)
	ld	a5,0(a5)
	.loc 1 83 8
	bne	a5,zero,.L6
	.loc 1 84 13
	ld	a5,-64(s0)
	li	a4,82
	sh	a4,0(a5)
	j	.L5
.L6:
	.loc 1 85 16
	ld	a5,-104(s0)
	ld	a5,0(a5)
	.loc 1 85 15
	beq	a5,zero,.L7
	.loc 1 86 13
	ld	a5,-64(s0)
	li	a4,66
	sh	a4,0(a5)
	j	.L5
.L7:
	.loc 1 88 13
	ld	a5,-64(s0)
	li	a4,68
	sh	a4,0(a5)
.L5:
	.loc 1 93 12
	addi	a5,s0,-40
	mv	a4,a5
	ld	a3,-96(s0)
	li	a2,12
	ld	a1,-56(s0)
	li	a0,0
	call	ParseHandleDatabaseByRelationship@plt
	sd	a0,-32(s0)
	.loc 1 94 7
	ld	a5,-32(s0)
	.loc 1 94 6
	blt	a5,zero,.L8
	.loc 1 94 61 discriminator 1
	ld	a5,-96(s0)
	beq	a5,zero,.L8
	.loc 1 94 107 discriminator 2
	ld	a5,-40(s0)
	.loc 1 94 90 discriminator 2
	beq	a5,zero,.L8
	.loc 1 95 16
	sd	zero,-24(s0)
	.loc 1 95 5
	j	.L9
.L13:
	.loc 1 96 33
	la	a5,gBS
	ld	a5,0(a5)
	ld	a6,280(a5)
	.loc 1 96 61
	ld	a4,-40(s0)
	ld	a5,-24(s0)
	slli	a5,a5,3
	add	a5,a4,a5
	.loc 1 96 30
	ld	a0,0(a5)
	la	a5,gImageHandle
	ld	a4,0(a5)
	li	a5,4
	li	a3,0
	li	a2,0
	la	a1,gEfiDriverConfigurationProtocolGuid
	jalr	a6
.LVL1:
	mv	a5,a0
	.loc 1 96 10 discriminator 1
	blt	a5,zero,.L10
	.loc 1 97 14
	ld	a5,-72(s0)
	li	a4,1
	sb	a4,0(a5)
.L10:
	.loc 1 100 33
	la	a5,gBS
	ld	a5,0(a5)
	ld	a6,280(a5)
	.loc 1 100 61
	ld	a4,-40(s0)
	ld	a5,-24(s0)
	slli	a5,a5,3
	add	a5,a4,a5
	.loc 1 100 30
	ld	a0,0(a5)
	la	a5,gImageHandle
	ld	a4,0(a5)
	li	a5,4
	li	a3,0
	li	a2,0
	la	a1,gEfiDriverDiagnosticsProtocolGuid
	jalr	a6
.LVL2:
	mv	a5,a0
	.loc 1 100 10 discriminator 1
	blt	a5,zero,.L11
	.loc 1 101 15
	ld	a5,-80(s0)
	li	a4,1
	sb	a4,0(a5)
.L11:
	.loc 1 104 33
	la	a5,gBS
	ld	a5,0(a5)
	ld	a6,280(a5)
	.loc 1 104 61
	ld	a4,-40(s0)
	ld	a5,-24(s0)
	slli	a5,a5,3
	add	a5,a4,a5
	.loc 1 104 30
	ld	a0,0(a5)
	la	a5,gImageHandle
	ld	a4,0(a5)
	li	a5,4
	li	a3,0
	li	a2,0
	la	a1,gEfiDriverDiagnostics2ProtocolGuid
	jalr	a6
.LVL3:
	mv	a5,a0
	.loc 1 104 10 discriminator 1
	blt	a5,zero,.L12
	.loc 1 105 15
	ld	a5,-80(s0)
	li	a4,1
	sb	a4,0(a5)
.L12:
	.loc 1 95 44 discriminator 2
	ld	a5,-24(s0)
	addi	a5,a5,1
	sd	a5,-24(s0)
.L9:
	.loc 1 95 29 discriminator 1
	ld	a5,-96(s0)
	ld	a5,0(a5)
	.loc 1 95 27 discriminator 1
	ld	a4,-24(s0)
	bltu	a4,a5,.L13
	.loc 1 109 29
	ld	a5,-40(s0)
	.loc 1 109 13
	beq	a5,zero,.L8
	.loc 1 109 48 discriminator 1
	ld	a5,-40(s0)
	mv	a0,a5
	call	FreePool@plt
	.loc 1 109 89 discriminator 2
	sd	zero,-40(s0)
.L8:
	.loc 1 112 10
	ld	a5,-32(s0)
.L14:
	.loc 1 113 1
	mv	a0,a5
	ld	ra,104(sp)
	.cfi_restore 1
	ld	s0,96(sp)
	.cfi_restore 8
	.cfi_def_cfa 2, 112
	addi	sp,sp,112
	.cfi_def_cfa_offset 0
	jr	ra
	.cfi_endproc
.LFE0:
	.size	GetDeviceHandleInfo, .-GetDeviceHandleInfo
	.section	.rodata
	.align	3
.LC0:
	.string	"-"
	.string	"s"
	.string	"f"
	.string	"o"
	.zero	2
	.align	3
.LC1:
	.string	"-"
	.string	"l"
	.zero	2
	.section	.data.rel.ro.local.ParamList,"aw"
	.align	3
	.type	ParamList, @object
	.size	ParamList, 48
ParamList:
	.dword	.LC0
	.word	0
	.zero	4
	.dword	.LC1
	.word	1
	.zero	4
	.dword	0
	.word	7
	.zero	4
	.section	.rodata
	.align	3
.LC2:
	.string	"d"
	.string	"e"
	.string	"v"
	.string	"i"
	.string	"c"
	.string	"e"
	.string	"s"
	.zero	2
	.align	3
.LC3:
	.string	"%S"
	.align	3
.LC4:
	.string	"<"
	.string	"U"
	.string	"N"
	.string	"K"
	.string	"N"
	.string	"O"
	.string	"W"
	.string	"N"
	.string	">"
	.zero	2
	.section	.text.ShellCommandRunDevices,"ax",@progbits
	.align	1
	.globl	ShellCommandRunDevices
	.type	ShellCommandRunDevices, @function
ShellCommandRunDevices:
.LFB1:
	.loc 1 133 1
	.cfi_startproc
	addi	sp,sp,-208
	.cfi_def_cfa_offset 208
	sd	ra,200(sp)
	sd	s0,192(sp)
	sd	s1,184(sp)
	sd	s2,176(sp)
	.cfi_offset 1, -8
	.cfi_offset 8, -16
	.cfi_offset 9, -24
	.cfi_offset 18, -32
	addi	s0,sp,208
	.cfi_def_cfa 8, 0
	sd	a0,-152(s0)
	sd	a1,-160(s0)
	.loc 1 151 15
	sw	zero,-36(s0)
	.loc 1 152 12
	sd	zero,-48(s0)
	.loc 1 153 11
	sb	zero,-57(s0)
	.loc 1 158 12
	call	ShellInitialize@plt
	sd	a0,-72(s0)
	.loc 1 161 12
	call	CommandInit@plt
	sd	a0,-72(s0)
	.loc 1 167 12
	addi	a2,s0,-104
	addi	a5,s0,-96
	li	a4,0
	li	a3,1
	mv	a1,a5
	lla	a0,ParamList
	call	ShellCommandLineParseEx@plt
	sd	a0,-72(s0)
	.loc 1 168 34
	ld	a5,-72(s0)
	.loc 1 168 6
	bge	a5,zero,.L16
	.loc 1 169 8
	ld	a4,-72(s0)
	li	a5,-1
	slli	a5,a5,63
	addi	a5,a5,10
	bne	a4,a5,.L17
	.loc 1 169 86 discriminator 1
	ld	a5,-104(s0)
	.loc 1 169 69 discriminator 1
	beq	a5,zero,.L17
	.loc 1 170 7
	la	a5,gShellDriver1HiiHandle
	ld	a4,0(a5)
	ld	a5,-104(s0)
	mv	a6,a5
	lla	a5,.LC2
	li	a3,2
	li	a2,0
	li	a1,-1
	li	a0,-1
	call	ShellPrintHiiEx@plt
	.loc 1 171 7
	ld	a5,-104(s0)
	mv	a0,a5
	call	FreePool@plt
	.loc 1 172 19
	li	a5,2
	sw	a5,-36(s0)
	j	.L17
.L16:
	.loc 1 180 9
	ld	a5,-96(s0)
	li	a1,1
	mv	a0,a5
	call	ShellCommandLineGetRawValue@plt
	mv	a5,a0
	.loc 1 180 8 discriminator 1
	beq	a5,zero,.L18
	.loc 1 184 7
	la	a5,gShellDriver1HiiHandle
	ld	a4,0(a5)
	lla	a5,.LC2
	li	a3,6
	li	a2,0
	li	a1,-1
	li	a0,-1
	call	ShellPrintHiiEx@plt
	.loc 1 185 19
	li	a5,2
	sw	a5,-36(s0)
	j	.L19
.L18:
	.loc 1 190 14
	ld	a5,-96(s0)
	lla	a1,.LC1
	mv	a0,a5
	call	ShellCommandLineGetValue@plt
	sd	a0,-80(s0)
	.loc 1 191 10
	ld	a5,-80(s0)
	beq	a5,zero,.L20
	.loc 1 192 20
	ld	a0,-80(s0)
	call	StrSize@plt
	mv	a5,a0
	.loc 1 192 20 is_stmt 0 discriminator 1
	mv	a0,a5
	call	AllocateZeroPool@plt
	sd	a0,-48(s0)
	.loc 1 193 12 is_stmt 1
	ld	a5,-48(s0)
	bne	a5,zero,.L21
	.loc 1 194 11
	la	a5,gShellDriver1HiiHandle
	ld	a4,0(a5)
	lla	a5,.LC2
	li	a3,18
	li	a2,0
	li	a1,-1
	li	a0,-1
	call	ShellPrintHiiEx@plt
	.loc 1 195 11
	ld	a5,-96(s0)
	mv	a0,a5
	call	ShellCommandLineFreeVarList@plt
	.loc 1 196 18
	li	a5,9
	j	.L46
.L21:
	.loc 1 199 9
	ld	a0,-80(s0)
	call	StrSize@plt
	mv	a5,a0
	.loc 1 199 9 is_stmt 0 discriminator 1
	ld	a3,-80(s0)
	lla	a2,.LC3
	mv	a1,a5
	ld	a0,-48(s0)
	call	AsciiSPrint@plt
	j	.L23
.L20:
	.loc 1 200 19 is_stmt 1
	ld	a5,-96(s0)
	lla	a1,.LC1
	mv	a0,a5
	call	ShellCommandLineGetFlag@plt
	mv	a5,a0
	.loc 1 200 17 discriminator 1
	beq	a5,zero,.L23
	.loc 1 206 9
	la	a5,gShellDriver1HiiHandle
	ld	a4,0(a5)
	lla	a6,.LC1
	lla	a5,.LC2
	li	a3,9
	li	a2,0
	li	a1,-1
	li	a0,-1
	call	ShellPrintHiiEx@plt
	.loc 1 207 9
	ld	a5,-96(s0)
	mv	a0,a5
	call	ShellCommandLineFreeVarList@plt
	.loc 1 208 16
	li	a5,2
	j	.L46
.L23:
	.loc 1 215 11
	ld	a5,-96(s0)
	lla	a1,.LC0
	mv	a0,a5
	call	ShellCommandLineGetFlag@plt
	mv	a5,a0
	.loc 1 215 10 discriminator 1
	beq	a5,zero,.L24
	.loc 1 216 9
	la	a5,gShellDriver1HiiHandle
	ld	a4,0(a5)
	lla	a5,.LC2
	li	a3,20
	ld	a2,-48(s0)
	li	a1,-1
	li	a0,-1
	call	ShellPrintHiiEx@plt
	.loc 1 217 17
	li	a5,1
	sb	a5,-57(s0)
	j	.L25
.L24:
	.loc 1 219 9
	la	a5,gShellDriver1HiiHandle
	ld	a5,0(a5)
	mv	a4,a5
	li	a3,50
	ld	a2,-48(s0)
	li	a1,-1
	li	a0,-1
	call	ShellPrintHiiEx@plt
.L25:
	.loc 1 225 20
	li	a0,0
	call	GetHandleListByProtocol@plt
	sd	a0,-88(s0)
	.loc 1 227 29
	ld	a5,-88(s0)
	sd	a5,-56(s0)
	.loc 1 227 7
	j	.L26
.L44:
	.loc 1 235 14
	sd	zero,-144(s0)
	.loc 1 236 18
	ld	a5,-56(s0)
	ld	a0,0(a5)
	addi	a7,s0,-144
	addi	a6,s0,-136
	addi	t1,s0,-128
	addi	a4,s0,-120
	addi	a3,s0,-108
	addi	a2,s0,-107
	addi	a1,s0,-106
	ld	a5,-48(s0)
	sd	a5,0(sp)
	mv	a5,t1
	call	GetDeviceHandleInfo
	sd	a0,-72(s0)
	.loc 1 237 19
	ld	a5,-144(s0)
	.loc 1 237 12
	beq	a5,zero,.L27
	.loc 1 237 49 discriminator 1
	ld	a5,-120(s0)
	.loc 1 237 36 discriminator 1
	bne	a5,zero,.L28
	.loc 1 237 67 discriminator 2
	ld	a5,-128(s0)
	.loc 1 237 55 discriminator 2
	bne	a5,zero,.L28
	.loc 1 237 86 discriminator 3
	ld	a5,-136(s0)
	.loc 1 237 73 discriminator 3
	beq	a5,zero,.L27
.L28:
	.loc 1 238 11
	lbu	a5,-57(s0)
	andi	a5,a5,0xff
	beq	a5,zero,.L29
	.loc 1 238 11 is_stmt 0 discriminator 1
	li	s1,52
	j	.L30
.L29:
	.loc 1 238 11 discriminator 2
	li	s1,51
.L30:
	.loc 1 238 11 discriminator 4
	la	a5,gShellDriver1HiiHandle
	ld	s2,0(a5)
	ld	a5,-56(s0)
	ld	a5,0(a5)
	mv	a0,a5
	call	ConvertHandleToHandleIndex@plt
	mv	t1,a0
	.loc 1 238 11 discriminator 5
	lhu	a5,-106(s0)
	sext.w	a6,a5
	.loc 1 246 17 is_stmt 1
	lbu	a5,-107(s0)
	.loc 1 238 11 discriminator 4
	beq	a5,zero,.L31
	.loc 1 246 35
	lbu	a5,-57(s0)
	andi	a5,a5,0xff
	beq	a5,zero,.L32
	.loc 1 238 11
	li	a4,89
	j	.L33
.L32:
	li	a4,88
	j	.L33
.L31:
	.loc 1 246 61
	lbu	a5,-57(s0)
	andi	a5,a5,0xff
	beq	a5,zero,.L34
	.loc 1 238 11
	li	a4,78
	j	.L33
.L34:
	.loc 1 238 11 is_stmt 0 discriminator 7
	li	a4,45
.L33:
	.loc 1 247 18 is_stmt 1
	lbu	a5,-108(s0)
	.loc 1 238 11 discriminator 6
	beq	a5,zero,.L35
	.loc 1 247 36
	lbu	a5,-57(s0)
	andi	a5,a5,0xff
	beq	a5,zero,.L36
	.loc 1 238 11
	li	a5,89
	j	.L37
.L36:
	li	a5,88
	j	.L37
.L35:
	.loc 1 247 62
	lbu	a5,-57(s0)
	andi	a5,a5,0xff
	beq	a5,zero,.L38
	.loc 1 238 11
	li	a5,78
	j	.L37
.L38:
	.loc 1 238 11 is_stmt 0 discriminator 9
	li	a5,45
.L37:
	.loc 1 238 11 discriminator 8
	ld	a2,-120(s0)
	ld	a1,-128(s0)
	ld	a0,-136(s0)
	.loc 1 251 18 is_stmt 1
	ld	a3,-144(s0)
	.loc 1 238 11 discriminator 8
	beq	a3,zero,.L39
	.loc 1 238 11 is_stmt 0 discriminator 10
	ld	a3,-144(s0)
	j	.L40
.L39:
	.loc 1 238 11 discriminator 11
	lla	a3,.LC4
.L40:
	.loc 1 238 11 discriminator 13
	sd	a3,32(sp)
	sd	a0,24(sp)
	sd	a1,16(sp)
	sd	a2,8(sp)
	sd	a5,0(sp)
	mv	a7,a4
	mv	a5,t1
	mv	a4,s2
	mv	a3,s1
	ld	a2,-48(s0)
	li	a1,-1
	li	a0,-1
	call	ShellPrintHiiEx@plt
.L27:
	.loc 1 255 18 is_stmt 1
	ld	a5,-144(s0)
	.loc 1 255 12
	beq	a5,zero,.L41
	.loc 1 256 11
	ld	a5,-144(s0)
	mv	a0,a5
	call	FreePool@plt
.L41:
	.loc 1 259 13
	call	ShellGetExecutionBreakFlag@plt
	mv	a5,a0
	.loc 1 259 12 discriminator 1
	beq	a5,zero,.L42
	.loc 1 260 23
	li	a5,21
	sw	a5,-36(s0)
	.loc 1 261 11
	j	.L43
.L42:
	.loc 1 229 30
	ld	a5,-56(s0)
	addi	a5,a5,8
	sd	a5,-56(s0)
.L26:
	.loc 1 228 47
	ld	a5,-56(s0)
	beq	a5,zero,.L43
	.loc 1 228 50 discriminator 1
	ld	a5,-56(s0)
	ld	a5,0(a5)
	.loc 1 228 47 discriminator 1
	bne	a5,zero,.L44
.L43:
	.loc 1 265 10
	ld	a5,-88(s0)
	beq	a5,zero,.L19
	.loc 1 266 9
	ld	a0,-88(s0)
	call	FreePool@plt
.L19:
	.loc 1 270 13
	ld	a5,-48(s0)
	beq	a5,zero,.L45
	.loc 1 270 44 discriminator 1
	ld	a0,-48(s0)
	call	FreePool@plt
	.loc 1 270 77 discriminator 2
	sd	zero,-48(s0)
.L45:
	.loc 1 271 5
	ld	a5,-96(s0)
	mv	a0,a5
	call	ShellCommandLineFreeVarList@plt
.L17:
	.loc 1 274 10
	lw	a5,-36(s0)
.L46:
	.loc 1 275 1
	mv	a0,a5
	ld	ra,200(sp)
	.cfi_restore 1
	ld	s0,192(sp)
	.cfi_restore 8
	.cfi_def_cfa 2, 208
	ld	s1,184(sp)
	.cfi_restore 9
	ld	s2,176(sp)
	.cfi_restore 18
	addi	sp,sp,208
	.cfi_def_cfa_offset 0
	jr	ra
	.cfi_endproc
.LFE1:
	.size	ShellCommandRunDevices, .-ShellCommandRunDevices
	.text
.Letext0:
	.file 2 "/home/kapoagaeming/Downloads/spacemit-image-builder/components/edk2/MdePkg/Include/RiscV64/ProcessorBind.h"
	.file 3 "/home/kapoagaeming/Downloads/spacemit-image-builder/components/edk2/MdePkg/Include/Base.h"
	.file 4 "/home/kapoagaeming/Downloads/spacemit-image-builder/components/edk2/MdePkg/Include/Uefi/UefiBaseType.h"
	.file 5 "/home/kapoagaeming/Downloads/spacemit-image-builder/components/edk2/MdePkg/Include/Uefi/UefiMultiPhase.h"
	.file 6 "/home/kapoagaeming/Downloads/spacemit-image-builder/components/edk2/MdePkg/Include/Protocol/DevicePath.h"
	.file 7 "/home/kapoagaeming/Downloads/spacemit-image-builder/components/edk2/MdePkg/Include/Protocol/SimpleTextIn.h"
	.file 8 "/home/kapoagaeming/Downloads/spacemit-image-builder/components/edk2/MdePkg/Include/Protocol/SimpleTextOut.h"
	.file 9 "/home/kapoagaeming/Downloads/spacemit-image-builder/components/edk2/MdePkg/Include/Uefi/UefiSpec.h"
	.file 10 "/home/kapoagaeming/Downloads/spacemit-image-builder/components/edk2/MdePkg/Include/Uefi/UefiInternalFormRepresentation.h"
	.file 11 "/home/kapoagaeming/Downloads/spacemit-image-builder/components/edk2/MdePkg/Include/Guid/FileInfo.h"
	.file 12 "/home/kapoagaeming/Downloads/spacemit-image-builder/components/edk2/MdePkg/Include/Protocol/Shell.h"
	.file 13 "/home/kapoagaeming/Downloads/spacemit-image-builder/components/edk2/MdePkg/Include/Protocol/DriverDiagnostics.h"
	.file 14 "/home/kapoagaeming/Downloads/spacemit-image-builder/components/edk2/MdePkg/Include/Protocol/DriverDiagnostics2.h"
	.file 15 "/home/kapoagaeming/Downloads/spacemit-image-builder/components/edk2/MdePkg/Include/Library/UefiBootServicesTableLib.h"
	.file 16 "/home/kapoagaeming/Downloads/spacemit-image-builder/components/edk2/ShellPkg/Include/Library/ShellLib.h"
	.file 17 "/home/kapoagaeming/Downloads/spacemit-image-builder/components/edk2/MdePkg/Include/Protocol/DriverConfiguration.h"
	.file 18 "/home/kapoagaeming/Downloads/spacemit-image-builder/components/edk2/ShellPkg/Library/UefiShellDriver1CommandsLib/UefiShellDriver1CommandsLib.h"
	.file 19 "/home/kapoagaeming/Downloads/spacemit-image-builder/components/edk2/ShellPkg/Include/Library/HandleParsingLib.h"
	.file 20 "/home/kapoagaeming/Downloads/spacemit-image-builder/components/edk2/MdePkg/Include/Library/PrintLib.h"
	.file 21 "/home/kapoagaeming/Downloads/spacemit-image-builder/components/edk2/MdePkg/Include/Library/MemoryAllocationLib.h"
	.file 22 "/home/kapoagaeming/Downloads/spacemit-image-builder/components/edk2/MdePkg/Include/Library/BaseLib.h"
	.file 23 "/home/kapoagaeming/Downloads/spacemit-image-builder/components/edk2/ShellPkg/Include/Library/ShellCommandLib.h"
	.section	.note.GNU-stack,"",@progbits
