	.file	"Drivers.c"
	.option pic
	.option norelax
	.attribute arch, "rv64i2p1_m2p0_a2p1_f2p2_d2p2_c2p0_zicsr2p0_zifencei2p0_zmmul1p0_zaamo1p0_zalrsc1p0_zca1p0_zcd1p0"
	.attribute unaligned_access, 0
	.attribute stack_align, 16
	.text
.Ltext0:
	.cfi_sections	.debug_frame
	.file 0 "/home/kapoagaeming/Downloads/spacemit-image-builder/components/Build/Milk-V-Jupiter/RELEASE_GCC5/RISCV64/ShellPkg/Library/UefiShellDriver1CommandsLib/UefiShellDriver1CommandsLib" "/home/kapoagaeming/Downloads/spacemit-image-builder/components/edk2/ShellPkg/Library/UefiShellDriver1CommandsLib/Drivers.c"
	.section	.rodata
	.align	3
.LC0:
	.string	"-"
	.string	"s"
	.string	"f"
	.string	"o"
	.zero	2
	.align	3
.LC1:
	.string	"-"
	.string	"l"
	.zero	2
	.section	.data.rel.ro.local.ParamList,"aw"
	.align	3
	.type	ParamList, @object
	.size	ParamList, 48
ParamList:
	.dword	.LC0
	.word	0
	.zero	4
	.dword	.LC1
	.word	1
	.zero	4
	.dword	0
	.word	7
	.zero	4
	.section	.text.GetDevicePathTextForHandle,"ax",@progbits
	.align	1
	.globl	GetDevicePathTextForHandle
	.type	GetDevicePathTextForHandle, @function
GetDevicePathTextForHandle:
.LFB0:
	.file 1 "/home/kapoagaeming/Downloads/spacemit-image-builder/components/edk2/ShellPkg/Library/UefiShellDriver1CommandsLib/Drivers.c"
	.loc 1 33 1
	.cfi_startproc
	addi	sp,sp,-80
	.cfi_def_cfa_offset 80
	sd	ra,72(sp)
	sd	s0,64(sp)
	.cfi_offset 1, -8
	.cfi_offset 8, -16
	addi	s0,sp,80
	.cfi_def_cfa 8, 0
	sd	a0,-72(s0)
	.loc 1 40 13
	sd	zero,-24(s0)
	.loc 1 42 15
	la	a5,gBS
	ld	a5,0(a5)
	ld	a6,280(a5)
	.loc 1 42 12
	la	a5,gImageHandle
	ld	a3,0(a5)
	addi	a2,s0,-48
	li	a5,2
	li	a4,0
	la	a1,gEfiLoadedImageProtocolGuid
	ld	a0,-72(s0)
	jalr	a6
.LVL0:
	sd	a0,-40(s0)
	.loc 1 50 7
	ld	a5,-40(s0)
	.loc 1 50 6
	blt	a5,zero,.L2
	.loc 1 51 17
	la	a5,gBS
	ld	a5,0(a5)
	ld	a6,280(a5)
	.loc 1 52 32
	ld	a5,-48(s0)
	.loc 1 51 14
	ld	a0,24(a5)
	la	a5,gImageHandle
	ld	a3,0(a5)
	addi	a2,s0,-56
	li	a5,2
	li	a4,0
	la	a1,gEfiDevicePathProtocolGuid
	jalr	a6
.LVL1:
	sd	a0,-40(s0)
	.loc 1 59 9
	ld	a5,-40(s0)
	.loc 1 59 8
	blt	a5,zero,.L3
	.loc 1 60 19
	ld	a4,-56(s0)
	.loc 1 60 65
	ld	a5,-48(s0)
	ld	a5,32(a5)
	.loc 1 60 19
	mv	a1,a5
	mv	a0,a4
	call	AppendDevicePath@plt
	sd	a0,-24(s0)
	.loc 1 61 10
	la	a5,gBS
	ld	a5,0(a5)
	ld	a5,288(a5)
	.loc 1 62 25
	ld	a4,-48(s0)
	.loc 1 61 7
	ld	a0,24(a4)
	la	a4,gImageHandle
	ld	a4,0(a4)
	li	a3,0
	mv	a2,a4
	la	a1,gEfiDevicePathProtocolGuid
	jalr	a5
.LVL2:
.L3:
	.loc 1 69 8
	la	a5,gBS
	ld	a5,0(a5)
	ld	a5,288(a5)
	.loc 1 69 5
	la	a4,gImageHandle
	ld	a4,0(a4)
	li	a3,0
	mv	a2,a4
	la	a1,gEfiLoadedImageProtocolGuid
	ld	a0,-72(s0)
	jalr	a5
.LVL3:
.L2:
	.loc 1 77 6
	ld	a5,-24(s0)
	bne	a5,zero,.L4
	.loc 1 78 12
	li	a5,0
	j	.L7
.L4:
	.loc 1 81 29
	la	a5,gEfiShellProtocol
	ld	a5,0(a5)
	ld	a5,72(a5)
	.loc 1 81 12
	ld	a0,-24(s0)
	jalr	a5
.LVL4:
	sd	a0,-32(s0)
	.loc 1 82 6
	ld	a5,-32(s0)
	bne	a5,zero,.L6
	.loc 1 83 14
	li	a2,1
	li	a1,1
	ld	a0,-24(s0)
	call	ConvertDevicePathToText@plt
	sd	a0,-32(s0)
.L6:
	.loc 1 86 3
	ld	a0,-24(s0)
	call	FreePool@plt
	.loc 1 87 10
	ld	a5,-32(s0)
.L7:
	.loc 1 88 1
	mv	a0,a5
	ld	ra,72(sp)
	.cfi_restore 1
	ld	s0,64(sp)
	.cfi_restore 8
	.cfi_def_cfa 2, 80
	addi	sp,sp,80
	.cfi_def_cfa_offset 0
	jr	ra
	.cfi_endproc
.LFE0:
	.size	GetDevicePathTextForHandle, .-GetDevicePathTextForHandle
	.section	.text.ReturnDriverConfig,"ax",@progbits
	.align	1
	.globl	ReturnDriverConfig
	.type	ReturnDriverConfig, @function
ReturnDriverConfig:
.LFB1:
	.loc 1 102 1
	.cfi_startproc
	addi	sp,sp,-48
	.cfi_def_cfa_offset 48
	sd	ra,40(sp)
	sd	s0,32(sp)
	.cfi_offset 1, -8
	.cfi_offset 8, -16
	addi	s0,sp,48
	.cfi_def_cfa 8, 0
	sd	a0,-40(s0)
	.loc 1 105 15
	la	a5,gBS
	ld	a5,0(a5)
	ld	a6,280(a5)
	.loc 1 105 12
	la	a5,gImageHandle
	ld	a3,0(a5)
	li	a5,4
	li	a4,0
	li	a2,0
	la	a1,gEfiDriverConfigurationProtocolGuid
	ld	a0,-40(s0)
	jalr	a6
.LVL5:
	sd	a0,-24(s0)
	.loc 1 106 34
	ld	a5,-24(s0)
	.loc 1 106 6
	bge	a5,zero,.L9
	.loc 1 107 12
	li	a5,0
	j	.L10
.L9:
	.loc 1 110 10
	li	a5,1
.L10:
	.loc 1 111 1
	mv	a0,a5
	ld	ra,40(sp)
	.cfi_restore 1
	ld	s0,32(sp)
	.cfi_restore 8
	.cfi_def_cfa 2, 48
	addi	sp,sp,48
	.cfi_def_cfa_offset 0
	jr	ra
	.cfi_endproc
.LFE1:
	.size	ReturnDriverConfig, .-ReturnDriverConfig
	.section	.text.ReturnDriverDiag,"ax",@progbits
	.align	1
	.globl	ReturnDriverDiag
	.type	ReturnDriverDiag, @function
ReturnDriverDiag:
.LFB2:
	.loc 1 125 1
	.cfi_startproc
	addi	sp,sp,-48
	.cfi_def_cfa_offset 48
	sd	ra,40(sp)
	sd	s0,32(sp)
	.cfi_offset 1, -8
	.cfi_offset 8, -16
	addi	s0,sp,48
	.cfi_def_cfa 8, 0
	sd	a0,-40(s0)
	.loc 1 128 15
	la	a5,gBS
	ld	a5,0(a5)
	ld	a6,280(a5)
	.loc 1 128 12
	la	a5,gImageHandle
	ld	a3,0(a5)
	li	a5,4
	li	a4,0
	li	a2,0
	la	a1,gEfiDriverDiagnostics2ProtocolGuid
	ld	a0,-40(s0)
	jalr	a6
.LVL6:
	sd	a0,-24(s0)
	.loc 1 129 34
	ld	a5,-24(s0)
	.loc 1 129 6
	bge	a5,zero,.L12
	.loc 1 130 17
	la	a5,gBS
	ld	a5,0(a5)
	ld	a6,280(a5)
	.loc 1 130 14
	la	a5,gImageHandle
	ld	a3,0(a5)
	li	a5,4
	li	a4,0
	li	a2,0
	la	a1,gEfiDriverDiagnosticsProtocolGuid
	ld	a0,-40(s0)
	jalr	a6
.LVL7:
	sd	a0,-24(s0)
	.loc 1 131 36
	ld	a5,-24(s0)
	.loc 1 131 8
	bge	a5,zero,.L12
	.loc 1 132 14
	li	a5,0
	j	.L13
.L12:
	.loc 1 136 10
	li	a5,1
.L13:
	.loc 1 137 1
	mv	a0,a5
	ld	ra,40(sp)
	.cfi_restore 1
	ld	s0,32(sp)
	.cfi_restore 8
	.cfi_def_cfa 2, 48
	addi	sp,sp,48
	.cfi_def_cfa_offset 0
	jr	ra
	.cfi_endproc
.LFE2:
	.size	ReturnDriverDiag, .-ReturnDriverDiag
	.section	.text.ReturnDriverVersion,"ax",@progbits
	.align	1
	.globl	ReturnDriverVersion
	.type	ReturnDriverVersion, @function
ReturnDriverVersion:
.LFB3:
	.loc 1 151 1
	.cfi_startproc
	addi	sp,sp,-64
	.cfi_def_cfa_offset 64
	sd	ra,56(sp)
	sd	s0,48(sp)
	.cfi_offset 1, -8
	.cfi_offset 8, -16
	addi	s0,sp,64
	.cfi_def_cfa 8, 0
	sd	a0,-56(s0)
	.loc 1 156 10
	li	a5,-1
	sw	a5,-20(s0)
	.loc 1 158 15
	la	a5,gBS
	ld	a5,0(a5)
	ld	a6,280(a5)
	.loc 1 158 12
	la	a5,gImageHandle
	ld	a3,0(a5)
	addi	a2,s0,-40
	li	a5,2
	li	a4,0
	la	a1,gEfiDriverBindingProtocolGuid
	ld	a0,-56(s0)
	jalr	a6
.LVL8:
	sd	a0,-32(s0)
	.loc 1 159 7
	ld	a5,-32(s0)
	.loc 1 159 6
	blt	a5,zero,.L15
	.loc 1 160 27
	ld	a5,-40(s0)
	.loc 1 160 12
	lw	a5,24(a5)
	sw	a5,-20(s0)
	.loc 1 161 8
	la	a5,gBS
	ld	a5,0(a5)
	ld	a5,288(a5)
	.loc 1 161 5
	la	a4,gImageHandle
	ld	a4,0(a4)
	li	a3,0
	mv	a2,a4
	la	a1,gEfiDriverBindingProtocolGuid
	ld	a0,-56(s0)
	jalr	a5
.LVL9:
.L15:
	.loc 1 164 10
	lw	a5,-20(s0)
	.loc 1 165 1
	mv	a0,a5
	ld	ra,56(sp)
	.cfi_restore 1
	ld	s0,48(sp)
	.cfi_restore 8
	.cfi_def_cfa 2, 64
	addi	sp,sp,64
	.cfi_def_cfa_offset 0
	jr	ra
	.cfi_endproc
.LFE3:
	.size	ReturnDriverVersion, .-ReturnDriverVersion
	.section	.text.GetImageNameFromHandle,"ax",@progbits
	.align	1
	.globl	GetImageNameFromHandle
	.type	GetImageNameFromHandle, @function
GetImageNameFromHandle:
.LFB4:
	.loc 1 178 1
	.cfi_startproc
	addi	sp,sp,-112
	.cfi_def_cfa_offset 112
	sd	ra,104(sp)
	sd	s0,96(sp)
	.cfi_offset 1, -8
	.cfi_offset 8, -16
	addi	s0,sp,112
	.cfi_def_cfa 8, 0
	sd	a0,-104(s0)
	.loc 1 189 15
	sd	zero,-56(s0)
	.loc 1 190 17
	sd	zero,-48(s0)
	.loc 1 191 13
	sd	zero,-64(s0)
	.loc 1 193 15
	la	a5,gBS
	ld	a5,0(a5)
	ld	a6,280(a5)
	.loc 1 193 12
	addi	a2,s0,-48
	li	a5,2
	li	a4,0
	li	a3,0
	la	a1,gEfiDriverBindingProtocolGuid
	ld	a0,-104(s0)
	jalr	a6
.LVL10:
	sd	a0,-32(s0)
	.loc 1 201 34
	ld	a5,-32(s0)
	.loc 1 201 6
	bge	a5,zero,.L18
	.loc 1 202 12
	li	a5,0
	j	.L27
.L18:
	.loc 1 205 15
	la	a5,gBS
	ld	a5,0(a5)
	ld	a6,280(a5)
	.loc 1 206 32
	ld	a5,-48(s0)
	.loc 1 205 12
	ld	a0,32(a5)
	la	a5,gImageHandle
	ld	a3,0(a5)
	addi	a2,s0,-56
	li	a5,2
	li	a4,0
	la	a1,gEfiLoadedImageProtocolGuid
	jalr	a6
.LVL11:
	sd	a0,-32(s0)
	.loc 1 213 7
	ld	a5,-32(s0)
	.loc 1 213 6
	blt	a5,zero,.L20
	.loc 1 214 30
	ld	a5,-56(s0)
	.loc 1 214 17
	ld	a5,32(a5)
	sd	a5,-24(s0)
	.loc 1 215 8
	ld	a5,-24(s0)
	bne	a5,zero,.L22
	.loc 1 216 14
	li	a5,0
	j	.L27
.L26:
	.loc 1 220 18
	ld	a0,-24(s0)
	call	EfiGetNameGuidFromFwVolDevicePathNode@plt
	sd	a0,-40(s0)
	.loc 1 221 10
	ld	a5,-40(s0)
	beq	a5,zero,.L23
	.loc 1 222 21
	la	a5,gBS
	ld	a5,0(a5)
	ld	a5,152(a5)
	.loc 1 223 36
	ld	a4,-56(s0)
	.loc 1 222 18
	ld	a4,24(a4)
	addi	a3,s0,-88
	mv	a2,a3
	la	a1,gEfiFirmwareVolume2ProtocolGuid
	mv	a0,a4
	jalr	a5
.LVL12:
	sd	a0,-32(s0)
	.loc 1 227 13
	ld	a5,-32(s0)
	.loc 1 227 12
	blt	a5,zero,.L23
	.loc 1 228 23
	ld	a5,-88(s0)
	ld	a7,24(a5)
	.loc 1 228 20
	ld	a0,-88(s0)
	addi	a3,s0,-76
	addi	a5,s0,-72
	addi	a4,s0,-64
	mv	a6,a3
	li	a3,0
	li	a2,21
	ld	a1,-40(s0)
	jalr	a7
.LVL13:
	sd	a0,-32(s0)
	.loc 1 237 15
	ld	a5,-32(s0)
	.loc 1 237 14
	bge	a5,zero,.L28
	.loc 1 241 21
	sd	zero,-64(s0)
.L23:
	.loc 1 248 21
	ld	a0,-24(s0)
	call	NextDevicePathNode@plt
	sd	a0,-24(s0)
.L22:
	.loc 1 219 13
	ld	a0,-24(s0)
	call	IsDevicePathEnd@plt
	mv	a5,a0
	.loc 1 219 12 discriminator 1
	beq	a5,zero,.L26
	j	.L25
.L28:
	.loc 1 238 13
	nop
.L25:
	.loc 1 251 19
	ld	a5,-64(s0)
	.loc 1 251 8
	bne	a5,zero,.L20
	.loc 1 252 55
	ld	a5,-56(s0)
	ld	a5,32(a5)
	.loc 1 252 19
	li	a2,1
	li	a1,1
	mv	a0,a5
	call	ConvertDevicePathToText@plt
	mv	a5,a0
	.loc 1 252 17 discriminator 1
	sd	a5,-64(s0)
.L20:
	.loc 1 256 10
	ld	a5,-64(s0)
.L27:
	.loc 1 257 1
	mv	a0,a5
	ld	ra,104(sp)
	.cfi_restore 1
	ld	s0,96(sp)
	.cfi_restore 8
	.cfi_def_cfa 2, 112
	addi	sp,sp,112
	.cfi_def_cfa_offset 0
	jr	ra
	.cfi_endproc
.LFE4:
	.size	GetImageNameFromHandle, .-GetImageNameFromHandle
	.section	.rodata
	.align	3
.LC2:
	.string	"d"
	.string	"r"
	.string	"i"
	.string	"v"
	.string	"e"
	.string	"r"
	.string	"s"
	.zero	2
	.align	3
.LC3:
	.string	"%S"
	.align	3
.LC4:
	.string	"-"
	.zero	2
	.align	3
.LC5:
	.zero	2
	.section	.text.ShellCommandRunDrivers,"ax",@progbits
	.align	1
	.globl	ShellCommandRunDrivers
	.type	ShellCommandRunDrivers, @function
ShellCommandRunDrivers:
.LFB5:
	.loc 1 271 1
	.cfi_startproc
	addi	sp,sp,-304
	.cfi_def_cfa_offset 304
	sd	ra,296(sp)
	sd	s0,288(sp)
	.cfi_offset 1, -8
	.cfi_offset 8, -16
	addi	s0,sp,304
	.cfi_def_cfa 8, 0
	sd	a0,-264(s0)
	sd	a1,-272(s0)
	.loc 1 294 15
	sw	zero,-20(s0)
	.loc 1 295 10
	sd	zero,-72(s0)
	.loc 1 296 12
	sd	zero,-32(s0)
	.loc 1 297 16
	sd	zero,-56(s0)
	.loc 1 298 11
	sb	zero,-57(s0)
	.loc 1 303 12
	call	ShellInitialize@plt
	sd	a0,-72(s0)
	.loc 1 306 12
	call	CommandInit@plt
	sd	a0,-72(s0)
	.loc 1 312 12
	addi	a2,s0,-136
	addi	a5,s0,-128
	li	a4,0
	li	a3,1
	mv	a1,a5
	lla	a0,ParamList
	call	ShellCommandLineParseEx@plt
	sd	a0,-72(s0)
	.loc 1 313 34
	ld	a5,-72(s0)
	.loc 1 313 6
	bge	a5,zero,.L30
	.loc 1 314 8
	ld	a4,-72(s0)
	li	a5,-1
	slli	a5,a5,63
	addi	a5,a5,10
	bne	a4,a5,.L31
	.loc 1 314 86 discriminator 1
	ld	a5,-136(s0)
	.loc 1 314 69 discriminator 1
	beq	a5,zero,.L31
	.loc 1 315 7
	la	a5,gShellDriver1HiiHandle
	ld	a4,0(a5)
	ld	a5,-136(s0)
	mv	a6,a5
	lla	a5,.LC2
	li	a3,2
	li	a2,0
	li	a1,-1
	li	a0,-1
	call	ShellPrintHiiEx@plt
	.loc 1 316 7
	ld	a5,-136(s0)
	mv	a0,a5
	call	FreePool@plt
	.loc 1 317 19
	li	a5,2
	sw	a5,-20(s0)
	j	.L31
.L30:
	.loc 1 322 9
	ld	a5,-128(s0)
	mv	a0,a5
	call	ShellCommandLineGetCount@plt
	mv	a4,a0
	.loc 1 322 8 discriminator 1
	li	a5,1
	bleu	a4,a5,.L32
	.loc 1 323 7
	la	a5,gShellDriver1HiiHandle
	ld	a4,0(a5)
	lla	a5,.LC2
	li	a3,6
	li	a2,0
	li	a1,-1
	li	a0,-1
	call	ShellPrintHiiEx@plt
	.loc 1 324 19
	li	a5,2
	sw	a5,-20(s0)
	j	.L33
.L32:
	.loc 1 326 11
	ld	a5,-128(s0)
	lla	a1,.LC1
	mv	a0,a5
	call	ShellCommandLineGetFlag@plt
	mv	a5,a0
	.loc 1 326 10 discriminator 1
	beq	a5,zero,.L34
	.loc 1 327 16
	ld	a5,-128(s0)
	lla	a1,.LC1
	mv	a0,a5
	call	ShellCommandLineGetValue@plt
	sd	a0,-80(s0)
	.loc 1 328 12
	ld	a5,-80(s0)
	beq	a5,zero,.L35
	.loc 1 329 22
	ld	a0,-80(s0)
	call	StrSize@plt
	mv	a5,a0
	.loc 1 329 22 is_stmt 0 discriminator 1
	mv	a0,a5
	call	AllocateZeroPool@plt
	sd	a0,-32(s0)
	.loc 1 330 14 is_stmt 1
	ld	a5,-32(s0)
	bne	a5,zero,.L36
	.loc 1 331 13
	la	a5,gShellDriver1HiiHandle
	ld	a4,0(a5)
	lla	a5,.LC2
	li	a3,18
	li	a2,0
	li	a1,-1
	li	a0,-1
	call	ShellPrintHiiEx@plt
	.loc 1 332 13
	ld	a5,-128(s0)
	mv	a0,a5
	call	ShellCommandLineFreeVarList@plt
	.loc 1 333 20
	li	a5,9
	j	.L74
.L36:
	.loc 1 336 11
	ld	a0,-80(s0)
	call	StrSize@plt
	mv	a5,a0
	.loc 1 336 11 is_stmt 0 discriminator 1
	ld	a3,-80(s0)
	lla	a2,.LC3
	mv	a1,a5
	ld	a0,-32(s0)
	call	AsciiSPrint@plt
	j	.L34
.L35:
	.loc 1 339 11 is_stmt 1
	la	a5,gShellDriver1HiiHandle
	ld	a4,0(a5)
	lla	a6,.LC1
	lla	a5,.LC2
	li	a3,9
	li	a2,0
	li	a1,-1
	li	a0,-1
	call	ShellPrintHiiEx@plt
	.loc 1 340 11
	ld	a5,-128(s0)
	mv	a0,a5
	call	ShellCommandLineFreeVarList@plt
	.loc 1 341 18
	li	a5,2
	j	.L74
.L34:
	.loc 1 345 11
	ld	a5,-128(s0)
	lla	a1,.LC0
	mv	a0,a5
	call	ShellCommandLineGetFlag@plt
	mv	a5,a0
	.loc 1 345 10 discriminator 1
	beq	a5,zero,.L38
	.loc 1 346 17
	li	a5,1
	sb	a5,-57(s0)
	.loc 1 347 24
	la	a5,gShellDriver1HiiHandle
	ld	a5,0(a5)
	ld	a2,-32(s0)
	li	a1,55
	mv	a0,a5
	call	HiiGetString@plt
	sd	a0,-56(s0)
	.loc 1 351 9
	la	a5,gShellDriver1HiiHandle
	ld	a4,0(a5)
	lla	a5,.LC2
	li	a3,20
	ld	a2,-32(s0)
	li	a1,-1
	li	a0,-1
	call	ShellPrintHiiEx@plt
	j	.L39
.L38:
	.loc 1 360 24
	la	a5,gShellDriver1HiiHandle
	ld	a5,0(a5)
	ld	a2,-32(s0)
	li	a1,54
	mv	a0,a5
	call	HiiGetString@plt
	sd	a0,-56(s0)
	.loc 1 364 9
	la	a5,gShellDriver1HiiHandle
	ld	a5,0(a5)
	mv	a4,a5
	li	a3,53
	ld	a2,-32(s0)
	li	a1,-1
	li	a0,-1
	call	ShellPrintHiiEx@plt
.L39:
	.loc 1 373 10
	ld	a5,-56(s0)
	bne	a5,zero,.L40
	.loc 1 375 9
	la	a5,gShellDriver1HiiHandle
	ld	a4,0(a5)
	lla	a5,.LC2
	li	a3,18
	li	a2,0
	li	a1,-1
	li	a0,-1
	call	ShellPrintHiiEx@plt
	.loc 1 376 9
	ld	a5,-128(s0)
	mv	a0,a5
	call	ShellCommandLineFreeVarList@plt
	.loc 1 377 16
	li	a5,9
	j	.L74
.L40:
	.loc 1 380 20
	la	a0,gEfiDriverBindingProtocolGuid
	call	GetHandleListByProtocol@plt
	sd	a0,-88(s0)
	.loc 1 381 25
	ld	a5,-88(s0)
	sd	a5,-40(s0)
	.loc 1 381 7
	j	.L41
.L72:
	.loc 1 382 20
	sd	zero,-144(s0)
	.loc 1 383 21
	sd	zero,-152(s0)
	.loc 1 384 18
	ld	a5,-40(s0)
	ld	a5,0(a5)
	addi	a4,s0,-144
	li	a2,0
	mv	a1,a4
	mv	a0,a5
	call	ParseHandleDatabaseForChildDevices@plt
	sd	a0,-72(s0)
	.loc 1 385 18
	ld	a5,-40(s0)
	ld	a5,0(a5)
	addi	a3,s0,-152
	li	a4,0
	li	a2,1280
	li	a1,0
	mv	a0,a5
	call	ParseHandleDatabaseByRelationship@plt
	sd	a0,-72(s0)
	.loc 1 386 17
	ld	a5,-40(s0)
	ld	a5,0(a5)
	mv	a0,a5
	call	GetDevicePathTextForHandle
	sd	a0,-96(s0)
	.loc 1 387 25
	ld	a5,-40(s0)
	ld	a5,0(a5)
	mv	a0,a5
	call	ReturnDriverVersion
	mv	a5,a0
	sw	a5,-100(s0)
	.loc 1 388 24
	ld	a5,-40(s0)
	ld	a5,0(a5)
	mv	a0,a5
	call	ReturnDriverConfig
	mv	a5,a0
	sb	a5,-101(s0)
	.loc 1 389 22
	ld	a5,-40(s0)
	ld	a5,0(a5)
	mv	a0,a5
	call	ReturnDriverDiag
	mv	a5,a0
	sb	a5,-102(s0)
	.loc 1 390 26
	ld	a5,-40(s0)
	ld	a5,0(a5)
	ld	a1,-32(s0)
	mv	a0,a5
	call	GetStringNameFromHandle@plt
	sd	a0,-112(s0)
	.loc 1 391 21
	ld	a5,-40(s0)
	ld	a5,0(a5)
	mv	a0,a5
	call	GetImageNameFromHandle
	sd	a0,-120(s0)
	.loc 1 393 9
	ld	a5,-144(s0)
	mv	a3,a5
	addi	a5,s0,-200
	li	a4,0
	li	a2,0
	li	a1,42
	mv	a0,a5
	call	UnicodeValueToStringS@plt
	.loc 1 394 9
	ld	a5,-152(s0)
	mv	a3,a5
	addi	a5,s0,-248
	li	a4,0
	li	a2,0
	li	a1,42
	mv	a0,a5
	call	UnicodeValueToStringS@plt
	.loc 1 395 29
	sd	zero,-48(s0)
	.loc 1 396 12
	lbu	a5,-57(s0)
	andi	a5,a5,0xff
	bne	a5,zero,.L42
	.loc 1 396 22 discriminator 1
	ld	a5,-112(s0)
	beq	a5,zero,.L42
	.loc 1 397 33
	li	a0,72
	call	AllocateZeroPool@plt
	sd	a0,-48(s0)
	.loc 1 398 14
	ld	a5,-48(s0)
	bne	a5,zero,.L43
	.loc 1 399 13
	la	a5,gShellDriver1HiiHandle
	ld	a4,0(a5)
	lla	a5,.LC2
	li	a3,18
	li	a2,0
	li	a1,-1
	li	a0,-1
	call	ShellPrintHiiEx@plt
	.loc 1 400 13
	ld	a5,-128(s0)
	mv	a0,a5
	call	ShellCommandLineFreeVarList@plt
	.loc 1 401 20
	li	a5,9
	j	.L74
.L43:
	.loc 1 404 11
	li	a3,35
	ld	a2,-112(s0)
	li	a1,36
	ld	a0,-48(s0)
	call	StrnCpyS@plt
.L42:
	.loc 1 407 12
	lbu	a5,-57(s0)
	andi	a5,a5,0xff
	bne	a5,zero,.L44
	.loc 1 408 11
	ld	a5,-40(s0)
	ld	a5,0(a5)
	mv	a0,a5
	call	ConvertHandleToHandleIndex@plt
	mv	t3,a0
	.loc 1 414 24
	ld	a5,-144(s0)
	.loc 1 408 11
	bne	a5,zero,.L45
	.loc 1 414 50
	ld	a5,-152(s0)
	.loc 1 414 61
	beq	a5,zero,.L46
	.loc 1 408 11
	li	a5,68
	j	.L47
.L46:
	li	a5,63
	j	.L47
.L45:
	.loc 1 408 11 is_stmt 0 discriminator 2
	li	a5,66
.L47:
	.loc 1 408 11 discriminator 3
	lbu	a4,-101(s0)
	andi	a4,a4,0xff
	beq	a4,zero,.L48
	.loc 1 408 11 discriminator 4
	li	a1,88
	j	.L49
.L48:
	.loc 1 408 11 discriminator 5
	li	a1,45
.L49:
	.loc 1 408 11 discriminator 7
	lbu	a4,-102(s0)
	andi	a4,a4,0xff
	beq	a4,zero,.L50
	.loc 1 408 11 discriminator 8
	li	a0,88
	j	.L51
.L50:
	.loc 1 408 11 discriminator 9
	li	a0,45
.L51:
	.loc 1 417 25 is_stmt 1
	ld	a4,-152(s0)
	.loc 1 408 11 discriminator 11
	beq	a4,zero,.L52
	.loc 1 408 11 is_stmt 0 discriminator 12
	addi	a4,s0,-248
	j	.L53
.L52:
	.loc 1 408 11 discriminator 13
	lla	a4,.LC4
.L53:
	.loc 1 418 24 is_stmt 1
	ld	a3,-144(s0)
	.loc 1 408 11 discriminator 15
	beq	a3,zero,.L54
	.loc 1 408 11 is_stmt 0 discriminator 16
	addi	a3,s0,-200
	j	.L55
.L54:
	.loc 1 408 11 discriminator 17
	lla	a3,.LC4
.L55:
	.loc 1 408 11 discriminator 19
	ld	a2,-120(s0)
	beq	a2,zero,.L56
	.loc 1 408 11 discriminator 20
	ld	a2,-120(s0)
	j	.L57
.L56:
	.loc 1 408 11 discriminator 21
	lla	a2,.LC5
.L57:
	.loc 1 408 11 discriminator 23
	lw	t1,-100(s0)
	sd	a2,24(sp)
	ld	a2,-48(s0)
	sd	a2,16(sp)
	sd	a3,8(sp)
	sd	a4,0(sp)
	mv	a7,a0
	mv	a6,a1
	mv	a4,t1
	mv	a3,t3
	ld	a2,-56(s0)
	li	a1,-1
	li	a0,-1
	call	ShellPrintEx@plt
	j	.L58
.L44:
	.loc 1 423 11 is_stmt 1
	ld	a5,-40(s0)
	ld	a5,0(a5)
	mv	a0,a5
	call	ConvertHandleToHandleIndex@plt
	mv	t3,a0
	.loc 1 429 24
	ld	a5,-144(s0)
	.loc 1 423 11
	bne	a5,zero,.L59
	.loc 1 429 50
	ld	a5,-152(s0)
	.loc 1 429 61
	beq	a5,zero,.L60
	.loc 1 423 11
	li	a5,68
	j	.L61
.L60:
	li	a5,63
	j	.L61
.L59:
	.loc 1 423 11 is_stmt 0 discriminator 2
	li	a5,66
.L61:
	.loc 1 423 11 discriminator 3
	lbu	a4,-101(s0)
	andi	a4,a4,0xff
	beq	a4,zero,.L62
	.loc 1 423 11 discriminator 4
	li	a3,89
	j	.L63
.L62:
	.loc 1 423 11 discriminator 5
	li	a3,78
.L63:
	.loc 1 423 11 discriminator 7
	lbu	a4,-102(s0)
	andi	a4,a4,0xff
	beq	a4,zero,.L64
	.loc 1 423 11 discriminator 8
	li	a2,89
	j	.L65
.L64:
	.loc 1 423 11 discriminator 9
	li	a2,78
.L65:
	.loc 1 423 11 discriminator 11
	ld	a1,-152(s0)
	ld	a0,-144(s0)
	ld	a4,-96(s0)
	beq	a4,zero,.L66
	.loc 1 423 11 discriminator 12
	ld	a4,-96(s0)
	j	.L67
.L66:
	.loc 1 423 11 discriminator 13
	lla	a4,.LC5
.L67:
	.loc 1 423 11 discriminator 15
	lw	t1,-100(s0)
	sd	a4,24(sp)
	ld	a4,-112(s0)
	sd	a4,16(sp)
	sd	a0,8(sp)
	sd	a1,0(sp)
	mv	a7,a2
	mv	a6,a3
	mv	a4,t1
	mv	a3,t3
	ld	a2,-56(s0)
	li	a1,-1
	li	a0,-1
	call	ShellPrintEx@plt
.L58:
	.loc 1 439 12 is_stmt 1
	ld	a5,-48(s0)
	beq	a5,zero,.L68
	.loc 1 440 11
	ld	a0,-48(s0)
	call	FreePool@plt
.L68:
	.loc 1 443 12
	ld	a5,-96(s0)
	beq	a5,zero,.L69
	.loc 1 444 11
	ld	a0,-96(s0)
	call	FreePool@plt
.L69:
	.loc 1 447 12
	ld	a5,-120(s0)
	beq	a5,zero,.L70
	.loc 1 448 11
	ld	a0,-120(s0)
	call	FreePool@plt
.L70:
	.loc 1 451 13
	call	ShellGetExecutionBreakFlag@plt
	mv	a5,a0
	.loc 1 451 12 discriminator 1
	beq	a5,zero,.L71
	.loc 1 452 23
	li	a5,21
	sw	a5,-20(s0)
	.loc 1 453 11
	j	.L33
.L71:
	.loc 1 381 114 discriminator 2
	ld	a5,-40(s0)
	addi	a5,a5,8
	sd	a5,-40(s0)
.L41:
	.loc 1 381 68 discriminator 1
	ld	a5,-40(s0)
	beq	a5,zero,.L33
	.loc 1 381 71 discriminator 3
	ld	a5,-40(s0)
	ld	a5,0(a5)
	.loc 1 381 68 discriminator 3
	bne	a5,zero,.L72
.L33:
	.loc 1 458 13
	ld	a5,-32(s0)
	beq	a5,zero,.L73
	.loc 1 458 44 discriminator 1
	ld	a0,-32(s0)
	call	FreePool@plt
	.loc 1 458 77 discriminator 2
	sd	zero,-32(s0)
.L73:
	.loc 1 459 5
	ld	a5,-128(s0)
	mv	a0,a5
	call	ShellCommandLineFreeVarList@plt
	.loc 1 460 13
	ld	a5,-56(s0)
	beq	a5,zero,.L31
	.loc 1 460 48 discriminator 1
	ld	a0,-56(s0)
	call	FreePool@plt
	.loc 1 460 89 discriminator 2
	sd	zero,-56(s0)
.L31:
	.loc 1 463 10
	lw	a5,-20(s0)
.L74:
	.loc 1 464 1
	mv	a0,a5
	ld	ra,296(sp)
	.cfi_restore 1
	ld	s0,288(sp)
	.cfi_restore 8
	.cfi_def_cfa 2, 304
	addi	sp,sp,304
	.cfi_def_cfa_offset 0
	jr	ra
	.cfi_endproc
.LFE5:
	.size	ShellCommandRunDrivers, .-ShellCommandRunDrivers
	.text
.Letext0:
	.file 2 "/home/kapoagaeming/Downloads/spacemit-image-builder/components/edk2/MdePkg/Include/RiscV64/ProcessorBind.h"
	.file 3 "/home/kapoagaeming/Downloads/spacemit-image-builder/components/edk2/MdePkg/Include/Base.h"
	.file 4 "/home/kapoagaeming/Downloads/spacemit-image-builder/components/edk2/MdePkg/Include/Uefi/UefiBaseType.h"
	.file 5 "/home/kapoagaeming/Downloads/spacemit-image-builder/components/edk2/MdePkg/Include/Uefi/UefiMultiPhase.h"
	.file 6 "/home/kapoagaeming/Downloads/spacemit-image-builder/components/edk2/MdePkg/Include/Protocol/DevicePath.h"
	.file 7 "/home/kapoagaeming/Downloads/spacemit-image-builder/components/edk2/MdePkg/Include/Protocol/SimpleTextIn.h"
	.file 8 "/home/kapoagaeming/Downloads/spacemit-image-builder/components/edk2/MdePkg/Include/Protocol/SimpleTextOut.h"
	.file 9 "/home/kapoagaeming/Downloads/spacemit-image-builder/components/edk2/MdePkg/Include/Uefi/UefiSpec.h"
	.file 10 "/home/kapoagaeming/Downloads/spacemit-image-builder/components/edk2/MdePkg/Include/Uefi/UefiInternalFormRepresentation.h"
	.file 11 "/home/kapoagaeming/Downloads/spacemit-image-builder/components/edk2/MdePkg/Include/Pi/PiFirmwareVolume.h"
	.file 12 "/home/kapoagaeming/Downloads/spacemit-image-builder/components/edk2/MdePkg/Include/Pi/PiFirmwareFile.h"
	.file 13 "/home/kapoagaeming/Downloads/spacemit-image-builder/components/edk2/MdePkg/Include/Protocol/FirmwareVolume2.h"
	.file 14 "/home/kapoagaeming/Downloads/spacemit-image-builder/components/edk2/MdePkg/Include/Guid/FileInfo.h"
	.file 15 "/home/kapoagaeming/Downloads/spacemit-image-builder/components/edk2/MdePkg/Include/Protocol/Shell.h"
	.file 16 "/home/kapoagaeming/Downloads/spacemit-image-builder/components/edk2/MdePkg/Include/Protocol/LoadedImage.h"
	.file 17 "/home/kapoagaeming/Downloads/spacemit-image-builder/components/edk2/MdePkg/Include/Protocol/DriverDiagnostics.h"
	.file 18 "/home/kapoagaeming/Downloads/spacemit-image-builder/components/edk2/MdePkg/Include/Protocol/DriverDiagnostics2.h"
	.file 19 "/home/kapoagaeming/Downloads/spacemit-image-builder/components/edk2/MdePkg/Include/Library/UefiBootServicesTableLib.h"
	.file 20 "/home/kapoagaeming/Downloads/spacemit-image-builder/components/edk2/ShellPkg/Include/Library/ShellLib.h"
	.file 21 "/home/kapoagaeming/Downloads/spacemit-image-builder/components/edk2/MdePkg/Include/Protocol/DriverBinding.h"
	.file 22 "/home/kapoagaeming/Downloads/spacemit-image-builder/components/edk2/MdePkg/Include/Protocol/DriverConfiguration.h"
	.file 23 "/home/kapoagaeming/Downloads/spacemit-image-builder/components/edk2/ShellPkg/Library/UefiShellDriver1CommandsLib/UefiShellDriver1CommandsLib.h"
	.file 24 "/home/kapoagaeming/Downloads/spacemit-image-builder/components/edk2/ShellPkg/Include/Library/HandleParsingLib.h"
	.file 25 "/home/kapoagaeming/Downloads/spacemit-image-builder/components/edk2/MdePkg/Include/Library/BaseLib.h"
	.file 26 "/home/kapoagaeming/Downloads/spacemit-image-builder/components/edk2/MdePkg/Include/Library/PrintLib.h"
	.file 27 "/home/kapoagaeming/Downloads/spacemit-image-builder/components/edk2/MdeModulePkg/Include/Library/HiiLib.h"
	.file 28 "/home/kapoagaeming/Downloads/spacemit-image-builder/components/edk2/MdePkg/Include/Library/MemoryAllocationLib.h"
	.file 29 "/home/kapoagaeming/Downloads/spacemit-image-builder/components/edk2/ShellPkg/Include/Library/ShellCommandLib.h"
	.file 30 "/home/kapoagaeming/Downloads/spacemit-image-builder/components/edk2/MdePkg/Include/Library/DevicePathLib.h"
	.file 31 "/home/kapoagaeming/Downloads/spacemit-image-builder/components/edk2/MdePkg/Include/Library/UefiLib.h"
	.section	.note.GNU-stack,"",@progbits
