	.file	"DrvCfg.c"
	.option pic
	.option norelax
	.attribute arch, "rv64i2p1_m2p0_a2p1_f2p2_d2p2_c2p0_zicsr2p0_zifencei2p0_zmmul1p0_zaamo1p0_zalrsc1p0_zca1p0_zcd1p0"
	.attribute unaligned_access, 0
	.attribute stack_align, 16
	.text
.Ltext0:
	.cfi_sections	.debug_frame
	.file 0 "/home/kapoagaeming/spacemit-image-builder/components/Build/Milk-V-Jupiter/RELEASE_GCC5/RISCV64/ShellPkg/Library/UefiShellDriver1CommandsLib/UefiShellDriver1CommandsLib" "/home/kapoagaeming/spacemit-image-builder/components/edk2/ShellPkg/Library/UefiShellDriver1CommandsLib/DrvCfg.c"
	.section	.data.rel.CfgGuidList,"aw"
	.align	3
	.type	CfgGuidList, @object
	.size	CfgGuidList, 24
CfgGuidList:
	.dword	gEfiDriverConfigurationProtocolGuid
	.dword	gEfiDriverConfiguration2ProtocolGuid
	.dword	0
	.section	.text.FindHiiHandleViaDevPath,"ax",@progbits
	.align	1
	.globl	FindHiiHandleViaDevPath
	.type	FindHiiHandleViaDevPath, @function
FindHiiHandleViaDevPath:
.LFB0:
	.file 1 "/home/kapoagaeming/spacemit-image-builder/components/edk2/ShellPkg/Library/UefiShellDriver1CommandsLib/DrvCfg.c"
	.loc 1 32 1
	.cfi_startproc
	addi	sp,sp,-128
	.cfi_def_cfa_offset 128
	sd	ra,120(sp)
	sd	s0,112(sp)
	.cfi_offset 1, -8
	.cfi_offset 8, -16
	addi	s0,sp,128
	.cfi_def_cfa 8, 0
	sd	a0,-104(s0)
	sd	a1,-112(s0)
	sd	a2,-120(s0)
	.loc 1 48 20
	sd	zero,-72(s0)
	.loc 1 49 16
	sd	zero,-24(s0)
	.loc 1 50 17
	ld	a5,-120(s0)
	ld	a5,24(a5)
	.loc 1 50 12
	addi	a3,s0,-72
	ld	a4,-24(s0)
	li	a2,0
	li	a1,8
	ld	a0,-120(s0)
	jalr	a5
.LVL0:
	sd	a0,-64(s0)
	.loc 1 51 6
	ld	a4,-64(s0)
	li	a5,-1
	slli	a5,a5,63
	addi	a5,a5,5
	bne	a4,a5,.L2
	.loc 1 52 20
	ld	a5,-72(s0)
	mv	a0,a5
	call	AllocateZeroPool@plt
	sd	a0,-24(s0)
	.loc 1 53 8
	ld	a5,-24(s0)
	bne	a5,zero,.L3
	.loc 1 54 14
	li	a5,-1
	slli	a5,a5,63
	addi	a5,a5,9
	sd	a5,-64(s0)
	j	.L2
.L3:
	.loc 1 56 21
	ld	a5,-120(s0)
	ld	a5,24(a5)
	.loc 1 56 16
	addi	a3,s0,-72
	ld	a4,-24(s0)
	li	a2,0
	li	a1,8
	ld	a0,-120(s0)
	jalr	a5
.LVL1:
	sd	a0,-64(s0)
.L2:
	.loc 1 60 34
	ld	a5,-64(s0)
	.loc 1 60 6
	bge	a5,zero,.L4
	.loc 1 61 13
	ld	a5,-24(s0)
	beq	a5,zero,.L5
	.loc 1 61 48 discriminator 1
	ld	a0,-24(s0)
	call	FreePool@plt
	.loc 1 61 89 discriminator 2
	sd	zero,-24(s0)
.L5:
	.loc 1 62 12
	ld	a5,-64(s0)
	j	.L23
.L4:
	.loc 1 65 6
	ld	a5,-24(s0)
	bne	a5,zero,.L7
	.loc 1 66 12
	li	a5,-1
	slli	a5,a5,63
	addi	a5,a5,14
	j	.L23
.L7:
	.loc 1 69 21
	sd	zero,-56(s0)
	.loc 1 69 3
	j	.L8
.L20:
	.loc 1 70 20
	sd	zero,-80(s0)
	.loc 1 71 16
	sd	zero,-32(s0)
	.loc 1 72 19
	ld	a5,-120(s0)
	ld	a5,32(a5)
	.loc 1 72 60
	ld	a4,-56(s0)
	slli	a4,a4,3
	ld	a3,-24(s0)
	add	a4,a3,a4
	.loc 1 72 14
	ld	a4,0(a4)
	addi	a2,s0,-80
	ld	a3,-32(s0)
	mv	a1,a4
	ld	a0,-120(s0)
	jalr	a5
.LVL2:
	sd	a0,-64(s0)
	.loc 1 73 8
	ld	a4,-64(s0)
	li	a5,-1
	slli	a5,a5,63
	addi	a5,a5,5
	bne	a4,a5,.L9
	.loc 1 74 20
	ld	a5,-80(s0)
	mv	a0,a5
	call	AllocateZeroPool@plt
	sd	a0,-32(s0)
	.loc 1 75 10
	ld	a5,-32(s0)
	beq	a5,zero,.L9
	.loc 1 76 23
	ld	a5,-120(s0)
	ld	a5,32(a5)
	.loc 1 76 64
	ld	a4,-56(s0)
	slli	a4,a4,3
	ld	a3,-24(s0)
	add	a4,a3,a4
	.loc 1 76 18
	ld	a4,0(a4)
	addi	a2,s0,-80
	ld	a3,-32(s0)
	mv	a1,a4
	ld	a0,-120(s0)
	jalr	a5
.LVL3:
	sd	a0,-64(s0)
.L9:
	.loc 1 80 36
	ld	a5,-64(s0)
	.loc 1 80 8
	blt	a5,zero,.L24
	.loc 1 88 28
	ld	a5,-32(s0)
	sd	a5,-40(s0)
	.loc 1 88 5
	j	.L12
.L18:
	.loc 1 92 26
	ld	a5,-40(s0)
	addi	a5,a5,20
	sd	a5,-48(s0)
	.loc 1 92 7
	j	.L13
.L16:
	.loc 1 96 26
	ld	a5,-48(s0)
	lbu	a5,3(a5)
	.loc 1 96 12
	mv	a4,a5
	li	a5,8
	bne	a4,a5,.L14
	.loc 1 97 22
	ld	a5,-48(s0)
	addi	a5,a5,4
	.loc 1 97 20
	sd	a5,-88(s0)
	.loc 1 98 15
	addi	a4,s0,-88
	addi	a5,s0,-104
	mv	a1,a4
	mv	a0,a5
	call	DevicePathCompare@plt
	mv	a5,a0
	.loc 1 98 14 discriminator 1
	bne	a5,zero,.L14
	.loc 1 99 38
	ld	a5,-56(s0)
	slli	a5,a5,3
	ld	a4,-24(s0)
	add	a5,a4,a5
	ld	a4,0(a5)
	.loc 1 99 24
	ld	a5,-112(s0)
	sd	a4,0(a5)
	.loc 1 100 13
	j	.L15
.L14:
	.loc 1 94 97
	ld	a5,-48(s0)
	lbu	a4,0(a5)
	lbu	a3,1(a5)
	slli	a3,a3,8
	or	a4,a3,a4
	lbu	a5,2(a5)
	slli	a5,a5,16
	or	a5,a5,a4
	sext.w	a5,a5
	slli	a5,a5,32
	srli	a5,a5,32
	.loc 1 94 28
	ld	a4,-48(s0)
	add	a5,a4,a5
	sd	a5,-48(s0)
.L13:
	.loc 1 93 144
	ld	a5,-48(s0)
	beq	a5,zero,.L15
	.loc 1 93 96 discriminator 1
	ld	a5,-80(s0)
	ld	a4,-32(s0)
	add	a5,a4,a5
	.loc 1 93 44 discriminator 1
	ld	a4,-48(s0)
	bgeu	a4,a5,.L15
	.loc 1 93 129 discriminator 2
	ld	a5,-48(s0)
	lbu	a5,3(a5)
	.loc 1 93 113 discriminator 2
	mv	a4,a5
	li	a5,223
	beq	a4,a5,.L15
	.loc 1 93 147 discriminator 3
	ld	a5,-112(s0)
	ld	a5,0(a5)
	.loc 1 93 144 discriminator 3
	beq	a5,zero,.L16
.L15:
	.loc 1 90 114
	ld	a5,-40(s0)
	lbu	a4,16(a5)
	lbu	a3,17(a5)
	slli	a3,a3,8
	or	a4,a3,a4
	lbu	a3,18(a5)
	slli	a3,a3,16
	or	a4,a3,a4
	lbu	a5,19(a5)
	slli	a5,a5,24
	or	a5,a5,a4
	sext.w	a5,a5
	slli	a5,a5,32
	srli	a5,a5,32
	.loc 1 90 30
	ld	a4,-40(s0)
	add	a5,a4,a5
	sd	a5,-40(s0)
.L12:
	.loc 1 89 119
	ld	a5,-40(s0)
	beq	a5,zero,.L17
	.loc 1 89 102 discriminator 1
	ld	a5,-80(s0)
	ld	a4,-32(s0)
	add	a5,a4,a5
	.loc 1 89 46 discriminator 1
	ld	a4,-40(s0)
	bgeu	a4,a5,.L17
	.loc 1 89 122 discriminator 2
	ld	a5,-112(s0)
	ld	a5,0(a5)
	.loc 1 89 119 discriminator 2
	beq	a5,zero,.L18
.L17:
	.loc 1 106 13
	ld	a5,-32(s0)
	beq	a5,zero,.L11
	.loc 1 106 46 discriminator 1
	ld	a0,-32(s0)
	call	FreePool@plt
	.loc 1 106 83 discriminator 2
	sd	zero,-32(s0)
	j	.L11
.L24:
	.loc 1 81 7
	nop
.L11:
	.loc 1 69 128 discriminator 2
	ld	a5,-56(s0)
	addi	a5,a5,1
	sd	a5,-56(s0)
.L8:
	.loc 1 69 58 discriminator 1
	ld	a5,-72(s0)
	srli	a5,a5,3
	.loc 1 69 85 discriminator 1
	ld	a4,-56(s0)
	bgeu	a4,a5,.L19
	.loc 1 69 88 discriminator 3
	ld	a5,-112(s0)
	ld	a5,0(a5)
	.loc 1 69 85 discriminator 3
	beq	a5,zero,.L20
.L19:
	.loc 1 109 11
	ld	a5,-24(s0)
	beq	a5,zero,.L21
	.loc 1 109 46 discriminator 1
	ld	a0,-24(s0)
	call	FreePool@plt
	.loc 1 109 87 discriminator 2
	sd	zero,-24(s0)
.L21:
	.loc 1 111 7
	ld	a5,-112(s0)
	ld	a5,0(a5)
	.loc 1 111 6
	bne	a5,zero,.L22
	.loc 1 112 12
	li	a5,-1
	slli	a5,a5,63
	addi	a5,a5,14
	j	.L23
.L22:
	.loc 1 115 10
	li	a5,0
.L23:
	.loc 1 116 1
	mv	a0,a5
	ld	ra,120(sp)
	.cfi_restore 1
	ld	s0,112(sp)
	.cfi_restore 8
	.cfi_def_cfa 2, 128
	addi	sp,sp,128
	.cfi_def_cfa_offset 0
	jr	ra
	.cfi_endproc
.LFE0:
	.size	FindHiiHandleViaDevPath, .-FindHiiHandleViaDevPath
	.section	.text.ConvertHandleToHiiHandle,"ax",@progbits
	.align	1
	.globl	ConvertHandleToHiiHandle
	.type	ConvertHandleToHiiHandle, @function
ConvertHandleToHiiHandle:
.LFB1:
	.loc 1 133 1
	.cfi_startproc
	addi	sp,sp,-64
	.cfi_def_cfa_offset 64
	sd	ra,56(sp)
	sd	s0,48(sp)
	.cfi_offset 1, -8
	.cfi_offset 8, -16
	addi	s0,sp,64
	.cfi_def_cfa 8, 0
	sd	a0,-40(s0)
	sd	a1,-48(s0)
	sd	a2,-56(s0)
	.loc 1 137 6
	ld	a5,-48(s0)
	beq	a5,zero,.L26
	.loc 1 137 35 discriminator 1
	ld	a5,-56(s0)
	bne	a5,zero,.L27
.L26:
	.loc 1 138 12
	li	a5,-1
	slli	a5,a5,63
	addi	a5,a5,2
	j	.L32
.L27:
	.loc 1 141 14
	ld	a5,-48(s0)
	sd	zero,0(a5)
	.loc 1 143 6
	ld	a5,-40(s0)
	bne	a5,zero,.L29
	.loc 1 144 12
	li	a5,0
	j	.L32
.L29:
	.loc 1 147 12
	sd	zero,-32(s0)
	.loc 1 148 15
	la	a5,gBS
	ld	a5,0(a5)
	ld	a6,280(a5)
	.loc 1 148 12
	la	a5,gImageHandle
	ld	a3,0(a5)
	addi	a2,s0,-32
	li	a5,2
	li	a4,0
	la	a1,gEfiDevicePathProtocolGuid
	ld	a0,-40(s0)
	jalr	a6
.LVL4:
	sd	a0,-24(s0)
	.loc 1 149 34
	ld	a5,-24(s0)
	.loc 1 149 6
	blt	a5,zero,.L30
	.loc 1 149 73 discriminator 1
	ld	a5,-32(s0)
	.loc 1 149 60 discriminator 1
	bne	a5,zero,.L31
.L30:
	.loc 1 150 12
	li	a5,-1
	slli	a5,a5,63
	addi	a5,a5,14
	j	.L32
.L31:
	.loc 1 153 11
	ld	a5,-32(s0)
	ld	a2,-56(s0)
	ld	a1,-48(s0)
	mv	a0,a5
	call	FindHiiHandleViaDevPath
	mv	a5,a0
.L32:
	.loc 1 154 1
	mv	a0,a5
	ld	ra,56(sp)
	.cfi_restore 1
	ld	s0,48(sp)
	.cfi_restore 8
	.cfi_def_cfa 2, 64
	addi	sp,sp,64
	.cfi_def_cfa_offset 0
	jr	ra
	.cfi_endproc
.LFE1:
	.size	ConvertHandleToHiiHandle, .-ConvertHandleToHiiHandle
	.section	.rodata
	.align	3
.LC0:
	.string	"d"
	.string	"r"
	.string	"v"
	.string	"c"
	.string	"f"
	.string	"g"
	.zero	2
	.align	3
.LC1:
	.string	"E"
	.string	"f"
	.string	"i"
	.string	"H"
	.string	"i"
	.string	"i"
	.string	"D"
	.string	"a"
	.string	"t"
	.string	"a"
	.string	"b"
	.string	"a"
	.string	"s"
	.string	"e"
	.string	"P"
	.string	"r"
	.string	"o"
	.string	"t"
	.string	"o"
	.string	"c"
	.string	"o"
	.string	"l"
	.zero	2
	.align	3
.LC2:
	.string	"D"
	.string	"e"
	.string	"v"
	.string	"i"
	.string	"c"
	.string	"e"
	.zero	2
	.section	.text.ConfigToFile,"ax",@progbits
	.align	1
	.globl	ConfigToFile
	.type	ConfigToFile, @function
ConfigToFile:
.LFB2:
	.loc 1 167 1
	.cfi_startproc
	addi	sp,sp,-96
	.cfi_def_cfa_offset 96
	sd	ra,88(sp)
	sd	s0,80(sp)
	sd	s1,72(sp)
	.cfi_offset 1, -8
	.cfi_offset 8, -16
	.cfi_offset 9, -24
	addi	s0,sp,96
	.cfi_def_cfa 8, 0
	sd	a0,-88(s0)
	sd	a1,-96(s0)
	.loc 1 175 15
	sd	zero,-56(s0)
	.loc 1 176 18
	sd	zero,-64(s0)
	.loc 1 177 14
	sd	zero,-40(s0)
	.loc 1 178 14
	sd	zero,-80(s0)
	.loc 1 180 12
	addi	a4,s0,-80
	li	a3,0
	li	a5,-1
	slli	a5,a5,63
	addi	a2,a5,3
	mv	a1,a4
	ld	a0,-96(s0)
	call	ShellOpenFileByName@plt
	sd	a0,-48(s0)
	.loc 1 181 34
	ld	a5,-48(s0)
	.loc 1 181 6
	bge	a5,zero,.L34
	.loc 1 182 5
	la	a5,gShellDriver1HiiHandle
	ld	a4,0(a5)
	ld	a7,-48(s0)
	ld	a6,-96(s0)
	lla	a5,.LC0
	li	a3,15
	li	a2,0
	li	a1,-1
	li	a0,-1
	call	ShellPrintHiiEx@plt
	.loc 1 192 12
	li	a5,7
	j	.L44
.L34:
	.loc 1 198 15
	la	a5,gBS
	ld	a5,0(a5)
	ld	a5,320(a5)
	.loc 1 198 12
	addi	a4,s0,-56
	mv	a2,a4
	li	a1,0
	la	a0,gEfiHiiDatabaseProtocolGuid
	jalr	a5
.LVL5:
	sd	a0,-48(s0)
	.loc 1 204 34
	ld	a5,-48(s0)
	.loc 1 204 6
	blt	a5,zero,.L36
	.loc 1 204 76 discriminator 1
	ld	a5,-56(s0)
	.loc 1 204 60 discriminator 1
	bne	a5,zero,.L37
.L36:
	.loc 1 205 5
	la	a5,gShellDriver1HiiHandle
	ld	a4,0(a5)
	la	a7,gEfiHiiDatabaseProtocolGuid
	lla	a6,.LC1
	lla	a5,.LC0
	li	a3,12
	li	a2,0
	li	a1,-1
	li	a0,-1
	call	ShellPrintHiiEx@plt
	.loc 1 215 5
	addi	a5,s0,-80
	mv	a0,a5
	call	ShellCloseFile@plt
	.loc 1 216 12
	li	a5,14
	j	.L44
.L37:
	.loc 1 219 13
	sd	zero,-72(s0)
	.loc 1 220 12
	ld	a4,-56(s0)
	addi	a5,s0,-72
	mv	a2,a4
	mv	a1,a5
	ld	a0,-88(s0)
	call	ConvertHandleToHiiHandle
	sd	a0,-48(s0)
	.loc 1 221 34
	ld	a5,-48(s0)
	.loc 1 221 6
	bge	a5,zero,.L38
	.loc 1 222 5
	la	a5,gShellDriver1HiiHandle
	ld	s1,0(a5)
	ld	a0,-88(s0)
	call	ConvertHandleToHandleIndex@plt
	mv	a5,a0
	.loc 1 222 5 is_stmt 0 discriminator 1
	lla	a7,.LC2
	mv	a6,a5
	lla	a5,.LC0
	mv	a4,s1
	li	a3,10
	li	a2,0
	li	a1,-1
	li	a0,-1
	call	ShellPrintHiiEx@plt
	.loc 1 232 5 is_stmt 1
	addi	a5,s0,-80
	mv	a0,a5
	call	ShellCloseFile@plt
	.loc 1 233 12
	li	a5,7
	j	.L44
.L38:
	.loc 1 236 23
	ld	a5,-56(s0)
	ld	a5,32(a5)
	.loc 1 236 12
	ld	a4,-56(s0)
	ld	a1,-72(s0)
	addi	a2,s0,-64
	ld	a3,-40(s0)
	mv	a0,a4
	jalr	a5
.LVL6:
	sd	a0,-48(s0)
	.loc 1 237 6
	ld	a4,-48(s0)
	li	a5,-1
	slli	a5,a5,63
	addi	a5,a5,5
	bne	a4,a5,.L39
	.loc 1 238 18
	ld	a5,-64(s0)
	mv	a0,a5
	call	AllocateZeroPool@plt
	sd	a0,-40(s0)
	.loc 1 239 8
	ld	a5,-40(s0)
	bne	a5,zero,.L40
	.loc 1 240 7
	la	a5,gShellDriver1HiiHandle
	ld	a4,0(a5)
	lla	a5,.LC0
	li	a3,18
	li	a2,0
	li	a1,-1
	li	a0,-1
	call	ShellPrintHiiEx@plt
	.loc 1 248 7
	addi	a5,s0,-80
	mv	a0,a5
	call	ShellCloseFile@plt
	.loc 1 249 14
	li	a5,9
	j	.L44
.L40:
	.loc 1 252 25
	ld	a5,-56(s0)
	ld	a5,32(a5)
	.loc 1 252 14
	ld	a4,-56(s0)
	ld	a1,-72(s0)
	addi	a2,s0,-64
	ld	a3,-40(s0)
	mv	a0,a4
	jalr	a5
.LVL7:
	sd	a0,-48(s0)
	.loc 1 253 36
	ld	a5,-48(s0)
	.loc 1 253 8
	bge	a5,zero,.L39
	.loc 1 254 15
	ld	a5,-40(s0)
	beq	a5,zero,.L41
	.loc 1 254 48 discriminator 1
	ld	a0,-40(s0)
	call	FreePool@plt
	.loc 1 254 85 discriminator 2
	sd	zero,-40(s0)
.L41:
	.loc 1 255 7
	la	a5,gShellDriver1HiiHandle
	ld	a4,0(a5)
	lla	a5,.LC0
	li	a3,18
	li	a2,0
	li	a1,-1
	li	a0,-1
	call	ShellPrintHiiEx@plt
	.loc 1 263 7
	addi	a5,s0,-80
	mv	a0,a5
	call	ShellCloseFile@plt
	.loc 1 264 14
	li	a5,7
	j	.L44
.L39:
	.loc 1 268 12
	ld	a5,-80(s0)
	addi	a4,s0,-64
	ld	a2,-40(s0)
	mv	a1,a4
	mv	a0,a5
	call	ShellWriteFile@plt
	sd	a0,-48(s0)
	.loc 1 270 3
	addi	a5,s0,-80
	mv	a0,a5
	call	ShellCloseFile@plt
	.loc 1 271 11
	ld	a5,-40(s0)
	beq	a5,zero,.L42
	.loc 1 271 44 discriminator 1
	ld	a0,-40(s0)
	call	FreePool@plt
	.loc 1 271 81 discriminator 2
	sd	zero,-40(s0)
.L42:
	.loc 1 273 34
	ld	a5,-48(s0)
	.loc 1 273 6
	bge	a5,zero,.L43
	.loc 1 274 5
	la	a5,gShellDriver1HiiHandle
	ld	a4,0(a5)
	ld	a6,-96(s0)
	lla	a5,.LC0
	li	a3,16
	li	a2,0
	li	a1,-1
	li	a0,-1
	call	ShellPrintHiiEx@plt
	.loc 1 283 12
	li	a5,7
	j	.L44
.L43:
	.loc 1 286 3
	la	a5,gShellDriver1HiiHandle
	ld	a5,0(a5)
	mv	a4,a5
	li	a3,28
	li	a2,0
	li	a1,-1
	li	a0,-1
	call	ShellPrintHiiEx@plt
	.loc 1 294 10
	li	a5,0
.L44:
	.loc 1 295 1
	mv	a0,a5
	ld	ra,88(sp)
	.cfi_restore 1
	ld	s0,80(sp)
	.cfi_restore 8
	.cfi_def_cfa 2, 96
	ld	s1,72(sp)
	.cfi_restore 9
	addi	sp,sp,96
	.cfi_def_cfa_offset 0
	jr	ra
	.cfi_endproc
.LFE2:
	.size	ConfigToFile, .-ConfigToFile
	.section	.rodata
	.align	3
.LC3:
	.string	"H"
	.string	"i"
	.string	"i"
	.string	"D"
	.string	"a"
	.string	"t"
	.string	"a"
	.string	"b"
	.string	"a"
	.string	"s"
	.string	"e"
	.string	"-"
	.string	">"
	.string	"U"
	.string	"p"
	.string	"d"
	.string	"a"
	.string	"t"
	.string	"e"
	.string	"P"
	.string	"a"
	.string	"c"
	.string	"k"
	.string	"a"
	.string	"g"
	.string	"e"
	.string	"L"
	.string	"i"
	.string	"s"
	.string	"t"
	.zero	2
	.section	.text.ConfigFromFile,"ax",@progbits
	.align	1
	.globl	ConfigFromFile
	.type	ConfigFromFile, @function
ConfigFromFile:
.LFB3:
	.loc 1 308 1
	.cfi_startproc
	addi	sp,sp,-160
	.cfi_def_cfa_offset 160
	sd	ra,152(sp)
	sd	s0,144(sp)
	sd	s1,136(sp)
	.cfi_offset 1, -8
	.cfi_offset 8, -16
	.cfi_offset 9, -24
	addi	s0,sp,160
	.cfi_def_cfa 8, 0
	sd	a0,-152(s0)
	sd	a1,-160(s0)
	.loc 1 323 15
	sd	zero,-96(s0)
	.loc 1 324 18
	sd	zero,-112(s0)
	.loc 1 325 14
	sd	zero,-40(s0)
	.loc 1 326 14
	sd	zero,-128(s0)
	.loc 1 327 15
	sw	zero,-60(s0)
	.loc 1 329 12
	addi	a5,s0,-128
	li	a3,0
	li	a2,1
	mv	a1,a5
	ld	a0,-160(s0)
	call	ShellOpenFileByName@plt
	sd	a0,-72(s0)
	.loc 1 330 34
	ld	a5,-72(s0)
	.loc 1 330 6
	bge	a5,zero,.L46
	.loc 1 331 5
	la	a5,gShellDriver1HiiHandle
	ld	a4,0(a5)
	ld	a7,-72(s0)
	ld	a6,-160(s0)
	lla	a5,.LC0
	li	a3,15
	li	a2,0
	li	a1,-1
	li	a0,-1
	call	ShellPrintHiiEx@plt
	.loc 1 342 17
	li	a5,7
	sw	a5,-60(s0)
	.loc 1 343 5
	j	.L47
.L46:
	.loc 1 349 15
	la	a5,gBS
	ld	a5,0(a5)
	ld	a5,320(a5)
	.loc 1 349 12
	addi	a4,s0,-96
	mv	a2,a4
	li	a1,0
	la	a0,gEfiHiiDatabaseProtocolGuid
	jalr	a5
.LVL8:
	sd	a0,-72(s0)
	.loc 1 355 34
	ld	a5,-72(s0)
	.loc 1 355 6
	blt	a5,zero,.L48
	.loc 1 355 76 discriminator 1
	ld	a5,-96(s0)
	.loc 1 355 60 discriminator 1
	bne	a5,zero,.L49
.L48:
	.loc 1 356 5
	la	a5,gShellDriver1HiiHandle
	ld	a4,0(a5)
	la	a7,gEfiHiiDatabaseProtocolGuid
	lla	a6,.LC1
	lla	a5,.LC0
	li	a3,12
	li	a2,0
	li	a1,-1
	li	a0,-1
	call	ShellPrintHiiEx@plt
	.loc 1 367 17
	li	a5,14
	sw	a5,-60(s0)
	.loc 1 368 5
	j	.L47
.L49:
	.loc 1 371 12
	ld	a5,-128(s0)
	addi	a4,s0,-104
	mv	a1,a4
	mv	a0,a5
	call	ShellGetFileSize@plt
	sd	a0,-72(s0)
	.loc 1 372 18
	ld	a5,-104(s0)
	sd	a5,-112(s0)
	.loc 1 373 34
	ld	a5,-72(s0)
	.loc 1 373 6
	bge	a5,zero,.L50
	.loc 1 374 5
	la	a5,gShellDriver1HiiHandle
	ld	a4,0(a5)
	ld	a6,-160(s0)
	lla	a5,.LC0
	li	a3,17
	li	a2,0
	li	a1,-1
	li	a0,-1
	call	ShellPrintHiiEx@plt
	.loc 1 384 17
	li	a5,7
	sw	a5,-60(s0)
	.loc 1 385 5
	j	.L47
.L50:
	.loc 1 388 16
	ld	a5,-112(s0)
	mv	a0,a5
	call	AllocateZeroPool@plt
	sd	a0,-40(s0)
	.loc 1 389 6
	ld	a5,-40(s0)
	bne	a5,zero,.L51
	.loc 1 390 5
	la	a5,gShellDriver1HiiHandle
	ld	a4,0(a5)
	lla	a5,.LC0
	li	a3,18
	li	a2,0
	li	a1,-1
	li	a0,-1
	call	ShellPrintHiiEx@plt
	.loc 1 399 17
	li	a5,9
	sw	a5,-60(s0)
	.loc 1 400 5
	j	.L47
.L51:
	.loc 1 403 34
	ld	a5,-72(s0)
	.loc 1 403 6
	bge	a5,zero,.L52
	.loc 1 404 5
	la	a5,gShellDriver1HiiHandle
	ld	a4,0(a5)
	lla	a5,.LC0
	li	a3,18
	li	a2,0
	li	a1,-1
	li	a0,-1
	call	ShellPrintHiiEx@plt
	.loc 1 413 17
	li	a5,7
	sw	a5,-60(s0)
	.loc 1 414 5
	j	.L47
.L52:
	.loc 1 417 12
	ld	a5,-128(s0)
	addi	a4,s0,-112
	ld	a2,-40(s0)
	mv	a1,a4
	mv	a0,a5
	call	ShellReadFile@plt
	sd	a0,-72(s0)
	.loc 1 418 34
	ld	a5,-72(s0)
	.loc 1 418 6
	bge	a5,zero,.L53
	.loc 1 419 5
	la	a5,gShellDriver1HiiHandle
	ld	a4,0(a5)
	ld	a6,-160(s0)
	lla	a5,.LC0
	li	a3,17
	li	a2,0
	li	a1,-1
	li	a0,-1
	call	ShellPrintHiiEx@plt
	.loc 1 429 17
	li	a5,7
	sw	a5,-60(s0)
	.loc 1 430 5
	j	.L47
.L53:
	.loc 1 433 3
	addi	a5,s0,-128
	mv	a0,a5
	call	ShellCloseFile@plt
	.loc 1 434 14
	sd	zero,-128(s0)
	.loc 1 436 14
	ld	a5,-152(s0)
	.loc 1 436 6
	beq	a5,zero,.L54
	.loc 1 440 15
	sd	zero,-120(s0)
	.loc 1 441 14
	ld	a5,-152(s0)
	ld	a3,-96(s0)
	addi	a4,s0,-120
	mv	a2,a3
	mv	a1,a4
	mv	a0,a5
	call	ConvertHandleToHiiHandle
	sd	a0,-72(s0)
	.loc 1 442 36
	ld	a5,-72(s0)
	.loc 1 442 8
	bge	a5,zero,.L55
	.loc 1 443 7
	la	a5,gShellDriver1HiiHandle
	ld	s1,0(a5)
	ld	a5,-152(s0)
	mv	a0,a5
	call	ConvertHandleToHandleIndex@plt
	mv	a5,a0
	.loc 1 443 7 is_stmt 0 discriminator 1
	lla	a7,.LC2
	mv	a6,a5
	lla	a5,.LC0
	mv	a4,s1
	li	a3,10
	li	a2,0
	li	a1,-1
	li	a0,-1
	call	ShellPrintHiiEx@plt
	.loc 1 454 19 is_stmt 1
	li	a5,7
	sw	a5,-60(s0)
	.loc 1 455 7
	j	.L47
.L55:
	.loc 1 458 25
	ld	a5,-96(s0)
	ld	a5,16(a5)
	.loc 1 458 14
	ld	a4,-96(s0)
	ld	a3,-120(s0)
	ld	a2,-40(s0)
	mv	a1,a3
	mv	a0,a4
	jalr	a5
.LVL9:
	sd	a0,-72(s0)
	.loc 1 459 36
	ld	a5,-72(s0)
	.loc 1 459 8
	bge	a5,zero,.L47
	.loc 1 460 7
	la	a5,gShellDriver1HiiHandle
	ld	a4,0(a5)
	ld	a7,-72(s0)
	lla	a6,.LC3
	lla	a5,.LC0
	li	a3,19
	li	a2,0
	li	a1,-1
	li	a0,-1
	call	ShellPrintHiiEx@plt
	.loc 1 471 19
	li	a5,7
	sw	a5,-60(s0)
	.loc 1 472 7
	j	.L47
.L54:
	.loc 1 479 28
	ld	a5,-40(s0)
	sd	a5,-48(s0)
	.loc 1 479 5
	j	.L56
.L64:
	.loc 1 483 26
	ld	a5,-48(s0)
	addi	a5,a5,20
	sd	a5,-56(s0)
	.loc 1 483 7
	j	.L57
.L63:
	.loc 1 487 26
	ld	a5,-56(s0)
	lbu	a5,3(a5)
	.loc 1 487 12
	mv	a4,a5
	li	a5,8
	bne	a4,a5,.L58
	.loc 1 488 21
	sd	zero,-120(s0)
	.loc 1 489 20
	ld	a5,-56(s0)
	addi	a5,a5,4
	ld	a3,-96(s0)
	addi	a4,s0,-120
	mv	a2,a3
	mv	a1,a4
	mv	a0,a5
	call	FindHiiHandleViaDevPath
	sd	a0,-72(s0)
	.loc 1 490 42
	ld	a5,-72(s0)
	.loc 1 490 14
	bge	a5,zero,.L59
	.loc 1 494 33
	ld	a5,-56(s0)
	addi	a5,a5,4
	li	a2,1
	li	a1,1
	mv	a0,a5
	call	ConvertDevicePathToText@plt
	sd	a0,-88(s0)
	.loc 1 495 16
	ld	a5,-88(s0)
	bne	a5,zero,.L60
	.loc 1 496 15
	la	a5,gShellDriver1HiiHandle
	ld	a4,0(a5)
	lla	a5,.LC0
	li	a3,18
	li	a2,0
	li	a1,-1
	li	a0,-1
	call	ShellPrintHiiEx@plt
	.loc 1 505 27
	li	a5,9
	sw	a5,-60(s0)
	.loc 1 506 15
	j	.L47
.L60:
	.loc 1 509 13
	la	a5,gShellDriver1HiiHandle
	ld	a4,0(a5)
	ld	a5,-88(s0)
	li	a3,49
	li	a2,0
	li	a1,-1
	li	a0,-1
	call	ShellPrintHiiEx@plt
	.loc 1 517 21
	ld	a5,-88(s0)
	beq	a5,zero,.L58
	.loc 1 517 61 discriminator 1
	ld	a0,-88(s0)
	call	FreePool@plt
	.loc 1 517 112 discriminator 2
	sd	zero,-88(s0)
	j	.L58
.L59:
	.loc 1 519 33
	ld	a5,-96(s0)
	ld	a5,16(a5)
	.loc 1 519 22
	ld	a4,-96(s0)
	ld	a3,-120(s0)
	ld	a2,-48(s0)
	mv	a1,a3
	mv	a0,a4
	jalr	a5
.LVL10:
	sd	a0,-72(s0)
	.loc 1 520 44
	ld	a5,-72(s0)
	.loc 1 520 16
	bge	a5,zero,.L61
	.loc 1 521 15
	la	a5,gShellDriver1HiiHandle
	ld	a4,0(a5)
	ld	a7,-72(s0)
	lla	a6,.LC3
	lla	a5,.LC0
	li	a3,19
	li	a2,0
	li	a1,-1
	li	a0,-1
	call	ShellPrintHiiEx@plt
	.loc 1 532 27
	li	a5,7
	sw	a5,-60(s0)
	.loc 1 533 15
	j	.L47
.L61:
	.loc 1 535 25
	ld	a5,-56(s0)
	addi	a5,a5,4
	.loc 1 535 23
	sd	a5,-136(s0)
	.loc 1 536 18
	la	a5,gBS
	ld	a5,0(a5)
	ld	a5,184(a5)
	.loc 1 536 15
	addi	a3,s0,-152
	addi	a4,s0,-136
	mv	a2,a3
	mv	a1,a4
	la	a0,gEfiHiiConfigAccessProtocolGuid
	jalr	a5
.LVL11:
	.loc 1 537 29
	ld	a5,-152(s0)
	mv	a0,a5
	call	ConvertHandleToHandleIndex@plt
	sd	a0,-80(s0)
	.loc 1 538 15
	la	a5,gShellDriver1HiiHandle
	ld	a4,0(a5)
	ld	a5,-80(s0)
	li	a3,29
	li	a2,0
	li	a1,-1
	li	a0,-1
	call	ShellPrintHiiEx@plt
.L58:
	.loc 1 485 97
	ld	a5,-56(s0)
	lbu	a4,0(a5)
	lbu	a3,1(a5)
	slli	a3,a3,8
	or	a4,a3,a4
	lbu	a5,2(a5)
	slli	a5,a5,16
	or	a5,a5,a4
	sext.w	a5,a5
	slli	a5,a5,32
	srli	a5,a5,32
	.loc 1 485 28
	ld	a4,-56(s0)
	add	a5,a4,a5
	sd	a5,-56(s0)
.L57:
	.loc 1 484 113
	ld	a5,-56(s0)
	beq	a5,zero,.L62
	.loc 1 484 96 discriminator 1
	ld	a5,-112(s0)
	ld	a4,-40(s0)
	add	a5,a4,a5
	.loc 1 484 44 discriminator 1
	ld	a4,-56(s0)
	bgeu	a4,a5,.L62
	.loc 1 484 129 discriminator 2
	ld	a5,-56(s0)
	lbu	a5,3(a5)
	.loc 1 484 113 discriminator 2
	mv	a4,a5
	li	a5,223
	bne	a4,a5,.L63
.L62:
	.loc 1 481 114
	ld	a5,-48(s0)
	lbu	a4,16(a5)
	lbu	a3,17(a5)
	slli	a3,a3,8
	or	a4,a3,a4
	lbu	a3,18(a5)
	slli	a3,a3,16
	or	a4,a3,a4
	lbu	a5,19(a5)
	slli	a5,a5,24
	or	a5,a5,a4
	sext.w	a5,a5
	slli	a5,a5,32
	srli	a5,a5,32
	.loc 1 481 30
	ld	a4,-48(s0)
	add	a5,a4,a5
	sd	a5,-48(s0)
.L56:
	.loc 1 480 46
	ld	a5,-48(s0)
	beq	a5,zero,.L69
	.loc 1 480 102 discriminator 1
	ld	a5,-112(s0)
	ld	a4,-40(s0)
	add	a5,a4,a5
	.loc 1 480 46 discriminator 1
	ld	a4,-48(s0)
	bltu	a4,a5,.L64
.L69:
	.loc 1 553 1
	nop
.L47:
	.loc 1 554 11
	ld	a5,-40(s0)
	beq	a5,zero,.L65
	.loc 1 554 44 discriminator 1
	ld	a0,-40(s0)
	call	FreePool@plt
	.loc 1 554 81 discriminator 2
	sd	zero,-40(s0)
.L65:
	.loc 1 556 18
	ld	a5,-128(s0)
	.loc 1 556 6
	beq	a5,zero,.L66
	.loc 1 557 5
	addi	a5,s0,-128
	mv	a0,a5
	call	ShellCloseFile@plt
.L66:
	.loc 1 560 6
	lw	a5,-60(s0)
	sext.w	a5,a5
	bne	a5,zero,.L67
	.loc 1 561 5
	la	a5,gShellDriver1HiiHandle
	ld	a5,0(a5)
	mv	a4,a5
	li	a3,28
	li	a2,0
	li	a1,-1
	li	a0,-1
	call	ShellPrintHiiEx@plt
.L67:
	.loc 1 570 10
	lw	a5,-60(s0)
	.loc 1 571 1
	mv	a0,a5
	ld	ra,152(sp)
	.cfi_restore 1
	ld	s0,144(sp)
	.cfi_restore 8
	.cfi_def_cfa 2, 160
	ld	s1,136(sp)
	.cfi_restore 9
	addi	sp,sp,160
	.cfi_def_cfa_offset 0
	jr	ra
	.cfi_endproc
.LFE3:
	.size	ConfigFromFile, .-ConfigFromFile
	.section	.rodata
	.align	3
.LC4:
	.string	"s"
	.string	"t"
	.string	"o"
	.string	"p"
	.string	" "
	.string	"c"
	.string	"o"
	.string	"n"
	.string	"t"
	.string	"r"
	.string	"o"
	.string	"l"
	.string	"l"
	.string	"e"
	.string	"r"
	.zero	2
	.align	3
.LC5:
	.string	"s"
	.string	"t"
	.string	"o"
	.string	"p"
	.string	"p"
	.string	"e"
	.string	"d"
	.zero	2
	.align	3
.LC6:
	.string	"c"
	.string	"o"
	.string	"n"
	.string	"t"
	.string	"r"
	.string	"o"
	.string	"l"
	.string	"l"
	.string	"e"
	.string	"r"
	.zero	2
	.align	3
.LC7:
	.string	"r"
	.string	"e"
	.string	"s"
	.string	"t"
	.string	"a"
	.string	"r"
	.string	"t"
	.string	" "
	.string	"c"
	.string	"o"
	.string	"n"
	.string	"t"
	.string	"r"
	.string	"o"
	.string	"l"
	.string	"l"
	.string	"e"
	.string	"r"
	.zero	2
	.align	3
.LC8:
	.string	"r"
	.string	"e"
	.string	"s"
	.string	"t"
	.string	"a"
	.string	"r"
	.string	"t"
	.string	"e"
	.string	"d"
	.zero	2
	.align	3
.LC9:
	.string	"p"
	.string	"l"
	.string	"a"
	.string	"t"
	.string	"f"
	.string	"o"
	.string	"r"
	.string	"m"
	.zero	2
	.align	3
.LC10:
	.string	"r"
	.string	"e"
	.string	"s"
	.string	"t"
	.string	"a"
	.string	"r"
	.string	"t"
	.string	" "
	.string	"p"
	.string	"l"
	.string	"a"
	.string	"t"
	.string	"f"
	.string	"o"
	.string	"r"
	.string	"m"
	.zero	2
	.section	.text.ShellCmdDriverConfigurationProcessActionRequired,"ax",@progbits
	.align	1
	.globl	ShellCmdDriverConfigurationProcessActionRequired
	.type	ShellCmdDriverConfigurationProcessActionRequired, @function
ShellCmdDriverConfigurationProcessActionRequired:
.LFB4:
	.loc 1 590 1
	.cfi_startproc
	addi	sp,sp,-64
	.cfi_def_cfa_offset 64
	sd	ra,56(sp)
	sd	s0,48(sp)
	.cfi_offset 1, -8
	.cfi_offset 8, -16
	addi	s0,sp,64
	.cfi_def_cfa 8, 0
	sd	a0,-40(s0)
	sd	a1,-48(s0)
	sd	a2,-56(s0)
	mv	a5,a3
	sw	a5,-60(s0)
	.loc 1 593 3
	lw	a5,-60(s0)
	sext.w	a4,a5
	li	a5,3
	beq	a4,a5,.L71
	lw	a5,-60(s0)
	sext.w	a4,a5
	li	a5,3
	bgtu	a4,a5,.L72
	lw	a5,-60(s0)
	sext.w	a4,a5
	li	a5,2
	beq	a4,a5,.L73
	lw	a5,-60(s0)
	sext.w	a4,a5
	li	a5,2
	bgtu	a4,a5,.L72
	lw	a5,-60(s0)
	sext.w	a5,a5
	beq	a5,zero,.L74
	lw	a5,-60(s0)
	sext.w	a4,a5
	li	a5,1
	beq	a4,a5,.L75
	j	.L72
.L74:
	.loc 1 595 7
	la	a5,gShellDriver1HiiHandle
	ld	a5,0(a5)
	mv	a4,a5
	li	a3,37
	li	a2,0
	li	a1,-1
	li	a0,-1
	call	ShellPrintHiiEx@plt
	.loc 1 596 7
	j	.L76
.L75:
	.loc 1 599 7
	la	a5,gShellDriver1HiiHandle
	ld	a5,0(a5)
	mv	a4,a5
	li	a3,35
	li	a2,0
	li	a1,-1
	li	a0,-1
	call	ShellPrintHiiEx@plt
	.loc 1 600 7
	la	a5,gShellDriver1HiiHandle
	ld	a4,0(a5)
	lla	a5,.LC4
	li	a3,36
	li	a2,0
	li	a1,-1
	li	a0,-1
	call	ShellPrintHiiEx@plt
	.loc 1 601 7
	li	a2,0
	li	a1,0
	li	a0,5
	call	ShellPromptForResponse@plt
	.loc 1 603 10
	la	a5,gBS
	ld	a5,0(a5)
	ld	a5,272(a5)
	.loc 1 603 7
	ld	a2,-56(s0)
	ld	a1,-40(s0)
	ld	a0,-48(s0)
	jalr	a5
.LVL12:
	.loc 1 604 7
	la	a5,gShellDriver1HiiHandle
	ld	a4,0(a5)
	lla	a5,.LC5
	li	a3,38
	li	a2,0
	li	a1,-1
	li	a0,-1
	call	ShellPrintHiiEx@plt
	.loc 1 605 7
	j	.L76
.L73:
	.loc 1 608 7
	la	a5,gShellDriver1HiiHandle
	ld	a4,0(a5)
	lla	a5,.LC6
	li	a3,34
	li	a2,0
	li	a1,-1
	li	a0,-1
	call	ShellPrintHiiEx@plt
	.loc 1 609 7
	la	a5,gShellDriver1HiiHandle
	ld	a4,0(a5)
	lla	a5,.LC7
	li	a3,36
	li	a2,0
	li	a1,-1
	li	a0,-1
	call	ShellPrintHiiEx@plt
	.loc 1 610 7
	li	a2,0
	li	a1,0
	li	a0,5
	call	ShellPromptForResponse@plt
	.loc 1 612 10
	la	a5,gBS
	ld	a5,0(a5)
	ld	a5,272(a5)
	.loc 1 612 7
	ld	a2,-56(s0)
	ld	a1,-40(s0)
	ld	a0,-48(s0)
	jalr	a5
.LVL13:
	.loc 1 613 43
	ld	a5,-40(s0)
	sd	a5,-32(s0)
	.loc 1 614 43
	sd	zero,-24(s0)
	.loc 1 615 10
	la	a5,gBS
	ld	a5,0(a5)
	ld	a5,264(a5)
	.loc 1 615 7
	addi	a4,s0,-32
	li	a3,1
	li	a2,0
	mv	a1,a4
	ld	a0,-48(s0)
	jalr	a5
.LVL14:
	.loc 1 616 7
	la	a5,gShellDriver1HiiHandle
	ld	a4,0(a5)
	lla	a5,.LC8
	li	a3,38
	li	a2,0
	li	a1,-1
	li	a0,-1
	call	ShellPrintHiiEx@plt
	.loc 1 617 7
	j	.L76
.L71:
	.loc 1 620 7
	la	a5,gShellDriver1HiiHandle
	ld	a4,0(a5)
	lla	a5,.LC9
	li	a3,34
	li	a2,0
	li	a1,-1
	li	a0,-1
	call	ShellPrintHiiEx@plt
	.loc 1 621 7
	la	a5,gShellDriver1HiiHandle
	ld	a4,0(a5)
	lla	a5,.LC10
	li	a3,36
	li	a2,0
	li	a1,-1
	li	a0,-1
	call	ShellPrintHiiEx@plt
	.loc 1 622 7
	li	a2,0
	li	a1,0
	li	a0,5
	call	ShellPromptForResponse@plt
	.loc 1 624 10
	la	a5,gRT
	ld	a5,0(a5)
	ld	a5,104(a5)
	.loc 1 624 7
	li	a3,0
	li	a2,0
	li	a1,0
	li	a0,0
	jalr	a5
.LVL15:
	.loc 1 625 7
	j	.L76
.L72:
	.loc 1 628 14
	li	a5,-1
	slli	a5,a5,63
	addi	a5,a5,2
	j	.L78
.L76:
	.loc 1 631 10
	li	a5,0
.L78:
	.loc 1 632 1
	mv	a0,a5
	ld	ra,56(sp)
	.cfi_restore 1
	ld	s0,48(sp)
	.cfi_restore 8
	.cfi_def_cfa 2, 64
	addi	sp,sp,64
	.cfi_def_cfa_offset 0
	jr	ra
	.cfi_endproc
.LFE4:
	.size	ShellCmdDriverConfigurationProcessActionRequired, .-ShellCmdDriverConfigurationProcessActionRequired
	.section	.rodata
	.align	3
.LC11:
	.string	""
	.align	3
.LC12:
	.string	"-"
	.string	"l"
	.zero	2
	.align	3
.LC13:
	.string	"\n"
	.zero	2
	.section	.text.PreHiiDrvCfg,"ax",@progbits
	.align	1
	.globl	PreHiiDrvCfg
	.type	PreHiiDrvCfg, @function
PreHiiDrvCfg:
.LFB5:
	.loc 1 662 1
	.cfi_startproc
	addi	sp,sp,-240
	.cfi_def_cfa_offset 240
	sd	ra,232(sp)
	sd	s0,224(sp)
	sd	s1,216(sp)
	.cfi_offset 1, -8
	.cfi_offset 8, -16
	.cfi_offset 9, -24
	addi	s0,sp,240
	.cfi_def_cfa 8, 0
	sd	a0,-200(s0)
	mv	a0,a1
	mv	a1,a2
	mv	a2,a3
	mv	a3,a4
	mv	a4,a5
	sd	a6,-216(s0)
	sd	a7,-224(s0)
	mv	a5,a0
	sb	a5,-201(s0)
	mv	a5,a1
	sw	a5,-208(s0)
	mv	a5,a2
	sb	a5,-202(s0)
	mv	a5,a3
	sb	a5,-203(s0)
	mv	a5,a4
	sb	a5,-204(s0)
	.loc 1 684 15
	sw	zero,-44(s0)
	.loc 1 686 6
	ld	a5,0(s0)
	bne	a5,zero,.L80
	.loc 1 686 37 discriminator 1
	lbu	a5,-202(s0)
	andi	a5,a5,0xff
	beq	a5,zero,.L80
	.loc 1 687 16
	sb	zero,-204(s0)
.L80:
	.loc 1 690 6
	lbu	a5,-201(s0)
	andi	a5,a5,0xff
	beq	a5,zero,.L81
	.loc 1 691 5
	la	a5,gShellDriver1HiiHandle
	ld	a4,0(a5)
	lw	a5,-208(s0)
	li	a3,39
	li	a2,0
	li	a1,-1
	li	a0,-1
	call	ShellPrintHiiEx@plt
	j	.L82
.L81:
	.loc 1 699 13
	lbu	a5,-203(s0)
	andi	a5,a5,0xff
	beq	a5,zero,.L83
	.loc 1 700 5
	la	a5,gShellDriver1HiiHandle
	ld	a5,0(a5)
	mv	a4,a5
	li	a3,40
	li	a2,0
	li	a1,-1
	li	a0,-1
	call	ShellPrintHiiEx@plt
	j	.L82
.L83:
	.loc 1 707 13
	lbu	a5,-204(s0)
	andi	a5,a5,0xff
	beq	a5,zero,.L82
	.loc 1 708 5
	la	a5,gShellDriver1HiiHandle
	ld	a5,0(a5)
	mv	a4,a5
	li	a3,41
	li	a2,0
	li	a1,-1
	li	a0,-1
	call	ShellPrintHiiEx@plt
.L82:
	.loc 1 717 6
	ld	a5,-216(s0)
	bne	a5,zero,.L84
	.loc 1 718 31
	lla	a0,CfgGuidList
	call	GetHandleListByProtocolList@plt
	sd	a0,-72(s0)
	.loc 1 719 8
	ld	a5,-72(s0)
	bne	a5,zero,.L85
	.loc 1 720 19
	li	a5,14
	sw	a5,-44(s0)
	.loc 1 721 7
	j	.L86
.L85:
	.loc 1 725 23
	ld	a5,-72(s0)
	sd	a5,-144(s0)
	.loc 1 725 73
	sd	zero,-64(s0)
	.loc 1 724 5
	j	.L87
.L89:
	.loc 1 727 24
	ld	a5,-144(s0)
	addi	a5,a5,8
	sd	a5,-144(s0)
	.loc 1 727 50
	ld	a5,-64(s0)
	addi	a5,a5,1
	sd	a5,-64(s0)
.L87:
	.loc 1 726 25
	ld	a5,-144(s0)
	.loc 1 726 41
	beq	a5,zero,.L88
	.loc 1 726 44 discriminator 1
	ld	a5,-144(s0)
	ld	a5,0(a5)
	.loc 1 726 41 discriminator 1
	bne	a5,zero,.L89
	j	.L88
.L84:
	.loc 1 731 28
	li	a5,1
	sd	a5,-64(s0)
	.loc 1 736 31
	li	a0,8
	call	AllocatePool@plt
	sd	a0,-72(s0)
	.loc 1 737 8
	ld	a5,-72(s0)
	bne	a5,zero,.L90
	.loc 1 739 19
	li	a5,9
	sw	a5,-44(s0)
	.loc 1 740 7
	j	.L86
.L90:
	.loc 1 743 32
	ld	a5,-72(s0)
	ld	a4,-216(s0)
	sd	a4,0(a5)
.L88:
	.loc 1 746 25
	sd	zero,-56(s0)
	.loc 1 746 3
	j	.L91
.L130:
	.loc 1 747 20
	sb	zero,-89(s0)
	.loc 1 748 17
	la	a5,gBS
	ld	a5,0(a5)
	ld	a6,280(a5)
	.loc 1 749 52
	ld	a5,-56(s0)
	slli	a5,a5,3
	ld	a4,-72(s0)
	add	a5,a4,a5
	.loc 1 748 14
	ld	a0,0(a5)
	addi	a2,s0,-192
	li	a5,2
	li	a4,0
	li	a3,0
	la	a1,gEfiDriverConfiguration2ProtocolGuid
	jalr	a6
.LVL16:
	sd	a0,-40(s0)
	.loc 1 756 36
	ld	a5,-40(s0)
	.loc 1 756 8
	bge	a5,zero,.L92
	.loc 1 757 22
	li	a5,1
	sb	a5,-89(s0)
	.loc 1 758 19
	la	a5,gBS
	ld	a5,0(a5)
	ld	a6,280(a5)
	.loc 1 759 54
	ld	a5,-56(s0)
	slli	a5,a5,3
	ld	a4,-72(s0)
	add	a5,a4,a5
	.loc 1 758 16
	ld	a0,0(a5)
	addi	a2,s0,-192
	li	a5,2
	li	a4,0
	li	a3,0
	la	a1,gEfiDriverConfigurationProtocolGuid
	jalr	a6
.LVL17:
	sd	a0,-40(s0)
.L92:
	.loc 1 768 36
	ld	a5,-40(s0)
	.loc 1 768 8
	bge	a5,zero,.L93
	.loc 1 777 19
	li	a5,3
	sw	a5,-44(s0)
	.loc 1 778 7
	j	.L94
.L93:
	.loc 1 782 41
	ld	a5,-192(s0)
	ld	a0,24(a5)
	.loc 1 781 20
	lbu	a1,-89(s0)
	ld	a5,-200(s0)
	beq	a5,zero,.L95
	.loc 1 781 20 is_stmt 0 discriminator 1
	ld	a5,-200(s0)
	j	.L96
.L95:
	.loc 1 781 20 discriminator 2
	lla	a5,.LC11
.L96:
	.loc 1 785 41 is_stmt 1
	ld	a4,-192(s0)
	.loc 1 781 20
	ld	a3,24(a4)
	li	a4,0
	mv	a2,a5
	call	GetBestLanguage@plt
	sd	a0,-104(s0)
	.loc 1 788 8
	ld	a5,-104(s0)
	bne	a5,zero,.L97
	.loc 1 789 7
	la	a5,gShellDriver1HiiHandle
	ld	a4,0(a5)
	lla	a6,.LC12
	lla	a5,.LC0
	li	a3,9
	li	a2,0
	li	a1,-1
	li	a0,-1
	call	ShellPrintHiiEx@plt
	.loc 1 798 19
	li	a5,2
	sw	a5,-44(s0)
	.loc 1 799 7
	j	.L94
.L97:
	.loc 1 803 39
	ld	a5,-56(s0)
	slli	a5,a5,3
	ld	a4,-72(s0)
	add	a5,a4,a5
	.loc 1 802 14
	ld	a5,0(a5)
	addi	a4,s0,-152
	addi	a3,s0,-144
	addi	a2,s0,-136
	li	a1,0
	mv	a0,a5
	call	ParseHandleDatabaseByRelationshipWithType@plt
	sd	a0,-40(s0)
	.loc 1 809 36
	ld	a5,-40(s0)
	.loc 1 809 8
	blt	a5,zero,.L132
	.loc 1 813 8
	lbu	a5,-204(s0)
	andi	a5,a5,0xff
	beq	a5,zero,.L99
	.loc 1 813 20 discriminator 1
	ld	a5,-224(s0)
	bne	a5,zero,.L99
	.loc 1 814 10
	la	a5,gST
	ld	a5,0(a5)
	ld	a5,64(a5)
	.loc 1 814 18
	ld	a5,48(a5)
	.loc 1 814 36
	la	a4,gST
	ld	a4,0(a4)
	.loc 1 814 7
	ld	a4,64(a4)
	mv	a0,a4
	jalr	a5
.LVL18:
	.loc 1 815 35
	ld	a5,-192(s0)
	ld	a5,0(a5)
	.loc 1 815 16
	ld	a0,-192(s0)
	addi	a4,s0,-180
	ld	a3,-104(s0)
	li	a2,0
	li	a1,0
	jalr	a5
.LVL19:
	sd	a0,-40(s0)
	.loc 1 822 10
	la	a5,gST
	ld	a5,0(a5)
	ld	a5,64(a5)
	.loc 1 822 18
	ld	a5,48(a5)
	.loc 1 822 36
	la	a4,gST
	ld	a4,0(a4)
	.loc 1 822 7
	ld	a4,64(a4)
	mv	a0,a4
	jalr	a5
.LVL20:
	.loc 1 824 7
	la	a5,gShellDriver1HiiHandle
	ld	s1,0(a5)
	.loc 1 830 60
	ld	a5,-56(s0)
	slli	a5,a5,3
	ld	a4,-72(s0)
	add	a5,a4,a5
	.loc 1 824 7
	ld	a5,0(a5)
	mv	a0,a5
	call	ConvertHandleToHandleIndex@plt
	mv	a4,a0
	.loc 1 831 28
	ld	a5,-192(s0)
	.loc 1 824 7
	ld	a5,24(a5)
	mv	a6,a5
	mv	a5,a4
	mv	a4,s1
	li	a3,31
	li	a2,0
	li	a1,-1
	li	a0,-1
	call	ShellPrintHiiEx@plt
	.loc 1 833 11
	ld	a5,-40(s0)
	.loc 1 833 10
	blt	a5,zero,.L100
	.loc 1 834 9
	la	a5,gShellDriver1HiiHandle
	ld	a5,0(a5)
	mv	a4,a5
	li	a3,43
	li	a2,0
	li	a1,-1
	li	a0,-1
	call	ShellPrintHiiEx@plt
	.loc 1 841 26
	sd	zero,-80(s0)
	.loc 1 841 9
	j	.L101
.L103:
	.loc 1 842 26
	ld	a4,-152(s0)
	ld	a5,-80(s0)
	slli	a5,a5,3
	add	a5,a4,a5
	ld	a5,0(a5)
	.loc 1 842 40
	andi	a5,a5,1024
	.loc 1 842 14
	beq	a5,zero,.L102
	.loc 1 844 38
	ld	a5,-56(s0)
	slli	a5,a5,3
	ld	a4,-72(s0)
	add	a5,a4,a5
	.loc 1 843 13
	ld	a0,0(a5)
	.loc 1 845 27
	ld	a4,-144(s0)
	ld	a5,-80(s0)
	slli	a5,a5,3
	add	a5,a4,a5
	.loc 1 843 13
	ld	a5,0(a5)
	lw	a4,-180(s0)
	mv	a3,a4
	li	a2,0
	mv	a1,a5
	call	ShellCmdDriverConfigurationProcessActionRequired
.L102:
	.loc 1 841 69 discriminator 2
	ld	a5,-80(s0)
	addi	a5,a5,1
	sd	a5,-80(s0)
.L101:
	.loc 1 841 43 discriminator 1
	ld	a5,-136(s0)
	ld	a4,-80(s0)
	bltu	a4,a5,.L103
	.loc 1 862 7
	j	.L94
.L100:
	.loc 1 852 9
	la	a5,gShellDriver1HiiHandle
	ld	a4,0(a5)
	ld	a5,-40(s0)
	li	a3,44
	li	a2,0
	li	a1,-1
	li	a0,-1
	call	ShellPrintHiiEx@plt
	.loc 1 862 7
	j	.L94
.L99:
	.loc 1 865 22
	sd	zero,-80(s0)
	.loc 1 865 5
	j	.L105
.L129:
	.loc 1 866 22
	ld	a4,-152(s0)
	ld	a5,-80(s0)
	slli	a5,a5,3
	add	a5,a4,a5
	ld	a5,0(a5)
	.loc 1 866 36
	andi	a5,a5,1024
	.loc 1 866 10
	beq	a5,zero,.L133
	.loc 1 870 10
	ld	a5,-224(s0)
	beq	a5,zero,.L108
	.loc 1 870 74 discriminator 1
	ld	a4,-144(s0)
	ld	a5,-80(s0)
	slli	a5,a5,3
	add	a5,a4,a5
	ld	a5,0(a5)
	.loc 1 870 42 discriminator 1
	ld	a4,-224(s0)
	bne	a4,a5,.L134
.L108:
	.loc 1 874 10
	ld	a5,0(s0)
	bne	a5,zero,.L109
	.loc 1 875 75
	ld	a5,-56(s0)
	slli	a5,a5,3
	ld	a4,-72(s0)
	add	a5,a4,a5
	.loc 1 875 24
	ld	a5,0(a5)
	mv	a0,a5
	call	ConvertHandleToHandleIndex@plt
	sd	a0,-112(s0)
	.loc 1 876 64
	ld	a4,-144(s0)
	ld	a5,-80(s0)
	slli	a5,a5,3
	add	a5,a4,a5
	.loc 1 876 24
	ld	a5,0(a5)
	mv	a0,a5
	call	ConvertHandleToHandleIndex@plt
	sd	a0,-120(s0)
	.loc 1 877 9
	la	a5,gShellDriver1HiiHandle
	ld	a4,0(a5)
	.loc 1 885 30
	ld	a5,-192(s0)
	.loc 1 877 9
	ld	a5,24(a5)
	mv	a7,a5
	ld	a6,-120(s0)
	ld	a5,-112(s0)
	li	a3,32
	li	a2,0
	li	a1,-1
	li	a0,-1
	call	ShellPrintHiiEx@plt
	.loc 1 888 12
	lbu	a5,-201(s0)
	andi	a5,a5,0xff
	beq	a5,zero,.L110
	.loc 1 889 39
	ld	a5,-192(s0)
	ld	a5,16(a5)
	.loc 1 889 20
	ld	a0,-192(s0)
	.loc 1 891 55
	ld	a3,-144(s0)
	ld	a4,-80(s0)
	slli	a4,a4,3
	add	a4,a3,a4
	.loc 1 889 20
	ld	a1,0(a4)
	addi	a4,s0,-180
	lw	a3,-208(s0)
	li	a2,0
	jalr	a5
.LVL21:
	sd	a0,-40(s0)
	.loc 1 897 15
	ld	a5,-40(s0)
	.loc 1 897 14
	blt	a5,zero,.L111
	.loc 1 898 13
	la	a5,gShellDriver1HiiHandle
	ld	a5,0(a5)
	mv	a4,a5
	li	a3,45
	li	a2,0
	li	a1,-1
	li	a0,-1
	call	ShellPrintHiiEx@plt
	.loc 1 906 38
	ld	a5,-56(s0)
	slli	a5,a5,3
	ld	a4,-72(s0)
	add	a5,a4,a5
	.loc 1 905 13
	ld	a0,0(a5)
	.loc 1 907 27
	ld	a4,-144(s0)
	ld	a5,-80(s0)
	slli	a5,a5,3
	add	a5,a4,a5
	.loc 1 905 13
	ld	a5,0(a5)
	lw	a4,-180(s0)
	mv	a3,a4
	li	a2,0
	mv	a1,a5
	call	ShellCmdDriverConfigurationProcessActionRequired
	j	.L109
.L111:
	.loc 1 912 13
	la	a5,gShellDriver1HiiHandle
	ld	a4,0(a5)
	ld	a5,-40(s0)
	li	a3,46
	li	a2,0
	li	a1,-1
	li	a0,-1
	call	ShellPrintHiiEx@plt
	.loc 1 920 25
	li	a5,7
	sw	a5,-44(s0)
	j	.L109
.L110:
	.loc 1 922 19
	lbu	a5,-203(s0)
	andi	a5,a5,0xff
	beq	a5,zero,.L112
	.loc 1 923 39
	ld	a5,-192(s0)
	ld	a5,8(a5)
	.loc 1 923 20
	ld	a0,-192(s0)
	.loc 1 925 55
	ld	a3,-144(s0)
	ld	a4,-80(s0)
	slli	a4,a4,3
	add	a4,a3,a4
	.loc 1 923 20
	ld	a4,0(a4)
	li	a2,0
	mv	a1,a4
	jalr	a5
.LVL22:
	sd	a0,-40(s0)
	.loc 1 929 15
	ld	a5,-40(s0)
	.loc 1 929 14
	blt	a5,zero,.L113
	.loc 1 930 13
	la	a5,gShellDriver1HiiHandle
	ld	a5,0(a5)
	mv	a4,a5
	li	a3,47
	li	a2,0
	li	a1,-1
	li	a0,-1
	call	ShellPrintHiiEx@plt
	j	.L109
.L113:
	.loc 1 938 13
	la	a5,gShellDriver1HiiHandle
	ld	a4,0(a5)
	ld	a5,-40(s0)
	li	a3,48
	li	a2,0
	li	a1,-1
	li	a0,-1
	call	ShellPrintHiiEx@plt
	.loc 1 946 25
	li	a5,7
	sw	a5,-44(s0)
	j	.L109
.L112:
	.loc 1 948 19
	lbu	a5,-204(s0)
	andi	a5,a5,0xff
	beq	a5,zero,.L114
	.loc 1 949 14
	la	a5,gST
	ld	a5,0(a5)
	ld	a5,64(a5)
	.loc 1 949 22
	ld	a5,48(a5)
	.loc 1 949 40
	la	a4,gST
	ld	a4,0(a4)
	.loc 1 949 11
	ld	a4,64(a4)
	mv	a0,a4
	jalr	a5
.LVL23:
	.loc 1 950 39
	ld	a5,-192(s0)
	ld	a5,0(a5)
	.loc 1 950 20
	ld	a0,-192(s0)
	.loc 1 952 55
	ld	a3,-144(s0)
	ld	a4,-80(s0)
	slli	a4,a4,3
	add	a4,a3,a4
	.loc 1 950 20
	ld	a1,0(a4)
	addi	a4,s0,-180
	ld	a3,-104(s0)
	li	a2,0
	jalr	a5
.LVL24:
	sd	a0,-40(s0)
	.loc 1 957 14
	la	a5,gST
	ld	a5,0(a5)
	ld	a5,64(a5)
	.loc 1 957 22
	ld	a5,48(a5)
	.loc 1 957 40
	la	a4,gST
	ld	a4,0(a4)
	.loc 1 957 11
	ld	a4,64(a4)
	mv	a0,a4
	jalr	a5
.LVL25:
	.loc 1 958 77
	ld	a5,-56(s0)
	slli	a5,a5,3
	ld	a4,-72(s0)
	add	a5,a4,a5
	.loc 1 958 26
	ld	a5,0(a5)
	mv	a0,a5
	call	ConvertHandleToHandleIndex@plt
	sd	a0,-112(s0)
	.loc 1 959 66
	ld	a4,-144(s0)
	ld	a5,-80(s0)
	slli	a5,a5,3
	add	a5,a4,a5
	.loc 1 959 26
	ld	a5,0(a5)
	mv	a0,a5
	call	ConvertHandleToHandleIndex@plt
	sd	a0,-120(s0)
	.loc 1 960 11
	la	a5,gShellDriver1HiiHandle
	ld	a4,0(a5)
	.loc 1 968 32
	ld	a5,-192(s0)
	.loc 1 960 11
	ld	a5,24(a5)
	mv	a7,a5
	ld	a6,-120(s0)
	ld	a5,-112(s0)
	li	a3,32
	li	a2,0
	li	a1,-1
	li	a0,-1
	call	ShellPrintHiiEx@plt
	.loc 1 970 15
	ld	a5,-40(s0)
	.loc 1 970 14
	blt	a5,zero,.L115
	.loc 1 971 13
	la	a5,gShellDriver1HiiHandle
	ld	a5,0(a5)
	mv	a4,a5
	li	a3,43
	li	a2,0
	li	a1,-1
	li	a0,-1
	call	ShellPrintHiiEx@plt
	.loc 1 980 38
	ld	a5,-56(s0)
	slli	a5,a5,3
	ld	a4,-72(s0)
	add	a5,a4,a5
	.loc 1 979 13
	ld	a0,0(a5)
	.loc 1 981 27
	ld	a4,-144(s0)
	ld	a5,-80(s0)
	slli	a5,a5,3
	add	a5,a4,a5
	.loc 1 979 13
	ld	a5,0(a5)
	lw	a4,-180(s0)
	mv	a3,a4
	li	a2,0
	mv	a1,a5
	call	ShellCmdDriverConfigurationProcessActionRequired
	j	.L109
.L115:
	.loc 1 986 13
	la	a5,gShellDriver1HiiHandle
	ld	a4,0(a5)
	ld	a5,-40(s0)
	li	a3,44
	li	a2,0
	li	a1,-1
	li	a0,-1
	call	ShellPrintHiiEx@plt
	.loc 1 994 25
	li	a5,7
	sw	a5,-44(s0)
	j	.L109
.L114:
	.loc 1 997 11
	lla	a0,.LC13
	call	Print@plt
.L109:
	.loc 1 1001 10
	ld	a5,0(s0)
	bne	a5,zero,.L116
	.loc 1 1001 41 discriminator 1
	lbu	a5,-202(s0)
	andi	a5,a5,0xff
	beq	a5,zero,.L135
.L116:
	.loc 1 1006 41
	ld	a5,-56(s0)
	slli	a5,a5,3
	ld	a4,-72(s0)
	add	a5,a4,a5
	.loc 1 1005 16
	ld	a0,0(a5)
	.loc 1 1007 30
	ld	a4,-144(s0)
	ld	a5,-80(s0)
	slli	a5,a5,3
	add	a5,a4,a5
	.loc 1 1005 16
	ld	a5,0(a5)
	addi	a4,s0,-176
	addi	a3,s0,-168
	addi	a2,s0,-160
	mv	a1,a5
	call	ParseHandleDatabaseByRelationshipWithType@plt
	sd	a0,-40(s0)
	.loc 1 1012 38
	ld	a5,-40(s0)
	.loc 1 1012 10
	blt	a5,zero,.L136
	.loc 1 1016 23
	sd	zero,-88(s0)
	.loc 1 1016 7
	j	.L118
.L128:
	.loc 1 1017 29
	ld	a4,-176(s0)
	ld	a5,-88(s0)
	slli	a5,a5,3
	add	a5,a4,a5
	ld	a4,0(a5)
	.loc 1 1017 42
	li	a5,4096
	addi	a5,a5,-2048
	and	a5,a4,a5
	.loc 1 1017 12
	beq	a5,zero,.L137
	.loc 1 1021 12
	ld	a5,0(s0)
	beq	a5,zero,.L121
	.loc 1 1021 79 discriminator 1
	ld	a4,-168(s0)
	ld	a5,-88(s0)
	slli	a5,a5,3
	add	a5,a4,a5
	ld	a5,0(a5)
	.loc 1 1021 43 discriminator 1
	ld	a4,0(s0)
	bne	a4,a5,.L138
.L121:
	.loc 1 1025 75
	ld	a5,-56(s0)
	slli	a5,a5,3
	ld	a4,-72(s0)
	add	a5,a4,a5
	.loc 1 1025 24
	ld	a5,0(a5)
	mv	a0,a5
	call	ConvertHandleToHandleIndex@plt
	sd	a0,-112(s0)
	.loc 1 1026 64
	ld	a4,-144(s0)
	ld	a5,-80(s0)
	slli	a5,a5,3
	add	a5,a4,a5
	.loc 1 1026 24
	ld	a5,0(a5)
	mv	a0,a5
	call	ConvertHandleToHandleIndex@plt
	sd	a0,-120(s0)
	.loc 1 1027 69
	ld	a4,-168(s0)
	ld	a5,-88(s0)
	slli	a5,a5,3
	add	a5,a4,a5
	.loc 1 1027 24
	ld	a5,0(a5)
	mv	a0,a5
	call	ConvertHandleToHandleIndex@plt
	sd	a0,-128(s0)
	.loc 1 1028 9
	la	a5,gShellDriver1HiiHandle
	ld	a4,0(a5)
	.loc 1 1037 30
	ld	a5,-192(s0)
	.loc 1 1028 9
	ld	a5,24(a5)
	sd	a5,0(sp)
	ld	a7,-128(s0)
	ld	a6,-120(s0)
	ld	a5,-112(s0)
	li	a3,33
	li	a2,0
	li	a1,-1
	li	a0,-1
	call	ShellPrintHiiEx@plt
	.loc 1 1040 12
	lbu	a5,-201(s0)
	andi	a5,a5,0xff
	beq	a5,zero,.L122
	.loc 1 1041 39
	ld	a5,-192(s0)
	ld	a5,16(a5)
	.loc 1 1041 20
	ld	a0,-192(s0)
	.loc 1 1043 55
	ld	a3,-144(s0)
	ld	a4,-80(s0)
	slli	a4,a4,3
	add	a4,a3,a4
	.loc 1 1041 20
	ld	a1,0(a4)
	.loc 1 1044 60
	ld	a3,-168(s0)
	ld	a4,-88(s0)
	slli	a4,a4,3
	add	a4,a3,a4
	.loc 1 1041 20
	ld	a2,0(a4)
	addi	a4,s0,-180
	lw	a3,-208(s0)
	jalr	a5
.LVL26:
	sd	a0,-40(s0)
	.loc 1 1049 15
	ld	a5,-40(s0)
	.loc 1 1049 14
	blt	a5,zero,.L123
	.loc 1 1050 13
	la	a5,gShellDriver1HiiHandle
	ld	a5,0(a5)
	mv	a4,a5
	li	a3,45
	li	a2,0
	li	a1,-1
	li	a0,-1
	call	ShellPrintHiiEx@plt
	.loc 1 1059 38
	ld	a5,-56(s0)
	slli	a5,a5,3
	ld	a4,-72(s0)
	add	a5,a4,a5
	.loc 1 1058 13
	ld	a0,0(a5)
	.loc 1 1060 27
	ld	a4,-144(s0)
	ld	a5,-80(s0)
	slli	a5,a5,3
	add	a5,a4,a5
	.loc 1 1058 13
	ld	a1,0(a5)
	.loc 1 1061 32
	ld	a4,-168(s0)
	ld	a5,-88(s0)
	slli	a5,a5,3
	add	a5,a4,a5
	.loc 1 1058 13
	ld	a5,0(a5)
	lw	a4,-180(s0)
	mv	a3,a4
	mv	a2,a5
	call	ShellCmdDriverConfigurationProcessActionRequired
	j	.L120
.L123:
	.loc 1 1065 13
	la	a5,gShellDriver1HiiHandle
	ld	a4,0(a5)
	ld	a5,-40(s0)
	li	a3,46
	li	a2,0
	li	a1,-1
	li	a0,-1
	call	ShellPrintHiiEx@plt
	.loc 1 1073 25
	li	a5,7
	sw	a5,-44(s0)
	j	.L120
.L122:
	.loc 1 1075 19
	lbu	a5,-203(s0)
	andi	a5,a5,0xff
	beq	a5,zero,.L124
	.loc 1 1076 39
	ld	a5,-192(s0)
	ld	a5,8(a5)
	.loc 1 1076 20
	ld	a0,-192(s0)
	.loc 1 1078 55
	ld	a3,-144(s0)
	ld	a4,-80(s0)
	slli	a4,a4,3
	add	a4,a3,a4
	.loc 1 1076 20
	ld	a1,0(a4)
	.loc 1 1079 60
	ld	a3,-168(s0)
	ld	a4,-88(s0)
	slli	a4,a4,3
	add	a4,a3,a4
	.loc 1 1076 20
	ld	a4,0(a4)
	mv	a2,a4
	jalr	a5
.LVL27:
	sd	a0,-40(s0)
	.loc 1 1082 15
	ld	a5,-40(s0)
	.loc 1 1082 14
	blt	a5,zero,.L125
	.loc 1 1083 13
	la	a5,gShellDriver1HiiHandle
	ld	a5,0(a5)
	mv	a4,a5
	li	a3,47
	li	a2,0
	li	a1,-1
	li	a0,-1
	call	ShellPrintHiiEx@plt
	j	.L120
.L125:
	.loc 1 1091 13
	la	a5,gShellDriver1HiiHandle
	ld	a4,0(a5)
	ld	a5,-40(s0)
	li	a3,48
	li	a2,0
	li	a1,-1
	li	a0,-1
	call	ShellPrintHiiEx@plt
	.loc 1 1099 25
	li	a5,7
	sw	a5,-44(s0)
	j	.L120
.L124:
	.loc 1 1101 19
	lbu	a5,-204(s0)
	andi	a5,a5,0xff
	beq	a5,zero,.L126
	.loc 1 1102 14
	la	a5,gST
	ld	a5,0(a5)
	ld	a5,64(a5)
	.loc 1 1102 22
	ld	a5,48(a5)
	.loc 1 1102 40
	la	a4,gST
	ld	a4,0(a4)
	.loc 1 1102 11
	ld	a4,64(a4)
	mv	a0,a4
	jalr	a5
.LVL28:
	.loc 1 1103 39
	ld	a5,-192(s0)
	ld	a5,0(a5)
	.loc 1 1103 20
	ld	a0,-192(s0)
	.loc 1 1105 55
	ld	a3,-144(s0)
	ld	a4,-80(s0)
	slli	a4,a4,3
	add	a4,a3,a4
	.loc 1 1103 20
	ld	a1,0(a4)
	.loc 1 1106 60
	ld	a3,-168(s0)
	ld	a4,-88(s0)
	slli	a4,a4,3
	add	a4,a3,a4
	.loc 1 1103 20
	ld	a2,0(a4)
	addi	a4,s0,-180
	ld	a3,-104(s0)
	jalr	a5
.LVL29:
	sd	a0,-40(s0)
	.loc 1 1110 14
	la	a5,gST
	ld	a5,0(a5)
	ld	a5,64(a5)
	.loc 1 1110 22
	ld	a5,48(a5)
	.loc 1 1110 40
	la	a4,gST
	ld	a4,0(a4)
	.loc 1 1110 11
	ld	a4,64(a4)
	mv	a0,a4
	jalr	a5
.LVL30:
	.loc 1 1111 77
	ld	a5,-56(s0)
	slli	a5,a5,3
	ld	a4,-72(s0)
	add	a5,a4,a5
	.loc 1 1111 26
	ld	a5,0(a5)
	mv	a0,a5
	call	ConvertHandleToHandleIndex@plt
	sd	a0,-112(s0)
	.loc 1 1112 66
	ld	a4,-144(s0)
	ld	a5,-80(s0)
	slli	a5,a5,3
	add	a5,a4,a5
	.loc 1 1112 26
	ld	a5,0(a5)
	mv	a0,a5
	call	ConvertHandleToHandleIndex@plt
	sd	a0,-120(s0)
	.loc 1 1113 71
	ld	a4,-168(s0)
	ld	a5,-88(s0)
	slli	a5,a5,3
	add	a5,a4,a5
	.loc 1 1113 26
	ld	a5,0(a5)
	mv	a0,a5
	call	ConvertHandleToHandleIndex@plt
	sd	a0,-128(s0)
	.loc 1 1114 11
	la	a5,gShellDriver1HiiHandle
	ld	a4,0(a5)
	.loc 1 1123 32
	ld	a5,-192(s0)
	.loc 1 1114 11
	ld	a5,24(a5)
	sd	a5,0(sp)
	ld	a7,-128(s0)
	ld	a6,-120(s0)
	ld	a5,-112(s0)
	li	a3,33
	li	a2,0
	li	a1,-1
	li	a0,-1
	call	ShellPrintHiiEx@plt
	.loc 1 1125 15
	ld	a5,-40(s0)
	.loc 1 1125 14
	blt	a5,zero,.L127
	.loc 1 1126 13
	la	a5,gShellDriver1HiiHandle
	ld	a5,0(a5)
	mv	a4,a5
	li	a3,43
	li	a2,0
	li	a1,-1
	li	a0,-1
	call	ShellPrintHiiEx@plt
	.loc 1 1135 38
	ld	a5,-56(s0)
	slli	a5,a5,3
	ld	a4,-72(s0)
	add	a5,a4,a5
	.loc 1 1134 13
	ld	a0,0(a5)
	.loc 1 1136 27
	ld	a4,-144(s0)
	ld	a5,-80(s0)
	slli	a5,a5,3
	add	a5,a4,a5
	.loc 1 1134 13
	ld	a1,0(a5)
	.loc 1 1137 32
	ld	a4,-168(s0)
	ld	a5,-88(s0)
	slli	a5,a5,3
	add	a5,a4,a5
	.loc 1 1134 13
	ld	a5,0(a5)
	lw	a4,-180(s0)
	mv	a3,a4
	mv	a2,a5
	call	ShellCmdDriverConfigurationProcessActionRequired
	j	.L120
.L127:
	.loc 1 1141 13
	la	a5,gShellDriver1HiiHandle
	ld	a4,0(a5)
	ld	a5,-40(s0)
	li	a3,44
	li	a2,0
	li	a1,-1
	li	a0,-1
	call	ShellPrintHiiEx@plt
	.loc 1 1149 25
	li	a5,7
	sw	a5,-44(s0)
	j	.L120
.L126:
	.loc 1 1152 11
	lla	a0,.LC13
	call	Print@plt
	j	.L120
.L137:
	.loc 1 1018 11
	nop
	j	.L120
.L138:
	.loc 1 1022 11
	nop
.L120:
	.loc 1 1016 69 discriminator 2
	ld	a5,-88(s0)
	addi	a5,a5,1
	sd	a5,-88(s0)
.L118:
	.loc 1 1016 39 discriminator 1
	ld	a5,-160(s0)
	ld	a4,-88(s0)
	bltu	a4,a5,.L128
	.loc 1 1156 7
	ld	a5,-168(s0)
	mv	a0,a5
	call	FreePool@plt
	.loc 1 1157 7
	ld	a5,-176(s0)
	mv	a0,a5
	call	FreePool@plt
	j	.L107
.L133:
	.loc 1 867 9
	nop
	j	.L107
.L134:
	.loc 1 871 9
	nop
	j	.L107
.L135:
	.loc 1 1002 9
	nop
	j	.L107
.L136:
	.loc 1 1013 9
	nop
.L107:
	.loc 1 865 65 discriminator 2
	ld	a5,-80(s0)
	addi	a5,a5,1
	sd	a5,-80(s0)
.L105:
	.loc 1 865 39 discriminator 1
	ld	a5,-136(s0)
	ld	a4,-80(s0)
	bltu	a4,a5,.L129
	.loc 1 1160 5
	ld	a0,-104(s0)
	call	FreePool@plt
	.loc 1 1161 5
	ld	a5,-144(s0)
	mv	a0,a5
	call	FreePool@plt
	.loc 1 1162 5
	ld	a5,-152(s0)
	mv	a0,a5
	call	FreePool@plt
	j	.L94
.L132:
	.loc 1 810 7
	nop
.L94:
	.loc 1 746 89 discriminator 2
	ld	a5,-56(s0)
	addi	a5,a5,1
	sd	a5,-56(s0)
.L91:
	.loc 1 746 47 discriminator 1
	ld	a4,-56(s0)
	ld	a5,-64(s0)
	bltu	a4,a5,.L130
	.loc 1 1165 6
	ld	a5,-216(s0)
	beq	a5,zero,.L139
	.loc 1 1165 43 discriminator 1
	ld	a5,-64(s0)
	beq	a5,zero,.L139
	.loc 1 1166 5
	ld	a0,-72(s0)
	call	FreePool@plt
	j	.L86
.L139:
	.loc 1 1169 1
	nop
.L86:
	.loc 1 1170 10
	lw	a5,-44(s0)
	.loc 1 1171 1
	mv	a0,a5
	ld	ra,232(sp)
	.cfi_restore 1
	ld	s0,224(sp)
	.cfi_restore 8
	.cfi_def_cfa 2, 240
	ld	s1,216(sp)
	.cfi_restore 9
	addi	sp,sp,240
	.cfi_def_cfa_offset 0
	jr	ra
	.cfi_endproc
.LFE5:
	.size	PreHiiDrvCfg, .-PreHiiDrvCfg
	.section	.text.PrintConfigInfoOnAll,"ax",@progbits
	.align	1
	.globl	PrintConfigInfoOnAll
	.type	PrintConfigInfoOnAll, @function
PrintConfigInfoOnAll:
.LFB6:
	.loc 1 1188 1
	.cfi_startproc
	addi	sp,sp,-80
	.cfi_def_cfa_offset 80
	sd	ra,72(sp)
	sd	s0,64(sp)
	.cfi_offset 1, -8
	.cfi_offset 8, -16
	addi	s0,sp,80
	.cfi_def_cfa 8, 0
	mv	a5,a0
	sd	a1,-64(s0)
	mv	a4,a2
	sb	a5,-49(s0)
	mv	a5,a4
	sb	a5,-50(s0)
	.loc 1 1194 9
	sb	zero,-25(s0)
	.loc 1 1195 14
	sd	zero,-48(s0)
	.loc 1 1196 17
	sd	zero,-24(s0)
	.loc 1 1198 6
	lbu	a5,-50(s0)
	andi	a5,a5,0xff
	beq	a5,zero,.L141
	.loc 1 1202 18
	la	a0,gEfiHiiConfigAccessProtocolGuid
	call	GetHandleListByProtocol@plt
	sd	a0,-48(s0)
	.loc 1 1203 24
	ld	a5,-48(s0)
	sd	a5,-24(s0)
	.loc 1 1203 5
	j	.L142
.L146:
	.loc 1 1204 13
	li	a5,1
	sb	a5,-25(s0)
	.loc 1 1205 16
	ld	a5,-24(s0)
	ld	a5,0(a5)
	.loc 1 1205 51
	beq	a5,zero,.L143
	.loc 1 1205 53 discriminator 1
	ld	a5,-24(s0)
	ld	a5,0(a5)
	mv	a0,a5
	call	ConvertHandleToHandleIndex@plt
	sd	a0,-40(s0)
	j	.L144
.L143:
	.loc 1 1205 14 discriminator 2
	sd	zero,-40(s0)
.L144:
	.loc 1 1206 7
	la	a5,gShellDriver1HiiHandle
	ld	a4,0(a5)
	ld	a5,-40(s0)
	li	a3,30
	li	a2,0
	li	a1,-1
	li	a0,-1
	call	ShellPrintHiiEx@plt
	.loc 1 1203 116 discriminator 2
	ld	a5,-24(s0)
	addi	a5,a5,8
	sd	a5,-24(s0)
.L142:
	.loc 1 1203 68 discriminator 1
	ld	a5,-24(s0)
	beq	a5,zero,.L145
	.loc 1 1203 71 discriminator 3
	ld	a5,-24(s0)
	ld	a5,0(a5)
	.loc 1 1203 68 discriminator 3
	bne	a5,zero,.L146
.L145:
	.loc 1 1216 13
	ld	a5,-48(s0)
	beq	a5,zero,.L141
	.loc 1 1216 46 discriminator 1
	ld	a0,-48(s0)
	call	FreePool@plt
	.loc 1 1216 83 discriminator 2
	sd	zero,-48(s0)
.L141:
	.loc 1 1219 7
	lbu	a3,-49(s0)
	sd	zero,0(sp)
	li	a7,0
	li	a6,0
	li	a5,0
	li	a4,0
	li	a2,0
	li	a1,0
	ld	a0,-64(s0)
	call	PreHiiDrvCfg
	mv	a5,a0
	.loc 1 1219 6 discriminator 1
	bne	a5,zero,.L147
	.loc 1 1231 11
	li	a5,1
	sb	a5,-25(s0)
.L147:
	.loc 1 1234 6
	lbu	a5,-25(s0)
	andi	a5,a5,0xff
	bne	a5,zero,.L148
	.loc 1 1235 5
	la	a5,gShellDriver1HiiHandle
	ld	a5,0(a5)
	mv	a4,a5
	li	a3,27
	li	a2,0
	li	a1,-1
	li	a0,-1
	call	ShellPrintHiiEx@plt
	.loc 1 1236 12
	li	a5,0
	j	.L149
.L148:
	.loc 1 1239 10
	li	a5,0
.L149:
	.loc 1 1240 1
	mv	a0,a5
	ld	ra,72(sp)
	.cfi_restore 1
	ld	s0,64(sp)
	.cfi_restore 8
	.cfi_def_cfa 2, 80
	addi	sp,sp,80
	.cfi_def_cfa_offset 0
	jr	ra
	.cfi_endproc
.LFE6:
	.size	PrintConfigInfoOnAll, .-PrintConfigInfoOnAll
	.section	.rodata
	.align	3
.LC14:
	.string	"-"
	.string	"s"
	.zero	2
	.align	3
.LC15:
	.string	"-"
	.string	"f"
	.zero	2
	.align	3
.LC16:
	.string	"-"
	.string	"o"
	.zero	2
	.align	3
.LC17:
	.string	"-"
	.string	"i"
	.zero	2
	.section	.data.rel.ro.local.ParamListHii,"aw"
	.align	3
	.type	ParamListHii, @object
	.size	ParamListHii, 96
ParamListHii:
	.dword	.LC14
	.word	0
	.zero	4
	.dword	.LC12
	.word	1
	.zero	4
	.dword	.LC15
	.word	1
	.zero	4
	.dword	.LC16
	.word	1
	.zero	4
	.dword	.LC17
	.word	1
	.zero	4
	.dword	0
	.word	7
	.zero	4
	.section	.rodata
	.align	3
.LC18:
	.string	"-"
	.string	"c"
	.zero	2
	.align	3
.LC19:
	.string	"-"
	.string	"v"
	.zero	2
	.section	.data.rel.ro.local.ParamListPreHii,"aw"
	.align	3
	.type	ParamListPreHii, @object
	.size	ParamListPreHii, 96
ParamListPreHii:
	.dword	.LC18
	.word	0
	.zero	4
	.dword	.LC14
	.word	0
	.zero	4
	.dword	.LC19
	.word	0
	.zero	4
	.dword	.LC12
	.word	1
	.zero	4
	.dword	.LC15
	.word	1
	.zero	4
	.dword	0
	.word	7
	.zero	4
	.section	.rodata
	.align	3
.LC20:
	.string	"%S"
	.section	.text.ShellCommandRunDrvCfg,"ax",@progbits
	.align	1
	.globl	ShellCommandRunDrvCfg
	.type	ShellCommandRunDrvCfg, @function
ShellCommandRunDrvCfg:
.LFB7:
	.loc 1 1271 1
	.cfi_startproc
	addi	sp,sp,-208
	.cfi_def_cfa_offset 208
	sd	ra,200(sp)
	sd	s0,192(sp)
	sd	s1,184(sp)
	.cfi_offset 1, -8
	.cfi_offset 8, -16
	.cfi_offset 9, -24
	addi	s0,sp,208
	.cfi_def_cfa 8, 0
	sd	a0,-184(s0)
	sd	a1,-192(s0)
	.loc 1 1296 15
	sw	zero,-36(s0)
	.loc 1 1297 10
	sd	zero,-96(s0)
	.loc 1 1298 12
	sd	zero,-48(s0)
	.loc 1 1299 10
	li	a5,1
	sb	a5,-49(s0)
	.loc 1 1300 16
	sd	zero,-160(s0)
	.loc 1 1305 12
	call	ShellInitialize@plt
	sd	a0,-96(s0)
	.loc 1 1308 12
	call	CommandInit@plt
	sd	a0,-96(s0)
	.loc 1 1314 12
	addi	a2,s0,-160
	addi	a5,s0,-152
	li	a4,0
	li	a3,1
	mv	a1,a5
	lla	a0,ParamListHii
	call	ShellCommandLineParseEx@plt
	sd	a0,-96(s0)
	.loc 1 1315 34
	ld	a5,-96(s0)
	.loc 1 1315 6
	blt	a5,zero,.L151
	.loc 1 1315 64 discriminator 1
	ld	a5,-152(s0)
	mv	a0,a5
	call	ShellCommandLineGetCount@plt
	mv	a4,a0
	.loc 1 1315 60 discriminator 2
	li	a5,2
	bleu	a4,a5,.L152
.L151:
	.loc 1 1316 12
	sb	zero,-49(s0)
	.loc 1 1317 17
	ld	a5,-152(s0)
	.loc 1 1317 8
	beq	a5,zero,.L153
	.loc 1 1318 7
	ld	a5,-152(s0)
	mv	a0,a5
	call	ShellCommandLineFreeVarList@plt
.L153:
	.loc 1 1321 29
	ld	a5,-160(s0)
	.loc 1 1321 13
	beq	a5,zero,.L154
	.loc 1 1321 48 discriminator 1
	ld	a5,-160(s0)
	mv	a0,a5
	call	FreePool@plt
	.loc 1 1321 89 discriminator 2
	sd	zero,-160(s0)
.L154:
	.loc 1 1322 14
	addi	a2,s0,-160
	addi	a5,s0,-152
	li	a4,0
	li	a3,1
	mv	a1,a5
	lla	a0,ParamListPreHii
	call	ShellCommandLineParseEx@plt
	sd	a0,-96(s0)
	.loc 1 1323 36
	ld	a5,-96(s0)
	.loc 1 1323 8
	bge	a5,zero,.L152
	.loc 1 1324 10
	ld	a4,-96(s0)
	li	a5,-1
	slli	a5,a5,63
	addi	a5,a5,10
	bne	a4,a5,.L152
	.loc 1 1324 88 discriminator 1
	ld	a5,-160(s0)
	.loc 1 1324 71 discriminator 1
	beq	a5,zero,.L152
	.loc 1 1325 9
	la	a5,gShellDriver1HiiHandle
	ld	a4,0(a5)
	ld	a5,-160(s0)
	mv	a6,a5
	lla	a5,.LC0
	li	a3,2
	li	a2,0
	li	a1,-1
	li	a0,-1
	call	ShellPrintHiiEx@plt
	.loc 1 1326 9
	ld	a5,-160(s0)
	mv	a0,a5
	call	FreePool@plt
	.loc 1 1327 21
	li	a5,2
	sw	a5,-36(s0)
	.loc 1 1328 9
	j	.L155
.L152:
	.loc 1 1335 6
	lw	a5,-36(s0)
	sext.w	a5,a5
	bne	a5,zero,.L193
	.loc 1 1336 9
	ld	a5,-152(s0)
	mv	a0,a5
	call	ShellCommandLineGetCount@plt
	mv	a4,a0
	.loc 1 1336 8 discriminator 1
	li	a5,4
	bleu	a4,a5,.L156
	.loc 1 1337 7
	la	a5,gShellDriver1HiiHandle
	ld	a4,0(a5)
	lla	a5,.LC0
	li	a3,6
	li	a2,0
	li	a1,-1
	li	a0,-1
	call	ShellPrintHiiEx@plt
	.loc 1 1338 19
	li	a5,2
	sw	a5,-36(s0)
	.loc 1 1339 7
	j	.L155
.L156:
	.loc 1 1342 12
	ld	a5,-152(s0)
	lla	a1,.LC12
	mv	a0,a5
	call	ShellCommandLineGetValue@plt
	sd	a0,-104(s0)
	.loc 1 1343 8
	ld	a5,-104(s0)
	beq	a5,zero,.L157
	.loc 1 1344 18
	ld	a0,-104(s0)
	call	StrSize@plt
	mv	a5,a0
	.loc 1 1344 18 is_stmt 0 discriminator 1
	mv	a0,a5
	call	AllocateZeroPool@plt
	sd	a0,-48(s0)
	.loc 1 1345 10 is_stmt 1
	ld	a5,-48(s0)
	bne	a5,zero,.L158
	.loc 1 1346 21
	li	a5,9
	sw	a5,-36(s0)
	.loc 1 1347 9
	j	.L155
.L158:
	.loc 1 1350 7
	ld	a0,-104(s0)
	call	StrSize@plt
	mv	a5,a0
	.loc 1 1350 7 is_stmt 0 discriminator 1
	ld	a3,-104(s0)
	lla	a2,.LC20
	mv	a1,a5
	ld	a0,-48(s0)
	call	AsciiSPrint@plt
	j	.L159
.L157:
	.loc 1 1351 16 is_stmt 1
	ld	a5,-152(s0)
	lla	a1,.LC12
	mv	a0,a5
	call	ShellCommandLineGetFlag@plt
	mv	a5,a0
	.loc 1 1351 15 discriminator 1
	beq	a5,zero,.L159
	.loc 1 1352 7
	la	a5,gShellDriver1HiiHandle
	ld	a4,0(a5)
	lla	a6,.LC12
	lla	a5,.LC0
	li	a3,9
	li	a2,0
	li	a1,-1
	li	a0,-1
	call	ShellPrintHiiEx@plt
	.loc 1 1353 19
	li	a5,2
	sw	a5,-36(s0)
	.loc 1 1354 7
	j	.L155
.L159:
	.loc 1 1357 11
	ld	a5,-152(s0)
	lla	a1,.LC14
	mv	a0,a5
	call	ShellCommandLineGetFlag@plt
	mv	a5,a0
	sb	a5,-105(s0)
	.loc 1 1358 16
	ld	a5,-152(s0)
	lla	a1,.LC19
	mv	a0,a5
	call	ShellCommandLineGetFlag@plt
	mv	a5,a0
	sb	a5,-106(s0)
	.loc 1 1359 18
	ld	a5,-152(s0)
	lla	a1,.LC17
	mv	a0,a5
	call	ShellCommandLineGetFlag@plt
	mv	a5,a0
	sb	a5,-107(s0)
	.loc 1 1360 17
	ld	a5,-152(s0)
	lla	a1,.LC16
	mv	a0,a5
	call	ShellCommandLineGetFlag@plt
	mv	a5,a0
	sb	a5,-108(s0)
	.loc 1 1361 19
	ld	a5,-152(s0)
	lla	a1,.LC18
	mv	a0,a5
	call	ShellCommandLineGetFlag@plt
	mv	a5,a0
	sb	a5,-109(s0)
	.loc 1 1362 13
	ld	a5,-152(s0)
	lla	a1,.LC15
	mv	a0,a5
	call	ShellCommandLineGetFlag@plt
	mv	a5,a0
	sb	a5,-110(s0)
	.loc 1 1363 23
	ld	a5,-152(s0)
	lla	a1,.LC15
	mv	a0,a5
	call	ShellCommandLineGetValue@plt
	sd	a0,-120(s0)
	.loc 1 1365 8
	lbu	a5,-108(s0)
	andi	a5,a5,0xff
	beq	a5,zero,.L160
	.loc 1 1366 18
	ld	a5,-152(s0)
	lla	a1,.LC16
	mv	a0,a5
	call	ShellCommandLineGetValue@plt
	sd	a0,-88(s0)
	j	.L161
.L160:
	.loc 1 1367 15
	lbu	a5,-107(s0)
	andi	a5,a5,0xff
	beq	a5,zero,.L162
	.loc 1 1368 18
	ld	a5,-152(s0)
	lla	a1,.LC17
	mv	a0,a5
	call	ShellCommandLineGetValue@plt
	sd	a0,-88(s0)
	j	.L161
.L162:
	.loc 1 1370 16
	sd	zero,-88(s0)
.L161:
	.loc 1 1373 8
	lbu	a5,-107(s0)
	andi	a5,a5,0xff
	beq	a5,zero,.L163
	.loc 1 1373 41 discriminator 1
	ld	a0,-88(s0)
	call	ShellFileExists@plt
	mv	a5,a0
	.loc 1 1373 20 discriminator 2
	bge	a5,zero,.L163
	.loc 1 1374 7
	la	a5,gShellDriver1HiiHandle
	ld	a4,0(a5)
	ld	a6,-88(s0)
	lla	a5,.LC0
	li	a3,13
	li	a2,0
	li	a1,-1
	li	a0,-1
	call	ShellPrintHiiEx@plt
	.loc 1 1375 19
	li	a5,2
	sw	a5,-36(s0)
	.loc 1 1376 7
	j	.L155
.L163:
	.loc 1 1379 8
	lbu	a5,-108(s0)
	andi	a5,a5,0xff
	beq	a5,zero,.L164
	.loc 1 1379 41 discriminator 1
	ld	a0,-88(s0)
	call	ShellFileExists@plt
	mv	a5,a0
	.loc 1 1379 19 discriminator 2
	blt	a5,zero,.L164
	.loc 1 1380 7
	la	a5,gShellDriver1HiiHandle
	ld	a4,0(a5)
	ld	a6,-88(s0)
	lla	a5,.LC0
	li	a3,14
	li	a2,0
	li	a1,-1
	li	a0,-1
	call	ShellPrintHiiEx@plt
	.loc 1 1381 19
	li	a5,2
	sw	a5,-36(s0)
	.loc 1 1382 7
	j	.L155
.L164:
	.loc 1 1385 8
	lbu	a5,-110(s0)
	andi	a5,a5,0xff
	beq	a5,zero,.L165
	.loc 1 1385 15 discriminator 1
	ld	a5,-120(s0)
	bne	a5,zero,.L165
	.loc 1 1386 7
	la	a5,gShellDriver1HiiHandle
	ld	a4,0(a5)
	lla	a6,.LC15
	lla	a5,.LC0
	li	a3,9
	li	a2,0
	li	a1,-1
	li	a0,-1
	call	ShellPrintHiiEx@plt
	.loc 1 1387 19
	li	a5,2
	sw	a5,-36(s0)
	.loc 1 1388 7
	j	.L155
.L165:
	.loc 1 1391 8
	lbu	a5,-110(s0)
	andi	a5,a5,0xff
	beq	a5,zero,.L166
	.loc 1 1392 16
	addi	a5,s0,-168
	li	a3,0
	li	a2,0
	mv	a1,a5
	ld	a0,-120(s0)
	call	ShellConvertStringToUint64@plt
	sd	a0,-96(s0)
	.loc 1 1393 38
	ld	a5,-96(s0)
	.loc 1 1393 10
	bge	a5,zero,.L167
	.loc 1 1394 9
	la	a5,gShellDriver1HiiHandle
	ld	a4,0(a5)
	lla	a7,.LC15
	ld	a6,-120(s0)
	lla	a5,.LC0
	li	a3,3
	li	a2,0
	li	a1,-1
	li	a0,-1
	call	ShellPrintHiiEx@plt
	.loc 1 1395 21
	li	a5,2
	sw	a5,-36(s0)
	.loc 1 1396 9
	j	.L155
.L167:
	.loc 1 1399 19
	ld	a5,-168(s0)
	.loc 1 1399 17
	sw	a5,-56(s0)
	j	.L168
.L166:
	.loc 1 1401 17
	sw	zero,-56(s0)
.L168:
	.loc 1 1404 20
	ld	a5,-152(s0)
	li	a1,1
	mv	a0,a5
	call	ShellCommandLineGetRawValue@plt
	sd	a0,-128(s0)
	.loc 1 1405 13
	sd	zero,-64(s0)
	.loc 1 1406 8
	ld	a5,-128(s0)
	beq	a5,zero,.L169
	.loc 1 1406 62 discriminator 1
	addi	a5,s0,-168
	li	a3,0
	li	a2,1
	mv	a1,a5
	ld	a0,-128(s0)
	call	ShellConvertStringToUint64@plt
	mv	a5,a0
	.loc 1 1406 40 discriminator 2
	blt	a5,zero,.L169
	.loc 1 1407 17
	ld	a5,-168(s0)
	mv	a0,a5
	call	ConvertHandleIndexToHandle@plt
	sd	a0,-64(s0)
	.loc 1 1408 10
	ld	a5,-64(s0)
	bne	a5,zero,.L169
	.loc 1 1409 9
	la	a5,gShellDriver1HiiHandle
	ld	a4,0(a5)
	ld	a6,-128(s0)
	lla	a5,.LC0
	li	a3,7
	li	a2,0
	li	a1,-1
	li	a0,-1
	call	ShellPrintHiiEx@plt
	.loc 1 1410 21
	li	a5,2
	sw	a5,-36(s0)
	.loc 1 1411 9
	j	.L155
.L169:
	.loc 1 1415 20
	ld	a5,-152(s0)
	li	a1,2
	mv	a0,a5
	call	ShellCommandLineGetRawValue@plt
	sd	a0,-136(s0)
	.loc 1 1416 13
	sd	zero,-72(s0)
	.loc 1 1417 8
	ld	a5,-136(s0)
	beq	a5,zero,.L170
	.loc 1 1417 62 discriminator 1
	addi	a5,s0,-168
	li	a3,0
	li	a2,1
	mv	a1,a5
	ld	a0,-136(s0)
	call	ShellConvertStringToUint64@plt
	mv	a5,a0
	.loc 1 1417 40 discriminator 2
	blt	a5,zero,.L170
	.loc 1 1418 17
	ld	a5,-168(s0)
	mv	a0,a5
	call	ConvertHandleIndexToHandle@plt
	sd	a0,-72(s0)
	.loc 1 1419 10
	ld	a5,-72(s0)
	bne	a5,zero,.L170
	.loc 1 1420 9
	la	a5,gShellDriver1HiiHandle
	ld	a4,0(a5)
	ld	a6,-136(s0)
	lla	a5,.LC0
	li	a3,7
	li	a2,0
	li	a1,-1
	li	a0,-1
	call	ShellPrintHiiEx@plt
	.loc 1 1421 21
	li	a5,2
	sw	a5,-36(s0)
	.loc 1 1422 9
	j	.L155
.L170:
	.loc 1 1426 20
	ld	a5,-152(s0)
	li	a1,3
	mv	a0,a5
	call	ShellCommandLineGetRawValue@plt
	sd	a0,-144(s0)
	.loc 1 1427 13
	sd	zero,-80(s0)
	.loc 1 1428 8
	ld	a5,-144(s0)
	beq	a5,zero,.L171
	.loc 1 1428 62 discriminator 1
	addi	a5,s0,-168
	li	a3,0
	li	a2,1
	mv	a1,a5
	ld	a0,-144(s0)
	call	ShellConvertStringToUint64@plt
	mv	a5,a0
	.loc 1 1428 40 discriminator 2
	blt	a5,zero,.L171
	.loc 1 1429 17
	ld	a5,-168(s0)
	mv	a0,a5
	call	ConvertHandleIndexToHandle@plt
	sd	a0,-80(s0)
	.loc 1 1430 10
	ld	a5,-80(s0)
	bne	a5,zero,.L171
	.loc 1 1431 9
	la	a5,gShellDriver1HiiHandle
	ld	a4,0(a5)
	ld	a6,-144(s0)
	lla	a5,.LC0
	li	a3,7
	li	a2,0
	li	a1,-1
	li	a0,-1
	call	ShellPrintHiiEx@plt
	.loc 1 1432 21
	li	a5,2
	sw	a5,-36(s0)
	.loc 1 1433 9
	j	.L155
.L171:
	.loc 1 1437 8
	lbu	a5,-107(s0)
	andi	a5,a5,0xff
	bne	a5,zero,.L172
	.loc 1 1437 21 discriminator 2
	lbu	a5,-108(s0)
	andi	a5,a5,0xff
	beq	a5,zero,.L173
.L172:
	.loc 1 1437 35 discriminator 3
	ld	a5,-88(s0)
	bne	a5,zero,.L173
	.loc 1 1438 10
	ld	a5,-88(s0)
	bne	a5,zero,.L174
	.loc 1 1439 9
	la	a5,gShellDriver1HiiHandle
	ld	a4,0(a5)
	lbu	a5,-107(s0)
	andi	a5,a5,0xff
	beq	a5,zero,.L175
	.loc 1 1439 9 is_stmt 0 discriminator 1
	lla	a5,.LC17
	j	.L176
.L175:
	.loc 1 1439 9 discriminator 2
	lla	a5,.LC16
.L176:
	.loc 1 1439 9 discriminator 4
	mv	a6,a5
	lla	a5,.LC0
	li	a3,9
	li	a2,0
	li	a1,-1
	li	a0,-1
	call	ShellPrintHiiEx@plt
	j	.L177
.L174:
	.loc 1 1441 9 is_stmt 1
	la	a5,gShellDriver1HiiHandle
	ld	a4,0(a5)
	lla	a5,.LC0
	li	a3,11
	li	a2,0
	li	a1,-1
	li	a0,-1
	call	ShellPrintHiiEx@plt
.L177:
	.loc 1 1444 19
	li	a5,2
	sw	a5,-36(s0)
	.loc 1 1445 7
	j	.L155
.L173:
	.loc 1 1448 8
	lbu	a5,-49(s0)
	andi	a5,a5,0xff
	bne	a5,zero,.L178
	.loc 1 1448 17 discriminator 1
	lbu	a5,-107(s0)
	andi	a5,a5,0xff
	bne	a5,zero,.L179
	.loc 1 1448 32 discriminator 2
	lbu	a5,-108(s0)
	andi	a5,a5,0xff
	beq	a5,zero,.L178
.L179:
	.loc 1 1449 10
	lbu	a5,-107(s0)
	andi	a5,a5,0xff
	beq	a5,zero,.L180
	.loc 1 1450 9
	la	a5,gShellDriver1HiiHandle
	ld	a4,0(a5)
	lla	a6,.LC17
	lla	a5,.LC0
	li	a3,4
	li	a2,0
	li	a1,-1
	li	a0,-1
	call	ShellPrintHiiEx@plt
	.loc 1 1451 21
	li	a5,2
	sw	a5,-36(s0)
	.loc 1 1452 9
	j	.L155
.L180:
	.loc 1 1455 10
	lbu	a5,-108(s0)
	andi	a5,a5,0xff
	beq	a5,zero,.L178
	.loc 1 1456 9
	la	a5,gShellDriver1HiiHandle
	ld	a4,0(a5)
	lla	a6,.LC16
	lla	a5,.LC0
	li	a3,4
	li	a2,0
	li	a1,-1
	li	a0,-1
	call	ShellPrintHiiEx@plt
	.loc 1 1457 21
	li	a5,2
	sw	a5,-36(s0)
	.loc 1 1458 9
	j	.L155
.L178:
	.loc 1 1462 8
	lbu	a5,-106(s0)
	andi	a5,a5,0xff
	beq	a5,zero,.L181
	.loc 1 1462 18 discriminator 1
	lbu	a5,-110(s0)
	andi	a5,a5,0xff
	beq	a5,zero,.L181
	.loc 1 1463 7
	la	a5,gShellDriver1HiiHandle
	ld	a4,0(a5)
	lla	a7,.LC15
	lla	a6,.LC19
	lla	a5,.LC0
	li	a3,8
	li	a2,0
	li	a1,-1
	li	a0,-1
	call	ShellPrintHiiEx@plt
	.loc 1 1464 19
	li	a5,2
	sw	a5,-36(s0)
	.loc 1 1465 7
	j	.L155
.L181:
	.loc 1 1468 8
	lbu	a5,-106(s0)
	andi	a5,a5,0xff
	beq	a5,zero,.L182
	.loc 1 1468 18 discriminator 1
	lbu	a5,-105(s0)
	andi	a5,a5,0xff
	beq	a5,zero,.L182
	.loc 1 1469 7
	la	a5,gShellDriver1HiiHandle
	ld	a4,0(a5)
	lla	a7,.LC14
	lla	a6,.LC19
	lla	a5,.LC0
	li	a3,8
	li	a2,0
	li	a1,-1
	li	a0,-1
	call	ShellPrintHiiEx@plt
	.loc 1 1470 19
	li	a5,2
	sw	a5,-36(s0)
	.loc 1 1471 7
	j	.L155
.L182:
	.loc 1 1474 8
	lbu	a5,-105(s0)
	andi	a5,a5,0xff
	beq	a5,zero,.L183
	.loc 1 1474 13 discriminator 1
	lbu	a5,-110(s0)
	andi	a5,a5,0xff
	beq	a5,zero,.L183
	.loc 1 1475 7
	la	a5,gShellDriver1HiiHandle
	ld	a4,0(a5)
	lla	a7,.LC15
	lla	a6,.LC14
	lla	a5,.LC0
	li	a3,8
	li	a2,0
	li	a1,-1
	li	a0,-1
	call	ShellPrintHiiEx@plt
	.loc 1 1476 19
	li	a5,2
	sw	a5,-36(s0)
	.loc 1 1477 7
	j	.L155
.L183:
	.loc 1 1480 8
	lbu	a5,-108(s0)
	andi	a5,a5,0xff
	beq	a5,zero,.L184
	.loc 1 1480 19 discriminator 1
	lbu	a5,-107(s0)
	andi	a5,a5,0xff
	beq	a5,zero,.L184
	.loc 1 1481 7
	la	a5,gShellDriver1HiiHandle
	ld	a4,0(a5)
	lla	a7,.LC16
	lla	a6,.LC17
	lla	a5,.LC0
	li	a3,8
	li	a2,0
	li	a1,-1
	li	a0,-1
	call	ShellPrintHiiEx@plt
	.loc 1 1482 19
	li	a5,2
	sw	a5,-36(s0)
	.loc 1 1483 7
	j	.L155
.L184:
	.loc 1 1489 8
	lbu	a5,-49(s0)
	andi	a5,a5,0xff
	beq	a5,zero,.L185
	.loc 1 1490 10
	ld	a5,-64(s0)
	beq	a5,zero,.L186
	.loc 1 1490 61 discriminator 1
	la	a5,gBS
	ld	a5,0(a5)
	ld	a6,280(a5)
	.loc 1 1490 58 discriminator 1
	la	a5,gImageHandle
	ld	a3,0(a5)
	li	a5,4
	li	a4,0
	li	a2,0
	la	a1,gEfiHiiConfigAccessProtocolGuid
	ld	a0,-64(s0)
	jalr	a6
.LVL31:
	mv	a5,a0
	.loc 1 1490 37 discriminator 2
	bge	a5,zero,.L186
	.loc 1 1494 21
	li	a5,3
	sw	a5,-36(s0)
	j	.L185
.L186:
	.loc 1 1495 17
	lbu	a5,-106(s0)
	andi	a5,a5,0xff
	bne	a5,zero,.L185
	.loc 1 1496 17
	lbu	a5,-110(s0)
	andi	a5,a5,0xff
	bne	a5,zero,.L185
	.loc 1 1497 17
	lbu	a5,-105(s0)
	andi	a5,a5,0xff
	bne	a5,zero,.L185
	.loc 1 1498 17
	lbu	a5,-107(s0)
	andi	a5,a5,0xff
	beq	a5,zero,.L187
	.loc 1 1499 23
	ld	a1,-88(s0)
	ld	a0,-64(s0)
	call	ConfigFromFile
	mv	a5,a0
	sw	a5,-36(s0)
	.loc 1 1500 12
	ld	a5,-64(s0)
	beq	a5,zero,.L185
	.loc 1 1500 39 discriminator 1
	lw	a5,-36(s0)
	sext.w	a5,a5
	bne	a5,zero,.L185
	.loc 1 1501 11
	j	.L155
.L187:
	.loc 1 1503 17
	lbu	a5,-108(s0)
	andi	a5,a5,0xff
	beq	a5,zero,.L188
	.loc 1 1504 23
	ld	a1,-88(s0)
	ld	a0,-64(s0)
	call	ConfigToFile
	mv	a5,a0
	sw	a5,-36(s0)
	.loc 1 1505 12
	ld	a5,-64(s0)
	beq	a5,zero,.L185
	.loc 1 1505 39 discriminator 1
	lw	a5,-36(s0)
	sext.w	a5,a5
	bne	a5,zero,.L185
	.loc 1 1506 11
	j	.L155
.L188:
	.loc 1 1508 17
	ld	a5,-128(s0)
	bne	a5,zero,.L189
	.loc 1 1512 23
	lbu	a4,-49(s0)
	lbu	a5,-109(s0)
	mv	a2,a4
	ld	a1,-48(s0)
	mv	a0,a5
	call	PrintConfigInfoOnAll
	mv	a5,a0
	sw	a5,-36(s0)
	.loc 1 1513 9
	j	.L155
.L189:
	.loc 1 1515 35
	la	a5,gBS
	ld	a5,0(a5)
	ld	a6,280(a5)
	.loc 1 1515 32
	la	a5,gImageHandle
	ld	a3,0(a5)
	li	a5,4
	li	a4,0
	li	a2,0
	la	a1,gEfiHiiConfigAccessProtocolGuid
	ld	a0,-64(s0)
	jalr	a6
.LVL32:
	mv	a5,a0
	.loc 1 1515 12 discriminator 1
	blt	a5,zero,.L185
	.loc 1 1516 11
	la	a5,gShellDriver1HiiHandle
	ld	s1,0(a5)
	ld	a0,-64(s0)
	call	ConvertHandleToHandleIndex@plt
	mv	a5,a0
	.loc 1 1516 11 is_stmt 0 discriminator 1
	mv	a4,s1
	li	a3,30
	li	a2,0
	li	a1,-1
	li	a0,-1
	call	ShellPrintHiiEx@plt
	.loc 1 1524 11 is_stmt 1
	j	.L155
.L185:
	.loc 1 1532 8
	lbu	a5,-107(s0)
	andi	a5,a5,0xff
	bne	a5,zero,.L190
	.loc 1 1532 21 discriminator 1
	lbu	a5,-108(s0)
	andi	a5,a5,0xff
	bne	a5,zero,.L190
	.loc 1 1533 21
	lbu	a0,-105(s0)
	lbu	a4,-106(s0)
	lbu	a3,-109(s0)
	lw	a2,-56(s0)
	lbu	a1,-110(s0)
	ld	a5,-80(s0)
	sd	a5,0(sp)
	ld	a7,-72(s0)
	ld	a6,-64(s0)
	mv	a5,a0
	ld	a0,-48(s0)
	call	PreHiiDrvCfg
	mv	a5,a0
	sw	a5,-36(s0)
.L190:
	.loc 1 1546 8
	lw	a5,-36(s0)
	sext.w	a4,a5
	li	a5,3
	bne	a4,a5,.L193
	.loc 1 1547 7
	la	a5,gShellDriver1HiiHandle
	ld	s1,0(a5)
	ld	a0,-64(s0)
	call	ConvertHandleToHandleIndex@plt
	mv	a5,a0
	.loc 1 1547 7 is_stmt 0 discriminator 1
	mv	a4,s1
	li	a3,42
	li	a2,0
	li	a1,-1
	li	a0,-1
	call	ShellPrintHiiEx@plt
	j	.L155
.L193:
	.loc 1 1558 1 is_stmt 1
	nop
.L155:
	.loc 1 1559 3
	ld	a5,-152(s0)
	mv	a0,a5
	call	ShellCommandLineFreeVarList@plt
	.loc 1 1560 11
	ld	a5,-48(s0)
	beq	a5,zero,.L191
	.loc 1 1560 42 discriminator 1
	ld	a0,-48(s0)
	call	FreePool@plt
	.loc 1 1560 75 discriminator 2
	sd	zero,-48(s0)
.L191:
	.loc 1 1561 10
	lw	a5,-36(s0)
	.loc 1 1562 1
	mv	a0,a5
	ld	ra,200(sp)
	.cfi_restore 1
	ld	s0,192(sp)
	.cfi_restore 8
	.cfi_def_cfa 2, 208
	ld	s1,184(sp)
	.cfi_restore 9
	addi	sp,sp,208
	.cfi_def_cfa_offset 0
	jr	ra
	.cfi_endproc
.LFE7:
	.size	ShellCommandRunDrvCfg, .-ShellCommandRunDrvCfg
	.text
.Letext0:
	.file 2 "/home/kapoagaeming/spacemit-image-builder/components/edk2/MdePkg/Include/RiscV64/ProcessorBind.h"
	.file 3 "/home/kapoagaeming/spacemit-image-builder/components/edk2/MdePkg/Include/Base.h"
	.file 4 "/home/kapoagaeming/spacemit-image-builder/components/edk2/MdePkg/Include/Uefi/UefiBaseType.h"
	.file 5 "/home/kapoagaeming/spacemit-image-builder/components/edk2/MdePkg/Include/Uefi/UefiMultiPhase.h"
	.file 6 "/home/kapoagaeming/spacemit-image-builder/components/edk2/MdePkg/Include/Protocol/DevicePath.h"
	.file 7 "/home/kapoagaeming/spacemit-image-builder/components/edk2/MdePkg/Include/Protocol/SimpleTextIn.h"
	.file 8 "/home/kapoagaeming/spacemit-image-builder/components/edk2/MdePkg/Include/Protocol/SimpleTextOut.h"
	.file 9 "/home/kapoagaeming/spacemit-image-builder/components/edk2/MdePkg/Include/Uefi/UefiSpec.h"
	.file 10 "/home/kapoagaeming/spacemit-image-builder/components/edk2/MdePkg/Include/Uefi/UefiInternalFormRepresentation.h"
	.file 11 "/home/kapoagaeming/spacemit-image-builder/components/Build/Milk-V-Jupiter/RELEASE_GCC5/RISCV64/ShellPkg/Library/UefiShellDriver1CommandsLib/UefiShellDriver1CommandsLib/DEBUG/AutoGen.h"
	.file 12 "/home/kapoagaeming/spacemit-image-builder/components/edk2/MdePkg/Include/Protocol/Shell.h"
	.file 13 "/home/kapoagaeming/spacemit-image-builder/components/edk2/MdePkg/Include/Library/UefiBootServicesTableLib.h"
	.file 14 "/home/kapoagaeming/spacemit-image-builder/components/edk2/ShellPkg/Include/Library/ShellLib.h"
	.file 15 "/home/kapoagaeming/spacemit-image-builder/components/edk2/MdePkg/Include/Protocol/DriverConfiguration2.h"
	.file 16 "/home/kapoagaeming/spacemit-image-builder/components/edk2/MdePkg/Include/Protocol/DriverConfiguration.h"
	.file 17 "/home/kapoagaeming/spacemit-image-builder/components/edk2/MdePkg/Include/Library/UefiRuntimeServicesTableLib.h"
	.file 18 "/home/kapoagaeming/spacemit-image-builder/components/edk2/ShellPkg/Library/UefiShellDriver1CommandsLib/UefiShellDriver1CommandsLib.h"
	.file 19 "/home/kapoagaeming/spacemit-image-builder/components/edk2/MdePkg/Include/Protocol/HiiDatabase.h"
	.file 20 "/home/kapoagaeming/spacemit-image-builder/components/edk2/ShellPkg/Include/Library/HandleParsingLib.h"
	.file 21 "/home/kapoagaeming/spacemit-image-builder/components/edk2/MdePkg/Include/Library/PrintLib.h"
	.file 22 "/home/kapoagaeming/spacemit-image-builder/components/edk2/MdePkg/Include/Library/BaseLib.h"
	.file 23 "/home/kapoagaeming/spacemit-image-builder/components/edk2/ShellPkg/Include/Library/ShellCommandLib.h"
	.file 24 "/home/kapoagaeming/spacemit-image-builder/components/edk2/MdePkg/Include/Library/UefiLib.h"
	.file 25 "/home/kapoagaeming/spacemit-image-builder/components/edk2/MdePkg/Include/Library/MemoryAllocationLib.h"
	.file 26 "/home/kapoagaeming/spacemit-image-builder/components/edk2/MdePkg/Include/Library/DevicePathLib.h"
	.file 27 "/home/kapoagaeming/spacemit-image-builder/components/edk2/MdeModulePkg/Include/Library/SortLib.h"
	.section	.note.GNU-stack,"",@progbits
