	.file	"TerminalConOut.c"
	.option pic
	.option norelax
	.attribute arch, "rv64i2p1_m2p0_a2p1_f2p2_d2p2_c2p0_zicsr2p0_zifencei2p0_zmmul1p0_zaamo1p0_zalrsc1p0_zca1p0_zcd1p0"
	.attribute unaligned_access, 0
	.attribute stack_align, 16
	.text
.Ltext0:
	.cfi_sections	.debug_frame
	.file 0 "/home/kapoagaeming/Downloads/spacemit-image-builder/components/Build/Milk-V-Jupiter/RELEASE_GCC5/RISCV64/MdeModulePkg/Universal/Console/TerminalDxe/TerminalDxe" "/home/kapoagaeming/Downloads/spacemit-image-builder/components/edk2/MdeModulePkg/Universal/Console/TerminalDxe/TerminalConOut.c"
	.globl	UnicodeToPcAnsiOrAscii
	.section	.data.UnicodeToPcAnsiOrAscii,"aw"
	.align	3
	.type	UnicodeToPcAnsiOrAscii, @object
	.size	UnicodeToPcAnsiOrAscii, 204
UnicodeToPcAnsiOrAscii:
	.half	9472
	.byte	-60
	.byte	45
	.half	9474
	.byte	-77
	.byte	124
	.half	9484
	.byte	-38
	.byte	47
	.half	9488
	.byte	-65
	.byte	92
	.half	9492
	.byte	-64
	.byte	92
	.half	9496
	.byte	-39
	.byte	47
	.half	9500
	.byte	-61
	.byte	124
	.half	9508
	.byte	-76
	.byte	124
	.half	9516
	.byte	-62
	.byte	43
	.half	9524
	.byte	-63
	.byte	43
	.half	9532
	.byte	-59
	.byte	43
	.half	9552
	.byte	-51
	.byte	45
	.half	9553
	.byte	-70
	.byte	124
	.half	9554
	.byte	-43
	.byte	47
	.half	9555
	.byte	-42
	.byte	47
	.half	9556
	.byte	-55
	.byte	47
	.half	9557
	.byte	-72
	.byte	92
	.half	9558
	.byte	-73
	.byte	92
	.half	9559
	.byte	-69
	.byte	92
	.half	9560
	.byte	-44
	.byte	92
	.half	9561
	.byte	-45
	.byte	92
	.half	9562
	.byte	-56
	.byte	92
	.half	9563
	.byte	-66
	.byte	47
	.half	9564
	.byte	-67
	.byte	47
	.half	9565
	.byte	-68
	.byte	47
	.half	9566
	.byte	-58
	.byte	124
	.half	9567
	.byte	-57
	.byte	124
	.half	9568
	.byte	-52
	.byte	124
	.half	9569
	.byte	-75
	.byte	124
	.half	9570
	.byte	-74
	.byte	124
	.half	9571
	.byte	-71
	.byte	124
	.half	9572
	.byte	-47
	.byte	43
	.half	9573
	.byte	-46
	.byte	43
	.half	9574
	.byte	-53
	.byte	43
	.half	9575
	.byte	-49
	.byte	43
	.half	9576
	.byte	-48
	.byte	43
	.half	9577
	.byte	-54
	.byte	43
	.half	9578
	.byte	-40
	.byte	43
	.half	9579
	.byte	-41
	.byte	43
	.half	9580
	.byte	-50
	.byte	43
	.half	9608
	.byte	-37
	.byte	42
	.half	9617
	.byte	-80
	.byte	43
	.half	9650
	.byte	94
	.byte	94
	.half	9658
	.byte	62
	.byte	62
	.half	9660
	.byte	118
	.byte	118
	.half	9668
	.byte	60
	.byte	60
	.half	8592
	.byte	60
	.byte	60
	.half	8593
	.byte	94
	.byte	94
	.half	8594
	.byte	62
	.byte	62
	.half	8595
	.byte	118
	.byte	118
	.half	0
	.byte	0
	.byte	0
	.globl	mSetModeString
	.section	.data.mSetModeString,"aw"
	.align	3
	.type	mSetModeString, @object
	.size	mSetModeString, 12
mSetModeString:
	.half	27
	.half	91
	.half	61
	.half	51
	.half	104
	.half	0
	.globl	mSetAttributeString
	.section	.data.mSetAttributeString,"aw"
	.align	3
	.type	mSetAttributeString, @object
	.size	mSetAttributeString, 30
mSetAttributeString:
	.half	27
	.half	91
	.half	48
	.half	109
	.half	27
	.half	91
	.half	52
	.half	48
	.half	109
	.half	27
	.half	91
	.half	52
	.half	48
	.half	109
	.half	0
	.globl	mClearScreenString
	.section	.data.mClearScreenString,"aw"
	.align	3
	.type	mClearScreenString, @object
	.size	mClearScreenString, 10
mClearScreenString:
	.half	27
	.half	91
	.half	50
	.half	74
	.half	0
	.globl	mSetCursorPositionString
	.section	.data.mSetCursorPositionString,"aw"
	.align	3
	.type	mSetCursorPositionString, @object
	.size	mSetCursorPositionString, 18
mSetCursorPositionString:
	.half	27
	.half	91
	.half	48
	.half	48
	.half	59
	.half	48
	.half	48
	.half	72
	.half	0
	.globl	mCursorForwardString
	.section	.data.mCursorForwardString,"aw"
	.align	3
	.type	mCursorForwardString, @object
	.size	mCursorForwardString, 12
mCursorForwardString:
	.half	27
	.half	91
	.half	48
	.half	48
	.half	67
	.half	0
	.globl	mCursorBackwardString
	.section	.data.mCursorBackwardString,"aw"
	.align	3
	.type	mCursorBackwardString, @object
	.size	mCursorBackwardString, 12
mCursorBackwardString:
	.half	27
	.half	91
	.half	48
	.half	48
	.half	68
	.half	0
	.section	.text.TerminalConOutReset,"ax",@progbits
	.align	1
	.globl	TerminalConOutReset
	.type	TerminalConOutReset, @function
TerminalConOutReset:
.LFB0:
	.file 1 "/home/kapoagaeming/Downloads/spacemit-image-builder/components/edk2/MdeModulePkg/Universal/Console/TerminalDxe/TerminalConOut.c"
	.loc 1 109 1
	.cfi_startproc
	addi	sp,sp,-48
	.cfi_def_cfa_offset 48
	sd	ra,40(sp)
	sd	s0,32(sp)
	.cfi_offset 1, -8
	.cfi_offset 8, -16
	addi	s0,sp,48
	.cfi_def_cfa 8, 0
	sd	a0,-40(s0)
	mv	a5,a1
	sb	a5,-41(s0)
	.loc 1 113 22
	ld	a5,-40(s0)
	addi	a5,a5,-64
	.loc 1 113 130
	ld	a4,0(a5)
	.loc 1 113 215
	li	a5,1819176960
	addi	a5,a5,-652
	bne	a4,a5,.L2
	.loc 1 113 18 discriminator 1
	ld	a5,-40(s0)
	addi	a5,a5,-64
	sd	a5,-24(s0)
	j	.L3
.L2:
	.loc 1 113 18 is_stmt 0 discriminator 2
	sd	zero,-24(s0)
.L3:
	.loc 1 118 6 is_stmt 1
	lbu	a5,-41(s0)
	andi	a5,a5,0xff
	beq	a5,zero,.L4
	.loc 1 122 6
	call	ReportProgressCodeEnabled@plt
	mv	a5,a0
	.loc 1 122 193 discriminator 1
	beq	a5,zero,.L5
	.loc 1 122 179 discriminator 4
	ld	a5,-24(s0)
	ld	a5,32(a5)
	.loc 1 122 82 discriminator 4
	mv	a2,a5
	li	a5,17039360
	addi	a1,a5,1
	li	a0,1
	call	ReportStatusCodeWithDevicePath@plt
	.loc 1 122 193
	j	.L6
.L5:
	.loc 1 122 196 discriminator 5
	call	ReportErrorCodeEnabled@plt
	.loc 1 122 383 discriminator 9
	call	ReportDebugCodeEnabled@plt
.L6:
	.loc 1 128 28
	ld	a5,-24(s0)
	ld	a5,24(a5)
	.loc 1 128 38
	ld	a5,8(a5)
	.loc 1 128 14
	ld	a4,-24(s0)
	ld	a4,24(a4)
	mv	a0,a4
	jalr	a5
.LVL0:
	sd	a0,-32(s0)
	.loc 1 129 36
	ld	a5,-32(s0)
	.loc 1 129 8
	bge	a5,zero,.L4
	.loc 1 133 8
	call	ReportProgressCodeEnabled@plt
	.loc 1 133 224 discriminator 3
	call	ReportErrorCodeEnabled@plt
	mv	a5,a0
	.loc 1 133 434 discriminator 5
	beq	a5,zero,.L7
	.loc 1 133 420 discriminator 8
	ld	a5,-24(s0)
	ld	a5,32(a5)
	.loc 1 133 310 discriminator 8
	mv	a2,a5
	li	a5,17039360
	addi	a1,a5,6
	li	a5,1073741824
	addi	a0,a5,2
	call	ReportStatusCodeWithDevicePath@plt
	.loc 1 133 221
	j	.L8
.L7:
	.loc 1 133 437 discriminator 9
	call	ReportDebugCodeEnabled@plt
.L8:
	.loc 1 139 14
	ld	a5,-32(s0)
	j	.L9
.L4:
	.loc 1 143 7
	ld	a5,-40(s0)
	ld	a5,40(a5)
	.loc 1 143 35
	ld	a4,-40(s0)
	ld	a4,72(a4)
	.loc 1 143 41
	lw	a4,8(a4)
	.loc 1 143 3
	andi	a4,a4,15
	mv	a1,a4
	ld	a0,-40(s0)
	jalr	a5
.LVL1:
	.loc 1 145 16
	ld	a5,-40(s0)
	ld	a5,32(a5)
	.loc 1 145 12
	li	a1,0
	ld	a0,-40(s0)
	jalr	a5
.LVL2:
	sd	a0,-32(s0)
	.loc 1 147 10
	ld	a5,-32(s0)
.L9:
	.loc 1 148 1
	mv	a0,a5
	ld	ra,40(sp)
	.cfi_restore 1
	ld	s0,32(sp)
	.cfi_restore 8
	.cfi_def_cfa 2, 48
	addi	sp,sp,48
	.cfi_def_cfa_offset 0
	jr	ra
	.cfi_endproc
.LFE0:
	.size	TerminalConOutReset, .-TerminalConOutReset
	.section	.text.TerminalConOutOutputString,"ax",@progbits
	.align	1
	.globl	TerminalConOutOutputString
	.type	TerminalConOutOutputString, @function
TerminalConOutOutputString:
.LFB1:
	.loc 1 173 1
	.cfi_startproc
	addi	sp,sp,-112
	.cfi_def_cfa_offset 112
	sd	ra,104(sp)
	sd	s0,96(sp)
	.cfi_offset 1, -8
	.cfi_offset 8, -16
	addi	s0,sp,112
	.cfi_def_cfa 8, 0
	sd	a0,-104(s0)
	sd	a1,-112(s0)
	.loc 1 191 14
	sb	zero,-83(s0)
	.loc 1 192 11
	sb	zero,-25(s0)
	.loc 1 193 13
	sb	zero,-82(s0)
	.loc 1 198 22
	ld	a5,-104(s0)
	addi	a5,a5,-64
	.loc 1 198 130
	ld	a4,0(a5)
	.loc 1 198 215
	li	a5,1819176960
	addi	a5,a5,-652
	bne	a4,a5,.L11
	.loc 1 198 18 discriminator 1
	ld	a5,-104(s0)
	addi	a5,a5,-64
	sd	a5,-24(s0)
	j	.L12
.L11:
	.loc 1 198 18 is_stmt 0 discriminator 2
	sd	zero,-24(s0)
.L12:
	.loc 1 203 8 is_stmt 1
	ld	a5,-104(s0)
	ld	a5,72(a5)
	sd	a5,-40(s0)
	.loc 1 205 11
	ld	a5,-40(s0)
	lw	a4,4(a5)
	.loc 1 205 25
	ld	a5,-40(s0)
	lw	a5,0(a5)
	.loc 1 205 6
	blt	a4,a5,.L13
	.loc 1 206 12
	li	a5,-1
	slli	a5,a5,63
	addi	a5,a5,3
	j	.L40
.L13:
	.loc 1 209 7
	ld	a5,-104(s0)
	ld	a5,24(a5)
	.loc 1 211 15
	ld	a4,-40(s0)
	lw	a4,4(a4)
	.loc 1 209 3
	mv	a1,a4
	addi	a3,s0,-64
	addi	a4,s0,-56
	mv	a2,a4
	ld	a0,-104(s0)
	jalr	a5
.LVL3:
	.loc 1 216 3
	j	.L15
.L36:
	.loc 1 217 27
	ld	a5,-24(s0)
	lw	a5,16(a5)
	.loc 1 217 5
	li	a4,8
	bgtu	a5,a4,.L16
	li	a4,4
	bgeu	a5,a4,.L17
	li	a4,2
	bleu	a5,a4,.L17
	li	a4,3
	beq	a5,a4,.L18
	j	.L16
.L17:
	.loc 1 227 14
	ld	a5,-112(s0)
	lhu	a5,0(a5)
	addi	a3,s0,-82
	addi	a4,s0,-81
	mv	a2,a3
	mv	a1,a4
	mv	a0,a5
	call	TerminalIsValidTextGraphics
	mv	a5,a0
	.loc 1 227 12 discriminator 1
	bne	a5,zero,.L19
	.loc 1 231 32
	ld	a5,-112(s0)
	lhu	a5,0(a5)
	.loc 1 231 25
	andi	a5,a5,0xff
	.loc 1 231 23
	sb	a5,-81(s0)
	.loc 1 233 17
	lbu	a5,-81(s0)
	mv	a0,a5
	call	TerminalIsValidAscii
	mv	a5,a0
	.loc 1 233 14 discriminator 1
	bne	a5,zero,.L20
	.loc 1 233 55 discriminator 2
	lbu	a5,-81(s0)
	mv	a0,a5
	call	TerminalIsValidEfiCntlChar
	mv	a5,a0
	.loc 1 233 15 discriminator 3
	bne	a5,zero,.L20
	.loc 1 239 30
	lbu	a5,-81(s0)
	.loc 1 239 16
	mv	a4,a5
	li	a5,27
	bne	a4,a5,.L21
	.loc 1 239 54 discriminator 1
	ld	a5,-24(s0)
	lbu	a5,264(a5)
	.loc 1 239 37 discriminator 1
	beq	a5,zero,.L21
	.loc 1 240 27
	li	a5,27
	sb	a5,-81(s0)
	j	.L20
.L21:
	.loc 1 242 27
	li	a5,63
	sb	a5,-81(s0)
	.loc 1 243 23
	li	a5,1
	sb	a5,-25(s0)
.L20:
	.loc 1 247 21
	lbu	a5,-81(s0)
	sb	a5,-82(s0)
.L19:
	.loc 1 250 27
	ld	a5,-24(s0)
	lw	a5,16(a5)
	.loc 1 250 12
	beq	a5,zero,.L22
	.loc 1 251 23
	lbu	a5,-82(s0)
	sb	a5,-81(s0)
.L22:
	.loc 1 254 16
	li	a5,1
	sd	a5,-72(s0)
	.loc 1 256 32
	ld	a5,-24(s0)
	ld	a5,24(a5)
	.loc 1 256 42
	ld	a5,40(a5)
	.loc 1 256 18
	ld	a4,-24(s0)
	ld	a4,24(a4)
	addi	a2,s0,-81
	addi	a3,s0,-72
	mv	a1,a3
	mv	a0,a4
	jalr	a5
.LVL4:
	sd	a0,-48(s0)
	.loc 1 262 40
	ld	a5,-48(s0)
	.loc 1 262 12
	bge	a5,zero,.L41
	.loc 1 263 11
	j	.L24
.L18:
	.loc 1 269 9
	ld	a5,-112(s0)
	lhu	a5,0(a5)
	addi	a3,s0,-83
	addi	a4,s0,-80
	mv	a2,a3
	mv	a1,a4
	mv	a0,a5
	call	UnicodeToUtf8@plt
	.loc 1 270 16
	lbu	a5,-83(s0)
	sd	a5,-72(s0)
	.loc 1 271 32
	ld	a5,-24(s0)
	ld	a5,24(a5)
	.loc 1 271 42
	ld	a5,40(a5)
	.loc 1 271 18
	ld	a4,-24(s0)
	ld	a4,24(a4)
	addi	a2,s0,-80
	addi	a3,s0,-72
	mv	a1,a3
	mv	a0,a4
	jalr	a5
.LVL5:
	sd	a0,-48(s0)
	.loc 1 276 40
	ld	a5,-48(s0)
	.loc 1 276 12
	blt	a5,zero,.L42
	.loc 1 280 9
	j	.L16
.L41:
	.loc 1 266 9
	nop
.L16:
	.loc 1 286 13
	ld	a5,-112(s0)
	lhu	a5,0(a5)
	sext.w	a5,a5
	.loc 1 286 5
	li	a4,13
	beq	a5,a4,.L26
	li	a4,13
	bgt	a5,a4,.L27
	li	a4,8
	beq	a5,a4,.L28
	li	a4,10
	beq	a5,a4,.L29
	j	.L27
.L28:
	.loc 1 288 17
	ld	a5,-40(s0)
	lw	a5,12(a5)
	.loc 1 288 12
	ble	a5,zero,.L43
	.loc 1 289 15
	ld	a5,-40(s0)
	lw	a5,12(a5)
	.loc 1 289 29
	addiw	a5,a5,-1
	sext.w	a4,a5
	ld	a5,-40(s0)
	sw	a4,12(a5)
	.loc 1 292 9
	j	.L43
.L29:
	.loc 1 295 17
	ld	a5,-40(s0)
	lw	a5,16(a5)
	.loc 1 295 46
	ld	a4,-64(s0)
	sext.w	a4,a4
	addiw	a4,a4,-1
	sext.w	a4,a4
	.loc 1 295 12
	bge	a5,a4,.L44
	.loc 1 296 15
	ld	a5,-40(s0)
	lw	a5,16(a5)
	.loc 1 296 26
	addiw	a5,a5,1
	sext.w	a4,a5
	ld	a5,-40(s0)
	sw	a4,16(a5)
	.loc 1 299 9
	j	.L44
.L26:
	.loc 1 302 28
	ld	a5,-40(s0)
	sw	zero,12(a5)
	.loc 1 303 9
	j	.L31
.L27:
	.loc 1 306 17
	ld	a5,-40(s0)
	lw	a5,12(a5)
	.loc 1 306 52
	ld	a4,-56(s0)
	sext.w	a4,a4
	addiw	a4,a4,-1
	sext.w	a4,a4
	.loc 1 306 12
	bge	a5,a4,.L33
	.loc 1 307 15
	ld	a5,-40(s0)
	lw	a5,12(a5)
	.loc 1 307 29
	addiw	a5,a5,1
	sext.w	a4,a5
	ld	a5,-40(s0)
	sw	a4,12(a5)
	.loc 1 342 9
	j	.L45
.L33:
	.loc 1 309 30
	ld	a5,-40(s0)
	sw	zero,12(a5)
	.loc 1 310 19
	ld	a5,-40(s0)
	lw	a5,16(a5)
	.loc 1 310 48
	ld	a4,-64(s0)
	sext.w	a4,a4
	addiw	a4,a4,-1
	sext.w	a4,a4
	.loc 1 310 14
	bge	a5,a4,.L35
	.loc 1 311 17
	ld	a5,-40(s0)
	lw	a5,16(a5)
	.loc 1 311 28
	addiw	a5,a5,1
	sext.w	a4,a5
	ld	a5,-40(s0)
	sw	a4,16(a5)
.L35:
	.loc 1 314 30
	ld	a5,-24(s0)
	lw	a4,16(a5)
	.loc 1 314 14
	li	a5,4
	bne	a4,a5,.L45
	.loc 1 315 30
	ld	a5,-24(s0)
	lbu	a5,264(a5)
	.loc 1 314 69 discriminator 1
	bne	a5,zero,.L45
	.loc 1 325 24
	li	a5,13
	sb	a5,-88(s0)
	.loc 1 326 24
	li	a5,10
	sb	a5,-87(s0)
	.loc 1 328 20
	li	a5,2
	sd	a5,-72(s0)
	.loc 1 330 36
	ld	a5,-24(s0)
	ld	a5,24(a5)
	.loc 1 330 46
	ld	a5,40(a5)
	.loc 1 330 22
	ld	a4,-24(s0)
	ld	a4,24(a4)
	addi	a2,s0,-88
	addi	a3,s0,-72
	mv	a1,a3
	mv	a0,a4
	jalr	a5
.LVL6:
	sd	a0,-48(s0)
	.loc 1 336 44
	ld	a5,-48(s0)
	.loc 1 336 16
	blt	a5,zero,.L46
	.loc 1 342 9
	j	.L45
.L43:
	.loc 1 292 9
	nop
	j	.L31
.L44:
	.loc 1 299 9
	nop
	j	.L31
.L45:
	.loc 1 342 9
	nop
.L31:
	.loc 1 216 38
	ld	a5,-112(s0)
	addi	a5,a5,2
	sd	a5,-112(s0)
.L15:
	.loc 1 216 11 discriminator 1
	ld	a5,-112(s0)
	lhu	a5,0(a5)
	.loc 1 216 20 discriminator 1
	bne	a5,zero,.L36
	.loc 1 346 6
	lbu	a5,-25(s0)
	andi	a5,a5,0xff
	beq	a5,zero,.L37
	.loc 1 347 12
	li	a5,1
	j	.L40
.L37:
	.loc 1 350 10
	li	a5,0
	j	.L40
.L42:
	.loc 1 277 11
	nop
	j	.L24
.L46:
	.loc 1 337 15
	nop
.L24:
	.loc 1 353 4
	call	ReportProgressCodeEnabled@plt
	.loc 1 353 220 discriminator 3
	call	ReportErrorCodeEnabled@plt
	mv	a5,a0
	.loc 1 353 430 discriminator 5
	beq	a5,zero,.L38
	.loc 1 353 416 discriminator 8
	ld	a5,-24(s0)
	ld	a5,32(a5)
	.loc 1 353 306 discriminator 8
	mv	a2,a5
	li	a5,17039360
	addi	a1,a5,8
	li	a5,1073741824
	addi	a0,a5,2
	call	ReportStatusCodeWithDevicePath@plt
	.loc 1 353 217
	j	.L39
.L38:
	.loc 1 353 433 discriminator 9
	call	ReportDebugCodeEnabled@plt
.L39:
	.loc 1 359 10
	li	a5,-1
	slli	a5,a5,63
	addi	a5,a5,7
.L40:
	.loc 1 360 1
	mv	a0,a5
	ld	ra,104(sp)
	.cfi_restore 1
	ld	s0,96(sp)
	.cfi_restore 8
	.cfi_def_cfa 2, 112
	addi	sp,sp,112
	.cfi_def_cfa_offset 0
	jr	ra
	.cfi_endproc
.LFE1:
	.size	TerminalConOutOutputString, .-TerminalConOutOutputString
	.section	.text.TerminalConOutTestString,"ax",@progbits
	.align	1
	.globl	TerminalConOutTestString
	.type	TerminalConOutTestString, @function
TerminalConOutTestString:
.LFB2:
	.loc 1 383 1
	.cfi_startproc
	addi	sp,sp,-48
	.cfi_def_cfa_offset 48
	sd	ra,40(sp)
	sd	s0,32(sp)
	.cfi_offset 1, -8
	.cfi_offset 8, -16
	addi	s0,sp,48
	.cfi_def_cfa 8, 0
	sd	a0,-40(s0)
	sd	a1,-48(s0)
	.loc 1 390 22
	ld	a5,-40(s0)
	addi	a5,a5,-64
	.loc 1 390 130
	ld	a4,0(a5)
	.loc 1 390 215
	li	a5,1819176960
	addi	a5,a5,-652
	bne	a4,a5,.L48
	.loc 1 390 18 discriminator 1
	ld	a5,-40(s0)
	addi	a5,a5,-64
	sd	a5,-24(s0)
	j	.L49
.L48:
	.loc 1 390 18 is_stmt 0 discriminator 2
	sd	zero,-24(s0)
.L49:
	.loc 1 392 25 is_stmt 1
	ld	a5,-24(s0)
	lw	a5,16(a5)
	.loc 1 392 3
	li	a4,4
	beq	a5,a4,.L50
	li	a4,4
	bgtu	a5,a4,.L51
	li	a4,2
	bleu	a5,a4,.L50
	li	a4,3
	beq	a5,a4,.L52
	j	.L51
.L50:
	.loc 1 397 16
	ld	a1,-48(s0)
	ld	a0,-24(s0)
	call	AnsiTestString@plt
	sd	a0,-32(s0)
	.loc 1 398 7
	j	.L53
.L52:
	.loc 1 401 16
	ld	a1,-48(s0)
	ld	a0,-24(s0)
	call	VTUTF8TestString@plt
	sd	a0,-32(s0)
	.loc 1 402 7
	j	.L53
.L51:
	.loc 1 405 14
	li	a5,-1
	slli	a5,a5,63
	addi	a5,a5,3
	sd	a5,-32(s0)
	.loc 1 406 7
	nop
.L53:
	.loc 1 409 10
	ld	a5,-32(s0)
	.loc 1 410 1
	mv	a0,a5
	ld	ra,40(sp)
	.cfi_restore 1
	ld	s0,32(sp)
	.cfi_restore 8
	.cfi_def_cfa 2, 48
	addi	sp,sp,48
	.cfi_def_cfa_offset 0
	jr	ra
	.cfi_endproc
.LFE2:
	.size	TerminalConOutTestString, .-TerminalConOutTestString
	.section	.text.TerminalConOutQueryMode,"ax",@progbits
	.align	1
	.globl	TerminalConOutQueryMode
	.type	TerminalConOutQueryMode, @function
TerminalConOutQueryMode:
.LFB3:
	.loc 1 435 1
	.cfi_startproc
	addi	sp,sp,-64
	.cfi_def_cfa_offset 64
	sd	ra,56(sp)
	sd	s0,48(sp)
	.cfi_offset 1, -8
	.cfi_offset 8, -16
	addi	s0,sp,64
	.cfi_def_cfa 8, 0
	sd	a0,-40(s0)
	sd	a1,-48(s0)
	sd	a2,-56(s0)
	sd	a3,-64(s0)
	.loc 1 438 32
	ld	a5,-40(s0)
	ld	a5,72(a5)
	.loc 1 438 38
	lw	a5,0(a5)
	.loc 1 438 21
	mv	a4,a5
	.loc 1 438 6
	ld	a5,-48(s0)
	bltu	a5,a4,.L56
	.loc 1 439 12
	li	a5,-1
	slli	a5,a5,63
	addi	a5,a5,3
	j	.L57
.L56:
	.loc 1 445 22
	ld	a5,-40(s0)
	addi	a5,a5,-64
	.loc 1 445 130
	ld	a4,0(a5)
	.loc 1 445 215
	li	a5,1819176960
	addi	a5,a5,-652
	bne	a4,a5,.L58
	.loc 1 445 18 discriminator 1
	ld	a5,-40(s0)
	addi	a5,a5,-64
	sd	a5,-24(s0)
	j	.L59
.L58:
	.loc 1 445 18 is_stmt 0 discriminator 2
	sd	zero,-24(s0)
.L59:
	.loc 1 446 28 is_stmt 1
	ld	a5,-24(s0)
	ld	a4,168(a5)
	.loc 1 446 53
	ld	a5,-48(s0)
	slli	a5,a5,4
	add	a5,a4,a5
	.loc 1 446 65
	ld	a4,0(a5)
	.loc 1 446 12
	ld	a5,-56(s0)
	sd	a4,0(a5)
	.loc 1 447 25
	ld	a5,-24(s0)
	ld	a4,168(a5)
	.loc 1 447 50
	ld	a5,-48(s0)
	slli	a5,a5,4
	add	a5,a4,a5
	.loc 1 447 62
	ld	a4,8(a5)
	.loc 1 447 9
	ld	a5,-64(s0)
	sd	a4,0(a5)
	.loc 1 449 10
	li	a5,0
.L57:
	.loc 1 450 1
	mv	a0,a5
	ld	ra,56(sp)
	.cfi_restore 1
	ld	s0,48(sp)
	.cfi_restore 8
	.cfi_def_cfa 2, 64
	addi	sp,sp,64
	.cfi_def_cfa_offset 0
	jr	ra
	.cfi_endproc
.LFE3:
	.size	TerminalConOutQueryMode, .-TerminalConOutQueryMode
	.section	.text.TerminalConOutSetMode,"ax",@progbits
	.align	1
	.globl	TerminalConOutSetMode
	.type	TerminalConOutSetMode, @function
TerminalConOutSetMode:
.LFB4:
	.loc 1 473 1
	.cfi_startproc
	addi	sp,sp,-48
	.cfi_def_cfa_offset 48
	sd	ra,40(sp)
	sd	s0,32(sp)
	.cfi_offset 1, -8
	.cfi_offset 8, -16
	addi	s0,sp,48
	.cfi_def_cfa 8, 0
	sd	a0,-40(s0)
	sd	a1,-48(s0)
	.loc 1 480 22
	ld	a5,-40(s0)
	addi	a5,a5,-64
	.loc 1 480 130
	ld	a4,0(a5)
	.loc 1 480 215
	li	a5,1819176960
	addi	a5,a5,-652
	bne	a4,a5,.L61
	.loc 1 480 18 discriminator 1
	ld	a5,-40(s0)
	addi	a5,a5,-64
	sd	a5,-24(s0)
	j	.L62
.L61:
	.loc 1 480 18 is_stmt 0 discriminator 2
	sd	zero,-24(s0)
.L62:
	.loc 1 482 32 is_stmt 1
	ld	a5,-40(s0)
	ld	a5,72(a5)
	.loc 1 482 38
	lw	a5,0(a5)
	.loc 1 482 21
	mv	a4,a5
	.loc 1 482 6
	ld	a5,-48(s0)
	bltu	a5,a4,.L63
	.loc 1 483 12
	li	a5,-1
	slli	a5,a5,63
	addi	a5,a5,3
	j	.L64
.L63:
	.loc 1 489 7
	ld	a5,-40(s0)
	ld	a5,72(a5)
	.loc 1 489 22
	ld	a4,-48(s0)
	sext.w	a4,a4
	.loc 1 489 20
	sw	a4,4(a5)
	.loc 1 491 7
	ld	a5,-40(s0)
	ld	a5,48(a5)
	.loc 1 491 3
	ld	a0,-40(s0)
	jalr	a5
.LVL7:
	.loc 1 493 33
	ld	a5,-24(s0)
	li	a4,1
	sb	a4,264(a5)
	.loc 1 494 16
	ld	a5,-40(s0)
	ld	a5,8(a5)
	.loc 1 494 12
	lla	a1,mSetModeString
	ld	a0,-40(s0)
	jalr	a5
.LVL8:
	sd	a0,-32(s0)
	.loc 1 495 33
	ld	a5,-24(s0)
	sb	zero,264(a5)
	.loc 1 497 34
	ld	a5,-32(s0)
	.loc 1 497 6
	bge	a5,zero,.L65
	.loc 1 498 12
	li	a5,-1
	slli	a5,a5,63
	addi	a5,a5,7
	j	.L64
.L65:
	.loc 1 501 7
	ld	a5,-40(s0)
	ld	a5,72(a5)
	.loc 1 501 22
	ld	a4,-48(s0)
	sext.w	a4,a4
	.loc 1 501 20
	sw	a4,4(a5)
	.loc 1 503 16
	ld	a5,-40(s0)
	ld	a5,48(a5)
	.loc 1 503 12
	ld	a0,-40(s0)
	jalr	a5
.LVL9:
	sd	a0,-32(s0)
	.loc 1 504 34
	ld	a5,-32(s0)
	.loc 1 504 6
	bge	a5,zero,.L66
	.loc 1 505 12
	li	a5,-1
	slli	a5,a5,63
	addi	a5,a5,7
	j	.L64
.L66:
	.loc 1 508 10
	li	a5,0
.L64:
	.loc 1 509 1
	mv	a0,a5
	ld	ra,40(sp)
	.cfi_restore 1
	ld	s0,32(sp)
	.cfi_restore 8
	.cfi_def_cfa 2, 48
	addi	sp,sp,48
	.cfi_def_cfa_offset 0
	jr	ra
	.cfi_endproc
.LFE4:
	.size	TerminalConOutSetMode, .-TerminalConOutSetMode
	.section	.text.TerminalConOutSetAttribute,"ax",@progbits
	.align	1
	.globl	TerminalConOutSetAttribute
	.type	TerminalConOutSetAttribute, @function
TerminalConOutSetAttribute:
.LFB5:
	.loc 1 529 1
	.cfi_startproc
	addi	sp,sp,-80
	.cfi_def_cfa_offset 80
	sd	ra,72(sp)
	sd	s0,64(sp)
	.cfi_offset 1, -8
	.cfi_offset 8, -16
	addi	s0,sp,80
	.cfi_def_cfa 8, 0
	sd	a0,-72(s0)
	sd	a1,-80(s0)
	.loc 1 538 15
	sw	zero,-36(s0)
	.loc 1 539 12
	sw	zero,-40(s0)
	.loc 1 544 22
	ld	a5,-72(s0)
	addi	a5,a5,-64
	.loc 1 544 130
	ld	a4,0(a5)
	.loc 1 544 215
	li	a5,1819176960
	addi	a5,a5,-652
	bne	a4,a5,.L68
	.loc 1 544 18 discriminator 1
	ld	a5,-72(s0)
	addi	a5,a5,-64
	sd	a5,-32(s0)
	j	.L69
.L68:
	.loc 1 544 18 is_stmt 0 discriminator 2
	sd	zero,-32(s0)
.L69:
	.loc 1 549 6 is_stmt 1
	ld	a4,-80(s0)
	li	a5,127
	bleu	a4,a5,.L70
	.loc 1 550 12
	li	a5,-1
	slli	a5,a5,63
	addi	a5,a5,3
	j	.L71
.L70:
	.loc 1 557 11
	ld	a5,-72(s0)
	ld	a5,72(a5)
	.loc 1 557 17
	lw	a4,8(a5)
	.loc 1 557 29
	ld	a5,-80(s0)
	sext.w	a5,a5
	.loc 1 557 6
	bne	a4,a5,.L72
	.loc 1 558 12
	li	a5,0
	j	.L71
.L72:
	.loc 1 565 21
	ld	a5,-80(s0)
	andi	a5,a5,7
	.loc 1 565 3
	li	a4,6
	beq	a5,a4,.L73
	li	a4,6
	bgtu	a5,a4,.L74
	li	a4,5
	beq	a5,a4,.L75
	li	a4,5
	bgtu	a5,a4,.L74
	li	a4,4
	beq	a5,a4,.L76
	li	a4,4
	bgtu	a5,a4,.L74
	li	a4,3
	beq	a5,a4,.L77
	li	a4,3
	bgtu	a5,a4,.L74
	li	a4,2
	beq	a5,a4,.L78
	li	a4,2
	bgtu	a5,a4,.L74
	beq	a5,zero,.L79
	li	a4,1
	beq	a5,a4,.L80
	j	.L74
.L79:
	.loc 1 567 25
	li	a5,30
	sb	a5,-17(s0)
	.loc 1 568 7
	j	.L81
.L80:
	.loc 1 571 25
	li	a5,34
	sb	a5,-17(s0)
	.loc 1 572 7
	j	.L81
.L78:
	.loc 1 575 25
	li	a5,32
	sb	a5,-17(s0)
	.loc 1 576 7
	j	.L81
.L77:
	.loc 1 579 25
	li	a5,36
	sb	a5,-17(s0)
	.loc 1 580 7
	j	.L81
.L76:
	.loc 1 583 25
	li	a5,31
	sb	a5,-17(s0)
	.loc 1 584 7
	j	.L81
.L75:
	.loc 1 587 25
	li	a5,35
	sb	a5,-17(s0)
	.loc 1 588 7
	j	.L81
.L73:
	.loc 1 591 25
	li	a5,33
	sb	a5,-17(s0)
	.loc 1 592 7
	j	.L81
.L74:
	.loc 1 597 25
	li	a5,37
	sb	a5,-17(s0)
	.loc 1 598 7
	nop
.L81:
	.loc 1 605 38
	ld	a5,-80(s0)
	srli	a5,a5,3
	.loc 1 605 19
	andi	a5,a5,0xff
	.loc 1 605 17
	andi	a5,a5,1
	sb	a5,-41(s0)
	.loc 1 611 22
	ld	a5,-80(s0)
	srli	a5,a5,4
	.loc 1 611 28
	andi	a5,a5,7
	.loc 1 611 3
	li	a4,6
	beq	a5,a4,.L82
	li	a4,6
	bgtu	a5,a4,.L83
	li	a4,5
	beq	a5,a4,.L84
	li	a4,5
	bgtu	a5,a4,.L83
	li	a4,4
	beq	a5,a4,.L85
	li	a4,4
	bgtu	a5,a4,.L83
	li	a4,3
	beq	a5,a4,.L86
	li	a4,3
	bgtu	a5,a4,.L83
	li	a4,2
	beq	a5,a4,.L87
	li	a4,2
	bgtu	a5,a4,.L83
	beq	a5,zero,.L88
	li	a4,1
	beq	a5,a4,.L89
	j	.L83
.L88:
	.loc 1 613 25
	li	a5,40
	sb	a5,-18(s0)
	.loc 1 614 7
	j	.L90
.L89:
	.loc 1 617 25
	li	a5,44
	sb	a5,-18(s0)
	.loc 1 618 7
	j	.L90
.L87:
	.loc 1 621 25
	li	a5,42
	sb	a5,-18(s0)
	.loc 1 622 7
	j	.L90
.L86:
	.loc 1 625 25
	li	a5,46
	sb	a5,-18(s0)
	.loc 1 626 7
	j	.L90
.L85:
	.loc 1 629 25
	li	a5,41
	sb	a5,-18(s0)
	.loc 1 630 7
	j	.L90
.L84:
	.loc 1 633 25
	li	a5,45
	sb	a5,-18(s0)
	.loc 1 634 7
	j	.L90
.L82:
	.loc 1 637 25
	li	a5,43
	sb	a5,-18(s0)
	.loc 1 638 7
	j	.L90
.L83:
	.loc 1 643 25
	li	a5,47
	sb	a5,-18(s0)
	.loc 1 644 7
	nop
.L90:
	.loc 1 650 28
	lbu	a5,-41(s0)
	slli	a5,a5,48
	srli	a5,a5,48
	addiw	a5,a5,48
	slli	a4,a5,48
	srli	a4,a4,48
	.loc 1 650 26
	lla	a5,mSetAttributeString
	sh	a4,4(a5)
	.loc 1 651 32
	lbu	a5,-17(s0)
	slli	a4,a5,32
	srli	a4,a4,32
	lla	a5,.LC0
	ld	a5,0(a5)
	mul	a5,a4,a5
	srli	a5,a5,32
	srliw	a5,a5,3
	andi	a5,a5,0xff
	addiw	a5,a5,48
	slli	a4,a5,48
	srli	a4,a4,48
	.loc 1 651 30
	lla	a5,mSetAttributeString
	sh	a4,12(a5)
	.loc 1 652 32
	lbu	a4,-17(s0)
	slli	a3,a4,32
	srli	a3,a3,32
	lla	a5,.LC0
	ld	a5,0(a5)
	mul	a5,a3,a5
	srli	a5,a5,32
	srliw	a5,a5,3
	mv	a3,a5
	mv	a5,a3
	slliw	a5,a5,2
	addw	a5,a5,a3
	slliw	a5,a5,1
	subw	a5,a4,a5
	andi	a5,a5,0xff
	addiw	a5,a5,48
	slli	a4,a5,48
	srli	a4,a4,48
	.loc 1 652 30
	lla	a5,mSetAttributeString
	sh	a4,14(a5)
	.loc 1 653 33
	lbu	a5,-18(s0)
	slli	a4,a5,32
	srli	a4,a4,32
	lla	a5,.LC0
	ld	a5,0(a5)
	mul	a5,a4,a5
	srli	a5,a5,32
	srliw	a5,a5,3
	andi	a5,a5,0xff
	addiw	a5,a5,48
	slli	a4,a5,48
	srli	a4,a4,48
	.loc 1 653 31
	lla	a5,mSetAttributeString
	sh	a4,22(a5)
	.loc 1 654 33
	lbu	a4,-18(s0)
	slli	a3,a4,32
	srli	a3,a3,32
	lla	a5,.LC0
	ld	a5,0(a5)
	mul	a5,a3,a5
	srli	a5,a5,32
	srliw	a5,a5,3
	mv	a3,a5
	mv	a5,a3
	slliw	a5,a5,2
	addw	a5,a5,a3
	slliw	a5,a5,1
	subw	a5,a4,a5
	andi	a5,a5,0xff
	addiw	a5,a5,48
	slli	a4,a5,48
	srli	a4,a4,48
	.loc 1 654 31
	lla	a5,mSetAttributeString
	sh	a4,24(a5)
	.loc 1 660 21
	ld	a5,-72(s0)
	ld	a5,72(a5)
	.loc 1 660 15
	lw	a5,12(a5)
	sw	a5,-36(s0)
	.loc 1 661 18
	ld	a5,-72(s0)
	ld	a5,72(a5)
	.loc 1 661 12
	lw	a5,16(a5)
	sw	a5,-40(s0)
	.loc 1 663 33
	ld	a5,-32(s0)
	li	a4,1
	sb	a4,264(a5)
	.loc 1 664 16
	ld	a5,-72(s0)
	ld	a5,8(a5)
	.loc 1 664 12
	lla	a1,mSetAttributeString
	ld	a0,-72(s0)
	jalr	a5
.LVL10:
	sd	a0,-56(s0)
	.loc 1 665 33
	ld	a5,-32(s0)
	sb	zero,264(a5)
	.loc 1 667 34
	ld	a5,-56(s0)
	.loc 1 667 6
	bge	a5,zero,.L91
	.loc 1 668 12
	li	a5,-1
	slli	a5,a5,63
	addi	a5,a5,7
	j	.L71
.L91:
	.loc 1 674 7
	ld	a5,-72(s0)
	ld	a5,72(a5)
	.loc 1 674 28
	lw	a4,-36(s0)
	sw	a4,12(a5)
	.loc 1 675 7
	ld	a5,-72(s0)
	ld	a5,72(a5)
	.loc 1 675 25
	lw	a4,-40(s0)
	sw	a4,16(a5)
	.loc 1 677 7
	ld	a5,-72(s0)
	ld	a5,72(a5)
	.loc 1 677 27
	ld	a4,-80(s0)
	sext.w	a4,a4
	.loc 1 677 25
	sw	a4,8(a5)
	.loc 1 679 10
	li	a5,0
.L71:
	.loc 1 680 1
	mv	a0,a5
	ld	ra,72(sp)
	.cfi_restore 1
	ld	s0,64(sp)
	.cfi_restore 8
	.cfi_def_cfa 2, 80
	addi	sp,sp,80
	.cfi_def_cfa_offset 0
	jr	ra
	.cfi_endproc
.LFE5:
	.size	TerminalConOutSetAttribute, .-TerminalConOutSetAttribute
	.section	.text.TerminalConOutClearScreen,"ax",@progbits
	.align	1
	.globl	TerminalConOutClearScreen
	.type	TerminalConOutClearScreen, @function
TerminalConOutClearScreen:
.LFB6:
	.loc 1 699 1
	.cfi_startproc
	addi	sp,sp,-48
	.cfi_def_cfa_offset 48
	sd	ra,40(sp)
	sd	s0,32(sp)
	.cfi_offset 1, -8
	.cfi_offset 8, -16
	addi	s0,sp,48
	.cfi_def_cfa 8, 0
	sd	a0,-40(s0)
	.loc 1 703 22
	ld	a5,-40(s0)
	addi	a5,a5,-64
	.loc 1 703 130
	ld	a4,0(a5)
	.loc 1 703 215
	li	a5,1819176960
	addi	a5,a5,-652
	bne	a4,a5,.L93
	.loc 1 703 18 discriminator 1
	ld	a5,-40(s0)
	addi	a5,a5,-64
	sd	a5,-24(s0)
	j	.L94
.L93:
	.loc 1 703 18 is_stmt 0 discriminator 2
	sd	zero,-24(s0)
.L94:
	.loc 1 708 33 is_stmt 1
	ld	a5,-24(s0)
	li	a4,1
	sb	a4,264(a5)
	.loc 1 709 16
	ld	a5,-40(s0)
	ld	a5,8(a5)
	.loc 1 709 12
	lla	a1,mClearScreenString
	ld	a0,-40(s0)
	jalr	a5
.LVL11:
	sd	a0,-32(s0)
	.loc 1 710 33
	ld	a5,-24(s0)
	sb	zero,264(a5)
	.loc 1 712 34
	ld	a5,-32(s0)
	.loc 1 712 6
	bge	a5,zero,.L95
	.loc 1 713 12
	li	a5,-1
	slli	a5,a5,63
	addi	a5,a5,7
	j	.L96
.L95:
	.loc 1 716 16
	ld	a5,-40(s0)
	ld	a5,56(a5)
	.loc 1 716 12
	li	a2,0
	li	a1,0
	ld	a0,-40(s0)
	jalr	a5
.LVL12:
	sd	a0,-32(s0)
	.loc 1 718 10
	ld	a5,-32(s0)
.L96:
	.loc 1 719 1
	mv	a0,a5
	ld	ra,40(sp)
	.cfi_restore 1
	ld	s0,32(sp)
	.cfi_restore 8
	.cfi_def_cfa 2, 48
	addi	sp,sp,48
	.cfi_def_cfa_offset 0
	jr	ra
	.cfi_endproc
.LFE6:
	.size	TerminalConOutClearScreen, .-TerminalConOutClearScreen
	.section	.rodata
	.align	3
.LC2:
	.zero	2
	.section	.text.TerminalConOutSetCursorPosition,"ax",@progbits
	.align	1
	.globl	TerminalConOutSetCursorPosition
	.type	TerminalConOutSetCursorPosition, @function
TerminalConOutSetCursorPosition:
.LFB7:
	.loc 1 741 1
	.cfi_startproc
	addi	sp,sp,-96
	.cfi_def_cfa_offset 96
	sd	ra,88(sp)
	sd	s0,80(sp)
	.cfi_offset 1, -8
	.cfi_offset 8, -16
	addi	s0,sp,96
	.cfi_def_cfa 8, 0
	sd	a0,-72(s0)
	sd	a1,-80(s0)
	sd	a2,-88(s0)
	.loc 1 749 22
	ld	a5,-72(s0)
	addi	a5,a5,-64
	.loc 1 749 130
	ld	a4,0(a5)
	.loc 1 749 215
	li	a5,1819176960
	addi	a5,a5,-652
	bne	a4,a5,.L98
	.loc 1 749 18 discriminator 1
	ld	a5,-72(s0)
	addi	a5,a5,-64
	sd	a5,-24(s0)
	j	.L99
.L98:
	.loc 1 749 18 is_stmt 0 discriminator 2
	sd	zero,-24(s0)
.L99:
	.loc 1 754 8 is_stmt 1
	ld	a5,-72(s0)
	ld	a5,72(a5)
	sd	a5,-40(s0)
	.loc 1 759 16
	ld	a5,-72(s0)
	ld	a5,24(a5)
	.loc 1 761 24
	ld	a4,-40(s0)
	lw	a4,4(a4)
	.loc 1 759 12
	mv	a1,a4
	addi	a3,s0,-64
	addi	a4,s0,-56
	mv	a2,a4
	ld	a0,-72(s0)
	jalr	a5
.LVL13:
	sd	a0,-48(s0)
	.loc 1 765 34
	ld	a5,-48(s0)
	.loc 1 765 6
	bge	a5,zero,.L100
	.loc 1 766 12
	li	a5,-1
	slli	a5,a5,63
	addi	a5,a5,3
	j	.L110
.L100:
	.loc 1 769 15
	ld	a5,-56(s0)
	.loc 1 769 6
	ld	a4,-80(s0)
	bgeu	a4,a5,.L102
	.loc 1 769 37 discriminator 1
	ld	a5,-64(s0)
	.loc 1 769 29 discriminator 1
	ld	a4,-88(s0)
	bltu	a4,a5,.L103
.L102:
	.loc 1 770 12
	li	a5,-1
	slli	a5,a5,63
	addi	a5,a5,3
	j	.L110
.L103:
	.loc 1 780 22
	ld	a5,-24(s0)
	lw	a4,16(a5)
	.loc 1 780 6
	li	a5,4
	bne	a4,a5,.L104
	.loc 1 781 19
	ld	a5,-40(s0)
	lw	a5,16(a5)
	.loc 1 781 8
	mv	a4,a5
	.loc 1 780 61 discriminator 1
	ld	a5,-88(s0)
	bne	a5,a4,.L104
	.loc 1 783 20
	ld	a5,-40(s0)
	lw	a5,12(a5)
	.loc 1 783 9
	mv	a4,a5
	.loc 1 783 8
	ld	a5,-80(s0)
	bgeu	a5,a4,.L105
	.loc 1 784 59
	ld	a5,-40(s0)
	lw	a5,12(a5)
	mv	a4,a5
	.loc 1 784 74
	ld	a5,-80(s0)
	sub	a4,a4,a5
	.loc 1 784 84
	lla	a5,.LC1
	ld	a5,0(a5)
	mulhu	a5,a4,a5
	srli	a5,a5,3
	.loc 1 784 38
	slli	a5,a5,48
	srli	a5,a5,48
	addiw	a5,a5,48
	slli	a4,a5,48
	srli	a4,a4,48
	.loc 1 784 36
	lla	a5,mCursorBackwardString
	sh	a4,4(a5)
	.loc 1 785 59
	ld	a5,-40(s0)
	lw	a5,12(a5)
	mv	a4,a5
	.loc 1 785 74
	ld	a5,-80(s0)
	sub	a3,a4,a5
	.loc 1 785 84
	lla	a5,.LC1
	ld	a5,0(a5)
	mulhu	a5,a3,a5
	srli	a4,a5,3
	mv	a5,a4
	slli	a5,a5,2
	add	a5,a5,a4
	slli	a5,a5,1
	sub	a4,a3,a5
	.loc 1 785 38
	slli	a5,a4,48
	srli	a5,a5,48
	addiw	a5,a5,48
	slli	a4,a5,48
	srli	a4,a4,48
	.loc 1 785 36
	lla	a5,mCursorBackwardString
	sh	a4,6(a5)
	.loc 1 786 14
	lla	a5,mCursorBackwardString
	sd	a5,-32(s0)
	.loc 1 783 8
	j	.L108
.L105:
	.loc 1 787 36
	ld	a5,-40(s0)
	lw	a5,12(a5)
	.loc 1 787 25
	mv	a4,a5
	.loc 1 787 15
	ld	a5,-80(s0)
	bleu	a5,a4,.L107
	.loc 1 788 67
	ld	a5,-40(s0)
	lw	a5,12(a5)
	mv	a4,a5
	.loc 1 788 61
	ld	a5,-80(s0)
	sub	a4,a5,a4
	.loc 1 788 83
	lla	a5,.LC1
	ld	a5,0(a5)
	mulhu	a5,a4,a5
	srli	a5,a5,3
	.loc 1 788 37
	slli	a5,a5,48
	srli	a5,a5,48
	addiw	a5,a5,48
	slli	a4,a5,48
	srli	a4,a4,48
	.loc 1 788 35
	lla	a5,mCursorForwardString
	sh	a4,4(a5)
	.loc 1 789 67
	ld	a5,-40(s0)
	lw	a5,12(a5)
	mv	a4,a5
	.loc 1 789 61
	ld	a5,-80(s0)
	sub	a3,a5,a4
	.loc 1 789 83
	lla	a5,.LC1
	ld	a5,0(a5)
	mulhu	a5,a3,a5
	srli	a4,a5,3
	mv	a5,a4
	slli	a5,a5,2
	add	a5,a5,a4
	slli	a5,a5,1
	sub	a4,a3,a5
	.loc 1 789 37
	slli	a5,a4,48
	srli	a5,a5,48
	addiw	a5,a5,48
	slli	a4,a5,48
	srli	a4,a4,48
	.loc 1 789 35
	lla	a5,mCursorForwardString
	sh	a4,6(a5)
	.loc 1 790 14
	lla	a5,mCursorForwardString
	sd	a5,-32(s0)
	.loc 1 783 8
	j	.L108
.L107:
	.loc 1 792 14
	lla	a5,.LC2
	sd	a5,-32(s0)
	.loc 1 783 8
	j	.L108
.L104:
	.loc 1 795 60
	ld	a5,-88(s0)
	addi	a4,a5,1
	.loc 1 795 65
	lla	a5,.LC1
	ld	a5,0(a5)
	mulhu	a5,a4,a5
	srli	a5,a5,3
	.loc 1 795 39
	slli	a5,a5,48
	srli	a5,a5,48
	addiw	a5,a5,48
	slli	a4,a5,48
	srli	a4,a4,48
	.loc 1 795 37
	lla	a5,mSetCursorPositionString
	sh	a4,4(a5)
	.loc 1 796 60
	ld	a5,-88(s0)
	addi	a3,a5,1
	.loc 1 796 65
	lla	a5,.LC1
	ld	a5,0(a5)
	mulhu	a5,a3,a5
	srli	a4,a5,3
	mv	a5,a4
	slli	a5,a5,2
	add	a5,a5,a4
	slli	a5,a5,1
	sub	a4,a3,a5
	.loc 1 796 39
	slli	a5,a4,48
	srli	a5,a5,48
	addiw	a5,a5,48
	slli	a4,a5,48
	srli	a4,a4,48
	.loc 1 796 37
	lla	a5,mSetCursorPositionString
	sh	a4,6(a5)
	.loc 1 797 63
	ld	a5,-80(s0)
	addi	a4,a5,1
	.loc 1 797 68
	lla	a5,.LC1
	ld	a5,0(a5)
	mulhu	a5,a4,a5
	srli	a5,a5,3
	.loc 1 797 39
	slli	a5,a5,48
	srli	a5,a5,48
	addiw	a5,a5,48
	slli	a4,a5,48
	srli	a4,a4,48
	.loc 1 797 37
	lla	a5,mSetCursorPositionString
	sh	a4,10(a5)
	.loc 1 798 63
	ld	a5,-80(s0)
	addi	a3,a5,1
	.loc 1 798 68
	lla	a5,.LC1
	ld	a5,0(a5)
	mulhu	a5,a3,a5
	srli	a4,a5,3
	mv	a5,a4
	slli	a5,a5,2
	add	a5,a5,a4
	slli	a5,a5,1
	sub	a4,a3,a5
	.loc 1 798 39
	slli	a5,a4,48
	srli	a5,a5,48
	addiw	a5,a5,48
	slli	a4,a5,48
	srli	a4,a4,48
	.loc 1 798 37
	lla	a5,mSetCursorPositionString
	sh	a4,12(a5)
	.loc 1 799 12
	lla	a5,mSetCursorPositionString
	sd	a5,-32(s0)
.L108:
	.loc 1 802 33
	ld	a5,-24(s0)
	li	a4,1
	sb	a4,264(a5)
	.loc 1 803 16
	ld	a5,-72(s0)
	ld	a5,8(a5)
	.loc 1 803 12
	ld	a1,-32(s0)
	ld	a0,-72(s0)
	jalr	a5
.LVL14:
	sd	a0,-48(s0)
	.loc 1 804 33
	ld	a5,-24(s0)
	sb	zero,264(a5)
	.loc 1 806 34
	ld	a5,-48(s0)
	.loc 1 806 6
	bge	a5,zero,.L109
	.loc 1 807 12
	li	a5,-1
	slli	a5,a5,63
	addi	a5,a5,7
	j	.L110
.L109:
	.loc 1 814 24
	ld	a5,-80(s0)
	sext.w	a4,a5
	.loc 1 814 22
	ld	a5,-40(s0)
	sw	a4,12(a5)
	.loc 1 815 21
	ld	a5,-88(s0)
	sext.w	a4,a5
	.loc 1 815 19
	ld	a5,-40(s0)
	sw	a4,16(a5)
	.loc 1 817 10
	li	a5,0
.L110:
	.loc 1 818 1
	mv	a0,a5
	ld	ra,88(sp)
	.cfi_restore 1
	ld	s0,80(sp)
	.cfi_restore 8
	.cfi_def_cfa 2, 96
	addi	sp,sp,96
	.cfi_def_cfa_offset 0
	jr	ra
	.cfi_endproc
.LFE7:
	.size	TerminalConOutSetCursorPosition, .-TerminalConOutSetCursorPosition
	.section	.text.TerminalConOutEnableCursor,"ax",@progbits
	.align	1
	.globl	TerminalConOutEnableCursor
	.type	TerminalConOutEnableCursor, @function
TerminalConOutEnableCursor:
.LFB8:
	.loc 1 839 1
	.cfi_startproc
	addi	sp,sp,-32
	.cfi_def_cfa_offset 32
	sd	ra,24(sp)
	sd	s0,16(sp)
	.cfi_offset 1, -8
	.cfi_offset 8, -16
	addi	s0,sp,32
	.cfi_def_cfa 8, 0
	sd	a0,-24(s0)
	mv	a5,a1
	sb	a5,-25(s0)
	.loc 1 840 6
	lbu	a5,-25(s0)
	andi	a5,a5,0xff
	bne	a5,zero,.L112
	.loc 1 841 12
	li	a5,-1
	slli	a5,a5,63
	addi	a5,a5,3
	j	.L113
.L112:
	.loc 1 844 10
	li	a5,0
.L113:
	.loc 1 845 1
	mv	a0,a5
	ld	ra,24(sp)
	.cfi_restore 1
	ld	s0,16(sp)
	.cfi_restore 8
	.cfi_def_cfa 2, 32
	addi	sp,sp,32
	.cfi_def_cfa_offset 0
	jr	ra
	.cfi_endproc
.LFE8:
	.size	TerminalConOutEnableCursor, .-TerminalConOutEnableCursor
	.section	.text.TerminalIsValidTextGraphics,"ax",@progbits
	.align	1
	.globl	TerminalIsValidTextGraphics
	.type	TerminalIsValidTextGraphics, @function
TerminalIsValidTextGraphics:
.LFB9:
	.loc 1 865 1
	.cfi_startproc
	addi	sp,sp,-64
	.cfi_def_cfa_offset 64
	sd	ra,56(sp)
	sd	s0,48(sp)
	.cfi_offset 1, -8
	.cfi_offset 8, -16
	addi	s0,sp,64
	.cfi_def_cfa 8, 0
	mv	a5,a0
	sd	a1,-48(s0)
	sd	a2,-56(s0)
	sh	a5,-34(s0)
	.loc 1 868 18
	lhu	a5,-34(s0)
	sext.w	a4,a5
	li	a5,65536
	addi	a5,a5,-256
	and	a5,a4,a5
	sext.w	a4,a5
	.loc 1 868 6
	li	a5,8192
	addi	a5,a5,1280
	beq	a4,a5,.L115
	.loc 1 868 52 discriminator 1
	lhu	a5,-34(s0)
	sext.w	a4,a5
	li	a5,65536
	addi	a5,a5,-256
	and	a5,a4,a5
	sext.w	a4,a5
	.loc 1 868 39 discriminator 1
	li	a5,8192
	addi	a5,a5,256
	beq	a4,a5,.L115
	.loc 1 873 12
	li	a5,0
	j	.L116
.L115:
	.loc 1 876 14
	lla	a5,UnicodeToPcAnsiOrAscii
	sd	a5,-24(s0)
	.loc 1 876 3
	j	.L117
.L121:
	.loc 1 877 25
	ld	a5,-24(s0)
	lhu	a5,0(a5)
	.loc 1 877 8
	lhu	a4,-34(s0)
	sext.w	a4,a4
	sext.w	a5,a5
	bne	a4,a5,.L118
	.loc 1 878 10
	ld	a5,-48(s0)
	beq	a5,zero,.L119
	.loc 1 879 24
	ld	a5,-24(s0)
	lbu	a4,2(a5)
	.loc 1 879 17
	ld	a5,-48(s0)
	sb	a4,0(a5)
.L119:
	.loc 1 882 10
	ld	a5,-56(s0)
	beq	a5,zero,.L120
	.loc 1 883 23
	ld	a5,-24(s0)
	lbu	a4,3(a5)
	.loc 1 883 16
	ld	a5,-56(s0)
	sb	a4,0(a5)
.L120:
	.loc 1 886 14
	li	a5,1
	j	.L116
.L118:
	.loc 1 876 71 discriminator 2
	ld	a5,-24(s0)
	addi	a5,a5,4
	sd	a5,-24(s0)
.L117:
	.loc 1 876 45 discriminator 1
	ld	a5,-24(s0)
	lhu	a5,0(a5)
	.loc 1 876 55 discriminator 1
	bne	a5,zero,.L121
	.loc 1 890 10
	li	a5,0
.L116:
	.loc 1 891 1
	mv	a0,a5
	ld	ra,56(sp)
	.cfi_restore 1
	ld	s0,48(sp)
	.cfi_restore 8
	.cfi_def_cfa 2, 64
	addi	sp,sp,64
	.cfi_def_cfa_offset 0
	jr	ra
	.cfi_endproc
.LFE9:
	.size	TerminalIsValidTextGraphics, .-TerminalIsValidTextGraphics
	.section	.text.TerminalIsValidAscii,"ax",@progbits
	.align	1
	.globl	TerminalIsValidAscii
	.type	TerminalIsValidAscii, @function
TerminalIsValidAscii:
.LFB10:
	.loc 1 906 1
	.cfi_startproc
	addi	sp,sp,-32
	.cfi_def_cfa_offset 32
	sd	ra,24(sp)
	sd	s0,16(sp)
	.cfi_offset 1, -8
	.cfi_offset 8, -16
	addi	s0,sp,32
	.cfi_def_cfa 8, 0
	mv	a5,a0
	sh	a5,-18(s0)
	.loc 1 910 6
	lhu	a5,-18(s0)
	sext.w	a4,a5
	li	a5,31
	bleu	a4,a5,.L123
	.loc 1 910 23 discriminator 1
	lhu	a5,-18(s0)
	sext.w	a4,a5
	li	a5,127
	bgtu	a4,a5,.L123
	.loc 1 911 12
	li	a5,1
	j	.L124
.L123:
	.loc 1 914 10
	li	a5,0
.L124:
	.loc 1 915 1
	mv	a0,a5
	ld	ra,24(sp)
	.cfi_restore 1
	ld	s0,16(sp)
	.cfi_restore 8
	.cfi_def_cfa 2, 32
	addi	sp,sp,32
	.cfi_def_cfa_offset 0
	jr	ra
	.cfi_endproc
.LFE10:
	.size	TerminalIsValidAscii, .-TerminalIsValidAscii
	.section	.text.TerminalIsValidEfiCntlChar,"ax",@progbits
	.align	1
	.globl	TerminalIsValidEfiCntlChar
	.type	TerminalIsValidEfiCntlChar, @function
TerminalIsValidEfiCntlChar:
.LFB11:
	.loc 1 930 1
	.cfi_startproc
	addi	sp,sp,-32
	.cfi_def_cfa_offset 32
	sd	ra,24(sp)
	sd	s0,16(sp)
	.cfi_offset 1, -8
	.cfi_offset 8, -16
	addi	s0,sp,32
	.cfi_def_cfa 8, 0
	mv	a5,a0
	sh	a5,-18(s0)
	.loc 1 934 6
	lhu	a5,-18(s0)
	sext.w	a5,a5
	beq	a5,zero,.L126
	.loc 1 934 25 discriminator 1
	lhu	a5,-18(s0)
	sext.w	a4,a5
	li	a5,8
	beq	a4,a5,.L126
	.loc 1 935 25
	lhu	a5,-18(s0)
	sext.w	a4,a5
	li	a5,10
	beq	a4,a5,.L126
	.loc 1 936 25
	lhu	a5,-18(s0)
	sext.w	a4,a5
	li	a5,13
	beq	a4,a5,.L126
	.loc 1 937 25
	lhu	a5,-18(s0)
	sext.w	a4,a5
	li	a5,9
	bne	a4,a5,.L127
.L126:
	.loc 1 941 12
	li	a5,1
	j	.L128
.L127:
	.loc 1 944 10
	li	a5,0
.L128:
	.loc 1 945 1
	mv	a0,a5
	ld	ra,24(sp)
	.cfi_restore 1
	ld	s0,16(sp)
	.cfi_restore 8
	.cfi_def_cfa 2, 32
	addi	sp,sp,32
	.cfi_def_cfa_offset 0
	jr	ra
	.cfi_endproc
.LFE11:
	.size	TerminalIsValidEfiCntlChar, .-TerminalIsValidEfiCntlChar
	.section	.rodata
	.align	3
.LC0:
	.dword	3435973837
	.align	3
.LC1:
	.dword	-3689348814741910323
	.text
.Letext0:
	.file 2 "/home/kapoagaeming/Downloads/spacemit-image-builder/components/edk2/MdePkg/Include/RiscV64/ProcessorBind.h"
	.file 3 "/home/kapoagaeming/Downloads/spacemit-image-builder/components/edk2/MdePkg/Include/Base.h"
	.file 4 "/home/kapoagaeming/Downloads/spacemit-image-builder/components/edk2/MdePkg/Include/Uefi/UefiBaseType.h"
	.file 5 "/home/kapoagaeming/Downloads/spacemit-image-builder/components/edk2/MdePkg/Include/Protocol/DevicePath.h"
	.file 6 "/home/kapoagaeming/Downloads/spacemit-image-builder/components/edk2/MdePkg/Include/Protocol/SimpleTextIn.h"
	.file 7 "/home/kapoagaeming/Downloads/spacemit-image-builder/components/edk2/MdePkg/Include/Protocol/SimpleTextInEx.h"
	.file 8 "/home/kapoagaeming/Downloads/spacemit-image-builder/components/edk2/MdePkg/Include/Protocol/SimpleTextOut.h"
	.file 9 "/home/kapoagaeming/Downloads/spacemit-image-builder/components/edk2/MdePkg/Include/Protocol/SerialIo.h"
	.file 10 "/home/kapoagaeming/Downloads/spacemit-image-builder/components/edk2/MdePkg/Include/Library/UefiLib.h"
	.file 11 "/home/kapoagaeming/Downloads/spacemit-image-builder/components/edk2/MdePkg/Include/Pi/PiStatusCode.h"
	.file 12 "/home/kapoagaeming/Downloads/spacemit-image-builder/components/edk2/MdeModulePkg/Universal/Console/TerminalDxe/Terminal.h"
	.file 13 "/home/kapoagaeming/Downloads/spacemit-image-builder/components/edk2/MdePkg/Include/Library/ReportStatusCodeLib.h"
	.section	.note.GNU-stack,"",@progbits
