	.file	"ConSplitter.c"
	.option pic
	.option norelax
	.attribute arch, "rv64i2p1_m2p0_a2p1_f2p2_d2p2_c2p0_zicsr2p0_zifencei2p0_zmmul1p0_zaamo1p0_zalrsc1p0_zca1p0_zcd1p0"
	.attribute unaligned_access, 0
	.attribute stack_align, 16
	.text
.Ltext0:
	.cfi_sections	.debug_frame
	.file 0 "/home/kapoagaeming/Downloads/spacemit-image-builder/components/Build/Milk-V-Jupiter/RELEASE_GCC5/RISCV64/MdeModulePkg/Universal/Console/ConSplitterDxe/ConSplitterDxe" "/home/kapoagaeming/Downloads/spacemit-image-builder/components/edk2/MdeModulePkg/Universal/Console/ConSplitterDxe/ConSplitter.c"
	.globl	mConInIsConnect
	.section	.bss.mConInIsConnect,"aw",@nobits
	.type	mConInIsConnect, @object
	.size	mConInIsConnect, 1
mConInIsConnect:
	.zero	1
	.globl	mConIn
	.section	.data.rel.local.mConIn,"aw"
	.align	3
	.type	mConIn, @object
	.size	mConIn, 392
mConIn:
	.dword	1884514644
	.dword	0
	.dword	ConSplitterTextInReset
	.dword	ConSplitterTextInReadKeyStroke
	.dword	0
	.dword	0
	.dword	0
	.dword	0
	.dword	ConSplitterTextInResetEx
	.dword	ConSplitterTextInReadKeyStrokeEx
	.dword	0
	.dword	ConSplitterTextInSetState
	.dword	ConSplitterTextInRegisterKeyNotify
	.dword	ConSplitterTextInUnregisterKeyNotify
	.dword	0
	.dword	0
	.dword	0
	.dword	0
	.dword	0
	.dword	0
	.dword	0
	.byte	0
	.byte	0
	.zero	6
	.dword	ConSplitterSimplePointerReset
	.dword	ConSplitterSimplePointerGetState
	.dword	0
	.dword	0
	.dword	65536
	.dword	65536
	.dword	65536
	.byte	1
	.byte	1
	.zero	6
	.dword	0
	.dword	0
	.dword	0
	.dword	ConSplitterAbsolutePointerReset
	.dword	ConSplitterAbsolutePointerGetState
	.dword	0
	.dword	0
	.dword	0
	.dword	0
	.dword	0
	.dword	65536
	.dword	65536
	.dword	65536
	.word	0
	.zero	4
	.dword	0
	.dword	0
	.dword	0
	.byte	0
	.byte	0
	.byte	0
	.zero	13
	.globl	mUgaDrawProtocolTemplate
	.section	.data.rel.mUgaDrawProtocolTemplate,"aw"
	.align	3
	.type	mUgaDrawProtocolTemplate, @object
	.size	mUgaDrawProtocolTemplate, 24
mUgaDrawProtocolTemplate:
	.dword	ConSplitterUgaDrawGetMode
	.dword	ConSplitterUgaDrawSetMode
	.dword	ConSplitterUgaDrawBlt
	.globl	mGraphicsOutputProtocolTemplate
	.section	.data.rel.mGraphicsOutputProtocolTemplate,"aw"
	.align	3
	.type	mGraphicsOutputProtocolTemplate, @object
	.size	mGraphicsOutputProtocolTemplate, 32
mGraphicsOutputProtocolTemplate:
	.dword	ConSplitterGraphicsOutputQueryMode
	.dword	ConSplitterGraphicsOutputSetMode
	.dword	ConSplitterGraphicsOutputBlt
	.dword	0
	.globl	mConOut
	.section	.data.rel.local.mConOut,"aw"
	.align	3
	.type	mConOut, @object
	.size	mConOut, 272
mConOut:
	.dword	1884516180
	.dword	0
	.dword	ConSplitterTextOutReset
	.dword	ConSplitterTextOutOutputString
	.dword	ConSplitterTextOutTestString
	.dword	ConSplitterTextOutQueryMode
	.dword	ConSplitterTextOutSetMode
	.dword	ConSplitterTextOutSetAttribute
	.dword	ConSplitterTextOutClearScreen
	.dword	ConSplitterTextOutSetCursorPosition
	.dword	ConSplitterTextOutEnableCursor
	.dword	0
	.word	1
	.word	0
	.word	0
	.word	0
	.word	0
	.byte	0
	.zero	3
	.dword	0
	.dword	0
	.dword	0
	.word	0
	.word	0
	.word	0
	.word	0
	.dword	0
	.dword	0
	.dword	0
	.dword	0
	.dword	0
	.dword	0
	.dword	0
	.dword	0
	.dword	0
	.dword	0
	.dword	0
	.dword	0
	.dword	0
	.byte	0
	.zero	7
	.globl	mStdErr
	.section	.data.rel.local.mStdErr,"aw"
	.align	3
	.type	mStdErr, @object
	.size	mStdErr, 272
mStdErr:
	.dword	1884516180
	.dword	0
	.dword	ConSplitterTextOutReset
	.dword	ConSplitterTextOutOutputString
	.dword	ConSplitterTextOutTestString
	.dword	ConSplitterTextOutQueryMode
	.dword	ConSplitterTextOutSetMode
	.dword	ConSplitterTextOutSetAttribute
	.dword	ConSplitterTextOutClearScreen
	.dword	ConSplitterTextOutSetCursorPosition
	.dword	ConSplitterTextOutEnableCursor
	.dword	0
	.word	1
	.word	0
	.word	0
	.word	0
	.word	0
	.byte	0
	.zero	3
	.dword	0
	.dword	0
	.dword	0
	.word	0
	.word	0
	.word	0
	.word	0
	.dword	0
	.dword	0
	.dword	0
	.dword	0
	.dword	0
	.dword	0
	.dword	0
	.dword	0
	.dword	0
	.dword	0
	.dword	0
	.dword	0
	.dword	0
	.byte	0
	.zero	7
	.globl	gConSplitterConInDriverBinding
	.section	.data.rel.local.gConSplitterConInDriverBinding,"aw"
	.align	3
	.type	gConSplitterConInDriverBinding, @object
	.size	gConSplitterConInDriverBinding, 48
gConSplitterConInDriverBinding:
	.dword	ConSplitterConInDriverBindingSupported
	.dword	ConSplitterConInDriverBindingStart
	.dword	ConSplitterConInDriverBindingStop
	.word	10
	.zero	4
	.dword	0
	.dword	0
	.globl	gConSplitterConOutDriverBinding
	.section	.data.rel.local.gConSplitterConOutDriverBinding,"aw"
	.align	3
	.type	gConSplitterConOutDriverBinding, @object
	.size	gConSplitterConOutDriverBinding, 48
gConSplitterConOutDriverBinding:
	.dword	ConSplitterConOutDriverBindingSupported
	.dword	ConSplitterConOutDriverBindingStart
	.dword	ConSplitterConOutDriverBindingStop
	.word	10
	.zero	4
	.dword	0
	.dword	0
	.globl	gConSplitterStdErrDriverBinding
	.section	.data.rel.local.gConSplitterStdErrDriverBinding,"aw"
	.align	3
	.type	gConSplitterStdErrDriverBinding, @object
	.size	gConSplitterStdErrDriverBinding, 48
gConSplitterStdErrDriverBinding:
	.dword	ConSplitterStdErrDriverBindingSupported
	.dword	ConSplitterStdErrDriverBindingStart
	.dword	ConSplitterStdErrDriverBindingStop
	.word	10
	.zero	4
	.dword	0
	.dword	0
	.globl	gConSplitterSimplePointerDriverBinding
	.section	.data.rel.local.gConSplitterSimplePointerDriverBinding,"aw"
	.align	3
	.type	gConSplitterSimplePointerDriverBinding, @object
	.size	gConSplitterSimplePointerDriverBinding, 48
gConSplitterSimplePointerDriverBinding:
	.dword	ConSplitterSimplePointerDriverBindingSupported
	.dword	ConSplitterSimplePointerDriverBindingStart
	.dword	ConSplitterSimplePointerDriverBindingStop
	.word	10
	.zero	4
	.dword	0
	.dword	0
	.globl	gConSplitterAbsolutePointerDriverBinding
	.section	.data.rel.local.gConSplitterAbsolutePointerDriverBinding,"aw"
	.align	3
	.type	gConSplitterAbsolutePointerDriverBinding, @object
	.size	gConSplitterAbsolutePointerDriverBinding, 48
gConSplitterAbsolutePointerDriverBinding:
	.dword	ConSplitterAbsolutePointerDriverBindingSupported
	.dword	ConSplitterAbsolutePointerDriverBindingStart
	.dword	ConSplitterAbsolutePointerDriverBindingStop
	.word	10
	.zero	4
	.dword	0
	.dword	0
	.section	.text.ToggleStateSyncKeyNotify,"ax",@progbits
	.align	1
	.globl	ToggleStateSyncKeyNotify
	.type	ToggleStateSyncKeyNotify, @function
ToggleStateSyncKeyNotify:
.LFB0:
	.file 1 "/home/kapoagaeming/Downloads/spacemit-image-builder/components/edk2/MdeModulePkg/Universal/Console/ConSplitterDxe/ConSplitter.c"
	.loc 1 316 1
	.cfi_startproc
	addi	sp,sp,-48
	.cfi_def_cfa_offset 48
	sd	ra,40(sp)
	sd	s0,32(sp)
	.cfi_offset 1, -8
	.cfi_offset 8, -16
	addi	s0,sp,48
	.cfi_def_cfa 8, 0
	sd	a0,-40(s0)
	.loc 1 319 26
	ld	a5,-40(s0)
	lbu	a5,8(a5)
	.loc 1 319 42
	sext.w	a5,a5
	andi	a5,a5,192
	sext.w	a4,a5
	.loc 1 319 6
	li	a5,192
	bne	a4,a5,.L2
	.loc 1 320 25
	ld	a5,-40(s0)
	lbu	a4,8(a5)
	.loc 1 320 50
	lla	a5,mConIn
	lbu	a5,168(a5)
	.loc 1 319 77 discriminator 1
	beq	a4,a5,.L2
	.loc 1 325 16
	sd	zero,-24(s0)
	.loc 1 325 5
	j	.L3
.L4:
	.loc 1 326 13
	lla	a5,mConIn
	ld	a4,120(a5)
	.loc 1 326 26
	ld	a5,-24(s0)
	slli	a5,a5,3
	add	a5,a4,a5
	ld	a5,0(a5)
	.loc 1 326 33
	ld	a5,24(a5)
	.loc 1 327 43
	lla	a4,mConIn
	ld	a3,120(a4)
	.loc 1 327 56
	ld	a4,-24(s0)
	slli	a4,a4,3
	add	a4,a3,a4
	.loc 1 326 7
	ld	a3,0(a4)
	ld	a4,-40(s0)
	addi	a4,a4,8
	mv	a1,a4
	mv	a0,a3
	jalr	a5
.LVL0:
	.loc 1 325 68 discriminator 3
	ld	a5,-24(s0)
	addi	a5,a5,1
	sd	a5,-24(s0)
.L3:
	.loc 1 325 35 discriminator 1
	lla	a5,mConIn
	ld	a5,112(a5)
	.loc 1 325 27 discriminator 1
	ld	a4,-24(s0)
	bltu	a4,a5,.L4
	.loc 1 332 54
	ld	a5,-40(s0)
	lbu	a4,8(a5)
	.loc 1 332 35
	lla	a5,mConIn
	sb	a4,168(a5)
.L2:
	.loc 1 336 10
	li	a5,0
	.loc 1 337 1
	mv	a0,a5
	ld	ra,40(sp)
	.cfi_restore 1
	ld	s0,32(sp)
	.cfi_restore 8
	.cfi_def_cfa 2, 48
	addi	sp,sp,48
	.cfi_def_cfa_offset 0
	jr	ra
	.cfi_endproc
.LFE0:
	.size	ToggleStateSyncKeyNotify, .-ToggleStateSyncKeyNotify
	.section	.text.ToggleStateSyncInitialization,"ax",@progbits
	.align	1
	.globl	ToggleStateSyncInitialization
	.type	ToggleStateSyncInitialization, @function
ToggleStateSyncInitialization:
.LFB1:
	.loc 1 349 1
	.cfi_startproc
	addi	sp,sp,-64
	.cfi_def_cfa_offset 64
	sd	ra,56(sp)
	sd	s0,48(sp)
	.cfi_offset 1, -8
	.cfi_offset 8, -16
	addi	s0,sp,64
	.cfi_def_cfa 8, 0
	sd	a0,-56(s0)
	.loc 1 358 35
	ld	a5,-56(s0)
	li	a4,-64
	sb	a4,168(a5)
	.loc 1 366 36
	ld	a5,-56(s0)
	sb	zero,169(a5)
	.loc 1 371 24
	sh	zero,-32(s0)
	.loc 1 372 27
	sh	zero,-30(s0)
	.loc 1 373 34
	sw	zero,-28(s0)
	.loc 1 374 35
	sb	zero,-24(s0)
	.loc 1 375 20
	ld	a5,-56(s0)
	ld	a5,96(a5)
	.loc 1 375 3
	ld	a4,-56(s0)
	addi	a4,a4,64
	addi	a3,s0,-40
	addi	a1,s0,-32
	lla	a2,ToggleStateSyncKeyNotify
	mv	a0,a4
	jalr	a5
.LVL1:
	.loc 1 381 1
	nop
	ld	ra,56(sp)
	.cfi_restore 1
	ld	s0,48(sp)
	.cfi_restore 8
	.cfi_def_cfa 2, 64
	addi	sp,sp,64
	.cfi_def_cfa_offset 0
	jr	ra
	.cfi_endproc
.LFE1:
	.size	ToggleStateSyncInitialization, .-ToggleStateSyncInitialization
	.section	.text.ToggleStateSyncReInitialization,"ax",@progbits
	.align	1
	.globl	ToggleStateSyncReInitialization
	.type	ToggleStateSyncReInitialization, @function
ToggleStateSyncReInitialization:
.LFB2:
	.loc 1 393 1
	.cfi_startproc
	addi	sp,sp,-48
	.cfi_def_cfa_offset 48
	sd	ra,40(sp)
	sd	s0,32(sp)
	.cfi_offset 1, -8
	.cfi_offset 8, -16
	addi	s0,sp,48
	.cfi_def_cfa 8, 0
	sd	a0,-40(s0)
	.loc 1 401 35
	ld	a5,-40(s0)
	li	a4,-64
	sb	a4,168(a5)
	.loc 1 409 36
	ld	a5,-40(s0)
	sb	zero,169(a5)
	.loc 1 411 14
	sd	zero,-24(s0)
	.loc 1 411 3
	j	.L8
.L9:
	.loc 1 412 12
	ld	a5,-40(s0)
	ld	a4,120(a5)
	.loc 1 412 26
	ld	a5,-24(s0)
	slli	a5,a5,3
	add	a5,a4,a5
	ld	a5,0(a5)
	.loc 1 412 33
	ld	a5,24(a5)
	.loc 1 413 44
	ld	a4,-40(s0)
	ld	a3,120(a4)
	.loc 1 413 58
	ld	a4,-24(s0)
	slli	a4,a4,3
	add	a4,a3,a4
	.loc 1 412 5
	ld	a3,0(a4)
	ld	a4,-40(s0)
	addi	a4,a4,168
	mv	a1,a4
	mv	a0,a3
	jalr	a5
.LVL2:
	.loc 1 411 68 discriminator 3
	ld	a5,-24(s0)
	addi	a5,a5,1
	sd	a5,-24(s0)
.L8:
	.loc 1 411 34 discriminator 1
	ld	a5,-40(s0)
	ld	a5,112(a5)
	.loc 1 411 25 discriminator 1
	ld	a4,-24(s0)
	bltu	a4,a5,.L9
	.loc 1 417 1
	nop
	nop
	ld	ra,40(sp)
	.cfi_restore 1
	ld	s0,32(sp)
	.cfi_restore 8
	.cfi_def_cfa 2, 48
	addi	sp,sp,48
	.cfi_def_cfa_offset 0
	jr	ra
	.cfi_endproc
.LFE2:
	.size	ToggleStateSyncReInitialization, .-ToggleStateSyncReInitialization
	.section	.text.ConSplitterDriverEntry,"ax",@progbits
	.align	1
	.globl	ConSplitterDriverEntry
	.type	ConSplitterDriverEntry, @function
ConSplitterDriverEntry:
.LFB3:
	.loc 1 440 1
	.cfi_startproc
	addi	sp,sp,-64
	.cfi_def_cfa_offset 64
	sd	ra,56(sp)
	sd	s0,48(sp)
	.cfi_offset 1, -8
	.cfi_offset 8, -16
	addi	s0,sp,64
	.cfi_def_cfa 8, 0
	sd	a0,-40(s0)
	sd	a1,-48(s0)
	.loc 1 446 12
	la	a5,gConSplitterConInComponentName2
	la	a4,gConSplitterConInComponentName
	ld	a3,-40(s0)
	lla	a2,gConSplitterConInDriverBinding
	ld	a1,-48(s0)
	ld	a0,-40(s0)
	call	EfiLibInstallDriverBindingComponentName2@plt
	sd	a0,-24(s0)
	.loc 1 456 12
	la	a5,gConSplitterSimplePointerComponentName2
	la	a4,gConSplitterSimplePointerComponentName
	li	a3,0
	lla	a2,gConSplitterSimplePointerDriverBinding
	ld	a1,-48(s0)
	ld	a0,-40(s0)
	call	EfiLibInstallDriverBindingComponentName2@plt
	sd	a0,-24(s0)
	.loc 1 466 12
	la	a5,gConSplitterAbsolutePointerComponentName2
	la	a4,gConSplitterAbsolutePointerComponentName
	li	a3,0
	lla	a2,gConSplitterAbsolutePointerDriverBinding
	ld	a1,-48(s0)
	ld	a0,-40(s0)
	call	EfiLibInstallDriverBindingComponentName2@plt
	sd	a0,-24(s0)
	.loc 1 476 12
	la	a5,gConSplitterConOutComponentName2
	la	a4,gConSplitterConOutComponentName
	li	a3,0
	lla	a2,gConSplitterConOutDriverBinding
	ld	a1,-48(s0)
	ld	a0,-40(s0)
	call	EfiLibInstallDriverBindingComponentName2@plt
	sd	a0,-24(s0)
	.loc 1 486 12
	la	a5,gConSplitterStdErrComponentName2
	la	a4,gConSplitterStdErrComponentName
	li	a3,0
	lla	a2,gConSplitterStdErrDriverBinding
	ld	a1,-48(s0)
	ld	a0,-40(s0)
	call	EfiLibInstallDriverBindingComponentName2@plt
	sd	a0,-24(s0)
	.loc 1 512 12
	lla	a0,mConIn
	call	ConSplitterTextInConstructor
	sd	a0,-24(s0)
	.loc 1 513 7
	ld	a5,-24(s0)
	.loc 1 513 6
	blt	a5,zero,.L11
	.loc 1 514 17
	la	a5,gBS
	ld	a5,0(a5)
	ld	t1,328(a5)
	.loc 1 514 14
	sd	zero,8(sp)
	lla	a5,mConIn+264
	sd	a5,0(sp)
	la	a7,gEfiAbsolutePointerProtocolGuid
	lla	a6,mConIn+176
	la	a5,gEfiSimplePointerProtocolGuid
	lla	a4,mConIn+64
	la	a3,gEfiSimpleTextInputExProtocolGuid
	lla	a2,mConIn+16
	la	a1,gEfiSimpleTextInProtocolGuid
	lla	a0,mConIn+8
	jalr	t1
.LVL3:
	sd	a0,-24(s0)
	.loc 1 526 9
	ld	a5,-24(s0)
	.loc 1 526 8
	blt	a5,zero,.L11
	.loc 1 531 10
	la	a5,gST
	ld	a5,0(a5)
	.loc 1 531 36
	lla	a4,mConIn
	ld	a4,8(a4)
	.loc 1 531 28
	sd	a4,40(a5)
	.loc 1 532 10
	la	a5,gST
	ld	a5,0(a5)
	.loc 1 532 18
	lla	a4,mConIn+16
	sd	a4,48(a5)
.L11:
	.loc 1 539 12
	lla	a0,mConOut
	call	ConSplitterTextOutConstructor
	sd	a0,-24(s0)
	.loc 1 540 7
	ld	a5,-24(s0)
	.loc 1 540 6
	blt	a5,zero,.L12
	.loc 1 541 17
	la	a5,gBS
	ld	a5,0(a5)
	ld	a5,328(a5)
	.loc 1 541 14
	li	a3,0
	lla	a2,mConOut+16
	la	a1,gEfiSimpleTextOutProtocolGuid
	lla	a0,mConOut+8
	jalr	a5
.LVL4:
	sd	a0,-24(s0)
	.loc 1 547 9
	ld	a5,-24(s0)
	.loc 1 547 8
	blt	a5,zero,.L12
	.loc 1 552 10
	la	a5,gST
	ld	a5,0(a5)
	.loc 1 552 38
	lla	a4,mConOut
	ld	a4,8(a4)
	.loc 1 552 29
	sd	a4,56(a5)
	.loc 1 553 10
	la	a5,gST
	ld	a5,0(a5)
	.loc 1 553 19
	lla	a4,mConOut+16
	sd	a4,64(a5)
.L12:
	.loc 1 560 12
	lla	a0,mStdErr
	call	ConSplitterTextOutConstructor
	sd	a0,-24(s0)
	.loc 1 561 7
	ld	a5,-24(s0)
	.loc 1 561 6
	blt	a5,zero,.L13
	.loc 1 562 17
	la	a5,gBS
	ld	a5,0(a5)
	ld	a5,328(a5)
	.loc 1 562 14
	li	a3,0
	lla	a2,mStdErr+16
	la	a1,gEfiSimpleTextOutProtocolGuid
	lla	a0,mStdErr+8
	jalr	a5
.LVL5:
	sd	a0,-24(s0)
	.loc 1 568 9
	ld	a5,-24(s0)
	.loc 1 568 8
	blt	a5,zero,.L13
	.loc 1 573 10
	la	a5,gST
	ld	a5,0(a5)
	.loc 1 573 41
	lla	a4,mStdErr
	ld	a4,8(a4)
	.loc 1 573 32
	sd	a4,72(a5)
	.loc 1 574 10
	la	a5,gST
	ld	a5,0(a5)
	.loc 1 574 19
	lla	a4,mStdErr+16
	sd	a4,80(a5)
.L13:
	.loc 1 581 6
	la	a5,gST
	ld	a5,0(a5)
	.loc 1 581 18
	sw	zero,16(a5)
	.loc 1 582 6
	la	a5,gBS
	ld	a5,0(a5)
	ld	a5,344(a5)
	.loc 1 583 23
	la	a4,gST
	ld	a4,0(a4)
	.loc 1 583 19
	mv	a0,a4
	.loc 1 584 13
	la	a4,gST
	ld	a4,0(a4)
	.loc 1 584 18
	lw	a4,12(a4)
	.loc 1 582 3
	slli	a3,a4,32
	srli	a3,a3,32
	.loc 1 585 14
	la	a4,gST
	ld	a4,0(a4)
	.loc 1 582 3
	addi	a4,a4,16
	mv	a2,a4
	mv	a1,a3
	jalr	a5
.LVL6:
	.loc 1 588 10
	li	a5,0
	.loc 1 589 1
	mv	a0,a5
	ld	ra,56(sp)
	.cfi_restore 1
	ld	s0,48(sp)
	.cfi_restore 8
	.cfi_def_cfa 2, 64
	addi	sp,sp,64
	.cfi_def_cfa_offset 0
	jr	ra
	.cfi_endproc
.LFE3:
	.size	ConSplitterDriverEntry, .-ConSplitterDriverEntry
	.section	.text.ConSplitterTextInConstructor,"ax",@progbits
	.align	1
	.globl	ConSplitterTextInConstructor
	.type	ConSplitterTextInConstructor, @function
ConSplitterTextInConstructor:
.LFB4:
	.loc 1 606 1
	.cfi_startproc
	addi	sp,sp,-48
	.cfi_def_cfa_offset 48
	sd	ra,40(sp)
	sd	s0,32(sp)
	.cfi_offset 1, -8
	.cfi_offset 8, -16
	addi	s0,sp,48
	.cfi_def_cfa 8, 0
	sd	a0,-40(s0)
	.loc 1 613 12
	ld	a5,-40(s0)
	addi	a4,a5,56
	.loc 1 616 23
	ld	a5,-40(s0)
	addi	a5,a5,48
	.loc 1 613 12
	mv	a2,a5
	mv	a1,a4
	li	a0,8
	call	ConSplitterGrowBuffer
	sd	a0,-24(s0)
	.loc 1 618 34
	ld	a5,-24(s0)
	.loc 1 618 6
	bge	a5,zero,.L16
	.loc 1 619 12
	li	a5,-1
	slli	a5,a5,63
	addi	a5,a5,9
	j	.L22
.L16:
	.loc 1 625 15
	la	a5,gBS
	ld	a5,0(a5)
	ld	a5,80(a5)
	.loc 1 625 12
	ld	a4,-40(s0)
	addi	a4,a4,32
	ld	a3,-40(s0)
	lla	a2,ConSplitterTextInWaitForKey
	li	a1,16
	li	a0,256
	jalr	a5
.LVL7:
	sd	a0,-24(s0)
	.loc 1 637 35
	ld	a5,-40(s0)
	ld	a5,128(a5)
	.loc 1 637 21
	sd	a5,-32(s0)
	.loc 1 641 34
	ld	a5,-40(s0)
	addi	a4,a5,152
	.loc 1 638 12
	addi	a5,s0,-32
	mv	a2,a4
	mv	a1,a5
	li	a0,12
	call	ConSplitterGrowBuffer
	sd	a0,-24(s0)
	.loc 1 643 34
	ld	a5,-24(s0)
	.loc 1 643 6
	bge	a5,zero,.L18
	.loc 1 644 12
	li	a5,-1
	slli	a5,a5,63
	addi	a5,a5,9
	j	.L22
.L18:
	.loc 1 650 12
	ld	a5,-40(s0)
	addi	a4,a5,128
	.loc 1 653 23
	ld	a5,-40(s0)
	addi	a5,a5,120
	.loc 1 650 12
	mv	a2,a5
	mv	a1,a4
	li	a0,8
	call	ConSplitterGrowBuffer
	sd	a0,-24(s0)
	.loc 1 655 34
	ld	a5,-24(s0)
	.loc 1 655 6
	bge	a5,zero,.L19
	.loc 1 656 12
	li	a5,-1
	slli	a5,a5,63
	addi	a5,a5,9
	j	.L22
.L19:
	.loc 1 662 15
	la	a5,gBS
	ld	a5,0(a5)
	ld	a5,80(a5)
	.loc 1 662 12
	ld	a4,-40(s0)
	addi	a4,a4,80
	ld	a3,-40(s0)
	lla	a2,ConSplitterTextInWaitForKey
	li	a1,16
	li	a0,256
	jalr	a5
.LVL8:
	sd	a0,-24(s0)
	.loc 1 671 3
	ld	a5,-40(s0)
	addi	a5,a5,136
	mv	a0,a5
	call	InitializeListHead@plt
	.loc 1 673 3
	ld	a0,-40(s0)
	call	ToggleStateSyncInitialization
	.loc 1 675 40
	ld	a5,-40(s0)
	addi	a4,a5,296
	.loc 1 675 38
	ld	a5,-40(s0)
	sd	a4,288(a5)
	.loc 1 679 12
	ld	a5,-40(s0)
	addi	a4,a5,368
	.loc 1 682 23
	ld	a5,-40(s0)
	addi	a5,a5,360
	.loc 1 679 12
	mv	a2,a5
	mv	a1,a4
	li	a0,8
	call	ConSplitterGrowBuffer
	sd	a0,-24(s0)
	.loc 1 684 34
	ld	a5,-24(s0)
	.loc 1 684 6
	bge	a5,zero,.L20
	.loc 1 685 12
	li	a5,-1
	slli	a5,a5,63
	addi	a5,a5,9
	j	.L22
.L20:
	.loc 1 691 15
	la	a5,gBS
	ld	a5,0(a5)
	ld	a5,80(a5)
	.loc 1 691 12
	ld	a4,-40(s0)
	addi	a4,a4,280
	ld	a3,-40(s0)
	lla	a2,ConSplitterAbsolutePointerWaitForInput
	li	a1,16
	li	a0,256
	jalr	a5
.LVL9:
	sd	a0,-24(s0)
	.loc 1 700 38
	ld	a5,-40(s0)
	addi	a4,a5,208
	.loc 1 700 36
	ld	a5,-40(s0)
	sd	a4,200(a5)
	.loc 1 704 12
	ld	a5,-40(s0)
	addi	a4,a5,256
	.loc 1 707 23
	ld	a5,-40(s0)
	addi	a5,a5,248
	.loc 1 704 12
	mv	a2,a5
	mv	a1,a4
	li	a0,8
	call	ConSplitterGrowBuffer
	sd	a0,-24(s0)
	.loc 1 709 34
	ld	a5,-24(s0)
	.loc 1 709 6
	bge	a5,zero,.L21
	.loc 1 710 12
	li	a5,-1
	slli	a5,a5,63
	addi	a5,a5,9
	j	.L22
.L21:
	.loc 1 716 15
	la	a5,gBS
	ld	a5,0(a5)
	ld	a5,80(a5)
	.loc 1 716 12
	ld	a4,-40(s0)
	addi	a4,a4,192
	ld	a3,-40(s0)
	lla	a2,ConSplitterSimplePointerWaitForInput
	li	a1,16
	li	a0,256
	jalr	a5
.LVL10:
	sd	a0,-24(s0)
	.loc 1 727 15
	la	a5,gBS
	ld	a5,0(a5)
	ld	a6,368(a5)
	.loc 1 727 12
	ld	a5,-40(s0)
	addi	a5,a5,384
	la	a4,gConnectConInEventGuid
	li	a3,0
	la	a2,EfiEventEmptyFunction
	li	a1,8
	li	a0,512
	jalr	a6
.LVL11:
	sd	a0,-24(s0)
	.loc 1 736 10
	ld	a5,-24(s0)
.L22:
	.loc 1 737 1
	mv	a0,a5
	ld	ra,40(sp)
	.cfi_restore 1
	ld	s0,32(sp)
	.cfi_restore 8
	.cfi_def_cfa 2, 48
	addi	sp,sp,48
	.cfi_def_cfa_offset 0
	jr	ra
	.cfi_endproc
.LFE4:
	.size	ConSplitterTextInConstructor, .-ConSplitterTextInConstructor
	.section	.text.ConSplitterTextOutConstructor,"ax",@progbits
	.align	1
	.globl	ConSplitterTextOutConstructor
	.type	ConSplitterTextOutConstructor, @function
ConSplitterTextOutConstructor:
.LFB5:
	.loc 1 753 1
	.cfi_startproc
	addi	sp,sp,-64
	.cfi_def_cfa_offset 64
	sd	ra,56(sp)
	sd	s0,48(sp)
	sd	s1,40(sp)
	.cfi_offset 1, -8
	.cfi_offset 8, -16
	.cfi_offset 9, -24
	addi	s0,sp,64
	.cfi_def_cfa 8, 0
	sd	a0,-56(s0)
	.loc 1 760 7
	la	a5,_gPcd_FixedAtBuild_PcdConOutUgaSupport
	lbu	a5,0(a5)
	.loc 1 760 6
	beq	a5,zero,.L24
	.loc 1 761 14
	ld	a5,-56(s0)
	addi	a5,a5,120
	.loc 1 761 5
	li	a2,24
	lla	a1,mUgaDrawProtocolTemplate
	mv	a0,a5
	call	CopyMem@plt
.L24:
	.loc 1 764 7
	la	a5,_gPcd_FixedAtBuild_PcdConOutGopSupport
	lbu	a5,0(a5)
	.loc 1 764 6
	beq	a5,zero,.L25
	.loc 1 765 14
	ld	a5,-56(s0)
	addi	a5,a5,160
	.loc 1 765 5
	li	a2,32
	lla	a1,mGraphicsOutputProtocolTemplate
	mv	a0,a5
	call	CopyMem@plt
.L25:
	.loc 1 771 33
	ld	a5,-56(s0)
	addi	a4,a5,96
	.loc 1 771 31
	ld	a5,-56(s0)
	sd	a4,88(a5)
	.loc 1 777 35
	ld	a5,-56(s0)
	li	a4,255
	sw	a4,100(a5)
	.loc 1 781 12
	ld	a5,-56(s0)
	addi	a4,a5,232
	.loc 1 784 23
	ld	a5,-56(s0)
	addi	a5,a5,224
	.loc 1 781 12
	mv	a2,a5
	mv	a1,a4
	li	a0,24
	call	ConSplitterGrowBuffer
	sd	a0,-40(s0)
	.loc 1 786 34
	ld	a5,-40(s0)
	.loc 1 786 6
	bge	a5,zero,.L26
	.loc 1 787 12
	li	a5,-1
	slli	a5,a5,63
	addi	a5,a5,9
	j	.L27
.L26:
	.loc 1 793 12
	ld	a5,-56(s0)
	addi	a4,a5,248
	.loc 1 796 23
	ld	a5,-56(s0)
	addi	a5,a5,240
	.loc 1 793 12
	mv	a2,a5
	mv	a1,a4
	li	a0,16
	call	ConSplitterGrowBuffer
	sd	a0,-40(s0)
	.loc 1 798 34
	ld	a5,-40(s0)
	.loc 1 798 6
	bge	a5,zero,.L28
	.loc 1 799 12
	li	a5,-1
	slli	a5,a5,63
	addi	a5,a5,9
	j	.L27
.L28:
	.loc 1 805 16
	ld	a5,-56(s0)
	ld	a5,240(a5)
	.loc 1 805 46
	li	a4,80
	sd	a4,0(a5)
	.loc 1 806 16
	ld	a5,-56(s0)
	ld	a5,240(a5)
	.loc 1 806 43
	li	a4,25
	sd	a4,8(a5)
	.loc 1 807 3
	li	a1,0
	ld	a0,-56(s0)
	call	TextOutSetMode@plt
	.loc 1 809 7
	la	a5,_gPcd_FixedAtBuild_PcdConOutUgaSupport
	lbu	a5,0(a5)
	.loc 1 809 6
	beq	a5,zero,.L29
	.loc 1 813 5
	ld	a5,-56(s0)
	addi	a5,a5,120
	li	a4,60
	li	a3,32
	li	a2,600
	li	a1,800
	mv	a0,a5
	call	ConSplitterUgaDrawSetMode@plt
.L29:
	.loc 1 816 7
	la	a5,_gPcd_FixedAtBuild_PcdConOutGopSupport
	lbu	a5,0(a5)
	.loc 1 816 6
	beq	a5,zero,.L30
	.loc 1 820 47
	li	a0,40
	call	AllocateZeroPool@plt
	mv	a4,a0
	.loc 1 820 45 discriminator 1
	ld	a5,-56(s0)
	sd	a4,184(a5)
	.loc 1 820 39 discriminator 1
	ld	a5,-56(s0)
	ld	a5,184(a5)
	.loc 1 820 8 discriminator 1
	bne	a5,zero,.L31
	.loc 1 821 14
	li	a5,-1
	slli	a5,a5,63
	addi	a5,a5,9
	j	.L27
.L31:
	.loc 1 824 39
	ld	a5,-56(s0)
	ld	s1,184(a5)
	.loc 1 824 53
	li	a0,36
	call	AllocateZeroPool@plt
	mv	a5,a0
	.loc 1 824 51 discriminator 1
	sd	a5,8(s1)
	.loc 1 824 44 discriminator 1
	ld	a5,8(s1)
	.loc 1 824 8 discriminator 1
	bne	a5,zero,.L32
	.loc 1 825 14
	li	a5,-1
	slli	a5,a5,63
	addi	a5,a5,9
	j	.L27
.L32:
	.loc 1 832 52
	li	a0,36
	call	AllocateZeroPool@plt
	mv	a4,a0
	.loc 1 832 50 discriminator 1
	ld	a5,-56(s0)
	sd	a4,192(a5)
	.loc 1 832 23 discriminator 1
	ld	a5,-56(s0)
	ld	a5,192(a5)
	.loc 1 832 8 discriminator 1
	bne	a5,zero,.L33
	.loc 1 833 14
	li	a5,-1
	slli	a5,a5,63
	addi	a5,a5,9
	j	.L27
.L33:
	.loc 1 836 10
	ld	a5,-56(s0)
	ld	a5,192(a5)
	sd	a5,-48(s0)
	.loc 1 837 19
	ld	a5,-48(s0)
	sw	zero,0(a5)
	.loc 1 838 32
	ld	a5,-48(s0)
	li	a4,800
	sw	a4,4(a5)
	.loc 1 839 30
	ld	a5,-48(s0)
	li	a4,600
	sw	a4,8(a5)
	.loc 1 840 23
	ld	a5,-48(s0)
	li	a4,3
	sw	a4,12(a5)
	.loc 1 841 29
	ld	a5,-48(s0)
	li	a4,800
	sw	a4,32(a5)
	.loc 1 842 43
	ld	a5,-56(s0)
	ld	a5,184(a5)
	.loc 1 842 48
	ld	a5,8(a5)
	.loc 1 842 5
	li	a2,36
	ld	a1,-48(s0)
	mv	a0,a5
	call	CopyMem@plt
	.loc 1 843 34
	ld	a5,-56(s0)
	ld	a5,184(a5)
	.loc 1 843 52
	li	a4,36
	sd	a4,16(a5)
	.loc 1 849 34
	ld	a5,-56(s0)
	ld	a5,184(a5)
	.loc 1 849 57
	sd	zero,24(a5)
	.loc 1 850 34
	ld	a5,-56(s0)
	ld	a5,184(a5)
	.loc 1 850 57
	sd	zero,32(a5)
	.loc 1 852 34
	ld	a5,-56(s0)
	ld	a5,184(a5)
	.loc 1 852 49
	li	a4,1
	sw	a4,0(a5)
	.loc 1 856 34
	ld	a5,-56(s0)
	ld	a5,184(a5)
	.loc 1 856 46
	li	a4,65536
	addi	a4,a4,-1
	sw	a4,4(a5)
	.loc 1 857 34
	ld	a5,-56(s0)
	ld	a5,168(a5)
	.loc 1 857 5
	ld	a4,-56(s0)
	addi	a4,a4,160
	li	a1,0
	mv	a0,a4
	jalr	a5
.LVL12:
.L30:
	.loc 1 860 10
	li	a5,0
.L27:
	.loc 1 861 1
	mv	a0,a5
	ld	ra,56(sp)
	.cfi_restore 1
	ld	s0,48(sp)
	.cfi_restore 8
	.cfi_def_cfa 2, 64
	ld	s1,40(sp)
	.cfi_restore 9
	addi	sp,sp,64
	.cfi_def_cfa_offset 0
	jr	ra
	.cfi_endproc
.LFE5:
	.size	ConSplitterTextOutConstructor, .-ConSplitterTextOutConstructor
	.section	.text.ConSplitterSupported,"ax",@progbits
	.align	1
	.globl	ConSplitterSupported
	.type	ConSplitterSupported, @function
ConSplitterSupported:
.LFB6:
	.loc 1 881 1
	.cfi_startproc
	addi	sp,sp,-64
	.cfi_def_cfa_offset 64
	sd	ra,56(sp)
	sd	s0,48(sp)
	.cfi_offset 1, -8
	.cfi_offset 8, -16
	addi	s0,sp,64
	.cfi_def_cfa 8, 0
	sd	a0,-40(s0)
	sd	a1,-48(s0)
	sd	a2,-56(s0)
	.loc 1 888 34
	lla	a5,mConIn
	ld	a5,8(a5)
	.loc 1 888 6
	ld	a4,-48(s0)
	beq	a4,a5,.L35
	.loc 1 889 35
	lla	a5,mConOut
	ld	a5,8(a5)
	.loc 1 888 50 discriminator 1
	ld	a4,-48(s0)
	beq	a4,a5,.L35
	.loc 1 890 35
	lla	a5,mStdErr
	ld	a5,8(a5)
	.loc 1 889 51
	ld	a4,-48(s0)
	bne	a4,a5,.L36
.L35:
	.loc 1 893 12
	li	a5,-1
	slli	a5,a5,63
	addi	a5,a5,3
	j	.L39
.L36:
	.loc 1 899 15
	la	a5,gBS
	ld	a5,0(a5)
	ld	a6,280(a5)
	.loc 1 899 12
	ld	a5,-40(s0)
	ld	a3,40(a5)
	addi	a2,s0,-32
	li	a5,16
	ld	a4,-48(s0)
	ld	a1,-56(s0)
	ld	a0,-48(s0)
	jalr	a6
.LVL13:
	sd	a0,-24(s0)
	.loc 1 908 34
	ld	a5,-24(s0)
	.loc 1 908 6
	bge	a5,zero,.L38
	.loc 1 909 12
	ld	a5,-24(s0)
	j	.L39
.L38:
	.loc 1 912 6
	la	a5,gBS
	ld	a5,0(a5)
	ld	a5,288(a5)
	.loc 1 912 3
	ld	a4,-40(s0)
	ld	a4,40(a4)
	ld	a3,-48(s0)
	mv	a2,a4
	ld	a1,-56(s0)
	ld	a0,-48(s0)
	jalr	a5
.LVL14:
	.loc 1 919 10
	li	a5,0
.L39:
	.loc 1 920 1
	mv	a0,a5
	ld	ra,56(sp)
	.cfi_restore 1
	ld	s0,48(sp)
	.cfi_restore 8
	.cfi_def_cfa 2, 64
	addi	sp,sp,64
	.cfi_def_cfa_offset 0
	jr	ra
	.cfi_endproc
.LFE6:
	.size	ConSplitterSupported, .-ConSplitterSupported
	.section	.text.ConSplitterConInDriverBindingSupported,"ax",@progbits
	.align	1
	.globl	ConSplitterConInDriverBindingSupported
	.type	ConSplitterConInDriverBindingSupported, @function
ConSplitterConInDriverBindingSupported:
.LFB7:
	.loc 1 941 1
	.cfi_startproc
	addi	sp,sp,-48
	.cfi_def_cfa_offset 48
	sd	ra,40(sp)
	sd	s0,32(sp)
	.cfi_offset 1, -8
	.cfi_offset 8, -16
	addi	s0,sp,48
	.cfi_def_cfa 8, 0
	sd	a0,-24(s0)
	sd	a1,-32(s0)
	sd	a2,-40(s0)
	.loc 1 942 10
	la	a2,gEfiConsoleInDeviceGuid
	ld	a1,-32(s0)
	ld	a0,-24(s0)
	call	ConSplitterSupported
	mv	a5,a0
	.loc 1 947 1
	mv	a0,a5
	ld	ra,40(sp)
	.cfi_restore 1
	ld	s0,32(sp)
	.cfi_restore 8
	.cfi_def_cfa 2, 48
	addi	sp,sp,48
	.cfi_def_cfa_offset 0
	jr	ra
	.cfi_endproc
.LFE7:
	.size	ConSplitterConInDriverBindingSupported, .-ConSplitterConInDriverBindingSupported
	.section	.text.ConSplitterSimplePointerDriverBindingSupported,"ax",@progbits
	.align	1
	.globl	ConSplitterSimplePointerDriverBindingSupported
	.type	ConSplitterSimplePointerDriverBindingSupported, @function
ConSplitterSimplePointerDriverBindingSupported:
.LFB8:
	.loc 1 968 1
	.cfi_startproc
	addi	sp,sp,-48
	.cfi_def_cfa_offset 48
	sd	ra,40(sp)
	sd	s0,32(sp)
	.cfi_offset 1, -8
	.cfi_offset 8, -16
	addi	s0,sp,48
	.cfi_def_cfa 8, 0
	sd	a0,-24(s0)
	sd	a1,-32(s0)
	sd	a2,-40(s0)
	.loc 1 969 10
	la	a2,gEfiSimplePointerProtocolGuid
	ld	a1,-32(s0)
	ld	a0,-24(s0)
	call	ConSplitterSupported
	mv	a5,a0
	.loc 1 974 1
	mv	a0,a5
	ld	ra,40(sp)
	.cfi_restore 1
	ld	s0,32(sp)
	.cfi_restore 8
	.cfi_def_cfa 2, 48
	addi	sp,sp,48
	.cfi_def_cfa_offset 0
	jr	ra
	.cfi_endproc
.LFE8:
	.size	ConSplitterSimplePointerDriverBindingSupported, .-ConSplitterSimplePointerDriverBindingSupported
	.section	.text.ConSplitterAbsolutePointerDriverBindingSupported,"ax",@progbits
	.align	1
	.globl	ConSplitterAbsolutePointerDriverBindingSupported
	.type	ConSplitterAbsolutePointerDriverBindingSupported, @function
ConSplitterAbsolutePointerDriverBindingSupported:
.LFB9:
	.loc 1 995 1
	.cfi_startproc
	addi	sp,sp,-48
	.cfi_def_cfa_offset 48
	sd	ra,40(sp)
	sd	s0,32(sp)
	.cfi_offset 1, -8
	.cfi_offset 8, -16
	addi	s0,sp,48
	.cfi_def_cfa 8, 0
	sd	a0,-24(s0)
	sd	a1,-32(s0)
	sd	a2,-40(s0)
	.loc 1 996 10
	la	a2,gEfiAbsolutePointerProtocolGuid
	ld	a1,-32(s0)
	ld	a0,-24(s0)
	call	ConSplitterSupported
	mv	a5,a0
	.loc 1 1001 1
	mv	a0,a5
	ld	ra,40(sp)
	.cfi_restore 1
	ld	s0,32(sp)
	.cfi_restore 8
	.cfi_def_cfa 2, 48
	addi	sp,sp,48
	.cfi_def_cfa_offset 0
	jr	ra
	.cfi_endproc
.LFE9:
	.size	ConSplitterAbsolutePointerDriverBindingSupported, .-ConSplitterAbsolutePointerDriverBindingSupported
	.section	.text.ConSplitterConOutDriverBindingSupported,"ax",@progbits
	.align	1
	.globl	ConSplitterConOutDriverBindingSupported
	.type	ConSplitterConOutDriverBindingSupported, @function
ConSplitterConOutDriverBindingSupported:
.LFB10:
	.loc 1 1022 1
	.cfi_startproc
	addi	sp,sp,-48
	.cfi_def_cfa_offset 48
	sd	ra,40(sp)
	sd	s0,32(sp)
	.cfi_offset 1, -8
	.cfi_offset 8, -16
	addi	s0,sp,48
	.cfi_def_cfa 8, 0
	sd	a0,-24(s0)
	sd	a1,-32(s0)
	sd	a2,-40(s0)
	.loc 1 1023 10
	la	a2,gEfiConsoleOutDeviceGuid
	ld	a1,-32(s0)
	ld	a0,-24(s0)
	call	ConSplitterSupported
	mv	a5,a0
	.loc 1 1028 1
	mv	a0,a5
	ld	ra,40(sp)
	.cfi_restore 1
	ld	s0,32(sp)
	.cfi_restore 8
	.cfi_def_cfa 2, 48
	addi	sp,sp,48
	.cfi_def_cfa_offset 0
	jr	ra
	.cfi_endproc
.LFE10:
	.size	ConSplitterConOutDriverBindingSupported, .-ConSplitterConOutDriverBindingSupported
	.section	.text.ConSplitterStdErrDriverBindingSupported,"ax",@progbits
	.align	1
	.globl	ConSplitterStdErrDriverBindingSupported
	.type	ConSplitterStdErrDriverBindingSupported, @function
ConSplitterStdErrDriverBindingSupported:
.LFB11:
	.loc 1 1049 1
	.cfi_startproc
	addi	sp,sp,-48
	.cfi_def_cfa_offset 48
	sd	ra,40(sp)
	sd	s0,32(sp)
	.cfi_offset 1, -8
	.cfi_offset 8, -16
	addi	s0,sp,48
	.cfi_def_cfa 8, 0
	sd	a0,-24(s0)
	sd	a1,-32(s0)
	sd	a2,-40(s0)
	.loc 1 1050 10
	la	a2,gEfiStandardErrorDeviceGuid
	ld	a1,-32(s0)
	ld	a0,-24(s0)
	call	ConSplitterSupported
	mv	a5,a0
	.loc 1 1055 1
	mv	a0,a5
	ld	ra,40(sp)
	.cfi_restore 1
	ld	s0,32(sp)
	.cfi_restore 8
	.cfi_def_cfa 2, 48
	addi	sp,sp,48
	.cfi_def_cfa_offset 0
	jr	ra
	.cfi_endproc
.LFE11:
	.size	ConSplitterStdErrDriverBindingSupported, .-ConSplitterStdErrDriverBindingSupported
	.section	.text.ConSplitterStart,"ax",@progbits
	.align	1
	.globl	ConSplitterStart
	.type	ConSplitterStart, @function
ConSplitterStart:
.LFB12:
	.loc 1 1083 1
	.cfi_startproc
	addi	sp,sp,-80
	.cfi_def_cfa_offset 80
	sd	ra,72(sp)
	sd	s0,64(sp)
	.cfi_offset 1, -8
	.cfi_offset 8, -16
	addi	s0,sp,80
	.cfi_def_cfa 8, 0
	sd	a0,-40(s0)
	sd	a1,-48(s0)
	sd	a2,-56(s0)
	sd	a3,-64(s0)
	sd	a4,-72(s0)
	sd	a5,-80(s0)
	.loc 1 1090 15
	la	a5,gBS
	ld	a5,0(a5)
	ld	a6,280(a5)
	.loc 1 1090 12
	ld	a5,-40(s0)
	ld	a3,40(a5)
	addi	a2,s0,-32
	li	a5,16
	ld	a4,-48(s0)
	ld	a1,-64(s0)
	ld	a0,-48(s0)
	jalr	a6
.LVL15:
	sd	a0,-24(s0)
	.loc 1 1098 34
	ld	a5,-24(s0)
	.loc 1 1098 6
	bge	a5,zero,.L51
	.loc 1 1099 12
	ld	a5,-24(s0)
	j	.L56
.L51:
	.loc 1 1105 15
	la	a5,gBS
	ld	a5,0(a5)
	ld	a6,280(a5)
	.loc 1 1105 12
	ld	a5,-40(s0)
	ld	a3,40(a5)
	addi	a2,s0,-32
	li	a5,8
	ld	a4,-56(s0)
	ld	a1,-64(s0)
	ld	a0,-48(s0)
	jalr	a6
.LVL16:
	sd	a0,-24(s0)
	.loc 1 1113 34
	ld	a5,-24(s0)
	.loc 1 1113 6
	blt	a5,zero,.L57
	.loc 1 1120 15
	la	a5,gBS
	ld	a5,0(a5)
	ld	a6,280(a5)
	.loc 1 1120 12
	ld	a5,-40(s0)
	ld	a3,40(a5)
	li	a5,2
	ld	a4,-56(s0)
	ld	a2,-80(s0)
	ld	a1,-72(s0)
	ld	a0,-48(s0)
	jalr	a6
.LVL17:
	sd	a0,-24(s0)
	.loc 1 1129 7
	ld	a5,-24(s0)
	.loc 1 1129 6
	blt	a5,zero,.L55
	.loc 1 1130 12
	li	a5,0
	j	.L56
.L55:
	.loc 1 1136 6
	la	a5,gBS
	ld	a5,0(a5)
	ld	a5,288(a5)
	.loc 1 1136 3
	ld	a4,-40(s0)
	ld	a4,40(a4)
	ld	a3,-56(s0)
	mv	a2,a4
	ld	a1,-64(s0)
	ld	a0,-48(s0)
	jalr	a5
.LVL18:
	j	.L54
.L57:
	.loc 1 1114 5
	nop
.L54:
	.loc 1 1147 6
	la	a5,gBS
	ld	a5,0(a5)
	ld	a5,288(a5)
	.loc 1 1147 3
	ld	a4,-40(s0)
	ld	a4,40(a4)
	ld	a3,-48(s0)
	mv	a2,a4
	ld	a1,-64(s0)
	ld	a0,-48(s0)
	jalr	a5
.LVL19:
	.loc 1 1154 10
	ld	a5,-24(s0)
.L56:
	.loc 1 1155 1
	mv	a0,a5
	ld	ra,72(sp)
	.cfi_restore 1
	ld	s0,64(sp)
	.cfi_restore 8
	.cfi_def_cfa 2, 80
	addi	sp,sp,80
	.cfi_def_cfa_offset 0
	jr	ra
	.cfi_endproc
.LFE12:
	.size	ConSplitterStart, .-ConSplitterStart
	.section	.text.ConSplitterConInDriverBindingStart,"ax",@progbits
	.align	1
	.globl	ConSplitterConInDriverBindingStart
	.type	ConSplitterConInDriverBindingStart, @function
ConSplitterConInDriverBindingStart:
.LFB13:
	.loc 1 1176 1
	.cfi_startproc
	addi	sp,sp,-80
	.cfi_def_cfa_offset 80
	sd	ra,72(sp)
	sd	s0,64(sp)
	.cfi_offset 1, -8
	.cfi_offset 8, -16
	addi	s0,sp,80
	.cfi_def_cfa 8, 0
	sd	a0,-56(s0)
	sd	a1,-64(s0)
	sd	a2,-72(s0)
	.loc 1 1185 12
	lla	a5,mConIn
	ld	a2,8(a5)
	addi	a5,s0,-32
	la	a4,gEfiSimpleTextInProtocolGuid
	la	a3,gEfiConsoleInDeviceGuid
	ld	a1,-64(s0)
	ld	a0,-56(s0)
	call	ConSplitterStart
	sd	a0,-24(s0)
	.loc 1 1193 34
	ld	a5,-24(s0)
	.loc 1 1193 6
	bge	a5,zero,.L59
	.loc 1 1194 12
	ld	a5,-24(s0)
	j	.L63
.L59:
	.loc 1 1200 12
	ld	a5,-32(s0)
	mv	a1,a5
	lla	a0,mConIn
	call	ConSplitterTextInAddDevice
	sd	a0,-24(s0)
	.loc 1 1201 34
	ld	a5,-24(s0)
	.loc 1 1201 6
	bge	a5,zero,.L61
	.loc 1 1202 12
	ld	a5,-24(s0)
	j	.L63
.L61:
	.loc 1 1205 15
	la	a5,gBS
	ld	a5,0(a5)
	ld	a6,280(a5)
	.loc 1 1205 12
	ld	a5,-56(s0)
	ld	a3,40(a5)
	lla	a5,mConIn
	ld	a4,8(a5)
	addi	a2,s0,-40
	li	a5,2
	la	a1,gEfiSimpleTextInputExProtocolGuid
	ld	a0,-64(s0)
	jalr	a6
.LVL20:
	sd	a0,-24(s0)
	.loc 1 1213 7
	ld	a5,-24(s0)
	.loc 1 1213 6
	blt	a5,zero,.L62
	.loc 1 1218 14
	ld	a5,-40(s0)
	mv	a1,a5
	lla	a0,mConIn
	call	ConSplitterTextInExAddDevice
	sd	a0,-24(s0)
.L62:
	.loc 1 1221 10
	ld	a5,-24(s0)
.L63:
	.loc 1 1222 1
	mv	a0,a5
	ld	ra,72(sp)
	.cfi_restore 1
	ld	s0,64(sp)
	.cfi_restore 8
	.cfi_def_cfa 2, 80
	addi	sp,sp,80
	.cfi_def_cfa_offset 0
	jr	ra
	.cfi_endproc
.LFE13:
	.size	ConSplitterConInDriverBindingStart, .-ConSplitterConInDriverBindingStart
	.section	.text.ConSplitterSimplePointerDriverBindingStart,"ax",@progbits
	.align	1
	.globl	ConSplitterSimplePointerDriverBindingStart
	.type	ConSplitterSimplePointerDriverBindingStart, @function
ConSplitterSimplePointerDriverBindingStart:
.LFB14:
	.loc 1 1243 1
	.cfi_startproc
	addi	sp,sp,-64
	.cfi_def_cfa_offset 64
	sd	ra,56(sp)
	sd	s0,48(sp)
	.cfi_offset 1, -8
	.cfi_offset 8, -16
	addi	s0,sp,64
	.cfi_def_cfa 8, 0
	sd	a0,-40(s0)
	sd	a1,-48(s0)
	sd	a2,-56(s0)
	.loc 1 1251 12
	lla	a5,mConIn
	ld	a2,8(a5)
	addi	a5,s0,-32
	la	a4,gEfiSimplePointerProtocolGuid
	la	a3,gEfiSimplePointerProtocolGuid
	ld	a1,-48(s0)
	ld	a0,-40(s0)
	call	ConSplitterStart
	sd	a0,-24(s0)
	.loc 1 1259 34
	ld	a5,-24(s0)
	.loc 1 1259 6
	bge	a5,zero,.L65
	.loc 1 1260 12
	ld	a5,-24(s0)
	j	.L67
.L65:
	.loc 1 1266 10
	ld	a5,-32(s0)
	mv	a1,a5
	lla	a0,mConIn
	call	ConSplitterSimplePointerAddDevice
	mv	a5,a0
.L67:
	.loc 1 1267 1
	mv	a0,a5
	ld	ra,56(sp)
	.cfi_restore 1
	ld	s0,48(sp)
	.cfi_restore 8
	.cfi_def_cfa 2, 64
	addi	sp,sp,64
	.cfi_def_cfa_offset 0
	jr	ra
	.cfi_endproc
.LFE14:
	.size	ConSplitterSimplePointerDriverBindingStart, .-ConSplitterSimplePointerDriverBindingStart
	.section	.text.ConSplitterAbsolutePointerDriverBindingStart,"ax",@progbits
	.align	1
	.globl	ConSplitterAbsolutePointerDriverBindingStart
	.type	ConSplitterAbsolutePointerDriverBindingStart, @function
ConSplitterAbsolutePointerDriverBindingStart:
.LFB15:
	.loc 1 1288 1
	.cfi_startproc
	addi	sp,sp,-64
	.cfi_def_cfa_offset 64
	sd	ra,56(sp)
	sd	s0,48(sp)
	.cfi_offset 1, -8
	.cfi_offset 8, -16
	addi	s0,sp,64
	.cfi_def_cfa 8, 0
	sd	a0,-40(s0)
	sd	a1,-48(s0)
	sd	a2,-56(s0)
	.loc 1 1296 12
	lla	a5,mConIn
	ld	a2,8(a5)
	addi	a5,s0,-32
	la	a4,gEfiAbsolutePointerProtocolGuid
	la	a3,gEfiAbsolutePointerProtocolGuid
	ld	a1,-48(s0)
	ld	a0,-40(s0)
	call	ConSplitterStart
	sd	a0,-24(s0)
	.loc 1 1305 34
	ld	a5,-24(s0)
	.loc 1 1305 6
	bge	a5,zero,.L69
	.loc 1 1306 12
	ld	a5,-24(s0)
	j	.L71
.L69:
	.loc 1 1312 10
	ld	a5,-32(s0)
	mv	a1,a5
	lla	a0,mConIn
	call	ConSplitterAbsolutePointerAddDevice
	mv	a5,a0
.L71:
	.loc 1 1313 1
	mv	a0,a5
	ld	ra,56(sp)
	.cfi_restore 1
	ld	s0,48(sp)
	.cfi_restore 8
	.cfi_def_cfa 2, 64
	addi	sp,sp,64
	.cfi_def_cfa_offset 0
	jr	ra
	.cfi_endproc
.LFE15:
	.size	ConSplitterAbsolutePointerDriverBindingStart, .-ConSplitterAbsolutePointerDriverBindingStart
	.section	.text.ConSplitterConOutDriverBindingStart,"ax",@progbits
	.align	1
	.globl	ConSplitterConOutDriverBindingStart
	.type	ConSplitterConOutDriverBindingStart, @function
ConSplitterConOutDriverBindingStart:
.LFB16:
	.loc 1 1334 1
	.cfi_startproc
	addi	sp,sp,-96
	.cfi_def_cfa_offset 96
	sd	ra,88(sp)
	sd	s0,80(sp)
	.cfi_offset 1, -8
	.cfi_offset 8, -16
	addi	s0,sp,96
	.cfi_def_cfa 8, 0
	sd	a0,-72(s0)
	sd	a1,-80(s0)
	sd	a2,-88(s0)
	.loc 1 1346 12
	lla	a5,mConOut
	ld	a2,8(a5)
	addi	a5,s0,-32
	la	a4,gEfiSimpleTextOutProtocolGuid
	la	a3,gEfiConsoleOutDeviceGuid
	ld	a1,-80(s0)
	ld	a0,-72(s0)
	call	ConSplitterStart
	sd	a0,-24(s0)
	.loc 1 1354 34
	ld	a5,-24(s0)
	.loc 1 1354 6
	bge	a5,zero,.L73
	.loc 1 1355 12
	ld	a5,-24(s0)
	j	.L79
.L73:
	.loc 1 1358 18
	sd	zero,-40(s0)
	.loc 1 1359 11
	sd	zero,-48(s0)
	.loc 1 1363 15
	la	a5,gBS
	ld	a5,0(a5)
	ld	a6,280(a5)
	.loc 1 1363 12
	ld	a5,-72(s0)
	ld	a3,40(a5)
	lla	a5,mConOut
	ld	a4,8(a5)
	addi	a2,s0,-40
	li	a5,2
	la	a1,gEfiGraphicsOutputProtocolGuid
	ld	a0,-80(s0)
	jalr	a6
.LVL21:
	sd	a0,-24(s0)
	.loc 1 1372 34
	ld	a5,-24(s0)
	.loc 1 1372 6
	bge	a5,zero,.L75
	.loc 1 1372 60 discriminator 1
	la	a5,_gPcd_FixedAtBuild_PcdUgaConsumeSupport
	lbu	a5,0(a5)
	beq	a5,zero,.L75
	.loc 1 1376 8
	la	a5,gBS
	ld	a5,0(a5)
	ld	a6,280(a5)
	.loc 1 1376 5
	ld	a5,-72(s0)
	ld	a3,40(a5)
	lla	a5,mConOut
	ld	a4,8(a5)
	addi	a2,s0,-48
	li	a5,2
	la	a1,gEfiUgaDrawProtocolGuid
	ld	a0,-80(s0)
	jalr	a6
.LVL22:
.L75:
	.loc 1 1390 28
	lla	a5,mConOut
	li	a4,255
	sw	a4,100(a5)
	.loc 1 1396 12
	ld	a5,-32(s0)
	ld	a4,-40(s0)
	ld	a3,-48(s0)
	mv	a2,a4
	mv	a1,a5
	lla	a0,mConOut
	call	ConSplitterTextOutAddDevice
	sd	a0,-24(s0)
	.loc 1 1397 3
	li	a1,7
	lla	a0,mConOut+16
	call	ConSplitterTextOutSetAttribute
	.loc 1 1399 7
	la	a5,_gPcd_FixedAtBuild_PcdConOutUgaSupport
	lbu	a5,0(a5)
	.loc 1 1399 6
	beq	a5,zero,.L76
	.loc 1 1403 24
	ld	a5,-40(s0)
	.loc 1 1403 8
	beq	a5,zero,.L77
	.loc 1 1404 30
	ld	a5,-40(s0)
	ld	a5,0(a5)
	.loc 1 1404 16
	ld	a0,-40(s0)
	.loc 1 1404 73
	ld	a4,-40(s0)
	ld	a4,24(a4)
	.loc 1 1404 16
	lw	a4,4(a4)
	addi	a3,s0,-64
	addi	a2,s0,-56
	mv	a1,a4
	jalr	a5
.LVL23:
	sd	a0,-24(s0)
	.loc 1 1405 38
	ld	a5,-24(s0)
	.loc 1 1405 10
	bge	a5,zero,.L78
	.loc 1 1406 16
	ld	a5,-24(s0)
	j	.L79
.L78:
	.loc 1 1411 45
	ld	a5,-64(s0)
	lw	a4,4(a5)
	.loc 1 1411 39
	lla	a5,mConOut
	sw	a4,144(a5)
	.loc 1 1412 43
	ld	a5,-64(s0)
	lw	a4,8(a5)
	.loc 1 1412 37
	lla	a5,mConOut
	sw	a4,148(a5)
	.loc 1 1413 29
	lla	a5,mConOut
	li	a4,32
	sw	a4,152(a5)
	.loc 1 1414 30
	lla	a5,mConOut
	li	a4,60
	sw	a4,156(a5)
	.loc 1 1416 7
	ld	a5,-64(s0)
	mv	a0,a5
	call	FreePool@plt
	j	.L76
.L77:
	.loc 1 1417 24
	ld	a5,-48(s0)
	.loc 1 1417 15
	beq	a5,zero,.L76
	.loc 1 1418 23
	ld	a5,-48(s0)
	ld	a5,0(a5)
	.loc 1 1418 16
	ld	a0,-48(s0)
	lla	a4,mConOut+156
	lla	a3,mConOut+152
	lla	a2,mConOut+148
	lla	a1,mConOut+144
	jalr	a5
.LVL24:
	sd	a0,-24(s0)
.L76:
	.loc 1 1428 10
	ld	a5,-24(s0)
.L79:
	.loc 1 1429 1
	mv	a0,a5
	ld	ra,88(sp)
	.cfi_restore 1
	ld	s0,80(sp)
	.cfi_restore 8
	.cfi_def_cfa 2, 96
	addi	sp,sp,96
	.cfi_def_cfa_offset 0
	jr	ra
	.cfi_endproc
.LFE16:
	.size	ConSplitterConOutDriverBindingStart, .-ConSplitterConOutDriverBindingStart
	.section	.text.ConSplitterStdErrDriverBindingStart,"ax",@progbits
	.align	1
	.globl	ConSplitterStdErrDriverBindingStart
	.type	ConSplitterStdErrDriverBindingStart, @function
ConSplitterStdErrDriverBindingStart:
.LFB17:
	.loc 1 1450 1
	.cfi_startproc
	addi	sp,sp,-64
	.cfi_def_cfa_offset 64
	sd	ra,56(sp)
	sd	s0,48(sp)
	.cfi_offset 1, -8
	.cfi_offset 8, -16
	addi	s0,sp,64
	.cfi_def_cfa 8, 0
	sd	a0,-40(s0)
	sd	a1,-48(s0)
	sd	a2,-56(s0)
	.loc 1 1458 12
	lla	a5,mStdErr
	ld	a2,8(a5)
	addi	a5,s0,-32
	la	a4,gEfiSimpleTextOutProtocolGuid
	la	a3,gEfiStandardErrorDeviceGuid
	ld	a1,-48(s0)
	ld	a0,-40(s0)
	call	ConSplitterStart
	sd	a0,-24(s0)
	.loc 1 1466 34
	ld	a5,-24(s0)
	.loc 1 1466 6
	bge	a5,zero,.L81
	.loc 1 1467 12
	ld	a5,-24(s0)
	j	.L83
.L81:
	.loc 1 1474 28
	lla	a5,mStdErr
	li	a4,255
	sw	a4,100(a5)
	.loc 1 1480 12
	ld	a5,-32(s0)
	li	a3,0
	li	a2,0
	mv	a1,a5
	lla	a0,mStdErr
	call	ConSplitterTextOutAddDevice
	sd	a0,-24(s0)
	.loc 1 1481 3
	li	a1,7
	lla	a0,mStdErr+16
	call	ConSplitterTextOutSetAttribute
	.loc 1 1483 10
	ld	a5,-24(s0)
.L83:
	.loc 1 1484 1
	mv	a0,a5
	ld	ra,56(sp)
	.cfi_restore 1
	ld	s0,48(sp)
	.cfi_restore 8
	.cfi_def_cfa 2, 64
	addi	sp,sp,64
	.cfi_def_cfa_offset 0
	jr	ra
	.cfi_endproc
.LFE17:
	.size	ConSplitterStdErrDriverBindingStart, .-ConSplitterStdErrDriverBindingStart
	.section	.text.ConSplitterStop,"ax",@progbits
	.align	1
	.globl	ConSplitterStop
	.type	ConSplitterStop, @function
ConSplitterStop:
.LFB18:
	.loc 1 1511 1
	.cfi_startproc
	addi	sp,sp,-80
	.cfi_def_cfa_offset 80
	sd	ra,72(sp)
	sd	s0,64(sp)
	.cfi_offset 1, -8
	.cfi_offset 8, -16
	addi	s0,sp,80
	.cfi_def_cfa 8, 0
	sd	a0,-40(s0)
	sd	a1,-48(s0)
	sd	a2,-56(s0)
	sd	a3,-64(s0)
	sd	a4,-72(s0)
	sd	a5,-80(s0)
	.loc 1 1514 15
	la	a5,gBS
	ld	a5,0(a5)
	ld	a6,280(a5)
	.loc 1 1514 12
	ld	a5,-40(s0)
	ld	a3,40(a5)
	li	a5,2
	ld	a4,-48(s0)
	ld	a2,-80(s0)
	ld	a1,-72(s0)
	ld	a0,-48(s0)
	jalr	a6
.LVL25:
	sd	a0,-24(s0)
	.loc 1 1522 34
	ld	a5,-24(s0)
	.loc 1 1522 6
	bge	a5,zero,.L85
	.loc 1 1523 12
	ld	a5,-24(s0)
	j	.L86
.L85:
	.loc 1 1529 6
	la	a5,gBS
	ld	a5,0(a5)
	ld	a5,288(a5)
	.loc 1 1529 3
	ld	a4,-40(s0)
	ld	a4,40(a4)
	ld	a3,-56(s0)
	mv	a2,a4
	ld	a1,-64(s0)
	ld	a0,-48(s0)
	jalr	a5
.LVL26:
	.loc 1 1536 6
	la	a5,gBS
	ld	a5,0(a5)
	ld	a5,288(a5)
	.loc 1 1536 3
	ld	a4,-40(s0)
	ld	a4,40(a4)
	ld	a3,-48(s0)
	mv	a2,a4
	ld	a1,-64(s0)
	ld	a0,-48(s0)
	jalr	a5
.LVL27:
	.loc 1 1543 10
	li	a5,0
.L86:
	.loc 1 1544 1
	mv	a0,a5
	ld	ra,72(sp)
	.cfi_restore 1
	ld	s0,64(sp)
	.cfi_restore 8
	.cfi_def_cfa 2, 80
	addi	sp,sp,80
	.cfi_def_cfa_offset 0
	jr	ra
	.cfi_endproc
.LFE18:
	.size	ConSplitterStop, .-ConSplitterStop
	.section	.text.ConSplitterConInDriverBindingStop,"ax",@progbits
	.align	1
	.globl	ConSplitterConInDriverBindingStop
	.type	ConSplitterConInDriverBindingStop, @function
ConSplitterConInDriverBindingStop:
.LFB19:
	.loc 1 1567 1
	.cfi_startproc
	addi	sp,sp,-80
	.cfi_def_cfa_offset 80
	sd	ra,72(sp)
	sd	s0,64(sp)
	.cfi_offset 1, -8
	.cfi_offset 8, -16
	addi	s0,sp,80
	.cfi_def_cfa 8, 0
	sd	a0,-56(s0)
	sd	a1,-64(s0)
	sd	a2,-72(s0)
	sd	a3,-80(s0)
	.loc 1 1572 6
	ld	a5,-72(s0)
	bne	a5,zero,.L88
	.loc 1 1573 12
	li	a5,0
	j	.L92
.L88:
	.loc 1 1576 15
	la	a5,gBS
	ld	a5,0(a5)
	ld	a6,280(a5)
	.loc 1 1576 12
	ld	a5,-56(s0)
	ld	a3,40(a5)
	addi	a2,s0,-40
	li	a5,2
	ld	a4,-64(s0)
	la	a1,gEfiSimpleTextInputExProtocolGuid
	ld	a0,-64(s0)
	jalr	a6
.LVL28:
	sd	a0,-24(s0)
	.loc 1 1584 7
	ld	a5,-24(s0)
	.loc 1 1584 6
	blt	a5,zero,.L90
	.loc 1 1589 14
	ld	a5,-40(s0)
	mv	a1,a5
	lla	a0,mConIn
	call	ConSplitterTextInExDeleteDevice
	sd	a0,-24(s0)
	.loc 1 1590 36
	ld	a5,-24(s0)
	.loc 1 1590 8
	bge	a5,zero,.L90
	.loc 1 1591 14
	ld	a5,-24(s0)
	j	.L92
.L90:
	.loc 1 1598 12
	lla	a5,mConIn
	ld	a2,8(a5)
	addi	a5,s0,-32
	la	a4,gEfiSimpleTextInProtocolGuid
	la	a3,gEfiConsoleInDeviceGuid
	ld	a1,-64(s0)
	ld	a0,-56(s0)
	call	ConSplitterStop
	sd	a0,-24(s0)
	.loc 1 1606 34
	ld	a5,-24(s0)
	.loc 1 1606 6
	bge	a5,zero,.L91
	.loc 1 1607 12
	ld	a5,-24(s0)
	j	.L92
.L91:
	.loc 1 1613 10
	ld	a5,-32(s0)
	mv	a1,a5
	lla	a0,mConIn
	call	ConSplitterTextInDeleteDevice
	mv	a5,a0
.L92:
	.loc 1 1614 1
	mv	a0,a5
	ld	ra,72(sp)
	.cfi_restore 1
	ld	s0,64(sp)
	.cfi_restore 8
	.cfi_def_cfa 2, 80
	addi	sp,sp,80
	.cfi_def_cfa_offset 0
	jr	ra
	.cfi_endproc
.LFE19:
	.size	ConSplitterConInDriverBindingStop, .-ConSplitterConInDriverBindingStop
	.section	.text.ConSplitterSimplePointerDriverBindingStop,"ax",@progbits
	.align	1
	.globl	ConSplitterSimplePointerDriverBindingStop
	.type	ConSplitterSimplePointerDriverBindingStop, @function
ConSplitterSimplePointerDriverBindingStop:
.LFB20:
	.loc 1 1638 1
	.cfi_startproc
	addi	sp,sp,-64
	.cfi_def_cfa_offset 64
	sd	ra,56(sp)
	sd	s0,48(sp)
	.cfi_offset 1, -8
	.cfi_offset 8, -16
	addi	s0,sp,64
	.cfi_def_cfa 8, 0
	sd	a0,-40(s0)
	sd	a1,-48(s0)
	sd	a2,-56(s0)
	sd	a3,-64(s0)
	.loc 1 1642 6
	ld	a5,-56(s0)
	bne	a5,zero,.L94
	.loc 1 1643 12
	li	a5,0
	j	.L97
.L94:
	.loc 1 1649 12
	lla	a5,mConIn
	ld	a2,8(a5)
	addi	a5,s0,-32
	la	a4,gEfiSimplePointerProtocolGuid
	la	a3,gEfiSimplePointerProtocolGuid
	ld	a1,-48(s0)
	ld	a0,-40(s0)
	call	ConSplitterStop
	sd	a0,-24(s0)
	.loc 1 1657 34
	ld	a5,-24(s0)
	.loc 1 1657 6
	bge	a5,zero,.L96
	.loc 1 1658 12
	ld	a5,-24(s0)
	j	.L97
.L96:
	.loc 1 1664 10
	ld	a5,-32(s0)
	mv	a1,a5
	lla	a0,mConIn
	call	ConSplitterSimplePointerDeleteDevice
	mv	a5,a0
.L97:
	.loc 1 1665 1
	mv	a0,a5
	ld	ra,56(sp)
	.cfi_restore 1
	ld	s0,48(sp)
	.cfi_restore 8
	.cfi_def_cfa 2, 64
	addi	sp,sp,64
	.cfi_def_cfa_offset 0
	jr	ra
	.cfi_endproc
.LFE20:
	.size	ConSplitterSimplePointerDriverBindingStop, .-ConSplitterSimplePointerDriverBindingStop
	.section	.text.ConSplitterAbsolutePointerDriverBindingStop,"ax",@progbits
	.align	1
	.globl	ConSplitterAbsolutePointerDriverBindingStop
	.type	ConSplitterAbsolutePointerDriverBindingStop, @function
ConSplitterAbsolutePointerDriverBindingStop:
.LFB21:
	.loc 1 1689 1
	.cfi_startproc
	addi	sp,sp,-64
	.cfi_def_cfa_offset 64
	sd	ra,56(sp)
	sd	s0,48(sp)
	.cfi_offset 1, -8
	.cfi_offset 8, -16
	addi	s0,sp,64
	.cfi_def_cfa 8, 0
	sd	a0,-40(s0)
	sd	a1,-48(s0)
	sd	a2,-56(s0)
	sd	a3,-64(s0)
	.loc 1 1693 6
	ld	a5,-56(s0)
	bne	a5,zero,.L99
	.loc 1 1694 12
	li	a5,0
	j	.L102
.L99:
	.loc 1 1700 12
	lla	a5,mConIn
	ld	a2,8(a5)
	addi	a5,s0,-32
	la	a4,gEfiAbsolutePointerProtocolGuid
	la	a3,gEfiAbsolutePointerProtocolGuid
	ld	a1,-48(s0)
	ld	a0,-40(s0)
	call	ConSplitterStop
	sd	a0,-24(s0)
	.loc 1 1708 34
	ld	a5,-24(s0)
	.loc 1 1708 6
	bge	a5,zero,.L101
	.loc 1 1709 12
	ld	a5,-24(s0)
	j	.L102
.L101:
	.loc 1 1715 10
	ld	a5,-32(s0)
	mv	a1,a5
	lla	a0,mConIn
	call	ConSplitterAbsolutePointerDeleteDevice
	mv	a5,a0
.L102:
	.loc 1 1716 1
	mv	a0,a5
	ld	ra,56(sp)
	.cfi_restore 1
	ld	s0,48(sp)
	.cfi_restore 8
	.cfi_def_cfa 2, 64
	addi	sp,sp,64
	.cfi_def_cfa_offset 0
	jr	ra
	.cfi_endproc
.LFE21:
	.size	ConSplitterAbsolutePointerDriverBindingStop, .-ConSplitterAbsolutePointerDriverBindingStop
	.section	.text.ConSplitterConOutDriverBindingStop,"ax",@progbits
	.align	1
	.globl	ConSplitterConOutDriverBindingStop
	.type	ConSplitterConOutDriverBindingStop, @function
ConSplitterConOutDriverBindingStop:
.LFB22:
	.loc 1 1739 1
	.cfi_startproc
	addi	sp,sp,-64
	.cfi_def_cfa_offset 64
	sd	ra,56(sp)
	sd	s0,48(sp)
	.cfi_offset 1, -8
	.cfi_offset 8, -16
	addi	s0,sp,64
	.cfi_def_cfa 8, 0
	sd	a0,-40(s0)
	sd	a1,-48(s0)
	sd	a2,-56(s0)
	sd	a3,-64(s0)
	.loc 1 1743 6
	ld	a5,-56(s0)
	bne	a5,zero,.L104
	.loc 1 1744 12
	li	a5,0
	j	.L107
.L104:
	.loc 1 1750 12
	lla	a5,mConOut
	ld	a2,8(a5)
	addi	a5,s0,-32
	la	a4,gEfiSimpleTextOutProtocolGuid
	la	a3,gEfiConsoleOutDeviceGuid
	ld	a1,-48(s0)
	ld	a0,-40(s0)
	call	ConSplitterStop
	sd	a0,-24(s0)
	.loc 1 1758 34
	ld	a5,-24(s0)
	.loc 1 1758 6
	bge	a5,zero,.L106
	.loc 1 1759 12
	ld	a5,-24(s0)
	j	.L107
.L106:
	.loc 1 1765 10
	ld	a5,-32(s0)
	mv	a1,a5
	lla	a0,mConOut
	call	ConSplitterTextOutDeleteDevice
	mv	a5,a0
.L107:
	.loc 1 1766 1
	mv	a0,a5
	ld	ra,56(sp)
	.cfi_restore 1
	ld	s0,48(sp)
	.cfi_restore 8
	.cfi_def_cfa 2, 64
	addi	sp,sp,64
	.cfi_def_cfa_offset 0
	jr	ra
	.cfi_endproc
.LFE22:
	.size	ConSplitterConOutDriverBindingStop, .-ConSplitterConOutDriverBindingStop
	.section	.text.ConSplitterStdErrDriverBindingStop,"ax",@progbits
	.align	1
	.globl	ConSplitterStdErrDriverBindingStop
	.type	ConSplitterStdErrDriverBindingStop, @function
ConSplitterStdErrDriverBindingStop:
.LFB23:
	.loc 1 1789 1
	.cfi_startproc
	addi	sp,sp,-64
	.cfi_def_cfa_offset 64
	sd	ra,56(sp)
	sd	s0,48(sp)
	.cfi_offset 1, -8
	.cfi_offset 8, -16
	addi	s0,sp,64
	.cfi_def_cfa 8, 0
	sd	a0,-40(s0)
	sd	a1,-48(s0)
	sd	a2,-56(s0)
	sd	a3,-64(s0)
	.loc 1 1793 6
	ld	a5,-56(s0)
	bne	a5,zero,.L109
	.loc 1 1794 12
	li	a5,0
	j	.L112
.L109:
	.loc 1 1800 12
	lla	a5,mStdErr
	ld	a2,8(a5)
	addi	a5,s0,-32
	la	a4,gEfiSimpleTextOutProtocolGuid
	la	a3,gEfiStandardErrorDeviceGuid
	ld	a1,-48(s0)
	ld	a0,-40(s0)
	call	ConSplitterStop
	sd	a0,-24(s0)
	.loc 1 1808 34
	ld	a5,-24(s0)
	.loc 1 1808 6
	bge	a5,zero,.L111
	.loc 1 1809 12
	ld	a5,-24(s0)
	j	.L112
.L111:
	.loc 1 1815 10
	ld	a5,-32(s0)
	mv	a1,a5
	lla	a0,mStdErr
	call	ConSplitterTextOutDeleteDevice
	mv	a5,a0
.L112:
	.loc 1 1816 1
	mv	a0,a5
	ld	ra,56(sp)
	.cfi_restore 1
	ld	s0,48(sp)
	.cfi_restore 8
	.cfi_def_cfa 2, 64
	addi	sp,sp,64
	.cfi_def_cfa_offset 0
	jr	ra
	.cfi_endproc
.LFE23:
	.size	ConSplitterStdErrDriverBindingStop, .-ConSplitterStdErrDriverBindingStop
	.section	.text.ConSplitterGrowBuffer,"ax",@progbits
	.align	1
	.globl	ConSplitterGrowBuffer
	.type	ConSplitterGrowBuffer, @function
ConSplitterGrowBuffer:
.LFB24:
	.loc 1 1839 1
	.cfi_startproc
	addi	sp,sp,-64
	.cfi_def_cfa_offset 64
	sd	ra,56(sp)
	sd	s0,48(sp)
	.cfi_offset 1, -8
	.cfi_offset 8, -16
	addi	s0,sp,64
	.cfi_def_cfa 8, 0
	sd	a0,-40(s0)
	sd	a1,-48(s0)
	sd	a2,-56(s0)
	.loc 1 1848 26
	ld	a5,-48(s0)
	ld	a4,0(a5)
	.loc 1 1847 9
	ld	a5,-40(s0)
	mul	a3,a4,a5
	.loc 1 1849 27
	ld	a5,-48(s0)
	ld	a5,0(a5)
	.loc 1 1849 35
	addi	a4,a5,32
	.loc 1 1847 9
	ld	a5,-40(s0)
	mul	a4,a4,a5
	ld	a5,-56(s0)
	ld	a5,0(a5)
	mv	a2,a5
	mv	a1,a4
	mv	a0,a3
	call	ReallocatePool@plt
	sd	a0,-24(s0)
	.loc 1 1852 6
	ld	a5,-24(s0)
	bne	a5,zero,.L114
	.loc 1 1853 12
	li	a5,-1
	slli	a5,a5,63
	addi	a5,a5,9
	j	.L115
.L114:
	.loc 1 1856 3
	ld	a5,-48(s0)
	ld	a5,0(a5)
	.loc 1 1856 10
	addi	a4,a5,32
	ld	a5,-48(s0)
	sd	a4,0(a5)
	.loc 1 1857 11
	ld	a5,-56(s0)
	ld	a4,-24(s0)
	sd	a4,0(a5)
	.loc 1 1858 10
	li	a5,0
.L115:
	.loc 1 1859 1
	mv	a0,a5
	ld	ra,56(sp)
	.cfi_restore 1
	ld	s0,48(sp)
	.cfi_restore 8
	.cfi_def_cfa 2, 64
	addi	sp,sp,64
	.cfi_def_cfa_offset 0
	jr	ra
	.cfi_endproc
.LFE24:
	.size	ConSplitterGrowBuffer, .-ConSplitterGrowBuffer
	.section	.text.ConSplitterTextInAddDevice,"ax",@progbits
	.align	1
	.globl	ConSplitterTextInAddDevice
	.type	ConSplitterTextInAddDevice, @function
ConSplitterTextInAddDevice:
.LFB25:
	.loc 1 1876 1
	.cfi_startproc
	addi	sp,sp,-48
	.cfi_def_cfa_offset 48
	sd	ra,40(sp)
	sd	s0,32(sp)
	.cfi_offset 1, -8
	.cfi_offset 8, -16
	addi	s0,sp,48
	.cfi_def_cfa 8, 0
	sd	a0,-40(s0)
	sd	a1,-48(s0)
	.loc 1 1882 14
	ld	a5,-40(s0)
	ld	a4,40(a5)
	.loc 1 1882 50
	ld	a5,-40(s0)
	ld	a5,56(a5)
	.loc 1 1882 6
	bltu	a4,a5,.L117
	.loc 1 1883 14
	ld	a5,-40(s0)
	addi	a4,a5,56
	.loc 1 1886 25
	ld	a5,-40(s0)
	addi	a5,a5,48
	.loc 1 1883 14
	mv	a2,a5
	mv	a1,a4
	li	a0,8
	call	ConSplitterGrowBuffer
	sd	a0,-24(s0)
	.loc 1 1888 36
	ld	a5,-24(s0)
	.loc 1 1888 8
	bge	a5,zero,.L117
	.loc 1 1889 14
	li	a5,-1
	slli	a5,a5,63
	addi	a5,a5,9
	j	.L118
.L117:
	.loc 1 1896 10
	ld	a5,-40(s0)
	ld	a4,48(a5)
	.loc 1 1896 30
	ld	a5,-40(s0)
	ld	a5,40(a5)
	.loc 1 1896 22
	slli	a5,a5,3
	add	a5,a4,a5
	.loc 1 1896 57
	ld	a4,-48(s0)
	sd	a4,0(a5)
	.loc 1 1897 10
	ld	a5,-40(s0)
	ld	a5,40(a5)
	.loc 1 1897 35
	addi	a4,a5,1
	ld	a5,-40(s0)
	sd	a4,40(a5)
	.loc 1 1902 6
	la	a5,gBS
	ld	a5,0(a5)
	ld	a5,120(a5)
	.loc 1 1902 3
	ld	a4,-48(s0)
	ld	a4,16(a4)
	mv	a0,a4
	jalr	a5
.LVL29:
	.loc 1 1904 10
	li	a5,0
.L118:
	.loc 1 1905 1
	mv	a0,a5
	ld	ra,40(sp)
	.cfi_restore 1
	ld	s0,32(sp)
	.cfi_restore 8
	.cfi_def_cfa 2, 48
	addi	sp,sp,48
	.cfi_def_cfa_offset 0
	jr	ra
	.cfi_endproc
.LFE25:
	.size	ConSplitterTextInAddDevice, .-ConSplitterTextInAddDevice
	.section	.text.ConSplitterTextInDeleteDevice,"ax",@progbits
	.align	1
	.globl	ConSplitterTextInDeleteDevice
	.type	ConSplitterTextInDeleteDevice, @function
ConSplitterTextInDeleteDevice:
.LFB26:
	.loc 1 1922 1
	.cfi_startproc
	addi	sp,sp,-48
	.cfi_def_cfa_offset 48
	sd	ra,40(sp)
	sd	s0,32(sp)
	.cfi_offset 1, -8
	.cfi_offset 8, -16
	addi	s0,sp,48
	.cfi_def_cfa 8, 0
	sd	a0,-40(s0)
	sd	a1,-48(s0)
	.loc 1 1929 14
	sd	zero,-24(s0)
	.loc 1 1929 3
	j	.L120
.L125:
	.loc 1 1930 16
	ld	a5,-40(s0)
	ld	a4,48(a5)
	.loc 1 1930 28
	ld	a5,-24(s0)
	slli	a5,a5,3
	add	a5,a4,a5
	ld	a5,0(a5)
	.loc 1 1930 8
	ld	a4,-48(s0)
	bne	a4,a5,.L121
	.loc 1 1931 7
	j	.L122
.L123:
	.loc 1 1932 45
	ld	a5,-40(s0)
	ld	a4,48(a5)
	.loc 1 1932 57
	ld	a5,-24(s0)
	addi	a5,a5,1
	slli	a5,a5,3
	add	a4,a4,a5
	.loc 1 1932 16
	ld	a5,-40(s0)
	ld	a3,48(a5)
	.loc 1 1932 28
	ld	a5,-24(s0)
	slli	a5,a5,3
	add	a5,a3,a5
	.loc 1 1932 57
	ld	a4,0(a4)
	.loc 1 1932 36
	sd	a4,0(a5)
	.loc 1 1931 66 discriminator 2
	ld	a5,-24(s0)
	addi	a5,a5,1
	sd	a5,-24(s0)
.L122:
	.loc 1 1931 30 discriminator 1
	ld	a5,-40(s0)
	ld	a5,40(a5)
	.loc 1 1931 56 discriminator 1
	addi	a5,a5,-1
	.loc 1 1931 21 discriminator 1
	ld	a4,-24(s0)
	bltu	a4,a5,.L123
	.loc 1 1935 14
	ld	a5,-40(s0)
	ld	a5,40(a5)
	.loc 1 1935 39
	addi	a4,a5,-1
	ld	a5,-40(s0)
	sd	a4,40(a5)
	.loc 1 1936 14
	li	a5,0
	j	.L124
.L121:
	.loc 1 1929 66 discriminator 2
	ld	a5,-24(s0)
	addi	a5,a5,1
	sd	a5,-24(s0)
.L120:
	.loc 1 1929 34 discriminator 1
	ld	a5,-40(s0)
	ld	a5,40(a5)
	.loc 1 1929 25 discriminator 1
	ld	a4,-24(s0)
	bltu	a4,a5,.L125
	.loc 1 1940 10
	li	a5,-1
	slli	a5,a5,63
	addi	a5,a5,14
.L124:
	.loc 1 1941 1
	mv	a0,a5
	ld	ra,40(sp)
	.cfi_restore 1
	ld	s0,32(sp)
	.cfi_restore 8
	.cfi_def_cfa 2, 48
	addi	sp,sp,48
	.cfi_def_cfa_offset 0
	jr	ra
	.cfi_endproc
.LFE26:
	.size	ConSplitterTextInDeleteDevice, .-ConSplitterTextInDeleteDevice
	.section	.text.ConSplitterTextInExAddDevice,"ax",@progbits
	.align	1
	.globl	ConSplitterTextInExAddDevice
	.type	ConSplitterTextInExAddDevice, @function
ConSplitterTextInExAddDevice:
.LFB27:
	.loc 1 1958 1
	.cfi_startproc
	addi	sp,sp,-64
	.cfi_def_cfa_offset 64
	sd	ra,56(sp)
	sd	s0,48(sp)
	.cfi_offset 1, -8
	.cfi_offset 8, -16
	addi	s0,sp,64
	.cfi_def_cfa 8, 0
	sd	a0,-56(s0)
	sd	a1,-64(s0)
	.loc 1 1967 14
	ld	a5,-56(s0)
	ld	a4,112(a5)
	.loc 1 1967 52
	ld	a5,-56(s0)
	ld	a5,128(a5)
	.loc 1 1967 6
	bltu	a4,a5,.L127
	.loc 1 1968 15
	ld	a5,-56(s0)
	ld	a5,136(a5)
	sd	a5,-24(s0)
	.loc 1 1968 5
	j	.L128
.L133:
	.loc 1 1969 25
	ld	a5,-24(s0)
	addi	a5,a5,-40
	.loc 1 1969 158
	ld	a4,0(a5)
	.loc 1 1969 243
	li	a5,1850961920
	addi	a5,a5,-1708
	bne	a4,a5,.L129
	.loc 1 1969 21 discriminator 1
	ld	a5,-24(s0)
	addi	a5,a5,-40
	sd	a5,-32(s0)
	j	.L130
.L129:
	.loc 1 1969 21 is_stmt 0 discriminator 2
	sd	zero,-32(s0)
.L130:
	.loc 1 1970 34 is_stmt 1
	ld	a5,-56(s0)
	ld	a5,128(a5)
	.loc 1 1970 25
	sd	a5,-48(s0)
	.loc 1 1975 27
	ld	a5,-32(s0)
	addi	a4,a5,8
	.loc 1 1972 16
	addi	a5,s0,-48
	mv	a2,a4
	mv	a1,a5
	li	a0,8
	call	ConSplitterGrowBuffer
	sd	a0,-40(s0)
	.loc 1 1977 38
	ld	a5,-40(s0)
	.loc 1 1977 10
	bge	a5,zero,.L131
	.loc 1 1978 16
	li	a5,-1
	slli	a5,a5,63
	addi	a5,a5,9
	j	.L144
.L131:
	.loc 1 1968 85 discriminator 2
	ld	a5,-24(s0)
	ld	a5,0(a5)
	sd	a5,-24(s0)
.L128:
	.loc 1 1968 58 discriminator 1
	ld	a5,-56(s0)
	addi	a5,a5,136
	.loc 1 1968 55 discriminator 1
	ld	a4,-24(s0)
	bne	a4,a5,.L133
	.loc 1 1982 32
	ld	a5,-56(s0)
	ld	a5,128(a5)
	.loc 1 1982 23
	sd	a5,-48(s0)
	.loc 1 1986 36
	ld	a5,-56(s0)
	addi	a4,a5,152
	.loc 1 1983 14
	addi	a5,s0,-48
	mv	a2,a4
	mv	a1,a5
	li	a0,12
	call	ConSplitterGrowBuffer
	sd	a0,-40(s0)
	.loc 1 1988 36
	ld	a5,-40(s0)
	.loc 1 1988 8
	bge	a5,zero,.L134
	.loc 1 1989 14
	li	a5,-1
	slli	a5,a5,63
	addi	a5,a5,9
	j	.L144
.L134:
	.loc 1 1992 14
	ld	a5,-56(s0)
	addi	a4,a5,128
	.loc 1 1995 25
	ld	a5,-56(s0)
	addi	a5,a5,120
	.loc 1 1992 14
	mv	a2,a5
	mv	a1,a4
	li	a0,8
	call	ConSplitterGrowBuffer
	sd	a0,-40(s0)
	.loc 1 1997 36
	ld	a5,-40(s0)
	.loc 1 1997 8
	bge	a5,zero,.L127
	.loc 1 1998 14
	li	a5,-1
	slli	a5,a5,63
	addi	a5,a5,9
	j	.L144
.L127:
	.loc 1 2005 13
	ld	a5,-56(s0)
	ld	a5,136(a5)
	sd	a5,-24(s0)
	.loc 1 2005 3
	j	.L135
.L143:
	.loc 1 2006 23
	ld	a5,-24(s0)
	addi	a5,a5,-40
	.loc 1 2006 156
	ld	a4,0(a5)
	.loc 1 2006 241
	li	a5,1850961920
	addi	a5,a5,-1708
	bne	a4,a5,.L136
	.loc 1 2006 19 discriminator 1
	ld	a5,-24(s0)
	addi	a5,a5,-40
	sd	a5,-32(s0)
	j	.L137
.L136:
	.loc 1 2006 19 is_stmt 0 discriminator 2
	sd	zero,-32(s0)
.L137:
	.loc 1 2007 22 is_stmt 1
	ld	a5,-64(s0)
	ld	a5,32(a5)
	.loc 1 2007 14
	ld	a4,-32(s0)
	addi	a1,a4,16
	ld	a4,-32(s0)
	ld	a2,32(a4)
	.loc 1 2011 47
	ld	a4,-32(s0)
	ld	a3,8(a4)
	.loc 1 2011 73
	ld	a4,-56(s0)
	ld	a4,112(a4)
	.loc 1 2011 65
	slli	a4,a4,3
	.loc 1 2007 14
	add	a4,a3,a4
	mv	a3,a4
	ld	a0,-64(s0)
	jalr	a5
.LVL30:
	sd	a0,-40(s0)
	.loc 1 2013 36
	ld	a5,-40(s0)
	.loc 1 2013 8
	bge	a5,zero,.L138
	.loc 1 2014 17
	ld	a5,-24(s0)
	ld	a5,8(a5)
	sd	a5,-24(s0)
	.loc 1 2014 7
	j	.L139
.L142:
	.loc 1 2015 27
	ld	a5,-24(s0)
	addi	a5,a5,-40
	.loc 1 2015 160
	ld	a4,0(a5)
	.loc 1 2015 245
	li	a5,1850961920
	addi	a5,a5,-1708
	bne	a4,a5,.L140
	.loc 1 2015 23 discriminator 1
	ld	a5,-24(s0)
	addi	a5,a5,-40
	sd	a5,-32(s0)
	j	.L141
.L140:
	.loc 1 2015 23 is_stmt 0 discriminator 2
	sd	zero,-32(s0)
.L141:
	.loc 1 2016 17 is_stmt 1
	ld	a5,-64(s0)
	ld	a5,40(a5)
	.loc 1 2018 34
	ld	a4,-32(s0)
	ld	a3,8(a4)
	.loc 1 2018 60
	ld	a4,-56(s0)
	ld	a4,112(a4)
	.loc 1 2018 52
	slli	a4,a4,3
	add	a4,a3,a4
	.loc 1 2016 9
	ld	a4,0(a4)
	mv	a1,a4
	ld	a0,-64(s0)
	jalr	a5
.LVL31:
	.loc 1 2014 70 discriminator 2
	ld	a5,-24(s0)
	ld	a5,8(a5)
	sd	a5,-24(s0)
.L139:
	.loc 1 2014 43 discriminator 1
	ld	a5,-56(s0)
	addi	a5,a5,136
	.loc 1 2014 40 discriminator 1
	ld	a4,-24(s0)
	bne	a4,a5,.L142
	.loc 1 2022 14
	ld	a5,-40(s0)
	j	.L144
.L138:
	.loc 1 2005 83 discriminator 2
	ld	a5,-24(s0)
	ld	a5,0(a5)
	sd	a5,-24(s0)
.L135:
	.loc 1 2005 56 discriminator 1
	ld	a5,-56(s0)
	addi	a5,a5,136
	.loc 1 2005 53 discriminator 1
	ld	a4,-24(s0)
	bne	a4,a5,.L143
	.loc 1 2029 10
	ld	a5,-56(s0)
	ld	a4,120(a5)
	.loc 1 2029 32
	ld	a5,-56(s0)
	ld	a5,112(a5)
	.loc 1 2029 24
	slli	a5,a5,3
	add	a5,a4,a5
	.loc 1 2029 61
	ld	a4,-64(s0)
	sd	a4,0(a5)
	.loc 1 2030 10
	ld	a5,-56(s0)
	ld	a5,112(a5)
	.loc 1 2030 37
	addi	a4,a5,1
	ld	a5,-56(s0)
	sd	a4,112(a5)
	.loc 1 2035 11
	ld	a5,-64(s0)
	ld	a5,24(a5)
	.loc 1 2035 3
	ld	a4,-56(s0)
	addi	a4,a4,168
	mv	a1,a4
	ld	a0,-64(s0)
	jalr	a5
.LVL32:
	.loc 1 2040 6
	la	a5,gBS
	ld	a5,0(a5)
	ld	a5,120(a5)
	.loc 1 2040 3
	ld	a4,-64(s0)
	ld	a4,16(a4)
	mv	a0,a4
	jalr	a5
.LVL33:
	.loc 1 2042 10
	li	a5,0
.L144:
	.loc 1 2043 1
	mv	a0,a5
	ld	ra,56(sp)
	.cfi_restore 1
	ld	s0,48(sp)
	.cfi_restore 8
	.cfi_def_cfa 2, 64
	addi	sp,sp,64
	.cfi_def_cfa_offset 0
	jr	ra
	.cfi_endproc
.LFE27:
	.size	ConSplitterTextInExAddDevice, .-ConSplitterTextInExAddDevice
	.section	.text.ConSplitterTextInExDeleteDevice,"ax",@progbits
	.align	1
	.globl	ConSplitterTextInExDeleteDevice
	.type	ConSplitterTextInExDeleteDevice, @function
ConSplitterTextInExDeleteDevice:
.LFB28:
	.loc 1 2060 1
	.cfi_startproc
	addi	sp,sp,-48
	.cfi_def_cfa_offset 48
	sd	ra,40(sp)
	sd	s0,32(sp)
	.cfi_offset 1, -8
	.cfi_offset 8, -16
	addi	s0,sp,48
	.cfi_def_cfa 8, 0
	sd	a0,-40(s0)
	sd	a1,-48(s0)
	.loc 1 2067 14
	sd	zero,-24(s0)
	.loc 1 2067 3
	j	.L146
.L151:
	.loc 1 2068 16
	ld	a5,-40(s0)
	ld	a4,120(a5)
	.loc 1 2068 30
	ld	a5,-24(s0)
	slli	a5,a5,3
	add	a5,a4,a5
	ld	a5,0(a5)
	.loc 1 2068 8
	ld	a4,-48(s0)
	bne	a4,a5,.L147
	.loc 1 2069 7
	j	.L148
.L149:
	.loc 1 2070 47
	ld	a5,-40(s0)
	ld	a4,120(a5)
	.loc 1 2070 61
	ld	a5,-24(s0)
	addi	a5,a5,1
	slli	a5,a5,3
	add	a4,a4,a5
	.loc 1 2070 16
	ld	a5,-40(s0)
	ld	a3,120(a5)
	.loc 1 2070 30
	ld	a5,-24(s0)
	slli	a5,a5,3
	add	a5,a3,a5
	.loc 1 2070 61
	ld	a4,0(a4)
	.loc 1 2070 38
	sd	a4,0(a5)
	.loc 1 2069 68 discriminator 2
	ld	a5,-24(s0)
	addi	a5,a5,1
	sd	a5,-24(s0)
.L148:
	.loc 1 2069 30 discriminator 1
	ld	a5,-40(s0)
	ld	a5,112(a5)
	.loc 1 2069 58 discriminator 1
	addi	a5,a5,-1
	.loc 1 2069 21 discriminator 1
	ld	a4,-24(s0)
	bltu	a4,a5,.L149
	.loc 1 2073 14
	ld	a5,-40(s0)
	ld	a5,112(a5)
	.loc 1 2073 41
	addi	a4,a5,-1
	ld	a5,-40(s0)
	sd	a4,112(a5)
	.loc 1 2074 14
	li	a5,0
	j	.L150
.L147:
	.loc 1 2067 68 discriminator 2
	ld	a5,-24(s0)
	addi	a5,a5,1
	sd	a5,-24(s0)
.L146:
	.loc 1 2067 34 discriminator 1
	ld	a5,-40(s0)
	ld	a5,112(a5)
	.loc 1 2067 25 discriminator 1
	ld	a4,-24(s0)
	bltu	a4,a5,.L151
	.loc 1 2078 10
	li	a5,-1
	slli	a5,a5,63
	addi	a5,a5,14
.L150:
	.loc 1 2079 1
	mv	a0,a5
	ld	ra,40(sp)
	.cfi_restore 1
	ld	s0,32(sp)
	.cfi_restore 8
	.cfi_def_cfa 2, 48
	addi	sp,sp,48
	.cfi_def_cfa_offset 0
	jr	ra
	.cfi_endproc
.LFE28:
	.size	ConSplitterTextInExDeleteDevice, .-ConSplitterTextInExDeleteDevice
	.section	.text.ConSplitterSimplePointerAddDevice,"ax",@progbits
	.align	1
	.globl	ConSplitterSimplePointerAddDevice
	.type	ConSplitterSimplePointerAddDevice, @function
ConSplitterSimplePointerAddDevice:
.LFB29:
	.loc 1 2096 1
	.cfi_startproc
	addi	sp,sp,-48
	.cfi_def_cfa_offset 48
	sd	ra,40(sp)
	sd	s0,32(sp)
	.cfi_offset 1, -8
	.cfi_offset 8, -16
	addi	s0,sp,48
	.cfi_def_cfa 8, 0
	sd	a0,-40(s0)
	sd	a1,-48(s0)
	.loc 1 2102 14
	ld	a5,-40(s0)
	ld	a4,240(a5)
	.loc 1 2102 50
	ld	a5,-40(s0)
	ld	a5,256(a5)
	.loc 1 2102 6
	bltu	a4,a5,.L153
	.loc 1 2103 14
	ld	a5,-40(s0)
	addi	a4,a5,256
	.loc 1 2106 25
	ld	a5,-40(s0)
	addi	a5,a5,248
	.loc 1 2103 14
	mv	a2,a5
	mv	a1,a4
	li	a0,8
	call	ConSplitterGrowBuffer
	sd	a0,-24(s0)
	.loc 1 2108 36
	ld	a5,-24(s0)
	.loc 1 2108 8
	bge	a5,zero,.L153
	.loc 1 2109 14
	li	a5,-1
	slli	a5,a5,63
	addi	a5,a5,9
	j	.L154
.L153:
	.loc 1 2116 10
	ld	a5,-40(s0)
	ld	a4,248(a5)
	.loc 1 2116 31
	ld	a5,-40(s0)
	ld	a5,240(a5)
	.loc 1 2116 23
	slli	a5,a5,3
	add	a5,a4,a5
	.loc 1 2116 58
	ld	a4,-48(s0)
	sd	a4,0(a5)
	.loc 1 2117 10
	ld	a5,-40(s0)
	ld	a5,240(a5)
	.loc 1 2117 35
	addi	a4,a5,1
	ld	a5,-40(s0)
	sd	a4,240(a5)
	.loc 1 2119 10
	li	a5,0
.L154:
	.loc 1 2120 1
	mv	a0,a5
	ld	ra,40(sp)
	.cfi_restore 1
	ld	s0,32(sp)
	.cfi_restore 8
	.cfi_def_cfa 2, 48
	addi	sp,sp,48
	.cfi_def_cfa_offset 0
	jr	ra
	.cfi_endproc
.LFE29:
	.size	ConSplitterSimplePointerAddDevice, .-ConSplitterSimplePointerAddDevice
	.section	.text.ConSplitterSimplePointerDeleteDevice,"ax",@progbits
	.align	1
	.globl	ConSplitterSimplePointerDeleteDevice
	.type	ConSplitterSimplePointerDeleteDevice, @function
ConSplitterSimplePointerDeleteDevice:
.LFB30:
	.loc 1 2137 1
	.cfi_startproc
	addi	sp,sp,-48
	.cfi_def_cfa_offset 48
	sd	ra,40(sp)
	sd	s0,32(sp)
	.cfi_offset 1, -8
	.cfi_offset 8, -16
	addi	s0,sp,48
	.cfi_def_cfa 8, 0
	sd	a0,-40(s0)
	sd	a1,-48(s0)
	.loc 1 2144 14
	sd	zero,-24(s0)
	.loc 1 2144 3
	j	.L156
.L161:
	.loc 1 2145 16
	ld	a5,-40(s0)
	ld	a4,248(a5)
	.loc 1 2145 29
	ld	a5,-24(s0)
	slli	a5,a5,3
	add	a5,a4,a5
	ld	a5,0(a5)
	.loc 1 2145 8
	ld	a4,-48(s0)
	bne	a4,a5,.L157
	.loc 1 2146 7
	j	.L158
.L159:
	.loc 1 2147 46
	ld	a5,-40(s0)
	ld	a4,248(a5)
	.loc 1 2147 59
	ld	a5,-24(s0)
	addi	a5,a5,1
	slli	a5,a5,3
	add	a4,a4,a5
	.loc 1 2147 16
	ld	a5,-40(s0)
	ld	a3,248(a5)
	.loc 1 2147 29
	ld	a5,-24(s0)
	slli	a5,a5,3
	add	a5,a3,a5
	.loc 1 2147 59
	ld	a4,0(a4)
	.loc 1 2147 37
	sd	a4,0(a5)
	.loc 1 2146 66 discriminator 2
	ld	a5,-24(s0)
	addi	a5,a5,1
	sd	a5,-24(s0)
.L158:
	.loc 1 2146 30 discriminator 1
	ld	a5,-40(s0)
	ld	a5,240(a5)
	.loc 1 2146 56 discriminator 1
	addi	a5,a5,-1
	.loc 1 2146 21 discriminator 1
	ld	a4,-24(s0)
	bltu	a4,a5,.L159
	.loc 1 2150 14
	ld	a5,-40(s0)
	ld	a5,240(a5)
	.loc 1 2150 39
	addi	a4,a5,-1
	ld	a5,-40(s0)
	sd	a4,240(a5)
	.loc 1 2151 14
	li	a5,0
	j	.L160
.L157:
	.loc 1 2144 66 discriminator 2
	ld	a5,-24(s0)
	addi	a5,a5,1
	sd	a5,-24(s0)
.L156:
	.loc 1 2144 34 discriminator 1
	ld	a5,-40(s0)
	ld	a5,240(a5)
	.loc 1 2144 25 discriminator 1
	ld	a4,-24(s0)
	bltu	a4,a5,.L161
	.loc 1 2155 10
	li	a5,-1
	slli	a5,a5,63
	addi	a5,a5,14
.L160:
	.loc 1 2156 1
	mv	a0,a5
	ld	ra,40(sp)
	.cfi_restore 1
	ld	s0,32(sp)
	.cfi_restore 8
	.cfi_def_cfa 2, 48
	addi	sp,sp,48
	.cfi_def_cfa_offset 0
	jr	ra
	.cfi_endproc
.LFE30:
	.size	ConSplitterSimplePointerDeleteDevice, .-ConSplitterSimplePointerDeleteDevice
	.section	.text.ConSplitterAbsolutePointerAddDevice,"ax",@progbits
	.align	1
	.globl	ConSplitterAbsolutePointerAddDevice
	.type	ConSplitterAbsolutePointerAddDevice, @function
ConSplitterAbsolutePointerAddDevice:
.LFB31:
	.loc 1 2173 1
	.cfi_startproc
	addi	sp,sp,-48
	.cfi_def_cfa_offset 48
	sd	ra,40(sp)
	sd	s0,32(sp)
	.cfi_offset 1, -8
	.cfi_offset 8, -16
	addi	s0,sp,48
	.cfi_def_cfa 8, 0
	sd	a0,-40(s0)
	sd	a1,-48(s0)
	.loc 1 2179 14
	ld	a5,-40(s0)
	ld	a4,352(a5)
	.loc 1 2179 58
	ld	a5,-40(s0)
	ld	a5,368(a5)
	.loc 1 2179 6
	bltu	a4,a5,.L163
	.loc 1 2180 14
	ld	a5,-40(s0)
	addi	a4,a5,368
	.loc 1 2183 25
	ld	a5,-40(s0)
	addi	a5,a5,360
	.loc 1 2180 14
	mv	a2,a5
	mv	a1,a4
	li	a0,8
	call	ConSplitterGrowBuffer
	sd	a0,-24(s0)
	.loc 1 2185 36
	ld	a5,-24(s0)
	.loc 1 2185 8
	bge	a5,zero,.L163
	.loc 1 2186 14
	li	a5,-1
	slli	a5,a5,63
	addi	a5,a5,9
	j	.L164
.L163:
	.loc 1 2193 10
	ld	a5,-40(s0)
	ld	a4,360(a5)
	.loc 1 2193 39
	ld	a5,-40(s0)
	ld	a5,352(a5)
	.loc 1 2193 31
	slli	a5,a5,3
	add	a5,a4,a5
	.loc 1 2193 74
	ld	a4,-48(s0)
	sd	a4,0(a5)
	.loc 1 2194 10
	ld	a5,-40(s0)
	ld	a5,352(a5)
	.loc 1 2194 43
	addi	a4,a5,1
	ld	a5,-40(s0)
	sd	a4,352(a5)
	.loc 1 2196 10
	li	a5,0
.L164:
	.loc 1 2197 1
	mv	a0,a5
	ld	ra,40(sp)
	.cfi_restore 1
	ld	s0,32(sp)
	.cfi_restore 8
	.cfi_def_cfa 2, 48
	addi	sp,sp,48
	.cfi_def_cfa_offset 0
	jr	ra
	.cfi_endproc
.LFE31:
	.size	ConSplitterAbsolutePointerAddDevice, .-ConSplitterAbsolutePointerAddDevice
	.section	.text.ConSplitterAbsolutePointerDeleteDevice,"ax",@progbits
	.align	1
	.globl	ConSplitterAbsolutePointerDeleteDevice
	.type	ConSplitterAbsolutePointerDeleteDevice, @function
ConSplitterAbsolutePointerDeleteDevice:
.LFB32:
	.loc 1 2214 1
	.cfi_startproc
	addi	sp,sp,-48
	.cfi_def_cfa_offset 48
	sd	ra,40(sp)
	sd	s0,32(sp)
	.cfi_offset 1, -8
	.cfi_offset 8, -16
	addi	s0,sp,48
	.cfi_def_cfa 8, 0
	sd	a0,-40(s0)
	sd	a1,-48(s0)
	.loc 1 2221 14
	sd	zero,-24(s0)
	.loc 1 2221 3
	j	.L166
.L171:
	.loc 1 2222 16
	ld	a5,-40(s0)
	ld	a4,360(a5)
	.loc 1 2222 37
	ld	a5,-24(s0)
	slli	a5,a5,3
	add	a5,a4,a5
	ld	a5,0(a5)
	.loc 1 2222 8
	ld	a4,-48(s0)
	bne	a4,a5,.L167
	.loc 1 2223 7
	j	.L168
.L169:
	.loc 1 2224 54
	ld	a5,-40(s0)
	ld	a4,360(a5)
	.loc 1 2224 75
	ld	a5,-24(s0)
	addi	a5,a5,1
	slli	a5,a5,3
	add	a4,a4,a5
	.loc 1 2224 16
	ld	a5,-40(s0)
	ld	a3,360(a5)
	.loc 1 2224 37
	ld	a5,-24(s0)
	slli	a5,a5,3
	add	a5,a3,a5
	.loc 1 2224 75
	ld	a4,0(a4)
	.loc 1 2224 45
	sd	a4,0(a5)
	.loc 1 2223 74 discriminator 2
	ld	a5,-24(s0)
	addi	a5,a5,1
	sd	a5,-24(s0)
.L168:
	.loc 1 2223 30 discriminator 1
	ld	a5,-40(s0)
	ld	a5,352(a5)
	.loc 1 2223 64 discriminator 1
	addi	a5,a5,-1
	.loc 1 2223 21 discriminator 1
	ld	a4,-24(s0)
	bltu	a4,a5,.L169
	.loc 1 2227 14
	ld	a5,-40(s0)
	ld	a5,352(a5)
	.loc 1 2227 47
	addi	a4,a5,-1
	ld	a5,-40(s0)
	sd	a4,352(a5)
	.loc 1 2228 14
	li	a5,0
	j	.L170
.L167:
	.loc 1 2221 74 discriminator 2
	ld	a5,-24(s0)
	addi	a5,a5,1
	sd	a5,-24(s0)
.L166:
	.loc 1 2221 34 discriminator 1
	ld	a5,-40(s0)
	ld	a5,352(a5)
	.loc 1 2221 25 discriminator 1
	ld	a4,-24(s0)
	bltu	a4,a5,.L171
	.loc 1 2232 10
	li	a5,-1
	slli	a5,a5,63
	addi	a5,a5,14
.L170:
	.loc 1 2233 1
	mv	a0,a5
	ld	ra,40(sp)
	.cfi_restore 1
	ld	s0,32(sp)
	.cfi_restore 8
	.cfi_def_cfa 2, 48
	addi	sp,sp,48
	.cfi_def_cfa_offset 0
	jr	ra
	.cfi_endproc
.LFE32:
	.size	ConSplitterAbsolutePointerDeleteDevice, .-ConSplitterAbsolutePointerDeleteDevice
	.section	.text.ConSplitterGrowMapTable,"ax",@progbits
	.align	1
	.globl	ConSplitterGrowMapTable
	.type	ConSplitterGrowMapTable, @function
ConSplitterGrowMapTable:
.LFB33:
	.loc 1 2250 1
	.cfi_startproc
	addi	sp,sp,-112
	.cfi_def_cfa_offset 112
	sd	ra,104(sp)
	sd	s0,96(sp)
	.cfi_offset 1, -8
	.cfi_offset 8, -16
	addi	s0,sp,112
	.cfi_def_cfa 8, 0
	sd	a0,-104(s0)
	.loc 1 2261 20
	ld	a5,-104(s0)
	ld	a5,232(a5)
	.loc 1 2261 11
	slli	a5,a5,2
	sd	a5,-48(s0)
	.loc 1 2262 21
	ld	a5,-104(s0)
	ld	a5,256(a5)
	sd	a5,-56(s0)
	.loc 1 2263 33
	ld	a5,-104(s0)
	ld	a5,248(a5)
	.loc 1 2263 13
	ld	a4,-48(s0)
	mul	a5,a4,a5
	sd	a5,-64(s0)
	.loc 1 2268 20
	ld	a0,-64(s0)
	call	AllocatePool@plt
	sd	a0,-24(s0)
	.loc 1 2269 6
	ld	a5,-24(s0)
	bne	a5,zero,.L173
	.loc 1 2270 12
	li	a5,-1
	slli	a5,a5,63
	addi	a5,a5,9
	j	.L174
.L173:
	.loc 1 2273 3
	li	a2,255
	ld	a1,-64(s0)
	ld	a0,-24(s0)
	call	SetMem@plt
	.loc 1 2274 27
	ld	a5,-104(s0)
	ld	a4,-24(s0)
	sd	a4,256(a5)
	.loc 1 2292 6
	ld	a5,-56(s0)
	beq	a5,zero,.L175
	.loc 1 2293 19
	ld	a5,-104(s0)
	ld	a5,216(a5)
	.loc 1 2293 10
	slli	a5,a5,2
	sd	a5,-72(s0)
	.loc 1 2294 11
	sw	zero,-36(s0)
	.loc 1 2295 16
	ld	a5,-56(s0)
	sd	a5,-32(s0)
	.loc 1 2296 17
	ld	a5,-48(s0)
	srli	a5,a5,2
	sd	a5,-80(s0)
	.loc 1 2301 17
	ld	a5,-80(s0)
	addi	a5,a5,-32
	sd	a5,-88(s0)
	.loc 1 2306 11
	j	.L176
.L177:
	.loc 1 2307 7
	ld	a2,-72(s0)
	ld	a1,-32(s0)
	ld	a0,-24(s0)
	call	CopyMem@plt
	.loc 1 2311 22
	ld	a5,-80(s0)
	slli	a5,a5,2
	ld	a4,-24(s0)
	add	a5,a4,a5
	sd	a5,-24(s0)
	.loc 1 2315 18
	ld	a5,-88(s0)
	slli	a5,a5,2
	ld	a4,-32(s0)
	add	a5,a4,a5
	sd	a5,-32(s0)
	.loc 1 2316 12
	lw	a5,-36(s0)
	addiw	a5,a5,1
	sw	a5,-36(s0)
.L176:
	.loc 1 2306 40
	ld	a5,-104(s0)
	lw	a5,96(a5)
	.loc 1 2306 18
	lw	a4,-36(s0)
	sext.w	a4,a4
	blt	a4,a5,.L177
	.loc 1 2322 5
	ld	a0,-56(s0)
	call	FreePool@plt
.L175:
	.loc 1 2325 10
	li	a5,0
.L174:
	.loc 1 2326 1
	mv	a0,a5
	ld	ra,104(sp)
	.cfi_restore 1
	ld	s0,96(sp)
	.cfi_restore 8
	.cfi_def_cfa 2, 112
	addi	sp,sp,112
	.cfi_def_cfa_offset 0
	jr	ra
	.cfi_endproc
.LFE33:
	.size	ConSplitterGrowMapTable, .-ConSplitterGrowMapTable
	.section	.text.ConSplitterAddOutputMode,"ax",@progbits
	.align	1
	.globl	ConSplitterAddOutputMode
	.type	ConSplitterAddOutputMode, @function
ConSplitterAddOutputMode:
.LFB34:
	.loc 1 2343 1
	.cfi_startproc
	addi	sp,sp,-64
	.cfi_def_cfa_offset 64
	sd	ra,56(sp)
	sd	s0,48(sp)
	.cfi_offset 1, -8
	.cfi_offset 8, -16
	addi	s0,sp,64
	.cfi_def_cfa 8, 0
	sd	a0,-56(s0)
	sd	a1,-64(s0)
	.loc 1 2349 20
	ld	a5,-64(s0)
	ld	a5,72(a5)
	.loc 1 2349 11
	lw	a5,0(a5)
	sw	a5,-36(s0)
	.loc 1 2350 32
	ld	a5,-56(s0)
	lw	a4,-36(s0)
	sw	a4,96(a5)
	.loc 1 2356 9
	j	.L179
.L181:
	.loc 1 2357 14
	ld	a5,-56(s0)
	addi	a4,a5,248
	.loc 1 2360 25
	ld	a5,-56(s0)
	addi	a5,a5,240
	.loc 1 2357 14
	mv	a2,a5
	mv	a1,a4
	li	a0,16
	call	ConSplitterGrowBuffer
	sd	a0,-48(s0)
	.loc 1 2362 36
	ld	a5,-48(s0)
	.loc 1 2362 8
	bge	a5,zero,.L179
	.loc 1 2363 14
	li	a5,-1
	slli	a5,a5,63
	addi	a5,a5,9
	j	.L180
.L179:
	.loc 1 2356 34
	ld	a5,-56(s0)
	ld	a5,248(a5)
	.loc 1 2356 20
	sext.w	a5,a5
	.loc 1 2356 18
	lw	a4,-36(s0)
	sext.w	a4,a4
	bgt	a4,a5,.L181
	.loc 1 2370 12
	ld	a0,-56(s0)
	call	ConSplitterGrowMapTable
	sd	a0,-48(s0)
	.loc 1 2371 34
	ld	a5,-48(s0)
	.loc 1 2371 6
	bge	a5,zero,.L182
	.loc 1 2372 12
	li	a5,-1
	slli	a5,a5,63
	addi	a5,a5,9
	j	.L180
.L182:
	.loc 1 2379 8
	sw	zero,-20(s0)
	.loc 1 2380 9
	sd	zero,-32(s0)
	.loc 1 2381 9
	j	.L183
.L185:
	.loc 1 2382 21
	ld	a5,-64(s0)
	ld	a5,24(a5)
	.loc 1 2382 14
	lw	a1,-20(s0)
	.loc 1 2385 33
	ld	a4,-56(s0)
	ld	a3,240(a4)
	.loc 1 2385 51
	lw	a4,-20(s0)
	slli	a4,a4,4
	add	a4,a3,a4
	.loc 1 2382 14
	mv	a2,a4
	.loc 1 2386 33
	ld	a4,-56(s0)
	ld	a3,240(a4)
	.loc 1 2386 51
	lw	a4,-20(s0)
	slli	a4,a4,4
	add	a4,a3,a4
	.loc 1 2382 14
	addi	a4,a4,8
	mv	a3,a4
	ld	a0,-64(s0)
	jalr	a5
.LVL34:
	sd	a0,-48(s0)
	.loc 1 2392 37
	ld	a5,-48(s0)
	.loc 1 2392 8
	bge	a5,zero,.L184
	.loc 1 2392 64 discriminator 1
	lw	a5,-20(s0)
	sext.w	a4,a5
	li	a5,1
	bne	a4,a5,.L184
	.loc 1 2393 14
	ld	a5,-56(s0)
	ld	a4,240(a5)
	.loc 1 2393 32
	lw	a5,-20(s0)
	slli	a5,a5,4
	add	a5,a4,a5
	.loc 1 2393 47
	sd	zero,0(a5)
	.loc 1 2394 14
	ld	a5,-56(s0)
	ld	a4,240(a5)
	.loc 1 2394 32
	lw	a5,-20(s0)
	slli	a5,a5,4
	add	a5,a4,a5
	.loc 1 2394 44
	sd	zero,8(a5)
.L184:
	.loc 1 2397 12
	ld	a5,-56(s0)
	ld	a4,256(a5)
	.loc 1 2397 28
	ld	a5,-32(s0)
	slli	a5,a5,2
	add	a5,a4,a5
	.loc 1 2397 36
	lw	a4,-20(s0)
	sw	a4,0(a5)
	.loc 1 2398 9
	lw	a5,-20(s0)
	addiw	a5,a5,1
	sw	a5,-20(s0)
	.loc 1 2399 21
	ld	a5,-56(s0)
	ld	a5,232(a5)
	.loc 1 2399 11
	ld	a4,-32(s0)
	add	a5,a4,a5
	sd	a5,-32(s0)
.L183:
	.loc 1 2381 15
	lw	a5,-20(s0)
	mv	a4,a5
	lw	a5,-36(s0)
	sext.w	a4,a4
	sext.w	a5,a5
	blt	a4,a5,.L185
	.loc 1 2402 10
	li	a5,0
.L180:
	.loc 1 2403 1
	mv	a0,a5
	ld	ra,56(sp)
	.cfi_restore 1
	ld	s0,48(sp)
	.cfi_restore 8
	.cfi_def_cfa 2, 64
	addi	sp,sp,64
	.cfi_def_cfa_offset 0
	jr	ra
	.cfi_endproc
.LFE34:
	.size	ConSplitterAddOutputMode, .-ConSplitterAddOutputMode
	.section	.text.ConSplitterGetIntersection,"ax",@progbits
	.align	1
	.globl	ConSplitterGetIntersection
	.type	ConSplitterGetIntersection, @function
ConSplitterGetIntersection:
.LFB35:
	.loc 1 2430 1
	.cfi_startproc
	addi	sp,sp,-112
	.cfi_def_cfa_offset 112
	sd	ra,104(sp)
	sd	s0,96(sp)
	.cfi_offset 1, -8
	.cfi_offset 8, -16
	addi	s0,sp,112
	.cfi_def_cfa 8, 0
	sd	a0,-72(s0)
	sd	a1,-80(s0)
	sd	a2,-88(s0)
	sd	a3,-96(s0)
	sd	a4,-104(s0)
	sd	a5,-112(s0)
	.loc 1 2443 9
	li	a5,2
	sw	a5,-20(s0)
	.loc 1 2444 36
	ld	a5,-88(s0)
	slli	a5,a5,3
	.loc 1 2444 19
	ld	a4,-72(s0)
	add	a5,a4,a5
	sd	a5,-32(s0)
	.loc 1 2445 16
	ld	a5,-32(s0)
	sd	a5,-40(s0)
	.loc 1 2446 31
	ld	a5,-96(s0)
	slli	a5,a5,3
	.loc 1 2446 15
	ld	a4,-80(s0)
	add	a5,a4,a5
	sd	a5,-48(s0)
	.loc 1 2448 18
	ld	a5,-104(s0)
	lw	a5,0(a5)
	sw	a5,-56(s0)
	.loc 1 2449 8
	ld	a5,-112(s0)
	lw	a5,0(a5)
	sw	a5,-52(s0)
	.loc 1 2451 9
	j	.L187
.L193:
	.loc 1 2452 9
	ld	a5,-48(s0)
	lw	a4,0(a5)
	.loc 1 2452 8
	li	a5,-1
	bne	a4,a5,.L188
	.loc 1 2457 20
	ld	a5,-112(s0)
	lw	a5,0(a5)
	.loc 1 2457 10
	lw	a4,-20(s0)
	sext.w	a4,a4
	bne	a4,a5,.L189
	.loc 1 2458 14
	li	a5,-1
	sw	a5,-52(s0)
	j	.L190
.L189:
	.loc 1 2459 26
	ld	a5,-112(s0)
	lw	a5,0(a5)
	.loc 1 2459 17
	lw	a4,-20(s0)
	sext.w	a4,a4
	bge	a4,a5,.L190
	.loc 1 2460 13
	lw	a5,-52(s0)
	addiw	a5,a5,-1
	sw	a5,-52(s0)
.L190:
	.loc 1 2463 8
	ld	a5,-104(s0)
	lw	a5,0(a5)
	.loc 1 2463 17
	addiw	a5,a5,-1
	sext.w	a4,a5
	ld	a5,-104(s0)
	sw	a4,0(a5)
	j	.L191
.L188:
	.loc 1 2465 10
	ld	a4,-32(s0)
	ld	a5,-40(s0)
	beq	a4,a5,.L192
	.loc 1 2466 61
	ld	a5,-88(s0)
	slli	a5,a5,2
	.loc 1 2466 9
	mv	a2,a5
	ld	a1,-32(s0)
	ld	a0,-40(s0)
	call	CopyMem@plt
.L192:
	.loc 1 2469 20
	ld	a5,-88(s0)
	slli	a5,a5,2
	ld	a4,-40(s0)
	add	a5,a4,a5
	sd	a5,-40(s0)
.L191:
	.loc 1 2472 21
	ld	a5,-88(s0)
	slli	a5,a5,2
	ld	a4,-32(s0)
	add	a5,a4,a5
	sd	a5,-32(s0)
	.loc 1 2473 17
	ld	a5,-96(s0)
	slli	a5,a5,2
	ld	a4,-48(s0)
	add	a5,a4,a5
	sd	a5,-48(s0)
	.loc 1 2474 10
	lw	a5,-20(s0)
	addiw	a5,a5,1
	sw	a5,-20(s0)
.L187:
	.loc 1 2451 16
	lw	a5,-20(s0)
	mv	a4,a5
	lw	a5,-56(s0)
	sext.w	a4,a4
	sext.w	a5,a5
	blt	a4,a5,.L193
	.loc 1 2477 16
	ld	a5,-112(s0)
	lw	a4,-52(s0)
	sw	a4,0(a5)
	.loc 1 2479 3
	nop
	.loc 1 2480 1
	ld	ra,104(sp)
	.cfi_restore 1
	ld	s0,96(sp)
	.cfi_restore 8
	.cfi_def_cfa 2, 112
	addi	sp,sp,112
	.cfi_def_cfa_offset 0
	jr	ra
	.cfi_endproc
.LFE35:
	.size	ConSplitterGetIntersection, .-ConSplitterGetIntersection
	.section	.text.ConSplitterSyncOutputMode,"ax",@progbits
	.align	1
	.globl	ConSplitterSyncOutputMode
	.type	ConSplitterSyncOutputMode, @function
ConSplitterSyncOutputMode:
.LFB36:
	.loc 1 2494 1
	.cfi_startproc
	addi	sp,sp,-112
	.cfi_def_cfa_offset 112
	sd	ra,104(sp)
	sd	s0,96(sp)
	.cfi_offset 1, -8
	.cfi_offset 8, -16
	addi	s0,sp,112
	.cfi_def_cfa 8, 0
	sd	a0,-104(s0)
	sd	a1,-112(s0)
	.loc 1 2510 18
	ld	a5,-104(s0)
	lw	a5,96(a5)
	sw	a5,-28(s0)
	.loc 1 2511 18
	ld	a5,-104(s0)
	ld	a5,256(a5)
	sd	a5,-40(s0)
	.loc 1 2512 12
	ld	a5,-104(s0)
	ld	a5,232(a5)
	sd	a5,-48(s0)
	.loc 1 2513 20
	ld	a5,-104(s0)
	ld	a5,240(a5)
	sd	a5,-56(s0)
	.loc 1 2518 8
	sw	zero,-20(s0)
	.loc 1 2519 38
	ld	a5,-104(s0)
	ld	a5,216(a5)
	.loc 1 2519 29
	slli	a5,a5,2
	.loc 1 2519 12
	ld	a4,-40(s0)
	add	a5,a4,a5
	sd	a5,-64(s0)
	.loc 1 2520 9
	j	.L196
.L204:
	.loc 1 2521 21
	ld	a5,-112(s0)
	ld	a5,24(a5)
	.loc 1 2521 14
	lw	a4,-20(s0)
	addi	a3,s0,-88
	addi	a2,s0,-96
	mv	a1,a4
	ld	a0,-112(s0)
	jalr	a5
.LVL35:
	sd	a0,-72(s0)
	.loc 1 2523 36
	ld	a5,-72(s0)
	.loc 1 2523 8
	bge	a5,zero,.L197
	.loc 1 2524 10
	lw	a5,-20(s0)
	sext.w	a4,a5
	li	a5,1
	bne	a4,a5,.L198
	.loc 1 2529 17
	ld	a5,-48(s0)
	slli	a5,a5,2
	ld	a4,-64(s0)
	add	a5,a4,a5
	.loc 1 2529 28
	lw	a4,-20(s0)
	sw	a4,0(a5)
	.loc 1 2530 25
	lw	a5,-20(s0)
	slli	a5,a5,4
	ld	a4,-56(s0)
	add	a5,a4,a5
	.loc 1 2530 40
	sd	zero,0(a5)
	.loc 1 2531 25
	lw	a5,-20(s0)
	slli	a5,a5,4
	ld	a4,-56(s0)
	add	a5,a4,a5
	.loc 1 2531 37
	sd	zero,8(a5)
.L198:
	.loc 1 2534 11
	lw	a5,-20(s0)
	addiw	a5,a5,1
	sw	a5,-20(s0)
	.loc 1 2535 7
	j	.L196
.L197:
	.loc 1 2541 11
	sw	zero,-24(s0)
	.loc 1 2542 11
	j	.L200
.L203:
	.loc 1 2543 44
	lw	a4,-24(s0)
	ld	a5,-48(s0)
	mul	a5,a4,a5
	.loc 1 2543 36
	slli	a5,a5,2
	ld	a4,-40(s0)
	add	a5,a4,a5
	.loc 1 2543 17
	lw	a5,0(a5)
	sw	a5,-76(s0)
	.loc 1 2544 28
	lw	a5,-76(s0)
	slli	a5,a5,4
	ld	a4,-56(s0)
	add	a5,a4,a5
	.loc 1 2544 39
	ld	a4,8(a5)
	.loc 1 2544 45
	ld	a5,-88(s0)
	.loc 1 2544 10
	bne	a4,a5,.L201
	.loc 1 2544 74 discriminator 1
	lw	a5,-76(s0)
	slli	a5,a5,4
	ld	a4,-56(s0)
	add	a5,a4,a5
	.loc 1 2544 85 discriminator 1
	ld	a4,0(a5)
	.loc 1 2544 94 discriminator 1
	ld	a5,-96(s0)
	.loc 1 2544 54 discriminator 1
	bne	a4,a5,.L201
	.loc 1 2545 24
	lw	a4,-24(s0)
	ld	a5,-48(s0)
	mul	a5,a4,a5
	.loc 1 2545 17
	slli	a5,a5,2
	ld	a4,-64(s0)
	add	a5,a4,a5
	.loc 1 2545 36
	lw	a4,-20(s0)
	sw	a4,0(a5)
	.loc 1 2546 9
	j	.L202
.L201:
	.loc 1 2549 12
	lw	a5,-24(s0)
	addiw	a5,a5,1
	sw	a5,-24(s0)
.L200:
	.loc 1 2542 18
	lw	a5,-24(s0)
	mv	a4,a5
	lw	a5,-28(s0)
	sext.w	a4,a4
	sext.w	a5,a5
	blt	a4,a5,.L203
.L202:
	.loc 1 2552 9
	lw	a5,-20(s0)
	addiw	a5,a5,1
	sw	a5,-20(s0)
.L196:
	.loc 1 2520 24
	ld	a5,-112(s0)
	ld	a5,72(a5)
	.loc 1 2520 30
	lw	a5,0(a5)
	.loc 1 2520 15
	lw	a4,-20(s0)
	sext.w	a4,a4
	blt	a4,a5,.L204
	.loc 1 2559 3
	ld	a5,-104(s0)
	addi	a4,a5,96
	ld	a5,-104(s0)
	addi	a5,a5,100
	ld	a3,-48(s0)
	ld	a2,-48(s0)
	ld	a1,-64(s0)
	ld	a0,-40(s0)
	call	ConSplitterGetIntersection
	.loc 1 2568 3
	nop
	.loc 1 2569 1
	ld	ra,104(sp)
	.cfi_restore 1
	ld	s0,96(sp)
	.cfi_restore 8
	.cfi_def_cfa 2, 112
	addi	sp,sp,112
	.cfi_def_cfa_offset 0
	jr	ra
	.cfi_endproc
.LFE36:
	.size	ConSplitterSyncOutputMode, .-ConSplitterSyncOutputMode
	.section	.text.ConSplitterGetIntersectionBetweenConOutAndStrErr,"ax",@progbits
	.align	1
	.globl	ConSplitterGetIntersectionBetweenConOutAndStrErr
	.type	ConSplitterGetIntersectionBetweenConOutAndStrErr, @function
ConSplitterGetIntersectionBetweenConOutAndStrErr:
.LFB37:
	.loc 1 2582 1
	.cfi_startproc
	addi	sp,sp,-224
	.cfi_def_cfa_offset 224
	sd	ra,216(sp)
	sd	s0,208(sp)
	.cfi_offset 1, -8
	.cfi_offset 8, -16
	addi	s0,sp,224
	.cfi_def_cfa 8, 0
	.loc 1 2611 23
	lla	a5,mConOut
	ld	a5,216(a5)
	sd	a5,-72(s0)
	.loc 1 2612 23
	lla	a5,mStdErr
	ld	a5,216(a5)
	sd	a5,-80(s0)
	.loc 1 2613 21
	lla	a5,mConOut
	ld	a5,224(a5)
	sd	a5,-24(s0)
	.loc 1 2614 21
	lla	a5,mStdErr
	ld	a5,224(a5)
	sd	a5,-32(s0)
	.loc 1 2616 10
	sd	zero,-40(s0)
	.loc 1 2617 23
	sb	zero,-57(s0)
	.loc 1 2618 9
	j	.L207
.L213:
	.loc 1 2619 12
	sd	zero,-48(s0)
	.loc 1 2620 11
	j	.L208
.L211:
	.loc 1 2621 28
	ld	a5,-24(s0)
	ld	a4,16(a5)
	.loc 1 2621 58
	ld	a5,-32(s0)
	ld	a5,16(a5)
	.loc 1 2621 10
	bne	a4,a5,.L209
	.loc 1 2622 29
	li	a5,1
	sb	a5,-57(s0)
	.loc 1 2623 9
	j	.L210
.L209:
	.loc 1 2626 13
	ld	a5,-48(s0)
	addi	a5,a5,1
	sd	a5,-48(s0)
	.loc 1 2627 24
	ld	a5,-32(s0)
	addi	a5,a5,24
	sd	a5,-32(s0)
.L208:
	.loc 1 2620 19
	ld	a4,-48(s0)
	ld	a5,-80(s0)
	bltu	a4,a5,.L211
.L210:
	.loc 1 2630 11
	ld	a5,-40(s0)
	addi	a5,a5,1
	sd	a5,-40(s0)
	.loc 1 2631 22
	ld	a5,-24(s0)
	addi	a5,a5,24
	sd	a5,-24(s0)
.L207:
	.loc 1 2618 41
	ld	a4,-40(s0)
	ld	a5,-72(s0)
	bgeu	a4,a5,.L212
	.loc 1 2618 41 is_stmt 0 discriminator 1
	lbu	a5,-57(s0)
	andi	a5,a5,0xff
	beq	a5,zero,.L213
.L212:
	.loc 1 2634 6 is_stmt 1
	lbu	a5,-57(s0)
	andi	a5,a5,0xff
	bne	a5,zero,.L214
	.loc 1 2635 12
	li	a5,0
	j	.L215
.L214:
	.loc 1 2641 17
	lla	a5,mConOut
	lw	a5,96(a5)
	sw	a5,-84(s0)
	.loc 1 2642 17
	lla	a5,mConOut
	ld	a5,256(a5)
	sd	a5,-96(s0)
	.loc 1 2643 18
	lla	a5,mConOut
	ld	a5,232(a5)
	sd	a5,-104(s0)
	.loc 1 2644 19
	lla	a5,mConOut
	ld	a5,240(a5)
	sd	a5,-112(s0)
	.loc 1 2646 17
	lla	a5,mStdErr
	lw	a5,96(a5)
	sw	a5,-116(s0)
	.loc 1 2647 17
	lla	a5,mStdErr
	ld	a5,256(a5)
	sd	a5,-128(s0)
	.loc 1 2648 18
	lla	a5,mStdErr
	ld	a5,232(a5)
	sd	a5,-136(s0)
	.loc 1 2649 19
	lla	a5,mStdErr
	ld	a5,240(a5)
	sd	a5,-144(s0)
	.loc 1 2654 38
	lw	a5,-84(s0)
	.loc 1 2654 22
	slli	a5,a5,2
	sd	a5,-152(s0)
	.loc 1 2655 20
	ld	a0,-152(s0)
	call	AllocateZeroPool@plt
	sd	a0,-160(s0)
	.loc 1 2656 6
	ld	a5,-160(s0)
	bne	a5,zero,.L216
	.loc 1 2657 12
	li	a5,-1
	slli	a5,a5,63
	addi	a5,a5,9
	j	.L215
.L216:
	.loc 1 2660 3
	li	a2,255
	ld	a1,-152(s0)
	ld	a0,-160(s0)
	call	SetMem@plt
	.loc 1 2662 38
	lw	a5,-116(s0)
	.loc 1 2662 22
	slli	a5,a5,2
	sd	a5,-168(s0)
	.loc 1 2663 20
	ld	a0,-168(s0)
	call	AllocateZeroPool@plt
	sd	a0,-176(s0)
	.loc 1 2664 6
	ld	a5,-176(s0)
	bne	a5,zero,.L217
	.loc 1 2665 12
	li	a5,-1
	slli	a5,a5,63
	addi	a5,a5,9
	j	.L215
.L217:
	.loc 1 2668 3
	li	a2,255
	ld	a1,-168(s0)
	ld	a0,-176(s0)
	call	SetMem@plt
	.loc 1 2674 8
	sw	zero,-52(s0)
	.loc 1 2675 9
	j	.L218
.L223:
	.loc 1 2679 11
	sw	zero,-56(s0)
	.loc 1 2680 41
	lw	a4,-52(s0)
	ld	a5,-104(s0)
	mul	a5,a4,a5
	.loc 1 2680 34
	slli	a5,a5,2
	ld	a4,-96(s0)
	add	a5,a4,a5
	.loc 1 2680 16
	lw	a5,0(a5)
	sw	a5,-180(s0)
	.loc 1 2681 33
	lw	a5,-180(s0)
	slli	a5,a5,4
	ld	a4,-112(s0)
	add	a5,a4,a5
	.loc 1 2681 16
	ld	a5,8(a5)
	sd	a5,-192(s0)
	.loc 1 2682 36
	lw	a5,-180(s0)
	slli	a5,a5,4
	ld	a4,-112(s0)
	add	a5,a4,a5
	.loc 1 2682 19
	ld	a5,0(a5)
	sd	a5,-200(s0)
	.loc 1 2683 11
	j	.L219
.L222:
	.loc 1 2684 44
	lw	a4,-56(s0)
	ld	a5,-136(s0)
	mul	a5,a4,a5
	.loc 1 2684 36
	slli	a5,a5,2
	ld	a4,-128(s0)
	add	a5,a4,a5
	.loc 1 2684 18
	lw	a5,0(a5)
	sw	a5,-204(s0)
	.loc 1 2685 35
	lw	a5,-204(s0)
	slli	a5,a5,4
	ld	a4,-144(s0)
	add	a5,a4,a5
	.loc 1 2685 18
	ld	a5,8(a5)
	sd	a5,-216(s0)
	.loc 1 2686 38
	lw	a5,-204(s0)
	slli	a5,a5,4
	ld	a4,-144(s0)
	add	a5,a4,a5
	.loc 1 2686 21
	ld	a5,0(a5)
	sd	a5,-224(s0)
	.loc 1 2687 10
	ld	a4,-216(s0)
	ld	a5,-192(s0)
	bne	a4,a5,.L220
	.loc 1 2687 38 discriminator 1
	ld	a4,-224(s0)
	ld	a5,-200(s0)
	bne	a4,a5,.L220
	.loc 1 2688 23
	lw	a5,-52(s0)
	slli	a5,a5,2
	ld	a4,-160(s0)
	add	a5,a4,a5
	.loc 1 2688 30
	li	a4,1
	sw	a4,0(a5)
	.loc 1 2689 23
	lw	a5,-56(s0)
	slli	a5,a5,2
	ld	a4,-176(s0)
	add	a5,a4,a5
	.loc 1 2689 31
	li	a4,1
	sw	a4,0(a5)
	.loc 1 2690 9
	j	.L221
.L220:
	.loc 1 2693 12
	lw	a5,-56(s0)
	addiw	a5,a5,1
	sw	a5,-56(s0)
.L219:
	.loc 1 2683 18
	lw	a5,-56(s0)
	mv	a4,a5
	lw	a5,-116(s0)
	sext.w	a4,a4
	sext.w	a5,a5
	blt	a4,a5,.L222
.L221:
	.loc 1 2696 9
	lw	a5,-52(s0)
	addiw	a5,a5,1
	sw	a5,-52(s0)
.L218:
	.loc 1 2675 15
	lw	a5,-52(s0)
	mv	a4,a5
	lw	a5,-84(s0)
	sext.w	a4,a4
	sext.w	a5,a5
	blt	a4,a5,.L223
	.loc 1 2703 3
	lla	a5,mConOut
	ld	a2,232(a5)
	lla	a5,mConOut+100
	lla	a4,mConOut+96
	li	a3,1
	ld	a1,-160(s0)
	ld	a0,-96(s0)
	call	ConSplitterGetIntersection
	.loc 1 2712 26
	lla	a5,mConOut
	lw	a5,100(a5)
	.loc 1 2712 6
	bge	a5,zero,.L224
	.loc 1 2713 20
	lla	a5,mConOut
	ld	a5,48(a5)
	.loc 1 2713 5
	li	a1,0
	lla	a0,mConOut+16
	jalr	a5
.LVL36:
.L224:
	.loc 1 2716 3
	lla	a5,mStdErr
	ld	a2,232(a5)
	lla	a5,mStdErr+100
	lla	a4,mStdErr+96
	li	a3,1
	ld	a1,-176(s0)
	ld	a0,-128(s0)
	call	ConSplitterGetIntersection
	.loc 1 2725 26
	lla	a5,mStdErr
	lw	a5,100(a5)
	.loc 1 2725 6
	bge	a5,zero,.L225
	.loc 1 2726 20
	lla	a5,mStdErr
	ld	a5,48(a5)
	.loc 1 2726 5
	li	a1,0
	lla	a0,mStdErr+16
	jalr	a5
.LVL37:
.L225:
	.loc 1 2729 3
	ld	a0,-160(s0)
	call	FreePool@plt
	.loc 1 2730 3
	ld	a0,-176(s0)
	call	FreePool@plt
	.loc 1 2732 10
	li	a5,0
.L215:
	.loc 1 2733 1
	mv	a0,a5
	ld	ra,216(sp)
	.cfi_restore 1
	ld	s0,208(sp)
	.cfi_restore 8
	.cfi_def_cfa 2, 224
	addi	sp,sp,224
	.cfi_def_cfa_offset 0
	jr	ra
	.cfi_endproc
.LFE37:
	.size	ConSplitterGetIntersectionBetweenConOutAndStrErr, .-ConSplitterGetIntersectionBetweenConOutAndStrErr
	.section	.text.ConSplitterAddGraphicsOutputMode,"ax",@progbits
	.align	1
	.globl	ConSplitterAddGraphicsOutputMode
	.type	ConSplitterAddGraphicsOutputMode, @function
ConSplitterAddGraphicsOutputMode:
.LFB38:
	.loc 1 2752 1
	.cfi_startproc
	addi	sp,sp,-160
	.cfi_def_cfa_offset 160
	sd	ra,152(sp)
	sd	s0,144(sp)
	.cfi_offset 1, -8
	.cfi_offset 8, -16
	addi	s0,sp,160
	.cfi_def_cfa 8, 0
	sd	a0,-136(s0)
	sd	a1,-144(s0)
	sd	a2,-152(s0)
	.loc 1 2772 29
	ld	a5,-136(s0)
	ld	a5,184(a5)
	sd	a5,-80(s0)
	.loc 1 2774 9
	sd	zero,-32(s0)
	.loc 1 2775 16
	sd	zero,-40(s0)
	.loc 1 2776 10
	sd	zero,-24(s0)
	.loc 1 2778 14
	ld	a5,-136(s0)
	ld	a5,208(a5)
	.loc 1 2778 6
	bne	a5,zero,.L270
	.loc 1 2787 6
	ld	a5,-144(s0)
	beq	a5,zero,.L229
	.loc 1 2788 16
	ld	a5,-136(s0)
	ld	a5,200(a5)
	.loc 1 2788 8
	bne	a5,zero,.L230
	.loc 1 2792 58
	ld	a5,-144(s0)
	ld	a5,24(a5)
	.loc 1 2792 64
	lw	a4,0(a5)
	.loc 1 2792 42
	ld	a5,-80(s0)
	sw	a4,0(a5)
	.loc 1 2793 55
	ld	a5,-144(s0)
	ld	a5,24(a5)
	.loc 1 2793 61
	lw	a4,4(a5)
	.loc 1 2793 39
	ld	a5,-80(s0)
	sw	a4,4(a5)
	.loc 1 2794 41
	ld	a5,-80(s0)
	ld	a4,8(a5)
	.loc 1 2794 63
	ld	a5,-144(s0)
	ld	a5,24(a5)
	.loc 1 2794 69
	ld	a3,8(a5)
	.loc 1 2794 91
	ld	a5,-144(s0)
	ld	a5,24(a5)
	.loc 1 2794 7
	ld	a5,16(a5)
	mv	a2,a5
	mv	a1,a3
	mv	a0,a4
	call	CopyMem@plt
	.loc 1 2795 61
	ld	a5,-144(s0)
	ld	a5,24(a5)
	.loc 1 2795 67
	ld	a4,16(a5)
	.loc 1 2795 45
	ld	a5,-80(s0)
	sd	a4,16(a5)
	.loc 1 2796 66
	ld	a5,-144(s0)
	ld	a5,24(a5)
	.loc 1 2796 72
	ld	a4,24(a5)
	.loc 1 2796 50
	ld	a5,-80(s0)
	sd	a4,24(a5)
	.loc 1 2797 66
	ld	a5,-144(s0)
	ld	a5,24(a5)
	.loc 1 2797 72
	ld	a4,32(a5)
	.loc 1 2797 50
	ld	a5,-80(s0)
	sd	a4,32(a5)
	.loc 1 2802 96
	ld	a5,-144(s0)
	ld	a5,24(a5)
	.loc 1 2802 102
	lw	a5,0(a5)
	slli	a4,a5,32
	srli	a4,a4,32
	.loc 1 2802 80
	mv	a5,a4
	slli	a5,a5,3
	add	a5,a5,a4
	slli	a5,a5,2
	.loc 1 2802 20
	mv	a0,a5
	call	AllocatePool@plt
	sd	a0,-88(s0)
	.loc 1 2803 10
	ld	a5,-88(s0)
	bne	a5,zero,.L231
	.loc 1 2804 16
	li	a5,-1
	slli	a5,a5,63
	addi	a5,a5,9
	j	.L269
.L231:
	.loc 1 2807 24
	ld	a5,-136(s0)
	ld	a5,192(a5)
	.loc 1 2807 7
	mv	a0,a5
	call	FreePool@plt
	.loc 1 2808 41
	ld	a5,-136(s0)
	ld	a4,-88(s0)
	sd	a4,192(a5)
	.loc 1 2813 12
	ld	a5,-88(s0)
	sd	a5,-48(s0)
	.loc 1 2814 18
	sd	zero,-32(s0)
	.loc 1 2814 7
	j	.L233
.L235:
	.loc 1 2818 32
	ld	a5,-144(s0)
	ld	a5,0(a5)
	.loc 1 2818 18
	ld	a4,-32(s0)
	sext.w	a4,a4
	addi	a3,s0,-104
	addi	a2,s0,-96
	mv	a1,a4
	ld	a0,-144(s0)
	jalr	a5
.LVL38:
	sd	a0,-24(s0)
	.loc 1 2819 40
	ld	a5,-24(s0)
	.loc 1 2819 12
	bge	a5,zero,.L234
	.loc 1 2820 18
	ld	a5,-24(s0)
	j	.L269
.L234:
	.loc 1 2824 9
	ld	a5,-104(s0)
	ld	a4,-96(s0)
	mv	a2,a4
	mv	a1,a5
	ld	a0,-48(s0)
	call	CopyMem@plt
	.loc 1 2825 13
	ld	a5,-48(s0)
	addi	a5,a5,36
	sd	a5,-48(s0)
	.loc 1 2826 9
	ld	a5,-104(s0)
	mv	a0,a5
	call	FreePool@plt
	.loc 1 2814 67 discriminator 2
	ld	a5,-32(s0)
	addi	a5,a5,1
	sd	a5,-32(s0)
.L233:
	.loc 1 2814 45 discriminator 1
	ld	a5,-144(s0)
	ld	a5,24(a5)
	.loc 1 2814 51 discriminator 1
	lw	a5,0(a5)
	slli	a5,a5,32
	srli	a5,a5,32
	.loc 1 2814 29 discriminator 1
	ld	a4,-32(s0)
	bltu	a4,a5,.L235
	j	.L236
.L230:
	.loc 1 2832 107
	ld	a5,-80(s0)
	lw	a5,0(a5)
	slli	a4,a5,32
	srli	a4,a4,32
	.loc 1 2832 80
	mv	a5,a4
	slli	a5,a5,3
	add	a5,a5,a4
	slli	a5,a5,2
	.loc 1 2832 20
	mv	a0,a5
	call	AllocatePool@plt
	sd	a0,-88(s0)
	.loc 1 2833 10
	ld	a5,-88(s0)
	bne	a5,zero,.L237
	.loc 1 2834 16
	li	a5,-1
	slli	a5,a5,63
	addi	a5,a5,9
	j	.L269
.L237:
	.loc 1 2837 19
	ld	a5,-88(s0)
	sd	a5,-56(s0)
	.loc 1 2838 12
	ld	a5,-136(s0)
	ld	a5,192(a5)
	sd	a5,-48(s0)
	.loc 1 2839 18
	sd	zero,-32(s0)
	.loc 1 2839 7
	j	.L238
.L249:
	.loc 1 2840 15
	sb	zero,-65(s0)
	.loc 1 2842 26
	sd	zero,-64(s0)
	.loc 1 2842 9
	j	.L239
.L243:
	.loc 1 2846 34
	ld	a5,-144(s0)
	ld	a5,0(a5)
	.loc 1 2846 20
	ld	a4,-64(s0)
	sext.w	a4,a4
	addi	a3,s0,-104
	addi	a2,s0,-96
	mv	a1,a4
	ld	a0,-144(s0)
	jalr	a5
.LVL39:
	sd	a0,-24(s0)
	.loc 1 2847 42
	ld	a5,-24(s0)
	.loc 1 2847 14
	bge	a5,zero,.L240
	.loc 1 2848 20
	ld	a5,-24(s0)
	j	.L269
.L240:
	.loc 1 2851 20
	ld	a5,-104(s0)
	lw	a4,4(a5)
	.loc 1 2851 50
	ld	a5,-48(s0)
	lw	a5,4(a5)
	.loc 1 2851 14
	bne	a4,a5,.L241
	.loc 1 2852 20
	ld	a5,-104(s0)
	lw	a4,8(a5)
	.loc 1 2852 48
	ld	a5,-48(s0)
	lw	a5,8(a5)
	.loc 1 2851 74 discriminator 1
	bne	a4,a5,.L241
	.loc 1 2858 19
	li	a5,1
	sb	a5,-65(s0)
	.loc 1 2859 13
	ld	a5,-104(s0)
	mv	a0,a5
	call	FreePool@plt
	.loc 1 2860 13
	j	.L242
.L241:
	.loc 1 2863 11
	ld	a5,-104(s0)
	mv	a0,a5
	call	FreePool@plt
	.loc 1 2842 87 discriminator 2
	ld	a5,-64(s0)
	addi	a5,a5,1
	sd	a5,-64(s0)
.L239:
	.loc 1 2842 59 discriminator 1
	ld	a5,-144(s0)
	ld	a5,24(a5)
	.loc 1 2842 65 discriminator 1
	lw	a5,0(a5)
	slli	a5,a5,32
	srli	a5,a5,32
	.loc 1 2842 43 discriminator 1
	ld	a4,-64(s0)
	bltu	a4,a5,.L243
.L242:
	.loc 1 2866 12
	lbu	a5,-65(s0)
	andi	a5,a5,0xff
	beq	a5,zero,.L244
	.loc 1 2867 24
	sb	zero,-66(s0)
	.loc 1 2872 21
	ld	a5,-88(s0)
	sd	a5,-104(s0)
	.loc 1 2872 11
	j	.L245
.L248:
	.loc 1 2873 22
	ld	a5,-104(s0)
	lw	a4,4(a5)
	.loc 1 2873 52
	ld	a5,-48(s0)
	lw	a5,4(a5)
	.loc 1 2873 16
	bne	a4,a5,.L246
	.loc 1 2874 22
	ld	a5,-104(s0)
	lw	a4,8(a5)
	.loc 1 2874 50
	ld	a5,-48(s0)
	lw	a5,8(a5)
	.loc 1 2873 76 discriminator 1
	bne	a4,a5,.L246
	.loc 1 2876 28
	li	a5,1
	sb	a5,-66(s0)
	.loc 1 2877 15
	j	.L247
.L246:
	.loc 1 2872 59 discriminator 2
	ld	a5,-104(s0)
	addi	a5,a5,36
	sd	a5,-104(s0)
.L245:
	.loc 1 2872 40 discriminator 1
	ld	a5,-104(s0)
	ld	a4,-56(s0)
	bgtu	a4,a5,.L248
.L247:
	.loc 1 2881 14
	lbu	a5,-66(s0)
	andi	a5,a5,0xff
	bne	a5,zero,.L244
	.loc 1 2882 13
	li	a2,36
	ld	a1,-48(s0)
	ld	a0,-56(s0)
	call	CopyMem@plt
	.loc 1 2887 34
	ld	a5,-56(s0)
	sw	zero,0(a5)
	.loc 1 2888 38
	ld	a5,-56(s0)
	li	a4,3
	sw	a4,12(a5)
	.loc 1 2889 22
	ld	a5,-56(s0)
	addi	a5,a5,16
	.loc 1 2889 13
	li	a1,16
	mv	a0,a5
	call	ZeroMem@plt
	.loc 1 2891 24
	ld	a5,-56(s0)
	addi	a5,a5,36
	sd	a5,-56(s0)
.L244:
	.loc 1 2895 13
	ld	a5,-48(s0)
	addi	a5,a5,36
	sd	a5,-48(s0)
	.loc 1 2839 72 discriminator 2
	ld	a5,-32(s0)
	addi	a5,a5,1
	sd	a5,-32(s0)
.L238:
	.loc 1 2839 56 discriminator 1
	ld	a5,-80(s0)
	lw	a5,0(a5)
	slli	a5,a5,32
	srli	a5,a5,32
	.loc 1 2839 29 discriminator 1
	ld	a4,-32(s0)
	bltu	a4,a5,.L249
	.loc 1 2901 24
	ld	a5,-136(s0)
	ld	a5,192(a5)
	.loc 1 2901 7
	mv	a0,a5
	call	FreePool@plt
	.loc 1 2902 41
	ld	a5,-136(s0)
	ld	a4,-88(s0)
	sd	a4,192(a5)
	.loc 1 2907 54
	ld	a4,-56(s0)
	.loc 1 2907 75
	ld	a5,-88(s0)
	.loc 1 2907 73
	sub	a4,a4,a5
	.loc 1 2907 94
	lla	a5,.LC0
	ld	a5,0(a5)
	mulhu	a5,a4,a5
	srli	a5,a5,5
	.loc 1 2907 44
	sext.w	a4,a5
	.loc 1 2907 42
	ld	a5,-80(s0)
	sw	a4,0(a5)
	.loc 1 2908 32
	ld	a5,-80(s0)
	ld	a5,8(a5)
	.loc 1 2908 52
	li	a4,3
	sw	a4,12(a5)
	.loc 1 2909 42
	ld	a5,-80(s0)
	ld	a5,8(a5)
	.loc 1 2909 16
	addi	a5,a5,16
	.loc 1 2909 7
	li	a1,16
	mv	a0,a5
	call	ZeroMem@plt
	.loc 1 2910 45
	ld	a5,-80(s0)
	li	a4,36
	sd	a4,16(a5)
	.loc 1 2911 50
	ld	a5,-80(s0)
	sd	zero,24(a5)
	.loc 1 2912 50
	ld	a5,-80(s0)
	sd	zero,32(a5)
.L236:
	.loc 1 2918 16
	sd	zero,-32(s0)
	.loc 1 2918 5
	j	.L250
.L253:
	.loc 1 2919 22
	ld	a5,-136(s0)
	ld	a3,192(a5)
	.loc 1 2919 48
	ld	a4,-32(s0)
	mv	a5,a4
	slli	a5,a5,3
	add	a5,a5,a4
	slli	a5,a5,2
	.loc 1 2919 12
	add	a5,a3,a5
	sd	a5,-48(s0)
	.loc 1 2920 16
	ld	a5,-48(s0)
	lw	a4,4(a5)
	.loc 1 2920 56
	ld	a5,-144(s0)
	ld	a5,24(a5)
	.loc 1 2920 62
	ld	a5,8(a5)
	.loc 1 2920 68
	lw	a5,4(a5)
	.loc 1 2920 10
	bne	a4,a5,.L251
	.loc 1 2921 16
	ld	a5,-48(s0)
	lw	a4,8(a5)
	.loc 1 2921 54
	ld	a5,-144(s0)
	ld	a5,24(a5)
	.loc 1 2921 60
	ld	a5,8(a5)
	.loc 1 2921 66
	lw	a5,8(a5)
	.loc 1 2920 92 discriminator 1
	bne	a4,a5,.L251
	.loc 1 2923 22
	ld	a5,-32(s0)
	sd	a5,-40(s0)
	.loc 1 2924 9
	j	.L252
.L251:
	.loc 1 2918 70 discriminator 2
	ld	a5,-32(s0)
	addi	a5,a5,1
	sd	a5,-32(s0)
.L250:
	.loc 1 2918 54 discriminator 1
	ld	a5,-80(s0)
	lw	a5,0(a5)
	slli	a5,a5,32
	srli	a5,a5,32
	.loc 1 2918 27 discriminator 1
	ld	a4,-32(s0)
	bltu	a4,a5,.L253
.L252:
	.loc 1 2928 43
	ld	a5,-80(s0)
	lw	a5,0(a5)
	slli	a5,a5,32
	srli	a5,a5,32
	.loc 1 2928 8
	ld	a4,-32(s0)
	bltu	a4,a5,.L228
	.loc 1 2932 18
	sd	zero,-32(s0)
	.loc 1 2932 7
	j	.L255
.L257:
	.loc 1 2933 24
	ld	a5,-136(s0)
	ld	a3,192(a5)
	.loc 1 2933 50
	ld	a4,-32(s0)
	mv	a5,a4
	slli	a5,a5,3
	add	a5,a5,a4
	slli	a5,a5,2
	.loc 1 2933 14
	add	a5,a3,a5
	sd	a5,-48(s0)
	.loc 1 2934 18
	ld	a5,-48(s0)
	lw	a4,4(a5)
	.loc 1 2934 12
	li	a5,800
	bne	a4,a5,.L256
	.loc 1 2934 57 discriminator 1
	ld	a5,-48(s0)
	lw	a4,8(a5)
	.loc 1 2934 49 discriminator 1
	li	a5,600
	bne	a4,a5,.L256
	.loc 1 2935 24
	ld	a5,-32(s0)
	sd	a5,-40(s0)
	.loc 1 2936 11
	j	.L228
.L256:
	.loc 1 2932 72 discriminator 2
	ld	a5,-32(s0)
	addi	a5,a5,1
	sd	a5,-32(s0)
.L255:
	.loc 1 2932 56 discriminator 1
	ld	a5,-80(s0)
	lw	a5,0(a5)
	slli	a5,a5,32
	srli	a5,a5,32
	.loc 1 2932 29 discriminator 1
	ld	a4,-32(s0)
	bltu	a4,a5,.L257
	j	.L228
.L229:
	.loc 1 2940 13
	ld	a5,-152(s0)
	beq	a5,zero,.L271
	.loc 1 2945 12
	ld	a5,-152(s0)
	ld	a5,0(a5)
	.loc 1 2945 5
	addi	a4,s0,-120
	addi	a3,s0,-116
	addi	a2,s0,-112
	addi	a1,s0,-108
	ld	a0,-152(s0)
	jalr	a5
.LVL40:
	.loc 1 2953 40
	ld	a5,-80(s0)
	li	a4,1
	sw	a4,0(a5)
	.loc 1 2954 37
	ld	a5,-80(s0)
	ld	a5,8(a5)
	.loc 1 2954 10
	sd	a5,-104(s0)
	.loc 1 2955 9
	ld	a5,-104(s0)
	.loc 1 2955 19
	sw	zero,0(a5)
	.loc 1 2956 9
	ld	a5,-104(s0)
	.loc 1 2956 32
	lw	a4,-108(s0)
	sw	a4,4(a5)
	.loc 1 2957 9
	ld	a5,-104(s0)
	.loc 1 2957 30
	lw	a4,-112(s0)
	sw	a4,8(a5)
	.loc 1 2958 9
	ld	a5,-104(s0)
	.loc 1 2958 23
	li	a4,3
	sw	a4,12(a5)
	.loc 1 2959 9
	ld	a5,-104(s0)
	.loc 1 2959 29
	lw	a4,-108(s0)
	sw	a4,32(a5)
	.loc 1 2960 43
	ld	a5,-80(s0)
	li	a4,36
	sd	a4,16(a5)
	.loc 1 2961 48
	ld	a5,-80(s0)
	sd	zero,24(a5)
	.loc 1 2962 48
	ld	a5,-80(s0)
	sd	zero,32(a5)
	.loc 1 2967 14
	ld	a5,-136(s0)
	ld	a5,192(a5)
	.loc 1 2967 5
	ld	a4,-104(s0)
	li	a2,36
	mv	a1,a4
	mv	a0,a5
	call	CopyMem@plt
	.loc 1 2972 18
	sd	zero,-40(s0)
	j	.L228
.L270:
	.loc 1 2784 5
	nop
	j	.L228
.L271:
	.loc 1 2975 1
	nop
.L228:
	.loc 1 2977 6
	ld	a5,-144(s0)
	beq	a5,zero,.L258
	.loc 1 2978 12
	ld	a5,-136(s0)
	ld	a5,200(a5)
	.loc 1 2978 43
	addi	a4,a5,1
	ld	a5,-136(s0)
	sd	a4,200(a5)
.L258:
	.loc 1 2981 6
	ld	a5,-152(s0)
	beq	a5,zero,.L259
	.loc 1 2982 12
	ld	a5,-136(s0)
	ld	a5,208(a5)
	.loc 1 2982 36
	addi	a4,a5,1
	ld	a5,-136(s0)
	sd	a4,208(a5)
.L259:
	.loc 1 2989 18
	ld	a5,-136(s0)
	ld	a3,192(a5)
	.loc 1 2989 44
	ld	a4,-40(s0)
	mv	a5,a4
	slli	a5,a5,3
	add	a5,a5,a4
	slli	a5,a5,2
	.loc 1 2989 8
	add	a5,a3,a5
	sd	a5,-48(s0)
	.loc 1 2990 6
	ld	a5,-144(s0)
	beq	a5,zero,.L260
	.loc 1 2991 12
	ld	a5,-48(s0)
	lw	a4,4(a5)
	.loc 1 2991 63
	ld	a5,-80(s0)
	ld	a5,8(a5)
	.loc 1 2991 69
	lw	a5,4(a5)
	.loc 1 2990 40 discriminator 1
	bne	a4,a5,.L260
	.loc 1 2992 12
	ld	a5,-48(s0)
	lw	a4,8(a5)
	.loc 1 2992 61
	ld	a5,-80(s0)
	ld	a5,8(a5)
	.loc 1 2992 67
	lw	a5,8(a5)
	.loc 1 2991 93
	bne	a4,a5,.L260
	.loc 1 2994 39
	ld	a5,-40(s0)
	sext.w	a4,a5
	.loc 1 2994 37
	ld	a5,-80(s0)
	sw	a4,4(a5)
	.loc 1 2995 14
	ld	a5,-48(s0)
	lw	a4,4(a5)
	.loc 1 2995 54
	ld	a5,-144(s0)
	ld	a5,24(a5)
	.loc 1 2995 60
	ld	a5,8(a5)
	.loc 1 2995 66
	lw	a5,4(a5)
	.loc 1 2995 8
	bne	a4,a5,.L261
	.loc 1 2996 14
	ld	a5,-48(s0)
	lw	a4,8(a5)
	.loc 1 2996 52
	ld	a5,-144(s0)
	ld	a5,24(a5)
	.loc 1 2996 58
	ld	a5,8(a5)
	.loc 1 2996 64
	lw	a5,8(a5)
	.loc 1 2995 90 discriminator 1
	beq	a4,a5,.L272
.L261:
	.loc 1 3002 24
	sd	zero,-64(s0)
	.loc 1 3002 7
	j	.L263
.L267:
	.loc 1 3003 32
	ld	a5,-144(s0)
	ld	a5,0(a5)
	.loc 1 3003 18
	ld	a4,-64(s0)
	sext.w	a4,a4
	addi	a3,s0,-104
	addi	a2,s0,-96
	mv	a1,a4
	ld	a0,-144(s0)
	jalr	a5
.LVL41:
	sd	a0,-24(s0)
	.loc 1 3004 40
	ld	a5,-24(s0)
	.loc 1 3004 12
	bge	a5,zero,.L264
	.loc 1 3005 18
	ld	a5,-24(s0)
	j	.L269
.L264:
	.loc 1 3008 18
	ld	a5,-104(s0)
	lw	a4,4(a5)
	.loc 1 3008 48
	ld	a5,-48(s0)
	lw	a5,4(a5)
	.loc 1 3008 12
	bne	a4,a5,.L265
	.loc 1 3008 80 discriminator 1
	ld	a5,-104(s0)
	lw	a4,8(a5)
	.loc 1 3008 108 discriminator 1
	ld	a5,-48(s0)
	lw	a5,8(a5)
	.loc 1 3008 72 discriminator 1
	bne	a4,a5,.L265
	.loc 1 3009 11
	ld	a5,-104(s0)
	mv	a0,a5
	call	FreePool@plt
	.loc 1 3010 11
	j	.L266
.L265:
	.loc 1 3013 9
	ld	a5,-104(s0)
	mv	a0,a5
	call	FreePool@plt
	.loc 1 3002 85 discriminator 2
	ld	a5,-64(s0)
	addi	a5,a5,1
	sd	a5,-64(s0)
.L263:
	.loc 1 3002 57 discriminator 1
	ld	a5,-144(s0)
	ld	a5,24(a5)
	.loc 1 3002 63 discriminator 1
	lw	a5,0(a5)
	slli	a5,a5,32
	srli	a5,a5,32
	.loc 1 3002 41 discriminator 1
	ld	a4,-64(s0)
	bltu	a4,a5,.L267
.L266:
	.loc 1 3016 30
	ld	a5,-144(s0)
	ld	a5,8(a5)
	.loc 1 3016 16
	ld	a4,-64(s0)
	sext.w	a4,a4
	mv	a1,a4
	ld	a0,-144(s0)
	jalr	a5
.LVL42:
	sd	a0,-24(s0)
	.loc 1 2995 8
	j	.L272
.L260:
	.loc 1 3022 37
	ld	a5,-80(s0)
	li	a4,65536
	addi	a4,a4,-1
	sw	a4,4(a5)
	.loc 1 3026 37
	ld	a5,-136(s0)
	ld	a5,168(a5)
	.loc 1 3026 14
	ld	a4,-136(s0)
	addi	a4,a4,160
	ld	a3,-40(s0)
	sext.w	a3,a3
	mv	a1,a3
	mv	a0,a4
	jalr	a5
.LVL43:
	sd	a0,-24(s0)
	.loc 1 3027 36
	ld	a5,-24(s0)
	.loc 1 3027 8
	bge	a5,zero,.L268
	.loc 1 3031 15
	ld	a5,-136(s0)
	ld	a5,192(a5)
	.loc 1 3031 67
	li	a4,800
	sw	a4,4(a5)
	.loc 1 3032 15
	ld	a5,-136(s0)
	ld	a5,192(a5)
	.loc 1 3032 65
	li	a4,600
	sw	a4,8(a5)
	.loc 1 3033 39
	ld	a5,-136(s0)
	ld	a5,168(a5)
	.loc 1 3033 16
	ld	a4,-136(s0)
	addi	a4,a4,160
	li	a1,0
	mv	a0,a4
	jalr	a5
.LVL44:
	sd	a0,-24(s0)
	j	.L268
.L272:
	.loc 1 2995 8
	nop
.L268:
	.loc 1 3037 10
	ld	a5,-24(s0)
.L269:
	.loc 1 3038 1
	mv	a0,a5
	ld	ra,152(sp)
	.cfi_restore 1
	ld	s0,144(sp)
	.cfi_restore 8
	.cfi_def_cfa 2, 160
	addi	sp,sp,160
	.cfi_def_cfa_offset 0
	jr	ra
	.cfi_endproc
.LFE38:
	.size	ConSplitterAddGraphicsOutputMode, .-ConSplitterAddGraphicsOutputMode
	.section	.text.ConsplitterSetConsoleOutMode,"ax",@progbits
	.align	1
	.globl	ConsplitterSetConsoleOutMode
	.type	ConsplitterSetConsoleOutMode, @function
ConsplitterSetConsoleOutMode:
.LFB39:
	.loc 1 3054 1
	.cfi_startproc
	addi	sp,sp,-128
	.cfi_def_cfa_offset 128
	sd	ra,120(sp)
	sd	s0,112(sp)
	.cfi_offset 1, -8
	.cfi_offset 8, -16
	addi	s0,sp,128
	.cfi_def_cfa 8, 0
	sd	a0,-120(s0)
	.loc 1 3066 14
	li	a5,255
	sd	a5,-32(s0)
	.loc 1 3067 12
	li	a5,255
	sd	a5,-40(s0)
	.loc 1 3068 11
	ld	a5,-120(s0)
	addi	a5,a5,16
	sd	a5,-48(s0)
	.loc 1 3069 28
	ld	a5,-48(s0)
	ld	a5,72(a5)
	.loc 1 3069 34
	lw	a5,0(a5)
	.loc 1 3069 11
	sd	a5,-56(s0)
	.loc 1 3071 22
	sd	zero,-112(s0)
	.loc 1 3072 19
	sd	zero,-104(s0)
	.loc 1 3073 21
	li	a0,1
	call	LibPcdGet32@plt
	mv	a5,a0
	.loc 1 3073 21 is_stmt 0 discriminator 1
	slli	a5,a5,32
	srli	a5,a5,32
	.loc 1 3073 19 is_stmt 1 discriminator 1
	sd	a5,-96(s0)
	.loc 1 3074 18
	li	a0,2
	call	LibPcdGet32@plt
	mv	a5,a0
	.loc 1 3074 18 is_stmt 0 discriminator 1
	slli	a5,a5,32
	srli	a5,a5,32
	.loc 1 3074 16 is_stmt 1 discriminator 1
	sd	a5,-88(s0)
	.loc 1 3079 13
	sd	zero,-24(s0)
	.loc 1 3079 3
	j	.L274
.L279:
	.loc 1 3080 21
	ld	a5,-48(s0)
	ld	a5,24(a5)
	.loc 1 3080 14
	addi	a3,s0,-80
	addi	a4,s0,-72
	mv	a2,a4
	ld	a1,-24(s0)
	ld	a0,-48(s0)
	jalr	a5
.LVL45:
	sd	a0,-64(s0)
	.loc 1 3081 9
	ld	a5,-64(s0)
	.loc 1 3081 8
	blt	a5,zero,.L275
	.loc 1 3082 20
	ld	a5,-96(s0)
	.loc 1 3082 10
	beq	a5,zero,.L276
	.loc 1 3082 46 discriminator 1
	ld	a5,-88(s0)
	.loc 1 3082 34 discriminator 1
	beq	a5,zero,.L276
	.loc 1 3086 29
	ld	a4,-96(s0)
	.loc 1 3086 18
	ld	a5,-72(s0)
	.loc 1 3086 12
	bne	a4,a5,.L282
	.loc 1 3086 57 discriminator 1
	ld	a4,-88(s0)
	.loc 1 3086 46 discriminator 1
	ld	a5,-80(s0)
	.loc 1 3086 38 discriminator 1
	bne	a4,a5,.L282
	.loc 1 3087 22
	ld	a5,-24(s0)
	sd	a5,-32(s0)
	.loc 1 3086 12
	j	.L282
.L276:
	.loc 1 3094 32
	ld	a4,-112(s0)
	.loc 1 3094 18
	ld	a5,-72(s0)
	.loc 1 3094 12
	bgtu	a4,a5,.L278
	.loc 1 3094 63 discriminator 1
	ld	a4,-104(s0)
	.loc 1 3094 49 discriminator 1
	ld	a5,-80(s0)
	.loc 1 3094 41 discriminator 1
	bgtu	a4,a5,.L278
	.loc 1 3095 30
	ld	a5,-72(s0)
	sd	a5,-112(s0)
	.loc 1 3096 27
	ld	a5,-80(s0)
	sd	a5,-104(s0)
	.loc 1 3097 22
	ld	a5,-24(s0)
	sd	a5,-32(s0)
	j	.L278
.L282:
	.loc 1 3086 12
	nop
.L278:
	.loc 1 3101 16
	ld	a4,-72(s0)
	.loc 1 3101 10
	li	a5,80
	bne	a4,a5,.L275
	.loc 1 3101 31 discriminator 1
	ld	a4,-80(s0)
	.loc 1 3101 23 discriminator 1
	li	a5,25
	bne	a4,a5,.L275
	.loc 1 3102 18
	ld	a5,-24(s0)
	sd	a5,-40(s0)
.L275:
	.loc 1 3079 38 discriminator 2
	ld	a5,-24(s0)
	addi	a5,a5,1
	sd	a5,-24(s0)
.L274:
	.loc 1 3079 23 discriminator 1
	ld	a4,-24(s0)
	ld	a5,-56(s0)
	bltu	a4,a5,.L279
	.loc 1 3110 19
	ld	a5,-48(s0)
	ld	a5,32(a5)
	.loc 1 3110 12
	ld	a1,-32(s0)
	ld	a0,-48(s0)
	jalr	a5
.LVL46:
	sd	a0,-64(s0)
	.loc 1 3111 34
	ld	a5,-64(s0)
	.loc 1 3111 6
	bge	a5,zero,.L283
	.loc 1 3115 21
	ld	a5,-48(s0)
	ld	a5,32(a5)
	.loc 1 3115 14
	ld	a1,-40(s0)
	ld	a0,-48(s0)
	jalr	a5
.LVL47:
	sd	a0,-64(s0)
	.loc 1 3118 14
	li	a1,80
	li	a0,1
	call	LibPcdSet32S@plt
	sd	a0,-64(s0)
	.loc 1 3120 14
	li	a1,25
	li	a0,2
	call	LibPcdSet32S@plt
	sd	a0,-64(s0)
	.loc 1 3124 3
	nop
.L283:
	nop
	.loc 1 3125 1
	ld	ra,120(sp)
	.cfi_restore 1
	ld	s0,112(sp)
	.cfi_restore 8
	.cfi_def_cfa 2, 128
	addi	sp,sp,128
	.cfi_def_cfa_offset 0
	jr	ra
	.cfi_endproc
.LFE39:
	.size	ConsplitterSetConsoleOutMode, .-ConsplitterSetConsoleOutMode
	.section	.text.ConSplitterTextOutAddDevice,"ax",@progbits
	.align	1
	.globl	ConSplitterTextOutAddDevice
	.type	ConSplitterTextOutAddDevice, @function
ConSplitterTextOutAddDevice:
.LFB40:
	.loc 1 3146 1
	.cfi_startproc
	addi	sp,sp,-128
	.cfi_def_cfa_offset 128
	sd	ra,120(sp)
	sd	s0,112(sp)
	.cfi_offset 1, -8
	.cfi_offset 8, -16
	addi	s0,sp,128
	.cfi_def_cfa 8, 0
	sd	a0,-104(s0)
	sd	a1,-112(s0)
	sd	a2,-120(s0)
	sd	a3,-128(s0)
	.loc 1 3159 10
	sd	zero,-24(s0)
	.loc 1 3160 24
	ld	a5,-104(s0)
	ld	a5,216(a5)
	sd	a5,-40(s0)
	.loc 1 3161 31
	ld	a5,-104(s0)
	li	a4,1
	sb	a4,264(a5)
	.loc 1 3166 9
	j	.L285
.L288:
	.loc 1 3167 14
	ld	a5,-104(s0)
	addi	a4,a5,232
	.loc 1 3170 25
	ld	a5,-104(s0)
	addi	a5,a5,224
	.loc 1 3167 14
	mv	a2,a5
	mv	a1,a4
	li	a0,24
	call	ConSplitterGrowBuffer
	sd	a0,-24(s0)
	.loc 1 3172 36
	ld	a5,-24(s0)
	.loc 1 3172 8
	bge	a5,zero,.L286
	.loc 1 3173 14
	li	a5,-1
	slli	a5,a5,63
	addi	a5,a5,9
	j	.L301
.L286:
	.loc 1 3179 14
	ld	a0,-104(s0)
	call	ConSplitterGrowMapTable
	sd	a0,-24(s0)
	.loc 1 3180 36
	ld	a5,-24(s0)
	.loc 1 3180 8
	bge	a5,zero,.L285
	.loc 1 3181 14
	li	a5,-1
	slli	a5,a5,63
	addi	a5,a5,9
	j	.L301
.L285:
	.loc 1 3166 41
	ld	a5,-104(s0)
	ld	a5,232(a5)
	.loc 1 3166 31
	ld	a4,-40(s0)
	bgeu	a4,a5,.L288
	.loc 1 3185 24
	ld	a5,-104(s0)
	ld	a3,224(a5)
	.loc 1 3185 37
	ld	a4,-40(s0)
	mv	a5,a4
	slli	a5,a5,1
	add	a5,a5,a4
	slli	a5,a5,3
	.loc 1 3185 14
	add	a5,a3,a5
	sd	a5,-48(s0)
	.loc 1 3187 23
	ld	a5,-48(s0)
	ld	a4,-112(s0)
	sd	a4,16(a5)
	.loc 1 3188 30
	ld	a5,-48(s0)
	ld	a4,-120(s0)
	sd	a4,0(a5)
	.loc 1 3189 23
	ld	a5,-48(s0)
	ld	a4,-128(s0)
	sd	a4,8(a5)
	.loc 1 3191 6
	ld	a5,-40(s0)
	bne	a5,zero,.L289
	.loc 1 3195 14
	ld	a1,-112(s0)
	ld	a0,-104(s0)
	call	ConSplitterAddOutputMode
	sd	a0,-24(s0)
	j	.L290
.L289:
	.loc 1 3197 5
	ld	a1,-112(s0)
	ld	a0,-104(s0)
	call	ConSplitterSyncOutputMode
.L290:
	.loc 1 3200 10
	ld	a5,-104(s0)
	ld	a5,216(a5)
	.loc 1 3200 35
	addi	a4,a5,1
	ld	a5,-104(s0)
	sd	a4,216(a5)
	.loc 1 3207 3
	call	ConSplitterGetIntersectionBetweenConOutAndStrErr
	.loc 1 3209 11
	ld	a5,-104(s0)
	lw	a5,96(a5)
	sw	a5,-52(s0)
	.loc 1 3212 16
	li	a5,-1
	slli	a5,a5,63
	addi	a5,a5,7
	sd	a5,-32(s0)
	.loc 1 3213 10
	li	a5,-1
	slli	a5,a5,63
	addi	a5,a5,7
	sd	a5,-24(s0)
	.loc 1 3218 6
	ld	a5,-120(s0)
	bne	a5,zero,.L291
	.loc 1 3218 40 discriminator 1
	ld	a5,-128(s0)
	beq	a5,zero,.L292
.L291:
	.loc 1 3219 20
	ld	a2,-128(s0)
	ld	a1,-120(s0)
	ld	a0,-104(s0)
	call	ConSplitterAddGraphicsOutputMode
	sd	a0,-32(s0)
.L292:
	.loc 1 3222 7
	la	a5,_gPcd_FixedAtBuild_PcdConOutUgaSupport
	lbu	a5,0(a5)
	.loc 1 3222 6
	beq	a5,zero,.L293
	.loc 1 3226 8
	ld	a5,-120(s0)
	beq	a5,zero,.L294
	.loc 1 3227 30
	ld	a5,-120(s0)
	ld	a5,0(a5)
	.loc 1 3227 73
	ld	a4,-120(s0)
	ld	a4,24(a4)
	.loc 1 3227 16
	lw	a4,4(a4)
	addi	a3,s0,-88
	addi	a2,s0,-80
	mv	a1,a4
	ld	a0,-120(s0)
	jalr	a5
.LVL48:
	sd	a0,-24(s0)
	.loc 1 3228 38
	ld	a5,-24(s0)
	.loc 1 3228 10
	bge	a5,zero,.L295
	.loc 1 3229 16
	ld	a5,-24(s0)
	j	.L301
.L295:
	.loc 1 3234 37
	ld	a5,-88(s0)
	lw	a5,4(a5)
	.loc 1 3234 31
	sw	a5,-56(s0)
	.loc 1 3235 35
	ld	a5,-88(s0)
	lw	a5,8(a5)
	.loc 1 3235 29
	sw	a5,-60(s0)
	.loc 1 3237 7
	ld	a5,-88(s0)
	mv	a0,a5
	call	FreePool@plt
	j	.L293
.L294:
	.loc 1 3238 15
	ld	a5,-128(s0)
	beq	a5,zero,.L293
	.loc 1 3239 23
	ld	a5,-128(s0)
	ld	a5,0(a5)
	.loc 1 3239 16
	addi	a4,s0,-68
	addi	a3,s0,-64
	addi	a2,s0,-60
	addi	a1,s0,-56
	ld	a0,-128(s0)
	jalr	a5
.LVL49:
	sd	a0,-24(s0)
	.loc 1 3246 11
	ld	a5,-24(s0)
	.loc 1 3246 10
	blt	a5,zero,.L296
	.loc 1 3246 101 discriminator 1
	ld	a5,-32(s0)
	.loc 1 3246 65 discriminator 1
	bge	a5,zero,.L296
	.loc 1 3250 18
	ld	a5,-104(s0)
	addi	a5,a5,120
	lw	a1,-56(s0)
	lw	a2,-60(s0)
	lw	a3,-64(s0)
	lw	a4,-68(s0)
	mv	a0,a5
	call	ConSplitterUgaDrawSetMode@plt
	sd	a0,-24(s0)
.L296:
	.loc 1 3262 38
	ld	a5,-24(s0)
	.loc 1 3262 10
	bge	a5,zero,.L293
	.loc 1 3263 18
	ld	a5,-104(s0)
	addi	a5,a5,120
	li	a4,60
	li	a3,32
	li	a2,600
	li	a1,800
	mv	a0,a5
	call	ConSplitterUgaDrawSetMode@plt
	sd	a0,-24(s0)
.L293:
	.loc 1 3274 9
	ld	a5,-32(s0)
	.loc 1 3274 6
	bge	a5,zero,.L297
	.loc 1 3274 74 discriminator 2
	ld	a5,-24(s0)
	.loc 1 3274 70 discriminator 2
	blt	a5,zero,.L298
.L297:
	.loc 1 3275 16
	ld	a5,-104(s0)
	ld	a4,200(a5)
	.loc 1 3275 57
	ld	a5,-104(s0)
	ld	a5,208(a5)
	.loc 1 3275 48
	add	a4,a4,a5
	.loc 1 3274 130 discriminator 3
	li	a5,1
	bne	a4,a5,.L298
	.loc 1 3277 9
	la	a5,_gPcd_FixedAtBuild_PcdConOutGopSupport
	lbu	a5,0(a5)
	.loc 1 3277 8
	bne	a5,zero,.L299
	.loc 1 3282 19
	la	a5,gBS
	ld	a5,0(a5)
	ld	a5,328(a5)
	.loc 1 3282 16
	li	a3,0
	lla	a2,mConOut+120
	la	a1,gEfiUgaDrawProtocolGuid
	lla	a0,mConOut+8
	jalr	a5
.LVL50:
	sd	a0,-24(s0)
	j	.L298
.L299:
	.loc 1 3288 16
	la	a5,_gPcd_FixedAtBuild_PcdConOutUgaSupport
	lbu	a5,0(a5)
	.loc 1 3288 15
	bne	a5,zero,.L300
	.loc 1 3293 19
	la	a5,gBS
	ld	a5,0(a5)
	ld	a5,328(a5)
	.loc 1 3293 16
	li	a3,0
	lla	a2,mConOut+160
	la	a1,gEfiGraphicsOutputProtocolGuid
	lla	a0,mConOut+8
	jalr	a5
.LVL51:
	sd	a0,-24(s0)
	j	.L298
.L300:
	.loc 1 3304 19
	la	a5,gBS
	ld	a5,0(a5)
	ld	a6,328(a5)
	.loc 1 3304 16
	li	a5,0
	lla	a4,mConOut+120
	la	a3,gEfiUgaDrawProtocolGuid
	lla	a2,mConOut+160
	la	a1,gEfiGraphicsOutputProtocolGuid
	lla	a0,mConOut+8
	jalr	a6
.LVL52:
	sd	a0,-24(s0)
.L298:
	.loc 1 3319 3
	ld	a0,-104(s0)
	call	ConsplitterSetConsoleOutMode
	.loc 1 3321 31
	ld	a5,-104(s0)
	sb	zero,264(a5)
	.loc 1 3323 10
	ld	a5,-24(s0)
.L301:
	.loc 1 3324 1
	mv	a0,a5
	ld	ra,120(sp)
	.cfi_restore 1
	ld	s0,112(sp)
	.cfi_restore 8
	.cfi_def_cfa 2, 128
	addi	sp,sp,128
	.cfi_def_cfa_offset 0
	jr	ra
	.cfi_endproc
.LFE40:
	.size	ConSplitterTextOutAddDevice, .-ConSplitterTextOutAddDevice
	.section	.text.ConSplitterTextOutDeleteDevice,"ax",@progbits
	.align	1
	.globl	ConSplitterTextOutDeleteDevice
	.type	ConSplitterTextOutDeleteDevice, @function
ConSplitterTextOutDeleteDevice:
.LFB41:
	.loc 1 3341 1
	.cfi_startproc
	addi	sp,sp,-64
	.cfi_def_cfa_offset 64
	sd	ra,56(sp)
	sd	s0,48(sp)
	.cfi_offset 1, -8
	.cfi_offset 8, -16
	addi	s0,sp,64
	.cfi_def_cfa 8, 0
	sd	a0,-56(s0)
	sd	a1,-64(s0)
	.loc 1 3351 24
	ld	a5,-56(s0)
	ld	a5,216(a5)
	sd	a5,-32(s0)
	.loc 1 3352 11
	ld	a5,-32(s0)
	sext.w	a5,a5
	.loc 1 3352 9
	addiw	a5,a5,-1
	sw	a5,-20(s0)
	.loc 1 3353 15
	ld	a5,-56(s0)
	ld	a5,224(a5)
	sd	a5,-40(s0)
	.loc 1 3354 9
	j	.L303
.L308:
	.loc 1 3355 20
	ld	a5,-40(s0)
	ld	a5,16(a5)
	.loc 1 3355 8
	ld	a4,-64(s0)
	bne	a4,a5,.L304
	.loc 1 3356 22
	ld	a5,-40(s0)
	ld	a5,8(a5)
	.loc 1 3356 10
	beq	a5,zero,.L305
	.loc 1 3357 16
	ld	a5,-56(s0)
	ld	a5,208(a5)
	.loc 1 3357 40
	addi	a4,a5,-1
	ld	a5,-56(s0)
	sd	a4,208(a5)
.L305:
	.loc 1 3360 22
	ld	a5,-40(s0)
	ld	a5,0(a5)
	.loc 1 3360 10
	beq	a5,zero,.L306
	.loc 1 3361 16
	ld	a5,-56(s0)
	ld	a5,200(a5)
	.loc 1 3361 47
	addi	a4,a5,-1
	ld	a5,-56(s0)
	sd	a4,200(a5)
.L306:
	.loc 1 3364 41
	ld	a5,-40(s0)
	addi	a3,a5,24
	.loc 1 3364 7
	lw	a4,-20(s0)
	.loc 1 3364 77
	mv	a5,a4
	slli	a5,a5,1
	add	a5,a5,a4
	slli	a5,a5,3
	.loc 1 3364 7
	mv	a2,a5
	mv	a1,a3
	ld	a0,-40(s0)
	call	CopyMem@plt
	.loc 1 3365 27
	ld	a5,-32(s0)
	addi	a5,a5,-1
	sd	a5,-32(s0)
	.loc 1 3366 7
	j	.L307
.L304:
	.loc 1 3369 10
	lw	a5,-20(s0)
	addiw	a5,a5,-1
	sw	a5,-20(s0)
	.loc 1 3370 16
	ld	a5,-40(s0)
	addi	a5,a5,24
	sd	a5,-40(s0)
.L303:
	.loc 1 3354 16
	lw	a5,-20(s0)
	sext.w	a5,a5
	bge	a5,zero,.L308
.L307:
	.loc 1 3376 6
	lw	a5,-20(s0)
	sext.w	a5,a5
	bge	a5,zero,.L309
	.loc 1 3377 12
	li	a5,-1
	slli	a5,a5,63
	addi	a5,a5,14
	j	.L310
.L309:
	.loc 1 3380 15
	ld	a5,-56(s0)
	ld	a5,200(a5)
	.loc 1 3380 6
	bne	a5,zero,.L311
	.loc 1 3380 64 discriminator 1
	ld	a5,-56(s0)
	ld	a5,208(a5)
	.loc 1 3380 53 discriminator 1
	bne	a5,zero,.L311
	.loc 1 3385 9
	la	a5,_gPcd_FixedAtBuild_PcdConOutGopSupport
	lbu	a5,0(a5)
	.loc 1 3385 8
	bne	a5,zero,.L312
	.loc 1 3386 19
	la	a5,gBS
	ld	a5,0(a5)
	ld	a5,144(a5)
	.loc 1 3386 16
	ld	a4,-56(s0)
	ld	a3,8(a4)
	.loc 1 3389 23
	ld	a4,-56(s0)
	addi	a4,a4,120
	.loc 1 3386 16
	mv	a2,a4
	la	a1,gEfiUgaDrawProtocolGuid
	mv	a0,a3
	jalr	a5
.LVL53:
	sd	a0,-48(s0)
	j	.L311
.L312:
	.loc 1 3391 16
	la	a5,_gPcd_FixedAtBuild_PcdConOutUgaSupport
	lbu	a5,0(a5)
	.loc 1 3391 15
	bne	a5,zero,.L313
	.loc 1 3392 19
	la	a5,gBS
	ld	a5,0(a5)
	ld	a5,144(a5)
	.loc 1 3392 16
	ld	a4,-56(s0)
	ld	a3,8(a4)
	.loc 1 3395 23
	ld	a4,-56(s0)
	addi	a4,a4,160
	.loc 1 3392 16
	mv	a2,a4
	la	a1,gEfiGraphicsOutputProtocolGuid
	mv	a0,a3
	jalr	a5
.LVL54:
	sd	a0,-48(s0)
	j	.L311
.L313:
	.loc 1 3398 19
	la	a5,gBS
	ld	a5,0(a5)
	ld	a6,336(a5)
	.loc 1 3398 16
	ld	a5,-56(s0)
	ld	a0,8(a5)
	ld	a5,-56(s0)
	addi	a2,a5,120
	ld	a5,-56(s0)
	addi	a4,a5,160
	li	a5,0
	la	a3,gEfiGraphicsOutputProtocolGuid
	la	a1,gEfiUgaDrawProtocolGuid
	jalr	a6
.LVL55:
	sd	a0,-48(s0)
.L311:
	.loc 1 3409 6
	ld	a5,-32(s0)
	bne	a5,zero,.L314
	.loc 1 3413 38
	ld	a5,-56(s0)
	sd	zero,216(a5)
	.loc 1 3414 34
	ld	a5,-56(s0)
	li	a4,1
	sw	a4,96(a5)
	.loc 1 3415 12
	ld	a5,-56(s0)
	ld	a5,240(a5)
	.loc 1 3415 42
	li	a4,80
	sd	a4,0(a5)
	.loc 1 3416 12
	ld	a5,-56(s0)
	ld	a5,240(a5)
	.loc 1 3416 39
	li	a4,25
	sd	a4,8(a5)
	.loc 1 3417 5
	li	a1,0
	ld	a0,-56(s0)
	call	TextOutSetMode@plt
	.loc 1 3419 12
	li	a5,0
	j	.L310
.L314:
	.loc 1 3428 12
	ld	a5,-56(s0)
	ld	a4,240(a5)
	.loc 1 3429 12
	ld	a5,-56(s0)
	ld	a5,248(a5)
	.loc 1 3429 36
	slli	a5,a5,4
	.loc 1 3427 3
	mv	a1,a5
	mv	a0,a4
	call	ZeroMem@plt
	.loc 1 3432 20
	ld	a5,-56(s0)
	ld	a5,256(a5)
	.loc 1 3432 3
	mv	a0,a5
	call	FreePool@plt
	.loc 1 3433 27
	ld	a5,-56(s0)
	sd	zero,256(a5)
	.loc 1 3434 15
	ld	a5,-56(s0)
	ld	a5,224(a5)
	sd	a5,-40(s0)
	.loc 1 3439 12
	ld	a5,-40(s0)
	ld	a5,16(a5)
	mv	a1,a5
	ld	a0,-56(s0)
	call	ConSplitterAddOutputMode
	sd	a0,-48(s0)
	.loc 1 3444 9
	li	a5,1
	sw	a5,-20(s0)
	.loc 1 3445 36
	ld	a5,-56(s0)
	li	a4,1
	sd	a4,216(a5)
	.loc 1 3446 14
	ld	a5,-40(s0)
	addi	a5,a5,24
	sd	a5,-40(s0)
	.loc 1 3447 9
	j	.L315
.L316:
	.loc 1 3448 5
	ld	a5,-40(s0)
	ld	a5,16(a5)
	mv	a1,a5
	ld	a0,-56(s0)
	call	ConSplitterSyncOutputMode
	.loc 1 3449 10
	lw	a5,-20(s0)
	addiw	a5,a5,1
	sw	a5,-20(s0)
	.loc 1 3450 12
	ld	a5,-56(s0)
	ld	a5,216(a5)
	.loc 1 3450 37
	addi	a4,a5,1
	ld	a5,-56(s0)
	sd	a4,216(a5)
	.loc 1 3451 16
	ld	a5,-40(s0)
	addi	a5,a5,24
	sd	a5,-40(s0)
.L315:
	.loc 1 3447 10
	lw	a5,-20(s0)
	.loc 1 3447 23
	ld	a4,-32(s0)
	bgtu	a4,a5,.L316
	.loc 1 3454 3
	call	ConSplitterGetIntersectionBetweenConOutAndStrErr
	.loc 1 3456 10
	ld	a5,-48(s0)
.L310:
	.loc 1 3457 1
	mv	a0,a5
	ld	ra,56(sp)
	.cfi_restore 1
	ld	s0,48(sp)
	.cfi_restore 8
	.cfi_def_cfa 2, 64
	addi	sp,sp,64
	.cfi_def_cfa_offset 0
	jr	ra
	.cfi_endproc
.LFE41:
	.size	ConSplitterTextOutDeleteDevice, .-ConSplitterTextOutDeleteDevice
	.section	.text.ConSplitterTextInReset,"ax",@progbits
	.align	1
	.globl	ConSplitterTextInReset
	.type	ConSplitterTextInReset, @function
ConSplitterTextInReset:
.LFB42:
	.loc 1 3476 1
	.cfi_startproc
	addi	sp,sp,-64
	.cfi_def_cfa_offset 64
	sd	ra,56(sp)
	sd	s0,48(sp)
	.cfi_offset 1, -8
	.cfi_offset 8, -16
	addi	s0,sp,64
	.cfi_def_cfa 8, 0
	sd	a0,-56(s0)
	mv	a5,a1
	sb	a5,-57(s0)
	.loc 1 3482 15
	ld	a5,-56(s0)
	addi	a5,a5,-16
	.loc 1 3482 149
	ld	a4,0(a5)
	.loc 1 3482 234
	li	a5,1884516352
	addi	a5,a5,-1708
	bne	a4,a5,.L318
	.loc 1 3482 11 discriminator 1
	ld	a5,-56(s0)
	addi	a5,a5,-16
	sd	a5,-32(s0)
	j	.L319
.L318:
	.loc 1 3482 11 is_stmt 0 discriminator 2
	sd	zero,-32(s0)
.L319:
	.loc 1 3484 32 is_stmt 1
	ld	a5,-32(s0)
	sb	zero,377(a5)
	.loc 1 3489 14
	sd	zero,-40(s0)
	.loc 1 3489 32
	sd	zero,-24(s0)
	.loc 1 3489 3
	j	.L320
.L322:
	.loc 1 3490 21
	ld	a5,-32(s0)
	ld	a4,48(a5)
	.loc 1 3490 33
	ld	a5,-40(s0)
	slli	a5,a5,3
	add	a5,a4,a5
	ld	a5,0(a5)
	.loc 1 3490 40
	ld	a5,0(a5)
	.loc 1 3491 51
	ld	a4,-32(s0)
	ld	a3,48(a4)
	.loc 1 3491 63
	ld	a4,-40(s0)
	slli	a4,a4,3
	add	a4,a3,a4
	.loc 1 3490 14
	ld	a4,0(a4)
	lbu	a3,-57(s0)
	mv	a1,a3
	mv	a0,a4
	jalr	a5
.LVL56:
	sd	a0,-48(s0)
	.loc 1 3494 36
	ld	a5,-48(s0)
	.loc 1 3494 8
	bge	a5,zero,.L321
	.loc 1 3495 20
	ld	a5,-48(s0)
	sd	a5,-24(s0)
.L321:
	.loc 1 3489 101 discriminator 2
	ld	a5,-40(s0)
	addi	a5,a5,1
	sd	a5,-40(s0)
.L320:
	.loc 1 3489 69 discriminator 1
	ld	a5,-32(s0)
	ld	a5,40(a5)
	.loc 1 3489 60 discriminator 1
	ld	a4,-40(s0)
	bltu	a4,a5,.L322
	.loc 1 3499 7
	ld	a5,-24(s0)
	.loc 1 3499 6
	blt	a5,zero,.L323
	.loc 1 3500 5
	ld	a0,-32(s0)
	call	ToggleStateSyncReInitialization
	.loc 1 3504 34
	ld	a5,-32(s0)
	sd	zero,160(a5)
.L323:
	.loc 1 3507 10
	ld	a5,-24(s0)
	.loc 1 3508 1
	mv	a0,a5
	ld	ra,56(sp)
	.cfi_restore 1
	ld	s0,48(sp)
	.cfi_restore 8
	.cfi_def_cfa 2, 64
	addi	sp,sp,64
	.cfi_def_cfa_offset 0
	jr	ra
	.cfi_endproc
.LFE42:
	.size	ConSplitterTextInReset, .-ConSplitterTextInReset
	.section	.text.ConSplitterTextInExDequeueKey,"ax",@progbits
	.align	1
	.globl	ConSplitterTextInExDequeueKey
	.type	ConSplitterTextInExDequeueKey, @function
ConSplitterTextInExDequeueKey:
.LFB43:
	.loc 1 3525 1
	.cfi_startproc
	addi	sp,sp,-32
	.cfi_def_cfa_offset 32
	sd	ra,24(sp)
	sd	s0,16(sp)
	.cfi_offset 1, -8
	.cfi_offset 8, -16
	addi	s0,sp,32
	.cfi_def_cfa 8, 0
	sd	a0,-24(s0)
	sd	a1,-32(s0)
	.loc 1 3526 14
	ld	a5,-24(s0)
	ld	a5,160(a5)
	.loc 1 3526 6
	bne	a5,zero,.L326
	.loc 1 3527 12
	li	a5,-1
	slli	a5,a5,63
	addi	a5,a5,14
	j	.L327
.L326:
	.loc 1 3533 21
	ld	a5,-24(s0)
	ld	a5,152(a5)
	.loc 1 3533 3
	li	a2,12
	mv	a1,a5
	ld	a0,-32(s0)
	call	CopyMem@plt
	.loc 1 3534 10
	ld	a5,-24(s0)
	ld	a5,160(a5)
	.loc 1 3534 31
	addi	a4,a5,-1
	ld	a5,-24(s0)
	sd	a4,160(a5)
	.loc 1 3536 5
	ld	a5,-24(s0)
	ld	a3,152(a5)
	.loc 1 3537 13
	ld	a5,-24(s0)
	ld	a5,152(a5)
	.loc 1 3537 5
	addi	a1,a5,12
	.loc 1 3538 12
	ld	a5,-24(s0)
	ld	a4,160(a5)
	.loc 1 3538 34
	mv	a5,a4
	slli	a5,a5,1
	add	a5,a5,a4
	slli	a5,a5,2
	.loc 1 3535 3
	mv	a2,a5
	mv	a0,a3
	call	CopyMem@plt
	.loc 1 3540 10
	li	a5,0
.L327:
	.loc 1 3541 1
	mv	a0,a5
	ld	ra,24(sp)
	.cfi_restore 1
	ld	s0,16(sp)
	.cfi_restore 8
	.cfi_def_cfa 2, 32
	addi	sp,sp,32
	.cfi_def_cfa_offset 0
	jr	ra
	.cfi_endproc
.LFE43:
	.size	ConSplitterTextInExDequeueKey, .-ConSplitterTextInExDequeueKey
	.section	.text.ConSplitterTextInPrivateReadKeyStroke,"ax",@progbits
	.align	1
	.globl	ConSplitterTextInPrivateReadKeyStroke
	.type	ConSplitterTextInPrivateReadKeyStroke, @function
ConSplitterTextInPrivateReadKeyStroke:
.LFB44:
	.loc 1 3564 1
	.cfi_startproc
	addi	sp,sp,-64
	.cfi_def_cfa_offset 64
	sd	ra,56(sp)
	sd	s0,48(sp)
	.cfi_offset 1, -8
	.cfi_offset 8, -16
	addi	s0,sp,64
	.cfi_def_cfa 8, 0
	sd	a0,-56(s0)
	sd	a1,-64(s0)
.L334:
	.loc 1 3573 14
	addi	a5,s0,-48
	mv	a1,a5
	ld	a0,-56(s0)
	call	ConSplitterTextInExDequeueKey
	sd	a0,-32(s0)
	.loc 1 3574 36
	ld	a5,-32(s0)
	.loc 1 3574 8
	blt	a5,zero,.L342
	.loc 1 3578 21
	lhu	a5,-48(s0)
	.loc 1 3578 8
	bne	a5,zero,.L331
	.loc 1 3578 57 discriminator 1
	lhu	a5,-46(s0)
	.loc 1 3578 42 discriminator 1
	beq	a5,zero,.L334
.L331:
	.loc 1 3579 7
	addi	a5,s0,-48
	li	a2,4
	mv	a1,a5
	ld	a0,-64(s0)
	call	CopyMem@plt
	.loc 1 3580 14
	ld	a5,-32(s0)
	j	.L340
.L342:
	.loc 1 3575 7
	nop
	.loc 1 3584 20
	ld	a5,-64(s0)
	sh	zero,2(a5)
	.loc 1 3585 17
	ld	a5,-64(s0)
	sh	zero,0(a5)
	.loc 1 3592 14
	sd	zero,-24(s0)
	.loc 1 3592 3
	j	.L335
.L339:
	.loc 1 3593 21
	ld	a5,-56(s0)
	ld	a4,48(a5)
	.loc 1 3593 33
	ld	a5,-24(s0)
	slli	a5,a5,3
	add	a5,a4,a5
	ld	a5,0(a5)
	.loc 1 3593 40
	ld	a5,8(a5)
	.loc 1 3594 51
	ld	a4,-56(s0)
	ld	a3,48(a4)
	.loc 1 3594 63
	ld	a4,-24(s0)
	slli	a4,a4,3
	add	a4,a3,a4
	.loc 1 3593 14
	ld	a4,0(a4)
	addi	a3,s0,-48
	mv	a1,a3
	mv	a0,a4
	jalr	a5
.LVL57:
	sd	a0,-32(s0)
	.loc 1 3597 9
	ld	a5,-32(s0)
	.loc 1 3597 8
	blt	a5,zero,.L336
	.loc 1 3602 23
	lhu	a5,-48(s0)
	.loc 1 3602 10
	bne	a5,zero,.L337
	.loc 1 3602 59 discriminator 1
	lhu	a5,-46(s0)
	.loc 1 3602 44 discriminator 1
	beq	a5,zero,.L335
.L337:
	.loc 1 3603 9
	addi	a5,s0,-48
	li	a2,4
	mv	a1,a5
	ld	a0,-64(s0)
	call	CopyMem@plt
	.loc 1 3604 16
	ld	a5,-32(s0)
	j	.L340
.L336:
	.loc 1 3610 12
	ld	a5,-24(s0)
	addi	a5,a5,1
	sd	a5,-24(s0)
.L335:
	.loc 1 3592 34 discriminator 1
	ld	a5,-56(s0)
	ld	a5,40(a5)
	.loc 1 3592 25 discriminator 1
	ld	a4,-24(s0)
	bltu	a4,a5,.L339
	.loc 1 3614 10
	li	a5,-1
	slli	a5,a5,63
	addi	a5,a5,6
.L340:
	.loc 1 3615 1
	mv	a0,a5
	ld	ra,56(sp)
	.cfi_restore 1
	ld	s0,48(sp)
	.cfi_restore 8
	.cfi_def_cfa 2, 64
	addi	sp,sp,64
	.cfi_def_cfa_offset 0
	jr	ra
	.cfi_endproc
.LFE44:
	.size	ConSplitterTextInPrivateReadKeyStroke, .-ConSplitterTextInPrivateReadKeyStroke
	.section	.text.ConSplitterTextInReadKeyStroke,"ax",@progbits
	.align	1
	.globl	ConSplitterTextInReadKeyStroke
	.type	ConSplitterTextInReadKeyStroke, @function
ConSplitterTextInReadKeyStroke:
.LFB45:
	.loc 1 3638 1
	.cfi_startproc
	addi	sp,sp,-48
	.cfi_def_cfa_offset 48
	sd	ra,40(sp)
	sd	s0,32(sp)
	.cfi_offset 1, -8
	.cfi_offset 8, -16
	addi	s0,sp,48
	.cfi_def_cfa 8, 0
	sd	a0,-40(s0)
	sd	a1,-48(s0)
	.loc 1 3641 15
	ld	a5,-40(s0)
	addi	a5,a5,-16
	.loc 1 3641 149
	ld	a4,0(a5)
	.loc 1 3641 234
	li	a5,1884516352
	addi	a5,a5,-1708
	bne	a4,a5,.L344
	.loc 1 3641 11 discriminator 1
	ld	a5,-40(s0)
	addi	a5,a5,-16
	sd	a5,-24(s0)
	j	.L345
.L344:
	.loc 1 3641 11 is_stmt 0 discriminator 2
	sd	zero,-24(s0)
.L345:
	.loc 1 3643 32 is_stmt 1
	ld	a5,-24(s0)
	sb	zero,377(a5)
	.loc 1 3648 7
	lla	a5,mConInIsConnect
	lbu	a5,0(a5)
	.loc 1 3648 6
	bne	a5,zero,.L346
	.loc 1 3648 24 discriminator 1
	la	a5,_gPcd_FixedAtBuild_PcdConInConnectOnDemand
	lbu	a5,0(a5)
	beq	a5,zero,.L346
	.loc 1 3650 8
	la	a5,gBS
	ld	a5,0(a5)
	ld	a5,104(a5)
	.loc 1 3650 5
	ld	a4,-24(s0)
	ld	a4,384(a4)
	mv	a0,a4
	jalr	a5
.LVL58:
	.loc 1 3651 21
	lla	a5,mConInIsConnect
	li	a4,1
	sb	a4,0(a5)
.L346:
	.loc 1 3654 10
	ld	a1,-48(s0)
	ld	a0,-24(s0)
	call	ConSplitterTextInPrivateReadKeyStroke
	mv	a5,a0
	.loc 1 3655 1
	mv	a0,a5
	ld	ra,40(sp)
	.cfi_restore 1
	ld	s0,32(sp)
	.cfi_restore 8
	.cfi_def_cfa 2, 48
	addi	sp,sp,48
	.cfi_def_cfa_offset 0
	jr	ra
	.cfi_endproc
.LFE45:
	.size	ConSplitterTextInReadKeyStroke, .-ConSplitterTextInReadKeyStroke
	.section	.text.ConSplitterTextInWaitForKey,"ax",@progbits
	.align	1
	.globl	ConSplitterTextInWaitForKey
	.type	ConSplitterTextInWaitForKey, @function
ConSplitterTextInWaitForKey:
.LFB46:
	.loc 1 3674 1
	.cfi_startproc
	addi	sp,sp,-64
	.cfi_def_cfa_offset 64
	sd	ra,56(sp)
	sd	s0,48(sp)
	.cfi_offset 1, -8
	.cfi_offset 8, -16
	addi	s0,sp,64
	.cfi_def_cfa 8, 0
	sd	a0,-56(s0)
	sd	a1,-64(s0)
	.loc 1 3679 11
	ld	a5,-64(s0)
	sd	a5,-32(s0)
	.loc 1 3681 14
	ld	a5,-32(s0)
	lbu	a5,377(a5)
	.loc 1 3681 6
	beq	a5,zero,.L349
	.loc 1 3685 8
	la	a5,gBS
	ld	a5,0(a5)
	ld	a5,104(a5)
	.loc 1 3685 5
	ld	a0,-56(s0)
	jalr	a5
.LVL59:
	.loc 1 3686 5
	j	.L348
.L349:
	.loc 1 3692 14
	sd	zero,-24(s0)
	.loc 1 3692 3
	j	.L351
.L353:
	.loc 1 3693 17
	la	a5,gBS
	ld	a5,0(a5)
	ld	a5,120(a5)
	.loc 1 3693 38
	ld	a4,-32(s0)
	ld	a3,48(a4)
	.loc 1 3693 50
	ld	a4,-24(s0)
	slli	a4,a4,3
	add	a4,a3,a4
	ld	a4,0(a4)
	.loc 1 3693 14
	ld	a4,16(a4)
	mv	a0,a4
	jalr	a5
.LVL60:
	sd	a0,-40(s0)
	.loc 1 3694 9
	ld	a5,-40(s0)
	.loc 1 3694 8
	blt	a5,zero,.L352
	.loc 1 3695 10
	la	a5,gBS
	ld	a5,0(a5)
	ld	a5,104(a5)
	.loc 1 3695 7
	ld	a0,-56(s0)
	jalr	a5
.LVL61:
	.loc 1 3696 36
	ld	a5,-32(s0)
	li	a4,1
	sb	a4,377(a5)
.L352:
	.loc 1 3692 66 discriminator 2
	ld	a5,-24(s0)
	addi	a5,a5,1
	sd	a5,-24(s0)
.L351:
	.loc 1 3692 34 discriminator 1
	ld	a5,-32(s0)
	ld	a5,40(a5)
	.loc 1 3692 25 discriminator 1
	ld	a4,-24(s0)
	bltu	a4,a5,.L353
.L348:
	.loc 1 3699 1
	ld	ra,56(sp)
	.cfi_restore 1
	ld	s0,48(sp)
	.cfi_restore 8
	.cfi_def_cfa 2, 64
	addi	sp,sp,64
	.cfi_def_cfa_offset 0
	jr	ra
	.cfi_endproc
.LFE46:
	.size	ConSplitterTextInWaitForKey, .-ConSplitterTextInWaitForKey
	.section	.text.IsKeyRegistered,"ax",@progbits
	.align	1
	.globl	IsKeyRegistered
	.type	IsKeyRegistered, @function
IsKeyRegistered:
.LFB47:
	.loc 1 3720 1
	.cfi_startproc
	addi	sp,sp,-32
	.cfi_def_cfa_offset 32
	sd	ra,24(sp)
	sd	s0,16(sp)
	.cfi_offset 1, -8
	.cfi_offset 8, -16
	addi	s0,sp,32
	.cfi_def_cfa 8, 0
	sd	a0,-24(s0)
	sd	a1,-32(s0)
	.loc 1 3723 27
	ld	a5,-24(s0)
	lhu	a4,0(a5)
	.loc 1 3723 54
	ld	a5,-32(s0)
	lhu	a5,0(a5)
	.loc 1 3723 6
	sext.w	a4,a4
	sext.w	a5,a5
	bne	a4,a5,.L355
	.loc 1 3724 27
	ld	a5,-24(s0)
	lhu	a4,2(a5)
	.loc 1 3724 57
	ld	a5,-32(s0)
	lhu	a5,2(a5)
	.loc 1 3723 65 discriminator 1
	sext.w	a4,a4
	sext.w	a5,a5
	beq	a4,a5,.L356
.L355:
	.loc 1 3726 12
	li	a5,0
	j	.L357
.L356:
	.loc 1 3732 32
	ld	a5,-24(s0)
	lw	a5,4(a5)
	.loc 1 3732 6
	beq	a5,zero,.L358
	.loc 1 3733 32
	ld	a5,-24(s0)
	lw	a4,4(a5)
	.loc 1 3733 69
	ld	a5,-32(s0)
	lw	a5,4(a5)
	.loc 1 3732 53 discriminator 1
	beq	a4,a5,.L358
	.loc 1 3735 12
	li	a5,0
	j	.L357
.L358:
	.loc 1 3738 32
	ld	a5,-24(s0)
	lbu	a5,8(a5)
	.loc 1 3738 6
	beq	a5,zero,.L359
	.loc 1 3739 32
	ld	a5,-24(s0)
	lbu	a4,8(a5)
	.loc 1 3739 70
	ld	a5,-32(s0)
	lbu	a5,8(a5)
	.loc 1 3738 54 discriminator 1
	beq	a4,a5,.L359
	.loc 1 3741 12
	li	a5,0
	j	.L357
.L359:
	.loc 1 3744 10
	li	a5,1
.L357:
	.loc 1 3745 1
	mv	a0,a5
	ld	ra,24(sp)
	.cfi_restore 1
	ld	s0,16(sp)
	.cfi_restore 8
	.cfi_def_cfa 2, 32
	addi	sp,sp,32
	.cfi_def_cfa_offset 0
	jr	ra
	.cfi_endproc
.LFE47:
	.size	IsKeyRegistered, .-IsKeyRegistered
	.section	.text.ConSplitterTextInResetEx,"ax",@progbits
	.align	1
	.globl	ConSplitterTextInResetEx
	.type	ConSplitterTextInResetEx, @function
ConSplitterTextInResetEx:
.LFB48:
	.loc 1 3764 1
	.cfi_startproc
	addi	sp,sp,-64
	.cfi_def_cfa_offset 64
	sd	ra,56(sp)
	sd	s0,48(sp)
	.cfi_offset 1, -8
	.cfi_offset 8, -16
	addi	s0,sp,64
	.cfi_def_cfa 8, 0
	sd	a0,-56(s0)
	mv	a5,a1
	sb	a5,-57(s0)
	.loc 1 3770 15
	ld	a5,-56(s0)
	addi	a5,a5,-64
	.loc 1 3770 149
	ld	a4,0(a5)
	.loc 1 3770 234
	li	a5,1884516352
	addi	a5,a5,-1708
	bne	a4,a5,.L361
	.loc 1 3770 11 discriminator 1
	ld	a5,-56(s0)
	addi	a5,a5,-64
	sd	a5,-32(s0)
	j	.L362
.L361:
	.loc 1 3770 11 is_stmt 0 discriminator 2
	sd	zero,-32(s0)
.L362:
	.loc 1 3772 32 is_stmt 1
	ld	a5,-32(s0)
	sb	zero,377(a5)
	.loc 1 3777 14
	sd	zero,-40(s0)
	.loc 1 3777 32
	sd	zero,-24(s0)
	.loc 1 3777 3
	j	.L363
.L365:
	.loc 1 3778 21
	ld	a5,-32(s0)
	ld	a4,120(a5)
	.loc 1 3778 35
	ld	a5,-40(s0)
	slli	a5,a5,3
	add	a5,a4,a5
	ld	a5,0(a5)
	.loc 1 3778 42
	ld	a5,0(a5)
	.loc 1 3779 53
	ld	a4,-32(s0)
	ld	a3,120(a4)
	.loc 1 3779 67
	ld	a4,-40(s0)
	slli	a4,a4,3
	add	a4,a3,a4
	.loc 1 3778 14
	ld	a4,0(a4)
	lbu	a3,-57(s0)
	mv	a1,a3
	mv	a0,a4
	jalr	a5
.LVL62:
	sd	a0,-48(s0)
	.loc 1 3782 36
	ld	a5,-48(s0)
	.loc 1 3782 8
	bge	a5,zero,.L364
	.loc 1 3783 20
	ld	a5,-48(s0)
	sd	a5,-24(s0)
.L364:
	.loc 1 3777 103 discriminator 2
	ld	a5,-40(s0)
	addi	a5,a5,1
	sd	a5,-40(s0)
.L363:
	.loc 1 3777 69 discriminator 1
	ld	a5,-32(s0)
	ld	a5,112(a5)
	.loc 1 3777 60 discriminator 1
	ld	a4,-40(s0)
	bltu	a4,a5,.L365
	.loc 1 3787 7
	ld	a5,-24(s0)
	.loc 1 3787 6
	blt	a5,zero,.L366
	.loc 1 3788 5
	ld	a0,-32(s0)
	call	ToggleStateSyncReInitialization
	.loc 1 3792 34
	ld	a5,-32(s0)
	sd	zero,160(a5)
.L366:
	.loc 1 3795 10
	ld	a5,-24(s0)
	.loc 1 3796 1
	mv	a0,a5
	ld	ra,56(sp)
	.cfi_restore 1
	ld	s0,48(sp)
	.cfi_restore 8
	.cfi_def_cfa 2, 64
	addi	sp,sp,64
	.cfi_def_cfa_offset 0
	jr	ra
	.cfi_endproc
.LFE48:
	.size	ConSplitterTextInResetEx, .-ConSplitterTextInResetEx
	.section	.text.ConSplitterTextInReadKeyStrokeEx,"ax",@progbits
	.align	1
	.globl	ConSplitterTextInReadKeyStrokeEx
	.type	ConSplitterTextInReadKeyStrokeEx, @function
ConSplitterTextInReadKeyStrokeEx:
.LFB49:
	.loc 1 3822 1
	.cfi_startproc
	addi	sp,sp,-80
	.cfi_def_cfa_offset 80
	sd	ra,72(sp)
	sd	s0,64(sp)
	.cfi_offset 1, -8
	.cfi_offset 8, -16
	addi	s0,sp,80
	.cfi_def_cfa 8, 0
	sd	a0,-72(s0)
	sd	a1,-80(s0)
	.loc 1 3829 6
	ld	a5,-80(s0)
	bne	a5,zero,.L369
	.loc 1 3830 12
	li	a5,-1
	slli	a5,a5,63
	addi	a5,a5,2
	j	.L385
.L369:
	.loc 1 3833 15
	ld	a5,-72(s0)
	addi	a5,a5,-64
	.loc 1 3833 149
	ld	a4,0(a5)
	.loc 1 3833 234
	li	a5,1884516352
	addi	a5,a5,-1708
	bne	a4,a5,.L371
	.loc 1 3833 11 discriminator 1
	ld	a5,-72(s0)
	addi	a5,a5,-64
	sd	a5,-24(s0)
	j	.L372
.L371:
	.loc 1 3833 11 is_stmt 0 discriminator 2
	sd	zero,-24(s0)
.L372:
	.loc 1 3835 32 is_stmt 1
	ld	a5,-24(s0)
	sb	zero,377(a5)
	.loc 1 3840 7
	lla	a5,mConInIsConnect
	lbu	a5,0(a5)
	.loc 1 3840 6
	bne	a5,zero,.L373
	.loc 1 3840 24 discriminator 1
	la	a5,_gPcd_FixedAtBuild_PcdConInConnectOnDemand
	lbu	a5,0(a5)
	beq	a5,zero,.L373
	.loc 1 3842 8
	la	a5,gBS
	ld	a5,0(a5)
	ld	a5,104(a5)
	.loc 1 3842 5
	ld	a4,-24(s0)
	ld	a4,384(a4)
	mv	a0,a4
	jalr	a5
.LVL63:
	.loc 1 3843 21
	lla	a5,mConInIsConnect
	li	a4,1
	sb	a4,0(a5)
.L373:
	.loc 1 3849 12
	ld	a1,-80(s0)
	ld	a0,-24(s0)
	call	ConSplitterTextInExDequeueKey
	sd	a0,-40(s0)
	.loc 1 3850 7
	ld	a5,-40(s0)
	.loc 1 3850 6
	blt	a5,zero,.L374
	.loc 1 3851 12
	ld	a5,-40(s0)
	j	.L385
.L374:
	.loc 1 3856 3
	addi	a5,s0,-48
	li	a1,8
	mv	a0,a5
	call	ZeroMem@plt
	.loc 1 3863 14
	sd	zero,-32(s0)
	.loc 1 3863 3
	j	.L375
.L381:
	.loc 1 3864 5
	addi	a5,s0,-64
	li	a1,12
	mv	a0,a5
	call	ZeroMem@plt
	.loc 1 3865 21
	ld	a5,-24(s0)
	ld	a4,120(a5)
	.loc 1 3865 35
	ld	a5,-32(s0)
	slli	a5,a5,3
	add	a5,a4,a5
	ld	a5,0(a5)
	.loc 1 3865 42
	ld	a5,8(a5)
	.loc 1 3866 53
	ld	a4,-24(s0)
	ld	a3,120(a4)
	.loc 1 3866 67
	ld	a4,-32(s0)
	slli	a4,a4,3
	add	a4,a3,a4
	.loc 1 3865 14
	ld	a4,0(a4)
	addi	a3,s0,-64
	mv	a1,a3
	mv	a0,a4
	jalr	a5
.LVL64:
	sd	a0,-40(s0)
	.loc 1 3869 36
	ld	a5,-40(s0)
	.loc 1 3869 8
	bge	a5,zero,.L376
	.loc 1 3869 62 discriminator 1
	ld	a4,-40(s0)
	li	a5,-1
	slli	a5,a5,63
	addi	a5,a5,6
	bne	a4,a5,.L386
.L376:
	.loc 1 3876 33
	lw	a5,-60(s0)
	.loc 1 3876 8
	bge	a5,zero,.L378
	.loc 1 3877 15
	lw	a4,-48(s0)
	.loc 1 3877 56
	lw	a5,-60(s0)
	.loc 1 3877 30
	or	a5,a4,a5
	sext.w	a5,a5
	sw	a5,-48(s0)
.L378:
	.loc 1 3880 33
	lbu	a5,-56(s0)
	.loc 1 3880 57
	slliw	a5,a5,24
	sraiw	a5,a5,24
	.loc 1 3880 8
	bge	a5,zero,.L379
	.loc 1 3881 15
	lbu	a4,-44(s0)
	.loc 1 3881 57
	lbu	a5,-56(s0)
	.loc 1 3881 31
	or	a5,a4,a5
	andi	a5,a5,0xff
	sb	a5,-44(s0)
.L379:
	.loc 1 3884 9
	ld	a5,-40(s0)
	.loc 1 3884 8
	blt	a5,zero,.L377
	.loc 1 3891 19
	ld	a5,-24(s0)
	lbu	a5,169(a5)
	.loc 1 3891 10
	bne	a5,zero,.L380
	.loc 1 3892 30
	lhu	a5,-64(s0)
	.loc 1 3891 46 discriminator 1
	bne	a5,zero,.L380
	.loc 1 3893 30
	lhu	a5,-62(s0)
	.loc 1 3892 51
	beq	a5,zero,.L377
.L380:
	.loc 1 3896 19
	ld	a5,-24(s0)
	ld	a3,152(a5)
	.loc 1 3896 37
	ld	a5,-24(s0)
	ld	a4,160(a5)
	.loc 1 3896 29
	mv	a5,a4
	slli	a5,a5,1
	add	a5,a5,a4
	slli	a5,a5,2
	.loc 1 3896 11
	add	a5,a3,a5
	.loc 1 3895 9
	addi	a4,s0,-64
	li	a2,12
	mv	a1,a4
	mv	a0,a5
	call	CopyMem@plt
	.loc 1 3900 16
	ld	a5,-24(s0)
	ld	a5,160(a5)
	.loc 1 3900 37
	addi	a4,a5,1
	ld	a5,-24(s0)
	sd	a4,160(a5)
	j	.L377
.L386:
	.loc 1 3870 7
	nop
.L377:
	.loc 1 3863 68 discriminator 2
	ld	a5,-32(s0)
	addi	a5,a5,1
	sd	a5,-32(s0)
.L375:
	.loc 1 3863 34 discriminator 1
	ld	a5,-24(s0)
	ld	a5,112(a5)
	.loc 1 3863 25 discriminator 1
	ld	a4,-32(s0)
	bltu	a4,a5,.L381
	.loc 1 3908 14
	sd	zero,-32(s0)
	.loc 1 3908 3
	j	.L382
.L383:
	.loc 1 3909 22
	ld	a5,-24(s0)
	ld	a3,152(a5)
	.loc 1 3909 32
	ld	a4,-32(s0)
	mv	a5,a4
	slli	a5,a5,1
	add	a5,a5,a4
	slli	a5,a5,2
	add	a5,a3,a5
	.loc 1 3909 14
	addi	a5,a5,4
	.loc 1 3909 5
	addi	a4,s0,-48
	li	a2,8
	mv	a1,a4
	mv	a0,a5
	call	CopyMem@plt
	.loc 1 3908 62 discriminator 3
	ld	a5,-32(s0)
	addi	a5,a5,1
	sd	a5,-32(s0)
.L382:
	.loc 1 3908 34 discriminator 1
	ld	a5,-24(s0)
	ld	a5,160(a5)
	.loc 1 3908 25 discriminator 1
	ld	a4,-32(s0)
	bltu	a4,a5,.L383
	.loc 1 3915 12
	ld	a1,-80(s0)
	ld	a0,-24(s0)
	call	ConSplitterTextInExDequeueKey
	sd	a0,-40(s0)
	.loc 1 3916 7
	ld	a5,-40(s0)
	.loc 1 3916 6
	blt	a5,zero,.L384
	.loc 1 3917 12
	ld	a5,-40(s0)
	j	.L385
.L384:
	.loc 1 3923 12
	ld	a5,-80(s0)
	.loc 1 3923 3
	li	a1,4
	mv	a0,a5
	call	ZeroMem@plt
	.loc 1 3924 12
	ld	a5,-80(s0)
	addi	a5,a5,4
	.loc 1 3924 3
	addi	a4,s0,-48
	li	a2,8
	mv	a1,a4
	mv	a0,a5
	call	CopyMem@plt
	.loc 1 3925 10
	li	a5,-1
	slli	a5,a5,63
	addi	a5,a5,6
.L385:
	.loc 1 3926 1
	mv	a0,a5
	ld	ra,72(sp)
	.cfi_restore 1
	ld	s0,64(sp)
	.cfi_restore 8
	.cfi_def_cfa 2, 80
	addi	sp,sp,80
	.cfi_def_cfa_offset 0
	jr	ra
	.cfi_endproc
.LFE49:
	.size	ConSplitterTextInReadKeyStrokeEx, .-ConSplitterTextInReadKeyStrokeEx
	.section	.text.ConSplitterTextInSetState,"ax",@progbits
	.align	1
	.globl	ConSplitterTextInSetState
	.type	ConSplitterTextInSetState, @function
ConSplitterTextInSetState:
.LFB50:
	.loc 1 3949 1
	.cfi_startproc
	addi	sp,sp,-64
	.cfi_def_cfa_offset 64
	sd	ra,56(sp)
	sd	s0,48(sp)
	.cfi_offset 1, -8
	.cfi_offset 8, -16
	addi	s0,sp,64
	.cfi_def_cfa 8, 0
	sd	a0,-56(s0)
	sd	a1,-64(s0)
	.loc 1 3955 6
	ld	a5,-64(s0)
	bne	a5,zero,.L388
	.loc 1 3956 12
	li	a5,-1
	slli	a5,a5,63
	addi	a5,a5,2
	j	.L395
.L388:
	.loc 1 3959 15
	ld	a5,-56(s0)
	addi	a5,a5,-64
	.loc 1 3959 149
	ld	a4,0(a5)
	.loc 1 3959 234
	li	a5,1884516352
	addi	a5,a5,-1708
	bne	a4,a5,.L390
	.loc 1 3959 11 discriminator 1
	ld	a5,-56(s0)
	addi	a5,a5,-64
	sd	a5,-24(s0)
	j	.L391
.L390:
	.loc 1 3959 11 is_stmt 0 discriminator 2
	sd	zero,-24(s0)
.L391:
	.loc 1 3965 28 is_stmt 1
	ld	a5,-64(s0)
	lbu	a5,0(a5)
	.loc 1 3965 26
	ori	a5,a5,64
	andi	a5,a5,0xff
	sb	a5,-41(s0)
	.loc 1 3971 14
	sd	zero,-32(s0)
	.loc 1 3971 3
	j	.L392
.L394:
	.loc 1 3972 21
	ld	a5,-24(s0)
	ld	a4,120(a5)
	.loc 1 3972 35
	ld	a5,-32(s0)
	slli	a5,a5,3
	add	a5,a4,a5
	ld	a5,0(a5)
	.loc 1 3972 42
	ld	a5,24(a5)
	.loc 1 3973 53
	ld	a4,-24(s0)
	ld	a3,120(a4)
	.loc 1 3973 67
	ld	a4,-32(s0)
	slli	a4,a4,3
	add	a4,a3,a4
	.loc 1 3972 14
	ld	a4,0(a4)
	addi	a3,s0,-41
	mv	a1,a3
	mv	a0,a4
	jalr	a5
.LVL65:
	sd	a0,-40(s0)
	.loc 1 3976 36
	ld	a5,-40(s0)
	.loc 1 3976 8
	bge	a5,zero,.L393
	.loc 1 3977 14
	ld	a5,-40(s0)
	j	.L395
.L393:
	.loc 1 3971 68 discriminator 2
	ld	a5,-32(s0)
	addi	a5,a5,1
	sd	a5,-32(s0)
.L392:
	.loc 1 3971 34 discriminator 1
	ld	a5,-24(s0)
	ld	a5,112(a5)
	.loc 1 3971 25 discriminator 1
	ld	a4,-32(s0)
	bltu	a4,a5,.L394
	.loc 1 3984 35
	lbu	a4,-41(s0)
	ld	a5,-24(s0)
	sb	a4,168(a5)
	.loc 1 3988 41
	ld	a5,-64(s0)
	lbu	a5,0(a5)
	.loc 1 3988 58
	sext.w	a5,a5
	andi	a5,a5,64
	sext.w	a5,a5
	.loc 1 3988 66
	srli	a5,a5,6
	andi	a5,a5,1
	andi	a5,a5,0xff
	mv	a4,a5
	.loc 1 3988 36
	ld	a5,-24(s0)
	sb	a4,169(a5)
	.loc 1 3990 10
	li	a5,0
.L395:
	.loc 1 3991 1
	mv	a0,a5
	ld	ra,56(sp)
	.cfi_restore 1
	ld	s0,48(sp)
	.cfi_restore 8
	.cfi_def_cfa 2, 64
	addi	sp,sp,64
	.cfi_def_cfa_offset 0
	jr	ra
	.cfi_endproc
.LFE50:
	.size	ConSplitterTextInSetState, .-ConSplitterTextInSetState
	.section	.text.ConSplitterTextInRegisterKeyNotify,"ax",@progbits
	.align	1
	.globl	ConSplitterTextInRegisterKeyNotify
	.type	ConSplitterTextInRegisterKeyNotify, @function
ConSplitterTextInRegisterKeyNotify:
.LFB51:
	.loc 1 4023 1
	.cfi_startproc
	addi	sp,sp,-96
	.cfi_def_cfa_offset 96
	sd	ra,88(sp)
	sd	s0,80(sp)
	.cfi_offset 1, -8
	.cfi_offset 8, -16
	addi	s0,sp,96
	.cfi_def_cfa 8, 0
	sd	a0,-72(s0)
	sd	a1,-80(s0)
	sd	a2,-88(s0)
	sd	a3,-96(s0)
	.loc 1 4031 6
	ld	a5,-80(s0)
	beq	a5,zero,.L397
	.loc 1 4031 33 discriminator 1
	ld	a5,-96(s0)
	beq	a5,zero,.L397
	.loc 1 4031 67 discriminator 2
	ld	a5,-88(s0)
	bne	a5,zero,.L398
.L397:
	.loc 1 4032 12
	li	a5,-1
	slli	a5,a5,63
	addi	a5,a5,2
	j	.L399
.L398:
	.loc 1 4035 15
	ld	a5,-72(s0)
	addi	a5,a5,-64
	.loc 1 4035 149
	ld	a4,0(a5)
	.loc 1 4035 234
	li	a5,1884516352
	addi	a5,a5,-1708
	bne	a4,a5,.L400
	.loc 1 4035 11 discriminator 1
	ld	a5,-72(s0)
	addi	a5,a5,-64
	sd	a5,-24(s0)
	j	.L401
.L400:
	.loc 1 4035 11 is_stmt 0 discriminator 2
	sd	zero,-24(s0)
.L401:
	.loc 1 4040 13 is_stmt 1
	ld	a5,-24(s0)
	ld	a5,136(a5)
	sd	a5,-40(s0)
	.loc 1 4040 3
	j	.L402
.L406:
	.loc 1 4041 23
	ld	a5,-40(s0)
	addi	a5,a5,-40
	.loc 1 4041 156
	ld	a4,0(a5)
	.loc 1 4041 241
	li	a5,1850961920
	addi	a5,a5,-1708
	bne	a4,a5,.L403
	.loc 1 4041 19 discriminator 1
	ld	a5,-40(s0)
	addi	a5,a5,-40
	sd	a5,-48(s0)
	j	.L404
.L403:
	.loc 1 4041 19 is_stmt 0 discriminator 2
	sd	zero,-48(s0)
.L404:
	.loc 1 4042 9 is_stmt 1
	ld	a5,-48(s0)
	addi	a5,a5,16
	ld	a1,-80(s0)
	mv	a0,a5
	call	IsKeyRegistered
	mv	a5,a0
	.loc 1 4042 8 discriminator 1
	beq	a5,zero,.L405
	.loc 1 4043 24
	ld	a5,-48(s0)
	ld	a5,32(a5)
	.loc 1 4043 10
	ld	a4,-88(s0)
	bne	a4,a5,.L405
	.loc 1 4044 23
	ld	a5,-96(s0)
	ld	a4,-48(s0)
	sd	a4,0(a5)
	.loc 1 4045 16
	li	a5,0
	j	.L399
.L405:
	.loc 1 4040 83 discriminator 2
	ld	a5,-40(s0)
	ld	a5,0(a5)
	sd	a5,-40(s0)
.L402:
	.loc 1 4040 56 discriminator 1
	ld	a5,-24(s0)
	addi	a5,a5,136
	.loc 1 4040 53 discriminator 1
	ld	a4,-40(s0)
	bne	a4,a5,.L406
	.loc 1 4053 45
	li	a0,56
	call	AllocateZeroPool@plt
	sd	a0,-56(s0)
	.loc 1 4054 6
	ld	a5,-56(s0)
	bne	a5,zero,.L407
	.loc 1 4055 12
	li	a5,-1
	slli	a5,a5,63
	addi	a5,a5,9
	j	.L399
.L407:
	.loc 1 4058 85
	ld	a5,-24(s0)
	ld	a5,128(a5)
	.loc 1 4058 76
	slli	a5,a5,3
	.loc 1 4058 42
	mv	a0,a5
	call	AllocateZeroPool@plt
	mv	a4,a0
	.loc 1 4058 31 discriminator 1
	ld	a5,-56(s0)
	sd	a4,8(a5)
	.loc 1 4059 16
	ld	a5,-56(s0)
	ld	a5,8(a5)
	.loc 1 4059 6
	bne	a5,zero,.L408
	.loc 1 4060 8
	la	a5,gBS
	ld	a5,0(a5)
	ld	a5,72(a5)
	.loc 1 4060 5
	ld	a0,-56(s0)
	jalr	a5
.LVL66:
	.loc 1 4061 12
	li	a5,-1
	slli	a5,a5,63
	addi	a5,a5,9
	j	.L399
.L408:
	.loc 1 4064 24
	ld	a5,-56(s0)
	li	a4,1850961920
	addi	a4,a4,-1708
	sd	a4,0(a5)
	.loc 1 4065 32
	ld	a5,-56(s0)
	ld	a4,-88(s0)
	sd	a4,32(a5)
	.loc 1 4066 12
	ld	a5,-56(s0)
	addi	a5,a5,16
	.loc 1 4066 3
	li	a2,12
	ld	a1,-80(s0)
	mv	a0,a5
	call	CopyMem@plt
	.loc 1 4072 14
	sd	zero,-32(s0)
	.loc 1 4072 3
	j	.L409
.L413:
	.loc 1 4073 21
	ld	a5,-24(s0)
	ld	a4,120(a5)
	.loc 1 4073 35
	ld	a5,-32(s0)
	slli	a5,a5,3
	add	a5,a4,a5
	ld	a5,0(a5)
	.loc 1 4073 42
	ld	a5,32(a5)
	.loc 1 4074 53
	ld	a4,-24(s0)
	ld	a3,120(a4)
	.loc 1 4074 67
	ld	a4,-32(s0)
	slli	a4,a4,3
	add	a4,a3,a4
	.loc 1 4073 14
	ld	a0,0(a4)
	.loc 1 4077 56
	ld	a4,-56(s0)
	ld	a3,8(a4)
	.loc 1 4077 74
	ld	a4,-32(s0)
	slli	a4,a4,3
	.loc 1 4073 14
	add	a4,a3,a4
	mv	a3,a4
	ld	a2,-88(s0)
	ld	a1,-80(s0)
	jalr	a5
.LVL67:
	sd	a0,-64(s0)
	.loc 1 4079 36
	ld	a5,-64(s0)
	.loc 1 4079 8
	bge	a5,zero,.L410
	.loc 1 4083 13
	j	.L411
.L412:
	.loc 1 4084 16
	ld	a5,-24(s0)
	ld	a4,120(a5)
	.loc 1 4084 30
	ld	a5,-32(s0)
	slli	a5,a5,3
	add	a5,a4,a5
	ld	a5,0(a5)
	.loc 1 4084 37
	ld	a5,40(a5)
	.loc 1 4085 48
	ld	a4,-24(s0)
	ld	a3,120(a4)
	.loc 1 4085 62
	ld	a4,-32(s0)
	slli	a4,a4,3
	add	a4,a3,a4
	.loc 1 4084 9
	ld	a2,0(a4)
	.loc 1 4086 50
	ld	a4,-56(s0)
	ld	a3,8(a4)
	.loc 1 4086 68
	ld	a4,-32(s0)
	slli	a4,a4,3
	add	a4,a3,a4
	.loc 1 4084 9
	ld	a4,0(a4)
	mv	a1,a4
	mv	a0,a2
	jalr	a5
.LVL68:
.L411:
	.loc 1 4083 19
	ld	a5,-32(s0)
	addi	a4,a5,-1
	sd	a4,-32(s0)
	.loc 1 4083 22
	bne	a5,zero,.L412
	.loc 1 4090 10
	la	a5,gBS
	ld	a5,0(a5)
	ld	a5,72(a5)
	.loc 1 4090 31
	ld	a4,-56(s0)
	ld	a4,8(a4)
	.loc 1 4090 7
	mv	a0,a4
	jalr	a5
.LVL69:
	.loc 1 4091 10
	la	a5,gBS
	ld	a5,0(a5)
	ld	a5,72(a5)
	.loc 1 4091 7
	ld	a0,-56(s0)
	jalr	a5
.LVL70:
	.loc 1 4092 14
	ld	a5,-64(s0)
	j	.L399
.L410:
	.loc 1 4072 68 discriminator 2
	ld	a5,-32(s0)
	addi	a5,a5,1
	sd	a5,-32(s0)
.L409:
	.loc 1 4072 34 discriminator 1
	ld	a5,-24(s0)
	ld	a5,112(a5)
	.loc 1 4072 25 discriminator 1
	ld	a4,-32(s0)
	bltu	a4,a5,.L413
	.loc 1 4096 3
	ld	a5,-24(s0)
	addi	a4,a5,136
	ld	a5,-56(s0)
	addi	a5,a5,40
	mv	a1,a5
	mv	a0,a4
	call	InsertTailList@plt
	.loc 1 4098 17
	ld	a5,-96(s0)
	ld	a4,-56(s0)
	sd	a4,0(a5)
	.loc 1 4100 10
	li	a5,0
.L399:
	.loc 1 4101 1
	mv	a0,a5
	ld	ra,88(sp)
	.cfi_restore 1
	ld	s0,80(sp)
	.cfi_restore 8
	.cfi_def_cfa 2, 96
	addi	sp,sp,96
	.cfi_def_cfa_offset 0
	jr	ra
	.cfi_endproc
.LFE51:
	.size	ConSplitterTextInRegisterKeyNotify, .-ConSplitterTextInRegisterKeyNotify
	.section	.text.ConSplitterTextInUnregisterKeyNotify,"ax",@progbits
	.align	1
	.globl	ConSplitterTextInUnregisterKeyNotify
	.type	ConSplitterTextInUnregisterKeyNotify, @function
ConSplitterTextInUnregisterKeyNotify:
.LFB52:
	.loc 1 4121 1
	.cfi_startproc
	addi	sp,sp,-64
	.cfi_def_cfa_offset 64
	sd	ra,56(sp)
	sd	s0,48(sp)
	.cfi_offset 1, -8
	.cfi_offset 8, -16
	addi	s0,sp,64
	.cfi_def_cfa 8, 0
	sd	a0,-56(s0)
	sd	a1,-64(s0)
	.loc 1 4127 6
	ld	a5,-64(s0)
	bne	a5,zero,.L415
	.loc 1 4128 12
	li	a5,-1
	slli	a5,a5,63
	addi	a5,a5,2
	j	.L416
.L415:
	.loc 1 4131 15
	ld	a5,-56(s0)
	addi	a5,a5,-64
	.loc 1 4131 149
	ld	a4,0(a5)
	.loc 1 4131 234
	li	a5,1884516352
	addi	a5,a5,-1708
	bne	a4,a5,.L417
	.loc 1 4131 11 discriminator 1
	ld	a5,-56(s0)
	addi	a5,a5,-64
	sd	a5,-24(s0)
	j	.L418
.L417:
	.loc 1 4131 11 is_stmt 0 discriminator 2
	sd	zero,-24(s0)
.L418:
	.loc 1 4133 13 is_stmt 1
	ld	a5,-24(s0)
	ld	a5,136(a5)
	sd	a5,-48(s0)
	.loc 1 4133 3
	j	.L419
.L425:
	.loc 1 4134 23
	ld	a5,-48(s0)
	addi	a5,a5,-40
	.loc 1 4134 156
	ld	a4,0(a5)
	.loc 1 4134 241
	li	a5,1850961920
	addi	a5,a5,-1708
	bne	a4,a5,.L420
	.loc 1 4134 19 discriminator 1
	ld	a5,-48(s0)
	addi	a5,a5,-40
	sd	a5,-40(s0)
	j	.L421
.L420:
	.loc 1 4134 19 is_stmt 0 discriminator 2
	sd	zero,-40(s0)
.L421:
	.loc 1 4135 8 is_stmt 1
	ld	a4,-40(s0)
	ld	a5,-64(s0)
	bne	a4,a5,.L422
	.loc 1 4136 18
	sd	zero,-32(s0)
	.loc 1 4136 7
	j	.L423
.L424:
	.loc 1 4137 16
	ld	a5,-24(s0)
	ld	a4,120(a5)
	.loc 1 4137 30
	ld	a5,-32(s0)
	slli	a5,a5,3
	add	a5,a4,a5
	ld	a5,0(a5)
	.loc 1 4137 37
	ld	a5,40(a5)
	.loc 1 4138 48
	ld	a4,-24(s0)
	ld	a3,120(a4)
	.loc 1 4138 62
	ld	a4,-32(s0)
	slli	a4,a4,3
	add	a4,a3,a4
	.loc 1 4137 9
	ld	a2,0(a4)
	.loc 1 4139 54
	ld	a4,-40(s0)
	ld	a3,8(a4)
	.loc 1 4139 72
	ld	a4,-32(s0)
	slli	a4,a4,3
	add	a4,a3,a4
	.loc 1 4137 9
	ld	a4,0(a4)
	mv	a1,a4
	mv	a0,a2
	jalr	a5
.LVL71:
	.loc 1 4136 72 discriminator 3
	ld	a5,-32(s0)
	addi	a5,a5,1
	sd	a5,-32(s0)
.L423:
	.loc 1 4136 38 discriminator 1
	ld	a5,-24(s0)
	ld	a5,112(a5)
	.loc 1 4136 29 discriminator 1
	ld	a4,-32(s0)
	bltu	a4,a5,.L424
	.loc 1 4143 24
	ld	a5,-40(s0)
	addi	a5,a5,40
	.loc 1 4143 7
	mv	a0,a5
	call	RemoveEntryList@plt
	.loc 1 4145 10
	la	a5,gBS
	ld	a5,0(a5)
	ld	a5,72(a5)
	.loc 1 4145 35
	ld	a4,-40(s0)
	ld	a4,8(a4)
	.loc 1 4145 7
	mv	a0,a4
	jalr	a5
.LVL72:
	.loc 1 4146 10
	la	a5,gBS
	ld	a5,0(a5)
	ld	a5,72(a5)
	.loc 1 4146 7
	ld	a0,-40(s0)
	jalr	a5
.LVL73:
	.loc 1 4147 14
	li	a5,0
	j	.L416
.L422:
	.loc 1 4133 83 discriminator 2
	ld	a5,-48(s0)
	ld	a5,0(a5)
	sd	a5,-48(s0)
.L419:
	.loc 1 4133 56 discriminator 1
	ld	a5,-24(s0)
	addi	a5,a5,136
	.loc 1 4133 53 discriminator 1
	ld	a4,-48(s0)
	bne	a4,a5,.L425
	.loc 1 4154 10
	li	a5,-1
	slli	a5,a5,63
	addi	a5,a5,2
.L416:
	.loc 1 4155 1
	mv	a0,a5
	ld	ra,56(sp)
	.cfi_restore 1
	ld	s0,48(sp)
	.cfi_restore 8
	.cfi_def_cfa 2, 64
	addi	sp,sp,64
	.cfi_def_cfa_offset 0
	jr	ra
	.cfi_endproc
.LFE52:
	.size	ConSplitterTextInUnregisterKeyNotify, .-ConSplitterTextInUnregisterKeyNotify
	.section	.text.ConSplitterSimplePointerReset,"ax",@progbits
	.align	1
	.globl	ConSplitterSimplePointerReset
	.type	ConSplitterSimplePointerReset, @function
ConSplitterSimplePointerReset:
.LFB53:
	.loc 1 4174 1
	.cfi_startproc
	addi	sp,sp,-64
	.cfi_def_cfa_offset 64
	sd	ra,56(sp)
	sd	s0,48(sp)
	.cfi_offset 1, -8
	.cfi_offset 8, -16
	addi	s0,sp,64
	.cfi_def_cfa 8, 0
	sd	a0,-56(s0)
	mv	a5,a1
	sb	a5,-57(s0)
	.loc 1 4180 15
	ld	a5,-56(s0)
	addi	a5,a5,-176
	.loc 1 4180 156
	ld	a4,0(a5)
	.loc 1 4180 241
	li	a5,1884516352
	addi	a5,a5,-1708
	bne	a4,a5,.L427
	.loc 1 4180 11 discriminator 1
	ld	a5,-56(s0)
	addi	a5,a5,-176
	sd	a5,-32(s0)
	j	.L428
.L427:
	.loc 1 4180 11 is_stmt 0 discriminator 2
	sd	zero,-32(s0)
.L428:
	.loc 1 4182 34 is_stmt 1
	ld	a5,-32(s0)
	sb	zero,378(a5)
	.loc 1 4184 14
	ld	a5,-32(s0)
	ld	a5,240(a5)
	.loc 1 4184 6
	bne	a5,zero,.L429
	.loc 1 4185 12
	li	a5,0
	j	.L430
.L429:
	.loc 1 4191 14
	sd	zero,-40(s0)
	.loc 1 4191 32
	sd	zero,-24(s0)
	.loc 1 4191 3
	j	.L431
.L433:
	.loc 1 4192 21
	ld	a5,-32(s0)
	ld	a4,248(a5)
	.loc 1 4192 34
	ld	a5,-40(s0)
	slli	a5,a5,3
	add	a5,a4,a5
	ld	a5,0(a5)
	.loc 1 4192 41
	ld	a5,0(a5)
	.loc 1 4193 52
	ld	a4,-32(s0)
	ld	a3,248(a4)
	.loc 1 4193 65
	ld	a4,-40(s0)
	slli	a4,a4,3
	add	a4,a3,a4
	.loc 1 4192 14
	ld	a4,0(a4)
	lbu	a3,-57(s0)
	mv	a1,a3
	mv	a0,a4
	jalr	a5
.LVL74:
	sd	a0,-48(s0)
	.loc 1 4196 36
	ld	a5,-48(s0)
	.loc 1 4196 8
	bge	a5,zero,.L432
	.loc 1 4197 20
	ld	a5,-48(s0)
	sd	a5,-24(s0)
.L432:
	.loc 1 4191 101 discriminator 2
	ld	a5,-40(s0)
	addi	a5,a5,1
	sd	a5,-40(s0)
.L431:
	.loc 1 4191 69 discriminator 1
	ld	a5,-32(s0)
	ld	a5,240(a5)
	.loc 1 4191 60 discriminator 1
	ld	a4,-40(s0)
	bltu	a4,a5,.L433
	.loc 1 4201 10
	ld	a5,-24(s0)
.L430:
	.loc 1 4202 1
	mv	a0,a5
	ld	ra,56(sp)
	.cfi_restore 1
	ld	s0,48(sp)
	.cfi_restore 8
	.cfi_def_cfa 2, 64
	addi	sp,sp,64
	.cfi_def_cfa_offset 0
	jr	ra
	.cfi_endproc
.LFE53:
	.size	ConSplitterSimplePointerReset, .-ConSplitterSimplePointerReset
	.section	.text.ConSplitterSimplePointerPrivateGetState,"ax",@progbits
	.align	1
	.globl	ConSplitterSimplePointerPrivateGetState
	.type	ConSplitterSimplePointerPrivateGetState, @function
ConSplitterSimplePointerPrivateGetState:
.LFB54:
	.loc 1 4223 1
	.cfi_startproc
	addi	sp,sp,-80
	.cfi_def_cfa_offset 80
	sd	ra,72(sp)
	sd	s0,64(sp)
	.cfi_offset 1, -8
	.cfi_offset 8, -16
	addi	s0,sp,80
	.cfi_def_cfa 8, 0
	sd	a0,-72(s0)
	sd	a1,-80(s0)
	.loc 1 4229 28
	ld	a5,-80(s0)
	sw	zero,0(a5)
	.loc 1 4230 28
	ld	a5,-80(s0)
	sw	zero,4(a5)
	.loc 1 4231 28
	ld	a5,-80(s0)
	sw	zero,8(a5)
	.loc 1 4232 21
	ld	a5,-80(s0)
	sb	zero,12(a5)
	.loc 1 4233 22
	ld	a5,-80(s0)
	sb	zero,13(a5)
	.loc 1 4240 16
	li	a5,-1
	slli	a5,a5,63
	addi	a5,a5,6
	sd	a5,-24(s0)
	.loc 1 4241 14
	sd	zero,-32(s0)
	.loc 1 4241 3
	j	.L435
.L443:
	.loc 1 4242 21
	ld	a5,-72(s0)
	ld	a4,248(a5)
	.loc 1 4242 34
	ld	a5,-32(s0)
	slli	a5,a5,3
	add	a5,a4,a5
	ld	a5,0(a5)
	.loc 1 4242 41
	ld	a5,8(a5)
	.loc 1 4243 52
	ld	a4,-72(s0)
	ld	a3,248(a4)
	.loc 1 4243 65
	ld	a4,-32(s0)
	slli	a4,a4,3
	add	a4,a3,a4
	.loc 1 4242 14
	ld	a4,0(a4)
	addi	a3,s0,-56
	mv	a1,a3
	mv	a0,a4
	jalr	a5
.LVL75:
	sd	a0,-40(s0)
	.loc 1 4246 9
	ld	a5,-40(s0)
	.loc 1 4246 8
	blt	a5,zero,.L436
	.loc 1 4247 10
	ld	a4,-24(s0)
	li	a5,-1
	slli	a5,a5,63
	addi	a5,a5,6
	bne	a4,a5,.L437
	.loc 1 4248 22
	sd	zero,-24(s0)
.L437:
	.loc 1 4251 23
	lbu	a5,-44(s0)
	.loc 1 4251 10
	beq	a5,zero,.L438
	.loc 1 4252 27
	ld	a5,-80(s0)
	li	a4,1
	sb	a4,12(a5)
.L438:
	.loc 1 4255 23
	lbu	a5,-43(s0)
	.loc 1 4255 10
	beq	a5,zero,.L439
	.loc 1 4256 28
	ld	a5,-80(s0)
	li	a4,1
	sb	a4,13(a5)
.L439:
	.loc 1 4259 24
	lw	a5,-56(s0)
	.loc 1 4259 10
	beq	a5,zero,.L440
	.loc 1 4259 60 discriminator 1
	ld	a5,-72(s0)
	ld	a4,248(a5)
	.loc 1 4259 73 discriminator 1
	ld	a5,-32(s0)
	slli	a5,a5,3
	add	a5,a4,a5
	ld	a5,0(a5)
	.loc 1 4259 80 discriminator 1
	ld	a5,24(a5)
	.loc 1 4259 86 discriminator 1
	ld	a5,0(a5)
	.loc 1 4259 49 discriminator 1
	beq	a5,zero,.L440
	.loc 1 4260 14
	ld	a5,-80(s0)
	lw	a4,0(a5)
	.loc 1 4260 50
	lw	a3,-56(s0)
	.loc 1 4260 104
	ld	a5,-72(s0)
	ld	a5,208(a5)
	.loc 1 4260 71
	sext.w	a5,a5
	.loc 1 4260 69
	mulw	a5,a3,a5
	sext.w	a3,a5
	.loc 1 4260 134
	ld	a5,-72(s0)
	ld	a2,248(a5)
	.loc 1 4260 147
	ld	a5,-32(s0)
	slli	a5,a5,3
	add	a5,a2,a5
	ld	a5,0(a5)
	.loc 1 4260 154
	ld	a5,24(a5)
	.loc 1 4260 160
	ld	a5,0(a5)
	.loc 1 4260 120
	sext.w	a5,a5
	.loc 1 4260 118
	divw	a5,a3,a5
	sext.w	a5,a5
	.loc 1 4260 34
	addw	a5,a4,a5
	sext.w	a4,a5
	ld	a5,-80(s0)
	sw	a4,0(a5)
.L440:
	.loc 1 4263 24
	lw	a5,-52(s0)
	.loc 1 4263 10
	beq	a5,zero,.L441
	.loc 1 4263 60 discriminator 1
	ld	a5,-72(s0)
	ld	a4,248(a5)
	.loc 1 4263 73 discriminator 1
	ld	a5,-32(s0)
	slli	a5,a5,3
	add	a5,a4,a5
	ld	a5,0(a5)
	.loc 1 4263 80 discriminator 1
	ld	a5,24(a5)
	.loc 1 4263 86 discriminator 1
	ld	a5,8(a5)
	.loc 1 4263 49 discriminator 1
	beq	a5,zero,.L441
	.loc 1 4264 14
	ld	a5,-80(s0)
	lw	a4,4(a5)
	.loc 1 4264 50
	lw	a3,-52(s0)
	.loc 1 4264 104
	ld	a5,-72(s0)
	ld	a5,216(a5)
	.loc 1 4264 71
	sext.w	a5,a5
	.loc 1 4264 69
	mulw	a5,a3,a5
	sext.w	a3,a5
	.loc 1 4264 134
	ld	a5,-72(s0)
	ld	a2,248(a5)
	.loc 1 4264 147
	ld	a5,-32(s0)
	slli	a5,a5,3
	add	a5,a2,a5
	ld	a5,0(a5)
	.loc 1 4264 154
	ld	a5,24(a5)
	.loc 1 4264 160
	ld	a5,8(a5)
	.loc 1 4264 120
	sext.w	a5,a5
	.loc 1 4264 118
	divw	a5,a3,a5
	sext.w	a5,a5
	.loc 1 4264 34
	addw	a5,a4,a5
	sext.w	a4,a5
	ld	a5,-80(s0)
	sw	a4,4(a5)
.L441:
	.loc 1 4267 24
	lw	a5,-48(s0)
	.loc 1 4267 10
	beq	a5,zero,.L442
	.loc 1 4267 60 discriminator 1
	ld	a5,-72(s0)
	ld	a4,248(a5)
	.loc 1 4267 73 discriminator 1
	ld	a5,-32(s0)
	slli	a5,a5,3
	add	a5,a4,a5
	ld	a5,0(a5)
	.loc 1 4267 80 discriminator 1
	ld	a5,24(a5)
	.loc 1 4267 86 discriminator 1
	ld	a5,16(a5)
	.loc 1 4267 49 discriminator 1
	beq	a5,zero,.L442
	.loc 1 4268 14
	ld	a5,-80(s0)
	lw	a4,8(a5)
	.loc 1 4268 50
	lw	a3,-48(s0)
	.loc 1 4268 104
	ld	a5,-72(s0)
	ld	a5,224(a5)
	.loc 1 4268 71
	sext.w	a5,a5
	.loc 1 4268 69
	mulw	a5,a3,a5
	sext.w	a3,a5
	.loc 1 4268 134
	ld	a5,-72(s0)
	ld	a2,248(a5)
	.loc 1 4268 147
	ld	a5,-32(s0)
	slli	a5,a5,3
	add	a5,a2,a5
	ld	a5,0(a5)
	.loc 1 4268 154
	ld	a5,24(a5)
	.loc 1 4268 160
	ld	a5,16(a5)
	.loc 1 4268 120
	sext.w	a5,a5
	.loc 1 4268 118
	divw	a5,a3,a5
	sext.w	a5,a5
	.loc 1 4268 34
	addw	a5,a4,a5
	sext.w	a4,a5
	ld	a5,-80(s0)
	sw	a4,8(a5)
	j	.L442
.L436:
	.loc 1 4270 15
	ld	a4,-40(s0)
	li	a5,-1
	slli	a5,a5,63
	addi	a5,a5,7
	bne	a4,a5,.L442
	.loc 1 4271 20
	li	a5,-1
	slli	a5,a5,63
	addi	a5,a5,7
	sd	a5,-24(s0)
.L442:
	.loc 1 4241 66 discriminator 2
	ld	a5,-32(s0)
	addi	a5,a5,1
	sd	a5,-32(s0)
.L435:
	.loc 1 4241 34 discriminator 1
	ld	a5,-72(s0)
	ld	a5,240(a5)
	.loc 1 4241 25 discriminator 1
	ld	a4,-32(s0)
	bltu	a4,a5,.L443
	.loc 1 4275 10
	ld	a5,-24(s0)
	.loc 1 4276 1
	mv	a0,a5
	ld	ra,72(sp)
	.cfi_restore 1
	ld	s0,64(sp)
	.cfi_restore 8
	.cfi_def_cfa 2, 80
	addi	sp,sp,80
	.cfi_def_cfa_offset 0
	jr	ra
	.cfi_endproc
.LFE54:
	.size	ConSplitterSimplePointerPrivateGetState, .-ConSplitterSimplePointerPrivateGetState
	.section	.text.ConSplitterSimplePointerGetState,"ax",@progbits
	.align	1
	.globl	ConSplitterSimplePointerGetState
	.type	ConSplitterSimplePointerGetState, @function
ConSplitterSimplePointerGetState:
.LFB55:
	.loc 1 4297 1
	.cfi_startproc
	addi	sp,sp,-48
	.cfi_def_cfa_offset 48
	sd	ra,40(sp)
	sd	s0,32(sp)
	.cfi_offset 1, -8
	.cfi_offset 8, -16
	addi	s0,sp,48
	.cfi_def_cfa 8, 0
	sd	a0,-40(s0)
	sd	a1,-48(s0)
	.loc 1 4300 15
	ld	a5,-40(s0)
	addi	a5,a5,-176
	.loc 1 4300 156
	ld	a4,0(a5)
	.loc 1 4300 241
	li	a5,1884516352
	addi	a5,a5,-1708
	bne	a4,a5,.L446
	.loc 1 4300 11 discriminator 1
	ld	a5,-40(s0)
	addi	a5,a5,-176
	sd	a5,-24(s0)
	j	.L447
.L446:
	.loc 1 4300 11 is_stmt 0 discriminator 2
	sd	zero,-24(s0)
.L447:
	.loc 1 4302 34 is_stmt 1
	ld	a5,-24(s0)
	sb	zero,378(a5)
	.loc 1 4304 10
	ld	a1,-48(s0)
	ld	a0,-24(s0)
	call	ConSplitterSimplePointerPrivateGetState
	mv	a5,a0
	.loc 1 4305 1
	mv	a0,a5
	ld	ra,40(sp)
	.cfi_restore 1
	ld	s0,32(sp)
	.cfi_restore 8
	.cfi_def_cfa 2, 48
	addi	sp,sp,48
	.cfi_def_cfa_offset 0
	jr	ra
	.cfi_endproc
.LFE55:
	.size	ConSplitterSimplePointerGetState, .-ConSplitterSimplePointerGetState
	.section	.text.ConSplitterSimplePointerWaitForInput,"ax",@progbits
	.align	1
	.globl	ConSplitterSimplePointerWaitForInput
	.type	ConSplitterSimplePointerWaitForInput, @function
ConSplitterSimplePointerWaitForInput:
.LFB56:
	.loc 1 4323 1
	.cfi_startproc
	addi	sp,sp,-64
	.cfi_def_cfa_offset 64
	sd	ra,56(sp)
	sd	s0,48(sp)
	.cfi_offset 1, -8
	.cfi_offset 8, -16
	addi	s0,sp,64
	.cfi_def_cfa 8, 0
	sd	a0,-56(s0)
	sd	a1,-64(s0)
	.loc 1 4328 11
	ld	a5,-64(s0)
	sd	a5,-32(s0)
	.loc 1 4333 14
	ld	a5,-32(s0)
	lbu	a5,378(a5)
	.loc 1 4333 6
	beq	a5,zero,.L450
	.loc 1 4334 8
	la	a5,gBS
	ld	a5,0(a5)
	ld	a5,104(a5)
	.loc 1 4334 5
	ld	a0,-56(s0)
	jalr	a5
.LVL76:
	.loc 1 4335 5
	j	.L449
.L450:
	.loc 1 4341 14
	sd	zero,-24(s0)
	.loc 1 4341 3
	j	.L452
.L454:
	.loc 1 4342 17
	la	a5,gBS
	ld	a5,0(a5)
	ld	a5,120(a5)
	.loc 1 4342 38
	ld	a4,-32(s0)
	ld	a3,248(a4)
	.loc 1 4342 51
	ld	a4,-24(s0)
	slli	a4,a4,3
	add	a4,a3,a4
	ld	a4,0(a4)
	.loc 1 4342 14
	ld	a4,16(a4)
	mv	a0,a4
	jalr	a5
.LVL77:
	sd	a0,-40(s0)
	.loc 1 4343 9
	ld	a5,-40(s0)
	.loc 1 4343 8
	blt	a5,zero,.L453
	.loc 1 4344 10
	la	a5,gBS
	ld	a5,0(a5)
	ld	a5,104(a5)
	.loc 1 4344 7
	ld	a0,-56(s0)
	jalr	a5
.LVL78:
	.loc 1 4345 38
	ld	a5,-32(s0)
	li	a4,1
	sb	a4,378(a5)
.L453:
	.loc 1 4341 66 discriminator 2
	ld	a5,-24(s0)
	addi	a5,a5,1
	sd	a5,-24(s0)
.L452:
	.loc 1 4341 34 discriminator 1
	ld	a5,-32(s0)
	ld	a5,240(a5)
	.loc 1 4341 25 discriminator 1
	ld	a4,-24(s0)
	bltu	a4,a5,.L454
.L449:
	.loc 1 4348 1
	ld	ra,56(sp)
	.cfi_restore 1
	ld	s0,48(sp)
	.cfi_restore 8
	.cfi_def_cfa 2, 64
	addi	sp,sp,64
	.cfi_def_cfa_offset 0
	jr	ra
	.cfi_endproc
.LFE56:
	.size	ConSplitterSimplePointerWaitForInput, .-ConSplitterSimplePointerWaitForInput
	.section	.text.ConSplitterAbsolutePointerReset,"ax",@progbits
	.align	1
	.globl	ConSplitterAbsolutePointerReset
	.type	ConSplitterAbsolutePointerReset, @function
ConSplitterAbsolutePointerReset:
.LFB57:
	.loc 1 4367 1
	.cfi_startproc
	addi	sp,sp,-64
	.cfi_def_cfa_offset 64
	sd	ra,56(sp)
	sd	s0,48(sp)
	.cfi_offset 1, -8
	.cfi_offset 8, -16
	addi	s0,sp,64
	.cfi_def_cfa 8, 0
	sd	a0,-56(s0)
	mv	a5,a1
	sb	a5,-57(s0)
	.loc 1 4373 15
	ld	a5,-56(s0)
	addi	a5,a5,-264
	.loc 1 4373 156
	ld	a4,0(a5)
	.loc 1 4373 241
	li	a5,1884516352
	addi	a5,a5,-1708
	bne	a4,a5,.L456
	.loc 1 4373 11 discriminator 1
	ld	a5,-56(s0)
	addi	a5,a5,-264
	sd	a5,-32(s0)
	j	.L457
.L456:
	.loc 1 4373 11 is_stmt 0 discriminator 2
	sd	zero,-32(s0)
.L457:
	.loc 1 4375 42 is_stmt 1
	ld	a5,-32(s0)
	sb	zero,376(a5)
	.loc 1 4377 14
	ld	a5,-32(s0)
	ld	a5,352(a5)
	.loc 1 4377 6
	bne	a5,zero,.L458
	.loc 1 4378 12
	li	a5,0
	j	.L459
.L458:
	.loc 1 4384 14
	sd	zero,-40(s0)
	.loc 1 4384 32
	sd	zero,-24(s0)
	.loc 1 4384 3
	j	.L460
.L462:
	.loc 1 4385 21
	ld	a5,-32(s0)
	ld	a4,360(a5)
	.loc 1 4385 42
	ld	a5,-40(s0)
	slli	a5,a5,3
	add	a5,a4,a5
	ld	a5,0(a5)
	.loc 1 4385 49
	ld	a5,0(a5)
	.loc 1 4386 60
	ld	a4,-32(s0)
	ld	a3,360(a4)
	.loc 1 4386 81
	ld	a4,-40(s0)
	slli	a4,a4,3
	add	a4,a3,a4
	.loc 1 4385 14
	ld	a4,0(a4)
	lbu	a3,-57(s0)
	mv	a1,a3
	mv	a0,a4
	jalr	a5
.LVL79:
	sd	a0,-48(s0)
	.loc 1 4389 36
	ld	a5,-48(s0)
	.loc 1 4389 8
	bge	a5,zero,.L461
	.loc 1 4390 20
	ld	a5,-48(s0)
	sd	a5,-24(s0)
.L461:
	.loc 1 4384 109 discriminator 2
	ld	a5,-40(s0)
	addi	a5,a5,1
	sd	a5,-40(s0)
.L460:
	.loc 1 4384 69 discriminator 1
	ld	a5,-32(s0)
	ld	a5,352(a5)
	.loc 1 4384 60 discriminator 1
	ld	a4,-40(s0)
	bltu	a4,a5,.L462
	.loc 1 4394 10
	ld	a5,-24(s0)
.L459:
	.loc 1 4395 1
	mv	a0,a5
	ld	ra,56(sp)
	.cfi_restore 1
	ld	s0,48(sp)
	.cfi_restore 8
	.cfi_def_cfa 2, 64
	addi	sp,sp,64
	.cfi_def_cfa_offset 0
	jr	ra
	.cfi_endproc
.LFE57:
	.size	ConSplitterAbsolutePointerReset, .-ConSplitterAbsolutePointerReset
	.section	.text.ConSplitterAbsolutePointerGetState,"ax",@progbits
	.align	1
	.globl	ConSplitterAbsolutePointerGetState
	.type	ConSplitterAbsolutePointerGetState, @function
ConSplitterAbsolutePointerGetState:
.LFB58:
	.loc 1 4418 1
	.cfi_startproc
	addi	sp,sp,-192
	.cfi_def_cfa_offset 192
	sd	ra,184(sp)
	sd	s0,176(sp)
	.cfi_offset 1, -8
	.cfi_offset 8, -16
	addi	s0,sp,192
	.cfi_def_cfa 8, 0
	sd	a0,-184(s0)
	sd	a1,-192(s0)
	.loc 1 4437 15
	ld	a5,-184(s0)
	addi	a5,a5,-264
	.loc 1 4437 156
	ld	a4,0(a5)
	.loc 1 4437 241
	li	a5,1884516352
	addi	a5,a5,-1708
	bne	a4,a5,.L464
	.loc 1 4437 11 discriminator 1
	ld	a5,-184(s0)
	addi	a5,a5,-264
	sd	a5,-24(s0)
	j	.L465
.L464:
	.loc 1 4437 11 is_stmt 0 discriminator 2
	sd	zero,-24(s0)
.L465:
	.loc 1 4439 42 is_stmt 1
	ld	a5,-24(s0)
	sb	zero,376(a5)
	.loc 1 4441 19
	ld	a5,-192(s0)
	sd	zero,0(a5)
	.loc 1 4442 19
	ld	a5,-192(s0)
	sd	zero,8(a5)
	.loc 1 4443 19
	ld	a5,-192(s0)
	sd	zero,16(a5)
	.loc 1 4444 24
	ld	a5,-192(s0)
	sw	zero,24(a5)
	.loc 1 4446 15
	ld	a5,-24(s0)
	ld	a5,296(a5)
	sd	a5,-48(s0)
	.loc 1 4447 15
	ld	a5,-24(s0)
	ld	a5,304(a5)
	sd	a5,-56(s0)
	.loc 1 4448 15
	ld	a5,-24(s0)
	ld	a5,312(a5)
	sd	a5,-64(s0)
	.loc 1 4449 15
	ld	a5,-24(s0)
	ld	a5,320(a5)
	sd	a5,-72(s0)
	.loc 1 4450 15
	ld	a5,-24(s0)
	ld	a5,328(a5)
	sd	a5,-80(s0)
	.loc 1 4451 15
	ld	a5,-24(s0)
	ld	a5,336(a5)
	sd	a5,-88(s0)
	.loc 1 4458 16
	li	a5,-1
	slli	a5,a5,63
	addi	a5,a5,6
	sd	a5,-32(s0)
	.loc 1 4459 14
	sd	zero,-40(s0)
	.loc 1 4459 3
	j	.L466
.L475:
	.loc 1 4460 21
	ld	a5,-24(s0)
	ld	a4,360(a5)
	.loc 1 4460 42
	ld	a5,-40(s0)
	slli	a5,a5,3
	add	a5,a4,a5
	ld	a5,0(a5)
	.loc 1 4460 49
	ld	a5,8(a5)
	.loc 1 4461 60
	ld	a4,-24(s0)
	ld	a3,360(a4)
	.loc 1 4461 81
	ld	a4,-40(s0)
	slli	a4,a4,3
	add	a4,a3,a4
	.loc 1 4460 14
	ld	a4,0(a4)
	addi	a3,s0,-176
	mv	a1,a3
	mv	a0,a4
	jalr	a5
.LVL80:
	sd	a0,-96(s0)
	.loc 1 4464 9
	ld	a5,-96(s0)
	.loc 1 4464 8
	blt	a5,zero,.L467
	.loc 1 4465 10
	ld	a4,-32(s0)
	li	a5,-1
	slli	a5,a5,63
	addi	a5,a5,6
	bne	a4,a5,.L468
	.loc 1 4466 22
	sd	zero,-32(s0)
.L468:
	.loc 1 4469 21
	ld	a5,-24(s0)
	ld	a4,360(a5)
	.loc 1 4469 42
	ld	a5,-40(s0)
	slli	a5,a5,3
	add	a5,a4,a5
	ld	a5,0(a5)
	.loc 1 4469 49
	ld	a5,24(a5)
	.loc 1 4469 12
	ld	a5,0(a5)
	sd	a5,-104(s0)
	.loc 1 4470 21
	ld	a5,-24(s0)
	ld	a4,360(a5)
	.loc 1 4470 42
	ld	a5,-40(s0)
	slli	a5,a5,3
	add	a5,a4,a5
	ld	a5,0(a5)
	.loc 1 4470 49
	ld	a5,24(a5)
	.loc 1 4470 12
	ld	a5,8(a5)
	sd	a5,-112(s0)
	.loc 1 4471 21
	ld	a5,-24(s0)
	ld	a4,360(a5)
	.loc 1 4471 42
	ld	a5,-40(s0)
	slli	a5,a5,3
	add	a5,a4,a5
	ld	a5,0(a5)
	.loc 1 4471 49
	ld	a5,24(a5)
	.loc 1 4471 12
	ld	a5,16(a5)
	sd	a5,-120(s0)
	.loc 1 4472 21
	ld	a5,-24(s0)
	ld	a4,360(a5)
	.loc 1 4472 42
	ld	a5,-40(s0)
	slli	a5,a5,3
	add	a5,a4,a5
	ld	a5,0(a5)
	.loc 1 4472 49
	ld	a5,24(a5)
	.loc 1 4472 12
	ld	a5,24(a5)
	sd	a5,-128(s0)
	.loc 1 4473 21
	ld	a5,-24(s0)
	ld	a4,360(a5)
	.loc 1 4473 42
	ld	a5,-40(s0)
	slli	a5,a5,3
	add	a5,a4,a5
	ld	a5,0(a5)
	.loc 1 4473 49
	ld	a5,24(a5)
	.loc 1 4473 12
	ld	a5,32(a5)
	sd	a5,-136(s0)
	.loc 1 4474 21
	ld	a5,-24(s0)
	ld	a4,360(a5)
	.loc 1 4474 42
	ld	a5,-40(s0)
	slli	a5,a5,3
	add	a5,a4,a5
	ld	a5,0(a5)
	.loc 1 4474 49
	ld	a5,24(a5)
	.loc 1 4474 12
	ld	a5,40(a5)
	sd	a5,-144(s0)
	.loc 1 4476 42
	lw	a4,-152(s0)
	.loc 1 4476 28
	ld	a5,-192(s0)
	sw	a4,24(a5)
	.loc 1 4481 10
	ld	a5,-104(s0)
	bne	a5,zero,.L469
	.loc 1 4481 11 discriminator 1
	ld	a5,-128(s0)
	beq	a5,zero,.L470
.L469:
	.loc 1 4482 41
	ld	a3,-176(s0)
	ld	a4,-72(s0)
	ld	a5,-48(s0)
	sub	a5,a4,a5
	mv	a1,a5
	mv	a0,a3
	call	MultU64x64@plt
	mv	a3,a0
	.loc 1 4482 41 is_stmt 0 discriminator 1
	ld	a4,-128(s0)
	ld	a5,-104(s0)
	sub	a5,a4,a5
	li	a2,0
	mv	a1,a5
	mv	a0,a3
	call	DivU64x64Remainder@plt
	mv	a4,a0
	.loc 1 4482 39 is_stmt 1 discriminator 2
	ld	a5,-48(s0)
	add	a4,a4,a5
	.loc 1 4482 25 discriminator 2
	ld	a5,-192(s0)
	sd	a4,0(a5)
.L470:
	.loc 1 4492 10
	ld	a5,-112(s0)
	bne	a5,zero,.L471
	.loc 1 4492 11 discriminator 1
	ld	a5,-136(s0)
	beq	a5,zero,.L472
.L471:
	.loc 1 4493 41
	ld	a3,-168(s0)
	ld	a4,-80(s0)
	ld	a5,-56(s0)
	sub	a5,a4,a5
	mv	a1,a5
	mv	a0,a3
	call	MultU64x64@plt
	mv	a3,a0
	.loc 1 4493 41 is_stmt 0 discriminator 1
	ld	a4,-136(s0)
	ld	a5,-112(s0)
	sub	a5,a4,a5
	li	a2,0
	mv	a1,a5
	mv	a0,a3
	call	DivU64x64Remainder@plt
	mv	a4,a0
	.loc 1 4493 39 is_stmt 1 discriminator 2
	ld	a5,-56(s0)
	add	a4,a4,a5
	.loc 1 4493 25 discriminator 2
	ld	a5,-192(s0)
	sd	a4,8(a5)
.L472:
	.loc 1 4503 10
	ld	a5,-120(s0)
	bne	a5,zero,.L473
	.loc 1 4503 11 discriminator 1
	ld	a5,-144(s0)
	beq	a5,zero,.L474
.L473:
	.loc 1 4504 41
	ld	a3,-160(s0)
	ld	a4,-88(s0)
	ld	a5,-64(s0)
	sub	a5,a4,a5
	mv	a1,a5
	mv	a0,a3
	call	MultU64x64@plt
	mv	a3,a0
	.loc 1 4504 41 is_stmt 0 discriminator 1
	ld	a4,-144(s0)
	ld	a5,-120(s0)
	sub	a5,a4,a5
	li	a2,0
	mv	a1,a5
	mv	a0,a3
	call	DivU64x64Remainder@plt
	mv	a4,a0
	.loc 1 4504 39 is_stmt 1 discriminator 2
	ld	a5,-64(s0)
	add	a4,a4,a5
	.loc 1 4504 25 discriminator 2
	ld	a5,-192(s0)
	sd	a4,16(a5)
	j	.L474
.L467:
	.loc 1 4513 15
	ld	a4,-96(s0)
	li	a5,-1
	slli	a5,a5,63
	addi	a5,a5,7
	bne	a4,a5,.L474
	.loc 1 4514 20
	li	a5,-1
	slli	a5,a5,63
	addi	a5,a5,7
	sd	a5,-32(s0)
.L474:
	.loc 1 4459 74 discriminator 2
	ld	a5,-40(s0)
	addi	a5,a5,1
	sd	a5,-40(s0)
.L466:
	.loc 1 4459 34 discriminator 1
	ld	a5,-24(s0)
	ld	a5,352(a5)
	.loc 1 4459 25 discriminator 1
	ld	a4,-40(s0)
	bltu	a4,a5,.L475
	.loc 1 4518 10
	ld	a5,-32(s0)
	.loc 1 4519 1
	mv	a0,a5
	ld	ra,184(sp)
	.cfi_restore 1
	ld	s0,176(sp)
	.cfi_restore 8
	.cfi_def_cfa 2, 192
	addi	sp,sp,192
	.cfi_def_cfa_offset 0
	jr	ra
	.cfi_endproc
.LFE58:
	.size	ConSplitterAbsolutePointerGetState, .-ConSplitterAbsolutePointerGetState
	.section	.text.ConSplitterAbsolutePointerWaitForInput,"ax",@progbits
	.align	1
	.globl	ConSplitterAbsolutePointerWaitForInput
	.type	ConSplitterAbsolutePointerWaitForInput, @function
ConSplitterAbsolutePointerWaitForInput:
.LFB59:
	.loc 1 4537 1
	.cfi_startproc
	addi	sp,sp,-64
	.cfi_def_cfa_offset 64
	sd	ra,56(sp)
	sd	s0,48(sp)
	.cfi_offset 1, -8
	.cfi_offset 8, -16
	addi	s0,sp,64
	.cfi_def_cfa 8, 0
	sd	a0,-56(s0)
	sd	a1,-64(s0)
	.loc 1 4542 11
	ld	a5,-64(s0)
	sd	a5,-32(s0)
	.loc 1 4548 14
	ld	a5,-32(s0)
	lbu	a5,376(a5)
	.loc 1 4548 6
	beq	a5,zero,.L478
	.loc 1 4549 8
	la	a5,gBS
	ld	a5,0(a5)
	ld	a5,104(a5)
	.loc 1 4549 5
	ld	a0,-56(s0)
	jalr	a5
.LVL81:
	.loc 1 4550 5
	j	.L477
.L478:
	.loc 1 4556 14
	sd	zero,-24(s0)
	.loc 1 4556 3
	j	.L480
.L482:
	.loc 1 4557 17
	la	a5,gBS
	ld	a5,0(a5)
	ld	a5,120(a5)
	.loc 1 4557 38
	ld	a4,-32(s0)
	ld	a3,360(a4)
	.loc 1 4557 59
	ld	a4,-24(s0)
	slli	a4,a4,3
	add	a4,a3,a4
	ld	a4,0(a4)
	.loc 1 4557 14
	ld	a4,16(a4)
	mv	a0,a4
	jalr	a5
.LVL82:
	sd	a0,-40(s0)
	.loc 1 4558 9
	ld	a5,-40(s0)
	.loc 1 4558 8
	blt	a5,zero,.L481
	.loc 1 4559 10
	la	a5,gBS
	ld	a5,0(a5)
	ld	a5,104(a5)
	.loc 1 4559 7
	ld	a0,-56(s0)
	jalr	a5
.LVL83:
	.loc 1 4560 46
	ld	a5,-32(s0)
	li	a4,1
	sb	a4,376(a5)
.L481:
	.loc 1 4556 74 discriminator 2
	ld	a5,-24(s0)
	addi	a5,a5,1
	sd	a5,-24(s0)
.L480:
	.loc 1 4556 34 discriminator 1
	ld	a5,-32(s0)
	ld	a5,352(a5)
	.loc 1 4556 25 discriminator 1
	ld	a4,-24(s0)
	bltu	a4,a5,.L482
.L477:
	.loc 1 4563 1
	ld	ra,56(sp)
	.cfi_restore 1
	ld	s0,48(sp)
	.cfi_restore 8
	.cfi_def_cfa 2, 64
	addi	sp,sp,64
	.cfi_def_cfa_offset 0
	jr	ra
	.cfi_endproc
.LFE59:
	.size	ConSplitterAbsolutePointerWaitForInput, .-ConSplitterAbsolutePointerWaitForInput
	.section	.text.ConSplitterTextOutReset,"ax",@progbits
	.align	1
	.globl	ConSplitterTextOutReset
	.type	ConSplitterTextOutReset, @function
ConSplitterTextOutReset:
.LFB60:
	.loc 1 4583 1
	.cfi_startproc
	addi	sp,sp,-64
	.cfi_def_cfa_offset 64
	sd	ra,56(sp)
	sd	s0,48(sp)
	.cfi_offset 1, -8
	.cfi_offset 8, -16
	addi	s0,sp,64
	.cfi_def_cfa 8, 0
	sd	a0,-56(s0)
	mv	a5,a1
	sb	a5,-57(s0)
	.loc 1 4589 15
	ld	a5,-56(s0)
	addi	a5,a5,-16
	.loc 1 4589 152
	ld	a4,0(a5)
	.loc 1 4589 237
	li	a5,1884516352
	addi	a5,a5,-172
	bne	a4,a5,.L484
	.loc 1 4589 11 discriminator 1
	ld	a5,-56(s0)
	addi	a5,a5,-16
	sd	a5,-24(s0)
	j	.L485
.L484:
	.loc 1 4589 11 is_stmt 0 discriminator 2
	sd	zero,-24(s0)
.L485:
	.loc 1 4594 14 is_stmt 1
	sd	zero,-32(s0)
	.loc 1 4594 32
	sd	zero,-40(s0)
	.loc 1 4594 3
	j	.L486
.L488:
	.loc 1 4595 21
	ld	a5,-24(s0)
	ld	a3,224(a5)
	.loc 1 4595 34
	ld	a4,-32(s0)
	mv	a5,a4
	slli	a5,a5,1
	add	a5,a5,a4
	slli	a5,a5,3
	add	a5,a3,a5
	.loc 1 4595 41
	ld	a5,16(a5)
	.loc 1 4595 49
	ld	a3,0(a5)
	.loc 1 4596 60
	ld	a5,-24(s0)
	ld	a2,224(a5)
	.loc 1 4596 73
	ld	a4,-32(s0)
	mv	a5,a4
	slli	a5,a5,1
	add	a5,a5,a4
	slli	a5,a5,3
	add	a5,a2,a5
	.loc 1 4595 14
	ld	a5,16(a5)
	lbu	a4,-57(s0)
	mv	a1,a4
	mv	a0,a5
	jalr	a3
.LVL84:
	sd	a0,-48(s0)
	.loc 1 4599 36
	ld	a5,-48(s0)
	.loc 1 4599 8
	bge	a5,zero,.L487
	.loc 1 4600 20
	ld	a5,-48(s0)
	sd	a5,-40(s0)
.L487:
	.loc 1 4594 101 discriminator 2
	ld	a5,-32(s0)
	addi	a5,a5,1
	sd	a5,-32(s0)
.L486:
	.loc 1 4594 69 discriminator 1
	ld	a5,-24(s0)
	ld	a5,216(a5)
	.loc 1 4594 60 discriminator 1
	ld	a4,-32(s0)
	bltu	a4,a5,.L488
	.loc 1 4604 7
	ld	a5,-56(s0)
	ld	a5,40(a5)
	.loc 1 4604 35
	ld	a4,-56(s0)
	ld	a4,72(a4)
	.loc 1 4604 41
	lw	a4,8(a4)
	.loc 1 4604 3
	andi	a4,a4,15
	mv	a1,a4
	ld	a0,-56(s0)
	jalr	a5
.LVL85:
	.loc 1 4609 3
	li	a1,0
	ld	a0,-24(s0)
	call	TextOutSetMode@plt
	.loc 1 4611 10
	ld	a5,-40(s0)
	.loc 1 4612 1
	mv	a0,a5
	ld	ra,56(sp)
	.cfi_restore 1
	ld	s0,48(sp)
	.cfi_restore 8
	.cfi_def_cfa 2, 64
	addi	sp,sp,64
	.cfi_def_cfa_offset 0
	jr	ra
	.cfi_endproc
.LFE60:
	.size	ConSplitterTextOutReset, .-ConSplitterTextOutReset
	.section	.text.ConSplitterTextOutOutputString,"ax",@progbits
	.align	1
	.globl	ConSplitterTextOutOutputString
	.type	ConSplitterTextOutOutputString, @function
ConSplitterTextOutOutputString:
.LFB61:
	.loc 1 4639 1
	.cfi_startproc
	addi	sp,sp,-80
	.cfi_def_cfa_offset 80
	sd	ra,72(sp)
	sd	s0,64(sp)
	.cfi_offset 1, -8
	.cfi_offset 8, -16
	addi	s0,sp,80
	.cfi_def_cfa 8, 0
	sd	a0,-72(s0)
	sd	a1,-80(s0)
	.loc 1 4647 7
	ld	a5,-72(s0)
	ld	a5,40(a5)
	.loc 1 4647 33
	ld	a4,-72(s0)
	ld	a4,72(a4)
	.loc 1 4647 39
	lw	a4,8(a4)
	.loc 1 4647 3
	mv	a1,a4
	ld	a0,-72(s0)
	jalr	a5
.LVL86:
	.loc 1 4649 15
	ld	a5,-72(s0)
	addi	a5,a5,-16
	.loc 1 4649 152
	ld	a4,0(a5)
	.loc 1 4649 237
	li	a5,1884516352
	addi	a5,a5,-172
	bne	a4,a5,.L491
	.loc 1 4649 11 discriminator 1
	ld	a5,-72(s0)
	addi	a5,a5,-16
	sd	a5,-24(s0)
	j	.L492
.L491:
	.loc 1 4649 11 is_stmt 0 discriminator 2
	sd	zero,-24(s0)
.L492:
	.loc 1 4654 14 is_stmt 1
	sd	zero,-32(s0)
	.loc 1 4654 32
	sd	zero,-40(s0)
	.loc 1 4654 3
	j	.L493
.L495:
	.loc 1 4655 21
	ld	a5,-24(s0)
	ld	a3,224(a5)
	.loc 1 4655 34
	ld	a4,-32(s0)
	mv	a5,a4
	slli	a5,a5,1
	add	a5,a5,a4
	slli	a5,a5,3
	add	a5,a3,a5
	.loc 1 4655 41
	ld	a5,16(a5)
	.loc 1 4655 49
	ld	a3,8(a5)
	.loc 1 4656 60
	ld	a5,-24(s0)
	ld	a2,224(a5)
	.loc 1 4656 73
	ld	a4,-32(s0)
	mv	a5,a4
	slli	a5,a5,1
	add	a5,a5,a4
	slli	a5,a5,3
	add	a5,a2,a5
	.loc 1 4655 14
	ld	a5,16(a5)
	ld	a1,-80(s0)
	mv	a0,a5
	jalr	a3
.LVL87:
	sd	a0,-48(s0)
	.loc 1 4659 36
	ld	a5,-48(s0)
	.loc 1 4659 8
	bge	a5,zero,.L494
	.loc 1 4660 20
	ld	a5,-48(s0)
	sd	a5,-40(s0)
.L494:
	.loc 1 4654 101 discriminator 2
	ld	a5,-32(s0)
	addi	a5,a5,1
	sd	a5,-32(s0)
.L493:
	.loc 1 4654 69 discriminator 1
	ld	a5,-24(s0)
	ld	a5,216(a5)
	.loc 1 4654 60 discriminator 1
	ld	a4,-32(s0)
	bltu	a4,a5,.L495
	.loc 1 4664 14
	ld	a5,-24(s0)
	ld	a5,216(a5)
	.loc 1 4664 6
	beq	a5,zero,.L496
	.loc 1 4665 48
	ld	a5,-24(s0)
	ld	a5,224(a5)
	.loc 1 4665 64
	ld	a5,16(a5)
	.loc 1 4665 72
	ld	a5,72(a5)
	.loc 1 4665 78
	lw	a4,12(a5)
	.loc 1 4665 39
	ld	a5,-24(s0)
	sw	a4,108(a5)
	.loc 1 4666 45
	ld	a5,-24(s0)
	ld	a5,224(a5)
	.loc 1 4666 61
	ld	a5,16(a5)
	.loc 1 4666 69
	ld	a5,72(a5)
	.loc 1 4666 75
	lw	a4,16(a5)
	.loc 1 4666 36
	ld	a5,-24(s0)
	sw	a4,112(a5)
	j	.L497
.L496:
	.loc 1 4672 21
	ld	a5,-24(s0)
	ld	a5,40(a5)
	.loc 1 4672 5
	ld	a4,-24(s0)
	addi	a0,a4,16
	.loc 1 4674 44
	ld	a4,-24(s0)
	lw	a4,100(a4)
	.loc 1 4672 5
	mv	a1,a4
	addi	a3,s0,-64
	addi	a4,s0,-56
	mv	a2,a4
	jalr	a5
.LVL88:
	.loc 1 4678 5
	j	.L498
.L509:
	.loc 1 4679 15
	ld	a5,-80(s0)
	lhu	a5,0(a5)
	sext.w	a5,a5
	.loc 1 4679 7
	li	a4,13
	beq	a5,a4,.L499
	li	a4,13
	bgt	a5,a4,.L500
	li	a4,8
	beq	a5,a4,.L501
	li	a4,10
	beq	a5,a4,.L502
	j	.L500
.L501:
	.loc 1 4681 36
	ld	a5,-24(s0)
	lw	a5,108(a5)
	.loc 1 4681 14
	bne	a5,zero,.L503
	.loc 1 4681 80 discriminator 1
	ld	a5,-24(s0)
	lw	a5,112(a5)
	.loc 1 4681 56 discriminator 1
	ble	a5,zero,.L503
	.loc 1 4682 33
	ld	a5,-24(s0)
	lw	a5,112(a5)
	.loc 1 4682 43
	addiw	a5,a5,-1
	sext.w	a4,a5
	ld	a5,-24(s0)
	sw	a4,112(a5)
	.loc 1 4683 67
	ld	a5,-56(s0)
	sext.w	a5,a5
	addiw	a5,a5,-1
	sext.w	a5,a5
	.loc 1 4683 49
	mv	a4,a5
	.loc 1 4683 47
	ld	a5,-24(s0)
	sw	a4,108(a5)
	.loc 1 4688 11
	j	.L511
.L503:
	.loc 1 4684 42
	ld	a5,-24(s0)
	lw	a5,108(a5)
	.loc 1 4684 21
	ble	a5,zero,.L511
	.loc 1 4685 33
	ld	a5,-24(s0)
	lw	a5,108(a5)
	.loc 1 4685 46
	addiw	a5,a5,-1
	sext.w	a4,a5
	ld	a5,-24(s0)
	sw	a4,108(a5)
	.loc 1 4688 11
	j	.L511
.L502:
	.loc 1 4691 35
	ld	a5,-24(s0)
	lw	a5,112(a5)
	.loc 1 4691 63
	ld	a4,-64(s0)
	sext.w	a4,a4
	addiw	a4,a4,-1
	sext.w	a4,a4
	.loc 1 4691 14
	bge	a5,a4,.L512
	.loc 1 4692 33
	ld	a5,-24(s0)
	lw	a5,112(a5)
	.loc 1 4692 43
	addiw	a5,a5,1
	sext.w	a4,a5
	ld	a5,-24(s0)
	sw	a4,112(a5)
	.loc 1 4695 11
	j	.L512
.L499:
	.loc 1 4698 45
	ld	a5,-24(s0)
	sw	zero,108(a5)
	.loc 1 4699 11
	j	.L505
.L500:
	.loc 1 4702 35
	ld	a5,-24(s0)
	lw	a5,108(a5)
	.loc 1 4702 69
	ld	a4,-56(s0)
	sext.w	a4,a4
	addiw	a4,a4,-1
	sext.w	a4,a4
	.loc 1 4702 14
	bge	a5,a4,.L507
	.loc 1 4703 33
	ld	a5,-24(s0)
	lw	a5,108(a5)
	.loc 1 4703 46
	addiw	a5,a5,1
	sext.w	a4,a5
	ld	a5,-24(s0)
	sw	a4,108(a5)
	.loc 1 4711 11
	j	.L513
.L507:
	.loc 1 4705 47
	ld	a5,-24(s0)
	sw	zero,108(a5)
	.loc 1 4706 37
	ld	a5,-24(s0)
	lw	a5,112(a5)
	.loc 1 4706 65
	ld	a4,-64(s0)
	sext.w	a4,a4
	addiw	a4,a4,-1
	sext.w	a4,a4
	.loc 1 4706 16
	bge	a5,a4,.L513
	.loc 1 4707 35
	ld	a5,-24(s0)
	lw	a5,112(a5)
	.loc 1 4707 45
	addiw	a5,a5,1
	sext.w	a4,a5
	ld	a5,-24(s0)
	sw	a4,112(a5)
	.loc 1 4711 11
	j	.L513
.L511:
	.loc 1 4688 11
	nop
	j	.L505
.L512:
	.loc 1 4695 11
	nop
	j	.L505
.L513:
	.loc 1 4711 11
	nop
.L505:
	.loc 1 4678 40
	ld	a5,-80(s0)
	addi	a5,a5,2
	sd	a5,-80(s0)
.L498:
	.loc 1 4678 13 discriminator 1
	ld	a5,-80(s0)
	lhu	a5,0(a5)
	.loc 1 4678 22 discriminator 1
	bne	a5,zero,.L509
.L497:
	.loc 1 4716 10
	ld	a5,-40(s0)
	.loc 1 4717 1
	mv	a0,a5
	ld	ra,72(sp)
	.cfi_restore 1
	ld	s0,64(sp)
	.cfi_restore 8
	.cfi_def_cfa 2, 80
	addi	sp,sp,80
	.cfi_def_cfa_offset 0
	jr	ra
	.cfi_endproc
.LFE61:
	.size	ConSplitterTextOutOutputString, .-ConSplitterTextOutOutputString
	.section	.text.ConSplitterTextOutTestString,"ax",@progbits
	.align	1
	.globl	ConSplitterTextOutTestString
	.type	ConSplitterTextOutTestString, @function
ConSplitterTextOutTestString:
.LFB62:
	.loc 1 4740 1
	.cfi_startproc
	addi	sp,sp,-64
	.cfi_def_cfa_offset 64
	sd	ra,56(sp)
	sd	s0,48(sp)
	.cfi_offset 1, -8
	.cfi_offset 8, -16
	addi	s0,sp,64
	.cfi_def_cfa 8, 0
	sd	a0,-56(s0)
	sd	a1,-64(s0)
	.loc 1 4746 15
	ld	a5,-56(s0)
	addi	a5,a5,-16
	.loc 1 4746 152
	ld	a4,0(a5)
	.loc 1 4746 237
	li	a5,1884516352
	addi	a5,a5,-172
	bne	a4,a5,.L515
	.loc 1 4746 11 discriminator 1
	ld	a5,-56(s0)
	addi	a5,a5,-16
	sd	a5,-24(s0)
	j	.L516
.L515:
	.loc 1 4746 11 is_stmt 0 discriminator 2
	sd	zero,-24(s0)
.L516:
	.loc 1 4751 14 is_stmt 1
	sd	zero,-32(s0)
	.loc 1 4751 32
	sd	zero,-40(s0)
	.loc 1 4751 3
	j	.L517
.L519:
	.loc 1 4752 21
	ld	a5,-24(s0)
	ld	a3,224(a5)
	.loc 1 4752 34
	ld	a4,-32(s0)
	mv	a5,a4
	slli	a5,a5,1
	add	a5,a5,a4
	slli	a5,a5,3
	add	a5,a3,a5
	.loc 1 4752 41
	ld	a5,16(a5)
	.loc 1 4752 49
	ld	a3,16(a5)
	.loc 1 4753 60
	ld	a5,-24(s0)
	ld	a2,224(a5)
	.loc 1 4753 73
	ld	a4,-32(s0)
	mv	a5,a4
	slli	a5,a5,1
	add	a5,a5,a4
	slli	a5,a5,3
	add	a5,a2,a5
	.loc 1 4752 14
	ld	a5,16(a5)
	ld	a1,-64(s0)
	mv	a0,a5
	jalr	a3
.LVL89:
	sd	a0,-48(s0)
	.loc 1 4756 36
	ld	a5,-48(s0)
	.loc 1 4756 8
	bge	a5,zero,.L518
	.loc 1 4757 20
	ld	a5,-48(s0)
	sd	a5,-40(s0)
.L518:
	.loc 1 4751 101 discriminator 2
	ld	a5,-32(s0)
	addi	a5,a5,1
	sd	a5,-32(s0)
.L517:
	.loc 1 4751 69 discriminator 1
	ld	a5,-24(s0)
	ld	a5,216(a5)
	.loc 1 4751 60 discriminator 1
	ld	a4,-32(s0)
	bltu	a4,a5,.L519
	.loc 1 4766 10
	ld	a5,-40(s0)
	.loc 1 4767 1
	mv	a0,a5
	ld	ra,56(sp)
	.cfi_restore 1
	ld	s0,48(sp)
	.cfi_restore 8
	.cfi_def_cfa 2, 64
	addi	sp,sp,64
	.cfi_def_cfa_offset 0
	jr	ra
	.cfi_endproc
.LFE62:
	.size	ConSplitterTextOutTestString, .-ConSplitterTextOutTestString
	.section	.text.ConSplitterTextOutQueryMode,"ax",@progbits
	.align	1
	.globl	ConSplitterTextOutQueryMode
	.type	ConSplitterTextOutQueryMode, @function
ConSplitterTextOutQueryMode:
.LFB63:
	.loc 1 4794 1
	.cfi_startproc
	addi	sp,sp,-80
	.cfi_def_cfa_offset 80
	sd	ra,72(sp)
	sd	s0,64(sp)
	.cfi_offset 1, -8
	.cfi_offset 8, -16
	addi	s0,sp,80
	.cfi_def_cfa 8, 0
	sd	a0,-56(s0)
	sd	a1,-64(s0)
	sd	a2,-72(s0)
	sd	a3,-80(s0)
	.loc 1 4799 15
	ld	a5,-56(s0)
	addi	a5,a5,-16
	.loc 1 4799 152
	ld	a4,0(a5)
	.loc 1 4799 237
	li	a5,1884516352
	addi	a5,a5,-172
	bne	a4,a5,.L522
	.loc 1 4799 11 discriminator 1
	ld	a5,-56(s0)
	addi	a5,a5,-16
	sd	a5,-24(s0)
	j	.L523
.L522:
	.loc 1 4799 11 is_stmt 0 discriminator 2
	sd	zero,-24(s0)
.L523:
	.loc 1 4805 6 is_stmt 1
	ld	a4,-64(s0)
	li	a5,-2147483648
	xori	a5,a5,-1
	bleu	a4,a5,.L524
	.loc 1 4806 12
	li	a5,-1
	slli	a5,a5,63
	addi	a5,a5,3
	j	.L525
.L524:
	.loc 1 4809 7
	ld	a5,-64(s0)
	sext.w	a4,a5
	.loc 1 4809 32
	ld	a5,-56(s0)
	ld	a5,72(a5)
	.loc 1 4809 38
	lw	a5,0(a5)
	.loc 1 4809 6
	blt	a4,a5,.L526
	.loc 1 4810 12
	li	a5,-1
	slli	a5,a5,63
	addi	a5,a5,3
	j	.L525
.L526:
	.loc 1 4816 14
	ld	a5,-24(s0)
	ld	a5,256(a5)
	.loc 1 4816 6
	beq	a5,zero,.L527
	.loc 1 4817 29
	ld	a5,-24(s0)
	ld	a4,256(a5)
	.loc 1 4817 55
	ld	a5,-24(s0)
	ld	a3,232(a5)
	.loc 1 4817 74
	ld	a5,-64(s0)
	mul	a5,a3,a5
	.loc 1 4817 46
	slli	a5,a5,2
	.loc 1 4817 20
	add	a5,a4,a5
	sd	a5,-32(s0)
	.loc 1 4818 27
	ld	a5,-32(s0)
	lw	a5,0(a5)
	.loc 1 4818 17
	sd	a5,-40(s0)
	.loc 1 4819 23
	ld	a5,-24(s0)
	ld	a4,240(a5)
	.loc 1 4819 41
	ld	a5,-40(s0)
	slli	a5,a5,4
	add	a5,a4,a5
	.loc 1 4819 54
	ld	a4,0(a5)
	.loc 1 4819 14
	ld	a5,-72(s0)
	sd	a4,0(a5)
	.loc 1 4820 20
	ld	a5,-24(s0)
	ld	a4,240(a5)
	.loc 1 4820 38
	ld	a5,-40(s0)
	slli	a5,a5,4
	add	a5,a4,a5
	.loc 1 4820 51
	ld	a4,8(a5)
	.loc 1 4820 11
	ld	a5,-80(s0)
	sd	a4,0(a5)
	j	.L528
.L527:
	.loc 1 4822 23
	ld	a5,-24(s0)
	ld	a4,240(a5)
	.loc 1 4822 41
	ld	a5,-64(s0)
	slli	a5,a5,4
	add	a5,a4,a5
	.loc 1 4822 53
	ld	a4,0(a5)
	.loc 1 4822 14
	ld	a5,-72(s0)
	sd	a4,0(a5)
	.loc 1 4823 20
	ld	a5,-24(s0)
	ld	a4,240(a5)
	.loc 1 4823 38
	ld	a5,-64(s0)
	slli	a5,a5,4
	add	a5,a4,a5
	.loc 1 4823 50
	ld	a4,8(a5)
	.loc 1 4823 11
	ld	a5,-80(s0)
	sd	a4,0(a5)
.L528:
	.loc 1 4826 8
	ld	a5,-72(s0)
	ld	a5,0(a5)
	.loc 1 4826 6
	bne	a5,zero,.L529
	.loc 1 4826 27 discriminator 1
	ld	a5,-80(s0)
	ld	a5,0(a5)
	.loc 1 4826 23 discriminator 1
	bne	a5,zero,.L529
	.loc 1 4827 12
	li	a5,-1
	slli	a5,a5,63
	addi	a5,a5,3
	j	.L525
.L529:
	.loc 1 4830 10
	li	a5,0
.L525:
	.loc 1 4831 1
	mv	a0,a5
	ld	ra,72(sp)
	.cfi_restore 1
	ld	s0,64(sp)
	.cfi_restore 8
	.cfi_def_cfa 2, 80
	addi	sp,sp,80
	.cfi_def_cfa_offset 0
	jr	ra
	.cfi_endproc
.LFE63:
	.size	ConSplitterTextOutQueryMode, .-ConSplitterTextOutQueryMode
	.section	.text.ConSplitterTextOutSetMode,"ax",@progbits
	.align	1
	.globl	ConSplitterTextOutSetMode
	.type	ConSplitterTextOutSetMode, @function
ConSplitterTextOutSetMode:
.LFB64:
	.loc 1 4851 1
	.cfi_startproc
	addi	sp,sp,-80
	.cfi_def_cfa_offset 80
	sd	ra,72(sp)
	sd	s0,64(sp)
	.cfi_offset 1, -8
	.cfi_offset 8, -16
	addi	s0,sp,80
	.cfi_def_cfa 8, 0
	sd	a0,-72(s0)
	sd	a1,-80(s0)
	.loc 1 4858 15
	ld	a5,-72(s0)
	addi	a5,a5,-16
	.loc 1 4858 152
	ld	a4,0(a5)
	.loc 1 4858 237
	li	a5,1884516352
	addi	a5,a5,-172
	bne	a4,a5,.L531
	.loc 1 4858 11 discriminator 1
	ld	a5,-72(s0)
	addi	a5,a5,-16
	sd	a5,-24(s0)
	j	.L532
.L531:
	.loc 1 4858 11 is_stmt 0 discriminator 2
	sd	zero,-24(s0)
.L532:
	.loc 1 4864 6 is_stmt 1
	ld	a4,-80(s0)
	li	a5,-2147483648
	xori	a5,a5,-1
	bleu	a4,a5,.L533
	.loc 1 4865 12
	li	a5,-1
	slli	a5,a5,63
	addi	a5,a5,3
	j	.L534
.L533:
	.loc 1 4868 7
	ld	a5,-80(s0)
	sext.w	a4,a5
	.loc 1 4868 32
	ld	a5,-72(s0)
	ld	a5,72(a5)
	.loc 1 4868 38
	lw	a5,0(a5)
	.loc 1 4868 6
	blt	a4,a5,.L535
	.loc 1 4869 12
	li	a5,-1
	slli	a5,a5,63
	addi	a5,a5,3
	j	.L534
.L535:
	.loc 1 4875 27
	ld	a5,-24(s0)
	lw	a4,100(a5)
	.loc 1 4875 33
	ld	a5,-80(s0)
	sext.w	a5,a5
	.loc 1 4875 6
	bne	a4,a5,.L536
	.loc 1 4876 12
	ld	a0,-72(s0)
	call	ConSplitterTextOutClearScreen
	mv	a5,a0
	j	.L534
.L536:
	.loc 1 4882 27
	ld	a5,-24(s0)
	ld	a4,256(a5)
	.loc 1 4882 53
	ld	a5,-24(s0)
	ld	a3,232(a5)
	.loc 1 4882 72
	ld	a5,-80(s0)
	mul	a5,a3,a5
	.loc 1 4882 44
	slli	a5,a5,2
	.loc 1 4882 18
	add	a5,a4,a5
	sd	a5,-48(s0)
	.loc 1 4883 14
	sd	zero,-32(s0)
	.loc 1 4883 32
	sd	zero,-40(s0)
	.loc 1 4883 3
	j	.L537
.L540:
	.loc 1 4887 18
	ld	a5,-24(s0)
	lbu	a5,264(a5)
	.loc 1 4887 8
	beq	a5,zero,.L538
	.loc 1 4888 24
	ld	a5,-32(s0)
	slli	a5,a5,2
	ld	a4,-48(s0)
	add	a5,a4,a5
	lw	a3,0(a5)
	.loc 1 4888 42
	ld	a5,-24(s0)
	ld	a2,224(a5)
	.loc 1 4888 55
	ld	a4,-32(s0)
	mv	a5,a4
	slli	a5,a5,1
	add	a5,a5,a4
	slli	a5,a5,3
	add	a5,a2,a5
	.loc 1 4888 62
	ld	a5,16(a5)
	.loc 1 4888 70
	ld	a5,72(a5)
	.loc 1 4888 76
	lw	a5,4(a5)
	.loc 1 4887 40 discriminator 1
	beq	a3,a5,.L539
.L538:
	.loc 1 4890 23
	ld	a5,-24(s0)
	ld	a3,224(a5)
	.loc 1 4890 36
	ld	a4,-32(s0)
	mv	a5,a4
	slli	a5,a5,1
	add	a5,a5,a4
	slli	a5,a5,3
	add	a5,a3,a5
	.loc 1 4890 43
	ld	a5,16(a5)
	.loc 1 4890 51
	ld	a3,32(a5)
	.loc 1 4891 62
	ld	a5,-24(s0)
	ld	a2,224(a5)
	.loc 1 4891 75
	ld	a4,-32(s0)
	mv	a5,a4
	slli	a5,a5,1
	add	a5,a5,a4
	slli	a5,a5,3
	add	a5,a2,a5
	.loc 1 4890 16
	ld	a2,16(a5)
	.loc 1 4892 69
	ld	a5,-32(s0)
	slli	a5,a5,2
	ld	a4,-48(s0)
	add	a5,a4,a5
	lw	a5,0(a5)
	.loc 1 4890 16
	mv	a1,a5
	mv	a0,a2
	jalr	a3
.LVL90:
	sd	a0,-56(s0)
	.loc 1 4894 38
	ld	a5,-56(s0)
	.loc 1 4894 10
	bge	a5,zero,.L539
	.loc 1 4895 22
	ld	a5,-56(s0)
	sd	a5,-40(s0)
.L539:
	.loc 1 4883 101 discriminator 2
	ld	a5,-32(s0)
	addi	a5,a5,1
	sd	a5,-32(s0)
.L537:
	.loc 1 4883 69 discriminator 1
	ld	a5,-24(s0)
	ld	a5,216(a5)
	.loc 1 4883 60 discriminator 1
	ld	a4,-32(s0)
	bltu	a4,a5,.L540
	.loc 1 4903 3
	ld	a1,-80(s0)
	ld	a0,-24(s0)
	call	TextOutSetMode@plt
	.loc 1 4905 10
	ld	a5,-40(s0)
.L534:
	.loc 1 4906 1
	mv	a0,a5
	ld	ra,72(sp)
	.cfi_restore 1
	ld	s0,64(sp)
	.cfi_restore 8
	.cfi_def_cfa 2, 80
	addi	sp,sp,80
	.cfi_def_cfa_offset 0
	jr	ra
	.cfi_endproc
.LFE64:
	.size	ConSplitterTextOutSetMode, .-ConSplitterTextOutSetMode
	.section	.text.ConSplitterTextOutSetAttribute,"ax",@progbits
	.align	1
	.globl	ConSplitterTextOutSetAttribute
	.type	ConSplitterTextOutSetAttribute, @function
ConSplitterTextOutSetAttribute:
.LFB65:
	.loc 1 4931 1
	.cfi_startproc
	addi	sp,sp,-64
	.cfi_def_cfa_offset 64
	sd	ra,56(sp)
	sd	s0,48(sp)
	.cfi_offset 1, -8
	.cfi_offset 8, -16
	addi	s0,sp,64
	.cfi_def_cfa 8, 0
	sd	a0,-56(s0)
	sd	a1,-64(s0)
	.loc 1 4937 15
	ld	a5,-56(s0)
	addi	a5,a5,-16
	.loc 1 4937 152
	ld	a4,0(a5)
	.loc 1 4937 237
	li	a5,1884516352
	addi	a5,a5,-172
	bne	a4,a5,.L542
	.loc 1 4937 11 discriminator 1
	ld	a5,-56(s0)
	addi	a5,a5,-16
	sd	a5,-24(s0)
	j	.L543
.L542:
	.loc 1 4937 11 is_stmt 0 discriminator 2
	sd	zero,-24(s0)
.L543:
	.loc 1 4942 6 is_stmt 1
	ld	a4,-64(s0)
	li	a5,127
	bleu	a4,a5,.L544
	.loc 1 4943 12
	li	a5,-1
	slli	a5,a5,63
	addi	a5,a5,3
	j	.L545
.L544:
	.loc 1 4949 14
	sd	zero,-32(s0)
	.loc 1 4949 32
	sd	zero,-40(s0)
	.loc 1 4949 3
	j	.L546
.L548:
	.loc 1 4950 21
	ld	a5,-24(s0)
	ld	a3,224(a5)
	.loc 1 4950 34
	ld	a4,-32(s0)
	mv	a5,a4
	slli	a5,a5,1
	add	a5,a5,a4
	slli	a5,a5,3
	add	a5,a3,a5
	.loc 1 4950 41
	ld	a5,16(a5)
	.loc 1 4950 49
	ld	a3,40(a5)
	.loc 1 4951 60
	ld	a5,-24(s0)
	ld	a2,224(a5)
	.loc 1 4951 73
	ld	a4,-32(s0)
	mv	a5,a4
	slli	a5,a5,1
	add	a5,a5,a4
	slli	a5,a5,3
	add	a5,a2,a5
	.loc 1 4950 14
	ld	a5,16(a5)
	ld	a1,-64(s0)
	mv	a0,a5
	jalr	a3
.LVL91:
	sd	a0,-48(s0)
	.loc 1 4954 36
	ld	a5,-48(s0)
	.loc 1 4954 8
	bge	a5,zero,.L547
	.loc 1 4955 20
	ld	a5,-48(s0)
	sd	a5,-40(s0)
.L547:
	.loc 1 4949 101 discriminator 2
	ld	a5,-32(s0)
	addi	a5,a5,1
	sd	a5,-32(s0)
.L546:
	.loc 1 4949 69 discriminator 1
	ld	a5,-24(s0)
	ld	a5,216(a5)
	.loc 1 4949 60 discriminator 1
	ld	a4,-32(s0)
	bltu	a4,a5,.L548
	.loc 1 4959 36
	ld	a5,-64(s0)
	sext.w	a4,a5
	.loc 1 4959 34
	ld	a5,-24(s0)
	sw	a4,104(a5)
	.loc 1 4961 10
	ld	a5,-40(s0)
.L545:
	.loc 1 4962 1
	mv	a0,a5
	ld	ra,56(sp)
	.cfi_restore 1
	ld	s0,48(sp)
	.cfi_restore 8
	.cfi_def_cfa 2, 64
	addi	sp,sp,64
	.cfi_def_cfa_offset 0
	jr	ra
	.cfi_endproc
.LFE65:
	.size	ConSplitterTextOutSetAttribute, .-ConSplitterTextOutSetAttribute
	.section	.text.ConSplitterTextOutClearScreen,"ax",@progbits
	.align	1
	.globl	ConSplitterTextOutClearScreen
	.type	ConSplitterTextOutClearScreen, @function
ConSplitterTextOutClearScreen:
.LFB66:
	.loc 1 4981 1
	.cfi_startproc
	addi	sp,sp,-64
	.cfi_def_cfa_offset 64
	sd	ra,56(sp)
	sd	s0,48(sp)
	.cfi_offset 1, -8
	.cfi_offset 8, -16
	addi	s0,sp,64
	.cfi_def_cfa 8, 0
	sd	a0,-56(s0)
	.loc 1 4987 15
	ld	a5,-56(s0)
	addi	a5,a5,-16
	.loc 1 4987 152
	ld	a4,0(a5)
	.loc 1 4987 237
	li	a5,1884516352
	addi	a5,a5,-172
	bne	a4,a5,.L550
	.loc 1 4987 11 discriminator 1
	ld	a5,-56(s0)
	addi	a5,a5,-16
	sd	a5,-24(s0)
	j	.L551
.L550:
	.loc 1 4987 11 is_stmt 0 discriminator 2
	sd	zero,-24(s0)
.L551:
	.loc 1 4992 14 is_stmt 1
	sd	zero,-32(s0)
	.loc 1 4992 32
	sd	zero,-40(s0)
	.loc 1 4992 3
	j	.L552
.L554:
	.loc 1 4993 21
	ld	a5,-24(s0)
	ld	a3,224(a5)
	.loc 1 4993 34
	ld	a4,-32(s0)
	mv	a5,a4
	slli	a5,a5,1
	add	a5,a5,a4
	slli	a5,a5,3
	add	a5,a3,a5
	.loc 1 4993 41
	ld	a5,16(a5)
	.loc 1 4993 49
	ld	a3,48(a5)
	.loc 1 4993 71
	ld	a5,-24(s0)
	ld	a2,224(a5)
	.loc 1 4993 84
	ld	a4,-32(s0)
	mv	a5,a4
	slli	a5,a5,1
	add	a5,a5,a4
	slli	a5,a5,3
	add	a5,a2,a5
	.loc 1 4993 14
	ld	a5,16(a5)
	mv	a0,a5
	jalr	a3
.LVL92:
	sd	a0,-48(s0)
	.loc 1 4994 36
	ld	a5,-48(s0)
	.loc 1 4994 8
	bge	a5,zero,.L553
	.loc 1 4995 20
	ld	a5,-48(s0)
	sd	a5,-40(s0)
.L553:
	.loc 1 4992 101 discriminator 2
	ld	a5,-32(s0)
	addi	a5,a5,1
	sd	a5,-32(s0)
.L552:
	.loc 1 4992 69 discriminator 1
	ld	a5,-24(s0)
	ld	a5,216(a5)
	.loc 1 4992 60 discriminator 1
	ld	a4,-32(s0)
	bltu	a4,a5,.L554
	.loc 1 5004 37
	ld	a5,-24(s0)
	sw	zero,108(a5)
	.loc 1 5005 34
	ld	a5,-24(s0)
	sw	zero,112(a5)
	.loc 1 5006 38
	ld	a5,-24(s0)
	li	a4,1
	sb	a4,116(a5)
	.loc 1 5008 10
	ld	a5,-40(s0)
	.loc 1 5009 1
	mv	a0,a5
	ld	ra,56(sp)
	.cfi_restore 1
	ld	s0,48(sp)
	.cfi_restore 8
	.cfi_def_cfa 2, 64
	addi	sp,sp,64
	.cfi_def_cfa_offset 0
	jr	ra
	.cfi_endproc
.LFE66:
	.size	ConSplitterTextOutClearScreen, .-ConSplitterTextOutClearScreen
	.section	.text.ConSplitterTextOutSetCursorPosition,"ax",@progbits
	.align	1
	.globl	ConSplitterTextOutSetCursorPosition
	.type	ConSplitterTextOutSetCursorPosition, @function
ConSplitterTextOutSetCursorPosition:
.LFB67:
	.loc 1 5037 1
	.cfi_startproc
	addi	sp,sp,-128
	.cfi_def_cfa_offset 128
	sd	ra,120(sp)
	sd	s0,112(sp)
	.cfi_offset 1, -8
	.cfi_offset 8, -16
	addi	s0,sp,128
	.cfi_def_cfa 8, 0
	sd	a0,-104(s0)
	sd	a1,-112(s0)
	sd	a2,-120(s0)
	.loc 1 5048 15
	ld	a5,-104(s0)
	addi	a5,a5,-16
	.loc 1 5048 152
	ld	a4,0(a5)
	.loc 1 5048 237
	li	a5,1884516352
	addi	a5,a5,-172
	bne	a4,a5,.L557
	.loc 1 5048 11 discriminator 1
	ld	a5,-104(s0)
	addi	a5,a5,-16
	sd	a5,-24(s0)
	j	.L558
.L557:
	.loc 1 5048 11 is_stmt 0 discriminator 2
	sd	zero,-24(s0)
.L558:
	.loc 1 5049 18 is_stmt 1
	sd	zero,-56(s0)
	.loc 1 5050 14
	ld	a5,-24(s0)
	lw	a5,100(a5)
	sw	a5,-60(s0)
	.loc 1 5055 14
	ld	a5,-24(s0)
	ld	a5,256(a5)
	.loc 1 5055 6
	beq	a5,zero,.L559
	.loc 1 5056 29
	ld	a5,-24(s0)
	ld	a4,256(a5)
	.loc 1 5056 55
	ld	a5,-24(s0)
	ld	a3,232(a5)
	.loc 1 5056 74
	lw	a5,-60(s0)
	mul	a5,a3,a5
	.loc 1 5056 46
	slli	a5,a5,2
	.loc 1 5056 20
	add	a5,a4,a5
	sd	a5,-56(s0)
	.loc 1 5057 17
	ld	a5,-56(s0)
	lw	a5,0(a5)
	sw	a5,-44(s0)
	j	.L560
.L559:
	.loc 1 5059 17
	lw	a5,-60(s0)
	sw	a5,-44(s0)
.L560:
	.loc 1 5062 22
	ld	a5,-24(s0)
	ld	a4,240(a5)
	.loc 1 5062 40
	lw	a5,-44(s0)
	slli	a5,a5,4
	add	a5,a4,a5
	.loc 1 5062 13
	ld	a5,0(a5)
	sd	a5,-72(s0)
	.loc 1 5063 19
	ld	a5,-24(s0)
	ld	a4,240(a5)
	.loc 1 5063 37
	lw	a5,-44(s0)
	slli	a5,a5,4
	add	a5,a4,a5
	.loc 1 5063 10
	ld	a5,8(a5)
	sd	a5,-80(s0)
	.loc 1 5065 6
	ld	a4,-112(s0)
	ld	a5,-72(s0)
	bgeu	a4,a5,.L561
	.loc 1 5065 29 discriminator 1
	ld	a4,-120(s0)
	ld	a5,-80(s0)
	bltu	a4,a5,.L562
.L561:
	.loc 1 5066 12
	li	a5,-1
	slli	a5,a5,63
	addi	a5,a5,3
	j	.L563
.L562:
	.loc 1 5072 14
	sd	zero,-32(s0)
	.loc 1 5072 32
	sd	zero,-40(s0)
	.loc 1 5072 3
	j	.L564
.L566:
	.loc 1 5073 21
	ld	a5,-24(s0)
	ld	a3,224(a5)
	.loc 1 5073 34
	ld	a4,-32(s0)
	mv	a5,a4
	slli	a5,a5,1
	add	a5,a5,a4
	slli	a5,a5,3
	add	a5,a3,a5
	.loc 1 5073 41
	ld	a5,16(a5)
	.loc 1 5073 49
	ld	a3,56(a5)
	.loc 1 5074 60
	ld	a5,-24(s0)
	ld	a2,224(a5)
	.loc 1 5074 73
	ld	a4,-32(s0)
	mv	a5,a4
	slli	a5,a5,1
	add	a5,a5,a4
	slli	a5,a5,3
	add	a5,a2,a5
	.loc 1 5073 14
	ld	a5,16(a5)
	ld	a2,-120(s0)
	ld	a1,-112(s0)
	mv	a0,a5
	jalr	a3
.LVL93:
	sd	a0,-88(s0)
	.loc 1 5078 36
	ld	a5,-88(s0)
	.loc 1 5078 8
	bge	a5,zero,.L565
	.loc 1 5079 20
	ld	a5,-88(s0)
	sd	a5,-40(s0)
.L565:
	.loc 1 5072 101 discriminator 2
	ld	a5,-32(s0)
	addi	a5,a5,1
	sd	a5,-32(s0)
.L564:
	.loc 1 5072 69 discriminator 1
	ld	a5,-24(s0)
	ld	a5,216(a5)
	.loc 1 5072 60 discriminator 1
	ld	a4,-32(s0)
	bltu	a4,a5,.L566
	.loc 1 5088 39
	ld	a5,-112(s0)
	sext.w	a4,a5
	.loc 1 5088 37
	ld	a5,-24(s0)
	sw	a4,108(a5)
	.loc 1 5089 36
	ld	a5,-120(s0)
	sext.w	a4,a5
	.loc 1 5089 34
	ld	a5,-24(s0)
	sw	a4,112(a5)
	.loc 1 5091 10
	ld	a5,-40(s0)
.L563:
	.loc 1 5092 1
	mv	a0,a5
	ld	ra,120(sp)
	.cfi_restore 1
	ld	s0,112(sp)
	.cfi_restore 8
	.cfi_def_cfa 2, 128
	addi	sp,sp,128
	.cfi_def_cfa_offset 0
	jr	ra
	.cfi_endproc
.LFE67:
	.size	ConSplitterTextOutSetCursorPosition, .-ConSplitterTextOutSetCursorPosition
	.section	.text.ConSplitterTextOutEnableCursor,"ax",@progbits
	.align	1
	.globl	ConSplitterTextOutEnableCursor
	.type	ConSplitterTextOutEnableCursor, @function
ConSplitterTextOutEnableCursor:
.LFB68:
	.loc 1 5114 1
	.cfi_startproc
	addi	sp,sp,-64
	.cfi_def_cfa_offset 64
	sd	ra,56(sp)
	sd	s0,48(sp)
	.cfi_offset 1, -8
	.cfi_offset 8, -16
	addi	s0,sp,64
	.cfi_def_cfa 8, 0
	sd	a0,-56(s0)
	mv	a5,a1
	sb	a5,-57(s0)
	.loc 1 5120 15
	ld	a5,-56(s0)
	addi	a5,a5,-16
	.loc 1 5120 152
	ld	a4,0(a5)
	.loc 1 5120 237
	li	a5,1884516352
	addi	a5,a5,-172
	bne	a4,a5,.L568
	.loc 1 5120 11 discriminator 1
	ld	a5,-56(s0)
	addi	a5,a5,-16
	sd	a5,-24(s0)
	j	.L569
.L568:
	.loc 1 5120 11 is_stmt 0 discriminator 2
	sd	zero,-24(s0)
.L569:
	.loc 1 5125 14 is_stmt 1
	sd	zero,-32(s0)
	.loc 1 5125 32
	sd	zero,-40(s0)
	.loc 1 5125 3
	j	.L570
.L572:
	.loc 1 5126 21
	ld	a5,-24(s0)
	ld	a3,224(a5)
	.loc 1 5126 34
	ld	a4,-32(s0)
	mv	a5,a4
	slli	a5,a5,1
	add	a5,a5,a4
	slli	a5,a5,3
	add	a5,a3,a5
	.loc 1 5126 41
	ld	a5,16(a5)
	.loc 1 5126 49
	ld	a3,64(a5)
	.loc 1 5127 60
	ld	a5,-24(s0)
	ld	a2,224(a5)
	.loc 1 5127 73
	ld	a4,-32(s0)
	mv	a5,a4
	slli	a5,a5,1
	add	a5,a5,a4
	slli	a5,a5,3
	add	a5,a2,a5
	.loc 1 5126 14
	ld	a5,16(a5)
	lbu	a4,-57(s0)
	mv	a1,a4
	mv	a0,a5
	jalr	a3
.LVL94:
	sd	a0,-48(s0)
	.loc 1 5130 36
	ld	a5,-48(s0)
	.loc 1 5130 8
	bge	a5,zero,.L571
	.loc 1 5131 20
	ld	a5,-48(s0)
	sd	a5,-40(s0)
.L571:
	.loc 1 5125 101 discriminator 2
	ld	a5,-32(s0)
	addi	a5,a5,1
	sd	a5,-32(s0)
.L570:
	.loc 1 5125 69 discriminator 1
	ld	a5,-24(s0)
	ld	a5,216(a5)
	.loc 1 5125 60 discriminator 1
	ld	a4,-32(s0)
	bltu	a4,a5,.L572
	.loc 1 5135 38
	ld	a5,-24(s0)
	lbu	a4,-57(s0)
	sb	a4,116(a5)
	.loc 1 5137 10
	ld	a5,-40(s0)
	.loc 1 5138 1
	mv	a0,a5
	ld	ra,56(sp)
	.cfi_restore 1
	ld	s0,48(sp)
	.cfi_restore 8
	.cfi_def_cfa 2, 64
	addi	sp,sp,64
	.cfi_def_cfa_offset 0
	jr	ra
	.cfi_endproc
.LFE68:
	.size	ConSplitterTextOutEnableCursor, .-ConSplitterTextOutEnableCursor
	.section	.rodata
	.align	3
.LC0:
	.dword	-2049638230412172401
	.text
.Letext0:
	.file 2 "/home/kapoagaeming/Downloads/spacemit-image-builder/components/edk2/MdePkg/Include/RiscV64/ProcessorBind.h"
	.file 3 "/home/kapoagaeming/Downloads/spacemit-image-builder/components/edk2/MdePkg/Include/Base.h"
	.file 4 "/home/kapoagaeming/Downloads/spacemit-image-builder/components/edk2/MdePkg/Include/Uefi/UefiBaseType.h"
	.file 5 "/home/kapoagaeming/Downloads/spacemit-image-builder/components/edk2/MdePkg/Include/Uefi/UefiMultiPhase.h"
	.file 6 "/home/kapoagaeming/Downloads/spacemit-image-builder/components/edk2/MdePkg/Include/Protocol/DevicePath.h"
	.file 7 "/home/kapoagaeming/Downloads/spacemit-image-builder/components/edk2/MdePkg/Include/Protocol/SimpleTextIn.h"
	.file 8 "/home/kapoagaeming/Downloads/spacemit-image-builder/components/edk2/MdePkg/Include/Protocol/SimpleTextInEx.h"
	.file 9 "/home/kapoagaeming/Downloads/spacemit-image-builder/components/edk2/MdePkg/Include/Protocol/SimpleTextOut.h"
	.file 10 "/home/kapoagaeming/Downloads/spacemit-image-builder/components/edk2/MdePkg/Include/Uefi/UefiSpec.h"
	.file 11 "/home/kapoagaeming/Downloads/spacemit-image-builder/components/Build/Milk-V-Jupiter/RELEASE_GCC5/RISCV64/MdeModulePkg/Universal/Console/ConSplitterDxe/ConSplitterDxe/DEBUG/AutoGen.h"
	.file 12 "/home/kapoagaeming/Downloads/spacemit-image-builder/components/edk2/MdePkg/Include/Protocol/ComponentName.h"
	.file 13 "/home/kapoagaeming/Downloads/spacemit-image-builder/components/edk2/MdePkg/Include/Protocol/DriverBinding.h"
	.file 14 "/home/kapoagaeming/Downloads/spacemit-image-builder/components/edk2/MdePkg/Include/Protocol/SimplePointer.h"
	.file 15 "/home/kapoagaeming/Downloads/spacemit-image-builder/components/edk2/MdePkg/Include/Protocol/AbsolutePointer.h"
	.file 16 "/home/kapoagaeming/Downloads/spacemit-image-builder/components/edk2/MdePkg/Include/Protocol/GraphicsOutput.h"
	.file 17 "/home/kapoagaeming/Downloads/spacemit-image-builder/components/edk2/MdePkg/Include/Protocol/UgaDraw.h"
	.file 18 "/home/kapoagaeming/Downloads/spacemit-image-builder/components/edk2/MdePkg/Include/Protocol/ComponentName2.h"
	.file 19 "/home/kapoagaeming/Downloads/spacemit-image-builder/components/edk2/MdePkg/Include/Library/UefiBootServicesTableLib.h"
	.file 20 "/home/kapoagaeming/Downloads/spacemit-image-builder/components/edk2/MdeModulePkg/Universal/Console/ConSplitterDxe/ConSplitter.h"
	.file 21 "/home/kapoagaeming/Downloads/spacemit-image-builder/components/edk2/MdePkg/Include/Library/BaseLib.h"
	.file 22 "/home/kapoagaeming/Downloads/spacemit-image-builder/components/edk2/MdePkg/Include/Library/PcdLib.h"
	.file 23 "/home/kapoagaeming/Downloads/spacemit-image-builder/components/edk2/MdePkg/Include/Library/BaseMemoryLib.h"
	.file 24 "/home/kapoagaeming/Downloads/spacemit-image-builder/components/edk2/MdePkg/Include/Library/MemoryAllocationLib.h"
	.file 25 "/home/kapoagaeming/Downloads/spacemit-image-builder/components/edk2/MdePkg/Include/Library/UefiLib.h"
	.section	.note.GNU-stack,"",@progbits
