	.file	"FdtFixupDxe.c"
	.option pic
	.option norelax
	.attribute arch, "rv64i2p1_m2p0_a2p1_f2p2_d2p2_c2p0_zicsr2p0_zifencei2p0_zmmul1p0_zaamo1p0_zalrsc1p0_zca1p0_zcd1p0"
	.attribute unaligned_access, 0
	.attribute stack_align, 16
	.text
.Ltext0:
	.cfi_sections	.debug_frame
	.file 0 "/home/kapoagaeming/Downloads/spacemit-image-builder/components/Build/Milk-V-Jupiter/RELEASE_GCC5/RISCV64/Silicon/Spacemit/Drivers/FdtFixupDxe/FdtFixupDxe" "/home/kapoagaeming/Downloads/spacemit-image-builder/components/edk2-platforms/Silicon/Spacemit/Drivers/FdtFixupDxe/FdtFixupDxe.c"
	.section	.text.fdt32_to_cpu,"ax",@progbits
	.align	1
	.type	fdt32_to_cpu, @function
fdt32_to_cpu:
.LFB1:
	.file 1 "/home/kapoagaeming/Downloads/spacemit-image-builder/components/edk2/EmbeddedPkg/Include/libfdt_env.h"
	.loc 1 40 1
	.cfi_startproc
	addi	sp,sp,-32
	.cfi_def_cfa_offset 32
	sd	ra,24(sp)
	sd	s0,16(sp)
	.cfi_offset 1, -8
	.cfi_offset 8, -16
	addi	s0,sp,32
	.cfi_def_cfa 8, 0
	mv	a5,a0
	sw	a5,-20(s0)
	.loc 1 41 10
	lw	a5,-20(s0)
	mv	a0,a5
	call	SwapBytes32@plt
	mv	a5,a0
	.loc 1 42 1
	mv	a0,a5
	ld	ra,24(sp)
	.cfi_restore 1
	ld	s0,16(sp)
	.cfi_restore 8
	.cfi_def_cfa 2, 32
	addi	sp,sp,32
	.cfi_def_cfa_offset 0
	jr	ra
	.cfi_endproc
.LFE1:
	.size	fdt32_to_cpu, .-fdt32_to_cpu
	.section	.text.fdt64_to_cpu,"ax",@progbits
	.align	1
	.type	fdt64_to_cpu, @function
fdt64_to_cpu:
.LFB2:
	.loc 1 50 1
	.cfi_startproc
	addi	sp,sp,-32
	.cfi_def_cfa_offset 32
	sd	ra,24(sp)
	sd	s0,16(sp)
	.cfi_offset 1, -8
	.cfi_offset 8, -16
	addi	s0,sp,32
	.cfi_def_cfa 8, 0
	sd	a0,-24(s0)
	.loc 1 51 10
	ld	a0,-24(s0)
	call	SwapBytes64@plt
	mv	a5,a0
	.loc 1 52 1
	mv	a0,a5
	ld	ra,24(sp)
	.cfi_restore 1
	ld	s0,16(sp)
	.cfi_restore 8
	.cfi_def_cfa 2, 32
	addi	sp,sp,32
	.cfi_def_cfa_offset 0
	jr	ra
	.cfi_endproc
.LFE2:
	.size	fdt64_to_cpu, .-fdt64_to_cpu
	.section	.text.fdt_set_totalsize,"ax",@progbits
	.align	1
	.type	fdt_set_totalsize, @function
fdt_set_totalsize:
.LFB16:
	.file 2 "/home/kapoagaeming/Downloads/spacemit-image-builder/components/edk2/EmbeddedPkg/Include/libfdt.h"
	.loc 2 281 63
	.cfi_startproc
	addi	sp,sp,-48
	.cfi_def_cfa_offset 48
	sd	ra,40(sp)
	sd	s0,32(sp)
	.cfi_offset 1, -8
	.cfi_offset 8, -16
	addi	s0,sp,48
	.cfi_def_cfa 8, 0
	sd	a0,-40(s0)
	mv	a5,a1
	sw	a5,-44(s0)
	.loc 2 281 84
	ld	a5,-40(s0)
	sd	a5,-24(s0)
	.loc 2 281 135
	lw	a5,-44(s0)
	mv	a0,a5
	call	fdt32_to_cpu
	mv	a5,a0
	mv	a4,a5
	.loc 2 281 133 discriminator 1
	ld	a5,-24(s0)
	sw	a4,4(a5)
	.loc 2 281 154
	nop
	ld	ra,40(sp)
	.cfi_restore 1
	ld	s0,32(sp)
	.cfi_restore 8
	.cfi_def_cfa 2, 48
	addi	sp,sp,48
	.cfi_def_cfa_offset 0
	jr	ra
	.cfi_endproc
.LFE16:
	.size	fdt_set_totalsize, .-fdt_set_totalsize
	.section	.bss.mHandle,"aw",@nobits
	.align	3
	.type	mHandle, @object
	.size	mHandle, 8
mHandle:
	.zero	8
	.section	.bss.mPlatformInfoProtocol,"aw",@nobits
	.align	3
	.type	mPlatformInfoProtocol, @object
	.size	mPlatformInfoProtocol, 8
mPlatformInfoProtocol:
	.zero	8
	.section	.text.Rand,"ax",@progbits
	.align	1
	.type	Rand, @function
Rand:
.LFB40:
	.file 3 "/home/kapoagaeming/Downloads/spacemit-image-builder/components/edk2-platforms/Silicon/Spacemit/Drivers/FdtFixupDxe/FdtFixupDxe.c"
	.loc 3 42 1
	.cfi_startproc
	addi	sp,sp,-32
	.cfi_def_cfa_offset 32
	sd	ra,24(sp)
	sd	s0,16(sp)
	.cfi_offset 1, -8
	.cfi_offset 8, -16
	addi	s0,sp,32
	.cfi_def_cfa 8, 0
	.loc 3 43 14
	call	GetPerformanceCounter@plt
	sd	a0,-24(s0)
	.loc 3 45 11
	ld	a5,-24(s0)
	srli	a4,a5,29
	.loc 3 45 18
	lla	a5,.LC0
	ld	a5,0(a5)
	and	a5,a4,a5
	.loc 3 45 5
	ld	a4,-24(s0)
	xor	a5,a4,a5
	sd	a5,-24(s0)
	.loc 3 46 11
	ld	a5,-24(s0)
	slli	a4,a5,17
	.loc 3 46 18
	lla	a5,.LC1
	ld	a5,0(a5)
	and	a5,a4,a5
	.loc 3 46 5
	ld	a4,-24(s0)
	xor	a5,a4,a5
	sd	a5,-24(s0)
	.loc 3 47 11
	ld	a5,-24(s0)
	slli	a4,a5,37
	.loc 3 47 18
	li	a5,-67670016
	slli	a5,a5,25
	and	a5,a4,a5
	.loc 3 47 5
	ld	a4,-24(s0)
	xor	a5,a4,a5
	sd	a5,-24(s0)
	.loc 3 48 10
	ld	a5,-24(s0)
	srli	a5,a5,43
	.loc 3 48 5
	ld	a4,-24(s0)
	xor	a5,a4,a5
	sd	a5,-24(s0)
	.loc 3 50 10
	ld	a5,-24(s0)
	.loc 3 51 1
	mv	a0,a5
	ld	ra,24(sp)
	.cfi_restore 1
	ld	s0,16(sp)
	.cfi_restore 8
	.cfi_def_cfa 2, 32
	addi	sp,sp,32
	.cfi_def_cfa_offset 0
	jr	ra
	.cfi_endproc
.LFE40:
	.size	Rand, .-Rand
	.section	.text.GenerateRandomEthaddr,"ax",@progbits
	.align	1
	.type	GenerateRandomEthaddr, @function
GenerateRandomEthaddr:
.LFB41:
	.loc 3 58 1
	.cfi_startproc
	addi	sp,sp,-48
	.cfi_def_cfa_offset 48
	sd	ra,40(sp)
	sd	s0,32(sp)
	.cfi_offset 1, -8
	.cfi_offset 8, -16
	addi	s0,sp,48
	.cfi_def_cfa 8, 0
	sd	a0,-40(s0)
	.loc 3 61 14
	ld	a5,-40(s0)
	li	a4,-2
	sb	a4,0(a5)
	.loc 3 62 10
	ld	a5,-40(s0)
	addi	a5,a5,1
	.loc 3 62 14
	li	a4,-2
	sb	a4,0(a5)
	.loc 3 63 10
	ld	a5,-40(s0)
	addi	a5,a5,2
	.loc 3 63 14
	li	a4,-2
	sb	a4,0(a5)
	.loc 3 66 10
	li	a5,3
	sw	a5,-20(s0)
	.loc 3 66 3
	j	.L9
.L10:
	.loc 3 67 25
	call	Rand
	mv	a3,a0
	.loc 3 67 12 discriminator 1
	lw	a5,-20(s0)
	ld	a4,-40(s0)
	add	a5,a4,a5
	.loc 3 67 18 discriminator 1
	andi	a4,a3,0xff
	.loc 3 67 16 discriminator 1
	sb	a4,0(a5)
	.loc 3 66 23 discriminator 3
	lw	a5,-20(s0)
	addiw	a5,a5,1
	sw	a5,-20(s0)
.L9:
	.loc 3 66 17 discriminator 1
	lw	a5,-20(s0)
	sext.w	a4,a5
	li	a5,5
	ble	a4,a5,.L10
	.loc 3 69 1
	nop
	nop
	ld	ra,40(sp)
	.cfi_restore 1
	ld	s0,32(sp)
	.cfi_restore 8
	.cfi_def_cfa 2, 48
	addi	sp,sp,48
	.cfi_def_cfa_offset 0
	jr	ra
	.cfi_endproc
.LFE41:
	.size	GenerateRandomEthaddr, .-GenerateRandomEthaddr
	.section	.text.IncreaseEthaddr,"ax",@progbits
	.align	1
	.type	IncreaseEthaddr, @function
IncreaseEthaddr:
.LFB42:
	.loc 3 78 1
	.cfi_startproc
	addi	sp,sp,-48
	.cfi_def_cfa_offset 48
	sd	ra,40(sp)
	sd	s0,32(sp)
	.cfi_offset 1, -8
	.cfi_offset 8, -16
	addi	s0,sp,48
	.cfi_def_cfa 8, 0
	sd	a0,-24(s0)
	sd	a1,-32(s0)
	mv	a5,a2
	sb	a5,-33(s0)
	.loc 3 79 3
	li	a2,6
	ld	a1,-24(s0)
	ld	a0,-32(s0)
	call	CopyMem@plt
	.loc 3 81 13
	ld	a5,-32(s0)
	addi	a5,a5,5
	lbu	a4,0(a5)
	ld	a5,-32(s0)
	addi	a5,a5,5
	.loc 3 81 17
	lbu	a3,-33(s0)
	addw	a4,a3,a4
	andi	a4,a4,0xff
	sb	a4,0(a5)
	.loc 3 82 17
	ld	a5,-32(s0)
	addi	a5,a5,5
	lbu	a4,0(a5)
	.loc 3 82 30
	ld	a5,-24(s0)
	addi	a5,a5,5
	lbu	a5,0(a5)
	.loc 3 82 6
	bgeu	a4,a5,.L13
	.loc 3 83 15
	ld	a5,-32(s0)
	addi	a5,a5,4
	lbu	a4,0(a5)
	.loc 3 83 18
	addiw	a4,a4,1
	andi	a4,a4,0xff
	sb	a4,0(a5)
	.loc 3 84 24
	ld	a5,-32(s0)
	addi	a5,a5,4
	lbu	a5,0(a5)
	.loc 3 84 8
	bne	a5,zero,.L13
	.loc 3 85 17
	ld	a5,-32(s0)
	addi	a5,a5,3
	lbu	a4,0(a5)
	.loc 3 85 20
	addiw	a4,a4,1
	andi	a4,a4,0xff
	sb	a4,0(a5)
.L13:
	.loc 3 88 1
	nop
	ld	ra,40(sp)
	.cfi_restore 1
	ld	s0,32(sp)
	.cfi_restore 8
	.cfi_def_cfa 2, 48
	addi	sp,sp,48
	.cfi_def_cfa_offset 0
	jr	ra
	.cfi_endproc
.LFE42:
	.size	IncreaseEthaddr, .-IncreaseEthaddr
	.section	.text.FdtPackReg,"ax",@progbits
	.align	1
	.type	FdtPackReg, @function
FdtPackReg:
.LFB43:
	.loc 3 98 1
	.cfi_startproc
	addi	sp,sp,-64
	.cfi_def_cfa_offset 64
	sd	ra,56(sp)
	sd	s0,48(sp)
	.cfi_offset 1, -8
	.cfi_offset 8, -16
	addi	s0,sp,64
	.cfi_def_cfa 8, 0
	sd	a0,-40(s0)
	sd	a1,-48(s0)
	sd	a2,-56(s0)
	sd	a3,-64(s0)
	.loc 3 99 24
	li	a1,0
	ld	a0,-40(s0)
	call	fdt_address_cells@plt
	mv	a5,a0
	sw	a5,-20(s0)
	.loc 3 100 21
	li	a1,0
	ld	a0,-40(s0)
	call	fdt_size_cells@plt
	mv	a5,a0
	sw	a5,-24(s0)
	.loc 3 101 10
	ld	a5,-48(s0)
	sd	a5,-32(s0)
	.loc 3 103 6
	lw	a5,-20(s0)
	sext.w	a4,a5
	li	a5,2
	bne	a4,a5,.L15
	.loc 3 104 21
	ld	a0,-56(s0)
	call	fdt64_to_cpu
	mv	a4,a0
	.loc 3 104 19 discriminator 1
	ld	a5,-32(s0)
	sd	a4,0(a5)
	j	.L16
.L15:
	.loc 3 106 21
	ld	a5,-56(s0)
	sext.w	a5,a5
	mv	a0,a5
	call	fdt32_to_cpu
	mv	a5,a0
	mv	a4,a5
	.loc 3 106 19 discriminator 1
	ld	a5,-32(s0)
	sw	a4,0(a5)
.L16:
	.loc 3 109 10
	lw	a5,-20(s0)
	slliw	a5,a5,2
	sext.w	a5,a5
	mv	a4,a5
	.loc 3 109 5
	ld	a5,-32(s0)
	add	a5,a5,a4
	sd	a5,-32(s0)
	.loc 3 111 6
	lw	a5,-24(s0)
	sext.w	a4,a5
	li	a5,2
	bne	a4,a5,.L17
	.loc 3 112 21
	ld	a0,-64(s0)
	call	fdt64_to_cpu
	mv	a4,a0
	.loc 3 112 19 discriminator 1
	ld	a5,-32(s0)
	sd	a4,0(a5)
	j	.L18
.L17:
	.loc 3 114 21
	ld	a5,-64(s0)
	sext.w	a5,a5
	mv	a0,a5
	call	fdt32_to_cpu
	mv	a5,a0
	mv	a4,a5
	.loc 3 114 19 discriminator 1
	ld	a5,-32(s0)
	sw	a4,0(a5)
.L18:
	.loc 3 117 10
	lw	a5,-24(s0)
	slliw	a5,a5,2
	sext.w	a5,a5
	mv	a4,a5
	.loc 3 117 5
	ld	a5,-32(s0)
	add	a5,a5,a4
	sd	a5,-32(s0)
	.loc 3 119 12
	ld	a4,-32(s0)
	ld	a5,-48(s0)
	sub	a5,a4,a5
	sext.w	a5,a5
	.loc 3 120 1
	mv	a0,a5
	ld	ra,56(sp)
	.cfi_restore 1
	ld	s0,48(sp)
	.cfi_restore 8
	.cfi_def_cfa 2, 64
	addi	sp,sp,64
	.cfi_def_cfa_offset 0
	jr	ra
	.cfi_endproc
.LFE43:
	.size	FdtPackReg, .-FdtPackReg
	.section	.rodata
	.align	3
.LC2:
	.string	"serial#"
	.align	3
.LC3:
	.string	"serial-number"
	.section	.text.UpdateSerialNumber,"ax",@progbits
	.align	1
	.type	UpdateSerialNumber, @function
UpdateSerialNumber:
.LFB44:
	.loc 3 127 1
	.cfi_startproc
	addi	sp,sp,-112
	.cfi_def_cfa_offset 112
	sd	ra,104(sp)
	sd	s0,96(sp)
	.cfi_offset 1, -8
	.cfi_offset 8, -16
	addi	s0,sp,112
	.cfi_def_cfa 8, 0
	sd	a0,-104(s0)
	.loc 3 128 22
	addi	a5,s0,-96
	sd	a5,-24(s0)
	.loc 3 131 3
	addi	a5,s0,-96
	li	a2,0
	li	a1,64
	mv	a0,a5
	call	SetMem@plt
	.loc 3 132 46
	lla	a5,mPlatformInfoProtocol
	ld	a5,0(a5)
	ld	a5,8(a5)
	.loc 3 132 25
	lla	a4,mPlatformInfoProtocol
	ld	a4,0(a4)
	addi	a2,s0,-96
	li	a3,64
	lla	a1,.LC2
	mv	a0,a4
	jalr	a5
.LVL0:
	mv	a5,a0
	.loc 3 132 6 discriminator 1
	bge	a5,zero,.L21
	.loc 3 141 7
	la	a5,_gPcd_FixedAtBuild_PcdDefaultSerialNumber
	sd	a5,-24(s0)
.L21:
	.loc 3 144 50
	ld	a0,-24(s0)
	call	AsciiStrLen@plt
	mv	a5,a0
	.loc 3 144 66 discriminator 1
	sext.w	a5,a5
	addiw	a5,a5,1
	sext.w	a5,a5
	.loc 3 144 9 discriminator 1
	mv	a4,a5
	ld	a3,-24(s0)
	lla	a2,.LC3
	li	a1,0
	ld	a0,-104(s0)
	call	fdt_setprop@plt
	mv	a5,a0
	sw	a5,-28(s0)
	.loc 3 148 1
	nop
	ld	ra,104(sp)
	.cfi_restore 1
	ld	s0,96(sp)
	.cfi_restore 8
	.cfi_def_cfa 2, 112
	addi	sp,sp,112
	.cfi_def_cfa_offset 0
	jr	ra
	.cfi_endproc
.LFE44:
	.size	UpdateSerialNumber, .-UpdateSerialNumber
	.section	.rodata
	.align	3
.LC4:
	.string	"part#"
	.align	3
.LC5:
	.string	"part-number"
	.section	.text.UpdatePartNumber,"ax",@progbits
	.align	1
	.type	UpdatePartNumber, @function
UpdatePartNumber:
.LFB45:
	.loc 3 155 1
	.cfi_startproc
	addi	sp,sp,-112
	.cfi_def_cfa_offset 112
	sd	ra,104(sp)
	sd	s0,96(sp)
	.cfi_offset 1, -8
	.cfi_offset 8, -16
	addi	s0,sp,112
	.cfi_def_cfa 8, 0
	sd	a0,-104(s0)
	.loc 3 156 20
	addi	a5,s0,-96
	sd	a5,-24(s0)
	.loc 3 159 3
	addi	a5,s0,-96
	li	a2,0
	li	a1,64
	mv	a0,a5
	call	SetMem@plt
	.loc 3 160 46
	lla	a5,mPlatformInfoProtocol
	ld	a5,0(a5)
	ld	a5,8(a5)
	.loc 3 160 25
	lla	a4,mPlatformInfoProtocol
	ld	a4,0(a4)
	addi	a2,s0,-96
	li	a3,64
	lla	a1,.LC4
	mv	a0,a4
	jalr	a5
.LVL1:
	mv	a5,a0
	.loc 3 160 6 discriminator 1
	bge	a5,zero,.L23
	.loc 3 169 7
	la	a5,_gPcd_FixedAtBuild_PcdDefaultPartNumber
	sd	a5,-24(s0)
.L23:
	.loc 3 172 48
	ld	a0,-24(s0)
	call	AsciiStrLen@plt
	mv	a5,a0
	.loc 3 172 64 discriminator 1
	sext.w	a5,a5
	addiw	a5,a5,1
	sext.w	a5,a5
	.loc 3 172 9 discriminator 1
	mv	a4,a5
	ld	a3,-24(s0)
	lla	a2,.LC5
	li	a1,0
	ld	a0,-104(s0)
	call	fdt_setprop@plt
	mv	a5,a0
	sw	a5,-28(s0)
	.loc 3 176 1
	nop
	ld	ra,104(sp)
	.cfi_restore 1
	ld	s0,96(sp)
	.cfi_restore 8
	.cfi_def_cfa 2, 112
	addi	sp,sp,112
	.cfi_def_cfa_offset 0
	jr	ra
	.cfi_endproc
.LFE45:
	.size	UpdatePartNumber, .-UpdatePartNumber
	.section	.rodata
	.align	3
.LC6:
	.string	"ethaddr"
	.align	3
.LC7:
	.string	"/aliases"
	.align	3
.LC8:
	.string	"ethernet"
	.align	3
.LC9:
	.string	"mac-address"
	.align	3
.LC10:
	.string	"local-mac-address"
	.section	.text.UpdateMacAddr,"ax",@progbits
	.align	1
	.type	UpdateMacAddr, @function
UpdateMacAddr:
.LFB46:
	.loc 3 183 1
	.cfi_startproc
	addi	sp,sp,-96
	.cfi_def_cfa_offset 96
	sd	ra,88(sp)
	sd	s0,80(sp)
	.cfi_offset 1, -8
	.cfi_offset 8, -16
	addi	s0,sp,96
	.cfi_def_cfa 8, 0
	sd	a0,-88(s0)
	.loc 3 187 11
	sb	zero,-29(s0)
	.loc 3 189 47
	lla	a5,mPlatformInfoProtocol
	ld	a5,0(a5)
	ld	a5,8(a5)
	.loc 3 189 26
	lla	a4,mPlatformInfoProtocol
	ld	a4,0(a4)
	addi	a2,s0,-56
	li	a3,6
	lla	a1,.LC6
	mv	a0,a4
	jalr	a5
.LVL2:
	mv	a5,a0
	.loc 3 189 6 discriminator 1
	blt	a5,zero,.L25
	.loc 3 198 14
	li	a5,1
	sb	a5,-29(s0)
.L25:
	.loc 3 202 13
	sw	zero,-24(s0)
.L38:
	.loc 3 204 14
	lla	a1,.LC7
	ld	a0,-88(s0)
	call	fdt_path_offset@plt
	mv	a5,a0
	.loc 3 204 14 is_stmt 0 discriminator 1
	mv	a1,a5
	ld	a0,-88(s0)
	call	fdt_first_property_offset@plt
	mv	a5,a0
	sw	a5,-28(s0)
	.loc 3 206 12 is_stmt 1
	sw	zero,-20(s0)
	.loc 3 206 5
	j	.L26
.L27:
	.loc 3 207 16
	lw	a5,-28(s0)
	mv	a1,a5
	ld	a0,-88(s0)
	call	fdt_next_property_offset@plt
	mv	a5,a0
	sw	a5,-28(s0)
	.loc 3 206 28 discriminator 3
	lw	a5,-20(s0)
	addiw	a5,a5,1
	sw	a5,-20(s0)
.L26:
	.loc 3 206 19 discriminator 1
	lw	a5,-20(s0)
	mv	a4,a5
	lw	a5,-24(s0)
	sext.w	a4,a4
	sext.w	a5,a5
	blt	a4,a5,.L27
	.loc 3 210 8
	lw	a5,-28(s0)
	sext.w	a5,a5
	blt	a5,zero,.L40
	.loc 3 214 12
	addi	a4,s0,-72
	lw	a5,-28(s0)
	li	a3,0
	mv	a2,a4
	mv	a1,a5
	ld	a0,-88(s0)
	call	fdt_getprop_by_offset@plt
	sd	a0,-40(s0)
	.loc 3 215 14
	ld	a5,-72(s0)
	li	a2,8
	lla	a1,.LC8
	mv	a0,a5
	call	AsciiStrnCmp@plt
	mv	a5,a0
	.loc 3 215 8 discriminator 1
	bne	a5,zero,.L30
	.loc 3 216 9
	li	a5,-1
	sw	a5,-20(s0)
	.loc 3 217 16
	ld	a5,-72(s0)
	lla	a1,.LC8
	mv	a0,a5
	call	AsciiStrCmp@plt
	mv	a5,a0
	.loc 3 217 10 discriminator 1
	bne	a5,zero,.L31
	.loc 3 218 11
	sw	zero,-20(s0)
	j	.L32
.L31:
	.loc 3 220 13
	ld	a5,-72(s0)
	mv	a0,a5
	call	AsciiStrLen@plt
	mv	a5,a0
	.loc 3 220 32 discriminator 1
	sext.w	a5,a5
	addiw	a5,a5,-1
	sext.w	a5,a5
	.loc 3 220 11 discriminator 1
	sw	a5,-44(s0)
	.loc 3 221 12
	lw	a5,-44(s0)
	sext.w	a5,a5
	ble	a5,zero,.L32
	.loc 3 221 38 discriminator 1
	ld	a4,-72(s0)
	lw	a5,-44(s0)
	add	a5,a4,a5
	lbu	a5,0(a5)
	.loc 3 221 21 discriminator 1
	mv	a4,a5
	li	a5,47
	bleu	a4,a5,.L32
	.loc 3 221 53 discriminator 2
	ld	a4,-72(s0)
	lw	a5,-44(s0)
	add	a5,a4,a5
	lbu	a5,0(a5)
	.loc 3 221 44 discriminator 2
	mv	a4,a5
	li	a5,57
	bgtu	a4,a5,.L32
	.loc 3 222 19
	ld	a4,-72(s0)
	lw	a5,-44(s0)
	add	a5,a4,a5
	lbu	a5,0(a5)
	sext.w	a5,a5
	.loc 3 222 13
	addiw	a5,a5,-48
	sw	a5,-20(s0)
.L32:
	.loc 3 226 10
	lw	a5,-20(s0)
	sext.w	a5,a5
	blt	a5,zero,.L41
	.loc 3 226 19 discriminator 2
	lw	a5,-20(s0)
	sext.w	a4,a5
	li	a5,8
	bgt	a4,a5,.L41
	.loc 3 230 10
	lbu	a5,-29(s0)
	andi	a5,a5,0xff
	beq	a5,zero,.L35
	.loc 3 231 9
	lw	a5,-20(s0)
	andi	a3,a5,0xff
	addi	a4,s0,-64
	addi	a5,s0,-56
	mv	a2,a3
	mv	a1,a4
	mv	a0,a5
	call	IncreaseEthaddr
	j	.L36
.L35:
	.loc 3 233 9
	addi	a5,s0,-64
	mv	a0,a5
	call	GenerateRandomEthaddr
.L36:
	.loc 3 236 17
	ld	a1,-40(s0)
	ld	a0,-88(s0)
	call	fdt_path_offset@plt
	mv	a5,a0
	sw	a5,-48(s0)
	.loc 3 237 10
	lw	a5,-48(s0)
	sext.w	a5,a5
	blt	a5,zero,.L42
	.loc 3 241 7
	addi	a3,s0,-64
	lw	a5,-48(s0)
	li	a4,6
	lla	a2,.LC9
	mv	a1,a5
	ld	a0,-88(s0)
	call	fdt_setprop@plt
	.loc 3 242 7
	addi	a3,s0,-64
	lw	a5,-48(s0)
	li	a4,6
	lla	a2,.LC10
	mv	a1,a5
	ld	a0,-88(s0)
	call	fdt_setprop@plt
	j	.L30
.L41:
	.loc 3 227 9
	nop
	j	.L30
.L42:
	.loc 3 238 9
	nop
.L30:
	.loc 3 202 24
	lw	a5,-24(s0)
	addiw	a5,a5,1
	sw	a5,-24(s0)
	.loc 3 204 12
	j	.L38
.L40:
	.loc 3 211 7
	nop
	.loc 3 245 1
	nop
	ld	ra,88(sp)
	.cfi_restore 1
	ld	s0,80(sp)
	.cfi_restore 8
	.cfi_def_cfa 2, 96
	addi	sp,sp,96
	.cfi_def_cfa_offset 0
	jr	ra
	.cfi_endproc
.LFE46:
	.size	UpdateMacAddr, .-UpdateMacAddr
	.section	.rodata
	.align	3
.LC11:
	.string	"memory"
	.align	3
.LC12:
	.string	"memory@0x%lx"
	.align	3
.LC13:
	.string	"device_type"
	.align	3
.LC14:
	.string	"reg"
	.section	.text.UpdateMemoryNode,"ax",@progbits
	.align	1
	.type	UpdateMemoryNode, @function
UpdateMemoryNode:
.LFB47:
	.loc 3 252 1
	.cfi_startproc
	addi	sp,sp,-144
	.cfi_def_cfa_offset 144
	sd	ra,136(sp)
	sd	s0,128(sp)
	.cfi_offset 1, -8
	.cfi_offset 8, -16
	addi	s0,sp,144
	.cfi_def_cfa 8, 0
	sd	a0,-136(s0)
.L45:
	.loc 3 260 14
	lla	a2,.LC11
	li	a1,0
	ld	a0,-136(s0)
	call	fdt_subnode_offset@plt
	mv	a5,a0
	sw	a5,-20(s0)
	.loc 3 261 8
	lw	a5,-20(s0)
	sext.w	a5,a5
	blt	a5,zero,.L44
	.loc 3 262 7
	lw	a5,-20(s0)
	mv	a1,a5
	ld	a0,-136(s0)
	call	fdt_del_node@plt
.L44:
	.loc 3 264 19
	lw	a5,-20(s0)
	sext.w	a5,a5
	bge	a5,zero,.L45
	.loc 3 269 13
	li	a0,3
	call	GetFirstHob@plt
	mv	a5,a0
	.loc 3 269 11 discriminator 1
	sd	a5,-56(s0)
	.loc 3 271 9
	j	.L46
.L50:
	.loc 3 272 12
	ld	a5,-56(s0)
	.loc 3 272 31
	lw	a5,24(a5)
	.loc 3 272 8
	bne	a5,zero,.L47
	.loc 3 274 20
	ld	a5,-56(s0)
	.loc 3 274 15
	ld	a5,32(a5)
	sd	a5,-32(s0)
	.loc 3 275 20
	ld	a5,-56(s0)
	.loc 3 275 15
	ld	a5,40(a5)
	sd	a5,-40(s0)
	.loc 3 278 7
	addi	a5,s0,-120
	li	a2,0
	li	a1,64
	mv	a0,a5
	call	SetMem@plt
	.loc 3 279 7
	addi	a5,s0,-120
	ld	a3,-32(s0)
	lla	a2,.LC12
	li	a1,64
	mv	a0,a5
	call	AsciiSPrint@plt
	.loc 3 280 16
	addi	a5,s0,-120
	mv	a2,a5
	li	a1,0
	ld	a0,-136(s0)
	call	fdt_add_subnode@plt
	mv	a5,a0
	sw	a5,-20(s0)
	.loc 3 281 13
	lw	a5,-20(s0)
	li	a4,7
	lla	a3,.LC11
	lla	a2,.LC13
	mv	a1,a5
	ld	a0,-136(s0)
	call	fdt_setprop@plt
	mv	a5,a0
	sw	a5,-44(s0)
	.loc 3 282 10
	lw	a5,-44(s0)
	sext.w	a5,a5
	blt	a5,zero,.L51
	.loc 3 287 7
	addi	a5,s0,-120
	li	a2,0
	li	a1,64
	mv	a0,a5
	call	SetMem@plt
	.loc 3 288 16
	addi	a5,s0,-120
	ld	a3,-40(s0)
	ld	a2,-32(s0)
	mv	a1,a5
	ld	a0,-136(s0)
	call	FdtPackReg
	mv	a5,a0
	sw	a5,-48(s0)
	.loc 3 290 13
	lw	a4,-48(s0)
	addi	a3,s0,-120
	lw	a5,-20(s0)
	lla	a2,.LC14
	mv	a1,a5
	ld	a0,-136(s0)
	call	fdt_setprop@plt
	mv	a5,a0
	sw	a5,-44(s0)
	.loc 3 291 10
	lw	a5,-44(s0)
	sext.w	a5,a5
	blt	a5,zero,.L52
.L47:
	.loc 3 297 35
	addi	a5,s0,-56
	.loc 3 297 24
	ld	a5,0(a5)
	.loc 3 297 74
	addi	a4,s0,-56
	.loc 3 297 46
	ld	a4,0(a4)
	.loc 3 297 81
	lhu	a4,2(a4)
	.loc 3 297 42
	add	a5,a5,a4
	.loc 3 297 13
	sd	a5,-56(s0)
	.loc 3 298 38
	ld	a5,-56(s0)
	.loc 3 298 15
	mv	a1,a5
	li	a0,3
	call	GetNextHob@plt
	mv	a5,a0
	.loc 3 298 13 discriminator 1
	sd	a5,-56(s0)
.L46:
	.loc 3 271 14
	ld	a5,-56(s0)
	.loc 3 271 36
	beq	a5,zero,.L53
	.loc 3 271 72 discriminator 1
	addi	a5,s0,-56
	.loc 3 271 44 discriminator 1
	ld	a5,0(a5)
	.loc 3 271 79 discriminator 1
	lhu	a5,0(a5)
	.loc 3 271 36 discriminator 1
	sext.w	a4,a5
	li	a5,65536
	addi	a5,a5,-1
	bne	a4,a5,.L50
	.loc 3 300 1
	j	.L53
.L51:
	.loc 3 284 9
	nop
	j	.L53
.L52:
	.loc 3 293 9
	nop
.L53:
	.loc 3 300 1
	nop
	ld	ra,136(sp)
	.cfi_restore 1
	ld	s0,128(sp)
	.cfi_restore 8
	.cfi_def_cfa 2, 144
	addi	sp,sp,144
	.cfi_def_cfa_offset 0
	jr	ra
	.cfi_endproc
.LFE47:
	.size	UpdateMemoryNode, .-UpdateMemoryNode
	.section	.text.UpdatePlatformInfo,"ax",@progbits
	.align	1
	.type	UpdatePlatformInfo, @function
UpdatePlatformInfo:
.LFB48:
	.loc 3 307 1
	.cfi_startproc
	addi	sp,sp,-32
	.cfi_def_cfa_offset 32
	sd	ra,24(sp)
	sd	s0,16(sp)
	.cfi_offset 1, -8
	.cfi_offset 8, -16
	addi	s0,sp,32
	.cfi_def_cfa 8, 0
	sd	a0,-24(s0)
	.loc 3 308 1
	nop
	ld	ra,24(sp)
	.cfi_restore 1
	ld	s0,16(sp)
	.cfi_restore 8
	.cfi_def_cfa 2, 32
	addi	sp,sp,32
	.cfi_def_cfa_offset 0
	jr	ra
	.cfi_endproc
.LFE48:
	.size	UpdatePlatformInfo, .-UpdatePlatformInfo
	.section	.text.EFIFdtUpdate,"ax",@progbits
	.align	1
	.type	EFIFdtUpdate, @function
EFIFdtUpdate:
.LFB49:
	.loc 3 316 1
	.cfi_startproc
	addi	sp,sp,-48
	.cfi_def_cfa_offset 48
	sd	ra,40(sp)
	sd	s0,32(sp)
	.cfi_offset 1, -8
	.cfi_offset 8, -16
	addi	s0,sp,48
	.cfi_def_cfa 8, 0
	sd	a0,-40(s0)
	sd	a1,-48(s0)
	.loc 3 320 7
	ld	a5,-40(s0)
	sd	a5,-24(s0)
	.loc 3 321 11
	ld	a0,-24(s0)
	call	fdt_check_header@plt
	mv	a5,a0
	.loc 3 321 9 discriminator 1
	sd	a5,-32(s0)
	.loc 3 322 6
	ld	a5,-32(s0)
	beq	a5,zero,.L56
	.loc 3 324 12
	li	a5,-1
	slli	a5,a5,63
	addi	a5,a5,2
	j	.L57
.L56:
	.loc 3 327 3
	ld	a0,-24(s0)
	call	UpdateSerialNumber
	.loc 3 328 3
	ld	a0,-24(s0)
	call	UpdatePartNumber
	.loc 3 329 3
	ld	a0,-24(s0)
	call	UpdateMacAddr
	.loc 3 330 3
	ld	a0,-24(s0)
	call	UpdateMemoryNode
	.loc 3 331 3
	ld	a0,-24(s0)
	call	UpdatePlatformInfo
	.loc 3 333 70
	ld	a5,-24(s0)
	lw	a5,4(a5)
	.loc 3 333 23
	mv	a0,a5
	call	fdt32_to_cpu
	mv	a5,a0
	.loc 3 333 14 discriminator 1
	slli	a4,a5,32
	srli	a4,a4,32
	.loc 3 333 12 discriminator 1
	ld	a5,-48(s0)
	sd	a4,0(a5)
	.loc 3 334 10
	li	a5,0
.L57:
	.loc 3 335 1
	mv	a0,a5
	ld	ra,40(sp)
	.cfi_restore 1
	ld	s0,32(sp)
	.cfi_restore 8
	.cfi_def_cfa 2, 48
	addi	sp,sp,48
	.cfi_def_cfa_offset 0
	jr	ra
	.cfi_endproc
.LFE49:
	.size	EFIFdtUpdate, .-EFIFdtUpdate
	.section	.text.EfiDeviceTreeFixup,"ax",@progbits
	.align	1
	.type	EfiDeviceTreeFixup, @function
EfiDeviceTreeFixup:
.LFB50:
	.loc 3 345 1
	.cfi_startproc
	addi	sp,sp,-80
	.cfi_def_cfa_offset 80
	sd	ra,72(sp)
	sd	s0,64(sp)
	sd	s1,56(sp)
	.cfi_offset 1, -8
	.cfi_offset 8, -16
	.cfi_offset 9, -24
	addi	s0,sp,80
	.cfi_def_cfa 8, 0
	sd	a0,-56(s0)
	sd	a1,-64(s0)
	sd	a2,-72(s0)
	mv	a5,a3
	sw	a5,-76(s0)
	.loc 3 351 6
	ld	a5,-64(s0)
	beq	a5,zero,.L59
	.loc 3 351 12 discriminator 1
	ld	a5,-72(s0)
	beq	a5,zero,.L59
	.loc 3 351 27 discriminator 2
	lw	a5,-76(s0)
	sext.w	a4,a5
	li	a5,7
	bleu	a4,a5,.L60
.L59:
	.loc 3 352 12
	li	a5,-1
	slli	a5,a5,63
	addi	a5,a5,2
	j	.L61
.L60:
	.loc 3 355 7
	ld	a0,-64(s0)
	call	fdt_check_header@plt
	mv	a5,a0
	.loc 3 355 6 discriminator 1
	beq	a5,zero,.L62
	.loc 3 356 12
	li	a5,-1
	slli	a5,a5,63
	addi	a5,a5,2
	j	.L61
.L62:
	.loc 3 359 13
	lw	a5,-76(s0)
	andi	a5,a5,1
	sext.w	a5,a5
	.loc 3 359 6
	beq	a5,zero,.L63
	.loc 3 361 69
	ld	a5,-64(s0)
	lw	a5,12(a5)
	.loc 3 361 22
	mv	a0,a5
	call	fdt32_to_cpu
	mv	a5,a0
	mv	s1,a5
	.loc 3 362 69
	ld	a5,-64(s0)
	lw	a5,32(a5)
	.loc 3 362 22
	mv	a0,a5
	call	fdt32_to_cpu
	mv	a5,a0
	.loc 3 361 89
	addw	a5,s1,a5
	sext.w	a4,a5
	.loc 3 362 90
	li	a5,16384
	addw	a5,a4,a5
	sext.w	a5,a5
	.loc 3 361 18
	slli	a5,a5,32
	srli	a5,a5,32
	sd	a5,-40(s0)
	.loc 3 363 66
	ld	a5,-64(s0)
	lw	a5,4(a5)
	.loc 3 363 19
	mv	a0,a5
	call	fdt32_to_cpu
	mv	a5,a0
	.loc 3 363 15 discriminator 1
	slli	a5,a5,32
	srli	a5,a5,32
	sd	a5,-48(s0)
	.loc 3 364 8
	ld	a4,-40(s0)
	ld	a5,-48(s0)
	bgeu	a4,a5,.L64
	.loc 3 365 20
	ld	a5,-48(s0)
	sd	a5,-40(s0)
.L64:
	.loc 3 368 24
	ld	a5,-72(s0)
	ld	a5,0(a5)
	.loc 3 368 8
	ld	a4,-40(s0)
	bleu	a4,a5,.L65
	.loc 3 369 19
	ld	a5,-72(s0)
	ld	a4,-40(s0)
	sd	a4,0(a5)
	.loc 3 370 14
	li	a5,-1
	slli	a5,a5,63
	addi	a5,a5,5
	j	.L61
.L65:
	.loc 3 374 29
	ld	a5,-72(s0)
	ld	a5,0(a5)
	.loc 3 374 5
	sext.w	a5,a5
	mv	a1,a5
	ld	a0,-64(s0)
	call	fdt_set_totalsize
	.loc 3 375 9
	ld	a5,-64(s0)
	ld	a1,-72(s0)
	mv	a0,a5
	call	EFIFdtUpdate
	mv	a5,a0
	.loc 3 375 8 discriminator 1
	beq	a5,zero,.L66
	.loc 3 377 14
	li	a5,-1
	slli	a5,a5,63
	addi	a5,a5,2
	j	.L61
.L66:
	.loc 3 381 29
	ld	a5,-72(s0)
	ld	a5,0(a5)
	.loc 3 381 5
	sext.w	a5,a5
	mv	a1,a5
	ld	a0,-64(s0)
	call	fdt_set_totalsize
.L63:
	.loc 3 384 10
	li	a5,0
.L61:
	.loc 3 385 1
	mv	a0,a5
	ld	ra,72(sp)
	.cfi_restore 1
	ld	s0,64(sp)
	.cfi_restore 8
	.cfi_def_cfa 2, 80
	ld	s1,56(sp)
	.cfi_restore 9
	addi	sp,sp,80
	.cfi_def_cfa_offset 0
	jr	ra
	.cfi_endproc
.LFE50:
	.size	EfiDeviceTreeFixup, .-EfiDeviceTreeFixup
	.section	.data.rel.local.mFdtFixup,"aw"
	.align	3
	.type	mFdtFixup, @object
	.size	mFdtFixup, 16
mFdtFixup:
	.dword	65536
	.dword	EfiDeviceTreeFixup
	.section	.text.FdtFixupInitialize,"ax",@progbits
	.align	1
	.globl	FdtFixupInitialize
	.type	FdtFixupInitialize, @function
FdtFixupInitialize:
.LFB51:
	.loc 3 401 1
	.cfi_startproc
	addi	sp,sp,-48
	.cfi_def_cfa_offset 48
	sd	ra,40(sp)
	sd	s0,32(sp)
	.cfi_offset 1, -8
	.cfi_offset 8, -16
	addi	s0,sp,48
	.cfi_def_cfa 8, 0
	sd	a0,-40(s0)
	sd	a1,-48(s0)
	.loc 3 405 15
	la	a5,gBS
	ld	a5,0(a5)
	ld	a5,328(a5)
	.loc 3 405 12
	li	a3,0
	lla	a2,mFdtFixup
	la	a1,gEfiFdtFixupProtocolGuid
	lla	a0,mHandle
	jalr	a5
.LVL3:
	sd	a0,-24(s0)
	.loc 3 414 15
	la	a5,gBS
	ld	a5,0(a5)
	ld	a5,320(a5)
	.loc 3 414 12
	lla	a2,mPlatformInfoProtocol
	li	a1,0
	la	a0,gSpacemitPlatformInfoProtocolGuid
	jalr	a5
.LVL4:
	sd	a0,-24(s0)
	.loc 3 421 10
	ld	a5,-24(s0)
	.loc 3 422 1
	mv	a0,a5
	ld	ra,40(sp)
	.cfi_restore 1
	ld	s0,32(sp)
	.cfi_restore 8
	.cfi_def_cfa 2, 48
	addi	sp,sp,48
	.cfi_def_cfa_offset 0
	jr	ra
	.cfi_endproc
.LFE51:
	.size	FdtFixupInitialize, .-FdtFixupInitialize
	.section	.rodata
	.align	3
.LC0:
	.dword	6148914691236517205
	.align	3
.LC1:
	.dword	8202884508482404352
	.text
.Letext0:
	.file 4 "/home/kapoagaeming/Downloads/spacemit-image-builder/components/edk2/MdePkg/Include/RiscV64/ProcessorBind.h"
	.file 5 "/home/kapoagaeming/Downloads/spacemit-image-builder/components/edk2/MdePkg/Include/Base.h"
	.file 6 "/home/kapoagaeming/Downloads/spacemit-image-builder/components/edk2/MdePkg/Include/Uefi/UefiBaseType.h"
	.file 7 "/home/kapoagaeming/Downloads/spacemit-image-builder/components/edk2/MdePkg/Include/Uefi/UefiMultiPhase.h"
	.file 8 "/home/kapoagaeming/Downloads/spacemit-image-builder/components/edk2/MdePkg/Include/Protocol/DevicePath.h"
	.file 9 "/home/kapoagaeming/Downloads/spacemit-image-builder/components/edk2/MdePkg/Include/Protocol/SimpleTextIn.h"
	.file 10 "/home/kapoagaeming/Downloads/spacemit-image-builder/components/edk2/MdePkg/Include/Protocol/SimpleTextOut.h"
	.file 11 "/home/kapoagaeming/Downloads/spacemit-image-builder/components/edk2/MdePkg/Include/Uefi/UefiSpec.h"
	.file 12 "/home/kapoagaeming/Downloads/spacemit-image-builder/components/edk2/MdePkg/Include/Pi/PiBootMode.h"
	.file 13 "/home/kapoagaeming/Downloads/spacemit-image-builder/components/edk2/MdePkg/Include/Pi/PiHob.h"
	.file 14 "/home/kapoagaeming/Downloads/spacemit-image-builder/components/Build/Milk-V-Jupiter/RELEASE_GCC5/RISCV64/Silicon/Spacemit/Drivers/FdtFixupDxe/FdtFixupDxe/DEBUG/AutoGen.h"
	.file 15 "/home/kapoagaeming/Downloads/spacemit-image-builder/components/edk2/EmbeddedPkg/Include/fdt.h"
	.file 16 "/home/kapoagaeming/Downloads/spacemit-image-builder/components/edk2-platforms/Silicon/Spacemit/Include/Protocol/PlatformInfo.h"
	.file 17 "/home/kapoagaeming/Downloads/spacemit-image-builder/components/edk2-platforms/Silicon/Spacemit/Drivers/FdtFixupDxe/FdtFixupDxe.h"
	.file 18 "/home/kapoagaeming/Downloads/spacemit-image-builder/components/edk2/MdePkg/Include/Library/HobLib.h"
	.file 19 "/home/kapoagaeming/Downloads/spacemit-image-builder/components/edk2/MdePkg/Include/Library/PrintLib.h"
	.file 20 "/home/kapoagaeming/Downloads/spacemit-image-builder/components/edk2/MdePkg/Include/Library/BaseLib.h"
	.file 21 "/home/kapoagaeming/Downloads/spacemit-image-builder/components/edk2/MdePkg/Include/Library/BaseMemoryLib.h"
	.file 22 "/home/kapoagaeming/Downloads/spacemit-image-builder/components/edk2/MdePkg/Include/Library/UefiBootServicesTableLib.h"
	.file 23 "/home/kapoagaeming/Downloads/spacemit-image-builder/components/edk2/MdePkg/Include/Library/TimerLib.h"
	.section	.note.GNU-stack,"",@progbits
