	.file	"FileExplorer.c"
	.option pic
	.option norelax
	.attribute arch, "rv64i2p1_m2p0_a2p1_f2p2_d2p2_c2p0_zicsr2p0_zifencei2p0_zmmul1p0_zaamo1p0_zalrsc1p0_zca1p0_zcd1p0"
	.attribute unaligned_access, 0
	.attribute stack_align, 16
	.text
.Ltext0:
	.cfi_sections	.debug_frame
	.file 0 "/home/kapoagaeming/spacemit-image-builder/components/Build/Milk-V-Jupiter/RELEASE_GCC5/RISCV64/MdeModulePkg/Library/FileExplorerLib/FileExplorerLib" "/home/kapoagaeming/spacemit-image-builder/components/edk2/MdeModulePkg/Library/FileExplorerLib/FileExplorer.c"
	.globl	FileExplorerGuid
	.section	.data.FileExplorerGuid,"aw"
	.align	3
	.type	FileExplorerGuid, @object
	.size	FileExplorerGuid, 16
FileExplorerGuid:
	.word	-27912810
	.half	-6465
	.half	16806
	.base64	"g3bHK3GYdNA="
	.globl	mFsOptionMenu
	.section	.data.mFsOptionMenu,"aw"
	.align	3
	.type	mFsOptionMenu, @object
	.size	mFsOptionMenu, 40
mFsOptionMenu:
	.dword	1970169197
	.dword	0
	.zero	8
	.dword	0
	.byte	0
	.zero	7
	.globl	gFileExplorerPrivate
	.section	.data.rel.local.gFileExplorerPrivate,"aw"
	.align	3
	.type	gFileExplorerPrivate, @object
	.size	gFileExplorerPrivate, 88
gFileExplorerPrivate:
	.dword	1801676134
	.dword	0
	.dword	0
	.dword	LibExtractConfig
	.dword	LibRouteConfig
	.dword	LibCallback
	.dword	0
	.dword	mFsOptionMenu
	.dword	0
	.zero	16
	.globl	gHiiVendorDevicePath
	.section	.bss.gHiiVendorDevicePath,"aw",@nobits
	.align	3
	.type	gHiiVendorDevicePath, @object
	.size	gHiiVendorDevicePath, 8
gHiiVendorDevicePath:
	.zero	8
	.globl	FeHiiVendorDevicePath
	.section	.data.FeHiiVendorDevicePath,"aw"
	.align	3
	.type	FeHiiVendorDevicePath, @object
	.size	FeHiiVendorDevicePath, 24
FeHiiVendorDevicePath:
	.byte	1
	.byte	4
	.string	"\024"
	.word	0
	.half	0
	.half	0
	.base64	"AAAAAAAAAAA="
	.byte	127
	.byte	-1
	.string	"\004"
	.globl	mLibStartOpCodeHandle
	.section	.bss.mLibStartOpCodeHandle,"aw",@nobits
	.align	3
	.type	mLibStartOpCodeHandle, @object
	.size	mLibStartOpCodeHandle, 8
mLibStartOpCodeHandle:
	.zero	8
	.globl	mLibEndOpCodeHandle
	.section	.bss.mLibEndOpCodeHandle,"aw",@nobits
	.align	3
	.type	mLibEndOpCodeHandle, @object
	.size	mLibEndOpCodeHandle, 8
mLibEndOpCodeHandle:
	.zero	8
	.globl	mLibStartLabel
	.section	.bss.mLibStartLabel,"aw",@nobits
	.align	3
	.type	mLibStartLabel, @object
	.size	mLibStartLabel, 8
mLibStartLabel:
	.zero	8
	.globl	mLibEndLabel
	.section	.bss.mLibEndLabel,"aw",@nobits
	.align	3
	.type	mLibEndLabel, @object
	.size	mLibEndLabel, 8
mLibEndLabel:
	.zero	8
	.globl	mQuestionIdUpdate
	.section	.bss.mQuestionIdUpdate,"aw",@nobits
	.align	1
	.type	mQuestionIdUpdate, @object
	.size	mQuestionIdUpdate, 2
mQuestionIdUpdate:
	.zero	2
	.globl	mNewFileName
	.section	.bss.mNewFileName,"aw",@nobits
	.align	3
	.type	mNewFileName, @object
	.size	mNewFileName, 40
mNewFileName:
	.zero	40
	.globl	mNewFolderName
	.section	.bss.mNewFolderName,"aw",@nobits
	.align	3
	.type	mNewFolderName, @object
	.size	mNewFolderName, 40
mNewFolderName:
	.zero	40
	.globl	mNewFileQuestionId
	.section	.data.mNewFileQuestionId,"aw"
	.align	3
	.type	mNewFileQuestionId, @object
	.size	mNewFileQuestionId, 8
mNewFileQuestionId:
	.dword	20480
	.globl	mNewFolderQuestionId
	.section	.data.mNewFolderQuestionId,"aw"
	.align	3
	.type	mNewFolderQuestionId, @object
	.size	mNewFolderQuestionId, 8
mNewFolderQuestionId:
	.dword	24576
	.section	.text.LibExtractConfig,"ax",@progbits
	.align	1
	.globl	LibExtractConfig
	.type	LibExtractConfig, @function
LibExtractConfig:
.LFB0:
	.file 1 "/home/kapoagaeming/spacemit-image-builder/components/edk2/MdeModulePkg/Library/FileExplorerLib/FileExplorer.c"
	.loc 1 117 1
	.cfi_startproc
	addi	sp,sp,-48
	.cfi_def_cfa_offset 48
	sd	ra,40(sp)
	sd	s0,32(sp)
	.cfi_offset 1, -8
	.cfi_offset 8, -16
	addi	s0,sp,48
	.cfi_def_cfa 8, 0
	sd	a0,-24(s0)
	sd	a1,-32(s0)
	sd	a2,-40(s0)
	sd	a3,-48(s0)
	.loc 1 118 6
	ld	a5,-40(s0)
	beq	a5,zero,.L2
	.loc 1 118 34 discriminator 1
	ld	a5,-48(s0)
	bne	a5,zero,.L3
.L2:
	.loc 1 119 12
	li	a5,-1
	slli	a5,a5,63
	addi	a5,a5,2
	j	.L4
.L3:
	.loc 1 122 13
	ld	a5,-40(s0)
	ld	a4,-32(s0)
	sd	a4,0(a5)
	.loc 1 123 10
	li	a5,-1
	slli	a5,a5,63
	addi	a5,a5,14
.L4:
	.loc 1 124 1
	mv	a0,a5
	ld	ra,40(sp)
	.cfi_restore 1
	ld	s0,32(sp)
	.cfi_restore 8
	.cfi_def_cfa 2, 48
	addi	sp,sp,48
	.cfi_def_cfa_offset 0
	jr	ra
	.cfi_endproc
.LFE0:
	.size	LibExtractConfig, .-LibExtractConfig
	.section	.text.LibRouteConfig,"ax",@progbits
	.align	1
	.globl	LibRouteConfig
	.type	LibRouteConfig, @function
LibRouteConfig:
.LFB1:
	.loc 1 148 1
	.cfi_startproc
	addi	sp,sp,-48
	.cfi_def_cfa_offset 48
	sd	ra,40(sp)
	sd	s0,32(sp)
	.cfi_offset 1, -8
	.cfi_offset 8, -16
	addi	s0,sp,48
	.cfi_def_cfa 8, 0
	sd	a0,-24(s0)
	sd	a1,-32(s0)
	sd	a2,-40(s0)
	.loc 1 149 6
	ld	a5,-32(s0)
	beq	a5,zero,.L6
	.loc 1 149 39 discriminator 1
	ld	a5,-40(s0)
	bne	a5,zero,.L7
.L6:
	.loc 1 150 12
	li	a5,-1
	slli	a5,a5,63
	addi	a5,a5,2
	j	.L8
.L7:
	.loc 1 153 13
	ld	a5,-40(s0)
	ld	a4,-32(s0)
	sd	a4,0(a5)
	.loc 1 154 10
	li	a5,-1
	slli	a5,a5,63
	addi	a5,a5,14
.L8:
	.loc 1 155 1
	mv	a0,a5
	ld	ra,40(sp)
	.cfi_restore 1
	ld	s0,32(sp)
	.cfi_restore 8
	.cfi_def_cfa 2, 48
	addi	sp,sp,48
	.cfi_def_cfa_offset 0
	jr	ra
	.cfi_endproc
.LFE1:
	.size	LibRouteConfig, .-LibRouteConfig
	.section	.text.LibCallback,"ax",@progbits
	.align	1
	.globl	LibCallback
	.type	LibCallback, @function
LibCallback:
.LFB2:
	.loc 1 187 1
	.cfi_startproc
	addi	sp,sp,-96
	.cfi_def_cfa_offset 96
	sd	ra,88(sp)
	sd	s0,80(sp)
	.cfi_offset 1, -8
	.cfi_offset 8, -16
	addi	s0,sp,96
	.cfi_def_cfa 8, 0
	sd	a0,-56(s0)
	sd	a1,-64(s0)
	sd	a4,-80(s0)
	sd	a5,-88(s0)
	mv	a5,a2
	sh	a5,-66(s0)
	mv	a5,a3
	sb	a5,-67(s0)
	.loc 1 193 12
	li	a5,1
	sb	a5,-17(s0)
	.loc 1 194 15
	sd	zero,-32(s0)
	.loc 1 195 17
	sd	zero,-40(s0)
	.loc 1 197 6
	ld	a5,-64(s0)
	beq	a5,zero,.L10
	.loc 1 197 21 discriminator 1
	ld	a4,-64(s0)
	li	a5,1
	beq	a4,a5,.L10
	.loc 1 201 12
	li	a5,-1
	slli	a5,a5,63
	addi	a5,a5,3
	j	.L11
.L10:
	.loc 1 204 6
	ld	a4,-64(s0)
	li	a5,1
	bne	a4,a5,.L12
	.loc 1 205 8
	ld	a5,-80(s0)
	beq	a5,zero,.L13
	.loc 1 205 33 discriminator 1
	ld	a5,-88(s0)
	bne	a5,zero,.L14
.L13:
	.loc 1 206 14
	li	a5,-1
	slli	a5,a5,63
	addi	a5,a5,2
	j	.L11
.L14:
	.loc 1 209 8
	lhu	a5,-66(s0)
	sext.w	a4,a5
	li	a5,8192
	addi	a5,a5,2
	bne	a4,a5,.L15
	.loc 1 210 22
	ld	a5,-88(s0)
	li	a4,3
	sd	a4,0(a5)
	.loc 1 211 12
	li	a1,40
	lla	a0,mNewFileName
	call	IsZeroBuffer@plt
	mv	a5,a0
	.loc 1 211 10 discriminator 1
	bne	a5,zero,.L15
	.loc 1 212 18
	li	a1,1
	lla	a0,mNewFileName
	call	LibCreateNewFile
	sd	a0,-48(s0)
	.loc 1 213 9
	li	a1,40
	lla	a0,mNewFileName
	call	ZeroMem@plt
.L15:
	.loc 1 217 8
	lhu	a5,-66(s0)
	sext.w	a4,a5
	li	a5,8192
	addi	a5,a5,3
	bne	a4,a5,.L16
	.loc 1 218 7
	li	a1,40
	lla	a0,mNewFileName
	call	ZeroMem@plt
	.loc 1 219 22
	ld	a5,-88(s0)
	li	a4,3
	sd	a4,0(a5)
.L16:
	.loc 1 222 8
	lhu	a5,-66(s0)
	sext.w	a4,a5
	li	a5,12288
	addi	a5,a5,2
	bne	a4,a5,.L17
	.loc 1 223 22
	ld	a5,-88(s0)
	li	a4,3
	sd	a4,0(a5)
	.loc 1 224 12
	li	a1,40
	lla	a0,mNewFolderName
	call	IsZeroBuffer@plt
	mv	a5,a0
	.loc 1 224 10 discriminator 1
	bne	a5,zero,.L17
	.loc 1 225 18
	li	a1,0
	lla	a0,mNewFolderName
	call	LibCreateNewFile
	sd	a0,-48(s0)
	.loc 1 226 9
	li	a1,40
	lla	a0,mNewFolderName
	call	ZeroMem@plt
.L17:
	.loc 1 230 8
	lhu	a5,-66(s0)
	sext.w	a4,a5
	li	a5,12288
	addi	a5,a5,3
	bne	a4,a5,.L18
	.loc 1 231 7
	li	a1,40
	lla	a0,mNewFolderName
	call	ZeroMem@plt
	.loc 1 232 22
	ld	a5,-88(s0)
	li	a4,3
	sd	a4,0(a5)
.L18:
	.loc 1 235 8
	lhu	a5,-66(s0)
	sext.w	a4,a5
	li	a5,8192
	addi	a5,a5,1
	bne	a4,a5,.L19
	.loc 1 236 21
	lla	a5,gFileExplorerPrivate
	ld	a3,8(a5)
	ld	a5,-80(s0)
	lbu	a4,0(a5)
	lbu	a5,1(a5)
	slli	a5,a5,8
	or	a5,a5,a4
	slli	a5,a5,48
	srli	a5,a5,48
	li	a2,0
	mv	a1,a5
	mv	a0,a3
	call	HiiGetString@plt
	sd	a0,-32(s0)
	.loc 1 237 10
	ld	a5,-32(s0)
	beq	a5,zero,.L20
	.loc 1 238 9
	ld	a2,-32(s0)
	li	a1,20
	lla	a0,mNewFileName
	call	StrCpyS@plt
	.loc 1 239 9
	ld	a0,-32(s0)
	call	FreePool@plt
	.loc 1 240 21
	sd	zero,-32(s0)
	j	.L19
.L20:
	.loc 1 242 16
	li	a5,-1
	slli	a5,a5,63
	addi	a5,a5,2
	j	.L11
.L19:
	.loc 1 246 8
	lhu	a5,-66(s0)
	sext.w	a4,a5
	li	a5,12288
	addi	a5,a5,1
	bne	a4,a5,.L21
	.loc 1 247 23
	lla	a5,gFileExplorerPrivate
	ld	a3,8(a5)
	ld	a5,-80(s0)
	lbu	a4,0(a5)
	lbu	a5,1(a5)
	slli	a5,a5,8
	or	a5,a5,a4
	slli	a5,a5,48
	srli	a5,a5,48
	li	a2,0
	mv	a1,a5
	mv	a0,a3
	call	HiiGetString@plt
	sd	a0,-40(s0)
	.loc 1 248 10
	ld	a5,-40(s0)
	beq	a5,zero,.L22
	.loc 1 249 9
	ld	a2,-40(s0)
	li	a1,20
	lla	a0,mNewFolderName
	call	StrCpyS@plt
	.loc 1 250 9
	ld	a0,-40(s0)
	call	FreePool@plt
	.loc 1 251 23
	sd	zero,-40(s0)
	j	.L21
.L22:
	.loc 1 253 16
	li	a5,-1
	slli	a5,a5,63
	addi	a5,a5,2
	j	.L11
.L21:
	.loc 1 257 20
	lh	a5,-66(s0)
	.loc 1 257 8
	bge	a5,zero,.L23
	.loc 1 258 7
	lhu	a5,-66(s0)
	mv	a0,a5
	call	LibGetDevicePath
	.loc 1 263 31
	lla	a5,gFileExplorerPrivate
	ld	a5,72(a5)
	.loc 1 263 10
	beq	a5,zero,.L24
	.loc 1 264 40
	lla	a5,gFileExplorerPrivate
	ld	a5,72(a5)
	.loc 1 264 20
	lla	a4,gFileExplorerPrivate
	ld	a4,80(a4)
	mv	a0,a4
	jalr	a5
.LVL0:
	mv	a5,a0
	sb	a5,-17(s0)
.L24:
	.loc 1 267 10
	lbu	a5,-17(s0)
	andi	a5,a5,0xff
	beq	a5,zero,.L23
	.loc 1 268 24
	ld	a5,-88(s0)
	li	a4,3
	sd	a4,0(a5)
	j	.L23
.L12:
	.loc 1 271 13
	ld	a5,-64(s0)
	bne	a5,zero,.L23
	.loc 1 272 8
	ld	a5,-80(s0)
	bne	a5,zero,.L25
	.loc 1 273 14
	li	a5,-1
	slli	a5,a5,63
	addi	a5,a5,2
	j	.L11
.L25:
	.loc 1 276 20
	lh	a5,-66(s0)
	.loc 1 276 8
	bge	a5,zero,.L23
	.loc 1 277 7
	lhu	a5,-66(s0)
	mv	a0,a5
	call	LibGetDevicePath
	.loc 1 278 16
	lhu	a5,-66(s0)
	mv	a0,a5
	call	LibUpdateFileExplorer
	sd	a0,-48(s0)
	.loc 1 279 38
	ld	a5,-48(s0)
	.loc 1 279 10
	bge	a5,zero,.L23
	.loc 1 280 16
	ld	a5,-48(s0)
	j	.L11
.L23:
	.loc 1 285 10
	li	a5,0
.L11:
	.loc 1 286 1
	mv	a0,a5
	ld	ra,88(sp)
	.cfi_restore 1
	ld	s0,80(sp)
	.cfi_restore 8
	.cfi_def_cfa 2, 96
	addi	sp,sp,96
	.cfi_def_cfa_offset 0
	jr	ra
	.cfi_endproc
.LFE2:
	.size	LibCallback, .-LibCallback
	.section	.text.LibCreateMenuEntry,"ax",@progbits
	.align	1
	.globl	LibCreateMenuEntry
	.type	LibCreateMenuEntry, @function
LibCreateMenuEntry:
.LFB3:
	.loc 1 299 1
	.cfi_startproc
	addi	sp,sp,-32
	.cfi_def_cfa_offset 32
	sd	ra,24(sp)
	sd	s0,16(sp)
	.cfi_offset 1, -8
	.cfi_offset 8, -16
	addi	s0,sp,32
	.cfi_def_cfa 8, 0
	.loc 1 305 15
	li	a0,56
	call	AllocateZeroPool@plt
	sd	a0,-24(s0)
	.loc 1 306 6
	ld	a5,-24(s0)
	bne	a5,zero,.L27
	.loc 1 307 12
	li	a5,0
	j	.L28
.L27:
	.loc 1 310 32
	li	a0,40
	call	AllocateZeroPool@plt
	mv	a4,a0
	.loc 1 310 30 discriminator 1
	ld	a5,-24(s0)
	sd	a4,48(a5)
	.loc 1 311 16
	ld	a5,-24(s0)
	ld	a5,48(a5)
	.loc 1 311 6
	bne	a5,zero,.L29
	.loc 1 312 5
	ld	a0,-24(s0)
	call	FreePool@plt
	.loc 1 313 12
	li	a5,0
	j	.L28
.L29:
	.loc 1 316 24
	ld	a5,-24(s0)
	li	a4,1920233472
	addi	a4,a4,-411
	sd	a4,0(a5)
	.loc 1 317 10
	ld	a5,-24(s0)
.L28:
	.loc 1 318 1
	mv	a0,a5
	ld	ra,24(sp)
	.cfi_restore 1
	ld	s0,16(sp)
	.cfi_restore 8
	.cfi_def_cfa 2, 32
	addi	sp,sp,32
	.cfi_def_cfa_offset 0
	jr	ra
	.cfi_endproc
.LFE3:
	.size	LibCreateMenuEntry, .-LibCreateMenuEntry
	.section	.text.LibGetMenuEntry,"ax",@progbits
	.align	1
	.globl	LibGetMenuEntry
	.type	LibGetMenuEntry, @function
LibGetMenuEntry:
.LFB4:
	.loc 1 337 1
	.cfi_startproc
	addi	sp,sp,-64
	.cfi_def_cfa_offset 64
	sd	ra,56(sp)
	sd	s0,48(sp)
	.cfi_offset 1, -8
	.cfi_offset 8, -16
	addi	s0,sp,64
	.cfi_def_cfa 8, 0
	sd	a0,-56(s0)
	sd	a1,-64(s0)
	.loc 1 344 8
	ld	a5,-56(s0)
	ld	a5,8(a5)
	sd	a5,-40(s0)
	.loc 1 345 14
	sd	zero,-32(s0)
	.loc 1 345 3
	j	.L31
.L32:
	.loc 1 346 10
	ld	a5,-40(s0)
	ld	a5,0(a5)
	sd	a5,-40(s0)
	.loc 1 345 44 discriminator 3
	ld	a5,-32(s0)
	addi	a5,a5,1
	sd	a5,-32(s0)
.L31:
	.loc 1 345 25 discriminator 1
	ld	a4,-32(s0)
	ld	a5,-64(s0)
	bltu	a4,a5,.L32
	.loc 1 349 20
	ld	a5,-40(s0)
	addi	a5,a5,-8
	.loc 1 349 112
	ld	a4,0(a5)
	.loc 1 349 197
	li	a5,1920233472
	addi	a5,a5,-411
	bne	a4,a5,.L33
	.loc 1 349 16 discriminator 1
	ld	a5,-40(s0)
	addi	a5,a5,-8
	sd	a5,-24(s0)
	j	.L34
.L33:
	.loc 1 349 16 is_stmt 0 discriminator 2
	sd	zero,-24(s0)
.L34:
	.loc 1 351 10 is_stmt 1
	ld	a5,-24(s0)
	.loc 1 352 1
	mv	a0,a5
	ld	ra,56(sp)
	.cfi_restore 1
	ld	s0,48(sp)
	.cfi_restore 8
	.cfi_def_cfa 2, 64
	addi	sp,sp,64
	.cfi_def_cfa_offset 0
	jr	ra
	.cfi_endproc
.LFE4:
	.size	LibGetMenuEntry, .-LibGetMenuEntry
	.section	.text.LibDestroyMenuEntry,"ax",@progbits
	.align	1
	.globl	LibDestroyMenuEntry
	.type	LibDestroyMenuEntry, @function
LibDestroyMenuEntry:
.LFB5:
	.loc 1 364 1
	.cfi_startproc
	addi	sp,sp,-48
	.cfi_def_cfa_offset 48
	sd	ra,40(sp)
	sd	s0,32(sp)
	.cfi_offset 1, -8
	.cfi_offset 8, -16
	addi	s0,sp,48
	.cfi_def_cfa 8, 0
	sd	a0,-40(s0)
	.loc 1 367 15
	ld	a5,-40(s0)
	ld	a5,48(a5)
	sd	a5,-24(s0)
	.loc 1 369 19
	ld	a5,-24(s0)
	lbu	a5,32(a5)
	.loc 1 369 6
	bne	a5,zero,.L37
	.loc 1 370 20
	ld	a5,-24(s0)
	ld	a5,8(a5)
	.loc 1 370 8
	beq	a5,zero,.L38
	.loc 1 371 28
	ld	a5,-24(s0)
	ld	a5,8(a5)
	.loc 1 371 7
	mv	a0,a5
	call	FreePool@plt
	j	.L38
.L37:
	.loc 1 374 20
	ld	a5,-24(s0)
	ld	a5,16(a5)
	.loc 1 374 8
	beq	a5,zero,.L38
	.loc 1 375 18
	ld	a5,-24(s0)
	ld	a5,16(a5)
	.loc 1 375 30
	ld	a5,16(a5)
	.loc 1 375 50
	ld	a4,-24(s0)
	ld	a4,16(a4)
	.loc 1 375 7
	mv	a0,a4
	jalr	a5
.LVL1:
.L38:
	.loc 1 379 18
	ld	a5,-24(s0)
	ld	a5,24(a5)
	.loc 1 379 6
	beq	a5,zero,.L39
	.loc 1 380 26
	ld	a5,-24(s0)
	ld	a5,24(a5)
	.loc 1 380 5
	mv	a0,a5
	call	FreePool@plt
.L39:
	.loc 1 383 3
	ld	a0,-24(s0)
	call	FreePool@plt
	.loc 1 385 16
	ld	a5,-40(s0)
	ld	a5,24(a5)
	.loc 1 385 6
	beq	a5,zero,.L40
	.loc 1 386 24
	ld	a5,-40(s0)
	ld	a5,24(a5)
	.loc 1 386 5
	mv	a0,a5
	call	FreePool@plt
.L40:
	.loc 1 389 16
	ld	a5,-40(s0)
	ld	a5,32(a5)
	.loc 1 389 6
	beq	a5,zero,.L41
	.loc 1 390 24
	ld	a5,-40(s0)
	ld	a5,32(a5)
	.loc 1 390 5
	mv	a0,a5
	call	FreePool@plt
.L41:
	.loc 1 393 3
	ld	a0,-40(s0)
	call	FreePool@plt
	.loc 1 394 1
	nop
	ld	ra,40(sp)
	.cfi_restore 1
	ld	s0,32(sp)
	.cfi_restore 8
	.cfi_def_cfa 2, 48
	addi	sp,sp,48
	.cfi_def_cfa_offset 0
	jr	ra
	.cfi_endproc
.LFE5:
	.size	LibDestroyMenuEntry, .-LibDestroyMenuEntry
	.section	.text.LibFreeMenu,"ax",@progbits
	.align	1
	.globl	LibFreeMenu
	.type	LibFreeMenu, @function
LibFreeMenu:
.LFB6:
	.loc 1 405 1
	.cfi_startproc
	addi	sp,sp,-48
	.cfi_def_cfa_offset 48
	sd	ra,40(sp)
	sd	s0,32(sp)
	.cfi_offset 1, -8
	.cfi_offset 8, -16
	addi	s0,sp,48
	.cfi_def_cfa 8, 0
	sd	a0,-40(s0)
	.loc 1 408 9
	j	.L43
.L46:
	.loc 1 409 69
	ld	a5,-40(s0)
	ld	a5,8(a5)
	.loc 1 409 19
	addi	a5,a5,-8
	.loc 1 409 133
	ld	a4,0(a5)
	.loc 1 409 218
	li	a5,1920233472
	addi	a5,a5,-411
	bne	a4,a5,.L44
	.loc 1 409 271 discriminator 1
	ld	a5,-40(s0)
	ld	a5,8(a5)
	.loc 1 409 15 discriminator 1
	addi	a5,a5,-8
	sd	a5,-24(s0)
	j	.L45
.L44:
	.loc 1 409 15 is_stmt 0 discriminator 2
	sd	zero,-24(s0)
.L45:
	.loc 1 415 22 is_stmt 1
	ld	a5,-24(s0)
	addi	a5,a5,8
	.loc 1 415 5
	mv	a0,a5
	call	RemoveEntryList@plt
	.loc 1 416 5
	ld	a0,-24(s0)
	call	LibDestroyMenuEntry
.L43:
	.loc 1 408 24
	ld	a5,-40(s0)
	addi	a5,a5,8
	.loc 1 408 11
	mv	a0,a5
	call	IsListEmpty@plt
	mv	a5,a0
	.loc 1 408 10 discriminator 1
	beq	a5,zero,.L46
	.loc 1 419 24
	ld	a5,-40(s0)
	sd	zero,24(a5)
	.loc 1 420 1
	nop
	ld	ra,40(sp)
	.cfi_restore 1
	ld	s0,32(sp)
	.cfi_restore 8
	.cfi_def_cfa 2, 48
	addi	sp,sp,48
	.cfi_def_cfa_offset 0
	jr	ra
	.cfi_endproc
.LFE6:
	.size	LibFreeMenu, .-LibFreeMenu
	.section	.text.LibOpenRoot,"ax",@progbits
	.align	1
	.globl	LibOpenRoot
	.type	LibOpenRoot, @function
LibOpenRoot:
.LFB7:
	.loc 1 435 1
	.cfi_startproc
	addi	sp,sp,-64
	.cfi_def_cfa_offset 64
	sd	ra,56(sp)
	sd	s0,48(sp)
	.cfi_offset 1, -8
	.cfi_offset 8, -16
	addi	s0,sp,64
	.cfi_def_cfa 8, 0
	sd	a0,-56(s0)
	.loc 1 440 8
	sd	zero,-40(s0)
	.loc 1 445 15
	la	a5,gBS
	ld	a5,0(a5)
	ld	a5,152(a5)
	.loc 1 445 12
	addi	a4,s0,-32
	mv	a2,a4
	la	a1,gEfiSimpleFileSystemProtocolGuid
	ld	a0,-56(s0)
	jalr	a5
.LVL2:
	sd	a0,-24(s0)
	.loc 1 454 7
	ld	a5,-24(s0)
	.loc 1 454 6
	blt	a5,zero,.L48
	.loc 1 455 20
	ld	a5,-32(s0)
	ld	a5,8(a5)
	.loc 1 455 14
	ld	a4,-32(s0)
	addi	a3,s0,-40
	mv	a1,a3
	mv	a0,a4
	jalr	a5
.LVL3:
	sd	a0,-24(s0)
.L48:
	.loc 1 464 37
	ld	a5,-24(s0)
	.loc 1 464 78
	blt	a5,zero,.L49
	.loc 1 464 78 is_stmt 0 discriminator 1
	ld	a5,-40(s0)
	.loc 1 464 78
	j	.L51
.L49:
	.loc 1 464 78 discriminator 2
	li	a5,0
.L51:
	.loc 1 465 1 is_stmt 1
	mv	a0,a5
	ld	ra,56(sp)
	.cfi_restore 1
	ld	s0,48(sp)
	.cfi_restore 8
	.cfi_def_cfa 2, 64
	addi	sp,sp,64
	.cfi_def_cfa_offset 0
	jr	ra
	.cfi_endproc
.LFE7:
	.size	LibOpenRoot, .-LibOpenRoot
	.section	.text.LibDevicePathToStr,"ax",@progbits
	.align	1
	.globl	LibDevicePathToStr
	.type	LibDevicePathToStr, @function
LibDevicePathToStr:
.LFB8:
	.loc 1 479 1
	.cfi_startproc
	addi	sp,sp,-64
	.cfi_def_cfa_offset 64
	sd	ra,56(sp)
	sd	s0,48(sp)
	.cfi_offset 1, -8
	.cfi_offset 8, -16
	addi	s0,sp,64
	.cfi_def_cfa 8, 0
	sd	a0,-56(s0)
	.loc 1 484 6
	ld	a5,-56(s0)
	bne	a5,zero,.L53
	.loc 1 485 12
	li	a5,0
	j	.L55
.L53:
	.loc 1 488 15
	la	a5,gBS
	ld	a5,0(a5)
	ld	a5,320(a5)
	.loc 1 488 12
	addi	a4,s0,-40
	mv	a2,a4
	li	a1,0
	la	a0,gEfiDevicePathToTextProtocolGuid
	jalr	a5
.LVL4:
	sd	a0,-24(s0)
	.loc 1 494 25
	ld	a5,-40(s0)
	ld	a5,8(a5)
	.loc 1 494 12
	li	a2,1
	li	a1,0
	ld	a0,-56(s0)
	jalr	a5
.LVL5:
	sd	a0,-32(s0)
	.loc 1 501 10
	ld	a5,-32(s0)
.L55:
	.loc 1 502 1
	mv	a0,a5
	ld	ra,56(sp)
	.cfi_restore 1
	ld	s0,48(sp)
	.cfi_restore 8
	.cfi_def_cfa 2, 64
	addi	sp,sp,64
	.cfi_def_cfa_offset 0
	jr	ra
	.cfi_endproc
.LFE8:
	.size	LibDevicePathToStr, .-LibDevicePathToStr
	.section	.text.LibStrDuplicate,"ax",@progbits
	.align	1
	.globl	LibStrDuplicate
	.type	LibStrDuplicate, @function
LibStrDuplicate:
.LFB9:
	.loc 1 517 1
	.cfi_startproc
	addi	sp,sp,-48
	.cfi_def_cfa_offset 48
	sd	ra,40(sp)
	sd	s0,32(sp)
	.cfi_offset 1, -8
	.cfi_offset 8, -16
	addi	s0,sp,48
	.cfi_def_cfa 8, 0
	sd	a0,-40(s0)
	.loc 1 521 10
	ld	a0,-40(s0)
	call	StrSize@plt
	sd	a0,-24(s0)
	.loc 1 522 10
	ld	a0,-24(s0)
	call	AllocateZeroPool@plt
	sd	a0,-32(s0)
	.loc 1 524 6
	ld	a5,-32(s0)
	beq	a5,zero,.L57
	.loc 1 525 5
	ld	a2,-24(s0)
	ld	a1,-40(s0)
	ld	a0,-32(s0)
	call	CopyMem@plt
.L57:
	.loc 1 528 10
	ld	a5,-32(s0)
	.loc 1 529 1
	mv	a0,a5
	ld	ra,40(sp)
	.cfi_restore 1
	ld	s0,32(sp)
	.cfi_restore 8
	.cfi_def_cfa 2, 48
	addi	sp,sp,48
	.cfi_def_cfa_offset 0
	jr	ra
	.cfi_endproc
.LFE9:
	.size	LibStrDuplicate, .-LibStrDuplicate
	.section	.text.LibFileInfo,"ax",@progbits
	.align	1
	.globl	LibFileInfo
	.type	LibFileInfo, @function
LibFileInfo:
.LFB10:
	.loc 1 547 1
	.cfi_startproc
	addi	sp,sp,-64
	.cfi_def_cfa_offset 64
	sd	ra,56(sp)
	sd	s0,48(sp)
	.cfi_offset 1, -8
	.cfi_offset 8, -16
	addi	s0,sp,64
	.cfi_def_cfa 8, 0
	sd	a0,-56(s0)
	sd	a1,-64(s0)
	.loc 1 552 10
	sd	zero,-24(s0)
	.loc 1 553 14
	sd	zero,-40(s0)
	.loc 1 555 17
	ld	a5,-56(s0)
	ld	a5,64(a5)
	.loc 1 555 12
	addi	a4,s0,-40
	ld	a3,-24(s0)
	mv	a2,a4
	ld	a1,-64(s0)
	ld	a0,-56(s0)
	jalr	a5
.LVL6:
	sd	a0,-32(s0)
	.loc 1 561 6
	ld	a4,-32(s0)
	li	a5,-1
	slli	a5,a5,63
	addi	a5,a5,5
	bne	a4,a5,.L60
	.loc 1 562 14
	ld	a5,-40(s0)
	mv	a0,a5
	call	AllocatePool@plt
	sd	a0,-24(s0)
.L60:
	.loc 1 566 17
	ld	a5,-56(s0)
	ld	a5,64(a5)
	.loc 1 566 12
	addi	a4,s0,-40
	ld	a3,-24(s0)
	mv	a2,a4
	ld	a1,-64(s0)
	ld	a0,-56(s0)
	jalr	a5
.LVL7:
	sd	a0,-32(s0)
	.loc 1 573 10
	ld	a5,-24(s0)
	.loc 1 574 1
	mv	a0,a5
	ld	ra,56(sp)
	.cfi_restore 1
	ld	s0,48(sp)
	.cfi_restore 8
	.cfi_def_cfa 2, 64
	addi	sp,sp,64
	.cfi_def_cfa_offset 0
	jr	ra
	.cfi_endproc
.LFE10:
	.size	LibFileInfo, .-LibFileInfo
	.section	.text.LibGetTypeFromName,"ax",@progbits
	.align	1
	.globl	LibGetTypeFromName
	.type	LibGetTypeFromName, @function
LibGetTypeFromName:
.LFB11:
	.loc 1 590 1
	.cfi_startproc
	addi	sp,sp,-48
	.cfi_def_cfa_offset 48
	sd	ra,40(sp)
	sd	s0,32(sp)
	.cfi_offset 1, -8
	.cfi_offset 8, -16
	addi	s0,sp,48
	.cfi_def_cfa 8, 0
	sd	a0,-40(s0)
	.loc 1 593 11
	ld	a0,-40(s0)
	call	StrLen@plt
	mv	a5,a0
	.loc 1 593 9 discriminator 1
	addi	a5,a5,-1
	sd	a5,-24(s0)
	.loc 1 594 9
	j	.L63
.L65:
	.loc 1 595 10
	ld	a5,-24(s0)
	addi	a5,a5,-1
	sd	a5,-24(s0)
.L63:
	.loc 1 594 19
	ld	a5,-24(s0)
	slli	a5,a5,1
	ld	a4,-40(s0)
	add	a5,a4,a5
	lhu	a5,0(a5)
	.loc 1 594 36
	sext.w	a4,a5
	li	a5,46
	beq	a4,a5,.L64
	.loc 1 594 36 is_stmt 0 discriminator 1
	ld	a5,-24(s0)
	bne	a5,zero,.L65
.L64:
	.loc 1 598 36 is_stmt 1
	ld	a5,-24(s0)
	beq	a5,zero,.L66
	.loc 1 598 47 discriminator 1
	ld	a5,-24(s0)
	slli	a5,a5,1
	.loc 1 598 36 discriminator 1
	ld	a4,-40(s0)
	add	a5,a4,a5
	.loc 1 598 36 is_stmt 0
	j	.L68
.L66:
	.loc 1 598 36 discriminator 2
	li	a5,0
.L68:
	.loc 1 599 1 is_stmt 1
	mv	a0,a5
	ld	ra,40(sp)
	.cfi_restore 1
	ld	s0,32(sp)
	.cfi_restore 8
	.cfi_def_cfa 2, 48
	addi	sp,sp,48
	.cfi_def_cfa_offset 0
	jr	ra
	.cfi_endproc
.LFE11:
	.size	LibGetTypeFromName, .-LibGetTypeFromName
	.section	.text.LibToLowerString,"ax",@progbits
	.align	1
	.globl	LibToLowerString
	.type	LibToLowerString, @function
LibToLowerString:
.LFB12:
	.loc 1 612 1
	.cfi_startproc
	addi	sp,sp,-48
	.cfi_def_cfa_offset 48
	sd	ra,40(sp)
	sd	s0,32(sp)
	.cfi_offset 1, -8
	.cfi_offset 8, -16
	addi	s0,sp,48
	.cfi_def_cfa 8, 0
	sd	a0,-40(s0)
	.loc 1 615 15
	ld	a5,-40(s0)
	sd	a5,-24(s0)
	.loc 1 615 3
	j	.L70
.L72:
	.loc 1 616 10
	ld	a5,-24(s0)
	lhu	a5,0(a5)
	.loc 1 616 8
	sext.w	a4,a5
	li	a5,64
	bleu	a4,a5,.L71
	.loc 1 616 31 discriminator 1
	ld	a5,-24(s0)
	lhu	a5,0(a5)
	.loc 1 616 27 discriminator 1
	sext.w	a4,a5
	li	a5,90
	bgtu	a4,a5,.L71
	.loc 1 617 26
	ld	a5,-24(s0)
	lhu	a5,0(a5)
	.loc 1 617 17
	addiw	a5,a5,32
	slli	a4,a5,48
	srli	a4,a4,48
	.loc 1 617 15
	ld	a5,-24(s0)
	sh	a4,0(a5)
.L71:
	.loc 1 615 49 discriminator 2
	ld	a5,-24(s0)
	addi	a5,a5,2
	sd	a5,-24(s0)
.L70:
	.loc 1 615 25 discriminator 1
	ld	a5,-24(s0)
	lhu	a5,0(a5)
	.loc 1 615 33 discriminator 1
	bne	a5,zero,.L72
	.loc 1 620 1
	nop
	nop
	ld	ra,40(sp)
	.cfi_restore 1
	ld	s0,32(sp)
	.cfi_restore 8
	.cfi_def_cfa 2, 48
	addi	sp,sp,48
	.cfi_def_cfa_offset 0
	jr	ra
	.cfi_endproc
.LFE12:
	.size	LibToLowerString, .-LibToLowerString
	.section	.text.LibIsSupportedFileType,"ax",@progbits
	.align	1
	.globl	LibIsSupportedFileType
	.type	LibIsSupportedFileType, @function
LibIsSupportedFileType:
.LFB13:
	.loc 1 637 1
	.cfi_startproc
	addi	sp,sp,-64
	.cfi_def_cfa_offset 64
	sd	ra,56(sp)
	sd	s0,48(sp)
	.cfi_offset 1, -8
	.cfi_offset 8, -16
	addi	s0,sp,64
	.cfi_def_cfa 8, 0
	sd	a0,-56(s0)
	.loc 1 642 27
	lla	a5,gFileExplorerPrivate
	ld	a5,64(a5)
	.loc 1 642 6
	bne	a5,zero,.L74
	.loc 1 643 12
	li	a5,1
	j	.L75
.L74:
	.loc 1 646 19
	ld	a0,-56(s0)
	call	LibGetTypeFromName
	sd	a0,-24(s0)
	.loc 1 650 6
	ld	a5,-24(s0)
	bne	a5,zero,.L76
	.loc 1 651 12
	li	a5,1
	j	.L75
.L76:
	.loc 1 654 12
	ld	a0,-24(s0)
	call	StrSize@plt
	mv	a5,a0
	.loc 1 654 12 is_stmt 0 discriminator 1
	ld	a1,-24(s0)
	mv	a0,a5
	call	AllocateCopyPool@plt
	sd	a0,-32(s0)
	.loc 1 656 3 is_stmt 1
	ld	a0,-32(s0)
	call	LibToLowerString
	.loc 1 658 46
	lla	a5,gFileExplorerPrivate
	ld	a5,64(a5)
	.loc 1 658 18
	ld	a1,-32(s0)
	mv	a0,a5
	call	StrStr@plt
	mv	a5,a0
	.loc 1 658 101 discriminator 1
	snez	a5,a5
	andi	a5,a5,0xff
	.loc 1 658 15 discriminator 1
	sb	a5,-33(s0)
	.loc 1 660 3
	ld	a0,-32(s0)
	call	FreePool@plt
	.loc 1 661 10
	lbu	a5,-33(s0)
.L75:
	.loc 1 662 1
	mv	a0,a5
	ld	ra,56(sp)
	.cfi_restore 1
	ld	s0,48(sp)
	.cfi_restore 8
	.cfi_def_cfa 2, 64
	addi	sp,sp,64
	.cfi_def_cfa_offset 0
	jr	ra
	.cfi_endproc
.LFE13:
	.size	LibIsSupportedFileType, .-LibIsSupportedFileType
	.section	.rodata
	.align	3
.LC0:
	.string	"\\"
	.zero	2
	.section	.text.LibAppendFileName,"ax",@progbits
	.align	1
	.globl	LibAppendFileName
	.type	LibAppendFileName, @function
LibAppendFileName:
.LFB14:
	.loc 1 680 1
	.cfi_startproc
	addi	sp,sp,-96
	.cfi_def_cfa_offset 96
	sd	ra,88(sp)
	sd	s0,80(sp)
	.cfi_offset 1, -8
	.cfi_offset 8, -16
	addi	s0,sp,96
	.cfi_def_cfa 8, 0
	sd	a0,-88(s0)
	sd	a1,-96(s0)
	.loc 1 689 11
	ld	a0,-88(s0)
	call	StrSize@plt
	sd	a0,-40(s0)
	.loc 1 690 11
	ld	a0,-96(s0)
	call	StrSize@plt
	sd	a0,-48(s0)
	.loc 1 695 40
	ld	a5,-40(s0)
	not	a5,a5
	.loc 1 695 6
	ld	a4,-48(s0)
	bgtu	a4,a5,.L78
	.loc 1 695 94 discriminator 1
	ld	a5,-40(s0)
	not	a4,a5
	.loc 1 695 102 discriminator 1
	ld	a5,-48(s0)
	sub	a4,a4,a5
	.loc 1 695 58 discriminator 1
	li	a5,1
	bgtu	a4,a5,.L79
.L78:
	.loc 1 696 12
	li	a5,0
	j	.L80
.L79:
	.loc 1 699 19
	ld	a4,-40(s0)
	ld	a5,-48(s0)
	add	a5,a4,a5
	.loc 1 699 27
	addi	a5,a5,2
	.loc 1 699 10
	srli	a5,a5,1
	sd	a5,-56(s0)
	.loc 1 700 33
	ld	a4,-40(s0)
	ld	a5,-48(s0)
	add	a5,a4,a5
	.loc 1 700 41
	addi	a5,a5,2
	.loc 1 700 9
	mv	a0,a5
	call	AllocateZeroPool@plt
	sd	a0,-64(s0)
	.loc 1 703 36
	ld	a4,-40(s0)
	ld	a5,-48(s0)
	add	a5,a4,a5
	.loc 1 703 44
	addi	a5,a5,2
	.loc 1 703 12
	mv	a0,a5
	call	AllocateZeroPool@plt
	sd	a0,-72(s0)
	.loc 1 706 3
	ld	a2,-88(s0)
	ld	a1,-56(s0)
	ld	a0,-64(s0)
	call	StrCpyS@plt
	.loc 1 707 10
	ld	a5,-64(s0)
	lhu	a5,0(a5)
	.loc 1 707 6
	sext.w	a4,a5
	li	a5,92
	bne	a4,a5,.L81
	.loc 1 707 34 discriminator 1
	ld	a5,-64(s0)
	addi	a5,a5,2
	.loc 1 707 28 discriminator 1
	lhu	a5,0(a5)
	.loc 1 707 7 discriminator 1
	beq	a5,zero,.L82
.L81:
	.loc 1 708 5
	lla	a2,.LC0
	ld	a1,-56(s0)
	ld	a0,-64(s0)
	call	StrCatS@plt
.L82:
	.loc 1 711 3
	ld	a2,-96(s0)
	ld	a1,-56(s0)
	ld	a0,-64(s0)
	call	StrCatS@plt
	.loc 1 713 7
	ld	a5,-64(s0)
	sd	a5,-24(s0)
	.loc 1 714 13
	ld	a5,-64(s0)
	sd	a5,-32(s0)
	.loc 1 715 9
	j	.L83
.L87:
	.loc 1 716 10
	ld	a5,-24(s0)
	lhu	a5,0(a5)
	.loc 1 716 8
	sext.w	a4,a5
	li	a5,92
	bne	a4,a5,.L84
	.loc 1 716 34 discriminator 1
	ld	a5,-24(s0)
	addi	a5,a5,2
	.loc 1 716 28 discriminator 1
	lhu	a5,0(a5)
	.loc 1 716 24 discriminator 1
	sext.w	a4,a5
	li	a5,46
	bne	a4,a5,.L84
	.loc 1 716 57 discriminator 2
	ld	a5,-24(s0)
	addi	a5,a5,4
	.loc 1 716 51 discriminator 2
	lhu	a5,0(a5)
	.loc 1 716 47 discriminator 2
	sext.w	a4,a5
	li	a5,46
	bne	a4,a5,.L84
	.loc 1 716 80 discriminator 3
	ld	a5,-24(s0)
	addi	a5,a5,6
	.loc 1 716 74 discriminator 3
	lhu	a5,0(a5)
	.loc 1 716 70 discriminator 3
	sext.w	a4,a5
	li	a5,92
	bne	a4,a5,.L84
	.loc 1 727 36
	ld	a5,-24(s0)
	addi	a5,a5,6
	.loc 1 727 7
	mv	a2,a5
	ld	a1,-56(s0)
	ld	a0,-72(s0)
	call	StrCpyS@plt
	.loc 1 728 37
	ld	a4,-32(s0)
	.loc 1 728 56
	ld	a5,-64(s0)
	.loc 1 728 54
	sub	a5,a4,a5
	.loc 1 728 68
	srli	a5,a5,1
	.loc 1 728 34
	ld	a4,-56(s0)
	sub	a5,a4,a5
	.loc 1 728 7
	ld	a2,-72(s0)
	mv	a1,a5
	ld	a0,-32(s0)
	call	StrCpyS@plt
	.loc 1 729 11
	ld	a5,-32(s0)
	sd	a5,-24(s0)
	j	.L85
.L84:
	.loc 1 730 17
	ld	a5,-24(s0)
	lhu	a5,0(a5)
	.loc 1 730 15
	sext.w	a4,a5
	li	a5,92
	bne	a4,a5,.L86
	.loc 1 730 41 discriminator 1
	ld	a5,-24(s0)
	addi	a5,a5,2
	.loc 1 730 35 discriminator 1
	lhu	a5,0(a5)
	.loc 1 730 31 discriminator 1
	sext.w	a4,a5
	li	a5,46
	bne	a4,a5,.L86
	.loc 1 730 64 discriminator 2
	ld	a5,-24(s0)
	addi	a5,a5,4
	.loc 1 730 58 discriminator 2
	lhu	a5,0(a5)
	.loc 1 730 54 discriminator 2
	sext.w	a4,a5
	li	a5,92
	bne	a4,a5,.L86
	.loc 1 739 36
	ld	a5,-24(s0)
	addi	a5,a5,4
	.loc 1 739 7
	mv	a2,a5
	ld	a1,-56(s0)
	ld	a0,-72(s0)
	call	StrCpyS@plt
	.loc 1 740 31
	ld	a4,-24(s0)
	.loc 1 740 44
	ld	a5,-64(s0)
	.loc 1 740 42
	sub	a5,a4,a5
	.loc 1 740 56
	srli	a5,a5,1
	.loc 1 740 28
	ld	a4,-56(s0)
	sub	a5,a4,a5
	.loc 1 740 7
	ld	a2,-72(s0)
	mv	a1,a5
	ld	a0,-24(s0)
	call	StrCpyS@plt
	.loc 1 741 11
	ld	a5,-32(s0)
	sd	a5,-24(s0)
	j	.L85
.L86:
	.loc 1 742 16
	ld	a5,-24(s0)
	lhu	a5,0(a5)
	.loc 1 742 15
	sext.w	a4,a5
	li	a5,92
	bne	a4,a5,.L85
	.loc 1 743 17
	ld	a5,-24(s0)
	sd	a5,-32(s0)
.L85:
	.loc 1 746 8
	ld	a5,-24(s0)
	addi	a5,a5,2
	sd	a5,-24(s0)
.L83:
	.loc 1 715 10
	ld	a5,-24(s0)
	lhu	a5,0(a5)
	.loc 1 715 15
	bne	a5,zero,.L87
	.loc 1 749 3
	ld	a0,-72(s0)
	call	FreePool@plt
	.loc 1 751 10
	ld	a5,-64(s0)
.L80:
	.loc 1 752 1
	mv	a0,a5
	ld	ra,88(sp)
	.cfi_restore 1
	ld	s0,80(sp)
	.cfi_restore 8
	.cfi_def_cfa 2, 96
	addi	sp,sp,96
	.cfi_def_cfa_offset 0
	jr	ra
	.cfi_endproc
.LFE14:
	.size	LibAppendFileName, .-LibAppendFileName
	.section	.rodata
	.align	3
.LC1:
	.string	"N"
	.string	"O"
	.string	" "
	.string	"F"
	.string	"I"
	.string	"L"
	.string	"E"
	.string	" "
	.string	"S"
	.string	"Y"
	.string	"S"
	.string	"T"
	.string	"E"
	.string	"M"
	.string	" "
	.string	"I"
	.string	"N"
	.string	"F"
	.string	"O"
	.zero	2
	.align	3
.LC2:
	.string	"N"
	.string	"O"
	.string	" "
	.string	"V"
	.string	"O"
	.string	"L"
	.string	"U"
	.string	"M"
	.string	"E"
	.string	" "
	.string	"L"
	.string	"A"
	.string	"B"
	.string	"E"
	.string	"L"
	.zero	2
	.align	3
.LC3:
	.string	"%"
	.string	"s"
	.string	","
	.string	" "
	.string	"["
	.string	"%"
	.string	"s"
	.string	"]"
	.zero	2
	.section	.text.LibFindFileSystem,"ax",@progbits
	.align	1
	.globl	LibFindFileSystem
	.type	LibFindFileSystem, @function
LibFindFileSystem:
.LFB15:
	.loc 1 768 1
	.cfi_startproc
	addi	sp,sp,-96
	.cfi_def_cfa_offset 96
	sd	ra,88(sp)
	sd	s0,80(sp)
	.cfi_offset 1, -8
	.cfi_offset 8, -16
	addi	s0,sp,96
	.cfi_def_cfa 8, 0
	.loc 1 779 21
	sd	zero,-80(s0)
	.loc 1 780 16
	sd	zero,-40(s0)
	.loc 1 785 15
	la	a5,gBS
	ld	a5,0(a5)
	ld	a5,312(a5)
	.loc 1 785 12
	addi	a4,s0,-88
	addi	a3,s0,-80
	li	a2,0
	la	a1,gEfiSimpleFileSystemProtocolGuid
	li	a0,2
	jalr	a5
.LVL8:
	sd	a0,-48(s0)
	.loc 1 792 7
	ld	a5,-48(s0)
	.loc 1 792 6
	blt	a5,zero,.L89
	.loc 1 796 16
	sd	zero,-32(s0)
	.loc 1 796 5
	j	.L90
.L98:
	.loc 1 800 19
	call	LibCreateMenuEntry
	sd	a0,-56(s0)
	.loc 1 801 10
	ld	a5,-56(s0)
	bne	a5,zero,.L91
	.loc 1 802 9
	ld	a5,-88(s0)
	mv	a0,a5
	call	FreePool@plt
	.loc 1 803 16
	li	a5,-1
	slli	a5,a5,63
	addi	a5,a5,9
	j	.L100
.L91:
	.loc 1 806 19
	ld	a5,-56(s0)
	ld	a5,48(a5)
	sd	a5,-64(s0)
	.loc 1 807 49
	ld	a4,-88(s0)
	ld	a5,-32(s0)
	slli	a5,a5,3
	add	a5,a4,a5
	ld	a4,0(a5)
	.loc 1 807 33
	ld	a5,-64(s0)
	sd	a4,0(a5)
	.loc 1 808 33
	ld	a5,-64(s0)
	ld	a5,0(a5)
	mv	a0,a5
	call	LibOpenRoot
	mv	a4,a0
	.loc 1 808 31 discriminator 1
	ld	a5,-64(s0)
	sd	a4,16(a5)
	.loc 1 809 22
	ld	a5,-64(s0)
	ld	a5,16(a5)
	.loc 1 809 10
	bne	a5,zero,.L93
	.loc 1 810 9
	ld	a0,-56(s0)
	call	LibDestroyMenuEntry
	.loc 1 811 9
	j	.L94
.L93:
	.loc 1 814 31
	ld	a5,-64(s0)
	ld	a5,0(a5)
	mv	a0,a5
	call	DevicePathFromHandle@plt
	mv	a5,a0
	.loc 1 814 31 is_stmt 0 discriminator 1
	mv	a0,a5
	call	LibDevicePathToStr
	mv	a4,a0
	.loc 1 814 29 is_stmt 1 discriminator 2
	ld	a5,-56(s0)
	sd	a4,32(a5)
	.loc 1 815 31
	lla	a0,.LC0
	call	LibStrDuplicate
	mv	a4,a0
	.loc 1 815 29 discriminator 1
	ld	a5,-64(s0)
	sd	a4,24(a5)
	.loc 1 816 33
	ld	a5,-64(s0)
	ld	a4,0(a5)
	.loc 1 816 87
	ld	a5,-64(s0)
	ld	a5,24(a5)
	.loc 1 816 33
	mv	a1,a5
	mv	a0,a4
	call	FileDevicePath@plt
	mv	a4,a0
	.loc 1 816 31 discriminator 1
	ld	a5,-64(s0)
	sd	a4,8(a5)
	.loc 1 817 26
	ld	a5,-64(s0)
	li	a4,1
	sb	a4,33(a5)
	.loc 1 818 27
	ld	a5,-64(s0)
	li	a4,1
	sb	a4,32(a5)
	.loc 1 823 46
	ld	a5,-64(s0)
	ld	a5,16(a5)
	la	a1,gEfiFileSystemVolumeLabelInfoIdGuid
	mv	a0,a5
	call	LibFileInfo
	sd	a0,-72(s0)
	.loc 1 824 10
	ld	a5,-72(s0)
	bne	a5,zero,.L95
	.loc 1 825 21
	lla	a5,.LC1
	sd	a5,-24(s0)
	j	.L96
.L95:
	.loc 1 827 21
	ld	a5,-72(s0)
	sd	a5,-24(s0)
	.loc 1 828 13
	ld	a5,-24(s0)
	lhu	a5,0(a5)
	.loc 1 828 12
	bne	a5,zero,.L96
	.loc 1 829 23
	lla	a5,.LC2
	sd	a5,-24(s0)
.L96:
	.loc 1 833 34
	li	a0,480
	call	AllocateZeroPool@plt
	mv	a4,a0
	.loc 1 833 32 discriminator 1
	ld	a5,-56(s0)
	sd	a4,24(a5)
	.loc 1 836 18
	ld	a5,-56(s0)
	ld	a0,24(a5)
	.loc 1 835 7
	ld	a5,-56(s0)
	ld	a5,32(a5)
	mv	a4,a5
	ld	a3,-24(s0)
	lla	a2,.LC3
	li	a1,480
	call	UnicodeSPrint@plt
	.loc 1 842 39
	lla	a5,gFileExplorerPrivate
	ld	a4,8(a5)
	.loc 1 845 50
	ld	a5,-56(s0)
	ld	a5,24(a5)
	.loc 1 842 39
	li	a3,0
	mv	a2,a5
	li	a1,0
	mv	a0,a4
	call	HiiSetString@plt
	mv	a5,a0
	mv	a4,a5
	.loc 1 842 37 discriminator 1
	ld	a5,-56(s0)
	sh	a4,40(a5)
	.loc 1 849 10
	ld	a5,-72(s0)
	beq	a5,zero,.L97
	.loc 1 850 9
	ld	a0,-72(s0)
	call	FreePool@plt
.L97:
	.loc 1 853 19
	ld	a5,-40(s0)
	addi	a5,a5,1
	sd	a5,-40(s0)
	.loc 1 854 44
	lla	a5,gFileExplorerPrivate
	ld	a5,56(a5)
	.loc 1 854 7
	addi	a4,a5,8
	ld	a5,-56(s0)
	addi	a5,a5,8
	mv	a1,a5
	mv	a0,a4
	call	InsertTailList@plt
.L94:
	.loc 1 796 53 discriminator 2
	ld	a5,-32(s0)
	addi	a5,a5,1
	sd	a5,-32(s0)
.L90:
	.loc 1 796 27 discriminator 1
	ld	a5,-80(s0)
	ld	a4,-32(s0)
	bltu	a4,a5,.L98
.L89:
	.loc 1 858 25
	ld	a5,-80(s0)
	.loc 1 858 6
	beq	a5,zero,.L99
	.loc 1 859 5
	ld	a5,-88(s0)
	mv	a0,a5
	call	FreePool@plt
.L99:
	.loc 1 862 23
	lla	a5,gFileExplorerPrivate
	ld	a5,56(a5)
	.loc 1 862 49
	ld	a4,-40(s0)
	sd	a4,24(a5)
	.loc 1 864 10
	li	a5,0
.L100:
	.loc 1 865 1
	mv	a0,a5
	ld	ra,88(sp)
	.cfi_restore 1
	ld	s0,80(sp)
	.cfi_restore 8
	.cfi_def_cfa 2, 96
	addi	sp,sp,96
	.cfi_def_cfa_offset 0
	jr	ra
	.cfi_endproc
.LFE15:
	.size	LibFindFileSystem, .-LibFindFileSystem
	.section	.text.LibGetFileHandleFromMenu,"ax",@progbits
	.align	1
	.globl	LibGetFileHandleFromMenu
	.type	LibGetFileHandleFromMenu, @function
LibGetFileHandleFromMenu:
.LFB16:
	.loc 1 881 1
	.cfi_startproc
	addi	sp,sp,-64
	.cfi_def_cfa_offset 64
	sd	ra,56(sp)
	sd	s0,48(sp)
	.cfi_offset 1, -8
	.cfi_offset 8, -16
	addi	s0,sp,64
	.cfi_def_cfa 8, 0
	sd	a0,-56(s0)
	sd	a1,-64(s0)
	.loc 1 887 15
	ld	a5,-56(s0)
	ld	a5,48(a5)
	sd	a5,-24(s0)
	.loc 1 888 7
	ld	a5,-24(s0)
	ld	a5,16(a5)
	sd	a5,-32(s0)
	.loc 1 893 15
	ld	a5,-32(s0)
	ld	a5,8(a5)
	.loc 1 896 30
	ld	a4,-24(s0)
	ld	a2,24(a4)
	.loc 1 893 12
	addi	a1,s0,-48
	li	a4,0
	li	a3,1
	ld	a0,-32(s0)
	jalr	a5
.LVL9:
	sd	a0,-40(s0)
	.loc 1 900 34
	ld	a5,-40(s0)
	.loc 1 900 6
	bge	a5,zero,.L102
	.loc 1 901 12
	ld	a5,-40(s0)
	j	.L105
.L102:
	.loc 1 904 19
	ld	a5,-24(s0)
	lbu	a5,32(a5)
	.loc 1 904 6
	bne	a5,zero,.L104
	.loc 1 905 8
	ld	a5,-32(s0)
	ld	a5,16(a5)
	.loc 1 905 5
	ld	a0,-32(s0)
	jalr	a5
.LVL10:
.L104:
	.loc 1 908 18
	ld	a4,-48(s0)
	ld	a5,-64(s0)
	sd	a4,0(a5)
	.loc 1 910 10
	li	a5,0
.L105:
	.loc 1 911 1
	mv	a0,a5
	ld	ra,56(sp)
	.cfi_restore 1
	ld	s0,48(sp)
	.cfi_restore 8
	.cfi_def_cfa 2, 64
	addi	sp,sp,64
	.cfi_def_cfa_offset 0
	jr	ra
	.cfi_endproc
.LFE16:
	.size	LibGetFileHandleFromMenu, .-LibGetFileHandleFromMenu
	.section	.text.LibGetFileHandleFromDevicePath,"ax",@progbits
	.align	1
	.globl	LibGetFileHandleFromDevicePath
	.type	LibGetFileHandleFromDevicePath, @function
LibGetFileHandleFromDevicePath:
.LFB17:
	.loc 1 931 1
	.cfi_startproc
	addi	sp,sp,-112
	.cfi_def_cfa_offset 112
	sd	ra,104(sp)
	sd	s0,96(sp)
	.cfi_offset 1, -8
	.cfi_offset 8, -16
	addi	s0,sp,112
	.cfi_def_cfa 8, 0
	sd	a0,-88(s0)
	sd	a1,-96(s0)
	sd	a2,-104(s0)
	sd	a3,-112(s0)
	.loc 1 941 19
	ld	a5,-104(s0)
	sd	zero,0(a5)
	.loc 1 946 18
	ld	a5,-88(s0)
	sd	a5,-56(s0)
	.loc 1 947 15
	la	a5,gBS
	ld	a5,0(a5)
	ld	a5,184(a5)
	.loc 1 947 12
	addi	a3,s0,-64
	addi	a4,s0,-56
	mv	a2,a3
	mv	a1,a4
	la	a0,gEfiSimpleFileSystemProtocolGuid
	jalr	a5
.LVL11:
	sd	a0,-24(s0)
	.loc 1 948 34
	ld	a5,-24(s0)
	.loc 1 948 6
	bge	a5,zero,.L107
	.loc 1 949 12
	ld	a5,-24(s0)
	j	.L125
.L107:
	.loc 1 952 15
	la	a5,gBS
	ld	a5,0(a5)
	ld	a5,152(a5)
	.loc 1 952 12
	ld	a4,-64(s0)
	addi	a3,s0,-72
	mv	a2,a3
	la	a1,gEfiSimpleFileSystemProtocolGuid
	mv	a0,a4
	jalr	a5
.LVL12:
	sd	a0,-24(s0)
	.loc 1 953 34
	ld	a5,-24(s0)
	.loc 1 953 6
	bge	a5,zero,.L109
	.loc 1 954 12
	ld	a5,-24(s0)
	j	.L125
.L109:
	.loc 1 960 18
	ld	a5,-72(s0)
	ld	a5,8(a5)
	.loc 1 960 12
	ld	a4,-72(s0)
	addi	a3,s0,-80
	mv	a1,a3
	mv	a0,a4
	jalr	a5
.LVL13:
	sd	a0,-24(s0)
	.loc 1 961 34
	ld	a5,-24(s0)
	.loc 1 961 6
	bge	a5,zero,.L110
	.loc 1 962 12
	ld	a5,-24(s0)
	j	.L125
.L110:
	.loc 1 965 17
	ld	a4,-64(s0)
	ld	a5,-112(s0)
	sd	a4,0(a5)
	.loc 1 967 7
	ld	a5,-56(s0)
	mv	a0,a5
	call	IsDevicePathEnd@plt
	mv	a5,a0
	.loc 1 967 6 discriminator 1
	beq	a5,zero,.L111
	.loc 1 968 23
	lla	a0,.LC0
	call	StrSize@plt
	mv	a5,a0
	.loc 1 968 23 is_stmt 0 discriminator 1
	lla	a1,.LC0
	mv	a0,a5
	call	AllocateCopyPool@plt
	mv	a4,a0
	.loc 1 968 21 is_stmt 1 discriminator 2
	ld	a5,-104(s0)
	sd	a4,0(a5)
	.loc 1 969 20
	ld	a4,-80(s0)
	ld	a5,-96(s0)
	sd	a4,0(a5)
	.loc 1 970 12
	li	a5,0
	j	.L125
.L111:
	.loc 1 978 24
	ld	a5,-56(s0)
	mv	a0,a5
	call	DuplicateDevicePath@plt
	sd	a0,-32(s0)
	.loc 1 979 6
	ld	a5,-32(s0)
	bne	a5,zero,.L112
	.loc 1 984 12
	li	a5,-1
	slli	a5,a5,63
	addi	a5,a5,9
	sd	a5,-24(s0)
	.loc 1 985 5
	j	.L113
.L112:
	.loc 1 993 18
	ld	a5,-32(s0)
	sd	a5,-56(s0)
	.loc 1 994 9
	j	.L114
.L121:
	.loc 1 995 10
	ld	a5,-56(s0)
	mv	a0,a5
	call	DevicePathType@plt
	mv	a5,a0
	.loc 1 995 8 discriminator 1
	mv	a4,a5
	li	a5,4
	bne	a4,a5,.L115
	.loc 1 996 10
	ld	a5,-56(s0)
	mv	a0,a5
	call	DevicePathSubType@plt
	mv	a5,a0
	.loc 1 995 51 discriminator 2
	mv	a4,a5
	li	a5,4
	beq	a4,a5,.L116
.L115:
	.loc 1 998 14
	li	a5,-1
	slli	a5,a5,63
	addi	a5,a5,3
	sd	a5,-24(s0)
	.loc 1 999 7
	j	.L113
.L116:
	.loc 1 1002 16
	ld	a5,-80(s0)
	sd	a5,-40(s0)
	.loc 1 1003 16
	sd	zero,-80(s0)
	.loc 1 1005 24
	ld	a5,-40(s0)
	ld	a5,8(a5)
	.loc 1 1008 29
	ld	a4,-56(s0)
	.loc 1 1008 68
	addi	a2,a4,4
	.loc 1 1005 14
	addi	a1,s0,-80
	li	a4,0
	li	a3,1
	ld	a0,-40(s0)
	jalr	a5
.LVL14:
	sd	a0,-24(s0)
	.loc 1 1012 9
	ld	a5,-104(s0)
	ld	a5,0(a5)
	.loc 1 1012 8
	bne	a5,zero,.L117
	.loc 1 1013 53
	ld	a5,-56(s0)
	.loc 1 1013 92
	addi	a5,a5,4
	.loc 1 1013 25
	mv	a0,a5
	call	StrSize@plt
	mv	a4,a0
	.loc 1 1013 106 discriminator 1
	ld	a5,-56(s0)
	.loc 1 1013 145 discriminator 1
	addi	a5,a5,4
	.loc 1 1013 25 discriminator 1
	mv	a1,a5
	mv	a0,a4
	call	AllocateCopyPool@plt
	mv	a4,a0
	.loc 1 1013 23 discriminator 2
	ld	a5,-104(s0)
	sd	a4,0(a5)
	j	.L118
.L117:
	.loc 1 1015 18
	ld	a5,-104(s0)
	ld	a4,0(a5)
	.loc 1 1015 55
	ld	a5,-56(s0)
	.loc 1 1015 94
	addi	a5,a5,4
	.loc 1 1015 18
	mv	a1,a5
	mv	a0,a4
	call	LibAppendFileName
	sd	a0,-48(s0)
	.loc 1 1016 10
	ld	a5,-48(s0)
	bne	a5,zero,.L119
	.loc 1 1017 19
	ld	a5,-40(s0)
	ld	a5,16(a5)
	.loc 1 1017 9
	ld	a0,-40(s0)
	jalr	a5
.LVL15:
	.loc 1 1018 16
	li	a5,-1
	slli	a5,a5,63
	addi	a5,a5,9
	sd	a5,-24(s0)
	.loc 1 1019 9
	j	.L113
.L119:
	.loc 1 1022 7
	ld	a5,-104(s0)
	ld	a5,0(a5)
	mv	a0,a5
	call	FreePool@plt
	.loc 1 1023 23
	ld	a5,-104(s0)
	ld	a4,-48(s0)
	sd	a4,0(a5)
.L118:
	.loc 1 1029 15
	ld	a5,-40(s0)
	ld	a5,16(a5)
	.loc 1 1029 5
	ld	a0,-40(s0)
	jalr	a5
.LVL16:
	.loc 1 1031 22
	ld	a5,-56(s0)
	mv	a0,a5
	call	NextDevicePathNode@plt
	mv	a5,a0
	.loc 1 1031 20 discriminator 1
	sd	a5,-56(s0)
.L114:
	.loc 1 994 10
	ld	a5,-24(s0)
	.loc 1 994 64
	blt	a5,zero,.L120
	.loc 1 994 68 discriminator 1
	ld	a5,-56(s0)
	mv	a0,a5
	call	IsDevicePathEnd@plt
	mv	a5,a0
	.loc 1 994 64 discriminator 2
	beq	a5,zero,.L121
.L120:
	.loc 1 1034 34
	ld	a5,-24(s0)
	.loc 1 1034 6
	blt	a5,zero,.L126
	.loc 1 1038 18
	ld	a4,-80(s0)
	ld	a5,-96(s0)
	sd	a4,0(a5)
	.loc 1 1040 10
	sd	zero,-24(s0)
	j	.L113
.L126:
	.loc 1 1035 5
	nop
.L113:
	.loc 1 1043 6
	ld	a5,-32(s0)
	beq	a5,zero,.L123
	.loc 1 1044 5
	ld	a0,-32(s0)
	call	FreePool@plt
.L123:
	.loc 1 1047 19
	ld	a5,-80(s0)
	.loc 1 1047 6
	beq	a5,zero,.L124
	.loc 1 1047 67 discriminator 1
	ld	a5,-24(s0)
	.loc 1 1047 36 discriminator 1
	bge	a5,zero,.L124
	.loc 1 1048 15
	ld	a5,-80(s0)
	ld	a5,16(a5)
	.loc 1 1048 5
	ld	a4,-80(s0)
	mv	a0,a4
	jalr	a5
.LVL17:
.L124:
	.loc 1 1051 10
	ld	a5,-24(s0)
.L125:
	.loc 1 1052 1
	mv	a0,a5
	ld	ra,104(sp)
	.cfi_restore 1
	ld	s0,96(sp)
	.cfi_restore 8
	.cfi_def_cfa 2, 112
	addi	sp,sp,112
	.cfi_def_cfa_offset 0
	jr	ra
	.cfi_endproc
.LFE17:
	.size	LibGetFileHandleFromDevicePath, .-LibGetFileHandleFromDevicePath
	.section	.text.LibCreateNewFile,"ax",@progbits
	.align	1
	.globl	LibCreateNewFile
	.type	LibCreateNewFile, @function
LibCreateNewFile:
.LFB18:
	.loc 1 1067 1
	.cfi_startproc
	addi	sp,sp,-80
	.cfi_def_cfa_offset 80
	sd	ra,72(sp)
	sd	s0,64(sp)
	.cfi_offset 1, -8
	.cfi_offset 8, -16
	addi	s0,sp,80
	.cfi_def_cfa 8, 0
	sd	a0,-72(s0)
	mv	a5,a1
	sb	a5,-73(s0)
	.loc 1 1075 13
	sd	zero,-48(s0)
	.loc 1 1076 16
	sd	zero,-24(s0)
	.loc 1 1078 25
	lla	a5,gFileExplorerPrivate
	ld	a5,80(a5)
	addi	a3,s0,-56
	addi	a2,s0,-64
	addi	a4,s0,-40
	mv	a1,a4
	mv	a0,a5
	call	LibGetFileHandleFromDevicePath
	mv	a5,a0
	.loc 1 1078 6 discriminator 1
	bge	a5,zero,.L128
	.loc 1 1079 12
	li	a5,-1
	slli	a5,a5,63
	addi	a5,a5,7
	j	.L133
.L128:
	.loc 1 1082 18
	ld	a5,-64(s0)
	ld	a1,-72(s0)
	mv	a0,a5
	call	LibAppendFileName
	sd	a0,-24(s0)
	.loc 1 1083 6
	ld	a5,-24(s0)
	bne	a5,zero,.L130
	.loc 1 1084 12
	li	a5,-1
	slli	a5,a5,63
	addi	a5,a5,9
	j	.L133
.L130:
	.loc 1 1087 6
	lbu	a5,-73(s0)
	andi	a5,a5,0xff
	beq	a5,zero,.L131
	.loc 1 1088 24
	ld	a5,-40(s0)
	ld	a5,8(a5)
	.loc 1 1088 14
	ld	a0,-40(s0)
	addi	a1,s0,-48
	li	a4,0
	li	a3,-1
	slli	a3,a3,63
	addi	a3,a3,3
	ld	a2,-24(s0)
	jalr	a5
.LVL18:
	sd	a0,-32(s0)
	.loc 1 1095 36
	ld	a5,-32(s0)
	.loc 1 1095 8
	bge	a5,zero,.L132
	.loc 1 1096 17
	ld	a5,-40(s0)
	ld	a5,16(a5)
	.loc 1 1096 7
	ld	a4,-40(s0)
	mv	a0,a4
	jalr	a5
.LVL19:
	.loc 1 1097 14
	ld	a5,-32(s0)
	j	.L133
.L131:
	.loc 1 1100 24
	ld	a5,-40(s0)
	ld	a5,8(a5)
	.loc 1 1100 14
	ld	a0,-40(s0)
	addi	a1,s0,-48
	li	a4,16
	li	a3,-1
	slli	a3,a3,63
	addi	a3,a3,3
	ld	a2,-24(s0)
	jalr	a5
.LVL20:
	sd	a0,-32(s0)
	.loc 1 1107 36
	ld	a5,-32(s0)
	.loc 1 1107 8
	bge	a5,zero,.L132
	.loc 1 1108 17
	ld	a5,-40(s0)
	ld	a5,16(a5)
	.loc 1 1108 7
	ld	a4,-40(s0)
	mv	a0,a4
	jalr	a5
.LVL21:
	.loc 1 1109 14
	ld	a5,-32(s0)
	j	.L133
.L132:
	.loc 1 1113 13
	ld	a5,-40(s0)
	ld	a5,16(a5)
	.loc 1 1113 3
	ld	a4,-40(s0)
	mv	a0,a4
	jalr	a5
.LVL22:
	.loc 1 1118 40
	ld	a5,-56(s0)
	ld	a1,-24(s0)
	mv	a0,a5
	call	FileDevicePath@plt
	mv	a4,a0
	.loc 1 1118 38 discriminator 1
	lla	a5,gFileExplorerPrivate
	sd	a4,80(a5)
	.loc 1 1120 10
	li	a5,0
.L133:
	.loc 1 1121 1
	mv	a0,a5
	ld	ra,72(sp)
	.cfi_restore 1
	ld	s0,64(sp)
	.cfi_restore 8
	.cfi_def_cfa 2, 80
	addi	sp,sp,80
	.cfi_def_cfa_offset 0
	jr	ra
	.cfi_endproc
.LFE18:
	.size	LibCreateNewFile, .-LibCreateNewFile
	.section	.rodata
	.align	3
.LC4:
	.string	"<"
	.string	"%"
	.string	"s"
	.string	">"
	.zero	2
	.section	.text.LibFindFiles,"ax",@progbits
	.align	1
	.globl	LibFindFiles
	.type	LibFindFiles, @function
LibFindFiles:
.LFB19:
	.loc 1 1143 1
	.cfi_startproc
	addi	sp,sp,-112
	.cfi_def_cfa_offset 112
	sd	ra,104(sp)
	sd	s0,96(sp)
	.cfi_offset 1, -8
	.cfi_offset 8, -16
	addi	s0,sp,112
	.cfi_def_cfa 8, 0
	sd	a0,-88(s0)
	sd	a1,-96(s0)
	sd	a2,-104(s0)
	.loc 1 1153 16
	sd	zero,-40(s0)
	.loc 1 1155 17
	li	a5,1112
	sd	a5,-48(s0)
	.loc 1 1156 13
	ld	a0,-48(s0)
	call	AllocateZeroPool@plt
	sd	a0,-56(s0)
	.loc 1 1157 6
	ld	a5,-56(s0)
	bne	a5,zero,.L135
	.loc 1 1158 12
	li	a5,-1
	slli	a5,a5,63
	addi	a5,a5,9
	j	.L153
.L135:
	.loc 1 1166 10
	sd	zero,-32(s0)
	.loc 1 1167 13
	li	a5,1
	sd	a5,-24(s0)
	.loc 1 1167 3
	j	.L137
.L152:
	.loc 1 1168 15
	ld	a5,-88(s0)
	ld	a5,56(a5)
	.loc 1 1168 5
	li	a1,0
	ld	a0,-88(s0)
	jalr	a5
.LVL23:
.L151:
	.loc 1 1170 18
	ld	a5,-48(s0)
	sd	a5,-80(s0)
	.loc 1 1171 26
	ld	a5,-88(s0)
	ld	a5,32(a5)
	.loc 1 1171 16
	addi	a4,s0,-80
	ld	a2,-56(s0)
	mv	a1,a4
	ld	a0,-88(s0)
	jalr	a5
.LVL24:
	sd	a0,-32(s0)
	.loc 1 1172 38
	ld	a5,-32(s0)
	.loc 1 1172 10
	blt	a5,zero,.L138
	.loc 1 1172 79 discriminator 1
	ld	a5,-80(s0)
	.loc 1 1172 64 discriminator 1
	bne	a5,zero,.L139
.L138:
	.loc 1 1173 16
	sd	zero,-32(s0)
	.loc 1 1174 9
	j	.L154
.L139:
	.loc 1 1177 21
	ld	a5,-56(s0)
	ld	a5,72(a5)
	.loc 1 1177 33
	andi	a5,a5,16
	.loc 1 1177 10
	beq	a5,zero,.L141
	.loc 1 1177 64 discriminator 1
	ld	a4,-24(s0)
	li	a5,2
	beq	a4,a5,.L155
.L141:
	.loc 1 1178 21
	ld	a5,-56(s0)
	ld	a5,72(a5)
	.loc 1 1178 33
	andi	a5,a5,16
	.loc 1 1177 80 discriminator 4
	bne	a5,zero,.L143
	.loc 1 1178 64
	ld	a4,-24(s0)
	li	a5,1
	beq	a4,a5,.L155
.L143:
	.loc 1 1188 22
	ld	a5,-56(s0)
	ld	a5,72(a5)
	.loc 1 1188 34
	andi	a5,a5,16
	.loc 1 1188 10
	bne	a5,zero,.L145
	.loc 1 1188 99 discriminator 1
	ld	a5,-56(s0)
	addi	a5,a5,80
	.loc 1 1188 68 discriminator 1
	mv	a0,a5
	call	LibIsSupportedFileType
	mv	a5,a0
	.loc 1 1188 11 discriminator 2
	beq	a5,zero,.L156
.L145:
	.loc 1 1195 22
	call	LibCreateMenuEntry
	sd	a0,-64(s0)
	.loc 1 1196 10
	ld	a5,-64(s0)
	bne	a5,zero,.L146
	.loc 1 1197 16
	li	a5,-1
	slli	a5,a5,63
	addi	a5,a5,9
	sd	a5,-32(s0)
	.loc 1 1198 9
	j	.L147
.L146:
	.loc 1 1201 22
	ld	a5,-64(s0)
	ld	a5,48(a5)
	sd	a5,-72(s0)
	.loc 1 1202 36
	ld	a5,-72(s0)
	ld	a4,-104(s0)
	sd	a4,0(a5)
	.loc 1 1203 70
	ld	a5,-56(s0)
	addi	a5,a5,80
	.loc 1 1203 34
	mv	a1,a5
	ld	a0,-96(s0)
	call	LibAppendFileName
	mv	a4,a0
	.loc 1 1203 32 discriminator 1
	ld	a5,-72(s0)
	sd	a4,24(a5)
	.loc 1 1204 25
	ld	a5,-72(s0)
	ld	a5,24(a5)
	.loc 1 1204 10
	bne	a5,zero,.L148
	.loc 1 1205 9
	ld	a0,-64(s0)
	call	LibDestroyMenuEntry
	.loc 1 1206 16
	li	a5,-1
	slli	a5,a5,63
	addi	a5,a5,9
	sd	a5,-32(s0)
	.loc 1 1207 9
	j	.L147
.L148:
	.loc 1 1210 34
	ld	a5,-72(s0)
	ld	a4,-88(s0)
	sd	a4,16(a5)
	.loc 1 1211 36
	ld	a5,-72(s0)
	ld	a4,0(a5)
	.loc 1 1211 96
	ld	a5,-72(s0)
	ld	a5,24(a5)
	.loc 1 1211 36
	mv	a1,a5
	mv	a0,a4
	call	FileDevicePath@plt
	mv	a4,a0
	.loc 1 1211 34 discriminator 1
	ld	a5,-72(s0)
	sd	a4,8(a5)
	.loc 1 1212 32
	ld	a5,-64(s0)
	sd	zero,32(a5)
	.loc 1 1213 49
	ld	a5,-56(s0)
	ld	a5,72(a5)
	.loc 1 1213 61
	andi	a5,a5,16
	.loc 1 1213 31
	srli	a5,a5,4
	andi	a5,a5,1
	andi	a5,a5,0xff
	mv	a4,a5
	.loc 1 1213 29
	ld	a5,-72(s0)
	sb	a4,33(a5)
	.loc 1 1215 25
	ld	a5,-72(s0)
	lbu	a5,33(a5)
	.loc 1 1215 10
	beq	a5,zero,.L149
	.loc 1 1216 37
	ld	a5,-56(s0)
	addi	a5,a5,80
	.loc 1 1216 22
	mv	a0,a5
	call	StrLen@plt
	mv	a5,a0
	.loc 1 1216 53 discriminator 1
	addi	a5,a5,3
	slli	a5,a5,1
	.loc 1 1216 20 discriminator 1
	sd	a5,-80(s0)
	.loc 1 1217 39
	ld	a5,-80(s0)
	mv	a0,a5
	call	AllocateZeroPool@plt
	mv	a4,a0
	.loc 1 1217 37 discriminator 1
	ld	a5,-64(s0)
	sd	a4,24(a5)
	.loc 1 1219 23
	ld	a5,-64(s0)
	ld	a4,24(a5)
	.loc 1 1218 9
	ld	a1,-80(s0)
	.loc 1 1222 18
	ld	a5,-56(s0)
	addi	a5,a5,80
	.loc 1 1218 9
	mv	a3,a5
	lla	a2,.LC4
	mv	a0,a4
	call	UnicodeSPrint@plt
	j	.L150
.L149:
	.loc 1 1225 63
	ld	a5,-56(s0)
	addi	a5,a5,80
	.loc 1 1225 39
	mv	a0,a5
	call	LibStrDuplicate
	mv	a4,a0
	.loc 1 1225 37 discriminator 1
	ld	a5,-64(s0)
	sd	a4,24(a5)
.L150:
	.loc 1 1228 42
	lla	a5,gFileExplorerPrivate
	ld	a4,8(a5)
	.loc 1 1231 56
	ld	a5,-64(s0)
	ld	a5,24(a5)
	.loc 1 1228 42
	li	a3,0
	mv	a2,a5
	li	a1,0
	mv	a0,a4
	call	HiiSetString@plt
	mv	a5,a0
	mv	a4,a5
	.loc 1 1228 40 discriminator 1
	ld	a5,-64(s0)
	sh	a4,40(a5)
	.loc 1 1235 30
	ld	a5,-72(s0)
	sb	zero,32(a5)
	.loc 1 1237 19
	ld	a5,-40(s0)
	addi	a5,a5,1
	sd	a5,-40(s0)
	.loc 1 1238 44
	lla	a5,gFileExplorerPrivate
	ld	a5,56(a5)
	.loc 1 1238 7
	addi	a4,a5,8
	ld	a5,-64(s0)
	addi	a5,a5,8
	mv	a1,a5
	mv	a0,a4
	call	InsertTailList@plt
	j	.L151
.L155:
	.loc 1 1185 9
	nop
	j	.L151
.L156:
	.loc 1 1192 9
	nop
	.loc 1 1170 18
	j	.L151
.L154:
	.loc 1 1167 33 discriminator 2
	ld	a5,-24(s0)
	addi	a5,a5,1
	sd	a5,-24(s0)
.L137:
	.loc 1 1167 23 discriminator 1
	ld	a4,-24(s0)
	li	a5,2
	bleu	a4,a5,.L152
	.loc 1 1242 23
	lla	a5,gFileExplorerPrivate
	ld	a5,56(a5)
	.loc 1 1242 49
	ld	a4,-40(s0)
	sd	a4,24(a5)
.L147:
	.loc 1 1246 3
	ld	a0,-56(s0)
	call	FreePool@plt
	.loc 1 1248 10
	ld	a5,-32(s0)
.L153:
	.loc 1 1249 1
	mv	a0,a5
	ld	ra,104(sp)
	.cfi_restore 1
	ld	s0,96(sp)
	.cfi_restore 8
	.cfi_def_cfa 2, 112
	addi	sp,sp,112
	.cfi_def_cfa_offset 0
	jr	ra
	.cfi_endproc
.LFE19:
	.size	LibFindFiles, .-LibFindFiles
	.section	.text.LibRefreshUpdateData,"ax",@progbits
	.align	1
	.globl	LibRefreshUpdateData
	.type	LibRefreshUpdateData, @function
LibRefreshUpdateData:
.LFB20:
	.loc 1 1259 1
	.cfi_startproc
	addi	sp,sp,-16
	.cfi_def_cfa_offset 16
	sd	ra,8(sp)
	sd	s0,0(sp)
	.cfi_offset 1, -8
	.cfi_offset 8, -16
	addi	s0,sp,16
	.cfi_def_cfa 8, 0
	.loc 1 1263 29
	lla	a5,mLibStartOpCodeHandle
	ld	a5,0(a5)
	.loc 1 1263 6
	beq	a5,zero,.L158
	.loc 1 1264 5
	lla	a5,mLibStartOpCodeHandle
	ld	a5,0(a5)
	mv	a0,a5
	call	HiiFreeOpCodeHandle@plt
.L158:
	.loc 1 1267 27
	lla	a5,mLibEndOpCodeHandle
	ld	a5,0(a5)
	.loc 1 1267 6
	beq	a5,zero,.L159
	.loc 1 1268 5
	lla	a5,mLibEndOpCodeHandle
	ld	a5,0(a5)
	mv	a0,a5
	call	HiiFreeOpCodeHandle@plt
.L159:
	.loc 1 1274 27
	call	HiiAllocateOpCodeHandle@plt
	mv	a4,a0
	.loc 1 1274 25 discriminator 1
	lla	a5,mLibStartOpCodeHandle
	sd	a4,0(a5)
	.loc 1 1275 25
	call	HiiAllocateOpCodeHandle@plt
	mv	a4,a0
	.loc 1 1275 23 discriminator 1
	lla	a5,mLibEndOpCodeHandle
	sd	a4,0(a5)
	.loc 1 1280 42
	lla	a5,mLibStartOpCodeHandle
	ld	a5,0(a5)
	li	a3,21
	li	a2,0
	la	a1,gEfiIfrTianoGuid
	mv	a0,a5
	call	HiiCreateGuidOpCode@plt
	mv	a4,a0
	.loc 1 1280 18 discriminator 1
	lla	a5,mLibStartLabel
	sd	a4,0(a5)
	.loc 1 1286 17
	lla	a5,mLibStartLabel
	ld	a5,0(a5)
	.loc 1 1286 32
	sb	zero,18(a5)
	.loc 1 1288 17
	lla	a5,mLibStartLabel
	ld	a5,0(a5)
	.loc 1 1288 26
	lbu	a4,19(a5)
	andi	a4,a4,0
	sb	a4,19(a5)
	lbu	a4,20(a5)
	andi	a4,a4,0
	ori	a4,a4,16
	sb	a4,20(a5)
	.loc 1 1293 40
	lla	a5,mLibEndOpCodeHandle
	ld	a5,0(a5)
	li	a3,21
	li	a2,0
	la	a1,gEfiIfrTianoGuid
	mv	a0,a5
	call	HiiCreateGuidOpCode@plt
	mv	a4,a0
	.loc 1 1293 16 discriminator 1
	lla	a5,mLibEndLabel
	sd	a4,0(a5)
	.loc 1 1299 15
	lla	a5,mLibEndLabel
	ld	a5,0(a5)
	.loc 1 1299 30
	sb	zero,18(a5)
	.loc 1 1301 15
	lla	a5,mLibEndLabel
	ld	a5,0(a5)
	.loc 1 1301 24
	lbu	a4,19(a5)
	ori	a4,a4,-1
	sb	a4,19(a5)
	lbu	a4,20(a5)
	ori	a4,a4,-1
	sb	a4,20(a5)
	.loc 1 1302 1
	nop
	ld	ra,8(sp)
	.cfi_restore 1
	ld	s0,0(sp)
	.cfi_restore 8
	.cfi_def_cfa 2, 16
	addi	sp,sp,16
	.cfi_def_cfa_offset 0
	jr	ra
	.cfi_endproc
.LFE20:
	.size	LibRefreshUpdateData, .-LibRefreshUpdateData
	.section	.text.LibUpdateFileExplorePage,"ax",@progbits
	.align	1
	.globl	LibUpdateFileExplorePage
	.type	LibUpdateFileExplorePage, @function
LibUpdateFileExplorePage:
.LFB21:
	.loc 1 1313 1
	.cfi_startproc
	addi	sp,sp,-64
	.cfi_def_cfa_offset 64
	sd	ra,56(sp)
	sd	s0,48(sp)
	.cfi_offset 1, -8
	.cfi_offset 8, -16
	addi	s0,sp,64
	.cfi_def_cfa 8, 0
	.loc 1 1320 16
	sd	zero,-40(s0)
	.loc 1 1321 18
	sd	zero,-48(s0)
	.loc 1 1322 17
	sb	zero,-25(s0)
	.loc 1 1324 3
	call	LibRefreshUpdateData
	.loc 1 1325 14
	lla	a5,gFileExplorerPrivate
	ld	a5,56(a5)
	sd	a5,-56(s0)
	.loc 1 1327 21
	lla	a5,mQuestionIdUpdate
	lhu	a5,0(a5)
	addiw	a5,a5,200
	slli	a4,a5,48
	srli	a4,a4,48
	lla	a5,mQuestionIdUpdate
	sh	a4,0(a5)
	.loc 1 1329 14
	sd	zero,-24(s0)
	.loc 1 1329 3
	j	.L161
.L165:
	.loc 1 1330 20
	ld	a1,-24(s0)
	ld	a0,-56(s0)
	call	LibGetMenuEntry
	sd	a0,-40(s0)
	.loc 1 1331 20
	ld	a5,-40(s0)
	ld	a5,48(a5)
	sd	a5,-48(s0)
	.loc 1 1333 24
	ld	a5,-48(s0)
	lbu	a5,32(a5)
	.loc 1 1333 8
	bne	a5,zero,.L162
	.loc 1 1333 33 discriminator 1
	lbu	a5,-25(s0)
	andi	a5,a5,0xff
	bne	a5,zero,.L162
	.loc 1 1334 7
	lla	a5,mLibStartOpCodeHandle
	ld	a0,0(a5)
	.loc 1 1340 36
	lla	a5,mNewFileQuestionId
	ld	a5,0(a5)
	addi	a3,a5,1
	lla	a4,mNewFileQuestionId
	sd	a3,0(a4)
	.loc 1 1334 7
	slli	a5,a5,48
	srli	a5,a5,48
	li	a4,4
	li	a3,5
	li	a2,4
	li	a1,8192
	call	HiiCreateGotoOpCode@plt
	.loc 1 1342 7
	lla	a5,mLibStartOpCodeHandle
	ld	a0,0(a5)
	.loc 1 1348 38
	lla	a5,mNewFolderQuestionId
	ld	a5,0(a5)
	addi	a3,a5,1
	lla	a4,mNewFolderQuestionId
	sd	a3,0(a4)
	.loc 1 1342 7
	slli	a5,a5,48
	srli	a5,a5,48
	li	a4,4
	li	a3,13
	li	a2,12
	li	a1,12288
	call	HiiCreateGotoOpCode@plt
	.loc 1 1350 7
	lla	a5,mLibStartOpCodeHandle
	ld	a5,0(a5)
	li	a3,0
	li	a2,2
	li	a1,2
	mv	a0,a5
	call	HiiCreateTextOpCode@plt
	.loc 1 1356 21
	li	a5,1
	sb	a5,-25(s0)
.L162:
	.loc 1 1359 24
	ld	a5,-48(s0)
	lbu	a5,33(a5)
	.loc 1 1359 8
	bne	a5,zero,.L163
	.loc 1 1363 7
	lla	a5,mLibStartOpCodeHandle
	ld	a0,0(a5)
	.loc 1 1365 33
	ld	a5,-24(s0)
	slli	a4,a5,48
	srli	a4,a4,48
	lla	a5,mQuestionIdUpdate
	lhu	a5,0(a5)
	addw	a5,a4,a5
	slli	a4,a5,48
	srli	a4,a4,48
	.loc 1 1365 9
	li	a5,-32768
	addw	a5,a4,a5
	slli	a1,a5,48
	srli	a1,a1,48
	.loc 1 1363 7
	ld	a5,-40(s0)
	lhu	a2,40(a5)
	li	a5,0
	li	a4,4
	li	a3,2
	call	HiiCreateActionOpCode@plt
	j	.L164
.L163:
	.loc 1 1375 7
	lla	a5,mLibStartOpCodeHandle
	ld	a0,0(a5)
	ld	a5,-40(s0)
	lhu	a2,40(a5)
	.loc 1 1381 33
	ld	a5,-24(s0)
	slli	a4,a5,48
	srli	a4,a4,48
	lla	a5,mQuestionIdUpdate
	lhu	a5,0(a5)
	addw	a5,a4,a5
	slli	a4,a5,48
	srli	a4,a4,48
	.loc 1 1381 9
	li	a5,-32768
	addw	a5,a4,a5
	slli	a5,a5,48
	srli	a5,a5,48
	.loc 1 1375 7
	li	a4,4
	li	a3,2
	li	a1,4096
	call	HiiCreateGotoOpCode@plt
.L164:
	.loc 1 1329 56 discriminator 2
	ld	a5,-24(s0)
	addi	a5,a5,1
	sd	a5,-24(s0)
.L161:
	.loc 1 1329 37 discriminator 1
	ld	a5,-56(s0)
	ld	a5,24(a5)
	.loc 1 1329 25 discriminator 1
	ld	a4,-24(s0)
	bltu	a4,a5,.L165
	.loc 1 1386 3
	lla	a5,gFileExplorerPrivate
	ld	a0,8(a5)
	lla	a5,mLibStartOpCodeHandle
	ld	a3,0(a5)
	lla	a5,mLibEndOpCodeHandle
	ld	a5,0(a5)
	mv	a4,a5
	li	a2,4096
	lla	a1,FileExplorerGuid
	call	HiiUpdateForm@plt
	.loc 1 1393 1
	nop
	ld	ra,56(sp)
	.cfi_restore 1
	ld	s0,48(sp)
	.cfi_restore 8
	.cfi_def_cfa 2, 64
	addi	sp,sp,64
	.cfi_def_cfa_offset 0
	jr	ra
	.cfi_endproc
.LFE21:
	.size	LibUpdateFileExplorePage, .-LibUpdateFileExplorePage
	.section	.text.LibUpdateFileExplorer,"ax",@progbits
	.align	1
	.globl	LibUpdateFileExplorer
	.type	LibUpdateFileExplorer, @function
LibUpdateFileExplorer:
.LFB22:
	.loc 1 1408 1
	.cfi_startproc
	addi	sp,sp,-80
	.cfi_def_cfa_offset 80
	sd	ra,72(sp)
	sd	s0,64(sp)
	.cfi_offset 1, -8
	.cfi_offset 8, -16
	addi	s0,sp,80
	.cfi_def_cfa 8, 0
	mv	a5,a0
	sh	a5,-66(s0)
	.loc 1 1415 10
	sd	zero,-24(s0)
	.loc 1 1416 20
	lhu	a5,-66(s0)
	mv	a4,a5
	li	a5,32768
	addi	a5,a5,-1
	and	a5,a4,a5
	slli	a4,a5,48
	srli	a4,a4,48
	.loc 1 1416 48
	lla	a5,mQuestionIdUpdate
	lhu	a5,0(a5)
	.loc 1 1416 18
	subw	a5,a4,a5
	sh	a5,-26(s0)
	.loc 1 1417 18
	lla	a5,gFileExplorerPrivate
	ld	a5,56(a5)
	lhu	a4,-26(s0)
	mv	a1,a4
	mv	a0,a5
	call	LibGetMenuEntry
	sd	a0,-40(s0)
	.loc 1 1418 18
	ld	a5,-40(s0)
	ld	a5,48(a5)
	sd	a5,-48(s0)
	.loc 1 1420 21
	ld	a5,-48(s0)
	lbu	a5,33(a5)
	.loc 1 1420 6
	beq	a5,zero,.L167
	.loc 1 1421 22
	ld	a5,-40(s0)
	addi	a5,a5,8
	.loc 1 1421 5
	mv	a0,a5
	call	RemoveEntryList@plt
	.loc 1 1422 5
	lla	a5,gFileExplorerPrivate
	ld	a5,56(a5)
	mv	a0,a5
	call	LibFreeMenu
	.loc 1 1423 14
	addi	a5,s0,-56
	mv	a1,a5
	ld	a0,-40(s0)
	call	LibGetFileHandleFromMenu
	sd	a0,-24(s0)
	.loc 1 1424 9
	ld	a5,-24(s0)
	.loc 1 1424 8
	blt	a5,zero,.L168
	.loc 1 1425 16
	ld	a4,-56(s0)
	ld	a5,-48(s0)
	ld	a3,24(a5)
	ld	a5,-48(s0)
	ld	a5,0(a5)
	mv	a2,a5
	mv	a1,a3
	mv	a0,a4
	call	LibFindFiles
	sd	a0,-24(s0)
	.loc 1 1426 11
	ld	a5,-24(s0)
	.loc 1 1426 10
	blt	a5,zero,.L169
	.loc 1 1427 9
	call	LibUpdateFileExplorePage
	j	.L168
.L169:
	.loc 1 1429 9
	lla	a5,gFileExplorerPrivate
	ld	a5,56(a5)
	mv	a0,a5
	call	LibFreeMenu
.L168:
	.loc 1 1433 5
	ld	a0,-40(s0)
	call	LibDestroyMenuEntry
.L167:
	.loc 1 1436 10
	ld	a5,-24(s0)
	.loc 1 1437 1
	mv	a0,a5
	ld	ra,72(sp)
	.cfi_restore 1
	ld	s0,64(sp)
	.cfi_restore 8
	.cfi_def_cfa 2, 80
	addi	sp,sp,80
	.cfi_def_cfa_offset 0
	jr	ra
	.cfi_endproc
.LFE22:
	.size	LibUpdateFileExplorer, .-LibUpdateFileExplorer
	.section	.text.LibGetDevicePath,"ax",@progbits
	.align	1
	.globl	LibGetDevicePath
	.type	LibGetDevicePath, @function
LibGetDevicePath:
.LFB23:
	.loc 1 1449 1
	.cfi_startproc
	addi	sp,sp,-64
	.cfi_def_cfa_offset 64
	sd	ra,56(sp)
	sd	s0,48(sp)
	.cfi_offset 1, -8
	.cfi_offset 8, -16
	addi	s0,sp,64
	.cfi_def_cfa 8, 0
	mv	a5,a0
	sh	a5,-50(s0)
	.loc 1 1454 20
	lhu	a5,-50(s0)
	mv	a4,a5
	li	a5,32768
	addi	a5,a5,-1
	and	a5,a4,a5
	slli	a4,a5,48
	srli	a4,a4,48
	.loc 1 1454 48
	lla	a5,mQuestionIdUpdate
	lhu	a5,0(a5)
	.loc 1 1454 18
	subw	a5,a4,a5
	sh	a5,-18(s0)
	.loc 1 1456 18
	lla	a5,gFileExplorerPrivate
	ld	a5,56(a5)
	lhu	a4,-18(s0)
	mv	a1,a4
	mv	a0,a5
	call	LibGetMenuEntry
	sd	a0,-32(s0)
	.loc 1 1458 18
	ld	a5,-32(s0)
	ld	a5,48(a5)
	sd	a5,-40(s0)
	.loc 1 1460 27
	lla	a5,gFileExplorerPrivate
	ld	a5,80(a5)
	.loc 1 1460 6
	beq	a5,zero,.L172
	.loc 1 1461 35
	lla	a5,gFileExplorerPrivate
	ld	a5,80(a5)
	.loc 1 1461 5
	mv	a0,a5
	call	FreePool@plt
.L172:
	.loc 1 1464 75
	ld	a5,-40(s0)
	ld	a5,8(a5)
	.loc 1 1464 40
	mv	a0,a5
	call	DuplicateDevicePath@plt
	mv	a4,a0
	.loc 1 1464 38 discriminator 1
	lla	a5,gFileExplorerPrivate
	sd	a4,80(a5)
	.loc 1 1465 1
	nop
	ld	ra,56(sp)
	.cfi_restore 1
	ld	s0,48(sp)
	.cfi_restore 8
	.cfi_def_cfa 2, 64
	addi	sp,sp,64
	.cfi_def_cfa_offset 0
	jr	ra
	.cfi_endproc
.LFE23:
	.size	LibGetDevicePath, .-LibGetDevicePath
	.section	.text.ChooseFile,"ax",@progbits
	.align	1
	.globl	ChooseFile
	.type	ChooseFile, @function
ChooseFile:
.LFB24:
	.loc 1 1494 1
	.cfi_startproc
	addi	sp,sp,-80
	.cfi_def_cfa_offset 80
	sd	ra,72(sp)
	sd	s0,64(sp)
	.cfi_offset 1, -8
	.cfi_offset 8, -16
	addi	s0,sp,80
	.cfi_def_cfa 8, 0
	sd	a0,-56(s0)
	sd	a1,-64(s0)
	sd	a2,-72(s0)
	sd	a3,-80(s0)
	.loc 1 1500 6
	ld	a5,-72(s0)
	bne	a5,zero,.L174
	.loc 1 1500 39 discriminator 1
	ld	a5,-80(s0)
	bne	a5,zero,.L174
	.loc 1 1501 12
	li	a5,-1
	slli	a5,a5,63
	addi	a5,a5,2
	j	.L187
.L174:
	.loc 1 1504 21
	lla	a5,mQuestionIdUpdate
	sh	zero,0(a5)
	.loc 1 1505 12
	sd	zero,-40(s0)
	.loc 1 1507 38
	lla	a5,gFileExplorerPrivate
	sd	zero,80(a5)
	.loc 1 1508 38
	lla	a5,gFileExplorerPrivate
	ld	a4,-72(s0)
	sd	a4,72(a5)
	.loc 1 1509 6
	ld	a5,-64(s0)
	beq	a5,zero,.L176
	.loc 1 1510 37
	ld	a0,-64(s0)
	call	StrSize@plt
	mv	a5,a0
	.loc 1 1510 37 is_stmt 0 discriminator 1
	ld	a1,-64(s0)
	mv	a0,a5
	call	AllocateCopyPool@plt
	mv	a4,a0
	.loc 1 1510 35 is_stmt 1 discriminator 2
	lla	a5,gFileExplorerPrivate
	sd	a4,64(a5)
	.loc 1 1512 5
	lla	a5,gFileExplorerPrivate
	ld	a5,64(a5)
	mv	a0,a5
	call	LibToLowerString
	j	.L177
.L176:
	.loc 1 1514 35
	lla	a5,gFileExplorerPrivate
	sd	zero,64(a5)
.L177:
	.loc 1 1517 6
	ld	a5,-56(s0)
	bne	a5,zero,.L178
	.loc 1 1518 14
	call	LibFindFileSystem
	sd	a0,-24(s0)
	j	.L179
.L178:
	.loc 1 1520 14
	addi	a3,s0,-48
	addi	a4,s0,-40
	addi	a5,s0,-32
	mv	a2,a4
	mv	a1,a5
	ld	a0,-56(s0)
	call	LibGetFileHandleFromDevicePath
	sd	a0,-24(s0)
	.loc 1 1521 36
	ld	a5,-24(s0)
	.loc 1 1521 8
	blt	a5,zero,.L188
	.loc 1 1525 14
	ld	a5,-32(s0)
	ld	a4,-40(s0)
	ld	a3,-48(s0)
	mv	a2,a3
	mv	a1,a4
	mv	a0,a5
	call	LibFindFiles
	sd	a0,-24(s0)
.L179:
	.loc 1 1528 34
	ld	a5,-24(s0)
	.loc 1 1528 6
	blt	a5,zero,.L189
	.loc 1 1532 3
	call	LibUpdateFileExplorePage
	.loc 1 1534 23
	lla	a5,gFileExplorerPrivate
	ld	a5,48(a5)
	.loc 1 1534 36
	ld	a7,0(a5)
	.loc 1 1535 60
	lla	a5,gFileExplorerPrivate
	ld	a0,48(a5)
	.loc 1 1534 3
	li	a6,0
	li	a5,0
	li	a4,0
	lla	a3,FileExplorerGuid
	li	a2,1
	lla	a1,gFileExplorerPrivate+8
	jalr	a7
.LVL25:
	j	.L181
.L188:
	.loc 1 1522 7
	nop
	j	.L181
.L189:
	.loc 1 1529 5
	nop
.L181:
	.loc 1 1545 6
	ld	a5,-24(s0)
	bne	a5,zero,.L183
	.loc 1 1545 38 discriminator 1
	ld	a5,-80(s0)
	beq	a5,zero,.L183
	.loc 1 1546 33
	lla	a5,gFileExplorerPrivate
	ld	a4,80(a5)
	.loc 1 1546 11
	ld	a5,-80(s0)
	sd	a4,0(a5)
	j	.L184
.L183:
	.loc 1 1547 34
	lla	a5,gFileExplorerPrivate
	ld	a5,80(a5)
	.loc 1 1547 13
	beq	a5,zero,.L184
	.loc 1 1548 35
	lla	a5,gFileExplorerPrivate
	ld	a5,80(a5)
	.loc 1 1548 5
	mv	a0,a5
	call	FreePool@plt
.L184:
	.loc 1 1551 27
	lla	a5,gFileExplorerPrivate
	ld	a5,64(a5)
	.loc 1 1551 6
	beq	a5,zero,.L185
	.loc 1 1552 35
	lla	a5,gFileExplorerPrivate
	ld	a5,64(a5)
	.loc 1 1552 5
	mv	a0,a5
	call	FreePool@plt
.L185:
	.loc 1 1555 3
	lla	a5,gFileExplorerPrivate
	ld	a5,56(a5)
	mv	a0,a5
	call	LibFreeMenu
	.loc 1 1557 16
	ld	a5,-40(s0)
	.loc 1 1557 6
	beq	a5,zero,.L186
	.loc 1 1558 5
	ld	a5,-40(s0)
	mv	a0,a5
	call	FreePool@plt
.L186:
	.loc 1 1561 10
	ld	a5,-24(s0)
.L187:
	.loc 1 1562 1
	mv	a0,a5
	ld	ra,72(sp)
	.cfi_restore 1
	ld	s0,64(sp)
	.cfi_restore 8
	.cfi_def_cfa 2, 80
	addi	sp,sp,80
	.cfi_def_cfa_offset 0
	jr	ra
	.cfi_endproc
.LFE24:
	.size	ChooseFile, .-ChooseFile
	.section	.text.FileExplorerLibConstructor,"ax",@progbits
	.align	1
	.globl	FileExplorerLibConstructor
	.type	FileExplorerLibConstructor, @function
FileExplorerLibConstructor:
.LFB25:
	.loc 1 1580 1
	.cfi_startproc
	addi	sp,sp,-48
	.cfi_def_cfa_offset 48
	sd	ra,40(sp)
	sd	s0,32(sp)
	.cfi_offset 1, -8
	.cfi_offset 8, -16
	addi	s0,sp,48
	.cfi_def_cfa 8, 0
	sd	a0,-40(s0)
	sd	a1,-48(s0)
	.loc 1 1583 52
	lla	a0,FeHiiVendorDevicePath
	call	DuplicateDevicePath@plt
	mv	a4,a0
	.loc 1 1583 24 discriminator 1
	lla	a5,gHiiVendorDevicePath
	sd	a4,0(a5)
	.loc 1 1585 34
	lla	a5,gHiiVendorDevicePath
	ld	a5,0(a5)
	.loc 1 1585 13
	addi	a5,a5,4
	.loc 1 1585 3
	la	a1,gEfiCallerIdGuid
	mv	a0,a5
	call	CopyGuid@plt
	.loc 1 1590 15
	la	a5,gBS
	ld	a5,0(a5)
	ld	a6,328(a5)
	.loc 1 1590 12
	lla	a5,gHiiVendorDevicePath
	ld	a2,0(a5)
	li	a5,0
	lla	a4,gFileExplorerPrivate+24
	la	a3,gEfiHiiConfigAccessProtocolGuid
	la	a1,gEfiDevicePathProtocolGuid
	lla	a0,gFileExplorerPrivate+16
	jalr	a6
.LVL26:
	sd	a0,-24(s0)
	.loc 1 1598 6
	ld	a4,-24(s0)
	li	a5,-1
	slli	a5,a5,63
	addi	a5,a5,20
	bne	a4,a5,.L191
	.loc 1 1599 12
	li	a5,0
	j	.L192
.L191:
	.loc 1 1602 34
	ld	a5,-24(s0)
	.loc 1 1602 6
	bge	a5,zero,.L193
	.loc 1 1603 12
	ld	a5,-24(s0)
	j	.L192
.L193:
	.loc 1 1609 38
	lla	a5,gFileExplorerPrivate
	ld	a5,16(a5)
	li	a4,0
	la	a3,FileExplorerLibStrings
	la	a2,FileExplorerVfrBin
	mv	a1,a5
	lla	a0,FileExplorerGuid
	call	HiiAddPackages@plt
	mv	a4,a0
	.loc 1 1609 36 discriminator 1
	lla	a5,gFileExplorerPrivate
	sd	a4,8(a5)
	.loc 1 1621 15
	la	a5,gBS
	ld	a5,0(a5)
	ld	a5,320(a5)
	.loc 1 1621 12
	lla	a2,gFileExplorerPrivate+48
	li	a1,0
	la	a0,gEfiFormBrowser2ProtocolGuid
	jalr	a5
.LVL27:
	sd	a0,-24(s0)
	.loc 1 1624 44
	lla	a5,gFileExplorerPrivate
	ld	a5,56(a5)
	.loc 1 1624 3
	addi	a5,a5,8
	mv	a0,a5
	call	InitializeListHead@plt
	.loc 1 1626 10
	li	a5,0
.L192:
	.loc 1 1627 1
	mv	a0,a5
	ld	ra,40(sp)
	.cfi_restore 1
	ld	s0,32(sp)
	.cfi_restore 8
	.cfi_def_cfa 2, 48
	addi	sp,sp,48
	.cfi_def_cfa_offset 0
	jr	ra
	.cfi_endproc
.LFE25:
	.size	FileExplorerLibConstructor, .-FileExplorerLibConstructor
	.section	.text.FileExplorerLibDestructor,"ax",@progbits
	.align	1
	.globl	FileExplorerLibDestructor
	.type	FileExplorerLibDestructor, @function
FileExplorerLibDestructor:
.LFB26:
	.loc 1 1643 1
	.cfi_startproc
	addi	sp,sp,-48
	.cfi_def_cfa_offset 48
	sd	ra,40(sp)
	sd	s0,32(sp)
	.cfi_offset 1, -8
	.cfi_offset 8, -16
	addi	s0,sp,48
	.cfi_def_cfa 8, 0
	sd	a0,-40(s0)
	sd	a1,-48(s0)
	.loc 1 1648 27
	lla	a5,gFileExplorerPrivate
	ld	a5,16(a5)
	.loc 1 1648 6
	beq	a5,zero,.L195
	.loc 1 1649 17
	la	a5,gBS
	ld	a5,0(a5)
	ld	a6,336(a5)
	.loc 1 1649 14
	lla	a5,gFileExplorerPrivate
	ld	a0,16(a5)
	lla	a5,gHiiVendorDevicePath
	ld	a2,0(a5)
	li	a5,0
	lla	a4,gFileExplorerPrivate+24
	la	a3,gEfiHiiConfigAccessProtocolGuid
	la	a1,gEfiDevicePathProtocolGuid
	jalr	a6
.LVL28:
	sd	a0,-24(s0)
	.loc 1 1659 5
	lla	a5,gFileExplorerPrivate
	ld	a5,8(a5)
	mv	a0,a5
	call	HiiRemovePackages@plt
	.loc 1 1660 41
	lla	a5,gFileExplorerPrivate
	sd	zero,16(a5)
.L195:
	.loc 1 1663 3
	lla	a5,gHiiVendorDevicePath
	ld	a5,0(a5)
	mv	a0,a5
	call	FreePool@plt
	.loc 1 1665 10
	li	a5,0
	.loc 1 1666 1
	mv	a0,a5
	ld	ra,40(sp)
	.cfi_restore 1
	ld	s0,32(sp)
	.cfi_restore 8
	.cfi_def_cfa 2, 48
	addi	sp,sp,48
	.cfi_def_cfa_offset 0
	jr	ra
	.cfi_endproc
.LFE26:
	.size	FileExplorerLibDestructor, .-FileExplorerLibDestructor
	.text
.Letext0:
	.file 2 "/home/kapoagaeming/spacemit-image-builder/components/edk2/MdePkg/Include/RiscV64/ProcessorBind.h"
	.file 3 "/home/kapoagaeming/spacemit-image-builder/components/edk2/MdePkg/Include/Base.h"
	.file 4 "/home/kapoagaeming/spacemit-image-builder/components/edk2/MdePkg/Include/Uefi/UefiBaseType.h"
	.file 5 "/home/kapoagaeming/spacemit-image-builder/components/edk2/MdePkg/Include/Uefi/UefiMultiPhase.h"
	.file 6 "/home/kapoagaeming/spacemit-image-builder/components/edk2/MdePkg/Include/Protocol/DevicePath.h"
	.file 7 "/home/kapoagaeming/spacemit-image-builder/components/edk2/MdePkg/Include/Protocol/SimpleTextIn.h"
	.file 8 "/home/kapoagaeming/spacemit-image-builder/components/edk2/MdePkg/Include/Protocol/SimpleTextOut.h"
	.file 9 "/home/kapoagaeming/spacemit-image-builder/components/edk2/MdePkg/Include/Uefi/UefiSpec.h"
	.file 10 "/home/kapoagaeming/spacemit-image-builder/components/edk2/MdePkg/Include/Uefi/UefiInternalFormRepresentation.h"
	.file 11 "/home/kapoagaeming/spacemit-image-builder/components/Build/Milk-V-Jupiter/RELEASE_GCC5/RISCV64/MdeModulePkg/Library/FileExplorerLib/FileExplorerLib/DEBUG/AutoGen.h"
	.file 12 "/home/kapoagaeming/spacemit-image-builder/components/Build/Milk-V-Jupiter/RELEASE_GCC5/RISCV64/MdeModulePkg/Library/FileExplorerLib/FileExplorerLib/DEBUG/FileExplorerLibStrDefs.h"
	.file 13 "/home/kapoagaeming/spacemit-image-builder/components/edk2/MdePkg/Include/Guid/FileSystemVolumeLabelInfo.h"
	.file 14 "/home/kapoagaeming/spacemit-image-builder/components/edk2/MdePkg/Include/Guid/FileInfo.h"
	.file 15 "/home/kapoagaeming/spacemit-image-builder/components/edk2/MdeModulePkg/Include/Guid/MdeModuleHii.h"
	.file 16 "/home/kapoagaeming/spacemit-image-builder/components/edk2/MdePkg/Include/Protocol/FormBrowser2.h"
	.file 17 "/home/kapoagaeming/spacemit-image-builder/components/edk2/MdePkg/Include/Protocol/HiiConfigAccess.h"
	.file 18 "/home/kapoagaeming/spacemit-image-builder/components/edk2/MdePkg/Include/Protocol/SimpleFileSystem.h"
	.file 19 "/home/kapoagaeming/spacemit-image-builder/components/edk2/MdePkg/Include/Protocol/DevicePathToText.h"
	.file 20 "/home/kapoagaeming/spacemit-image-builder/components/edk2/MdeModulePkg/Include/Protocol/FileExplorer.h"
	.file 21 "/home/kapoagaeming/spacemit-image-builder/components/edk2/MdeModulePkg/Library/FileExplorerLib/FileExplorer.h"
	.file 22 "/home/kapoagaeming/spacemit-image-builder/components/edk2/MdePkg/Include/Library/BaseLib.h"
	.file 23 "/home/kapoagaeming/spacemit-image-builder/components/edk2/MdeModulePkg/Include/Library/HiiLib.h"
	.file 24 "/home/kapoagaeming/spacemit-image-builder/components/edk2/MdePkg/Include/Library/BaseMemoryLib.h"
	.file 25 "/home/kapoagaeming/spacemit-image-builder/components/edk2/MdePkg/Include/Library/DevicePathLib.h"
	.file 26 "/home/kapoagaeming/spacemit-image-builder/components/edk2/MdePkg/Include/Library/PrintLib.h"
	.file 27 "/home/kapoagaeming/spacemit-image-builder/components/edk2/MdePkg/Include/Library/MemoryAllocationLib.h"
	.file 28 "/home/kapoagaeming/spacemit-image-builder/components/edk2/MdePkg/Include/Library/UefiBootServicesTableLib.h"
	.section	.note.GNU-stack,"",@progbits
