	.file	"Event.c"
	.option pic
	.option norelax
	.attribute arch, "rv64i2p1_m2p0_a2p1_f2p2_d2p2_c2p0_zicsr2p0_zifencei2p0_zmmul1p0_zaamo1p0_zalrsc1p0_zca1p0_zcd1p0"
	.attribute unaligned_access, 0
	.attribute stack_align, 16
	.text
.Ltext0:
	.cfi_sections	.debug_frame
	.file 0 "/home/kapoagaeming/spacemit-image-builder/components/Build/Milk-V-Jupiter/RELEASE_GCC5/RISCV64/MdeModulePkg/Core/Dxe/DxeMain" "/home/kapoagaeming/spacemit-image-builder/components/edk2/MdeModulePkg/Core/Dxe/Event/Event.c"
	.globl	gEfiCurrentTpl
	.section	.data.gEfiCurrentTpl,"aw"
	.align	3
	.type	gEfiCurrentTpl, @object
	.size	gEfiCurrentTpl, 8
gEfiCurrentTpl:
	.dword	4
	.globl	gEventQueueLock
	.section	.data.gEventQueueLock,"aw"
	.align	3
	.type	gEventQueueLock, @object
	.size	gEventQueueLock, 24
gEventQueueLock:
	.dword	31
	.dword	4
	.word	1
	.zero	4
	.globl	gEventQueue
	.section	.bss.gEventQueue,"aw",@nobits
	.align	3
	.type	gEventQueue, @object
	.size	gEventQueue, 512
gEventQueue:
	.zero	512
	.globl	gEventPending
	.section	.bss.gEventPending,"aw",@nobits
	.align	3
	.type	gEventPending, @object
	.size	gEventPending, 8
gEventPending:
	.zero	8
	.globl	gEventSignalQueue
	.section	.data.rel.local.gEventSignalQueue,"aw"
	.align	3
	.type	gEventSignalQueue, @object
	.size	gEventSignalQueue, 16
gEventSignalQueue:
	.dword	gEventSignalQueue
	.dword	gEventSignalQueue
	.globl	mEventTable
	.section	.data.mEventTable,"aw"
	.align	3
	.type	mEventTable, @object
	.size	mEventTable, 32
mEventTable:
	.word	-2147483136
	.word	-2147483648
	.word	256
	.word	512
	.word	513
	.word	1610613250
	.word	0
	.word	-2147483392
	.globl	gIdleLoopEvent
	.section	.bss.gIdleLoopEvent,"aw",@nobits
	.align	3
	.type	gIdleLoopEvent, @object
	.size	gIdleLoopEvent, 8
gIdleLoopEvent:
	.zero	8
	.section	.text.CoreAcquireEventLock,"ax",@progbits
	.align	1
	.globl	CoreAcquireEventLock
	.type	CoreAcquireEventLock, @function
CoreAcquireEventLock:
.LFB0:
	.file 1 "/home/kapoagaeming/spacemit-image-builder/components/edk2/MdeModulePkg/Core/Dxe/Event/Event.c"
	.loc 1 97 1
	.cfi_startproc
	addi	sp,sp,-16
	.cfi_def_cfa_offset 16
	sd	ra,8(sp)
	sd	s0,0(sp)
	.cfi_offset 1, -8
	.cfi_offset 8, -16
	addi	s0,sp,16
	.cfi_def_cfa 8, 0
	.loc 1 98 3
	lla	a0,gEventQueueLock
	call	CoreAcquireLock@plt
	.loc 1 99 1
	nop
	ld	ra,8(sp)
	.cfi_restore 1
	ld	s0,0(sp)
	.cfi_restore 8
	.cfi_def_cfa 2, 16
	addi	sp,sp,16
	.cfi_def_cfa_offset 0
	jr	ra
	.cfi_endproc
.LFE0:
	.size	CoreAcquireEventLock, .-CoreAcquireEventLock
	.section	.text.CoreReleaseEventLock,"ax",@progbits
	.align	1
	.globl	CoreReleaseEventLock
	.type	CoreReleaseEventLock, @function
CoreReleaseEventLock:
.LFB1:
	.loc 1 109 1
	.cfi_startproc
	addi	sp,sp,-16
	.cfi_def_cfa_offset 16
	sd	ra,8(sp)
	sd	s0,0(sp)
	.cfi_offset 1, -8
	.cfi_offset 8, -16
	addi	s0,sp,16
	.cfi_def_cfa 8, 0
	.loc 1 110 3
	lla	a0,gEventQueueLock
	call	CoreReleaseLock@plt
	.loc 1 111 1
	nop
	ld	ra,8(sp)
	.cfi_restore 1
	ld	s0,0(sp)
	.cfi_restore 8
	.cfi_def_cfa 2, 16
	addi	sp,sp,16
	.cfi_def_cfa_offset 0
	jr	ra
	.cfi_endproc
.LFE1:
	.size	CoreReleaseEventLock, .-CoreReleaseEventLock
	.section	.text.CoreInitializeEventServices,"ax",@progbits
	.align	1
	.globl	CoreInitializeEventServices
	.type	CoreInitializeEventServices, @function
CoreInitializeEventServices:
.LFB2:
	.loc 1 123 1
	.cfi_startproc
	addi	sp,sp,-32
	.cfi_def_cfa_offset 32
	sd	ra,24(sp)
	sd	s0,16(sp)
	.cfi_offset 1, -8
	.cfi_offset 8, -16
	addi	s0,sp,32
	.cfi_def_cfa 8, 0
	.loc 1 126 14
	sd	zero,-24(s0)
	.loc 1 126 3
	j	.L4
.L5:
	.loc 1 127 5
	ld	a5,-24(s0)
	slli	a4,a5,4
	lla	a5,gEventQueue
	add	a5,a4,a5
	mv	a0,a5
	call	InitializeListHead@plt
	.loc 1 126 37 discriminator 3
	ld	a5,-24(s0)
	addi	a5,a5,1
	sd	a5,-24(s0)
.L4:
	.loc 1 126 25 discriminator 1
	ld	a4,-24(s0)
	li	a5,31
	bleu	a4,a5,.L5
	.loc 1 130 3
	call	CoreInitializeTimer@plt
	.loc 1 132 3
	lla	a5,gIdleLoopEvent
	la	a4,gIdleLoopEventGuid
	li	a3,0
	la	a2,EfiEventEmptyFunction
	li	a1,16
	li	a0,512
	call	CoreCreateEventEx
	.loc 1 141 10
	li	a5,0
	.loc 1 142 1
	mv	a0,a5
	ld	ra,24(sp)
	.cfi_restore 1
	ld	s0,16(sp)
	.cfi_restore 8
	.cfi_def_cfa 2, 32
	addi	sp,sp,32
	.cfi_def_cfa_offset 0
	jr	ra
	.cfi_endproc
.LFE2:
	.size	CoreInitializeEventServices, .-CoreInitializeEventServices
	.section	.text.CoreDispatchEventNotifies,"ax",@progbits
	.align	1
	.globl	CoreDispatchEventNotifies
	.type	CoreDispatchEventNotifies, @function
CoreDispatchEventNotifies:
.LFB3:
	.loc 1 155 1
	.cfi_startproc
	addi	sp,sp,-48
	.cfi_def_cfa_offset 48
	sd	ra,40(sp)
	sd	s0,32(sp)
	.cfi_offset 1, -8
	.cfi_offset 8, -16
	addi	s0,sp,48
	.cfi_def_cfa 8, 0
	sd	a0,-40(s0)
	.loc 1 159 3
	call	CoreAcquireEventLock
	.loc 1 161 8
	ld	a5,-40(s0)
	slli	a4,a5,4
	lla	a5,gEventQueue
	add	a5,a4,a5
	sd	a5,-32(s0)
	.loc 1 166 9
	j	.L8
.L12:
	.loc 1 167 51
	ld	a5,-32(s0)
	ld	a5,0(a5)
	.loc 1 167 15
	addi	a5,a5,-72
	.loc 1 167 118
	ld	a4,0(a5)
	.loc 1 167 203
	li	a5,1953394688
	addi	a5,a5,1637
	bne	a4,a5,.L9
	.loc 1 167 242 discriminator 1
	ld	a5,-32(s0)
	ld	a5,0(a5)
	.loc 1 167 11 discriminator 1
	addi	a5,a5,-72
	sd	a5,-24(s0)
	j	.L10
.L9:
	.loc 1 167 11 is_stmt 0 discriminator 2
	sd	zero,-24(s0)
.L10:
	.loc 1 168 22 is_stmt 1
	ld	a5,-24(s0)
	addi	a5,a5,72
	.loc 1 168 5
	mv	a0,a5
	call	RemoveEntryList@plt
	.loc 1 170 35
	ld	a5,-24(s0)
	sd	zero,72(a5)
	.loc 1 176 15
	ld	a5,-24(s0)
	lw	a5,8(a5)
	.loc 1 176 22
	andi	a5,a5,512
	sext.w	a5,a5
	.loc 1 176 8
	beq	a5,zero,.L11
	.loc 1 177 26
	ld	a5,-24(s0)
	sw	zero,12(a5)
.L11:
	.loc 1 180 5
	call	CoreReleaseEventLock
	.loc 1 186 10
	ld	a5,-24(s0)
	ld	a5,40(a5)
	.loc 1 186 5
	ld	a4,-24(s0)
	ld	a4,48(a4)
	mv	a1,a4
	ld	a0,-24(s0)
	jalr	a5
.LVL0:
	.loc 1 191 5
	call	CoreAcquireEventLock
.L8:
	.loc 1 166 11
	ld	a0,-32(s0)
	call	IsListEmpty@plt
	mv	a5,a0
	.loc 1 166 10 discriminator 1
	beq	a5,zero,.L12
	.loc 1 194 31
	ld	a5,-40(s0)
	sext.w	a5,a5
	li	a4,1
	sllw	a5,a4,a5
	sext.w	a5,a5
	.loc 1 194 20
	not	a4,a5
	.loc 1 194 17
	lla	a5,gEventPending
	ld	a5,0(a5)
	and	a4,a4,a5
	lla	a5,gEventPending
	sd	a4,0(a5)
	.loc 1 195 3
	call	CoreReleaseEventLock
	.loc 1 196 1
	nop
	ld	ra,40(sp)
	.cfi_restore 1
	ld	s0,32(sp)
	.cfi_restore 8
	.cfi_def_cfa 2, 48
	addi	sp,sp,48
	.cfi_def_cfa_offset 0
	jr	ra
	.cfi_endproc
.LFE3:
	.size	CoreDispatchEventNotifies, .-CoreDispatchEventNotifies
	.section	.text.CoreNotifyEvent,"ax",@progbits
	.align	1
	.globl	CoreNotifyEvent
	.type	CoreNotifyEvent, @function
CoreNotifyEvent:
.LFB4:
	.loc 1 208 1
	.cfi_startproc
	addi	sp,sp,-32
	.cfi_def_cfa_offset 32
	sd	ra,24(sp)
	sd	s0,16(sp)
	.cfi_offset 1, -8
	.cfi_offset 8, -16
	addi	s0,sp,32
	.cfi_def_cfa 8, 0
	sd	a0,-24(s0)
	.loc 1 218 24
	ld	a5,-24(s0)
	ld	a5,72(a5)
	.loc 1 218 6
	beq	a5,zero,.L14
	.loc 1 219 22
	ld	a5,-24(s0)
	addi	a5,a5,72
	.loc 1 219 5
	mv	a0,a5
	call	RemoveEntryList@plt
	.loc 1 220 35
	ld	a5,-24(s0)
	sd	zero,72(a5)
.L14:
	.loc 1 227 37
	ld	a5,-24(s0)
	ld	a5,32(a5)
	.loc 1 227 3
	slli	a4,a5,4
	lla	a5,gEventQueue
	add	a4,a4,a5
	ld	a5,-24(s0)
	addi	a5,a5,72
	mv	a1,a5
	mv	a0,a4
	call	InsertTailList@plt
	.loc 1 228 38
	ld	a5,-24(s0)
	ld	a5,32(a5)
	.loc 1 228 30
	sext.w	a5,a5
	li	a4,1
	sllw	a5,a4,a5
	sext.w	a5,a5
	.loc 1 228 20
	mv	a4,a5
	.loc 1 228 17
	lla	a5,gEventPending
	ld	a5,0(a5)
	or	a4,a4,a5
	lla	a5,gEventPending
	sd	a4,0(a5)
	.loc 1 229 1
	nop
	ld	ra,24(sp)
	.cfi_restore 1
	ld	s0,16(sp)
	.cfi_restore 8
	.cfi_def_cfa 2, 32
	addi	sp,sp,32
	.cfi_def_cfa_offset 0
	jr	ra
	.cfi_endproc
.LFE4:
	.size	CoreNotifyEvent, .-CoreNotifyEvent
	.section	.text.CoreNotifySignalList,"ax",@progbits
	.align	1
	.globl	CoreNotifySignalList
	.type	CoreNotifySignalList, @function
CoreNotifySignalList:
.LFB5:
	.loc 1 241 1
	.cfi_startproc
	addi	sp,sp,-64
	.cfi_def_cfa_offset 64
	sd	ra,56(sp)
	sd	s0,48(sp)
	.cfi_offset 1, -8
	.cfi_offset 8, -16
	addi	s0,sp,64
	.cfi_def_cfa 8, 0
	sd	a0,-56(s0)
	.loc 1 246 3
	call	CoreAcquireEventLock
	.loc 1 248 8
	lla	a5,gEventSignalQueue
	sd	a5,-40(s0)
	.loc 1 249 13
	ld	a5,-40(s0)
	ld	a5,0(a5)
	sd	a5,-24(s0)
	.loc 1 249 3
	j	.L16
.L20:
	.loc 1 250 15
	ld	a5,-24(s0)
	addi	a5,a5,-16
	.loc 1 250 105
	ld	a4,0(a5)
	.loc 1 250 190
	li	a5,1953394688
	addi	a5,a5,1637
	bne	a4,a5,.L17
	.loc 1 250 11 discriminator 1
	ld	a5,-24(s0)
	addi	a5,a5,-16
	sd	a5,-32(s0)
	j	.L18
.L17:
	.loc 1 250 11 is_stmt 0 discriminator 2
	sd	zero,-32(s0)
.L18:
	.loc 1 251 22 is_stmt 1
	ld	a5,-32(s0)
	addi	a5,a5,56
	.loc 1 251 9
	ld	a1,-56(s0)
	mv	a0,a5
	call	CompareGuid@plt
	mv	a5,a0
	.loc 1 251 8 discriminator 1
	beq	a5,zero,.L19
	.loc 1 252 7
	ld	a0,-32(s0)
	call	CoreNotifyEvent
.L19:
	.loc 1 249 53 discriminator 2
	ld	a5,-24(s0)
	ld	a5,0(a5)
	sd	a5,-24(s0)
.L16:
	.loc 1 249 39 discriminator 1
	ld	a4,-24(s0)
	ld	a5,-40(s0)
	bne	a4,a5,.L20
	.loc 1 256 3
	call	CoreReleaseEventLock
	.loc 1 257 1
	nop
	ld	ra,56(sp)
	.cfi_restore 1
	ld	s0,48(sp)
	.cfi_restore 8
	.cfi_def_cfa 2, 64
	addi	sp,sp,64
	.cfi_def_cfa_offset 0
	jr	ra
	.cfi_endproc
.LFE5:
	.size	CoreNotifySignalList, .-CoreNotifySignalList
	.section	.text.CoreCreateEvent,"ax",@progbits
	.align	1
	.globl	CoreCreateEvent
	.type	CoreCreateEvent, @function
CoreCreateEvent:
.LFB6:
	.loc 1 286 1
	.cfi_startproc
	addi	sp,sp,-64
	.cfi_def_cfa_offset 64
	sd	ra,56(sp)
	sd	s0,48(sp)
	.cfi_offset 1, -8
	.cfi_offset 8, -16
	addi	s0,sp,64
	.cfi_def_cfa 8, 0
	mv	a5,a0
	sd	a1,-32(s0)
	sd	a2,-40(s0)
	sd	a3,-48(s0)
	sd	a4,-56(s0)
	sw	a5,-20(s0)
	.loc 1 287 10
	lw	a0,-20(s0)
	ld	a5,-56(s0)
	li	a4,0
	ld	a3,-48(s0)
	ld	a2,-40(s0)
	ld	a1,-32(s0)
	call	CoreCreateEventEx
	mv	a5,a0
	.loc 1 288 1
	mv	a0,a5
	ld	ra,56(sp)
	.cfi_restore 1
	ld	s0,48(sp)
	.cfi_restore 8
	.cfi_def_cfa 2, 64
	addi	sp,sp,64
	.cfi_def_cfa_offset 0
	jr	ra
	.cfi_endproc
.LFE6:
	.size	CoreCreateEvent, .-CoreCreateEvent
	.section	.text.CoreCreateEventEx,"ax",@progbits
	.align	1
	.globl	CoreCreateEventEx
	.type	CoreCreateEventEx, @function
CoreCreateEventEx:
.LFB7:
	.loc 1 320 1
	.cfi_startproc
	addi	sp,sp,-64
	.cfi_def_cfa_offset 64
	sd	ra,56(sp)
	sd	s0,48(sp)
	.cfi_offset 1, -8
	.cfi_offset 8, -16
	addi	s0,sp,64
	.cfi_def_cfa 8, 0
	sd	a1,-32(s0)
	sd	a2,-40(s0)
	sd	a3,-48(s0)
	sd	a4,-56(s0)
	sd	a5,-64(s0)
	mv	a5,a0
	sw	a5,-20(s0)
	.loc 1 324 13
	lw	a5,-20(s0)
	andi	a5,a5,768
	sext.w	a5,a5
	.loc 1 324 6
	beq	a5,zero,.L24
	.loc 1 325 8
	ld	a4,-32(s0)
	li	a5,4
	beq	a4,a5,.L24
	.loc 1 325 26 discriminator 1
	ld	a4,-32(s0)
	li	a5,8
	beq	a4,a5,.L24
	.loc 1 326 26
	ld	a4,-32(s0)
	li	a5,16
	beq	a4,a5,.L24
	.loc 1 329 14
	li	a5,-1
	slli	a5,a5,63
	addi	a5,a5,2
	j	.L25
.L24:
	.loc 1 333 10
	lw	a0,-20(s0)
	ld	a5,-64(s0)
	ld	a4,-56(s0)
	ld	a3,-48(s0)
	ld	a2,-40(s0)
	ld	a1,-32(s0)
	call	CoreCreateEventInternal
	mv	a5,a0
.L25:
	.loc 1 334 1
	mv	a0,a5
	ld	ra,56(sp)
	.cfi_restore 1
	ld	s0,48(sp)
	.cfi_restore 8
	.cfi_def_cfa 2, 64
	addi	sp,sp,64
	.cfi_def_cfa_offset 0
	jr	ra
	.cfi_endproc
.LFE7:
	.size	CoreCreateEventEx, .-CoreCreateEventEx
	.section	.text.CoreCreateEventInternal,"ax",@progbits
	.align	1
	.globl	CoreCreateEventInternal
	.type	CoreCreateEventInternal, @function
CoreCreateEventInternal:
.LFB8:
	.loc 1 366 1
	.cfi_startproc
	addi	sp,sp,-96
	.cfi_def_cfa_offset 96
	sd	ra,88(sp)
	sd	s0,80(sp)
	.cfi_offset 1, -8
	.cfi_offset 8, -16
	addi	s0,sp,96
	.cfi_def_cfa 8, 0
	sd	a1,-64(s0)
	sd	a2,-72(s0)
	sd	a3,-80(s0)
	sd	a4,-88(s0)
	sd	a5,-96(s0)
	mv	a5,a0
	sw	a5,-52(s0)
	.loc 1 371 6
	ld	a5,-96(s0)
	bne	a5,zero,.L27
	.loc 1 372 12
	li	a5,-1
	slli	a5,a5,63
	addi	a5,a5,2
	j	.L28
.L27:
	.loc 1 378 10
	li	a5,-1
	slli	a5,a5,63
	addi	a5,a5,2
	sd	a5,-24(s0)
	.loc 1 379 14
	sd	zero,-40(s0)
	.loc 1 379 3
	j	.L29
.L32:
	.loc 1 380 28
	lla	a4,mEventTable
	ld	a5,-40(s0)
	slli	a5,a5,2
	add	a5,a4,a5
	lw	a5,0(a5)
	.loc 1 380 8
	lw	a4,-52(s0)
	sext.w	a4,a4
	bne	a4,a5,.L30
	.loc 1 381 14
	sd	zero,-24(s0)
	.loc 1 382 7
	j	.L31
.L30:
	.loc 1 379 74 discriminator 2
	ld	a5,-40(s0)
	addi	a5,a5,1
	sd	a5,-40(s0)
.L29:
	.loc 1 379 25 discriminator 1
	ld	a4,-40(s0)
	li	a5,7
	bleu	a4,a5,.L32
.L31:
	.loc 1 386 34
	ld	a5,-24(s0)
	.loc 1 386 6
	bge	a5,zero,.L33
	.loc 1 387 12
	li	a5,-1
	slli	a5,a5,63
	addi	a5,a5,2
	j	.L28
.L33:
	.loc 1 393 6
	ld	a5,-88(s0)
	beq	a5,zero,.L34
	.loc 1 398 8
	lw	a5,-52(s0)
	sext.w	a4,a5
	li	a5,513
	beq	a4,a5,.L35
	.loc 1 398 30 discriminator 1
	lw	a5,-52(s0)
	sext.w	a4,a5
	li	a5,1610612736
	addi	a5,a5,514
	bne	a4,a5,.L36
.L35:
	.loc 1 399 14
	li	a5,-1
	slli	a5,a5,63
	addi	a5,a5,2
	j	.L28
.L36:
	.loc 1 402 9
	la	a1,gEfiEventExitBootServicesGuid
	ld	a0,-88(s0)
	call	CompareGuid@plt
	mv	a5,a0
	.loc 1 402 8 discriminator 1
	beq	a5,zero,.L37
	.loc 1 403 12
	li	a5,513
	sw	a5,-52(s0)
	j	.L38
.L37:
	.loc 1 404 16
	la	a1,gEfiEventVirtualAddressChangeGuid
	ld	a0,-88(s0)
	call	CompareGuid@plt
	mv	a5,a0
	.loc 1 404 15 discriminator 1
	beq	a5,zero,.L38
	.loc 1 405 12
	li	a5,1610612736
	addi	a5,a5,514
	sw	a5,-52(s0)
	j	.L38
.L34:
	.loc 1 411 8
	lw	a5,-52(s0)
	sext.w	a4,a5
	li	a5,513
	bne	a4,a5,.L39
	.loc 1 412 18
	la	a5,gEfiEventExitBootServicesGuid
	sd	a5,-88(s0)
	j	.L38
.L39:
	.loc 1 413 15
	lw	a5,-52(s0)
	sext.w	a4,a5
	li	a5,1610612736
	addi	a5,a5,514
	bne	a4,a5,.L38
	.loc 1 414 18
	la	a5,gEfiEventVirtualAddressChangeGuid
	sd	a5,-88(s0)
.L38:
	.loc 1 421 13
	lw	a5,-52(s0)
	andi	a5,a5,768
	sext.w	a5,a5
	.loc 1 421 6
	beq	a5,zero,.L40
	.loc 1 425 8
	ld	a5,-72(s0)
	beq	a5,zero,.L41
	.loc 1 425 42 discriminator 1
	ld	a4,-64(s0)
	li	a5,4
	bleu	a4,a5,.L41
	.loc 1 426 26
	ld	a4,-64(s0)
	li	a5,30
	bleu	a4,a5,.L42
.L41:
	.loc 1 429 14
	li	a5,-1
	slli	a5,a5,63
	addi	a5,a5,2
	j	.L28
.L40:
	.loc 1 435 15
	sd	zero,-64(s0)
	.loc 1 436 20
	sd	zero,-72(s0)
	.loc 1 437 19
	sd	zero,-80(s0)
.L42:
	.loc 1 443 13
	lw	a5,-52(s0)
	mv	a4,a5
	li	a5,1073741824
	and	a5,a4,a5
	sext.w	a5,a5
	.loc 1 443 6
	beq	a5,zero,.L43
	.loc 1 444 14
	li	a0,184
	call	AllocateRuntimeZeroPool@plt
	sd	a0,-32(s0)
	j	.L44
.L43:
	.loc 1 446 14
	li	a0,184
	call	AllocateZeroPool@plt
	sd	a0,-32(s0)
.L44:
	.loc 1 449 6
	ld	a5,-32(s0)
	bne	a5,zero,.L45
	.loc 1 450 12
	li	a5,-1
	slli	a5,a5,63
	addi	a5,a5,9
	j	.L28
.L45:
	.loc 1 453 21
	ld	a5,-32(s0)
	li	a4,1953394688
	addi	a4,a4,1637
	sd	a4,0(a5)
	.loc 1 454 16
	ld	a5,-32(s0)
	lw	a4,-52(s0)
	sw	a4,8(a5)
	.loc 1 456 21
	ld	a5,-32(s0)
	ld	a4,-64(s0)
	sd	a4,32(a5)
	.loc 1 457 26
	ld	a5,-32(s0)
	ld	a4,-72(s0)
	sd	a4,40(a5)
	.loc 1 458 25
	ld	a5,-32(s0)
	ld	a4,-80(s0)
	sd	a4,48(a5)
	.loc 1 459 6
	ld	a5,-88(s0)
	beq	a5,zero,.L46
	.loc 1 460 15
	ld	a5,-32(s0)
	addi	a5,a5,56
	.loc 1 460 5
	ld	a1,-88(s0)
	mv	a0,a5
	call	CopyGuid@plt
	.loc 1 461 11
	ld	a5,-32(s0)
	lbu	a5,88(a5)
	.loc 1 461 20
	ori	a5,a5,1
	andi	a4,a5,0xff
	ld	a5,-32(s0)
	sb	a4,88(a5)
.L46:
	.loc 1 464 10
	ld	a5,-96(s0)
	ld	a4,-32(s0)
	sd	a4,0(a5)
	.loc 1 466 13
	lw	a5,-52(s0)
	mv	a4,a5
	li	a5,1073741824
	and	a5,a4,a5
	sext.w	a5,a5
	.loc 1 466 6
	beq	a5,zero,.L47
	.loc 1 470 30
	ld	a5,-32(s0)
	lw	a4,-52(s0)
	sw	a4,96(a5)
	.loc 1 471 35
	ld	a5,-32(s0)
	ld	a4,-64(s0)
	sd	a4,104(a5)
	.loc 1 472 40
	ld	a5,-32(s0)
	ld	a4,-72(s0)
	sd	a4,112(a5)
	.loc 1 473 39
	ld	a5,-32(s0)
	ld	a4,-80(s0)
	sd	a4,120(a5)
	.loc 1 482 31
	ld	a5,-32(s0)
	ld	a4,-32(s0)
	sd	a4,128(a5)
	.loc 1 483 30
	la	a5,gRuntime
	ld	a5,0(a5)
	.loc 1 483 21
	addi	a4,a5,16
	.loc 1 483 43
	ld	a5,-32(s0)
	addi	a5,a5,136
	.loc 1 483 5
	mv	a1,a5
	mv	a0,a4
	call	InsertTailList@plt
.L47:
	.loc 1 486 3
	call	CoreAcquireEventLock
	.loc 1 488 13
	lw	a5,-52(s0)
	andi	a5,a5,512
	sext.w	a5,a5
	.loc 1 488 6
	beq	a5,zero,.L48
	.loc 1 492 5
	ld	a5,-32(s0)
	addi	a5,a5,16
	mv	a1,a5
	lla	a0,gEventSignalQueue
	call	InsertHeadList@plt
.L48:
	.loc 1 495 3
	call	CoreReleaseEventLock
	.loc 1 500 10
	li	a5,0
.L28:
	.loc 1 501 1
	mv	a0,a5
	ld	ra,88(sp)
	.cfi_restore 1
	ld	s0,80(sp)
	.cfi_restore 8
	.cfi_def_cfa 2, 96
	addi	sp,sp,96
	.cfi_def_cfa_offset 0
	jr	ra
	.cfi_endproc
.LFE8:
	.size	CoreCreateEventInternal, .-CoreCreateEventInternal
	.section	.text.CoreSignalEvent,"ax",@progbits
	.align	1
	.globl	CoreSignalEvent
	.type	CoreSignalEvent, @function
CoreSignalEvent:
.LFB9:
	.loc 1 517 1
	.cfi_startproc
	addi	sp,sp,-48
	.cfi_def_cfa_offset 48
	sd	ra,40(sp)
	sd	s0,32(sp)
	.cfi_offset 1, -8
	.cfi_offset 8, -16
	addi	s0,sp,48
	.cfi_def_cfa 8, 0
	sd	a0,-40(s0)
	.loc 1 520 9
	ld	a5,-40(s0)
	sd	a5,-24(s0)
	.loc 1 522 6
	ld	a5,-24(s0)
	bne	a5,zero,.L50
	.loc 1 523 12
	li	a5,-1
	slli	a5,a5,63
	addi	a5,a5,2
	j	.L51
.L50:
	.loc 1 526 12
	ld	a5,-24(s0)
	ld	a4,0(a5)
	.loc 1 526 6
	li	a5,1953394688
	addi	a5,a5,1637
	beq	a4,a5,.L52
	.loc 1 527 12
	li	a5,-1
	slli	a5,a5,63
	addi	a5,a5,2
	j	.L51
.L52:
	.loc 1 530 3
	call	CoreAcquireEventLock
	.loc 1 536 12
	ld	a5,-24(s0)
	lw	a5,12(a5)
	.loc 1 536 6
	bne	a5,zero,.L53
	.loc 1 537 10
	ld	a5,-24(s0)
	lw	a5,12(a5)
	.loc 1 537 23
	addiw	a5,a5,1
	sext.w	a4,a5
	ld	a5,-24(s0)
	sw	a4,12(a5)
	.loc 1 542 15
	ld	a5,-24(s0)
	lw	a5,8(a5)
	.loc 1 542 22
	andi	a5,a5,512
	sext.w	a5,a5
	.loc 1 542 8
	beq	a5,zero,.L53
	.loc 1 543 17
	ld	a5,-24(s0)
	lbu	a5,88(a5)
	.loc 1 543 26
	sext.w	a5,a5
	andi	a5,a5,1
	sext.w	a5,a5
	.loc 1 543 10
	beq	a5,zero,.L54
	.loc 1 548 9
	call	CoreReleaseEventLock
	.loc 1 549 9
	ld	a5,-24(s0)
	addi	a5,a5,56
	mv	a0,a5
	call	CoreNotifySignalList
	.loc 1 550 9
	call	CoreAcquireEventLock
	j	.L53
.L54:
	.loc 1 552 9
	ld	a0,-24(s0)
	call	CoreNotifyEvent
.L53:
	.loc 1 557 3
	call	CoreReleaseEventLock
	.loc 1 558 10
	li	a5,0
.L51:
	.loc 1 559 1
	mv	a0,a5
	ld	ra,40(sp)
	.cfi_restore 1
	ld	s0,32(sp)
	.cfi_restore 8
	.cfi_def_cfa 2, 48
	addi	sp,sp,48
	.cfi_def_cfa_offset 0
	jr	ra
	.cfi_endproc
.LFE9:
	.size	CoreSignalEvent, .-CoreSignalEvent
	.section	.text.CoreCheckEvent,"ax",@progbits
	.align	1
	.globl	CoreCheckEvent
	.type	CoreCheckEvent, @function
CoreCheckEvent:
.LFB10:
	.loc 1 576 1
	.cfi_startproc
	addi	sp,sp,-48
	.cfi_def_cfa_offset 48
	sd	ra,40(sp)
	sd	s0,32(sp)
	.cfi_offset 1, -8
	.cfi_offset 8, -16
	addi	s0,sp,48
	.cfi_def_cfa 8, 0
	sd	a0,-40(s0)
	.loc 1 580 9
	ld	a5,-40(s0)
	sd	a5,-32(s0)
	.loc 1 582 6
	ld	a5,-32(s0)
	bne	a5,zero,.L56
	.loc 1 583 12
	li	a5,-1
	slli	a5,a5,63
	addi	a5,a5,2
	j	.L57
.L56:
	.loc 1 586 12
	ld	a5,-32(s0)
	ld	a4,0(a5)
	.loc 1 586 6
	li	a5,1953394688
	addi	a5,a5,1637
	beq	a4,a5,.L58
	.loc 1 587 12
	li	a5,-1
	slli	a5,a5,63
	addi	a5,a5,2
	j	.L57
.L58:
	.loc 1 590 13
	ld	a5,-32(s0)
	lw	a5,8(a5)
	.loc 1 590 20
	andi	a5,a5,512
	sext.w	a5,a5
	.loc 1 590 6
	beq	a5,zero,.L59
	.loc 1 591 12
	li	a5,-1
	slli	a5,a5,63
	addi	a5,a5,2
	j	.L57
.L59:
	.loc 1 594 10
	li	a5,-1
	slli	a5,a5,63
	addi	a5,a5,6
	sd	a5,-24(s0)
	.loc 1 596 13
	ld	a5,-32(s0)
	lw	a5,12(a5)
	.loc 1 596 6
	bne	a5,zero,.L60
	.loc 1 596 43 discriminator 1
	ld	a5,-32(s0)
	lw	a5,8(a5)
	.loc 1 596 50 discriminator 1
	andi	a5,a5,256
	sext.w	a5,a5
	.loc 1 596 33 discriminator 1
	beq	a5,zero,.L60
	.loc 1 600 5
	call	CoreAcquireEventLock
	.loc 1 601 14
	ld	a5,-32(s0)
	lw	a5,12(a5)
	.loc 1 601 8
	bne	a5,zero,.L61
	.loc 1 602 7
	ld	a0,-32(s0)
	call	CoreNotifyEvent
.L61:
	.loc 1 605 5
	call	CoreReleaseEventLock
.L60:
	.loc 1 612 12
	ld	a5,-32(s0)
	lw	a5,12(a5)
	.loc 1 612 6
	beq	a5,zero,.L62
	.loc 1 613 5
	call	CoreAcquireEventLock
	.loc 1 615 14
	ld	a5,-32(s0)
	lw	a5,12(a5)
	.loc 1 615 8
	beq	a5,zero,.L63
	.loc 1 616 26
	ld	a5,-32(s0)
	sw	zero,12(a5)
	.loc 1 617 14
	sd	zero,-24(s0)
.L63:
	.loc 1 620 5
	call	CoreReleaseEventLock
.L62:
	.loc 1 623 10
	ld	a5,-24(s0)
.L57:
	.loc 1 624 1
	mv	a0,a5
	ld	ra,40(sp)
	.cfi_restore 1
	ld	s0,32(sp)
	.cfi_restore 8
	.cfi_def_cfa 2, 48
	addi	sp,sp,48
	.cfi_def_cfa_offset 0
	jr	ra
	.cfi_endproc
.LFE10:
	.size	CoreCheckEvent, .-CoreCheckEvent
	.section	.text.CoreWaitForEvent,"ax",@progbits
	.align	1
	.globl	CoreWaitForEvent
	.type	CoreWaitForEvent, @function
CoreWaitForEvent:
.LFB11:
	.loc 1 647 1
	.cfi_startproc
	addi	sp,sp,-64
	.cfi_def_cfa_offset 64
	sd	ra,56(sp)
	sd	s0,48(sp)
	.cfi_offset 1, -8
	.cfi_offset 8, -16
	addi	s0,sp,64
	.cfi_def_cfa 8, 0
	sd	a0,-40(s0)
	sd	a1,-48(s0)
	sd	a2,-56(s0)
	.loc 1 654 22
	lla	a5,gEfiCurrentTpl
	ld	a4,0(a5)
	.loc 1 654 6
	li	a5,4
	beq	a4,a5,.L65
	.loc 1 655 12
	li	a5,-1
	slli	a5,a5,63
	addi	a5,a5,3
	j	.L66
.L65:
	.loc 1 658 6
	ld	a5,-40(s0)
	bne	a5,zero,.L67
	.loc 1 659 12
	li	a5,-1
	slli	a5,a5,63
	addi	a5,a5,2
	j	.L66
.L67:
	.loc 1 662 6
	ld	a5,-48(s0)
	bne	a5,zero,.L68
	.loc 1 663 12
	li	a5,-1
	slli	a5,a5,63
	addi	a5,a5,2
	j	.L66
.L68:
	.loc 1 667 16
	sd	zero,-24(s0)
	.loc 1 667 5
	j	.L69
.L72:
	.loc 1 668 42
	ld	a5,-24(s0)
	slli	a5,a5,3
	ld	a4,-48(s0)
	add	a5,a4,a5
	.loc 1 668 16
	ld	a5,0(a5)
	mv	a0,a5
	call	CoreCheckEvent
	sd	a0,-32(s0)
	.loc 1 673 10
	ld	a4,-32(s0)
	li	a5,-1
	slli	a5,a5,63
	addi	a5,a5,6
	beq	a4,a5,.L70
	.loc 1 674 12
	ld	a5,-56(s0)
	beq	a5,zero,.L71
	.loc 1 675 22
	ld	a5,-56(s0)
	ld	a4,-24(s0)
	sd	a4,0(a5)
.L71:
	.loc 1 678 16
	ld	a5,-32(s0)
	j	.L66
.L70:
	.loc 1 667 50 discriminator 2
	ld	a5,-24(s0)
	addi	a5,a5,1
	sd	a5,-24(s0)
.L69:
	.loc 1 667 27 discriminator 1
	ld	a4,-24(s0)
	ld	a5,-40(s0)
	bltu	a4,a5,.L72
	.loc 1 685 5
	lla	a5,gIdleLoopEvent
	ld	a5,0(a5)
	mv	a0,a5
	call	CoreSignalEvent
	.loc 1 667 16
	j	.L68
.L66:
	.loc 1 687 1
	mv	a0,a5
	ld	ra,56(sp)
	.cfi_restore 1
	ld	s0,48(sp)
	.cfi_restore 8
	.cfi_def_cfa 2, 64
	addi	sp,sp,64
	.cfi_def_cfa_offset 0
	jr	ra
	.cfi_endproc
.LFE11:
	.size	CoreWaitForEvent, .-CoreWaitForEvent
	.section	.text.CoreCloseEvent,"ax",@progbits
	.align	1
	.globl	CoreCloseEvent
	.type	CoreCloseEvent, @function
CoreCloseEvent:
.LFB12:
	.loc 1 703 1
	.cfi_startproc
	addi	sp,sp,-48
	.cfi_def_cfa_offset 48
	sd	ra,40(sp)
	sd	s0,32(sp)
	.cfi_offset 1, -8
	.cfi_offset 8, -16
	addi	s0,sp,48
	.cfi_def_cfa 8, 0
	sd	a0,-40(s0)
	.loc 1 707 9
	ld	a5,-40(s0)
	sd	a5,-24(s0)
	.loc 1 709 6
	ld	a5,-24(s0)
	bne	a5,zero,.L74
	.loc 1 710 12
	li	a5,-1
	slli	a5,a5,63
	addi	a5,a5,2
	j	.L75
.L74:
	.loc 1 713 12
	ld	a5,-24(s0)
	ld	a4,0(a5)
	.loc 1 713 6
	li	a5,1953394688
	addi	a5,a5,1637
	beq	a4,a5,.L76
	.loc 1 714 12
	li	a5,-1
	slli	a5,a5,63
	addi	a5,a5,2
	j	.L75
.L76:
	.loc 1 720 13
	ld	a5,-24(s0)
	lw	a5,8(a5)
	.loc 1 720 6
	bge	a5,zero,.L77
	.loc 1 721 5
	li	a2,0
	li	a1,0
	ld	a0,-24(s0)
	call	CoreSetTimer@plt
.L77:
	.loc 1 724 3
	call	CoreAcquireEventLock
	.loc 1 730 30
	ld	a5,-24(s0)
	ld	a5,136(a5)
	.loc 1 730 6
	beq	a5,zero,.L78
	.loc 1 731 22
	ld	a5,-24(s0)
	addi	a5,a5,136
	.loc 1 731 5
	mv	a0,a5
	call	RemoveEntryList@plt
.L78:
	.loc 1 734 24
	ld	a5,-24(s0)
	ld	a5,72(a5)
	.loc 1 734 6
	beq	a5,zero,.L79
	.loc 1 735 22
	ld	a5,-24(s0)
	addi	a5,a5,72
	.loc 1 735 5
	mv	a0,a5
	call	RemoveEntryList@plt
.L79:
	.loc 1 738 24
	ld	a5,-24(s0)
	ld	a5,16(a5)
	.loc 1 738 6
	beq	a5,zero,.L80
	.loc 1 739 22
	ld	a5,-24(s0)
	addi	a5,a5,16
	.loc 1 739 5
	mv	a0,a5
	call	RemoveEntryList@plt
.L80:
	.loc 1 742 3
	call	CoreReleaseEventLock
	.loc 1 747 13
	ld	a5,-24(s0)
	lbu	a5,88(a5)
	.loc 1 747 22
	sext.w	a5,a5
	andi	a5,a5,2
	sext.w	a5,a5
	.loc 1 747 6
	beq	a5,zero,.L81
	.loc 1 748 5
	ld	a0,-24(s0)
	call	CoreUnregisterProtocolNotify@plt
.L81:
	.loc 1 755 20
	ld	a5,-24(s0)
	sd	zero,0(a5)
	.loc 1 756 12
	ld	a0,-24(s0)
	call	CoreFreePool@plt
	sd	a0,-32(s0)
	.loc 1 759 10
	ld	a5,-32(s0)
.L75:
	.loc 1 760 1
	mv	a0,a5
	ld	ra,40(sp)
	.cfi_restore 1
	ld	s0,32(sp)
	.cfi_restore 8
	.cfi_def_cfa 2, 48
	addi	sp,sp,48
	.cfi_def_cfa_offset 0
	jr	ra
	.cfi_endproc
.LFE12:
	.size	CoreCloseEvent, .-CoreCloseEvent
	.text
.Letext0:
	.file 2 "/home/kapoagaeming/spacemit-image-builder/components/edk2/MdePkg/Include/RiscV64/ProcessorBind.h"
	.file 3 "/home/kapoagaeming/spacemit-image-builder/components/edk2/MdePkg/Include/Base.h"
	.file 4 "/home/kapoagaeming/spacemit-image-builder/components/edk2/MdePkg/Include/Uefi/UefiBaseType.h"
	.file 5 "/home/kapoagaeming/spacemit-image-builder/components/edk2/MdePkg/Include/Uefi/UefiSpec.h"
	.file 6 "/home/kapoagaeming/spacemit-image-builder/components/edk2/MdePkg/Include/Uefi/UefiMultiPhase.h"
	.file 7 "/home/kapoagaeming/spacemit-image-builder/components/Build/Milk-V-Jupiter/RELEASE_GCC5/RISCV64/MdeModulePkg/Core/Dxe/DxeMain/DEBUG/AutoGen.h"
	.file 8 "/home/kapoagaeming/spacemit-image-builder/components/edk2/MdePkg/Include/Protocol/Runtime.h"
	.file 9 "/home/kapoagaeming/spacemit-image-builder/components/edk2/MdePkg/Include/Library/UefiLib.h"
	.file 10 "/home/kapoagaeming/spacemit-image-builder/components/edk2/MdeModulePkg/Core/Dxe/DxeMain.h"
	.file 11 "/home/kapoagaeming/spacemit-image-builder/components/edk2/MdeModulePkg/Core/Dxe/Event/Event.h"
	.file 12 "/home/kapoagaeming/spacemit-image-builder/components/edk2/MdePkg/Include/Library/BaseLib.h"
	.file 13 "/home/kapoagaeming/spacemit-image-builder/components/edk2/MdePkg/Include/Library/BaseMemoryLib.h"
	.file 14 "/home/kapoagaeming/spacemit-image-builder/components/edk2/MdePkg/Include/Library/MemoryAllocationLib.h"
	.section	.note.GNU-stack,"",@progbits
