	.file	"Timer.c"
	.option pic
	.option norelax
	.attribute arch, "rv64i2p1_m2p0_a2p1_f2p2_d2p2_c2p0_zicsr2p0_zifencei2p0_zmmul1p0_zaamo1p0_zalrsc1p0_zca1p0_zcd1p0"
	.attribute unaligned_access, 0
	.attribute stack_align, 16
	.text
.Ltext0:
	.cfi_sections	.debug_frame
	.file 0 "/home/kapoagaeming/spacemit-image-builder/components/Build/Milk-V-Jupiter/RELEASE_GCC5/RISCV64/MdeModulePkg/Core/Dxe/DxeMain" "/home/kapoagaeming/spacemit-image-builder/components/edk2/MdeModulePkg/Core/Dxe/Event/Timer.c"
	.globl	mEfiTimerList
	.section	.data.rel.local.mEfiTimerList,"aw"
	.align	3
	.type	mEfiTimerList, @object
	.size	mEfiTimerList, 16
mEfiTimerList:
	.dword	mEfiTimerList
	.dword	mEfiTimerList
	.globl	mEfiTimerLock
	.section	.data.mEfiTimerLock,"aw"
	.align	3
	.type	mEfiTimerLock, @object
	.size	mEfiTimerLock, 24
mEfiTimerLock:
	.dword	30
	.dword	4
	.word	1
	.zero	4
	.globl	mEfiCheckTimerEvent
	.section	.bss.mEfiCheckTimerEvent,"aw",@nobits
	.align	3
	.type	mEfiCheckTimerEvent, @object
	.size	mEfiCheckTimerEvent, 8
mEfiCheckTimerEvent:
	.zero	8
	.globl	mEfiSystemTimeLock
	.section	.data.mEfiSystemTimeLock,"aw"
	.align	3
	.type	mEfiSystemTimeLock, @object
	.size	mEfiSystemTimeLock, 24
mEfiSystemTimeLock:
	.dword	31
	.dword	4
	.word	1
	.zero	4
	.globl	mEfiSystemTime
	.section	.bss.mEfiSystemTime,"aw",@nobits
	.align	3
	.type	mEfiSystemTime, @object
	.size	mEfiSystemTime, 8
mEfiSystemTime:
	.zero	8
	.section	.text.CoreInsertEventTimer,"ax",@progbits
	.align	1
	.globl	CoreInsertEventTimer
	.type	CoreInsertEventTimer, @function
CoreInsertEventTimer:
.LFB0:
	.file 1 "/home/kapoagaeming/spacemit-image-builder/components/edk2/MdeModulePkg/Core/Dxe/Event/Timer.c"
	.loc 1 38 1
	.cfi_startproc
	addi	sp,sp,-64
	.cfi_def_cfa_offset 64
	sd	ra,56(sp)
	sd	s0,48(sp)
	.cfi_offset 1, -8
	.cfi_offset 8, -16
	addi	s0,sp,64
	.cfi_def_cfa 8, 0
	sd	a0,-56(s0)
	.loc 1 48 15
	ld	a5,-56(s0)
	ld	a5,168(a5)
	sd	a5,-40(s0)
	.loc 1 53 13
	lla	a5,mEfiTimerList
	ld	a5,0(a5)
	sd	a5,-24(s0)
	.loc 1 53 3
	j	.L2
.L7:
	.loc 1 54 16
	ld	a5,-24(s0)
	addi	a5,a5,-152
	.loc 1 54 106
	ld	a4,0(a5)
	.loc 1 54 191
	li	a5,1953394688
	addi	a5,a5,1637
	bne	a4,a5,.L3
	.loc 1 54 12 discriminator 1
	ld	a5,-24(s0)
	addi	a5,a5,-152
	sd	a5,-32(s0)
	j	.L4
.L3:
	.loc 1 54 12 is_stmt 0 discriminator 2
	sd	zero,-32(s0)
.L4:
	.loc 1 56 22 is_stmt 1
	ld	a5,-32(s0)
	ld	a5,168(a5)
	.loc 1 56 8
	ld	a4,-40(s0)
	bltu	a4,a5,.L8
	.loc 1 53 71 discriminator 2
	ld	a5,-24(s0)
	ld	a5,0(a5)
	sd	a5,-24(s0)
.L2:
	.loc 1 53 47 discriminator 1
	ld	a4,-24(s0)
	lla	a5,mEfiTimerList
	bne	a4,a5,.L7
	j	.L6
.L8:
	.loc 1 57 7
	nop
.L6:
	.loc 1 61 3
	ld	a5,-56(s0)
	addi	a5,a5,152
	mv	a1,a5
	ld	a0,-24(s0)
	call	InsertTailList@plt
	.loc 1 62 1
	nop
	ld	ra,56(sp)
	.cfi_restore 1
	ld	s0,48(sp)
	.cfi_restore 8
	.cfi_def_cfa 2, 64
	addi	sp,sp,64
	.cfi_def_cfa_offset 0
	jr	ra
	.cfi_endproc
.LFE0:
	.size	CoreInsertEventTimer, .-CoreInsertEventTimer
	.section	.text.CoreCurrentSystemTime,"ax",@progbits
	.align	1
	.globl	CoreCurrentSystemTime
	.type	CoreCurrentSystemTime, @function
CoreCurrentSystemTime:
.LFB1:
	.loc 1 74 1
	.cfi_startproc
	addi	sp,sp,-32
	.cfi_def_cfa_offset 32
	sd	ra,24(sp)
	sd	s0,16(sp)
	.cfi_offset 1, -8
	.cfi_offset 8, -16
	addi	s0,sp,32
	.cfi_def_cfa 8, 0
	.loc 1 77 3
	lla	a0,mEfiSystemTimeLock
	call	CoreAcquireLock@plt
	.loc 1 78 14
	lla	a5,mEfiSystemTime
	ld	a5,0(a5)
	sd	a5,-24(s0)
	.loc 1 79 3
	lla	a0,mEfiSystemTimeLock
	call	CoreReleaseLock@plt
	.loc 1 81 10
	ld	a5,-24(s0)
	.loc 1 82 1
	mv	a0,a5
	ld	ra,24(sp)
	.cfi_restore 1
	ld	s0,16(sp)
	.cfi_restore 8
	.cfi_def_cfa 2, 32
	addi	sp,sp,32
	.cfi_def_cfa_offset 0
	jr	ra
	.cfi_endproc
.LFE1:
	.size	CoreCurrentSystemTime, .-CoreCurrentSystemTime
	.section	.text.CoreCheckTimers,"ax",@progbits
	.align	1
	.globl	CoreCheckTimers
	.type	CoreCheckTimers, @function
CoreCheckTimers:
.LFB2:
	.loc 1 98 1
	.cfi_startproc
	addi	sp,sp,-48
	.cfi_def_cfa_offset 48
	sd	ra,40(sp)
	sd	s0,32(sp)
	.cfi_offset 1, -8
	.cfi_offset 8, -16
	addi	s0,sp,48
	.cfi_def_cfa 8, 0
	sd	a0,-40(s0)
	sd	a1,-48(s0)
	.loc 1 105 3
	lla	a0,mEfiTimerLock
	call	CoreAcquireLock@plt
	.loc 1 106 16
	call	CoreCurrentSystemTime
	sd	a0,-32(s0)
	.loc 1 108 9
	j	.L17
.L19:
	.loc 1 109 60
	lla	a5,mEfiTimerList
	ld	a5,0(a5)
	.loc 1 109 15
	addi	a5,a5,-152
	.loc 1 109 126
	ld	a4,0(a5)
	.loc 1 109 211
	li	a5,1953394688
	addi	a5,a5,1637
	bne	a4,a5,.L13
	.loc 1 109 259 discriminator 1
	lla	a5,mEfiTimerList
	ld	a5,0(a5)
	.loc 1 109 11 discriminator 1
	addi	a5,a5,-152
	sd	a5,-24(s0)
	j	.L14
.L13:
	.loc 1 109 11 is_stmt 0 discriminator 2
	sd	zero,-24(s0)
.L14:
	.loc 1 114 21 is_stmt 1
	ld	a5,-24(s0)
	ld	a5,168(a5)
	.loc 1 114 8
	ld	a4,-32(s0)
	bltu	a4,a5,.L20
	.loc 1 122 22
	ld	a5,-24(s0)
	addi	a5,a5,152
	.loc 1 122 5
	mv	a0,a5
	call	RemoveEntryList@plt
	.loc 1 123 35
	ld	a5,-24(s0)
	sd	zero,152(a5)
	.loc 1 128 5
	ld	a0,-24(s0)
	call	CoreSignalEvent@plt
	.loc 1 133 21
	ld	a5,-24(s0)
	ld	a5,176(a5)
	.loc 1 133 8
	beq	a5,zero,.L17
	.loc 1 137 46
	ld	a5,-24(s0)
	ld	a4,168(a5)
	.loc 1 137 73
	ld	a5,-24(s0)
	ld	a5,176(a5)
	.loc 1 137 59
	add	a4,a4,a5
	.loc 1 137 32
	ld	a5,-24(s0)
	sd	a4,168(a5)
	.loc 1 142 23
	ld	a5,-24(s0)
	ld	a5,168(a5)
	.loc 1 142 10
	ld	a4,-32(s0)
	bltu	a4,a5,.L18
	.loc 1 143 34
	ld	a5,-24(s0)
	ld	a4,-32(s0)
	sd	a4,168(a5)
	.loc 1 144 9
	lla	a5,mEfiCheckTimerEvent
	ld	a5,0(a5)
	mv	a0,a5
	call	CoreSignalEvent@plt
.L18:
	.loc 1 150 7
	ld	a0,-24(s0)
	call	CoreInsertEventTimer
.L17:
	.loc 1 108 11
	lla	a0,mEfiTimerList
	call	IsListEmpty@plt
	mv	a5,a0
	.loc 1 108 10 discriminator 1
	beq	a5,zero,.L19
	j	.L16
.L20:
	.loc 1 115 7
	nop
.L16:
	.loc 1 154 3
	lla	a0,mEfiTimerLock
	call	CoreReleaseLock@plt
	.loc 1 155 1
	nop
	ld	ra,40(sp)
	.cfi_restore 1
	ld	s0,32(sp)
	.cfi_restore 8
	.cfi_def_cfa 2, 48
	addi	sp,sp,48
	.cfi_def_cfa_offset 0
	jr	ra
	.cfi_endproc
.LFE2:
	.size	CoreCheckTimers, .-CoreCheckTimers
	.section	.text.CoreInitializeTimer,"ax",@progbits
	.align	1
	.globl	CoreInitializeTimer
	.type	CoreInitializeTimer, @function
CoreInitializeTimer:
.LFB3:
	.loc 1 165 1
	.cfi_startproc
	addi	sp,sp,-32
	.cfi_def_cfa_offset 32
	sd	ra,24(sp)
	sd	s0,16(sp)
	.cfi_offset 1, -8
	.cfi_offset 8, -16
	addi	s0,sp,32
	.cfi_def_cfa 8, 0
	.loc 1 168 12
	lla	a5,mEfiCheckTimerEvent
	li	a4,0
	li	a3,0
	lla	a2,CoreCheckTimers
	li	a1,30
	li	a0,512
	call	CoreCreateEventInternal@plt
	sd	a0,-24(s0)
	.loc 1 177 1
	nop
	ld	ra,24(sp)
	.cfi_restore 1
	ld	s0,16(sp)
	.cfi_restore 8
	.cfi_def_cfa 2, 32
	addi	sp,sp,32
	.cfi_def_cfa_offset 0
	jr	ra
	.cfi_endproc
.LFE3:
	.size	CoreInitializeTimer, .-CoreInitializeTimer
	.section	.text.CoreTimerTick,"ax",@progbits
	.align	1
	.globl	CoreTimerTick
	.type	CoreTimerTick, @function
CoreTimerTick:
.LFB4:
	.loc 1 191 1
	.cfi_startproc
	addi	sp,sp,-48
	.cfi_def_cfa_offset 48
	sd	ra,40(sp)
	sd	s0,32(sp)
	.cfi_offset 1, -8
	.cfi_offset 8, -16
	addi	s0,sp,48
	.cfi_def_cfa 8, 0
	sd	a0,-40(s0)
	.loc 1 197 3
	lla	a0,mEfiSystemTimeLock
	call	CoreAcquireLock@plt
	.loc 1 202 18
	lla	a5,mEfiSystemTime
	ld	a4,0(a5)
	ld	a5,-40(s0)
	add	a4,a4,a5
	lla	a5,mEfiSystemTime
	sd	a4,0(a5)
	.loc 1 208 8
	lla	a0,mEfiTimerList
	call	IsListEmpty@plt
	mv	a5,a0
	.loc 1 208 6 discriminator 1
	bne	a5,zero,.L23
	.loc 1 209 60
	lla	a5,mEfiTimerList
	ld	a5,0(a5)
	.loc 1 209 15
	addi	a5,a5,-152
	.loc 1 209 126
	ld	a4,0(a5)
	.loc 1 209 211
	li	a5,1953394688
	addi	a5,a5,1637
	bne	a4,a5,.L24
	.loc 1 209 259 discriminator 1
	lla	a5,mEfiTimerList
	ld	a5,0(a5)
	.loc 1 209 11 discriminator 1
	addi	a5,a5,-152
	sd	a5,-24(s0)
	j	.L25
.L24:
	.loc 1 209 11 is_stmt 0 discriminator 2
	sd	zero,-24(s0)
.L25:
	.loc 1 211 21 is_stmt 1
	ld	a5,-24(s0)
	ld	a4,168(a5)
	.loc 1 211 34
	lla	a5,mEfiSystemTime
	ld	a5,0(a5)
	.loc 1 211 8
	bgtu	a4,a5,.L23
	.loc 1 212 7
	lla	a5,mEfiCheckTimerEvent
	ld	a5,0(a5)
	mv	a0,a5
	call	CoreSignalEvent@plt
.L23:
	.loc 1 216 3
	lla	a0,mEfiSystemTimeLock
	call	CoreReleaseLock@plt
	.loc 1 217 1
	nop
	ld	ra,40(sp)
	.cfi_restore 1
	ld	s0,32(sp)
	.cfi_restore 8
	.cfi_def_cfa 2, 48
	addi	sp,sp,48
	.cfi_def_cfa_offset 0
	jr	ra
	.cfi_endproc
.LFE4:
	.size	CoreTimerTick, .-CoreTimerTick
	.section	.text.CoreSetTimer,"ax",@progbits
	.align	1
	.globl	CoreSetTimer
	.type	CoreSetTimer, @function
CoreSetTimer:
.LFB5:
	.loc 1 241 1
	.cfi_startproc
	addi	sp,sp,-64
	.cfi_def_cfa_offset 64
	sd	ra,56(sp)
	sd	s0,48(sp)
	.cfi_offset 1, -8
	.cfi_offset 8, -16
	addi	s0,sp,64
	.cfi_def_cfa 8, 0
	sd	a0,-40(s0)
	mv	a5,a1
	sd	a2,-56(s0)
	sw	a5,-44(s0)
	.loc 1 244 9
	ld	a5,-40(s0)
	sd	a5,-24(s0)
	.loc 1 246 6
	ld	a5,-24(s0)
	bne	a5,zero,.L27
	.loc 1 247 12
	li	a5,-1
	slli	a5,a5,63
	addi	a5,a5,2
	j	.L28
.L27:
	.loc 1 250 12
	ld	a5,-24(s0)
	ld	a4,0(a5)
	.loc 1 250 6
	li	a5,1953394688
	addi	a5,a5,1637
	beq	a4,a5,.L29
	.loc 1 251 12
	li	a5,-1
	slli	a5,a5,63
	addi	a5,a5,2
	j	.L28
.L29:
	.loc 1 254 6
	lw	a5,-44(s0)
	sext.w	a4,a5
	li	a5,2
	bgtu	a4,a5,.L30
	.loc 1 254 48 discriminator 1
	ld	a5,-24(s0)
	lw	a5,8(a5)
	.loc 1 254 38 discriminator 1
	blt	a5,zero,.L31
.L30:
	.loc 1 255 12
	li	a5,-1
	slli	a5,a5,63
	addi	a5,a5,2
	j	.L28
.L31:
	.loc 1 258 3
	lla	a0,mEfiTimerLock
	call	CoreAcquireLock@plt
	.loc 1 263 24
	ld	a5,-24(s0)
	ld	a5,152(a5)
	.loc 1 263 6
	beq	a5,zero,.L32
	.loc 1 264 22
	ld	a5,-24(s0)
	addi	a5,a5,152
	.loc 1 264 5
	mv	a0,a5
	call	RemoveEntryList@plt
	.loc 1 265 35
	ld	a5,-24(s0)
	sd	zero,152(a5)
.L32:
	.loc 1 268 28
	ld	a5,-24(s0)
	sd	zero,168(a5)
	.loc 1 269 23
	ld	a5,-24(s0)
	sd	zero,176(a5)
	.loc 1 271 6
	lw	a5,-44(s0)
	sext.w	a5,a5
	beq	a5,zero,.L33
	.loc 1 272 8
	lw	a5,-44(s0)
	sext.w	a4,a5
	li	a5,1
	bne	a4,a5,.L34
	.loc 1 273 23
	ld	a5,-56(s0)
	.loc 1 273 10
	bne	a5,zero,.L35
	.loc 1 274 15
	la	a5,gTimer
	ld	a5,0(a5)
	ld	a5,16(a5)
	.loc 1 274 9
	la	a4,gTimer
	ld	a4,0(a4)
	addi	a3,s0,-56
	mv	a1,a3
	mv	a0,a4
	jalr	a5
.LVL0:
.L35:
	.loc 1 277 27
	ld	a4,-56(s0)
	ld	a5,-24(s0)
	sd	a4,176(a5)
.L34:
	.loc 1 280 32
	call	CoreCurrentSystemTime
	mv	a4,a0
	.loc 1 280 57 discriminator 1
	ld	a5,-56(s0)
	add	a4,a4,a5
	.loc 1 280 30 discriminator 1
	ld	a5,-24(s0)
	sd	a4,168(a5)
	.loc 1 281 5
	ld	a0,-24(s0)
	call	CoreInsertEventTimer
	.loc 1 283 21
	ld	a5,-56(s0)
	.loc 1 283 8
	bne	a5,zero,.L33
	.loc 1 284 7
	lla	a5,mEfiCheckTimerEvent
	ld	a5,0(a5)
	mv	a0,a5
	call	CoreSignalEvent@plt
.L33:
	.loc 1 288 3
	lla	a0,mEfiTimerLock
	call	CoreReleaseLock@plt
	.loc 1 290 10
	li	a5,0
.L28:
	.loc 1 291 1
	mv	a0,a5
	ld	ra,56(sp)
	.cfi_restore 1
	ld	s0,48(sp)
	.cfi_restore 8
	.cfi_def_cfa 2, 64
	addi	sp,sp,64
	.cfi_def_cfa_offset 0
	jr	ra
	.cfi_endproc
.LFE5:
	.size	CoreSetTimer, .-CoreSetTimer
	.text
.Letext0:
	.file 2 "/home/kapoagaeming/spacemit-image-builder/components/edk2/MdePkg/Include/RiscV64/ProcessorBind.h"
	.file 3 "/home/kapoagaeming/spacemit-image-builder/components/edk2/MdePkg/Include/Base.h"
	.file 4 "/home/kapoagaeming/spacemit-image-builder/components/edk2/MdePkg/Include/Uefi/UefiBaseType.h"
	.file 5 "/home/kapoagaeming/spacemit-image-builder/components/edk2/MdePkg/Include/Uefi/UefiSpec.h"
	.file 6 "/home/kapoagaeming/spacemit-image-builder/components/edk2/MdePkg/Include/Uefi/UefiMultiPhase.h"
	.file 7 "/home/kapoagaeming/spacemit-image-builder/components/edk2/MdePkg/Include/Protocol/Runtime.h"
	.file 8 "/home/kapoagaeming/spacemit-image-builder/components/edk2/MdePkg/Include/Protocol/Timer.h"
	.file 9 "/home/kapoagaeming/spacemit-image-builder/components/edk2/MdePkg/Include/Library/UefiLib.h"
	.file 10 "/home/kapoagaeming/spacemit-image-builder/components/edk2/MdeModulePkg/Core/Dxe/Event/Event.h"
	.file 11 "/home/kapoagaeming/spacemit-image-builder/components/edk2/MdeModulePkg/Core/Dxe/DxeMain.h"
	.file 12 "/home/kapoagaeming/spacemit-image-builder/components/edk2/MdePkg/Include/Library/BaseLib.h"
	.section	.note.GNU-stack,"",@progbits
