	.file	"DirectoryManage.c"
	.option pic
	.option norelax
	.attribute arch, "rv64i2p1_m2p0_a2p1_f2p2_d2p2_c2p0_zicsr2p0_zifencei2p0_zmmul1p0_zaamo1p0_zalrsc1p0_zca1p0_zcd1p0"
	.attribute unaligned_access, 0
	.attribute stack_align, 16
	.text
.Ltext0:
	.cfi_sections	.debug_frame
	.file 0 "/home/kapoagaeming/Downloads/spacemit-image-builder/components/Build/Milk-V-Jupiter/RELEASE_GCC5/RISCV64/FatPkg/EnhancedFatDxe/Fat" "/home/kapoagaeming/Downloads/spacemit-image-builder/components/edk2/FatPkg/EnhancedFatDxe/DirectoryManage.c"
	.section	.text.FatAccessEntry,"ax",@progbits
	.align	1
	.type	FatAccessEntry, @function
FatAccessEntry:
.LFB0:
	.file 1 "/home/kapoagaeming/Downloads/spacemit-image-builder/components/edk2/FatPkg/EnhancedFatDxe/DirectoryManage.c"
	.loc 1 32 1
	.cfi_startproc
	addi	sp,sp,-64
	.cfi_def_cfa_offset 64
	sd	ra,56(sp)
	sd	s0,48(sp)
	.cfi_offset 1, -8
	.cfi_offset 8, -16
	addi	s0,sp,64
	.cfi_def_cfa 8, 0
	sd	a0,-40(s0)
	mv	a5,a1
	sd	a2,-56(s0)
	sd	a3,-64(s0)
	sw	a5,-44(s0)
	.loc 1 36 12
	ld	a5,-56(s0)
	slli	a5,a5,5
	sd	a5,-24(s0)
	.loc 1 37 25
	ld	a5,-40(s0)
	ld	a5,40(a5)
	.loc 1 37 6
	ld	a4,-24(s0)
	bltu	a4,a5,.L2
	.loc 1 42 49
	ld	a5,-64(s0)
	sb	zero,0(a5)
	.loc 1 43 48
	ld	a5,-64(s0)
	sb	zero,11(a5)
	.loc 1 44 12
	li	a5,0
	j	.L4
.L2:
	.loc 1 47 14
	li	a5,32
	sd	a5,-32(s0)
	.loc 1 48 10
	addi	a3,s0,-32
	lw	a1,-44(s0)
	li	a5,0
	ld	a4,-64(s0)
	ld	a2,-24(s0)
	ld	a0,-40(s0)
	call	FatAccessOFile@plt
	mv	a5,a0
.L4:
	.loc 1 49 1
	mv	a0,a5
	ld	ra,56(sp)
	.cfi_restore 1
	ld	s0,48(sp)
	.cfi_restore 8
	.cfi_def_cfa 2, 64
	addi	sp,sp,64
	.cfi_def_cfa_offset 0
	jr	ra
	.cfi_endproc
.LFE0:
	.size	FatAccessEntry, .-FatAccessEntry
	.section	.text.FatStoreDirEnt,"ax",@progbits
	.align	1
	.globl	FatStoreDirEnt
	.type	FatStoreDirEnt, @function
FatStoreDirEnt:
.LFB1:
	.loc 1 67 1
	.cfi_startproc
	addi	sp,sp,-624
	.cfi_def_cfa_offset 624
	sd	ra,616(sp)
	sd	s0,608(sp)
	.cfi_offset 1, -8
	.cfi_offset 8, -16
	addi	s0,sp,624
	.cfi_def_cfa 8, 0
	sd	a0,-616(s0)
	sd	a1,-624(s0)
	.loc 1 76 20
	ld	a5,-624(s0)
	lhu	a5,8(a5)
	.loc 1 76 12
	sd	a5,-24(s0)
	.loc 1 77 14
	ld	a5,-624(s0)
	lbu	a5,10(a5)
	sb	a5,-34(s0)
	.loc 1 81 56
	ld	a5,-624(s0)
	addi	a5,a5,64
	.loc 1 81 12
	mv	a3,a5
	ld	a2,-24(s0)
	li	a1,7
	ld	a0,-616(s0)
	call	FatAccessEntry
	sd	a0,-48(s0)
	.loc 1 82 34
	ld	a5,-48(s0)
	.loc 1 82 6
	bge	a5,zero,.L6
	.loc 1 83 12
	ld	a5,-48(s0)
	j	.L15
.L6:
	.loc 1 86 6
	lbu	a5,-34(s0)
	addiw	a5,a5,-1
	sb	a5,-34(s0)
	lbu	a5,-34(s0)
	andi	a5,a5,0xff
	beq	a5,zero,.L8
	.loc 1 90 5
	lbu	a4,-34(s0)
	.loc 1 90 54
	li	a5,26
	mul	a4,a4,a5
	.loc 1 90 5
	addi	a5,s0,-608
	li	a2,255
	mv	a1,a4
	mv	a0,a5
	call	SetMem@plt
	.loc 1 94 22
	ld	a5,-624(s0)
	ld	a4,16(a5)
	.loc 1 91 14
	addi	a5,s0,-608
	mv	a2,a4
	li	a1,261
	mv	a0,a5
	call	StrCpyS@plt
	sd	a0,-48(s0)
	.loc 1 96 36
	ld	a5,-48(s0)
	.loc 1 96 8
	bge	a5,zero,.L9
	.loc 1 97 14
	ld	a5,-48(s0)
	j	.L15
.L9:
	.loc 1 100 22
	addi	a5,s0,-608
	sd	a5,-32(s0)
	.loc 1 101 25
	li	a5,15
	sb	a5,-69(s0)
	.loc 1 102 19
	sb	zero,-68(s0)
	.loc 1 103 25
	sh	zero,-54(s0)
	.loc 1 104 51
	ld	a5,-624(s0)
	addi	a5,a5,64
	.loc 1 104 25
	mv	a0,a5
	call	FatCheckSum@plt
	mv	a5,a0
	.loc 1 104 23 discriminator 1
	sb	a5,-67(s0)
	.loc 1 105 21
	li	a5,1
	sb	a5,-33(s0)
	.loc 1 105 5
	j	.L10
.L14:
	.loc 1 106 24
	lbu	a5,-33(s0)
	sb	a5,-80(s0)
	.loc 1 107 10
	lbu	a5,-33(s0)
	mv	a4,a5
	lbu	a5,-34(s0)
	andi	a4,a4,0xff
	andi	a5,a5,0xff
	bne	a4,a5,.L11
	.loc 1 108 17
	lbu	a5,-80(s0)
	.loc 1 108 26
	ori	a5,a5,64
	andi	a5,a5,0xff
	sb	a5,-80(s0)
.L11:
	.loc 1 111 7
	addi	a5,s0,-80
	addi	a5,a5,1
	li	a2,10
	ld	a1,-32(s0)
	mv	a0,a5
	call	CopyMem@plt
	.loc 1 112 24
	ld	a5,-32(s0)
	addi	a5,a5,10
	sd	a5,-32(s0)
	.loc 1 113 7
	addi	a5,s0,-80
	addi	a5,a5,14
	li	a2,12
	ld	a1,-32(s0)
	mv	a0,a5
	call	CopyMem@plt
	.loc 1 114 24
	ld	a5,-32(s0)
	addi	a5,a5,12
	sd	a5,-32(s0)
	.loc 1 115 7
	addi	a5,s0,-80
	addi	a5,a5,28
	li	a2,4
	ld	a1,-32(s0)
	mv	a0,a5
	call	CopyMem@plt
	.loc 1 116 24
	ld	a5,-32(s0)
	addi	a5,a5,4
	sd	a5,-32(s0)
	.loc 1 117 15
	ld	a5,-24(s0)
	addi	a5,a5,-1
	sd	a5,-24(s0)
	.loc 1 118 17
	ld	a5,-624(s0)
	lbu	a5,11(a5)
	.loc 1 118 10
	beq	a5,zero,.L12
	.loc 1 119 26
	li	a5,-27
	sb	a5,-80(s0)
.L12:
	.loc 1 122 16
	addi	a5,s0,-80
	mv	a3,a5
	ld	a2,-24(s0)
	li	a1,7
	ld	a0,-616(s0)
	call	FatAccessEntry
	sd	a0,-48(s0)
	.loc 1 123 38
	ld	a5,-48(s0)
	.loc 1 123 10
	bge	a5,zero,.L13
	.loc 1 124 16
	ld	a5,-48(s0)
	j	.L15
.L13:
	.loc 1 105 62 discriminator 2
	lbu	a5,-33(s0)
	addiw	a5,a5,1
	sb	a5,-33(s0)
.L10:
	.loc 1 105 37 discriminator 1
	lbu	a5,-33(s0)
	mv	a4,a5
	lbu	a5,-34(s0)
	andi	a4,a4,0xff
	andi	a5,a5,0xff
	bleu	a4,a5,.L14
.L8:
	.loc 1 129 10
	li	a5,0
.L15:
	.loc 1 130 1
	mv	a0,a5
	ld	ra,616(sp)
	.cfi_restore 1
	ld	s0,608(sp)
	.cfi_restore 8
	.cfi_def_cfa 2, 624
	addi	sp,sp,624
	.cfi_def_cfa_offset 0
	jr	ra
	.cfi_endproc
.LFE1:
	.size	FatStoreDirEnt, .-FatStoreDirEnt
	.section	.rodata
	.align	3
.LC0:
	.string	"."
	.zero	2
	.align	3
.LC1:
	.string	"."
	.string	"."
	.zero	2
	.section	.text.FatIsDotDirEnt,"ax",@progbits
	.align	1
	.globl	FatIsDotDirEnt
	.type	FatIsDotDirEnt, @function
FatIsDotDirEnt:
.LFB2:
	.loc 1 146 1
	.cfi_startproc
	addi	sp,sp,-48
	.cfi_def_cfa_offset 48
	sd	ra,40(sp)
	sd	s0,32(sp)
	.cfi_offset 1, -8
	.cfi_offset 8, -16
	addi	s0,sp,48
	.cfi_def_cfa 8, 0
	sd	a0,-40(s0)
	.loc 1 149 14
	ld	a5,-40(s0)
	ld	a5,16(a5)
	sd	a5,-24(s0)
	.loc 1 150 8
	lla	a1,.LC0
	ld	a0,-24(s0)
	call	StrCmp@plt
	mv	a5,a0
	.loc 1 150 6 discriminator 1
	beq	a5,zero,.L17
	.loc 1 150 44 discriminator 2
	lla	a1,.LC1
	ld	a0,-24(s0)
	call	StrCmp@plt
	mv	a5,a0
	.loc 1 150 40 discriminator 3
	bne	a5,zero,.L18
.L17:
	.loc 1 151 12
	li	a5,1
	j	.L19
.L18:
	.loc 1 154 10
	li	a5,0
.L19:
	.loc 1 155 1
	mv	a0,a5
	ld	ra,40(sp)
	.cfi_restore 1
	ld	s0,32(sp)
	.cfi_restore 8
	.cfi_def_cfa 2, 48
	addi	sp,sp,48
	.cfi_def_cfa_offset 0
	jr	ra
	.cfi_endproc
.LFE2:
	.size	FatIsDotDirEnt, .-FatIsDotDirEnt
	.section	.text.FatSetDirEntCluster,"ax",@progbits
	.align	1
	.type	FatSetDirEntCluster, @function
FatSetDirEntCluster:
.LFB3:
	.loc 1 169 1
	.cfi_startproc
	addi	sp,sp,-48
	.cfi_def_cfa_offset 48
	sd	ra,40(sp)
	sd	s0,32(sp)
	.cfi_offset 1, -8
	.cfi_offset 8, -16
	addi	s0,sp,48
	.cfi_def_cfa 8, 0
	sd	a0,-40(s0)
	.loc 1 173 10
	ld	a5,-40(s0)
	ld	a5,160(a5)
	sd	a5,-24(s0)
	.loc 1 174 11
	ld	a5,-40(s0)
	ld	a5,48(a5)
	sd	a5,-32(s0)
	.loc 1 175 52
	ld	a5,-32(s0)
	srli	a5,a5,16
	.loc 1 175 35
	slli	a4,a5,48
	srli	a4,a4,48
	.loc 1 175 33
	ld	a5,-24(s0)
	sh	a4,84(a5)
	.loc 1 176 31
	ld	a5,-32(s0)
	slli	a4,a5,48
	srli	a4,a4,48
	.loc 1 176 29
	ld	a5,-24(s0)
	sh	a4,90(a5)
	.loc 1 177 1
	nop
	ld	ra,40(sp)
	.cfi_restore 1
	ld	s0,32(sp)
	.cfi_restore 8
	.cfi_def_cfa 2, 48
	addi	sp,sp,48
	.cfi_def_cfa_offset 0
	jr	ra
	.cfi_endproc
.LFE3:
	.size	FatSetDirEntCluster, .-FatSetDirEntCluster
	.section	.text.FatUpdateDirEntClusterSizeInfo,"ax",@progbits
	.align	1
	.globl	FatUpdateDirEntClusterSizeInfo
	.type	FatUpdateDirEntClusterSizeInfo, @function
FatUpdateDirEntClusterSizeInfo:
.LFB4:
	.loc 1 190 1
	.cfi_startproc
	addi	sp,sp,-32
	.cfi_def_cfa_offset 32
	sd	ra,24(sp)
	sd	s0,16(sp)
	.cfi_offset 1, -8
	.cfi_offset 8, -16
	addi	s0,sp,32
	.cfi_def_cfa 8, 0
	sd	a0,-24(s0)
	.loc 1 192 48
	ld	a5,-24(s0)
	ld	a4,40(a5)
	.loc 1 192 8
	ld	a5,-24(s0)
	ld	a5,160(a5)
	.loc 1 192 35
	sext.w	a4,a4
	.loc 1 192 33
	sw	a4,92(a5)
	.loc 1 193 3
	ld	a0,-24(s0)
	call	FatSetDirEntCluster
	.loc 1 194 1
	nop
	ld	ra,24(sp)
	.cfi_restore 1
	ld	s0,16(sp)
	.cfi_restore 8
	.cfi_def_cfa 2, 32
	addi	sp,sp,32
	.cfi_def_cfa_offset 0
	jr	ra
	.cfi_endproc
.LFE4:
	.size	FatUpdateDirEntClusterSizeInfo, .-FatUpdateDirEntClusterSizeInfo
	.section	.text.FatCloneDirEnt,"ax",@progbits
	.align	1
	.globl	FatCloneDirEnt
	.type	FatCloneDirEnt, @function
FatCloneDirEnt:
.LFB5:
	.loc 1 209 1
	.cfi_startproc
	addi	sp,sp,-48
	.cfi_def_cfa_offset 48
	sd	ra,40(sp)
	sd	s0,32(sp)
	.cfi_offset 1, -8
	.cfi_offset 8, -16
	addi	s0,sp,48
	.cfi_def_cfa 8, 0
	sd	a0,-40(s0)
	sd	a1,-48(s0)
	.loc 1 213 10
	ld	a5,-40(s0)
	addi	a5,a5,64
	sd	a5,-24(s0)
	.loc 1 214 10
	ld	a5,-48(s0)
	addi	a5,a5,64
	sd	a5,-32(s0)
	.loc 1 216 12
	ld	a5,-24(s0)
	addi	a4,a5,13
	.loc 1 217 12
	ld	a5,-32(s0)
	addi	a5,a5,13
	.loc 1 215 3
	li	a2,19
	mv	a1,a5
	mv	a0,a4
	call	CopyMem@plt
	.loc 1 220 1
	nop
	ld	ra,40(sp)
	.cfi_restore 1
	ld	s0,32(sp)
	.cfi_restore 8
	.cfi_def_cfa 2, 48
	addi	sp,sp,48
	.cfi_def_cfa_offset 0
	jr	ra
	.cfi_endproc
.LFE5:
	.size	FatCloneDirEnt, .-FatCloneDirEnt
	.section	.text.FatLoadLongNameEntry,"ax",@progbits
	.align	1
	.type	FatLoadLongNameEntry, @function
FatLoadLongNameEntry:
.LFB6:
	.loc 1 236 1
	.cfi_startproc
	addi	sp,sp,-640
	.cfi_def_cfa_offset 640
	sd	ra,632(sp)
	sd	s0,624(sp)
	.cfi_offset 1, -8
	.cfi_offset 8, -16
	addi	s0,sp,640
	.cfi_def_cfa 8, 0
	sd	a0,-632(s0)
	sd	a1,-640(s0)
	.loc 1 246 20
	ld	a5,-640(s0)
	lhu	a5,8(a5)
	.loc 1 246 12
	sd	a5,-32(s0)
	.loc 1 247 17
	ld	a5,-640(s0)
	addi	a5,a5,64
	sd	a5,-48(s0)
	.loc 1 248 20
	addi	a5,s0,-592
	sd	a5,-24(s0)
	.loc 1 252 17
	ld	a0,-48(s0)
	call	FatCheckSum@plt
	mv	a5,a0
	sb	a5,-49(s0)
	.loc 1 253 14
	li	a5,1
	sb	a5,-33(s0)
.L28:
	.loc 1 255 8
	ld	a5,-32(s0)
	bne	a5,zero,.L24
	.loc 1 256 24
	addi	a5,s0,-592
	sd	a5,-24(s0)
	.loc 1 257 7
	j	.L25
.L24:
	.loc 1 260 13
	ld	a5,-32(s0)
	addi	a5,a5,-1
	sd	a5,-32(s0)
	.loc 1 261 14
	addi	a5,s0,-624
	mv	a3,a5
	ld	a2,-32(s0)
	li	a1,6
	ld	a0,-632(s0)
	call	FatAccessEntry
	sd	a0,-64(s0)
	.loc 1 262 36
	ld	a5,-64(s0)
	.loc 1 262 8
	blt	a5,zero,.L26
	.loc 1 263 18
	lbu	a5,-613(s0)
	.loc 1 262 62 discriminator 1
	mv	a4,a5
	li	a5,15
	bne	a4,a5,.L26
	.loc 1 264 18
	lhu	a5,-598(s0)
	.loc 1 263 39
	bne	a5,zero,.L26
	.loc 1 265 18
	lbu	a4,-611(s0)
	.loc 1 264 36
	lbu	a5,-49(s0)
	andi	a5,a5,0xff
	bne	a5,a4,.L26
	.loc 1 266 19
	lbu	a5,-624(s0)
	sext.w	a5,a5
	.loc 1 266 28
	andi	a5,a5,-65
	sext.w	a4,a5
	.loc 1 266 39
	lbu	a5,-33(s0)
	sext.w	a5,a5
	.loc 1 265 44
	bne	a4,a5,.L26
	.loc 1 266 54
	lbu	a5,-33(s0)
	andi	a4,a5,0xff
	li	a5,20
	bleu	a4,a5,.L27
.L26:
	.loc 1 275 24
	addi	a5,s0,-592
	sd	a5,-24(s0)
	.loc 1 276 7
	j	.L25
.L27:
	.loc 1 279 5
	addi	a5,s0,-624
	addi	a5,a5,1
	li	a2,10
	mv	a1,a5
	ld	a0,-24(s0)
	call	CopyMem@plt
	.loc 1 280 22
	ld	a5,-24(s0)
	addi	a5,a5,10
	sd	a5,-24(s0)
	.loc 1 281 5
	addi	a5,s0,-624
	addi	a5,a5,14
	li	a2,12
	mv	a1,a5
	ld	a0,-24(s0)
	call	CopyMem@plt
	.loc 1 282 22
	ld	a5,-24(s0)
	addi	a5,a5,12
	sd	a5,-24(s0)
	.loc 1 283 5
	addi	a5,s0,-624
	addi	a5,a5,28
	li	a2,4
	mv	a1,a5
	ld	a0,-24(s0)
	call	CopyMem@plt
	.loc 1 284 22
	ld	a5,-24(s0)
	addi	a5,a5,4
	sd	a5,-24(s0)
	.loc 1 285 15
	lbu	a5,-33(s0)
	addiw	a5,a5,1
	sb	a5,-33(s0)
	.loc 1 286 21
	lbu	a5,-624(s0)
	.loc 1 286 30
	sext.w	a5,a5
	andi	a5,a5,64
	sext.w	a5,a5
	.loc 1 286 38
	beq	a5,zero,.L28
.L25:
	.loc 1 288 22
	ld	a5,-640(s0)
	lbu	a4,-33(s0)
	sb	a4,10(a5)
	.loc 1 292 21
	ld	a5,-24(s0)
	sh	zero,0(a5)
	.loc 1 293 6
	addi	a5,s0,-592
	ld	a4,-24(s0)
	bne	a4,a5,.L29
	.loc 1 298 5
	addi	a5,s0,-592
	li	a2,261
	mv	a1,a5
	ld	a0,-640(s0)
	call	FatGetFileNameViaCaseFlag@plt
.L29:
	.loc 1 305 24
	addi	a5,s0,-592
	mv	a0,a5
	call	StrSize@plt
	mv	a4,a0
	.loc 1 305 24 is_stmt 0 discriminator 1
	addi	a5,s0,-592
	mv	a1,a5
	mv	a0,a4
	call	AllocateCopyPool@plt
	mv	a4,a0
	.loc 1 305 22 is_stmt 1 discriminator 2
	ld	a5,-640(s0)
	sd	a4,16(a5)
	.loc 1 306 1
	nop
	ld	ra,632(sp)
	.cfi_restore 1
	ld	s0,624(sp)
	.cfi_restore 8
	.cfi_def_cfa 2, 640
	addi	sp,sp,640
	.cfi_def_cfa_offset 0
	jr	ra
	.cfi_endproc
.LFE6:
	.size	FatLoadLongNameEntry, .-FatLoadLongNameEntry
	.section	.text.FatAddDirEnt,"ax",@progbits
	.align	1
	.type	FatAddDirEnt, @function
FatAddDirEnt:
.LFB7:
	.loc 1 322 1
	.cfi_startproc
	addi	sp,sp,-32
	.cfi_def_cfa_offset 32
	sd	ra,24(sp)
	sd	s0,16(sp)
	.cfi_offset 1, -8
	.cfi_offset 8, -16
	addi	s0,sp,32
	.cfi_def_cfa 8, 0
	sd	a0,-24(s0)
	sd	a1,-32(s0)
	.loc 1 323 19
	ld	a5,-32(s0)
	ld	a5,56(a5)
	.loc 1 323 6
	bne	a5,zero,.L31
	.loc 1 324 29
	ld	a5,-24(s0)
	addi	a4,a5,24
	.loc 1 324 27
	ld	a5,-32(s0)
	sd	a4,56(a5)
.L31:
	.loc 1 327 3
	ld	a5,-32(s0)
	ld	a4,56(a5)
	ld	a5,-32(s0)
	addi	a5,a5,48
	mv	a1,a5
	mv	a0,a4
	call	InsertTailList@plt
	.loc 1 328 3
	ld	a1,-32(s0)
	ld	a0,-24(s0)
	call	FatInsertToHashTable@plt
	.loc 1 329 1
	nop
	ld	ra,24(sp)
	.cfi_restore 1
	ld	s0,16(sp)
	.cfi_restore 8
	.cfi_def_cfa 2, 32
	addi	sp,sp,32
	.cfi_def_cfa_offset 0
	jr	ra
	.cfi_endproc
.LFE7:
	.size	FatAddDirEnt, .-FatAddDirEnt
	.section	.text.FatLoadNextDirEnt,"ax",@progbits
	.align	1
	.type	FatLoadNextDirEnt, @function
FatLoadNextDirEnt:
.LFB8:
	.loc 1 349 1
	.cfi_startproc
	addi	sp,sp,-96
	.cfi_def_cfa_offset 96
	sd	ra,88(sp)
	sd	s0,80(sp)
	.cfi_offset 1, -8
	.cfi_offset 8, -16
	addi	s0,sp,96
	.cfi_def_cfa 8, 0
	sd	a0,-88(s0)
	sd	a1,-96(s0)
	.loc 1 355 8
	ld	a5,-88(s0)
	ld	a5,152(a5)
	sd	a5,-32(s0)
	.loc 1 364 10
	sd	zero,-24(s0)
.L37:
	.loc 1 370 51
	ld	a5,-32(s0)
	lw	a5,8(a5)
	.loc 1 370 14
	slli	a5,a5,32
	srli	a5,a5,32
	addi	a4,s0,-72
	mv	a3,a4
	mv	a2,a5
	li	a1,6
	ld	a0,-88(s0)
	call	FatAccessEntry
	sd	a0,-40(s0)
	.loc 1 371 36
	ld	a5,-40(s0)
	.loc 1 371 8
	bge	a5,zero,.L33
	.loc 1 372 14
	ld	a5,-40(s0)
	j	.L44
.L33:
	.loc 1 375 31
	lbu	a5,-72(s0)
	.loc 1 375 8
	mv	a4,a5
	li	a5,229
	beq	a4,a5,.L35
	.loc 1 375 54 discriminator 1
	lbu	a5,-61(s0)
	.loc 1 375 66 discriminator 1
	sext.w	a5,a5
	andi	a5,a5,8
	sext.w	a5,a5
	.loc 1 375 44 discriminator 1
	beq	a5,zero,.L46
.L35:
	.loc 1 382 9
	ld	a5,-32(s0)
	lw	a5,8(a5)
	.loc 1 382 24
	addiw	a5,a5,1
	sext.w	a4,a5
	ld	a5,-32(s0)
	sw	a4,8(a5)
	.loc 1 370 12
	j	.L37
.L46:
	.loc 1 379 7
	nop
	.loc 1 385 21
	lbu	a5,-72(s0)
	.loc 1 385 6
	beq	a5,zero,.L38
	.loc 1 390 14
	ld	a5,-88(s0)
	ld	a5,8(a5)
	.loc 1 390 22
	lw	a4,132(a5)
	.loc 1 390 8
	li	a5,2
	beq	a4,a5,.L39
	.loc 1 391 29
	sh	zero,-52(s0)
.L39:
	.loc 1 397 14
	li	a0,96
	call	AllocateZeroPool@plt
	sd	a0,-24(s0)
	.loc 1 398 8
	ld	a5,-24(s0)
	bne	a5,zero,.L40
	.loc 1 399 14
	li	a5,-1
	slli	a5,a5,63
	addi	a5,a5,9
	j	.L44
.L40:
	.loc 1 402 23
	ld	a5,-24(s0)
	li	a4,1702125568
	addi	a4,a4,358
	sd	a4,0(a5)
	.loc 1 406 36
	ld	a5,-32(s0)
	lw	a5,8(a5)
	.loc 1 406 24
	slli	a4,a5,48
	srli	a4,a4,48
	.loc 1 406 22
	ld	a5,-24(s0)
	sh	a4,8(a5)
	.loc 1 407 14
	ld	a5,-24(s0)
	addi	a5,a5,64
	.loc 1 407 5
	addi	a4,s0,-72
	li	a2,32
	mv	a1,a4
	mv	a0,a5
	call	CopyMem@plt
	.loc 1 408 5
	ld	a1,-24(s0)
	ld	a0,-88(s0)
	call	FatLoadLongNameEntry
	.loc 1 409 15
	ld	a5,-24(s0)
	ld	a5,16(a5)
	.loc 1 409 8
	bne	a5,zero,.L41
	.loc 1 410 14
	li	a5,-1
	slli	a5,a5,63
	addi	a5,a5,9
	sd	a5,-40(s0)
	.loc 1 411 7
	nop
.L42:
	.loc 1 430 3
	ld	a0,-24(s0)
	call	FatFreeDirEnt@plt
	.loc 1 431 10
	ld	a5,-40(s0)
	j	.L44
.L41:
	.loc 1 417 5
	ld	a1,-24(s0)
	ld	a0,-32(s0)
	call	FatAddDirEnt
	.loc 1 421 9
	ld	a5,-32(s0)
	lw	a5,8(a5)
	.loc 1 421 24
	addiw	a5,a5,1
	sext.w	a4,a5
	ld	a5,-32(s0)
	sw	a4,8(a5)
	j	.L43
.L38:
	.loc 1 423 20
	ld	a5,-32(s0)
	li	a4,1
	sb	a4,40(a5)
.L43:
	.loc 1 426 14
	ld	a5,-96(s0)
	ld	a4,-24(s0)
	sd	a4,0(a5)
	.loc 1 427 10
	li	a5,0
.L44:
	.loc 1 432 1
	mv	a0,a5
	ld	ra,88(sp)
	.cfi_restore 1
	ld	s0,80(sp)
	.cfi_restore 8
	.cfi_def_cfa 2, 96
	addi	sp,sp,96
	.cfi_def_cfa_offset 0
	jr	ra
	.cfi_endproc
.LFE8:
	.size	FatLoadNextDirEnt, .-FatLoadNextDirEnt
	.section	.text.FatGetDirEntInfo,"ax",@progbits
	.align	1
	.globl	FatGetDirEntInfo
	.type	FatGetDirEntInfo, @function
FatGetDirEntInfo:
.LFB9:
	.loc 1 454 1
	.cfi_startproc
	addi	sp,sp,-112
	.cfi_def_cfa_offset 112
	sd	ra,104(sp)
	sd	s0,96(sp)
	.cfi_offset 1, -8
	.cfi_offset 8, -16
	addi	s0,sp,112
	.cfi_def_cfa 8, 0
	sd	a0,-88(s0)
	sd	a1,-96(s0)
	sd	a2,-104(s0)
	sd	a3,-112(s0)
	.loc 1 466 8
	li	a5,80
	sd	a5,-32(s0)
	.loc 1 467 29
	ld	a5,-96(s0)
	ld	a5,16(a5)
	.loc 1 467 14
	mv	a0,a5
	call	StrSize@plt
	sd	a0,-40(s0)
	.loc 1 468 14
	ld	a4,-32(s0)
	ld	a5,-40(s0)
	add	a5,a4,a5
	sd	a5,-48(s0)
	.loc 1 470 10
	li	a5,-1
	slli	a5,a5,63
	addi	a5,a5,5
	sd	a5,-24(s0)
	.loc 1 471 7
	ld	a5,-104(s0)
	ld	a5,0(a5)
	.loc 1 471 6
	ld	a4,-48(s0)
	bgtu	a4,a5,.L48
	.loc 1 472 12
	sd	zero,-24(s0)
	.loc 1 473 11
	ld	a5,-96(s0)
	addi	a5,a5,64
	sd	a5,-56(s0)
	.loc 1 474 10
	ld	a5,-112(s0)
	sd	a5,-64(s0)
	.loc 1 475 16
	ld	a5,-64(s0)
	ld	a4,-48(s0)
	sd	a4,0(a5)
	.loc 1 476 15
	ld	a5,-56(s0)
	lbu	a5,11(a5)
	.loc 1 476 28
	sext.w	a5,a5
	andi	a5,a5,16
	sext.w	a5,a5
	.loc 1 476 8
	beq	a5,zero,.L49
	.loc 1 477 23
	ld	a5,-56(s0)
	lbu	a4,20(a5)
	lbu	a5,21(a5)
	slli	a5,a5,8
	or	a5,a5,a4
	slli	a5,a5,48
	srli	a5,a5,48
	sext.w	a5,a5
	.loc 1 477 41
	slliw	a5,a5,16
	sext.w	a4,a5
	.loc 1 477 55
	ld	a5,-56(s0)
	lbu	a3,26(a5)
	lbu	a5,27(a5)
	slli	a5,a5,8
	or	a5,a5,a3
	slli	a5,a5,48
	srli	a5,a5,48
	sext.w	a5,a5
	.loc 1 477 48
	or	a5,a4,a5
	sext.w	a5,a5
	.loc 1 477 15
	sd	a5,-72(s0)
	.loc 1 478 28
	ld	a1,-72(s0)
	ld	a0,-88(s0)
	call	FatPhysicalDirSize@plt
	mv	a4,a0
	.loc 1 478 26 discriminator 1
	ld	a5,-64(s0)
	sd	a4,16(a5)
	.loc 1 479 28
	ld	a5,-64(s0)
	ld	a4,16(a5)
	.loc 1 479 22
	ld	a5,-64(s0)
	sd	a4,8(a5)
	j	.L50
.L49:
	.loc 1 481 29
	ld	a5,-56(s0)
	lbu	a4,28(a5)
	lbu	a3,29(a5)
	slli	a3,a3,8
	or	a4,a3,a4
	lbu	a3,30(a5)
	slli	a3,a3,16
	or	a4,a3,a4
	lbu	a5,31(a5)
	slli	a5,a5,24
	or	a5,a5,a4
	sext.w	a5,a5
	slli	a4,a5,32
	srli	a4,a4,32
	.loc 1 481 22
	ld	a5,-64(s0)
	sd	a4,8(a5)
	.loc 1 482 62
	ld	a5,-56(s0)
	lbu	a4,28(a5)
	lbu	a3,29(a5)
	slli	a3,a3,8
	or	a4,a3,a4
	lbu	a3,30(a5)
	slli	a3,a3,16
	or	a4,a3,a4
	lbu	a5,31(a5)
	slli	a5,a5,24
	or	a5,a5,a4
	sext.w	a5,a5
	.loc 1 482 28
	slli	a5,a5,32
	srli	a5,a5,32
	mv	a1,a5
	ld	a0,-88(s0)
	call	FatPhysicalFileSize@plt
	mv	a4,a0
	.loc 1 482 26 discriminator 1
	ld	a5,-64(s0)
	sd	a4,16(a5)
.L50:
	.loc 1 485 5
	addi	a5,s0,-80
	li	a1,2
	mv	a0,a5
	call	ZeroMem@plt
	.loc 1 486 35
	ld	a5,-56(s0)
	addi	a4,a5,18
	.loc 1 486 5
	addi	a5,s0,-80
	addi	a5,a5,2
	li	a2,2
	mv	a1,a4
	mv	a0,a5
	call	CopyMem@plt
	.loc 1 487 5
	ld	a5,-64(s0)
	addi	a4,a5,40
	addi	a5,s0,-80
	mv	a1,a4
	mv	a0,a5
	call	FatFatTimeToEfiTime@plt
	.loc 1 488 5
	ld	a5,-56(s0)
	addi	a4,a5,14
	ld	a5,-64(s0)
	addi	a5,a5,24
	mv	a1,a5
	mv	a0,a4
	call	FatFatTimeToEfiTime@plt
	.loc 1 489 5
	ld	a5,-56(s0)
	addi	a4,a5,22
	ld	a5,-64(s0)
	addi	a5,a5,56
	mv	a1,a5
	mv	a0,a4
	call	FatFatTimeToEfiTime@plt
	.loc 1 490 28
	ld	a5,-56(s0)
	lbu	a5,11(a5)
	.loc 1 490 41
	andi	a4,a5,55
	.loc 1 490 21
	ld	a5,-64(s0)
	sd	a4,72(a5)
	.loc 1 491 5
	ld	a4,-112(s0)
	ld	a5,-32(s0)
	add	a4,a4,a5
	.loc 1 491 44
	ld	a5,-96(s0)
	ld	a5,16(a5)
	.loc 1 491 5
	ld	a2,-40(s0)
	mv	a1,a5
	mv	a0,a4
	call	CopyMem@plt
.L48:
	.loc 1 494 15
	ld	a5,-104(s0)
	ld	a4,-48(s0)
	sd	a4,0(a5)
	.loc 1 495 10
	ld	a5,-24(s0)
	.loc 1 496 1
	mv	a0,a5
	ld	ra,104(sp)
	.cfi_restore 1
	ld	s0,96(sp)
	.cfi_restore 8
	.cfi_def_cfa 2, 112
	addi	sp,sp,112
	.cfi_def_cfa_offset 0
	jr	ra
	.cfi_endproc
.LFE9:
	.size	FatGetDirEntInfo, .-FatGetDirEntInfo
	.section	.text.FatSearchODir,"ax",@progbits
	.align	1
	.type	FatSearchODir, @function
FatSearchODir:
.LFB10:
	.loc 1 517 1
	.cfi_startproc
	addi	sp,sp,-96
	.cfi_def_cfa_offset 96
	sd	ra,88(sp)
	sd	s0,80(sp)
	.cfi_offset 1, -8
	.cfi_offset 8, -16
	addi	s0,sp,96
	.cfi_def_cfa 8, 0
	sd	a0,-72(s0)
	sd	a1,-80(s0)
	sd	a2,-88(s0)
	.loc 1 524 8
	ld	a5,-72(s0)
	ld	a5,152(a5)
	sd	a5,-24(s0)
	.loc 1 529 23
	addi	a5,s0,-56
	mv	a1,a5
	ld	a0,-80(s0)
	call	FatCheckIs8Dot3Name@plt
	mv	a5,a0
	sb	a5,-25(s0)
	.loc 1 533 13
	ld	a1,-80(s0)
	ld	a0,-24(s0)
	call	FatLongNameHashSearch@plt
	mv	a5,a0
	.loc 1 533 12 discriminator 1
	ld	a5,0(a5)
	.loc 1 533 10 discriminator 1
	sd	a5,-64(s0)
	.loc 1 534 15
	ld	a5,-64(s0)
	.loc 1 534 6
	bne	a5,zero,.L53
	.loc 1 534 32 discriminator 1
	lbu	a5,-25(s0)
	andi	a5,a5,0xff
	beq	a5,zero,.L53
	.loc 1 535 15
	addi	a5,s0,-56
	mv	a1,a5
	ld	a0,-24(s0)
	call	FatShortNameHashSearch@plt
	mv	a5,a0
	.loc 1 535 14 discriminator 1
	ld	a5,0(a5)
	.loc 1 535 12 discriminator 1
	sd	a5,-64(s0)
.L53:
	.loc 1 538 14
	ld	a5,-64(s0)
	.loc 1 538 6
	bne	a5,zero,.L54
	.loc 1 543 11
	j	.L58
.L61:
	.loc 1 544 16
	addi	a5,s0,-64
	mv	a1,a5
	ld	a0,-72(s0)
	call	FatLoadNextDirEnt
	sd	a0,-40(s0)
	.loc 1 545 38
	ld	a5,-40(s0)
	.loc 1 545 10
	bge	a5,zero,.L56
	.loc 1 546 16
	ld	a5,-40(s0)
	j	.L62
.L56:
	.loc 1 549 18
	ld	a5,-64(s0)
	.loc 1 549 10
	beq	a5,zero,.L58
	.loc 1 550 47
	ld	a5,-64(s0)
	.loc 1 550 13
	ld	a5,16(a5)
	mv	a1,a5
	ld	a0,-80(s0)
	call	FatStriCmp@plt
	mv	a5,a0
	.loc 1 550 12 discriminator 1
	beq	a5,zero,.L63
	.loc 1 554 12
	lbu	a5,-25(s0)
	andi	a5,a5,0xff
	beq	a5,zero,.L58
	.loc 1 554 68 discriminator 1
	ld	a5,-64(s0)
	.loc 1 554 75 discriminator 1
	addi	a4,a5,64
	.loc 1 554 35 discriminator 1
	addi	a5,s0,-56
	li	a2,11
	mv	a1,a4
	mv	a0,a5
	call	CompareMem@plt
	mv	a5,a0
	.loc 1 554 31 discriminator 2
	beq	a5,zero,.L64
.L58:
	.loc 1 543 17
	ld	a5,-24(s0)
	lbu	a5,40(a5)
	.loc 1 543 12
	beq	a5,zero,.L61
	j	.L54
.L63:
	.loc 1 551 11
	nop
	j	.L54
.L64:
	.loc 1 555 11
	nop
.L54:
	.loc 1 561 14
	ld	a4,-64(s0)
	ld	a5,-88(s0)
	sd	a4,0(a5)
	.loc 1 562 10
	li	a5,0
.L62:
	.loc 1 563 1
	mv	a0,a5
	ld	ra,88(sp)
	.cfi_restore 1
	ld	s0,80(sp)
	.cfi_restore 8
	.cfi_def_cfa 2, 96
	addi	sp,sp,96
	.cfi_def_cfa_offset 0
	jr	ra
	.cfi_endproc
.LFE10:
	.size	FatSearchODir, .-FatSearchODir
	.section	.text.FatResetODirCursor,"ax",@progbits
	.align	1
	.globl	FatResetODirCursor
	.type	FatResetODirCursor, @function
FatResetODirCursor:
.LFB11:
	.loc 1 576 1
	.cfi_startproc
	addi	sp,sp,-48
	.cfi_def_cfa_offset 48
	sd	ra,40(sp)
	sd	s0,32(sp)
	.cfi_offset 1, -8
	.cfi_offset 8, -16
	addi	s0,sp,48
	.cfi_def_cfa 8, 0
	sd	a0,-40(s0)
	.loc 1 579 8
	ld	a5,-40(s0)
	ld	a5,152(a5)
	sd	a5,-24(s0)
	.loc 1 581 25
	ld	a5,-24(s0)
	addi	a4,a5,24
	.loc 1 581 23
	ld	a5,-24(s0)
	sd	a4,16(a5)
	.loc 1 582 20
	ld	a5,-24(s0)
	sw	zero,12(a5)
	.loc 1 583 1
	nop
	ld	ra,40(sp)
	.cfi_restore 1
	ld	s0,32(sp)
	.cfi_restore 8
	.cfi_def_cfa 2, 48
	addi	sp,sp,48
	.cfi_def_cfa_offset 0
	jr	ra
	.cfi_endproc
.LFE11:
	.size	FatResetODirCursor, .-FatResetODirCursor
	.section	.text.FatGetNextDirEnt,"ax",@progbits
	.align	1
	.globl	FatGetNextDirEnt
	.type	FatGetNextDirEnt, @function
FatGetNextDirEnt:
.LFB12:
	.loc 1 601 1
	.cfi_startproc
	addi	sp,sp,-64
	.cfi_def_cfa_offset 64
	sd	ra,56(sp)
	sd	s0,48(sp)
	.cfi_offset 1, -8
	.cfi_offset 8, -16
	addi	s0,sp,64
	.cfi_def_cfa 8, 0
	sd	a0,-56(s0)
	sd	a1,-64(s0)
	.loc 1 606 8
	ld	a5,-56(s0)
	ld	a5,152(a5)
	sd	a5,-24(s0)
	.loc 1 608 11
	ld	a5,-24(s0)
	ld	a5,16(a5)
	.loc 1 608 26
	ld	a4,0(a5)
	.loc 1 608 43
	ld	a5,-24(s0)
	addi	a5,a5,24
	.loc 1 608 6
	bne	a4,a5,.L67
	.loc 1 612 14
	ld	a5,-24(s0)
	lbu	a5,40(a5)
	.loc 1 612 8
	bne	a5,zero,.L67
	.loc 1 616 16
	addi	a5,s0,-40
	mv	a1,a5
	ld	a0,-56(s0)
	call	FatLoadNextDirEnt
	sd	a0,-32(s0)
	.loc 1 617 38
	ld	a5,-32(s0)
	.loc 1 617 10
	bge	a5,zero,.L67
	.loc 1 618 16
	ld	a5,-32(s0)
	j	.L73
.L67:
	.loc 1 623 11
	ld	a5,-24(s0)
	ld	a5,16(a5)
	.loc 1 623 26
	ld	a4,0(a5)
	.loc 1 623 43
	ld	a5,-24(s0)
	addi	a5,a5,24
	.loc 1 623 6
	bne	a4,a5,.L69
	.loc 1 627 12
	sd	zero,-40(s0)
	.loc 1 628 28
	ld	a5,-24(s0)
	lw	a4,8(a5)
	.loc 1 628 22
	ld	a5,-24(s0)
	sw	a4,12(a5)
	j	.L70
.L69:
	.loc 1 630 31
	ld	a5,-24(s0)
	ld	a5,16(a5)
	.loc 1 630 46
	ld	a4,0(a5)
	.loc 1 630 25
	ld	a5,-24(s0)
	sd	a4,16(a5)
	.loc 1 631 56
	ld	a5,-24(s0)
	ld	a5,16(a5)
	.loc 1 631 16
	addi	a5,a5,-48
	.loc 1 631 123
	ld	a4,0(a5)
	.loc 1 631 208
	li	a5,1702125568
	addi	a5,a5,358
	bne	a4,a5,.L71
	.loc 1 631 251 discriminator 1
	ld	a5,-24(s0)
	ld	a5,16(a5)
	.loc 1 631 208 discriminator 1
	addi	a5,a5,-48
	j	.L72
.L71:
	.loc 1 631 208 is_stmt 0 discriminator 2
	li	a5,0
.L72:
	.loc 1 631 12 is_stmt 1 discriminator 4
	sd	a5,-40(s0)
	.loc 1 632 30
	ld	a5,-40(s0)
	lhu	a5,8(a5)
	sext.w	a5,a5
	.loc 1 632 41
	addiw	a5,a5,1
	sext.w	a5,a5
	mv	a4,a5
	.loc 1 632 22
	ld	a5,-24(s0)
	sw	a4,12(a5)
.L70:
	.loc 1 635 14
	ld	a4,-40(s0)
	ld	a5,-64(s0)
	sd	a4,0(a5)
	.loc 1 636 10
	li	a5,0
.L73:
	.loc 1 637 1
	mv	a0,a5
	ld	ra,56(sp)
	.cfi_restore 1
	ld	s0,48(sp)
	.cfi_restore 8
	.cfi_def_cfa 2, 64
	addi	sp,sp,64
	.cfi_def_cfa_offset 0
	jr	ra
	.cfi_endproc
.LFE12:
	.size	FatGetNextDirEnt, .-FatGetNextDirEnt
	.section	.text.FatSetEntryCount,"ax",@progbits
	.align	1
	.type	FatSetEntryCount, @function
FatSetEntryCount:
.LFB13:
	.loc 1 653 1
	.cfi_startproc
	addi	sp,sp,-48
	.cfi_def_cfa_offset 48
	sd	ra,40(sp)
	sd	s0,32(sp)
	.cfi_offset 1, -8
	.cfi_offset 8, -16
	addi	s0,sp,48
	.cfi_def_cfa 8, 0
	sd	a0,-40(s0)
	sd	a1,-48(s0)
	.loc 1 660 22
	ld	a5,-48(s0)
	li	a4,1
	sb	a4,10(a5)
	.loc 1 661 14
	ld	a5,-48(s0)
	ld	a5,16(a5)
	sd	a5,-24(s0)
	.loc 1 662 17
	ld	a5,-48(s0)
	addi	a5,a5,64
	sd	a5,-32(s0)
	.loc 1 663 3
	li	a2,32
	li	a1,11
	ld	a0,-32(s0)
	call	SetMem@plt
	.loc 1 664 7
	lla	a1,.LC0
	ld	a0,-24(s0)
	call	StrCmp@plt
	mv	a5,a0
	.loc 1 664 6 discriminator 1
	bne	a5,zero,.L75
	.loc 1 668 22
	ld	a5,-32(s0)
	li	a4,46
	sb	a4,0(a5)
	.loc 1 669 5
	ld	a5,-40(s0)
	ld	a5,160(a5)
	mv	a1,a5
	ld	a0,-48(s0)
	call	FatCloneDirEnt
	.loc 1 694 1
	j	.L79
.L75:
	.loc 1 670 14
	lla	a1,.LC1
	ld	a0,-24(s0)
	call	StrCmp@plt
	mv	a5,a0
	.loc 1 670 13 discriminator 1
	bne	a5,zero,.L77
	.loc 1 674 22
	ld	a5,-32(s0)
	li	a4,46
	sb	a4,0(a5)
	.loc 1 675 18
	ld	a5,-32(s0)
	addi	a5,a5,1
	.loc 1 675 22
	li	a4,46
	sb	a4,0(a5)
	.loc 1 676 34
	ld	a5,-40(s0)
	ld	a5,104(a5)
	.loc 1 676 5
	ld	a5,160(a5)
	mv	a1,a5
	ld	a0,-48(s0)
	call	FatCloneDirEnt
	.loc 1 694 1
	j	.L79
.L77:
	.loc 1 681 9
	ld	a1,-32(s0)
	ld	a0,-24(s0)
	call	FatCheckIs8Dot3Name@plt
	mv	a5,a0
	.loc 1 681 8 discriminator 1
	beq	a5,zero,.L78
	.loc 1 685 7
	ld	a0,-48(s0)
	call	FatSetCaseFlag@plt
	.loc 1 694 1
	j	.L79
.L78:
	.loc 1 690 7
	ld	a1,-48(s0)
	ld	a0,-40(s0)
	call	FatCreate8Dot3Name@plt
	.loc 1 691 39
	ld	a0,-24(s0)
	call	StrLen@plt
	mv	a5,a0
	.loc 1 691 74 discriminator 1
	addi	a4,a5,12
	.loc 1 691 79 discriminator 1
	lla	a5,.LC2
	ld	a5,0(a5)
	mulhu	a5,a4,a5
	srli	a5,a5,2
	.loc 1 691 28 discriminator 1
	andi	a4,a5,0xff
	.loc 1 691 102 discriminator 1
	ld	a5,-48(s0)
	lbu	a5,10(a5)
	.loc 1 691 28 discriminator 1
	addw	a5,a4,a5
	andi	a4,a5,0xff
	.loc 1 691 26 discriminator 1
	ld	a5,-48(s0)
	sb	a4,10(a5)
.L79:
	.loc 1 694 1
	nop
	ld	ra,40(sp)
	.cfi_restore 1
	ld	s0,32(sp)
	.cfi_restore 8
	.cfi_def_cfa 2, 48
	addi	sp,sp,48
	.cfi_def_cfa_offset 0
	jr	ra
	.cfi_endproc
.LFE13:
	.size	FatSetEntryCount, .-FatSetEntryCount
	.section	.text.FatExpandODir,"ax",@progbits
	.align	1
	.type	FatExpandODir, @function
FatExpandODir:
.LFB14:
	.loc 1 711 1
	.cfi_startproc
	addi	sp,sp,-32
	.cfi_def_cfa_offset 32
	sd	ra,24(sp)
	sd	s0,16(sp)
	.cfi_offset 1, -8
	.cfi_offset 8, -16
	addi	s0,sp,32
	.cfi_def_cfa 8, 0
	sd	a0,-24(s0)
	.loc 1 712 38
	ld	a5,-24(s0)
	ld	a4,40(a5)
	.loc 1 712 56
	ld	a5,-24(s0)
	ld	a5,8(a5)
	.loc 1 712 64
	ld	a5,120(a5)
	.loc 1 712 49
	add	a5,a4,a5
	.loc 1 712 10
	mv	a1,a5
	ld	a0,-24(s0)
	call	FatExpandOFile@plt
	mv	a5,a0
	.loc 1 713 1
	mv	a0,a5
	ld	ra,24(sp)
	.cfi_restore 1
	ld	s0,16(sp)
	.cfi_restore 8
	.cfi_def_cfa 2, 32
	addi	sp,sp,32
	.cfi_def_cfa_offset 0
	jr	ra
	.cfi_endproc
.LFE14:
	.size	FatExpandODir, .-FatExpandODir
	.section	.text.FatSeekVolumeId,"ax",@progbits
	.align	1
	.type	FatSeekVolumeId, @function
FatSeekVolumeId:
.LFB15:
	.loc 1 732 1
	.cfi_startproc
	addi	sp,sp,-64
	.cfi_def_cfa_offset 64
	sd	ra,56(sp)
	sd	s0,48(sp)
	.cfi_offset 1, -8
	.cfi_offset 8, -16
	addi	s0,sp,64
	.cfi_def_cfa 8, 0
	sd	a0,-56(s0)
	sd	a1,-64(s0)
	.loc 1 737 12
	sd	zero,-24(s0)
	.loc 1 738 9
	ld	a5,-64(s0)
	addi	a5,a5,64
	sd	a5,-32(s0)
	.loc 1 739 19
	ld	a5,-64(s0)
	li	a4,1
	sb	a4,11(a5)
.L87:
	.loc 1 741 14
	ld	a3,-32(s0)
	ld	a2,-24(s0)
	li	a1,6
	ld	a0,-56(s0)
	call	FatAccessEntry
	sd	a0,-40(s0)
	.loc 1 742 36
	ld	a5,-40(s0)
	.loc 1 742 8
	bge	a5,zero,.L83
	.loc 1 743 14
	ld	a5,-40(s0)
	j	.L84
.L83:
	.loc 1 746 32
	ld	a5,-32(s0)
	lbu	a5,0(a5)
	.loc 1 746 8
	mv	a4,a5
	li	a5,229
	beq	a4,a5,.L85
	.loc 1 746 56 discriminator 1
	ld	a5,-32(s0)
	lbu	a5,11(a5)
	sext.w	a5,a5
	.loc 1 746 70 discriminator 1
	andi	a5,a5,-33
	sext.w	a4,a5
	.loc 1 746 45 discriminator 1
	li	a5,8
	bne	a4,a5,.L85
	.loc 1 747 26
	ld	a5,-24(s0)
	slli	a4,a5,48
	srli	a4,a4,48
	.loc 1 747 24
	ld	a5,-64(s0)
	sh	a4,8(a5)
	.loc 1 748 26
	ld	a5,-64(s0)
	li	a4,1
	sb	a4,10(a5)
	.loc 1 749 23
	ld	a5,-64(s0)
	sb	zero,11(a5)
	.loc 1 750 7
	j	.L86
.L85:
	.loc 1 753 13
	ld	a5,-24(s0)
	addi	a5,a5,1
	sd	a5,-24(s0)
	.loc 1 754 27
	ld	a5,-32(s0)
	lbu	a5,0(a5)
	.loc 1 754 31
	bne	a5,zero,.L87
.L86:
	.loc 1 756 10
	li	a5,0
.L84:
	.loc 1 757 1
	mv	a0,a5
	ld	ra,56(sp)
	.cfi_restore 1
	ld	s0,48(sp)
	.cfi_restore 8
	.cfi_def_cfa 2, 64
	addi	sp,sp,64
	.cfi_def_cfa_offset 0
	jr	ra
	.cfi_endproc
.LFE15:
	.size	FatSeekVolumeId, .-FatSeekVolumeId
	.section	.text.FatFirstFitInsertDirEnt,"ax",@progbits
	.align	1
	.type	FatFirstFitInsertDirEnt, @function
FatFirstFitInsertDirEnt:
.LFB16:
	.loc 1 780 1
	.cfi_startproc
	addi	sp,sp,-192
	.cfi_def_cfa_offset 192
	sd	ra,184(sp)
	sd	s0,176(sp)
	.cfi_offset 1, -8
	.cfi_offset 8, -16
	addi	s0,sp,192
	.cfi_def_cfa 8, 0
	sd	a0,-184(s0)
	sd	a1,-192(s0)
	.loc 1 791 12
	sw	zero,-40(s0)
	.loc 1 792 12
	ld	a5,-184(s0)
	ld	a5,104(a5)
	.loc 1 792 6
	bne	a5,zero,.L89
	.loc 1 793 14
	addi	a5,s0,-168
	mv	a1,a5
	ld	a0,-184(s0)
	call	FatSeekVolumeId
	sd	a0,-56(s0)
	.loc 1 794 36
	ld	a5,-56(s0)
	.loc 1 794 8
	bge	a5,zero,.L90
	.loc 1 795 14
	ld	a5,-56(s0)
	j	.L99
.L90:
	.loc 1 798 21
	lbu	a5,-157(s0)
	.loc 1 798 8
	bne	a5,zero,.L89
	.loc 1 799 29
	lhu	a5,-160(s0)
	.loc 1 799 16
	sw	a5,-40(s0)
.L89:
	.loc 1 803 22
	ld	a5,-192(s0)
	lbu	a5,10(a5)
	.loc 1 803 14
	sh	a5,-58(s0)
	.loc 1 804 15
	lhu	a5,-58(s0)
	sw	a5,-44(s0)
	.loc 1 805 14
	sw	zero,-36(s0)
	.loc 1 806 8
	ld	a5,-184(s0)
	ld	a5,152(a5)
	sd	a5,-72(s0)
	.loc 1 807 21
	ld	a5,-72(s0)
	ld	a5,24(a5)
	sd	a5,-24(s0)
	.loc 1 807 3
	j	.L92
.L98:
	.loc 1 812 23
	ld	a5,-24(s0)
	addi	a5,a5,-48
	.loc 1 812 123
	ld	a4,0(a5)
	.loc 1 812 208
	li	a5,1702125568
	addi	a5,a5,358
	bne	a4,a5,.L93
	.loc 1 812 19 discriminator 1
	ld	a5,-24(s0)
	addi	a5,a5,-48
	sd	a5,-32(s0)
	j	.L94
.L93:
	.loc 1 812 19 is_stmt 0 discriminator 2
	sd	zero,-32(s0)
.L94:
	.loc 1 813 36 is_stmt 1
	ld	a5,-32(s0)
	lbu	a5,10(a5)
	sext.w	a5,a5
	.loc 1 813 21
	lw	a4,-44(s0)
	addw	a5,a4,a5
	sext.w	a4,a5
	.loc 1 813 65
	ld	a5,-32(s0)
	lhu	a5,8(a5)
	sext.w	a5,a5
	.loc 1 813 8
	bgtu	a4,a5,.L95
	.loc 1 814 10
	lw	a5,-40(s0)
	mv	a4,a5
	lw	a5,-44(s0)
	sext.w	a4,a4
	sext.w	a5,a5
	bgtu	a4,a5,.L100
	.loc 1 814 36 discriminator 1
	lw	a5,-40(s0)
	mv	a4,a5
	lw	a5,-36(s0)
	sext.w	a4,a4
	sext.w	a5,a5
	bleu	a4,a5,.L100
.L95:
	.loc 1 822 31
	ld	a5,-32(s0)
	lhu	a5,8(a5)
	.loc 1 822 16
	sw	a5,-36(s0)
	.loc 1 823 30
	lhu	a5,-58(s0)
	sext.w	a5,a5
	.loc 1 823 17
	lw	a4,-36(s0)
	addw	a5,a4,a5
	sw	a5,-44(s0)
	.loc 1 809 21
	ld	a5,-24(s0)
	ld	a5,0(a5)
	sd	a5,-24(s0)
.L92:
	.loc 1 808 24
	ld	a5,-72(s0)
	addi	a5,a5,24
	.loc 1 808 21
	ld	a4,-24(s0)
	bne	a4,a5,.L98
	.loc 1 826 26
	ld	a5,-72(s0)
	lw	a5,8(a5)
	.loc 1 826 6
	lw	a4,-44(s0)
	sext.w	a4,a4
	bltu	a4,a5,.L101
	.loc 1 827 12
	li	a5,-1
	slli	a5,a5,63
	addi	a5,a5,11
	j	.L99
.L100:
	.loc 1 818 9
	nop
	j	.L97
.L101:
	.loc 1 830 1
	nop
.L97:
	.loc 1 831 22
	lw	a5,-44(s0)
	slli	a4,a5,48
	srli	a4,a4,48
	.loc 1 831 20
	ld	a5,-192(s0)
	sh	a4,8(a5)
	.loc 1 832 25
	ld	a5,-192(s0)
	ld	a4,-24(s0)
	sd	a4,56(a5)
	.loc 1 833 10
	li	a5,0
.L99:
	.loc 1 834 1
	mv	a0,a5
	ld	ra,184(sp)
	.cfi_restore 1
	ld	s0,176(sp)
	.cfi_restore 8
	.cfi_def_cfa 2, 192
	addi	sp,sp,192
	.cfi_def_cfa_offset 0
	jr	ra
	.cfi_endproc
.LFE16:
	.size	FatFirstFitInsertDirEnt, .-FatFirstFitInsertDirEnt
	.section	.text.FatNewEntryPos,"ax",@progbits
	.align	1
	.type	FatNewEntryPos, @function
FatNewEntryPos:
.LFB17:
	.loc 1 854 1
	.cfi_startproc
	addi	sp,sp,-64
	.cfi_def_cfa_offset 64
	sd	ra,56(sp)
	sd	s0,48(sp)
	.cfi_offset 1, -8
	.cfi_offset 8, -16
	addi	s0,sp,64
	.cfi_def_cfa 8, 0
	sd	a0,-56(s0)
	sd	a1,-64(s0)
	.loc 1 860 8
	ld	a5,-56(s0)
	ld	a5,152(a5)
	sd	a5,-24(s0)
	.loc 1 865 9
	j	.L103
.L105:
	.loc 1 866 14
	addi	a5,s0,-48
	mv	a1,a5
	ld	a0,-56(s0)
	call	FatLoadNextDirEnt
	sd	a0,-40(s0)
	.loc 1 867 36
	ld	a5,-40(s0)
	.loc 1 867 8
	bge	a5,zero,.L103
	.loc 1 868 14
	ld	a5,-40(s0)
	j	.L110
.L103:
	.loc 1 865 15
	ld	a5,-24(s0)
	lbu	a5,40(a5)
	.loc 1 865 10
	beq	a5,zero,.L105
	.loc 1 875 3
	ld	a5,-64(s0)
	addi	a5,a5,78
	mv	a0,a5
	call	FatGetCurrentFatTime@plt
	.loc 1 876 12
	ld	a5,-64(s0)
	addi	a4,a5,86
	.loc 1 876 49
	ld	a5,-64(s0)
	addi	a5,a5,78
	.loc 1 876 3
	li	a2,4
	mv	a1,a5
	mv	a0,a4
	call	CopyMem@plt
	.loc 1 877 12
	ld	a5,-64(s0)
	addi	a4,a5,82
	.loc 1 877 43
	ld	a5,-64(s0)
	addi	a5,a5,80
	.loc 1 877 3
	li	a2,2
	mv	a1,a5
	mv	a0,a4
	call	CopyMem@plt
	.loc 1 878 19
	ld	a5,-24(s0)
	lw	a4,8(a5)
	.loc 1 878 43
	ld	a5,-64(s0)
	lbu	a5,10(a5)
	sext.w	a5,a5
	.loc 1 878 13
	addw	a5,a4,a5
	sw	a5,-28(s0)
	.loc 1 879 17
	lwu	a5,-28(s0)
	slli	a4,a5,5
	.loc 1 879 55
	ld	a5,-56(s0)
	ld	a5,40(a5)
	.loc 1 879 6
	bleu	a4,a5,.L106
	.loc 1 880 19
	lwu	a4,-28(s0)
	.loc 1 880 28
	ld	a5,-56(s0)
	lbu	a5,73(a5)
	.loc 1 880 74
	beq	a5,zero,.L107
	.loc 1 880 52 discriminator 1
	ld	a5,-56(s0)
	ld	a5,8(a5)
	.loc 1 880 74 discriminator 1
	ld	a5,696(a5)
	j	.L108
.L107:
	.loc 1 880 74 is_stmt 0 discriminator 2
	li	a5,65536
	addi	a5,a5,-1
.L108:
	.loc 1 880 8 is_stmt 1 discriminator 4
	bgtu	a5,a4,.L109
	.loc 1 884 14
	ld	a1,-64(s0)
	ld	a0,-56(s0)
	call	FatFirstFitInsertDirEnt
	mv	a5,a0
	j	.L110
.L109:
	.loc 1 890 14
	ld	a0,-56(s0)
	call	FatExpandODir
	sd	a0,-40(s0)
	.loc 1 891 36
	ld	a5,-40(s0)
	.loc 1 891 8
	bge	a5,zero,.L106
	.loc 1 892 14
	ld	a5,-40(s0)
	j	.L110
.L106:
	.loc 1 899 23
	ld	a5,-24(s0)
	lw	a4,-28(s0)
	sw	a4,8(a5)
	.loc 1 900 35
	ld	a5,-24(s0)
	lw	a5,8(a5)
	.loc 1 900 22
	slli	a5,a5,48
	srli	a5,a5,48
	addiw	a5,a5,-1
	slli	a4,a5,48
	srli	a4,a4,48
	.loc 1 900 20
	ld	a5,-64(s0)
	sh	a4,8(a5)
	.loc 1 901 10
	li	a5,0
.L110:
	.loc 1 902 1
	mv	a0,a5
	ld	ra,56(sp)
	.cfi_restore 1
	ld	s0,48(sp)
	.cfi_restore 8
	.cfi_def_cfa 2, 64
	addi	sp,sp,64
	.cfi_def_cfa_offset 0
	jr	ra
	.cfi_endproc
.LFE17:
	.size	FatNewEntryPos, .-FatNewEntryPos
	.section	.text.FatGetVolumeEntry,"ax",@progbits
	.align	1
	.globl	FatGetVolumeEntry
	.type	FatGetVolumeEntry, @function
FatGetVolumeEntry:
.LFB18:
	.loc 1 920 1
	.cfi_startproc
	addi	sp,sp,-144
	.cfi_def_cfa_offset 144
	sd	ra,136(sp)
	sd	s0,128(sp)
	.cfi_offset 1, -8
	.cfi_offset 8, -16
	addi	s0,sp,144
	.cfi_def_cfa 8, 0
	sd	a0,-136(s0)
	sd	a1,-144(s0)
	.loc 1 924 9
	ld	a5,-144(s0)
	sh	zero,0(a5)
	.loc 1 925 12
	ld	a5,-136(s0)
	ld	a5,832(a5)
	addi	a4,s0,-120
	mv	a1,a4
	mv	a0,a5
	call	FatSeekVolumeId
	sd	a0,-24(s0)
	.loc 1 926 7
	ld	a5,-24(s0)
	.loc 1 926 6
	blt	a5,zero,.L112
	.loc 1 927 21
	lbu	a5,-109(s0)
	.loc 1 927 8
	bne	a5,zero,.L112
	.loc 1 928 7
	addi	a5,s0,-120
	addi	a5,a5,64
	ld	a3,-144(s0)
	li	a2,0
	li	a1,11
	mv	a0,a5
	call	FatNameToStr@plt
.L112:
	.loc 1 932 10
	ld	a5,-24(s0)
	.loc 1 933 1
	mv	a0,a5
	ld	ra,136(sp)
	.cfi_restore 1
	ld	s0,128(sp)
	.cfi_restore 8
	.cfi_def_cfa 2, 144
	addi	sp,sp,144
	.cfi_def_cfa_offset 0
	jr	ra
	.cfi_endproc
.LFE18:
	.size	FatGetVolumeEntry, .-FatGetVolumeEntry
	.section	.text.FatSetVolumeEntry,"ax",@progbits
	.align	1
	.globl	FatSetVolumeEntry
	.type	FatSetVolumeEntry, @function
FatSetVolumeEntry:
.LFB19:
	.loc 1 952 1
	.cfi_startproc
	addi	sp,sp,-144
	.cfi_def_cfa_offset 144
	sd	ra,136(sp)
	sd	s0,128(sp)
	.cfi_offset 1, -8
	.cfi_offset 8, -16
	addi	s0,sp,144
	.cfi_def_cfa 8, 0
	sd	a0,-136(s0)
	sd	a1,-144(s0)
	.loc 1 957 8
	ld	a5,-136(s0)
	ld	a5,832(a5)
	sd	a5,-24(s0)
	.loc 1 958 12
	ld	a5,-136(s0)
	ld	a5,832(a5)
	addi	a4,s0,-128
	mv	a1,a4
	mv	a0,a5
	call	FatSeekVolumeId
	sd	a0,-32(s0)
	.loc 1 959 34
	ld	a5,-32(s0)
	.loc 1 959 6
	bge	a5,zero,.L115
	.loc 1 960 12
	ld	a5,-32(s0)
	j	.L120
.L115:
	.loc 1 963 18
	lbu	a5,-117(s0)
	.loc 1 963 6
	beq	a5,zero,.L117
	.loc 1 967 5
	addi	a5,s0,-128
	li	a1,96
	mv	a0,a5
	call	ZeroMem@plt
	.loc 1 968 28
	li	a5,1
	sb	a5,-118(s0)
	.loc 1 969 14
	addi	a5,s0,-128
	mv	a1,a5
	ld	a0,-24(s0)
	call	FatNewEntryPos
	sd	a0,-32(s0)
	.loc 1 970 36
	ld	a5,-32(s0)
	.loc 1 970 8
	bge	a5,zero,.L118
	.loc 1 971 14
	ld	a5,-32(s0)
	j	.L120
.L118:
	.loc 1 974 34
	li	a5,8
	sb	a5,-53(s0)
.L117:
	.loc 1 977 3
	addi	a5,s0,-128
	addi	a5,a5,64
	li	a2,32
	li	a1,11
	mv	a0,a5
	call	SetMem@plt
	.loc 1 978 7
	addi	a5,s0,-128
	addi	a5,a5,64
	mv	a2,a5
	li	a1,11
	ld	a0,-144(s0)
	call	FatStrToFat@plt
	mv	a5,a0
	.loc 1 978 6 discriminator 1
	beq	a5,zero,.L119
	.loc 1 979 12
	li	a5,-1
	slli	a5,a5,63
	addi	a5,a5,3
	j	.L120
.L119:
	.loc 1 982 3
	addi	a5,s0,-128
	addi	a5,a5,86
	mv	a0,a5
	call	FatGetCurrentFatTime@plt
	.loc 1 983 10
	addi	a5,s0,-128
	mv	a1,a5
	ld	a0,-24(s0)
	call	FatStoreDirEnt
	mv	a5,a0
.L120:
	.loc 1 984 1
	mv	a0,a5
	ld	ra,136(sp)
	.cfi_restore 1
	ld	s0,128(sp)
	.cfi_restore 8
	.cfi_def_cfa 2, 144
	addi	sp,sp,144
	.cfi_def_cfa_offset 0
	jr	ra
	.cfi_endproc
.LFE19:
	.size	FatSetVolumeEntry, .-FatSetVolumeEntry
	.section	.text.FatCreateDotDirEnts,"ax",@progbits
	.align	1
	.globl	FatCreateDotDirEnts
	.type	FatCreateDotDirEnts, @function
FatCreateDotDirEnts:
.LFB20:
	.loc 1 1000 1
	.cfi_startproc
	addi	sp,sp,-48
	.cfi_def_cfa_offset 48
	sd	ra,40(sp)
	sd	s0,32(sp)
	.cfi_offset 1, -8
	.cfi_offset 8, -16
	addi	s0,sp,48
	.cfi_def_cfa 8, 0
	sd	a0,-40(s0)
	.loc 1 1004 12
	ld	a0,-40(s0)
	call	FatExpandODir
	sd	a0,-24(s0)
	.loc 1 1005 34
	ld	a5,-24(s0)
	.loc 1 1005 6
	bge	a5,zero,.L122
	.loc 1 1006 12
	ld	a5,-24(s0)
	j	.L125
.L122:
	.loc 1 1009 3
	ld	a0,-40(s0)
	call	FatSetDirEntCluster
	.loc 1 1013 12
	addi	a5,s0,-32
	mv	a3,a5
	li	a2,16
	lla	a1,.LC0
	ld	a0,-40(s0)
	call	FatCreateDirEnt
	sd	a0,-24(s0)
	.loc 1 1014 34
	ld	a5,-24(s0)
	.loc 1 1014 6
	bge	a5,zero,.L124
	.loc 1 1015 12
	ld	a5,-24(s0)
	j	.L125
.L124:
	.loc 1 1021 12
	addi	a5,s0,-32
	mv	a3,a5
	li	a2,16
	lla	a1,.LC1
	ld	a0,-40(s0)
	call	FatCreateDirEnt
	sd	a0,-24(s0)
	.loc 1 1022 10
	ld	a5,-24(s0)
.L125:
	.loc 1 1023 1
	mv	a0,a5
	ld	ra,40(sp)
	.cfi_restore 1
	ld	s0,32(sp)
	.cfi_restore 8
	.cfi_def_cfa 2, 48
	addi	sp,sp,48
	.cfi_def_cfa_offset 0
	jr	ra
	.cfi_endproc
.LFE20:
	.size	FatCreateDotDirEnts, .-FatCreateDotDirEnts
	.section	.text.FatCreateDirEnt,"ax",@progbits
	.align	1
	.globl	FatCreateDirEnt
	.type	FatCreateDirEnt, @function
FatCreateDirEnt:
.LFB21:
	.loc 1 1046 1
	.cfi_startproc
	addi	sp,sp,-80
	.cfi_def_cfa_offset 80
	sd	ra,72(sp)
	sd	s0,64(sp)
	.cfi_offset 1, -8
	.cfi_offset 8, -16
	addi	s0,sp,80
	.cfi_def_cfa 8, 0
	sd	a0,-56(s0)
	sd	a1,-64(s0)
	mv	a5,a2
	sd	a3,-80(s0)
	sb	a5,-65(s0)
	.loc 1 1052 8
	ld	a5,-56(s0)
	ld	a5,152(a5)
	sd	a5,-32(s0)
	.loc 1 1054 12
	li	a0,96
	call	AllocateZeroPool@plt
	sd	a0,-40(s0)
	.loc 1 1055 6
	ld	a5,-40(s0)
	bne	a5,zero,.L127
	.loc 1 1056 12
	li	a5,-1
	slli	a5,a5,63
	addi	a5,a5,9
	j	.L128
.L127:
	.loc 1 1059 21
	ld	a5,-40(s0)
	li	a4,1702125568
	addi	a4,a4,358
	sd	a4,0(a5)
	.loc 1 1060 24
	ld	a0,-64(s0)
	call	StrSize@plt
	mv	a5,a0
	.loc 1 1060 24 is_stmt 0 discriminator 1
	ld	a1,-64(s0)
	mv	a0,a5
	call	AllocateCopyPool@plt
	mv	a4,a0
	.loc 1 1060 22 is_stmt 1 discriminator 2
	ld	a5,-40(s0)
	sd	a4,16(a5)
	.loc 1 1061 13
	ld	a5,-40(s0)
	ld	a5,16(a5)
	.loc 1 1061 6
	bne	a5,zero,.L129
	.loc 1 1062 12
	li	a5,-1
	slli	a5,a5,63
	addi	a5,a5,9
	sd	a5,-24(s0)
	.loc 1 1063 5
	j	.L130
.L129:
	.loc 1 1069 3
	ld	a1,-40(s0)
	ld	a0,-56(s0)
	call	FatSetEntryCount
	.loc 1 1073 12
	ld	a1,-40(s0)
	ld	a0,-56(s0)
	call	FatNewEntryPos
	sd	a0,-24(s0)
	.loc 1 1074 34
	ld	a5,-24(s0)
	.loc 1 1074 6
	blt	a5,zero,.L132
	.loc 1 1078 3
	ld	a1,-40(s0)
	ld	a0,-32(s0)
	call	FatAddDirEnt
	.loc 1 1079 28
	ld	a5,-40(s0)
	lbu	a4,-65(s0)
	sb	a4,75(a5)
	.loc 1 1080 14
	ld	a5,-80(s0)
	ld	a4,-40(s0)
	sd	a4,0(a5)
	.loc 1 1082 10
	ld	a1,-40(s0)
	ld	a0,-56(s0)
	call	FatStoreDirEnt
	mv	a5,a0
	j	.L128
.L132:
	.loc 1 1075 5
	nop
.L130:
	.loc 1 1085 3
	ld	a0,-40(s0)
	call	FatFreeDirEnt@plt
	.loc 1 1086 10
	ld	a5,-24(s0)
.L128:
	.loc 1 1087 1
	mv	a0,a5
	ld	ra,72(sp)
	.cfi_restore 1
	ld	s0,64(sp)
	.cfi_restore 8
	.cfi_def_cfa 2, 80
	addi	sp,sp,80
	.cfi_def_cfa_offset 0
	jr	ra
	.cfi_endproc
.LFE21:
	.size	FatCreateDirEnt, .-FatCreateDirEnt
	.section	.text.FatRemoveDirEnt,"ax",@progbits
	.align	1
	.globl	FatRemoveDirEnt
	.type	FatRemoveDirEnt, @function
FatRemoveDirEnt:
.LFB22:
	.loc 1 1105 1
	.cfi_startproc
	addi	sp,sp,-48
	.cfi_def_cfa_offset 48
	sd	ra,40(sp)
	sd	s0,32(sp)
	.cfi_offset 1, -8
	.cfi_offset 8, -16
	addi	s0,sp,48
	.cfi_def_cfa 8, 0
	sd	a0,-40(s0)
	sd	a1,-48(s0)
	.loc 1 1108 8
	ld	a5,-40(s0)
	ld	a5,152(a5)
	sd	a5,-24(s0)
	.loc 1 1109 11
	ld	a5,-24(s0)
	ld	a4,16(a5)
	.loc 1 1109 30
	ld	a5,-48(s0)
	addi	a5,a5,48
	.loc 1 1109 6
	bne	a4,a5,.L134
	.loc 1 1113 31
	ld	a5,-24(s0)
	ld	a5,16(a5)
	.loc 1 1113 46
	ld	a4,8(a5)
	.loc 1 1113 25
	ld	a5,-24(s0)
	sd	a4,16(a5)
.L134:
	.loc 1 1119 20
	ld	a5,-48(s0)
	addi	a5,a5,48
	.loc 1 1119 3
	mv	a0,a5
	call	RemoveEntryList@plt
	.loc 1 1123 3
	ld	a1,-48(s0)
	ld	a0,-24(s0)
	call	FatDeleteFromHashTable@plt
	.loc 1 1124 29
	ld	a5,-48(s0)
	li	a4,-27
	sb	a4,64(a5)
	.loc 1 1125 19
	ld	a5,-48(s0)
	li	a4,1
	sb	a4,11(a5)
	.loc 1 1126 10
	ld	a1,-48(s0)
	ld	a0,-40(s0)
	call	FatStoreDirEnt
	mv	a5,a0
	.loc 1 1127 1
	mv	a0,a5
	ld	ra,40(sp)
	.cfi_restore 1
	ld	s0,32(sp)
	.cfi_restore 8
	.cfi_def_cfa 2, 48
	addi	sp,sp,48
	.cfi_def_cfa_offset 0
	jr	ra
	.cfi_endproc
.LFE22:
	.size	FatRemoveDirEnt, .-FatRemoveDirEnt
	.section	.text.FatOpenDirEnt,"ax",@progbits
	.align	1
	.globl	FatOpenDirEnt
	.type	FatOpenDirEnt, @function
FatOpenDirEnt:
.LFB23:
	.loc 1 1146 1
	.cfi_startproc
	addi	sp,sp,-64
	.cfi_def_cfa_offset 64
	sd	ra,56(sp)
	sd	s0,48(sp)
	sd	s1,40(sp)
	.cfi_offset 1, -8
	.cfi_offset 8, -16
	.cfi_offset 9, -24
	addi	s0,sp,64
	.cfi_def_cfa 8, 0
	sd	a0,-56(s0)
	sd	a1,-64(s0)
	.loc 1 1150 13
	ld	a5,-64(s0)
	ld	a5,24(a5)
	.loc 1 1150 6
	bne	a5,zero,.L137
	.loc 1 1154 13
	li	a0,184
	call	AllocateZeroPool@plt
	sd	a0,-48(s0)
	.loc 1 1155 8
	ld	a5,-48(s0)
	bne	a5,zero,.L138
	.loc 1 1156 14
	li	a5,-1
	slli	a5,a5,63
	addi	a5,a5,9
	j	.L139
.L138:
	.loc 1 1159 22
	ld	a5,-48(s0)
	li	a4,1869897728
	addi	a4,a4,358
	sd	a4,0(a5)
	.loc 1 1160 5
	ld	a5,-48(s0)
	addi	a5,a5,24
	mv	a0,a5
	call	InitializeListHead@plt
	.loc 1 1161 5
	ld	a5,-48(s0)
	addi	a5,a5,120
	mv	a0,a5
	call	InitializeListHead@plt
	.loc 1 1162 19
	ld	a5,-48(s0)
	ld	a4,-56(s0)
	sd	a4,104(a5)
	.loc 1 1163 19
	ld	a5,-48(s0)
	ld	a4,-64(s0)
	sd	a4,160(a5)
	.loc 1 1164 8
	ld	a5,-56(s0)
	beq	a5,zero,.L140
	.loc 1 1168 14
	ld	a5,-56(s0)
	ld	a5,8(a5)
	sd	a5,-40(s0)
	.loc 1 1169 34
	ld	a5,-56(s0)
	ld	s1,112(a5)
	.loc 1 1169 68
	ld	a5,-64(s0)
	ld	a5,16(a5)
	.loc 1 1169 54
	mv	a0,a5
	call	StrLen@plt
	mv	a5,a0
	.loc 1 1169 52 discriminator 1
	add	a5,s1,a5
	addi	a4,a5,1
	.loc 1 1169 26 discriminator 1
	ld	a5,-48(s0)
	sd	a4,112(a5)
	.loc 1 1170 43
	ld	a5,-64(s0)
	lhu	a5,84(a5)
	sext.w	a5,a5
	.loc 1 1170 61
	slliw	a5,a5,16
	sext.w	a4,a5
	.loc 1 1170 84
	ld	a5,-64(s0)
	lhu	a5,90(a5)
	sext.w	a5,a5
	.loc 1 1170 68
	or	a5,a4,a5
	sext.w	a5,a5
	mv	a4,a5
	.loc 1 1170 26
	ld	a5,-48(s0)
	sd	a4,48(a5)
	.loc 1 1171 7
	ld	a5,-56(s0)
	addi	a4,a5,120
	ld	a5,-48(s0)
	addi	a5,a5,136
	mv	a1,a5
	mv	a0,a4
	call	InsertTailList@plt
	j	.L141
.L140:
	.loc 1 1176 18
	ld	a5,-64(s0)
	addi	a5,a5,-728
	.loc 1 1176 118
	ld	a4,0(a5)
	.loc 1 1176 203
	li	a5,1987338240
	addi	a5,a5,358
	bne	a4,a5,.L142
	.loc 1 1176 14 discriminator 1
	ld	a5,-64(s0)
	addi	a5,a5,-728
	sd	a5,-40(s0)
	j	.L143
.L142:
	.loc 1 1176 14 is_stmt 0 discriminator 2
	sd	zero,-40(s0)
.L143:
	.loc 1 1177 20 is_stmt 1
	ld	a5,-40(s0)
	ld	a4,-48(s0)
	sd	a4,832(a5)
	.loc 1 1178 34
	ld	a5,-40(s0)
	ld	a4,704(a5)
	.loc 1 1178 26
	ld	a5,-48(s0)
	sd	a4,48(a5)
	.loc 1 1179 17
	ld	a5,-40(s0)
	lw	a4,132(a5)
	.loc 1 1179 10
	li	a5,2
	beq	a4,a5,.L141
	.loc 1 1180 31
	ld	a5,-48(s0)
	li	a4,1
	sb	a4,73(a5)
.L141:
	.loc 1 1184 38
	ld	a5,-48(s0)
	ld	a4,48(a5)
	.loc 1 1184 31
	ld	a5,-48(s0)
	sd	a4,56(a5)
	.loc 1 1185 19
	ld	a5,-48(s0)
	ld	a4,-40(s0)
	sd	a4,8(a5)
	.loc 1 1186 5
	ld	a5,-40(s0)
	addi	a4,a5,840
	ld	a5,-48(s0)
	addi	a5,a5,168
	mv	a1,a5
	mv	a0,a4
	call	InsertHeadList@plt
	.loc 1 1188 36
	ld	a5,-64(s0)
	lw	a5,92(a5)
	slli	a4,a5,32
	srli	a4,a4,32
	.loc 1 1188 21
	ld	a5,-48(s0)
	sd	a4,40(a5)
	.loc 1 1189 23
	ld	a5,-64(s0)
	lbu	a5,75(a5)
	.loc 1 1189 35
	sext.w	a5,a5
	andi	a5,a5,16
	sext.w	a5,a5
	.loc 1 1189 8
	beq	a5,zero,.L144
	.loc 1 1190 16
	ld	a5,-48(s0)
	lbu	a5,73(a5)
	.loc 1 1190 10
	beq	a5,zero,.L145
	.loc 1 1191 33
	ld	a5,-40(s0)
	ld	a5,696(a5)
	.loc 1 1191 47
	slli	a4,a5,5
	.loc 1 1191 25
	ld	a5,-48(s0)
	sd	a4,40(a5)
	j	.L146
.L145:
	.loc 1 1193 27
	ld	a5,-48(s0)
	ld	a5,48(a5)
	mv	a1,a5
	ld	a0,-40(s0)
	call	FatPhysicalDirSize@plt
	mv	a4,a0
	.loc 1 1193 25 discriminator 1
	ld	a5,-48(s0)
	sd	a4,40(a5)
.L146:
	.loc 1 1196 7
	ld	a0,-48(s0)
	call	FatRequestODir@plt
	.loc 1 1197 16
	ld	a5,-48(s0)
	ld	a5,152(a5)
	.loc 1 1197 10
	bne	a5,zero,.L144
	.loc 1 1198 16
	li	a5,-1
	slli	a5,a5,63
	addi	a5,a5,9
	j	.L139
.L144:
	.loc 1 1202 19
	ld	a5,-64(s0)
	ld	a4,-48(s0)
	sd	a4,24(a5)
.L137:
	.loc 1 1205 10
	li	a5,0
.L139:
	.loc 1 1206 1
	mv	a0,a5
	ld	ra,56(sp)
	.cfi_restore 1
	ld	s0,48(sp)
	.cfi_restore 8
	.cfi_def_cfa 2, 64
	ld	s1,40(sp)
	.cfi_restore 9
	addi	sp,sp,64
	.cfi_def_cfa_offset 0
	jr	ra
	.cfi_endproc
.LFE23:
	.size	FatOpenDirEnt, .-FatOpenDirEnt
	.section	.text.FatCloseDirEnt,"ax",@progbits
	.align	1
	.globl	FatCloseDirEnt
	.type	FatCloseDirEnt, @function
FatCloseDirEnt:
.LFB24:
	.loc 1 1219 1
	.cfi_startproc
	addi	sp,sp,-48
	.cfi_def_cfa_offset 48
	sd	ra,40(sp)
	sd	s0,32(sp)
	.cfi_offset 1, -8
	.cfi_offset 8, -16
	addi	s0,sp,48
	.cfi_def_cfa 8, 0
	sd	a0,-40(s0)
	.loc 1 1223 9
	ld	a5,-40(s0)
	ld	a5,24(a5)
	sd	a5,-24(s0)
	.loc 1 1225 10
	ld	a5,-24(s0)
	ld	a5,8(a5)
	sd	a5,-32(s0)
	.loc 1 1227 12
	ld	a5,-24(s0)
	ld	a5,152(a5)
	.loc 1 1227 6
	beq	a5,zero,.L148
	.loc 1 1228 5
	ld	a0,-24(s0)
	call	FatDiscardODir@plt
.L148:
	.loc 1 1231 12
	ld	a5,-24(s0)
	ld	a5,104(a5)
	.loc 1 1231 6
	bne	a5,zero,.L149
	.loc 1 1232 18
	ld	a5,-32(s0)
	sd	zero,832(a5)
	j	.L150
.L149:
	.loc 1 1234 22
	ld	a5,-24(s0)
	addi	a5,a5,136
	.loc 1 1234 5
	mv	a0,a5
	call	RemoveEntryList@plt
.L150:
	.loc 1 1237 3
	ld	a0,-24(s0)
	call	FreePool@plt
	.loc 1 1238 17
	ld	a5,-40(s0)
	sd	zero,24(a5)
	.loc 1 1239 13
	ld	a5,-40(s0)
	lbu	a5,11(a5)
	.loc 1 1239 6
	mv	a4,a5
	li	a5,1
	bne	a4,a5,.L152
	.loc 1 1243 5
	ld	a0,-40(s0)
	call	FatFreeDirEnt@plt
.L152:
	.loc 1 1245 1
	nop
	ld	ra,40(sp)
	.cfi_restore 1
	ld	s0,32(sp)
	.cfi_restore 8
	.cfi_def_cfa 2, 48
	addi	sp,sp,48
	.cfi_def_cfa_offset 0
	jr	ra
	.cfi_endproc
.LFE24:
	.size	FatCloseDirEnt, .-FatCloseDirEnt
	.section	.text.FatLocateOFile,"ax",@progbits
	.align	1
	.globl	FatLocateOFile
	.type	FatLocateOFile, @function
FatLocateOFile:
.LFB25:
	.loc 1 1274 1
	.cfi_startproc
	addi	sp,sp,-624
	.cfi_def_cfa_offset 624
	sd	ra,616(sp)
	sd	s0,608(sp)
	.cfi_offset 1, -8
	.cfi_offset 8, -16
	addi	s0,sp,624
	.cfi_def_cfa 8, 0
	sd	a0,-600(s0)
	sd	a1,-608(s0)
	mv	a5,a2
	sd	a3,-624(s0)
	sb	a5,-609(s0)
	.loc 1 1284 10
	sd	zero,-592(s0)
	.loc 1 1286 17
	ld	a0,-608(s0)
	call	StrLen@plt
	sd	a0,-24(s0)
	.loc 1 1287 6
	ld	a5,-24(s0)
	bne	a5,zero,.L154
	.loc 1 1288 12
	li	a5,-1
	slli	a5,a5,63
	addi	a5,a5,2
	j	.L174
.L154:
	.loc 1 1291 9
	ld	a5,-600(s0)
	ld	a5,0(a5)
	sd	a5,-48(s0)
	.loc 1 1292 10
	ld	a5,-48(s0)
	ld	a5,8(a5)
	sd	a5,-56(s0)
	.loc 1 1294 15
	sb	zero,-25(s0)
	.loc 1 1295 15
	ld	a5,-24(s0)
	slli	a5,a5,1
	addi	a5,a5,-2
	ld	a4,-608(s0)
	add	a5,a4,a5
	lhu	a5,0(a5)
	.loc 1 1295 6
	sext.w	a4,a5
	li	a5,92
	bne	a4,a5,.L156
	.loc 1 1296 17
	li	a5,1
	sb	a5,-25(s0)
.L156:
	.loc 1 1302 7
	ld	a5,-608(s0)
	lhu	a5,0(a5)
	.loc 1 1302 6
	sext.w	a4,a5
	li	a5,92
	bne	a4,a5,.L157
	.loc 1 1303 11
	ld	a5,-56(s0)
	ld	a5,832(a5)
	sd	a5,-48(s0)
	.loc 1 1304 13
	ld	a5,-608(s0)
	addi	a5,a5,2
	sd	a5,-608(s0)
	.loc 1 1305 16
	ld	a5,-24(s0)
	addi	a5,a5,-1
	sd	a5,-24(s0)
.L157:
	.loc 1 1314 16
	ld	a5,-48(s0)
	ld	a4,112(a5)
	.loc 1 1314 34
	ld	a5,-24(s0)
	add	a5,a4,a5
	.loc 1 1314 48
	addi	a4,a5,4
	.loc 1 1314 6
	li	a5,260
	bleu	a4,a5,.L158
	.loc 1 1318 12
	li	a5,-1
	slli	a5,a5,63
	addi	a5,a5,2
	j	.L174
.L158:
	.loc 1 1324 8
	ld	a5,-608(s0)
	sd	a5,-40(s0)
.L173:
	.loc 1 1329 14
	ld	a5,-40(s0)
	sd	a5,-608(s0)
	.loc 1 1330 12
	addi	a5,s0,-584
	mv	a1,a5
	ld	a0,-608(s0)
	call	FatGetNextNameComponent@plt
	sd	a0,-40(s0)
	.loc 1 1335 22
	lhu	a5,-584(s0)
	.loc 1 1335 8
	bne	a5,zero,.L159
	.loc 1 1336 10
	lbu	a5,-25(s0)
	andi	a5,a5,0xff
	beq	a5,zero,.L160
	.loc 1 1336 32 discriminator 1
	ld	a5,-48(s0)
	ld	a5,152(a5)
	.loc 1 1336 23 discriminator 1
	bne	a5,zero,.L160
	.loc 1 1337 16
	li	a5,-1
	slli	a5,a5,63
	addi	a5,a5,14
	j	.L174
.L160:
	.loc 1 1340 22
	ld	a5,-624(s0)
	sh	zero,0(a5)
	.loc 1 1341 7
	j	.L161
.L159:
	.loc 1 1347 9
	addi	a5,s0,-584
	lla	a1,.LC0
	mv	a0,a5
	call	StrCmp@plt
	mv	a5,a0
	.loc 1 1347 8 discriminator 1
	beq	a5,zero,.L175
	.loc 1 1354 9
	addi	a5,s0,-584
	lla	a1,.LC1
	mv	a0,a5
	call	StrCmp@plt
	mv	a5,a0
	.loc 1 1354 8 discriminator 1
	bne	a5,zero,.L164
	.loc 1 1355 16
	ld	a5,-48(s0)
	ld	a5,104(a5)
	.loc 1 1355 10
	bne	a5,zero,.L165
	.loc 1 1356 16
	li	a5,-1
	slli	a5,a5,63
	addi	a5,a5,2
	j	.L174
.L165:
	.loc 1 1359 13
	ld	a5,-48(s0)
	ld	a5,104(a5)
	sd	a5,-48(s0)
	.loc 1 1360 7
	j	.L163
.L164:
	.loc 1 1363 10
	addi	a5,s0,-584
	ld	a1,-624(s0)
	mv	a0,a5
	call	FatFileNameIsValid@plt
	mv	a5,a0
	.loc 1 1363 8 discriminator 1
	bne	a5,zero,.L166
	.loc 1 1364 14
	li	a5,-1
	slli	a5,a5,63
	addi	a5,a5,2
	j	.L174
.L166:
	.loc 1 1370 14
	ld	a5,-48(s0)
	ld	a5,152(a5)
	.loc 1 1370 8
	bne	a5,zero,.L167
	.loc 1 1374 14
	li	a5,-1
	slli	a5,a5,63
	addi	a5,a5,14
	j	.L174
.L167:
	.loc 1 1380 14
	addi	a5,s0,-592
	mv	a2,a5
	ld	a1,-624(s0)
	ld	a0,-48(s0)
	call	FatSearchODir
	sd	a0,-64(s0)
	.loc 1 1381 36
	ld	a5,-64(s0)
	.loc 1 1381 8
	bge	a5,zero,.L168
	.loc 1 1382 14
	ld	a5,-64(s0)
	j	.L174
.L168:
	.loc 1 1385 16
	ld	a5,-592(s0)
	.loc 1 1385 8
	bne	a5,zero,.L169
	.loc 1 1389 11
	ld	a5,-40(s0)
	lhu	a5,0(a5)
	.loc 1 1389 10
	beq	a5,zero,.L170
	.loc 1 1390 16
	li	a5,-1
	slli	a5,a5,63
	addi	a5,a5,14
	j	.L174
.L170:
	.loc 1 1393 10
	lbu	a5,-25(s0)
	andi	a5,a5,0xff
	beq	a5,zero,.L176
	.loc 1 1393 39 discriminator 1
	lbu	a5,-609(s0)
	sext.w	a5,a5
	andi	a5,a5,16
	sext.w	a5,a5
	.loc 1 1393 23 discriminator 1
	bne	a5,zero,.L176
	.loc 1 1394 16
	li	a5,-1
	slli	a5,a5,63
	addi	a5,a5,2
	j	.L174
.L169:
	.loc 1 1404 14
	ld	a5,-592(s0)
	mv	a1,a5
	ld	a0,-48(s0)
	call	FatOpenDirEnt
	sd	a0,-64(s0)
	.loc 1 1405 36
	ld	a5,-64(s0)
	.loc 1 1405 8
	bge	a5,zero,.L172
	.loc 1 1406 14
	ld	a5,-64(s0)
	j	.L174
.L172:
	.loc 1 1409 19
	ld	a5,-592(s0)
	.loc 1 1409 11
	ld	a5,24(a5)
	sd	a5,-48(s0)
	j	.L173
.L175:
	.loc 1 1348 7
	nop
.L163:
	.loc 1 1329 14
	j	.L173
.L176:
	.loc 1 1401 7
	nop
.L161:
	.loc 1 1412 13
	ld	a5,-600(s0)
	ld	a4,-48(s0)
	sd	a4,0(a5)
	.loc 1 1413 10
	li	a5,0
.L174:
	.loc 1 1414 1
	mv	a0,a5
	ld	ra,616(sp)
	.cfi_restore 1
	ld	s0,608(sp)
	.cfi_restore 8
	.cfi_def_cfa 2, 624
	addi	sp,sp,624
	.cfi_def_cfa_offset 0
	jr	ra
	.cfi_endproc
.LFE25:
	.size	FatLocateOFile, .-FatLocateOFile
	.section	.rodata
	.align	3
.LC2:
	.dword	5675921253449092805
	.text
.Letext0:
	.file 2 "/home/kapoagaeming/Downloads/spacemit-image-builder/components/edk2/MdePkg/Include/RiscV64/ProcessorBind.h"
	.file 3 "/home/kapoagaeming/Downloads/spacemit-image-builder/components/edk2/MdePkg/Include/Base.h"
	.file 4 "/home/kapoagaeming/Downloads/spacemit-image-builder/components/edk2/MdePkg/Include/Uefi/UefiBaseType.h"
	.file 5 "/home/kapoagaeming/Downloads/spacemit-image-builder/components/edk2/MdePkg/Include/Guid/FileInfo.h"
	.file 6 "/home/kapoagaeming/Downloads/spacemit-image-builder/components/edk2/MdePkg/Include/Protocol/BlockIo.h"
	.file 7 "/home/kapoagaeming/Downloads/spacemit-image-builder/components/edk2/MdePkg/Include/Protocol/DiskIo.h"
	.file 8 "/home/kapoagaeming/Downloads/spacemit-image-builder/components/edk2/MdePkg/Include/Protocol/DiskIo2.h"
	.file 9 "/home/kapoagaeming/Downloads/spacemit-image-builder/components/edk2/MdePkg/Include/Protocol/SimpleFileSystem.h"
	.file 10 "/home/kapoagaeming/Downloads/spacemit-image-builder/components/edk2/FatPkg/EnhancedFatDxe/FatFileSystem.h"
	.file 11 "/home/kapoagaeming/Downloads/spacemit-image-builder/components/edk2/FatPkg/EnhancedFatDxe/Fat.h"
	.file 12 "/home/kapoagaeming/Downloads/spacemit-image-builder/components/edk2/MdePkg/Include/Library/MemoryAllocationLib.h"
	.file 13 "/home/kapoagaeming/Downloads/spacemit-image-builder/components/edk2/MdePkg/Include/Library/BaseLib.h"
	.file 14 "/home/kapoagaeming/Downloads/spacemit-image-builder/components/edk2/MdePkg/Include/Library/BaseMemoryLib.h"
	.section	.note.GNU-stack,"",@progbits
