	.file	"UnicodeCollation.c"
	.option pic
	.option norelax
	.attribute arch, "rv64i2p1_m2p0_a2p1_f2p2_d2p2_c2p0_zicsr2p0_zifencei2p0_zmmul1p0_zaamo1p0_zalrsc1p0_zca1p0_zcd1p0"
	.attribute unaligned_access, 0
	.attribute stack_align, 16
	.text
.Ltext0:
	.cfi_sections	.debug_frame
	.file 0 "/home/kapoagaeming/Downloads/spacemit-image-builder/components/Build/Milk-V-Jupiter/RELEASE_GCC5/RISCV64/FatPkg/EnhancedFatDxe/Fat" "/home/kapoagaeming/Downloads/spacemit-image-builder/components/edk2/FatPkg/EnhancedFatDxe/UnicodeCollation.c"
	.globl	mUnicodeCollationInterface
	.section	.bss.mUnicodeCollationInterface,"aw",@nobits
	.align	3
	.type	mUnicodeCollationInterface, @object
	.size	mUnicodeCollationInterface, 8
mUnicodeCollationInterface:
	.zero	8
	.section	.rodata
	.align	3
.LC0:
	.string	""
	.section	.text.InitializeUnicodeCollationSupportWorker,"ax",@progbits
	.align	1
	.globl	InitializeUnicodeCollationSupportWorker
	.type	InitializeUnicodeCollationSupportWorker, @function
InitializeUnicodeCollationSupportWorker:
.LFB0:
	.file 1 "/home/kapoagaeming/Downloads/spacemit-image-builder/components/edk2/FatPkg/EnhancedFatDxe/UnicodeCollation.c"
	.loc 1 36 1
	.cfi_startproc
	addi	sp,sp,-128
	.cfi_def_cfa_offset 128
	sd	ra,120(sp)
	sd	s0,112(sp)
	.cfi_offset 1, -8
	.cfi_offset 8, -16
	addi	s0,sp,128
	.cfi_def_cfa 8, 0
	sd	a0,-104(s0)
	sd	a1,-112(s0)
	sd	a2,-120(s0)
	sd	a3,-128(s0)
	.loc 1 47 15
	la	a5,gBS
	ld	a5,0(a5)
	ld	a5,312(a5)
	.loc 1 47 12
	addi	a4,s0,-72
	addi	a3,s0,-64
	li	a2,0
	ld	a1,-112(s0)
	li	a0,2
	jalr	a5
.LVL0:
	sd	a0,-40(s0)
	.loc 1 54 34
	ld	a5,-40(s0)
	.loc 1 54 6
	bge	a5,zero,.L2
	.loc 1 55 12
	ld	a5,-40(s0)
	j	.L12
.L2:
	.loc 1 58 20
	ld	a4,-112(s0)
	la	a5,gEfiUnicodeCollationProtocolGuid
	sub	a5,a4,a5
	seqz	a5,a5
	andi	a5,a5,0xff
	.loc 1 58 18
	sb	a5,-41(s0)
	.loc 1 59 3
	addi	a5,s0,-88
	li	a2,0
	mv	a1,a5
	ld	a0,-120(s0)
	call	GetEfiGlobalVariable2@plt
	.loc 1 61 16
	li	a5,-1
	slli	a5,a5,63
	addi	a5,a5,3
	sd	a5,-24(s0)
	.loc 1 62 14
	sd	zero,-32(s0)
	.loc 1 62 3
	j	.L4
.L10:
	.loc 1 66 17
	la	a5,gBS
	ld	a5,0(a5)
	ld	a6,280(a5)
	.loc 1 67 28
	ld	a4,-72(s0)
	ld	a5,-32(s0)
	slli	a5,a5,3
	add	a5,a4,a5
	.loc 1 66 14
	ld	a0,0(a5)
	addi	a2,s0,-80
	li	a5,2
	li	a4,0
	ld	a3,-104(s0)
	ld	a1,-112(s0)
	jalr	a6
.LVL1:
	sd	a0,-40(s0)
	.loc 1 74 36
	ld	a5,-40(s0)
	.loc 1 74 8
	blt	a5,zero,.L13
	.loc 1 83 25
	ld	a5,-80(s0)
	ld	a0,48(a5)
	.loc 1 82 20
	lbu	a1,-41(s0)
	.loc 1 85 32
	ld	a5,-88(s0)
	.loc 1 82 20
	beq	a5,zero,.L7
	.loc 1 82 20 is_stmt 0 discriminator 1
	ld	a5,-88(s0)
	j	.L8
.L7:
	.loc 1 82 20 discriminator 2
	lla	a5,.LC0
.L8:
	.loc 1 82 20 discriminator 4
	li	a4,0
	ld	a3,-128(s0)
	mv	a2,a5
	call	GetBestLanguage@plt
	sd	a0,-56(s0)
	.loc 1 89 8 is_stmt 1
	ld	a5,-56(s0)
	beq	a5,zero,.L6
	.loc 1 90 7
	ld	a0,-56(s0)
	call	FreePool@plt
	.loc 1 91 34
	ld	a4,-80(s0)
	lla	a5,mUnicodeCollationInterface
	sd	a4,0(a5)
	.loc 1 92 20
	sd	zero,-24(s0)
	.loc 1 93 7
	j	.L9
.L13:
	.loc 1 75 7
	nop
.L6:
	.loc 1 62 44 discriminator 2
	ld	a5,-32(s0)
	addi	a5,a5,1
	sd	a5,-32(s0)
.L4:
	.loc 1 62 25 discriminator 1
	ld	a5,-64(s0)
	ld	a4,-32(s0)
	bltu	a4,a5,.L10
.L9:
	.loc 1 97 16
	ld	a5,-88(s0)
	.loc 1 97 6
	beq	a5,zero,.L11
	.loc 1 98 5
	ld	a5,-88(s0)
	mv	a0,a5
	call	FreePool@plt
.L11:
	.loc 1 101 3
	ld	a5,-72(s0)
	mv	a0,a5
	call	FreePool@plt
	.loc 1 103 10
	ld	a5,-24(s0)
.L12:
	.loc 1 104 1
	mv	a0,a5
	ld	ra,120(sp)
	.cfi_restore 1
	ld	s0,112(sp)
	.cfi_restore 8
	.cfi_def_cfa 2, 128
	addi	sp,sp,128
	.cfi_def_cfa_offset 0
	jr	ra
	.cfi_endproc
.LFE0:
	.size	InitializeUnicodeCollationSupportWorker, .-InitializeUnicodeCollationSupportWorker
	.section	.rodata
	.align	3
.LC1:
	.string	"P"
	.string	"l"
	.string	"a"
	.string	"t"
	.string	"f"
	.string	"o"
	.string	"r"
	.string	"m"
	.string	"L"
	.string	"a"
	.string	"n"
	.string	"g"
	.zero	2
	.align	3
.LC2:
	.string	"L"
	.string	"a"
	.string	"n"
	.string	"g"
	.zero	2
	.section	.text.InitializeUnicodeCollationSupport,"ax",@progbits
	.align	1
	.globl	InitializeUnicodeCollationSupport
	.type	InitializeUnicodeCollationSupport, @function
InitializeUnicodeCollationSupport:
.LFB1:
	.loc 1 123 1
	.cfi_startproc
	addi	sp,sp,-48
	.cfi_def_cfa_offset 48
	sd	ra,40(sp)
	sd	s0,32(sp)
	.cfi_offset 1, -8
	.cfi_offset 8, -16
	addi	s0,sp,48
	.cfi_def_cfa 8, 0
	sd	a0,-40(s0)
	.loc 1 126 10
	li	a5,-1
	slli	a5,a5,63
	addi	a5,a5,3
	sd	a5,-24(s0)
	.loc 1 131 12
	la	a3,_gPcd_FixedAtBuild_PcdUefiVariableDefaultPlatformLang
	lla	a2,.LC1
	la	a1,gEfiUnicodeCollation2ProtocolGuid
	ld	a0,-40(s0)
	call	InitializeUnicodeCollationSupportWorker
	sd	a0,-24(s0)
	.loc 1 141 34
	ld	a5,-24(s0)
	.loc 1 141 6
	bge	a5,zero,.L15
	.loc 1 142 14
	la	a3,_gPcd_FixedAtBuild_PcdUefiVariableDefaultLang
	lla	a2,.LC2
	la	a1,gEfiUnicodeCollationProtocolGuid
	ld	a0,-40(s0)
	call	InitializeUnicodeCollationSupportWorker
	sd	a0,-24(s0)
.L15:
	.loc 1 150 10
	ld	a5,-24(s0)
	.loc 1 151 1
	mv	a0,a5
	ld	ra,40(sp)
	.cfi_restore 1
	ld	s0,32(sp)
	.cfi_restore 8
	.cfi_def_cfa 2, 48
	addi	sp,sp,48
	.cfi_def_cfa_offset 0
	jr	ra
	.cfi_endproc
.LFE1:
	.size	InitializeUnicodeCollationSupport, .-InitializeUnicodeCollationSupport
	.section	.text.FatStriCmp,"ax",@progbits
	.align	1
	.globl	FatStriCmp
	.type	FatStriCmp, @function
FatStriCmp:
.LFB2:
	.loc 1 168 1
	.cfi_startproc
	addi	sp,sp,-32
	.cfi_def_cfa_offset 32
	sd	ra,24(sp)
	sd	s0,16(sp)
	.cfi_offset 1, -8
	.cfi_offset 8, -16
	addi	s0,sp,32
	.cfi_def_cfa 8, 0
	sd	a0,-24(s0)
	sd	a1,-32(s0)
	.loc 1 177 36
	lla	a5,mUnicodeCollationInterface
	ld	a5,0(a5)
	ld	a5,0(a5)
	.loc 1 177 10
	lla	a4,mUnicodeCollationInterface
	ld	a4,0(a4)
	ld	a2,-32(s0)
	ld	a1,-24(s0)
	mv	a0,a4
	jalr	a5
.LVL2:
	mv	a5,a0
	.loc 1 182 1
	mv	a0,a5
	ld	ra,24(sp)
	.cfi_restore 1
	ld	s0,16(sp)
	.cfi_restore 8
	.cfi_def_cfa 2, 32
	addi	sp,sp,32
	.cfi_def_cfa_offset 0
	jr	ra
	.cfi_endproc
.LFE2:
	.size	FatStriCmp, .-FatStriCmp
	.section	.text.FatStrUpr,"ax",@progbits
	.align	1
	.globl	FatStrUpr
	.type	FatStrUpr, @function
FatStrUpr:
.LFB3:
	.loc 1 195 1
	.cfi_startproc
	addi	sp,sp,-32
	.cfi_def_cfa_offset 32
	sd	ra,24(sp)
	sd	s0,16(sp)
	.cfi_offset 1, -8
	.cfi_offset 8, -16
	addi	s0,sp,32
	.cfi_def_cfa 8, 0
	sd	a0,-24(s0)
	.loc 1 203 29
	lla	a5,mUnicodeCollationInterface
	ld	a5,0(a5)
	ld	a5,24(a5)
	.loc 1 203 3
	lla	a4,mUnicodeCollationInterface
	ld	a4,0(a4)
	ld	a1,-24(s0)
	mv	a0,a4
	jalr	a5
.LVL3:
	.loc 1 204 1
	nop
	ld	ra,24(sp)
	.cfi_restore 1
	ld	s0,16(sp)
	.cfi_restore 8
	.cfi_def_cfa 2, 32
	addi	sp,sp,32
	.cfi_def_cfa_offset 0
	jr	ra
	.cfi_endproc
.LFE3:
	.size	FatStrUpr, .-FatStrUpr
	.section	.text.FatStrLwr,"ax",@progbits
	.align	1
	.globl	FatStrLwr
	.type	FatStrLwr, @function
FatStrLwr:
.LFB4:
	.loc 1 217 1
	.cfi_startproc
	addi	sp,sp,-32
	.cfi_def_cfa_offset 32
	sd	ra,24(sp)
	sd	s0,16(sp)
	.cfi_offset 1, -8
	.cfi_offset 8, -16
	addi	s0,sp,32
	.cfi_def_cfa 8, 0
	sd	a0,-24(s0)
	.loc 1 225 29
	lla	a5,mUnicodeCollationInterface
	ld	a5,0(a5)
	ld	a5,16(a5)
	.loc 1 225 3
	lla	a4,mUnicodeCollationInterface
	ld	a4,0(a4)
	ld	a1,-24(s0)
	mv	a0,a4
	jalr	a5
.LVL4:
	.loc 1 226 1
	nop
	ld	ra,24(sp)
	.cfi_restore 1
	ld	s0,16(sp)
	.cfi_restore 8
	.cfi_def_cfa 2, 32
	addi	sp,sp,32
	.cfi_def_cfa_offset 0
	jr	ra
	.cfi_endproc
.LFE4:
	.size	FatStrLwr, .-FatStrLwr
	.section	.text.FatFatToStr,"ax",@progbits
	.align	1
	.globl	FatFatToStr
	.type	FatFatToStr, @function
FatFatToStr:
.LFB5:
	.loc 1 244 1
	.cfi_startproc
	addi	sp,sp,-48
	.cfi_def_cfa_offset 48
	sd	ra,40(sp)
	sd	s0,32(sp)
	.cfi_offset 1, -8
	.cfi_offset 8, -16
	addi	s0,sp,48
	.cfi_def_cfa 8, 0
	sd	a0,-24(s0)
	sd	a1,-32(s0)
	sd	a2,-40(s0)
	.loc 1 254 29
	lla	a5,mUnicodeCollationInterface
	ld	a5,0(a5)
	ld	a5,32(a5)
	.loc 1 254 3
	lla	a4,mUnicodeCollationInterface
	ld	a4,0(a4)
	ld	a3,-40(s0)
	ld	a2,-32(s0)
	ld	a1,-24(s0)
	mv	a0,a4
	jalr	a5
.LVL5:
	.loc 1 255 1
	nop
	ld	ra,40(sp)
	.cfi_restore 1
	ld	s0,32(sp)
	.cfi_restore 8
	.cfi_def_cfa 2, 48
	addi	sp,sp,48
	.cfi_def_cfa_offset 0
	jr	ra
	.cfi_endproc
.LFE5:
	.size	FatFatToStr, .-FatFatToStr
	.section	.text.FatStrToFat,"ax",@progbits
	.align	1
	.globl	FatStrToFat
	.type	FatStrToFat, @function
FatStrToFat:
.LFB6:
	.loc 1 274 1
	.cfi_startproc
	addi	sp,sp,-48
	.cfi_def_cfa_offset 48
	sd	ra,40(sp)
	sd	s0,32(sp)
	.cfi_offset 1, -8
	.cfi_offset 8, -16
	addi	s0,sp,48
	.cfi_def_cfa 8, 0
	sd	a0,-24(s0)
	sd	a1,-32(s0)
	sd	a2,-40(s0)
	.loc 1 283 36
	lla	a5,mUnicodeCollationInterface
	ld	a5,0(a5)
	ld	a5,40(a5)
	.loc 1 283 10
	lla	a4,mUnicodeCollationInterface
	ld	a4,0(a4)
	ld	a3,-40(s0)
	ld	a2,-32(s0)
	ld	a1,-24(s0)
	mv	a0,a4
	jalr	a5
.LVL6:
	mv	a5,a0
	.loc 1 289 1
	mv	a0,a5
	ld	ra,40(sp)
	.cfi_restore 1
	ld	s0,32(sp)
	.cfi_restore 8
	.cfi_def_cfa 2, 48
	addi	sp,sp,48
	.cfi_def_cfa_offset 0
	jr	ra
	.cfi_endproc
.LFE6:
	.size	FatStrToFat, .-FatStrToFat
	.text
.Letext0:
	.file 2 "/home/kapoagaeming/Downloads/spacemit-image-builder/components/edk2/MdePkg/Include/RiscV64/ProcessorBind.h"
	.file 3 "/home/kapoagaeming/Downloads/spacemit-image-builder/components/edk2/MdePkg/Include/Base.h"
	.file 4 "/home/kapoagaeming/Downloads/spacemit-image-builder/components/edk2/MdePkg/Include/Uefi/UefiBaseType.h"
	.file 5 "/home/kapoagaeming/Downloads/spacemit-image-builder/components/edk2/MdePkg/Include/Uefi/UefiMultiPhase.h"
	.file 6 "/home/kapoagaeming/Downloads/spacemit-image-builder/components/edk2/MdePkg/Include/Protocol/DevicePath.h"
	.file 7 "/home/kapoagaeming/Downloads/spacemit-image-builder/components/edk2/MdePkg/Include/Uefi/UefiSpec.h"
	.file 8 "/home/kapoagaeming/Downloads/spacemit-image-builder/components/Build/Milk-V-Jupiter/RELEASE_GCC5/RISCV64/FatPkg/EnhancedFatDxe/Fat/DEBUG/AutoGen.h"
	.file 9 "/home/kapoagaeming/Downloads/spacemit-image-builder/components/edk2/MdePkg/Include/Protocol/UnicodeCollation.h"
	.file 10 "/home/kapoagaeming/Downloads/spacemit-image-builder/components/edk2/FatPkg/EnhancedFatDxe/Fat.h"
	.file 11 "/home/kapoagaeming/Downloads/spacemit-image-builder/components/edk2/MdePkg/Include/Library/UefiLib.h"
	.file 12 "/home/kapoagaeming/Downloads/spacemit-image-builder/components/edk2/MdePkg/Include/Library/UefiBootServicesTableLib.h"
	.file 13 "/home/kapoagaeming/Downloads/spacemit-image-builder/components/edk2/MdePkg/Include/Library/MemoryAllocationLib.h"
	.section	.note.GNU-stack,"",@progbits
