	.file	"Defer3rdPartyImageLoad.c"
	.option pic
	.option norelax
	.attribute arch, "rv64i2p1_m2p0_a2p1_f2p2_d2p2_c2p0_zicsr2p0_zifencei2p0_zmmul1p0_zaamo1p0_zalrsc1p0_zca1p0_zcd1p0"
	.attribute unaligned_access, 0
	.attribute stack_align, 16
	.text
.Ltext0:
	.cfi_sections	.debug_frame
	.file 0 "/home/kapoagaeming/spacemit-image-builder/components/Build/Milk-V-Jupiter/RELEASE_GCC5/RISCV64/MdeModulePkg/Universal/SecurityStubDxe/SecurityStubDxe" "/home/kapoagaeming/spacemit-image-builder/components/edk2/MdeModulePkg/Universal/SecurityStubDxe/Defer3rdPartyImageLoad.c"
	.globl	mImageLoadedAfterEndOfDxe
	.section	.bss.mImageLoadedAfterEndOfDxe,"aw",@nobits
	.type	mImageLoadedAfterEndOfDxe, @object
	.size	mImageLoadedAfterEndOfDxe, 1
mImageLoadedAfterEndOfDxe:
	.zero	1
	.globl	mEndOfDxe
	.section	.bss.mEndOfDxe,"aw",@nobits
	.type	mEndOfDxe, @object
	.size	mEndOfDxe, 1
mEndOfDxe:
	.zero	1
	.globl	mDeferred3rdPartyImage
	.section	.bss.mDeferred3rdPartyImage,"aw",@nobits
	.align	3
	.type	mDeferred3rdPartyImage, @object
	.size	mDeferred3rdPartyImage, 16
mDeferred3rdPartyImage:
	.zero	16
	.globl	mDeferredImageLoad
	.section	.data.rel.local.mDeferredImageLoad,"aw"
	.align	3
	.type	mDeferredImageLoad, @object
	.size	mDeferredImageLoad, 8
mDeferredImageLoad:
	.dword	GetDefferedImageInfo
	.section	.text.FileFromFv,"ax",@progbits
	.align	1
	.globl	FileFromFv
	.type	FileFromFv, @function
FileFromFv:
.LFB0:
	.file 1 "/home/kapoagaeming/spacemit-image-builder/components/edk2/MdeModulePkg/Universal/SecurityStubDxe/Defer3rdPartyImageLoad.c"
	.loc 1 51 1
	.cfi_startproc
	addi	sp,sp,-64
	.cfi_def_cfa_offset 64
	sd	ra,56(sp)
	sd	s0,48(sp)
	.cfi_offset 1, -8
	.cfi_offset 8, -16
	addi	s0,sp,64
	.cfi_def_cfa 8, 0
	sd	a0,-56(s0)
	.loc 1 59 16
	sd	zero,-32(s0)
	.loc 1 60 18
	ld	a5,-56(s0)
	sd	a5,-40(s0)
	.loc 1 61 15
	la	a5,gBS
	ld	a5,0(a5)
	ld	a5,184(a5)
	.loc 1 61 12
	addi	a3,s0,-32
	addi	a4,s0,-40
	mv	a2,a3
	mv	a1,a4
	la	a0,gEfiFirmwareVolume2ProtocolGuid
	jalr	a5
.LVL0:
	sd	a0,-24(s0)
	.loc 1 66 7
	ld	a5,-24(s0)
	.loc 1 66 6
	blt	a5,zero,.L2
	.loc 1 67 17
	la	a5,gBS
	ld	a5,0(a5)
	ld	a6,280(a5)
	.loc 1 67 14
	ld	a0,-32(s0)
	li	a5,4
	li	a4,0
	li	a3,0
	li	a2,0
	la	a1,gEfiFirmwareVolume2ProtocolGuid
	jalr	a6
.LVL1:
	sd	a0,-24(s0)
	.loc 1 75 9
	ld	a5,-24(s0)
	.loc 1 75 8
	blt	a5,zero,.L2
	.loc 1 76 14
	li	a5,1
	j	.L4
.L2:
	.loc 1 80 10
	li	a5,0
.L4:
	.loc 1 81 1
	mv	a0,a5
	ld	ra,56(sp)
	.cfi_restore 1
	ld	s0,48(sp)
	.cfi_restore 8
	.cfi_def_cfa 2, 64
	addi	sp,sp,64
	.cfi_def_cfa_offset 0
	jr	ra
	.cfi_endproc
.LFE0:
	.size	FileFromFv, .-FileFromFv
	.section	.text.LookupImage,"ax",@progbits
	.align	1
	.globl	LookupImage
	.type	LookupImage, @function
LookupImage:
.LFB1:
	.loc 1 96 1
	.cfi_startproc
	addi	sp,sp,-48
	.cfi_def_cfa_offset 48
	sd	ra,40(sp)
	sd	s0,32(sp)
	.cfi_offset 1, -8
	.cfi_offset 8, -16
	addi	s0,sp,48
	.cfi_def_cfa 8, 0
	sd	a0,-40(s0)
	mv	a5,a1
	sb	a5,-41(s0)
	.loc 1 100 20
	ld	a0,-40(s0)
	call	GetDevicePathSize@plt
	sd	a0,-32(s0)
	.loc 1 102 14
	sd	zero,-24(s0)
	.loc 1 102 3
	j	.L6
.L9:
	.loc 1 103 60
	lla	a5,mDeferred3rdPartyImage
	ld	a4,8(a5)
	.loc 1 103 70
	ld	a5,-24(s0)
	slli	a5,a5,4
	add	a5,a4,a5
	.loc 1 103 77
	ld	a5,0(a5)
	.loc 1 103 9
	ld	a2,-32(s0)
	mv	a1,a5
	ld	a0,-40(s0)
	call	CompareMem@plt
	mv	a5,a0
	.loc 1 103 8 discriminator 1
	bne	a5,zero,.L7
	.loc 1 105 37
	lla	a5,mDeferred3rdPartyImage
	ld	a4,8(a5)
	.loc 1 105 47
	ld	a5,-24(s0)
	slli	a5,a5,4
	.loc 1 105 14
	add	a5,a4,a5
	j	.L8
.L7:
	.loc 1 102 62 discriminator 2
	ld	a5,-24(s0)
	addi	a5,a5,1
	sd	a5,-24(s0)
.L6:
	.loc 1 102 49 discriminator 1
	lla	a5,mDeferred3rdPartyImage
	ld	a5,0(a5)
	.loc 1 102 25 discriminator 1
	ld	a4,-24(s0)
	bltu	a4,a5,.L9
	.loc 1 109 10
	li	a5,0
.L8:
	.loc 1 110 1
	mv	a0,a5
	ld	ra,40(sp)
	.cfi_restore 1
	ld	s0,32(sp)
	.cfi_restore 8
	.cfi_def_cfa 2, 48
	addi	sp,sp,48
	.cfi_def_cfa_offset 0
	jr	ra
	.cfi_endproc
.LFE1:
	.size	LookupImage, .-LookupImage
	.section	.text.QueueImage,"ax",@progbits
	.align	1
	.globl	QueueImage
	.type	QueueImage, @function
QueueImage:
.LFB2:
	.loc 1 124 1
	.cfi_startproc
	addi	sp,sp,-48
	.cfi_def_cfa_offset 48
	sd	ra,40(sp)
	sd	s0,32(sp)
	.cfi_offset 1, -8
	.cfi_offset 8, -16
	addi	s0,sp,48
	.cfi_def_cfa 8, 0
	sd	a0,-40(s0)
	mv	a5,a1
	sb	a5,-41(s0)
	.loc 1 131 39
	lla	a5,mDeferred3rdPartyImage
	ld	a5,0(a5)
	.loc 1 131 46
	slli	a4,a5,4
	.loc 1 132 40
	lla	a5,mDeferred3rdPartyImage
	ld	a5,0(a5)
	.loc 1 132 47
	addi	a5,a5,1
	.loc 1 132 52
	slli	a3,a5,4
	.loc 1 133 39
	lla	a5,mDeferred3rdPartyImage
	ld	a5,8(a5)
	.loc 1 130 15
	mv	a2,a5
	mv	a1,a3
	mv	a0,a4
	call	ReallocatePool@plt
	sd	a0,-24(s0)
	.loc 1 135 6
	ld	a5,-24(s0)
	beq	a5,zero,.L14
	.loc 1 139 36
	lla	a5,mDeferred3rdPartyImage
	ld	a4,-24(s0)
	sd	a4,8(a5)
	.loc 1 144 38
	lla	a5,mDeferred3rdPartyImage
	ld	a4,8(a5)
	.loc 1 144 71
	lla	a5,mDeferred3rdPartyImage
	ld	a5,0(a5)
	.loc 1 144 48
	slli	a5,a5,4
	.loc 1 144 13
	add	a5,a4,a5
	sd	a5,-24(s0)
	.loc 1 145 32
	ld	a0,-40(s0)
	call	DuplicateDevicePath@plt
	mv	a4,a0
	.loc 1 145 30 discriminator 1
	ld	a5,-24(s0)
	sd	a4,0(a5)
	.loc 1 146 16
	ld	a5,-24(s0)
	ld	a5,0(a5)
	.loc 1 146 6
	beq	a5,zero,.L15
	.loc 1 150 25
	ld	a5,-24(s0)
	lbu	a4,-41(s0)
	sb	a4,8(a5)
	.loc 1 151 21
	ld	a5,-24(s0)
	sb	zero,9(a5)
	.loc 1 152 25
	lla	a5,mDeferred3rdPartyImage
	ld	a5,0(a5)
	.loc 1 152 31
	addi	a4,a5,1
	lla	a5,mDeferred3rdPartyImage
	sd	a4,0(a5)
	j	.L10
.L14:
	.loc 1 136 5
	nop
	j	.L10
.L15:
	.loc 1 147 5
	nop
.L10:
	.loc 1 153 1
	ld	ra,40(sp)
	.cfi_restore 1
	ld	s0,32(sp)
	.cfi_restore 8
	.cfi_def_cfa 2, 48
	addi	sp,sp,48
	.cfi_def_cfa_offset 0
	jr	ra
	.cfi_endproc
.LFE2:
	.size	QueueImage, .-QueueImage
	.section	.text.GetDefferedImageInfo,"ax",@progbits
	.align	1
	.globl	GetDefferedImageInfo
	.type	GetDefferedImageInfo, @function
GetDefferedImageInfo:
.LFB3:
	.loc 1 192 1
	.cfi_startproc
	addi	sp,sp,-80
	.cfi_def_cfa_offset 80
	sd	ra,72(sp)
	sd	s0,64(sp)
	.cfi_offset 1, -8
	.cfi_offset 8, -16
	addi	s0,sp,80
	.cfi_def_cfa 8, 0
	sd	a0,-40(s0)
	sd	a1,-48(s0)
	sd	a2,-56(s0)
	sd	a3,-64(s0)
	sd	a4,-72(s0)
	sd	a5,-80(s0)
	.loc 1 196 6
	ld	a5,-40(s0)
	beq	a5,zero,.L17
	.loc 1 196 30 discriminator 1
	ld	a5,-72(s0)
	beq	a5,zero,.L17
	.loc 1 196 61 discriminator 2
	ld	a5,-64(s0)
	bne	a5,zero,.L18
.L17:
	.loc 1 197 12
	li	a5,-1
	slli	a5,a5,63
	addi	a5,a5,2
	j	.L19
.L18:
	.loc 1 200 6
	ld	a5,-56(s0)
	beq	a5,zero,.L20
	.loc 1 200 41 discriminator 1
	ld	a5,-80(s0)
	bne	a5,zero,.L21
.L20:
	.loc 1 201 12
	li	a5,-1
	slli	a5,a5,63
	addi	a5,a5,2
	j	.L19
.L21:
	.loc 1 207 6
	ld	a5,-48(s0)
	bne	a5,zero,.L22
	.loc 1 208 14
	sd	zero,-32(s0)
	.loc 1 209 16
	sd	zero,-24(s0)
	.loc 1 209 5
	j	.L23
.L25:
	.loc 1 210 34
	lla	a5,mDeferred3rdPartyImage
	ld	a4,8(a5)
	.loc 1 210 44
	ld	a5,-24(s0)
	slli	a5,a5,4
	add	a5,a4,a5
	.loc 1 210 51
	lbu	a5,9(a5)
	.loc 1 210 10
	bne	a5,zero,.L24
	.loc 1 212 34
	lla	a5,mDeferred3rdPartyImage
	ld	a4,8(a5)
	.loc 1 212 44
	ld	a5,-32(s0)
	slli	a5,a5,4
	.loc 1 212 11
	add	a3,a4,a5
	.loc 1 213 34
	lla	a5,mDeferred3rdPartyImage
	ld	a4,8(a5)
	.loc 1 213 44
	ld	a5,-24(s0)
	slli	a5,a5,4
	.loc 1 213 11
	add	a5,a4,a5
	.loc 1 211 9
	li	a2,16
	mv	a1,a5
	mv	a0,a3
	call	CopyMem@plt
	.loc 1 216 17
	ld	a5,-32(s0)
	addi	a5,a5,1
	sd	a5,-32(s0)
.L24:
	.loc 1 209 64 discriminator 2
	ld	a5,-24(s0)
	addi	a5,a5,1
	sd	a5,-24(s0)
.L23:
	.loc 1 209 51 discriminator 1
	lla	a5,mDeferred3rdPartyImage
	ld	a5,0(a5)
	.loc 1 209 27 discriminator 1
	ld	a4,-24(s0)
	bltu	a4,a5,.L25
	.loc 1 220 34
	lla	a5,mDeferred3rdPartyImage
	ld	a4,-32(s0)
	sd	a4,0(a5)
.L22:
	.loc 1 223 43
	lla	a5,mDeferred3rdPartyImage
	ld	a5,0(a5)
	.loc 1 223 6
	ld	a4,-48(s0)
	bltu	a4,a5,.L26
	.loc 1 224 12
	li	a5,-1
	slli	a5,a5,63
	addi	a5,a5,14
	j	.L19
.L26:
	.loc 1 230 44
	lla	a5,mDeferred3rdPartyImage
	ld	a4,8(a5)
	.loc 1 230 54
	ld	a5,-48(s0)
	slli	a5,a5,4
	add	a5,a4,a5
	.loc 1 230 66
	ld	a4,0(a5)
	.loc 1 230 20
	ld	a5,-56(s0)
	sd	a4,0(a5)
	.loc 1 231 39
	lla	a5,mDeferred3rdPartyImage
	ld	a4,8(a5)
	.loc 1 231 49
	ld	a5,-48(s0)
	slli	a5,a5,4
	add	a5,a4,a5
	.loc 1 231 61
	lbu	a4,8(a5)
	.loc 1 231 15
	ld	a5,-80(s0)
	sb	a4,0(a5)
	.loc 1 232 10
	ld	a5,-64(s0)
	sd	zero,0(a5)
	.loc 1 233 14
	ld	a5,-72(s0)
	sd	zero,0(a5)
	.loc 1 235 10
	li	a5,0
.L19:
	.loc 1 236 1
	mv	a0,a5
	ld	ra,72(sp)
	.cfi_restore 1
	ld	s0,64(sp)
	.cfi_restore 8
	.cfi_def_cfa 2, 80
	addi	sp,sp,80
	.cfi_def_cfa_offset 0
	jr	ra
	.cfi_endproc
.LFE3:
	.size	GetDefferedImageInfo, .-GetDefferedImageInfo
	.section	.text.EndOfDxe,"ax",@progbits
	.align	1
	.globl	EndOfDxe
	.type	EndOfDxe, @function
EndOfDxe:
.LFB4:
	.loc 1 251 1
	.cfi_startproc
	addi	sp,sp,-32
	.cfi_def_cfa_offset 32
	sd	ra,24(sp)
	sd	s0,16(sp)
	.cfi_offset 1, -8
	.cfi_offset 8, -16
	addi	s0,sp,32
	.cfi_def_cfa 8, 0
	sd	a0,-24(s0)
	sd	a1,-32(s0)
	.loc 1 252 13
	lla	a5,mEndOfDxe
	li	a4,1
	sb	a4,0(a5)
	.loc 1 253 1
	nop
	ld	ra,24(sp)
	.cfi_restore 1
	ld	s0,16(sp)
	.cfi_restore 8
	.cfi_def_cfa 2, 32
	addi	sp,sp,32
	.cfi_def_cfa_offset 0
	jr	ra
	.cfi_endproc
.LFE4:
	.size	EndOfDxe, .-EndOfDxe
	.section	.text.DxeSmmReadyToLock,"ax",@progbits
	.align	1
	.globl	DxeSmmReadyToLock
	.type	DxeSmmReadyToLock, @function
DxeSmmReadyToLock:
.LFB5:
	.loc 1 273 1
	.cfi_startproc
	addi	sp,sp,-48
	.cfi_def_cfa_offset 48
	sd	ra,40(sp)
	sd	s0,32(sp)
	.cfi_offset 1, -8
	.cfi_offset 8, -16
	addi	s0,sp,48
	.cfi_def_cfa 8, 0
	sd	a0,-40(s0)
	sd	a1,-48(s0)
	.loc 1 277 15
	la	a5,gBS
	ld	a5,0(a5)
	ld	a5,320(a5)
	.loc 1 277 12
	addi	a4,s0,-32
	mv	a2,a4
	li	a1,0
	la	a0,gEfiDxeSmmReadyToLockProtocolGuid
	jalr	a5
.LVL2:
	sd	a0,-24(s0)
	.loc 1 278 34
	ld	a5,-24(s0)
	.loc 1 278 6
	blt	a5,zero,.L34
	.loc 1 282 6
	la	a5,gBS
	ld	a5,0(a5)
	ld	a5,112(a5)
	.loc 1 282 3
	ld	a0,-40(s0)
	jalr	a5
.LVL3:
	.loc 1 284 7
	lla	a5,mImageLoadedAfterEndOfDxe
	lbu	a5,0(a5)
	.loc 1 284 6
	beq	a5,zero,.L28
	.loc 1 293 6
	call	ReportProgressCodeEnabled@plt
	.loc 1 293 181 discriminator 3
	call	ReportErrorCodeEnabled@plt
	mv	a5,a0
	.loc 1 293 350 discriminator 5
	beq	a5,zero,.L32
	.loc 1 293 267 discriminator 8
	li	a5,50659328
	addi	a1,a5,7
	li	a5,-1879048192
	addi	a0,a5,2
	call	ReportStatusCode@plt
	.loc 1 293 178
	j	.L33
.L32:
	.loc 1 293 353 discriminator 9
	call	ReportDebugCodeEnabled@plt
.L33:
	.loc 1 298 5
	call	CpuDeadLoop@plt
	j	.L28
.L34:
	.loc 1 279 5 discriminator 1
	nop
.L28:
	.loc 1 300 1
	ld	ra,40(sp)
	.cfi_restore 1
	ld	s0,32(sp)
	.cfi_restore 8
	.cfi_def_cfa 2, 48
	addi	sp,sp,48
	.cfi_def_cfa_offset 0
	jr	ra
	.cfi_endproc
.LFE5:
	.size	DxeSmmReadyToLock, .-DxeSmmReadyToLock
	.section	.text.Defer3rdPartyImageLoad,"ax",@progbits
	.align	1
	.globl	Defer3rdPartyImageLoad
	.type	Defer3rdPartyImageLoad, @function
Defer3rdPartyImageLoad:
.LFB6:
	.loc 1 318 1
	.cfi_startproc
	addi	sp,sp,-48
	.cfi_def_cfa_offset 48
	sd	ra,40(sp)
	sd	s0,32(sp)
	.cfi_offset 1, -8
	.cfi_offset 8, -16
	addi	s0,sp,48
	.cfi_def_cfa 8, 0
	sd	a0,-40(s0)
	mv	a5,a1
	sb	a5,-41(s0)
	.loc 1 324 6
	ld	a5,-40(s0)
	bne	a5,zero,.L36
	.loc 1 325 12
	li	a5,0
	j	.L37
.L36:
	.loc 1 328 7
	ld	a0,-40(s0)
	call	FileFromFv
	mv	a5,a0
	.loc 1 328 6 discriminator 1
	beq	a5,zero,.L38
	.loc 1 329 12
	li	a5,0
	j	.L37
.L38:
	.loc 1 332 15
	lbu	a5,-41(s0)
	mv	a1,a5
	ld	a0,-40(s0)
	call	LookupImage
	sd	a0,-24(s0)
	.loc 1 334 12
	call	DebugCodeEnabled@plt
	mv	a5,a0
	.loc 1 334 11 discriminator 1
	beq	a5,zero,.L39
.LBB2:
	.loc 1 337 19
	li	a2,0
	li	a1,0
	ld	a0,-40(s0)
	call	ConvertDevicePathToText@plt
	sd	a0,-32(s0)
	.loc 1 345 6
	ld	a5,-32(s0)
	beq	a5,zero,.L39
	.loc 1 346 5
	ld	a0,-32(s0)
	call	FreePool@plt
.L39:
.LBE2:
	.loc 1 351 7
	lla	a5,mEndOfDxe
	lbu	a5,0(a5)
	.loc 1 351 6
	beq	a5,zero,.L40
	.loc 1 352 31
	lla	a5,mImageLoadedAfterEndOfDxe
	li	a4,1
	sb	a4,0(a5)
	.loc 1 357 8
	ld	a5,-24(s0)
	beq	a5,zero,.L41
	.loc 1 358 25
	ld	a5,-24(s0)
	li	a4,1
	sb	a4,9(a5)
.L41:
	.loc 1 361 12
	li	a5,0
	j	.L37
.L40:
	.loc 1 367 8
	ld	a5,-24(s0)
	bne	a5,zero,.L42
	.loc 1 368 7
	lbu	a5,-41(s0)
	mv	a1,a5
	ld	a0,-40(s0)
	call	QueueImage
.L42:
	.loc 1 371 12
	li	a5,-1
	slli	a5,a5,63
	addi	a5,a5,15
.L37:
	.loc 1 373 1
	mv	a0,a5
	ld	ra,40(sp)
	.cfi_restore 1
	ld	s0,32(sp)
	.cfi_restore 8
	.cfi_def_cfa 2, 48
	addi	sp,sp,48
	.cfi_def_cfa_offset 0
	jr	ra
	.cfi_endproc
.LFE6:
	.size	Defer3rdPartyImageLoad, .-Defer3rdPartyImageLoad
	.section	.text.Defer3rdPartyImageLoadInitialize,"ax",@progbits
	.align	1
	.globl	Defer3rdPartyImageLoadInitialize
	.type	Defer3rdPartyImageLoadInitialize, @function
Defer3rdPartyImageLoadInitialize:
.LFB7:
	.loc 1 382 1
	.cfi_startproc
	addi	sp,sp,-48
	.cfi_def_cfa_offset 48
	sd	ra,40(sp)
	sd	s0,32(sp)
	.cfi_offset 1, -8
	.cfi_offset 8, -16
	addi	s0,sp,48
	.cfi_def_cfa 8, 0
	.loc 1 388 10
	sd	zero,-32(s0)
	.loc 1 389 15
	la	a5,gBS
	ld	a5,0(a5)
	ld	a5,328(a5)
	.loc 1 389 12
	addi	a4,s0,-32
	li	a3,0
	lla	a2,mDeferredImageLoad
	la	a1,gEfiDeferredImageLoadProtocolGuid
	mv	a0,a4
	jalr	a5
.LVL4:
	sd	a0,-24(s0)
	.loc 1 397 15
	la	a5,gBS
	ld	a5,0(a5)
	ld	a6,368(a5)
	.loc 1 397 12
	addi	a5,s0,-40
	la	a4,gEfiEndOfDxeEventGroupGuid
	li	a3,0
	lla	a2,EndOfDxe
	li	a1,8
	li	a0,512
	jalr	a6
.LVL5:
	sd	a0,-24(s0)
	.loc 1 407 3
	addi	a5,s0,-48
	mv	a4,a5
	li	a3,0
	lla	a2,DxeSmmReadyToLock
	li	a1,8
	la	a0,gEfiDxeSmmReadyToLockProtocolGuid
	call	EfiCreateProtocolNotifyEvent@plt
	.loc 1 414 1
	nop
	ld	ra,40(sp)
	.cfi_restore 1
	ld	s0,32(sp)
	.cfi_restore 8
	.cfi_def_cfa 2, 48
	addi	sp,sp,48
	.cfi_def_cfa_offset 0
	jr	ra
	.cfi_endproc
.LFE7:
	.size	Defer3rdPartyImageLoadInitialize, .-Defer3rdPartyImageLoadInitialize
	.text
.Letext0:
	.file 2 "/home/kapoagaeming/spacemit-image-builder/components/edk2/MdePkg/Include/RiscV64/ProcessorBind.h"
	.file 3 "/home/kapoagaeming/spacemit-image-builder/components/edk2/MdePkg/Include/Base.h"
	.file 4 "/home/kapoagaeming/spacemit-image-builder/components/edk2/MdePkg/Include/Uefi/UefiBaseType.h"
	.file 5 "/home/kapoagaeming/spacemit-image-builder/components/edk2/MdePkg/Include/Uefi/UefiMultiPhase.h"
	.file 6 "/home/kapoagaeming/spacemit-image-builder/components/edk2/MdePkg/Include/Protocol/DevicePath.h"
	.file 7 "/home/kapoagaeming/spacemit-image-builder/components/edk2/MdePkg/Include/Uefi/UefiSpec.h"
	.file 8 "/home/kapoagaeming/spacemit-image-builder/components/edk2/MdePkg/Include/Pi/PiStatusCode.h"
	.file 9 "/home/kapoagaeming/spacemit-image-builder/components/Build/Milk-V-Jupiter/RELEASE_GCC5/RISCV64/MdeModulePkg/Universal/SecurityStubDxe/SecurityStubDxe/DEBUG/AutoGen.h"
	.file 10 "/home/kapoagaeming/spacemit-image-builder/components/edk2/MdePkg/Include/Protocol/DeferredImageLoad.h"
	.file 11 "/home/kapoagaeming/spacemit-image-builder/components/edk2/MdePkg/Include/Library/UefiLib.h"
	.file 12 "/home/kapoagaeming/spacemit-image-builder/components/edk2/MdePkg/Include/Library/DevicePathLib.h"
	.file 13 "/home/kapoagaeming/spacemit-image-builder/components/edk2/MdePkg/Include/Library/DebugLib.h"
	.file 14 "/home/kapoagaeming/spacemit-image-builder/components/edk2/MdePkg/Include/Library/ReportStatusCodeLib.h"
	.file 15 "/home/kapoagaeming/spacemit-image-builder/components/edk2/MdePkg/Include/Library/BaseMemoryLib.h"
	.file 16 "/home/kapoagaeming/spacemit-image-builder/components/edk2/MdePkg/Include/Library/MemoryAllocationLib.h"
	.file 17 "/home/kapoagaeming/spacemit-image-builder/components/edk2/MdePkg/Include/Library/UefiBootServicesTableLib.h"
	.file 18 "/home/kapoagaeming/spacemit-image-builder/components/edk2/MdePkg/Include/Library/BaseLib.h"
	.section	.note.GNU-stack,"",@progbits
