	.file	"SecurityStub.c"
	.option pic
	.option norelax
	.attribute arch, "rv64i2p1_m2p0_a2p1_f2p2_d2p2_c2p0_zicsr2p0_zifencei2p0_zmmul1p0_zaamo1p0_zalrsc1p0_zca1p0_zcd1p0"
	.attribute unaligned_access, 0
	.attribute stack_align, 16
	.text
.Ltext0:
	.cfi_sections	.debug_frame
	.file 0 "/home/kapoagaeming/spacemit-image-builder/components/Build/Milk-V-Jupiter/RELEASE_GCC5/RISCV64/MdeModulePkg/Universal/SecurityStubDxe/SecurityStubDxe" "/home/kapoagaeming/spacemit-image-builder/components/edk2/MdeModulePkg/Universal/SecurityStubDxe/SecurityStub.c"
	.globl	mSecurityArchProtocolHandle
	.section	.bss.mSecurityArchProtocolHandle,"aw",@nobits
	.align	3
	.type	mSecurityArchProtocolHandle, @object
	.size	mSecurityArchProtocolHandle, 8
mSecurityArchProtocolHandle:
	.zero	8
	.section	.text.SecurityStubAuthenticateState,"ax",@progbits
	.align	1
	.globl	SecurityStubAuthenticateState
	.type	SecurityStubAuthenticateState, @function
SecurityStubAuthenticateState:
.LFB0:
	.file 1 "/home/kapoagaeming/spacemit-image-builder/components/edk2/MdeModulePkg/Universal/SecurityStubDxe/SecurityStub.c"
	.loc 1 65 1
	.cfi_startproc
	addi	sp,sp,-64
	.cfi_def_cfa_offset 64
	sd	ra,56(sp)
	sd	s0,48(sp)
	.cfi_offset 1, -8
	.cfi_offset 8, -16
	addi	s0,sp,64
	.cfi_def_cfa 8, 0
	sd	a0,-40(s0)
	mv	a5,a1
	sd	a2,-56(s0)
	sw	a5,-44(s0)
	.loc 1 68 12
	lw	a1,-44(s0)
	li	a5,0
	li	a4,0
	li	a3,0
	ld	a2,-56(s0)
	li	a0,16
	call	ExecuteSecurity2Handlers@plt
	sd	a0,-24(s0)
	.loc 1 76 6
	ld	a5,-24(s0)
	bne	a5,zero,.L2
	.loc 1 77 14
	lw	a5,-44(s0)
	ld	a1,-56(s0)
	mv	a0,a5
	call	ExecuteSecurityHandlers@plt
	sd	a0,-24(s0)
.L2:
	.loc 1 80 10
	ld	a5,-24(s0)
	.loc 1 81 1
	mv	a0,a5
	ld	ra,56(sp)
	.cfi_restore 1
	ld	s0,48(sp)
	.cfi_restore 8
	.cfi_def_cfa 2, 64
	addi	sp,sp,64
	.cfi_def_cfa_offset 0
	jr	ra
	.cfi_endproc
.LFE0:
	.size	SecurityStubAuthenticateState, .-SecurityStubAuthenticateState
	.section	.text.Security2StubAuthenticate,"ax",@progbits
	.align	1
	.globl	Security2StubAuthenticate
	.type	Security2StubAuthenticate, @function
Security2StubAuthenticate:
.LFB1:
	.loc 1 137 1
	.cfi_startproc
	addi	sp,sp,-80
	.cfi_def_cfa_offset 80
	sd	ra,72(sp)
	sd	s0,64(sp)
	.cfi_offset 1, -8
	.cfi_offset 8, -16
	addi	s0,sp,80
	.cfi_def_cfa 8, 0
	sd	a0,-40(s0)
	sd	a1,-48(s0)
	sd	a2,-56(s0)
	sd	a3,-64(s0)
	mv	a5,a4
	sb	a5,-65(s0)
	.loc 1 140 6
	ld	a5,-56(s0)
	beq	a5,zero,.L5
	.loc 1 141 14
	lbu	a5,-65(s0)
	mv	a1,a5
	ld	a0,-48(s0)
	call	Defer3rdPartyImageLoad@plt
	sd	a0,-24(s0)
	.loc 1 142 36
	ld	a5,-24(s0)
	.loc 1 142 8
	bge	a5,zero,.L5
	.loc 1 143 14
	ld	a5,-24(s0)
	j	.L6
.L5:
	.loc 1 147 10
	lbu	a5,-65(s0)
	ld	a4,-64(s0)
	ld	a3,-56(s0)
	ld	a2,-48(s0)
	li	a1,0
	li	a0,15
	call	ExecuteSecurity2Handlers@plt
	mv	a5,a0
.L6:
	.loc 1 158 1
	mv	a0,a5
	ld	ra,72(sp)
	.cfi_restore 1
	ld	s0,64(sp)
	.cfi_restore 8
	.cfi_def_cfa 2, 80
	addi	sp,sp,80
	.cfi_def_cfa_offset 0
	jr	ra
	.cfi_endproc
.LFE1:
	.size	Security2StubAuthenticate, .-Security2StubAuthenticate
	.globl	mSecurityStub
	.section	.data.rel.local.mSecurityStub,"aw"
	.align	3
	.type	mSecurityStub, @object
	.size	mSecurityStub, 8
mSecurityStub:
	.dword	SecurityStubAuthenticateState
	.globl	mSecurity2Stub
	.section	.data.rel.local.mSecurity2Stub,"aw"
	.align	3
	.type	mSecurity2Stub, @object
	.size	mSecurity2Stub, 8
mSecurity2Stub:
	.dword	Security2StubAuthenticate
	.section	.text.SecurityStubInitialize,"ax",@progbits
	.align	1
	.globl	SecurityStubInitialize
	.type	SecurityStubInitialize, @function
SecurityStubInitialize:
.LFB2:
	.loc 1 186 1
	.cfi_startproc
	addi	sp,sp,-48
	.cfi_def_cfa_offset 48
	sd	ra,40(sp)
	sd	s0,32(sp)
	.cfi_offset 1, -8
	.cfi_offset 8, -16
	addi	s0,sp,48
	.cfi_def_cfa 8, 0
	sd	a0,-40(s0)
	sd	a1,-48(s0)
	.loc 1 198 15
	la	a5,gBS
	ld	a5,0(a5)
	ld	a6,328(a5)
	.loc 1 198 12
	li	a5,0
	lla	a4,mSecurityStub
	la	a3,gEfiSecurityArchProtocolGuid
	lla	a2,mSecurity2Stub
	la	a1,gEfiSecurity2ArchProtocolGuid
	lla	a0,mSecurityArchProtocolHandle
	jalr	a6
.LVL0:
	sd	a0,-24(s0)
	.loc 1 208 3
	call	Defer3rdPartyImageLoadInitialize@plt
	.loc 1 210 10
	li	a5,0
	.loc 1 211 1
	mv	a0,a5
	ld	ra,40(sp)
	.cfi_restore 1
	ld	s0,32(sp)
	.cfi_restore 8
	.cfi_def_cfa 2, 48
	addi	sp,sp,48
	.cfi_def_cfa_offset 0
	jr	ra
	.cfi_endproc
.LFE2:
	.size	SecurityStubInitialize, .-SecurityStubInitialize
	.text
.Letext0:
	.file 2 "/home/kapoagaeming/spacemit-image-builder/components/edk2/MdePkg/Include/RiscV64/ProcessorBind.h"
	.file 3 "/home/kapoagaeming/spacemit-image-builder/components/edk2/MdePkg/Include/Base.h"
	.file 4 "/home/kapoagaeming/spacemit-image-builder/components/edk2/MdePkg/Include/Uefi/UefiBaseType.h"
	.file 5 "/home/kapoagaeming/spacemit-image-builder/components/edk2/MdePkg/Include/Uefi/UefiMultiPhase.h"
	.file 6 "/home/kapoagaeming/spacemit-image-builder/components/edk2/MdePkg/Include/Protocol/DevicePath.h"
	.file 7 "/home/kapoagaeming/spacemit-image-builder/components/edk2/MdePkg/Include/Protocol/SimpleTextIn.h"
	.file 8 "/home/kapoagaeming/spacemit-image-builder/components/edk2/MdePkg/Include/Protocol/SimpleTextOut.h"
	.file 9 "/home/kapoagaeming/spacemit-image-builder/components/edk2/MdePkg/Include/Uefi/UefiSpec.h"
	.file 10 "/home/kapoagaeming/spacemit-image-builder/components/Build/Milk-V-Jupiter/RELEASE_GCC5/RISCV64/MdeModulePkg/Universal/SecurityStubDxe/SecurityStubDxe/DEBUG/AutoGen.h"
	.file 11 "/home/kapoagaeming/spacemit-image-builder/components/edk2/MdePkg/Include/Protocol/Security.h"
	.file 12 "/home/kapoagaeming/spacemit-image-builder/components/edk2/MdePkg/Include/Protocol/Security2.h"
	.file 13 "/home/kapoagaeming/spacemit-image-builder/components/edk2/MdeModulePkg/Universal/SecurityStubDxe/Defer3rdPartyImageLoad.h"
	.file 14 "/home/kapoagaeming/spacemit-image-builder/components/edk2/MdeModulePkg/Include/Library/SecurityManagementLib.h"
	.file 15 "/home/kapoagaeming/spacemit-image-builder/components/edk2/MdePkg/Include/Library/UefiBootServicesTableLib.h"
	.section	.note.GNU-stack,"",@progbits
