	.file	"DxeCorePerformanceLib.c"
	.option pic
	.option norelax
	.attribute arch, "rv64i2p1_m2p0_a2p1_f2p2_d2p2_c2p0_zicsr2p0_zifencei2p0_zmmul1p0_zaamo1p0_zalrsc1p0_zca1p0_zcd1p0"
	.attribute unaligned_access, 0
	.attribute stack_align, 16
	.text
.Ltext0:
	.cfi_sections	.debug_frame
	.file 0 "/home/kapoagaeming/spacemit-image-builder/components/Build/Milk-V-Jupiter/RELEASE_GCC5/RISCV64/MdeModulePkg/Library/DxeCorePerformanceLib/DxeCorePerformanceLib" "/home/kapoagaeming/spacemit-image-builder/components/edk2/MdeModulePkg/Library/DxeCorePerformanceLib/DxeCorePerformanceLib.c"
	.globl	mAcpiBootPerformanceTable
	.section	.bss.mAcpiBootPerformanceTable,"aw",@nobits
	.align	3
	.type	mAcpiBootPerformanceTable, @object
	.size	mAcpiBootPerformanceTable, 8
mAcpiBootPerformanceTable:
	.zero	8
	.globl	mBootPerformanceTableTemplate
	.section	.data.mBootPerformanceTableTemplate,"aw"
	.align	3
	.type	mBootPerformanceTableTemplate, @object
	.size	mBootPerformanceTableTemplate, 56
mBootPerformanceTableTemplate:
	.word	1414545990
	.word	56
	.half	2
	.byte	48
	.byte	2
	.word	0
	.dword	0
	.dword	0
	.dword	0
	.dword	0
	.dword	0
	.globl	mCacheHandleGuidTable
	.section	.bss.mCacheHandleGuidTable,"aw",@nobits
	.align	3
	.type	mCacheHandleGuidTable, @object
	.size	mCacheHandleGuidTable, 98304
mCacheHandleGuidTable:
	.zero	98304
	.globl	mCachePairCount
	.section	.bss.mCachePairCount,"aw",@nobits
	.align	3
	.type	mCachePairCount, @object
	.size	mCachePairCount, 8
mCachePairCount:
	.zero	8
	.globl	mLoadImageCount
	.section	.bss.mLoadImageCount,"aw",@nobits
	.align	2
	.type	mLoadImageCount, @object
	.size	mLoadImageCount, 4
mLoadImageCount:
	.zero	4
	.globl	mPerformanceLength
	.section	.bss.mPerformanceLength,"aw",@nobits
	.align	2
	.type	mPerformanceLength, @object
	.size	mPerformanceLength, 4
mPerformanceLength:
	.zero	4
	.globl	mMaxPerformanceLength
	.section	.bss.mMaxPerformanceLength,"aw",@nobits
	.align	2
	.type	mMaxPerformanceLength, @object
	.size	mMaxPerformanceLength, 4
mMaxPerformanceLength:
	.zero	4
	.globl	mBootRecordSize
	.section	.bss.mBootRecordSize,"aw",@nobits
	.align	2
	.type	mBootRecordSize, @object
	.size	mBootRecordSize, 4
mBootRecordSize:
	.zero	4
	.globl	mBootRecordMaxSize
	.section	.bss.mBootRecordMaxSize,"aw",@nobits
	.align	3
	.type	mBootRecordMaxSize, @object
	.size	mBootRecordMaxSize, 8
mBootRecordMaxSize:
	.zero	8
	.globl	mCachedLength
	.section	.bss.mCachedLength,"aw",@nobits
	.align	2
	.type	mCachedLength, @object
	.size	mCachedLength, 4
mCachedLength:
	.zero	4
	.globl	mFpdtBufferIsReported
	.section	.bss.mFpdtBufferIsReported,"aw",@nobits
	.type	mFpdtBufferIsReported, @object
	.size	mFpdtBufferIsReported, 1
mFpdtBufferIsReported:
	.zero	1
	.globl	mLackSpaceIsReported
	.section	.bss.mLackSpaceIsReported,"aw",@nobits
	.type	mLackSpaceIsReported, @object
	.size	mLackSpaceIsReported, 1
mLackSpaceIsReported:
	.zero	1
	.globl	mPlatformLanguage
	.section	.bss.mPlatformLanguage,"aw",@nobits
	.align	3
	.type	mPlatformLanguage, @object
	.size	mPlatformLanguage, 8
mPlatformLanguage:
	.zero	8
	.globl	mPerformancePointer
	.section	.bss.mPerformancePointer,"aw",@nobits
	.align	3
	.type	mPerformancePointer, @object
	.size	mPerformancePointer, 8
mPerformancePointer:
	.zero	8
	.globl	mBootRecordBuffer
	.section	.bss.mBootRecordBuffer,"aw",@nobits
	.align	3
	.type	mBootRecordBuffer, @object
	.size	mBootRecordBuffer, 8
mBootRecordBuffer:
	.zero	8
	.globl	mLockInsertRecord
	.section	.bss.mLockInsertRecord,"aw",@nobits
	.type	mLockInsertRecord, @object
	.size	mLockInsertRecord, 1
mLockInsertRecord:
	.zero	1
	.globl	mDevicePathString
	.section	.bss.mDevicePathString,"aw",@nobits
	.align	3
	.type	mDevicePathString, @object
	.size	mDevicePathString, 8
mDevicePathString:
	.zero	8
	.globl	mSmmBootRecordOffset
	.section	.bss.mSmmBootRecordOffset,"aw",@nobits
	.align	3
	.type	mSmmBootRecordOffset, @object
	.size	mSmmBootRecordOffset, 8
mSmmBootRecordOffset:
	.zero	8
	.globl	mDevicePathToText
	.section	.bss.mDevicePathToText,"aw",@nobits
	.align	3
	.type	mDevicePathToText, @object
	.size	mDevicePathToText, 8
mDevicePathToText:
	.zero	8
	.globl	mPerformanceMeasurementInterface
	.section	.data.rel.local.mPerformanceMeasurementInterface,"aw"
	.align	3
	.type	mPerformanceMeasurementInterface, @object
	.size	mPerformanceMeasurementInterface, 8
mPerformanceMeasurementInterface:
	.dword	CreatePerformanceMeasurement
	.globl	mPerformanceProperty
	.section	.bss.mPerformanceProperty,"aw",@nobits
	.align	3
	.type	mPerformanceProperty, @object
	.size	mPerformanceProperty, 32
mPerformanceProperty:
	.zero	32
	.section	.text.GetFpdtRecordPtr,"ax",@progbits
	.align	1
	.globl	GetFpdtRecordPtr
	.type	GetFpdtRecordPtr, @function
GetFpdtRecordPtr:
.LFB0:
	.file 1 "/home/kapoagaeming/spacemit-image-builder/components/edk2/MdeModulePkg/Library/DxeCorePerformanceLib/DxeCorePerformanceLib.c"
	.loc 1 103 1
	.cfi_startproc
	addi	sp,sp,-32
	.cfi_def_cfa_offset 32
	sd	ra,24(sp)
	sd	s0,16(sp)
	.cfi_offset 1, -8
	.cfi_offset 8, -16
	addi	s0,sp,32
	.cfi_def_cfa 8, 0
	mv	a5,a0
	sd	a1,-32(s0)
	sb	a5,-17(s0)
	.loc 1 104 7
	lla	a5,mFpdtBufferIsReported
	lbu	a5,0(a5)
	.loc 1 104 6
	beq	a5,zero,.L2
	.loc 1 108 25
	lbu	a5,-17(s0)
	sext.w	a4,a5
	lla	a5,mBootRecordSize
	lw	a5,0(a5)
	addw	a5,a4,a5
	sext.w	a5,a5
	slli	a4,a5,32
	srli	a4,a4,32
	.loc 1 108 38
	lla	a5,mBootRecordMaxSize
	ld	a5,0(a5)
	.loc 1 108 8
	bleu	a4,a5,.L3
	.loc 1 109 11
	lla	a5,mLackSpaceIsReported
	lbu	a5,0(a5)
	.loc 1 109 10
	bne	a5,zero,.L4
	.loc 1 111 30
	lla	a5,mLackSpaceIsReported
	li	a4,1
	sb	a4,0(a5)
.L4:
	.loc 1 114 14
	li	a5,-1
	slli	a5,a5,63
	addi	a5,a5,9
	j	.L5
.L3:
	.loc 1 119 103
	lla	a5,mBootRecordBuffer
	ld	a4,0(a5)
	lla	a5,mBootRecordSize
	lw	a5,0(a5)
	slli	a5,a5,32
	srli	a5,a5,32
	add	a4,a4,a5
	.loc 1 119 35
	ld	a5,-32(s0)
	sd	a4,0(a5)
	j	.L6
.L2:
	.loc 1 125 28
	lbu	a5,-17(s0)
	sext.w	a4,a5
	lla	a5,mPerformanceLength
	lw	a5,0(a5)
	addw	a5,a4,a5
	sext.w	a4,a5
	.loc 1 125 41
	lla	a5,mMaxPerformanceLength
	lw	a5,0(a5)
	.loc 1 125 8
	bleu	a4,a5,.L7
	.loc 1 126 29
	lla	a5,mPerformanceLength
	lw	a5,0(a5)
	slli	a3,a5,32
	srli	a3,a3,32
	.loc 1 128 50
	lbu	a5,-17(s0)
	sext.w	a4,a5
	lla	a5,mPerformanceLength
	lw	a5,0(a5)
	addw	a5,a4,a5
	sext.w	a4,a5
	.loc 1 128 63
	li	a5,65536
	addw	a5,a4,a5
	sext.w	a5,a5
	.loc 1 126 29
	slli	a4,a5,32
	srli	a4,a4,32
	lla	a5,mPerformancePointer
	ld	a5,0(a5)
	mv	a2,a5
	mv	a1,a4
	mv	a0,a3
	call	ReallocatePool@plt
	mv	a4,a0
	.loc 1 126 27 discriminator 1
	lla	a5,mPerformancePointer
	sd	a4,0(a5)
	.loc 1 131 31
	lla	a5,mPerformancePointer
	ld	a5,0(a5)
	.loc 1 131 10
	bne	a5,zero,.L8
	.loc 1 132 16
	li	a5,-1
	slli	a5,a5,63
	addi	a5,a5,9
	j	.L5
.L8:
	.loc 1 135 50
	lbu	a5,-17(s0)
	sext.w	a4,a5
	lla	a5,mPerformanceLength
	lw	a5,0(a5)
	addw	a5,a4,a5
	sext.w	a4,a5
	.loc 1 135 63
	li	a5,65536
	addw	a5,a4,a5
	sext.w	a4,a5
	.loc 1 135 29
	lla	a5,mMaxPerformanceLength
	sw	a4,0(a5)
.L7:
	.loc 1 141 103
	lla	a5,mPerformancePointer
	ld	a4,0(a5)
	lla	a5,mPerformanceLength
	lw	a5,0(a5)
	slli	a5,a5,32
	srli	a5,a5,32
	add	a4,a4,a5
	.loc 1 141 33
	ld	a5,-32(s0)
	sd	a4,0(a5)
.L6:
	.loc 1 144 10
	li	a5,0
.L5:
	.loc 1 145 1
	mv	a0,a5
	ld	ra,24(sp)
	.cfi_restore 1
	ld	s0,16(sp)
	.cfi_restore 8
	.cfi_def_cfa 2, 32
	addi	sp,sp,32
	.cfi_def_cfa_offset 0
	jr	ra
	.cfi_endproc
.LFE0:
	.size	GetFpdtRecordPtr, .-GetFpdtRecordPtr
	.section	.rodata
	.align	3
.LC0:
	.string	"SEC"
	.align	3
.LC1:
	.string	"PEI"
	.align	3
.LC2:
	.string	"DXE"
	.align	3
.LC3:
	.string	"BDS"
	.align	3
.LC4:
	.string	"DB:Start:"
	.align	3
.LC5:
	.string	"DB:Support:"
	.align	3
.LC6:
	.string	"DB:Stop:"
	.align	3
.LC7:
	.string	"LoadImage:"
	.align	3
.LC8:
	.string	"StartImage:"
	.align	3
.LC9:
	.string	"PEIM"
	.section	.text.IsKnownTokens,"ax",@progbits
	.align	1
	.globl	IsKnownTokens
	.type	IsKnownTokens, @function
IsKnownTokens:
.LFB1:
	.loc 1 160 1
	.cfi_startproc
	addi	sp,sp,-32
	.cfi_def_cfa_offset 32
	sd	ra,24(sp)
	sd	s0,16(sp)
	.cfi_offset 1, -8
	.cfi_offset 8, -16
	addi	s0,sp,32
	.cfi_def_cfa 8, 0
	sd	a0,-24(s0)
	.loc 1 161 6
	ld	a5,-24(s0)
	bne	a5,zero,.L10
	.loc 1 162 12
	li	a5,0
	j	.L11
.L10:
	.loc 1 165 8
	lla	a1,.LC0
	ld	a0,-24(s0)
	call	AsciiStrCmp@plt
	mv	a5,a0
	.loc 1 165 6 discriminator 1
	beq	a5,zero,.L12
	.loc 1 166 8
	lla	a1,.LC1
	ld	a0,-24(s0)
	call	AsciiStrCmp@plt
	mv	a5,a0
	.loc 1 165 41 discriminator 2
	beq	a5,zero,.L12
	.loc 1 167 8
	lla	a1,.LC2
	ld	a0,-24(s0)
	call	AsciiStrCmp@plt
	mv	a5,a0
	.loc 1 166 41
	beq	a5,zero,.L12
	.loc 1 168 8
	lla	a1,.LC3
	ld	a0,-24(s0)
	call	AsciiStrCmp@plt
	mv	a5,a0
	.loc 1 167 41
	beq	a5,zero,.L12
	.loc 1 169 8
	lla	a1,.LC4
	ld	a0,-24(s0)
	call	AsciiStrCmp@plt
	mv	a5,a0
	.loc 1 168 41
	beq	a5,zero,.L12
	.loc 1 170 8
	lla	a1,.LC5
	ld	a0,-24(s0)
	call	AsciiStrCmp@plt
	mv	a5,a0
	.loc 1 169 47
	beq	a5,zero,.L12
	.loc 1 171 8
	lla	a1,.LC6
	ld	a0,-24(s0)
	call	AsciiStrCmp@plt
	mv	a5,a0
	.loc 1 170 49
	beq	a5,zero,.L12
	.loc 1 172 8
	lla	a1,.LC7
	ld	a0,-24(s0)
	call	AsciiStrCmp@plt
	mv	a5,a0
	.loc 1 171 46
	beq	a5,zero,.L12
	.loc 1 173 8
	lla	a1,.LC8
	ld	a0,-24(s0)
	call	AsciiStrCmp@plt
	mv	a5,a0
	.loc 1 172 48
	beq	a5,zero,.L12
	.loc 1 174 8
	lla	a1,.LC9
	ld	a0,-24(s0)
	call	AsciiStrCmp@plt
	mv	a5,a0
	.loc 1 173 49
	bne	a5,zero,.L13
.L12:
	.loc 1 176 12
	li	a5,1
	j	.L11
.L13:
	.loc 1 178 12
	li	a5,0
.L11:
	.loc 1 180 1
	mv	a0,a5
	ld	ra,24(sp)
	.cfi_restore 1
	ld	s0,16(sp)
	.cfi_restore 8
	.cfi_def_cfa 2, 32
	addi	sp,sp,32
	.cfi_def_cfa_offset 0
	jr	ra
	.cfi_endproc
.LFE1:
	.size	IsKnownTokens, .-IsKnownTokens
	.section	.text.IsKnownID,"ax",@progbits
	.align	1
	.globl	IsKnownID
	.type	IsKnownID, @function
IsKnownID:
.LFB2:
	.loc 1 195 1
	.cfi_startproc
	addi	sp,sp,-32
	.cfi_def_cfa_offset 32
	sd	ra,24(sp)
	sd	s0,16(sp)
	.cfi_offset 1, -8
	.cfi_offset 8, -16
	addi	s0,sp,32
	.cfi_def_cfa 8, 0
	mv	a5,a0
	sw	a5,-20(s0)
	.loc 1 196 6
	lw	a5,-20(s0)
	sext.w	a4,a5
	li	a5,1
	beq	a4,a5,.L15
	.loc 1 196 28 discriminator 1
	lw	a5,-20(s0)
	sext.w	a4,a5
	li	a5,2
	beq	a4,a5,.L15
	.loc 1 197 28
	lw	a5,-20(s0)
	sext.w	a4,a5
	li	a5,3
	beq	a4,a5,.L15
	.loc 1 198 28
	lw	a5,-20(s0)
	sext.w	a4,a5
	li	a5,4
	beq	a4,a5,.L15
	.loc 1 199 28
	lw	a5,-20(s0)
	sext.w	a4,a5
	li	a5,5
	beq	a4,a5,.L15
	.loc 1 200 28
	lw	a5,-20(s0)
	sext.w	a4,a5
	li	a5,6
	beq	a4,a5,.L15
	.loc 1 201 28
	lw	a5,-20(s0)
	sext.w	a4,a5
	li	a5,7
	beq	a4,a5,.L15
	.loc 1 202 28
	lw	a5,-20(s0)
	sext.w	a4,a5
	li	a5,8
	beq	a4,a5,.L15
	.loc 1 203 28
	lw	a5,-20(s0)
	sext.w	a4,a5
	li	a5,9
	beq	a4,a5,.L15
	.loc 1 204 28
	lw	a5,-20(s0)
	sext.w	a4,a5
	li	a5,10
	bne	a4,a5,.L16
.L15:
	.loc 1 207 12
	li	a5,1
	j	.L17
.L16:
	.loc 1 209 12
	li	a5,0
.L17:
	.loc 1 211 1
	mv	a0,a5
	ld	ra,24(sp)
	.cfi_restore 1
	ld	s0,16(sp)
	.cfi_restore 8
	.cfi_def_cfa 2, 32
	addi	sp,sp,32
	.cfi_def_cfa_offset 0
	jr	ra
	.cfi_endproc
.LFE2:
	.size	IsKnownID, .-IsKnownID
	.section	.text.InternalGetSmmPerfData,"ax",@progbits
	.align	1
	.globl	InternalGetSmmPerfData
	.type	InternalGetSmmPerfData, @function
InternalGetSmmPerfData:
.LFB3:
	.loc 1 227 1
	.cfi_startproc
	addi	sp,sp,-160
	.cfi_def_cfa_offset 160
	sd	ra,152(sp)
	sd	s0,144(sp)
	.cfi_offset 1, -8
	.cfi_offset 8, -16
	addi	s0,sp,160
	.cfi_def_cfa 8, 0
	sd	a0,-136(s0)
	sd	a1,-144(s0)
	mv	a5,a2
	sb	a5,-145(s0)
	.loc 1 245 27
	sd	zero,-48(s0)
	.loc 1 246 15
	sd	zero,-56(s0)
	.loc 1 247 21
	sd	zero,-64(s0)
	.loc 1 248 19
	sd	zero,-72(s0)
	.loc 1 249 15
	la	a5,gBS
	ld	a5,0(a5)
	ld	a5,320(a5)
	.loc 1 249 12
	addi	a4,s0,-112
	mv	a2,a4
	li	a1,0
	la	a0,gEfiSmmCommunicationProtocolGuid
	jalr	a5
.LVL0:
	sd	a0,-80(s0)
	.loc 1 250 7
	ld	a5,-80(s0)
	.loc 1 250 6
	blt	a5,zero,.L18
	.loc 1 255 14
	addi	a5,s0,-120
	mv	a1,a5
	la	a0,gEdkiiPiSmmCommunicationRegionTableGuid
	call	EfiGetSystemConfigurationTable@plt
	sd	a0,-80(s0)
	.loc 1 259 9
	ld	a5,-80(s0)
	.loc 1 259 8
	blt	a5,zero,.L18
	.loc 1 261 71
	ld	a5,-120(s0)
	.loc 1 261 24
	addi	a5,a5,16
	sd	a5,-24(s0)
	.loc 1 262 18
	sd	zero,-32(s0)
	.loc 1 262 7
	j	.L20
.L23:
	.loc 1 263 29
	ld	a5,-24(s0)
	lw	a4,0(a5)
	.loc 1 263 12
	li	a5,7
	beq	a4,a5,.L30
	.loc 1 267 100
	ld	a5,-120(s0)
	lw	a5,8(a5)
	slli	a5,a5,32
	srli	a5,a5,32
	.loc 1 267 26
	ld	a4,-24(s0)
	add	a5,a4,a5
	sd	a5,-24(s0)
	.loc 1 262 73 discriminator 2
	ld	a5,-32(s0)
	addi	a5,a5,1
	sd	a5,-32(s0)
.L20:
	.loc 1 262 49 discriminator 1
	ld	a5,-120(s0)
	lw	a5,4(a5)
	slli	a5,a5,32
	srli	a5,a5,32
	.loc 1 262 29 discriminator 1
	ld	a4,-32(s0)
	bltu	a4,a5,.L23
	j	.L22
.L30:
	.loc 1 264 11
	nop
.L22:
	.loc 1 273 48
	ld	a5,-24(s0)
	ld	a5,24(a5)
	.loc 1 273 23
	slli	a5,a5,12
	sd	a5,-72(s0)
	.loc 1 278 10
	ld	a4,-72(s0)
	li	a5,64
	bleu	a4,a5,.L18
	.loc 1 279 66
	ld	a5,-24(s0)
	ld	a5,8(a5)
	.loc 1 279 33
	sd	a5,-48(s0)
	.loc 1 280 29
	ld	a5,-48(s0)
	sd	a5,-88(s0)
	.loc 1 281 21
	ld	a5,-88(s0)
	addi	a5,a5,24
	sd	a5,-56(s0)
	.loc 1 282 9
	li	a1,40
	ld	a0,-56(s0)
	call	ZeroMem@plt
	.loc 1 284 19
	ld	a5,-88(s0)
	.loc 1 284 9
	la	a1,gEfiFirmwarePerformanceGuid
	mv	a0,a5
	call	CopyGuid@plt
	.loc 1 285 44
	ld	a5,-88(s0)
	lbu	a4,16(a5)
	andi	a4,a4,0
	ori	a4,a4,40
	sb	a4,16(a5)
	lbu	a4,17(a5)
	andi	a4,a4,0
	sb	a4,17(a5)
	lbu	a4,18(a5)
	andi	a4,a4,0
	sb	a4,18(a5)
	lbu	a4,19(a5)
	andi	a4,a4,0
	sb	a4,19(a5)
	lbu	a4,20(a5)
	andi	a4,a4,0
	sb	a4,20(a5)
	lbu	a4,21(a5)
	andi	a4,a4,0
	sb	a4,21(a5)
	lbu	a4,22(a5)
	andi	a4,a4,0
	sb	a4,22(a5)
	lbu	a4,23(a5)
	andi	a4,a4,0
	sb	a4,23(a5)
	.loc 1 286 18
	li	a5,64
	sd	a5,-104(s0)
	.loc 1 291 31
	ld	a5,-56(s0)
	li	a4,1
	sd	a4,0(a5)
	.loc 1 292 37
	ld	a5,-56(s0)
	sd	zero,24(a5)
	.loc 1 293 31
	ld	a5,-112(s0)
	ld	a5,0(a5)
	.loc 1 293 18
	ld	a4,-112(s0)
	addi	a3,s0,-104
	mv	a2,a3
	ld	a1,-48(s0)
	mv	a0,a4
	jalr	a5
.LVL1:
	sd	a0,-80(s0)
	.loc 1 295 13
	ld	a5,-80(s0)
	.loc 1 295 12
	blt	a5,zero,.L18
	.loc 1 295 100 discriminator 1
	ld	a5,-56(s0)
	ld	a5,8(a5)
	.loc 1 295 67 discriminator 1
	blt	a5,zero,.L18
	.loc 1 295 158 discriminator 2
	ld	a5,-56(s0)
	ld	a5,16(a5)
	.loc 1 295 143 discriminator 2
	beq	a5,zero,.L18
	.loc 1 296 14
	lbu	a5,-145(s0)
	andi	a5,a5,0xff
	beq	a5,zero,.L24
	.loc 1 297 43
	ld	a5,-56(s0)
	ld	a4,16(a5)
	.loc 1 297 30
	ld	a5,-144(s0)
	sd	a4,0(a5)
	j	.L18
.L24:
	.loc 1 304 33
	ld	a5,-56(s0)
	li	a4,3
	sd	a4,0(a5)
	.loc 1 305 41
	lla	a5,mSmmBootRecordOffset
	ld	a4,0(a5)
	ld	a5,-56(s0)
	sd	a4,32(a5)
	.loc 1 306 46
	ld	a5,-56(s0)
	ld	a4,16(a5)
	.loc 1 306 63
	lla	a5,mSmmBootRecordOffset
	ld	a5,0(a5)
	.loc 1 306 33
	sub	a5,a4,a5
	sd	a5,-96(s0)
	.loc 1 307 31
	ld	a0,-96(s0)
	call	AllocateZeroPool@plt
	sd	a0,-64(s0)
	.loc 1 308 38
	sd	zero,-40(s0)
	.loc 1 310 73
	ld	a5,-24(s0)
	ld	a5,8(a5)
	.loc 1 310 89
	addi	a5,a5,64
	.loc 1 310 41
	mv	a4,a5
	.loc 1 310 39
	ld	a5,-56(s0)
	sd	a4,24(a5)
	.loc 1 311 57
	ld	a5,-72(s0)
	addi	a4,a5,-64
	.loc 1 311 39
	ld	a5,-56(s0)
	sd	a4,16(a5)
	.loc 1 312 17
	j	.L26
.L29:
	.loc 1 313 35
	ld	a5,-112(s0)
	ld	a5,0(a5)
	.loc 1 313 22
	ld	a4,-112(s0)
	addi	a3,s0,-104
	mv	a2,a3
	ld	a1,-48(s0)
	mv	a0,a4
	jalr	a5
.LVL2:
	sd	a0,-80(s0)
	.loc 1 316 57
	ld	a5,-56(s0)
	ld	a4,16(a5)
	.loc 1 316 44
	ld	a5,-40(s0)
	add	a5,a4,a5
	.loc 1 316 16
	ld	a4,-96(s0)
	bgeu	a4,a5,.L27
	.loc 1 317 15
	ld	a4,-64(s0)
	ld	a5,-40(s0)
	add	a3,a4,a5
	.loc 1 317 92
	ld	a5,-56(s0)
	ld	a1,24(a5)
	.loc 1 317 15
	ld	a4,-96(s0)
	ld	a5,-40(s0)
	sub	a5,a4,a5
	mv	a2,a5
	mv	a0,a3
	call	CopyMem@plt
	j	.L28
.L27:
	.loc 1 319 15
	ld	a4,-64(s0)
	ld	a5,-40(s0)
	add	a4,a4,a5
	.loc 1 319 92
	ld	a5,-56(s0)
	ld	a3,24(a5)
	.loc 1 319 15
	ld	a5,-56(s0)
	ld	a5,16(a5)
	mv	a2,a5
	mv	a1,a3
	mv	a0,a4
	call	CopyMem@plt
.L28:
	.loc 1 322 54
	ld	a5,-56(s0)
	ld	a5,16(a5)
	.loc 1 322 40
	ld	a4,-40(s0)
	add	a5,a4,a5
	sd	a5,-40(s0)
	.loc 1 323 24
	ld	a5,-56(s0)
	ld	a4,32(a5)
	.loc 1 323 57
	ld	a5,-56(s0)
	ld	a5,16(a5)
	.loc 1 323 43
	add	a4,a4,a5
	ld	a5,-56(s0)
	sd	a4,32(a5)
.L26:
	.loc 1 312 45
	ld	a4,-40(s0)
	ld	a5,-96(s0)
	bltu	a4,a5,.L29
	.loc 1 326 45
	ld	a5,-56(s0)
	ld	a4,32(a5)
	.loc 1 326 32
	lla	a5,mSmmBootRecordOffset
	sd	a4,0(a5)
	.loc 1 328 24
	ld	a5,-136(s0)
	ld	a4,-64(s0)
	sd	a4,0(a5)
	.loc 1 329 28
	ld	a5,-144(s0)
	ld	a4,-96(s0)
	sd	a4,0(a5)
.L18:
	.loc 1 334 1
	ld	ra,152(sp)
	.cfi_restore 1
	ld	s0,144(sp)
	.cfi_restore 8
	.cfi_def_cfa 2, 160
	addi	sp,sp,160
	.cfi_def_cfa_offset 0
	jr	ra
	.cfi_endproc
.LFE3:
	.size	InternalGetSmmPerfData, .-InternalGetSmmPerfData
	.section	.rodata
	.align	3
.LC10:
	.string	"F"
	.string	"i"
	.string	"r"
	.string	"m"
	.string	"w"
	.string	"a"
	.string	"r"
	.string	"e"
	.string	"P"
	.string	"e"
	.string	"r"
	.string	"f"
	.string	"o"
	.string	"r"
	.string	"m"
	.string	"a"
	.string	"n"
	.string	"c"
	.string	"e"
	.zero	2
	.section	.text.AllocateBootPerformanceTable,"ax",@progbits
	.align	1
	.globl	AllocateBootPerformanceTable
	.type	AllocateBootPerformanceTable, @function
AllocateBootPerformanceTable:
.LFB4:
	.loc 1 346 1
	.cfi_startproc
	addi	sp,sp,-80
	.cfi_def_cfa_offset 80
	sd	ra,72(sp)
	sd	s0,64(sp)
	.cfi_offset 1, -8
	.cfi_offset 8, -16
	addi	s0,sp,80
	.cfi_def_cfa 8, 0
	.loc 1 354 25
	sd	zero,-72(s0)
	.loc 1 360 3
	addi	a5,s0,-72
	li	a2,1
	mv	a1,a5
	li	a0,0
	call	InternalGetSmmPerfData
	.loc 1 366 82
	lla	a5,mPerformanceLength
	lw	a5,0(a5)
	slli	a4,a5,32
	srli	a4,a4,32
	ld	a5,-72(s0)
	add	a4,a4,a5
	.loc 1 366 106
	la	a5,_gPcd_FixedAtBuild_PcdExtFpdtBootRecordPadSize
	lw	a5,0(a5)
	slli	a5,a5,32
	srli	a5,a5,32
	add	a5,a4,a5
	.loc 1 366 27
	addi	a5,a5,56
	sd	a5,-24(s0)
	.loc 1 371 3
	addi	a5,s0,-64
	li	a1,16
	mv	a0,a5
	call	ZeroMem@plt
	.loc 1 372 8
	li	a5,16
	sd	a5,-48(s0)
	.loc 1 373 15
	la	a5,gRT
	ld	a5,0(a5)
	ld	a5,72(a5)
	.loc 1 373 12
	addi	a4,s0,-64
	addi	a3,s0,-48
	li	a2,0
	la	a1,gEfiFirmwarePerformanceGuid
	lla	a0,.LC10
	jalr	a5
.LVL3:
	sd	a0,-32(s0)
	.loc 1 380 7
	ld	a5,-32(s0)
	.loc 1 380 6
	blt	a5,zero,.L32
	.loc 1 381 17
	la	a5,gBS
	ld	a5,0(a5)
	ld	a4,40(a5)
	.loc 1 384 49
	ld	a5,-24(s0)
	srli	a3,a5,12
	.loc 1 384 86
	ld	a2,-24(s0)
	li	a5,4096
	addi	a5,a5,-1
	and	a5,a2,a5
	.loc 1 384 99
	beq	a5,zero,.L33
	.loc 1 384 99 is_stmt 0 discriminator 1
	li	a5,1
	j	.L34
.L33:
	.loc 1 384 99 discriminator 2
	li	a5,0
.L34:
	.loc 1 381 14 is_stmt 1
	add	a5,a5,a3
	addi	a3,s0,-64
	mv	a2,a5
	li	a1,0
	li	a0,2
	jalr	a4
.LVL4:
	sd	a0,-32(s0)
	.loc 1 387 9
	ld	a5,-32(s0)
	.loc 1 387 8
	blt	a5,zero,.L32
	.loc 1 388 87
	ld	a5,-64(s0)
	.loc 1 388 35
	mv	a4,a5
	.loc 1 388 33
	lla	a5,mAcpiBootPerformanceTable
	sd	a4,0(a5)
.L32:
	.loc 1 392 33
	lla	a5,mAcpiBootPerformanceTable
	ld	a5,0(a5)
	.loc 1 392 6
	bne	a5,zero,.L35
	.loc 1 398 89
	ld	a5,-24(s0)
	srli	a4,a5,12
	.loc 1 398 126
	ld	a3,-24(s0)
	li	a5,4096
	addi	a5,a5,-1
	and	a5,a3,a5
	.loc 1 398 139
	beq	a5,zero,.L36
	.loc 1 398 139 is_stmt 0 discriminator 1
	li	a5,1
	j	.L37
.L36:
	.loc 1 398 139 discriminator 2
	li	a5,0
.L37:
	.loc 1 396 59 is_stmt 1
	add	a5,a5,a4
	mv	a1,a5
	li	a0,0
	call	AllocatePeiAccessiblePages@plt
	mv	a4,a0
	.loc 1 396 31 discriminator 1
	lla	a5,mAcpiBootPerformanceTable
	sd	a4,0(a5)
	.loc 1 400 35
	lla	a5,mAcpiBootPerformanceTable
	ld	a5,0(a5)
	.loc 1 400 8
	beq	a5,zero,.L35
	.loc 1 401 7
	lla	a5,mAcpiBootPerformanceTable
	ld	a5,0(a5)
	ld	a1,-24(s0)
	mv	a0,a5
	call	ZeroMem@plt
.L35:
	.loc 1 407 33
	lla	a5,mAcpiBootPerformanceTable
	ld	a5,0(a5)
	.loc 1 407 6
	bne	a5,zero,.L38
	.loc 1 408 12
	li	a5,-1
	slli	a5,a5,63
	addi	a5,a5,9
	j	.L41
.L38:
	.loc 1 414 23
	lla	a5,mAcpiBootPerformanceTable
	ld	a5,0(a5)
	sd	a5,-40(s0)
	.loc 1 418 3
	lla	a5,mAcpiBootPerformanceTable
	ld	a5,0(a5)
	li	a2,56
	lla	a1,mBootPerformanceTableTemplate
	mv	a0,a5
	call	CopyMem@plt
	.loc 1 419 72
	lla	a5,mAcpiBootPerformanceTable
	ld	a5,0(a5)
	.loc 1 419 80
	lbu	a4,4(a5)
	lbu	a3,5(a5)
	slli	a3,a3,8
	or	a4,a3,a4
	lbu	a3,6(a5)
	slli	a3,a3,16
	or	a4,a3,a4
	lbu	a5,7(a5)
	slli	a5,a5,24
	or	a5,a5,a4
	sext.w	a5,a5
	slli	a5,a5,32
	srli	a5,a5,32
	.loc 1 419 23
	ld	a4,-40(s0)
	add	a5,a4,a5
	sd	a5,-40(s0)
	.loc 1 423 27
	lla	a5,mPerformancePointer
	ld	a5,0(a5)
	.loc 1 423 6
	beq	a5,zero,.L40
	.loc 1 424 5
	lla	a5,mPerformancePointer
	ld	a4,0(a5)
	lla	a5,mPerformanceLength
	lw	a5,0(a5)
	slli	a5,a5,32
	srli	a5,a5,32
	mv	a2,a5
	mv	a1,a4
	ld	a0,-40(s0)
	call	CopyMem@plt
	.loc 1 425 30
	lla	a5,mAcpiBootPerformanceTable
	ld	a5,0(a5)
	.loc 1 425 38
	lbu	a4,4(a5)
	lbu	a3,5(a5)
	slli	a3,a3,8
	or	a4,a3,a4
	lbu	a3,6(a5)
	slli	a3,a3,16
	or	a4,a3,a4
	lbu	a5,7(a5)
	slli	a5,a5,24
	or	a5,a5,a4
	sext.w	a3,a5
	.loc 1 425 46
	lla	a5,mPerformanceLength
	lw	a4,0(a5)
	.loc 1 425 30
	lla	a5,mAcpiBootPerformanceTable
	ld	a5,0(a5)
	.loc 1 425 46
	addw	a4,a3,a4
	sext.w	a4,a4
	slli	a3,a4,32
	srli	a3,a3,32
	andi	a3,a3,255
	lbu	a2,4(a5)
	andi	a2,a2,0
	or	a3,a2,a3
	sb	a3,4(a5)
	srliw	a3,a4,8
	slli	a3,a3,32
	srli	a3,a3,32
	andi	a3,a3,255
	lbu	a2,5(a5)
	andi	a2,a2,0
	or	a3,a2,a3
	sb	a3,5(a5)
	srliw	a3,a4,16
	slli	a3,a3,32
	srli	a3,a3,32
	andi	a3,a3,255
	lbu	a2,6(a5)
	andi	a2,a2,0
	or	a3,a2,a3
	sb	a3,6(a5)
	srliw	a4,a4,24
	slli	a4,a4,32
	srli	a4,a4,32
	lbu	a3,7(a5)
	andi	a3,a3,0
	or	a4,a3,a4
	sb	a4,7(a5)
	.loc 1 426 47
	lla	a5,mPerformanceLength
	lw	a5,0(a5)
	slli	a5,a5,32
	srli	a5,a5,32
	.loc 1 426 25
	ld	a4,-40(s0)
	add	a5,a4,a5
	sd	a5,-40(s0)
	.loc 1 427 5
	lla	a5,mPerformancePointer
	ld	a5,0(a5)
	mv	a0,a5
	call	FreePool@plt
	.loc 1 428 25
	lla	a5,mPerformancePointer
	sd	zero,0(a5)
	.loc 1 429 24
	lla	a5,mPerformanceLength
	sw	zero,0(a5)
	.loc 1 430 27
	lla	a5,mMaxPerformanceLength
	sw	zero,0(a5)
.L40:
	.loc 1 433 21
	lla	a5,mAcpiBootPerformanceTable
	ld	a4,0(a5)
	lla	a5,mBootRecordBuffer
	sd	a4,0(a5)
	.loc 1 434 46
	lla	a5,mAcpiBootPerformanceTable
	ld	a5,0(a5)
	.loc 1 434 54
	lbu	a4,4(a5)
	lbu	a3,5(a5)
	slli	a3,a3,8
	or	a4,a3,a4
	lbu	a3,6(a5)
	slli	a3,a3,16
	or	a4,a3,a4
	lbu	a5,7(a5)
	slli	a5,a5,24
	or	a5,a5,a4
	sext.w	a4,a5
	.loc 1 434 19
	lla	a5,mBootRecordSize
	sw	a4,0(a5)
	.loc 1 435 22
	lla	a5,mBootRecordMaxSize
	ld	a4,-24(s0)
	sd	a4,0(a5)
	.loc 1 437 10
	li	a5,0
.L41:
	.loc 1 438 1
	mv	a0,a5
	ld	ra,72(sp)
	.cfi_restore 1
	ld	s0,64(sp)
	.cfi_restore 8
	.cfi_def_cfa 2, 80
	addi	sp,sp,80
	.cfi_def_cfa_offset 0
	jr	ra
	.cfi_endproc
.LFE4:
	.size	AllocateBootPerformanceTable, .-AllocateBootPerformanceTable
	.section	.rodata
	.align	3
.LC11:
	.string	"P"
	.string	"l"
	.string	"a"
	.string	"t"
	.string	"f"
	.string	"o"
	.string	"r"
	.string	"m"
	.string	"L"
	.string	"a"
	.string	"n"
	.string	"g"
	.zero	2
	.align	3
.LC12:
	.string	"en-US"
	.section	.text.GetModuleInfoFromHandle,"ax",@progbits
	.align	1
	.globl	GetModuleInfoFromHandle
	.type	GetModuleInfoFromHandle, @function
GetModuleInfoFromHandle:
.LFB5:
	.loc 1 461 1
	.cfi_startproc
	addi	sp,sp,-160
	.cfi_def_cfa_offset 160
	sd	ra,152(sp)
	sd	s0,144(sp)
	.cfi_offset 1, -8
	.cfi_offset 8, -16
	addi	s0,sp,160
	.cfi_def_cfa 8, 0
	sd	a0,-136(s0)
	sd	a1,-144(s0)
	sd	a2,-152(s0)
	sd	a3,-160(s0)
	.loc 1 476 6
	ld	a5,-144(s0)
	beq	a5,zero,.L43
	.loc 1 476 36 discriminator 1
	ld	a5,-152(s0)
	bne	a5,zero,.L44
.L43:
	.loc 1 477 12
	li	a5,-1
	slli	a5,a5,63
	addi	a5,a5,2
	j	.L76
.L44:
	.loc 1 483 23
	lla	a5,mCachePairCount
	ld	a5,0(a5)
	.loc 1 483 6
	beq	a5,zero,.L46
	.loc 1 484 34
	lla	a5,mCachePairCount
	ld	a5,0(a5)
	addi	a5,a5,-1
	.loc 1 484 16
	sd	a5,-56(s0)
	.loc 1 484 5
	j	.L47
.L49:
	.loc 1 485 49
	lla	a3,mCacheHandleGuidTable
	ld	a4,-56(s0)
	mv	a5,a4
	slli	a5,a5,1
	add	a5,a5,a4
	slli	a5,a5,4
	add	a5,a3,a5
	ld	a5,0(a5)
	.loc 1 485 10
	ld	a4,-136(s0)
	bne	a4,a5,.L48
	.loc 1 486 31
	ld	a4,-56(s0)
	mv	a5,a4
	slli	a5,a5,1
	add	a5,a5,a4
	slli	a5,a5,4
	addi	a4,a5,32
	lla	a5,mCacheHandleGuidTable
	add	a5,a4,a5
	.loc 1 486 9
	mv	a1,a5
	ld	a0,-160(s0)
	call	CopyGuid@plt
	.loc 1 487 67
	ld	a4,-56(s0)
	mv	a5,a4
	slli	a5,a5,1
	add	a5,a5,a4
	slli	a5,a5,4
	lla	a4,mCacheHandleGuidTable
	add	a5,a5,a4
	addi	a5,a5,8
	.loc 1 487 9
	mv	a2,a5
	li	a1,24
	ld	a0,-144(s0)
	call	AsciiStrCpyS@plt
	.loc 1 488 16
	li	a5,0
	j	.L76
.L48:
	.loc 1 484 55 discriminator 2
	ld	a5,-56(s0)
	addi	a5,a5,-1
	sd	a5,-56(s0)
.L47:
	.loc 1 484 44 discriminator 1
	ld	a5,-56(s0)
	bge	a5,zero,.L49
.L46:
	.loc 1 493 10
	li	a5,-1
	slli	a5,a5,63
	addi	a5,a5,2
	sd	a5,-24(s0)
	.loc 1 494 15
	sd	zero,-88(s0)
	.loc 1 495 19
	sb	zero,-57(s0)
	.loc 1 500 12
	la	a5,gZeroGuid
	sd	a5,-32(s0)
	.loc 1 504 17
	ld	a5,-144(s0)
	sb	zero,0(a5)
	.loc 1 506 6
	ld	a5,-136(s0)
	beq	a5,zero,.L50
	.loc 1 510 17
	la	a5,gBS
	ld	a5,0(a5)
	ld	a5,152(a5)
	.loc 1 510 14
	addi	a4,s0,-88
	mv	a2,a4
	la	a1,gEfiLoadedImageProtocolGuid
	ld	a0,-136(s0)
	jalr	a5
.LVL5:
	sd	a0,-24(s0)
	.loc 1 516 36
	ld	a5,-24(s0)
	.loc 1 516 8
	bge	a5,zero,.L50
	.loc 1 520 19
	la	a5,gBS
	ld	a5,0(a5)
	ld	a6,280(a5)
	.loc 1 520 16
	addi	a2,s0,-96
	li	a5,2
	li	a4,0
	li	a3,0
	la	a1,gEfiDriverBindingProtocolGuid
	ld	a0,-136(s0)
	jalr	a6
.LVL6:
	sd	a0,-24(s0)
	.loc 1 528 11
	ld	a5,-24(s0)
	.loc 1 528 10
	blt	a5,zero,.L50
	.loc 1 532 21
	la	a5,gBS
	ld	a5,0(a5)
	ld	a5,152(a5)
	.loc 1 533 38
	ld	a4,-96(s0)
	.loc 1 532 18
	ld	a4,32(a4)
	addi	a3,s0,-88
	mv	a2,a3
	la	a1,gEfiLoadedImageProtocolGuid
	mv	a0,a4
	jalr	a5
.LVL7:
	sd	a0,-24(s0)
.L50:
	.loc 1 541 7
	ld	a5,-24(s0)
	.loc 1 541 6
	blt	a5,zero,.L51
	.loc 1 541 77 discriminator 1
	ld	a5,-88(s0)
	.loc 1 541 61 discriminator 1
	beq	a5,zero,.L51
	.loc 1 545 21
	ld	a5,-88(s0)
	ld	a5,32(a5)
	.loc 1 545 8
	beq	a5,zero,.L52
	.loc 1 546 21
	ld	a5,-88(s0)
	ld	a5,32(a5)
	.loc 1 546 31
	lbu	a5,0(a5)
	.loc 1 545 49 discriminator 1
	mv	a4,a5
	li	a5,4
	bne	a4,a5,.L52
	.loc 1 547 21
	ld	a5,-88(s0)
	ld	a5,32(a5)
	.loc 1 547 31
	lbu	a5,1(a5)
	.loc 1 546 47
	mv	a4,a5
	li	a5,6
	bne	a4,a5,.L52
	.loc 1 553 23
	li	a5,1
	sb	a5,-57(s0)
	.loc 1 554 68
	ld	a5,-88(s0)
	.loc 1 554 18
	ld	a5,32(a5)
	sd	a5,-72(s0)
	.loc 1 555 16
	ld	a5,-72(s0)
	addi	a5,a5,4
	sd	a5,-32(s0)
.L52:
	.loc 1 561 57
	ld	a5,-88(s0)
	.loc 1 561 19
	ld	a5,64(a5)
	mv	a0,a5
	call	PeCoffLoaderGetPdbPointer@plt
	sd	a0,-80(s0)
	.loc 1 562 8
	ld	a5,-80(s0)
	beq	a5,zero,.L51
	.loc 1 562 39 discriminator 1
	ld	a5,-152(s0)
	beq	a5,zero,.L51
	.loc 1 563 18
	sd	zero,-40(s0)
	.loc 1 564 18
	sd	zero,-48(s0)
	.loc 1 564 7
	j	.L53
.L56:
	.loc 1 565 25
	ld	a4,-80(s0)
	ld	a5,-48(s0)
	add	a5,a4,a5
	lbu	a5,0(a5)
	.loc 1 565 12
	mv	a4,a5
	li	a5,92
	beq	a4,a5,.L54
	.loc 1 565 57 discriminator 1
	ld	a4,-80(s0)
	ld	a5,-48(s0)
	add	a5,a4,a5
	lbu	a5,0(a5)
	.loc 1 565 42 discriminator 1
	mv	a4,a5
	li	a5,47
	bne	a4,a5,.L55
.L54:
	.loc 1 566 22
	ld	a5,-48(s0)
	addi	a5,a5,1
	sd	a5,-40(s0)
.L55:
	.loc 1 564 53 discriminator 2
	ld	a5,-48(s0)
	addi	a5,a5,1
	sd	a5,-48(s0)
.L53:
	.loc 1 564 34 discriminator 1
	ld	a4,-80(s0)
	ld	a5,-48(s0)
	add	a5,a4,a5
	lbu	a5,0(a5)
	.loc 1 564 42 discriminator 1
	bne	a5,zero,.L56
	.loc 1 574 18
	sd	zero,-48(s0)
	.loc 1 574 7
	j	.L57
.L61:
	.loc 1 575 47
	ld	a4,-48(s0)
	ld	a5,-40(s0)
	add	a5,a4,a5
	.loc 1 575 40
	ld	a4,-80(s0)
	add	a4,a4,a5
	.loc 1 575 19
	ld	a3,-144(s0)
	ld	a5,-48(s0)
	add	a5,a3,a5
	.loc 1 575 40
	lbu	a4,0(a4)
	.loc 1 575 27
	sb	a4,0(a5)
	.loc 1 576 24
	ld	a4,-144(s0)
	ld	a5,-48(s0)
	add	a5,a4,a5
	lbu	a5,0(a5)
	.loc 1 576 12
	beq	a5,zero,.L58
	.loc 1 576 52 discriminator 1
	ld	a4,-144(s0)
	ld	a5,-48(s0)
	add	a5,a4,a5
	lbu	a5,0(a5)
	.loc 1 576 38 discriminator 1
	mv	a4,a5
	li	a5,46
	bne	a4,a5,.L59
.L58:
	.loc 1 577 21
	ld	a4,-144(s0)
	ld	a5,-48(s0)
	add	a5,a4,a5
	.loc 1 577 29
	sb	zero,0(a5)
	.loc 1 578 11
	j	.L60
.L59:
	.loc 1 574 52 discriminator 2
	ld	a5,-48(s0)
	addi	a5,a5,1
	sd	a5,-48(s0)
.L57:
	.loc 1 574 42 discriminator 1
	ld	a5,-152(s0)
	addi	a5,a5,-1
	.loc 1 574 29 discriminator 1
	ld	a4,-48(s0)
	bltu	a4,a5,.L61
.L60:
	.loc 1 582 31
	ld	a5,-152(s0)
	addi	a5,a5,-1
	.loc 1 582 10
	ld	a4,-48(s0)
	bne	a4,a5,.L77
	.loc 1 583 19
	ld	a4,-144(s0)
	ld	a5,-48(s0)
	add	a5,a4,a5
	.loc 1 583 27
	sb	zero,0(a5)
	.loc 1 589 7
	j	.L77
.L51:
	.loc 1 596 15
	la	a5,gBS
	ld	a5,0(a5)
	ld	a5,152(a5)
	.loc 1 596 12
	addi	a4,s0,-120
	mv	a2,a4
	la	a1,gEfiComponentName2ProtocolGuid
	ld	a0,-136(s0)
	jalr	a5
.LVL8:
	sd	a0,-24(s0)
	.loc 1 601 7
	ld	a5,-24(s0)
	.loc 1 601 6
	blt	a5,zero,.L64
	.loc 1 605 27
	lla	a5,mPlatformLanguage
	ld	a5,0(a5)
	.loc 1 605 8
	bne	a5,zero,.L65
	.loc 1 606 7
	li	a2,0
	lla	a1,mPlatformLanguage
	lla	a0,.LC11
	call	GetEfiGlobalVariable2@plt
.L65:
	.loc 1 609 27
	lla	a5,mPlatformLanguage
	ld	a5,0(a5)
	.loc 1 609 8
	beq	a5,zero,.L64
	.loc 1 610 30
	ld	a5,-120(s0)
	ld	a4,0(a5)
	.loc 1 610 16
	ld	a3,-120(s0)
	.loc 1 612 52
	lla	a5,mPlatformLanguage
	ld	a5,0(a5)
	.loc 1 610 16
	beq	a5,zero,.L66
	.loc 1 610 16 is_stmt 0 discriminator 1
	lla	a5,mPlatformLanguage
	ld	a5,0(a5)
	j	.L67
.L66:
	.loc 1 610 16 discriminator 2
	lla	a5,.LC12
.L67:
	.loc 1 610 16 discriminator 4
	addi	a2,s0,-112
	mv	a1,a5
	mv	a0,a3
	jalr	a4
.LVL9:
	sd	a0,-24(s0)
	.loc 1 615 11 is_stmt 1
	ld	a5,-24(s0)
	.loc 1 615 10
	blt	a5,zero,.L64
	.loc 1 616 20
	sd	zero,-48(s0)
	.loc 1 616 9
	j	.L68
.L70:
	.loc 1 617 47
	ld	a4,-112(s0)
	ld	a5,-48(s0)
	slli	a5,a5,1
	add	a5,a4,a5
	lhu	a3,0(a5)
	.loc 1 617 21
	ld	a4,-144(s0)
	ld	a5,-48(s0)
	add	a5,a4,a5
	.loc 1 617 31
	andi	a4,a3,0xff
	.loc 1 617 29
	sb	a4,0(a5)
	.loc 1 616 79 discriminator 4
	ld	a5,-48(s0)
	addi	a5,a5,1
	sd	a5,-48(s0)
.L68:
	.loc 1 616 44 discriminator 1
	ld	a5,-152(s0)
	addi	a5,a5,-1
	.loc 1 616 48 discriminator 1
	ld	a4,-48(s0)
	bgeu	a4,a5,.L69
	.loc 1 616 60 discriminator 3
	ld	a4,-112(s0)
	ld	a5,-48(s0)
	slli	a5,a5,1
	add	a5,a4,a5
	lhu	a5,0(a5)
	.loc 1 616 48 discriminator 3
	bne	a5,zero,.L70
.L69:
	.loc 1 620 19
	ld	a4,-144(s0)
	ld	a5,-48(s0)
	add	a5,a4,a5
	.loc 1 620 27
	sb	zero,0(a5)
	.loc 1 624 9
	j	.L63
.L64:
	.loc 1 629 6
	lbu	a5,-57(s0)
	andi	a5,a5,0xff
	beq	a5,zero,.L78
	.loc 1 633 15
	sd	zero,-112(s0)
	.loc 1 634 16
	sd	zero,-104(s0)
	.loc 1 635 14
	addi	a4,s0,-104
	addi	a5,s0,-112
	mv	a3,a5
	li	a2,0
	li	a1,21
	ld	a0,-32(s0)
	call	GetSectionFromAnyFv@plt
	sd	a0,-24(s0)
	.loc 1 643 9
	ld	a5,-24(s0)
	.loc 1 643 8
	blt	a5,zero,.L78
	.loc 1 647 18
	sd	zero,-48(s0)
	.loc 1 647 7
	j	.L71
.L73:
	.loc 1 648 45
	ld	a4,-112(s0)
	ld	a5,-48(s0)
	slli	a5,a5,1
	add	a5,a4,a5
	lhu	a3,0(a5)
	.loc 1 648 19
	ld	a4,-144(s0)
	ld	a5,-48(s0)
	add	a5,a4,a5
	.loc 1 648 29
	andi	a4,a3,0xff
	.loc 1 648 27
	sb	a4,0(a5)
	.loc 1 647 77 discriminator 4
	ld	a5,-48(s0)
	addi	a5,a5,1
	sd	a5,-48(s0)
.L71:
	.loc 1 647 42 discriminator 1
	ld	a5,-152(s0)
	addi	a5,a5,-1
	.loc 1 647 46 discriminator 1
	ld	a4,-48(s0)
	bgeu	a4,a5,.L72
	.loc 1 647 58 discriminator 3
	ld	a4,-112(s0)
	ld	a5,-48(s0)
	slli	a5,a5,1
	add	a5,a4,a5
	lhu	a5,0(a5)
	.loc 1 647 46 discriminator 3
	bne	a5,zero,.L73
.L72:
	.loc 1 651 17
	ld	a4,-144(s0)
	ld	a5,-48(s0)
	add	a5,a4,a5
	.loc 1 651 25
	sb	zero,0(a5)
	.loc 1 652 7
	ld	a5,-112(s0)
	mv	a0,a5
	call	FreePool@plt
	j	.L63
.L77:
	.loc 1 589 7
	nop
	j	.L63
.L78:
	.loc 1 656 1
	nop
.L63:
	.loc 1 660 6
	ld	a5,-160(s0)
	beq	a5,zero,.L74
	.loc 1 661 5
	ld	a1,-32(s0)
	ld	a0,-160(s0)
	call	CopyGuid@plt
	.loc 1 662 9
	ld	a0,-32(s0)
	call	IsZeroGuid@plt
	mv	a5,a0
	.loc 1 662 8 discriminator 1
	beq	a5,zero,.L74
	.loc 1 662 31 discriminator 2
	ld	a5,-136(s0)
	beq	a5,zero,.L74
	.loc 1 662 59 discriminator 3
	lbu	a5,-57(s0)
	andi	a5,a5,0xff
	bne	a5,zero,.L74
	.loc 1 664 7
	ld	a1,-136(s0)
	ld	a0,-160(s0)
	call	CopyGuid@plt
.L74:
	.loc 1 671 23
	lla	a5,mCachePairCount
	ld	a4,0(a5)
	.loc 1 671 6
	li	a5,2047
	bgtu	a4,a5,.L75
	.loc 1 672 43
	lla	a5,mCachePairCount
	ld	a4,0(a5)
	.loc 1 672 51
	lla	a3,mCacheHandleGuidTable
	mv	a5,a4
	slli	a5,a5,1
	add	a5,a5,a4
	slli	a5,a5,4
	add	a5,a3,a5
	ld	a4,-136(s0)
	sd	a4,0(a5)
	.loc 1 673 54
	lla	a5,mCachePairCount
	ld	a4,0(a5)
	.loc 1 673 15
	mv	a5,a4
	slli	a5,a5,1
	add	a5,a5,a4
	slli	a5,a5,4
	addi	a4,a5,32
	lla	a5,mCacheHandleGuidTable
	add	a5,a4,a5
	.loc 1 673 5
	ld	a1,-160(s0)
	mv	a0,a5
	call	CopyGuid@plt
	.loc 1 674 57
	lla	a5,mCachePairCount
	ld	a4,0(a5)
	mv	a5,a4
	slli	a5,a5,1
	add	a5,a5,a4
	slli	a5,a5,4
	lla	a4,mCacheHandleGuidTable
	add	a5,a5,a4
	addi	a5,a5,8
	.loc 1 674 5
	ld	a2,-144(s0)
	li	a1,24
	mv	a0,a5
	call	AsciiStrCpyS@plt
	.loc 1 675 20
	lla	a5,mCachePairCount
	ld	a5,0(a5)
	addi	a4,a5,1
	lla	a5,mCachePairCount
	sd	a4,0(a5)
.L75:
	.loc 1 678 10
	ld	a5,-24(s0)
.L76:
	.loc 1 679 1
	mv	a0,a5
	ld	ra,152(sp)
	.cfi_restore 1
	ld	s0,144(sp)
	.cfi_restore 8
	.cfi_def_cfa 2, 160
	addi	sp,sp,160
	.cfi_def_cfa_offset 0
	jr	ra
	.cfi_endproc
.LFE5:
	.size	GetModuleInfoFromHandle, .-GetModuleInfoFromHandle
	.section	.text.GetFpdtRecordId,"ax",@progbits
	.align	1
	.globl	GetFpdtRecordId
	.type	GetFpdtRecordId, @function
GetFpdtRecordId:
.LFB6:
	.loc 1 702 1
	.cfi_startproc
	addi	sp,sp,-48
	.cfi_def_cfa_offset 48
	sd	ra,40(sp)
	sd	s0,32(sp)
	.cfi_offset 1, -8
	.cfi_offset 8, -16
	addi	s0,sp,48
	.cfi_def_cfa 8, 0
	mv	a5,a0
	sd	a1,-32(s0)
	sd	a2,-40(s0)
	sd	a3,-48(s0)
	sw	a5,-20(s0)
	.loc 1 706 6
	ld	a5,-40(s0)
	beq	a5,zero,.L80
	.loc 1 707 9
	lla	a1,.LC8
	ld	a0,-40(s0)
	call	AsciiStrCmp@plt
	mv	a5,a0
	.loc 1 707 8 discriminator 1
	bne	a5,zero,.L81
	.loc 1 709 10
	lw	a5,-20(s0)
	sext.w	a5,a5
	bne	a5,zero,.L82
	.loc 1 710 21
	ld	a5,-48(s0)
	li	a4,1
	sh	a4,0(a5)
	j	.L100
.L82:
	.loc 1 712 21
	ld	a5,-48(s0)
	li	a4,2
	sh	a4,0(a5)
	j	.L100
.L81:
	.loc 1 714 16
	lla	a1,.LC7
	ld	a0,-40(s0)
	call	AsciiStrCmp@plt
	mv	a5,a0
	.loc 1 714 15 discriminator 1
	bne	a5,zero,.L84
	.loc 1 716 10
	lw	a5,-20(s0)
	sext.w	a5,a5
	bne	a5,zero,.L85
	.loc 1 717 21
	ld	a5,-48(s0)
	li	a4,3
	sh	a4,0(a5)
	j	.L100
.L85:
	.loc 1 719 21
	ld	a5,-48(s0)
	li	a4,4
	sh	a4,0(a5)
	j	.L100
.L84:
	.loc 1 721 16
	lla	a1,.LC4
	ld	a0,-40(s0)
	call	AsciiStrCmp@plt
	mv	a5,a0
	.loc 1 721 15 discriminator 1
	bne	a5,zero,.L86
	.loc 1 723 10
	lw	a5,-20(s0)
	sext.w	a5,a5
	bne	a5,zero,.L87
	.loc 1 724 21
	ld	a5,-48(s0)
	li	a4,5
	sh	a4,0(a5)
	j	.L100
.L87:
	.loc 1 726 21
	ld	a5,-48(s0)
	li	a4,6
	sh	a4,0(a5)
	j	.L100
.L86:
	.loc 1 728 16
	lla	a1,.LC5
	ld	a0,-40(s0)
	call	AsciiStrCmp@plt
	mv	a5,a0
	.loc 1 728 15 discriminator 1
	bne	a5,zero,.L88
	.loc 1 730 11
	la	a5,_gPcd_FixedAtBuild_PcdEdkiiFpdtStringRecordEnableOnly
	lbu	a5,0(a5)
	.loc 1 730 10
	beq	a5,zero,.L89
	.loc 1 731 16
	li	a5,-1
	slli	a5,a5,63
	addi	a5,a5,3
	j	.L90
.L89:
	.loc 1 734 10
	lw	a5,-20(s0)
	sext.w	a5,a5
	bne	a5,zero,.L91
	.loc 1 735 21
	ld	a5,-48(s0)
	li	a4,7
	sh	a4,0(a5)
	j	.L100
.L91:
	.loc 1 737 21
	ld	a5,-48(s0)
	li	a4,8
	sh	a4,0(a5)
	j	.L100
.L88:
	.loc 1 739 16
	lla	a1,.LC6
	ld	a0,-40(s0)
	call	AsciiStrCmp@plt
	mv	a5,a0
	.loc 1 739 15 discriminator 1
	bne	a5,zero,.L92
	.loc 1 741 11
	la	a5,_gPcd_FixedAtBuild_PcdEdkiiFpdtStringRecordEnableOnly
	lbu	a5,0(a5)
	.loc 1 741 10
	beq	a5,zero,.L93
	.loc 1 742 16
	li	a5,-1
	slli	a5,a5,63
	addi	a5,a5,3
	j	.L90
.L93:
	.loc 1 745 10
	lw	a5,-20(s0)
	sext.w	a5,a5
	bne	a5,zero,.L94
	.loc 1 746 21
	ld	a5,-48(s0)
	li	a4,9
	sh	a4,0(a5)
	j	.L100
.L94:
	.loc 1 748 21
	ld	a5,-48(s0)
	li	a4,10
	sh	a4,0(a5)
	j	.L100
.L92:
	.loc 1 750 17
	lla	a1,.LC1
	ld	a0,-40(s0)
	call	AsciiStrCmp@plt
	mv	a5,a0
	.loc 1 750 15 discriminator 1
	beq	a5,zero,.L95
	.loc 1 751 17
	lla	a1,.LC2
	ld	a0,-40(s0)
	call	AsciiStrCmp@plt
	mv	a5,a0
	.loc 1 750 51 discriminator 2
	beq	a5,zero,.L95
	.loc 1 752 17
	lla	a1,.LC3
	ld	a0,-40(s0)
	call	AsciiStrCmp@plt
	mv	a5,a0
	.loc 1 751 51
	bne	a5,zero,.L96
.L95:
	.loc 1 754 10
	lw	a5,-20(s0)
	sext.w	a5,a5
	bne	a5,zero,.L97
	.loc 1 755 21
	ld	a5,-48(s0)
	li	a4,80
	sh	a4,0(a5)
	.loc 1 754 10
	j	.L100
.L97:
	.loc 1 757 21
	ld	a5,-48(s0)
	li	a4,81
	sh	a4,0(a5)
	.loc 1 754 10
	j	.L100
.L96:
	.loc 1 761 10
	lw	a5,-20(s0)
	sext.w	a5,a5
	bne	a5,zero,.L99
	.loc 1 762 21
	ld	a5,-48(s0)
	li	a4,64
	sh	a4,0(a5)
	j	.L100
.L99:
	.loc 1 764 21
	ld	a5,-48(s0)
	li	a4,65
	sh	a4,0(a5)
	j	.L100
.L80:
	.loc 1 767 13
	ld	a5,-32(s0)
	beq	a5,zero,.L101
	.loc 1 769 8
	lw	a5,-20(s0)
	sext.w	a5,a5
	bne	a5,zero,.L102
	.loc 1 770 19
	ld	a5,-48(s0)
	li	a4,64
	sh	a4,0(a5)
	j	.L100
.L102:
	.loc 1 772 19
	ld	a5,-48(s0)
	li	a4,65
	sh	a4,0(a5)
	j	.L100
.L101:
	.loc 1 775 12
	li	a5,-1
	slli	a5,a5,63
	addi	a5,a5,2
	j	.L90
.L100:
	.loc 1 778 10
	li	a5,0
.L90:
	.loc 1 779 1
	mv	a0,a5
	ld	ra,40(sp)
	.cfi_restore 1
	ld	s0,32(sp)
	.cfi_restore 8
	.cfi_def_cfa 2, 48
	addi	sp,sp,48
	.cfi_def_cfa_offset 0
	jr	ra
	.cfi_endproc
.LFE6:
	.size	GetFpdtRecordId, .-GetFpdtRecordId
	.section	.text.CopyStringIntoPerfRecordAndUpdateLength,"ax",@progbits
	.align	1
	.globl	CopyStringIntoPerfRecordAndUpdateLength
	.type	CopyStringIntoPerfRecordAndUpdateLength, @function
CopyStringIntoPerfRecordAndUpdateLength:
.LFB7:
	.loc 1 796 1
	.cfi_startproc
	addi	sp,sp,-64
	.cfi_def_cfa_offset 64
	sd	ra,56(sp)
	sd	s0,48(sp)
	.cfi_offset 1, -8
	.cfi_offset 8, -16
	addi	s0,sp,64
	.cfi_def_cfa 8, 0
	sd	a0,-40(s0)
	sd	a1,-48(s0)
	sd	a2,-56(s0)
	.loc 1 802 7
	la	a5,_gPcd_FixedAtBuild_PcdEdkiiFpdtStringRecordEnableOnly
	lbu	a5,0(a5)
	.loc 1 802 6
	beq	a5,zero,.L104
	.loc 1 803 13
	li	a5,24
	sd	a5,-32(s0)
	j	.L105
.L104:
	.loc 1 805 15
	ld	a0,-48(s0)
	call	AsciiStrSize@plt
	sd	a0,-32(s0)
	.loc 1 806 8
	ld	a4,-32(s0)
	li	a5,24
	bleu	a4,a5,.L105
	.loc 1 807 15
	li	a5,24
	sd	a5,-32(s0)
.L105:
	.loc 1 811 15
	ld	a0,-48(s0)
	call	AsciiStrLen@plt
	sd	a0,-24(s0)
	.loc 1 812 6
	ld	a4,-24(s0)
	ld	a5,-32(s0)
	bltu	a4,a5,.L106
	.loc 1 813 15
	ld	a5,-32(s0)
	addi	a5,a5,-1
	sd	a5,-24(s0)
.L106:
	.loc 1 816 3
	ld	a3,-24(s0)
	ld	a2,-48(s0)
	ld	a1,-32(s0)
	ld	a0,-40(s0)
	call	AsciiStrnCpyS@plt
	.loc 1 817 3
	ld	a5,-56(s0)
	lbu	a4,0(a5)
	.loc 1 817 14
	ld	a5,-32(s0)
	andi	a5,a5,0xff
	.loc 1 817 11
	addw	a5,a4,a5
	andi	a4,a5,0xff
	ld	a5,-56(s0)
	sb	a4,0(a5)
	.loc 1 819 3
	nop
	.loc 1 820 1
	ld	ra,56(sp)
	.cfi_restore 1
	ld	s0,48(sp)
	.cfi_restore 8
	.cfi_def_cfa 2, 64
	addi	sp,sp,64
	.cfi_def_cfa_offset 0
	jr	ra
	.cfi_endproc
.LFE7:
	.size	CopyStringIntoPerfRecordAndUpdateLength, .-CopyStringIntoPerfRecordAndUpdateLength
	.section	.text.GetDeviceInfoFromHandleAndUpdateLength,"ax",@progbits
	.align	1
	.globl	GetDeviceInfoFromHandleAndUpdateLength
	.type	GetDeviceInfoFromHandleAndUpdateLength, @function
GetDeviceInfoFromHandleAndUpdateLength:
.LFB8:
	.loc 1 843 1
	.cfi_startproc
	addi	sp,sp,-112
	.cfi_def_cfa_offset 112
	sd	ra,104(sp)
	sd	s0,96(sp)
	.cfi_offset 1, -8
	.cfi_offset 8, -16
	addi	s0,sp,112
	.cfi_def_cfa 8, 0
	sd	a0,-88(s0)
	sd	a1,-96(s0)
	sd	a2,-104(s0)
	sd	a3,-112(s0)
	.loc 1 852 28
	sd	zero,-64(s0)
	.loc 1 854 15
	la	a5,gBS
	ld	a5,0(a5)
	ld	a5,152(a5)
	.loc 1 854 12
	addi	a4,s0,-48
	mv	a2,a4
	la	a1,gEfiComponentName2ProtocolGuid
	ld	a0,-88(s0)
	jalr	a5
.LVL10:
	sd	a0,-24(s0)
	.loc 1 860 7
	ld	a5,-24(s0)
	.loc 1 860 6
	blt	a5,zero,.L109
	.loc 1 864 27
	lla	a5,mPlatformLanguage
	ld	a5,0(a5)
	.loc 1 864 8
	bne	a5,zero,.L110
	.loc 1 865 7
	li	a2,0
	lla	a1,mPlatformLanguage
	lla	a0,.LC11
	call	GetEfiGlobalVariable2@plt
.L110:
	.loc 1 868 28
	ld	a5,-48(s0)
	ld	a6,8(a5)
	.loc 1 868 14
	ld	a0,-48(s0)
	.loc 1 872 50
	lla	a5,mPlatformLanguage
	ld	a5,0(a5)
	.loc 1 868 14
	beq	a5,zero,.L111
	.loc 1 868 14 is_stmt 0 discriminator 1
	lla	a5,mPlatformLanguage
	ld	a5,0(a5)
	j	.L112
.L111:
	.loc 1 868 14 discriminator 2
	lla	a5,.LC12
.L112:
	.loc 1 868 14 discriminator 4
	addi	a4,s0,-56
	mv	a3,a5
	li	a2,0
	ld	a1,-96(s0)
	jalr	a6
.LVL11:
	sd	a0,-24(s0)
.L109:
	.loc 1 877 7 is_stmt 1
	ld	a5,-24(s0)
	.loc 1 877 6
	blt	a5,zero,.L113
	.loc 1 882 32
	ld	a5,-56(s0)
	mv	a0,a5
	call	StrSize@plt
	mv	a5,a0
	.loc 1 882 52 discriminator 1
	srli	a5,a5,1
	.loc 1 882 30 discriminator 1
	sd	a5,-64(s0)
	.loc 1 887 38
	ld	a5,-112(s0)
	lbu	a5,0(a5)
	mv	a4,a5
	.loc 1 887 35
	ld	a5,-64(s0)
	add	a5,a4,a5
	.loc 1 887 47
	addi	a4,a5,1
	.loc 1 887 8
	li	a5,255
	bleu	a4,a5,.L114
	.loc 1 891 53
	ld	a5,-112(s0)
	lbu	a5,0(a5)
	sext.w	a5,a5
	.loc 1 891 62
	li	a4,254
	subw	a5,a4,a5
	sext.w	a5,a5
	.loc 1 891 32
	sd	a5,-64(s0)
.L114:
	.loc 1 894 5
	ld	a0,-56(s0)
	ld	a5,-64(s0)
	addi	a5,a5,-1
	ld	a3,-64(s0)
	addi	a4,s0,-64
	ld	a2,-104(s0)
	mv	a1,a5
	call	UnicodeStrnToAsciiStrS@plt
	.loc 1 899 69
	ld	a5,-64(s0)
	addi	a5,a5,-1
	.loc 1 899 20
	ld	a4,-104(s0)
	add	a5,a4,a5
	sd	a5,-32(s0)
	.loc 1 900 21
	ld	a5,-32(s0)
	li	a4,32
	sb	a4,0(a5)
	.loc 1 901 19
	ld	a5,-32(s0)
	addi	a5,a5,1
	sd	a5,-32(s0)
	.loc 1 902 21
	ld	a5,-32(s0)
	sb	zero,0(a5)
	.loc 1 903 29
	ld	a5,-64(s0)
	addi	a5,a5,1
	sd	a5,-64(s0)
	.loc 1 905 5
	ld	a5,-112(s0)
	lbu	a4,0(a5)
	.loc 1 905 16
	ld	a5,-64(s0)
	andi	a5,a5,0xff
	.loc 1 905 13
	addw	a5,a4,a5
	andi	a4,a5,0xff
	ld	a5,-112(s0)
	sb	a4,0(a5)
.L113:
	.loc 1 912 24
	ld	a0,-96(s0)
	call	DevicePathFromHandle@plt
	sd	a0,-40(s0)
	.loc 1 914 6
	ld	a5,-40(s0)
	beq	a5,zero,.L115
	.loc 1 915 17
	li	a2,0
	li	a1,1
	ld	a0,-40(s0)
	call	ConvertDevicePathToText@plt
	mv	a5,a0
	.loc 1 915 15 discriminator 1
	sd	a5,-56(s0)
	.loc 1 916 19
	ld	a5,-56(s0)
	.loc 1 916 8
	beq	a5,zero,.L115
	.loc 1 921 30
	ld	a5,-56(s0)
	mv	a0,a5
	call	StrSize@plt
	mv	a5,a0
	.loc 1 921 50 discriminator 1
	srli	a5,a5,1
	.loc 1 921 28 discriminator 1
	sd	a5,-72(s0)
	.loc 1 923 36
	ld	a5,-112(s0)
	lbu	a5,0(a5)
	mv	a4,a5
	.loc 1 923 33
	ld	a5,-72(s0)
	add	a4,a4,a5
	.loc 1 923 10
	li	a5,255
	bleu	a4,a5,.L116
	.loc 1 927 51
	ld	a5,-112(s0)
	lbu	a5,0(a5)
	sext.w	a5,a5
	.loc 1 927 48
	li	a4,255
	subw	a5,a4,a5
	sext.w	a5,a5
	.loc 1 927 30
	sd	a5,-72(s0)
.L116:
	.loc 1 930 36
	ld	a5,-64(s0)
	.loc 1 930 10
	beq	a5,zero,.L117
	.loc 1 931 73
	ld	a5,-64(s0)
	addi	a5,a5,-1
	.loc 1 931 24
	ld	a4,-104(s0)
	add	a5,a4,a5
	sd	a5,-32(s0)
	j	.L118
.L117:
	.loc 1 933 24
	ld	a5,-104(s0)
	sd	a5,-32(s0)
.L118:
	.loc 1 936 7
	ld	a0,-56(s0)
	ld	a5,-72(s0)
	addi	a5,a5,-1
	ld	a3,-72(s0)
	addi	a4,s0,-72
	ld	a2,-32(s0)
	mv	a1,a5
	call	UnicodeStrnToAsciiStrS@plt
	.loc 1 937 7
	ld	a5,-112(s0)
	lbu	a4,0(a5)
	.loc 1 937 18
	ld	a5,-72(s0)
	andi	a5,a5,0xff
	.loc 1 937 15
	addw	a5,a4,a5
	andi	a4,a5,0xff
	ld	a5,-112(s0)
	sb	a4,0(a5)
	.loc 1 938 14
	li	a5,0
	j	.L120
.L115:
	.loc 1 942 10
	li	a5,-1
	slli	a5,a5,63
	addi	a5,a5,3
.L120:
	.loc 1 943 1
	mv	a0,a5
	ld	ra,104(sp)
	.cfi_restore 1
	ld	s0,96(sp)
	.cfi_restore 8
	.cfi_def_cfa 2, 112
	addi	sp,sp,112
	.cfi_def_cfa_offset 0
	jr	ra
	.cfi_endproc
.LFE8:
	.size	GetDeviceInfoFromHandleAndUpdateLength, .-GetDeviceInfoFromHandleAndUpdateLength
	.section	.rodata
	.align	3
.LC13:
	.string	"unknown name"
	.section	.text.InsertFpdtRecord,"ax",@progbits
	.align	1
	.globl	InsertFpdtRecord
	.type	InsertFpdtRecord, @function
InsertFpdtRecord:
.LFB9:
	.loc 1 979 1
	.cfi_startproc
	addi	sp,sp,-176
	.cfi_def_cfa_offset 176
	sd	ra,168(sp)
	sd	s0,160(sp)
	.cfi_offset 1, -8
	.cfi_offset 8, -16
	addi	s0,sp,176
	.cfi_def_cfa 8, 0
	sd	a0,-136(s0)
	sd	a1,-144(s0)
	sd	a2,-152(s0)
	sd	a3,-160(s0)
	sd	a4,-168(s0)
	mv	a4,a6
	sh	a5,-170(s0)
	mv	a5,a4
	sw	a5,-176(s0)
	.loc 1 991 13
	sd	zero,-32(s0)
	.loc 1 992 14
	sh	zero,-114(s0)
	.loc 1 993 3
	addi	a5,s0,-96
	li	a1,24
	mv	a0,a5
	call	ZeroMem@plt
	.loc 1 999 6
	lw	a5,-176(s0)
	sext.w	a4,a5
	li	a5,2
	beq	a4,a5,.L122
	.loc 1 1009 8
	lhu	a5,-170(s0)
	sext.w	a5,a5
	beq	a5,zero,.L123
	.loc 1 1009 27 discriminator 1
	lhu	a5,-170(s0)
	sext.w	a5,a5
	mv	a0,a5
	call	IsKnownID
	mv	a5,a0
	.loc 1 1009 23 discriminator 2
	beq	a5,zero,.L123
	.loc 1 1009 52 discriminator 3
	ld	a0,-152(s0)
	call	IsKnownTokens
	mv	a5,a0
	.loc 1 1009 47 discriminator 4
	bne	a5,zero,.L123
	.loc 1 1010 14
	li	a5,-1
	slli	a5,a5,63
	addi	a5,a5,2
	j	.L182
.L123:
	.loc 1 1011 15
	lhu	a5,-170(s0)
	sext.w	a5,a5
	beq	a5,zero,.L125
	.loc 1 1011 35 discriminator 1
	lhu	a5,-170(s0)
	sext.w	a5,a5
	mv	a0,a5
	call	IsKnownID
	mv	a5,a0
	.loc 1 1011 30 discriminator 2
	bne	a5,zero,.L125
	.loc 1 1011 60 discriminator 3
	ld	a0,-152(s0)
	call	IsKnownTokens
	mv	a5,a0
	.loc 1 1011 55 discriminator 4
	bne	a5,zero,.L125
	.loc 1 1012 10
	lw	a5,-176(s0)
	sext.w	a5,a5
	bne	a5,zero,.L126
	.loc 1 1012 53 discriminator 1
	lhu	a5,-170(s0)
	sext.w	a5,a5
	andi	a5,a5,15
	sext.w	a5,a5
	.loc 1 1012 41 discriminator 1
	beq	a5,zero,.L126
	.loc 1 1013 16
	lhu	a5,-170(s0)
	andi	a5,a5,-16
	sh	a5,-170(s0)
	.loc 1 1012 10
	j	.L183
.L126:
	.loc 1 1014 17
	lw	a5,-176(s0)
	sext.w	a4,a5
	li	a5,1
	bne	a4,a5,.L183
	.loc 1 1014 58 discriminator 1
	lhu	a5,-170(s0)
	sext.w	a5,a5
	andi	a5,a5,15
	sext.w	a5,a5
	.loc 1 1014 46 discriminator 1
	bne	a5,zero,.L183
	.loc 1 1015 16
	lhu	a5,-170(s0)
	addiw	a5,a5,1
	sh	a5,-170(s0)
	.loc 1 1012 10
	j	.L183
.L125:
	.loc 1 1017 15
	lhu	a5,-170(s0)
	sext.w	a5,a5
	bne	a5,zero,.L122
	.loc 1 1021 16
	addi	a4,s0,-114
	lw	a5,-176(s0)
	mv	a3,a4
	ld	a2,-152(s0)
	ld	a1,-136(s0)
	mv	a0,a5
	call	GetFpdtRecordId
	sd	a0,-48(s0)
	.loc 1 1022 38
	ld	a5,-48(s0)
	.loc 1 1022 10
	bge	a5,zero,.L128
	.loc 1 1023 16
	ld	a5,-48(s0)
	j	.L182
.L128:
	.loc 1 1026 14
	lhu	a5,-114(s0)
	sh	a5,-170(s0)
	j	.L122
.L183:
	.loc 1 1012 10
	nop
.L122:
	.loc 1 1033 12
	addi	a5,s0,-104
	mv	a1,a5
	li	a0,255
	call	GetFpdtRecordPtr
	sd	a0,-48(s0)
	.loc 1 1034 34
	ld	a5,-48(s0)
	.loc 1 1034 6
	bge	a5,zero,.L129
	.loc 1 1035 12
	ld	a5,-48(s0)
	j	.L182
.L129:
	.loc 1 1041 6
	ld	a5,-160(s0)
	bne	a5,zero,.L130
	.loc 1 1042 14
	call	GetPerformanceCounter@plt
	sd	a0,-160(s0)
	.loc 1 1043 17
	ld	a0,-160(s0)
	call	GetTimeInNanoSecond@plt
	sd	a0,-24(s0)
	j	.L131
.L130:
	.loc 1 1044 13
	ld	a4,-160(s0)
	li	a5,1
	bne	a4,a5,.L132
	.loc 1 1045 15
	sd	zero,-24(s0)
	j	.L131
.L132:
	.loc 1 1047 17
	ld	a0,-160(s0)
	call	GetTimeInNanoSecond@plt
	sd	a0,-24(s0)
.L131:
	.loc 1 1053 3
	lhu	a5,-170(s0)
	sext.w	a5,a5
	li	a4,81
	bgt	a5,a4,.L133
	li	a4,80
	bge	a5,a4,.L134
	li	a4,65
	bgt	a5,a4,.L133
	li	a4,64
	bge	a5,a4,.L134
	li	a4,49
	bgt	a5,a4,.L133
	li	a4,48
	bge	a5,a4,.L134
	li	a4,33
	bgt	a5,a4,.L133
	li	a4,32
	bge	a5,a4,.L135
	li	a4,17
	bgt	a5,a4,.L133
	li	a4,16
	bge	a5,a4,.L135
	li	a4,10
	bgt	a5,a4,.L133
	li	a4,7
	bge	a5,a4,.L136
	li	a4,6
	beq	a5,a4,.L137
	li	a4,6
	bgt	a5,a4,.L133
	li	a4,5
	beq	a5,a4,.L136
	li	a4,5
	bgt	a5,a4,.L133
	li	a4,4
	bgt	a5,a4,.L133
	li	a4,3
	bge	a5,a4,.L138
	beq	a5,zero,.L134
	blt	a5,zero,.L133
	addiw	a5,a5,-1
	sext.w	a4,a5
	li	a5,1
	bgtu	a4,a5,.L133
	.loc 1 1056 7
	addi	a4,s0,-72
	addi	a5,s0,-96
	mv	a3,a4
	li	a2,24
	mv	a1,a5
	ld	a0,-136(s0)
	call	GetModuleInfoFromHandle
	.loc 1 1057 17
	addi	a5,s0,-96
	sd	a5,-32(s0)
	.loc 1 1061 10
	lw	a5,-176(s0)
	sext.w	a4,a5
	li	a5,2
	bne	a4,a5,.L139
	.loc 1 1061 36 discriminator 1
	lhu	a5,-170(s0)
	sext.w	a4,a5
	li	a5,1
	bne	a4,a5,.L139
	.loc 1 1062 13
	lla	a5,mFpdtBufferIsReported
	lbu	a5,0(a5)
	.loc 1 1062 12
	beq	a5,zero,.L140
	.loc 1 1063 25
	lla	a5,mBootRecordSize
	lw	a4,0(a5)
	lla	a5,mCachedLength
	sw	a4,0(a5)
	j	.L139
.L140:
	.loc 1 1065 25
	lla	a5,mPerformanceLength
	lw	a4,0(a5)
	lla	a5,mCachedLength
	sw	a4,0(a5)
.L139:
	.loc 1 1069 11
	la	a5,_gPcd_FixedAtBuild_PcdEdkiiFpdtStringRecordEnableOnly
	lbu	a5,0(a5)
	.loc 1 1069 10
	bne	a5,zero,.L184
	.loc 1 1070 22
	ld	a5,-104(s0)
	.loc 1 1070 46
	lbu	a4,0(a5)
	andi	a4,a4,0
	ori	a4,a4,16
	sb	a4,0(a5)
	lbu	a4,1(a5)
	andi	a4,a4,0
	ori	a4,a4,16
	sb	a4,1(a5)
	.loc 1 1071 22
	ld	a5,-104(s0)
	.loc 1 1071 48
	li	a4,34
	sb	a4,2(a5)
	.loc 1 1072 22
	ld	a5,-104(s0)
	.loc 1 1072 50
	li	a4,1
	sb	a4,3(a5)
	.loc 1 1073 22
	ld	a5,-104(s0)
	.loc 1 1073 45
	lhu	a4,-170(s0)
	andi	a4,a4,255
	lbu	a3,4(a5)
	andi	a3,a3,0
	or	a4,a3,a4
	sb	a4,4(a5)
	lhu	a4,-170(s0)
	srliw	a4,a4,8
	slli	a4,a4,48
	srli	a4,a4,48
	lbu	a3,5(a5)
	andi	a3,a3,0
	or	a4,a3,a4
	sb	a4,5(a5)
	.loc 1 1074 22
	ld	a5,-104(s0)
	.loc 1 1074 44
	ld	a4,-24(s0)
	andi	a4,a4,255
	lbu	a3,10(a5)
	andi	a3,a3,0
	or	a4,a3,a4
	sb	a4,10(a5)
	ld	a4,-24(s0)
	srli	a4,a4,8
	andi	a4,a4,255
	lbu	a3,11(a5)
	andi	a3,a3,0
	or	a4,a3,a4
	sb	a4,11(a5)
	ld	a4,-24(s0)
	srli	a4,a4,16
	andi	a4,a4,255
	lbu	a3,12(a5)
	andi	a3,a3,0
	or	a4,a3,a4
	sb	a4,12(a5)
	ld	a4,-24(s0)
	srli	a4,a4,24
	andi	a4,a4,255
	lbu	a3,13(a5)
	andi	a3,a3,0
	or	a4,a3,a4
	sb	a4,13(a5)
	ld	a4,-24(s0)
	srli	a4,a4,32
	andi	a4,a4,255
	lbu	a3,14(a5)
	andi	a3,a3,0
	or	a4,a3,a4
	sb	a4,14(a5)
	ld	a4,-24(s0)
	srli	a4,a4,40
	andi	a4,a4,255
	lbu	a3,15(a5)
	andi	a3,a3,0
	or	a4,a3,a4
	sb	a4,15(a5)
	ld	a4,-24(s0)
	srli	a4,a4,48
	andi	a4,a4,255
	lbu	a3,16(a5)
	andi	a3,a3,0
	or	a4,a3,a4
	sb	a4,16(a5)
	ld	a4,-24(s0)
	srli	a4,a4,56
	lbu	a3,17(a5)
	andi	a3,a3,0
	or	a4,a3,a4
	sb	a4,17(a5)
	.loc 1 1075 32
	ld	a5,-104(s0)
	.loc 1 1075 18
	addi	a5,a5,18
	.loc 1 1075 9
	addi	a4,s0,-72
	li	a2,16
	mv	a1,a4
	mv	a0,a5
	call	CopyMem@plt
	.loc 1 1076 12
	ld	a5,-136(s0)
	bne	a5,zero,.L184
	.loc 1 1076 48 discriminator 1
	lhu	a5,-170(s0)
	sext.w	a4,a5
	li	a5,2
	bne	a4,a5,.L184
	.loc 1 1076 86 discriminator 2
	lla	a5,mCachedLength
	lw	a5,0(a5)
	.loc 1 1076 68 discriminator 2
	beq	a5,zero,.L184
	.loc 1 1077 15
	lla	a5,mFpdtBufferIsReported
	lbu	a5,0(a5)
	.loc 1 1077 14
	beq	a5,zero,.L142
	.loc 1 1078 114
	lla	a5,mBootRecordBuffer
	ld	a4,0(a5)
	lla	a5,mCachedLength
	lw	a5,0(a5)
	slli	a5,a5,32
	srli	a5,a5,32
	add	a5,a4,a5
	.loc 1 1078 46
	sd	a5,-112(s0)
	j	.L143
.L142:
	.loc 1 1080 116
	lla	a5,mPerformancePointer
	ld	a4,0(a5)
	lla	a5,mCachedLength
	lw	a5,0(a5)
	slli	a5,a5,32
	srli	a5,a5,32
	add	a5,a4,a5
	.loc 1 1080 46
	sd	a5,-112(s0)
.L143:
	.loc 1 1083 34
	ld	a5,-104(s0)
	.loc 1 1083 20
	addi	a4,a5,18
	.loc 1 1083 72
	ld	a5,-112(s0)
	.loc 1 1083 52
	addi	a5,a5,18
	.loc 1 1083 11
	li	a2,16
	mv	a1,a5
	mv	a0,a4
	call	CopyMem@plt
	.loc 1 1084 25
	lla	a5,mCachedLength
	sw	zero,0(a5)
	.loc 1 1088 7
	j	.L184
.L138:
	.loc 1 1092 7
	addi	a4,s0,-72
	addi	a5,s0,-96
	mv	a3,a4
	li	a2,24
	mv	a1,a5
	ld	a0,-136(s0)
	call	GetModuleInfoFromHandle
	.loc 1 1093 17
	addi	a5,s0,-96
	sd	a5,-32(s0)
	.loc 1 1094 10
	lhu	a5,-170(s0)
	sext.w	a4,a5
	li	a5,3
	bne	a4,a5,.L145
	.loc 1 1095 24
	lla	a5,mLoadImageCount
	lw	a5,0(a5)
	addiw	a5,a5,1
	sext.w	a4,a5
	lla	a5,mLoadImageCount
	sw	a4,0(a5)
	.loc 1 1099 12
	ld	a5,-136(s0)
	bne	a5,zero,.L145
	.loc 1 1099 48 discriminator 1
	lw	a5,-176(s0)
	sext.w	a4,a5
	li	a5,2
	bne	a4,a5,.L145
	.loc 1 1100 15
	lla	a5,mFpdtBufferIsReported
	lbu	a5,0(a5)
	.loc 1 1100 14
	beq	a5,zero,.L146
	.loc 1 1101 27
	lla	a5,mBootRecordSize
	lw	a4,0(a5)
	lla	a5,mCachedLength
	sw	a4,0(a5)
	j	.L145
.L146:
	.loc 1 1103 27
	lla	a5,mPerformanceLength
	lw	a4,0(a5)
	lla	a5,mCachedLength
	sw	a4,0(a5)
.L145:
	.loc 1 1108 11
	la	a5,_gPcd_FixedAtBuild_PcdEdkiiFpdtStringRecordEnableOnly
	lbu	a5,0(a5)
	.loc 1 1108 10
	bne	a5,zero,.L185
	.loc 1 1109 22
	ld	a5,-104(s0)
	.loc 1 1109 51
	lbu	a4,0(a5)
	andi	a4,a4,0
	ori	a4,a4,19
	sb	a4,0(a5)
	lbu	a4,1(a5)
	andi	a4,a4,0
	ori	a4,a4,16
	sb	a4,1(a5)
	.loc 1 1110 22
	ld	a5,-104(s0)
	.loc 1 1110 53
	li	a4,42
	sb	a4,2(a5)
	.loc 1 1111 22
	ld	a5,-104(s0)
	.loc 1 1111 55
	li	a4,1
	sb	a4,3(a5)
	.loc 1 1112 22
	ld	a5,-104(s0)
	.loc 1 1112 50
	lhu	a4,-170(s0)
	andi	a4,a4,255
	lbu	a3,4(a5)
	andi	a3,a3,0
	or	a4,a3,a4
	sb	a4,4(a5)
	lhu	a4,-170(s0)
	srliw	a4,a4,8
	slli	a4,a4,48
	srli	a4,a4,48
	lbu	a3,5(a5)
	andi	a3,a3,0
	or	a4,a3,a4
	sb	a4,5(a5)
	.loc 1 1113 22
	ld	a5,-104(s0)
	.loc 1 1113 49
	ld	a4,-24(s0)
	andi	a4,a4,255
	lbu	a3,10(a5)
	andi	a3,a3,0
	or	a4,a3,a4
	sb	a4,10(a5)
	ld	a4,-24(s0)
	srli	a4,a4,8
	andi	a4,a4,255
	lbu	a3,11(a5)
	andi	a3,a3,0
	or	a4,a3,a4
	sb	a4,11(a5)
	ld	a4,-24(s0)
	srli	a4,a4,16
	andi	a4,a4,255
	lbu	a3,12(a5)
	andi	a3,a3,0
	or	a4,a3,a4
	sb	a4,12(a5)
	ld	a4,-24(s0)
	srli	a4,a4,24
	andi	a4,a4,255
	lbu	a3,13(a5)
	andi	a3,a3,0
	or	a4,a3,a4
	sb	a4,13(a5)
	ld	a4,-24(s0)
	srli	a4,a4,32
	andi	a4,a4,255
	lbu	a3,14(a5)
	andi	a3,a3,0
	or	a4,a3,a4
	sb	a4,14(a5)
	ld	a4,-24(s0)
	srli	a4,a4,40
	andi	a4,a4,255
	lbu	a3,15(a5)
	andi	a3,a3,0
	or	a4,a3,a4
	sb	a4,15(a5)
	ld	a4,-24(s0)
	srli	a4,a4,48
	andi	a4,a4,255
	lbu	a3,16(a5)
	andi	a3,a3,0
	or	a4,a3,a4
	sb	a4,16(a5)
	ld	a4,-24(s0)
	srli	a4,a4,56
	lbu	a3,17(a5)
	andi	a3,a3,0
	or	a4,a3,a4
	sb	a4,17(a5)
	.loc 1 1114 45
	lla	a5,mLoadImageCount
	lw	a4,0(a5)
	.loc 1 1114 22
	ld	a5,-104(s0)
	.loc 1 1114 45
	slli	a4,a4,32
	srli	a4,a4,32
	andi	a3,a4,255
	lbu	a2,34(a5)
	andi	a2,a2,0
	or	a3,a2,a3
	sb	a3,34(a5)
	srli	a3,a4,8
	andi	a3,a3,255
	lbu	a2,35(a5)
	andi	a2,a2,0
	or	a3,a2,a3
	sb	a3,35(a5)
	srli	a3,a4,16
	andi	a3,a3,255
	lbu	a2,36(a5)
	andi	a2,a2,0
	or	a3,a2,a3
	sb	a3,36(a5)
	srli	a3,a4,24
	andi	a3,a3,255
	lbu	a2,37(a5)
	andi	a2,a2,0
	or	a3,a2,a3
	sb	a3,37(a5)
	srli	a3,a4,32
	andi	a3,a3,255
	lbu	a2,38(a5)
	andi	a2,a2,0
	or	a3,a2,a3
	sb	a3,38(a5)
	srli	a3,a4,40
	andi	a3,a3,255
	lbu	a2,39(a5)
	andi	a2,a2,0
	or	a3,a2,a3
	sb	a3,39(a5)
	srli	a3,a4,48
	andi	a3,a3,255
	lbu	a2,40(a5)
	andi	a2,a2,0
	or	a3,a2,a3
	sb	a3,40(a5)
	srli	a4,a4,56
	lbu	a3,41(a5)
	andi	a3,a3,0
	or	a4,a3,a4
	sb	a4,41(a5)
	.loc 1 1115 32
	ld	a5,-104(s0)
	.loc 1 1115 18
	addi	a5,a5,18
	.loc 1 1115 9
	addi	a4,s0,-72
	li	a2,16
	mv	a1,a4
	mv	a0,a5
	call	CopyMem@plt
	.loc 1 1116 12
	lhu	a5,-170(s0)
	sext.w	a4,a5
	li	a5,4
	bne	a4,a5,.L185
	.loc 1 1116 48 discriminator 1
	lla	a5,mCachedLength
	lw	a5,0(a5)
	.loc 1 1116 30 discriminator 1
	beq	a5,zero,.L185
	.loc 1 1117 15
	lla	a5,mFpdtBufferIsReported
	lbu	a5,0(a5)
	.loc 1 1117 14
	beq	a5,zero,.L148
	.loc 1 1118 114
	lla	a5,mBootRecordBuffer
	ld	a4,0(a5)
	lla	a5,mCachedLength
	lw	a5,0(a5)
	slli	a5,a5,32
	srli	a5,a5,32
	add	a5,a4,a5
	.loc 1 1118 46
	sd	a5,-112(s0)
	j	.L149
.L148:
	.loc 1 1120 116
	lla	a5,mPerformancePointer
	ld	a4,0(a5)
	lla	a5,mCachedLength
	lw	a5,0(a5)
	slli	a5,a5,32
	srli	a5,a5,32
	add	a5,a4,a5
	.loc 1 1120 46
	sd	a5,-112(s0)
.L149:
	.loc 1 1123 40
	ld	a5,-112(s0)
	.loc 1 1123 20
	addi	a5,a5,18
	.loc 1 1123 11
	addi	a4,s0,-72
	li	a2,16
	mv	a1,a4
	mv	a0,a5
	call	CopyMem@plt
	.loc 1 1124 25
	lla	a5,mCachedLength
	sw	zero,0(a5)
	.loc 1 1128 7
	j	.L185
.L136:
	.loc 1 1135 7
	addi	a4,s0,-72
	addi	a5,s0,-96
	mv	a3,a4
	li	a2,24
	mv	a1,a5
	ld	a0,-136(s0)
	call	GetModuleInfoFromHandle
	.loc 1 1136 17
	addi	a5,s0,-96
	sd	a5,-32(s0)
	.loc 1 1137 11
	la	a5,_gPcd_FixedAtBuild_PcdEdkiiFpdtStringRecordEnableOnly
	lbu	a5,0(a5)
	.loc 1 1137 10
	bne	a5,zero,.L186
	.loc 1 1138 22
	ld	a5,-104(s0)
	.loc 1 1138 51
	lbu	a4,0(a5)
	andi	a4,a4,0
	ori	a4,a4,19
	sb	a4,0(a5)
	lbu	a4,1(a5)
	andi	a4,a4,0
	ori	a4,a4,16
	sb	a4,1(a5)
	.loc 1 1139 22
	ld	a5,-104(s0)
	.loc 1 1139 53
	li	a4,42
	sb	a4,2(a5)
	.loc 1 1140 22
	ld	a5,-104(s0)
	.loc 1 1140 55
	li	a4,1
	sb	a4,3(a5)
	.loc 1 1141 22
	ld	a5,-104(s0)
	.loc 1 1141 50
	lhu	a4,-170(s0)
	andi	a4,a4,255
	lbu	a3,4(a5)
	andi	a3,a3,0
	or	a4,a3,a4
	sb	a4,4(a5)
	lhu	a4,-170(s0)
	srliw	a4,a4,8
	slli	a4,a4,48
	srli	a4,a4,48
	lbu	a3,5(a5)
	andi	a3,a3,0
	or	a4,a3,a4
	sb	a4,5(a5)
	.loc 1 1142 22
	ld	a5,-104(s0)
	.loc 1 1142 49
	ld	a4,-24(s0)
	andi	a4,a4,255
	lbu	a3,10(a5)
	andi	a3,a3,0
	or	a4,a3,a4
	sb	a4,10(a5)
	ld	a4,-24(s0)
	srli	a4,a4,8
	andi	a4,a4,255
	lbu	a3,11(a5)
	andi	a3,a3,0
	or	a4,a3,a4
	sb	a4,11(a5)
	ld	a4,-24(s0)
	srli	a4,a4,16
	andi	a4,a4,255
	lbu	a3,12(a5)
	andi	a3,a3,0
	or	a4,a3,a4
	sb	a4,12(a5)
	ld	a4,-24(s0)
	srli	a4,a4,24
	andi	a4,a4,255
	lbu	a3,13(a5)
	andi	a3,a3,0
	or	a4,a3,a4
	sb	a4,13(a5)
	ld	a4,-24(s0)
	srli	a4,a4,32
	andi	a4,a4,255
	lbu	a3,14(a5)
	andi	a3,a3,0
	or	a4,a3,a4
	sb	a4,14(a5)
	ld	a4,-24(s0)
	srli	a4,a4,40
	andi	a4,a4,255
	lbu	a3,15(a5)
	andi	a3,a3,0
	or	a4,a3,a4
	sb	a4,15(a5)
	ld	a4,-24(s0)
	srli	a4,a4,48
	andi	a4,a4,255
	lbu	a3,16(a5)
	andi	a3,a3,0
	or	a4,a3,a4
	sb	a4,16(a5)
	ld	a4,-24(s0)
	srli	a4,a4,56
	lbu	a3,17(a5)
	andi	a3,a3,0
	or	a4,a3,a4
	sb	a4,17(a5)
	.loc 1 1143 22
	ld	a5,-104(s0)
	.loc 1 1143 45
	ld	a4,-168(s0)
	andi	a4,a4,255
	lbu	a3,34(a5)
	andi	a3,a3,0
	or	a4,a3,a4
	sb	a4,34(a5)
	ld	a4,-168(s0)
	srli	a4,a4,8
	andi	a4,a4,255
	lbu	a3,35(a5)
	andi	a3,a3,0
	or	a4,a3,a4
	sb	a4,35(a5)
	ld	a4,-168(s0)
	srli	a4,a4,16
	andi	a4,a4,255
	lbu	a3,36(a5)
	andi	a3,a3,0
	or	a4,a3,a4
	sb	a4,36(a5)
	ld	a4,-168(s0)
	srli	a4,a4,24
	andi	a4,a4,255
	lbu	a3,37(a5)
	andi	a3,a3,0
	or	a4,a3,a4
	sb	a4,37(a5)
	ld	a4,-168(s0)
	srli	a4,a4,32
	andi	a4,a4,255
	lbu	a3,38(a5)
	andi	a3,a3,0
	or	a4,a3,a4
	sb	a4,38(a5)
	ld	a4,-168(s0)
	srli	a4,a4,40
	andi	a4,a4,255
	lbu	a3,39(a5)
	andi	a3,a3,0
	or	a4,a3,a4
	sb	a4,39(a5)
	ld	a4,-168(s0)
	srli	a4,a4,48
	andi	a4,a4,255
	lbu	a3,40(a5)
	andi	a3,a3,0
	or	a4,a3,a4
	sb	a4,40(a5)
	ld	a4,-168(s0)
	srli	a4,a4,56
	lbu	a3,41(a5)
	andi	a3,a3,0
	or	a4,a3,a4
	sb	a4,41(a5)
	.loc 1 1144 32
	ld	a5,-104(s0)
	.loc 1 1144 18
	addi	a5,a5,18
	.loc 1 1144 9
	addi	a4,s0,-72
	li	a2,16
	mv	a1,a4
	mv	a0,a5
	call	CopyMem@plt
	.loc 1 1147 7
	j	.L186
.L137:
	.loc 1 1150 7
	addi	a4,s0,-72
	addi	a5,s0,-96
	mv	a3,a4
	li	a2,24
	mv	a1,a5
	ld	a0,-136(s0)
	call	GetModuleInfoFromHandle
	.loc 1 1151 17
	addi	a5,s0,-96
	sd	a5,-32(s0)
	.loc 1 1152 11
	la	a5,_gPcd_FixedAtBuild_PcdEdkiiFpdtStringRecordEnableOnly
	lbu	a5,0(a5)
	.loc 1 1152 10
	bne	a5,zero,.L187
	.loc 1 1153 22
	ld	a5,-104(s0)
	.loc 1 1153 57
	lbu	a4,0(a5)
	andi	a4,a4,0
	ori	a4,a4,20
	sb	a4,0(a5)
	lbu	a4,1(a5)
	andi	a4,a4,0
	ori	a4,a4,16
	sb	a4,1(a5)
	.loc 1 1154 22
	ld	a5,-104(s0)
	.loc 1 1154 59
	li	a4,42
	sb	a4,2(a5)
	.loc 1 1155 22
	ld	a5,-104(s0)
	.loc 1 1155 61
	li	a4,1
	sb	a4,3(a5)
	.loc 1 1156 22
	ld	a5,-104(s0)
	.loc 1 1156 56
	lhu	a4,-170(s0)
	andi	a4,a4,255
	lbu	a3,4(a5)
	andi	a3,a3,0
	or	a4,a3,a4
	sb	a4,4(a5)
	lhu	a4,-170(s0)
	srliw	a4,a4,8
	slli	a4,a4,48
	srli	a4,a4,48
	lbu	a3,5(a5)
	andi	a3,a3,0
	or	a4,a3,a4
	sb	a4,5(a5)
	.loc 1 1157 22
	ld	a5,-104(s0)
	.loc 1 1157 55
	ld	a4,-24(s0)
	andi	a4,a4,255
	lbu	a3,10(a5)
	andi	a3,a3,0
	or	a4,a3,a4
	sb	a4,10(a5)
	ld	a4,-24(s0)
	srli	a4,a4,8
	andi	a4,a4,255
	lbu	a3,11(a5)
	andi	a3,a3,0
	or	a4,a3,a4
	sb	a4,11(a5)
	ld	a4,-24(s0)
	srli	a4,a4,16
	andi	a4,a4,255
	lbu	a3,12(a5)
	andi	a3,a3,0
	or	a4,a3,a4
	sb	a4,12(a5)
	ld	a4,-24(s0)
	srli	a4,a4,24
	andi	a4,a4,255
	lbu	a3,13(a5)
	andi	a3,a3,0
	or	a4,a3,a4
	sb	a4,13(a5)
	ld	a4,-24(s0)
	srli	a4,a4,32
	andi	a4,a4,255
	lbu	a3,14(a5)
	andi	a3,a3,0
	or	a4,a3,a4
	sb	a4,14(a5)
	ld	a4,-24(s0)
	srli	a4,a4,40
	andi	a4,a4,255
	lbu	a3,15(a5)
	andi	a3,a3,0
	or	a4,a3,a4
	sb	a4,15(a5)
	ld	a4,-24(s0)
	srli	a4,a4,48
	andi	a4,a4,255
	lbu	a3,16(a5)
	andi	a3,a3,0
	or	a4,a3,a4
	sb	a4,16(a5)
	ld	a4,-24(s0)
	srli	a4,a4,56
	lbu	a3,17(a5)
	andi	a3,a3,0
	or	a4,a3,a4
	sb	a4,17(a5)
	.loc 1 1158 22
	ld	a5,-104(s0)
	.loc 1 1158 51
	ld	a4,-168(s0)
	andi	a4,a4,255
	lbu	a3,34(a5)
	andi	a3,a3,0
	or	a4,a3,a4
	sb	a4,34(a5)
	ld	a4,-168(s0)
	srli	a4,a4,8
	andi	a4,a4,255
	lbu	a3,35(a5)
	andi	a3,a3,0
	or	a4,a3,a4
	sb	a4,35(a5)
	ld	a4,-168(s0)
	srli	a4,a4,16
	andi	a4,a4,255
	lbu	a3,36(a5)
	andi	a3,a3,0
	or	a4,a3,a4
	sb	a4,36(a5)
	ld	a4,-168(s0)
	srli	a4,a4,24
	andi	a4,a4,255
	lbu	a3,37(a5)
	andi	a3,a3,0
	or	a4,a3,a4
	sb	a4,37(a5)
	ld	a4,-168(s0)
	srli	a4,a4,32
	andi	a4,a4,255
	lbu	a3,38(a5)
	andi	a3,a3,0
	or	a4,a3,a4
	sb	a4,38(a5)
	ld	a4,-168(s0)
	srli	a4,a4,40
	andi	a4,a4,255
	lbu	a3,39(a5)
	andi	a3,a3,0
	or	a4,a3,a4
	sb	a4,39(a5)
	ld	a4,-168(s0)
	srli	a4,a4,48
	andi	a4,a4,255
	lbu	a3,40(a5)
	andi	a3,a3,0
	or	a4,a3,a4
	sb	a4,40(a5)
	ld	a4,-168(s0)
	srli	a4,a4,56
	lbu	a3,41(a5)
	andi	a3,a3,0
	or	a4,a3,a4
	sb	a4,41(a5)
	.loc 1 1159 32
	ld	a5,-104(s0)
	.loc 1 1159 18
	addi	a5,a5,18
	.loc 1 1159 9
	addi	a4,s0,-72
	li	a2,16
	mv	a1,a4
	mv	a0,a5
	call	CopyMem@plt
	.loc 1 1160 12
	ld	a5,-168(s0)
	beq	a5,zero,.L187
	.loc 1 1161 11
	ld	a4,-168(s0)
	.loc 1 1161 110
	ld	a5,-104(s0)
	.loc 1 1161 131
	addi	a2,a5,42
	.loc 1 1161 155
	ld	a5,-104(s0)
	.loc 1 1161 11
	addi	a5,a5,2
	mv	a3,a5
	mv	a1,a4
	ld	a0,-136(s0)
	call	GetDeviceInfoFromHandleAndUpdateLength
	.loc 1 1165 7
	j	.L187
.L135:
	.loc 1 1171 10
	ld	a5,-152(s0)
	beq	a5,zero,.L152
	.loc 1 1171 36 discriminator 1
	ld	a5,-144(s0)
	bne	a5,zero,.L153
.L152:
	.loc 1 1172 16
	li	a5,-1
	slli	a5,a5,63
	addi	a5,a5,2
	j	.L182
.L153:
	.loc 1 1175 17
	ld	a5,-152(s0)
	sd	a5,-32(s0)
	.loc 1 1176 11
	ld	a0,-152(s0)
	call	AsciiStrLen@plt
	mv	a5,a0
	.loc 1 1176 10 discriminator 1
	bne	a5,zero,.L154
	.loc 1 1177 19
	lla	a5,.LC13
	sd	a5,-32(s0)
.L154:
	.loc 1 1180 11
	la	a5,_gPcd_FixedAtBuild_PcdEdkiiFpdtStringRecordEnableOnly
	lbu	a5,0(a5)
	.loc 1 1180 10
	bne	a5,zero,.L188
	.loc 1 1181 22
	ld	a5,-104(s0)
	.loc 1 1181 56
	lbu	a4,0(a5)
	andi	a4,a4,0
	ori	a4,a4,18
	sb	a4,0(a5)
	lbu	a4,1(a5)
	andi	a4,a4,0
	ori	a4,a4,16
	sb	a4,1(a5)
	.loc 1 1182 22
	ld	a5,-104(s0)
	.loc 1 1182 58
	li	a4,50
	sb	a4,2(a5)
	.loc 1 1183 22
	ld	a5,-104(s0)
	.loc 1 1183 60
	li	a4,1
	sb	a4,3(a5)
	.loc 1 1184 22
	ld	a5,-104(s0)
	.loc 1 1184 55
	lhu	a4,-170(s0)
	andi	a4,a4,255
	lbu	a3,4(a5)
	andi	a3,a3,0
	or	a4,a3,a4
	sb	a4,4(a5)
	lhu	a4,-170(s0)
	srliw	a4,a4,8
	slli	a4,a4,48
	srli	a4,a4,48
	lbu	a3,5(a5)
	andi	a3,a3,0
	or	a4,a3,a4
	sb	a4,5(a5)
	.loc 1 1185 22
	ld	a5,-104(s0)
	.loc 1 1185 54
	ld	a4,-24(s0)
	andi	a4,a4,255
	lbu	a3,10(a5)
	andi	a3,a3,0
	or	a4,a3,a4
	sb	a4,10(a5)
	ld	a4,-24(s0)
	srli	a4,a4,8
	andi	a4,a4,255
	lbu	a3,11(a5)
	andi	a3,a3,0
	or	a4,a3,a4
	sb	a4,11(a5)
	ld	a4,-24(s0)
	srli	a4,a4,16
	andi	a4,a4,255
	lbu	a3,12(a5)
	andi	a3,a3,0
	or	a4,a3,a4
	sb	a4,12(a5)
	ld	a4,-24(s0)
	srli	a4,a4,24
	andi	a4,a4,255
	lbu	a3,13(a5)
	andi	a3,a3,0
	or	a4,a3,a4
	sb	a4,13(a5)
	ld	a4,-24(s0)
	srli	a4,a4,32
	andi	a4,a4,255
	lbu	a3,14(a5)
	andi	a3,a3,0
	or	a4,a3,a4
	sb	a4,14(a5)
	ld	a4,-24(s0)
	srli	a4,a4,40
	andi	a4,a4,255
	lbu	a3,15(a5)
	andi	a3,a3,0
	or	a4,a3,a4
	sb	a4,15(a5)
	ld	a4,-24(s0)
	srli	a4,a4,48
	andi	a4,a4,255
	lbu	a3,16(a5)
	andi	a3,a3,0
	or	a4,a3,a4
	sb	a4,16(a5)
	ld	a4,-24(s0)
	srli	a4,a4,56
	lbu	a3,17(a5)
	andi	a3,a3,0
	or	a4,a3,a4
	sb	a4,17(a5)
	.loc 1 1186 32
	ld	a5,-104(s0)
	.loc 1 1186 18
	addi	a5,a5,18
	.loc 1 1186 9
	li	a2,16
	ld	a1,-136(s0)
	mv	a0,a5
	call	CopyMem@plt
	.loc 1 1187 32
	ld	a5,-104(s0)
	.loc 1 1187 18
	addi	a5,a5,34
	.loc 1 1187 9
	li	a2,16
	ld	a1,-144(s0)
	mv	a0,a5
	call	CopyMem@plt
	.loc 1 1188 63
	ld	a5,-104(s0)
	.loc 1 1188 83
	addi	a4,a5,50
	.loc 1 1188 118
	ld	a5,-104(s0)
	.loc 1 1188 9
	addi	a5,a5,2
	mv	a2,a5
	ld	a1,-32(s0)
	mv	a0,a4
	call	CopyStringIntoPerfRecordAndUpdateLength
	.loc 1 1191 7
	j	.L188
.L134:
	.loc 1 1200 7
	addi	a4,s0,-72
	addi	a5,s0,-96
	mv	a3,a4
	li	a2,24
	mv	a1,a5
	ld	a0,-136(s0)
	call	GetModuleInfoFromHandle
	.loc 1 1201 10
	ld	a5,-152(s0)
	beq	a5,zero,.L156
	.loc 1 1202 19
	ld	a5,-152(s0)
	sd	a5,-32(s0)
	j	.L157
.L156:
	.loc 1 1204 19
	addi	a5,s0,-96
	sd	a5,-32(s0)
.L157:
	.loc 1 1207 11
	ld	a0,-32(s0)
	call	AsciiStrLen@plt
	mv	a5,a0
	.loc 1 1207 10 discriminator 1
	bne	a5,zero,.L158
	.loc 1 1208 19
	lla	a5,.LC13
	sd	a5,-32(s0)
.L158:
	.loc 1 1211 11
	la	a5,_gPcd_FixedAtBuild_PcdEdkiiFpdtStringRecordEnableOnly
	lbu	a5,0(a5)
	.loc 1 1211 10
	bne	a5,zero,.L189
	.loc 1 1212 22
	ld	a5,-104(s0)
	.loc 1 1212 55
	lbu	a4,0(a5)
	andi	a4,a4,0
	ori	a4,a4,17
	sb	a4,0(a5)
	lbu	a4,1(a5)
	andi	a4,a4,0
	ori	a4,a4,16
	sb	a4,1(a5)
	.loc 1 1213 22
	ld	a5,-104(s0)
	.loc 1 1213 57
	li	a4,34
	sb	a4,2(a5)
	.loc 1 1214 22
	ld	a5,-104(s0)
	.loc 1 1214 59
	li	a4,1
	sb	a4,3(a5)
	.loc 1 1215 22
	ld	a5,-104(s0)
	.loc 1 1215 54
	lhu	a4,-170(s0)
	andi	a4,a4,255
	lbu	a3,4(a5)
	andi	a3,a3,0
	or	a4,a3,a4
	sb	a4,4(a5)
	lhu	a4,-170(s0)
	srliw	a4,a4,8
	slli	a4,a4,48
	srli	a4,a4,48
	lbu	a3,5(a5)
	andi	a3,a3,0
	or	a4,a3,a4
	sb	a4,5(a5)
	.loc 1 1216 22
	ld	a5,-104(s0)
	.loc 1 1216 53
	ld	a4,-24(s0)
	andi	a4,a4,255
	lbu	a3,10(a5)
	andi	a3,a3,0
	or	a4,a3,a4
	sb	a4,10(a5)
	ld	a4,-24(s0)
	srli	a4,a4,8
	andi	a4,a4,255
	lbu	a3,11(a5)
	andi	a3,a3,0
	or	a4,a3,a4
	sb	a4,11(a5)
	ld	a4,-24(s0)
	srli	a4,a4,16
	andi	a4,a4,255
	lbu	a3,12(a5)
	andi	a3,a3,0
	or	a4,a3,a4
	sb	a4,12(a5)
	ld	a4,-24(s0)
	srli	a4,a4,24
	andi	a4,a4,255
	lbu	a3,13(a5)
	andi	a3,a3,0
	or	a4,a3,a4
	sb	a4,13(a5)
	ld	a4,-24(s0)
	srli	a4,a4,32
	andi	a4,a4,255
	lbu	a3,14(a5)
	andi	a3,a3,0
	or	a4,a3,a4
	sb	a4,14(a5)
	ld	a4,-24(s0)
	srli	a4,a4,40
	andi	a4,a4,255
	lbu	a3,15(a5)
	andi	a3,a3,0
	or	a4,a3,a4
	sb	a4,15(a5)
	ld	a4,-24(s0)
	srli	a4,a4,48
	andi	a4,a4,255
	lbu	a3,16(a5)
	andi	a3,a3,0
	or	a4,a3,a4
	sb	a4,16(a5)
	ld	a4,-24(s0)
	srli	a4,a4,56
	lbu	a3,17(a5)
	andi	a3,a3,0
	or	a4,a3,a4
	sb	a4,17(a5)
	.loc 1 1217 32
	ld	a5,-104(s0)
	.loc 1 1217 18
	addi	a5,a5,18
	.loc 1 1217 9
	addi	a4,s0,-72
	li	a2,16
	mv	a1,a4
	mv	a0,a5
	call	CopyMem@plt
	.loc 1 1218 63
	ld	a5,-104(s0)
	.loc 1 1218 82
	addi	a4,a5,34
	.loc 1 1218 117
	ld	a5,-104(s0)
	.loc 1 1218 9
	addi	a5,a5,2
	mv	a2,a5
	ld	a1,-32(s0)
	mv	a0,a4
	call	CopyStringIntoPerfRecordAndUpdateLength
	.loc 1 1221 7
	j	.L189
.L133:
	.loc 1 1224 10
	lw	a5,-176(s0)
	sext.w	a4,a5
	li	a5,2
	beq	a4,a5,.L160
	.loc 1 1225 9
	addi	a4,s0,-72
	addi	a5,s0,-96
	mv	a3,a4
	li	a2,24
	mv	a1,a5
	ld	a0,-136(s0)
	call	GetModuleInfoFromHandle
	.loc 1 1226 12
	ld	a5,-152(s0)
	beq	a5,zero,.L161
	.loc 1 1227 21
	ld	a5,-152(s0)
	sd	a5,-32(s0)
	j	.L162
.L161:
	.loc 1 1229 21
	addi	a5,s0,-96
	sd	a5,-32(s0)
.L162:
	.loc 1 1232 13
	ld	a0,-32(s0)
	call	AsciiStrLen@plt
	mv	a5,a0
	.loc 1 1232 12 discriminator 1
	bne	a5,zero,.L163
	.loc 1 1233 21
	lla	a5,.LC13
	sd	a5,-32(s0)
.L163:
	.loc 1 1236 13
	la	a5,_gPcd_FixedAtBuild_PcdEdkiiFpdtStringRecordEnableOnly
	lbu	a5,0(a5)
	.loc 1 1236 12
	bne	a5,zero,.L190
	.loc 1 1237 24
	ld	a5,-104(s0)
	.loc 1 1237 57
	lbu	a4,0(a5)
	andi	a4,a4,0
	ori	a4,a4,17
	sb	a4,0(a5)
	lbu	a4,1(a5)
	andi	a4,a4,0
	ori	a4,a4,16
	sb	a4,1(a5)
	.loc 1 1238 24
	ld	a5,-104(s0)
	.loc 1 1238 59
	li	a4,34
	sb	a4,2(a5)
	.loc 1 1239 24
	ld	a5,-104(s0)
	.loc 1 1239 61
	li	a4,1
	sb	a4,3(a5)
	.loc 1 1240 24
	ld	a5,-104(s0)
	.loc 1 1240 56
	lhu	a4,-170(s0)
	andi	a4,a4,255
	lbu	a3,4(a5)
	andi	a3,a3,0
	or	a4,a3,a4
	sb	a4,4(a5)
	lhu	a4,-170(s0)
	srliw	a4,a4,8
	slli	a4,a4,48
	srli	a4,a4,48
	lbu	a3,5(a5)
	andi	a3,a3,0
	or	a4,a3,a4
	sb	a4,5(a5)
	.loc 1 1241 24
	ld	a5,-104(s0)
	.loc 1 1241 55
	ld	a4,-24(s0)
	andi	a4,a4,255
	lbu	a3,10(a5)
	andi	a3,a3,0
	or	a4,a3,a4
	sb	a4,10(a5)
	ld	a4,-24(s0)
	srli	a4,a4,8
	andi	a4,a4,255
	lbu	a3,11(a5)
	andi	a3,a3,0
	or	a4,a3,a4
	sb	a4,11(a5)
	ld	a4,-24(s0)
	srli	a4,a4,16
	andi	a4,a4,255
	lbu	a3,12(a5)
	andi	a3,a3,0
	or	a4,a3,a4
	sb	a4,12(a5)
	ld	a4,-24(s0)
	srli	a4,a4,24
	andi	a4,a4,255
	lbu	a3,13(a5)
	andi	a3,a3,0
	or	a4,a3,a4
	sb	a4,13(a5)
	ld	a4,-24(s0)
	srli	a4,a4,32
	andi	a4,a4,255
	lbu	a3,14(a5)
	andi	a3,a3,0
	or	a4,a3,a4
	sb	a4,14(a5)
	ld	a4,-24(s0)
	srli	a4,a4,40
	andi	a4,a4,255
	lbu	a3,15(a5)
	andi	a3,a3,0
	or	a4,a3,a4
	sb	a4,15(a5)
	ld	a4,-24(s0)
	srli	a4,a4,48
	andi	a4,a4,255
	lbu	a3,16(a5)
	andi	a3,a3,0
	or	a4,a3,a4
	sb	a4,16(a5)
	ld	a4,-24(s0)
	srli	a4,a4,56
	lbu	a3,17(a5)
	andi	a3,a3,0
	or	a4,a3,a4
	sb	a4,17(a5)
	.loc 1 1242 34
	ld	a5,-104(s0)
	.loc 1 1242 20
	addi	a5,a5,18
	.loc 1 1242 11
	addi	a4,s0,-72
	li	a2,16
	mv	a1,a4
	mv	a0,a5
	call	CopyMem@plt
	.loc 1 1243 65
	ld	a5,-104(s0)
	.loc 1 1243 84
	addi	a4,a5,34
	.loc 1 1243 119
	ld	a5,-104(s0)
	.loc 1 1243 11
	addi	a5,a5,2
	mv	a2,a5
	ld	a1,-32(s0)
	mv	a0,a4
	call	CopyStringIntoPerfRecordAndUpdateLength
	.loc 1 1249 7
	j	.L190
.L160:
	.loc 1 1246 16
	li	a5,-1
	slli	a5,a5,63
	addi	a5,a5,2
	j	.L182
.L184:
	.loc 1 1088 7
	nop
	j	.L144
.L185:
	.loc 1 1128 7
	nop
	j	.L144
.L186:
	.loc 1 1147 7
	nop
	j	.L144
.L187:
	.loc 1 1165 7
	nop
	j	.L144
.L188:
	.loc 1 1191 7
	nop
	j	.L144
.L189:
	.loc 1 1221 7
	nop
	j	.L144
.L190:
	.loc 1 1249 7
	nop
.L144:
	.loc 1 1255 7
	la	a5,_gPcd_FixedAtBuild_PcdEdkiiFpdtStringRecordEnableOnly
	lbu	a5,0(a5)
	.loc 1 1255 6
	beq	a5,zero,.L165
	.loc 1 1256 8
	ld	a5,-32(s0)
	beq	a5,zero,.L166
	.loc 1 1256 37 discriminator 1
	lhu	a5,-170(s0)
	sext.w	a4,a5
	li	a5,7
	beq	a4,a5,.L166
	.loc 1 1256 57 discriminator 2
	lhu	a5,-170(s0)
	sext.w	a4,a5
	li	a5,8
	bne	a4,a5,.L167
.L166:
	.loc 1 1257 14
	li	a5,-1
	slli	a5,a5,63
	addi	a5,a5,2
	j	.L182
.L167:
	.loc 1 1260 18
	ld	a5,-104(s0)
	.loc 1 1260 51
	lbu	a4,0(a5)
	andi	a4,a4,0
	ori	a4,a4,17
	sb	a4,0(a5)
	lbu	a4,1(a5)
	andi	a4,a4,0
	ori	a4,a4,16
	sb	a4,1(a5)
	.loc 1 1261 18
	ld	a5,-104(s0)
	.loc 1 1261 53
	li	a4,34
	sb	a4,2(a5)
	.loc 1 1262 18
	ld	a5,-104(s0)
	.loc 1 1262 55
	li	a4,1
	sb	a4,3(a5)
	.loc 1 1263 18
	ld	a5,-104(s0)
	.loc 1 1263 50
	lhu	a4,-170(s0)
	andi	a4,a4,255
	lbu	a3,4(a5)
	andi	a3,a3,0
	or	a4,a3,a4
	sb	a4,4(a5)
	lhu	a4,-170(s0)
	srliw	a4,a4,8
	slli	a4,a4,48
	srli	a4,a4,48
	lbu	a3,5(a5)
	andi	a3,a3,0
	or	a4,a3,a4
	sb	a4,5(a5)
	.loc 1 1264 18
	ld	a5,-104(s0)
	.loc 1 1264 49
	ld	a4,-24(s0)
	andi	a4,a4,255
	lbu	a3,10(a5)
	andi	a3,a3,0
	or	a4,a3,a4
	sb	a4,10(a5)
	ld	a4,-24(s0)
	srli	a4,a4,8
	andi	a4,a4,255
	lbu	a3,11(a5)
	andi	a3,a3,0
	or	a4,a3,a4
	sb	a4,11(a5)
	ld	a4,-24(s0)
	srli	a4,a4,16
	andi	a4,a4,255
	lbu	a3,12(a5)
	andi	a3,a3,0
	or	a4,a3,a4
	sb	a4,12(a5)
	ld	a4,-24(s0)
	srli	a4,a4,24
	andi	a4,a4,255
	lbu	a3,13(a5)
	andi	a3,a3,0
	or	a4,a3,a4
	sb	a4,13(a5)
	ld	a4,-24(s0)
	srli	a4,a4,32
	andi	a4,a4,255
	lbu	a3,14(a5)
	andi	a3,a3,0
	or	a4,a3,a4
	sb	a4,14(a5)
	ld	a4,-24(s0)
	srli	a4,a4,40
	andi	a4,a4,255
	lbu	a3,15(a5)
	andi	a3,a3,0
	or	a4,a3,a4
	sb	a4,15(a5)
	ld	a4,-24(s0)
	srli	a4,a4,48
	andi	a4,a4,255
	lbu	a3,16(a5)
	andi	a3,a3,0
	or	a4,a3,a4
	sb	a4,16(a5)
	ld	a4,-24(s0)
	srli	a4,a4,56
	lbu	a3,17(a5)
	andi	a3,a3,0
	or	a4,a3,a4
	sb	a4,17(a5)
	.loc 1 1265 8
	ld	a5,-144(s0)
	beq	a5,zero,.L168
	.loc 1 1269 30
	ld	a5,-104(s0)
	.loc 1 1269 16
	addi	a5,a5,18
	.loc 1 1269 7
	li	a2,16
	ld	a1,-144(s0)
	mv	a0,a5
	call	CopyMem@plt
	j	.L169
.L168:
	.loc 1 1271 30
	ld	a5,-104(s0)
	.loc 1 1271 16
	addi	a5,a5,18
	.loc 1 1271 7
	addi	a4,s0,-72
	li	a2,16
	mv	a1,a4
	mv	a0,a5
	call	CopyMem@plt
.L169:
	.loc 1 1274 9
	ld	a0,-32(s0)
	call	AsciiStrLen@plt
	mv	a5,a0
	.loc 1 1274 8 discriminator 1
	bne	a5,zero,.L170
	.loc 1 1275 17
	lla	a5,.LC13
	sd	a5,-32(s0)
.L170:
	.loc 1 1278 59
	ld	a5,-104(s0)
	.loc 1 1278 78
	addi	a4,a5,34
	.loc 1 1278 113
	ld	a5,-104(s0)
	.loc 1 1278 5
	addi	a5,a5,2
	mv	a2,a5
	ld	a1,-32(s0)
	mv	a0,a4
	call	CopyStringIntoPerfRecordAndUpdateLength
	.loc 1 1280 8
	lhu	a5,-170(s0)
	sext.w	a4,a5
	li	a5,3
	beq	a4,a5,.L171
	.loc 1 1280 26 discriminator 1
	lhu	a5,-170(s0)
	sext.w	a4,a5
	li	a5,2
	bne	a4,a5,.L172
.L171:
	.loc 1 1281 20
	ld	a5,-104(s0)
	.loc 1 1281 55
	li	a4,58
	sb	a4,2(a5)
.L172:
	.loc 1 1284 8
	lhu	a5,-170(s0)
	sext.w	a4,a5
	li	a5,4
	beq	a4,a5,.L173
	.loc 1 1284 27 discriminator 2
	lhu	a5,-170(s0)
	sext.w	a4,a5
	li	a5,2
	bne	a4,a5,.L165
.L173:
	.loc 1 1284 66 discriminator 3
	lla	a5,mCachedLength
	lw	a5,0(a5)
	.loc 1 1284 48 discriminator 3
	beq	a5,zero,.L165
	.loc 1 1285 11
	lla	a5,mFpdtBufferIsReported
	lbu	a5,0(a5)
	.loc 1 1285 10
	beq	a5,zero,.L174
	.loc 1 1286 110
	lla	a5,mBootRecordBuffer
	ld	a4,0(a5)
	lla	a5,mCachedLength
	lw	a5,0(a5)
	slli	a5,a5,32
	srli	a5,a5,32
	add	a5,a4,a5
	.loc 1 1286 42
	sd	a5,-112(s0)
	j	.L175
.L174:
	.loc 1 1288 112
	lla	a5,mPerformancePointer
	ld	a4,0(a5)
	lla	a5,mCachedLength
	lw	a5,0(a5)
	slli	a5,a5,32
	srli	a5,a5,32
	add	a5,a4,a5
	.loc 1 1288 42
	sd	a5,-112(s0)
.L175:
	.loc 1 1291 10
	lhu	a5,-170(s0)
	sext.w	a4,a5
	li	a5,4
	bne	a4,a5,.L176
	.loc 1 1292 38
	ld	a5,-112(s0)
	.loc 1 1292 65
	lbu	a5,2(a5)
	.loc 1 1292 17
	addi	a5,a5,-34
	sd	a5,-56(s0)
	.loc 1 1293 21
	ld	a0,-32(s0)
	call	AsciiStrLen@plt
	sd	a0,-40(s0)
	.loc 1 1294 12
	ld	a4,-40(s0)
	ld	a5,-56(s0)
	bltu	a4,a5,.L177
	.loc 1 1295 21
	ld	a5,-56(s0)
	addi	a5,a5,-1
	sd	a5,-40(s0)
.L177:
	.loc 1 1298 38
	ld	a5,-112(s0)
	.loc 1 1298 18
	addi	a5,a5,18
	.loc 1 1298 9
	addi	a4,s0,-72
	li	a2,16
	mv	a1,a4
	mv	a0,a5
	call	CopyMem@plt
	.loc 1 1299 43
	ld	a5,-112(s0)
	.loc 1 1299 62
	addi	a5,a5,34
	.loc 1 1299 9
	ld	a3,-40(s0)
	ld	a2,-32(s0)
	ld	a1,-56(s0)
	mv	a0,a5
	call	AsciiStrnCpyS@plt
	j	.L178
.L176:
	.loc 1 1300 17
	lhu	a5,-170(s0)
	sext.w	a4,a5
	li	a5,2
	bne	a4,a5,.L178
	.loc 1 1301 32
	ld	a5,-104(s0)
	.loc 1 1301 59
	lbu	a5,2(a5)
	.loc 1 1301 17
	addi	a5,a5,-34
	sd	a5,-56(s0)
	.loc 1 1302 53
	ld	a5,-112(s0)
	.loc 1 1302 72
	addi	a5,a5,34
	.loc 1 1302 21
	mv	a0,a5
	call	AsciiStrLen@plt
	sd	a0,-40(s0)
	.loc 1 1303 12
	ld	a4,-40(s0)
	ld	a5,-56(s0)
	bltu	a4,a5,.L179
	.loc 1 1304 21
	ld	a5,-56(s0)
	addi	a5,a5,-1
	sd	a5,-40(s0)
.L179:
	.loc 1 1307 32
	ld	a5,-104(s0)
	.loc 1 1307 18
	addi	a4,a5,18
	.loc 1 1307 79
	ld	a5,-112(s0)
	.loc 1 1307 59
	addi	a5,a5,18
	.loc 1 1307 9
	li	a2,16
	mv	a1,a5
	mv	a0,a4
	call	CopyMem@plt
	.loc 1 1308 37
	ld	a5,-104(s0)
	.loc 1 1308 56
	addi	a4,a5,34
	.loc 1 1308 94
	ld	a5,-112(s0)
	.loc 1 1308 113
	addi	a5,a5,34
	.loc 1 1308 9
	ld	a3,-40(s0)
	mv	a2,a5
	ld	a1,-56(s0)
	mv	a0,a4
	call	AsciiStrnCpyS@plt
.L178:
	.loc 1 1311 21
	lla	a5,mCachedLength
	sw	zero,0(a5)
.L165:
	.loc 1 1318 7
	lla	a5,mFpdtBufferIsReported
	lbu	a5,0(a5)
	.loc 1 1318 6
	beq	a5,zero,.L180
	.loc 1 1319 37
	ld	a5,-104(s0)
	.loc 1 1319 50
	lbu	a5,2(a5)
	sext.w	a4,a5
	.loc 1 1319 21
	lla	a5,mBootRecordSize
	lw	a5,0(a5)
	addw	a5,a4,a5
	sext.w	a4,a5
	lla	a5,mBootRecordSize
	sw	a4,0(a5)
	.loc 1 1320 30
	lla	a5,mAcpiBootPerformanceTable
	ld	a5,0(a5)
	.loc 1 1320 38
	lbu	a4,4(a5)
	lbu	a3,5(a5)
	slli	a3,a3,8
	or	a4,a3,a4
	lbu	a3,6(a5)
	slli	a3,a3,16
	or	a4,a3,a4
	lbu	a5,7(a5)
	slli	a5,a5,24
	or	a5,a5,a4
	sext.w	a3,a5
	.loc 1 1320 62
	ld	a5,-104(s0)
	.loc 1 1320 75
	lbu	a5,2(a5)
	sext.w	a4,a5
	.loc 1 1320 30
	lla	a5,mAcpiBootPerformanceTable
	ld	a5,0(a5)
	.loc 1 1320 46
	addw	a4,a3,a4
	sext.w	a4,a4
	slli	a3,a4,32
	srli	a3,a3,32
	andi	a3,a3,255
	lbu	a2,4(a5)
	andi	a2,a2,0
	or	a3,a2,a3
	sb	a3,4(a5)
	srliw	a3,a4,8
	slli	a3,a3,32
	srli	a3,a3,32
	andi	a3,a3,255
	lbu	a2,5(a5)
	andi	a2,a2,0
	or	a3,a2,a3
	sb	a3,5(a5)
	srliw	a3,a4,16
	slli	a3,a3,32
	srli	a3,a3,32
	andi	a3,a3,255
	lbu	a2,6(a5)
	andi	a2,a2,0
	or	a3,a2,a3
	sb	a3,6(a5)
	srliw	a4,a4,24
	slli	a4,a4,32
	srli	a4,a4,32
	lbu	a3,7(a5)
	andi	a3,a3,0
	or	a4,a3,a4
	sb	a4,7(a5)
	j	.L181
.L180:
	.loc 1 1322 40
	ld	a5,-104(s0)
	.loc 1 1322 53
	lbu	a5,2(a5)
	sext.w	a4,a5
	.loc 1 1322 24
	lla	a5,mPerformanceLength
	lw	a5,0(a5)
	addw	a5,a4,a5
	sext.w	a4,a5
	lla	a5,mPerformanceLength
	sw	a4,0(a5)
.L181:
	.loc 1 1325 10
	li	a5,0
.L182:
	.loc 1 1326 1
	mv	a0,a5
	ld	ra,168(sp)
	.cfi_restore 1
	ld	s0,160(sp)
	.cfi_restore 8
	.cfi_def_cfa 2, 176
	addi	sp,sp,176
	.cfi_def_cfa_offset 0
	jr	ra
	.cfi_endproc
.LFE9:
	.size	InsertFpdtRecord, .-InsertFpdtRecord
	.section	.text.InternalGetPeiPerformance,"ax",@progbits
	.align	1
	.globl	InternalGetPeiPerformance
	.type	InternalGetPeiPerformance, @function
InternalGetPeiPerformance:
.LFB10:
	.loc 1 1342 1
	.cfi_startproc
	addi	sp,sp,-64
	.cfi_def_cfa_offset 64
	sd	ra,56(sp)
	sd	s0,48(sp)
	.cfi_offset 1, -8
	.cfi_offset 8, -16
	addi	s0,sp,64
	.cfi_def_cfa 8, 0
	sd	a0,-56(s0)
	.loc 1 1348 13
	ld	a1,-56(s0)
	la	a0,gEdkiiFpdtExtendedFirmwarePerformanceGuid
	call	GetNextGuidHob@plt
	mv	a5,a0
	.loc 1 1348 11 discriminator 1
	sd	a5,-48(s0)
	.loc 1 1349 9
	j	.L192
.L194:
	.loc 1 1350 50
	addi	a5,s0,-48
	.loc 1 1350 39
	ld	a5,0(a5)
	.loc 1 1350 28
	addi	a5,a5,24
	sd	a5,-24(s0)
	.loc 1 1351 29
	ld	a5,-24(s0)
	sd	a5,-32(s0)
	.loc 1 1353 53
	ld	a5,-32(s0)
	lw	a4,0(a5)
	.loc 1 1353 28
	lla	a5,mPerformanceLength
	lw	a5,0(a5)
	addw	a5,a4,a5
	sext.w	a4,a5
	.loc 1 1353 72
	lla	a5,mMaxPerformanceLength
	lw	a5,0(a5)
	.loc 1 1353 8
	bleu	a4,a5,.L193
	.loc 1 1354 29
	lla	a5,mPerformanceLength
	lw	a5,0(a5)
	slli	a3,a5,32
	srli	a3,a3,32
	.loc 1 1356 50
	lla	a5,mPerformanceLength
	lw	a5,0(a5)
	slli	a4,a5,32
	srli	a4,a4,32
	.loc 1 1357 61
	ld	a5,-32(s0)
	lw	a5,0(a5)
	.loc 1 1357 31
	slli	a5,a5,32
	srli	a5,a5,32
	.loc 1 1356 50
	add	a4,a4,a5
	.loc 1 1357 80
	li	a5,65536
	add	a4,a4,a5
	.loc 1 1354 29
	lla	a5,mPerformancePointer
	ld	a5,0(a5)
	mv	a2,a5
	mv	a1,a4
	mv	a0,a3
	call	ReallocatePool@plt
	mv	a4,a0
	.loc 1 1354 27 discriminator 1
	lla	a5,mPerformancePointer
	sd	a4,0(a5)
	.loc 1 1363 62
	ld	a5,-32(s0)
	lw	a4,0(a5)
	.loc 1 1362 50
	lla	a5,mPerformanceLength
	lw	a5,0(a5)
	addw	a5,a4,a5
	sext.w	a4,a5
	.loc 1 1363 82
	li	a5,65536
	addw	a5,a4,a5
	sext.w	a4,a5
	.loc 1 1362 29
	lla	a5,mMaxPerformanceLength
	sw	a4,0(a5)
.L193:
	.loc 1 1367 36
	lla	a5,mPerformancePointer
	ld	a4,0(a5)
	lla	a5,mPerformanceLength
	lw	a5,0(a5)
	slli	a5,a5,32
	srli	a5,a5,32
	.loc 1 1367 14
	add	a5,a4,a5
	sd	a5,-40(s0)
	.loc 1 1368 47
	ld	a5,-24(s0)
	addi	a4,a5,12
	.loc 1 1368 115
	ld	a5,-32(s0)
	lw	a5,0(a5)
	.loc 1 1368 5
	slli	a5,a5,32
	srli	a5,a5,32
	mv	a2,a5
	mv	a1,a4
	ld	a0,-40(s0)
	call	CopyMem@plt
	.loc 1 1372 58
	ld	a5,-32(s0)
	lw	a4,0(a5)
	.loc 1 1372 24
	lla	a5,mPerformanceLength
	lw	a5,0(a5)
	addw	a5,a4,a5
	sext.w	a4,a5
	lla	a5,mPerformanceLength
	sw	a4,0(a5)
	.loc 1 1373 47
	ld	a5,-32(s0)
	lw	a4,4(a5)
	.loc 1 1373 21
	lla	a5,mLoadImageCount
	lw	a5,0(a5)
	addw	a5,a4,a5
	sext.w	a4,a5
	lla	a5,mLoadImageCount
	sw	a4,0(a5)
	.loc 1 1378 95
	addi	a5,s0,-48
	.loc 1 1378 84
	ld	a5,0(a5)
	.loc 1 1378 138
	addi	a4,s0,-48
	.loc 1 1378 110
	ld	a4,0(a4)
	.loc 1 1378 149
	lhu	a4,2(a4)
	.loc 1 1378 106
	add	a5,a5,a4
	.loc 1 1378 15
	mv	a1,a5
	la	a0,gEdkiiFpdtExtendedFirmwarePerformanceGuid
	call	GetNextGuidHob@plt
	mv	a5,a0
	.loc 1 1378 13 discriminator 1
	sd	a5,-48(s0)
.L192:
	.loc 1 1349 18
	ld	a5,-48(s0)
	bne	a5,zero,.L194
	.loc 1 1380 1
	nop
	nop
	ld	ra,56(sp)
	.cfi_restore 1
	ld	s0,48(sp)
	.cfi_restore 8
	.cfi_def_cfa 2, 64
	addi	sp,sp,64
	.cfi_def_cfa_offset 0
	jr	ra
	.cfi_endproc
.LFE10:
	.size	InternalGetPeiPerformance, .-InternalGetPeiPerformance
	.section	.text.ReportFpdtRecordBuffer,"ax",@progbits
	.align	1
	.globl	ReportFpdtRecordBuffer
	.type	ReportFpdtRecordBuffer, @function
ReportFpdtRecordBuffer:
.LFB11:
	.loc 1 1395 1
	.cfi_startproc
	addi	sp,sp,-48
	.cfi_def_cfa_offset 48
	sd	ra,40(sp)
	sd	s0,32(sp)
	.cfi_offset 1, -8
	.cfi_offset 8, -16
	addi	s0,sp,48
	.cfi_def_cfa 8, 0
	sd	a0,-40(s0)
	sd	a1,-48(s0)
	.loc 1 1399 7
	lla	a5,mFpdtBufferIsReported
	lbu	a5,0(a5)
	.loc 1 1399 6
	bne	a5,zero,.L200
	.loc 1 1400 14
	call	AllocateBootPerformanceTable
	sd	a0,-24(s0)
	.loc 1 1401 9
	ld	a5,-24(s0)
	.loc 1 1401 8
	blt	a5,zero,.L197
	.loc 1 1402 18
	lla	a5,mAcpiBootPerformanceTable
	ld	a5,0(a5)
	.loc 1 1402 16
	sd	a5,-32(s0)
	.loc 1 1403 8
	call	ReportProgressCodeEnabled@plt
	mv	a5,a0
	.loc 1 1403 225 discriminator 1
	beq	a5,zero,.L198
	.loc 1 1403 84 discriminator 4
	addi	a5,s0,-32
	li	a6,8
	la	a4,gEdkiiFpdtExtendedFirmwarePerformanceGuid
	li	a3,0
	li	a2,0
	li	a1,50659328
	li	a0,1
	call	ReportStatusCodeEx@plt
	.loc 1 1403 225
	j	.L199
.L198:
	.loc 1 1403 228 discriminator 5
	call	ReportErrorCodeEnabled@plt
	.loc 1 1403 445 discriminator 9
	call	ReportDebugCodeEnabled@plt
.L199:
	.loc 1 1412 19
	la	a5,gBS
	ld	a5,0(a5)
	ld	a5,192(a5)
	.loc 1 1412 16
	ld	a4,-32(s0)
	mv	a1,a4
	la	a0,gEdkiiFpdtExtendedFirmwarePerformanceGuid
	jalr	a5
.LVL12:
	sd	a0,-24(s0)
.L197:
	.loc 1 1419 27
	lla	a5,mFpdtBufferIsReported
	li	a4,1
	sb	a4,0(a5)
.L200:
	.loc 1 1421 1
	nop
	ld	ra,40(sp)
	.cfi_restore 1
	ld	s0,32(sp)
	.cfi_restore 8
	.cfi_def_cfa 2, 48
	addi	sp,sp,48
	.cfi_def_cfa_offset 0
	jr	ra
	.cfi_endproc
.LFE11:
	.size	ReportFpdtRecordBuffer, .-ReportFpdtRecordBuffer
	.section	.text.UpdateBootPerformanceTable,"ax",@progbits
	.align	1
	.globl	UpdateBootPerformanceTable
	.type	UpdateBootPerformanceTable, @function
UpdateBootPerformanceTable:
.LFB12:
	.loc 1 1436 1
	.cfi_startproc
	addi	sp,sp,-64
	.cfi_def_cfa_offset 64
	sd	ra,56(sp)
	sd	s0,48(sp)
	.cfi_offset 1, -8
	.cfi_offset 8, -16
	addi	s0,sp,64
	.cfi_def_cfa 8, 0
	sd	a0,-56(s0)
	sd	a1,-64(s0)
	.loc 1 1442 25
	sd	zero,-48(s0)
	.loc 1 1447 21
	sd	zero,-40(s0)
	.loc 1 1448 3
	addi	a4,s0,-48
	addi	a5,s0,-40
	li	a2,0
	mv	a1,a4
	mv	a0,a5
	call	InternalGetSmmPerfData
	.loc 1 1450 33
	lla	a5,mAcpiBootPerformanceTable
	ld	a4,0(a5)
	.loc 1 1450 95
	lla	a5,mAcpiBootPerformanceTable
	ld	a5,0(a5)
	.loc 1 1450 103
	lbu	a3,4(a5)
	lbu	a2,5(a5)
	slli	a2,a2,8
	or	a3,a2,a3
	lbu	a2,6(a5)
	slli	a2,a2,16
	or	a3,a2,a3
	lbu	a5,7(a5)
	slli	a5,a5,24
	or	a5,a5,a3
	sext.w	a5,a5
	slli	a5,a5,32
	srli	a5,a5,32
	.loc 1 1450 31
	add	a5,a4,a5
	sd	a5,-32(s0)
	.loc 1 1452 32
	lla	a5,mAcpiBootPerformanceTable
	ld	a5,0(a5)
	.loc 1 1452 40
	lbu	a4,4(a5)
	lbu	a3,5(a5)
	slli	a3,a3,8
	or	a4,a3,a4
	lbu	a3,6(a5)
	slli	a3,a3,16
	or	a4,a3,a4
	lbu	a5,7(a5)
	slli	a5,a5,24
	or	a5,a5,a4
	sext.w	a5,a5
	slli	a4,a5,32
	srli	a4,a4,32
	.loc 1 1452 48
	ld	a5,-48(s0)
	add	a4,a4,a5
	.loc 1 1452 72
	lla	a5,mBootRecordMaxSize
	ld	a5,0(a5)
	.loc 1 1452 6
	bleu	a4,a5,.L202
	.loc 1 1454 37
	lla	a5,mBootRecordMaxSize
	ld	a4,0(a5)
	.loc 1 1454 64
	lla	a5,mAcpiBootPerformanceTable
	ld	a5,0(a5)
	.loc 1 1454 72
	lbu	a3,4(a5)
	lbu	a2,5(a5)
	slli	a2,a2,8
	or	a3,a2,a3
	lbu	a2,6(a5)
	slli	a2,a2,16
	or	a3,a2,a3
	lbu	a5,7(a5)
	slli	a5,a5,24
	or	a5,a5,a3
	sext.w	a5,a5
	slli	a5,a5,32
	srli	a5,a5,32
	.loc 1 1454 16
	sub	a5,a4,a5
	sd	a5,-24(s0)
	j	.L203
.L202:
	.loc 1 1456 16
	ld	a5,-48(s0)
	sd	a5,-24(s0)
.L203:
	.loc 1 1459 25
	ld	a5,-40(s0)
	.loc 1 1459 6
	beq	a5,zero,.L205
	.loc 1 1460 5
	ld	a5,-40(s0)
	ld	a2,-24(s0)
	mv	a1,a5
	ld	a0,-32(s0)
	call	CopyMem@plt
	.loc 1 1461 30
	lla	a5,mAcpiBootPerformanceTable
	ld	a5,0(a5)
	.loc 1 1461 38
	lbu	a4,4(a5)
	lbu	a3,5(a5)
	slli	a3,a3,8
	or	a4,a3,a4
	lbu	a3,6(a5)
	slli	a3,a3,16
	or	a4,a3,a4
	lbu	a5,7(a5)
	slli	a5,a5,24
	or	a5,a5,a4
	sext.w	a3,a5
	.loc 1 1461 49
	ld	a5,-24(s0)
	sext.w	a4,a5
	.loc 1 1461 30
	lla	a5,mAcpiBootPerformanceTable
	ld	a5,0(a5)
	.loc 1 1461 46
	addw	a4,a3,a4
	sext.w	a4,a4
	slli	a3,a4,32
	srli	a3,a3,32
	andi	a3,a3,255
	lbu	a2,4(a5)
	andi	a2,a2,0
	or	a3,a2,a3
	sb	a3,4(a5)
	srliw	a3,a4,8
	slli	a3,a3,32
	srli	a3,a3,32
	andi	a3,a3,255
	lbu	a2,5(a5)
	andi	a2,a2,0
	or	a3,a2,a3
	sb	a3,5(a5)
	srliw	a3,a4,16
	slli	a3,a3,32
	srli	a3,a3,32
	andi	a3,a3,255
	lbu	a2,6(a5)
	andi	a2,a2,0
	or	a3,a2,a3
	sb	a3,6(a5)
	srliw	a4,a4,24
	slli	a4,a4,32
	srli	a4,a4,32
	lbu	a3,7(a5)
	andi	a3,a3,0
	or	a4,a3,a4
	sb	a4,7(a5)
	.loc 1 1462 24
	ld	a5,-24(s0)
	sext.w	a4,a5
	.loc 1 1462 21
	lla	a5,mBootRecordSize
	lw	a5,0(a5)
	addw	a5,a4,a5
	sext.w	a4,a5
	lla	a5,mBootRecordSize
	sw	a4,0(a5)
	.loc 1 1463 5
	ld	a5,-40(s0)
	mv	a0,a5
	call	FreePool@plt
.L205:
	.loc 1 1465 1
	nop
	ld	ra,56(sp)
	.cfi_restore 1
	ld	s0,48(sp)
	.cfi_restore 8
	.cfi_def_cfa 2, 64
	addi	sp,sp,64
	.cfi_def_cfa_offset 0
	jr	ra
	.cfi_endproc
.LFE12:
	.size	UpdateBootPerformanceTable, .-UpdateBootPerformanceTable
	.section	.text.DxeCorePerformanceLibConstructor,"ax",@progbits
	.align	1
	.globl	DxeCorePerformanceLibConstructor
	.type	DxeCorePerformanceLibConstructor, @function
DxeCorePerformanceLibConstructor:
.LFB13:
	.loc 1 1486 1
	.cfi_startproc
	addi	sp,sp,-80
	.cfi_def_cfa_offset 80
	sd	ra,72(sp)
	sd	s0,64(sp)
	.cfi_offset 1, -8
	.cfi_offset 8, -16
	addi	s0,sp,80
	.cfi_def_cfa 8, 0
	sd	a0,-72(s0)
	sd	a1,-80(s0)
	.loc 1 1493 8
	call	PerformanceMeasurementEnabled
	mv	a5,a0
	.loc 1 1493 6 discriminator 1
	bne	a5,zero,.L207
	.loc 1 1497 12
	li	a5,0
	j	.L210
.L207:
	.loc 1 1503 3
	call	GetHobList@plt
	mv	a5,a0
	.loc 1 1503 3 is_stmt 0 discriminator 1
	mv	a0,a5
	call	InternalGetPeiPerformance
	.loc 1 1508 10 is_stmt 1
	sd	zero,-32(s0)
	.loc 1 1509 15
	la	a5,gBS
	ld	a5,0(a5)
	ld	a5,328(a5)
	.loc 1 1509 12
	addi	a4,s0,-32
	li	a3,0
	lla	a2,mPerformanceMeasurementInterface
	la	a1,gEdkiiPerformanceMeasurementProtocolGuid
	mv	a0,a4
	jalr	a5
.LVL13:
	sd	a0,-24(s0)
	.loc 1 1520 15
	la	a5,gBS
	ld	a5,0(a5)
	ld	a6,368(a5)
	.loc 1 1520 12
	addi	a5,s0,-40
	la	a4,gEfiEndOfDxeEventGroupGuid
	li	a3,0
	lla	a2,ReportFpdtRecordBuffer
	li	a1,16
	li	a0,512
	jalr	a6
.LVL14:
	sd	a0,-24(s0)
	.loc 1 1532 15
	la	a5,gBS
	ld	a5,0(a5)
	ld	a6,368(a5)
	.loc 1 1532 12
	addi	a5,s0,-48
	la	a4,gEfiEventReadyToBootGuid
	li	a3,0
	lla	a2,UpdateBootPerformanceTable
	li	a1,8
	li	a0,512
	jalr	a6
.LVL15:
	sd	a0,-24(s0)
	.loc 1 1543 12
	addi	a5,s0,-56
	mv	a1,a5
	la	a0,gPerformanceProtocolGuid
	call	EfiGetSystemConfigurationTable@plt
	sd	a0,-24(s0)
	.loc 1 1544 34
	ld	a5,-24(s0)
	.loc 1 1544 6
	bge	a5,zero,.L209
	.loc 1 1548 35
	lla	a5,mPerformanceProperty
	li	a4,1
	sw	a4,0(a5)
	.loc 1 1549 35
	lla	a5,mPerformanceProperty
	sw	zero,4(a5)
	.loc 1 1550 38
	lla	a1,mPerformanceProperty+24
	lla	a0,mPerformanceProperty+16
	call	GetPerformanceCounterProperties@plt
	mv	a4,a0
	.loc 1 1550 36 discriminator 1
	lla	a5,mPerformanceProperty
	sd	a4,8(a5)
	.loc 1 1554 17
	la	a5,gBS
	ld	a5,0(a5)
	ld	a5,192(a5)
	.loc 1 1554 14
	lla	a1,mPerformanceProperty
	la	a0,gPerformanceProtocolGuid
	jalr	a5
.LVL16:
	sd	a0,-24(s0)
.L209:
	.loc 1 1558 10
	li	a5,0
.L210:
	.loc 1 1559 1
	mv	a0,a5
	ld	ra,72(sp)
	.cfi_restore 1
	ld	s0,64(sp)
	.cfi_restore 8
	.cfi_def_cfa 2, 80
	addi	sp,sp,80
	.cfi_def_cfa_offset 0
	jr	ra
	.cfi_endproc
.LFE13:
	.size	DxeCorePerformanceLibConstructor, .-DxeCorePerformanceLibConstructor
	.section	.text.CreatePerformanceMeasurement,"ax",@progbits
	.align	1
	.globl	CreatePerformanceMeasurement
	.type	CreatePerformanceMeasurement, @function
CreatePerformanceMeasurement:
.LFB14:
	.loc 1 1590 1
	.cfi_startproc
	addi	sp,sp,-80
	.cfi_def_cfa_offset 80
	sd	ra,72(sp)
	sd	s0,64(sp)
	.cfi_offset 1, -8
	.cfi_offset 8, -16
	addi	s0,sp,80
	.cfi_def_cfa 8, 0
	sd	a0,-40(s0)
	sd	a1,-48(s0)
	sd	a2,-56(s0)
	sd	a3,-64(s0)
	sd	a4,-72(s0)
	mv	a4,a6
	sw	a5,-76(s0)
	mv	a5,a4
	sw	a5,-80(s0)
	.loc 1 1593 10
	sd	zero,-24(s0)
	.loc 1 1595 7
	lla	a5,mLockInsertRecord
	lbu	a5,0(a5)
	.loc 1 1595 6
	beq	a5,zero,.L212
	.loc 1 1596 12
	li	a5,-1
	slli	a5,a5,63
	addi	a5,a5,2
	j	.L213
.L212:
	.loc 1 1599 21
	lla	a5,mLockInsertRecord
	li	a4,1
	sb	a4,0(a5)
	.loc 1 1601 12
	lw	a5,-76(s0)
	slli	a5,a5,48
	srli	a5,a5,48
	lw	a4,-80(s0)
	mv	a6,a4
	ld	a4,-72(s0)
	ld	a3,-64(s0)
	ld	a2,-56(s0)
	ld	a1,-48(s0)
	ld	a0,-40(s0)
	call	InsertFpdtRecord
	sd	a0,-24(s0)
	.loc 1 1603 21
	lla	a5,mLockInsertRecord
	sb	zero,0(a5)
	.loc 1 1605 10
	ld	a5,-24(s0)
.L213:
	.loc 1 1606 1
	mv	a0,a5
	ld	ra,72(sp)
	.cfi_restore 1
	ld	s0,64(sp)
	.cfi_restore 8
	.cfi_def_cfa 2, 80
	addi	sp,sp,80
	.cfi_def_cfa_offset 0
	jr	ra
	.cfi_endproc
.LFE14:
	.size	CreatePerformanceMeasurement, .-CreatePerformanceMeasurement
	.section	.text.StartPerformanceMeasurementEx,"ax",@progbits
	.align	1
	.globl	StartPerformanceMeasurementEx
	.type	StartPerformanceMeasurementEx, @function
StartPerformanceMeasurementEx:
.LFB15:
	.loc 1 1642 1
	.cfi_startproc
	addi	sp,sp,-80
	.cfi_def_cfa_offset 80
	sd	ra,72(sp)
	sd	s0,64(sp)
	.cfi_offset 1, -8
	.cfi_offset 8, -16
	addi	s0,sp,80
	.cfi_def_cfa 8, 0
	sd	a0,-40(s0)
	sd	a1,-48(s0)
	sd	a2,-56(s0)
	sd	a3,-64(s0)
	mv	a5,a4
	sw	a5,-68(s0)
	.loc 1 1645 6
	ld	a5,-48(s0)
	beq	a5,zero,.L215
	.loc 1 1646 12
	ld	a5,-48(s0)
	sd	a5,-24(s0)
	j	.L216
.L215:
	.loc 1 1647 13
	ld	a5,-56(s0)
	beq	a5,zero,.L217
	.loc 1 1648 12
	ld	a5,-56(s0)
	sd	a5,-24(s0)
	j	.L216
.L217:
	.loc 1 1650 12
	sd	zero,-24(s0)
.L216:
	.loc 1 1653 25
	lw	a5,-68(s0)
	li	a6,0
	li	a4,0
	ld	a3,-64(s0)
	ld	a2,-24(s0)
	li	a1,0
	ld	a0,-40(s0)
	call	CreatePerformanceMeasurement
	mv	a5,a0
	.loc 1 1654 1
	mv	a0,a5
	ld	ra,72(sp)
	.cfi_restore 1
	ld	s0,64(sp)
	.cfi_restore 8
	.cfi_def_cfa 2, 80
	addi	sp,sp,80
	.cfi_def_cfa_offset 0
	jr	ra
	.cfi_endproc
.LFE15:
	.size	StartPerformanceMeasurementEx, .-StartPerformanceMeasurementEx
	.section	.text.EndPerformanceMeasurementEx,"ax",@progbits
	.align	1
	.globl	EndPerformanceMeasurementEx
	.type	EndPerformanceMeasurementEx, @function
EndPerformanceMeasurementEx:
.LFB16:
	.loc 1 1691 1
	.cfi_startproc
	addi	sp,sp,-80
	.cfi_def_cfa_offset 80
	sd	ra,72(sp)
	sd	s0,64(sp)
	.cfi_offset 1, -8
	.cfi_offset 8, -16
	addi	s0,sp,80
	.cfi_def_cfa 8, 0
	sd	a0,-40(s0)
	sd	a1,-48(s0)
	sd	a2,-56(s0)
	sd	a3,-64(s0)
	mv	a5,a4
	sw	a5,-68(s0)
	.loc 1 1694 6
	ld	a5,-48(s0)
	beq	a5,zero,.L220
	.loc 1 1695 12
	ld	a5,-48(s0)
	sd	a5,-24(s0)
	j	.L221
.L220:
	.loc 1 1696 13
	ld	a5,-56(s0)
	beq	a5,zero,.L222
	.loc 1 1697 12
	ld	a5,-56(s0)
	sd	a5,-24(s0)
	j	.L221
.L222:
	.loc 1 1699 12
	sd	zero,-24(s0)
.L221:
	.loc 1 1702 25
	lw	a5,-68(s0)
	li	a6,1
	li	a4,0
	ld	a3,-64(s0)
	ld	a2,-24(s0)
	li	a1,0
	ld	a0,-40(s0)
	call	CreatePerformanceMeasurement
	mv	a5,a0
	.loc 1 1703 1
	mv	a0,a5
	ld	ra,72(sp)
	.cfi_restore 1
	ld	s0,64(sp)
	.cfi_restore 8
	.cfi_def_cfa 2, 80
	addi	sp,sp,80
	.cfi_def_cfa_offset 0
	jr	ra
	.cfi_endproc
.LFE16:
	.size	EndPerformanceMeasurementEx, .-EndPerformanceMeasurementEx
	.section	.text.GetPerformanceMeasurementEx,"ax",@progbits
	.align	1
	.globl	GetPerformanceMeasurementEx
	.type	GetPerformanceMeasurementEx, @function
GetPerformanceMeasurementEx:
.LFB17:
	.loc 1 1760 1
	.cfi_startproc
	addi	sp,sp,-80
	.cfi_def_cfa_offset 80
	sd	ra,72(sp)
	sd	s0,64(sp)
	.cfi_offset 1, -8
	.cfi_offset 8, -16
	addi	s0,sp,80
	.cfi_def_cfa 8, 0
	sd	a0,-24(s0)
	sd	a1,-32(s0)
	sd	a2,-40(s0)
	sd	a3,-48(s0)
	sd	a4,-56(s0)
	sd	a5,-64(s0)
	sd	a6,-72(s0)
	.loc 1 1761 10
	li	a5,0
	.loc 1 1762 1
	mv	a0,a5
	ld	ra,72(sp)
	.cfi_restore 1
	ld	s0,64(sp)
	.cfi_restore 8
	.cfi_def_cfa 2, 80
	addi	sp,sp,80
	.cfi_def_cfa_offset 0
	jr	ra
	.cfi_endproc
.LFE17:
	.size	GetPerformanceMeasurementEx, .-GetPerformanceMeasurementEx
	.section	.text.StartPerformanceMeasurement,"ax",@progbits
	.align	1
	.globl	StartPerformanceMeasurement
	.type	StartPerformanceMeasurement, @function
StartPerformanceMeasurement:
.LFB18:
	.loc 1 1795 1
	.cfi_startproc
	addi	sp,sp,-48
	.cfi_def_cfa_offset 48
	sd	ra,40(sp)
	sd	s0,32(sp)
	.cfi_offset 1, -8
	.cfi_offset 8, -16
	addi	s0,sp,48
	.cfi_def_cfa 8, 0
	sd	a0,-24(s0)
	sd	a1,-32(s0)
	sd	a2,-40(s0)
	sd	a3,-48(s0)
	.loc 1 1796 10
	li	a4,0
	ld	a3,-48(s0)
	ld	a2,-40(s0)
	ld	a1,-32(s0)
	ld	a0,-24(s0)
	call	StartPerformanceMeasurementEx
	mv	a5,a0
	.loc 1 1797 1
	mv	a0,a5
	ld	ra,40(sp)
	.cfi_restore 1
	ld	s0,32(sp)
	.cfi_restore 8
	.cfi_def_cfa 2, 48
	addi	sp,sp,48
	.cfi_def_cfa_offset 0
	jr	ra
	.cfi_endproc
.LFE18:
	.size	StartPerformanceMeasurement, .-StartPerformanceMeasurement
	.section	.text.EndPerformanceMeasurement,"ax",@progbits
	.align	1
	.globl	EndPerformanceMeasurement
	.type	EndPerformanceMeasurement, @function
EndPerformanceMeasurement:
.LFB19:
	.loc 1 1831 1
	.cfi_startproc
	addi	sp,sp,-48
	.cfi_def_cfa_offset 48
	sd	ra,40(sp)
	sd	s0,32(sp)
	.cfi_offset 1, -8
	.cfi_offset 8, -16
	addi	s0,sp,48
	.cfi_def_cfa 8, 0
	sd	a0,-24(s0)
	sd	a1,-32(s0)
	sd	a2,-40(s0)
	sd	a3,-48(s0)
	.loc 1 1832 10
	li	a4,0
	ld	a3,-48(s0)
	ld	a2,-40(s0)
	ld	a1,-32(s0)
	ld	a0,-24(s0)
	call	EndPerformanceMeasurementEx
	mv	a5,a0
	.loc 1 1833 1
	mv	a0,a5
	ld	ra,40(sp)
	.cfi_restore 1
	ld	s0,32(sp)
	.cfi_restore 8
	.cfi_def_cfa 2, 48
	addi	sp,sp,48
	.cfi_def_cfa_offset 0
	jr	ra
	.cfi_endproc
.LFE19:
	.size	EndPerformanceMeasurement, .-EndPerformanceMeasurement
	.section	.text.GetPerformanceMeasurement,"ax",@progbits
	.align	1
	.globl	GetPerformanceMeasurement
	.type	GetPerformanceMeasurement, @function
GetPerformanceMeasurement:
.LFB20:
	.loc 1 1886 1
	.cfi_startproc
	addi	sp,sp,-64
	.cfi_def_cfa_offset 64
	sd	ra,56(sp)
	sd	s0,48(sp)
	.cfi_offset 1, -8
	.cfi_offset 8, -16
	addi	s0,sp,64
	.cfi_def_cfa 8, 0
	sd	a0,-24(s0)
	sd	a1,-32(s0)
	sd	a2,-40(s0)
	sd	a3,-48(s0)
	sd	a4,-56(s0)
	sd	a5,-64(s0)
	.loc 1 1887 10
	li	a5,0
	.loc 1 1888 1
	mv	a0,a5
	ld	ra,56(sp)
	.cfi_restore 1
	ld	s0,48(sp)
	.cfi_restore 8
	.cfi_def_cfa 2, 64
	addi	sp,sp,64
	.cfi_def_cfa_offset 0
	jr	ra
	.cfi_endproc
.LFE20:
	.size	GetPerformanceMeasurement, .-GetPerformanceMeasurement
	.section	.text.PerformanceMeasurementEnabled,"ax",@progbits
	.align	1
	.globl	PerformanceMeasurementEnabled
	.type	PerformanceMeasurementEnabled, @function
PerformanceMeasurementEnabled:
.LFB21:
	.loc 1 1907 1
	.cfi_startproc
	addi	sp,sp,-16
	.cfi_def_cfa_offset 16
	sd	ra,8(sp)
	sd	s0,0(sp)
	.cfi_offset 1, -8
	.cfi_offset 8, -16
	addi	s0,sp,16
	.cfi_def_cfa 8, 0
	.loc 1 1908 10
	la	a5,_gPcd_FixedAtBuild_PcdPerformanceLibraryPropertyMask
	lbu	a5,0(a5)
	andi	a5,a5,1
	andi	a5,a5,0xff
	.loc 1 1909 1
	mv	a0,a5
	ld	ra,8(sp)
	.cfi_restore 1
	ld	s0,0(sp)
	.cfi_restore 8
	.cfi_def_cfa 2, 16
	addi	sp,sp,16
	.cfi_def_cfa_offset 0
	jr	ra
	.cfi_endproc
.LFE21:
	.size	PerformanceMeasurementEnabled, .-PerformanceMeasurementEnabled
	.section	.text.LogPerformanceMeasurement,"ax",@progbits
	.align	1
	.globl	LogPerformanceMeasurement
	.type	LogPerformanceMeasurement, @function
LogPerformanceMeasurement:
.LFB22:
	.loc 1 1935 1
	.cfi_startproc
	addi	sp,sp,-64
	.cfi_def_cfa_offset 64
	sd	ra,56(sp)
	sd	s0,48(sp)
	.cfi_offset 1, -8
	.cfi_offset 8, -16
	addi	s0,sp,64
	.cfi_def_cfa 8, 0
	sd	a0,-24(s0)
	sd	a1,-32(s0)
	sd	a2,-40(s0)
	sd	a3,-48(s0)
	mv	a5,a4
	sw	a5,-52(s0)
	.loc 1 1936 25
	lw	a5,-52(s0)
	li	a6,2
	ld	a4,-48(s0)
	li	a3,0
	ld	a2,-40(s0)
	ld	a1,-32(s0)
	ld	a0,-24(s0)
	call	CreatePerformanceMeasurement
	mv	a5,a0
	.loc 1 1937 1
	mv	a0,a5
	ld	ra,56(sp)
	.cfi_restore 1
	ld	s0,48(sp)
	.cfi_restore 8
	.cfi_def_cfa 2, 64
	addi	sp,sp,64
	.cfi_def_cfa_offset 0
	jr	ra
	.cfi_endproc
.LFE22:
	.size	LogPerformanceMeasurement, .-LogPerformanceMeasurement
	.section	.text.LogPerformanceMeasurementEnabled,"ax",@progbits
	.align	1
	.globl	LogPerformanceMeasurementEnabled
	.type	LogPerformanceMeasurementEnabled, @function
LogPerformanceMeasurementEnabled:
.LFB23:
	.loc 1 1956 1
	.cfi_startproc
	addi	sp,sp,-32
	.cfi_def_cfa_offset 32
	sd	ra,24(sp)
	sd	s0,16(sp)
	.cfi_offset 1, -8
	.cfi_offset 8, -16
	addi	s0,sp,32
	.cfi_def_cfa 8, 0
	sd	a0,-24(s0)
	.loc 1 1960 7
	call	PerformanceMeasurementEnabled
	mv	a5,a0
	.loc 1 1960 6 discriminator 1
	beq	a5,zero,.L237
	.loc 1 1960 98 discriminator 2
	la	a5,_gPcd_FixedAtBuild_PcdPerformanceLibraryPropertyMask
	lbu	a5,0(a5)
	mv	a4,a5
	ld	a5,-24(s0)
	and	a5,a4,a5
	.loc 1 1960 40 discriminator 2
	bne	a5,zero,.L237
	.loc 1 1961 12
	li	a5,1
	j	.L238
.L237:
	.loc 1 1964 10
	li	a5,0
.L238:
	.loc 1 1965 1
	mv	a0,a5
	ld	ra,24(sp)
	.cfi_restore 1
	ld	s0,16(sp)
	.cfi_restore 8
	.cfi_def_cfa 2, 32
	addi	sp,sp,32
	.cfi_def_cfa_offset 0
	jr	ra
	.cfi_endproc
.LFE23:
	.size	LogPerformanceMeasurementEnabled, .-LogPerformanceMeasurementEnabled
	.text
.Letext0:
	.file 2 "/home/kapoagaeming/spacemit-image-builder/components/edk2/MdePkg/Include/RiscV64/ProcessorBind.h"
	.file 3 "/home/kapoagaeming/spacemit-image-builder/components/edk2/MdePkg/Include/Base.h"
	.file 4 "/home/kapoagaeming/spacemit-image-builder/components/edk2/MdePkg/Include/Uefi/UefiBaseType.h"
	.file 5 "/home/kapoagaeming/spacemit-image-builder/components/edk2/MdePkg/Include/Uefi/UefiMultiPhase.h"
	.file 6 "/home/kapoagaeming/spacemit-image-builder/components/edk2/MdePkg/Include/IndustryStandard/Acpi50.h"
	.file 7 "/home/kapoagaeming/spacemit-image-builder/components/edk2/MdePkg/Include/Protocol/DevicePath.h"
	.file 8 "/home/kapoagaeming/spacemit-image-builder/components/edk2/MdePkg/Include/Protocol/SimpleTextIn.h"
	.file 9 "/home/kapoagaeming/spacemit-image-builder/components/edk2/MdePkg/Include/Protocol/SimpleTextOut.h"
	.file 10 "/home/kapoagaeming/spacemit-image-builder/components/edk2/MdePkg/Include/Uefi/UefiSpec.h"
	.file 11 "/home/kapoagaeming/spacemit-image-builder/components/edk2/MdePkg/Include/Pi/PiFirmwareFile.h"
	.file 12 "/home/kapoagaeming/spacemit-image-builder/components/edk2/MdePkg/Include/Pi/PiHob.h"
	.file 13 "/home/kapoagaeming/spacemit-image-builder/components/edk2/MdePkg/Include/Pi/PiStatusCode.h"
	.file 14 "/home/kapoagaeming/spacemit-image-builder/components/Build/Milk-V-Jupiter/RELEASE_GCC5/RISCV64/MdeModulePkg/Library/DxeCorePerformanceLib/DxeCorePerformanceLib/DEBUG/AutoGen.h"
	.file 15 "/home/kapoagaeming/spacemit-image-builder/components/edk2/MdeModulePkg/Include/Guid/Performance.h"
	.file 16 "/home/kapoagaeming/spacemit-image-builder/components/edk2/MdeModulePkg/Include/Guid/PerformanceMeasurement.h"
	.file 17 "/home/kapoagaeming/spacemit-image-builder/components/edk2/MdeModulePkg/Include/Guid/ExtendedFirmwarePerformance.h"
	.file 18 "/home/kapoagaeming/spacemit-image-builder/components/edk2/MdeModulePkg/Include/Guid/FirmwarePerformance.h"
	.file 19 "/home/kapoagaeming/spacemit-image-builder/components/edk2/MdeModulePkg/Include/Guid/PiSmmCommunicationRegionTable.h"
	.file 20 "/home/kapoagaeming/spacemit-image-builder/components/edk2/MdePkg/Include/Protocol/DriverBinding.h"
	.file 21 "/home/kapoagaeming/spacemit-image-builder/components/edk2/MdePkg/Include/Protocol/LoadedImage.h"
	.file 22 "/home/kapoagaeming/spacemit-image-builder/components/edk2/MdePkg/Include/Protocol/ComponentName2.h"
	.file 23 "/home/kapoagaeming/spacemit-image-builder/components/edk2/MdePkg/Include/Protocol/DevicePathToText.h"
	.file 24 "/home/kapoagaeming/spacemit-image-builder/components/edk2/MdePkg/Include/Protocol/MmCommunication.h"
	.file 25 "/home/kapoagaeming/spacemit-image-builder/components/edk2/MdePkg/Include/Protocol/SmmCommunication.h"
	.file 26 "/home/kapoagaeming/spacemit-image-builder/components/edk2/MdePkg/Include/Library/UefiBootServicesTableLib.h"
	.file 27 "/home/kapoagaeming/spacemit-image-builder/components/edk2/MdePkg/Include/Library/UefiRuntimeServicesTableLib.h"
	.file 28 "/home/kapoagaeming/spacemit-image-builder/components/edk2/MdePkg/Include/Library/HobLib.h"
	.file 29 "/home/kapoagaeming/spacemit-image-builder/components/edk2/MdePkg/Include/Library/ReportStatusCodeLib.h"
	.file 30 "/home/kapoagaeming/spacemit-image-builder/components/edk2/MdePkg/Include/Library/TimerLib.h"
	.file 31 "/home/kapoagaeming/spacemit-image-builder/components/edk2/MdePkg/Include/Library/DevicePathLib.h"
	.file 32 "/home/kapoagaeming/spacemit-image-builder/components/edk2/MdePkg/Include/Library/BaseLib.h"
	.file 33 "/home/kapoagaeming/spacemit-image-builder/components/edk2/MdePkg/Include/Library/BaseMemoryLib.h"
	.file 34 "/home/kapoagaeming/spacemit-image-builder/components/edk2/MdePkg/Include/Library/DxeServicesLib.h"
	.file 35 "/home/kapoagaeming/spacemit-image-builder/components/edk2/MdePkg/Include/Library/UefiLib.h"
	.file 36 "/home/kapoagaeming/spacemit-image-builder/components/edk2/MdePkg/Include/Library/PeCoffGetEntryPointLib.h"
	.file 37 "/home/kapoagaeming/spacemit-image-builder/components/edk2/MdePkg/Include/Library/MemoryAllocationLib.h"
	.section	.note.GNU-stack,"",@progbits
