	.file	"FdtDxe.c"
	.option pic
	.option norelax
	.attribute arch, "rv64i2p1_m2p0_a2p1_f2p2_d2p2_c2p0_zicsr2p0_zifencei2p0_zmmul1p0_zaamo1p0_zalrsc1p0_zca1p0_zcd1p0"
	.attribute unaligned_access, 0
	.attribute stack_align, 16
	.text
.Ltext0:
	.cfi_sections	.debug_frame
	.file 0 "/home/kapoagaeming/Downloads/spacemit-image-builder/components/Build/Milk-V-Jupiter/RELEASE_GCC5/RISCV64/Silicon/RISC-V/ProcessorPkg/Universal/FdtDxe/FdtDxe" "/home/kapoagaeming/Downloads/spacemit-image-builder/components/edk2-platforms/Silicon/RISC-V/ProcessorPkg/Universal/FdtDxe/FdtDxe.c"
	.section	.text.fdt32_to_cpu,"ax",@progbits
	.align	1
	.type	fdt32_to_cpu, @function
fdt32_to_cpu:
.LFB1:
	.file 1 "/home/kapoagaeming/Downloads/spacemit-image-builder/components/edk2/EmbeddedPkg/Include/libfdt_env.h"
	.loc 1 40 1
	.cfi_startproc
	addi	sp,sp,-32
	.cfi_def_cfa_offset 32
	sd	ra,24(sp)
	sd	s0,16(sp)
	.cfi_offset 1, -8
	.cfi_offset 8, -16
	addi	s0,sp,32
	.cfi_def_cfa 8, 0
	mv	a5,a0
	sw	a5,-20(s0)
	.loc 1 41 10
	lw	a5,-20(s0)
	mv	a0,a5
	call	SwapBytes32@plt
	mv	a5,a0
	.loc 1 42 1
	mv	a0,a5
	ld	ra,24(sp)
	.cfi_restore 1
	ld	s0,16(sp)
	.cfi_restore 8
	.cfi_def_cfa 2, 32
	addi	sp,sp,32
	.cfi_def_cfa_offset 0
	jr	ra
	.cfi_endproc
.LFE1:
	.size	fdt32_to_cpu, .-fdt32_to_cpu
	.section	.text.fdt_setprop_u32,"ax",@progbits
	.align	1
	.type	fdt_setprop_u32, @function
fdt_setprop_u32:
.LFB34:
	.file 2 "/home/kapoagaeming/Downloads/spacemit-image-builder/components/edk2/EmbeddedPkg/Include/libfdt.h"
	.loc 2 1896 1
	.cfi_startproc
	addi	sp,sp,-64
	.cfi_def_cfa_offset 64
	sd	ra,56(sp)
	sd	s0,48(sp)
	.cfi_offset 1, -8
	.cfi_offset 8, -16
	addi	s0,sp,64
	.cfi_def_cfa 8, 0
	sd	a0,-40(s0)
	mv	a5,a1
	sd	a2,-56(s0)
	mv	a4,a3
	sw	a5,-44(s0)
	mv	a5,a4
	sw	a5,-48(s0)
	.loc 2 1897 17
	lw	a5,-48(s0)
	mv	a0,a5
	call	fdt32_to_cpu
	mv	a5,a0
	.loc 2 1897 11 discriminator 1
	sw	a5,-20(s0)
	.loc 2 1899 10
	addi	a3,s0,-20
	lw	a5,-44(s0)
	li	a4,4
	ld	a2,-56(s0)
	mv	a1,a5
	ld	a0,-40(s0)
	call	fdt_setprop@plt
	mv	a5,a0
	.loc 2 1900 1
	mv	a0,a5
	ld	ra,56(sp)
	.cfi_restore 1
	ld	s0,48(sp)
	.cfi_restore 8
	.cfi_def_cfa 2, 64
	addi	sp,sp,64
	.cfi_def_cfa_offset 0
	jr	ra
	.cfi_endproc
.LFE34:
	.size	fdt_setprop_u32, .-fdt_setprop_u32
	.section	.rodata
	.align	3
.LC0:
	.string	"/chosen"
	.align	3
.LC1:
	.string	"boot-hartid"
	.section	.text.FixDtb,"ax",@progbits
	.align	1
	.globl	FixDtb
	.type	FixDtb, @function
FixDtb:
.LFB40:
	.file 3 "/home/kapoagaeming/Downloads/spacemit-image-builder/components/edk2-platforms/Silicon/RISC-V/ProcessorPkg/Universal/FdtDxe/FdtDxe.c"
	.loc 3 36 1
	.cfi_startproc
	addi	sp,sp,-48
	.cfi_def_cfa_offset 48
	sd	ra,40(sp)
	sd	s0,32(sp)
	.cfi_offset 1, -8
	.cfi_offset 8, -16
	addi	s0,sp,48
	.cfi_def_cfa 8, 0
	sd	a0,-40(s0)
	sd	a1,-48(s0)
	.loc 3 46 63
	ld	a5,-40(s0)
	lw	a5,4(a5)
	.loc 3 46 12
	mv	a0,a5
	call	fdt32_to_cpu
	mv	a5,a0
	sw	a5,-20(s0)
	.loc 3 47 47
	lw	a5,-20(s0)
	addiw	a5,a5,32
	sext.w	a5,a5
	.loc 3 47 9
	mv	a2,a5
	ld	a1,-40(s0)
	ld	a0,-40(s0)
	call	fdt_open_into@plt
	mv	a5,a0
	.loc 3 47 7 discriminator 1
	sw	a5,-24(s0)
	.loc 3 57 18
	lla	a1,.LC0
	ld	a0,-40(s0)
	call	fdt_path_offset@plt
	mv	a5,a0
	.loc 3 57 16 discriminator 1
	sw	a5,-28(s0)
	.loc 3 58 3
	lw	a5,-28(s0)
	ld	a4,-48(s0)
	sext.w	a4,a4
	mv	a3,a4
	lla	a2,.LC1
	mv	a1,a5
	ld	a0,-40(s0)
	call	fdt_setprop_u32
	.loc 3 60 10
	li	a5,0
	.loc 3 61 1
	mv	a0,a5
	ld	ra,40(sp)
	.cfi_restore 1
	ld	s0,32(sp)
	.cfi_restore 8
	.cfi_def_cfa 2, 48
	addi	sp,sp,48
	.cfi_def_cfa_offset 0
	jr	ra
	.cfi_endproc
.LFE40:
	.size	FixDtb, .-FixDtb
	.section	.text.InstallFdtFromHob,"ax",@progbits
	.align	1
	.globl	InstallFdtFromHob
	.type	InstallFdtFromHob, @function
InstallFdtFromHob:
.LFB41:
	.loc 3 75 1
	.cfi_startproc
	addi	sp,sp,-48
	.cfi_def_cfa_offset 48
	sd	ra,40(sp)
	sd	s0,32(sp)
	.cfi_offset 1, -8
	.cfi_offset 8, -16
	addi	s0,sp,48
	.cfi_def_cfa 8, 0
	.loc 3 81 13
	la	a0,gFdtHobGuid
	call	GetFirstGuidHob@plt
	mv	a5,a0
	.loc 3 81 11 discriminator 1
	sd	a5,-48(s0)
	.loc 3 82 15
	ld	a5,-48(s0)
	.loc 3 82 6
	bne	a5,zero,.L8
	.loc 3 88 12
	li	a5,-1
	slli	a5,a5,63
	addi	a5,a5,14
	j	.L11
.L8:
	.loc 3 91 54
	addi	a5,s0,-48
	.loc 3 91 43
	ld	a5,0(a5)
	.loc 3 91 65
	addi	a5,a5,24
	.loc 3 91 23
	ld	a5,0(a5)
	.loc 3 91 13
	sd	a5,-24(s0)
	.loc 3 92 53
	addi	a5,s0,-48
	.loc 3 92 25
	ld	a5,0(a5)
	.loc 3 92 64
	lhu	a5,2(a5)
	.loc 3 92 14
	addiw	a5,a5,-24
	slli	a5,a5,48
	srli	a5,a5,48
	.loc 3 92 12
	sd	a5,-32(s0)
	.loc 3 94 12
	la	a5,_gPcd_FixedAtBuild_PcdBootHartId
	lw	a5,0(a5)
	slli	a5,a5,32
	srli	a5,a5,32
	mv	a1,a5
	ld	a0,-24(s0)
	call	FixDtb
	sd	a0,-40(s0)
	.loc 3 95 34
	ld	a5,-40(s0)
	.loc 3 95 6
	bge	a5,zero,.L10
	.loc 3 96 12
	ld	a5,-40(s0)
	j	.L11
.L10:
	.loc 3 99 15
	la	a5,gBS
	ld	a5,0(a5)
	ld	a5,192(a5)
	.loc 3 99 12
	ld	a1,-24(s0)
	la	a0,gFdtTableGuid
	jalr	a5
.LVL0:
	sd	a0,-40(s0)
	.loc 3 108 10
	ld	a5,-40(s0)
.L11:
	.loc 3 109 1
	mv	a0,a5
	ld	ra,40(sp)
	.cfi_restore 1
	ld	s0,32(sp)
	.cfi_restore 8
	.cfi_def_cfa 2, 48
	addi	sp,sp,48
	.cfi_def_cfa_offset 0
	jr	ra
	.cfi_endproc
.LFE41:
	.size	InstallFdtFromHob, .-InstallFdtFromHob
	.section	.text.InstallFdt,"ax",@progbits
	.align	1
	.globl	InstallFdt
	.type	InstallFdt, @function
InstallFdt:
.LFB42:
	.loc 3 128 1
	.cfi_startproc
	addi	sp,sp,-48
	.cfi_def_cfa_offset 48
	sd	ra,40(sp)
	sd	s0,32(sp)
	.cfi_offset 1, -8
	.cfi_offset 8, -16
	addi	s0,sp,48
	.cfi_def_cfa 8, 0
	sd	a0,-40(s0)
	sd	a1,-48(s0)
	.loc 3 131 12
	call	InstallFdtFromHob
	sd	a0,-24(s0)
	.loc 3 133 10
	ld	a5,-24(s0)
	.loc 3 134 1
	mv	a0,a5
	ld	ra,40(sp)
	.cfi_restore 1
	ld	s0,32(sp)
	.cfi_restore 8
	.cfi_def_cfa 2, 48
	addi	sp,sp,48
	.cfi_def_cfa_offset 0
	jr	ra
	.cfi_endproc
.LFE42:
	.size	InstallFdt, .-InstallFdt
	.text
.Letext0:
	.file 4 "/home/kapoagaeming/Downloads/spacemit-image-builder/components/edk2/MdePkg/Include/RiscV64/ProcessorBind.h"
	.file 5 "/home/kapoagaeming/Downloads/spacemit-image-builder/components/edk2/MdePkg/Include/Base.h"
	.file 6 "/home/kapoagaeming/Downloads/spacemit-image-builder/components/edk2/MdePkg/Include/Uefi/UefiBaseType.h"
	.file 7 "/home/kapoagaeming/Downloads/spacemit-image-builder/components/edk2/MdePkg/Include/Uefi/UefiMultiPhase.h"
	.file 8 "/home/kapoagaeming/Downloads/spacemit-image-builder/components/edk2/MdePkg/Include/Protocol/DevicePath.h"
	.file 9 "/home/kapoagaeming/Downloads/spacemit-image-builder/components/edk2/MdePkg/Include/Protocol/SimpleTextIn.h"
	.file 10 "/home/kapoagaeming/Downloads/spacemit-image-builder/components/edk2/MdePkg/Include/Protocol/SimpleTextOut.h"
	.file 11 "/home/kapoagaeming/Downloads/spacemit-image-builder/components/edk2/MdePkg/Include/Uefi/UefiSpec.h"
	.file 12 "/home/kapoagaeming/Downloads/spacemit-image-builder/components/edk2/MdePkg/Include/Pi/PiHob.h"
	.file 13 "/home/kapoagaeming/Downloads/spacemit-image-builder/components/Build/Milk-V-Jupiter/RELEASE_GCC5/RISCV64/Silicon/RISC-V/ProcessorPkg/Universal/FdtDxe/FdtDxe/DEBUG/AutoGen.h"
	.file 14 "/home/kapoagaeming/Downloads/spacemit-image-builder/components/edk2/EmbeddedPkg/Include/fdt.h"
	.file 15 "/home/kapoagaeming/Downloads/spacemit-image-builder/components/edk2/MdePkg/Include/Library/HobLib.h"
	.file 16 "/home/kapoagaeming/Downloads/spacemit-image-builder/components/edk2/MdePkg/Include/Library/BaseLib.h"
	.file 17 "/home/kapoagaeming/Downloads/spacemit-image-builder/components/edk2/MdePkg/Include/Library/UefiBootServicesTableLib.h"
	.section	.note.GNU-stack,"",@progbits
