	.file	"Dmem.c"
	.option pic
	.option norelax
	.attribute arch, "rv64i2p1_m2p0_a2p1_f2p2_d2p2_c2p0_zicsr2p0_zifencei2p0_zmmul1p0_zaamo1p0_zalrsc1p0_zca1p0_zcd1p0"
	.attribute unaligned_access, 0
	.attribute stack_align, 16
	.text
.Ltext0:
	.cfi_sections	.debug_frame
	.file 0 "/home/kapoagaeming/spacemit-image-builder/components/Build/Milk-V-Jupiter/RELEASE_GCC5/RISCV64/ShellPkg/Library/UefiShellDebug1CommandsLib/UefiShellDebug1CommandsLib" "/home/kapoagaeming/spacemit-image-builder/components/edk2/ShellPkg/Library/UefiShellDebug1CommandsLib/Dmem.c"
	.section	.text.MakePrintable,"ax",@progbits
	.align	1
	.globl	MakePrintable
	.type	MakePrintable, @function
MakePrintable:
.LFB0:
	.file 1 "/home/kapoagaeming/spacemit-image-builder/components/edk2/ShellPkg/Library/UefiShellDebug1CommandsLib/Dmem.c"
	.loc 1 37 1
	.cfi_startproc
	addi	sp,sp,-32
	.cfi_def_cfa_offset 32
	sd	ra,24(sp)
	sd	s0,16(sp)
	.cfi_offset 1, -8
	.cfi_offset 8, -16
	addi	s0,sp,32
	.cfi_def_cfa 8, 0
	mv	a5,a0
	sh	a5,-18(s0)
	.loc 1 38 6
	lhu	a5,-18(s0)
	sext.w	a4,a5
	li	a5,31
	bgtu	a4,a5,.L2
	.loc 1 38 22 discriminator 1
	lhu	a5,-18(s0)
	sext.w	a5,a5
	bne	a5,zero,.L3
.L2:
	.loc 1 38 37 discriminator 3
	lhu	a5,-18(s0)
	sext.w	a4,a5
	li	a5,126
	bleu	a4,a5,.L4
.L3:
	.loc 1 39 12
	li	a5,63
	j	.L5
.L4:
	.loc 1 42 10
	lhu	a5,-18(s0)
.L5:
	.loc 1 43 1
	mv	a0,a5
	ld	ra,24(sp)
	.cfi_restore 1
	ld	s0,16(sp)
	.cfi_restore 8
	.cfi_def_cfa 2, 32
	addi	sp,sp,32
	.cfi_def_cfa_offset 0
	jr	ra
	.cfi_endproc
.LFE0:
	.size	MakePrintable, .-MakePrintable
	.section	.rodata
	.align	3
.LC0:
	.string	"d"
	.string	"m"
	.string	"e"
	.string	"m"
	.zero	2
	.section	.text.DisplayMmioMemory,"ax",@progbits
	.align	1
	.globl	DisplayMmioMemory
	.type	DisplayMmioMemory, @function
DisplayMmioMemory:
.LFB1:
	.loc 1 56 1
	.cfi_startproc
	addi	sp,sp,-64
	.cfi_def_cfa_offset 64
	sd	ra,56(sp)
	sd	s0,48(sp)
	.cfi_offset 1, -8
	.cfi_offset 8, -16
	addi	s0,sp,64
	.cfi_def_cfa 8, 0
	sd	a0,-56(s0)
	sd	a1,-64(s0)
	.loc 1 62 15
	sw	zero,-20(s0)
	.loc 1 64 15
	la	a5,gBS
	ld	a5,0(a5)
	ld	a5,320(a5)
	.loc 1 64 12
	addi	a4,s0,-48
	mv	a2,a4
	li	a1,0
	la	a0,gEfiPciRootBridgeIoProtocolGuid
	jalr	a5
.LVL0:
	sd	a0,-32(s0)
	.loc 1 65 34
	ld	a5,-32(s0)
	.loc 1 65 6
	bge	a5,zero,.L7
	.loc 1 66 5
	la	a5,gShellDebug1HiiHandle
	ld	a4,0(a5)
	lla	a5,.LC0
	li	a3,554
	li	a2,0
	li	a1,-1
	li	a0,-1
	call	ShellPrintHiiEx@plt
	.loc 1 67 12
	li	a5,14
	j	.L12
.L7:
	.loc 1 70 12
	ld	a0,-64(s0)
	call	AllocateZeroPool@plt
	sd	a0,-40(s0)
	.loc 1 71 6
	ld	a5,-40(s0)
	bne	a5,zero,.L9
	.loc 1 72 12
	li	a5,9
	j	.L12
.L9:
	.loc 1 75 19
	ld	a5,-48(s0)
	.loc 1 75 24
	ld	a5,24(a5)
	.loc 1 75 12
	ld	a0,-48(s0)
	ld	a2,-56(s0)
	ld	a4,-40(s0)
	ld	a3,-64(s0)
	li	a1,0
	jalr	a5
.LVL1:
	sd	a0,-32(s0)
	.loc 1 76 34
	ld	a5,-32(s0)
	.loc 1 76 6
	bge	a5,zero,.L10
	.loc 1 77 5
	la	a5,gShellDebug1HiiHandle
	ld	a4,0(a5)
	lla	a5,.LC0
	li	a3,555
	li	a2,0
	li	a1,-1
	li	a0,-1
	call	ShellPrintHiiEx@plt
	.loc 1 78 17
	li	a5,14
	sw	a5,-20(s0)
	j	.L11
.L10:
	.loc 1 80 5
	la	a5,gShellDebug1HiiHandle
	ld	a4,0(a5)
	ld	a5,-56(s0)
	ld	a6,-64(s0)
	li	a3,598
	li	a2,0
	li	a1,-1
	li	a0,-1
	call	ShellPrintHiiEx@plt
	.loc 1 81 5
	ld	a5,-56(s0)
	ld	a3,-40(s0)
	ld	a2,-64(s0)
	mv	a1,a5
	li	a0,2
	call	DumpHex@plt
.L11:
	.loc 1 84 3
	ld	a0,-40(s0)
	call	FreePool@plt
	.loc 1 85 10
	lw	a5,-20(s0)
.L12:
	.loc 1 86 1
	mv	a0,a5
	ld	ra,56(sp)
	.cfi_restore 1
	ld	s0,48(sp)
	.cfi_restore 8
	.cfi_def_cfa 2, 64
	addi	sp,sp,64
	.cfi_def_cfa_offset 0
	jr	ra
	.cfi_endproc
.LFE1:
	.size	DisplayMmioMemory, .-DisplayMmioMemory
	.section	.rodata
	.align	3
.LC1:
	.string	"R"
	.string	"t"
	.string	"P"
	.string	"r"
	.string	"o"
	.string	"p"
	.string	"e"
	.string	"r"
	.string	"t"
	.string	"i"
	.string	"e"
	.string	"s"
	.string	"T"
	.string	"a"
	.string	"b"
	.string	"l"
	.string	"e"
	.zero	2
	.section	.text.DisplayRtProperties,"ax",@progbits
	.align	1
	.globl	DisplayRtProperties
	.type	DisplayRtProperties, @function
DisplayRtProperties:
.LFB2:
	.loc 1 97 1
	.cfi_startproc
	addi	sp,sp,-160
	.cfi_def_cfa_offset 160
	sd	ra,152(sp)
	sd	s0,144(sp)
	.cfi_offset 1, -8
	.cfi_offset 8, -16
	addi	s0,sp,160
	.cfi_def_cfa 8, 0
	sd	a0,-56(s0)
	.loc 1 103 15
	sw	zero,-20(s0)
	.loc 1 105 6
	ld	a5,-56(s0)
	beq	a5,zero,.L14
	.loc 1 106 5
	addi	a5,s0,-40
	mv	a1,a5
	la	a0,gEfiRtPropertiesTableGuid
	call	EfiGetSystemConfigurationTable@plt
	.loc 1 108 43
	ld	a5,-40(s0)
	.loc 1 108 16
	lbu	a4,4(a5)
	lbu	a3,5(a5)
	slli	a3,a3,8
	or	a4,a3,a4
	lbu	a3,6(a5)
	slli	a3,a3,16
	or	a4,a3,a4
	lbu	a5,7(a5)
	slli	a5,a5,24
	or	a5,a5,a4
	sw	a5,-24(s0)
	.loc 1 109 14
	la	a5,gShellDebug1HiiHandle
	ld	t6,0(a5)
	.loc 1 116 46
	lw	a5,-24(s0)
	.loc 1 109 14
	andi	a5,a5,1
	sext.w	t0,a5
	.loc 1 117 46
	lw	a5,-24(s0)
	srliw	a5,a5,1
	sext.w	a5,a5
	.loc 1 109 14
	andi	a5,a5,1
	sext.w	t2,a5
	.loc 1 118 46
	lw	a5,-24(s0)
	srliw	a5,a5,2
	sext.w	a5,a5
	.loc 1 109 14
	andi	a5,a5,1
	sext.w	a5,a5
	.loc 1 119 46
	lw	a4,-24(s0)
	srliw	a4,a4,3
	sext.w	a4,a4
	.loc 1 109 14
	andi	a4,a4,1
	sext.w	a4,a4
	.loc 1 120 46
	lw	a3,-24(s0)
	srliw	a3,a3,4
	sext.w	a3,a3
	.loc 1 109 14
	andi	a3,a3,1
	sext.w	a3,a3
	.loc 1 121 46
	lw	a2,-24(s0)
	srliw	a2,a2,5
	sext.w	a2,a2
	.loc 1 109 14
	andi	a2,a2,1
	sext.w	a2,a2
	.loc 1 122 46
	lw	a1,-24(s0)
	srliw	a1,a1,6
	sext.w	a1,a1
	.loc 1 109 14
	andi	a1,a1,1
	sext.w	a1,a1
	.loc 1 123 46
	lw	a0,-24(s0)
	srliw	a0,a0,7
	sext.w	a0,a0
	.loc 1 109 14
	andi	a0,a0,1
	sext.w	a0,a0
	.loc 1 124 46
	lw	a6,-24(s0)
	srliw	a6,a6,8
	sext.w	a6,a6
	.loc 1 109 14
	andi	a6,a6,1
	sext.w	a6,a6
	.loc 1 125 46
	lw	a7,-24(s0)
	srliw	a7,a7,9
	sext.w	a7,a7
	.loc 1 109 14
	andi	a7,a7,1
	sext.w	a7,a7
	.loc 1 126 46
	lw	t1,-24(s0)
	srliw	t1,t1,10
	sext.w	t1,t1
	.loc 1 109 14
	andi	t1,t1,1
	sext.w	t1,t1
	.loc 1 127 46
	lw	t3,-24(s0)
	srliw	t3,t3,11
	sext.w	t3,t3
	.loc 1 109 14
	andi	t3,t3,1
	sext.w	t3,t3
	.loc 1 128 46
	lw	t4,-24(s0)
	srliw	t4,t4,12
	sext.w	t4,t4
	.loc 1 109 14
	andi	t4,t4,1
	sext.w	t4,t4
	.loc 1 129 46
	lw	t5,-24(s0)
	srliw	t5,t5,13
	sext.w	t5,t5
	.loc 1 109 14
	andi	t5,t5,1
	sext.w	t5,t5
	sd	t5,88(sp)
	sd	t4,80(sp)
	sd	t3,72(sp)
	sd	t1,64(sp)
	sd	a7,56(sp)
	sd	a6,48(sp)
	sd	a0,40(sp)
	sd	a1,32(sp)
	sd	a2,24(sp)
	sd	a3,16(sp)
	sd	a4,8(sp)
	sd	a5,0(sp)
	mv	a7,t2
	mv	a6,t0
	li	a5,1
	mv	a4,t6
	li	a3,600
	li	a2,0
	li	a1,-1
	li	a0,-1
	call	ShellPrintHiiEx@plt
	sd	a0,-32(s0)
	.loc 1 132 36
	ld	a5,-32(s0)
	.loc 1 132 8
	bge	a5,zero,.L15
	.loc 1 133 19
	li	a5,21
	sw	a5,-20(s0)
	.loc 1 134 7
	la	a5,gShellDebug1HiiHandle
	ld	a4,0(a5)
	lla	a5,.LC1
	li	a3,606
	li	a2,0
	li	a1,-1
	li	a0,-1
	call	ShellPrintHiiEx@plt
	j	.L15
.L14:
	.loc 1 137 5
	la	a5,gShellDebug1HiiHandle
	ld	a4,0(a5)
	lla	a5,.LC1
	li	a3,605
	li	a2,0
	li	a1,-1
	li	a0,-1
	call	ShellPrintHiiEx@plt
.L15:
	.loc 1 140 10
	lw	a5,-20(s0)
	.loc 1 141 1
	mv	a0,a5
	ld	ra,152(sp)
	.cfi_restore 1
	ld	s0,144(sp)
	.cfi_restore 8
	.cfi_def_cfa 2, 160
	addi	sp,sp,160
	.cfi_def_cfa_offset 0
	jr	ra
	.cfi_endproc
.LFE2:
	.size	DisplayRtProperties, .-DisplayRtProperties
	.section	.text.GetBaseName,"ax",@progbits
	.align	1
	.globl	GetBaseName
	.type	GetBaseName, @function
GetBaseName:
.LFB3:
	.loc 1 154 1
	.cfi_startproc
	addi	sp,sp,-48
	.cfi_def_cfa_offset 48
	sd	ra,40(sp)
	sd	s0,32(sp)
	.cfi_offset 1, -8
	.cfi_offset 8, -16
	addi	s0,sp,48
	.cfi_def_cfa 8, 0
	sd	a0,-40(s0)
	sd	a1,-48(s0)
	.loc 1 158 12
	ld	a0,-40(s0)
	call	StrSize@plt
	sd	a0,-32(s0)
	.loc 1 160 27
	ld	a5,-32(s0)
	slli	a5,a5,1
	.loc 1 160 36
	addi	a5,a5,-2
	.loc 1 160 16
	ld	a4,-40(s0)
	add	a5,a4,a5
	sd	a5,-24(s0)
	.loc 1 160 3
	j	.L18
.L20:
	.loc 1 160 90 discriminator 4
	ld	a5,-24(s0)
	addi	a5,a5,-2
	sd	a5,-24(s0)
.L18:
	.loc 1 160 61 discriminator 1
	ld	a4,-24(s0)
	ld	a5,-40(s0)
	beq	a4,a5,.L19
	.loc 1 160 64 discriminator 3
	ld	a5,-24(s0)
	lhu	a5,0(a5)
	.loc 1 160 61 discriminator 3
	sext.w	a4,a5
	li	a5,92
	bne	a4,a5,.L20
.L19:
	.loc 1 163 6
	ld	a4,-24(s0)
	ld	a5,-40(s0)
	bne	a4,a5,.L21
	.loc 1 164 12
	li	a5,-1
	slli	a5,a5,63
	addi	a5,a5,14
	j	.L22
.L21:
	.loc 1 167 22
	ld	a5,-24(s0)
	addi	a4,a5,2
	.loc 1 167 13
	ld	a5,-48(s0)
	sd	a4,0(a5)
	.loc 1 169 10
	li	a5,0
.L22:
	.loc 1 170 1
	mv	a0,a5
	ld	ra,40(sp)
	.cfi_restore 1
	ld	s0,32(sp)
	.cfi_restore 8
	.cfi_def_cfa 2, 48
	addi	sp,sp,48
	.cfi_def_cfa_offset 0
	jr	ra
	.cfi_endproc
.LFE3:
	.size	GetBaseName, .-GetBaseName
	.section	.rodata
	.align	3
.LC2:
	.string	"A"
	.string	"U"
	.string	"T"
	.string	"H"
	.string	"E"
	.string	"N"
	.string	"T"
	.string	"I"
	.string	"C"
	.string	"A"
	.string	"T"
	.string	"I"
	.string	"O"
	.string	"N"
	.zero	2
	.align	3
.LC3:
	.string	"A"
	.string	"U"
	.string	"T"
	.string	"H"
	.string	"_"
	.string	"U"
	.string	"N"
	.string	"T"
	.string	"E"
	.string	"S"
	.string	"T"
	.string	"E"
	.string	"D"
	.zero	2
	.align	3
.LC4:
	.string	"A"
	.string	"U"
	.string	"T"
	.string	"H"
	.string	"_"
	.string	"S"
	.string	"I"
	.string	"G"
	.string	"_"
	.string	"F"
	.string	"A"
	.string	"I"
	.string	"L"
	.string	"E"
	.string	"D"
	.zero	2
	.align	3
.LC5:
	.string	"A"
	.string	"U"
	.string	"T"
	.string	"H"
	.string	"_"
	.string	"S"
	.string	"I"
	.string	"G"
	.string	"_"
	.string	"P"
	.string	"A"
	.string	"S"
	.string	"S"
	.string	"E"
	.string	"D"
	.zero	2
	.align	3
.LC6:
	.string	"A"
	.string	"U"
	.string	"T"
	.string	"H"
	.string	"_"
	.string	"S"
	.string	"I"
	.string	"G"
	.string	"_"
	.string	"N"
	.string	"O"
	.string	"T"
	.string	"_"
	.string	"F"
	.string	"O"
	.string	"U"
	.string	"N"
	.string	"D"
	.zero	2
	.align	3
.LC7:
	.string	"A"
	.string	"U"
	.string	"T"
	.string	"H"
	.string	"_"
	.string	"S"
	.string	"I"
	.string	"G"
	.string	"_"
	.string	"F"
	.string	"O"
	.string	"U"
	.string	"N"
	.string	"D"
	.zero	2
	.align	3
.LC8:
	.string	"P"
	.string	"O"
	.string	"L"
	.string	"I"
	.string	"C"
	.string	"Y"
	.string	"_"
	.string	"F"
	.string	"A"
	.string	"I"
	.string	"L"
	.string	"E"
	.string	"D"
	.zero	2
	.align	3
.LC9:
	.string	"I"
	.string	"N"
	.string	"I"
	.string	"T"
	.string	"I"
	.string	"A"
	.string	"L"
	.string	"I"
	.string	"Z"
	.string	"E"
	.string	"D"
	.zero	2
	.align	3
.LC10:
	.string	"i"
	.string	"n"
	.string	"v"
	.string	"a"
	.string	"l"
	.string	"i"
	.string	"d"
	.string	" "
	.string	"a"
	.string	"c"
	.string	"t"
	.string	"i"
	.string	"o"
	.string	"n"
	.zero	2
	.section	.text.GetImageExecutionInfo,"ax",@progbits
	.align	1
	.globl	GetImageExecutionInfo
	.type	GetImageExecutionInfo, @function
GetImageExecutionInfo:
.LFB4:
	.loc 1 178 1
	.cfi_startproc
	addi	sp,sp,-96
	.cfi_def_cfa_offset 96
	sd	ra,88(sp)
	sd	s0,80(sp)
	.cfi_offset 1, -8
	.cfi_offset 8, -16
	addi	s0,sp,96
	.cfi_def_cfa 8, 0
	.loc 1 189 3
	addi	a5,s0,-80
	mv	a1,a5
	la	a0,gEfiImageSecurityDatabaseGuid
	call	EfiGetSystemConfigurationTable@plt
	.loc 1 191 37
	ld	a5,-80(s0)
	.loc 1 191 18
	sd	a5,-56(s0)
	.loc 1 193 9
	ld	a5,-80(s0)
	.loc 1 193 7
	addi	a5,a5,1
	sd	a5,-32(s0)
	.loc 1 195 10
	li	a5,-1
	slli	a5,a5,63
	addi	a5,a5,14
	sd	a5,-24(s0)
	.loc 1 197 14
	sd	zero,-40(s0)
	.loc 1 197 3
	j	.L24
.L35:
	.loc 1 198 13
	ld	a5,-32(s0)
	sd	a5,-64(s0)
	.loc 1 199 15
	ld	a5,-64(s0)
	addi	a5,a5,8
	sd	a5,-72(s0)
	.loc 1 201 5
	addi	a5,s0,-88
	mv	a1,a5
	ld	a0,-72(s0)
	call	GetBaseName
	.loc 1 203 20
	ld	a5,-64(s0)
	lw	a5,0(a5)
	.loc 1 203 5
	li	a4,8
	beq	a5,a4,.L25
	li	a4,8
	bgtu	a5,a4,.L26
	li	a4,7
	beq	a5,a4,.L27
	li	a4,7
	bgtu	a5,a4,.L26
	li	a4,5
	beq	a5,a4,.L28
	li	a4,5
	bgtu	a5,a4,.L26
	li	a4,4
	beq	a5,a4,.L29
	li	a4,4
	bgtu	a5,a4,.L26
	li	a4,3
	beq	a5,a4,.L30
	li	a4,3
	bgtu	a5,a4,.L26
	li	a4,2
	beq	a5,a4,.L31
	li	a4,2
	bgtu	a5,a4,.L26
	beq	a5,zero,.L32
	li	a4,1
	beq	a5,a4,.L33
	j	.L26
.L27:
	.loc 1 205 20
	lla	a5,.LC2
	sd	a5,-48(s0)
	.loc 1 206 9
	j	.L34
.L32:
	.loc 1 208 20
	lla	a5,.LC3
	sd	a5,-48(s0)
	.loc 1 209 9
	j	.L34
.L33:
	.loc 1 211 20
	lla	a5,.LC4
	sd	a5,-48(s0)
	.loc 1 212 9
	j	.L34
.L31:
	.loc 1 214 20
	lla	a5,.LC5
	sd	a5,-48(s0)
	.loc 1 215 9
	j	.L34
.L30:
	.loc 1 217 20
	lla	a5,.LC6
	sd	a5,-48(s0)
	.loc 1 218 9
	j	.L34
.L29:
	.loc 1 220 20
	lla	a5,.LC7
	sd	a5,-48(s0)
	.loc 1 221 9
	j	.L34
.L28:
	.loc 1 223 20
	lla	a5,.LC8
	sd	a5,-48(s0)
	.loc 1 224 9
	j	.L34
.L25:
	.loc 1 226 20
	lla	a5,.LC9
	sd	a5,-48(s0)
	.loc 1 227 9
	j	.L34
.L26:
	.loc 1 229 20
	lla	a5,.LC10
	sd	a5,-48(s0)
.L34:
	.loc 1 232 14
	la	a5,gShellDebug1HiiHandle
	ld	a4,0(a5)
	ld	a5,-88(s0)
	ld	a6,-48(s0)
	li	a3,602
	li	a2,0
	li	a1,-1
	li	a0,-1
	call	ShellPrintHiiEx@plt
	sd	a0,-24(s0)
	.loc 1 197 49 discriminator 2
	ld	a5,-40(s0)
	addi	a5,a5,1
	sd	a5,-40(s0)
	.loc 1 197 67 discriminator 2
	ld	a5,-64(s0)
	lw	a5,4(a5)
	slli	a5,a5,32
	srli	a5,a5,32
	.loc 1 197 57 discriminator 2
	ld	a4,-32(s0)
	add	a5,a4,a5
	sd	a5,-32(s0)
.L24:
	.loc 1 197 27 discriminator 1
	ld	a5,-56(s0)
	ld	a5,0(a5)
	.loc 1 197 25 discriminator 1
	ld	a4,-40(s0)
	bltu	a4,a5,.L35
	.loc 1 243 10
	ld	a5,-24(s0)
	.loc 1 244 1
	mv	a0,a5
	ld	ra,88(sp)
	.cfi_restore 1
	ld	s0,80(sp)
	.cfi_restore 8
	.cfi_def_cfa 2, 96
	addi	sp,sp,96
	.cfi_def_cfa_offset 0
	jr	ra
	.cfi_endproc
.LFE4:
	.size	GetImageExecutionInfo, .-GetImageExecutionInfo
	.section	.rodata
	.align	3
.LC11:
	.string	"I"
	.string	"m"
	.string	"a"
	.string	"g"
	.string	"e"
	.string	"E"
	.string	"x"
	.string	"e"
	.string	"c"
	.string	"u"
	.string	"t"
	.string	"i"
	.string	"o"
	.string	"n"
	.string	"T"
	.string	"a"
	.string	"b"
	.string	"l"
	.string	"e"
	.zero	2
	.section	.text.DisplayImageExecutionEntries,"ax",@progbits
	.align	1
	.globl	DisplayImageExecutionEntries
	.type	DisplayImageExecutionEntries, @function
DisplayImageExecutionEntries:
.LFB5:
	.loc 1 255 1
	.cfi_startproc
	addi	sp,sp,-48
	.cfi_def_cfa_offset 48
	sd	ra,40(sp)
	sd	s0,32(sp)
	.cfi_offset 1, -8
	.cfi_offset 8, -16
	addi	s0,sp,48
	.cfi_def_cfa 8, 0
	sd	a0,-40(s0)
	.loc 1 259 15
	sw	zero,-20(s0)
	.loc 1 261 6
	ld	a5,-40(s0)
	beq	a5,zero,.L38
	.loc 1 262 5
	la	a5,gShellDebug1HiiHandle
	ld	a5,0(a5)
	mv	a4,a5
	li	a3,601
	li	a2,0
	li	a1,-1
	li	a0,-1
	call	ShellPrintHiiEx@plt
	.loc 1 263 14
	call	GetImageExecutionInfo
	sd	a0,-32(s0)
	.loc 1 264 36
	ld	a5,-32(s0)
	.loc 1 264 8
	bge	a5,zero,.L39
	.loc 1 265 19
	li	a5,21
	sw	a5,-20(s0)
	.loc 1 266 7
	la	a5,gShellDebug1HiiHandle
	ld	a4,0(a5)
	lla	a5,.LC11
	li	a3,606
	li	a2,0
	li	a1,-1
	li	a0,-1
	call	ShellPrintHiiEx@plt
	j	.L39
.L38:
	.loc 1 269 5
	la	a5,gShellDebug1HiiHandle
	ld	a4,0(a5)
	lla	a5,.LC11
	li	a3,605
	li	a2,0
	li	a1,-1
	li	a0,-1
	call	ShellPrintHiiEx@plt
.L39:
	.loc 1 272 10
	lw	a5,-20(s0)
	.loc 1 273 1
	mv	a0,a5
	ld	ra,40(sp)
	.cfi_restore 1
	ld	s0,32(sp)
	.cfi_restore 8
	.cfi_def_cfa 2, 48
	addi	sp,sp,48
	.cfi_def_cfa_offset 0
	jr	ra
	.cfi_endproc
.LFE5:
	.size	DisplayImageExecutionEntries, .-DisplayImageExecutionEntries
	.section	.rodata
	.align	3
.LC12:
	.string	"U"
	.string	"n"
	.string	"k"
	.string	"n"
	.string	"o"
	.string	"w"
	.string	"n"
	.string	"_"
	.string	"P"
	.string	"r"
	.string	"o"
	.string	"f"
	.string	"i"
	.string	"l"
	.string	"e"
	.zero	2
	.align	3
.LC13:
	.string	"E"
	.string	"F"
	.string	"I"
	.string	"_"
	.string	"C"
	.string	"O"
	.string	"N"
	.string	"F"
	.string	"O"
	.string	"R"
	.string	"M"
	.string	"A"
	.string	"N"
	.string	"C"
	.string	"E"
	.string	"_"
	.string	"P"
	.string	"R"
	.string	"O"
	.string	"F"
	.string	"I"
	.string	"L"
	.string	"E"
	.string	"_"
	.string	"U"
	.string	"E"
	.string	"F"
	.string	"I"
	.string	"_"
	.string	"S"
	.string	"P"
	.string	"E"
	.string	"C"
	.string	"_"
	.string	"G"
	.string	"U"
	.string	"I"
	.string	"D"
	.zero	2
	.align	3
.LC14:
	.string	"E"
	.string	"B"
	.string	"B"
	.string	"R"
	.string	"_"
	.string	"2"
	.string	"."
	.string	"1"
	.zero	2
	.align	3
.LC15:
	.string	"E"
	.string	"B"
	.string	"B"
	.string	"R"
	.string	"_"
	.string	"2"
	.string	"."
	.string	"2"
	.zero	2
	.align	3
.LC16:
	.string	"C"
	.string	"o"
	.string	"m"
	.string	"f"
	.string	"o"
	.string	"r"
	.string	"m"
	.string	"a"
	.string	"n"
	.string	"c"
	.string	"e"
	.string	"P"
	.string	"r"
	.string	"o"
	.string	"f"
	.string	"i"
	.string	"l"
	.string	"e"
	.string	"s"
	.string	"T"
	.string	"a"
	.string	"b"
	.string	"l"
	.string	"e"
	.zero	2
	.align	3
.LC17:
	.string	"E"
	.string	"F"
	.string	"I"
	.string	"_"
	.string	"C"
	.string	"O"
	.string	"N"
	.string	"F"
	.string	"O"
	.string	"R"
	.string	"M"
	.string	"A"
	.string	"N"
	.string	"C"
	.string	"E"
	.string	"_"
	.string	"P"
	.string	"R"
	.string	"O"
	.string	"F"
	.string	"I"
	.string	"L"
	.string	"E"
	.string	"S"
	.string	"_"
	.string	"U"
	.string	"E"
	.string	"F"
	.string	"I"
	.string	"_"
	.string	"S"
	.string	"P"
	.string	"E"
	.string	"C"
	.string	"_"
	.string	"G"
	.string	"U"
	.string	"I"
	.string	"D"
	.zero	2
	.section	.text.DisplayConformanceProfiles,"ax",@progbits
	.align	1
	.globl	DisplayConformanceProfiles
	.type	DisplayConformanceProfiles, @function
DisplayConformanceProfiles:
.LFB6:
	.loc 1 284 1
	.cfi_startproc
	addi	sp,sp,-80
	.cfi_def_cfa_offset 80
	sd	ra,72(sp)
	sd	s0,64(sp)
	.cfi_offset 1, -8
	.cfi_offset 8, -16
	addi	s0,sp,80
	.cfi_def_cfa 8, 0
	sd	a0,-72(s0)
	.loc 1 292 10
	sd	zero,-32(s0)
	.loc 1 293 15
	sw	zero,-20(s0)
	.loc 1 295 6
	ld	a5,-72(s0)
	beq	a5,zero,.L42
	.loc 1 296 5
	addi	a5,s0,-64
	mv	a1,a5
	la	a0,gEfiConfProfilesTableGuid
	call	EfiGetSystemConfigurationTable@plt
	.loc 1 298 5
	la	a5,gShellDebug1HiiHandle
	ld	a5,0(a5)
	mv	a4,a5
	li	a3,603
	li	a2,0
	li	a1,-1
	li	a0,-1
	call	ShellPrintHiiEx@plt
	.loc 1 300 44
	ld	a5,-64(s0)
	.loc 1 300 15
	addi	a5,a5,4
	sd	a5,-40(s0)
	.loc 1 302 18
	sd	zero,-56(s0)
	.loc 1 302 5
	j	.L43
.L47:
	.loc 1 303 16
	lla	a5,.LC12
	sd	a5,-48(s0)
	.loc 1 305 11
	la	a1,gEfiConfProfilesUefiSpecGuid
	ld	a0,-40(s0)
	call	CompareGuid@plt
	mv	a5,a0
	.loc 1 305 10 discriminator 1
	beq	a5,zero,.L44
	.loc 1 306 18
	lla	a5,.LC13
	sd	a5,-48(s0)
.L44:
	.loc 1 309 11
	la	a1,gEfiConfProfilesEbbrSpec21Guid
	ld	a0,-40(s0)
	call	CompareGuid@plt
	mv	a5,a0
	.loc 1 309 10 discriminator 1
	beq	a5,zero,.L45
	.loc 1 310 18
	lla	a5,.LC14
	sd	a5,-48(s0)
.L45:
	.loc 1 313 11
	la	a1,gEfiConfProfilesEbbrSpec22Guid
	ld	a0,-40(s0)
	call	CompareGuid@plt
	mv	a5,a0
	.loc 1 313 10 discriminator 1
	beq	a5,zero,.L46
	.loc 1 314 18
	lla	a5,.LC15
	sd	a5,-48(s0)
.L46:
	.loc 1 317 16
	la	a5,gShellDebug1HiiHandle
	ld	a4,0(a5)
	ld	a6,-40(s0)
	ld	a5,-48(s0)
	li	a3,604
	li	a2,0
	li	a1,-1
	li	a0,-1
	call	ShellPrintHiiEx@plt
	sd	a0,-32(s0)
	.loc 1 302 73 discriminator 2
	ld	a5,-56(s0)
	addi	a5,a5,1
	sd	a5,-56(s0)
	.loc 1 302 86 discriminator 2
	ld	a5,-40(s0)
	addi	a5,a5,16
	sd	a5,-40(s0)
.L43:
	.loc 1 302 46 discriminator 1
	ld	a5,-64(s0)
	lbu	a4,2(a5)
	lbu	a5,3(a5)
	slli	a5,a5,8
	or	a5,a5,a4
	slli	a5,a5,48
	srli	a5,a5,48
	mv	a4,a5
	.loc 1 302 31 discriminator 1
	ld	a5,-56(s0)
	bltu	a5,a4,.L47
	.loc 1 328 36
	ld	a5,-32(s0)
	.loc 1 328 8
	bge	a5,zero,.L48
	.loc 1 329 19
	li	a5,21
	sw	a5,-20(s0)
	.loc 1 330 7
	la	a5,gShellDebug1HiiHandle
	ld	a4,0(a5)
	lla	a5,.LC16
	li	a3,606
	li	a2,0
	li	a1,-1
	li	a0,-1
	call	ShellPrintHiiEx@plt
	j	.L48
.L42:
	.loc 1 333 5
	la	a5,gShellDebug1HiiHandle
	ld	a5,0(a5)
	mv	a4,a5
	li	a3,603
	li	a2,0
	li	a1,-1
	li	a0,-1
	call	ShellPrintHiiEx@plt
	.loc 1 334 5
	la	a5,gShellDebug1HiiHandle
	ld	a4,0(a5)
	la	a6,gEfiConfProfilesUefiSpecGuid
	lla	a5,.LC17
	li	a3,604
	li	a2,0
	li	a1,-1
	li	a0,-1
	call	ShellPrintHiiEx@plt
.L48:
	.loc 1 345 10
	lw	a5,-20(s0)
	.loc 1 346 1
	mv	a0,a5
	ld	ra,72(sp)
	.cfi_restore 1
	ld	s0,64(sp)
	.cfi_restore 8
	.cfi_def_cfa 2, 80
	addi	sp,sp,80
	.cfi_def_cfa_offset 0
	jr	ra
	.cfi_endproc
.LFE6:
	.size	DisplayConformanceProfiles, .-DisplayConformanceProfiles
	.section	.rodata
	.align	3
.LC18:
	.string	"-"
	.string	"m"
	.string	"m"
	.string	"i"
	.string	"o"
	.zero	2
	.align	3
.LC19:
	.string	"-"
	.string	"v"
	.string	"e"
	.string	"r"
	.string	"b"
	.string	"o"
	.string	"s"
	.string	"e"
	.zero	2
	.section	.data.rel.ro.local.ParamList,"aw"
	.align	3
	.type	ParamList, @object
	.size	ParamList, 48
ParamList:
	.dword	.LC18
	.word	0
	.zero	4
	.dword	.LC19
	.word	0
	.zero	4
	.dword	0
	.word	7
	.zero	4
	.section	.text.ShellCommandRunDmem,"ax",@progbits
	.align	1
	.globl	ShellCommandRunDmem
	.type	ShellCommandRunDmem, @function
ShellCommandRunDmem:
.LFB7:
	.loc 1 366 1
	.cfi_startproc
	addi	sp,sp,-416
	.cfi_def_cfa_offset 416
	sd	ra,408(sp)
	sd	s0,400(sp)
	.cfi_offset 1, -8
	.cfi_offset 8, -16
	addi	s0,sp,416
	.cfi_def_cfa 8, 0
	sd	a0,-232(s0)
	sd	a1,-240(s0)
	.loc 1 393 15
	sw	zero,-20(s0)
	.loc 1 394 10
	sd	zero,-152(s0)
	.loc 1 395 11
	sd	zero,-208(s0)
	.loc 1 396 8
	sd	zero,-216(s0)
	.loc 1 401 12
	call	ShellInitialize@plt
	sd	a0,-152(s0)
	.loc 1 404 12
	call	CommandInit@plt
	sd	a0,-152(s0)
	.loc 1 410 12
	addi	a2,s0,-200
	addi	a5,s0,-192
	li	a4,0
	li	a3,1
	mv	a1,a5
	lla	a0,ParamList
	call	ShellCommandLineParseEx@plt
	sd	a0,-152(s0)
	.loc 1 411 34
	ld	a5,-152(s0)
	.loc 1 411 6
	bge	a5,zero,.L51
	.loc 1 412 8
	ld	a4,-152(s0)
	li	a5,-1
	slli	a5,a5,63
	addi	a5,a5,10
	bne	a4,a5,.L52
	.loc 1 412 86 discriminator 1
	ld	a5,-200(s0)
	.loc 1 412 69 discriminator 1
	beq	a5,zero,.L52
	.loc 1 413 7
	la	a5,gShellDebug1HiiHandle
	ld	a4,0(a5)
	ld	a5,-200(s0)
	mv	a6,a5
	lla	a5,.LC0
	li	a3,548
	li	a2,0
	li	a1,-1
	li	a0,-1
	call	ShellPrintHiiEx@plt
	.loc 1 414 7
	ld	a5,-200(s0)
	mv	a0,a5
	call	FreePool@plt
	.loc 1 415 19
	li	a5,2
	sw	a5,-20(s0)
	j	.L52
.L51:
	.loc 1 420 9
	ld	a5,-192(s0)
	mv	a0,a5
	call	ShellCommandLineGetCount@plt
	mv	a4,a0
	.loc 1 420 8 discriminator 1
	li	a5,3
	bleu	a4,a5,.L53
	.loc 1 421 7
	la	a5,gShellDebug1HiiHandle
	ld	a4,0(a5)
	lla	a5,.LC0
	li	a3,553
	li	a2,0
	li	a1,-1
	li	a0,-1
	call	ShellPrintHiiEx@plt
	.loc 1 422 19
	li	a5,2
	sw	a5,-20(s0)
	j	.L54
.L53:
	.loc 1 424 15
	ld	a5,-192(s0)
	li	a1,1
	mv	a0,a5
	call	ShellCommandLineGetRawValue@plt
	sd	a0,-160(s0)
	.loc 1 425 10
	ld	a5,-160(s0)
	bne	a5,zero,.L55
	.loc 1 426 17
	la	a5,gST
	ld	a5,0(a5)
	sd	a5,-208(s0)
	.loc 1 427 14
	li	a5,120
	sd	a5,-216(s0)
	j	.L54
.L55:
	.loc 1 429 14
	li	a2,0
	li	a1,1
	ld	a0,-160(s0)
	call	ShellIsHexOrDecimalNumber@plt
	mv	a5,a0
	.loc 1 429 12 discriminator 1
	beq	a5,zero,.L56
	.loc 1 429 107 discriminator 2
	addi	a5,s0,-208
	li	a3,0
	li	a2,1
	mv	a1,a5
	ld	a0,-160(s0)
	call	ShellConvertStringToUint64@plt
	mv	a5,a0
	.loc 1 429 86 discriminator 3
	bge	a5,zero,.L57
.L56:
	.loc 1 430 11
	la	a5,gShellDebug1HiiHandle
	ld	a4,0(a5)
	ld	a6,-160(s0)
	lla	a5,.LC0
	li	a3,556
	li	a2,0
	li	a1,-1
	li	a0,-1
	call	ShellPrintHiiEx@plt
	.loc 1 431 23
	li	a5,2
	sw	a5,-20(s0)
.L57:
	.loc 1 434 17
	ld	a5,-192(s0)
	li	a1,2
	mv	a0,a5
	call	ShellCommandLineGetRawValue@plt
	sd	a0,-160(s0)
	.loc 1 435 12
	ld	a5,-160(s0)
	bne	a5,zero,.L58
	.loc 1 436 16
	li	a5,512
	sd	a5,-216(s0)
	j	.L54
.L58:
	.loc 1 438 16
	li	a2,0
	li	a1,0
	ld	a0,-160(s0)
	call	ShellIsHexOrDecimalNumber@plt
	mv	a5,a0
	.loc 1 438 14 discriminator 1
	beq	a5,zero,.L59
	.loc 1 438 109 discriminator 2
	addi	a5,s0,-216
	li	a3,0
	li	a2,1
	mv	a1,a5
	ld	a0,-160(s0)
	call	ShellConvertStringToUint64@plt
	mv	a5,a0
	.loc 1 438 88 discriminator 3
	bge	a5,zero,.L54
.L59:
	.loc 1 439 13
	la	a5,gShellDebug1HiiHandle
	ld	a4,0(a5)
	ld	a6,-160(s0)
	lla	a5,.LC0
	li	a3,556
	li	a2,0
	li	a1,-1
	li	a0,-1
	call	ShellPrintHiiEx@plt
	.loc 1 440 25
	li	a5,2
	sw	a5,-20(s0)
.L54:
	.loc 1 446 8
	lw	a5,-20(s0)
	sext.w	a5,a5
	bne	a5,zero,.L60
	.loc 1 447 12
	ld	a5,-192(s0)
	lla	a1,.LC18
	mv	a0,a5
	call	ShellCommandLineGetFlag@plt
	mv	a5,a0
	.loc 1 447 10 discriminator 1
	bne	a5,zero,.L61
	.loc 1 448 9
	la	a5,gShellDebug1HiiHandle
	ld	a4,0(a5)
	ld	a5,-208(s0)
	mv	a3,a5
	ld	a5,-216(s0)
	mv	a6,a5
	mv	a5,a3
	li	a3,597
	li	a2,0
	li	a1,-1
	li	a0,-1
	call	ShellPrintHiiEx@plt
	.loc 1 449 9
	ld	a5,-208(s0)
	mv	a1,a5
	ld	a5,-216(s0)
	ld	a4,-208(s0)
	mv	a3,a4
	mv	a2,a5
	li	a0,2
	call	DumpHex@plt
	.loc 1 450 21
	ld	a4,-208(s0)
	.loc 1 450 24
	la	a5,gST
	ld	a5,0(a5)
	.loc 1 450 12
	bne	a4,a5,.L60
	.loc 1 451 30
	sd	zero,-40(s0)
	.loc 1 452 28
	sd	zero,-32(s0)
	.loc 1 453 27
	sd	zero,-168(s0)
	.loc 1 454 30
	sd	zero,-48(s0)
	.loc 1 455 27
	sd	zero,-56(s0)
	.loc 1 456 27
	sd	zero,-176(s0)
	.loc 1 457 40
	sd	zero,-64(s0)
	.loc 1 458 36
	sd	zero,-72(s0)
	.loc 1 459 38
	sd	zero,-80(s0)
	.loc 1 460 38
	sd	zero,-88(s0)
	.loc 1 461 38
	sd	zero,-96(s0)
	.loc 1 462 38
	sd	zero,-104(s0)
	.loc 1 463 39
	sd	zero,-112(s0)
	.loc 1 464 41
	sd	zero,-120(s0)
	.loc 1 465 37
	sd	zero,-184(s0)
	.loc 1 466 42
	sd	zero,-128(s0)
	.loc 1 467 42
	sd	zero,-136(s0)
	.loc 1 468 28
	sd	zero,-144(s0)
	.loc 1 468 11
	j	.L62
.L78:
	.loc 1 469 34
	la	a5,gST
	ld	a5,0(a5)
	ld	a3,112(a5)
	.loc 1 469 54
	ld	a4,-144(s0)
	mv	a5,a4
	slli	a5,a5,1
	add	a5,a5,a4
	slli	a5,a5,3
	add	a5,a3,a5
	.loc 1 469 17
	la	a1,gEfiAcpi20TableGuid
	mv	a0,a5
	call	CompareGuid@plt
	mv	a5,a0
	.loc 1 469 16 discriminator 1
	beq	a5,zero,.L63
	.loc 1 470 54
	la	a5,gST
	ld	a5,0(a5)
	ld	a3,112(a5)
	.loc 1 470 74
	ld	a4,-144(s0)
	mv	a5,a4
	slli	a5,a5,1
	add	a5,a5,a4
	slli	a5,a5,3
	add	a5,a3,a5
	.loc 1 470 87
	ld	a5,16(a5)
	.loc 1 470 34
	sd	a5,-40(s0)
	.loc 1 471 15
	j	.L64
.L63:
	.loc 1 474 34
	la	a5,gST
	ld	a5,0(a5)
	ld	a3,112(a5)
	.loc 1 474 54
	ld	a4,-144(s0)
	mv	a5,a4
	slli	a5,a5,1
	add	a5,a5,a4
	slli	a5,a5,3
	add	a5,a3,a5
	.loc 1 474 17
	la	a1,gEfiAcpi10TableGuid
	mv	a0,a5
	call	CompareGuid@plt
	mv	a5,a0
	.loc 1 474 16 discriminator 1
	beq	a5,zero,.L65
	.loc 1 475 52
	la	a5,gST
	ld	a5,0(a5)
	ld	a3,112(a5)
	.loc 1 475 72
	ld	a4,-144(s0)
	mv	a5,a4
	slli	a5,a5,1
	add	a5,a5,a4
	slli	a5,a5,3
	add	a5,a3,a5
	.loc 1 475 85
	ld	a5,16(a5)
	.loc 1 475 32
	sd	a5,-32(s0)
	.loc 1 476 15
	j	.L64
.L65:
	.loc 1 479 34
	la	a5,gST
	ld	a5,0(a5)
	ld	a3,112(a5)
	.loc 1 479 54
	ld	a4,-144(s0)
	mv	a5,a4
	slli	a5,a5,1
	add	a5,a5,a4
	slli	a5,a5,3
	add	a5,a3,a5
	.loc 1 479 17
	la	a1,gEfiSmbiosTableGuid
	mv	a0,a5
	call	CompareGuid@plt
	mv	a5,a0
	.loc 1 479 16 discriminator 1
	beq	a5,zero,.L66
	.loc 1 480 54
	la	a5,gST
	ld	a5,0(a5)
	ld	a3,112(a5)
	.loc 1 480 74
	ld	a4,-144(s0)
	mv	a5,a4
	slli	a5,a5,1
	add	a5,a5,a4
	slli	a5,a5,3
	add	a5,a3,a5
	.loc 1 480 87
	ld	a5,16(a5)
	.loc 1 480 34
	sd	a5,-48(s0)
	.loc 1 481 15
	j	.L64
.L66:
	.loc 1 484 34
	la	a5,gST
	ld	a5,0(a5)
	ld	a3,112(a5)
	.loc 1 484 54
	ld	a4,-144(s0)
	mv	a5,a4
	slli	a5,a5,1
	add	a5,a5,a4
	slli	a5,a5,3
	add	a5,a3,a5
	.loc 1 484 17
	la	a1,gEfiSmbios3TableGuid
	mv	a0,a5
	call	CompareGuid@plt
	mv	a5,a0
	.loc 1 484 16 discriminator 1
	beq	a5,zero,.L67
	.loc 1 485 54
	la	a5,gST
	ld	a5,0(a5)
	ld	a3,112(a5)
	.loc 1 485 74
	ld	a4,-144(s0)
	mv	a5,a4
	slli	a5,a5,1
	add	a5,a5,a4
	slli	a5,a5,3
	add	a5,a3,a5
	.loc 1 485 87
	ld	a5,16(a5)
	.loc 1 485 34
	sd	a5,-48(s0)
	.loc 1 486 15
	j	.L64
.L67:
	.loc 1 489 34
	la	a5,gST
	ld	a5,0(a5)
	ld	a3,112(a5)
	.loc 1 489 54
	ld	a4,-144(s0)
	mv	a5,a4
	slli	a5,a5,1
	add	a5,a5,a4
	slli	a5,a5,3
	add	a5,a3,a5
	.loc 1 489 17
	la	a1,gEfiMpsTableGuid
	mv	a0,a5
	call	CompareGuid@plt
	mv	a5,a0
	.loc 1 489 16 discriminator 1
	beq	a5,zero,.L68
	.loc 1 490 51
	la	a5,gST
	ld	a5,0(a5)
	ld	a3,112(a5)
	.loc 1 490 71
	ld	a4,-144(s0)
	mv	a5,a4
	slli	a5,a5,1
	add	a5,a5,a4
	slli	a5,a5,3
	add	a5,a3,a5
	.loc 1 490 84
	ld	a5,16(a5)
	.loc 1 490 31
	sd	a5,-56(s0)
	.loc 1 491 15
	j	.L64
.L68:
	.loc 1 494 34
	la	a5,gST
	ld	a5,0(a5)
	ld	a3,112(a5)
	.loc 1 494 54
	ld	a4,-144(s0)
	mv	a5,a4
	slli	a5,a5,1
	add	a5,a5,a4
	slli	a5,a5,3
	add	a5,a3,a5
	.loc 1 494 17
	la	a1,gEfiMemoryAttributesTableGuid
	mv	a0,a5
	call	CompareGuid@plt
	mv	a5,a0
	.loc 1 494 16 discriminator 1
	beq	a5,zero,.L69
	.loc 1 495 64
	la	a5,gST
	ld	a5,0(a5)
	ld	a3,112(a5)
	.loc 1 495 84
	ld	a4,-144(s0)
	mv	a5,a4
	slli	a5,a5,1
	add	a5,a5,a4
	slli	a5,a5,3
	add	a5,a3,a5
	.loc 1 495 97
	ld	a5,16(a5)
	.loc 1 495 44
	sd	a5,-64(s0)
	.loc 1 496 15
	j	.L64
.L69:
	.loc 1 499 34
	la	a5,gST
	ld	a5,0(a5)
	ld	a3,112(a5)
	.loc 1 499 54
	ld	a4,-144(s0)
	mv	a5,a4
	slli	a5,a5,1
	add	a5,a5,a4
	slli	a5,a5,3
	add	a5,a3,a5
	.loc 1 499 17
	la	a1,gEfiRtPropertiesTableGuid
	mv	a0,a5
	call	CompareGuid@plt
	mv	a5,a0
	.loc 1 499 16 discriminator 1
	beq	a5,zero,.L70
	.loc 1 500 60
	la	a5,gST
	ld	a5,0(a5)
	ld	a3,112(a5)
	.loc 1 500 80
	ld	a4,-144(s0)
	mv	a5,a4
	slli	a5,a5,1
	add	a5,a5,a4
	slli	a5,a5,3
	add	a5,a3,a5
	.loc 1 500 93
	ld	a5,16(a5)
	.loc 1 500 40
	sd	a5,-72(s0)
	.loc 1 501 15
	j	.L64
.L70:
	.loc 1 504 34
	la	a5,gST
	ld	a5,0(a5)
	ld	a3,112(a5)
	.loc 1 504 54
	ld	a4,-144(s0)
	mv	a5,a4
	slli	a5,a5,1
	add	a5,a5,a4
	slli	a5,a5,3
	add	a5,a3,a5
	.loc 1 504 17
	la	a1,gEfiSystemResourceTableGuid
	mv	a0,a5
	call	CompareGuid@plt
	mv	a5,a0
	.loc 1 504 16 discriminator 1
	beq	a5,zero,.L71
	.loc 1 505 62
	la	a5,gST
	ld	a5,0(a5)
	ld	a3,112(a5)
	.loc 1 505 82
	ld	a4,-144(s0)
	mv	a5,a4
	slli	a5,a5,1
	add	a5,a5,a4
	slli	a5,a5,3
	add	a5,a3,a5
	.loc 1 505 95
	ld	a5,16(a5)
	.loc 1 505 42
	sd	a5,-80(s0)
	.loc 1 506 15
	j	.L64
.L71:
	.loc 1 509 34
	la	a5,gST
	ld	a5,0(a5)
	ld	a3,112(a5)
	.loc 1 509 54
	ld	a4,-144(s0)
	mv	a5,a4
	slli	a5,a5,1
	add	a5,a5,a4
	slli	a5,a5,3
	add	a5,a3,a5
	.loc 1 509 17
	la	a1,gEfiDebugImageInfoTableGuid
	mv	a0,a5
	call	CompareGuid@plt
	mv	a5,a0
	.loc 1 509 16 discriminator 1
	beq	a5,zero,.L72
	.loc 1 510 62
	la	a5,gST
	ld	a5,0(a5)
	ld	a3,112(a5)
	.loc 1 510 82
	ld	a4,-144(s0)
	mv	a5,a4
	slli	a5,a5,1
	add	a5,a5,a4
	slli	a5,a5,3
	add	a5,a3,a5
	.loc 1 510 95
	ld	a5,16(a5)
	.loc 1 510 42
	sd	a5,-88(s0)
	.loc 1 511 15
	j	.L64
.L72:
	.loc 1 514 34
	la	a5,gST
	ld	a5,0(a5)
	ld	a3,112(a5)
	.loc 1 514 54
	ld	a4,-144(s0)
	mv	a5,a4
	slli	a5,a5,1
	add	a5,a5,a4
	slli	a5,a5,3
	add	a5,a3,a5
	.loc 1 514 17
	la	a1,gEfiImageSecurityDatabaseGuid
	mv	a0,a5
	call	CompareGuid@plt
	mv	a5,a0
	.loc 1 514 16 discriminator 1
	beq	a5,zero,.L73
	.loc 1 515 62
	la	a5,gST
	ld	a5,0(a5)
	ld	a3,112(a5)
	.loc 1 515 82
	ld	a4,-144(s0)
	mv	a5,a4
	slli	a5,a5,1
	add	a5,a5,a4
	slli	a5,a5,3
	add	a5,a3,a5
	.loc 1 515 95
	ld	a5,16(a5)
	.loc 1 515 42
	sd	a5,-96(s0)
	.loc 1 516 15
	j	.L64
.L73:
	.loc 1 519 34
	la	a5,gST
	ld	a5,0(a5)
	ld	a3,112(a5)
	.loc 1 519 54
	ld	a4,-144(s0)
	mv	a5,a4
	slli	a5,a5,1
	add	a5,a5,a4
	slli	a5,a5,3
	add	a5,a3,a5
	.loc 1 519 17
	la	a1,gEfiJsonConfigDataTableGuid
	mv	a0,a5
	call	CompareGuid@plt
	mv	a5,a0
	.loc 1 519 16 discriminator 1
	beq	a5,zero,.L74
	.loc 1 520 62
	la	a5,gST
	ld	a5,0(a5)
	ld	a3,112(a5)
	.loc 1 520 82
	ld	a4,-144(s0)
	mv	a5,a4
	slli	a5,a5,1
	add	a5,a5,a4
	slli	a5,a5,3
	add	a5,a3,a5
	.loc 1 520 95
	ld	a5,16(a5)
	.loc 1 520 42
	sd	a5,-104(s0)
	.loc 1 521 15
	j	.L64
.L74:
	.loc 1 524 34
	la	a5,gST
	ld	a5,0(a5)
	ld	a3,112(a5)
	.loc 1 524 54
	ld	a4,-144(s0)
	mv	a5,a4
	slli	a5,a5,1
	add	a5,a5,a4
	slli	a5,a5,3
	add	a5,a3,a5
	.loc 1 524 17
	la	a1,gEfiJsonCapsuleDataTableGuid
	mv	a0,a5
	call	CompareGuid@plt
	mv	a5,a0
	.loc 1 524 16 discriminator 1
	beq	a5,zero,.L75
	.loc 1 525 63
	la	a5,gST
	ld	a5,0(a5)
	ld	a3,112(a5)
	.loc 1 525 83
	ld	a4,-144(s0)
	mv	a5,a4
	slli	a5,a5,1
	add	a5,a5,a4
	slli	a5,a5,3
	add	a5,a3,a5
	.loc 1 525 96
	ld	a5,16(a5)
	.loc 1 525 43
	sd	a5,-112(s0)
	.loc 1 526 15
	j	.L64
.L75:
	.loc 1 529 34
	la	a5,gST
	ld	a5,0(a5)
	ld	a3,112(a5)
	.loc 1 529 54
	ld	a4,-144(s0)
	mv	a5,a4
	slli	a5,a5,1
	add	a5,a5,a4
	slli	a5,a5,3
	add	a5,a3,a5
	.loc 1 529 17
	la	a1,gEfiJsonCapsuleResultTableGuid
	mv	a0,a5
	call	CompareGuid@plt
	mv	a5,a0
	.loc 1 529 16 discriminator 1
	beq	a5,zero,.L76
	.loc 1 530 65
	la	a5,gST
	ld	a5,0(a5)
	ld	a3,112(a5)
	.loc 1 530 85
	ld	a4,-144(s0)
	mv	a5,a4
	slli	a5,a5,1
	add	a5,a5,a4
	slli	a5,a5,3
	add	a5,a3,a5
	.loc 1 530 98
	ld	a5,16(a5)
	.loc 1 530 45
	sd	a5,-120(s0)
	.loc 1 531 15
	j	.L64
.L76:
	.loc 1 534 34
	la	a5,gST
	ld	a5,0(a5)
	ld	a3,112(a5)
	.loc 1 534 54
	ld	a4,-144(s0)
	mv	a5,a4
	slli	a5,a5,1
	add	a5,a5,a4
	slli	a5,a5,3
	add	a5,a3,a5
	.loc 1 534 17
	la	a1,gEfiHiiDatabaseProtocolGuid
	mv	a0,a5
	call	CompareGuid@plt
	mv	a5,a0
	.loc 1 534 16 discriminator 1
	beq	a5,zero,.L77
	.loc 1 535 66
	la	a5,gST
	ld	a5,0(a5)
	ld	a3,112(a5)
	.loc 1 535 86
	ld	a4,-144(s0)
	mv	a5,a4
	slli	a5,a5,1
	add	a5,a5,a4
	slli	a5,a5,3
	add	a5,a3,a5
	.loc 1 535 99
	ld	a5,16(a5)
	.loc 1 535 46
	sd	a5,-128(s0)
	.loc 1 536 15
	j	.L64
.L77:
	.loc 1 539 34
	la	a5,gST
	ld	a5,0(a5)
	ld	a3,112(a5)
	.loc 1 539 54
	ld	a4,-144(s0)
	mv	a5,a4
	slli	a5,a5,1
	add	a5,a5,a4
	slli	a5,a5,3
	add	a5,a3,a5
	.loc 1 539 17
	la	a1,gEfiConfProfilesTableGuid
	mv	a0,a5
	call	CompareGuid@plt
	mv	a5,a0
	.loc 1 539 16 discriminator 1
	beq	a5,zero,.L64
	.loc 1 540 66
	la	a5,gST
	ld	a5,0(a5)
	ld	a3,112(a5)
	.loc 1 540 86
	ld	a4,-144(s0)
	mv	a5,a4
	slli	a5,a5,1
	add	a5,a5,a4
	slli	a5,a5,3
	add	a5,a3,a5
	.loc 1 540 99
	ld	a5,16(a5)
	.loc 1 540 46
	sd	a5,-136(s0)
	.loc 1 541 15
	nop
.L64:
	.loc 1 468 85 discriminator 2
	ld	a5,-144(s0)
	addi	a5,a5,1
	sd	a5,-144(s0)
.L62:
	.loc 1 468 50 discriminator 1
	la	a5,gST
	ld	a5,0(a5)
	ld	a5,104(a5)
	.loc 1 468 45 discriminator 1
	ld	a4,-144(s0)
	bltu	a4,a5,.L78
	.loc 1 545 11
	la	a5,gShellDebug1HiiHandle
	ld	a4,0(a5)
	ld	a5,-208(s0)
	mv	t3,a5
	.loc 1 552 16
	la	a5,gST
	ld	a5,0(a5)
	.loc 1 545 11
	lw	a3,12(a5)
	.loc 1 553 16
	la	a5,gST
	ld	a5,0(a5)
	.loc 1 545 11
	lw	a2,8(a5)
	.loc 1 554 31
	la	a5,gST
	ld	a5,0(a5)
	ld	a5,48(a5)
	.loc 1 545 11
	mv	a1,a5
	.loc 1 555 31
	la	a5,gST
	ld	a5,0(a5)
	ld	a5,64(a5)
	.loc 1 545 11
	mv	a0,a5
	.loc 1 556 31
	la	a5,gST
	ld	a5,0(a5)
	ld	a5,80(a5)
	.loc 1 545 11
	mv	a6,a5
	.loc 1 557 31
	la	a5,gST
	ld	a5,0(a5)
	ld	a5,88(a5)
	.loc 1 545 11
	mv	a7,a5
	.loc 1 558 31
	la	a5,gST
	ld	a5,0(a5)
	ld	a5,96(a5)
	.loc 1 545 11
	mv	t1,a5
	ld	a5,-136(s0)
	sd	a5,168(sp)
	ld	a5,-128(s0)
	sd	a5,160(sp)
	ld	a5,-184(s0)
	sd	a5,152(sp)
	ld	a5,-120(s0)
	sd	a5,144(sp)
	ld	a5,-112(s0)
	sd	a5,136(sp)
	ld	a5,-104(s0)
	sd	a5,128(sp)
	ld	a5,-96(s0)
	sd	a5,120(sp)
	ld	a5,-88(s0)
	sd	a5,112(sp)
	ld	a5,-80(s0)
	sd	a5,104(sp)
	ld	a5,-72(s0)
	sd	a5,96(sp)
	ld	a5,-64(s0)
	sd	a5,88(sp)
	ld	a5,-176(s0)
	sd	a5,80(sp)
	ld	a5,-48(s0)
	sd	a5,72(sp)
	ld	a5,-56(s0)
	sd	a5,64(sp)
	ld	a5,-40(s0)
	sd	a5,56(sp)
	ld	a5,-32(s0)
	sd	a5,48(sp)
	ld	a5,-168(s0)
	sd	a5,40(sp)
	sd	t1,32(sp)
	sd	a7,24(sp)
	sd	a6,16(sp)
	sd	a0,8(sp)
	sd	a1,0(sp)
	mv	a7,a2
	mv	a6,a3
	mv	a5,t3
	li	a3,599
	li	a2,0
	li	a1,-1
	li	a0,-1
	call	ShellPrintHiiEx@plt
	.loc 1 578 15
	ld	a5,-192(s0)
	lla	a1,.LC19
	mv	a0,a5
	call	ShellCommandLineGetFlag@plt
	mv	a5,a0
	.loc 1 578 14 discriminator 1
	beq	a5,zero,.L60
	.loc 1 579 16
	lw	a5,-20(s0)
	sext.w	a5,a5
	bne	a5,zero,.L79
	.loc 1 580 29
	ld	a0,-72(s0)
	call	DisplayRtProperties
	mv	a5,a0
	sw	a5,-20(s0)
.L79:
	.loc 1 583 16
	lw	a5,-20(s0)
	sext.w	a5,a5
	bne	a5,zero,.L80
	.loc 1 584 29
	ld	a0,-96(s0)
	call	DisplayImageExecutionEntries
	mv	a5,a0
	sw	a5,-20(s0)
.L80:
	.loc 1 587 16
	lw	a5,-20(s0)
	sext.w	a5,a5
	bne	a5,zero,.L60
	.loc 1 588 29
	ld	a0,-136(s0)
	call	DisplayConformanceProfiles
	mv	a5,a0
	sw	a5,-20(s0)
	j	.L60
.L61:
	.loc 1 593 23
	ld	a5,-208(s0)
	ld	a4,-216(s0)
	mv	a1,a4
	mv	a0,a5
	call	DisplayMmioMemory
	mv	a5,a0
	sw	a5,-20(s0)
.L60:
	.loc 1 597 5
	ld	a5,-192(s0)
	mv	a0,a5
	call	ShellCommandLineFreeVarList@plt
.L52:
	.loc 1 600 10
	lw	a5,-20(s0)
	.loc 1 601 1
	mv	a0,a5
	ld	ra,408(sp)
	.cfi_restore 1
	ld	s0,400(sp)
	.cfi_restore 8
	.cfi_def_cfa 2, 416
	addi	sp,sp,416
	.cfi_def_cfa_offset 0
	jr	ra
	.cfi_endproc
.LFE7:
	.size	ShellCommandRunDmem, .-ShellCommandRunDmem
	.text
.Letext0:
	.file 2 "/home/kapoagaeming/spacemit-image-builder/components/edk2/MdePkg/Include/RiscV64/ProcessorBind.h"
	.file 3 "/home/kapoagaeming/spacemit-image-builder/components/edk2/MdePkg/Include/Base.h"
	.file 4 "/home/kapoagaeming/spacemit-image-builder/components/edk2/MdePkg/Include/Uefi/UefiBaseType.h"
	.file 5 "/home/kapoagaeming/spacemit-image-builder/components/edk2/MdePkg/Include/Uefi/UefiMultiPhase.h"
	.file 6 "/home/kapoagaeming/spacemit-image-builder/components/edk2/MdePkg/Include/Protocol/DevicePath.h"
	.file 7 "/home/kapoagaeming/spacemit-image-builder/components/edk2/MdePkg/Include/Protocol/SimpleTextIn.h"
	.file 8 "/home/kapoagaeming/spacemit-image-builder/components/edk2/MdePkg/Include/Protocol/SimpleTextOut.h"
	.file 9 "/home/kapoagaeming/spacemit-image-builder/components/edk2/MdePkg/Include/Uefi/UefiSpec.h"
	.file 10 "/home/kapoagaeming/spacemit-image-builder/components/edk2/MdePkg/Include/Uefi/UefiInternalFormRepresentation.h"
	.file 11 "/home/kapoagaeming/spacemit-image-builder/components/Build/Milk-V-Jupiter/RELEASE_GCC5/RISCV64/ShellPkg/Library/UefiShellDebug1CommandsLib/UefiShellDebug1CommandsLib/DEBUG/AutoGen.h"
	.file 12 "/home/kapoagaeming/spacemit-image-builder/components/edk2/MdePkg/Include/Protocol/Shell.h"
	.file 13 "/home/kapoagaeming/spacemit-image-builder/components/edk2/MdePkg/Include/Protocol/PciRootBridgeIo.h"
	.file 14 "/home/kapoagaeming/spacemit-image-builder/components/edk2/MdePkg/Include/Library/UefiBootServicesTableLib.h"
	.file 15 "/home/kapoagaeming/spacemit-image-builder/components/edk2/ShellPkg/Include/Library/ShellLib.h"
	.file 16 "/home/kapoagaeming/spacemit-image-builder/components/edk2/ShellPkg/Library/UefiShellDebug1CommandsLib/UefiShellDebug1CommandsLib.h"
	.file 17 "/home/kapoagaeming/spacemit-image-builder/components/edk2/MdePkg/Include/Guid/RtPropertiesTable.h"
	.file 18 "/home/kapoagaeming/spacemit-image-builder/components/edk2/MdePkg/Include/Guid/ImageAuthentication.h"
	.file 19 "/home/kapoagaeming/spacemit-image-builder/components/edk2/MdePkg/Include/Guid/ConformanceProfiles.h"
	.file 20 "/home/kapoagaeming/spacemit-image-builder/components/edk2/ShellPkg/Include/Library/ShellCommandLib.h"
	.file 21 "/home/kapoagaeming/spacemit-image-builder/components/edk2/MdePkg/Include/Library/BaseMemoryLib.h"
	.file 22 "/home/kapoagaeming/spacemit-image-builder/components/edk2/MdePkg/Include/Library/BaseLib.h"
	.file 23 "/home/kapoagaeming/spacemit-image-builder/components/edk2/MdePkg/Include/Library/UefiLib.h"
	.file 24 "/home/kapoagaeming/spacemit-image-builder/components/edk2/MdePkg/Include/Library/MemoryAllocationLib.h"
	.section	.note.GNU-stack,"",@progbits
