	.file	"DmpStore.c"
	.option pic
	.option norelax
	.attribute arch, "rv64i2p1_m2p0_a2p1_f2p2_d2p2_c2p0_zicsr2p0_zifencei2p0_zmmul1p0_zaamo1p0_zalrsc1p0_zca1p0_zcd1p0"
	.attribute unaligned_access, 0
	.attribute stack_align, 16
	.text
.Ltext0:
	.cfi_sections	.debug_frame
	.file 0 "/home/kapoagaeming/Downloads/spacemit-image-builder/components/Build/Milk-V-Jupiter/RELEASE_GCC5/RISCV64/ShellPkg/Library/UefiShellDebug1CommandsLib/UefiShellDebug1CommandsLib" "/home/kapoagaeming/Downloads/spacemit-image-builder/components/edk2/ShellPkg/Library/UefiShellDebug1CommandsLib/DmpStore.c"
	.section	.rodata
	.align	3
.LC0:
	.string	"+"
	.string	"N"
	.string	"V"
	.zero	2
	.align	3
.LC1:
	.string	"+"
	.string	"R"
	.string	"T"
	.string	"+"
	.string	"B"
	.string	"S"
	.zero	2
	.align	3
.LC2:
	.string	"+"
	.string	"B"
	.string	"S"
	.zero	2
	.align	3
.LC3:
	.string	"+"
	.string	"H"
	.string	"R"
	.zero	2
	.align	3
.LC4:
	.string	"+"
	.string	"A"
	.string	"W"
	.zero	2
	.align	3
.LC5:
	.string	"+"
	.string	"A"
	.string	"T"
	.zero	2
	.align	3
.LC6:
	.string	"I"
	.string	"n"
	.string	"v"
	.string	"a"
	.string	"l"
	.string	"i"
	.string	"d"
	.zero	2
	.section	.text.GetAttrType,"ax",@progbits
	.align	1
	.globl	GetAttrType
	.type	GetAttrType, @function
GetAttrType:
.LFB0:
	.file 1 "/home/kapoagaeming/Downloads/spacemit-image-builder/components/edk2/ShellPkg/Library/UefiShellDebug1CommandsLib/DmpStore.c"
	.loc 1 42 1
	.cfi_startproc
	addi	sp,sp,-64
	.cfi_def_cfa_offset 64
	sd	ra,56(sp)
	sd	s0,48(sp)
	sd	s1,40(sp)
	sd	s2,32(sp)
	.cfi_offset 1, -8
	.cfi_offset 8, -16
	.cfi_offset 9, -24
	.cfi_offset 18, -32
	addi	s0,sp,64
	.cfi_def_cfa 8, 0
	mv	a5,a0
	sw	a5,-52(s0)
	.loc 1 46 10
	sd	zero,-40(s0)
	.loc 1 47 13
	sd	zero,-48(s0)
	.loc 1 49 13
	lw	a5,-52(s0)
	andi	a5,a5,1
	sext.w	a5,a5
	.loc 1 49 6
	beq	a5,zero,.L2
	.loc 1 50 5
	addi	a4,s0,-40
	addi	a5,s0,-48
	li	a3,0
	lla	a2,.LC0
	mv	a1,a4
	mv	a0,a5
	call	StrnCatGrow@plt
.L2:
	.loc 1 53 13
	lw	a5,-52(s0)
	andi	a5,a5,4
	sext.w	a5,a5
	.loc 1 53 6
	beq	a5,zero,.L3
	.loc 1 54 5
	addi	a4,s0,-40
	addi	a5,s0,-48
	li	a3,0
	lla	a2,.LC1
	mv	a1,a4
	mv	a0,a5
	call	StrnCatGrow@plt
	j	.L4
.L3:
	.loc 1 55 20
	lw	a5,-52(s0)
	andi	a5,a5,2
	sext.w	a5,a5
	.loc 1 55 13
	beq	a5,zero,.L4
	.loc 1 56 5
	addi	a4,s0,-40
	addi	a5,s0,-48
	li	a3,0
	lla	a2,.LC2
	mv	a1,a4
	mv	a0,a5
	call	StrnCatGrow@plt
.L4:
	.loc 1 59 13
	lw	a5,-52(s0)
	andi	a5,a5,8
	sext.w	a5,a5
	.loc 1 59 6
	beq	a5,zero,.L5
	.loc 1 60 5
	addi	a4,s0,-40
	addi	a5,s0,-48
	li	a3,0
	lla	a2,.LC3
	mv	a1,a4
	mv	a0,a5
	call	StrnCatGrow@plt
.L5:
	.loc 1 63 13
	lw	a5,-52(s0)
	andi	a5,a5,16
	sext.w	a5,a5
	.loc 1 63 6
	beq	a5,zero,.L6
	.loc 1 64 5
	addi	a4,s0,-40
	addi	a5,s0,-48
	li	a3,0
	lla	a2,.LC4
	mv	a1,a4
	mv	a0,a5
	call	StrnCatGrow@plt
.L6:
	.loc 1 67 13
	lw	a5,-52(s0)
	andi	a5,a5,32
	sext.w	a5,a5
	.loc 1 67 6
	beq	a5,zero,.L7
	.loc 1 68 5
	addi	a4,s0,-40
	addi	a5,s0,-48
	li	a3,0
	lla	a2,.LC5
	mv	a1,a4
	mv	a0,a5
	call	StrnCatGrow@plt
.L7:
	.loc 1 71 17
	ld	a5,-48(s0)
	.loc 1 71 6
	bne	a5,zero,.L8
	.loc 1 72 17
	addi	a4,s0,-40
	addi	a5,s0,-48
	li	a3,0
	lla	a2,.LC6
	mv	a1,a4
	mv	a0,a5
	call	StrnCatGrow@plt
	mv	a5,a0
	.loc 1 72 15 discriminator 1
	sd	a5,-48(s0)
.L8:
	.loc 1 75 18
	ld	a5,-48(s0)
	.loc 1 75 6
	beq	a5,zero,.L9
	.loc 1 75 48 discriminator 1
	ld	a5,-48(s0)
	lhu	a5,0(a5)
	.loc 1 75 35 discriminator 1
	sext.w	a4,a5
	li	a5,43
	bne	a4,a5,.L9
	.loc 1 76 5
	ld	s1,-48(s0)
	ld	a5,-48(s0)
	.loc 1 76 35
	addi	s2,a5,2
	.loc 1 76 5
	ld	a5,-48(s0)
	.loc 1 76 59
	addi	a5,a5,2
	.loc 1 76 5
	mv	a0,a5
	call	StrSize@plt
	mv	a5,a0
	.loc 1 76 5 is_stmt 0 discriminator 1
	mv	a2,a5
	mv	a1,s2
	mv	a0,s1
	call	CopyMem@plt
.L9:
	.loc 1 79 10 is_stmt 1
	ld	a5,-48(s0)
	.loc 1 80 1
	mv	a0,a5
	ld	ra,56(sp)
	.cfi_restore 1
	ld	s0,48(sp)
	.cfi_restore 8
	.cfi_def_cfa 2, 64
	ld	s1,40(sp)
	.cfi_restore 9
	ld	s2,32(sp)
	.cfi_restore 18
	addi	sp,sp,64
	.cfi_def_cfa_offset 0
	jr	ra
	.cfi_endproc
.LFE0:
	.size	GetAttrType, .-GetAttrType
	.section	.rodata
	.align	3
.LC7:
	.string	"%"
	.string	"0"
	.string	"2"
	.string	"x"
	.zero	2
	.section	.text.BinaryToHexString,"ax",@progbits
	.align	1
	.globl	BinaryToHexString
	.type	BinaryToHexString, @function
BinaryToHexString:
.LFB1:
	.loc 1 99 1
	.cfi_startproc
	addi	sp,sp,-64
	.cfi_def_cfa_offset 64
	sd	ra,56(sp)
	sd	s0,48(sp)
	.cfi_offset 1, -8
	.cfi_offset 8, -16
	addi	s0,sp,64
	.cfi_def_cfa 8, 0
	sd	a0,-40(s0)
	sd	a1,-48(s0)
	sd	a2,-56(s0)
	sd	a3,-64(s0)
	.loc 1 106 14
	sd	zero,-24(s0)
	.loc 1 106 31
	sd	zero,-32(s0)
	.loc 1 106 3
	j	.L12
.L13:
	.loc 1 109 19
	ld	a5,-32(s0)
	slli	a5,a5,1
	.loc 1 108 7
	ld	a4,-56(s0)
	add	a0,a4,a5
	.loc 1 110 37
	ld	a5,-32(s0)
	slli	a5,a5,1
	.loc 1 110 23
	ld	a4,-64(s0)
	sub	a1,a4,a5
	.loc 1 112 26
	ld	a4,-40(s0)
	ld	a5,-24(s0)
	add	a5,a4,a5
	lbu	a5,0(a5)
	.loc 1 108 7
	sext.w	a5,a5
	mv	a3,a5
	lla	a2,.LC7
	call	UnicodeSPrint@plt
	mv	a4,a0
	.loc 1 107 17
	ld	a5,-32(s0)
	add	a5,a5,a4
	sd	a5,-32(s0)
	.loc 1 106 62 discriminator 3
	ld	a5,-24(s0)
	addi	a5,a5,1
	sd	a5,-24(s0)
.L12:
	.loc 1 106 42 discriminator 1
	ld	a4,-24(s0)
	ld	a5,-48(s0)
	bltu	a4,a5,.L13
	.loc 1 116 10
	ld	a5,-56(s0)
	.loc 1 117 1
	mv	a0,a5
	ld	ra,56(sp)
	.cfi_restore 1
	ld	s0,48(sp)
	.cfi_restore 8
	.cfi_def_cfa 2, 64
	addi	sp,sp,64
	.cfi_def_cfa_offset 0
	jr	ra
	.cfi_endproc
.LFE1:
	.size	BinaryToHexString, .-BinaryToHexString
	.section	.rodata
	.align	3
.LC8:
	.string	"d"
	.string	"m"
	.string	"p"
	.string	"s"
	.string	"t"
	.string	"o"
	.string	"r"
	.string	"e"
	.zero	2
	.section	.text.LoadVariablesFromFile,"ax",@progbits
	.align	1
	.globl	LoadVariablesFromFile
	.type	LoadVariablesFromFile, @function
LoadVariablesFromFile:
.LFB2:
	.loc 1 139 1
	.cfi_startproc
	addi	sp,sp,-176
	.cfi_def_cfa_offset 176
	sd	ra,168(sp)
	sd	s0,160(sp)
	.cfi_offset 1, -8
	.cfi_offset 8, -16
	addi	s0,sp,176
	.cfi_def_cfa 8, 0
	sd	a0,-136(s0)
	sd	a1,-144(s0)
	sd	a2,-152(s0)
	sd	a3,-160(s0)
	.loc 1 155 12
	addi	a5,s0,-104
	mv	a1,a5
	ld	a0,-136(s0)
	call	ShellGetFileSize@plt
	sd	a0,-56(s0)
	.loc 1 156 34
	ld	a5,-56(s0)
	.loc 1 156 6
	bge	a5,zero,.L16
	.loc 1 157 12
	li	a5,7
	j	.L45
.L16:
	.loc 1 160 15
	sw	zero,-20(s0)
	.loc 1 162 3
	addi	a5,s0,-120
	mv	a0,a5
	call	InitializeListHead@plt
	.loc 1 164 12
	sd	zero,-32(s0)
	.loc 1 165 9
	j	.L18
.L29:
	.loc 1 169 16
	li	a5,4
	sd	a5,-96(s0)
	.loc 1 170 14
	addi	a4,s0,-84
	addi	a5,s0,-96
	mv	a2,a4
	mv	a1,a5
	ld	a0,-136(s0)
	call	ShellReadFile@plt
	sd	a0,-56(s0)
	.loc 1 171 36
	ld	a5,-56(s0)
	.loc 1 171 8
	blt	a5,zero,.L19
	.loc 1 171 77 discriminator 1
	ld	a4,-96(s0)
	.loc 1 171 62 discriminator 1
	li	a5,4
	beq	a4,a5,.L20
.L19:
	.loc 1 172 19
	li	a5,10
	sw	a5,-20(s0)
	.loc 1 173 7
	j	.L21
.L20:
	.loc 1 179 16
	li	a5,4
	sd	a5,-96(s0)
	.loc 1 180 14
	addi	a4,s0,-88
	addi	a5,s0,-96
	mv	a2,a4
	mv	a1,a5
	ld	a0,-136(s0)
	call	ShellReadFile@plt
	sd	a0,-56(s0)
	.loc 1 181 36
	ld	a5,-56(s0)
	.loc 1 181 8
	blt	a5,zero,.L22
	.loc 1 181 77 discriminator 1
	ld	a4,-96(s0)
	.loc 1 181 62 discriminator 1
	li	a5,4
	beq	a4,a5,.L23
.L22:
	.loc 1 182 19
	li	a5,10
	sw	a5,-20(s0)
	.loc 1 183 7
	j	.L21
.L23:
	.loc 1 189 68
	lw	a5,-84(s0)
	slli	a4,a5,32
	srli	a4,a4,32
	lw	a5,-88(s0)
	slli	a5,a5,32
	srli	a5,a5,32
	add	a5,a4,a5
	.loc 1 189 19
	addi	a5,a5,24
	sd	a5,-64(s0)
	.loc 1 190 56
	ld	a5,-64(s0)
	addi	a5,a5,8
	.loc 1 190 16
	sd	a5,-96(s0)
	.loc 1 191 14
	ld	a5,-96(s0)
	mv	a0,a5
	call	AllocatePool@plt
	sd	a0,-72(s0)
	.loc 1 192 8
	ld	a5,-72(s0)
	bne	a5,zero,.L24
	.loc 1 193 19
	li	a5,9
	sw	a5,-20(s0)
	.loc 1 194 7
	j	.L21
.L24:
	.loc 1 197 16
	ld	a5,-64(s0)
	sd	a5,-96(s0)
	.loc 1 198 14
	ld	a5,-72(s0)
	addi	a4,a5,8
	addi	a5,s0,-96
	mv	a2,a4
	mv	a1,a5
	ld	a0,-136(s0)
	call	ShellReadFile@plt
	sd	a0,-56(s0)
	.loc 1 199 36
	ld	a5,-56(s0)
	.loc 1 199 8
	blt	a5,zero,.L25
	.loc 1 199 77 discriminator 1
	ld	a5,-96(s0)
	.loc 1 199 62 discriminator 1
	ld	a4,-64(s0)
	beq	a4,a5,.L26
.L25:
	.loc 1 200 19
	li	a5,10
	sw	a5,-20(s0)
	.loc 1 201 7
	ld	a0,-72(s0)
	call	FreePool@plt
	.loc 1 202 7
	j	.L21
.L26:
	.loc 1 208 23
	lw	a4,-84(s0)
	ld	a5,-72(s0)
	sw	a4,0(a5)
	.loc 1 209 24
	ld	a5,-72(s0)
	addi	a5,a5,4
	.loc 1 209 29
	lw	a4,-88(s0)
	sw	a4,0(a5)
	.loc 1 210 72
	ld	a5,-64(s0)
	addi	a5,a5,4
	.loc 1 210 16
	sd	a5,-96(s0)
	.loc 1 211 8
	la	a5,gBS
	ld	a5,0(a5)
	ld	a5,344(a5)
	.loc 1 211 5
	ld	a4,-96(s0)
	addi	a3,s0,-124
	mv	a2,a3
	mv	a1,a4
	ld	a0,-72(s0)
	jalr	a5
.LVL0:
	.loc 1 216 19
	ld	a5,-96(s0)
	.loc 1 216 37
	ld	a4,-72(s0)
	add	a5,a4,a5
	.loc 1 216 18
	lw	a4,0(a5)
	.loc 1 216 15
	lw	a5,-124(s0)
	.loc 1 216 8
	beq	a4,a5,.L27
	.loc 1 217 7
	ld	a0,-72(s0)
	call	FreePool@plt
	.loc 1 218 19
	li	a5,10
	sw	a5,-20(s0)
	.loc 1 219 7
	j	.L21
.L27:
	.loc 1 222 14
	ld	a4,-96(s0)
	ld	a5,-32(s0)
	add	a5,a4,a5
	addi	a5,a5,4
	sd	a5,-32(s0)
	.loc 1 224 64
	lw	a5,-84(s0)
	slli	a4,a5,32
	srli	a4,a4,32
	lw	a5,-88(s0)
	slli	a5,a5,32
	srli	a5,a5,32
	add	a5,a4,a5
	addi	a5,a5,64
	.loc 1 224 16
	mv	a0,a5
	call	AllocateZeroPool@plt
	sd	a0,-40(s0)
	.loc 1 225 8
	ld	a5,-40(s0)
	bne	a5,zero,.L28
	.loc 1 226 7
	ld	a0,-72(s0)
	call	FreePool@plt
	.loc 1 227 19
	li	a5,9
	sw	a5,-20(s0)
	.loc 1 228 7
	j	.L21
.L28:
	.loc 1 231 25
	ld	a5,-40(s0)
	li	a4,1936941056
	addi	a4,a4,1119
	sw	a4,0(a5)
	.loc 1 232 42
	ld	a5,-40(s0)
	addi	a4,a5,64
	.loc 1 232 20
	ld	a5,-40(s0)
	sd	a4,8(a5)
	.loc 1 233 24
	lw	a4,-88(s0)
	ld	a5,-40(s0)
	sw	a4,36(a5)
	.loc 1 234 39
	ld	a5,-40(s0)
	ld	a4,8(a5)
	.loc 1 234 46
	lw	a5,-84(s0)
	slli	a5,a5,32
	srli	a5,a5,32
	add	a4,a4,a5
	.loc 1 234 20
	ld	a5,-40(s0)
	sd	a4,40(a5)
	.loc 1 235 22
	ld	a5,-40(s0)
	ld	a4,8(a5)
	.loc 1 235 57
	ld	a5,-72(s0)
	addi	a5,a5,8
	.loc 1 235 5
	lw	a3,-84(s0)
	slli	a3,a3,32
	srli	a3,a3,32
	mv	a2,a3
	mv	a1,a5
	mv	a0,a4
	call	CopyMem@plt
	.loc 1 236 14
	ld	a5,-40(s0)
	addi	a3,a5,16
	.loc 1 236 78
	lw	a5,-84(s0)
	slli	a5,a5,32
	srli	a5,a5,32
	addi	a5,a5,8
	ld	a4,-72(s0)
	add	a5,a4,a5
	.loc 1 236 5
	li	a2,16
	mv	a1,a5
	mv	a0,a3
	call	CopyMem@plt
	.loc 1 237 14
	ld	a5,-40(s0)
	addi	a3,a5,32
	.loc 1 237 95
	lw	a5,-84(s0)
	slli	a5,a5,32
	srli	a5,a5,32
	addi	a5,a5,24
	ld	a4,-72(s0)
	add	a5,a4,a5
	.loc 1 237 5
	li	a2,4
	mv	a1,a5
	mv	a0,a3
	call	CopyMem@plt
	.loc 1 238 22
	ld	a5,-40(s0)
	ld	a3,40(a5)
	.loc 1 238 108
	lw	a5,-84(s0)
	slli	a5,a5,32
	srli	a5,a5,32
	addi	a5,a5,28
	ld	a4,-72(s0)
	add	a5,a4,a5
	.loc 1 238 5
	lw	a4,-88(s0)
	slli	a4,a4,32
	srli	a4,a4,32
	mv	a2,a4
	mv	a1,a5
	mv	a0,a3
	call	CopyMem@plt
	.loc 1 240 5
	ld	a5,-40(s0)
	addi	a4,a5,48
	addi	a5,s0,-120
	mv	a1,a4
	mv	a0,a5
	call	InsertTailList@plt
	.loc 1 241 5
	ld	a0,-72(s0)
	call	FreePool@plt
.L18:
	.loc 1 165 19
	ld	a5,-104(s0)
	ld	a4,-32(s0)
	bltu	a4,a5,.L29
.L21:
	.loc 1 244 17
	ld	a5,-104(s0)
	.loc 1 244 6
	ld	a4,-32(s0)
	bne	a4,a5,.L30
	.loc 1 244 30 discriminator 1
	lw	a5,-20(s0)
	sext.w	a5,a5
	beq	a5,zero,.L31
.L30:
	.loc 1 245 5
	la	a5,gShellDebug1HiiHandle
	ld	a4,0(a5)
	lla	a5,.LC8
	li	a3,794
	li	a2,0
	li	a1,-1
	li	a0,-1
	call	ShellPrintHiiEx@plt
	.loc 1 246 18
	ld	a5,-104(s0)
	.loc 1 246 8
	ld	a4,-32(s0)
	beq	a4,a5,.L31
	.loc 1 247 19
	li	a5,10
	sw	a5,-20(s0)
.L31:
	.loc 1 251 16
	addi	a5,s0,-120
	mv	a0,a5
	call	GetFirstNode@plt
	sd	a0,-48(s0)
	.loc 1 251 3
	j	.L32
.L40:
	.loc 1 256 18
	ld	a5,-48(s0)
	addi	a5,a5,-48
	.loc 1 256 126
	lw	a4,0(a5)
	.loc 1 256 211
	li	a5,1936941056
	addi	a5,a5,1119
	bne	a4,a5,.L33
	.loc 1 256 14 discriminator 1
	ld	a5,-48(s0)
	addi	a5,a5,-48
	sd	a5,-40(s0)
	j	.L34
.L33:
	.loc 1 256 14 is_stmt 0 discriminator 2
	sd	zero,-40(s0)
.L34:
	.loc 1 258 8 is_stmt 1
	ld	a5,-144(s0)
	beq	a5,zero,.L35
	.loc 1 258 53 discriminator 2
	la	a5,gUnicodeCollation
	ld	a5,0(a5)
	ld	a5,8(a5)
	.loc 1 258 36 discriminator 2
	la	a4,gUnicodeCollation
	ld	a3,0(a4)
	ld	a4,-40(s0)
	ld	a4,8(a4)
	ld	a2,-144(s0)
	mv	a1,a4
	mv	a0,a3
	jalr	a5
.LVL1:
	mv	a5,a0
	.loc 1 258 33 discriminator 3
	beq	a5,zero,.L36
.L35:
	.loc 1 258 119 discriminator 4
	ld	a5,-152(s0)
	beq	a5,zero,.L37
	.loc 1 259 49
	ld	a5,-40(s0)
	addi	a5,a5,16
	.loc 1 259 36
	ld	a1,-152(s0)
	mv	a0,a5
	call	CompareGuid@plt
	mv	a5,a0
	.loc 1 259 33 discriminator 1
	beq	a5,zero,.L36
.L37:
	.loc 1 262 41
	ld	a5,-40(s0)
	lw	a5,32(a5)
	.loc 1 262 20
	mv	a0,a5
	call	GetAttrType
	sd	a0,-80(s0)
	.loc 1 263 7
	la	a5,gShellDebug1HiiHandle
	ld	a4,0(a5)
	ld	a5,-40(s0)
	addi	a3,a5,16
	ld	a5,-40(s0)
	ld	a2,8(a5)
	ld	a5,-40(s0)
	lw	a5,36(a5)
	sd	a5,0(sp)
	mv	a7,a2
	mv	a6,a3
	ld	a5,-80(s0)
	li	a3,795
	li	a2,0
	li	a1,-1
	li	a0,-1
	call	ShellPrintHiiEx@plt
	.loc 1 274 15
	ld	a5,-80(s0)
	beq	a5,zero,.L38
	.loc 1 274 48 discriminator 1
	ld	a0,-80(s0)
	call	FreePool@plt
	.loc 1 274 85 discriminator 2
	sd	zero,-80(s0)
.L38:
	.loc 1 276 14
	ld	a5,-160(s0)
	li	a4,1
	sb	a4,0(a5)
	.loc 1 277 19
	la	a5,gRT
	ld	a5,0(a5)
	ld	a5,88(a5)
	.loc 1 277 16
	ld	a4,-40(s0)
	ld	a0,8(a4)
	ld	a4,-40(s0)
	addi	a1,a4,16
	ld	a4,-40(s0)
	lw	a2,32(a4)
	.loc 1 281 31
	ld	a4,-40(s0)
	lw	a4,36(a4)
	.loc 1 277 16
	slli	a3,a4,32
	srli	a3,a3,32
	.loc 1 282 31
	ld	a4,-40(s0)
	ld	a4,40(a4)
	.loc 1 277 16
	jalr	a5
.LVL2:
	sd	a0,-56(s0)
	.loc 1 284 38
	ld	a5,-56(s0)
	.loc 1 284 10
	bge	a5,zero,.L36
	.loc 1 285 9
	la	a5,gShellDebug1HiiHandle
	ld	a4,0(a5)
	ld	a5,-40(s0)
	ld	a5,8(a5)
	ld	a7,-56(s0)
	mv	a6,a5
	lla	a5,.LC8
	li	a3,793
	li	a2,0
	li	a1,-1
	li	a0,-1
	call	ShellPrintHiiEx@plt
.L36:
	.loc 1 253 18
	addi	a5,s0,-120
	ld	a1,-48(s0)
	mv	a0,a5
	call	GetNextNode@plt
	sd	a0,-48(s0)
.L32:
	.loc 1 252 12
	addi	a5,s0,-120
	ld	a1,-48(s0)
	mv	a0,a5
	call	IsNull@plt
	mv	a5,a0
	.loc 1 252 33 discriminator 1
	bne	a5,zero,.L39
	.loc 1 252 33 is_stmt 0 discriminator 2
	lw	a5,-20(s0)
	sext.w	a5,a5
	beq	a5,zero,.L40
.L39:
	.loc 1 290 15 is_stmt 1
	addi	a5,s0,-120
	mv	a0,a5
	call	GetFirstNode@plt
	sd	a0,-48(s0)
	.loc 1 290 3
	j	.L41
.L44:
	.loc 1 291 18
	ld	a5,-48(s0)
	addi	a5,a5,-48
	.loc 1 291 126
	lw	a4,0(a5)
	.loc 1 291 211
	li	a5,1936941056
	addi	a5,a5,1119
	bne	a4,a5,.L42
	.loc 1 291 14 discriminator 1
	ld	a5,-48(s0)
	addi	a5,a5,-48
	sd	a5,-40(s0)
	j	.L43
.L42:
	.loc 1 291 14 is_stmt 0 discriminator 2
	sd	zero,-40(s0)
.L43:
	.loc 1 292 29 is_stmt 1
	ld	a5,-40(s0)
	addi	a5,a5,48
	.loc 1 292 12
	mv	a0,a5
	call	RemoveEntryList@plt
	sd	a0,-48(s0)
	.loc 1 293 5
	ld	a0,-40(s0)
	call	FreePool@plt
.L41:
	.loc 1 290 38 discriminator 2
	addi	a5,s0,-120
	ld	a1,-48(s0)
	mv	a0,a5
	call	IsNull@plt
	mv	a5,a0
	.loc 1 290 37 discriminator 3
	beq	a5,zero,.L44
	.loc 1 296 10
	lw	a5,-20(s0)
.L45:
	.loc 1 297 1
	mv	a0,a5
	ld	ra,168(sp)
	.cfi_restore 1
	ld	s0,160(sp)
	.cfi_restore 8
	.cfi_def_cfa 2, 176
	addi	sp,sp,176
	.cfi_def_cfa_offset 0
	jr	ra
	.cfi_endproc
.LFE2:
	.size	LoadVariablesFromFile, .-LoadVariablesFromFile
	.section	.text.AppendSingleVariableToFile,"ax",@progbits
	.align	1
	.globl	AppendSingleVariableToFile
	.type	AppendSingleVariableToFile, @function
AppendSingleVariableToFile:
.LFB3:
	.loc 1 322 1
	.cfi_startproc
	addi	sp,sp,-112
	.cfi_def_cfa_offset 112
	sd	ra,104(sp)
	sd	s0,96(sp)
	.cfi_offset 1, -8
	.cfi_offset 8, -16
	addi	s0,sp,112
	.cfi_def_cfa 8, 0
	sd	a0,-72(s0)
	sd	a1,-80(s0)
	sd	a2,-88(s0)
	sd	a5,-104(s0)
	mv	a5,a3
	sw	a5,-92(s0)
	mv	a5,a4
	sw	a5,-96(s0)
	.loc 1 329 22
	ld	a0,-80(s0)
	call	StrSize@plt
	mv	a5,a0
	.loc 1 329 12 discriminator 1
	sw	a5,-28(s0)
	.loc 1 333 27
	lwu	a4,-28(s0)
	lwu	a5,-96(s0)
	add	a5,a4,a5
	.loc 1 334 16
	addi	a5,a5,32
	.loc 1 330 14
	sd	a5,-56(s0)
	.loc 1 336 12
	ld	a5,-56(s0)
	mv	a0,a5
	call	AllocatePool@plt
	sd	a0,-40(s0)
	.loc 1 337 6
	ld	a5,-40(s0)
	bne	a5,zero,.L47
	.loc 1 338 12
	li	a5,-1
	slli	a5,a5,63
	addi	a5,a5,9
	j	.L50
.L47:
	.loc 1 341 7
	ld	a5,-40(s0)
	sd	a5,-48(s0)
	.loc 1 345 18
	ld	a5,-48(s0)
	lw	a4,-28(s0)
	sw	a4,0(a5)
	.loc 1 346 7
	ld	a5,-48(s0)
	addi	a5,a5,4
	sd	a5,-48(s0)
	.loc 1 347 18
	ld	a5,-48(s0)
	lw	a4,-96(s0)
	sw	a4,0(a5)
	.loc 1 348 7
	ld	a5,-48(s0)
	addi	a5,a5,4
	sd	a5,-48(s0)
	.loc 1 353 3
	lwu	a5,-28(s0)
	mv	a2,a5
	ld	a1,-80(s0)
	ld	a0,-48(s0)
	call	CopyMem@plt
	.loc 1 354 7
	lwu	a5,-28(s0)
	ld	a4,-48(s0)
	add	a5,a4,a5
	sd	a5,-48(s0)
	.loc 1 359 3
	li	a2,16
	ld	a1,-88(s0)
	ld	a0,-48(s0)
	call	CopyMem@plt
	.loc 1 360 7
	ld	a5,-48(s0)
	addi	a5,a5,16
	sd	a5,-48(s0)
	.loc 1 365 18
	ld	a5,-48(s0)
	lw	a4,-92(s0)
	sw	a4,0(a5)
	.loc 1 366 7
	ld	a5,-48(s0)
	addi	a5,a5,4
	sd	a5,-48(s0)
	.loc 1 371 3
	lwu	a5,-96(s0)
	mv	a2,a5
	ld	a1,-104(s0)
	ld	a0,-48(s0)
	call	CopyMem@plt
	.loc 1 372 7
	lwu	a5,-96(s0)
	ld	a4,-48(s0)
	add	a5,a4,a5
	sd	a5,-48(s0)
	.loc 1 377 6
	la	a5,gBS
	ld	a5,0(a5)
	ld	a5,344(a5)
	.loc 1 377 32
	ld	a3,-48(s0)
	.loc 1 377 45
	ld	a4,-40(s0)
	.loc 1 377 43
	sub	a4,a3,a4
	.loc 1 377 3
	ld	a2,-48(s0)
	mv	a1,a4
	ld	a0,-40(s0)
	jalr	a5
.LVL3:
	.loc 1 379 12
	addi	a5,s0,-56
	ld	a2,-40(s0)
	mv	a1,a5
	ld	a0,-72(s0)
	call	ShellWriteFile@plt
	sd	a0,-24(s0)
	.loc 1 380 3
	ld	a0,-40(s0)
	call	FreePool@plt
	.loc 1 382 7
	ld	a5,-24(s0)
	.loc 1 382 6
	blt	a5,zero,.L49
	.loc 1 383 110
	lwu	a4,-28(s0)
	lwu	a5,-96(s0)
	add	a5,a4,a5
	.loc 1 383 121
	addi	a4,a5,32
	.loc 1 383 19
	ld	a5,-56(s0)
	.loc 1 382 61 discriminator 1
	beq	a4,a5,.L49
	.loc 1 386 12
	li	a5,-1
	slli	a5,a5,63
	addi	a5,a5,7
	sd	a5,-24(s0)
.L49:
	.loc 1 389 10
	ld	a5,-24(s0)
.L50:
	.loc 1 390 1
	mv	a0,a5
	ld	ra,104(sp)
	.cfi_restore 1
	ld	s0,96(sp)
	.cfi_restore 8
	.cfi_def_cfa 2, 112
	addi	sp,sp,112
	.cfi_def_cfa_offset 0
	jr	ra
	.cfi_endproc
.LFE3:
	.size	AppendSingleVariableToFile, .-AppendSingleVariableToFile
	.section	.text.CascadeProcessVariables,"ax",@progbits
	.align	1
	.globl	CascadeProcessVariables
	.type	CascadeProcessVariables, @function
CascadeProcessVariables:
.LFB4:
	.loc 1 427 1
	.cfi_startproc
	addi	sp,sp,-224
	.cfi_def_cfa_offset 224
	sd	ra,216(sp)
	sd	s0,208(sp)
	sd	s1,200(sp)
	sd	s2,192(sp)
	sd	s3,184(sp)
	sd	s4,176(sp)
	.cfi_offset 1, -8
	.cfi_offset 8, -16
	.cfi_offset 9, -24
	.cfi_offset 18, -32
	.cfi_offset 19, -40
	.cfi_offset 20, -48
	addi	s0,sp,224
	.cfi_def_cfa 8, 0
	sd	a0,-152(s0)
	sd	a1,-160(s0)
	sd	a3,-176(s0)
	sd	a4,-184(s0)
	sd	a5,-200(s0)
	sd	a6,-192(s0)
	sd	a7,-208(s0)
	mv	a5,a2
	sw	a5,-164(s0)
	.loc 1 440 7
	call	ShellGetExecutionBreakFlag@plt
	mv	a5,a0
	.loc 1 440 6 discriminator 1
	beq	a5,zero,.L52
	.loc 1 441 12
	li	a5,21
	j	.L87
.L52:
	.loc 1 444 12
	sd	zero,-128(s0)
	.loc 1 445 16
	sd	zero,-104(s0)
	.loc 1 447 6
	ld	a5,-184(s0)
	beq	a5,zero,.L54
	.loc 1 448 5
	addi	a4,s0,-128
	addi	a5,s0,-104
	li	a3,0
	ld	a2,-184(s0)
	mv	a1,a4
	mv	a0,a5
	call	StrnCatGrow@plt
	j	.L55
.L54:
	.loc 1 450 20
	li	a0,2
	call	AllocateZeroPool@plt
	mv	a5,a0
	.loc 1 450 18 discriminator 1
	sd	a5,-104(s0)
	.loc 1 451 22
	ld	a5,-104(s0)
	.loc 1 451 8
	bne	a5,zero,.L56
	.loc 1 452 14
	li	a5,9
	j	.L87
.L56:
	.loc 1 455 14
	li	a5,2
	sd	a5,-128(s0)
.L55:
	.loc 1 458 15
	la	a5,gRT
	ld	a5,0(a5)
	ld	a5,80(a5)
	.loc 1 458 12
	ld	a3,-104(s0)
	addi	a2,s0,-200
	addi	a4,s0,-128
	mv	a1,a3
	mv	a0,a4
	jalr	a5
.LVL4:
	sd	a0,-56(s0)
	.loc 1 459 6
	ld	a4,-56(s0)
	li	a5,-1
	slli	a5,a5,63
	addi	a5,a5,5
	bne	a4,a5,.L57
	.loc 1 460 29
	ld	a5,-104(s0)
	.loc 1 460 13
	beq	a5,zero,.L58
	.loc 1 460 48 discriminator 1
	ld	a5,-104(s0)
	mv	a0,a5
	call	FreePool@plt
	.loc 1 460 89 discriminator 2
	sd	zero,-104(s0)
.L58:
	.loc 1 461 20
	ld	a5,-128(s0)
	mv	a0,a5
	call	AllocateZeroPool@plt
	mv	a5,a0
	.loc 1 461 18 discriminator 1
	sd	a5,-104(s0)
	.loc 1 462 22
	ld	a5,-104(s0)
	.loc 1 462 8
	beq	a5,zero,.L59
	.loc 1 463 10
	ld	a5,-184(s0)
	beq	a5,zero,.L60
	.loc 1 464 9
	ld	a4,-104(s0)
	ld	a5,-128(s0)
	.loc 1 464 41
	srli	a1,a5,1
	.loc 1 464 77
	ld	a5,-128(s0)
	srli	a5,a5,1
	.loc 1 464 94
	addi	a5,a5,-1
	.loc 1 464 9
	mv	a3,a5
	ld	a2,-184(s0)
	mv	a0,a4
	call	StrnCpyS@plt
.L60:
	.loc 1 467 19
	la	a5,gRT
	ld	a5,0(a5)
	ld	a5,80(a5)
	.loc 1 467 16
	ld	a3,-104(s0)
	addi	a2,s0,-200
	addi	a4,s0,-128
	mv	a1,a3
	mv	a0,a4
	jalr	a5
.LVL5:
	sd	a0,-56(s0)
	j	.L57
.L59:
	.loc 1 469 14
	li	a5,-1
	slli	a5,a5,63
	addi	a5,a5,9
	sd	a5,-56(s0)
.L57:
	.loc 1 476 6
	ld	a4,-56(s0)
	li	a5,-1
	slli	a5,a5,63
	addi	a5,a5,14
	bne	a4,a5,.L61
	.loc 1 477 29
	ld	a5,-104(s0)
	.loc 1 477 13
	beq	a5,zero,.L62
	.loc 1 477 48 discriminator 1
	ld	a5,-104(s0)
	mv	a0,a5
	call	FreePool@plt
	.loc 1 477 89 discriminator 2
	sd	zero,-104(s0)
.L62:
	.loc 1 478 12
	li	a5,0
	j	.L87
.L61:
	.loc 1 479 41
	ld	a5,-56(s0)
	.loc 1 479 13
	bge	a5,zero,.L63
	.loc 1 480 29
	ld	a5,-104(s0)
	.loc 1 480 13
	beq	a5,zero,.L64
	.loc 1 480 48 discriminator 1
	ld	a5,-104(s0)
	mv	a0,a5
	call	FreePool@plt
	.loc 1 480 89 discriminator 2
	sd	zero,-104(s0)
.L64:
	.loc 1 481 12
	li	a5,7
	j	.L87
.L63:
	.loc 1 487 17
	ld	a4,-104(s0)
	lw	a2,-164(s0)
	lbu	a5,0(s0)
	sd	a5,0(sp)
	ld	a7,-208(s0)
	ld	a5,-200(s0)
	ld	a6,-192(s0)
	ld	a3,-176(s0)
	ld	a1,-160(s0)
	ld	a0,-152(s0)
	call	CascadeProcessVariables
	mv	a5,a0
	sw	a5,-68(s0)
	.loc 1 489 7
	call	ShellGetExecutionBreakFlag@plt
	mv	a5,a0
	.loc 1 489 6 discriminator 1
	bne	a5,zero,.L65
	.loc 1 489 37 discriminator 2
	lw	a5,-68(s0)
	sext.w	a4,a5
	li	a5,21
	bne	a4,a5,.L66
.L65:
	.loc 1 490 29
	ld	a5,-104(s0)
	.loc 1 490 13
	beq	a5,zero,.L67
	.loc 1 490 48 discriminator 1
	ld	a5,-104(s0)
	mv	a0,a5
	call	FreePool@plt
	.loc 1 490 89 discriminator 2
	sd	zero,-104(s0)
.L67:
	.loc 1 491 12
	li	a5,21
	j	.L87
.L66:
	.loc 1 498 6
	ld	a5,-152(s0)
	beq	a5,zero,.L68
	.loc 1 499 29
	la	a5,gUnicodeCollation
	ld	a5,0(a5)
	ld	a5,8(a5)
	.loc 1 499 12
	la	a4,gUnicodeCollation
	ld	a4,0(a4)
	ld	a3,-104(s0)
	ld	a2,-152(s0)
	mv	a1,a3
	mv	a0,a4
	jalr	a5
.LVL6:
	mv	a5,a0
	.loc 1 499 9 discriminator 1
	beq	a5,zero,.L69
.L68:
	.loc 1 500 6
	ld	a5,-160(s0)
	beq	a5,zero,.L70
	.loc 1 501 12
	addi	a5,s0,-200
	ld	a1,-160(s0)
	mv	a0,a5
	call	CompareGuid@plt
	mv	a5,a0
	.loc 1 501 9 discriminator 1
	beq	a5,zero,.L69
.L70:
	.loc 1 504 14
	sd	zero,-112(s0)
	.loc 1 505 16
	sd	zero,-64(s0)
	.loc 1 509 15
	ld	a5,-208(s0)
	li	a4,1
	sb	a4,0(a5)
	.loc 1 510 17
	la	a5,gRT
	ld	a5,0(a5)
	ld	a5,72(a5)
	.loc 1 510 14
	ld	a0,-104(s0)
	addi	a3,s0,-112
	addi	a2,s0,-116
	addi	a1,s0,-200
	ld	a4,-64(s0)
	jalr	a5
.LVL7:
	sd	a0,-56(s0)
	.loc 1 511 8
	ld	a4,-56(s0)
	li	a5,-1
	slli	a5,a5,63
	addi	a5,a5,5
	bne	a4,a5,.L71
	.loc 1 512 15
	ld	a5,-64(s0)
	beq	a5,zero,.L72
	.loc 1 512 48 discriminator 1
	ld	a0,-64(s0)
	call	FreePool@plt
	.loc 1 512 85 discriminator 2
	sd	zero,-64(s0)
.L72:
	.loc 1 513 20
	ld	a5,-112(s0)
	mv	a0,a5
	call	AllocatePool@plt
	sd	a0,-64(s0)
	.loc 1 514 10
	ld	a5,-64(s0)
	bne	a5,zero,.L73
	.loc 1 515 16
	li	a5,-1
	slli	a5,a5,63
	addi	a5,a5,9
	sd	a5,-56(s0)
	j	.L71
.L73:
	.loc 1 517 21
	la	a5,gRT
	ld	a5,0(a5)
	ld	a5,72(a5)
	.loc 1 517 18
	ld	a0,-104(s0)
	addi	a3,s0,-112
	addi	a2,s0,-116
	addi	a1,s0,-200
	ld	a4,-64(s0)
	jalr	a5
.LVL8:
	sd	a0,-56(s0)
.L71:
	.loc 1 524 8
	lw	a5,-164(s0)
	sext.w	a5,a5
	bne	a5,zero,.L74
	.loc 1 525 11
	ld	a5,-56(s0)
	.loc 1 525 10
	blt	a5,zero,.L75
	.loc 1 525 65 discriminator 1
	ld	a5,-64(s0)
	beq	a5,zero,.L75
	.loc 1 525 114 discriminator 2
	ld	a5,-104(s0)
	.loc 1 525 97 discriminator 2
	beq	a5,zero,.L75
	.loc 1 526 22
	lw	a5,-116(s0)
	mv	a0,a5
	call	GetAttrType
	sd	a0,-88(s0)
	.loc 1 527 12
	lbu	a5,0(s0)
	andi	a5,a5,0xff
	beq	a5,zero,.L76
	.loc 1 528 23
	ld	a5,-112(s0)
	slli	a5,a5,2
	addi	a5,a5,2
	mv	a0,a5
	call	AllocatePool@plt
	sd	a0,-96(s0)
	.loc 1 529 14
	ld	a5,-96(s0)
	beq	a5,zero,.L77
	.loc 1 530 13
	la	a5,gShellDebug1HiiHandle
	ld	s2,0(a5)
	ld	s3,-104(s0)
	lw	s4,-116(s0)
	ld	s1,-112(s0)
	ld	a4,-112(s0)
	ld	a5,-112(s0)
	slli	a5,a5,2
	addi	a5,a5,2
	mv	a3,a5
	ld	a2,-96(s0)
	mv	a1,a4
	ld	a0,-64(s0)
	call	BinaryToHexString
	mv	a4,a0
	.loc 1 530 13 is_stmt 0 discriminator 1
	addi	a5,s0,-200
	sd	a4,8(sp)
	sd	s1,0(sp)
	mv	a7,s4
	mv	a6,a5
	mv	a5,s3
	mv	a4,s2
	li	a3,806
	li	a2,0
	li	a1,-1
	li	a0,-1
	call	ShellPrintHiiEx@plt
	.loc 1 547 13 is_stmt 1
	ld	a0,-96(s0)
	call	FreePool@plt
	j	.L78
.L77:
	.loc 1 549 20
	li	a5,-1
	slli	a5,a5,63
	addi	a5,a5,9
	sd	a5,-56(s0)
	j	.L78
.L76:
	.loc 1 552 37
	la	a5,gEfiShellProtocol
	ld	a5,0(a5)
	ld	a5,336(a5)
	.loc 1 552 20
	addi	a3,s0,-136
	addi	a4,s0,-200
	mv	a1,a3
	mv	a0,a4
	jalr	a5
.LVL9:
	sd	a0,-56(s0)
	.loc 1 553 42
	ld	a5,-56(s0)
	.loc 1 553 14
	bge	a5,zero,.L79
	.loc 1 554 13
	la	a5,gShellDebug1HiiHandle
	ld	a4,0(a5)
	ld	a2,-104(s0)
	ld	a5,-112(s0)
	addi	a3,s0,-200
	sd	a5,0(sp)
	mv	a7,a2
	mv	a6,a3
	ld	a5,-88(s0)
	li	a3,795
	li	a2,0
	li	a1,-1
	li	a0,-1
	call	ShellPrintHiiEx@plt
	j	.L80
.L79:
	.loc 1 566 13
	la	a5,gShellDebug1HiiHandle
	ld	a4,0(a5)
	ld	a3,-136(s0)
	ld	a2,-104(s0)
	ld	a5,-112(s0)
	sd	a5,0(sp)
	mv	a7,a2
	mv	a6,a3
	ld	a5,-88(s0)
	li	a3,796
	li	a2,0
	li	a1,-1
	li	a0,-1
	call	ShellPrintHiiEx@plt
.L80:
	.loc 1 579 11
	ld	a5,-112(s0)
	ld	a3,-64(s0)
	mv	a2,a5
	li	a1,0
	li	a0,2
	call	DumpHex@plt
.L78:
	.loc 1 582 17
	ld	a5,-88(s0)
	beq	a5,zero,.L75
	.loc 1 582 50 discriminator 1
	ld	a0,-88(s0)
	call	FreePool@plt
	.loc 1 582 87 discriminator 2
	sd	zero,-88(s0)
	j	.L75
.L74:
	.loc 1 584 15
	lw	a5,-164(s0)
	sext.w	a4,a5
	li	a5,2
	bne	a4,a5,.L81
	.loc 1 585 11
	ld	a5,-56(s0)
	.loc 1 585 10
	blt	a5,zero,.L75
	.loc 1 585 65 discriminator 1
	ld	a5,-64(s0)
	beq	a5,zero,.L75
	.loc 1 585 114 discriminator 2
	ld	a5,-104(s0)
	.loc 1 585 97 discriminator 2
	beq	a5,zero,.L75
	.loc 1 586 22
	lw	a5,-116(s0)
	mv	a0,a5
	call	GetAttrType
	sd	a0,-88(s0)
	.loc 1 587 9
	la	a5,gShellDebug1HiiHandle
	ld	a4,0(a5)
	ld	a2,-104(s0)
	ld	a5,-112(s0)
	addi	a3,s0,-200
	sd	a5,0(sp)
	mv	a7,a2
	mv	a6,a3
	ld	a5,-88(s0)
	li	a3,795
	li	a2,0
	li	a1,-1
	li	a0,-1
	call	ShellPrintHiiEx@plt
	.loc 1 598 18
	ld	a1,-104(s0)
	lw	a3,-116(s0)
	ld	a5,-112(s0)
	sext.w	a4,a5
	addi	a2,s0,-200
	ld	a5,-64(s0)
	ld	a0,-176(s0)
	call	AppendSingleVariableToFile
	sd	a0,-56(s0)
	.loc 1 606 17
	ld	a5,-88(s0)
	beq	a5,zero,.L75
	.loc 1 606 50 discriminator 1
	ld	a0,-88(s0)
	call	FreePool@plt
	.loc 1 606 87 discriminator 2
	sd	zero,-88(s0)
	j	.L75
.L81:
	.loc 1 608 15
	lw	a5,-164(s0)
	sext.w	a4,a5
	li	a5,1
	bne	a4,a5,.L75
	.loc 1 612 22
	la	a5,gRT
	ld	a5,0(a5)
	ld	a5,88(a5)
	.loc 1 612 19
	ld	a0,-104(s0)
	lw	a2,-116(s0)
	addi	a1,s0,-200
	li	a4,0
	li	a3,0
	jalr	a5
.LVL10:
	sd	a0,-80(s0)
	.loc 1 613 10
	lbu	a5,0(s0)
	andi	a5,a5,0xff
	beq	a5,zero,.L82
	.loc 1 614 12
	ld	a5,-80(s0)
	bne	a5,zero,.L75
	.loc 1 615 11
	la	a5,gShellDebug1HiiHandle
	ld	a4,0(a5)
	ld	a5,-104(s0)
	addi	a3,s0,-200
	mv	a6,a3
	li	a3,801
	li	a2,0
	li	a1,-1
	li	a0,-1
	call	ShellPrintHiiEx@plt
	j	.L75
.L82:
	.loc 1 626 9
	la	a5,gShellDebug1HiiHandle
	ld	a4,0(a5)
	ld	a3,-104(s0)
	addi	a5,s0,-200
	ld	a7,-80(s0)
	mv	a6,a3
	li	a3,797
	li	a2,0
	li	a1,-1
	li	a0,-1
	call	ShellPrintHiiEx@plt
.L75:
	.loc 1 639 13
	ld	a5,-64(s0)
	beq	a5,zero,.L69
	.loc 1 639 46 discriminator 1
	ld	a0,-64(s0)
	call	FreePool@plt
	.loc 1 639 83 discriminator 2
	sd	zero,-64(s0)
.L69:
	.loc 1 642 27
	ld	a5,-104(s0)
	.loc 1 642 11
	beq	a5,zero,.L83
	.loc 1 642 46 discriminator 1
	ld	a5,-104(s0)
	mv	a0,a5
	call	FreePool@plt
	.loc 1 642 87 discriminator 2
	sd	zero,-104(s0)
.L83:
	.loc 1 644 6
	ld	a4,-56(s0)
	li	a5,-1
	slli	a5,a5,63
	addi	a5,a5,7
	bne	a4,a5,.L84
	.loc 1 645 17
	li	a5,7
	sw	a5,-68(s0)
	j	.L85
.L84:
	.loc 1 646 13
	ld	a4,-56(s0)
	li	a5,-1
	slli	a5,a5,63
	addi	a5,a5,26
	bne	a4,a5,.L86
	.loc 1 647 17
	li	a5,26
	sw	a5,-68(s0)
	j	.L85
.L86:
	.loc 1 648 41
	ld	a5,-56(s0)
	.loc 1 648 13
	bge	a5,zero,.L85
	.loc 1 649 17
	li	a5,6
	sw	a5,-68(s0)
.L85:
	.loc 1 652 10
	lw	a5,-68(s0)
.L87:
	.loc 1 653 1
	mv	a0,a5
	ld	ra,216(sp)
	.cfi_restore 1
	ld	s0,208(sp)
	.cfi_restore 8
	.cfi_def_cfa 2, 224
	ld	s1,200(sp)
	.cfi_restore 9
	ld	s2,192(sp)
	.cfi_restore 18
	ld	s3,184(sp)
	.cfi_restore 19
	ld	s4,176(sp)
	.cfi_restore 20
	addi	sp,sp,224
	.cfi_def_cfa_offset 0
	jr	ra
	.cfi_endproc
.LFE4:
	.size	CascadeProcessVariables, .-CascadeProcessVariables
	.section	.text.ProcessVariables,"ax",@progbits
	.align	1
	.globl	ProcessVariables
	.type	ProcessVariables, @function
ProcessVariables:
.LFB5:
	.loc 1 678 1
	.cfi_startproc
	addi	sp,sp,-96
	.cfi_def_cfa_offset 96
	sd	ra,88(sp)
	sd	s0,80(sp)
	.cfi_offset 1, -8
	.cfi_offset 8, -16
	addi	s0,sp,96
	.cfi_def_cfa 8, 0
	sd	a0,-56(s0)
	sd	a1,-64(s0)
	mv	a5,a2
	sd	a3,-80(s0)
	sw	a5,-68(s0)
	mv	a5,a4
	sb	a5,-69(s0)
	.loc 1 683 9
	sb	zero,-21(s0)
	.loc 1 684 15
	sw	zero,-20(s0)
	.loc 1 685 3
	addi	a5,s0,-40
	li	a1,16
	mv	a0,a5
	call	ZeroMem@plt
	.loc 1 687 6
	lbu	a5,-69(s0)
	andi	a5,a5,0xff
	beq	a5,zero,.L89
	.loc 1 688 5
	la	a5,gShellDebug1HiiHandle
	ld	a4,0(a5)
	lla	a5,.LC8
	li	a3,565
	li	a2,0
	li	a1,-1
	li	a0,-1
	call	ShellPrintHiiEx@plt
.L89:
	.loc 1 691 6
	lw	a5,-68(s0)
	sext.w	a4,a5
	li	a5,3
	bne	a4,a5,.L90
	.loc 1 692 19
	addi	a5,s0,-21
	mv	a3,a5
	ld	a2,-64(s0)
	ld	a1,-56(s0)
	ld	a0,-80(s0)
	call	LoadVariablesFromFile
	mv	a5,a0
	sw	a5,-20(s0)
	j	.L91
.L90:
	.loc 1 694 19
	addi	a4,s0,-21
	lw	a2,-68(s0)
	lbu	a5,-69(s0)
	sd	a5,0(sp)
	mv	a7,a4
	ld	a5,-40(s0)
	ld	a6,-32(s0)
	li	a4,0
	ld	a3,-80(s0)
	ld	a1,-64(s0)
	ld	a0,-56(s0)
	call	CascadeProcessVariables
	mv	a5,a0
	sw	a5,-20(s0)
.L91:
	.loc 1 697 7
	lbu	a5,-21(s0)
	.loc 1 697 6
	bne	a5,zero,.L92
	.loc 1 698 8
	lw	a5,-20(s0)
	sext.w	a4,a5
	li	a5,9
	bne	a4,a5,.L93
	.loc 1 699 7
	la	a5,gShellDebug1HiiHandle
	ld	a4,0(a5)
	lla	a5,.LC8
	li	a3,559
	li	a2,0
	li	a1,-1
	li	a0,-1
	call	ShellPrintHiiEx@plt
	.loc 1 700 14
	lw	a5,-20(s0)
	j	.L104
.L93:
	.loc 1 701 15
	ld	a5,-56(s0)
	beq	a5,zero,.L95
	.loc 1 701 39 discriminator 1
	ld	a5,-64(s0)
	bne	a5,zero,.L95
	.loc 1 702 10
	lbu	a5,-69(s0)
	andi	a5,a5,0xff
	beq	a5,zero,.L96
	.loc 1 703 9
	la	a5,gShellDebug1HiiHandle
	ld	a4,0(a5)
	ld	a5,-56(s0)
	li	a3,803
	li	a2,0
	li	a1,-1
	li	a0,-1
	call	ShellPrintHiiEx@plt
	.loc 1 702 10
	j	.L98
.L96:
	.loc 1 705 9
	la	a5,gShellDebug1HiiHandle
	ld	a4,0(a5)
	ld	a6,-56(s0)
	lla	a5,.LC8
	li	a3,802
	li	a2,0
	li	a1,-1
	li	a0,-1
	call	ShellPrintHiiEx@plt
	.loc 1 702 10
	j	.L98
.L95:
	.loc 1 707 15
	ld	a5,-56(s0)
	beq	a5,zero,.L99
	.loc 1 707 39 discriminator 1
	ld	a5,-64(s0)
	beq	a5,zero,.L99
	.loc 1 708 7
	la	a5,gShellDebug1HiiHandle
	ld	a4,0(a5)
	ld	a7,-56(s0)
	ld	a6,-64(s0)
	lla	a5,.LC8
	li	a3,800
	li	a2,0
	li	a1,-1
	li	a0,-1
	call	ShellPrintHiiEx@plt
	j	.L98
.L99:
	.loc 1 709 15
	ld	a5,-56(s0)
	bne	a5,zero,.L100
	.loc 1 709 39 discriminator 1
	ld	a5,-64(s0)
	bne	a5,zero,.L100
	.loc 1 710 10
	lbu	a5,-69(s0)
	andi	a5,a5,0xff
	beq	a5,zero,.L101
	.loc 1 711 9
	la	a5,gShellDebug1HiiHandle
	ld	a5,0(a5)
	mv	a4,a5
	li	a3,799
	li	a2,0
	li	a1,-1
	li	a0,-1
	call	ShellPrintHiiEx@plt
	.loc 1 710 10
	j	.L98
.L101:
	.loc 1 713 9
	la	a5,gShellDebug1HiiHandle
	ld	a4,0(a5)
	lla	a5,.LC8
	li	a3,798
	li	a2,0
	li	a1,-1
	li	a0,-1
	call	ShellPrintHiiEx@plt
	.loc 1 710 10
	j	.L98
.L100:
	.loc 1 715 15
	ld	a5,-56(s0)
	bne	a5,zero,.L98
	.loc 1 715 39 discriminator 1
	ld	a5,-64(s0)
	beq	a5,zero,.L98
	.loc 1 716 10
	lbu	a5,-69(s0)
	andi	a5,a5,0xff
	beq	a5,zero,.L103
	.loc 1 717 9
	la	a5,gShellDebug1HiiHandle
	ld	a4,0(a5)
	ld	a5,-64(s0)
	li	a3,805
	li	a2,0
	li	a1,-1
	li	a0,-1
	call	ShellPrintHiiEx@plt
	j	.L98
.L103:
	.loc 1 719 9
	la	a5,gShellDebug1HiiHandle
	ld	a4,0(a5)
	ld	a6,-64(s0)
	lla	a5,.LC8
	li	a3,804
	li	a2,0
	li	a1,-1
	li	a0,-1
	call	ShellPrintHiiEx@plt
.L98:
	.loc 1 723 12
	li	a5,14
	j	.L104
.L92:
	.loc 1 726 10
	lw	a5,-20(s0)
.L104:
	.loc 1 727 1
	mv	a0,a5
	ld	ra,88(sp)
	.cfi_restore 1
	ld	s0,80(sp)
	.cfi_restore 8
	.cfi_def_cfa 2, 96
	addi	sp,sp,96
	.cfi_def_cfa_offset 0
	jr	ra
	.cfi_endproc
.LFE5:
	.size	ProcessVariables, .-ProcessVariables
	.section	.rodata
	.align	3
.LC9:
	.string	"-"
	.string	"d"
	.zero	2
	.align	3
.LC10:
	.string	"-"
	.string	"l"
	.zero	2
	.align	3
.LC11:
	.string	"-"
	.string	"s"
	.zero	2
	.align	3
.LC12:
	.string	"-"
	.string	"a"
	.string	"l"
	.string	"l"
	.zero	2
	.align	3
.LC13:
	.string	"-"
	.string	"g"
	.string	"u"
	.string	"i"
	.string	"d"
	.zero	2
	.align	3
.LC14:
	.string	"-"
	.string	"s"
	.string	"f"
	.string	"o"
	.zero	2
	.section	.data.rel.ro.local.ParamList,"aw"
	.align	3
	.type	ParamList, @object
	.size	ParamList, 112
ParamList:
	.dword	.LC9
	.word	0
	.zero	4
	.dword	.LC10
	.word	1
	.zero	4
	.dword	.LC11
	.word	1
	.zero	4
	.dword	.LC12
	.word	0
	.zero	4
	.dword	.LC13
	.word	1
	.zero	4
	.dword	.LC14
	.word	0
	.zero	4
	.dword	0
	.word	7
	.zero	4
	.section	.rodata
	.align	3
.LC15:
	.string	"-"
	.string	"l"
	.string	" "
	.string	"o"
	.string	"r"
	.string	" "
	.string	"-"
	.string	"s"
	.zero	2
	.section	.text.ShellCommandRunDmpStore,"ax",@progbits
	.align	1
	.globl	ShellCommandRunDmpStore
	.type	ShellCommandRunDmpStore, @function
ShellCommandRunDmpStore:
.LFB6:
	.loc 1 751 1
	.cfi_startproc
	addi	sp,sp,-144
	.cfi_def_cfa_offset 144
	sd	ra,136(sp)
	sd	s0,128(sp)
	.cfi_offset 1, -8
	.cfi_offset 8, -16
	addi	s0,sp,144
	.cfi_def_cfa 8, 0
	sd	a0,-136(s0)
	sd	a1,-144(s0)
	.loc 1 767 15
	sw	zero,-28(s0)
	.loc 1 768 11
	sd	zero,-96(s0)
	.loc 1 769 14
	sd	zero,-128(s0)
	.loc 1 770 8
	sd	zero,-40(s0)
	.loc 1 771 8
	sw	zero,-52(s0)
	.loc 1 772 24
	sb	zero,-53(s0)
	.loc 1 774 12
	addi	a2,s0,-104
	addi	a5,s0,-96
	li	a4,0
	li	a3,1
	mv	a1,a5
	lla	a0,ParamList
	call	ShellCommandLineParseEx@plt
	sd	a0,-24(s0)
	.loc 1 775 34
	ld	a5,-24(s0)
	.loc 1 775 6
	bge	a5,zero,.L106
	.loc 1 776 8
	ld	a4,-24(s0)
	li	a5,-1
	slli	a5,a5,63
	addi	a5,a5,10
	bne	a4,a5,.L107
	.loc 1 776 86 discriminator 1
	ld	a5,-104(s0)
	.loc 1 776 69 discriminator 1
	beq	a5,zero,.L107
	.loc 1 777 7
	la	a5,gShellDebug1HiiHandle
	ld	a4,0(a5)
	ld	a5,-104(s0)
	mv	a6,a5
	lla	a5,.LC8
	li	a3,548
	li	a2,0
	li	a1,-1
	li	a0,-1
	call	ShellPrintHiiEx@plt
	.loc 1 778 7
	ld	a5,-104(s0)
	mv	a0,a5
	call	FreePool@plt
	.loc 1 779 19
	li	a5,2
	sw	a5,-28(s0)
	j	.L107
.L106:
	.loc 1 784 9
	ld	a5,-96(s0)
	mv	a0,a5
	call	ShellCommandLineGetCount@plt
	mv	a4,a0
	.loc 1 784 8 discriminator 1
	li	a5,2
	bleu	a4,a5,.L108
	.loc 1 785 7
	la	a5,gShellDebug1HiiHandle
	ld	a4,0(a5)
	lla	a5,.LC8
	li	a3,553
	li	a2,0
	li	a1,-1
	li	a0,-1
	call	ShellPrintHiiEx@plt
	.loc 1 786 19
	li	a5,2
	sw	a5,-28(s0)
	j	.L107
.L108:
	.loc 1 787 16
	ld	a5,-96(s0)
	lla	a1,.LC12
	mv	a0,a5
	call	ShellCommandLineGetFlag@plt
	mv	a5,a0
	.loc 1 787 15 discriminator 1
	beq	a5,zero,.L109
	.loc 1 787 62 discriminator 2
	ld	a5,-96(s0)
	lla	a1,.LC13
	mv	a0,a5
	call	ShellCommandLineGetFlag@plt
	mv	a5,a0
	.loc 1 787 59 discriminator 3
	beq	a5,zero,.L109
	.loc 1 788 7
	la	a5,gShellDebug1HiiHandle
	ld	a4,0(a5)
	lla	a7,.LC13
	lla	a6,.LC12
	lla	a5,.LC8
	li	a3,558
	li	a2,0
	li	a1,-1
	li	a0,-1
	call	ShellPrintHiiEx@plt
	.loc 1 789 19
	li	a5,2
	sw	a5,-28(s0)
	j	.L107
.L109:
	.loc 1 790 16
	ld	a5,-96(s0)
	lla	a1,.LC11
	mv	a0,a5
	call	ShellCommandLineGetFlag@plt
	mv	a5,a0
	.loc 1 790 15 discriminator 1
	beq	a5,zero,.L110
	.loc 1 790 60 discriminator 2
	ld	a5,-96(s0)
	lla	a1,.LC10
	mv	a0,a5
	call	ShellCommandLineGetFlag@plt
	mv	a5,a0
	.loc 1 790 57 discriminator 3
	beq	a5,zero,.L110
	.loc 1 791 7
	la	a5,gShellDebug1HiiHandle
	ld	a4,0(a5)
	lla	a7,.LC11
	lla	a6,.LC10
	lla	a5,.LC8
	li	a3,558
	li	a2,0
	li	a1,-1
	li	a0,-1
	call	ShellPrintHiiEx@plt
	.loc 1 792 19
	li	a5,2
	sw	a5,-28(s0)
	j	.L107
.L110:
	.loc 1 793 17
	ld	a5,-96(s0)
	lla	a1,.LC11
	mv	a0,a5
	call	ShellCommandLineGetFlag@plt
	mv	a5,a0
	.loc 1 793 15 discriminator 1
	bne	a5,zero,.L111
	.loc 1 793 61 discriminator 3
	ld	a5,-96(s0)
	lla	a1,.LC10
	mv	a0,a5
	call	ShellCommandLineGetFlag@plt
	mv	a5,a0
	.loc 1 793 58 discriminator 4
	beq	a5,zero,.L112
.L111:
	.loc 1 793 106 discriminator 5
	ld	a5,-96(s0)
	lla	a1,.LC9
	mv	a0,a5
	call	ShellCommandLineGetFlag@plt
	mv	a5,a0
	.loc 1 793 103 discriminator 6
	beq	a5,zero,.L112
	.loc 1 794 7
	la	a5,gShellDebug1HiiHandle
	ld	a4,0(a5)
	lla	a7,.LC9
	lla	a6,.LC15
	lla	a5,.LC8
	li	a3,558
	li	a2,0
	li	a1,-1
	li	a0,-1
	call	ShellPrintHiiEx@plt
	.loc 1 795 19
	li	a5,2
	sw	a5,-28(s0)
	j	.L107
.L112:
	.loc 1 796 17
	ld	a5,-96(s0)
	lla	a1,.LC11
	mv	a0,a5
	call	ShellCommandLineGetFlag@plt
	mv	a5,a0
	.loc 1 796 15 discriminator 1
	bne	a5,zero,.L113
	.loc 1 796 61 discriminator 3
	ld	a5,-96(s0)
	lla	a1,.LC10
	mv	a0,a5
	call	ShellCommandLineGetFlag@plt
	mv	a5,a0
	.loc 1 796 58 discriminator 4
	beq	a5,zero,.L114
.L113:
	.loc 1 796 106 discriminator 5
	ld	a5,-96(s0)
	lla	a1,.LC14
	mv	a0,a5
	call	ShellCommandLineGetFlag@plt
	mv	a5,a0
	.loc 1 796 103 discriminator 6
	beq	a5,zero,.L114
	.loc 1 797 7
	la	a5,gShellDebug1HiiHandle
	ld	a4,0(a5)
	lla	a7,.LC14
	lla	a6,.LC15
	lla	a5,.LC8
	li	a3,558
	li	a2,0
	li	a1,-1
	li	a0,-1
	call	ShellPrintHiiEx@plt
	.loc 1 798 19
	li	a5,2
	sw	a5,-28(s0)
	j	.L107
.L114:
	.loc 1 803 12
	ld	a5,-96(s0)
	lla	a1,.LC12
	mv	a0,a5
	call	ShellCommandLineGetFlag@plt
	mv	a5,a0
	.loc 1 803 10 discriminator 1
	bne	a5,zero,.L115
	.loc 1 804 19
	ld	a5,-96(s0)
	lla	a1,.LC13
	mv	a0,a5
	call	ShellCommandLineGetValue@plt
	sd	a0,-64(s0)
	.loc 1 805 12
	ld	a5,-64(s0)
	beq	a5,zero,.L116
	.loc 1 806 21
	addi	a5,s0,-120
	mv	a1,a5
	ld	a0,-64(s0)
	call	StrToGuid@plt
	sd	a0,-72(s0)
	.loc 1 807 43
	ld	a5,-72(s0)
	.loc 1 807 14
	blt	a5,zero,.L117
	.loc 1 807 80 discriminator 1
	ld	a5,-64(s0)
	addi	a5,a5,72
	lhu	a5,0(a5)
	.loc 1 807 69 discriminator 1
	beq	a5,zero,.L118
.L117:
	.loc 1 808 13
	la	a5,gShellDebug1HiiHandle
	ld	a4,0(a5)
	ld	a6,-64(s0)
	lla	a5,.LC8
	li	a3,556
	li	a2,0
	li	a1,-1
	li	a0,-1
	call	ShellPrintHiiEx@plt
	.loc 1 809 25
	li	a5,2
	sw	a5,-28(s0)
.L118:
	.loc 1 812 16
	addi	a5,s0,-120
	sd	a5,-48(s0)
	j	.L119
.L116:
	.loc 1 814 16
	la	a5,gEfiGlobalVariableGuid
	sd	a5,-48(s0)
	j	.L119
.L115:
	.loc 1 817 14
	sd	zero,-48(s0)
.L119:
	.loc 1 823 14
	ld	a5,-96(s0)
	li	a1,1
	mv	a0,a5
	call	ShellCommandLineGetRawValue@plt
	sd	a0,-80(s0)
	.loc 1 825 10
	lw	a5,-28(s0)
	sext.w	a5,a5
	bne	a5,zero,.L120
	.loc 1 826 13
	ld	a5,-96(s0)
	lla	a1,.LC11
	mv	a0,a5
	call	ShellCommandLineGetFlag@plt
	mv	a5,a0
	.loc 1 826 12 discriminator 1
	beq	a5,zero,.L121
	.loc 1 827 16
	li	a5,2
	sw	a5,-52(s0)
	.loc 1 828 18
	ld	a5,-96(s0)
	lla	a1,.LC11
	mv	a0,a5
	call	ShellCommandLineGetValue@plt
	sd	a0,-40(s0)
	.loc 1 829 14
	ld	a5,-40(s0)
	bne	a5,zero,.L122
	.loc 1 830 13
	la	a5,gShellDebug1HiiHandle
	ld	a4,0(a5)
	lla	a6,.LC11
	lla	a5,.LC8
	li	a3,551
	li	a2,0
	li	a1,-1
	li	a0,-1
	call	ShellPrintHiiEx@plt
	.loc 1 831 25
	li	a5,2
	sw	a5,-28(s0)
	j	.L123
.L122:
	.loc 1 833 22
	addi	a5,s0,-128
	li	a3,0
	li	a2,3
	mv	a1,a5
	ld	a0,-40(s0)
	call	ShellOpenFileByName@plt
	sd	a0,-24(s0)
	.loc 1 834 17
	ld	a5,-24(s0)
	.loc 1 834 16
	blt	a5,zero,.L124
	.loc 1 838 26
	ld	a5,-128(s0)
	mv	a0,a5
	call	ShellGetFileInfo@plt
	sd	a0,-88(s0)
	.loc 1 839 18
	ld	a5,-88(s0)
	bne	a5,zero,.L125
	.loc 1 840 17
	la	a5,gShellDebug1HiiHandle
	ld	a4,0(a5)
	ld	a6,-40(s0)
	lla	a5,.LC8
	li	a3,561
	li	a2,0
	li	a1,-1
	li	a0,-1
	call	ShellPrintHiiEx@plt
	.loc 1 841 24
	li	a5,-1
	slli	a5,a5,63
	addi	a5,a5,7
	sd	a5,-24(s0)
	j	.L126
.L125:
	.loc 1 843 30
	ld	a5,-88(s0)
	ld	a5,72(a5)
	.loc 1 843 42
	andi	a5,a5,16
	.loc 1 843 20
	beq	a5,zero,.L127
	.loc 1 844 19
	la	a5,gShellDebug1HiiHandle
	ld	a4,0(a5)
	ld	a6,-40(s0)
	lla	a5,.LC8
	li	a3,564
	li	a2,0
	li	a1,-1
	li	a0,-1
	call	ShellPrintHiiEx@plt
	.loc 1 845 26
	li	a5,-1
	slli	a5,a5,63
	addi	a5,a5,2
	sd	a5,-24(s0)
	j	.L128
.L127:
	.loc 1 847 28
	addi	a5,s0,-128
	mv	a0,a5
	call	ShellDeleteFile@plt
	sd	a0,-24(s0)
	.loc 1 848 50
	ld	a5,-24(s0)
	.loc 1 848 22
	bge	a5,zero,.L128
	.loc 1 849 21
	la	a5,gShellDebug1HiiHandle
	ld	a4,0(a5)
	ld	a6,-40(s0)
	lla	a5,.LC8
	li	a3,562
	li	a2,0
	li	a1,-1
	li	a0,-1
	call	ShellPrintHiiEx@plt
.L128:
	.loc 1 853 17
	ld	a0,-88(s0)
	call	FreePool@plt
	j	.L126
.L124:
	.loc 1 855 23
	ld	a4,-24(s0)
	li	a5,-1
	slli	a5,a5,63
	addi	a5,a5,14
	bne	a4,a5,.L129
	.loc 1 859 22
	sd	zero,-24(s0)
	j	.L126
.L129:
	.loc 1 864 15
	la	a5,gShellDebug1HiiHandle
	ld	a4,0(a5)
	ld	a6,-40(s0)
	lla	a5,.LC8
	li	a3,561
	li	a2,0
	li	a1,-1
	li	a0,-1
	call	ShellPrintHiiEx@plt
.L126:
	.loc 1 867 17
	ld	a5,-24(s0)
	.loc 1 867 16
	blt	a5,zero,.L130
	.loc 1 868 24
	addi	a4,s0,-128
	li	a3,0
	li	a5,-1
	slli	a5,a5,63
	addi	a2,a5,3
	mv	a1,a4
	ld	a0,-40(s0)
	call	ShellOpenFileByName@plt
	sd	a0,-24(s0)
	.loc 1 869 46
	ld	a5,-24(s0)
	.loc 1 869 18
	bge	a5,zero,.L130
	.loc 1 870 17
	la	a5,gShellDebug1HiiHandle
	ld	a4,0(a5)
	ld	a6,-40(s0)
	lla	a5,.LC8
	li	a3,561
	li	a2,0
	li	a1,-1
	li	a0,-1
	call	ShellPrintHiiEx@plt
.L130:
	.loc 1 874 44
	ld	a5,-24(s0)
	.loc 1 874 16
	bge	a5,zero,.L123
	.loc 1 875 27
	li	a5,2
	sw	a5,-28(s0)
	j	.L123
.L121:
	.loc 1 878 20
	ld	a5,-96(s0)
	lla	a1,.LC10
	mv	a0,a5
	call	ShellCommandLineGetFlag@plt
	mv	a5,a0
	.loc 1 878 19 discriminator 1
	beq	a5,zero,.L131
	.loc 1 879 16
	li	a5,3
	sw	a5,-52(s0)
	.loc 1 880 18
	ld	a5,-96(s0)
	lla	a1,.LC10
	mv	a0,a5
	call	ShellCommandLineGetValue@plt
	sd	a0,-40(s0)
	.loc 1 881 14
	ld	a5,-40(s0)
	bne	a5,zero,.L132
	.loc 1 882 13
	la	a5,gShellDebug1HiiHandle
	ld	a4,0(a5)
	lla	a6,.LC10
	lla	a5,.LC8
	li	a3,551
	li	a2,0
	li	a1,-1
	li	a0,-1
	call	ShellPrintHiiEx@plt
	.loc 1 883 25
	li	a5,2
	sw	a5,-28(s0)
	j	.L123
.L132:
	.loc 1 885 22
	addi	a5,s0,-128
	li	a3,0
	li	a2,1
	mv	a1,a5
	ld	a0,-40(s0)
	call	ShellOpenFileByName@plt
	sd	a0,-24(s0)
	.loc 1 886 44
	ld	a5,-24(s0)
	.loc 1 886 16
	bge	a5,zero,.L133
	.loc 1 887 15
	la	a5,gShellDebug1HiiHandle
	ld	a4,0(a5)
	ld	a6,-40(s0)
	lla	a5,.LC8
	li	a3,561
	li	a2,0
	li	a1,-1
	li	a0,-1
	call	ShellPrintHiiEx@plt
	.loc 1 888 27
	li	a5,2
	sw	a5,-28(s0)
	j	.L123
.L133:
	.loc 1 890 26
	ld	a5,-128(s0)
	mv	a0,a5
	call	ShellGetFileInfo@plt
	sd	a0,-88(s0)
	.loc 1 891 18
	ld	a5,-88(s0)
	bne	a5,zero,.L134
	.loc 1 892 17
	la	a5,gShellDebug1HiiHandle
	ld	a4,0(a5)
	ld	a6,-40(s0)
	lla	a5,.LC8
	li	a3,561
	li	a2,0
	li	a1,-1
	li	a0,-1
	call	ShellPrintHiiEx@plt
	.loc 1 893 29
	li	a5,7
	sw	a5,-28(s0)
	j	.L123
.L134:
	.loc 1 895 30
	ld	a5,-88(s0)
	ld	a5,72(a5)
	.loc 1 895 42
	andi	a5,a5,16
	.loc 1 895 20
	beq	a5,zero,.L135
	.loc 1 896 19
	la	a5,gShellDebug1HiiHandle
	ld	a4,0(a5)
	ld	a6,-40(s0)
	lla	a5,.LC8
	li	a3,564
	li	a2,0
	li	a1,-1
	li	a0,-1
	call	ShellPrintHiiEx@plt
	.loc 1 897 31
	li	a5,2
	sw	a5,-28(s0)
.L135:
	.loc 1 900 17
	ld	a0,-88(s0)
	call	FreePool@plt
	j	.L123
.L131:
	.loc 1 904 20
	ld	a5,-96(s0)
	lla	a1,.LC9
	mv	a0,a5
	call	ShellCommandLineGetFlag@plt
	mv	a5,a0
	.loc 1 904 19 discriminator 1
	beq	a5,zero,.L123
	.loc 1 905 16
	li	a5,1
	sw	a5,-52(s0)
.L123:
	.loc 1 908 13
	ld	a5,-96(s0)
	lla	a1,.LC14
	mv	a0,a5
	call	ShellCommandLineGetFlag@plt
	mv	a5,a0
	.loc 1 908 12 discriminator 1
	beq	a5,zero,.L120
	.loc 1 909 32
	li	a5,1
	sb	a5,-53(s0)
.L120:
	.loc 1 913 10
	lw	a5,-28(s0)
	sext.w	a5,a5
	bne	a5,zero,.L107
	.loc 1 914 12
	lw	a5,-52(s0)
	sext.w	a4,a5
	li	a5,2
	bne	a4,a5,.L136
	.loc 1 915 11
	la	a5,gShellDebug1HiiHandle
	ld	a4,0(a5)
	ld	a5,-40(s0)
	li	a3,791
	li	a2,0
	li	a1,-1
	li	a0,-1
	call	ShellPrintHiiEx@plt
	j	.L137
.L136:
	.loc 1 916 19
	lw	a5,-52(s0)
	sext.w	a4,a5
	li	a5,3
	bne	a4,a5,.L137
	.loc 1 917 11
	la	a5,gShellDebug1HiiHandle
	ld	a4,0(a5)
	ld	a5,-40(s0)
	li	a3,792
	li	a2,0
	li	a1,-1
	li	a0,-1
	call	ShellPrintHiiEx@plt
.L137:
	.loc 1 920 23
	ld	a3,-128(s0)
	lbu	a4,-53(s0)
	lw	a5,-52(s0)
	mv	a2,a5
	ld	a1,-48(s0)
	ld	a0,-80(s0)
	call	ProcessVariables
	mv	a5,a0
	sw	a5,-28(s0)
	.loc 1 921 12
	lw	a5,-52(s0)
	sext.w	a4,a5
	li	a5,3
	beq	a4,a5,.L138
	.loc 1 921 36 discriminator 1
	lw	a5,-52(s0)
	sext.w	a4,a5
	li	a5,2
	bne	a4,a5,.L107
.L138:
	.loc 1 922 11
	addi	a5,s0,-128
	mv	a0,a5
	call	ShellCloseFile@plt
.L107:
	.loc 1 928 15
	ld	a5,-96(s0)
	.loc 1 928 6
	beq	a5,zero,.L139
	.loc 1 929 5
	ld	a5,-96(s0)
	mv	a0,a5
	call	ShellCommandLineFreeVarList@plt
.L139:
	.loc 1 932 10
	lw	a5,-28(s0)
	.loc 1 933 1
	mv	a0,a5
	ld	ra,136(sp)
	.cfi_restore 1
	ld	s0,128(sp)
	.cfi_restore 8
	.cfi_def_cfa 2, 144
	addi	sp,sp,144
	.cfi_def_cfa_offset 0
	jr	ra
	.cfi_endproc
.LFE6:
	.size	ShellCommandRunDmpStore, .-ShellCommandRunDmpStore
	.text
.Letext0:
	.file 2 "/home/kapoagaeming/Downloads/spacemit-image-builder/components/edk2/MdePkg/Include/RiscV64/ProcessorBind.h"
	.file 3 "/home/kapoagaeming/Downloads/spacemit-image-builder/components/edk2/MdePkg/Include/Base.h"
	.file 4 "/home/kapoagaeming/Downloads/spacemit-image-builder/components/edk2/MdePkg/Include/Uefi/UefiBaseType.h"
	.file 5 "/home/kapoagaeming/Downloads/spacemit-image-builder/components/edk2/MdePkg/Include/Uefi/UefiMultiPhase.h"
	.file 6 "/home/kapoagaeming/Downloads/spacemit-image-builder/components/edk2/MdePkg/Include/Protocol/DevicePath.h"
	.file 7 "/home/kapoagaeming/Downloads/spacemit-image-builder/components/edk2/MdePkg/Include/Protocol/SimpleTextIn.h"
	.file 8 "/home/kapoagaeming/Downloads/spacemit-image-builder/components/edk2/MdePkg/Include/Protocol/SimpleTextOut.h"
	.file 9 "/home/kapoagaeming/Downloads/spacemit-image-builder/components/edk2/MdePkg/Include/Uefi/UefiSpec.h"
	.file 10 "/home/kapoagaeming/Downloads/spacemit-image-builder/components/edk2/MdePkg/Include/Uefi/UefiInternalFormRepresentation.h"
	.file 11 "/home/kapoagaeming/Downloads/spacemit-image-builder/components/edk2/MdePkg/Include/Guid/FileInfo.h"
	.file 12 "/home/kapoagaeming/Downloads/spacemit-image-builder/components/edk2/MdePkg/Include/Protocol/Shell.h"
	.file 13 "/home/kapoagaeming/Downloads/spacemit-image-builder/components/edk2/MdePkg/Include/Protocol/UnicodeCollation.h"
	.file 14 "/home/kapoagaeming/Downloads/spacemit-image-builder/components/edk2/MdePkg/Include/Protocol/SimpleFileSystem.h"
	.file 15 "/home/kapoagaeming/Downloads/spacemit-image-builder/components/Build/Milk-V-Jupiter/RELEASE_GCC5/RISCV64/ShellPkg/Library/UefiShellDebug1CommandsLib/UefiShellDebug1CommandsLib/DEBUG/AutoGen.h"
	.file 16 "/home/kapoagaeming/Downloads/spacemit-image-builder/components/edk2/ShellPkg/Include/Library/ShellCommandLib.h"
	.file 17 "/home/kapoagaeming/Downloads/spacemit-image-builder/components/edk2/ShellPkg/Include/Library/ShellLib.h"
	.file 18 "/home/kapoagaeming/Downloads/spacemit-image-builder/components/edk2/MdePkg/Include/Library/UefiBootServicesTableLib.h"
	.file 19 "/home/kapoagaeming/Downloads/spacemit-image-builder/components/edk2/MdePkg/Include/Library/UefiRuntimeServicesTableLib.h"
	.file 20 "/home/kapoagaeming/Downloads/spacemit-image-builder/components/edk2/ShellPkg/Library/UefiShellDebug1CommandsLib/UefiShellDebug1CommandsLib.h"
	.file 21 "/home/kapoagaeming/Downloads/spacemit-image-builder/components/edk2/MdePkg/Include/Library/BaseLib.h"
	.file 22 "/home/kapoagaeming/Downloads/spacemit-image-builder/components/edk2/MdePkg/Include/Library/BaseMemoryLib.h"
	.file 23 "/home/kapoagaeming/Downloads/spacemit-image-builder/components/edk2/MdePkg/Include/Library/MemoryAllocationLib.h"
	.file 24 "/home/kapoagaeming/Downloads/spacemit-image-builder/components/edk2/MdePkg/Include/Library/PrintLib.h"
	.section	.note.GNU-stack,"",@progbits
