	.file	"Pci.c"
	.option pic
	.option norelax
	.attribute arch, "rv64i2p1_m2p0_a2p1_f2p2_d2p2_c2p0_zicsr2p0_zifencei2p0_zmmul1p0_zaamo1p0_zalrsc1p0_zca1p0_zcd1p0"
	.attribute unaligned_access, 0
	.attribute stack_align, 16
	.text
.Ltext0:
	.cfi_sections	.debug_frame
	.file 0 "/home/kapoagaeming/Downloads/spacemit-image-builder/components/Build/Milk-V-Jupiter/RELEASE_GCC5/RISCV64/ShellPkg/Library/UefiShellDebug1CommandsLib/UefiShellDebug1CommandsLib" "/home/kapoagaeming/Downloads/spacemit-image-builder/components/edk2/ShellPkg/Library/UefiShellDebug1CommandsLib/Pci.c"
	.globl	PCIBlankEntry
	.section	.rodata
	.align	3
.LC0:
	.zero	2
	.section	.data.rel.local.PCIBlankEntry,"aw"
	.align	3
	.type	PCIBlankEntry, @object
	.size	PCIBlankEntry, 48
PCIBlankEntry:
	.byte	0
	.zero	7
	.dword	.LC0
	.dword	PCIBlankEntry
	.byte	0
	.zero	7
	.dword	0
	.dword	0
	.globl	PCISubClass_00
	.section	.rodata
	.align	3
.LC1:
	.string	"A"
	.string	"l"
	.string	"l"
	.string	" "
	.string	"d"
	.string	"e"
	.string	"v"
	.string	"i"
	.string	"c"
	.string	"e"
	.string	"s"
	.string	" "
	.string	"o"
	.string	"t"
	.string	"h"
	.string	"e"
	.string	"r"
	.string	" "
	.string	"t"
	.string	"h"
	.string	"a"
	.string	"n"
	.string	" "
	.string	"V"
	.string	"G"
	.string	"A"
	.zero	2
	.align	3
.LC2:
	.string	"V"
	.string	"G"
	.string	"A"
	.string	"-"
	.string	"c"
	.string	"o"
	.string	"m"
	.string	"p"
	.string	"a"
	.string	"t"
	.string	"i"
	.string	"b"
	.string	"l"
	.string	"e"
	.string	" "
	.string	"d"
	.string	"e"
	.string	"v"
	.string	"i"
	.string	"c"
	.string	"e"
	.string	"s"
	.zero	2
	.section	.data.rel.local.PCISubClass_00,"aw"
	.align	3
	.type	PCISubClass_00, @object
	.size	PCISubClass_00, 72
PCISubClass_00:
	.byte	0
	.zero	7
	.dword	.LC1
	.dword	PCIBlankEntry
	.byte	1
	.zero	7
	.dword	.LC2
	.dword	PCIBlankEntry
	.byte	0
	.zero	7
	.dword	0
	.dword	0
	.globl	PCISubClass_01
	.section	.rodata
	.align	3
.LC3:
	.string	"S"
	.string	"C"
	.string	"S"
	.string	"I"
	.zero	2
	.align	3
.LC4:
	.string	"I"
	.string	"D"
	.string	"E"
	.string	" "
	.string	"c"
	.string	"o"
	.string	"n"
	.string	"t"
	.string	"r"
	.string	"o"
	.string	"l"
	.string	"l"
	.string	"e"
	.string	"r"
	.zero	2
	.align	3
.LC5:
	.string	"F"
	.string	"l"
	.string	"o"
	.string	"p"
	.string	"p"
	.string	"y"
	.string	" "
	.string	"d"
	.string	"i"
	.string	"s"
	.string	"k"
	.string	" "
	.string	"c"
	.string	"o"
	.string	"n"
	.string	"t"
	.string	"r"
	.string	"o"
	.string	"l"
	.string	"l"
	.string	"e"
	.string	"r"
	.zero	2
	.align	3
.LC6:
	.string	"I"
	.string	"P"
	.string	"I"
	.string	" "
	.string	"c"
	.string	"o"
	.string	"n"
	.string	"t"
	.string	"r"
	.string	"o"
	.string	"l"
	.string	"l"
	.string	"e"
	.string	"r"
	.zero	2
	.align	3
.LC7:
	.string	"R"
	.string	"A"
	.string	"I"
	.string	"D"
	.string	" "
	.string	"c"
	.string	"o"
	.string	"n"
	.string	"t"
	.string	"r"
	.string	"o"
	.string	"l"
	.string	"l"
	.string	"e"
	.string	"r"
	.zero	2
	.align	3
.LC8:
	.string	"A"
	.string	"T"
	.string	"A"
	.string	" "
	.string	"c"
	.string	"o"
	.string	"n"
	.string	"t"
	.string	"r"
	.string	"o"
	.string	"l"
	.string	"l"
	.string	"e"
	.string	"r"
	.string	" "
	.string	"w"
	.string	"i"
	.string	"t"
	.string	"h"
	.string	" "
	.string	"A"
	.string	"D"
	.string	"M"
	.string	"A"
	.string	" "
	.string	"i"
	.string	"n"
	.string	"t"
	.string	"e"
	.string	"r"
	.string	"f"
	.string	"a"
	.string	"c"
	.string	"e"
	.zero	2
	.align	3
.LC9:
	.string	"S"
	.string	"e"
	.string	"r"
	.string	"i"
	.string	"a"
	.string	"l"
	.string	" "
	.string	"A"
	.string	"T"
	.string	"A"
	.string	" "
	.string	"c"
	.string	"o"
	.string	"n"
	.string	"t"
	.string	"r"
	.string	"o"
	.string	"l"
	.string	"l"
	.string	"e"
	.string	"r"
	.zero	2
	.align	3
.LC10:
	.string	"S"
	.string	"e"
	.string	"r"
	.string	"i"
	.string	"a"
	.string	"l"
	.string	" "
	.string	"A"
	.string	"t"
	.string	"t"
	.string	"a"
	.string	"c"
	.string	"h"
	.string	"e"
	.string	"d"
	.string	" "
	.string	"S"
	.string	"C"
	.string	"S"
	.string	"I"
	.string	" "
	.string	"("
	.string	"S"
	.string	"A"
	.string	"S"
	.string	")"
	.string	" "
	.string	"c"
	.string	"o"
	.string	"n"
	.string	"t"
	.string	"r"
	.string	"o"
	.string	"l"
	.string	"l"
	.string	"e"
	.string	"r"
	.string	" "
	.zero	2
	.align	3
.LC11:
	.string	"N"
	.string	"o"
	.string	"n"
	.string	"-"
	.string	"v"
	.string	"o"
	.string	"l"
	.string	"a"
	.string	"t"
	.string	"i"
	.string	"l"
	.string	"e"
	.string	" "
	.string	"m"
	.string	"e"
	.string	"m"
	.string	"o"
	.string	"r"
	.string	"y"
	.string	" "
	.string	"s"
	.string	"u"
	.string	"b"
	.string	"s"
	.string	"y"
	.string	"s"
	.string	"t"
	.string	"e"
	.string	"m"
	.zero	2
	.align	3
.LC12:
	.string	"U"
	.string	"n"
	.string	"i"
	.string	"v"
	.string	"e"
	.string	"r"
	.string	"s"
	.string	"a"
	.string	"l"
	.string	" "
	.string	"F"
	.string	"l"
	.string	"a"
	.string	"s"
	.string	"h"
	.string	" "
	.string	"S"
	.string	"t"
	.string	"o"
	.string	"r"
	.string	"a"
	.string	"g"
	.string	"e"
	.string	" "
	.string	"("
	.string	"U"
	.string	"F"
	.string	"S"
	.string	")"
	.string	" "
	.string	"c"
	.string	"o"
	.string	"n"
	.string	"t"
	.string	"r"
	.string	"o"
	.string	"l"
	.string	"l"
	.string	"e"
	.string	"r"
	.string	" "
	.zero	2
	.align	3
.LC13:
	.string	"O"
	.string	"t"
	.string	"h"
	.string	"e"
	.string	"r"
	.string	" "
	.string	"m"
	.string	"a"
	.string	"s"
	.string	"s"
	.string	" "
	.string	"s"
	.string	"t"
	.string	"o"
	.string	"r"
	.string	"a"
	.string	"g"
	.string	"e"
	.string	" "
	.string	"c"
	.string	"o"
	.string	"n"
	.string	"t"
	.string	"r"
	.string	"o"
	.string	"l"
	.string	"l"
	.string	"e"
	.string	"r"
	.zero	2
	.section	.data.rel.local.PCISubClass_01,"aw"
	.align	3
	.type	PCISubClass_01, @object
	.size	PCISubClass_01, 288
PCISubClass_01:
	.byte	0
	.zero	7
	.dword	.LC3
	.dword	PCIPIFClass_0100
	.byte	1
	.zero	7
	.dword	.LC4
	.dword	PCIPIFClass_0101
	.byte	2
	.zero	7
	.dword	.LC5
	.dword	PCIBlankEntry
	.byte	3
	.zero	7
	.dword	.LC6
	.dword	PCIBlankEntry
	.byte	4
	.zero	7
	.dword	.LC7
	.dword	PCIBlankEntry
	.byte	5
	.zero	7
	.dword	.LC8
	.dword	PCIPIFClass_0105
	.byte	6
	.zero	7
	.dword	.LC9
	.dword	PCIPIFClass_0106
	.byte	7
	.zero	7
	.dword	.LC10
	.dword	PCIPIFClass_0107
	.byte	8
	.zero	7
	.dword	.LC11
	.dword	PCIPIFClass_0108
	.byte	9
	.zero	7
	.dword	.LC12
	.dword	PCIPIFClass_0109
	.byte	-128
	.zero	7
	.dword	.LC13
	.dword	PCIBlankEntry
	.byte	0
	.zero	7
	.dword	0
	.dword	0
	.globl	PCISubClass_02
	.section	.rodata
	.align	3
.LC14:
	.string	"E"
	.string	"t"
	.string	"h"
	.string	"e"
	.string	"r"
	.string	"n"
	.string	"e"
	.string	"t"
	.string	" "
	.string	"c"
	.string	"o"
	.string	"n"
	.string	"t"
	.string	"r"
	.string	"o"
	.string	"l"
	.string	"l"
	.string	"e"
	.string	"r"
	.zero	2
	.align	3
.LC15:
	.string	"T"
	.string	"o"
	.string	"k"
	.string	"e"
	.string	"n"
	.string	" "
	.string	"r"
	.string	"i"
	.string	"n"
	.string	"g"
	.string	" "
	.string	"c"
	.string	"o"
	.string	"n"
	.string	"t"
	.string	"r"
	.string	"o"
	.string	"l"
	.string	"l"
	.string	"e"
	.string	"r"
	.zero	2
	.align	3
.LC16:
	.string	"F"
	.string	"D"
	.string	"D"
	.string	"I"
	.string	" "
	.string	"c"
	.string	"o"
	.string	"n"
	.string	"t"
	.string	"r"
	.string	"o"
	.string	"l"
	.string	"l"
	.string	"e"
	.string	"r"
	.zero	2
	.align	3
.LC17:
	.string	"A"
	.string	"T"
	.string	"M"
	.string	" "
	.string	"c"
	.string	"o"
	.string	"n"
	.string	"t"
	.string	"r"
	.string	"o"
	.string	"l"
	.string	"l"
	.string	"e"
	.string	"r"
	.zero	2
	.align	3
.LC18:
	.string	"I"
	.string	"S"
	.string	"D"
	.string	"N"
	.string	" "
	.string	"c"
	.string	"o"
	.string	"n"
	.string	"t"
	.string	"r"
	.string	"o"
	.string	"l"
	.string	"l"
	.string	"e"
	.string	"r"
	.zero	2
	.align	3
.LC19:
	.string	"W"
	.string	"o"
	.string	"r"
	.string	"l"
	.string	"d"
	.string	"F"
	.string	"i"
	.string	"p"
	.string	" "
	.string	"c"
	.string	"o"
	.string	"n"
	.string	"t"
	.string	"r"
	.string	"o"
	.string	"l"
	.string	"l"
	.string	"e"
	.string	"r"
	.zero	2
	.align	3
.LC20:
	.string	"P"
	.string	"I"
	.string	"C"
	.string	"M"
	.string	"G"
	.string	" "
	.string	"2"
	.string	"."
	.string	"1"
	.string	"4"
	.string	" "
	.string	"M"
	.string	"u"
	.string	"l"
	.string	"t"
	.string	"i"
	.string	" "
	.string	"C"
	.string	"o"
	.string	"m"
	.string	"p"
	.string	"u"
	.string	"t"
	.string	"i"
	.string	"n"
	.string	"g"
	.zero	2
	.align	3
.LC21:
	.string	"I"
	.string	"n"
	.string	"f"
	.string	"i"
	.string	"n"
	.string	"i"
	.string	"B"
	.string	"a"
	.string	"n"
	.string	"d"
	.string	" "
	.string	"c"
	.string	"o"
	.string	"n"
	.string	"t"
	.string	"r"
	.string	"o"
	.string	"l"
	.string	"l"
	.string	"e"
	.string	"r"
	.zero	2
	.align	3
.LC22:
	.string	"O"
	.string	"t"
	.string	"h"
	.string	"e"
	.string	"r"
	.string	" "
	.string	"n"
	.string	"e"
	.string	"t"
	.string	"w"
	.string	"o"
	.string	"r"
	.string	"k"
	.string	" "
	.string	"c"
	.string	"o"
	.string	"n"
	.string	"t"
	.string	"r"
	.string	"o"
	.string	"l"
	.string	"l"
	.string	"e"
	.string	"r"
	.zero	2
	.section	.data.rel.local.PCISubClass_02,"aw"
	.align	3
	.type	PCISubClass_02, @object
	.size	PCISubClass_02, 240
PCISubClass_02:
	.byte	0
	.zero	7
	.dword	.LC14
	.dword	PCIBlankEntry
	.byte	1
	.zero	7
	.dword	.LC15
	.dword	PCIBlankEntry
	.byte	2
	.zero	7
	.dword	.LC16
	.dword	PCIBlankEntry
	.byte	3
	.zero	7
	.dword	.LC17
	.dword	PCIBlankEntry
	.byte	4
	.zero	7
	.dword	.LC18
	.dword	PCIBlankEntry
	.byte	5
	.zero	7
	.dword	.LC19
	.dword	PCIBlankEntry
	.byte	6
	.zero	7
	.dword	.LC20
	.dword	PCIBlankEntry
	.byte	7
	.zero	7
	.dword	.LC21
	.dword	PCIBlankEntry
	.byte	-128
	.zero	7
	.dword	.LC22
	.dword	PCIBlankEntry
	.byte	0
	.zero	7
	.dword	0
	.dword	0
	.globl	PCISubClass_03
	.section	.rodata
	.align	3
.LC23:
	.string	"V"
	.string	"G"
	.string	"A"
	.string	"/"
	.string	"8"
	.string	"5"
	.string	"1"
	.string	"4"
	.string	" "
	.string	"c"
	.string	"o"
	.string	"n"
	.string	"t"
	.string	"r"
	.string	"o"
	.string	"l"
	.string	"l"
	.string	"e"
	.string	"r"
	.zero	2
	.align	3
.LC24:
	.string	"X"
	.string	"G"
	.string	"A"
	.string	" "
	.string	"c"
	.string	"o"
	.string	"n"
	.string	"t"
	.string	"r"
	.string	"o"
	.string	"l"
	.string	"l"
	.string	"e"
	.string	"r"
	.zero	2
	.align	3
.LC25:
	.string	"3"
	.string	"D"
	.string	" "
	.string	"c"
	.string	"o"
	.string	"n"
	.string	"t"
	.string	"r"
	.string	"o"
	.string	"l"
	.string	"l"
	.string	"e"
	.string	"r"
	.zero	2
	.align	3
.LC26:
	.string	"O"
	.string	"t"
	.string	"h"
	.string	"e"
	.string	"r"
	.string	" "
	.string	"d"
	.string	"i"
	.string	"s"
	.string	"p"
	.string	"l"
	.string	"a"
	.string	"y"
	.string	" "
	.string	"c"
	.string	"o"
	.string	"n"
	.string	"t"
	.string	"r"
	.string	"o"
	.string	"l"
	.string	"l"
	.string	"e"
	.string	"r"
	.zero	2
	.section	.data.rel.local.PCISubClass_03,"aw"
	.align	3
	.type	PCISubClass_03, @object
	.size	PCISubClass_03, 120
PCISubClass_03:
	.byte	0
	.zero	7
	.dword	.LC23
	.dword	PCIPIFClass_0300
	.byte	1
	.zero	7
	.dword	.LC24
	.dword	PCIBlankEntry
	.byte	2
	.zero	7
	.dword	.LC25
	.dword	PCIBlankEntry
	.byte	-128
	.zero	7
	.dword	.LC26
	.dword	PCIBlankEntry
	.byte	0
	.zero	7
	.dword	0
	.dword	PCIBlankEntry
	.globl	PCISubClass_04
	.section	.rodata
	.align	3
.LC27:
	.string	"V"
	.string	"i"
	.string	"d"
	.string	"e"
	.string	"o"
	.string	" "
	.string	"d"
	.string	"e"
	.string	"v"
	.string	"i"
	.string	"c"
	.string	"e"
	.zero	2
	.align	3
.LC28:
	.string	"A"
	.string	"u"
	.string	"d"
	.string	"i"
	.string	"o"
	.string	" "
	.string	"d"
	.string	"e"
	.string	"v"
	.string	"i"
	.string	"c"
	.string	"e"
	.zero	2
	.align	3
.LC29:
	.string	"C"
	.string	"o"
	.string	"m"
	.string	"p"
	.string	"u"
	.string	"t"
	.string	"e"
	.string	"r"
	.string	" "
	.string	"T"
	.string	"e"
	.string	"l"
	.string	"e"
	.string	"p"
	.string	"h"
	.string	"o"
	.string	"n"
	.string	"y"
	.string	" "
	.string	"d"
	.string	"e"
	.string	"v"
	.string	"i"
	.string	"c"
	.string	"e"
	.zero	2
	.align	3
.LC30:
	.string	"M"
	.string	"i"
	.string	"x"
	.string	"e"
	.string	"d"
	.string	" "
	.string	"m"
	.string	"o"
	.string	"d"
	.string	"e"
	.string	" "
	.string	"d"
	.string	"e"
	.string	"v"
	.string	"i"
	.string	"c"
	.string	"e"
	.zero	2
	.align	3
.LC31:
	.string	"O"
	.string	"t"
	.string	"h"
	.string	"e"
	.string	"r"
	.string	" "
	.string	"m"
	.string	"u"
	.string	"l"
	.string	"t"
	.string	"i"
	.string	"m"
	.string	"e"
	.string	"d"
	.string	"i"
	.string	"a"
	.string	" "
	.string	"d"
	.string	"e"
	.string	"v"
	.string	"i"
	.string	"c"
	.string	"e"
	.zero	2
	.section	.data.rel.local.PCISubClass_04,"aw"
	.align	3
	.type	PCISubClass_04, @object
	.size	PCISubClass_04, 144
PCISubClass_04:
	.byte	0
	.zero	7
	.dword	.LC27
	.dword	PCIBlankEntry
	.byte	1
	.zero	7
	.dword	.LC28
	.dword	PCIBlankEntry
	.byte	2
	.zero	7
	.dword	.LC29
	.dword	PCIBlankEntry
	.byte	3
	.zero	7
	.dword	.LC30
	.dword	PCIBlankEntry
	.byte	-128
	.zero	7
	.dword	.LC31
	.dword	PCIBlankEntry
	.byte	0
	.zero	7
	.dword	0
	.dword	0
	.globl	PCISubClass_05
	.section	.rodata
	.align	3
.LC32:
	.string	"R"
	.string	"A"
	.string	"M"
	.string	" "
	.string	"m"
	.string	"e"
	.string	"m"
	.string	"o"
	.string	"r"
	.string	"y"
	.string	" "
	.string	"c"
	.string	"o"
	.string	"n"
	.string	"t"
	.string	"r"
	.string	"o"
	.string	"l"
	.string	"l"
	.string	"e"
	.string	"r"
	.zero	2
	.align	3
.LC33:
	.string	"F"
	.string	"l"
	.string	"a"
	.string	"s"
	.string	"h"
	.string	" "
	.string	"m"
	.string	"e"
	.string	"m"
	.string	"o"
	.string	"r"
	.string	"y"
	.string	" "
	.string	"c"
	.string	"o"
	.string	"n"
	.string	"t"
	.string	"r"
	.string	"o"
	.string	"l"
	.string	"l"
	.string	"e"
	.string	"r"
	.zero	2
	.align	3
.LC34:
	.string	"O"
	.string	"t"
	.string	"h"
	.string	"e"
	.string	"r"
	.string	" "
	.string	"m"
	.string	"e"
	.string	"m"
	.string	"o"
	.string	"r"
	.string	"y"
	.string	" "
	.string	"c"
	.string	"o"
	.string	"n"
	.string	"t"
	.string	"r"
	.string	"o"
	.string	"l"
	.string	"l"
	.string	"e"
	.string	"r"
	.zero	2
	.section	.data.rel.local.PCISubClass_05,"aw"
	.align	3
	.type	PCISubClass_05, @object
	.size	PCISubClass_05, 96
PCISubClass_05:
	.byte	0
	.zero	7
	.dword	.LC32
	.dword	PCIBlankEntry
	.byte	1
	.zero	7
	.dword	.LC33
	.dword	PCIBlankEntry
	.byte	-128
	.zero	7
	.dword	.LC34
	.dword	PCIBlankEntry
	.byte	0
	.zero	7
	.dword	0
	.dword	0
	.globl	PCISubClass_06
	.section	.rodata
	.align	3
.LC35:
	.string	"H"
	.string	"o"
	.string	"s"
	.string	"t"
	.string	"/"
	.string	"P"
	.string	"C"
	.string	"I"
	.string	" "
	.string	"b"
	.string	"r"
	.string	"i"
	.string	"d"
	.string	"g"
	.string	"e"
	.zero	2
	.align	3
.LC36:
	.string	"P"
	.string	"C"
	.string	"I"
	.string	"/"
	.string	"I"
	.string	"S"
	.string	"A"
	.string	" "
	.string	"b"
	.string	"r"
	.string	"i"
	.string	"d"
	.string	"g"
	.string	"e"
	.zero	2
	.align	3
.LC37:
	.string	"P"
	.string	"C"
	.string	"I"
	.string	"/"
	.string	"E"
	.string	"I"
	.string	"S"
	.string	"A"
	.string	" "
	.string	"b"
	.string	"r"
	.string	"i"
	.string	"d"
	.string	"g"
	.string	"e"
	.zero	2
	.align	3
.LC38:
	.string	"P"
	.string	"C"
	.string	"I"
	.string	"/"
	.string	"M"
	.string	"i"
	.string	"c"
	.string	"r"
	.string	"o"
	.string	" "
	.string	"C"
	.string	"h"
	.string	"a"
	.string	"n"
	.string	"n"
	.string	"e"
	.string	"l"
	.string	" "
	.string	"b"
	.string	"r"
	.string	"i"
	.string	"d"
	.string	"g"
	.string	"e"
	.zero	2
	.align	3
.LC39:
	.string	"P"
	.string	"C"
	.string	"I"
	.string	"/"
	.string	"P"
	.string	"C"
	.string	"I"
	.string	" "
	.string	"b"
	.string	"r"
	.string	"i"
	.string	"d"
	.string	"g"
	.string	"e"
	.zero	2
	.align	3
.LC40:
	.string	"P"
	.string	"C"
	.string	"I"
	.string	"/"
	.string	"P"
	.string	"C"
	.string	"M"
	.string	"C"
	.string	"I"
	.string	"A"
	.string	" "
	.string	"b"
	.string	"r"
	.string	"i"
	.string	"d"
	.string	"g"
	.string	"e"
	.zero	2
	.align	3
.LC41:
	.string	"N"
	.string	"u"
	.string	"B"
	.string	"u"
	.string	"s"
	.string	" "
	.string	"b"
	.string	"r"
	.string	"i"
	.string	"d"
	.string	"g"
	.string	"e"
	.zero	2
	.align	3
.LC42:
	.string	"C"
	.string	"a"
	.string	"r"
	.string	"d"
	.string	"B"
	.string	"u"
	.string	"s"
	.string	" "
	.string	"b"
	.string	"r"
	.string	"i"
	.string	"d"
	.string	"g"
	.string	"e"
	.zero	2
	.align	3
.LC43:
	.string	"R"
	.string	"A"
	.string	"C"
	.string	"E"
	.string	"w"
	.string	"a"
	.string	"y"
	.string	" "
	.string	"b"
	.string	"r"
	.string	"i"
	.string	"d"
	.string	"g"
	.string	"e"
	.zero	2
	.align	3
.LC44:
	.string	"S"
	.string	"e"
	.string	"m"
	.string	"i"
	.string	"-"
	.string	"t"
	.string	"r"
	.string	"a"
	.string	"n"
	.string	"s"
	.string	"p"
	.string	"a"
	.string	"r"
	.string	"e"
	.string	"n"
	.string	"t"
	.string	" "
	.string	"P"
	.string	"C"
	.string	"I"
	.string	"-"
	.string	"t"
	.string	"o"
	.string	"-"
	.string	"P"
	.string	"C"
	.string	"I"
	.string	" "
	.string	"b"
	.string	"r"
	.string	"i"
	.string	"d"
	.string	"g"
	.string	"e"
	.zero	2
	.align	3
.LC45:
	.string	"I"
	.string	"n"
	.string	"f"
	.string	"i"
	.string	"n"
	.string	"i"
	.string	"B"
	.string	"a"
	.string	"n"
	.string	"d"
	.string	"-"
	.string	"t"
	.string	"o"
	.string	"-"
	.string	"P"
	.string	"C"
	.string	"I"
	.string	" "
	.string	"h"
	.string	"o"
	.string	"s"
	.string	"t"
	.string	" "
	.string	"b"
	.string	"r"
	.string	"i"
	.string	"d"
	.string	"g"
	.string	"e"
	.zero	2
	.align	3
.LC46:
	.string	"A"
	.string	"d"
	.string	"v"
	.string	"a"
	.string	"n"
	.string	"c"
	.string	"e"
	.string	"d"
	.string	" "
	.string	"S"
	.string	"w"
	.string	"i"
	.string	"t"
	.string	"c"
	.string	"h"
	.string	"i"
	.string	"n"
	.string	"g"
	.string	" "
	.string	"t"
	.string	"o"
	.string	" "
	.string	"P"
	.string	"C"
	.string	"I"
	.string	" "
	.string	"h"
	.string	"o"
	.string	"s"
	.string	"t"
	.string	" "
	.string	"b"
	.string	"r"
	.string	"i"
	.string	"d"
	.string	"g"
	.string	"e"
	.zero	2
	.align	3
.LC47:
	.string	"O"
	.string	"t"
	.string	"h"
	.string	"e"
	.string	"r"
	.string	" "
	.string	"b"
	.string	"r"
	.string	"i"
	.string	"d"
	.string	"g"
	.string	"e"
	.string	" "
	.string	"t"
	.string	"y"
	.string	"p"
	.string	"e"
	.zero	2
	.section	.data.rel.local.PCISubClass_06,"aw"
	.align	3
	.type	PCISubClass_06, @object
	.size	PCISubClass_06, 336
PCISubClass_06:
	.byte	0
	.zero	7
	.dword	.LC35
	.dword	PCIBlankEntry
	.byte	1
	.zero	7
	.dword	.LC36
	.dword	PCIBlankEntry
	.byte	2
	.zero	7
	.dword	.LC37
	.dword	PCIBlankEntry
	.byte	3
	.zero	7
	.dword	.LC38
	.dword	PCIBlankEntry
	.byte	4
	.zero	7
	.dword	.LC39
	.dword	PCIPIFClass_0604
	.byte	5
	.zero	7
	.dword	.LC40
	.dword	PCIBlankEntry
	.byte	6
	.zero	7
	.dword	.LC41
	.dword	PCIBlankEntry
	.byte	7
	.zero	7
	.dword	.LC42
	.dword	PCIBlankEntry
	.byte	8
	.zero	7
	.dword	.LC43
	.dword	PCIBlankEntry
	.byte	9
	.zero	7
	.dword	.LC44
	.dword	PCIPIFClass_0609
	.byte	10
	.zero	7
	.dword	.LC45
	.dword	PCIBlankEntry
	.byte	11
	.zero	7
	.dword	.LC46
	.dword	PCIPIFClass_060b
	.byte	-128
	.zero	7
	.dword	.LC47
	.dword	PCIBlankEntry
	.byte	0
	.zero	7
	.dword	0
	.dword	0
	.globl	PCISubClass_07
	.section	.rodata
	.align	3
.LC48:
	.string	"S"
	.string	"e"
	.string	"r"
	.string	"i"
	.string	"a"
	.string	"l"
	.string	" "
	.string	"c"
	.string	"o"
	.string	"n"
	.string	"t"
	.string	"r"
	.string	"o"
	.string	"l"
	.string	"l"
	.string	"e"
	.string	"r"
	.zero	2
	.align	3
.LC49:
	.string	"P"
	.string	"a"
	.string	"r"
	.string	"a"
	.string	"l"
	.string	"l"
	.string	"e"
	.string	"l"
	.string	" "
	.string	"p"
	.string	"o"
	.string	"r"
	.string	"t"
	.zero	2
	.align	3
.LC50:
	.string	"M"
	.string	"u"
	.string	"l"
	.string	"t"
	.string	"i"
	.string	"p"
	.string	"o"
	.string	"r"
	.string	"t"
	.string	" "
	.string	"s"
	.string	"e"
	.string	"r"
	.string	"i"
	.string	"a"
	.string	"l"
	.string	" "
	.string	"c"
	.string	"o"
	.string	"n"
	.string	"t"
	.string	"r"
	.string	"o"
	.string	"l"
	.string	"l"
	.string	"e"
	.string	"r"
	.zero	2
	.align	3
.LC51:
	.string	"M"
	.string	"o"
	.string	"d"
	.string	"e"
	.string	"m"
	.zero	2
	.align	3
.LC52:
	.string	"G"
	.string	"P"
	.string	"I"
	.string	"B"
	.string	" "
	.string	"("
	.string	"I"
	.string	"E"
	.string	"E"
	.string	"E"
	.string	" "
	.string	"4"
	.string	"8"
	.string	"8"
	.string	"."
	.string	"1"
	.string	"/"
	.string	"2"
	.string	")"
	.string	" "
	.string	"c"
	.string	"o"
	.string	"n"
	.string	"t"
	.string	"r"
	.string	"o"
	.string	"l"
	.string	"l"
	.string	"e"
	.string	"r"
	.zero	2
	.align	3
.LC53:
	.string	"S"
	.string	"m"
	.string	"a"
	.string	"r"
	.string	"t"
	.string	" "
	.string	"C"
	.string	"a"
	.string	"r"
	.string	"d"
	.zero	2
	.align	3
.LC54:
	.string	"O"
	.string	"t"
	.string	"h"
	.string	"e"
	.string	"r"
	.string	" "
	.string	"c"
	.string	"o"
	.string	"m"
	.string	"m"
	.string	"u"
	.string	"n"
	.string	"i"
	.string	"c"
	.string	"a"
	.string	"t"
	.string	"i"
	.string	"o"
	.string	"n"
	.string	" "
	.string	"d"
	.string	"e"
	.string	"v"
	.string	"i"
	.string	"c"
	.string	"e"
	.zero	2
	.section	.data.rel.local.PCISubClass_07,"aw"
	.align	3
	.type	PCISubClass_07, @object
	.size	PCISubClass_07, 192
PCISubClass_07:
	.byte	0
	.zero	7
	.dword	.LC48
	.dword	PCIPIFClass_0700
	.byte	1
	.zero	7
	.dword	.LC49
	.dword	PCIPIFClass_0701
	.byte	2
	.zero	7
	.dword	.LC50
	.dword	PCIBlankEntry
	.byte	3
	.zero	7
	.dword	.LC51
	.dword	PCIPIFClass_0703
	.byte	4
	.zero	7
	.dword	.LC52
	.dword	PCIBlankEntry
	.byte	5
	.zero	7
	.dword	.LC53
	.dword	PCIBlankEntry
	.byte	-128
	.zero	7
	.dword	.LC54
	.dword	PCIBlankEntry
	.byte	0
	.zero	7
	.dword	0
	.dword	0
	.globl	PCISubClass_08
	.section	.rodata
	.align	3
.LC55:
	.string	"P"
	.string	"I"
	.string	"C"
	.zero	2
	.align	3
.LC56:
	.string	"D"
	.string	"M"
	.string	"A"
	.string	" "
	.string	"c"
	.string	"o"
	.string	"n"
	.string	"t"
	.string	"r"
	.string	"o"
	.string	"l"
	.string	"l"
	.string	"e"
	.string	"r"
	.zero	2
	.align	3
.LC57:
	.string	"S"
	.string	"y"
	.string	"s"
	.string	"t"
	.string	"e"
	.string	"m"
	.string	" "
	.string	"t"
	.string	"i"
	.string	"m"
	.string	"e"
	.string	"r"
	.zero	2
	.align	3
.LC58:
	.string	"R"
	.string	"T"
	.string	"C"
	.string	" "
	.string	"c"
	.string	"o"
	.string	"n"
	.string	"t"
	.string	"r"
	.string	"o"
	.string	"l"
	.string	"l"
	.string	"e"
	.string	"r"
	.zero	2
	.align	3
.LC59:
	.string	"G"
	.string	"e"
	.string	"n"
	.string	"e"
	.string	"r"
	.string	"i"
	.string	"c"
	.string	" "
	.string	"P"
	.string	"C"
	.string	"I"
	.string	" "
	.string	"H"
	.string	"o"
	.string	"t"
	.string	"-"
	.string	"P"
	.string	"l"
	.string	"u"
	.string	"g"
	.string	" "
	.string	"c"
	.string	"o"
	.string	"n"
	.string	"t"
	.string	"r"
	.string	"o"
	.string	"l"
	.string	"l"
	.string	"e"
	.string	"r"
	.zero	2
	.align	3
.LC60:
	.string	"S"
	.string	"D"
	.string	" "
	.string	"H"
	.string	"o"
	.string	"s"
	.string	"t"
	.string	" "
	.string	"c"
	.string	"o"
	.string	"n"
	.string	"t"
	.string	"r"
	.string	"o"
	.string	"l"
	.string	"l"
	.string	"e"
	.string	"r"
	.zero	2
	.align	3
.LC61:
	.string	"I"
	.string	"O"
	.string	"M"
	.string	"M"
	.string	"U"
	.zero	2
	.align	3
.LC62:
	.string	"R"
	.string	"o"
	.string	"o"
	.string	"t"
	.string	" "
	.string	"C"
	.string	"o"
	.string	"m"
	.string	"p"
	.string	"l"
	.string	"e"
	.string	"x"
	.string	" "
	.string	"E"
	.string	"v"
	.string	"e"
	.string	"n"
	.string	"t"
	.string	" "
	.string	"C"
	.string	"o"
	.string	"l"
	.string	"l"
	.string	"e"
	.string	"c"
	.string	"t"
	.string	"o"
	.string	"r"
	.zero	2
	.align	3
.LC63:
	.string	"O"
	.string	"t"
	.string	"h"
	.string	"e"
	.string	"r"
	.string	" "
	.string	"s"
	.string	"y"
	.string	"s"
	.string	"t"
	.string	"e"
	.string	"m"
	.string	" "
	.string	"p"
	.string	"e"
	.string	"r"
	.string	"i"
	.string	"p"
	.string	"h"
	.string	"e"
	.string	"r"
	.string	"a"
	.string	"l"
	.zero	2
	.section	.data.rel.local.PCISubClass_08,"aw"
	.align	3
	.type	PCISubClass_08, @object
	.size	PCISubClass_08, 240
PCISubClass_08:
	.byte	0
	.zero	7
	.dword	.LC55
	.dword	PCIPIFClass_0800
	.byte	1
	.zero	7
	.dword	.LC56
	.dword	PCIPIFClass_0801
	.byte	2
	.zero	7
	.dword	.LC57
	.dword	PCIPIFClass_0802
	.byte	3
	.zero	7
	.dword	.LC58
	.dword	PCIPIFClass_0803
	.byte	4
	.zero	7
	.dword	.LC59
	.dword	PCIBlankEntry
	.byte	5
	.zero	7
	.dword	.LC60
	.dword	PCIBlankEntry
	.byte	6
	.zero	7
	.dword	.LC61
	.dword	PCIBlankEntry
	.byte	7
	.zero	7
	.dword	.LC62
	.dword	PCIBlankEntry
	.byte	-128
	.zero	7
	.dword	.LC63
	.dword	PCIBlankEntry
	.byte	0
	.zero	7
	.dword	0
	.dword	0
	.globl	PCISubClass_09
	.section	.rodata
	.align	3
.LC64:
	.string	"K"
	.string	"e"
	.string	"y"
	.string	"b"
	.string	"o"
	.string	"a"
	.string	"r"
	.string	"d"
	.string	" "
	.string	"c"
	.string	"o"
	.string	"n"
	.string	"t"
	.string	"r"
	.string	"o"
	.string	"l"
	.string	"l"
	.string	"e"
	.string	"r"
	.zero	2
	.align	3
.LC65:
	.string	"D"
	.string	"i"
	.string	"g"
	.string	"i"
	.string	"t"
	.string	"i"
	.string	"z"
	.string	"e"
	.string	"r"
	.string	" "
	.string	"("
	.string	"p"
	.string	"e"
	.string	"n"
	.string	")"
	.zero	2
	.align	3
.LC66:
	.string	"M"
	.string	"o"
	.string	"u"
	.string	"s"
	.string	"e"
	.string	" "
	.string	"c"
	.string	"o"
	.string	"n"
	.string	"t"
	.string	"r"
	.string	"o"
	.string	"l"
	.string	"l"
	.string	"e"
	.string	"r"
	.zero	2
	.align	3
.LC67:
	.string	"S"
	.string	"c"
	.string	"a"
	.string	"n"
	.string	"n"
	.string	"e"
	.string	"r"
	.string	" "
	.string	"c"
	.string	"o"
	.string	"n"
	.string	"t"
	.string	"r"
	.string	"o"
	.string	"l"
	.string	"l"
	.string	"e"
	.string	"r"
	.zero	2
	.align	3
.LC68:
	.string	"G"
	.string	"a"
	.string	"m"
	.string	"e"
	.string	"p"
	.string	"o"
	.string	"r"
	.string	"t"
	.string	" "
	.string	"c"
	.string	"o"
	.string	"n"
	.string	"t"
	.string	"r"
	.string	"o"
	.string	"l"
	.string	"l"
	.string	"e"
	.string	"r"
	.zero	2
	.align	3
.LC69:
	.string	"O"
	.string	"t"
	.string	"h"
	.string	"e"
	.string	"r"
	.string	" "
	.string	"i"
	.string	"n"
	.string	"p"
	.string	"u"
	.string	"t"
	.string	" "
	.string	"c"
	.string	"o"
	.string	"n"
	.string	"t"
	.string	"r"
	.string	"o"
	.string	"l"
	.string	"l"
	.string	"e"
	.string	"r"
	.zero	2
	.section	.data.rel.local.PCISubClass_09,"aw"
	.align	3
	.type	PCISubClass_09, @object
	.size	PCISubClass_09, 168
PCISubClass_09:
	.byte	0
	.zero	7
	.dword	.LC64
	.dword	PCIBlankEntry
	.byte	1
	.zero	7
	.dword	.LC65
	.dword	PCIBlankEntry
	.byte	2
	.zero	7
	.dword	.LC66
	.dword	PCIBlankEntry
	.byte	3
	.zero	7
	.dword	.LC67
	.dword	PCIBlankEntry
	.byte	4
	.zero	7
	.dword	.LC68
	.dword	PCIPIFClass_0904
	.byte	-128
	.zero	7
	.dword	.LC69
	.dword	PCIBlankEntry
	.byte	0
	.zero	7
	.dword	0
	.dword	0
	.globl	PCISubClass_0a
	.section	.rodata
	.align	3
.LC70:
	.string	"G"
	.string	"e"
	.string	"n"
	.string	"e"
	.string	"r"
	.string	"i"
	.string	"c"
	.string	" "
	.string	"d"
	.string	"o"
	.string	"c"
	.string	"k"
	.string	"i"
	.string	"n"
	.string	"g"
	.string	" "
	.string	"s"
	.string	"t"
	.string	"a"
	.string	"t"
	.string	"i"
	.string	"o"
	.string	"n"
	.zero	2
	.align	3
.LC71:
	.string	"O"
	.string	"t"
	.string	"h"
	.string	"e"
	.string	"r"
	.string	" "
	.string	"t"
	.string	"y"
	.string	"p"
	.string	"e"
	.string	" "
	.string	"o"
	.string	"f"
	.string	" "
	.string	"d"
	.string	"o"
	.string	"c"
	.string	"k"
	.string	"i"
	.string	"n"
	.string	"g"
	.string	" "
	.string	"s"
	.string	"t"
	.string	"a"
	.string	"t"
	.string	"i"
	.string	"o"
	.string	"n"
	.zero	2
	.section	.data.rel.local.PCISubClass_0a,"aw"
	.align	3
	.type	PCISubClass_0a, @object
	.size	PCISubClass_0a, 72
PCISubClass_0a:
	.byte	0
	.zero	7
	.dword	.LC70
	.dword	PCIBlankEntry
	.byte	-128
	.zero	7
	.dword	.LC71
	.dword	PCIBlankEntry
	.byte	0
	.zero	7
	.dword	0
	.dword	0
	.globl	PCISubClass_0b
	.section	.rodata
	.align	3
.LC72:
	.string	"3"
	.string	"8"
	.string	"6"
	.zero	2
	.align	3
.LC73:
	.string	"4"
	.string	"8"
	.string	"6"
	.zero	2
	.align	3
.LC74:
	.string	"P"
	.string	"e"
	.string	"n"
	.string	"t"
	.string	"i"
	.string	"u"
	.string	"m"
	.zero	2
	.align	3
.LC75:
	.string	"A"
	.string	"l"
	.string	"p"
	.string	"h"
	.string	"a"
	.zero	2
	.align	3
.LC76:
	.string	"P"
	.string	"o"
	.string	"w"
	.string	"e"
	.string	"r"
	.string	"P"
	.string	"C"
	.zero	2
	.align	3
.LC77:
	.string	"M"
	.string	"I"
	.string	"P"
	.string	"S"
	.zero	2
	.align	3
.LC78:
	.string	"C"
	.string	"o"
	.string	"-"
	.string	"p"
	.string	"r"
	.string	"o"
	.string	"c"
	.string	"e"
	.string	"s"
	.string	"s"
	.string	"o"
	.string	"r"
	.zero	2
	.align	3
.LC79:
	.string	"O"
	.string	"t"
	.string	"h"
	.string	"e"
	.string	"r"
	.string	" "
	.string	"p"
	.string	"r"
	.string	"o"
	.string	"c"
	.string	"e"
	.string	"s"
	.string	"s"
	.string	"o"
	.string	"r"
	.zero	2
	.section	.data.rel.local.PCISubClass_0b,"aw"
	.align	3
	.type	PCISubClass_0b, @object
	.size	PCISubClass_0b, 216
PCISubClass_0b:
	.byte	0
	.zero	7
	.dword	.LC72
	.dword	PCIBlankEntry
	.byte	1
	.zero	7
	.dword	.LC73
	.dword	PCIBlankEntry
	.byte	2
	.zero	7
	.dword	.LC74
	.dword	PCIBlankEntry
	.byte	16
	.zero	7
	.dword	.LC75
	.dword	PCIBlankEntry
	.byte	32
	.zero	7
	.dword	.LC76
	.dword	PCIBlankEntry
	.byte	48
	.zero	7
	.dword	.LC77
	.dword	PCIBlankEntry
	.byte	64
	.zero	7
	.dword	.LC78
	.dword	PCIBlankEntry
	.byte	-128
	.zero	7
	.dword	.LC79
	.dword	PCIBlankEntry
	.byte	0
	.zero	7
	.dword	0
	.dword	0
	.globl	PCISubClass_0c
	.section	.rodata
	.align	3
.LC80:
	.string	"I"
	.string	"E"
	.string	"E"
	.string	"E"
	.string	" "
	.string	"1"
	.string	"3"
	.string	"9"
	.string	"4"
	.zero	2
	.align	3
.LC81:
	.string	"A"
	.string	"C"
	.string	"C"
	.string	"E"
	.string	"S"
	.string	"S"
	.string	"."
	.string	"b"
	.string	"u"
	.string	"s"
	.zero	2
	.align	3
.LC82:
	.string	"S"
	.string	"S"
	.string	"A"
	.zero	2
	.align	3
.LC83:
	.string	"U"
	.string	"S"
	.string	"B"
	.zero	2
	.align	3
.LC84:
	.string	"F"
	.string	"i"
	.string	"b"
	.string	"r"
	.string	"e"
	.string	" "
	.string	"C"
	.string	"h"
	.string	"a"
	.string	"n"
	.string	"n"
	.string	"e"
	.string	"l"
	.zero	2
	.align	3
.LC85:
	.string	"S"
	.string	"y"
	.string	"s"
	.string	"t"
	.string	"e"
	.string	"m"
	.string	" "
	.string	"M"
	.string	"a"
	.string	"n"
	.string	"a"
	.string	"g"
	.string	"e"
	.string	"m"
	.string	"e"
	.string	"n"
	.string	"t"
	.string	" "
	.string	"B"
	.string	"u"
	.string	"s"
	.zero	2
	.align	3
.LC86:
	.string	"I"
	.string	"n"
	.string	"f"
	.string	"i"
	.string	"n"
	.string	"i"
	.string	"B"
	.string	"a"
	.string	"n"
	.string	"d"
	.zero	2
	.align	3
.LC87:
	.string	"I"
	.string	"P"
	.string	"M"
	.string	"I"
	.zero	2
	.align	3
.LC88:
	.string	"S"
	.string	"E"
	.string	"R"
	.string	"C"
	.string	"O"
	.string	"S"
	.string	" "
	.string	"I"
	.string	"n"
	.string	"t"
	.string	"e"
	.string	"r"
	.string	"f"
	.string	"a"
	.string	"c"
	.string	"e"
	.string	" "
	.string	"S"
	.string	"t"
	.string	"a"
	.string	"n"
	.string	"d"
	.string	"a"
	.string	"r"
	.string	"d"
	.string	" "
	.string	"("
	.string	"I"
	.string	"E"
	.string	"C"
	.string	" "
	.string	"6"
	.string	"1"
	.string	"4"
	.string	"9"
	.string	"1"
	.string	")"
	.zero	2
	.align	3
.LC89:
	.string	"C"
	.string	"A"
	.string	"N"
	.string	"b"
	.string	"u"
	.string	"s"
	.zero	2
	.align	3
.LC90:
	.string	"O"
	.string	"t"
	.string	"h"
	.string	"e"
	.string	"r"
	.string	" "
	.string	"b"
	.string	"u"
	.string	"s"
	.string	" "
	.string	"t"
	.string	"y"
	.string	"p"
	.string	"e"
	.zero	2
	.section	.data.rel.local.PCISubClass_0c,"aw"
	.align	3
	.type	PCISubClass_0c, @object
	.size	PCISubClass_0c, 288
PCISubClass_0c:
	.byte	0
	.zero	7
	.dword	.LC80
	.dword	PCIPIFClass_0c00
	.byte	1
	.zero	7
	.dword	.LC81
	.dword	PCIBlankEntry
	.byte	2
	.zero	7
	.dword	.LC82
	.dword	PCIBlankEntry
	.byte	3
	.zero	7
	.dword	.LC83
	.dword	PCIPIFClass_0c03
	.byte	4
	.zero	7
	.dword	.LC84
	.dword	PCIBlankEntry
	.byte	5
	.zero	7
	.dword	.LC85
	.dword	PCIBlankEntry
	.byte	6
	.zero	7
	.dword	.LC86
	.dword	PCIBlankEntry
	.byte	7
	.zero	7
	.dword	.LC87
	.dword	PCIPIFClass_0c07
	.byte	8
	.zero	7
	.dword	.LC88
	.dword	PCIBlankEntry
	.byte	9
	.zero	7
	.dword	.LC89
	.dword	PCIBlankEntry
	.byte	-128
	.zero	7
	.dword	.LC90
	.dword	PCIBlankEntry
	.byte	0
	.zero	7
	.dword	0
	.dword	0
	.globl	PCISubClass_0d
	.section	.rodata
	.align	3
.LC91:
	.string	"i"
	.string	"R"
	.string	"D"
	.string	"A"
	.string	" "
	.string	"c"
	.string	"o"
	.string	"m"
	.string	"p"
	.string	"a"
	.string	"t"
	.string	"i"
	.string	"b"
	.string	"l"
	.string	"e"
	.string	" "
	.string	"c"
	.string	"o"
	.string	"n"
	.string	"t"
	.string	"r"
	.string	"o"
	.string	"l"
	.string	"l"
	.string	"e"
	.string	"r"
	.zero	2
	.align	3
.LC92:
	.string	"R"
	.string	"F"
	.string	" "
	.string	"c"
	.string	"o"
	.string	"n"
	.string	"t"
	.string	"r"
	.string	"o"
	.string	"l"
	.string	"l"
	.string	"e"
	.string	"r"
	.zero	2
	.align	3
.LC93:
	.string	"B"
	.string	"l"
	.string	"u"
	.string	"e"
	.string	"t"
	.string	"o"
	.string	"o"
	.string	"t"
	.string	"h"
	.zero	2
	.align	3
.LC94:
	.string	"B"
	.string	"r"
	.string	"o"
	.string	"a"
	.string	"d"
	.string	"b"
	.string	"a"
	.string	"n"
	.string	"d"
	.zero	2
	.align	3
.LC95:
	.string	"E"
	.string	"t"
	.string	"h"
	.string	"e"
	.string	"r"
	.string	"n"
	.string	"e"
	.string	"t"
	.string	" "
	.string	"("
	.string	"8"
	.string	"0"
	.string	"2"
	.string	"."
	.string	"1"
	.string	"1"
	.string	"a"
	.string	" "
	.string	"-"
	.string	" "
	.string	"5"
	.string	" "
	.string	"G"
	.string	"H"
	.string	"z"
	.string	")"
	.zero	2
	.align	3
.LC96:
	.string	"E"
	.string	"t"
	.string	"h"
	.string	"e"
	.string	"r"
	.string	"n"
	.string	"e"
	.string	"t"
	.string	" "
	.string	"("
	.string	"8"
	.string	"0"
	.string	"2"
	.string	"."
	.string	"1"
	.string	"1"
	.string	"b"
	.string	" "
	.string	"-"
	.string	" "
	.string	"2"
	.string	"."
	.string	"4"
	.string	" "
	.string	"G"
	.string	"H"
	.string	"z"
	.string	")"
	.zero	2
	.align	3
.LC97:
	.string	"O"
	.string	"t"
	.string	"h"
	.string	"e"
	.string	"r"
	.string	" "
	.string	"t"
	.string	"y"
	.string	"p"
	.string	"e"
	.string	" "
	.string	"o"
	.string	"f"
	.string	" "
	.string	"w"
	.string	"i"
	.string	"r"
	.string	"e"
	.string	"l"
	.string	"e"
	.string	"s"
	.string	"s"
	.string	" "
	.string	"c"
	.string	"o"
	.string	"n"
	.string	"t"
	.string	"r"
	.string	"o"
	.string	"l"
	.string	"l"
	.string	"e"
	.string	"r"
	.zero	2
	.section	.data.rel.local.PCISubClass_0d,"aw"
	.align	3
	.type	PCISubClass_0d, @object
	.size	PCISubClass_0d, 216
PCISubClass_0d:
	.byte	0
	.zero	7
	.dword	.LC91
	.dword	PCIBlankEntry
	.byte	1
	.zero	7
	.dword	.LC0
	.dword	PCIPIFClass_0d01
	.byte	16
	.zero	7
	.dword	.LC92
	.dword	PCIBlankEntry
	.byte	17
	.zero	7
	.dword	.LC93
	.dword	PCIBlankEntry
	.byte	18
	.zero	7
	.dword	.LC94
	.dword	PCIBlankEntry
	.byte	32
	.zero	7
	.dword	.LC95
	.dword	PCIBlankEntry
	.byte	33
	.zero	7
	.dword	.LC96
	.dword	PCIBlankEntry
	.byte	-128
	.zero	7
	.dword	.LC97
	.dword	PCIBlankEntry
	.byte	0
	.zero	7
	.dword	0
	.dword	0
	.globl	PCISubClass_0e
	.section	.rodata
	.align	3
.LC98:
	.string	"I"
	.string	"2"
	.string	"O"
	.string	" "
	.string	"A"
	.string	"r"
	.string	"c"
	.string	"h"
	.string	"i"
	.string	"t"
	.string	"e"
	.string	"c"
	.string	"t"
	.string	"u"
	.string	"r"
	.string	"e"
	.zero	2
	.section	.data.rel.local.PCISubClass_0e,"aw"
	.align	3
	.type	PCISubClass_0e, @object
	.size	PCISubClass_0e, 48
PCISubClass_0e:
	.byte	0
	.zero	7
	.dword	.LC98
	.dword	PCIPIFClass_0e00
	.byte	0
	.zero	7
	.dword	0
	.dword	0
	.globl	PCISubClass_0f
	.section	.rodata
	.align	3
.LC99:
	.string	"T"
	.string	"V"
	.zero	2
	.align	3
.LC100:
	.string	"A"
	.string	"u"
	.string	"d"
	.string	"i"
	.string	"o"
	.zero	2
	.align	3
.LC101:
	.string	"V"
	.string	"o"
	.string	"i"
	.string	"c"
	.string	"e"
	.zero	2
	.align	3
.LC102:
	.string	"D"
	.string	"a"
	.string	"t"
	.string	"a"
	.zero	2
	.align	3
.LC103:
	.string	"O"
	.string	"t"
	.string	"h"
	.string	"e"
	.string	"r"
	.string	" "
	.string	"s"
	.string	"a"
	.string	"t"
	.string	"e"
	.string	"l"
	.string	"l"
	.string	"i"
	.string	"t"
	.string	"e"
	.string	" "
	.string	"c"
	.string	"o"
	.string	"m"
	.string	"m"
	.string	"u"
	.string	"n"
	.string	"i"
	.string	"c"
	.string	"a"
	.string	"t"
	.string	"i"
	.string	"o"
	.string	"n"
	.string	" "
	.string	"c"
	.string	"o"
	.string	"n"
	.string	"t"
	.string	"r"
	.string	"o"
	.string	"l"
	.string	"l"
	.string	"e"
	.string	"r"
	.zero	2
	.section	.data.rel.local.PCISubClass_0f,"aw"
	.align	3
	.type	PCISubClass_0f, @object
	.size	PCISubClass_0f, 144
PCISubClass_0f:
	.byte	1
	.zero	7
	.dword	.LC99
	.dword	PCIBlankEntry
	.byte	2
	.zero	7
	.dword	.LC100
	.dword	PCIBlankEntry
	.byte	3
	.zero	7
	.dword	.LC101
	.dword	PCIBlankEntry
	.byte	4
	.zero	7
	.dword	.LC102
	.dword	PCIBlankEntry
	.byte	-128
	.zero	7
	.dword	.LC103
	.dword	PCIBlankEntry
	.byte	0
	.zero	7
	.dword	0
	.dword	0
	.globl	PCISubClass_10
	.section	.rodata
	.align	3
.LC104:
	.string	"N"
	.string	"e"
	.string	"t"
	.string	"w"
	.string	"o"
	.string	"r"
	.string	"k"
	.string	" "
	.string	"&"
	.string	" "
	.string	"c"
	.string	"o"
	.string	"m"
	.string	"p"
	.string	"u"
	.string	"t"
	.string	"i"
	.string	"n"
	.string	"g"
	.string	" "
	.string	"E"
	.string	"n"
	.string	"c"
	.string	"r"
	.string	"y"
	.string	"p"
	.string	"t"
	.string	"/"
	.string	"D"
	.string	"e"
	.string	"c"
	.string	"r"
	.string	"y"
	.string	"p"
	.string	"t"
	.zero	2
	.align	3
.LC105:
	.string	"E"
	.string	"n"
	.string	"t"
	.string	"e"
	.string	"r"
	.string	"t"
	.string	"a"
	.string	"i"
	.string	"n"
	.string	"m"
	.string	"e"
	.string	"n"
	.string	"t"
	.string	" "
	.string	"E"
	.string	"n"
	.string	"c"
	.string	"r"
	.string	"y"
	.string	"p"
	.string	"t"
	.string	"/"
	.string	"D"
	.string	"e"
	.string	"c"
	.string	"r"
	.string	"y"
	.string	"p"
	.string	"t"
	.zero	2
	.align	3
.LC106:
	.string	"O"
	.string	"t"
	.string	"h"
	.string	"e"
	.string	"r"
	.string	" "
	.string	"E"
	.string	"n"
	.string	"c"
	.string	"r"
	.string	"y"
	.string	"p"
	.string	"t"
	.string	"/"
	.string	"D"
	.string	"e"
	.string	"c"
	.string	"r"
	.string	"y"
	.string	"p"
	.string	"t"
	.zero	2
	.section	.data.rel.local.PCISubClass_10,"aw"
	.align	3
	.type	PCISubClass_10, @object
	.size	PCISubClass_10, 96
PCISubClass_10:
	.byte	0
	.zero	7
	.dword	.LC104
	.dword	PCIBlankEntry
	.byte	1
	.zero	7
	.dword	.LC105
	.dword	PCIBlankEntry
	.byte	-128
	.zero	7
	.dword	.LC106
	.dword	PCIBlankEntry
	.byte	0
	.zero	7
	.dword	0
	.dword	0
	.globl	PCISubClass_11
	.section	.rodata
	.align	3
.LC107:
	.string	"D"
	.string	"P"
	.string	"I"
	.string	"O"
	.string	" "
	.string	"m"
	.string	"o"
	.string	"d"
	.string	"u"
	.string	"l"
	.string	"e"
	.string	"s"
	.zero	2
	.align	3
.LC108:
	.string	"P"
	.string	"e"
	.string	"r"
	.string	"f"
	.string	"o"
	.string	"r"
	.string	"m"
	.string	"a"
	.string	"n"
	.string	"c"
	.string	"e"
	.string	" "
	.string	"C"
	.string	"o"
	.string	"u"
	.string	"n"
	.string	"t"
	.string	"e"
	.string	"r"
	.string	"s"
	.zero	2
	.align	3
.LC109:
	.string	"C"
	.string	"o"
	.string	"m"
	.string	"m"
	.string	"u"
	.string	"n"
	.string	"i"
	.string	"c"
	.string	"a"
	.string	"t"
	.string	"i"
	.string	"o"
	.string	"n"
	.string	"s"
	.string	" "
	.string	"s"
	.string	"y"
	.string	"n"
	.string	"c"
	.string	"h"
	.string	"r"
	.string	"o"
	.string	"n"
	.string	"i"
	.string	"z"
	.string	"a"
	.string	"t"
	.string	"i"
	.string	"o"
	.string	"n"
	.string	" "
	.string	"p"
	.string	"l"
	.string	"u"
	.string	"s"
	.string	" "
	.string	"t"
	.string	"i"
	.string	"m"
	.string	"e"
	.string	" "
	.string	"a"
	.string	"n"
	.string	"d"
	.string	" "
	.string	"f"
	.string	"r"
	.string	"e"
	.string	"q"
	.string	"u"
	.string	"e"
	.string	"n"
	.string	"c"
	.string	"y"
	.string	" "
	.string	"t"
	.string	"e"
	.string	"s"
	.string	"t"
	.string	"/"
	.string	"m"
	.string	"e"
	.string	"a"
	.string	"s"
	.string	"u"
	.string	"r"
	.string	"e"
	.string	"m"
	.string	"e"
	.string	"n"
	.string	"t"
	.string	" "
	.zero	2
	.align	3
.LC110:
	.string	"M"
	.string	"a"
	.string	"n"
	.string	"a"
	.string	"g"
	.string	"e"
	.string	"m"
	.string	"e"
	.string	"n"
	.string	"t"
	.string	" "
	.string	"c"
	.string	"a"
	.string	"r"
	.string	"d"
	.zero	2
	.align	3
.LC111:
	.string	"O"
	.string	"t"
	.string	"h"
	.string	"e"
	.string	"r"
	.string	" "
	.string	"D"
	.string	"A"
	.string	"Q"
	.string	" "
	.string	"&"
	.string	" "
	.string	"S"
	.string	"P"
	.string	" "
	.string	"c"
	.string	"o"
	.string	"n"
	.string	"t"
	.string	"r"
	.string	"o"
	.string	"l"
	.string	"l"
	.string	"e"
	.string	"r"
	.string	"s"
	.zero	2
	.section	.data.rel.local.PCISubClass_11,"aw"
	.align	3
	.type	PCISubClass_11, @object
	.size	PCISubClass_11, 144
PCISubClass_11:
	.byte	0
	.zero	7
	.dword	.LC107
	.dword	PCIBlankEntry
	.byte	1
	.zero	7
	.dword	.LC108
	.dword	PCIBlankEntry
	.byte	16
	.zero	7
	.dword	.LC109
	.dword	PCIBlankEntry
	.byte	32
	.zero	7
	.dword	.LC110
	.dword	PCIBlankEntry
	.byte	-128
	.zero	7
	.dword	.LC111
	.dword	PCIBlankEntry
	.byte	0
	.zero	7
	.dword	0
	.dword	0
	.globl	PCISubClass_12
	.section	.rodata
	.align	3
.LC112:
	.string	"P"
	.string	"r"
	.string	"o"
	.string	"c"
	.string	"e"
	.string	"s"
	.string	"s"
	.string	"i"
	.string	"n"
	.string	"g"
	.string	" "
	.string	"A"
	.string	"c"
	.string	"c"
	.string	"e"
	.string	"l"
	.string	"e"
	.string	"r"
	.string	"a"
	.string	"t"
	.string	"o"
	.string	"r"
	.zero	2
	.section	.data.rel.local.PCISubClass_12,"aw"
	.align	3
	.type	PCISubClass_12, @object
	.size	PCISubClass_12, 48
PCISubClass_12:
	.byte	0
	.zero	7
	.dword	.LC112
	.dword	PCIBlankEntry
	.byte	0
	.zero	7
	.dword	0
	.dword	0
	.globl	PCISubClass_13
	.section	.rodata
	.align	3
.LC113:
	.string	"N"
	.string	"o"
	.string	"n"
	.string	"-"
	.string	"E"
	.string	"s"
	.string	"s"
	.string	"e"
	.string	"n"
	.string	"t"
	.string	"i"
	.string	"a"
	.string	"l"
	.string	" "
	.string	"I"
	.string	"n"
	.string	"s"
	.string	"t"
	.string	"r"
	.string	"u"
	.string	"m"
	.string	"e"
	.string	"n"
	.string	"t"
	.string	"a"
	.string	"t"
	.string	"i"
	.string	"o"
	.string	"n"
	.string	" "
	.string	"F"
	.string	"u"
	.string	"n"
	.string	"c"
	.string	"t"
	.string	"i"
	.string	"o"
	.string	"n"
	.zero	2
	.section	.data.rel.local.PCISubClass_13,"aw"
	.align	3
	.type	PCISubClass_13, @object
	.size	PCISubClass_13, 48
PCISubClass_13:
	.byte	0
	.zero	7
	.dword	.LC113
	.dword	PCIBlankEntry
	.byte	0
	.zero	7
	.dword	0
	.dword	0
	.globl	PCIPIFClass_0100
	.section	.rodata
	.align	3
.LC114:
	.string	"S"
	.string	"C"
	.string	"S"
	.string	"I"
	.string	" "
	.string	"c"
	.string	"o"
	.string	"n"
	.string	"t"
	.string	"r"
	.string	"o"
	.string	"l"
	.string	"l"
	.string	"e"
	.string	"r"
	.zero	2
	.align	3
.LC115:
	.string	"S"
	.string	"C"
	.string	"S"
	.string	"I"
	.string	" "
	.string	"s"
	.string	"t"
	.string	"o"
	.string	"r"
	.string	"a"
	.string	"g"
	.string	"e"
	.string	" "
	.string	"d"
	.string	"e"
	.string	"v"
	.string	"i"
	.string	"c"
	.string	"e"
	.string	" "
	.string	"S"
	.string	"O"
	.string	"P"
	.string	" "
	.string	"u"
	.string	"s"
	.string	"i"
	.string	"n"
	.string	"g"
	.string	" "
	.string	"P"
	.string	"Q"
	.string	"I"
	.zero	2
	.align	3
.LC116:
	.string	"S"
	.string	"C"
	.string	"S"
	.string	"I"
	.string	" "
	.string	"c"
	.string	"o"
	.string	"n"
	.string	"t"
	.string	"r"
	.string	"o"
	.string	"l"
	.string	"l"
	.string	"e"
	.string	"r"
	.string	" "
	.string	"S"
	.string	"O"
	.string	"P"
	.string	" "
	.string	"u"
	.string	"s"
	.string	"i"
	.string	"n"
	.string	"g"
	.string	" "
	.string	"P"
	.string	"Q"
	.string	"I"
	.zero	2
	.align	3
.LC117:
	.string	"S"
	.string	"C"
	.string	"S"
	.string	"I"
	.string	" "
	.string	"s"
	.string	"t"
	.string	"o"
	.string	"r"
	.string	"a"
	.string	"g"
	.string	"e"
	.string	" "
	.string	"d"
	.string	"e"
	.string	"v"
	.string	"i"
	.string	"c"
	.string	"e"
	.string	" "
	.string	"a"
	.string	"n"
	.string	"d"
	.string	" "
	.string	"c"
	.string	"o"
	.string	"n"
	.string	"t"
	.string	"r"
	.string	"o"
	.string	"l"
	.string	"l"
	.string	"e"
	.string	"r"
	.string	" "
	.string	"S"
	.string	"O"
	.string	"P"
	.string	" "
	.string	"u"
	.string	"s"
	.string	"i"
	.string	"n"
	.string	"g"
	.string	" "
	.string	"P"
	.string	"Q"
	.string	"I"
	.zero	2
	.align	3
.LC118:
	.string	"S"
	.string	"C"
	.string	"S"
	.string	"I"
	.string	" "
	.string	"s"
	.string	"t"
	.string	"o"
	.string	"r"
	.string	"a"
	.string	"g"
	.string	"e"
	.string	" "
	.string	"d"
	.string	"e"
	.string	"v"
	.string	"i"
	.string	"c"
	.string	"e"
	.string	" "
	.string	"S"
	.string	"O"
	.string	"P"
	.string	" "
	.string	"u"
	.string	"s"
	.string	"i"
	.string	"n"
	.string	"g"
	.string	" "
	.string	"N"
	.string	"V"
	.string	"M"
	.string	"e"
	.zero	2
	.section	.data.rel.local.PCIPIFClass_0100,"aw"
	.align	3
	.type	PCIPIFClass_0100, @object
	.size	PCIPIFClass_0100, 144
PCIPIFClass_0100:
	.byte	0
	.zero	7
	.dword	.LC114
	.dword	PCIBlankEntry
	.byte	17
	.zero	7
	.dword	.LC115
	.dword	PCIBlankEntry
	.byte	18
	.zero	7
	.dword	.LC116
	.dword	PCIBlankEntry
	.byte	19
	.zero	7
	.dword	.LC117
	.dword	PCIBlankEntry
	.byte	33
	.zero	7
	.dword	.LC118
	.dword	PCIBlankEntry
	.byte	0
	.zero	7
	.dword	0
	.dword	0
	.globl	PCIPIFClass_0101
	.section	.rodata
	.align	3
.LC119:
	.string	"O"
	.string	"M"
	.string	"-"
	.string	"p"
	.string	"r"
	.string	"i"
	.string	"m"
	.string	"a"
	.string	"r"
	.string	"y"
	.zero	2
	.align	3
.LC120:
	.string	"P"
	.string	"I"
	.string	"-"
	.string	"p"
	.string	"r"
	.string	"i"
	.string	"m"
	.string	"a"
	.string	"r"
	.string	"y"
	.zero	2
	.align	3
.LC121:
	.string	"O"
	.string	"M"
	.string	"/"
	.string	"P"
	.string	"I"
	.string	"-"
	.string	"p"
	.string	"r"
	.string	"i"
	.string	"m"
	.string	"a"
	.string	"r"
	.string	"y"
	.zero	2
	.align	3
.LC122:
	.string	"O"
	.string	"M"
	.string	"-"
	.string	"s"
	.string	"e"
	.string	"c"
	.string	"o"
	.string	"n"
	.string	"d"
	.string	"a"
	.string	"r"
	.string	"y"
	.zero	2
	.align	3
.LC123:
	.string	"O"
	.string	"M"
	.string	"-"
	.string	"p"
	.string	"r"
	.string	"i"
	.string	"m"
	.string	"a"
	.string	"r"
	.string	"y"
	.string	","
	.string	" "
	.string	"O"
	.string	"M"
	.string	"-"
	.string	"s"
	.string	"e"
	.string	"c"
	.string	"o"
	.string	"n"
	.string	"d"
	.string	"a"
	.string	"r"
	.string	"y"
	.zero	2
	.align	3
.LC124:
	.string	"P"
	.string	"I"
	.string	"-"
	.string	"p"
	.string	"r"
	.string	"i"
	.string	"m"
	.string	"a"
	.string	"r"
	.string	"y"
	.string	","
	.string	" "
	.string	"O"
	.string	"M"
	.string	"-"
	.string	"s"
	.string	"e"
	.string	"c"
	.string	"o"
	.string	"n"
	.string	"d"
	.string	"a"
	.string	"r"
	.string	"y"
	.zero	2
	.align	3
.LC125:
	.string	"O"
	.string	"M"
	.string	"/"
	.string	"P"
	.string	"I"
	.string	"-"
	.string	"p"
	.string	"r"
	.string	"i"
	.string	"m"
	.string	"a"
	.string	"r"
	.string	"y"
	.string	","
	.string	" "
	.string	"O"
	.string	"M"
	.string	"-"
	.string	"s"
	.string	"e"
	.string	"c"
	.string	"o"
	.string	"n"
	.string	"d"
	.string	"a"
	.string	"r"
	.string	"y"
	.zero	2
	.align	3
.LC126:
	.string	"O"
	.string	"M"
	.string	"-"
	.string	"p"
	.string	"r"
	.string	"i"
	.string	"m"
	.string	"a"
	.string	"r"
	.string	"y"
	.string	","
	.string	" "
	.string	"P"
	.string	"I"
	.string	"-"
	.string	"s"
	.string	"e"
	.string	"c"
	.string	"o"
	.string	"n"
	.string	"d"
	.string	"a"
	.string	"r"
	.string	"y"
	.zero	2
	.align	3
.LC127:
	.string	"P"
	.string	"I"
	.string	"-"
	.string	"p"
	.string	"r"
	.string	"i"
	.string	"m"
	.string	"a"
	.string	"r"
	.string	"y"
	.string	","
	.string	" "
	.string	"P"
	.string	"I"
	.string	"-"
	.string	"s"
	.string	"e"
	.string	"c"
	.string	"o"
	.string	"n"
	.string	"d"
	.string	"a"
	.string	"r"
	.string	"y"
	.zero	2
	.align	3
.LC128:
	.string	"O"
	.string	"M"
	.string	"/"
	.string	"P"
	.string	"I"
	.string	"-"
	.string	"p"
	.string	"r"
	.string	"i"
	.string	"m"
	.string	"a"
	.string	"r"
	.string	"y"
	.string	","
	.string	" "
	.string	"P"
	.string	"I"
	.string	"-"
	.string	"s"
	.string	"e"
	.string	"c"
	.string	"o"
	.string	"n"
	.string	"d"
	.string	"a"
	.string	"r"
	.string	"y"
	.zero	2
	.align	3
.LC129:
	.string	"O"
	.string	"M"
	.string	"-"
	.string	"p"
	.string	"r"
	.string	"i"
	.string	"m"
	.string	"a"
	.string	"r"
	.string	"y"
	.string	","
	.string	" "
	.string	"O"
	.string	"M"
	.string	"/"
	.string	"P"
	.string	"I"
	.string	"-"
	.string	"s"
	.string	"e"
	.string	"c"
	.string	"o"
	.string	"n"
	.string	"d"
	.string	"a"
	.string	"r"
	.string	"y"
	.zero	2
	.align	3
.LC130:
	.string	"P"
	.string	"I"
	.string	"-"
	.string	"p"
	.string	"r"
	.string	"i"
	.string	"m"
	.string	"a"
	.string	"r"
	.string	"y"
	.string	","
	.string	" "
	.string	"O"
	.string	"M"
	.string	"/"
	.string	"P"
	.string	"I"
	.string	"-"
	.string	"s"
	.string	"e"
	.string	"c"
	.string	"o"
	.string	"n"
	.string	"d"
	.string	"a"
	.string	"r"
	.string	"y"
	.zero	2
	.align	3
.LC131:
	.string	"O"
	.string	"M"
	.string	"/"
	.string	"P"
	.string	"I"
	.string	"-"
	.string	"p"
	.string	"r"
	.string	"i"
	.string	"m"
	.string	"a"
	.string	"r"
	.string	"y"
	.string	","
	.string	" "
	.string	"O"
	.string	"M"
	.string	"/"
	.string	"P"
	.string	"I"
	.string	"-"
	.string	"s"
	.string	"e"
	.string	"c"
	.string	"o"
	.string	"n"
	.string	"d"
	.string	"a"
	.string	"r"
	.string	"y"
	.zero	2
	.align	3
.LC132:
	.string	"M"
	.string	"a"
	.string	"s"
	.string	"t"
	.string	"e"
	.string	"r"
	.zero	2
	.align	3
.LC133:
	.string	"M"
	.string	"a"
	.string	"s"
	.string	"t"
	.string	"e"
	.string	"r"
	.string	","
	.string	" "
	.string	"O"
	.string	"M"
	.string	"-"
	.string	"p"
	.string	"r"
	.string	"i"
	.string	"m"
	.string	"a"
	.string	"r"
	.string	"y"
	.zero	2
	.align	3
.LC134:
	.string	"M"
	.string	"a"
	.string	"s"
	.string	"t"
	.string	"e"
	.string	"r"
	.string	","
	.string	" "
	.string	"P"
	.string	"I"
	.string	"-"
	.string	"p"
	.string	"r"
	.string	"i"
	.string	"m"
	.string	"a"
	.string	"r"
	.string	"y"
	.zero	2
	.align	3
.LC135:
	.string	"M"
	.string	"a"
	.string	"s"
	.string	"t"
	.string	"e"
	.string	"r"
	.string	","
	.string	" "
	.string	"O"
	.string	"M"
	.string	"/"
	.string	"P"
	.string	"I"
	.string	"-"
	.string	"p"
	.string	"r"
	.string	"i"
	.string	"m"
	.string	"a"
	.string	"r"
	.string	"y"
	.zero	2
	.align	3
.LC136:
	.string	"M"
	.string	"a"
	.string	"s"
	.string	"t"
	.string	"e"
	.string	"r"
	.string	","
	.string	" "
	.string	"O"
	.string	"M"
	.string	"-"
	.string	"s"
	.string	"e"
	.string	"c"
	.string	"o"
	.string	"n"
	.string	"d"
	.string	"a"
	.string	"r"
	.string	"y"
	.zero	2
	.align	3
.LC137:
	.string	"M"
	.string	"a"
	.string	"s"
	.string	"t"
	.string	"e"
	.string	"r"
	.string	","
	.string	" "
	.string	"O"
	.string	"M"
	.string	"-"
	.string	"p"
	.string	"r"
	.string	"i"
	.string	"m"
	.string	"a"
	.string	"r"
	.string	"y"
	.string	","
	.string	" "
	.string	"O"
	.string	"M"
	.string	"-"
	.string	"s"
	.string	"e"
	.string	"c"
	.string	"o"
	.string	"n"
	.string	"d"
	.string	"a"
	.string	"r"
	.string	"y"
	.zero	2
	.align	3
.LC138:
	.string	"M"
	.string	"a"
	.string	"s"
	.string	"t"
	.string	"e"
	.string	"r"
	.string	","
	.string	" "
	.string	"P"
	.string	"I"
	.string	"-"
	.string	"p"
	.string	"r"
	.string	"i"
	.string	"m"
	.string	"a"
	.string	"r"
	.string	"y"
	.string	","
	.string	" "
	.string	"O"
	.string	"M"
	.string	"-"
	.string	"s"
	.string	"e"
	.string	"c"
	.string	"o"
	.string	"n"
	.string	"d"
	.string	"a"
	.string	"r"
	.string	"y"
	.zero	2
	.align	3
.LC139:
	.string	"M"
	.string	"a"
	.string	"s"
	.string	"t"
	.string	"e"
	.string	"r"
	.string	","
	.string	" "
	.string	"O"
	.string	"M"
	.string	"/"
	.string	"P"
	.string	"I"
	.string	"-"
	.string	"p"
	.string	"r"
	.string	"i"
	.string	"m"
	.string	"a"
	.string	"r"
	.string	"y"
	.string	","
	.string	" "
	.string	"O"
	.string	"M"
	.string	"-"
	.string	"s"
	.string	"e"
	.string	"c"
	.string	"o"
	.string	"n"
	.string	"d"
	.string	"a"
	.string	"r"
	.string	"y"
	.zero	2
	.align	3
.LC140:
	.string	"M"
	.string	"a"
	.string	"s"
	.string	"t"
	.string	"e"
	.string	"r"
	.string	","
	.string	" "
	.string	"O"
	.string	"M"
	.string	"-"
	.string	"p"
	.string	"r"
	.string	"i"
	.string	"m"
	.string	"a"
	.string	"r"
	.string	"y"
	.string	","
	.string	" "
	.string	"P"
	.string	"I"
	.string	"-"
	.string	"s"
	.string	"e"
	.string	"c"
	.string	"o"
	.string	"n"
	.string	"d"
	.string	"a"
	.string	"r"
	.string	"y"
	.zero	2
	.align	3
.LC141:
	.string	"M"
	.string	"a"
	.string	"s"
	.string	"t"
	.string	"e"
	.string	"r"
	.string	","
	.string	" "
	.string	"P"
	.string	"I"
	.string	"-"
	.string	"p"
	.string	"r"
	.string	"i"
	.string	"m"
	.string	"a"
	.string	"r"
	.string	"y"
	.string	","
	.string	" "
	.string	"P"
	.string	"I"
	.string	"-"
	.string	"s"
	.string	"e"
	.string	"c"
	.string	"o"
	.string	"n"
	.string	"d"
	.string	"a"
	.string	"r"
	.string	"y"
	.zero	2
	.align	3
.LC142:
	.string	"M"
	.string	"a"
	.string	"s"
	.string	"t"
	.string	"e"
	.string	"r"
	.string	","
	.string	" "
	.string	"O"
	.string	"M"
	.string	"/"
	.string	"P"
	.string	"I"
	.string	"-"
	.string	"p"
	.string	"r"
	.string	"i"
	.string	"m"
	.string	"a"
	.string	"r"
	.string	"y"
	.string	","
	.string	" "
	.string	"P"
	.string	"I"
	.string	"-"
	.string	"s"
	.string	"e"
	.string	"c"
	.string	"o"
	.string	"n"
	.string	"d"
	.string	"a"
	.string	"r"
	.string	"y"
	.zero	2
	.align	3
.LC143:
	.string	"M"
	.string	"a"
	.string	"s"
	.string	"t"
	.string	"e"
	.string	"r"
	.string	","
	.string	" "
	.string	"O"
	.string	"M"
	.string	"-"
	.string	"p"
	.string	"r"
	.string	"i"
	.string	"m"
	.string	"a"
	.string	"r"
	.string	"y"
	.string	","
	.string	" "
	.string	"O"
	.string	"M"
	.string	"/"
	.string	"P"
	.string	"I"
	.string	"-"
	.string	"s"
	.string	"e"
	.string	"c"
	.string	"o"
	.string	"n"
	.string	"d"
	.string	"a"
	.string	"r"
	.string	"y"
	.zero	2
	.align	3
.LC144:
	.string	"M"
	.string	"a"
	.string	"s"
	.string	"t"
	.string	"e"
	.string	"r"
	.string	","
	.string	" "
	.string	"P"
	.string	"I"
	.string	"-"
	.string	"p"
	.string	"r"
	.string	"i"
	.string	"m"
	.string	"a"
	.string	"r"
	.string	"y"
	.string	","
	.string	" "
	.string	"O"
	.string	"M"
	.string	"/"
	.string	"P"
	.string	"I"
	.string	"-"
	.string	"s"
	.string	"e"
	.string	"c"
	.string	"o"
	.string	"n"
	.string	"d"
	.string	"a"
	.string	"r"
	.string	"y"
	.zero	2
	.align	3
.LC145:
	.string	"M"
	.string	"a"
	.string	"s"
	.string	"t"
	.string	"e"
	.string	"r"
	.string	","
	.string	" "
	.string	"O"
	.string	"M"
	.string	"/"
	.string	"P"
	.string	"I"
	.string	"-"
	.string	"p"
	.string	"r"
	.string	"i"
	.string	"m"
	.string	"a"
	.string	"r"
	.string	"y"
	.string	","
	.string	" "
	.string	"O"
	.string	"M"
	.string	"/"
	.string	"P"
	.string	"I"
	.string	"-"
	.string	"s"
	.string	"e"
	.string	"c"
	.string	"o"
	.string	"n"
	.string	"d"
	.string	"a"
	.string	"r"
	.string	"y"
	.zero	2
	.section	.data.rel.local.PCIPIFClass_0101,"aw"
	.align	3
	.type	PCIPIFClass_0101, @object
	.size	PCIPIFClass_0101, 792
PCIPIFClass_0101:
	.byte	0
	.zero	7
	.dword	.LC0
	.dword	PCIBlankEntry
	.byte	1
	.zero	7
	.dword	.LC119
	.dword	PCIBlankEntry
	.byte	2
	.zero	7
	.dword	.LC120
	.dword	PCIBlankEntry
	.byte	3
	.zero	7
	.dword	.LC121
	.dword	PCIBlankEntry
	.byte	4
	.zero	7
	.dword	.LC122
	.dword	PCIBlankEntry
	.byte	5
	.zero	7
	.dword	.LC123
	.dword	PCIBlankEntry
	.byte	6
	.zero	7
	.dword	.LC124
	.dword	PCIBlankEntry
	.byte	7
	.zero	7
	.dword	.LC125
	.dword	PCIBlankEntry
	.byte	8
	.zero	7
	.dword	.LC122
	.dword	PCIBlankEntry
	.byte	9
	.zero	7
	.dword	.LC126
	.dword	PCIBlankEntry
	.byte	10
	.zero	7
	.dword	.LC127
	.dword	PCIBlankEntry
	.byte	11
	.zero	7
	.dword	.LC128
	.dword	PCIBlankEntry
	.byte	12
	.zero	7
	.dword	.LC122
	.dword	PCIBlankEntry
	.byte	13
	.zero	7
	.dword	.LC129
	.dword	PCIBlankEntry
	.byte	14
	.zero	7
	.dword	.LC130
	.dword	PCIBlankEntry
	.byte	15
	.zero	7
	.dword	.LC131
	.dword	PCIBlankEntry
	.byte	-128
	.zero	7
	.dword	.LC132
	.dword	PCIBlankEntry
	.byte	-127
	.zero	7
	.dword	.LC133
	.dword	PCIBlankEntry
	.byte	-126
	.zero	7
	.dword	.LC134
	.dword	PCIBlankEntry
	.byte	-125
	.zero	7
	.dword	.LC135
	.dword	PCIBlankEntry
	.byte	-124
	.zero	7
	.dword	.LC136
	.dword	PCIBlankEntry
	.byte	-123
	.zero	7
	.dword	.LC137
	.dword	PCIBlankEntry
	.byte	-122
	.zero	7
	.dword	.LC138
	.dword	PCIBlankEntry
	.byte	-121
	.zero	7
	.dword	.LC139
	.dword	PCIBlankEntry
	.byte	-120
	.zero	7
	.dword	.LC136
	.dword	PCIBlankEntry
	.byte	-119
	.zero	7
	.dword	.LC140
	.dword	PCIBlankEntry
	.byte	-118
	.zero	7
	.dword	.LC141
	.dword	PCIBlankEntry
	.byte	-117
	.zero	7
	.dword	.LC142
	.dword	PCIBlankEntry
	.byte	-116
	.zero	7
	.dword	.LC136
	.dword	PCIBlankEntry
	.byte	-115
	.zero	7
	.dword	.LC143
	.dword	PCIBlankEntry
	.byte	-114
	.zero	7
	.dword	.LC144
	.dword	PCIBlankEntry
	.byte	-113
	.zero	7
	.dword	.LC145
	.dword	PCIBlankEntry
	.byte	0
	.zero	7
	.dword	0
	.dword	0
	.globl	PCIPIFClass_0105
	.section	.rodata
	.align	3
.LC146:
	.string	"S"
	.string	"i"
	.string	"n"
	.string	"g"
	.string	"l"
	.string	"e"
	.string	" "
	.string	"s"
	.string	"t"
	.string	"e"
	.string	"p"
	.string	"p"
	.string	"i"
	.string	"n"
	.string	"g"
	.zero	2
	.align	3
.LC147:
	.string	"C"
	.string	"o"
	.string	"n"
	.string	"t"
	.string	"i"
	.string	"n"
	.string	"u"
	.string	"o"
	.string	"u"
	.string	"s"
	.string	" "
	.string	"o"
	.string	"p"
	.string	"e"
	.string	"r"
	.string	"a"
	.string	"t"
	.string	"i"
	.string	"o"
	.string	"n"
	.zero	2
	.section	.data.rel.local.PCIPIFClass_0105,"aw"
	.align	3
	.type	PCIPIFClass_0105, @object
	.size	PCIPIFClass_0105, 72
PCIPIFClass_0105:
	.byte	32
	.zero	7
	.dword	.LC146
	.dword	PCIBlankEntry
	.byte	48
	.zero	7
	.dword	.LC147
	.dword	PCIBlankEntry
	.byte	0
	.zero	7
	.dword	0
	.dword	0
	.globl	PCIPIFClass_0106
	.section	.rodata
	.align	3
.LC148:
	.string	"A"
	.string	"H"
	.string	"C"
	.string	"I"
	.zero	2
	.align	3
.LC149:
	.string	"S"
	.string	"e"
	.string	"r"
	.string	"i"
	.string	"a"
	.string	"l"
	.string	" "
	.string	"S"
	.string	"t"
	.string	"o"
	.string	"r"
	.string	"a"
	.string	"g"
	.string	"e"
	.string	" "
	.string	"B"
	.string	"u"
	.string	"s"
	.zero	2
	.section	.data.rel.local.PCIPIFClass_0106,"aw"
	.align	3
	.type	PCIPIFClass_0106, @object
	.size	PCIPIFClass_0106, 96
PCIPIFClass_0106:
	.byte	0
	.zero	7
	.dword	.LC0
	.dword	PCIBlankEntry
	.byte	1
	.zero	7
	.dword	.LC148
	.dword	PCIBlankEntry
	.byte	2
	.zero	7
	.dword	.LC149
	.dword	PCIBlankEntry
	.byte	0
	.zero	7
	.dword	0
	.dword	0
	.globl	PCIPIFClass_0107
	.section	.rodata
	.align	3
.LC150:
	.string	"O"
	.string	"b"
	.string	"s"
	.string	"o"
	.string	"l"
	.string	"e"
	.string	"t"
	.string	"e"
	.zero	2
	.section	.data.rel.local.PCIPIFClass_0107,"aw"
	.align	3
	.type	PCIPIFClass_0107, @object
	.size	PCIPIFClass_0107, 72
PCIPIFClass_0107:
	.byte	0
	.zero	7
	.dword	.LC0
	.dword	PCIBlankEntry
	.byte	1
	.zero	7
	.dword	.LC150
	.dword	PCIBlankEntry
	.byte	0
	.zero	7
	.dword	0
	.dword	0
	.globl	PCIPIFClass_0108
	.section	.rodata
	.align	3
.LC151:
	.string	"N"
	.string	"V"
	.string	"M"
	.string	"H"
	.string	"C"
	.string	"I"
	.zero	2
	.align	3
.LC152:
	.string	"N"
	.string	"V"
	.string	"M"
	.string	" "
	.string	"E"
	.string	"x"
	.string	"p"
	.string	"r"
	.string	"e"
	.string	"s"
	.string	"s"
	.zero	2
	.section	.data.rel.local.PCIPIFClass_0108,"aw"
	.align	3
	.type	PCIPIFClass_0108, @object
	.size	PCIPIFClass_0108, 96
PCIPIFClass_0108:
	.byte	0
	.zero	7
	.dword	.LC0
	.dword	PCIBlankEntry
	.byte	1
	.zero	7
	.dword	.LC151
	.dword	PCIBlankEntry
	.byte	2
	.zero	7
	.dword	.LC152
	.dword	PCIBlankEntry
	.byte	0
	.zero	7
	.dword	0
	.dword	0
	.globl	PCIPIFClass_0109
	.section	.rodata
	.align	3
.LC153:
	.string	"U"
	.string	"F"
	.string	"S"
	.string	"H"
	.string	"C"
	.string	"I"
	.zero	2
	.section	.data.rel.local.PCIPIFClass_0109,"aw"
	.align	3
	.type	PCIPIFClass_0109, @object
	.size	PCIPIFClass_0109, 72
PCIPIFClass_0109:
	.byte	0
	.zero	7
	.dword	.LC0
	.dword	PCIBlankEntry
	.byte	1
	.zero	7
	.dword	.LC153
	.dword	PCIBlankEntry
	.byte	0
	.zero	7
	.dword	0
	.dword	0
	.globl	PCIPIFClass_0300
	.section	.rodata
	.align	3
.LC154:
	.string	"V"
	.string	"G"
	.string	"A"
	.string	" "
	.string	"c"
	.string	"o"
	.string	"m"
	.string	"p"
	.string	"a"
	.string	"t"
	.string	"i"
	.string	"b"
	.string	"l"
	.string	"e"
	.zero	2
	.align	3
.LC155:
	.string	"8"
	.string	"5"
	.string	"1"
	.string	"4"
	.string	" "
	.string	"c"
	.string	"o"
	.string	"m"
	.string	"p"
	.string	"a"
	.string	"t"
	.string	"i"
	.string	"b"
	.string	"l"
	.string	"e"
	.zero	2
	.section	.data.rel.local.PCIPIFClass_0300,"aw"
	.align	3
	.type	PCIPIFClass_0300, @object
	.size	PCIPIFClass_0300, 72
PCIPIFClass_0300:
	.byte	0
	.zero	7
	.dword	.LC154
	.dword	PCIBlankEntry
	.byte	1
	.zero	7
	.dword	.LC155
	.dword	PCIBlankEntry
	.byte	0
	.zero	7
	.dword	0
	.dword	0
	.globl	PCIPIFClass_0604
	.section	.rodata
	.align	3
.LC156:
	.string	"S"
	.string	"u"
	.string	"b"
	.string	"t"
	.string	"r"
	.string	"a"
	.string	"c"
	.string	"t"
	.string	"i"
	.string	"v"
	.string	"e"
	.string	" "
	.string	"d"
	.string	"e"
	.string	"c"
	.string	"o"
	.string	"d"
	.string	"e"
	.zero	2
	.section	.data.rel.local.PCIPIFClass_0604,"aw"
	.align	3
	.type	PCIPIFClass_0604, @object
	.size	PCIPIFClass_0604, 72
PCIPIFClass_0604:
	.byte	0
	.zero	7
	.dword	.LC0
	.dword	PCIBlankEntry
	.byte	1
	.zero	7
	.dword	.LC156
	.dword	PCIBlankEntry
	.byte	0
	.zero	7
	.dword	0
	.dword	0
	.globl	PCIPIFClass_0609
	.section	.rodata
	.align	3
.LC157:
	.string	"P"
	.string	"r"
	.string	"i"
	.string	"m"
	.string	"a"
	.string	"r"
	.string	"y"
	.string	" "
	.string	"P"
	.string	"C"
	.string	"I"
	.string	" "
	.string	"b"
	.string	"u"
	.string	"s"
	.string	" "
	.string	"s"
	.string	"i"
	.string	"d"
	.string	"e"
	.string	" "
	.string	"f"
	.string	"a"
	.string	"c"
	.string	"i"
	.string	"n"
	.string	"g"
	.string	" "
	.string	"t"
	.string	"h"
	.string	"e"
	.string	" "
	.string	"s"
	.string	"y"
	.string	"s"
	.string	"t"
	.string	"e"
	.string	"m"
	.string	" "
	.string	"h"
	.string	"o"
	.string	"s"
	.string	"t"
	.string	" "
	.string	"p"
	.string	"r"
	.string	"o"
	.string	"c"
	.string	"e"
	.string	"s"
	.string	"s"
	.string	"o"
	.string	"r"
	.zero	2
	.align	3
.LC158:
	.string	"S"
	.string	"e"
	.string	"c"
	.string	"o"
	.string	"n"
	.string	"d"
	.string	"a"
	.string	"r"
	.string	"y"
	.string	" "
	.string	"P"
	.string	"C"
	.string	"I"
	.string	" "
	.string	"b"
	.string	"u"
	.string	"s"
	.string	" "
	.string	"s"
	.string	"i"
	.string	"d"
	.string	"e"
	.string	" "
	.string	"f"
	.string	"a"
	.string	"c"
	.string	"i"
	.string	"n"
	.string	"g"
	.string	" "
	.string	"t"
	.string	"h"
	.string	"e"
	.string	" "
	.string	"s"
	.string	"y"
	.string	"s"
	.string	"t"
	.string	"e"
	.string	"m"
	.string	" "
	.string	"h"
	.string	"o"
	.string	"s"
	.string	"t"
	.string	" "
	.string	"p"
	.string	"r"
	.string	"o"
	.string	"c"
	.string	"e"
	.string	"s"
	.string	"s"
	.string	"o"
	.string	"r"
	.zero	2
	.section	.data.rel.local.PCIPIFClass_0609,"aw"
	.align	3
	.type	PCIPIFClass_0609, @object
	.size	PCIPIFClass_0609, 72
PCIPIFClass_0609:
	.byte	64
	.zero	7
	.dword	.LC157
	.dword	PCIBlankEntry
	.byte	-128
	.zero	7
	.dword	.LC158
	.dword	PCIBlankEntry
	.byte	0
	.zero	7
	.dword	0
	.dword	0
	.globl	PCIPIFClass_060b
	.section	.rodata
	.align	3
.LC159:
	.string	"C"
	.string	"u"
	.string	"s"
	.string	"t"
	.string	"o"
	.string	"m"
	.zero	2
	.align	3
.LC160:
	.string	"A"
	.string	"S"
	.string	"I"
	.string	"-"
	.string	"S"
	.string	"I"
	.string	"G"
	.string	" "
	.string	"D"
	.string	"e"
	.string	"f"
	.string	"i"
	.string	"n"
	.string	"e"
	.string	"d"
	.string	" "
	.string	"P"
	.string	"o"
	.string	"r"
	.string	"t"
	.string	"a"
	.string	"l"
	.zero	2
	.section	.data.rel.local.PCIPIFClass_060b,"aw"
	.align	3
	.type	PCIPIFClass_060b, @object
	.size	PCIPIFClass_060b, 72
PCIPIFClass_060b:
	.byte	0
	.zero	7
	.dword	.LC159
	.dword	PCIBlankEntry
	.byte	1
	.zero	7
	.dword	.LC160
	.dword	PCIBlankEntry
	.byte	0
	.zero	7
	.dword	0
	.dword	0
	.globl	PCIPIFClass_0700
	.section	.rodata
	.align	3
.LC161:
	.string	"G"
	.string	"e"
	.string	"n"
	.string	"e"
	.string	"r"
	.string	"i"
	.string	"c"
	.string	" "
	.string	"X"
	.string	"T"
	.string	"-"
	.string	"c"
	.string	"o"
	.string	"m"
	.string	"p"
	.string	"a"
	.string	"t"
	.string	"i"
	.string	"b"
	.string	"l"
	.string	"e"
	.zero	2
	.align	3
.LC162:
	.string	"1"
	.string	"6"
	.string	"4"
	.string	"5"
	.string	"0"
	.string	"-"
	.string	"c"
	.string	"o"
	.string	"m"
	.string	"p"
	.string	"a"
	.string	"t"
	.string	"i"
	.string	"b"
	.string	"l"
	.string	"e"
	.zero	2
	.align	3
.LC163:
	.string	"1"
	.string	"6"
	.string	"5"
	.string	"5"
	.string	"0"
	.string	"-"
	.string	"c"
	.string	"o"
	.string	"m"
	.string	"p"
	.string	"a"
	.string	"t"
	.string	"i"
	.string	"b"
	.string	"l"
	.string	"e"
	.zero	2
	.align	3
.LC164:
	.string	"1"
	.string	"6"
	.string	"6"
	.string	"5"
	.string	"0"
	.string	"-"
	.string	"c"
	.string	"o"
	.string	"m"
	.string	"p"
	.string	"a"
	.string	"t"
	.string	"i"
	.string	"b"
	.string	"l"
	.string	"e"
	.zero	2
	.align	3
.LC165:
	.string	"1"
	.string	"6"
	.string	"7"
	.string	"5"
	.string	"0"
	.string	"-"
	.string	"c"
	.string	"o"
	.string	"m"
	.string	"p"
	.string	"a"
	.string	"t"
	.string	"i"
	.string	"b"
	.string	"l"
	.string	"e"
	.zero	2
	.align	3
.LC166:
	.string	"1"
	.string	"6"
	.string	"8"
	.string	"5"
	.string	"0"
	.string	"-"
	.string	"c"
	.string	"o"
	.string	"m"
	.string	"p"
	.string	"a"
	.string	"t"
	.string	"i"
	.string	"b"
	.string	"l"
	.string	"e"
	.zero	2
	.align	3
.LC167:
	.string	"1"
	.string	"6"
	.string	"9"
	.string	"5"
	.string	"0"
	.string	"-"
	.string	"c"
	.string	"o"
	.string	"m"
	.string	"p"
	.string	"a"
	.string	"t"
	.string	"i"
	.string	"b"
	.string	"l"
	.string	"e"
	.zero	2
	.section	.data.rel.local.PCIPIFClass_0700,"aw"
	.align	3
	.type	PCIPIFClass_0700, @object
	.size	PCIPIFClass_0700, 192
PCIPIFClass_0700:
	.byte	0
	.zero	7
	.dword	.LC161
	.dword	PCIBlankEntry
	.byte	1
	.zero	7
	.dword	.LC162
	.dword	PCIBlankEntry
	.byte	2
	.zero	7
	.dword	.LC163
	.dword	PCIBlankEntry
	.byte	3
	.zero	7
	.dword	.LC164
	.dword	PCIBlankEntry
	.byte	4
	.zero	7
	.dword	.LC165
	.dword	PCIBlankEntry
	.byte	5
	.zero	7
	.dword	.LC166
	.dword	PCIBlankEntry
	.byte	6
	.zero	7
	.dword	.LC167
	.dword	PCIBlankEntry
	.byte	0
	.zero	7
	.dword	0
	.dword	0
	.globl	PCIPIFClass_0701
	.section	.rodata
	.align	3
.LC168:
	.string	"B"
	.string	"i"
	.string	"-"
	.string	"d"
	.string	"i"
	.string	"r"
	.string	"e"
	.string	"c"
	.string	"t"
	.string	"i"
	.string	"o"
	.string	"n"
	.string	"a"
	.string	"l"
	.zero	2
	.align	3
.LC169:
	.string	"E"
	.string	"C"
	.string	"P"
	.string	" "
	.string	"1"
	.string	"."
	.string	"X"
	.string	"-"
	.string	"c"
	.string	"o"
	.string	"m"
	.string	"p"
	.string	"l"
	.string	"i"
	.string	"a"
	.string	"n"
	.string	"t"
	.zero	2
	.align	3
.LC170:
	.string	"I"
	.string	"E"
	.string	"E"
	.string	"E"
	.string	" "
	.string	"1"
	.string	"2"
	.string	"8"
	.string	"4"
	.zero	2
	.align	3
.LC171:
	.string	"I"
	.string	"E"
	.string	"E"
	.string	"E"
	.string	" "
	.string	"1"
	.string	"2"
	.string	"8"
	.string	"4"
	.string	" "
	.string	"t"
	.string	"a"
	.string	"r"
	.string	"g"
	.string	"e"
	.string	"t"
	.string	" "
	.string	"("
	.string	"n"
	.string	"o"
	.string	"t"
	.string	" "
	.string	"a"
	.string	" "
	.string	"c"
	.string	"o"
	.string	"n"
	.string	"t"
	.string	"r"
	.string	"o"
	.string	"l"
	.string	"l"
	.string	"e"
	.string	"r"
	.string	")"
	.zero	2
	.section	.data.rel.local.PCIPIFClass_0701,"aw"
	.align	3
	.type	PCIPIFClass_0701, @object
	.size	PCIPIFClass_0701, 144
PCIPIFClass_0701:
	.byte	0
	.zero	7
	.dword	.LC0
	.dword	PCIBlankEntry
	.byte	1
	.zero	7
	.dword	.LC168
	.dword	PCIBlankEntry
	.byte	2
	.zero	7
	.dword	.LC169
	.dword	PCIBlankEntry
	.byte	3
	.zero	7
	.dword	.LC170
	.dword	PCIBlankEntry
	.byte	-2
	.zero	7
	.dword	.LC171
	.dword	PCIBlankEntry
	.byte	0
	.zero	7
	.dword	0
	.dword	0
	.globl	PCIPIFClass_0703
	.section	.rodata
	.align	3
.LC172:
	.string	"G"
	.string	"e"
	.string	"n"
	.string	"e"
	.string	"r"
	.string	"i"
	.string	"c"
	.zero	2
	.align	3
.LC173:
	.string	"H"
	.string	"a"
	.string	"y"
	.string	"e"
	.string	"s"
	.string	"-"
	.string	"c"
	.string	"o"
	.string	"m"
	.string	"p"
	.string	"a"
	.string	"t"
	.string	"i"
	.string	"b"
	.string	"l"
	.string	"e"
	.string	" "
	.string	"1"
	.string	"6"
	.string	"4"
	.string	"5"
	.string	"0"
	.zero	2
	.align	3
.LC174:
	.string	"H"
	.string	"a"
	.string	"y"
	.string	"e"
	.string	"s"
	.string	"-"
	.string	"c"
	.string	"o"
	.string	"m"
	.string	"p"
	.string	"a"
	.string	"t"
	.string	"i"
	.string	"b"
	.string	"l"
	.string	"e"
	.string	" "
	.string	"1"
	.string	"6"
	.string	"5"
	.string	"5"
	.string	"0"
	.zero	2
	.align	3
.LC175:
	.string	"H"
	.string	"a"
	.string	"y"
	.string	"e"
	.string	"s"
	.string	"-"
	.string	"c"
	.string	"o"
	.string	"m"
	.string	"p"
	.string	"a"
	.string	"t"
	.string	"i"
	.string	"b"
	.string	"l"
	.string	"e"
	.string	" "
	.string	"1"
	.string	"6"
	.string	"6"
	.string	"5"
	.string	"0"
	.zero	2
	.align	3
.LC176:
	.string	"H"
	.string	"a"
	.string	"y"
	.string	"e"
	.string	"s"
	.string	"-"
	.string	"c"
	.string	"o"
	.string	"m"
	.string	"p"
	.string	"a"
	.string	"t"
	.string	"i"
	.string	"b"
	.string	"l"
	.string	"e"
	.string	" "
	.string	"1"
	.string	"6"
	.string	"7"
	.string	"5"
	.string	"0"
	.zero	2
	.section	.data.rel.local.PCIPIFClass_0703,"aw"
	.align	3
	.type	PCIPIFClass_0703, @object
	.size	PCIPIFClass_0703, 144
PCIPIFClass_0703:
	.byte	0
	.zero	7
	.dword	.LC172
	.dword	PCIBlankEntry
	.byte	1
	.zero	7
	.dword	.LC173
	.dword	PCIBlankEntry
	.byte	2
	.zero	7
	.dword	.LC174
	.dword	PCIBlankEntry
	.byte	3
	.zero	7
	.dword	.LC175
	.dword	PCIBlankEntry
	.byte	4
	.zero	7
	.dword	.LC176
	.dword	PCIBlankEntry
	.byte	0
	.zero	7
	.dword	0
	.dword	0
	.globl	PCIPIFClass_0800
	.section	.rodata
	.align	3
.LC177:
	.string	"G"
	.string	"e"
	.string	"n"
	.string	"e"
	.string	"r"
	.string	"i"
	.string	"c"
	.string	" "
	.string	"8"
	.string	"2"
	.string	"5"
	.string	"9"
	.zero	2
	.align	3
.LC178:
	.string	"I"
	.string	"S"
	.string	"A"
	.zero	2
	.align	3
.LC179:
	.string	"E"
	.string	"I"
	.string	"S"
	.string	"A"
	.zero	2
	.align	3
.LC180:
	.string	"I"
	.string	"O"
	.string	" "
	.string	"A"
	.string	"P"
	.string	"I"
	.string	"C"
	.zero	2
	.align	3
.LC181:
	.string	"I"
	.string	"O"
	.string	"("
	.string	"x"
	.string	")"
	.string	" "
	.string	"A"
	.string	"P"
	.string	"I"
	.string	"C"
	.string	" "
	.string	"i"
	.string	"n"
	.string	"t"
	.string	"e"
	.string	"r"
	.string	"r"
	.string	"u"
	.string	"p"
	.string	"t"
	.string	" "
	.string	"c"
	.string	"o"
	.string	"n"
	.string	"t"
	.string	"r"
	.string	"o"
	.string	"l"
	.string	"l"
	.string	"e"
	.string	"r"
	.zero	2
	.section	.data.rel.local.PCIPIFClass_0800,"aw"
	.align	3
	.type	PCIPIFClass_0800, @object
	.size	PCIPIFClass_0800, 144
PCIPIFClass_0800:
	.byte	0
	.zero	7
	.dword	.LC177
	.dword	PCIBlankEntry
	.byte	1
	.zero	7
	.dword	.LC178
	.dword	PCIBlankEntry
	.byte	2
	.zero	7
	.dword	.LC179
	.dword	PCIBlankEntry
	.byte	16
	.zero	7
	.dword	.LC180
	.dword	PCIBlankEntry
	.byte	32
	.zero	7
	.dword	.LC181
	.dword	PCIBlankEntry
	.byte	0
	.zero	7
	.dword	0
	.dword	0
	.globl	PCIPIFClass_0801
	.section	.rodata
	.align	3
.LC182:
	.string	"G"
	.string	"e"
	.string	"n"
	.string	"e"
	.string	"r"
	.string	"i"
	.string	"c"
	.string	" "
	.string	"8"
	.string	"2"
	.string	"3"
	.string	"7"
	.zero	2
	.section	.data.rel.local.PCIPIFClass_0801,"aw"
	.align	3
	.type	PCIPIFClass_0801, @object
	.size	PCIPIFClass_0801, 96
PCIPIFClass_0801:
	.byte	0
	.zero	7
	.dword	.LC182
	.dword	PCIBlankEntry
	.byte	1
	.zero	7
	.dword	.LC178
	.dword	PCIBlankEntry
	.byte	2
	.zero	7
	.dword	.LC179
	.dword	PCIBlankEntry
	.byte	0
	.zero	7
	.dword	0
	.dword	0
	.globl	PCIPIFClass_0802
	.section	.rodata
	.align	3
.LC183:
	.string	"G"
	.string	"e"
	.string	"n"
	.string	"e"
	.string	"r"
	.string	"i"
	.string	"c"
	.string	" "
	.string	"8"
	.string	"2"
	.string	"5"
	.string	"4"
	.zero	2
	.section	.data.rel.local.PCIPIFClass_0802,"aw"
	.align	3
	.type	PCIPIFClass_0802, @object
	.size	PCIPIFClass_0802, 96
PCIPIFClass_0802:
	.byte	0
	.zero	7
	.dword	.LC183
	.dword	PCIBlankEntry
	.byte	1
	.zero	7
	.dword	.LC178
	.dword	PCIBlankEntry
	.byte	2
	.zero	7
	.dword	.LC179
	.dword	PCIBlankEntry
	.byte	0
	.zero	7
	.dword	0
	.dword	0
	.globl	PCIPIFClass_0803
	.section	.data.rel.local.PCIPIFClass_0803,"aw"
	.align	3
	.type	PCIPIFClass_0803, @object
	.size	PCIPIFClass_0803, 96
PCIPIFClass_0803:
	.byte	0
	.zero	7
	.dword	.LC172
	.dword	PCIBlankEntry
	.byte	1
	.zero	7
	.dword	.LC178
	.dword	PCIBlankEntry
	.byte	2
	.zero	7
	.dword	.LC179
	.dword	PCIBlankEntry
	.byte	0
	.zero	7
	.dword	0
	.dword	0
	.globl	PCIPIFClass_0904
	.section	.data.rel.local.PCIPIFClass_0904,"aw"
	.align	3
	.type	PCIPIFClass_0904, @object
	.size	PCIPIFClass_0904, 72
PCIPIFClass_0904:
	.byte	0
	.zero	7
	.dword	.LC172
	.dword	PCIBlankEntry
	.byte	16
	.zero	7
	.dword	.LC0
	.dword	PCIBlankEntry
	.byte	0
	.zero	7
	.dword	0
	.dword	0
	.globl	PCIPIFClass_0c00
	.section	.rodata
	.align	3
.LC184:
	.string	"U"
	.string	"s"
	.string	"i"
	.string	"n"
	.string	"g"
	.string	" "
	.string	"1"
	.string	"3"
	.string	"9"
	.string	"4"
	.string	" "
	.string	"O"
	.string	"p"
	.string	"e"
	.string	"n"
	.string	"H"
	.string	"C"
	.string	"I"
	.string	" "
	.string	"s"
	.string	"p"
	.string	"e"
	.string	"c"
	.zero	2
	.section	.data.rel.local.PCIPIFClass_0c00,"aw"
	.align	3
	.type	PCIPIFClass_0c00, @object
	.size	PCIPIFClass_0c00, 72
PCIPIFClass_0c00:
	.byte	0
	.zero	7
	.dword	.LC0
	.dword	PCIBlankEntry
	.byte	16
	.zero	7
	.dword	.LC184
	.dword	PCIBlankEntry
	.byte	0
	.zero	7
	.dword	0
	.dword	0
	.globl	PCIPIFClass_0c03
	.section	.rodata
	.align	3
.LC185:
	.string	"U"
	.string	"H"
	.string	"C"
	.string	"I"
	.zero	2
	.align	3
.LC186:
	.string	"O"
	.string	"H"
	.string	"C"
	.string	"I"
	.zero	2
	.align	3
.LC187:
	.string	"E"
	.string	"H"
	.string	"C"
	.string	"I"
	.zero	2
	.align	3
.LC188:
	.string	"x"
	.string	"H"
	.string	"C"
	.string	"I"
	.zero	2
	.align	3
.LC189:
	.string	"N"
	.string	"o"
	.string	" "
	.string	"s"
	.string	"p"
	.string	"e"
	.string	"c"
	.string	"i"
	.string	"f"
	.string	"i"
	.string	"c"
	.string	" "
	.string	"p"
	.string	"r"
	.string	"o"
	.string	"g"
	.string	"r"
	.string	"a"
	.string	"m"
	.string	"m"
	.string	"i"
	.string	"n"
	.string	"g"
	.string	" "
	.string	"i"
	.string	"n"
	.string	"t"
	.string	"e"
	.string	"r"
	.string	"f"
	.string	"a"
	.string	"c"
	.string	"e"
	.zero	2
	.align	3
.LC190:
	.string	"("
	.string	"N"
	.string	"o"
	.string	"t"
	.string	" "
	.string	"H"
	.string	"o"
	.string	"s"
	.string	"t"
	.string	" "
	.string	"C"
	.string	"o"
	.string	"n"
	.string	"t"
	.string	"r"
	.string	"o"
	.string	"l"
	.string	"l"
	.string	"e"
	.string	"r"
	.string	")"
	.zero	2
	.section	.data.rel.local.PCIPIFClass_0c03,"aw"
	.align	3
	.type	PCIPIFClass_0c03, @object
	.size	PCIPIFClass_0c03, 168
PCIPIFClass_0c03:
	.byte	0
	.zero	7
	.dword	.LC185
	.dword	PCIBlankEntry
	.byte	16
	.zero	7
	.dword	.LC186
	.dword	PCIBlankEntry
	.byte	32
	.zero	7
	.dword	.LC187
	.dword	PCIBlankEntry
	.byte	48
	.zero	7
	.dword	.LC188
	.dword	PCIBlankEntry
	.byte	-128
	.zero	7
	.dword	.LC189
	.dword	PCIBlankEntry
	.byte	-2
	.zero	7
	.dword	.LC190
	.dword	PCIBlankEntry
	.byte	0
	.zero	7
	.dword	0
	.dword	0
	.globl	PCIPIFClass_0c07
	.section	.rodata
	.align	3
.LC191:
	.string	"S"
	.string	"M"
	.string	"I"
	.string	"C"
	.zero	2
	.align	3
.LC192:
	.string	"K"
	.string	"e"
	.string	"y"
	.string	"b"
	.string	"o"
	.string	"a"
	.string	"r"
	.string	"d"
	.string	" "
	.string	"C"
	.string	"o"
	.string	"n"
	.string	"t"
	.string	"r"
	.string	"o"
	.string	"l"
	.string	"l"
	.string	"e"
	.string	"r"
	.string	" "
	.string	"S"
	.string	"t"
	.string	"y"
	.string	"l"
	.string	"e"
	.zero	2
	.align	3
.LC193:
	.string	"B"
	.string	"l"
	.string	"o"
	.string	"c"
	.string	"k"
	.string	" "
	.string	"T"
	.string	"r"
	.string	"a"
	.string	"n"
	.string	"s"
	.string	"f"
	.string	"e"
	.string	"r"
	.zero	2
	.section	.data.rel.local.PCIPIFClass_0c07,"aw"
	.align	3
	.type	PCIPIFClass_0c07, @object
	.size	PCIPIFClass_0c07, 96
PCIPIFClass_0c07:
	.byte	0
	.zero	7
	.dword	.LC191
	.dword	PCIBlankEntry
	.byte	1
	.zero	7
	.dword	.LC192
	.dword	PCIBlankEntry
	.byte	2
	.zero	7
	.dword	.LC193
	.dword	PCIBlankEntry
	.byte	0
	.zero	7
	.dword	0
	.dword	0
	.globl	PCIPIFClass_0d01
	.section	.rodata
	.align	3
.LC194:
	.string	"C"
	.string	"o"
	.string	"n"
	.string	"s"
	.string	"u"
	.string	"m"
	.string	"e"
	.string	"r"
	.string	" "
	.string	"I"
	.string	"R"
	.string	" "
	.string	"c"
	.string	"o"
	.string	"n"
	.string	"t"
	.string	"r"
	.string	"o"
	.string	"l"
	.string	"l"
	.string	"e"
	.string	"r"
	.zero	2
	.align	3
.LC195:
	.string	"U"
	.string	"W"
	.string	"B"
	.string	" "
	.string	"R"
	.string	"a"
	.string	"d"
	.string	"i"
	.string	"o"
	.string	" "
	.string	"c"
	.string	"o"
	.string	"n"
	.string	"t"
	.string	"r"
	.string	"o"
	.string	"l"
	.string	"l"
	.string	"e"
	.string	"r"
	.zero	2
	.section	.data.rel.local.PCIPIFClass_0d01,"aw"
	.align	3
	.type	PCIPIFClass_0d01, @object
	.size	PCIPIFClass_0d01, 72
PCIPIFClass_0d01:
	.byte	0
	.zero	7
	.dword	.LC194
	.dword	PCIBlankEntry
	.byte	16
	.zero	7
	.dword	.LC195
	.dword	PCIBlankEntry
	.byte	0
	.zero	7
	.dword	0
	.dword	0
	.globl	PCIPIFClass_0e00
	.section	.rodata
	.align	3
.LC196:
	.string	"M"
	.string	"e"
	.string	"s"
	.string	"s"
	.string	"a"
	.string	"g"
	.string	"e"
	.string	" "
	.string	"F"
	.string	"I"
	.string	"F"
	.string	"O"
	.string	" "
	.string	"a"
	.string	"t"
	.string	" "
	.string	"o"
	.string	"f"
	.string	"f"
	.string	"s"
	.string	"e"
	.string	"t"
	.string	" "
	.string	"4"
	.string	"0"
	.string	"h"
	.zero	2
	.section	.data.rel.local.PCIPIFClass_0e00,"aw"
	.align	3
	.type	PCIPIFClass_0e00, @object
	.size	PCIPIFClass_0e00, 72
PCIPIFClass_0e00:
	.byte	0
	.zero	7
	.dword	.LC196
	.dword	PCIBlankEntry
	.byte	1
	.zero	7
	.dword	.LC0
	.dword	PCIBlankEntry
	.byte	0
	.zero	7
	.dword	0
	.dword	0
	.globl	gClassStringList
	.section	.rodata
	.align	3
.LC197:
	.string	"P"
	.string	"r"
	.string	"e"
	.string	" "
	.string	"2"
	.string	"."
	.string	"0"
	.string	" "
	.string	"d"
	.string	"e"
	.string	"v"
	.string	"i"
	.string	"c"
	.string	"e"
	.zero	2
	.align	3
.LC198:
	.string	"M"
	.string	"a"
	.string	"s"
	.string	"s"
	.string	" "
	.string	"S"
	.string	"t"
	.string	"o"
	.string	"r"
	.string	"a"
	.string	"g"
	.string	"e"
	.string	" "
	.string	"C"
	.string	"o"
	.string	"n"
	.string	"t"
	.string	"r"
	.string	"o"
	.string	"l"
	.string	"l"
	.string	"e"
	.string	"r"
	.zero	2
	.align	3
.LC199:
	.string	"N"
	.string	"e"
	.string	"t"
	.string	"w"
	.string	"o"
	.string	"r"
	.string	"k"
	.string	" "
	.string	"C"
	.string	"o"
	.string	"n"
	.string	"t"
	.string	"r"
	.string	"o"
	.string	"l"
	.string	"l"
	.string	"e"
	.string	"r"
	.zero	2
	.align	3
.LC200:
	.string	"D"
	.string	"i"
	.string	"s"
	.string	"p"
	.string	"l"
	.string	"a"
	.string	"y"
	.string	" "
	.string	"C"
	.string	"o"
	.string	"n"
	.string	"t"
	.string	"r"
	.string	"o"
	.string	"l"
	.string	"l"
	.string	"e"
	.string	"r"
	.zero	2
	.align	3
.LC201:
	.string	"M"
	.string	"u"
	.string	"l"
	.string	"t"
	.string	"i"
	.string	"m"
	.string	"e"
	.string	"d"
	.string	"i"
	.string	"a"
	.string	" "
	.string	"D"
	.string	"e"
	.string	"v"
	.string	"i"
	.string	"c"
	.string	"e"
	.zero	2
	.align	3
.LC202:
	.string	"M"
	.string	"e"
	.string	"m"
	.string	"o"
	.string	"r"
	.string	"y"
	.string	" "
	.string	"C"
	.string	"o"
	.string	"n"
	.string	"t"
	.string	"r"
	.string	"o"
	.string	"l"
	.string	"l"
	.string	"e"
	.string	"r"
	.zero	2
	.align	3
.LC203:
	.string	"B"
	.string	"r"
	.string	"i"
	.string	"d"
	.string	"g"
	.string	"e"
	.string	" "
	.string	"D"
	.string	"e"
	.string	"v"
	.string	"i"
	.string	"c"
	.string	"e"
	.zero	2
	.align	3
.LC204:
	.string	"S"
	.string	"i"
	.string	"m"
	.string	"p"
	.string	"l"
	.string	"e"
	.string	" "
	.string	"C"
	.string	"o"
	.string	"m"
	.string	"m"
	.string	"u"
	.string	"n"
	.string	"i"
	.string	"c"
	.string	"a"
	.string	"t"
	.string	"i"
	.string	"o"
	.string	"n"
	.string	"s"
	.string	" "
	.string	"C"
	.string	"o"
	.string	"n"
	.string	"t"
	.string	"r"
	.string	"o"
	.string	"l"
	.string	"l"
	.string	"e"
	.string	"r"
	.string	"s"
	.zero	2
	.align	3
.LC205:
	.string	"B"
	.string	"a"
	.string	"s"
	.string	"e"
	.string	" "
	.string	"S"
	.string	"y"
	.string	"s"
	.string	"t"
	.string	"e"
	.string	"m"
	.string	" "
	.string	"P"
	.string	"e"
	.string	"r"
	.string	"i"
	.string	"p"
	.string	"h"
	.string	"e"
	.string	"r"
	.string	"a"
	.string	"l"
	.string	"s"
	.zero	2
	.align	3
.LC206:
	.string	"I"
	.string	"n"
	.string	"p"
	.string	"u"
	.string	"t"
	.string	" "
	.string	"D"
	.string	"e"
	.string	"v"
	.string	"i"
	.string	"c"
	.string	"e"
	.string	"s"
	.zero	2
	.align	3
.LC207:
	.string	"D"
	.string	"o"
	.string	"c"
	.string	"k"
	.string	"i"
	.string	"n"
	.string	"g"
	.string	" "
	.string	"S"
	.string	"t"
	.string	"a"
	.string	"t"
	.string	"i"
	.string	"o"
	.string	"n"
	.string	"s"
	.zero	2
	.align	3
.LC208:
	.string	"P"
	.string	"r"
	.string	"o"
	.string	"c"
	.string	"e"
	.string	"s"
	.string	"s"
	.string	"o"
	.string	"r"
	.string	"s"
	.zero	2
	.align	3
.LC209:
	.string	"S"
	.string	"e"
	.string	"r"
	.string	"i"
	.string	"a"
	.string	"l"
	.string	" "
	.string	"B"
	.string	"u"
	.string	"s"
	.string	" "
	.string	"C"
	.string	"o"
	.string	"n"
	.string	"t"
	.string	"r"
	.string	"o"
	.string	"l"
	.string	"l"
	.string	"e"
	.string	"r"
	.string	"s"
	.zero	2
	.align	3
.LC210:
	.string	"W"
	.string	"i"
	.string	"r"
	.string	"e"
	.string	"l"
	.string	"e"
	.string	"s"
	.string	"s"
	.string	" "
	.string	"C"
	.string	"o"
	.string	"n"
	.string	"t"
	.string	"r"
	.string	"o"
	.string	"l"
	.string	"l"
	.string	"e"
	.string	"r"
	.string	"s"
	.zero	2
	.align	3
.LC211:
	.string	"I"
	.string	"n"
	.string	"t"
	.string	"e"
	.string	"l"
	.string	"l"
	.string	"i"
	.string	"g"
	.string	"e"
	.string	"n"
	.string	"t"
	.string	" "
	.string	"I"
	.string	"O"
	.string	" "
	.string	"C"
	.string	"o"
	.string	"n"
	.string	"t"
	.string	"r"
	.string	"o"
	.string	"l"
	.string	"l"
	.string	"e"
	.string	"r"
	.string	"s"
	.zero	2
	.align	3
.LC212:
	.string	"S"
	.string	"a"
	.string	"t"
	.string	"e"
	.string	"l"
	.string	"l"
	.string	"i"
	.string	"t"
	.string	"e"
	.string	" "
	.string	"C"
	.string	"o"
	.string	"m"
	.string	"m"
	.string	"u"
	.string	"n"
	.string	"i"
	.string	"c"
	.string	"a"
	.string	"t"
	.string	"i"
	.string	"o"
	.string	"n"
	.string	"s"
	.string	" "
	.string	"C"
	.string	"o"
	.string	"n"
	.string	"t"
	.string	"r"
	.string	"o"
	.string	"l"
	.string	"l"
	.string	"e"
	.string	"r"
	.string	"s"
	.zero	2
	.align	3
.LC213:
	.string	"E"
	.string	"n"
	.string	"c"
	.string	"r"
	.string	"y"
	.string	"p"
	.string	"t"
	.string	"i"
	.string	"o"
	.string	"n"
	.string	"/"
	.string	"D"
	.string	"e"
	.string	"c"
	.string	"r"
	.string	"y"
	.string	"p"
	.string	"t"
	.string	"i"
	.string	"o"
	.string	"n"
	.string	" "
	.string	"C"
	.string	"o"
	.string	"n"
	.string	"t"
	.string	"r"
	.string	"o"
	.string	"l"
	.string	"l"
	.string	"e"
	.string	"r"
	.string	"s"
	.zero	2
	.align	3
.LC214:
	.string	"D"
	.string	"a"
	.string	"t"
	.string	"a"
	.string	" "
	.string	"A"
	.string	"c"
	.string	"q"
	.string	"u"
	.string	"i"
	.string	"s"
	.string	"i"
	.string	"t"
	.string	"i"
	.string	"o"
	.string	"n"
	.string	" "
	.string	"&"
	.string	" "
	.string	"S"
	.string	"i"
	.string	"g"
	.string	"n"
	.string	"a"
	.string	"l"
	.string	" "
	.string	"P"
	.string	"r"
	.string	"o"
	.string	"c"
	.string	"e"
	.string	"s"
	.string	"s"
	.string	"i"
	.string	"n"
	.string	"g"
	.string	" "
	.string	"C"
	.string	"o"
	.string	"n"
	.string	"t"
	.string	"r"
	.string	"o"
	.string	"l"
	.string	"l"
	.string	"e"
	.string	"r"
	.string	"s"
	.zero	2
	.align	3
.LC215:
	.string	"P"
	.string	"r"
	.string	"o"
	.string	"c"
	.string	"e"
	.string	"s"
	.string	"s"
	.string	"i"
	.string	"n"
	.string	"g"
	.string	" "
	.string	"A"
	.string	"c"
	.string	"c"
	.string	"e"
	.string	"l"
	.string	"e"
	.string	"r"
	.string	"a"
	.string	"t"
	.string	"o"
	.string	"r"
	.string	"s"
	.zero	2
	.align	3
.LC216:
	.string	"N"
	.string	"o"
	.string	"n"
	.string	"-"
	.string	"E"
	.string	"s"
	.string	"s"
	.string	"e"
	.string	"n"
	.string	"t"
	.string	"i"
	.string	"a"
	.string	"l"
	.string	" "
	.string	"I"
	.string	"n"
	.string	"s"
	.string	"t"
	.string	"r"
	.string	"u"
	.string	"m"
	.string	"e"
	.string	"n"
	.string	"t"
	.string	"a"
	.string	"t"
	.string	"i"
	.string	"o"
	.string	"n"
	.zero	2
	.align	3
.LC217:
	.string	"D"
	.string	"e"
	.string	"v"
	.string	"i"
	.string	"c"
	.string	"e"
	.string	" "
	.string	"d"
	.string	"o"
	.string	"e"
	.string	"s"
	.string	" "
	.string	"n"
	.string	"o"
	.string	"t"
	.string	" "
	.string	"f"
	.string	"i"
	.string	"t"
	.string	" "
	.string	"i"
	.string	"n"
	.string	" "
	.string	"a"
	.string	"n"
	.string	"y"
	.string	" "
	.string	"d"
	.string	"e"
	.string	"f"
	.string	"i"
	.string	"n"
	.string	"e"
	.string	"d"
	.string	" "
	.string	"c"
	.string	"l"
	.string	"a"
	.string	"s"
	.string	"s"
	.string	"e"
	.string	"s"
	.zero	2
	.section	.data.rel.local.gClassStringList,"aw"
	.align	3
	.type	gClassStringList, @object
	.size	gClassStringList, 528
gClassStringList:
	.byte	0
	.zero	7
	.dword	.LC197
	.dword	PCISubClass_00
	.byte	1
	.zero	7
	.dword	.LC198
	.dword	PCISubClass_01
	.byte	2
	.zero	7
	.dword	.LC199
	.dword	PCISubClass_02
	.byte	3
	.zero	7
	.dword	.LC200
	.dword	PCISubClass_03
	.byte	4
	.zero	7
	.dword	.LC201
	.dword	PCISubClass_04
	.byte	5
	.zero	7
	.dword	.LC202
	.dword	PCISubClass_05
	.byte	6
	.zero	7
	.dword	.LC203
	.dword	PCISubClass_06
	.byte	7
	.zero	7
	.dword	.LC204
	.dword	PCISubClass_07
	.byte	8
	.zero	7
	.dword	.LC205
	.dword	PCISubClass_08
	.byte	9
	.zero	7
	.dword	.LC206
	.dword	PCISubClass_09
	.byte	10
	.zero	7
	.dword	.LC207
	.dword	PCISubClass_0a
	.byte	11
	.zero	7
	.dword	.LC208
	.dword	PCISubClass_0b
	.byte	12
	.zero	7
	.dword	.LC209
	.dword	PCISubClass_0c
	.byte	13
	.zero	7
	.dword	.LC210
	.dword	PCISubClass_0d
	.byte	14
	.zero	7
	.dword	.LC211
	.dword	PCISubClass_0e
	.byte	15
	.zero	7
	.dword	.LC212
	.dword	PCISubClass_0f
	.byte	16
	.zero	7
	.dword	.LC213
	.dword	PCISubClass_10
	.byte	17
	.zero	7
	.dword	.LC214
	.dword	PCISubClass_11
	.byte	18
	.zero	7
	.dword	.LC215
	.dword	PCISubClass_12
	.byte	19
	.zero	7
	.dword	.LC216
	.dword	PCISubClass_13
	.byte	-1
	.zero	7
	.dword	.LC217
	.dword	PCIBlankEntry
	.byte	0
	.zero	7
	.dword	0
	.dword	0
	.section	.rodata
	.align	3
.LC218:
	.string	"U"
	.string	"N"
	.string	"D"
	.string	"E"
	.string	"F"
	.string	"I"
	.string	"N"
	.string	"E"
	.string	"D"
	.zero	2
	.section	.text.PciGetClassStrings,"ax",@progbits
	.align	1
	.globl	PciGetClassStrings
	.type	PciGetClassStrings, @function
PciGetClassStrings:
.LFB0:
	.file 1 "/home/kapoagaeming/Downloads/spacemit-image-builder/components/edk2/ShellPkg/Library/UefiShellDebug1CommandsLib/Pci.c"
	.loc 1 1688 1
	.cfi_startproc
	addi	sp,sp,-64
	.cfi_def_cfa_offset 64
	sd	ra,56(sp)
	sd	s0,48(sp)
	.cfi_offset 1, -8
	.cfi_offset 8, -16
	addi	s0,sp,64
	.cfi_def_cfa 8, 0
	mv	a5,a0
	sd	a1,-64(s0)
	sw	a5,-52(s0)
	.loc 1 1696 27
	ld	a5,-64(s0)
	lla	a4,.LC218
	sd	a4,0(a5)
	.loc 1 1697 26
	ld	a5,-64(s0)
	lla	a4,.LC218
	sd	a4,8(a5)
	.loc 1 1698 26
	ld	a5,-64(s0)
	lla	a4,.LC218
	sd	a4,16(a5)
	.loc 1 1700 16
	lla	a5,gClassStringList
	sd	a5,-32(s0)
	.loc 1 1701 28
	lw	a5,-52(s0)
	srliw	a5,a5,16
	sext.w	a5,a5
	.loc 1 1701 8
	sb	a5,-33(s0)
	.loc 1 1702 9
	sd	zero,-24(s0)
	.loc 1 1710 9
	j	.L2
.L5:
	.loc 1 1711 37
	ld	a4,-24(s0)
	mv	a5,a4
	slli	a5,a5,1
	add	a5,a5,a4
	slli	a5,a5,3
	mv	a4,a5
	ld	a5,-32(s0)
	add	a5,a5,a4
	.loc 1 1711 44
	ld	a5,8(a5)
	.loc 1 1711 8
	beq	a5,zero,.L14
	.loc 1 1715 10
	ld	a5,-24(s0)
	addi	a5,a5,1
	sd	a5,-24(s0)
.L2:
	.loc 1 1710 30
	ld	a4,-24(s0)
	mv	a5,a4
	slli	a5,a5,1
	add	a5,a5,a4
	slli	a5,a5,3
	mv	a4,a5
	ld	a5,-32(s0)
	add	a5,a5,a4
	.loc 1 1710 37
	lbu	a4,0(a5)
	.loc 1 1710 15
	lbu	a5,-33(s0)
	andi	a5,a5,0xff
	bne	a5,a4,.L5
	.loc 1 1723 41
	ld	a4,-24(s0)
	mv	a5,a4
	slli	a5,a5,1
	add	a5,a5,a4
	slli	a5,a5,3
	mv	a4,a5
	ld	a5,-32(s0)
	add	a5,a5,a4
	.loc 1 1723 48
	ld	a4,8(a5)
	.loc 1 1723 27
	ld	a5,-64(s0)
	sd	a4,0(a5)
	.loc 1 1724 35
	ld	a4,-24(s0)
	mv	a5,a4
	slli	a5,a5,1
	add	a5,a5,a4
	slli	a5,a5,3
	mv	a4,a5
	ld	a5,-32(s0)
	add	a5,a5,a4
	.loc 1 1724 42
	ld	a5,16(a5)
	.loc 1 1724 6
	beq	a5,zero,.L15
	.loc 1 1731 30
	ld	a4,-24(s0)
	mv	a5,a4
	slli	a5,a5,1
	add	a5,a5,a4
	slli	a5,a5,3
	mv	a4,a5
	ld	a5,-32(s0)
	add	a5,a5,a4
	.loc 1 1731 16
	ld	a5,16(a5)
	sd	a5,-32(s0)
	.loc 1 1732 28
	lw	a5,-52(s0)
	srliw	a5,a5,8
	sext.w	a5,a5
	.loc 1 1732 8
	sb	a5,-33(s0)
	.loc 1 1733 9
	sd	zero,-24(s0)
	.loc 1 1741 9
	j	.L7
.L9:
	.loc 1 1742 37
	ld	a4,-24(s0)
	mv	a5,a4
	slli	a5,a5,1
	add	a5,a5,a4
	slli	a5,a5,3
	mv	a4,a5
	ld	a5,-32(s0)
	add	a5,a5,a4
	.loc 1 1742 44
	ld	a5,8(a5)
	.loc 1 1742 8
	beq	a5,zero,.L16
	.loc 1 1746 10
	ld	a5,-24(s0)
	addi	a5,a5,1
	sd	a5,-24(s0)
.L7:
	.loc 1 1741 30
	ld	a4,-24(s0)
	mv	a5,a4
	slli	a5,a5,1
	add	a5,a5,a4
	slli	a5,a5,3
	mv	a4,a5
	ld	a5,-32(s0)
	add	a5,a5,a4
	.loc 1 1741 37
	lbu	a4,0(a5)
	.loc 1 1741 15
	lbu	a5,-33(s0)
	andi	a5,a5,0xff
	bne	a5,a4,.L9
	.loc 1 1755 40
	ld	a4,-24(s0)
	mv	a5,a4
	slli	a5,a5,1
	add	a5,a5,a4
	slli	a5,a5,3
	mv	a4,a5
	ld	a5,-32(s0)
	add	a5,a5,a4
	.loc 1 1755 47
	ld	a4,8(a5)
	.loc 1 1755 26
	ld	a5,-64(s0)
	sd	a4,8(a5)
	.loc 1 1756 35
	ld	a4,-24(s0)
	mv	a5,a4
	slli	a5,a5,1
	add	a5,a5,a4
	slli	a5,a5,3
	mv	a4,a5
	ld	a5,-32(s0)
	add	a5,a5,a4
	.loc 1 1756 42
	ld	a5,16(a5)
	.loc 1 1756 6
	beq	a5,zero,.L17
	.loc 1 1763 30
	ld	a4,-24(s0)
	mv	a5,a4
	slli	a5,a5,1
	add	a5,a5,a4
	slli	a5,a5,3
	mv	a4,a5
	ld	a5,-32(s0)
	add	a5,a5,a4
	.loc 1 1763 16
	ld	a5,16(a5)
	sd	a5,-32(s0)
	.loc 1 1764 8
	lw	a5,-52(s0)
	sb	a5,-33(s0)
	.loc 1 1765 9
	sd	zero,-24(s0)
	.loc 1 1773 9
	j	.L11
.L13:
	.loc 1 1774 37
	ld	a4,-24(s0)
	mv	a5,a4
	slli	a5,a5,1
	add	a5,a5,a4
	slli	a5,a5,3
	mv	a4,a5
	ld	a5,-32(s0)
	add	a5,a5,a4
	.loc 1 1774 44
	ld	a5,8(a5)
	.loc 1 1774 8
	beq	a5,zero,.L18
	.loc 1 1778 10
	ld	a5,-24(s0)
	addi	a5,a5,1
	sd	a5,-24(s0)
.L11:
	.loc 1 1773 30
	ld	a4,-24(s0)
	mv	a5,a4
	slli	a5,a5,1
	add	a5,a5,a4
	slli	a5,a5,3
	mv	a4,a5
	ld	a5,-32(s0)
	add	a5,a5,a4
	.loc 1 1773 37
	lbu	a4,0(a5)
	.loc 1 1773 15
	lbu	a5,-33(s0)
	andi	a5,a5,0xff
	bne	a5,a4,.L13
	.loc 1 1784 40
	ld	a4,-24(s0)
	mv	a5,a4
	slli	a5,a5,1
	add	a5,a5,a4
	slli	a5,a5,3
	mv	a4,a5
	ld	a5,-32(s0)
	add	a5,a5,a4
	.loc 1 1784 47
	ld	a4,8(a5)
	.loc 1 1784 26
	ld	a5,-64(s0)
	sd	a4,16(a5)
	.loc 1 1785 3
	j	.L1
.L14:
	.loc 1 1712 7
	nop
	j	.L1
.L15:
	.loc 1 1725 5
	nop
	j	.L1
.L16:
	.loc 1 1743 7
	nop
	j	.L1
.L17:
	.loc 1 1757 5
	nop
	j	.L1
.L18:
	.loc 1 1775 7
	nop
.L1:
	.loc 1 1786 1
	ld	ra,56(sp)
	.cfi_restore 1
	ld	s0,48(sp)
	.cfi_restore 8
	.cfi_def_cfa 2, 64
	addi	sp,sp,64
	.cfi_def_cfa_offset 0
	jr	ra
	.cfi_endproc
.LFE0:
	.size	PciGetClassStrings, .-PciGetClassStrings
	.section	.rodata
	.align	3
.LC219:
	.string	"%"
	.string	"s"
	.string	" "
	.string	"-"
	.string	" "
	.string	"%"
	.string	"s"
	.string	" "
	.string	"-"
	.string	" "
	.string	"%"
	.string	"s"
	.zero	2
	.align	3
.LC220:
	.string	"%"
	.string	"s"
	.string	" "
	.string	"-"
	.string	" "
	.string	"%"
	.string	"s"
	.zero	2
	.section	.text.PciPrintClassCode,"ax",@progbits
	.align	1
	.globl	PciPrintClassCode
	.type	PciPrintClassCode, @function
PciPrintClassCode:
.LFB1:
	.loc 1 1800 1
	.cfi_startproc
	addi	sp,sp,-64
	.cfi_def_cfa_offset 64
	sd	ra,56(sp)
	sd	s0,48(sp)
	.cfi_offset 1, -8
	.cfi_offset 8, -16
	addi	s0,sp,64
	.cfi_def_cfa 8, 0
	sd	a0,-56(s0)
	mv	a5,a1
	sb	a5,-57(s0)
	.loc 1 1804 13
	sw	zero,-20(s0)
	.loc 1 1805 36
	ld	a5,-56(s0)
	lbu	a5,0(a5)
	.loc 1 1805 16
	sext.w	a5,a5
	.loc 1 1805 13
	lw	a4,-20(s0)
	or	a5,a4,a5
	sw	a5,-20(s0)
	.loc 1 1806 37
	ld	a5,-56(s0)
	addi	a5,a5,1
	lbu	a5,0(a5)
	.loc 1 1806 16
	sext.w	a5,a5
	slliw	a5,a5,8
	sext.w	a5,a5
	.loc 1 1806 13
	lw	a4,-20(s0)
	or	a5,a4,a5
	sw	a5,-20(s0)
	.loc 1 1807 37
	ld	a5,-56(s0)
	addi	a5,a5,2
	lbu	a5,0(a5)
	.loc 1 1807 16
	sext.w	a5,a5
	slliw	a5,a5,16
	sext.w	a5,a5
	.loc 1 1807 13
	lw	a4,-20(s0)
	or	a5,a4,a5
	sw	a5,-20(s0)
	.loc 1 1812 3
	addi	a4,s0,-48
	lw	a5,-20(s0)
	mv	a1,a4
	mv	a0,a5
	call	PciGetClassStrings
	.loc 1 1814 6
	lbu	a5,-57(s0)
	andi	a5,a5,0xff
	beq	a5,zero,.L20
	.loc 1 1818 5
	ld	a3,-48(s0)
	ld	a4,-40(s0)
	ld	a5,-32(s0)
	lla	a2,.LC219
	li	a1,-1
	li	a0,-1
	call	ShellPrintEx@plt
	.loc 1 1838 1
	j	.L22
.L20:
	.loc 1 1830 5
	ld	a5,-48(s0)
	ld	a4,-40(s0)
	mv	a3,a5
	lla	a2,.LC220
	li	a1,-1
	li	a0,-1
	call	ShellPrintEx@plt
.L22:
	.loc 1 1838 1
	nop
	ld	ra,56(sp)
	.cfi_restore 1
	ld	s0,48(sp)
	.cfi_restore 8
	.cfi_def_cfa 2, 64
	addi	sp,sp,64
	.cfi_def_cfa_offset 0
	jr	ra
	.cfi_endproc
.LFE1:
	.size	PciPrintClassCode, .-PciPrintClassCode
	.globl	PcieExplainList
	.section	.data.rel.local.PcieExplainList,"aw"
	.align	3
	.type	PcieExplainList, @object
	.size	PcieExplainList, 640
PcieExplainList:
	.half	641
	.zero	6
	.dword	0
	.word	0
	.zero	4
	.dword	0
	.word	0
	.zero	4
	.half	642
	.zero	6
	.dword	1
	.word	0
	.zero	4
	.dword	0
	.word	0
	.zero	4
	.half	643
	.zero	6
	.dword	2
	.word	1
	.zero	4
	.dword	ExplainPcieCapReg
	.word	0
	.zero	4
	.half	644
	.zero	6
	.dword	4
	.word	2
	.zero	4
	.dword	ExplainPcieDeviceCap
	.word	1
	.zero	4
	.half	645
	.zero	6
	.dword	8
	.word	1
	.zero	4
	.dword	ExplainPcieDeviceControl
	.word	1
	.zero	4
	.half	646
	.zero	6
	.dword	10
	.word	1
	.zero	4
	.dword	ExplainPcieDeviceStatus
	.word	1
	.zero	4
	.half	647
	.zero	6
	.dword	12
	.word	2
	.zero	4
	.dword	ExplainPcieLinkCap
	.word	2
	.zero	4
	.half	648
	.zero	6
	.dword	16
	.word	1
	.zero	4
	.dword	ExplainPcieLinkControl
	.word	2
	.zero	4
	.half	649
	.zero	6
	.dword	18
	.word	1
	.zero	4
	.dword	ExplainPcieLinkStatus
	.word	2
	.zero	4
	.half	650
	.zero	6
	.dword	20
	.word	2
	.zero	4
	.dword	ExplainPcieSlotCap
	.word	3
	.zero	4
	.half	651
	.zero	6
	.dword	24
	.word	1
	.zero	4
	.dword	ExplainPcieSlotControl
	.word	3
	.zero	4
	.half	652
	.zero	6
	.dword	26
	.word	1
	.zero	4
	.dword	ExplainPcieSlotStatus
	.word	3
	.zero	4
	.half	653
	.zero	6
	.dword	28
	.word	1
	.zero	4
	.dword	ExplainPcieRootControl
	.word	4
	.zero	4
	.half	654
	.zero	6
	.dword	30
	.word	1
	.zero	4
	.dword	ExplainPcieRootCap
	.word	4
	.zero	4
	.half	655
	.zero	6
	.dword	32
	.word	2
	.zero	4
	.dword	ExplainPcieRootStatus
	.word	4
	.zero	4
	.half	0
	.zero	6
	.dword	0
	.word	0
	.zero	4
	.dword	0
	.word	5
	.zero	4
	.globl	mConfigSpace
	.section	.bss.mConfigSpace,"aw",@nobits
	.align	3
	.type	mConfigSpace, @object
	.size	mConfigSpace, 8
mConfigSpace:
	.zero	8
	.section	.rodata
	.align	3
.LC221:
	.string	"-"
	.string	"s"
	.zero	2
	.align	3
.LC222:
	.string	"-"
	.string	"i"
	.zero	2
	.align	3
.LC223:
	.string	"-"
	.string	"e"
	.string	"c"
	.zero	2
	.section	.data.rel.ro.local.ParamList,"aw"
	.align	3
	.type	ParamList, @object
	.size	ParamList, 64
ParamList:
	.dword	.LC221
	.word	1
	.zero	4
	.dword	.LC222
	.word	0
	.zero	4
	.dword	.LC223
	.word	1
	.zero	4
	.dword	0
	.word	7
	.zero	4
	.globl	DevicePortTypeTable
	.section	.rodata
	.align	3
.LC224:
	.string	"P"
	.string	"C"
	.string	"I"
	.string	" "
	.string	"E"
	.string	"x"
	.string	"p"
	.string	"r"
	.string	"e"
	.string	"s"
	.string	"s"
	.string	" "
	.string	"E"
	.string	"n"
	.string	"d"
	.string	"p"
	.string	"o"
	.string	"i"
	.string	"n"
	.string	"t"
	.zero	2
	.align	3
.LC225:
	.string	"L"
	.string	"e"
	.string	"g"
	.string	"a"
	.string	"c"
	.string	"y"
	.string	" "
	.string	"P"
	.string	"C"
	.string	"I"
	.string	" "
	.string	"E"
	.string	"x"
	.string	"p"
	.string	"r"
	.string	"e"
	.string	"s"
	.string	"s"
	.string	" "
	.string	"E"
	.string	"n"
	.string	"d"
	.string	"p"
	.string	"o"
	.string	"i"
	.string	"n"
	.string	"t"
	.zero	2
	.align	3
.LC226:
	.string	"U"
	.string	"n"
	.string	"k"
	.string	"n"
	.string	"o"
	.string	"w"
	.string	"n"
	.string	" "
	.string	"T"
	.string	"y"
	.string	"p"
	.string	"e"
	.zero	2
	.align	3
.LC227:
	.string	"U"
	.string	"n"
	.string	"k"
	.string	"n"
	.string	"o"
	.string	"n"
	.string	"w"
	.string	" "
	.string	"T"
	.string	"y"
	.string	"p"
	.string	"e"
	.zero	2
	.align	3
.LC228:
	.string	"R"
	.string	"o"
	.string	"o"
	.string	"t"
	.string	" "
	.string	"P"
	.string	"o"
	.string	"r"
	.string	"t"
	.string	" "
	.string	"o"
	.string	"f"
	.string	" "
	.string	"P"
	.string	"C"
	.string	"I"
	.string	" "
	.string	"E"
	.string	"x"
	.string	"p"
	.string	"r"
	.string	"e"
	.string	"s"
	.string	"s"
	.string	" "
	.string	"R"
	.string	"o"
	.string	"o"
	.string	"t"
	.string	" "
	.string	"C"
	.string	"o"
	.string	"m"
	.string	"p"
	.string	"l"
	.string	"e"
	.string	"x"
	.zero	2
	.align	3
.LC229:
	.string	"U"
	.string	"p"
	.string	"s"
	.string	"t"
	.string	"r"
	.string	"e"
	.string	"a"
	.string	"m"
	.string	" "
	.string	"P"
	.string	"o"
	.string	"r"
	.string	"t"
	.string	" "
	.string	"o"
	.string	"f"
	.string	" "
	.string	"P"
	.string	"C"
	.string	"I"
	.string	" "
	.string	"E"
	.string	"x"
	.string	"p"
	.string	"r"
	.string	"e"
	.string	"s"
	.string	"s"
	.string	" "
	.string	"S"
	.string	"w"
	.string	"i"
	.string	"t"
	.string	"c"
	.string	"h"
	.zero	2
	.align	3
.LC230:
	.string	"D"
	.string	"o"
	.string	"w"
	.string	"n"
	.string	"s"
	.string	"t"
	.string	"r"
	.string	"e"
	.string	"a"
	.string	"m"
	.string	" "
	.string	"P"
	.string	"o"
	.string	"r"
	.string	"t"
	.string	" "
	.string	"o"
	.string	"f"
	.string	" "
	.string	"P"
	.string	"C"
	.string	"I"
	.string	" "
	.string	"E"
	.string	"x"
	.string	"p"
	.string	"r"
	.string	"e"
	.string	"s"
	.string	"s"
	.string	" "
	.string	"S"
	.string	"w"
	.string	"i"
	.string	"t"
	.string	"c"
	.string	"h"
	.zero	2
	.align	3
.LC231:
	.string	"P"
	.string	"C"
	.string	"I"
	.string	" "
	.string	"E"
	.string	"x"
	.string	"p"
	.string	"r"
	.string	"e"
	.string	"s"
	.string	"s"
	.string	" "
	.string	"t"
	.string	"o"
	.string	" "
	.string	"P"
	.string	"C"
	.string	"I"
	.string	"/"
	.string	"P"
	.string	"C"
	.string	"I"
	.string	"-"
	.string	"X"
	.string	" "
	.string	"B"
	.string	"r"
	.string	"i"
	.string	"d"
	.string	"g"
	.string	"e"
	.zero	2
	.align	3
.LC232:
	.string	"P"
	.string	"C"
	.string	"I"
	.string	"/"
	.string	"P"
	.string	"C"
	.string	"I"
	.string	"-"
	.string	"X"
	.string	" "
	.string	"t"
	.string	"o"
	.string	" "
	.string	"P"
	.string	"C"
	.string	"I"
	.string	" "
	.string	"E"
	.string	"x"
	.string	"p"
	.string	"r"
	.string	"e"
	.string	"s"
	.string	"s"
	.string	" "
	.string	"B"
	.string	"r"
	.string	"i"
	.string	"d"
	.string	"g"
	.string	"e"
	.zero	2
	.align	3
.LC233:
	.string	"R"
	.string	"o"
	.string	"o"
	.string	"t"
	.string	" "
	.string	"C"
	.string	"o"
	.string	"m"
	.string	"p"
	.string	"l"
	.string	"e"
	.string	"x"
	.string	" "
	.string	"I"
	.string	"n"
	.string	"t"
	.string	"e"
	.string	"g"
	.string	"r"
	.string	"a"
	.string	"t"
	.string	"e"
	.string	"d"
	.string	" "
	.string	"E"
	.string	"n"
	.string	"d"
	.string	"p"
	.string	"o"
	.string	"i"
	.string	"n"
	.string	"t"
	.zero	2
	.section	.data.rel.local.DevicePortTypeTable,"aw"
	.align	3
	.type	DevicePortTypeTable, @object
	.size	DevicePortTypeTable, 88
DevicePortTypeTable:
	.dword	.LC224
	.dword	.LC225
	.dword	.LC226
	.dword	.LC227
	.dword	.LC228
	.dword	.LC229
	.dword	.LC230
	.dword	.LC231
	.dword	.LC232
	.dword	.LC233
	.dword	.LC62
	.globl	L0sLatencyStrTable
	.section	.rodata
	.align	3
.LC234:
	.string	"L"
	.string	"e"
	.string	"s"
	.string	"s"
	.string	" "
	.string	"t"
	.string	"h"
	.string	"a"
	.string	"n"
	.string	" "
	.string	"6"
	.string	"4"
	.string	"n"
	.string	"s"
	.zero	2
	.align	3
.LC235:
	.string	"6"
	.string	"4"
	.string	"n"
	.string	"s"
	.string	" "
	.string	"t"
	.string	"o"
	.string	" "
	.string	"l"
	.string	"e"
	.string	"s"
	.string	"s"
	.string	" "
	.string	"t"
	.string	"h"
	.string	"a"
	.string	"n"
	.string	" "
	.string	"1"
	.string	"2"
	.string	"8"
	.string	"n"
	.string	"s"
	.zero	2
	.align	3
.LC236:
	.string	"1"
	.string	"2"
	.string	"8"
	.string	"n"
	.string	"s"
	.string	" "
	.string	"t"
	.string	"o"
	.string	" "
	.string	"l"
	.string	"e"
	.string	"s"
	.string	"s"
	.string	" "
	.string	"t"
	.string	"h"
	.string	"a"
	.string	"n"
	.string	" "
	.string	"2"
	.string	"5"
	.string	"6"
	.string	"n"
	.string	"s"
	.zero	2
	.align	3
.LC237:
	.string	"2"
	.string	"5"
	.string	"6"
	.string	"n"
	.string	"s"
	.string	" "
	.string	"t"
	.string	"o"
	.string	" "
	.string	"l"
	.string	"e"
	.string	"s"
	.string	"s"
	.string	" "
	.string	"t"
	.string	"h"
	.string	"a"
	.string	"n"
	.string	" "
	.string	"5"
	.string	"1"
	.string	"2"
	.string	"n"
	.string	"s"
	.zero	2
	.align	3
.LC238:
	.string	"5"
	.string	"1"
	.string	"2"
	.string	"n"
	.string	"s"
	.string	" "
	.string	"t"
	.string	"o"
	.string	" "
	.string	"l"
	.string	"e"
	.string	"s"
	.string	"s"
	.string	" "
	.string	"t"
	.string	"h"
	.string	"a"
	.string	"n"
	.string	" "
	.string	"1"
	.string	"u"
	.string	"s"
	.zero	2
	.align	3
.LC239:
	.string	"1"
	.string	"u"
	.string	"s"
	.string	" "
	.string	"t"
	.string	"o"
	.string	" "
	.string	"l"
	.string	"e"
	.string	"s"
	.string	"s"
	.string	" "
	.string	"t"
	.string	"h"
	.string	"a"
	.string	"n"
	.string	" "
	.string	"2"
	.string	"u"
	.string	"s"
	.zero	2
	.align	3
.LC240:
	.string	"2"
	.string	"u"
	.string	"s"
	.string	"-"
	.string	"4"
	.string	"u"
	.string	"s"
	.zero	2
	.align	3
.LC241:
	.string	"M"
	.string	"o"
	.string	"r"
	.string	"e"
	.string	" "
	.string	"t"
	.string	"h"
	.string	"a"
	.string	"n"
	.string	" "
	.string	"4"
	.string	"u"
	.string	"s"
	.zero	2
	.section	.data.rel.local.L0sLatencyStrTable,"aw"
	.align	3
	.type	L0sLatencyStrTable, @object
	.size	L0sLatencyStrTable, 64
L0sLatencyStrTable:
	.dword	.LC234
	.dword	.LC235
	.dword	.LC236
	.dword	.LC237
	.dword	.LC238
	.dword	.LC239
	.dword	.LC240
	.dword	.LC241
	.globl	L1LatencyStrTable
	.section	.rodata
	.align	3
.LC242:
	.string	"L"
	.string	"e"
	.string	"s"
	.string	"s"
	.string	" "
	.string	"t"
	.string	"h"
	.string	"a"
	.string	"n"
	.string	" "
	.string	"1"
	.string	"u"
	.string	"s"
	.zero	2
	.align	3
.LC243:
	.string	"2"
	.string	"u"
	.string	"s"
	.string	" "
	.string	"t"
	.string	"o"
	.string	" "
	.string	"l"
	.string	"e"
	.string	"s"
	.string	"s"
	.string	" "
	.string	"t"
	.string	"h"
	.string	"a"
	.string	"n"
	.string	" "
	.string	"4"
	.string	"u"
	.string	"s"
	.zero	2
	.align	3
.LC244:
	.string	"4"
	.string	"u"
	.string	"s"
	.string	" "
	.string	"t"
	.string	"o"
	.string	" "
	.string	"l"
	.string	"e"
	.string	"s"
	.string	"s"
	.string	" "
	.string	"t"
	.string	"h"
	.string	"a"
	.string	"n"
	.string	" "
	.string	"8"
	.string	"u"
	.string	"s"
	.zero	2
	.align	3
.LC245:
	.string	"8"
	.string	"u"
	.string	"s"
	.string	" "
	.string	"t"
	.string	"o"
	.string	" "
	.string	"l"
	.string	"e"
	.string	"s"
	.string	"s"
	.string	" "
	.string	"t"
	.string	"h"
	.string	"a"
	.string	"n"
	.string	" "
	.string	"1"
	.string	"6"
	.string	"u"
	.string	"s"
	.zero	2
	.align	3
.LC246:
	.string	"1"
	.string	"6"
	.string	"u"
	.string	"s"
	.string	" "
	.string	"t"
	.string	"o"
	.string	" "
	.string	"l"
	.string	"e"
	.string	"s"
	.string	"s"
	.string	" "
	.string	"t"
	.string	"h"
	.string	"a"
	.string	"n"
	.string	" "
	.string	"3"
	.string	"2"
	.string	"u"
	.string	"s"
	.zero	2
	.align	3
.LC247:
	.string	"3"
	.string	"2"
	.string	"u"
	.string	"s"
	.string	"-"
	.string	"6"
	.string	"4"
	.string	"u"
	.string	"s"
	.zero	2
	.align	3
.LC248:
	.string	"M"
	.string	"o"
	.string	"r"
	.string	"e"
	.string	" "
	.string	"t"
	.string	"h"
	.string	"a"
	.string	"n"
	.string	" "
	.string	"6"
	.string	"4"
	.string	"u"
	.string	"s"
	.zero	2
	.section	.data.rel.local.L1LatencyStrTable,"aw"
	.align	3
	.type	L1LatencyStrTable, @object
	.size	L1LatencyStrTable, 64
L1LatencyStrTable:
	.dword	.LC242
	.dword	.LC239
	.dword	.LC243
	.dword	.LC244
	.dword	.LC245
	.dword	.LC246
	.dword	.LC247
	.dword	.LC248
	.globl	ASPMCtrlStrTable
	.section	.rodata
	.align	3
.LC249:
	.string	"D"
	.string	"i"
	.string	"s"
	.string	"a"
	.string	"b"
	.string	"l"
	.string	"e"
	.string	"d"
	.zero	2
	.align	3
.LC250:
	.string	"L"
	.string	"0"
	.string	"s"
	.string	" "
	.string	"E"
	.string	"n"
	.string	"t"
	.string	"r"
	.string	"y"
	.string	" "
	.string	"E"
	.string	"n"
	.string	"a"
	.string	"b"
	.string	"l"
	.string	"e"
	.string	"d"
	.zero	2
	.align	3
.LC251:
	.string	"L"
	.string	"1"
	.string	" "
	.string	"E"
	.string	"n"
	.string	"t"
	.string	"r"
	.string	"y"
	.string	" "
	.string	"E"
	.string	"n"
	.string	"a"
	.string	"b"
	.string	"l"
	.string	"e"
	.string	"d"
	.zero	2
	.align	3
.LC252:
	.string	"L"
	.string	"0"
	.string	"s"
	.string	" "
	.string	"a"
	.string	"n"
	.string	"d"
	.string	" "
	.string	"L"
	.string	"1"
	.string	" "
	.string	"E"
	.string	"n"
	.string	"t"
	.string	"r"
	.string	"y"
	.string	" "
	.string	"E"
	.string	"n"
	.string	"a"
	.string	"b"
	.string	"l"
	.string	"e"
	.string	"d"
	.zero	2
	.section	.data.rel.local.ASPMCtrlStrTable,"aw"
	.align	3
	.type	ASPMCtrlStrTable, @object
	.size	ASPMCtrlStrTable, 32
ASPMCtrlStrTable:
	.dword	.LC249
	.dword	.LC250
	.dword	.LC251
	.dword	.LC252
	.globl	SlotPwrLmtScaleTable
	.section	.rodata
	.align	3
.LC253:
	.string	"1"
	.string	"."
	.string	"0"
	.string	"x"
	.zero	2
	.align	3
.LC254:
	.string	"0"
	.string	"."
	.string	"1"
	.string	"x"
	.zero	2
	.align	3
.LC255:
	.string	"0"
	.string	"."
	.string	"0"
	.string	"1"
	.string	"x"
	.zero	2
	.align	3
.LC256:
	.string	"0"
	.string	"."
	.string	"0"
	.string	"0"
	.string	"1"
	.string	"x"
	.zero	2
	.section	.data.rel.local.SlotPwrLmtScaleTable,"aw"
	.align	3
	.type	SlotPwrLmtScaleTable, @object
	.size	SlotPwrLmtScaleTable, 32
SlotPwrLmtScaleTable:
	.dword	.LC253
	.dword	.LC254
	.dword	.LC255
	.dword	.LC256
	.globl	IndicatorTable
	.section	.rodata
	.align	3
.LC257:
	.string	"R"
	.string	"e"
	.string	"s"
	.string	"e"
	.string	"r"
	.string	"v"
	.string	"e"
	.string	"d"
	.zero	2
	.align	3
.LC258:
	.string	"O"
	.string	"n"
	.zero	2
	.align	3
.LC259:
	.string	"B"
	.string	"l"
	.string	"i"
	.string	"n"
	.string	"k"
	.zero	2
	.align	3
.LC260:
	.string	"O"
	.string	"f"
	.string	"f"
	.zero	2
	.section	.data.rel.local.IndicatorTable,"aw"
	.align	3
	.type	IndicatorTable, @object
	.size	IndicatorTable, 32
IndicatorTable:
	.dword	.LC257
	.dword	.LC258
	.dword	.LC259
	.dword	.LC260
	.section	.rodata
	.align	3
.LC261:
	.string	"p"
	.string	"c"
	.string	"i"
	.zero	2
	.align	3
.LC262:
	.string	"\r"
	.string	"\n"
	.zero	2
	.align	3
.LC263:
	.string	"\r"
	.string	"\n"
	.string	"%"
	.string	"H"
	.string	"S"
	.string	"t"
	.string	"a"
	.string	"r"
	.string	"t"
	.string	" "
	.string	"d"
	.string	"u"
	.string	"m"
	.string	"p"
	.string	"i"
	.string	"n"
	.string	"g"
	.string	" "
	.string	"P"
	.string	"C"
	.string	"I"
	.string	"e"
	.string	"x"
	.string	" "
	.string	"e"
	.string	"x"
	.string	"t"
	.string	"e"
	.string	"n"
	.string	"d"
	.string	"e"
	.string	"d"
	.string	" "
	.string	"c"
	.string	"o"
	.string	"n"
	.string	"f"
	.string	"i"
	.string	"g"
	.string	"u"
	.string	"r"
	.string	"a"
	.string	"t"
	.string	"i"
	.string	"o"
	.string	"n"
	.string	" "
	.string	"s"
	.string	"p"
	.string	"a"
	.string	"c"
	.string	"e"
	.string	" "
	.string	"("
	.string	"0"
	.string	"x"
	.string	"1"
	.string	"0"
	.string	"0"
	.string	" "
	.string	"-"
	.string	" "
	.string	"0"
	.string	"x"
	.string	"F"
	.string	"F"
	.string	"F"
	.string	")"
	.string	"."
	.string	"%"
	.string	"N"
	.string	"\r"
	.string	"\n"
	.string	"\r"
	.string	"\n"
	.zero	2
	.section	.text.ShellCommandRunPci,"ax",@progbits
	.align	1
	.globl	ShellCommandRunPci
	.type	ShellCommandRunPci, @function
ShellCommandRunPci:
.LFB2:
	.loc 1 2439 1
	.cfi_startproc
	addi	sp,sp,-576
	.cfi_def_cfa_offset 576
	sd	ra,568(sp)
	sd	s0,560(sp)
	sd	s1,552(sp)
	sd	s2,544(sp)
	sd	s3,536(sp)
	.cfi_offset 1, -8
	.cfi_offset 8, -16
	.cfi_offset 9, -24
	.cfi_offset 18, -32
	.cfi_offset 19, -40
	addi	s0,sp,576
	.cfi_def_cfa 8, 0
	sd	a0,-520(s0)
	sd	a1,-528(s0)
	.loc 1 2473 15
	sw	zero,-108(s0)
	.loc 1 2474 10
	sd	zero,-64(s0)
	.loc 1 2475 11
	sd	zero,-136(s0)
	.loc 1 2476 9
	sd	zero,-176(s0)
	.loc 1 2477 13
	sd	zero,-104(s0)
	.loc 1 2478 11
	sd	zero,-496(s0)
	.loc 1 2483 12
	call	ShellInitialize@plt
	sd	a0,-64(s0)
	.loc 1 2486 12
	call	CommandInit@plt
	sd	a0,-64(s0)
	.loc 1 2492 12
	addi	a2,s0,-504
	addi	a5,s0,-496
	li	a4,0
	li	a3,1
	mv	a1,a5
	lla	a0,ParamList
	call	ShellCommandLineParseEx@plt
	sd	a0,-64(s0)
	.loc 1 2493 34
	ld	a5,-64(s0)
	.loc 1 2493 6
	bge	a5,zero,.L24
	.loc 1 2494 8
	ld	a4,-64(s0)
	li	a5,-1
	slli	a5,a5,63
	addi	a5,a5,10
	bne	a4,a5,.L25
	.loc 1 2494 86 discriminator 1
	ld	a5,-504(s0)
	.loc 1 2494 69 discriminator 1
	beq	a5,zero,.L25
	.loc 1 2495 7
	la	a5,gShellDebug1HiiHandle
	ld	a4,0(a5)
	ld	a5,-504(s0)
	mv	a6,a5
	lla	a5,.LC261
	li	a3,548
	li	a2,0
	li	a1,-1
	li	a0,-1
	call	ShellPrintHiiEx@plt
	.loc 1 2496 7
	ld	a5,-504(s0)
	mv	a0,a5
	call	FreePool@plt
	.loc 1 2497 19
	li	a5,2
	sw	a5,-108(s0)
	j	.L25
.L24:
	.loc 1 2502 9
	ld	a5,-496(s0)
	mv	a0,a5
	call	ShellCommandLineGetCount@plt
	mv	a4,a0
	.loc 1 2502 8 discriminator 1
	li	a5,2
	bne	a4,a5,.L26
	.loc 1 2503 7
	la	a5,gShellDebug1HiiHandle
	ld	a4,0(a5)
	lla	a5,.LC261
	li	a3,552
	li	a2,0
	li	a1,-1
	li	a0,-1
	call	ShellPrintHiiEx@plt
	.loc 1 2504 19
	li	a5,2
	sw	a5,-108(s0)
	.loc 1 2505 7
	j	.L25
.L26:
	.loc 1 2508 9
	ld	a5,-496(s0)
	mv	a0,a5
	call	ShellCommandLineGetCount@plt
	mv	a4,a0
	.loc 1 2508 8 discriminator 1
	li	a5,4
	bleu	a4,a5,.L27
	.loc 1 2509 7
	la	a5,gShellDebug1HiiHandle
	ld	a4,0(a5)
	lla	a5,.LC261
	li	a3,553
	li	a2,0
	li	a1,-1
	li	a0,-1
	call	ShellPrintHiiEx@plt
	.loc 1 2510 19
	li	a5,2
	sw	a5,-108(s0)
	.loc 1 2511 7
	j	.L25
.L27:
	.loc 1 2514 9
	ld	a5,-496(s0)
	lla	a1,.LC223
	mv	a0,a5
	call	ShellCommandLineGetFlag@plt
	mv	a5,a0
	.loc 1 2514 8 discriminator 1
	beq	a5,zero,.L28
	.loc 1 2514 55 discriminator 2
	ld	a5,-496(s0)
	lla	a1,.LC223
	mv	a0,a5
	call	ShellCommandLineGetValue@plt
	mv	a5,a0
	.loc 1 2514 51 discriminator 3
	bne	a5,zero,.L28
	.loc 1 2515 7
	la	a5,gShellDebug1HiiHandle
	ld	a4,0(a5)
	lla	a6,.LC223
	lla	a5,.LC261
	li	a3,551
	li	a2,0
	li	a1,-1
	li	a0,-1
	call	ShellPrintHiiEx@plt
	.loc 1 2516 19
	li	a5,2
	sw	a5,-108(s0)
	.loc 1 2517 7
	j	.L25
.L28:
	.loc 1 2520 9
	ld	a5,-496(s0)
	lla	a1,.LC221
	mv	a0,a5
	call	ShellCommandLineGetFlag@plt
	mv	a5,a0
	.loc 1 2520 8 discriminator 1
	beq	a5,zero,.L29
	.loc 1 2520 54 discriminator 2
	ld	a5,-496(s0)
	lla	a1,.LC221
	mv	a0,a5
	call	ShellCommandLineGetValue@plt
	mv	a5,a0
	.loc 1 2520 50 discriminator 3
	bne	a5,zero,.L29
	.loc 1 2521 7
	la	a5,gShellDebug1HiiHandle
	ld	a4,0(a5)
	lla	a6,.LC221
	lla	a5,.LC261
	li	a3,551
	li	a2,0
	li	a1,-1
	li	a0,-1
	call	ShellPrintHiiEx@plt
	.loc 1 2522 19
	li	a5,2
	sw	a5,-108(s0)
	.loc 1 2523 7
	j	.L25
.L29:
	.loc 1 2531 19
	li	a5,8
	sd	a5,-472(s0)
	.loc 1 2532 31
	ld	a5,-472(s0)
	mv	a0,a5
	call	AllocateZeroPool@plt
	sd	a0,-104(s0)
	.loc 1 2533 8
	ld	a5,-104(s0)
	bne	a5,zero,.L30
	.loc 1 2534 7
	la	a5,gShellDebug1HiiHandle
	ld	a4,0(a5)
	lla	a5,.LC261
	li	a3,559
	li	a2,0
	li	a1,-1
	li	a0,-1
	call	ShellPrintHiiEx@plt
	.loc 1 2535 19
	li	a5,9
	sw	a5,-108(s0)
	.loc 1 2536 7
	j	.L25
.L30:
	.loc 1 2539 17
	la	a5,gBS
	ld	a5,0(a5)
	ld	a5,176(a5)
	.loc 1 2539 14
	addi	a3,s0,-472
	ld	a4,-104(s0)
	li	a2,0
	la	a1,gEfiPciRootBridgeIoProtocolGuid
	li	a0,2
	jalr	a5
.LVL0:
	sd	a0,-64(s0)
	.loc 1 2547 8
	ld	a4,-64(s0)
	li	a5,-1
	slli	a5,a5,63
	addi	a5,a5,5
	bne	a4,a5,.L31
	.loc 1 2548 19
	ld	a5,-472(s0)
	ld	a2,-104(s0)
	mv	a1,a5
	li	a0,8
	call	ReallocatePool@plt
	sd	a0,-104(s0)
	.loc 1 2549 10
	ld	a5,-104(s0)
	bne	a5,zero,.L32
	.loc 1 2550 9
	la	a5,gShellDebug1HiiHandle
	ld	a4,0(a5)
	lla	a5,.LC261
	li	a3,559
	li	a2,0
	li	a1,-1
	li	a0,-1
	call	ShellPrintHiiEx@plt
	.loc 1 2551 21
	li	a5,9
	sw	a5,-108(s0)
	.loc 1 2552 9
	j	.L25
.L32:
	.loc 1 2555 19
	la	a5,gBS
	ld	a5,0(a5)
	ld	a5,176(a5)
	.loc 1 2555 16
	addi	a3,s0,-472
	ld	a4,-104(s0)
	li	a2,0
	la	a1,gEfiPciRootBridgeIoProtocolGuid
	li	a0,2
	jalr	a5
.LVL1:
	sd	a0,-64(s0)
.L31:
	.loc 1 2564 36
	ld	a5,-64(s0)
	.loc 1 2564 8
	bge	a5,zero,.L33
	.loc 1 2565 7
	la	a5,gShellDebug1HiiHandle
	ld	a4,0(a5)
	lla	a5,.LC261
	li	a3,554
	li	a2,0
	li	a1,-1
	li	a0,-1
	call	ShellPrintHiiEx@plt
	.loc 1 2566 19
	li	a5,14
	sw	a5,-108(s0)
	.loc 1 2567 7
	j	.L25
.L33:
	.loc 1 2570 33
	ld	a5,-472(s0)
	.loc 1 2570 17
	srli	a5,a5,3
	sd	a5,-144(s0)
	.loc 1 2574 9
	ld	a5,-496(s0)
	mv	a0,a5
	call	ShellCommandLineGetCount@plt
	mv	a4,a0
	.loc 1 2574 8 discriminator 1
	li	a5,1
	bne	a4,a5,.L34
	.loc 1 2575 10
	la	a5,gST
	ld	a5,0(a5)
	ld	a5,64(a5)
	.loc 1 2575 18
	ld	a5,24(a5)
	.loc 1 2576 25
	la	a4,gST
	ld	a4,0(a4)
	.loc 1 2575 7
	ld	a0,64(a4)
	.loc 1 2577 25
	la	a4,gST
	ld	a4,0(a4)
	ld	a4,64(a4)
	.loc 1 2577 33
	ld	a4,72(a4)
	.loc 1 2577 39
	lw	a4,4(a4)
	.loc 1 2575 7
	mv	a1,a4
	addi	a3,s0,-464
	addi	a4,s0,-456
	mv	a2,a4
	jalr	a5
.LVL2:
	.loc 1 2582 19
	sd	zero,-72(s0)
	.loc 1 2583 18
	ld	a5,-464(s0)
	addi	a5,a5,-4
	sd	a5,-464(s0)
	.loc 1 2584 23
	ld	a5,-464(s0)
	andi	a5,a5,1
	.loc 1 2584 10
	beq	a5,zero,.L35
	.loc 1 2585 20
	ld	a5,-464(s0)
	addi	a5,a5,-1
	sd	a5,-464(s0)
.L35:
	.loc 1 2588 18
	li	a5,1
	sb	a5,-89(s0)
	.loc 1 2594 18
	sd	zero,-88(s0)
	.loc 1 2594 7
	j	.L36
.L54:
	.loc 1 2596 29
	ld	a5,-88(s0)
	slli	a5,a5,3
	ld	a4,-104(s0)
	add	a5,a4,a5
	.loc 1 2595 18
	ld	a5,0(a5)
	addi	a3,s0,-480
	addi	a4,s0,-176
	mv	a2,a3
	mv	a1,a4
	mv	a0,a5
	call	PciGetProtocolAndResource
	sd	a0,-64(s0)
	.loc 1 2600 40
	ld	a5,-64(s0)
	.loc 1 2600 12
	bge	a5,zero,.L37
	.loc 1 2601 11
	la	a5,gShellDebug1HiiHandle
	ld	a4,0(a5)
	lla	a5,.LC261
	li	a3,633
	li	a2,0
	li	a1,-1
	li	a0,-1
	call	ShellPrintHiiEx@plt
	.loc 1 2602 23
	li	a5,14
	sw	a5,-108(s0)
	.loc 1 2603 11
	j	.L25
.L37:
	.loc 1 2612 20
	addi	a3,s0,-485
	addi	a2,s0,-484
	addi	a4,s0,-482
	addi	a5,s0,-480
	mv	a1,a4
	mv	a0,a5
	call	PciGetNextBusRange
	sd	a0,-64(s0)
	.loc 1 2614 42
	ld	a5,-64(s0)
	.loc 1 2614 14
	bge	a5,zero,.L38
	.loc 1 2615 13
	la	a5,gShellDebug1HiiHandle
	ld	a4,0(a5)
	lla	a5,.LC261
	li	a3,634
	li	a2,0
	li	a1,-1
	li	a0,-1
	call	ShellPrintHiiEx@plt
	.loc 1 2616 25
	li	a5,14
	sw	a5,-108(s0)
	.loc 1 2617 13
	j	.L25
.L38:
	.loc 1 2620 15
	lbu	a5,-485(s0)
	.loc 1 2620 14
	bne	a5,zero,.L79
	.loc 1 2624 20
	lhu	a5,-482(s0)
	sh	a5,-52(s0)
	.loc 1 2624 11
	j	.L41
.L52:
	.loc 1 2628 25
	sh	zero,-54(s0)
	.loc 1 2628 13
	j	.L42
.L51:
	.loc 1 2632 25
	sh	zero,-56(s0)
	.loc 1 2632 15
	j	.L43
.L50:
	.loc 1 2633 21
	call	ShellGetExecutionBreakFlag@plt
	mv	a5,a0
	.loc 1 2633 20 discriminator 1
	beq	a5,zero,.L44
	.loc 1 2634 31
	li	a5,21
	sw	a5,-108(s0)
	.loc 1 2635 19
	j	.L25
.L44:
	.loc 1 2638 40
	lhu	a5,-52(s0)
	.loc 1 2638 53
	slli	a4,a5,24
	.loc 1 2638 64
	lhu	a5,-54(s0)
	.loc 1 2638 80
	slli	a5,a5,16
	.loc 1 2638 60
	or	a4,a4,a5
	.loc 1 2638 91
	lhu	a5,-56(s0)
	.loc 1 2638 105
	slli	a5,a5,8
	.loc 1 2638 25
	or	a5,a4,a5
	sd	a5,-136(s0)
	.loc 1 2639 22
	ld	a5,-176(s0)
	.loc 1 2639 27
	ld	a5,56(a5)
	.loc 1 2639 17
	ld	a0,-176(s0)
	addi	a4,s0,-192
	li	a3,1
	ld	a2,-136(s0)
	li	a1,1
	jalr	a5
.LVL3:
	.loc 1 2654 31
	lhu	a5,-192(s0)
	.loc 1 2654 20
	sext.w	a4,a5
	li	a5,65536
	addi	a5,a5,-1
	bne	a4,a5,.L45
	.loc 1 2654 52 discriminator 1
	lhu	a5,-56(s0)
	sext.w	a5,a5
	beq	a5,zero,.L80
.L45:
	.loc 1 2658 30
	lhu	a5,-192(s0)
	.loc 1 2658 20
	sext.w	a4,a5
	li	a5,65536
	addi	a5,a5,-1
	beq	a4,a5,.L47
	.loc 1 2659 22
	lbu	a5,-89(s0)
	andi	a5,a5,0xff
	beq	a5,zero,.L48
	.loc 1 2660 21
	la	a5,gShellDebug1HiiHandle
	ld	a5,0(a5)
	mv	a4,a5
	li	a3,638
	li	a2,0
	li	a1,-1
	li	a0,-1
	call	ShellPrintHiiEx@plt
	.loc 1 2661 32
	sb	zero,-89(s0)
.L48:
	.loc 1 2664 24
	ld	a5,-176(s0)
	.loc 1 2664 29
	ld	a5,56(a5)
	.loc 1 2664 19
	ld	a0,-176(s0)
	addi	a4,s0,-192
	li	a3,4
	ld	a2,-136(s0)
	li	a1,2
	jalr	a5
.LVL4:
	.loc 1 2672 19
	la	a5,gShellDebug1HiiHandle
	ld	a4,0(a5)
	.loc 1 2678 26
	ld	a5,-176(s0)
	.loc 1 2672 19
	lw	a3,144(a5)
	lhu	a5,-52(s0)
	sext.w	a2,a5
	lhu	a5,-54(s0)
	sext.w	a1,a5
	lhu	a5,-56(s0)
	sext.w	a5,a5
	sd	a5,0(sp)
	mv	a7,a1
	mv	a6,a2
	mv	a5,a3
	li	a3,639
	li	a2,0
	li	a1,-1
	li	a0,-1
	call	ShellPrintHiiEx@plt
	.loc 1 2684 19
	addi	a5,s0,-192
	addi	a5,a5,9
	li	a1,0
	mv	a0,a5
	call	PciPrintClassCode
	.loc 1 2685 19
	la	a5,gShellDebug1HiiHandle
	ld	a4,0(a5)
	.loc 1 2691 30
	lhu	a5,-192(s0)
	.loc 1 2685 19
	sext.w	a5,a5
	.loc 1 2692 30
	lhu	a3,-190(s0)
	.loc 1 2685 19
	sext.w	a3,a3
	.loc 1 2693 40
	lbu	a2,-183(s0)
	.loc 1 2685 19
	sext.w	a2,a2
	mv	a7,a2
	mv	a6,a3
	li	a3,640
	li	a2,0
	li	a1,-1
	li	a0,-1
	call	ShellPrintHiiEx@plt
	.loc 1 2696 31
	ld	a5,-72(s0)
	addi	a5,a5,2
	sd	a5,-72(s0)
	.loc 1 2697 36
	ld	a5,-464(s0)
	.loc 1 2697 22
	ld	a4,-72(s0)
	bltu	a4,a5,.L49
	.loc 1 2697 66 discriminator 1
	ld	a5,-464(s0)
	.loc 1 2697 51 discriminator 1
	beq	a5,zero,.L49
	.loc 1 2702 33
	sd	zero,-72(s0)
.L49:
	.loc 1 2709 22
	lhu	a5,-56(s0)
	sext.w	a5,a5
	bne	a5,zero,.L47
	.loc 1 2709 49 discriminator 1
	lbu	a5,-178(s0)
	.loc 1 2709 69 discriminator 1
	slliw	a5,a5,24
	sraiw	a5,a5,24
	.loc 1 2709 35 discriminator 1
	bge	a5,zero,.L81
.L47:
	.loc 1 2632 45 discriminator 2
	lhu	a5,-56(s0)
	addiw	a5,a5,1
	sh	a5,-56(s0)
.L43:
	.loc 1 2632 35 discriminator 1
	lhu	a5,-56(s0)
	sext.w	a4,a5
	li	a5,7
	bleu	a4,a5,.L50
	j	.L46
.L80:
	.loc 1 2655 19
	nop
	j	.L46
.L81:
	.loc 1 2710 21
	nop
.L46:
	.loc 1 2628 50 discriminator 2
	lhu	a5,-54(s0)
	addiw	a5,a5,1
	sh	a5,-54(s0)
.L42:
	.loc 1 2628 37 discriminator 1
	lhu	a5,-54(s0)
	sext.w	a4,a5
	li	a5,31
	bleu	a4,a5,.L51
	.loc 1 2624 48 discriminator 2
	lhu	a5,-52(s0)
	addiw	a5,a5,1
	sh	a5,-52(s0)
.L41:
	.loc 1 2624 34 discriminator 1
	lhu	a5,-484(s0)
	lhu	a4,-52(s0)
	sext.w	a4,a4
	sext.w	a5,a5
	bleu	a4,a5,.L52
	.loc 1 2722 27
	ld	a5,-480(s0)
	.loc 1 2722 14
	beq	a5,zero,.L82
	.loc 1 2612 18
	j	.L37
.L79:
	.loc 1 2621 13
	nop
	j	.L40
.L82:
	.loc 1 2723 13
	nop
.L40:
	.loc 1 2594 49 discriminator 2
	ld	a5,-88(s0)
	addi	a5,a5,1
	sd	a5,-88(s0)
.L36:
	.loc 1 2594 29 discriminator 1
	ld	a4,-88(s0)
	ld	a5,-144(s0)
	bltu	a4,a5,.L54
	.loc 1 2728 14
	sd	zero,-64(s0)
	.loc 1 2729 7
	j	.L25
.L34:
	.loc 1 2732 17
	sb	zero,-73(s0)
	.loc 1 2733 13
	sh	zero,-50(s0)
	.loc 1 2734 9
	sh	zero,-52(s0)
	.loc 1 2735 12
	sh	zero,-54(s0)
	.loc 1 2736 10
	sh	zero,-56(s0)
	.loc 1 2737 24
	li	a5,-1
	sh	a5,-110(s0)
	.loc 1 2738 9
	ld	a5,-496(s0)
	lla	a1,.LC222
	mv	a0,a5
	call	ShellCommandLineGetFlag@plt
	mv	a5,a0
	.loc 1 2738 8 discriminator 1
	beq	a5,zero,.L55
	.loc 1 2739 19
	li	a5,1
	sb	a5,-73(s0)
.L55:
	.loc 1 2742 12
	ld	a5,-496(s0)
	lla	a1,.LC221
	mv	a0,a5
	call	ShellCommandLineGetValue@plt
	sd	a0,-152(s0)
	.loc 1 2743 8
	ld	a5,-152(s0)
	beq	a5,zero,.L56
	.loc 1 2747 30
	addi	a5,s0,-512
	li	a3,1
	li	a2,1
	mv	a1,a5
	ld	a0,-152(s0)
	call	ShellConvertStringToUint64@plt
	mv	a5,a0
	.loc 1 2747 10 discriminator 1
	blt	a5,zero,.L57
	.loc 1 2748 19
	ld	a5,-512(s0)
	.loc 1 2748 17
	sh	a5,-50(s0)
	j	.L56
.L57:
	.loc 1 2750 9
	la	a5,gShellDebug1HiiHandle
	ld	a4,0(a5)
	ld	a6,-152(s0)
	lla	a5,.LC261
	li	a3,557
	li	a2,0
	li	a1,-1
	li	a0,-1
	call	ShellPrintHiiEx@plt
	.loc 1 2751 21
	li	a5,2
	sw	a5,-108(s0)
	.loc 1 2752 9
	j	.L25
.L56:
	.loc 1 2760 12
	ld	a5,-496(s0)
	li	a1,1
	mv	a0,a5
	call	ShellCommandLineGetRawValue@plt
	sd	a0,-152(s0)
	.loc 1 2761 8
	ld	a5,-152(s0)
	beq	a5,zero,.L58
	.loc 1 2765 30
	addi	a5,s0,-512
	li	a3,1
	li	a2,1
	mv	a1,a5
	ld	a0,-152(s0)
	call	ShellConvertStringToUint64@plt
	mv	a5,a0
	.loc 1 2765 10 discriminator 1
	blt	a5,zero,.L59
	.loc 1 2766 15
	ld	a5,-512(s0)
	.loc 1 2766 13
	sh	a5,-52(s0)
	.loc 1 2773 10
	lhu	a5,-52(s0)
	sext.w	a4,a5
	li	a5,255
	bleu	a4,a5,.L58
	j	.L76
.L59:
	.loc 1 2768 9
	la	a5,gShellDebug1HiiHandle
	ld	a4,0(a5)
	ld	a6,-152(s0)
	lla	a5,.LC261
	li	a3,557
	li	a2,0
	li	a1,-1
	li	a0,-1
	call	ShellPrintHiiEx@plt
	.loc 1 2769 21
	li	a5,2
	sw	a5,-108(s0)
	.loc 1 2770 9
	j	.L25
.L76:
	.loc 1 2774 9
	la	a5,gShellDebug1HiiHandle
	ld	a4,0(a5)
	ld	a6,-152(s0)
	lla	a5,.LC261
	li	a3,556
	li	a2,0
	li	a1,-1
	li	a0,-1
	call	ShellPrintHiiEx@plt
	.loc 1 2775 21
	li	a5,2
	sw	a5,-108(s0)
	.loc 1 2776 9
	j	.L25
.L58:
	.loc 1 2780 12
	ld	a5,-496(s0)
	li	a1,2
	mv	a0,a5
	call	ShellCommandLineGetRawValue@plt
	sd	a0,-152(s0)
	.loc 1 2781 8
	ld	a5,-152(s0)
	beq	a5,zero,.L61
	.loc 1 2785 30
	addi	a5,s0,-512
	li	a3,1
	li	a2,1
	mv	a1,a5
	ld	a0,-152(s0)
	call	ShellConvertStringToUint64@plt
	mv	a5,a0
	.loc 1 2785 10 discriminator 1
	blt	a5,zero,.L62
	.loc 1 2786 18
	ld	a5,-512(s0)
	.loc 1 2786 16
	sh	a5,-54(s0)
	.loc 1 2793 10
	lhu	a5,-54(s0)
	sext.w	a4,a5
	li	a5,31
	bleu	a4,a5,.L61
	j	.L77
.L62:
	.loc 1 2788 9
	la	a5,gShellDebug1HiiHandle
	ld	a4,0(a5)
	ld	a6,-152(s0)
	lla	a5,.LC261
	li	a3,557
	li	a2,0
	li	a1,-1
	li	a0,-1
	call	ShellPrintHiiEx@plt
	.loc 1 2789 21
	li	a5,2
	sw	a5,-108(s0)
	.loc 1 2790 9
	j	.L25
.L77:
	.loc 1 2794 9
	la	a5,gShellDebug1HiiHandle
	ld	a4,0(a5)
	ld	a6,-152(s0)
	lla	a5,.LC261
	li	a3,556
	li	a2,0
	li	a1,-1
	li	a0,-1
	call	ShellPrintHiiEx@plt
	.loc 1 2795 21
	li	a5,2
	sw	a5,-108(s0)
	.loc 1 2796 9
	j	.L25
.L61:
	.loc 1 2800 12
	ld	a5,-496(s0)
	li	a1,3
	mv	a0,a5
	call	ShellCommandLineGetRawValue@plt
	sd	a0,-152(s0)
	.loc 1 2801 8
	ld	a5,-152(s0)
	beq	a5,zero,.L64
	.loc 1 2805 30
	addi	a5,s0,-512
	li	a3,1
	li	a2,1
	mv	a1,a5
	ld	a0,-152(s0)
	call	ShellConvertStringToUint64@plt
	mv	a5,a0
	.loc 1 2805 10 discriminator 1
	blt	a5,zero,.L65
	.loc 1 2806 16
	ld	a5,-512(s0)
	.loc 1 2806 14
	sh	a5,-56(s0)
	.loc 1 2813 10
	lhu	a5,-56(s0)
	sext.w	a4,a5
	li	a5,7
	bleu	a4,a5,.L64
	j	.L78
.L65:
	.loc 1 2808 9
	la	a5,gShellDebug1HiiHandle
	ld	a4,0(a5)
	ld	a6,-152(s0)
	lla	a5,.LC261
	li	a3,557
	li	a2,0
	li	a1,-1
	li	a0,-1
	call	ShellPrintHiiEx@plt
	.loc 1 2809 21
	li	a5,2
	sw	a5,-108(s0)
	.loc 1 2810 9
	j	.L25
.L78:
	.loc 1 2814 9
	la	a5,gShellDebug1HiiHandle
	ld	a4,0(a5)
	ld	a6,-152(s0)
	lla	a5,.LC261
	li	a3,556
	li	a2,0
	li	a1,-1
	li	a0,-1
	call	ShellPrintHiiEx@plt
	.loc 1 2815 21
	li	a5,2
	sw	a5,-108(s0)
	.loc 1 2816 9
	j	.L25
.L64:
	.loc 1 2820 12
	ld	a5,-496(s0)
	lla	a1,.LC223
	mv	a0,a5
	call	ShellCommandLineGetValue@plt
	sd	a0,-152(s0)
	.loc 1 2821 8
	ld	a5,-152(s0)
	beq	a5,zero,.L67
	.loc 1 2825 30
	addi	a5,s0,-512
	li	a3,1
	li	a2,1
	mv	a1,a5
	ld	a0,-152(s0)
	call	ShellConvertStringToUint64@plt
	mv	a5,a0
	.loc 1 2825 10 discriminator 1
	blt	a5,zero,.L68
	.loc 1 2826 30
	ld	a5,-512(s0)
	.loc 1 2826 28
	sh	a5,-110(s0)
	j	.L67
.L68:
	.loc 1 2828 9
	la	a5,gShellDebug1HiiHandle
	ld	a4,0(a5)
	ld	a6,-152(s0)
	lla	a5,.LC261
	li	a3,557
	li	a2,0
	li	a1,-1
	li	a0,-1
	call	ShellPrintHiiEx@plt
	.loc 1 2829 21
	li	a5,2
	sw	a5,-108(s0)
	.loc 1 2830 9
	j	.L25
.L67:
	.loc 1 2838 14
	addi	a4,s0,-176
	lhu	a3,-52(s0)
	lhu	a5,-50(s0)
	mv	a2,a5
	ld	a1,-144(s0)
	ld	a0,-104(s0)
	call	PciFindProtocolInterface
	sd	a0,-64(s0)
	.loc 1 2846 36
	ld	a5,-64(s0)
	.loc 1 2846 8
	bge	a5,zero,.L69
	.loc 1 2847 7
	la	a5,gShellDebug1HiiHandle
	ld	a4,0(a5)
	lhu	a5,-50(s0)
	sext.w	a5,a5
	lhu	a3,-52(s0)
	sext.w	a3,a3
	mv	a7,a3
	mv	a6,a5
	lla	a5,.LC261
	li	a3,635
	li	a2,0
	li	a1,-1
	li	a0,-1
	call	ShellPrintHiiEx@plt
	.loc 1 2857 19
	li	a5,14
	sw	a5,-108(s0)
	.loc 1 2858 7
	j	.L25
.L69:
	.loc 1 2861 28
	lhu	a5,-52(s0)
	.loc 1 2861 41
	slli	a4,a5,24
	.loc 1 2861 52
	lhu	a5,-54(s0)
	.loc 1 2861 68
	slli	a5,a5,16
	.loc 1 2861 48
	or	a4,a4,a5
	.loc 1 2861 79
	lhu	a5,-56(s0)
	.loc 1 2861 93
	slli	a5,a5,8
	.loc 1 2861 13
	or	a5,a4,a5
	sd	a5,-136(s0)
	.loc 1 2862 19
	ld	a5,-176(s0)
	.loc 1 2862 24
	ld	a5,56(a5)
	.loc 1 2862 14
	ld	a0,-176(s0)
	addi	a4,s0,-448
	li	a3,256
	ld	a2,-136(s0)
	li	a1,0
	jalr	a5
.LVL5:
	sd	a0,-64(s0)
	.loc 1 2870 36
	ld	a5,-64(s0)
	.loc 1 2870 8
	bge	a5,zero,.L70
	.loc 1 2871 7
	la	a5,gShellDebug1HiiHandle
	ld	a4,0(a5)
	lla	a5,.LC261
	li	a3,636
	li	a2,0
	li	a1,-1
	li	a0,-1
	call	ShellPrintHiiEx@plt
	.loc 1 2872 19
	li	a5,15
	sw	a5,-108(s0)
	.loc 1 2873 7
	j	.L25
.L70:
	.loc 1 2876 18
	lla	a5,mConfigSpace
	addi	a4,s0,-448
	sd	a4,0(a5)
	.loc 1 2877 5
	la	a5,gShellDebug1HiiHandle
	ld	a0,0(a5)
	lhu	a5,-50(s0)
	sext.w	t1,a5
	lhu	a5,-52(s0)
	sext.w	a6,a5
	lhu	a5,-54(s0)
	sext.w	a7,a5
	lhu	a5,-56(s0)
	sext.w	a5,a5
	lhu	a4,-50(s0)
	sext.w	a4,a4
	lhu	a3,-52(s0)
	sext.w	a3,a3
	lhu	a2,-54(s0)
	sext.w	a2,a2
	lhu	a1,-56(s0)
	sext.w	a1,a1
	sd	a1,32(sp)
	sd	a2,24(sp)
	sd	a3,16(sp)
	sd	a4,8(sp)
	sd	a5,0(sp)
	mv	a5,t1
	mv	a4,a0
	li	a3,637
	li	a2,0
	li	a1,-1
	li	a0,-1
	call	ShellPrintHiiEx@plt
	.loc 1 2896 18
	li	a5,64
	sd	a5,-160(s0)
	.loc 1 2898 5
	addi	a5,s0,-448
	mv	a3,a5
	ld	a2,-160(s0)
	li	a1,0
	li	a0,2
	call	DumpHex@plt
	.loc 1 2899 5
	lla	a2,.LC262
	li	a1,-1
	li	a0,-1
	call	ShellPrintEx@plt
	.loc 1 2907 28
	li	a4,256
	ld	a5,-160(s0)
	sub	a4,a4,a5
	.loc 1 2904 5
	addi	a5,s0,-448
	addi	a5,a5,64
	mv	a3,a5
	mv	a2,a4
	ld	a1,-160(s0)
	li	a0,2
	call	DumpHex@plt
	.loc 1 2911 25
	sd	zero,-120(s0)
	.loc 1 2912 24
	sd	zero,-128(s0)
	.loc 1 2913 25
	addi	a5,s0,-448
	li	a1,16
	mv	a0,a5
	call	LocatePciCapability
	mv	a5,a0
	sb	a5,-161(s0)
	.loc 1 2914 8
	lbu	a5,-161(s0)
	andi	a5,a5,0xff
	beq	a5,zero,.L71
	.loc 1 2915 26
	li	a5,4096
	addi	a5,a5,-256
	sd	a5,-128(s0)
	.loc 1 2916 29
	ld	a0,-128(s0)
	call	AllocatePool@plt
	sd	a0,-120(s0)
	.loc 1 2917 10
	ld	a5,-120(s0)
	beq	a5,zero,.L71
	.loc 1 2918 23
	ld	a5,-176(s0)
	.loc 1 2918 28
	ld	s1,56(a5)
	.loc 1 2918 18
	ld	s3,-176(s0)
	.loc 1 2921 44
	lhu	a5,-52(s0)
	.loc 1 2921 57
	slli	a4,a5,24
	.loc 1 2921 68
	lhu	a5,-54(s0)
	.loc 1 2921 84
	slli	a5,a5,16
	.loc 1 2921 64
	or	a4,a4,a5
	.loc 1 2921 95
	lhu	a5,-56(s0)
	.loc 1 2921 109
	slli	a5,a5,8
	.loc 1 2921 91
	or	s2,a4,a5
	.loc 1 2921 174
	li	a1,32
	li	a0,256
	call	LShiftU64@plt
	mv	a5,a0
	.loc 1 2921 31 discriminator 1
	or	a2,s2,a5
	.loc 1 2922 50
	ld	a5,-128(s0)
	srli	a5,a5,2
	.loc 1 2918 18
	ld	a4,-120(s0)
	mv	a3,a5
	li	a1,2
	mv	a0,s3
	jalr	s1
.LVL6:
	sd	a0,-64(s0)
	.loc 1 2925 40
	ld	a5,-64(s0)
	.loc 1 2925 12
	bge	a5,zero,.L71
	.loc 1 2926 19
	ld	a5,-120(s0)
	beq	a5,zero,.L71
	.loc 1 2926 61 discriminator 1
	ld	a0,-120(s0)
	call	FreePool@plt
	.loc 1 2926 116 discriminator 2
	sd	zero,-120(s0)
.L71:
	.loc 1 2931 8
	ld	a5,-120(s0)
	beq	a5,zero,.L72
	.loc 1 2931 51 discriminator 1
	call	ShellGetExecutionBreakFlag@plt
	mv	a5,a0
	.loc 1 2931 47 discriminator 2
	bne	a5,zero,.L72
	.loc 1 2935 7
	lla	a2,.LC263
	li	a1,-1
	li	a0,-1
	call	ShellPrintEx@plt
	.loc 1 2937 7
	ld	a3,-120(s0)
	ld	a2,-128(s0)
	li	a1,256
	li	a0,2
	call	DumpHex@plt
.L72:
	.loc 1 2948 8
	lbu	a5,-73(s0)
	andi	a5,a5,0xff
	beq	a5,zero,.L83
	.loc 1 2949 7
	ld	a4,-176(s0)
	addi	a5,s0,-448
	mv	a2,a4
	ld	a1,-136(s0)
	mv	a0,a5
	call	PciExplainPci
	.loc 1 2950 10
	ld	a5,-120(s0)
	beq	a5,zero,.L83
	.loc 1 2950 53 discriminator 1
	call	ShellGetExecutionBreakFlag@plt
	mv	a5,a0
	.loc 1 2950 49 discriminator 2
	bne	a5,zero,.L83
	.loc 1 2951 9
	lbu	a5,-161(s0)
	addi	a4,s0,-448
	add	a5,a4,a5
	lhu	a4,-110(s0)
	mv	a3,a4
	ld	a2,-128(s0)
	ld	a1,-120(s0)
	mv	a0,a5
	call	PciExplainPciExpress
	j	.L25
.L83:
	.loc 1 2961 1
	nop
.L25:
	.loc 1 2962 6
	ld	a5,-104(s0)
	beq	a5,zero,.L73
	.loc 1 2963 5
	ld	a0,-104(s0)
	call	FreePool@plt
.L73:
	.loc 1 2966 15
	ld	a5,-496(s0)
	.loc 1 2966 6
	beq	a5,zero,.L74
	.loc 1 2967 5
	ld	a5,-496(s0)
	mv	a0,a5
	call	ShellCommandLineFreeVarList@plt
.L74:
	.loc 1 2970 16
	lla	a5,mConfigSpace
	sd	zero,0(a5)
	.loc 1 2971 10
	lw	a5,-108(s0)
	.loc 1 2972 1
	mv	a0,a5
	ld	ra,568(sp)
	.cfi_restore 1
	ld	s0,560(sp)
	.cfi_restore 8
	.cfi_def_cfa 2, 576
	ld	s1,552(sp)
	.cfi_restore 9
	ld	s2,544(sp)
	.cfi_restore 18
	ld	s3,536(sp)
	.cfi_restore 19
	addi	sp,sp,576
	.cfi_def_cfa_offset 0
	jr	ra
	.cfi_endproc
.LFE2:
	.size	ShellCommandRunPci, .-ShellCommandRunPci
	.section	.text.PciFindProtocolInterface,"ax",@progbits
	.align	1
	.globl	PciFindProtocolInterface
	.type	PciFindProtocolInterface, @function
PciFindProtocolInterface:
.LFB3:
	.loc 1 2998 1
	.cfi_startproc
	addi	sp,sp,-80
	.cfi_def_cfa_offset 80
	sd	ra,72(sp)
	sd	s0,64(sp)
	.cfi_offset 1, -8
	.cfi_offset 8, -16
	addi	s0,sp,80
	.cfi_def_cfa 8, 0
	sd	a0,-56(s0)
	sd	a1,-64(s0)
	mv	a5,a2
	sd	a4,-80(s0)
	sh	a5,-66(s0)
	mv	a5,a3
	sh	a5,-68(s0)
	.loc 1 3009 14
	sd	zero,-24(s0)
	.loc 1 3009 3
	j	.L85
.L94:
	.loc 1 3010 50
	ld	a5,-24(s0)
	slli	a5,a5,3
	ld	a4,-56(s0)
	add	a5,a4,a5
	.loc 1 3010 14
	ld	a5,0(a5)
	addi	a4,s0,-40
	mv	a2,a4
	ld	a1,-80(s0)
	mv	a0,a5
	call	PciGetProtocolAndResource
	sd	a0,-32(s0)
	.loc 1 3011 36
	ld	a5,-32(s0)
	.loc 1 3011 8
	bge	a5,zero,.L86
	.loc 1 3012 14
	ld	a5,-32(s0)
	j	.L95
.L86:
	.loc 1 3019 22
	ld	a5,-40(s0)
	.loc 1 3019 8
	bne	a5,zero,.L88
	.loc 1 3019 51 discriminator 1
	lhu	a5,-66(s0)
	sext.w	a4,a5
	.loc 1 3019 55 discriminator 1
	ld	a5,-80(s0)
	ld	a5,0(a5)
	.loc 1 3019 62 discriminator 1
	lw	a5,144(a5)
	.loc 1 3019 39 discriminator 1
	bne	a4,a5,.L88
	.loc 1 3020 14
	li	a5,0
	j	.L95
.L88:
	.loc 1 3023 10
	ld	a5,-80(s0)
	ld	a5,0(a5)
	.loc 1 3023 17
	lw	a4,144(a5)
	.loc 1 3023 33
	lhu	a5,-66(s0)
	sext.w	a5,a5
	.loc 1 3023 8
	bne	a4,a5,.L96
.L89:
	.loc 1 3028 16
	addi	a3,s0,-45
	addi	a2,s0,-44
	addi	a4,s0,-42
	addi	a5,s0,-40
	mv	a1,a4
	mv	a0,a5
	call	PciGetNextBusRange
	sd	a0,-32(s0)
	.loc 1 3029 38
	ld	a5,-32(s0)
	.loc 1 3029 10
	bge	a5,zero,.L91
	.loc 1 3030 16
	ld	a5,-32(s0)
	j	.L95
.L91:
	.loc 1 3033 11
	lbu	a5,-45(s0)
	.loc 1 3033 10
	bne	a5,zero,.L97
	.loc 1 3037 19
	lhu	a5,-42(s0)
	.loc 1 3037 10
	lhu	a4,-68(s0)
	sext.w	a4,a4
	sext.w	a5,a5
	bltu	a4,a5,.L89
	.loc 1 3037 38 discriminator 1
	lhu	a5,-44(s0)
	.loc 1 3037 27 discriminator 1
	lhu	a4,-68(s0)
	sext.w	a4,a4
	sext.w	a5,a5
	bgtu	a4,a5,.L89
	.loc 1 3038 16
	li	a5,0
	j	.L95
.L96:
	.loc 1 3024 7
	nop
	j	.L90
.L97:
	.loc 1 3034 9
	nop
.L90:
	.loc 1 3009 45 discriminator 2
	ld	a5,-24(s0)
	addi	a5,a5,1
	sd	a5,-24(s0)
.L85:
	.loc 1 3009 25 discriminator 1
	ld	a4,-24(s0)
	ld	a5,-64(s0)
	bltu	a4,a5,.L94
	.loc 1 3043 10
	li	a5,-1
	slli	a5,a5,63
	addi	a5,a5,14
.L95:
	.loc 1 3044 1
	mv	a0,a5
	ld	ra,72(sp)
	.cfi_restore 1
	ld	s0,64(sp)
	.cfi_restore 8
	.cfi_def_cfa 2, 80
	addi	sp,sp,80
	.cfi_def_cfa_offset 0
	jr	ra
	.cfi_endproc
.LFE3:
	.size	PciFindProtocolInterface, .-PciFindProtocolInterface
	.section	.text.PciGetProtocolAndResource,"ax",@progbits
	.align	1
	.globl	PciGetProtocolAndResource
	.type	PciGetProtocolAndResource, @function
PciGetProtocolAndResource:
.LFB4:
	.loc 1 3062 1
	.cfi_startproc
	addi	sp,sp,-64
	.cfi_def_cfa_offset 64
	sd	ra,56(sp)
	sd	s0,48(sp)
	.cfi_offset 1, -8
	.cfi_offset 8, -16
	addi	s0,sp,64
	.cfi_def_cfa 8, 0
	sd	a0,-40(s0)
	sd	a1,-48(s0)
	sd	a2,-56(s0)
	.loc 1 3068 15
	la	a5,gBS
	ld	a5,0(a5)
	ld	a5,152(a5)
	.loc 1 3068 12
	ld	a2,-48(s0)
	la	a1,gEfiPciRootBridgeIoProtocolGuid
	ld	a0,-40(s0)
	jalr	a5
.LVL7:
	sd	a0,-24(s0)
	.loc 1 3074 34
	ld	a5,-24(s0)
	.loc 1 3074 6
	bge	a5,zero,.L99
	.loc 1 3075 12
	ld	a5,-24(s0)
	j	.L100
.L99:
	.loc 1 3081 13
	ld	a5,-48(s0)
	ld	a5,0(a5)
	.loc 1 3081 20
	ld	a5,136(a5)
	.loc 1 3081 13
	ld	a4,-48(s0)
	ld	a4,0(a4)
	ld	a1,-56(s0)
	mv	a0,a4
	jalr	a5
.LVL8:
	sd	a0,-24(s0)
	.loc 1 3082 6
	ld	a4,-24(s0)
	li	a5,-1
	slli	a5,a5,63
	addi	a5,a5,3
	bne	a4,a5,.L101
	.loc 1 3083 18
	ld	a5,-56(s0)
	sd	zero,0(a5)
	.loc 1 3084 12
	li	a5,0
	j	.L100
.L101:
	.loc 1 3086 12
	ld	a5,-24(s0)
.L100:
	.loc 1 3088 1
	mv	a0,a5
	ld	ra,56(sp)
	.cfi_restore 1
	ld	s0,48(sp)
	.cfi_restore 8
	.cfi_def_cfa 2, 64
	addi	sp,sp,64
	.cfi_def_cfa_offset 0
	jr	ra
	.cfi_endproc
.LFE4:
	.size	PciGetProtocolAndResource, .-PciGetProtocolAndResource
	.section	.text.PciGetNextBusRange,"ax",@progbits
	.align	1
	.globl	PciGetNextBusRange
	.type	PciGetNextBusRange, @function
PciGetNextBusRange:
.LFB5:
	.loc 1 3110 1
	.cfi_startproc
	addi	sp,sp,-48
	.cfi_def_cfa_offset 48
	sd	ra,40(sp)
	sd	s0,32(sp)
	.cfi_offset 1, -8
	.cfi_offset 8, -16
	addi	s0,sp,48
	.cfi_def_cfa 8, 0
	sd	a0,-24(s0)
	sd	a1,-32(s0)
	sd	a2,-40(s0)
	sd	a3,-48(s0)
	.loc 1 3111 10
	ld	a5,-48(s0)
	sb	zero,0(a5)
	.loc 1 3117 8
	ld	a5,-24(s0)
	ld	a5,0(a5)
	.loc 1 3117 6
	bne	a5,zero,.L105
	.loc 1 3118 13
	ld	a5,-32(s0)
	sh	zero,0(a5)
	.loc 1 3119 13
	ld	a5,-40(s0)
	li	a4,255
	sh	a4,0(a5)
	.loc 1 3120 12
	li	a5,0
	j	.L104
.L107:
	.loc 1 3131 10
	ld	a5,-24(s0)
	ld	a5,0(a5)
	.loc 1 3131 23
	lbu	a5,3(a5)
	.loc 1 3131 8
	mv	a4,a5
	li	a5,2
	bne	a4,a5,.L106
	.loc 1 3132 26
	ld	a5,-24(s0)
	ld	a5,0(a5)
	.loc 1 3132 39
	lbu	a4,14(a5)
	lbu	a3,15(a5)
	slli	a3,a3,8
	or	a4,a3,a4
	lbu	a3,16(a5)
	slli	a3,a3,16
	or	a4,a3,a4
	lbu	a3,17(a5)
	slli	a3,a3,24
	or	a4,a3,a4
	lbu	a3,18(a5)
	slli	a3,a3,32
	or	a4,a3,a4
	lbu	a3,19(a5)
	slli	a3,a3,40
	or	a4,a3,a4
	lbu	a3,20(a5)
	slli	a3,a3,48
	or	a4,a3,a4
	lbu	a5,21(a5)
	slli	a5,a5,56
	or	a5,a5,a4
	.loc 1 3132 17
	slli	a4,a5,48
	srli	a4,a4,48
	.loc 1 3132 15
	ld	a5,-32(s0)
	sh	a4,0(a5)
	.loc 1 3133 26
	ld	a5,-24(s0)
	ld	a5,0(a5)
	.loc 1 3133 39
	lbu	a4,22(a5)
	lbu	a3,23(a5)
	slli	a3,a3,8
	or	a4,a3,a4
	lbu	a3,24(a5)
	slli	a3,a3,16
	or	a4,a3,a4
	lbu	a3,25(a5)
	slli	a3,a3,24
	or	a4,a3,a4
	lbu	a3,26(a5)
	slli	a3,a3,32
	or	a4,a3,a4
	lbu	a3,27(a5)
	slli	a3,a3,40
	or	a4,a3,a4
	lbu	a3,28(a5)
	slli	a3,a3,48
	or	a4,a3,a4
	lbu	a5,29(a5)
	slli	a5,a5,56
	or	a5,a5,a4
	.loc 1 3133 17
	slli	a4,a5,48
	srli	a4,a4,48
	.loc 1 3133 15
	ld	a5,-40(s0)
	sh	a4,0(a5)
	.loc 1 3134 8
	ld	a5,-24(s0)
	ld	a5,0(a5)
	.loc 1 3134 21
	addi	a4,a5,46
	ld	a5,-24(s0)
	sd	a4,0(a5)
	.loc 1 3135 14
	li	a5,0
	j	.L104
.L106:
	.loc 1 3138 6
	ld	a5,-24(s0)
	ld	a5,0(a5)
	.loc 1 3138 19
	addi	a4,a5,46
	ld	a5,-24(s0)
	sd	a4,0(a5)
.L105:
	.loc 1 3130 11
	ld	a5,-24(s0)
	ld	a5,0(a5)
	.loc 1 3130 24
	lbu	a5,0(a5)
	.loc 1 3130 31
	mv	a4,a5
	li	a5,121
	bne	a4,a5,.L107
	.loc 1 3141 8
	ld	a5,-24(s0)
	ld	a5,0(a5)
	.loc 1 3141 21
	lbu	a5,0(a5)
	.loc 1 3141 6
	mv	a4,a5
	li	a5,121
	bne	a4,a5,.L108
	.loc 1 3142 12
	ld	a5,-48(s0)
	li	a4,1
	sb	a4,0(a5)
.L108:
	.loc 1 3145 10
	li	a5,0
.L104:
	.loc 1 3146 1
	mv	a0,a5
	ld	ra,40(sp)
	.cfi_restore 1
	ld	s0,32(sp)
	.cfi_restore 8
	.cfi_def_cfa 2, 48
	addi	sp,sp,48
	.cfi_def_cfa_offset 0
	jr	ra
	.cfi_endproc
.LFE5:
	.size	PciGetNextBusRange, .-PciGetNextBusRange
	.section	.text.PciExplainPci,"ax",@progbits
	.align	1
	.globl	PciExplainPci
	.type	PciExplainPci, @function
PciExplainPci:
.LFB6:
	.loc 1 3163 1
	.cfi_startproc
	addi	sp,sp,-80
	.cfi_def_cfa_offset 80
	sd	ra,72(sp)
	sd	s0,64(sp)
	.cfi_offset 1, -8
	.cfi_offset 8, -16
	addi	s0,sp,80
	.cfi_def_cfa 8, 0
	sd	a0,-40(s0)
	sd	a1,-48(s0)
	sd	a2,-56(s0)
	.loc 1 3167 10
	ld	a5,-40(s0)
	sd	a5,-24(s0)
	.loc 1 3169 3
	lla	a2,.LC262
	li	a1,-1
	li	a0,-1
	call	ShellPrintEx@plt
	.loc 1 3174 3
	la	a5,gShellDebug1HiiHandle
	ld	a3,0(a5)
	.loc 1 3180 17
	ld	a4,-24(s0)
	.loc 1 3180 40
	lla	a5,mConfigSpace
	ld	a5,0(a5)
	.loc 1 3174 3
	sub	a2,a4,a5
	.loc 1 3181 11
	ld	a5,-24(s0)
	lbu	a4,0(a5)
	lbu	a5,1(a5)
	slli	a5,a5,8
	or	a5,a5,a4
	slli	a5,a5,48
	srli	a5,a5,48
	.loc 1 3174 3
	sext.w	a1,a5
	.loc 1 3182 17
	ld	a5,-24(s0)
	addi	a4,a5,2
	.loc 1 3182 40
	lla	a5,mConfigSpace
	ld	a5,0(a5)
	.loc 1 3174 3
	sub	a0,a4,a5
	.loc 1 3183 11
	ld	a5,-24(s0)
	lbu	a4,2(a5)
	lbu	a5,3(a5)
	slli	a5,a5,8
	or	a5,a5,a4
	slli	a5,a5,48
	srli	a5,a5,48
	.loc 1 3174 3
	sext.w	a5,a5
	sd	a5,0(sp)
	mv	a7,a0
	mv	a6,a1
	mv	a5,a2
	mv	a4,a3
	li	a3,656
	li	a2,0
	li	a1,-1
	li	a0,-1
	call	ShellPrintHiiEx@plt
	.loc 1 3189 3
	ld	a5,-24(s0)
	addi	a5,a5,4
	mv	a0,a5
	call	PciExplainCommand
	.loc 1 3194 3
	ld	a5,-24(s0)
	addi	a5,a5,6
	li	a2,3
	li	a1,1
	mv	a0,a5
	call	PciExplainStatus
	.loc 1 3199 3
	lla	a2,.LC262
	li	a1,-1
	li	a0,-1
	call	ShellPrintEx@plt
	.loc 1 3200 3
	la	a5,gShellDebug1HiiHandle
	ld	a3,0(a5)
	.loc 1 3206 6
	ld	a5,-24(s0)
	addi	a4,a5,8
	.loc 1 3206 42
	lla	a5,mConfigSpace
	ld	a5,0(a5)
	.loc 1 3200 3
	sub	a4,a4,a5
	.loc 1 3207 11
	ld	a5,-24(s0)
	lbu	a5,8(a5)
	.loc 1 3200 3
	sext.w	a5,a5
	mv	a6,a5
	mv	a5,a4
	mv	a4,a3
	li	a3,657
	li	a2,0
	li	a1,-1
	li	a0,-1
	call	ShellPrintHiiEx@plt
	.loc 1 3213 3
	la	a5,gShellDebug1HiiHandle
	ld	a3,0(a5)
	.loc 1 3213 74
	ld	a5,-24(s0)
	addi	a4,a5,15
	.loc 1 3213 104
	lla	a5,mConfigSpace
	ld	a5,0(a5)
	.loc 1 3213 3
	sub	a5,a4,a5
	mv	a4,a3
	li	a3,658
	li	a2,0
	li	a1,-1
	li	a0,-1
	call	ShellPrintHiiEx@plt
	.loc 1 3214 14
	ld	a5,-24(s0)
	lbu	a5,15(a5)
	.loc 1 3214 35
	slliw	a5,a5,24
	sraiw	a5,a5,24
	.loc 1 3214 6
	bge	a5,zero,.L110
	.loc 1 3215 5
	la	a5,gShellDebug1HiiHandle
	ld	a4,0(a5)
	.loc 1 3215 88
	ld	a5,-24(s0)
	lbu	a5,15(a5)
	.loc 1 3215 80
	sext.w	a5,a5
	.loc 1 3215 5
	andi	a5,a5,15
	sext.w	a5,a5
	li	a3,659
	li	a2,0
	li	a1,-1
	li	a0,-1
	call	ShellPrintHiiEx@plt
	j	.L111
.L110:
	.loc 1 3217 5
	la	a5,gShellDebug1HiiHandle
	ld	a5,0(a5)
	mv	a4,a5
	li	a3,660
	li	a2,0
	li	a1,-1
	li	a0,-1
	call	ShellPrintHiiEx@plt
.L111:
	.loc 1 3223 3
	la	a5,gShellDebug1HiiHandle
	ld	a3,0(a5)
	.loc 1 3229 6
	ld	a5,-24(s0)
	addi	a4,a5,12
	.loc 1 3229 45
	lla	a5,mConfigSpace
	ld	a5,0(a5)
	.loc 1 3223 3
	sub	a4,a4,a5
	.loc 1 3230 11
	ld	a5,-24(s0)
	lbu	a5,12(a5)
	.loc 1 3223 3
	sext.w	a5,a5
	mv	a6,a5
	mv	a5,a4
	mv	a4,a3
	li	a3,661
	li	a2,0
	li	a1,-1
	li	a0,-1
	call	ShellPrintHiiEx@plt
	.loc 1 3236 3
	la	a5,gShellDebug1HiiHandle
	ld	a3,0(a5)
	.loc 1 3242 6
	ld	a5,-24(s0)
	addi	a4,a5,13
	.loc 1 3242 44
	lla	a5,mConfigSpace
	ld	a5,0(a5)
	.loc 1 3236 3
	sub	a4,a4,a5
	.loc 1 3243 11
	ld	a5,-24(s0)
	lbu	a5,13(a5)
	.loc 1 3236 3
	sext.w	a5,a5
	mv	a6,a5
	mv	a5,a4
	mv	a4,a3
	li	a3,662
	li	a2,0
	li	a1,-1
	li	a0,-1
	call	ShellPrintHiiEx@plt
	.loc 1 3249 3
	la	a5,gShellDebug1HiiHandle
	ld	a3,0(a5)
	.loc 1 3255 6
	ld	a5,-24(s0)
	addi	a4,a5,14
	.loc 1 3255 42
	lla	a5,mConfigSpace
	ld	a5,0(a5)
	.loc 1 3249 3
	sub	a4,a4,a5
	.loc 1 3256 11
	ld	a5,-24(s0)
	lbu	a5,14(a5)
	.loc 1 3249 3
	sext.w	a5,a5
	mv	a6,a5
	mv	a5,a4
	mv	a4,a3
	li	a3,663
	li	a2,0
	li	a1,-1
	li	a0,-1
	call	ShellPrintHiiEx@plt
	.loc 1 3259 14
	ld	a5,-24(s0)
	lbu	a5,14(a5)
	.loc 1 3259 41
	slliw	a5,a5,24
	sraiw	a5,a5,24
	.loc 1 3259 6
	bge	a5,zero,.L112
	.loc 1 3260 5
	la	a5,gShellDebug1HiiHandle
	ld	a5,0(a5)
	mv	a4,a5
	li	a3,664
	li	a2,0
	li	a1,-1
	li	a0,-1
	call	ShellPrintHiiEx@plt
	j	.L113
.L112:
	.loc 1 3262 5
	la	a5,gShellDebug1HiiHandle
	ld	a5,0(a5)
	mv	a4,a5
	li	a3,665
	li	a2,0
	li	a1,-1
	li	a0,-1
	call	ShellPrintHiiEx@plt
.L113:
	.loc 1 3265 47
	ld	a5,-24(s0)
	lbu	a5,14(a5)
	.loc 1 3265 33
	andi	a5,a5,127
	andi	a5,a5,0xff
	.loc 1 3265 14
	sw	a5,-28(s0)
	.loc 1 3266 3
	lw	a5,-28(s0)
	sext.w	a4,a5
	li	a5,2
	beq	a4,a5,.L114
	lw	a5,-28(s0)
	sext.w	a4,a5
	li	a5,2
	bgtu	a4,a5,.L115
	lw	a5,-28(s0)
	sext.w	a5,a5
	beq	a5,zero,.L116
	lw	a5,-28(s0)
	sext.w	a4,a5
	li	a5,1
	beq	a4,a5,.L117
	j	.L115
.L116:
	.loc 1 3268 7
	la	a5,gShellDebug1HiiHandle
	ld	a5,0(a5)
	mv	a4,a5
	li	a3,666
	li	a2,0
	li	a1,-1
	li	a0,-1
	call	ShellPrintHiiEx@plt
	.loc 1 3269 7
	j	.L118
.L117:
	.loc 1 3272 7
	la	a5,gShellDebug1HiiHandle
	ld	a5,0(a5)
	mv	a4,a5
	li	a3,667
	li	a2,0
	li	a1,-1
	li	a0,-1
	call	ShellPrintHiiEx@plt
	.loc 1 3273 7
	j	.L118
.L114:
	.loc 1 3276 7
	la	a5,gShellDebug1HiiHandle
	ld	a5,0(a5)
	mv	a4,a5
	li	a3,668
	li	a2,0
	li	a1,-1
	li	a0,-1
	call	ShellPrintHiiEx@plt
	.loc 1 3277 7
	j	.L118
.L115:
	.loc 1 3280 7
	la	a5,gShellDebug1HiiHandle
	ld	a5,0(a5)
	mv	a4,a5
	li	a3,669
	li	a2,0
	li	a1,-1
	li	a0,-1
	call	ShellPrintHiiEx@plt
	.loc 1 3281 18
	li	a5,3
	sw	a5,-28(s0)
.L118:
	.loc 1 3287 3
	la	a5,gShellDebug1HiiHandle
	ld	a5,0(a5)
	mv	a4,a5
	li	a3,670
	li	a2,0
	li	a1,-1
	li	a0,-1
	call	ShellPrintHiiEx@plt
	.loc 1 3288 31
	ld	a5,-24(s0)
	addi	a5,a5,9
	.loc 1 3288 3
	li	a1,1
	mv	a0,a5
	call	PciPrintClassCode
	.loc 1 3289 3
	lla	a2,.LC262
	li	a1,-1
	li	a0,-1
	call	ShellPrintEx@plt
	.loc 1 3290 1
	nop
	ld	ra,72(sp)
	.cfi_restore 1
	ld	s0,64(sp)
	.cfi_restore 8
	.cfi_def_cfa 2, 80
	addi	sp,sp,80
	.cfi_def_cfa_offset 0
	jr	ra
	.cfi_endproc
.LFE6:
	.size	PciExplainPci, .-PciExplainPci
	.section	.rodata
	.align	3
.LC264:
	.string	" "
	.string	" "
	.string	"-"
	.string	"-"
	.string	"-"
	.string	"-"
	.string	"-"
	.string	"-"
	.string	"-"
	.string	"-"
	.string	"-"
	.string	"-"
	.string	"-"
	.string	"-"
	.string	"-"
	.string	"-"
	.string	"-"
	.string	"-"
	.string	"-"
	.string	"-"
	.string	"-"
	.string	"-"
	.string	"-"
	.string	"-"
	.string	"-"
	.string	"-"
	.string	"-"
	.string	"-"
	.string	"-"
	.string	"-"
	.string	"-"
	.string	"-"
	.string	"-"
	.string	"-"
	.string	"-"
	.string	"-"
	.string	"-"
	.string	"-"
	.string	"-"
	.string	"-"
	.string	"-"
	.string	"-"
	.string	"-"
	.string	"-"
	.string	"-"
	.string	"-"
	.string	"-"
	.string	"-"
	.string	"-"
	.string	"-"
	.string	"-"
	.string	"-"
	.string	"-"
	.string	"-"
	.string	"-"
	.string	"-"
	.string	"-"
	.string	"-"
	.string	"-"
	.string	"-"
	.string	"-"
	.string	"-"
	.string	"-"
	.string	"-"
	.string	"-"
	.string	"-"
	.string	"-"
	.string	"-"
	.string	"-"
	.string	"-"
	.string	"-"
	.string	"-"
	.string	"-"
	.string	"-"
	.string	"-"
	.string	"-"
	.zero	2
	.align	3
.LC265:
	.string	"\r"
	.string	"\n"
	.string	" "
	.string	" "
	.string	"-"
	.string	"-"
	.string	"-"
	.string	"-"
	.string	"-"
	.string	"-"
	.string	"-"
	.string	"-"
	.string	"-"
	.string	"-"
	.string	"-"
	.string	"-"
	.string	"-"
	.string	"-"
	.string	"-"
	.string	"-"
	.string	"-"
	.string	"-"
	.string	"-"
	.string	"-"
	.string	"-"
	.string	"-"
	.string	"-"
	.string	"-"
	.string	"-"
	.string	"-"
	.string	"-"
	.string	"-"
	.string	"-"
	.string	"-"
	.string	"-"
	.string	"-"
	.string	"-"
	.string	"-"
	.string	"-"
	.string	"-"
	.string	"-"
	.string	"-"
	.string	"-"
	.string	"-"
	.string	"-"
	.string	"-"
	.string	"-"
	.string	"-"
	.string	"-"
	.string	"-"
	.string	"-"
	.string	"-"
	.string	"-"
	.string	"-"
	.string	"-"
	.string	"-"
	.string	"-"
	.string	"-"
	.string	"-"
	.string	"-"
	.string	"-"
	.string	"-"
	.string	"-"
	.string	"-"
	.string	"-"
	.string	"-"
	.string	"-"
	.string	"-"
	.string	"-"
	.string	"-"
	.string	"-"
	.string	"-"
	.string	"-"
	.string	"-"
	.string	"-"
	.string	"-"
	.string	"-"
	.string	"-"
	.zero	2
	.section	.text.PciExplainDeviceData,"ax",@progbits
	.align	1
	.globl	PciExplainDeviceData
	.type	PciExplainDeviceData, @function
PciExplainDeviceData:
.LFB7:
	.loc 1 3307 1
	.cfi_startproc
	addi	sp,sp,-80
	.cfi_def_cfa_offset 80
	sd	ra,72(sp)
	sd	s0,64(sp)
	.cfi_offset 1, -8
	.cfi_offset 8, -16
	addi	s0,sp,80
	.cfi_def_cfa 8, 0
	sd	a0,-56(s0)
	sd	a1,-64(s0)
	sd	a2,-72(s0)
	.loc 1 3318 3
	la	a5,gShellDebug1HiiHandle
	ld	a3,0(a5)
	.loc 1 3318 84
	ld	a4,-56(s0)
	.loc 1 3318 100
	lla	a5,mConfigSpace
	ld	a5,0(a5)
	.loc 1 3318 3
	sub	a5,a4,a5
	mv	a4,a3
	li	a3,671
	li	a2,0
	li	a1,-1
	li	a0,-1
	call	ShellPrintHiiEx@plt
	.loc 1 3320 12
	sb	zero,-17(s0)
	.loc 1 3321 12
	li	a5,6
	sd	a5,-32(s0)
	.loc 1 3322 14
	sd	zero,-48(s0)
	.loc 1 3322 3
	j	.L120
.L125:
	.loc 1 3323 20
	ld	a5,-48(s0)
	ld	a4,-56(s0)
	slli	a5,a5,2
	add	a5,a4,a5
	lbu	a4,0(a5)
	lbu	a3,1(a5)
	slli	a3,a3,8
	or	a4,a3,a4
	lbu	a3,2(a5)
	slli	a3,a3,16
	or	a4,a3,a4
	lbu	a5,3(a5)
	slli	a5,a5,24
	or	a5,a5,a4
	sext.w	a5,a5
	.loc 1 3323 8
	beq	a5,zero,.L131
	.loc 1 3327 8
	lbu	a5,-17(s0)
	andi	a5,a5,0xff
	bne	a5,zero,.L123
	.loc 1 3328 16
	li	a5,1
	sb	a5,-17(s0)
	.loc 1 3329 7
	la	a5,gShellDebug1HiiHandle
	ld	a5,0(a5)
	mv	a4,a5
	li	a3,672
	li	a2,0
	li	a1,-1
	li	a0,-1
	call	ShellPrintHiiEx@plt
	.loc 1 3330 7
	lla	a2,.LC264
	li	a1,-1
	li	a0,-1
	call	ShellPrintEx@plt
.L123:
	.loc 1 3334 29
	ld	a5,-48(s0)
	.loc 1 3333 14
	slli	a5,a5,2
	ld	a4,-56(s0)
	add	a0,a4,a5
	.loc 1 3335 30
	lla	a5,mConfigSpace
	ld	a5,0(a5)
	.loc 1 3333 14
	addi	a5,a5,4
	addi	a4,s0,-48
	ld	a3,-72(s0)
	ld	a2,-64(s0)
	mv	a1,a5
	call	PciExplainBar
	sd	a0,-40(s0)
	.loc 1 3341 36
	ld	a5,-40(s0)
	.loc 1 3341 8
	blt	a5,zero,.L132
	j	.L122
.L131:
	.loc 1 3324 7
	nop
.L122:
	.loc 1 3322 42 discriminator 2
	ld	a5,-48(s0)
	addi	a5,a5,1
	sd	a5,-48(s0)
.L120:
	.loc 1 3322 25 discriminator 1
	ld	a5,-48(s0)
	ld	a4,-32(s0)
	bgtu	a4,a5,.L125
	j	.L124
.L132:
	.loc 1 3342 7
	nop
.L124:
	.loc 1 3346 6
	lbu	a5,-17(s0)
	andi	a5,a5,0xff
	bne	a5,zero,.L126
	.loc 1 3347 5
	la	a5,gShellDebug1HiiHandle
	ld	a5,0(a5)
	mv	a4,a5
	li	a3,673
	li	a2,0
	li	a1,-1
	li	a0,-1
	call	ShellPrintHiiEx@plt
	j	.L127
.L126:
	.loc 1 3349 5
	lla	a2,.LC265
	li	a1,-1
	li	a0,-1
	call	ShellPrintEx@plt
.L127:
	.loc 1 3355 14
	ld	a5,-56(s0)
	lbu	a4,32(a5)
	lbu	a3,33(a5)
	slli	a3,a3,8
	or	a4,a3,a4
	lbu	a3,34(a5)
	slli	a3,a3,16
	or	a4,a3,a4
	lbu	a5,35(a5)
	slli	a5,a5,24
	or	a5,a5,a4
	sext.w	a5,a5
	.loc 1 3355 32
	andi	a5,a5,1
	sext.w	a5,a5
	.loc 1 3355 6
	bne	a5,zero,.L128
	.loc 1 3356 5
	la	a5,gShellDebug1HiiHandle
	ld	a3,0(a5)
	.loc 1 3356 87
	ld	a5,-56(s0)
	addi	a4,a5,32
	.loc 1 3356 117
	lla	a5,mConfigSpace
	ld	a5,0(a5)
	.loc 1 3356 5
	sub	a5,a4,a5
	mv	a4,a3
	li	a3,674
	li	a2,0
	li	a1,-1
	li	a0,-1
	call	ShellPrintHiiEx@plt
	j	.L129
.L128:
	.loc 1 3358 5
	la	a5,gShellDebug1HiiHandle
	ld	a2,0(a5)
	.loc 1 3364 19
	ld	a5,-56(s0)
	addi	a4,a5,32
	.loc 1 3364 49
	lla	a5,mConfigSpace
	ld	a5,0(a5)
	.loc 1 3358 5
	sub	a1,a4,a5
	ld	a5,-56(s0)
	lbu	a4,32(a5)
	lbu	a3,33(a5)
	slli	a3,a3,8
	or	a4,a3,a4
	lbu	a3,34(a5)
	slli	a3,a3,16
	or	a4,a3,a4
	lbu	a5,35(a5)
	slli	a5,a5,24
	or	a5,a5,a4
	sext.w	a5,a5
	mv	a6,a5
	mv	a5,a1
	mv	a4,a2
	li	a3,675
	li	a2,0
	li	a1,-1
	li	a0,-1
	call	ShellPrintHiiEx@plt
.L129:
	.loc 1 3372 3
	la	a5,gShellDebug1HiiHandle
	ld	a2,0(a5)
	.loc 1 3378 17
	ld	a5,-56(s0)
	addi	a4,a5,24
	.loc 1 3378 38
	lla	a5,mConfigSpace
	ld	a5,0(a5)
	.loc 1 3372 3
	sub	a1,a4,a5
	ld	a5,-56(s0)
	lbu	a4,24(a5)
	lbu	a3,25(a5)
	slli	a3,a3,8
	or	a4,a3,a4
	lbu	a3,26(a5)
	slli	a3,a3,16
	or	a4,a3,a4
	lbu	a5,27(a5)
	slli	a5,a5,24
	or	a5,a5,a4
	sext.w	a5,a5
	mv	a6,a5
	mv	a5,a1
	mv	a4,a2
	li	a3,676
	li	a2,0
	li	a1,-1
	li	a0,-1
	call	ShellPrintHiiEx@plt
	.loc 1 3385 3
	la	a5,gShellDebug1HiiHandle
	ld	a3,0(a5)
	.loc 1 3391 17
	ld	a5,-56(s0)
	addi	a4,a5,28
	.loc 1 3391 49
	lla	a5,mConfigSpace
	ld	a5,0(a5)
	.loc 1 3385 3
	sub	a2,a4,a5
	.loc 1 3392 11
	ld	a5,-56(s0)
	lbu	a4,28(a5)
	lbu	a5,29(a5)
	slli	a5,a5,8
	or	a5,a5,a4
	slli	a5,a5,48
	srli	a5,a5,48
	.loc 1 3385 3
	sext.w	a5,a5
	mv	a6,a5
	mv	a5,a2
	mv	a4,a3
	li	a3,677
	li	a2,0
	li	a1,-1
	li	a0,-1
	call	ShellPrintHiiEx@plt
	.loc 1 3395 3
	la	a5,gShellDebug1HiiHandle
	ld	a3,0(a5)
	.loc 1 3401 17
	ld	a5,-56(s0)
	addi	a4,a5,30
	.loc 1 3401 43
	lla	a5,mConfigSpace
	ld	a5,0(a5)
	.loc 1 3395 3
	sub	a2,a4,a5
	.loc 1 3402 11
	ld	a5,-56(s0)
	lbu	a4,30(a5)
	lbu	a5,31(a5)
	slli	a5,a5,8
	or	a5,a5,a4
	slli	a5,a5,48
	srli	a5,a5,48
	.loc 1 3395 3
	sext.w	a5,a5
	mv	a6,a5
	mv	a5,a2
	mv	a4,a3
	li	a3,678
	li	a2,0
	li	a1,-1
	li	a0,-1
	call	ShellPrintHiiEx@plt
	.loc 1 3408 3
	la	a5,gShellDebug1HiiHandle
	ld	a3,0(a5)
	.loc 1 3414 6
	ld	a5,-56(s0)
	addi	a4,a5,36
	.loc 1 3414 45
	lla	a5,mConfigSpace
	ld	a5,0(a5)
	.loc 1 3408 3
	sub	a4,a4,a5
	.loc 1 3415 11
	ld	a5,-56(s0)
	lbu	a5,36(a5)
	.loc 1 3408 3
	sext.w	a5,a5
	mv	a6,a5
	mv	a5,a4
	mv	a4,a3
	li	a3,679
	li	a2,0
	li	a1,-1
	li	a0,-1
	call	ShellPrintHiiEx@plt
	.loc 1 3421 3
	la	a5,gShellDebug1HiiHandle
	ld	a3,0(a5)
	.loc 1 3427 6
	ld	a5,-56(s0)
	addi	a4,a5,44
	.loc 1 3427 45
	lla	a5,mConfigSpace
	ld	a5,0(a5)
	.loc 1 3421 3
	sub	a4,a4,a5
	.loc 1 3428 11
	ld	a5,-56(s0)
	lbu	a5,44(a5)
	.loc 1 3421 3
	sext.w	a5,a5
	mv	a6,a5
	mv	a5,a4
	mv	a4,a3
	li	a3,680
	li	a2,0
	li	a1,-1
	li	a0,-1
	call	ShellPrintHiiEx@plt
	.loc 1 3431 3
	la	a5,gShellDebug1HiiHandle
	ld	a3,0(a5)
	.loc 1 3437 6
	ld	a5,-56(s0)
	addi	a4,a5,45
	.loc 1 3437 44
	lla	a5,mConfigSpace
	ld	a5,0(a5)
	.loc 1 3431 3
	sub	a4,a4,a5
	.loc 1 3438 11
	ld	a5,-56(s0)
	lbu	a5,45(a5)
	.loc 1 3431 3
	sext.w	a5,a5
	mv	a6,a5
	mv	a5,a4
	mv	a4,a3
	li	a3,681
	li	a2,0
	li	a1,-1
	li	a0,-1
	call	ShellPrintHiiEx@plt
	.loc 1 3444 3
	la	a5,gShellDebug1HiiHandle
	ld	a3,0(a5)
	.loc 1 3450 6
	ld	a5,-56(s0)
	addi	a4,a5,46
	.loc 1 3450 38
	lla	a5,mConfigSpace
	ld	a5,0(a5)
	.loc 1 3444 3
	sub	a4,a4,a5
	.loc 1 3451 11
	ld	a5,-56(s0)
	lbu	a5,46(a5)
	.loc 1 3444 3
	sext.w	a5,a5
	mv	a6,a5
	mv	a5,a4
	mv	a4,a3
	li	a3,682
	li	a2,0
	li	a1,-1
	li	a0,-1
	call	ShellPrintHiiEx@plt
	.loc 1 3454 3
	la	a5,gShellDebug1HiiHandle
	ld	a3,0(a5)
	.loc 1 3460 6
	ld	a5,-56(s0)
	addi	a4,a5,47
	.loc 1 3460 38
	lla	a5,mConfigSpace
	ld	a5,0(a5)
	.loc 1 3454 3
	sub	a4,a4,a5
	.loc 1 3461 11
	ld	a5,-56(s0)
	lbu	a5,47(a5)
	.loc 1 3454 3
	sext.w	a5,a5
	mv	a6,a5
	mv	a5,a4
	mv	a4,a3
	li	a3,683
	li	a2,0
	li	a1,-1
	li	a0,-1
	call	ShellPrintHiiEx@plt
	.loc 1 3464 10
	li	a5,0
	.loc 1 3465 1
	mv	a0,a5
	ld	ra,72(sp)
	.cfi_restore 1
	ld	s0,64(sp)
	.cfi_restore 8
	.cfi_def_cfa 2, 80
	addi	sp,sp,80
	.cfi_def_cfa_offset 0
	jr	ra
	.cfi_endproc
.LFE7:
	.size	PciExplainDeviceData, .-PciExplainDeviceData
	.section	.rodata
	.align	3
.LC266:
	.string	" "
	.string	" "
	.string	" "
	.string	" "
	.string	" "
	.string	" "
	.string	" "
	.string	" "
	.string	" "
	.string	" "
	.string	" "
	.string	" "
	.string	" "
	.string	" "
	.string	" "
	.string	"-"
	.string	"-"
	.string	"-"
	.string	"-"
	.string	"-"
	.string	"-"
	.string	"-"
	.string	"-"
	.string	"-"
	.string	"-"
	.string	"-"
	.string	"-"
	.string	"-"
	.string	"-"
	.string	"-"
	.string	"-"
	.string	"-"
	.string	"-"
	.string	"-"
	.string	"-"
	.string	"-"
	.string	"-"
	.string	"-"
	.string	"-"
	.string	"-"
	.string	"-"
	.string	"-"
	.string	"-"
	.string	"-"
	.string	"-"
	.string	"-"
	.string	"-"
	.string	"-"
	.string	"-"
	.string	"-"
	.string	"-"
	.string	"-"
	.string	"-"
	.string	"-"
	.string	"-"
	.string	"-"
	.string	"-"
	.string	"-"
	.string	"-"
	.string	"-"
	.string	"-"
	.string	"-"
	.string	"-"
	.string	"-"
	.string	"-"
	.string	"-"
	.string	"-"
	.string	"-"
	.string	"-"
	.string	"\r"
	.string	"\n"
	.zero	2
	.align	3
.LC267:
	.string	"-"
	.string	"-"
	.string	"-"
	.string	"-"
	.string	"-"
	.string	"-"
	.string	"-"
	.string	"-"
	.string	"-"
	.string	"-"
	.string	"-"
	.string	"-"
	.string	"-"
	.string	"-"
	.string	"-"
	.string	"-"
	.string	"-"
	.string	"-"
	.string	"-"
	.string	"-"
	.string	"-"
	.string	"-"
	.string	"-"
	.string	"-"
	.string	"-"
	.string	"-"
	.string	"-"
	.string	"-"
	.string	"-"
	.string	"-"
	.string	"-"
	.string	"-"
	.string	"-"
	.string	"-"
	.string	"-"
	.string	"-"
	.string	"-"
	.string	"-"
	.string	"-"
	.string	"-"
	.string	"-"
	.string	"-"
	.string	"-"
	.string	"-"
	.string	"-"
	.string	"-"
	.string	"-"
	.string	"-"
	.string	"-"
	.string	"-"
	.string	"-"
	.string	"-"
	.string	"-"
	.string	"-"
	.string	"-"
	.string	"-"
	.string	"-"
	.string	"-"
	.string	"-"
	.string	"-"
	.string	"-"
	.string	"-"
	.string	"-"
	.string	"-"
	.string	"-"
	.string	"-"
	.string	"-"
	.string	"-"
	.string	"-"
	.string	"-"
	.string	"\r"
	.string	"\n"
	.zero	2
	.section	.text.PciExplainBridgeData,"ax",@progbits
	.align	1
	.globl	PciExplainBridgeData
	.type	PciExplainBridgeData, @function
PciExplainBridgeData:
.LFB8:
	.loc 1 3482 1
	.cfi_startproc
	addi	sp,sp,-96
	.cfi_def_cfa_offset 96
	sd	ra,88(sp)
	sd	s0,80(sp)
	.cfi_offset 1, -8
	.cfi_offset 8, -16
	addi	s0,sp,96
	.cfi_def_cfa 8, 0
	sd	a0,-72(s0)
	sd	a1,-80(s0)
	sd	a2,-88(s0)
	.loc 1 3494 3
	la	a5,gShellDebug1HiiHandle
	ld	a3,0(a5)
	.loc 1 3494 85
	ld	a4,-72(s0)
	.loc 1 3494 103
	lla	a5,mConfigSpace
	ld	a5,0(a5)
	.loc 1 3494 3
	sub	a5,a4,a5
	mv	a4,a3
	li	a3,684
	li	a2,0
	li	a1,-1
	li	a0,-1
	call	ShellPrintHiiEx@plt
	.loc 1 3496 12
	sb	zero,-17(s0)
	.loc 1 3497 12
	li	a5,2
	sd	a5,-32(s0)
	.loc 1 3499 14
	sd	zero,-56(s0)
	.loc 1 3499 3
	j	.L134
.L139:
	.loc 1 3500 20
	ld	a5,-56(s0)
	ld	a4,-72(s0)
	slli	a5,a5,2
	add	a5,a4,a5
	lbu	a4,0(a5)
	lbu	a3,1(a5)
	slli	a3,a3,8
	or	a4,a3,a4
	lbu	a3,2(a5)
	slli	a3,a3,16
	or	a4,a3,a4
	lbu	a5,3(a5)
	slli	a5,a5,24
	or	a5,a5,a4
	sext.w	a5,a5
	.loc 1 3500 8
	beq	a5,zero,.L145
	.loc 1 3504 8
	lbu	a5,-17(s0)
	andi	a5,a5,0xff
	bne	a5,zero,.L137
	.loc 1 3505 16
	li	a5,1
	sb	a5,-17(s0)
	.loc 1 3506 7
	la	a5,gShellDebug1HiiHandle
	ld	a5,0(a5)
	mv	a4,a5
	li	a3,685
	li	a2,0
	li	a1,-1
	li	a0,-1
	call	ShellPrintHiiEx@plt
	.loc 1 3507 7
	lla	a2,.LC264
	li	a1,-1
	li	a0,-1
	call	ShellPrintEx@plt
.L137:
	.loc 1 3511 29
	ld	a5,-56(s0)
	.loc 1 3510 14
	slli	a5,a5,2
	ld	a4,-72(s0)
	add	a0,a4,a5
	.loc 1 3512 30
	lla	a5,mConfigSpace
	ld	a5,0(a5)
	.loc 1 3510 14
	addi	a5,a5,4
	addi	a4,s0,-56
	ld	a3,-88(s0)
	ld	a2,-80(s0)
	mv	a1,a5
	call	PciExplainBar
	sd	a0,-40(s0)
	.loc 1 3518 36
	ld	a5,-40(s0)
	.loc 1 3518 8
	blt	a5,zero,.L146
	j	.L136
.L145:
	.loc 1 3501 7
	nop
.L136:
	.loc 1 3499 42 discriminator 2
	ld	a5,-56(s0)
	addi	a5,a5,1
	sd	a5,-56(s0)
.L134:
	.loc 1 3499 25 discriminator 1
	ld	a5,-56(s0)
	ld	a4,-32(s0)
	bgtu	a4,a5,.L139
	j	.L138
.L146:
	.loc 1 3519 7
	nop
.L138:
	.loc 1 3523 6
	lbu	a5,-17(s0)
	andi	a5,a5,0xff
	bne	a5,zero,.L140
	.loc 1 3524 5
	la	a5,gShellDebug1HiiHandle
	ld	a5,0(a5)
	mv	a4,a5
	li	a3,673
	li	a2,0
	li	a1,-1
	li	a0,-1
	call	ShellPrintHiiEx@plt
	j	.L141
.L140:
	.loc 1 3526 5
	lla	a2,.LC265
	li	a1,-1
	li	a0,-1
	call	ShellPrintEx@plt
.L141:
	.loc 1 3532 14
	ld	a5,-72(s0)
	lbu	a4,40(a5)
	lbu	a3,41(a5)
	slli	a3,a3,8
	or	a4,a3,a4
	lbu	a3,42(a5)
	slli	a3,a3,16
	or	a4,a3,a4
	lbu	a5,43(a5)
	slli	a5,a5,24
	or	a5,a5,a4
	sext.w	a5,a5
	.loc 1 3532 32
	andi	a5,a5,1
	sext.w	a5,a5
	.loc 1 3532 6
	bne	a5,zero,.L142
	.loc 1 3533 5
	la	a5,gShellDebug1HiiHandle
	ld	a3,0(a5)
	.loc 1 3533 87
	ld	a5,-72(s0)
	addi	a4,a5,40
	.loc 1 3533 117
	lla	a5,mConfigSpace
	ld	a5,0(a5)
	.loc 1 3533 5
	sub	a5,a4,a5
	mv	a4,a3
	li	a3,686
	li	a2,0
	li	a1,-1
	li	a0,-1
	call	ShellPrintHiiEx@plt
	j	.L143
.L142:
	.loc 1 3535 5
	la	a5,gShellDebug1HiiHandle
	ld	a2,0(a5)
	.loc 1 3541 19
	ld	a5,-72(s0)
	addi	a4,a5,40
	.loc 1 3541 49
	lla	a5,mConfigSpace
	ld	a5,0(a5)
	.loc 1 3535 5
	sub	a1,a4,a5
	ld	a5,-72(s0)
	lbu	a4,40(a5)
	lbu	a3,41(a5)
	slli	a3,a3,8
	or	a4,a3,a4
	lbu	a3,42(a5)
	slli	a3,a3,16
	or	a4,a3,a4
	lbu	a5,43(a5)
	slli	a5,a5,24
	or	a5,a5,a4
	sext.w	a5,a5
	mv	a6,a5
	mv	a5,a1
	mv	a4,a2
	li	a3,687
	li	a2,0
	li	a1,-1
	li	a0,-1
	call	ShellPrintHiiEx@plt
.L143:
	.loc 1 3549 3
	la	a5,gShellDebug1HiiHandle
	ld	a3,0(a5)
	.loc 1 3555 6
	ld	a5,-72(s0)
	addi	a4,a5,8
	.loc 1 3555 42
	lla	a5,mConfigSpace
	ld	a5,0(a5)
	.loc 1 3549 3
	sub	a2,a4,a5
	.loc 1 3556 6
	ld	a5,-72(s0)
	addi	a4,a5,9
	.loc 1 3556 44
	lla	a5,mConfigSpace
	ld	a5,0(a5)
	.loc 1 3549 3
	sub	a1,a4,a5
	.loc 1 3557 6
	ld	a5,-72(s0)
	addi	a4,a5,10
	.loc 1 3557 46
	lla	a5,mConfigSpace
	ld	a5,0(a5)
	.loc 1 3549 3
	sub	a5,a4,a5
	mv	a7,a5
	mv	a6,a1
	mv	a5,a2
	mv	a4,a3
	li	a3,688
	li	a2,0
	li	a1,-1
	li	a0,-1
	call	ShellPrintHiiEx@plt
	.loc 1 3560 3
	lla	a2,.LC266
	li	a1,-1
	li	a0,-1
	call	ShellPrintEx@plt
	.loc 1 3562 3
	la	a5,gShellDebug1HiiHandle
	ld	a4,0(a5)
	.loc 1 3562 79
	ld	a5,-72(s0)
	lbu	a5,8(a5)
	.loc 1 3562 3
	sext.w	a5,a5
	li	a3,689
	li	a2,0
	li	a1,-1
	li	a0,-1
	call	ShellPrintHiiEx@plt
	.loc 1 3563 3
	la	a5,gShellDebug1HiiHandle
	ld	a4,0(a5)
	.loc 1 3563 79
	ld	a5,-72(s0)
	lbu	a5,9(a5)
	.loc 1 3563 3
	sext.w	a5,a5
	li	a3,689
	li	a2,0
	li	a1,-1
	li	a0,-1
	call	ShellPrintHiiEx@plt
	.loc 1 3564 3
	la	a5,gShellDebug1HiiHandle
	ld	a4,0(a5)
	.loc 1 3564 79
	ld	a5,-72(s0)
	lbu	a5,10(a5)
	.loc 1 3564 3
	sext.w	a5,a5
	li	a3,689
	li	a2,0
	li	a1,-1
	li	a0,-1
	call	ShellPrintHiiEx@plt
	.loc 1 3569 3
	la	a5,gShellDebug1HiiHandle
	ld	a3,0(a5)
	.loc 1 3575 6
	ld	a5,-72(s0)
	addi	a4,a5,11
	.loc 1 3575 53
	lla	a5,mConfigSpace
	ld	a5,0(a5)
	.loc 1 3569 3
	sub	a4,a4,a5
	.loc 1 3576 11
	ld	a5,-72(s0)
	lbu	a5,11(a5)
	.loc 1 3569 3
	sext.w	a5,a5
	mv	a6,a5
	mv	a5,a4
	mv	a4,a3
	li	a3,690
	li	a2,0
	li	a1,-1
	li	a0,-1
	call	ShellPrintHiiEx@plt
	.loc 1 3582 3
	ld	a5,-72(s0)
	addi	a5,a5,14
	li	a2,1
	li	a1,0
	mv	a0,a5
	call	PciExplainStatus
	.loc 1 3589 3
	la	a5,gShellDebug1HiiHandle
	ld	a5,0(a5)
	mv	a4,a5
	li	a3,744
	li	a2,0
	li	a1,-1
	li	a0,-1
	call	ShellPrintHiiEx@plt
	.loc 1 3590 3
	lla	a2,.LC267
	li	a1,-1
	li	a0,-1
	call	ShellPrintEx@plt
	.loc 1 3595 24
	ld	a5,-72(s0)
	lbu	a4,32(a5)
	lbu	a5,33(a5)
	slli	a5,a5,8
	or	a5,a5,a4
	slli	a5,a5,48
	srli	a5,a5,48
	sext.w	a5,a5
	.loc 1 3595 40
	slliw	a5,a5,16
	sext.w	a4,a5
	.loc 1 3595 54
	ld	a5,-72(s0)
	lbu	a5,12(a5)
	sext.w	a5,a5
	.loc 1 3595 63
	slliw	a5,a5,8
	sext.w	a5,a5
	.loc 1 3595 46
	or	a5,a4,a5
	sext.w	a5,a5
	.loc 1 3595 15
	sw	a5,-44(s0)
	.loc 1 3596 15
	lw	a5,-44(s0)
	mv	a4,a5
	li	a5,-4096
	and	a5,a4,a5
	sw	a5,-44(s0)
	.loc 1 3597 3
	la	a5,gShellDebug1HiiHandle
	ld	a3,0(a5)
	.loc 1 3603 6
	ld	a5,-72(s0)
	addi	a4,a5,12
	.loc 1 3603 38
	lla	a5,mConfigSpace
	ld	a5,0(a5)
	.loc 1 3597 3
	sub	a5,a4,a5
	lw	a4,-44(s0)
	mv	a6,a4
	mv	a4,a3
	li	a3,745
	li	a2,0
	li	a1,-1
	li	a0,-1
	call	ShellPrintHiiEx@plt
	.loc 1 3607 24
	ld	a5,-72(s0)
	lbu	a4,34(a5)
	lbu	a5,35(a5)
	slli	a5,a5,8
	or	a5,a5,a4
	slli	a5,a5,48
	srli	a5,a5,48
	sext.w	a5,a5
	.loc 1 3607 41
	slliw	a5,a5,16
	sext.w	a4,a5
	.loc 1 3607 55
	ld	a5,-72(s0)
	lbu	a5,13(a5)
	sext.w	a5,a5
	.loc 1 3607 65
	slliw	a5,a5,8
	sext.w	a5,a5
	.loc 1 3607 47
	or	a5,a4,a5
	sext.w	a5,a5
	.loc 1 3607 15
	sw	a5,-44(s0)
	.loc 1 3608 15
	lw	a5,-44(s0)
	mv	a4,a5
	li	a5,4096
	addi	a5,a5,-1
	or	a5,a4,a5
	sw	a5,-44(s0)
	.loc 1 3609 3
	la	a5,gShellDebug1HiiHandle
	ld	a4,0(a5)
	lw	a5,-44(s0)
	li	a3,746
	li	a2,0
	li	a1,-1
	li	a0,-1
	call	ShellPrintHiiEx@plt
	.loc 1 3614 3
	la	a5,gShellDebug1HiiHandle
	ld	a3,0(a5)
	.loc 1 3620 17
	ld	a5,-72(s0)
	addi	a4,a5,16
	.loc 1 3620 42
	lla	a5,mConfigSpace
	ld	a5,0(a5)
	.loc 1 3614 3
	sub	a2,a4,a5
	.loc 1 3621 12
	ld	a5,-72(s0)
	lbu	a4,16(a5)
	lbu	a5,17(a5)
	slli	a5,a5,8
	or	a5,a5,a4
	slli	a5,a5,48
	srli	a5,a5,48
	.loc 1 3621 25
	sext.w	a5,a5
	slliw	a5,a5,16
	sext.w	a5,a5
	.loc 1 3614 3
	mv	a4,a5
	li	a5,-1048576
	and	a5,a4,a5
	sext.w	a5,a5
	mv	a6,a5
	mv	a5,a2
	mv	a4,a3
	li	a3,747
	li	a2,0
	li	a1,-1
	li	a0,-1
	call	ShellPrintHiiEx@plt
	.loc 1 3624 3
	la	a5,gShellDebug1HiiHandle
	ld	a3,0(a5)
	.loc 1 3630 12
	ld	a5,-72(s0)
	lbu	a4,18(a5)
	lbu	a5,19(a5)
	slli	a5,a5,8
	or	a5,a5,a4
	slli	a5,a5,48
	srli	a5,a5,48
	sext.w	a5,a5
	.loc 1 3630 26
	slliw	a5,a5,16
	sext.w	a4,a5
	.loc 1 3624 3
	li	a5,1048576
	addi	a5,a5,-1
	or	a5,a4,a5
	sext.w	a5,a5
	mv	a4,a3
	li	a3,746
	li	a2,0
	li	a1,-1
	li	a0,-1
	call	ShellPrintHiiEx@plt
	.loc 1 3636 3
	la	a5,gShellDebug1HiiHandle
	ld	a2,0(a5)
	.loc 1 3642 17
	ld	a5,-72(s0)
	addi	a4,a5,20
	.loc 1 3642 54
	lla	a5,mConfigSpace
	ld	a5,0(a5)
	.loc 1 3636 3
	sub	a1,a4,a5
	ld	a5,-72(s0)
	lbu	a4,24(a5)
	lbu	a3,25(a5)
	slli	a3,a3,8
	or	a4,a3,a4
	lbu	a3,26(a5)
	slli	a3,a3,16
	or	a4,a3,a4
	lbu	a5,27(a5)
	slli	a5,a5,24
	or	a5,a5,a4
	sext.w	a3,a5
	.loc 1 3644 12
	ld	a5,-72(s0)
	lbu	a4,20(a5)
	lbu	a5,21(a5)
	slli	a5,a5,8
	or	a5,a5,a4
	slli	a5,a5,48
	srli	a5,a5,48
	.loc 1 3644 37
	sext.w	a5,a5
	slliw	a5,a5,16
	sext.w	a5,a5
	.loc 1 3636 3
	mv	a4,a5
	li	a5,-1048576
	and	a5,a4,a5
	sext.w	a5,a5
	mv	a7,a5
	mv	a6,a3
	mv	a5,a1
	mv	a4,a2
	li	a3,748
	li	a2,0
	li	a1,-1
	li	a0,-1
	call	ShellPrintHiiEx@plt
	.loc 1 3647 3
	la	a5,gShellDebug1HiiHandle
	ld	a2,0(a5)
	ld	a5,-72(s0)
	lbu	a4,28(a5)
	lbu	a3,29(a5)
	slli	a3,a3,8
	or	a4,a3,a4
	lbu	a3,30(a5)
	slli	a3,a3,16
	or	a4,a3,a4
	lbu	a5,31(a5)
	slli	a5,a5,24
	or	a5,a5,a4
	sext.w	a3,a5
	.loc 1 3654 12
	ld	a5,-72(s0)
	lbu	a4,22(a5)
	lbu	a5,23(a5)
	slli	a5,a5,8
	or	a5,a5,a4
	slli	a5,a5,48
	srli	a5,a5,48
	sext.w	a5,a5
	.loc 1 3654 38
	slliw	a5,a5,16
	sext.w	a4,a5
	.loc 1 3647 3
	li	a5,1048576
	addi	a5,a5,-1
	or	a5,a4,a5
	sext.w	a5,a5
	mv	a6,a5
	mv	a5,a3
	mv	a4,a2
	li	a3,749
	li	a2,0
	li	a1,-1
	li	a0,-1
	call	ShellPrintHiiEx@plt
	.loc 1 3660 3
	la	a5,gShellDebug1HiiHandle
	ld	a3,0(a5)
	.loc 1 3666 6
	ld	a5,-72(s0)
	addi	a4,a5,36
	.loc 1 3666 45
	lla	a5,mConfigSpace
	ld	a5,0(a5)
	.loc 1 3660 3
	sub	a4,a4,a5
	.loc 1 3667 11
	ld	a5,-72(s0)
	lbu	a5,36(a5)
	.loc 1 3660 3
	sext.w	a5,a5
	mv	a6,a5
	mv	a5,a4
	mv	a4,a3
	li	a3,750
	li	a2,0
	li	a1,-1
	li	a0,-1
	call	ShellPrintHiiEx@plt
	.loc 1 3673 3
	ld	a5,-72(s0)
	addi	a5,a5,46
	li	a1,1
	mv	a0,a5
	call	PciExplainBridgeControl
	.loc 1 3678 3
	la	a5,gShellDebug1HiiHandle
	ld	a3,0(a5)
	.loc 1 3684 6
	ld	a5,-72(s0)
	addi	a4,a5,44
	.loc 1 3684 45
	lla	a5,mConfigSpace
	ld	a5,0(a5)
	.loc 1 3678 3
	sub	a4,a4,a5
	.loc 1 3685 11
	ld	a5,-72(s0)
	lbu	a5,44(a5)
	.loc 1 3678 3
	sext.w	a5,a5
	mv	a6,a5
	mv	a5,a4
	mv	a4,a3
	li	a3,751
	li	a2,0
	li	a1,-1
	li	a0,-1
	call	ShellPrintHiiEx@plt
	.loc 1 3688 3
	la	a5,gShellDebug1HiiHandle
	ld	a3,0(a5)
	.loc 1 3694 6
	ld	a5,-72(s0)
	addi	a4,a5,45
	.loc 1 3694 44
	lla	a5,mConfigSpace
	ld	a5,0(a5)
	.loc 1 3688 3
	sub	a4,a4,a5
	.loc 1 3695 11
	ld	a5,-72(s0)
	lbu	a5,45(a5)
	.loc 1 3688 3
	sext.w	a5,a5
	mv	a6,a5
	mv	a5,a4
	mv	a4,a3
	li	a3,681
	li	a2,0
	li	a1,-1
	li	a0,-1
	call	ShellPrintHiiEx@plt
	.loc 1 3698 10
	li	a5,0
	.loc 1 3699 1
	mv	a0,a5
	ld	ra,88(sp)
	.cfi_restore 1
	ld	s0,80(sp)
	.cfi_restore 8
	.cfi_def_cfa 2, 96
	addi	sp,sp,96
	.cfi_def_cfa_offset 0
	jr	ra
	.cfi_endproc
.LFE8:
	.size	PciExplainBridgeData, .-PciExplainBridgeData
	.section	.rodata
	.align	3
.LC268:
	.string	"I"
	.string	"/"
	.string	"O"
	.string	" "
	.string	" "
	.string	" "
	.string	" "
	.string	" "
	.string	" "
	.string	" "
	.string	" "
	.string	" "
	.string	" "
	.string	" "
	.string	" "
	.string	" "
	.string	" "
	.string	" "
	.string	" "
	.string	" "
	.string	" "
	.string	" "
	.string	" "
	.string	" "
	.string	" "
	.string	" "
	.string	" "
	.string	" "
	.string	" "
	.string	" "
	.string	" "
	.string	" "
	.string	" "
	.string	" "
	.zero	2
	.align	3
.LC269:
	.string	" "
	.string	" "
	.zero	2
	.section	.text.PciExplainBar,"ax",@progbits
	.align	1
	.globl	PciExplainBar
	.type	PciExplainBar, @function
PciExplainBar:
.LFB9:
	.loc 1 3720 1
	.cfi_startproc
	addi	sp,sp,-144
	.cfi_def_cfa_offset 144
	sd	ra,136(sp)
	sd	s0,128(sp)
	sd	s1,120(sp)
	.cfi_offset 1, -8
	.cfi_offset 8, -16
	.cfi_offset 9, -24
	addi	s0,sp,144
	.cfi_def_cfa 8, 0
	sd	a0,-104(s0)
	sd	a1,-112(s0)
	sd	a2,-120(s0)
	sd	a3,-128(s0)
	sd	a4,-136(s0)
	.loc 1 3732 11
	li	a5,1
	sb	a5,-34(s0)
	.loc 1 3733 9
	sd	zero,-64(s0)
	.loc 1 3734 12
	sw	zero,-72(s0)
	.loc 1 3735 12
	sd	zero,-88(s0)
	.loc 1 3741 8
	ld	a5,-104(s0)
	lw	a5,0(a5)
	.loc 1 3741 13
	andi	a5,a5,1
	sext.w	a5,a5
	.loc 1 3741 6
	bne	a5,zero,.L148
	.loc 1 3745 11
	li	a5,1
	sb	a5,-33(s0)
	.loc 1 3747 11
	ld	a5,-104(s0)
	lw	a5,0(a5)
	.loc 1 3747 16
	andi	a5,a5,2
	sext.w	a5,a5
	.loc 1 3747 8
	bne	a5,zero,.L149
	.loc 1 3747 41 discriminator 1
	ld	a5,-104(s0)
	lw	a5,0(a5)
	.loc 1 3747 46 discriminator 1
	andi	a5,a5,4
	sext.w	a5,a5
	.loc 1 3747 36 discriminator 1
	bne	a5,zero,.L149
	.loc 1 3748 7
	la	a5,gShellDebug1HiiHandle
	ld	a4,0(a5)
	.loc 1 3748 77
	ld	a5,-104(s0)
	lw	a5,0(a5)
	.loc 1 3748 7
	andi	a5,a5,-16
	sext.w	a5,a5
	li	a3,752
	li	a2,0
	li	a1,-1
	li	a0,-1
	call	ShellPrintHiiEx@plt
	.loc 1 3749 7
	la	a5,gShellDebug1HiiHandle
	ld	a5,0(a5)
	mv	a4,a5
	li	a3,753
	li	a2,0
	li	a1,-1
	li	a0,-1
	call	ShellPrintHiiEx@plt
	.loc 1 3750 7
	la	a5,gShellDebug1HiiHandle
	ld	a5,0(a5)
	mv	a4,a5
	li	a3,754
	li	a2,0
	li	a1,-1
	li	a0,-1
	call	ShellPrintHiiEx@plt
	j	.L150
.L149:
	.loc 1 3751 18
	ld	a5,-104(s0)
	lw	a5,0(a5)
	.loc 1 3751 23
	andi	a5,a5,2
	sext.w	a5,a5
	.loc 1 3751 15
	bne	a5,zero,.L151
	.loc 1 3751 48 discriminator 1
	ld	a5,-104(s0)
	lw	a5,0(a5)
	.loc 1 3751 53 discriminator 1
	andi	a5,a5,4
	sext.w	a5,a5
	.loc 1 3751 43 discriminator 1
	beq	a5,zero,.L151
	.loc 1 3752 13
	sd	zero,-64(s0)
	.loc 1 3753 7
	addi	a5,s0,-64
	li	a2,8
	ld	a1,-104(s0)
	mv	a0,a5
	call	CopyMem@plt
	.loc 1 3754 7
	la	a5,gShellDebug1HiiHandle
	ld	s1,0(a5)
	.loc 1 3754 85
	ld	a5,-64(s0)
	andi	a5,a5,-16
	li	a1,32
	mv	a0,a5
	call	RShiftU64@plt
	mv	a5,a0
	.loc 1 3754 7 discriminator 1
	sext.w	a5,a5
	mv	a4,s1
	li	a3,755
	li	a2,0
	li	a1,-1
	li	a0,-1
	call	ShellPrintHiiEx@plt
	.loc 1 3755 7
	la	a5,gShellDebug1HiiHandle
	ld	a4,0(a5)
	ld	a5,-64(s0)
	sext.w	a5,a5
	andi	a5,a5,-16
	sext.w	a5,a5
	li	a3,756
	li	a2,0
	li	a1,-1
	li	a0,-1
	call	ShellPrintHiiEx@plt
	.loc 1 3756 7
	la	a5,gShellDebug1HiiHandle
	ld	a5,0(a5)
	mv	a4,a5
	li	a3,753
	li	a2,0
	li	a1,-1
	li	a0,-1
	call	ShellPrintHiiEx@plt
	.loc 1 3757 7
	la	a5,gShellDebug1HiiHandle
	ld	a5,0(a5)
	mv	a4,a5
	li	a3,757
	li	a2,0
	li	a1,-1
	li	a0,-1
	call	ShellPrintHiiEx@plt
	.loc 1 3758 15
	sb	zero,-34(s0)
	.loc 1 3759 7
	ld	a5,-136(s0)
	ld	a5,0(a5)
	.loc 1 3759 14
	addi	a4,a5,1
	ld	a5,-136(s0)
	sd	a4,0(a5)
	j	.L150
.L151:
	.loc 1 3764 7
	la	a5,gShellDebug1HiiHandle
	ld	a4,0(a5)
	.loc 1 3764 77
	ld	a5,-104(s0)
	lw	a5,0(a5)
	.loc 1 3764 7
	andi	a5,a5,-16
	sext.w	a5,a5
	li	a3,752
	li	a2,0
	li	a1,-1
	li	a0,-1
	call	ShellPrintHiiEx@plt
	.loc 1 3765 7
	la	a5,gShellDebug1HiiHandle
	ld	a5,0(a5)
	mv	a4,a5
	li	a3,758
	li	a2,0
	li	a1,-1
	li	a0,-1
	call	ShellPrintHiiEx@plt
.L150:
	.loc 1 3768 10
	ld	a5,-104(s0)
	lw	a5,0(a5)
	.loc 1 3768 15
	andi	a5,a5,8
	sext.w	a5,a5
	.loc 1 3768 8
	bne	a5,zero,.L152
	.loc 1 3769 7
	la	a5,gShellDebug1HiiHandle
	ld	a5,0(a5)
	mv	a4,a5
	li	a3,704
	li	a2,0
	li	a1,-1
	li	a0,-1
	call	ShellPrintHiiEx@plt
	j	.L153
.L152:
	.loc 1 3771 7
	la	a5,gShellDebug1HiiHandle
	ld	a5,0(a5)
	mv	a4,a5
	li	a3,705
	li	a2,0
	li	a1,-1
	li	a0,-1
	call	ShellPrintHiiEx@plt
	j	.L153
.L148:
	.loc 1 3777 11
	sb	zero,-33(s0)
	.loc 1 3778 5
	la	a5,gShellDebug1HiiHandle
	ld	a4,0(a5)
	.loc 1 3778 75
	ld	a5,-104(s0)
	lw	a5,0(a5)
	.loc 1 3778 5
	andi	a5,a5,-4
	sext.w	a5,a5
	li	a3,706
	li	a2,0
	li	a1,-1
	li	a0,-1
	call	ShellPrintHiiEx@plt
	.loc 1 3779 5
	lla	a2,.LC268
	li	a1,-1
	li	a0,-1
	call	ShellPrintEx@plt
.L153:
	.loc 1 3792 16
	ld	a5,-112(s0)
	lhu	a5,0(a5)
	.loc 1 3792 14
	sh	a5,-50(s0)
	.loc 1 3793 16
	lhu	a5,-50(s0)
	andi	a5,a5,-4
	slli	a5,a5,48
	srli	a5,a5,48
	.loc 1 3793 14
	sh	a5,-52(s0)
	.loc 1 3794 49
	lla	a5,mConfigSpace
	ld	a5,0(a5)
	.loc 1 3794 47
	ld	a4,-112(s0)
	sub	a5,a4,a5
	mv	a4,a5
	.loc 1 3794 14
	ld	a5,-120(s0)
	or	a5,a5,a4
	sd	a5,-48(s0)
	.loc 1 3795 13
	ld	a5,-128(s0)
	ld	a5,64(a5)
	.loc 1 3795 3
	addi	a4,s0,-52
	li	a3,1
	ld	a2,-48(s0)
	li	a1,1
	ld	a0,-128(s0)
	jalr	a5
.LVL9:
	.loc 1 3797 45
	lla	a5,mConfigSpace
	ld	a5,0(a5)
	.loc 1 3797 43
	ld	a4,-104(s0)
	sub	a5,a4,a5
	mv	a4,a5
	.loc 1 3797 14
	ld	a5,-120(s0)
	or	a5,a5,a4
	sd	a5,-48(s0)
	.loc 1 3802 6
	lbu	a5,-34(s0)
	andi	a5,a5,0xff
	beq	a5,zero,.L154
	.loc 1 3803 16
	ld	a5,-104(s0)
	lw	a5,0(a5)
	.loc 1 3803 14
	sw	a5,-68(s0)
	.loc 1 3804 14
	li	a5,-1
	sw	a5,-72(s0)
	.loc 1 3806 15
	ld	a5,-128(s0)
	ld	a5,64(a5)
	.loc 1 3806 5
	addi	a4,s0,-72
	li	a3,1
	ld	a2,-48(s0)
	li	a1,2
	ld	a0,-128(s0)
	jalr	a5
.LVL10:
	.loc 1 3807 15
	ld	a5,-128(s0)
	ld	a5,56(a5)
	.loc 1 3807 5
	addi	a4,s0,-72
	li	a3,1
	ld	a2,-48(s0)
	li	a1,2
	ld	a0,-128(s0)
	jalr	a5
.LVL11:
	.loc 1 3808 15
	ld	a5,-128(s0)
	ld	a5,64(a5)
	.loc 1 3808 5
	addi	a4,s0,-68
	li	a3,1
	ld	a2,-48(s0)
	li	a1,2
	ld	a0,-128(s0)
	jalr	a5
.LVL12:
	.loc 1 3810 8
	lbu	a5,-33(s0)
	andi	a5,a5,0xff
	beq	a5,zero,.L155
	.loc 1 3811 27
	lw	a5,-72(s0)
	andi	a5,a5,-16
	sext.w	a5,a5
	.loc 1 3811 16
	sw	a5,-72(s0)
	.loc 1 3812 30
	lw	a5,-72(s0)
	negw	a5,a5
	sext.w	a5,a5
	.loc 1 3812 16
	sw	a5,-72(s0)
	j	.L156
.L155:
	.loc 1 3814 27
	lw	a5,-72(s0)
	andi	a5,a5,-4
	sext.w	a5,a5
	.loc 1 3814 16
	sw	a5,-72(s0)
	.loc 1 3815 30
	lw	a5,-72(s0)
	negw	a5,a5
	sext.w	a5,a5
	.loc 1 3815 16
	sw	a5,-72(s0)
	.loc 1 3816 27
	lw	a5,-72(s0)
	slli	a5,a5,48
	srli	a5,a5,48
	sext.w	a5,a5
	.loc 1 3816 16
	sw	a5,-72(s0)
	j	.L156
.L154:
	.loc 1 3819 14
	sd	zero,-80(s0)
	.loc 1 3820 5
	addi	a5,s0,-80
	li	a2,8
	ld	a1,-104(s0)
	mv	a0,a5
	call	CopyMem@plt
	.loc 1 3821 14
	li	a5,-1
	sd	a5,-88(s0)
	.loc 1 3823 15
	ld	a5,-128(s0)
	ld	a5,64(a5)
	.loc 1 3823 5
	addi	a4,s0,-88
	li	a3,2
	ld	a2,-48(s0)
	li	a1,2
	ld	a0,-128(s0)
	jalr	a5
.LVL13:
	.loc 1 3824 15
	ld	a5,-128(s0)
	ld	a5,56(a5)
	.loc 1 3824 5
	addi	a4,s0,-88
	li	a3,2
	ld	a2,-48(s0)
	li	a1,2
	ld	a0,-128(s0)
	jalr	a5
.LVL14:
	.loc 1 3825 15
	ld	a5,-128(s0)
	ld	a5,64(a5)
	.loc 1 3825 5
	addi	a4,s0,-80
	li	a3,2
	ld	a2,-48(s0)
	li	a1,2
	ld	a0,-128(s0)
	jalr	a5
.LVL15:
	.loc 1 3827 8
	lbu	a5,-33(s0)
	andi	a5,a5,0xff
	beq	a5,zero,.L157
	.loc 1 3828 27
	ld	a5,-88(s0)
	andi	a5,a5,-16
	.loc 1 3828 16
	sd	a5,-88(s0)
	.loc 1 3829 30
	ld	a5,-88(s0)
	neg	a5,a5
	.loc 1 3829 16
	sd	a5,-88(s0)
	j	.L156
.L157:
	.loc 1 3831 27
	ld	a5,-88(s0)
	andi	a5,a5,-4
	.loc 1 3831 16
	sd	a5,-88(s0)
	.loc 1 3832 30
	ld	a5,-88(s0)
	neg	a5,a5
	.loc 1 3832 16
	sd	a5,-88(s0)
	.loc 1 3833 27
	ld	a5,-88(s0)
	slli	a5,a5,48
	srli	a5,a5,48
	.loc 1 3833 16
	sd	a5,-88(s0)
.L156:
	.loc 1 3840 49
	lla	a5,mConfigSpace
	ld	a5,0(a5)
	.loc 1 3840 47
	ld	a4,-112(s0)
	sub	a5,a4,a5
	mv	a4,a5
	.loc 1 3840 14
	ld	a5,-120(s0)
	or	a5,a5,a4
	sd	a5,-48(s0)
	.loc 1 3841 13
	ld	a5,-128(s0)
	ld	a5,64(a5)
	.loc 1 3841 3
	addi	a4,s0,-50
	li	a3,1
	ld	a2,-48(s0)
	li	a1,1
	ld	a0,-128(s0)
	jalr	a5
.LVL16:
	.loc 1 3843 6
	lbu	a5,-33(s0)
	andi	a5,a5,0xff
	beq	a5,zero,.L158
	.loc 1 3844 8
	lbu	a5,-34(s0)
	andi	a5,a5,0xff
	beq	a5,zero,.L159
	.loc 1 3845 7
	la	a5,gShellDebug1HiiHandle
	ld	a4,0(a5)
	lw	a5,-72(s0)
	li	a3,707
	li	a2,0
	li	a1,-1
	li	a0,-1
	call	ShellPrintHiiEx@plt
	.loc 1 3846 7
	la	a5,gShellDebug1HiiHandle
	ld	a3,0(a5)
	.loc 1 3846 89
	ld	a5,-104(s0)
	lw	a5,0(a5)
	.loc 1 3846 94
	andi	a5,a5,-16
	sext.w	a4,a5
	.loc 1 3846 86
	lw	a5,-72(s0)
	addw	a5,a4,a5
	sext.w	a5,a5
	.loc 1 3846 7
	addiw	a5,a5,-1
	sext.w	a5,a5
	mv	a4,a3
	li	a3,708
	li	a2,0
	li	a1,-1
	li	a0,-1
	call	ShellPrintHiiEx@plt
	j	.L160
.L159:
	.loc 1 3848 7
	la	a5,gShellDebug1HiiHandle
	ld	s1,0(a5)
	.loc 1 3848 85
	ld	a5,-88(s0)
	li	a1,32
	mv	a0,a5
	call	RShiftU64@plt
	mv	a5,a0
	.loc 1 3848 7 discriminator 1
	sext.w	a5,a5
	mv	a4,s1
	li	a3,709
	li	a2,0
	li	a1,-1
	li	a0,-1
	call	ShellPrintHiiEx@plt
	.loc 1 3849 7
	la	a5,gShellDebug1HiiHandle
	ld	a4,0(a5)
	ld	a5,-88(s0)
	sext.w	a5,a5
	li	a3,709
	li	a2,0
	li	a1,-1
	li	a0,-1
	call	ShellPrintHiiEx@plt
	.loc 1 3850 7
	lla	a2,.LC269
	li	a1,-1
	li	a0,-1
	call	ShellPrintEx@plt
	.loc 1 3851 7
	la	a5,gShellDebug1HiiHandle
	ld	s1,0(a5)
	.loc 1 3857 47
	ld	a5,-64(s0)
	andi	a4,a5,-16
	.loc 1 3857 38
	ld	a5,-88(s0)
	add	a5,a4,a5
	.loc 1 3857 72
	addi	a5,a5,-1
	.loc 1 3857 17
	li	a1,32
	mv	a0,a5
	call	RShiftU64@plt
	mv	a5,a0
	.loc 1 3851 7
	sext.w	a5,a5
	mv	a4,s1
	li	a3,709
	li	a2,0
	li	a1,-1
	li	a0,-1
	call	ShellPrintHiiEx@plt
	.loc 1 3859 7
	la	a5,gShellDebug1HiiHandle
	ld	a3,0(a5)
	.loc 1 3859 95
	ld	a5,-88(s0)
	sext.w	a4,a5
	.loc 1 3859 104
	ld	a5,-64(s0)
	sext.w	a5,a5
	andi	a5,a5,-16
	sext.w	a5,a5
	.loc 1 3859 95
	addw	a5,a4,a5
	sext.w	a5,a5
	.loc 1 3859 7
	addiw	a5,a5,-1
	sext.w	a5,a5
	mv	a4,a3
	li	a3,709
	li	a2,0
	li	a1,-1
	li	a0,-1
	call	ShellPrintHiiEx@plt
	j	.L160
.L158:
	.loc 1 3862 5
	la	a5,gShellDebug1HiiHandle
	ld	a4,0(a5)
	lw	a5,-72(s0)
	li	a3,710
	li	a2,0
	li	a1,-1
	li	a0,-1
	call	ShellPrintHiiEx@plt
	.loc 1 3863 5
	la	a5,gShellDebug1HiiHandle
	ld	a3,0(a5)
	.loc 1 3863 87
	ld	a5,-104(s0)
	lw	a5,0(a5)
	.loc 1 3863 92
	andi	a5,a5,-4
	sext.w	a4,a5
	.loc 1 3863 84
	lw	a5,-72(s0)
	addw	a5,a4,a5
	sext.w	a5,a5
	.loc 1 3863 5
	addiw	a5,a5,-1
	sext.w	a5,a5
	mv	a4,a3
	li	a3,711
	li	a2,0
	li	a1,-1
	li	a0,-1
	call	ShellPrintHiiEx@plt
.L160:
	.loc 1 3866 10
	li	a5,0
	.loc 1 3867 1
	mv	a0,a5
	ld	ra,136(sp)
	.cfi_restore 1
	ld	s0,128(sp)
	.cfi_restore 8
	.cfi_def_cfa 2, 144
	ld	s1,120(sp)
	.cfi_restore 9
	addi	sp,sp,144
	.cfi_def_cfa_offset 0
	jr	ra
	.cfi_endproc
.LFE9:
	.size	PciExplainBar, .-PciExplainBar
	.section	.rodata
	.align	3
.LC270:
	.string	" "
	.string	" "
	.string	" "
	.string	" "
	.string	"P"
	.string	"r"
	.string	"e"
	.string	"f"
	.string	"e"
	.string	"t"
	.string	"c"
	.string	"h"
	.string	"a"
	.string	"b"
	.string	"l"
	.string	"e"
	.zero	2
	.align	3
.LC271:
	.string	"N"
	.string	"o"
	.string	"n"
	.string	"-"
	.string	"P"
	.string	"r"
	.string	"e"
	.string	"f"
	.string	"e"
	.string	"t"
	.string	"c"
	.string	"h"
	.string	"a"
	.string	"b"
	.string	"l"
	.string	"e"
	.zero	2
	.align	3
.LC272:
	.string	" "
	.string	" "
	.string	" "
	.string	" "
	.string	" "
	.string	" "
	.string	" "
	.string	" "
	.string	" "
	.string	" "
	.string	"3"
	.string	"2"
	.string	" "
	.string	"b"
	.string	"i"
	.string	"t"
	.zero	2
	.align	3
.LC273:
	.string	" "
	.string	" "
	.string	" "
	.string	" "
	.string	" "
	.string	" "
	.string	" "
	.string	" "
	.string	" "
	.string	" "
	.string	"1"
	.string	"6"
	.string	" "
	.string	"b"
	.string	"i"
	.string	"t"
	.zero	2
	.section	.text.PciExplainCardBusData,"ax",@progbits
	.align	1
	.globl	PciExplainCardBusData
	.type	PciExplainCardBusData, @function
PciExplainCardBusData:
.LFB10:
	.loc 1 3884 1
	.cfi_startproc
	addi	sp,sp,-80
	.cfi_def_cfa_offset 80
	sd	ra,72(sp)
	sd	s0,64(sp)
	.cfi_offset 1, -8
	.cfi_offset 8, -16
	addi	s0,sp,80
	.cfi_def_cfa 8, 0
	sd	a0,-40(s0)
	sd	a1,-48(s0)
	sd	a2,-56(s0)
	.loc 1 3888 3
	la	a5,gShellDebug1HiiHandle
	ld	a2,0(a5)
	.loc 1 3894 17
	ld	a4,-40(s0)
	.loc 1 3894 49
	lla	a5,mConfigSpace
	ld	a5,0(a5)
	.loc 1 3888 3
	sub	a1,a4,a5
	ld	a5,-40(s0)
	lbu	a4,0(a5)
	lbu	a3,1(a5)
	slli	a3,a3,8
	or	a4,a3,a4
	lbu	a3,2(a5)
	slli	a3,a3,16
	or	a4,a3,a4
	lbu	a5,3(a5)
	slli	a5,a5,24
	or	a5,a5,a4
	sext.w	a5,a5
	mv	a6,a5
	mv	a5,a1
	mv	a4,a2
	li	a3,712
	li	a2,0
	li	a1,-1
	li	a0,-1
	call	ShellPrintHiiEx@plt
	.loc 1 3901 3
	ld	a5,-40(s0)
	addi	a5,a5,6
	li	a2,2
	li	a1,0
	mv	a0,a5
	call	PciExplainStatus
	.loc 1 3907 3
	la	a5,gShellDebug1HiiHandle
	ld	a3,0(a5)
	.loc 1 3913 6
	ld	a5,-40(s0)
	addi	a4,a5,8
	.loc 1 3913 45
	lla	a5,mConfigSpace
	ld	a5,0(a5)
	.loc 1 3907 3
	sub	a2,a4,a5
	.loc 1 3914 6
	ld	a5,-40(s0)
	addi	a4,a5,9
	.loc 1 3914 49
	lla	a5,mConfigSpace
	ld	a5,0(a5)
	.loc 1 3907 3
	sub	a1,a4,a5
	.loc 1 3915 6
	ld	a5,-40(s0)
	addi	a4,a5,10
	.loc 1 3915 53
	lla	a5,mConfigSpace
	ld	a5,0(a5)
	.loc 1 3907 3
	sub	a5,a4,a5
	mv	a7,a5
	mv	a6,a1
	mv	a5,a2
	mv	a4,a3
	li	a3,713
	li	a2,0
	li	a1,-1
	li	a0,-1
	call	ShellPrintHiiEx@plt
	.loc 1 3918 3
	lla	a2,.LC266
	li	a1,-1
	li	a0,-1
	call	ShellPrintEx@plt
	.loc 1 3920 3
	la	a5,gShellDebug1HiiHandle
	ld	a4,0(a5)
	.loc 1 3920 80
	ld	a5,-40(s0)
	lbu	a5,8(a5)
	.loc 1 3920 3
	sext.w	a5,a5
	li	a3,714
	li	a2,0
	li	a1,-1
	li	a0,-1
	call	ShellPrintHiiEx@plt
	.loc 1 3921 3
	la	a5,gShellDebug1HiiHandle
	ld	a4,0(a5)
	.loc 1 3921 80
	ld	a5,-40(s0)
	lbu	a5,9(a5)
	.loc 1 3921 3
	sext.w	a5,a5
	li	a3,715
	li	a2,0
	li	a1,-1
	li	a0,-1
	call	ShellPrintHiiEx@plt
	.loc 1 3922 3
	la	a5,gShellDebug1HiiHandle
	ld	a4,0(a5)
	.loc 1 3922 80
	ld	a5,-40(s0)
	lbu	a5,10(a5)
	.loc 1 3922 3
	sext.w	a5,a5
	li	a3,716
	li	a2,0
	li	a1,-1
	li	a0,-1
	call	ShellPrintHiiEx@plt
	.loc 1 3927 3
	la	a5,gShellDebug1HiiHandle
	ld	a3,0(a5)
	.loc 1 3933 6
	ld	a5,-40(s0)
	addi	a4,a5,11
	.loc 1 3933 52
	lla	a5,mConfigSpace
	ld	a5,0(a5)
	.loc 1 3927 3
	sub	a4,a4,a5
	.loc 1 3934 12
	ld	a5,-40(s0)
	lbu	a5,11(a5)
	.loc 1 3927 3
	sext.w	a5,a5
	mv	a6,a5
	mv	a5,a4
	mv	a4,a3
	li	a3,691
	li	a2,0
	li	a1,-1
	li	a0,-1
	call	ShellPrintHiiEx@plt
	.loc 1 3940 3
	la	a5,gShellDebug1HiiHandle
	ld	a5,0(a5)
	mv	a4,a5
	li	a3,692
	li	a2,0
	li	a1,-1
	li	a0,-1
	call	ShellPrintHiiEx@plt
	.loc 1 3941 3
	lla	a2,.LC267
	li	a1,-1
	li	a0,-1
	call	ShellPrintEx@plt
	.loc 1 3943 3
	la	a5,gShellDebug1HiiHandle
	ld	a1,0(a5)
	.loc 1 3949 17
	ld	a5,-40(s0)
	addi	a4,a5,12
	.loc 1 3949 44
	lla	a5,mConfigSpace
	ld	a5,0(a5)
	.loc 1 3943 3
	sub	a0,a4,a5
	.loc 1 3950 12
	ld	a5,-40(s0)
	lbu	a4,46(a5)
	lbu	a5,47(a5)
	slli	a5,a5,8
	or	a5,a5,a4
	slli	a5,a5,48
	srli	a5,a5,48
	.loc 1 3950 28
	sext.w	a5,a5
	andi	a5,a5,256
	sext.w	a5,a5
	.loc 1 3943 3
	beq	a5,zero,.L163
	.loc 1 3943 3 is_stmt 0 discriminator 1
	lla	a4,.LC270
	j	.L164
.L163:
	.loc 1 3943 3 discriminator 2
	lla	a4,.LC271
.L164:
	.loc 1 3951 12 is_stmt 1
	ld	a5,-40(s0)
	lbu	a3,12(a5)
	lbu	a2,13(a5)
	slli	a2,a2,8
	or	a3,a2,a3
	lbu	a2,14(a5)
	slli	a2,a2,16
	or	a3,a2,a3
	lbu	a5,15(a5)
	slli	a5,a5,24
	or	a5,a5,a3
	sext.w	a5,a5
	.loc 1 3943 3
	mv	a3,a5
	li	a5,-4096
	and	a5,a3,a5
	sext.w	a6,a5
	.loc 1 3952 12
	ld	a5,-40(s0)
	lbu	a3,16(a5)
	lbu	a2,17(a5)
	slli	a2,a2,8
	or	a3,a2,a3
	lbu	a2,18(a5)
	slli	a2,a2,16
	or	a3,a2,a3
	lbu	a5,19(a5)
	slli	a5,a5,24
	or	a5,a5,a3
	sext.w	a5,a5
	.loc 1 3943 3
	mv	a3,a5
	li	a5,4096
	addi	a5,a5,-1
	or	a5,a3,a5
	sext.w	a5,a5
	sd	a5,0(sp)
	mv	a7,a6
	mv	a6,a4
	mv	a5,a0
	mv	a4,a1
	li	a3,693
	li	a2,0
	li	a1,-1
	li	a0,-1
	call	ShellPrintHiiEx@plt
	.loc 1 3955 3
	la	a5,gShellDebug1HiiHandle
	ld	a1,0(a5)
	.loc 1 3961 17
	ld	a5,-40(s0)
	addi	a4,a5,20
	.loc 1 3961 44
	lla	a5,mConfigSpace
	ld	a5,0(a5)
	.loc 1 3955 3
	sub	a0,a4,a5
	.loc 1 3962 12
	ld	a5,-40(s0)
	lbu	a4,46(a5)
	lbu	a5,47(a5)
	slli	a5,a5,8
	or	a5,a5,a4
	slli	a5,a5,48
	srli	a5,a5,48
	.loc 1 3962 28
	sext.w	a5,a5
	andi	a5,a5,512
	sext.w	a5,a5
	.loc 1 3955 3
	beq	a5,zero,.L165
	.loc 1 3955 3 is_stmt 0 discriminator 1
	lla	a4,.LC270
	j	.L166
.L165:
	.loc 1 3955 3 discriminator 2
	lla	a4,.LC271
.L166:
	.loc 1 3963 12 is_stmt 1
	ld	a5,-40(s0)
	lbu	a3,20(a5)
	lbu	a2,21(a5)
	slli	a2,a2,8
	or	a3,a2,a3
	lbu	a2,22(a5)
	slli	a2,a2,16
	or	a3,a2,a3
	lbu	a5,23(a5)
	slli	a5,a5,24
	or	a5,a5,a3
	sext.w	a5,a5
	.loc 1 3955 3
	mv	a3,a5
	li	a5,-4096
	and	a5,a3,a5
	sext.w	a6,a5
	.loc 1 3964 12
	ld	a5,-40(s0)
	lbu	a3,24(a5)
	lbu	a2,25(a5)
	slli	a2,a2,8
	or	a3,a2,a3
	lbu	a2,26(a5)
	slli	a2,a2,16
	or	a3,a2,a3
	lbu	a5,27(a5)
	slli	a5,a5,24
	or	a5,a5,a3
	sext.w	a5,a5
	.loc 1 3955 3
	mv	a3,a5
	li	a5,4096
	addi	a5,a5,-1
	or	a5,a3,a5
	sext.w	a5,a5
	sd	a5,0(sp)
	mv	a7,a6
	mv	a6,a4
	mv	a5,a0
	mv	a4,a1
	li	a3,693
	li	a2,0
	li	a1,-1
	li	a0,-1
	call	ShellPrintHiiEx@plt
	.loc 1 3967 30
	ld	a5,-40(s0)
	lbu	a4,28(a5)
	lbu	a3,29(a5)
	slli	a3,a3,8
	or	a4,a3,a4
	lbu	a3,30(a5)
	slli	a3,a3,16
	or	a4,a3,a4
	lbu	a5,31(a5)
	slli	a5,a5,24
	or	a5,a5,a4
	sext.w	a5,a5
	.loc 1 3967 13
	andi	a5,a5,0xff
	.loc 1 3967 11
	andi	a5,a5,1
	sb	a5,-17(s0)
	.loc 1 3968 3
	la	a5,gShellDebug1HiiHandle
	ld	a1,0(a5)
	.loc 1 3974 17
	ld	a5,-40(s0)
	addi	a4,a5,28
	.loc 1 3974 40
	lla	a5,mConfigSpace
	ld	a5,0(a5)
	.loc 1 3968 3
	sub	a0,a4,a5
	lbu	a5,-17(s0)
	andi	a5,a5,0xff
	beq	a5,zero,.L167
	.loc 1 3968 3 is_stmt 0 discriminator 1
	lla	a4,.LC272
	j	.L168
.L167:
	.loc 1 3968 3 discriminator 2
	lla	a4,.LC273
.L168:
	.loc 1 3976 12 is_stmt 1
	ld	a5,-40(s0)
	lbu	a3,28(a5)
	lbu	a2,29(a5)
	slli	a2,a2,8
	or	a3,a2,a3
	lbu	a2,30(a5)
	slli	a2,a2,16
	or	a3,a2,a3
	lbu	a5,31(a5)
	slli	a5,a5,24
	or	a5,a5,a3
	sext.w	a2,a5
	.loc 1 3976 46
	lbu	a5,-17(s0)
	andi	a5,a5,0xff
	beq	a5,zero,.L169
	.loc 1 3976 46 is_stmt 0 discriminator 1
	li	a5,-4
	j	.L170
.L169:
	.loc 1 3976 46 discriminator 2
	li	a5,65536
	addi	a5,a5,-4
.L170:
	.loc 1 3968 3 is_stmt 1
	mv	a3,a5
	mv	a5,a2
	and	a5,a3,a5
	sext.w	a6,a5
	.loc 1 3977 13
	ld	a5,-40(s0)
	lbu	a3,32(a5)
	lbu	a2,33(a5)
	slli	a2,a2,8
	or	a3,a2,a3
	lbu	a2,34(a5)
	slli	a2,a2,16
	or	a3,a2,a3
	lbu	a5,35(a5)
	slli	a5,a5,24
	or	a5,a5,a3
	sext.w	a2,a5
	.loc 1 3977 48
	lbu	a5,-17(s0)
	andi	a5,a5,0xff
	beq	a5,zero,.L171
	.loc 1 3977 48 is_stmt 0 discriminator 1
	li	a5,-1
	j	.L172
.L171:
	.loc 1 3977 48 discriminator 2
	li	a5,65536
	addi	a5,a5,-1
.L172:
	.loc 1 3977 24 is_stmt 1 discriminator 4
	mv	a3,a5
	mv	a5,a2
	and	a5,a3,a5
	sext.w	a5,a5
	.loc 1 3968 3
	ori	a5,a5,3
	sext.w	a5,a5
	sd	a5,0(sp)
	mv	a7,a6
	mv	a6,a4
	mv	a5,a0
	mv	a4,a1
	li	a3,694
	li	a2,0
	li	a1,-1
	li	a0,-1
	call	ShellPrintHiiEx@plt
	.loc 1 3980 30
	ld	a5,-40(s0)
	lbu	a4,36(a5)
	lbu	a3,37(a5)
	slli	a3,a3,8
	or	a4,a3,a4
	lbu	a3,38(a5)
	slli	a3,a3,16
	or	a4,a3,a4
	lbu	a5,39(a5)
	slli	a5,a5,24
	or	a5,a5,a4
	sext.w	a5,a5
	.loc 1 3980 13
	andi	a5,a5,0xff
	.loc 1 3980 11
	andi	a5,a5,1
	sb	a5,-17(s0)
	.loc 1 3981 3
	la	a5,gShellDebug1HiiHandle
	ld	a1,0(a5)
	.loc 1 3987 17
	ld	a5,-40(s0)
	addi	a4,a5,36
	.loc 1 3987 40
	lla	a5,mConfigSpace
	ld	a5,0(a5)
	.loc 1 3981 3
	sub	a0,a4,a5
	lbu	a5,-17(s0)
	andi	a5,a5,0xff
	beq	a5,zero,.L173
	.loc 1 3981 3 is_stmt 0 discriminator 1
	lla	a4,.LC272
	j	.L174
.L173:
	.loc 1 3981 3 discriminator 2
	lla	a4,.LC273
.L174:
	.loc 1 3989 12 is_stmt 1
	ld	a5,-40(s0)
	lbu	a3,36(a5)
	lbu	a2,37(a5)
	slli	a2,a2,8
	or	a3,a2,a3
	lbu	a2,38(a5)
	slli	a2,a2,16
	or	a3,a2,a3
	lbu	a5,39(a5)
	slli	a5,a5,24
	or	a5,a5,a3
	sext.w	a2,a5
	.loc 1 3989 46
	lbu	a5,-17(s0)
	andi	a5,a5,0xff
	beq	a5,zero,.L175
	.loc 1 3989 46 is_stmt 0 discriminator 1
	li	a5,-4
	j	.L176
.L175:
	.loc 1 3989 46 discriminator 2
	li	a5,65536
	addi	a5,a5,-4
.L176:
	.loc 1 3981 3 is_stmt 1
	mv	a3,a5
	mv	a5,a2
	and	a5,a3,a5
	sext.w	a6,a5
	.loc 1 3990 13
	ld	a5,-40(s0)
	lbu	a3,40(a5)
	lbu	a2,41(a5)
	slli	a2,a2,8
	or	a3,a2,a3
	lbu	a2,42(a5)
	slli	a2,a2,16
	or	a3,a2,a3
	lbu	a5,43(a5)
	slli	a5,a5,24
	or	a5,a5,a3
	sext.w	a2,a5
	.loc 1 3990 48
	lbu	a5,-17(s0)
	andi	a5,a5,0xff
	beq	a5,zero,.L177
	.loc 1 3990 48 is_stmt 0 discriminator 1
	li	a5,-1
	j	.L178
.L177:
	.loc 1 3990 48 discriminator 2
	li	a5,65536
	addi	a5,a5,-1
.L178:
	.loc 1 3990 24 is_stmt 1 discriminator 4
	mv	a3,a5
	mv	a5,a2
	and	a5,a3,a5
	sext.w	a5,a5
	.loc 1 3981 3
	ori	a5,a5,3
	sext.w	a5,a5
	sd	a5,0(sp)
	mv	a7,a6
	mv	a6,a4
	mv	a5,a0
	mv	a4,a1
	li	a3,694
	li	a2,0
	li	a1,-1
	li	a0,-1
	call	ShellPrintHiiEx@plt
	.loc 1 3996 3
	la	a5,gShellDebug1HiiHandle
	ld	a3,0(a5)
	.loc 1 4002 6
	ld	a5,-40(s0)
	addi	a4,a5,44
	.loc 1 4002 46
	lla	a5,mConfigSpace
	ld	a5,0(a5)
	.loc 1 3996 3
	sub	a2,a4,a5
	.loc 1 4003 12
	ld	a5,-40(s0)
	lbu	a5,44(a5)
	.loc 1 3996 3
	sext.w	a1,a5
	.loc 1 4004 6
	ld	a5,-40(s0)
	addi	a4,a5,45
	.loc 1 4004 45
	lla	a5,mConfigSpace
	ld	a5,0(a5)
	.loc 1 3996 3
	sub	a4,a4,a5
	.loc 1 4005 12
	ld	a5,-40(s0)
	lbu	a5,45(a5)
	.loc 1 3996 3
	sext.w	a5,a5
	sd	a5,0(sp)
	mv	a7,a4
	mv	a6,a1
	mv	a5,a2
	mv	a4,a3
	li	a3,695
	li	a2,0
	li	a1,-1
	li	a0,-1
	call	ShellPrintHiiEx@plt
	.loc 1 4011 3
	ld	a5,-40(s0)
	addi	a5,a5,46
	li	a1,2
	mv	a0,a5
	call	PciExplainBridgeControl
	.loc 1 4018 15
	ld	a5,-40(s0)
	addi	a5,a5,48
	sd	a5,-32(s0)
	.loc 1 4020 3
	la	a5,gShellDebug1HiiHandle
	ld	a3,0(a5)
	.loc 1 4026 17
	ld	a4,-32(s0)
	.loc 1 4026 48
	lla	a5,mConfigSpace
	ld	a5,0(a5)
	.loc 1 4020 3
	sub	a2,a4,a5
	.loc 1 4027 16
	ld	a5,-32(s0)
	lbu	a4,0(a5)
	lbu	a5,1(a5)
	slli	a5,a5,8
	or	a5,a5,a4
	slli	a5,a5,48
	srli	a5,a5,48
	.loc 1 4020 3
	sext.w	a1,a5
	.loc 1 4028 17
	ld	a5,-32(s0)
	addi	a4,a5,2
	.loc 1 4028 48
	lla	a5,mConfigSpace
	ld	a5,0(a5)
	.loc 1 4020 3
	sub	a0,a4,a5
	.loc 1 4029 16
	ld	a5,-32(s0)
	lbu	a4,2(a5)
	lbu	a5,3(a5)
	slli	a5,a5,8
	or	a5,a5,a4
	slli	a5,a5,48
	srli	a5,a5,48
	.loc 1 4020 3
	sext.w	a5,a5
	sd	a5,0(sp)
	mv	a7,a0
	mv	a6,a1
	mv	a5,a2
	mv	a4,a3
	li	a3,696
	li	a2,0
	li	a1,-1
	li	a0,-1
	call	ShellPrintHiiEx@plt
	.loc 1 4032 3
	la	a5,gShellDebug1HiiHandle
	ld	a2,0(a5)
	.loc 1 4038 17
	ld	a5,-32(s0)
	addi	a4,a5,4
	.loc 1 4038 47
	lla	a5,mConfigSpace
	ld	a5,0(a5)
	.loc 1 4032 3
	sub	a1,a4,a5
	ld	a5,-32(s0)
	lbu	a4,4(a5)
	lbu	a3,5(a5)
	slli	a3,a3,8
	or	a4,a3,a4
	lbu	a3,6(a5)
	slli	a3,a3,16
	or	a4,a3,a4
	lbu	a5,7(a5)
	slli	a5,a5,24
	or	a5,a5,a4
	sext.w	a5,a5
	mv	a6,a5
	mv	a5,a1
	mv	a4,a2
	li	a3,697
	li	a2,0
	li	a1,-1
	li	a0,-1
	call	ShellPrintHiiEx@plt
	.loc 1 4042 10
	li	a5,0
	.loc 1 4043 1
	mv	a0,a5
	ld	ra,72(sp)
	.cfi_restore 1
	ld	s0,64(sp)
	.cfi_restore 8
	.cfi_def_cfa 2, 80
	addi	sp,sp,80
	.cfi_def_cfa_offset 0
	jr	ra
	.cfi_endproc
.LFE10:
	.size	PciExplainCardBusData, .-PciExplainCardBusData
	.section	.text.PciExplainStatus,"ax",@progbits
	.align	1
	.globl	PciExplainStatus
	.type	PciExplainStatus, @function
PciExplainStatus:
.LFB11:
	.loc 1 4062 1
	.cfi_startproc
	addi	sp,sp,-32
	.cfi_def_cfa_offset 32
	sd	ra,24(sp)
	sd	s0,16(sp)
	.cfi_offset 1, -8
	.cfi_offset 8, -16
	addi	s0,sp,32
	.cfi_def_cfa 8, 0
	sd	a0,-24(s0)
	mv	a5,a1
	mv	a4,a2
	sb	a5,-25(s0)
	mv	a5,a4
	sw	a5,-32(s0)
	.loc 1 4063 6
	lbu	a5,-25(s0)
	andi	a5,a5,0xff
	beq	a5,zero,.L181
	.loc 1 4064 5
	la	a5,gShellDebug1HiiHandle
	ld	a3,0(a5)
	.loc 1 4064 97
	lla	a5,mConfigSpace
	ld	a5,0(a5)
	.loc 1 4064 5
	ld	a4,-24(s0)
	sub	a4,a4,a5
	.loc 1 4064 122
	ld	a5,-24(s0)
	lhu	a5,0(a5)
	.loc 1 4064 5
	sext.w	a5,a5
	mv	a6,a5
	mv	a5,a4
	mv	a4,a3
	li	a3,698
	li	a2,0
	li	a1,-1
	li	a0,-1
	call	ShellPrintHiiEx@plt
	j	.L182
.L181:
	.loc 1 4066 5
	la	a5,gShellDebug1HiiHandle
	ld	a3,0(a5)
	.loc 1 4066 97
	lla	a5,mConfigSpace
	ld	a5,0(a5)
	.loc 1 4066 5
	ld	a4,-24(s0)
	sub	a4,a4,a5
	.loc 1 4066 122
	ld	a5,-24(s0)
	lhu	a5,0(a5)
	.loc 1 4066 5
	sext.w	a5,a5
	mv	a6,a5
	mv	a5,a4
	mv	a4,a3
	li	a3,699
	li	a2,0
	li	a1,-1
	li	a0,-1
	call	ShellPrintHiiEx@plt
.L182:
	.loc 1 4069 3
	la	a5,gShellDebug1HiiHandle
	ld	a4,0(a5)
	.loc 1 4069 74
	ld	a5,-24(s0)
	lhu	a5,0(a5)
	.loc 1 4069 82
	sext.w	a5,a5
	andi	a5,a5,16
	sext.w	a5,a5
	.loc 1 4069 3
	srli	a5,a5,4
	andi	a5,a5,1
	andi	a5,a5,0xff
	sext.w	a5,a5
	li	a3,700
	li	a2,0
	li	a1,-1
	li	a0,-1
	call	ShellPrintHiiEx@plt
	.loc 1 4074 6
	lw	a5,-32(s0)
	sext.w	a4,a5
	li	a5,2
	bne	a4,a5,.L183
	.loc 1 4075 5
	la	a5,gShellDebug1HiiHandle
	ld	a4,0(a5)
	.loc 1 4075 76
	ld	a5,-24(s0)
	lhu	a5,0(a5)
	.loc 1 4075 84
	sext.w	a5,a5
	andi	a5,a5,32
	sext.w	a5,a5
	.loc 1 4075 5
	srli	a5,a5,5
	andi	a5,a5,1
	andi	a5,a5,0xff
	sext.w	a5,a5
	li	a3,701
	li	a2,0
	li	a1,-1
	li	a0,-1
	call	ShellPrintHiiEx@plt
	j	.L184
.L183:
	.loc 1 4077 5
	la	a5,gShellDebug1HiiHandle
	ld	a4,0(a5)
	.loc 1 4077 76
	ld	a5,-24(s0)
	lhu	a5,0(a5)
	.loc 1 4077 84
	sext.w	a5,a5
	andi	a5,a5,32
	sext.w	a5,a5
	.loc 1 4077 5
	srli	a5,a5,5
	andi	a5,a5,1
	andi	a5,a5,0xff
	sext.w	a5,a5
	li	a3,702
	li	a2,0
	li	a1,-1
	li	a0,-1
	call	ShellPrintHiiEx@plt
.L184:
	.loc 1 4080 3
	la	a5,gShellDebug1HiiHandle
	ld	a4,0(a5)
	.loc 1 4080 74
	ld	a5,-24(s0)
	lhu	a5,0(a5)
	.loc 1 4080 82
	sext.w	a5,a5
	andi	a5,a5,128
	sext.w	a5,a5
	.loc 1 4080 3
	srli	a5,a5,7
	andi	a5,a5,1
	andi	a5,a5,0xff
	sext.w	a5,a5
	li	a3,703
	li	a2,0
	li	a1,-1
	li	a0,-1
	call	ShellPrintHiiEx@plt
	.loc 1 4082 3
	la	a5,gShellDebug1HiiHandle
	ld	a4,0(a5)
	.loc 1 4082 74
	ld	a5,-24(s0)
	lhu	a5,0(a5)
	.loc 1 4082 82
	sext.w	a5,a5
	andi	a5,a5,256
	sext.w	a5,a5
	.loc 1 4082 3
	srli	a5,a5,8
	andi	a5,a5,1
	andi	a5,a5,0xff
	sext.w	a5,a5
	li	a3,717
	li	a2,0
	li	a1,-1
	li	a0,-1
	call	ShellPrintHiiEx@plt
	.loc 1 4086 3
	la	a5,gShellDebug1HiiHandle
	ld	a5,0(a5)
	mv	a4,a5
	li	a3,718
	li	a2,0
	li	a1,-1
	li	a0,-1
	call	ShellPrintHiiEx@plt
	.loc 1 4087 9
	ld	a5,-24(s0)
	lhu	a5,0(a5)
	.loc 1 4087 17
	sext.w	a5,a5
	andi	a5,a5,512
	sext.w	a5,a5
	.loc 1 4087 6
	bne	a5,zero,.L185
	.loc 1 4087 42 discriminator 1
	ld	a5,-24(s0)
	lhu	a5,0(a5)
	.loc 1 4087 50 discriminator 1
	sext.w	a5,a5
	andi	a5,a5,1024
	sext.w	a5,a5
	.loc 1 4087 37 discriminator 1
	bne	a5,zero,.L185
	.loc 1 4088 5
	la	a5,gShellDebug1HiiHandle
	ld	a5,0(a5)
	mv	a4,a5
	li	a3,719
	li	a2,0
	li	a1,-1
	li	a0,-1
	call	ShellPrintHiiEx@plt
	j	.L186
.L185:
	.loc 1 4089 16
	ld	a5,-24(s0)
	lhu	a5,0(a5)
	.loc 1 4089 24
	sext.w	a5,a5
	andi	a5,a5,512
	sext.w	a5,a5
	.loc 1 4089 13
	beq	a5,zero,.L187
	.loc 1 4089 49 discriminator 1
	ld	a5,-24(s0)
	lhu	a5,0(a5)
	.loc 1 4089 57 discriminator 1
	sext.w	a5,a5
	andi	a5,a5,1024
	sext.w	a5,a5
	.loc 1 4089 44 discriminator 1
	bne	a5,zero,.L187
	.loc 1 4090 5
	la	a5,gShellDebug1HiiHandle
	ld	a5,0(a5)
	mv	a4,a5
	li	a3,720
	li	a2,0
	li	a1,-1
	li	a0,-1
	call	ShellPrintHiiEx@plt
	j	.L186
.L187:
	.loc 1 4091 16
	ld	a5,-24(s0)
	lhu	a5,0(a5)
	.loc 1 4091 24
	sext.w	a5,a5
	andi	a5,a5,512
	sext.w	a5,a5
	.loc 1 4091 13
	bne	a5,zero,.L188
	.loc 1 4091 49 discriminator 1
	ld	a5,-24(s0)
	lhu	a5,0(a5)
	.loc 1 4091 57 discriminator 1
	sext.w	a5,a5
	andi	a5,a5,1024
	sext.w	a5,a5
	.loc 1 4091 44 discriminator 1
	beq	a5,zero,.L188
	.loc 1 4092 5
	la	a5,gShellDebug1HiiHandle
	ld	a5,0(a5)
	mv	a4,a5
	li	a3,721
	li	a2,0
	li	a1,-1
	li	a0,-1
	call	ShellPrintHiiEx@plt
	j	.L186
.L188:
	.loc 1 4094 5
	la	a5,gShellDebug1HiiHandle
	ld	a5,0(a5)
	mv	a4,a5
	li	a3,722
	li	a2,0
	li	a1,-1
	li	a0,-1
	call	ShellPrintHiiEx@plt
.L186:
	.loc 1 4097 3
	la	a5,gShellDebug1HiiHandle
	ld	a3,0(a5)
	.loc 1 4103 6
	ld	a5,-24(s0)
	lhu	a5,0(a5)
	.loc 1 4103 14
	sext.w	a4,a5
	li	a5,4096
	addi	a5,a5,-2048
	and	a5,a4,a5
	sext.w	a5,a5
	.loc 1 4097 3
	srli	a5,a5,11
	andi	a5,a5,1
	andi	a5,a5,0xff
	sext.w	a5,a5
	mv	a4,a3
	li	a3,723
	li	a2,0
	li	a1,-1
	li	a0,-1
	call	ShellPrintHiiEx@plt
	.loc 1 4106 3
	la	a5,gShellDebug1HiiHandle
	ld	a3,0(a5)
	.loc 1 4112 6
	ld	a5,-24(s0)
	lhu	a5,0(a5)
	.loc 1 4112 14
	sext.w	a4,a5
	li	a5,4096
	and	a5,a4,a5
	sext.w	a5,a5
	.loc 1 4106 3
	srli	a5,a5,12
	andi	a5,a5,1
	andi	a5,a5,0xff
	sext.w	a5,a5
	mv	a4,a3
	li	a3,724
	li	a2,0
	li	a1,-1
	li	a0,-1
	call	ShellPrintHiiEx@plt
	.loc 1 4115 3
	la	a5,gShellDebug1HiiHandle
	ld	a3,0(a5)
	.loc 1 4121 6
	ld	a5,-24(s0)
	lhu	a5,0(a5)
	.loc 1 4121 14
	sext.w	a4,a5
	li	a5,8192
	and	a5,a4,a5
	sext.w	a5,a5
	.loc 1 4115 3
	srli	a5,a5,13
	andi	a5,a5,1
	andi	a5,a5,0xff
	sext.w	a5,a5
	mv	a4,a3
	li	a3,725
	li	a2,0
	li	a1,-1
	li	a0,-1
	call	ShellPrintHiiEx@plt
	.loc 1 4124 6
	lbu	a5,-25(s0)
	andi	a5,a5,0xff
	beq	a5,zero,.L189
	.loc 1 4125 5
	la	a5,gShellDebug1HiiHandle
	ld	a3,0(a5)
	.loc 1 4131 8
	ld	a5,-24(s0)
	lhu	a5,0(a5)
	.loc 1 4131 16
	sext.w	a4,a5
	li	a5,16384
	and	a5,a4,a5
	sext.w	a5,a5
	.loc 1 4125 5
	srli	a5,a5,14
	andi	a5,a5,1
	andi	a5,a5,0xff
	sext.w	a5,a5
	mv	a4,a3
	li	a3,726
	li	a2,0
	li	a1,-1
	li	a0,-1
	call	ShellPrintHiiEx@plt
	j	.L190
.L189:
	.loc 1 4134 5
	la	a5,gShellDebug1HiiHandle
	ld	a3,0(a5)
	.loc 1 4140 8
	ld	a5,-24(s0)
	lhu	a5,0(a5)
	.loc 1 4140 16
	sext.w	a4,a5
	li	a5,16384
	and	a5,a4,a5
	sext.w	a5,a5
	.loc 1 4134 5
	srli	a5,a5,14
	andi	a5,a5,1
	andi	a5,a5,0xff
	sext.w	a5,a5
	mv	a4,a3
	li	a3,727
	li	a2,0
	li	a1,-1
	li	a0,-1
	call	ShellPrintHiiEx@plt
.L190:
	.loc 1 4144 3
	la	a5,gShellDebug1HiiHandle
	ld	a4,0(a5)
	.loc 1 4150 6
	ld	a5,-24(s0)
	lhu	a5,0(a5)
	.loc 1 4150 28
	slliw	a5,a5,16
	sraiw	a5,a5,16
	.loc 1 4144 3
	slliw	a5,a5,16
	srliw	a5,a5,16
	srliw	a5,a5,15
	andi	a5,a5,0xff
	sext.w	a5,a5
	li	a3,728
	li	a2,0
	li	a1,-1
	li	a0,-1
	call	ShellPrintHiiEx@plt
	.loc 1 4153 10
	li	a5,0
	.loc 1 4154 1
	mv	a0,a5
	ld	ra,24(sp)
	.cfi_restore 1
	ld	s0,16(sp)
	.cfi_restore 8
	.cfi_def_cfa 2, 32
	addi	sp,sp,32
	.cfi_def_cfa_offset 0
	jr	ra
	.cfi_endproc
.LFE11:
	.size	PciExplainStatus, .-PciExplainStatus
	.section	.text.PciExplainCommand,"ax",@progbits
	.align	1
	.globl	PciExplainCommand
	.type	PciExplainCommand, @function
PciExplainCommand:
.LFB12:
	.loc 1 4167 1
	.cfi_startproc
	addi	sp,sp,-32
	.cfi_def_cfa_offset 32
	sd	ra,24(sp)
	sd	s0,16(sp)
	.cfi_offset 1, -8
	.cfi_offset 8, -16
	addi	s0,sp,32
	.cfi_def_cfa 8, 0
	sd	a0,-24(s0)
	.loc 1 4171 3
	la	a5,gShellDebug1HiiHandle
	ld	a3,0(a5)
	.loc 1 4171 96
	lla	a5,mConfigSpace
	ld	a5,0(a5)
	.loc 1 4171 3
	ld	a4,-24(s0)
	sub	a4,a4,a5
	.loc 1 4171 121
	ld	a5,-24(s0)
	lhu	a5,0(a5)
	.loc 1 4171 3
	sext.w	a5,a5
	mv	a6,a5
	mv	a5,a4
	mv	a4,a3
	li	a3,729
	li	a2,0
	li	a1,-1
	li	a0,-1
	call	ShellPrintHiiEx@plt
	.loc 1 4176 3
	la	a5,gShellDebug1HiiHandle
	ld	a4,0(a5)
	.loc 1 4182 6
	ld	a5,-24(s0)
	lhu	a5,0(a5)
	.loc 1 4176 3
	sext.w	a5,a5
	.loc 1 4182 15
	andi	a5,a5,1
	sext.w	a5,a5
	.loc 1 4176 3
	li	a3,730
	li	a2,0
	li	a1,-1
	li	a0,-1
	call	ShellPrintHiiEx@plt
	.loc 1 4185 3
	la	a5,gShellDebug1HiiHandle
	ld	a4,0(a5)
	.loc 1 4191 6
	ld	a5,-24(s0)
	lhu	a5,0(a5)
	.loc 1 4191 15
	sext.w	a5,a5
	andi	a5,a5,2
	sext.w	a5,a5
	.loc 1 4185 3
	srli	a5,a5,1
	andi	a5,a5,1
	andi	a5,a5,0xff
	sext.w	a5,a5
	li	a3,731
	li	a2,0
	li	a1,-1
	li	a0,-1
	call	ShellPrintHiiEx@plt
	.loc 1 4194 3
	la	a5,gShellDebug1HiiHandle
	ld	a4,0(a5)
	.loc 1 4200 6
	ld	a5,-24(s0)
	lhu	a5,0(a5)
	.loc 1 4200 15
	sext.w	a5,a5
	andi	a5,a5,4
	sext.w	a5,a5
	.loc 1 4194 3
	srli	a5,a5,2
	andi	a5,a5,1
	andi	a5,a5,0xff
	sext.w	a5,a5
	li	a3,732
	li	a2,0
	li	a1,-1
	li	a0,-1
	call	ShellPrintHiiEx@plt
	.loc 1 4203 3
	la	a5,gShellDebug1HiiHandle
	ld	a4,0(a5)
	.loc 1 4209 6
	ld	a5,-24(s0)
	lhu	a5,0(a5)
	.loc 1 4209 15
	sext.w	a5,a5
	andi	a5,a5,8
	sext.w	a5,a5
	.loc 1 4203 3
	srli	a5,a5,3
	andi	a5,a5,1
	andi	a5,a5,0xff
	sext.w	a5,a5
	li	a3,733
	li	a2,0
	li	a1,-1
	li	a0,-1
	call	ShellPrintHiiEx@plt
	.loc 1 4212 3
	la	a5,gShellDebug1HiiHandle
	ld	a4,0(a5)
	.loc 1 4218 6
	ld	a5,-24(s0)
	lhu	a5,0(a5)
	.loc 1 4218 15
	sext.w	a5,a5
	andi	a5,a5,16
	sext.w	a5,a5
	.loc 1 4212 3
	srli	a5,a5,4
	andi	a5,a5,1
	andi	a5,a5,0xff
	sext.w	a5,a5
	li	a3,734
	li	a2,0
	li	a1,-1
	li	a0,-1
	call	ShellPrintHiiEx@plt
	.loc 1 4221 3
	la	a5,gShellDebug1HiiHandle
	ld	a4,0(a5)
	.loc 1 4227 6
	ld	a5,-24(s0)
	lhu	a5,0(a5)
	.loc 1 4227 15
	sext.w	a5,a5
	andi	a5,a5,32
	sext.w	a5,a5
	.loc 1 4221 3
	srli	a5,a5,5
	andi	a5,a5,1
	andi	a5,a5,0xff
	sext.w	a5,a5
	li	a3,735
	li	a2,0
	li	a1,-1
	li	a0,-1
	call	ShellPrintHiiEx@plt
	.loc 1 4230 3
	la	a5,gShellDebug1HiiHandle
	ld	a4,0(a5)
	.loc 1 4236 6
	ld	a5,-24(s0)
	lhu	a5,0(a5)
	.loc 1 4236 15
	sext.w	a5,a5
	andi	a5,a5,64
	sext.w	a5,a5
	.loc 1 4230 3
	srli	a5,a5,6
	andi	a5,a5,1
	andi	a5,a5,0xff
	sext.w	a5,a5
	li	a3,736
	li	a2,0
	li	a1,-1
	li	a0,-1
	call	ShellPrintHiiEx@plt
	.loc 1 4239 3
	la	a5,gShellDebug1HiiHandle
	ld	a4,0(a5)
	.loc 1 4245 6
	ld	a5,-24(s0)
	lhu	a5,0(a5)
	.loc 1 4245 15
	sext.w	a5,a5
	andi	a5,a5,128
	sext.w	a5,a5
	.loc 1 4239 3
	srli	a5,a5,7
	andi	a5,a5,1
	andi	a5,a5,0xff
	sext.w	a5,a5
	li	a3,737
	li	a2,0
	li	a1,-1
	li	a0,-1
	call	ShellPrintHiiEx@plt
	.loc 1 4248 3
	la	a5,gShellDebug1HiiHandle
	ld	a4,0(a5)
	.loc 1 4254 6
	ld	a5,-24(s0)
	lhu	a5,0(a5)
	.loc 1 4254 15
	sext.w	a5,a5
	andi	a5,a5,256
	sext.w	a5,a5
	.loc 1 4248 3
	srli	a5,a5,8
	andi	a5,a5,1
	andi	a5,a5,0xff
	sext.w	a5,a5
	li	a3,738
	li	a2,0
	li	a1,-1
	li	a0,-1
	call	ShellPrintHiiEx@plt
	.loc 1 4257 3
	la	a5,gShellDebug1HiiHandle
	ld	a4,0(a5)
	.loc 1 4263 6
	ld	a5,-24(s0)
	lhu	a5,0(a5)
	.loc 1 4263 15
	sext.w	a5,a5
	andi	a5,a5,512
	sext.w	a5,a5
	.loc 1 4257 3
	srli	a5,a5,9
	andi	a5,a5,1
	andi	a5,a5,0xff
	sext.w	a5,a5
	li	a3,739
	li	a2,0
	li	a1,-1
	li	a0,-1
	call	ShellPrintHiiEx@plt
	.loc 1 4266 10
	li	a5,0
	.loc 1 4267 1
	mv	a0,a5
	ld	ra,24(sp)
	.cfi_restore 1
	ld	s0,16(sp)
	.cfi_restore 8
	.cfi_def_cfa 2, 32
	addi	sp,sp,32
	.cfi_def_cfa_offset 0
	jr	ra
	.cfi_endproc
.LFE12:
	.size	PciExplainCommand, .-PciExplainCommand
	.section	.rodata
	.align	3
.LC274:
	.string	"2"
	.string	"^"
	.string	"1"
	.string	"0"
	.zero	2
	.align	3
.LC275:
	.string	"2"
	.string	"^"
	.string	"1"
	.string	"5"
	.zero	2
	.section	.text.PciExplainBridgeControl,"ax",@progbits
	.align	1
	.globl	PciExplainBridgeControl
	.type	PciExplainBridgeControl, @function
PciExplainBridgeControl:
.LFB13:
	.loc 1 4282 1
	.cfi_startproc
	addi	sp,sp,-32
	.cfi_def_cfa_offset 32
	sd	ra,24(sp)
	sd	s0,16(sp)
	.cfi_offset 1, -8
	.cfi_offset 8, -16
	addi	s0,sp,32
	.cfi_def_cfa 8, 0
	sd	a0,-24(s0)
	mv	a5,a1
	sw	a5,-28(s0)
	.loc 1 4283 3
	la	a5,gShellDebug1HiiHandle
	ld	a3,0(a5)
	.loc 1 4289 34
	lla	a5,mConfigSpace
	ld	a5,0(a5)
	.loc 1 4283 3
	ld	a4,-24(s0)
	sub	a4,a4,a5
	.loc 1 4290 5
	ld	a5,-24(s0)
	lhu	a5,0(a5)
	.loc 1 4283 3
	sext.w	a5,a5
	mv	a6,a5
	mv	a5,a4
	mv	a4,a3
	li	a3,740
	li	a2,0
	li	a1,-1
	li	a0,-1
	call	ShellPrintHiiEx@plt
	.loc 1 4293 3
	la	a5,gShellDebug1HiiHandle
	ld	a4,0(a5)
	.loc 1 4299 6
	ld	a5,-24(s0)
	lhu	a5,0(a5)
	.loc 1 4293 3
	sext.w	a5,a5
	.loc 1 4299 21
	andi	a5,a5,1
	sext.w	a5,a5
	.loc 1 4293 3
	li	a3,741
	li	a2,0
	li	a1,-1
	li	a0,-1
	call	ShellPrintHiiEx@plt
	.loc 1 4301 3
	la	a5,gShellDebug1HiiHandle
	ld	a4,0(a5)
	.loc 1 4307 6
	ld	a5,-24(s0)
	lhu	a5,0(a5)
	.loc 1 4307 21
	sext.w	a5,a5
	andi	a5,a5,2
	sext.w	a5,a5
	.loc 1 4301 3
	srli	a5,a5,1
	andi	a5,a5,1
	andi	a5,a5,0xff
	sext.w	a5,a5
	li	a3,742
	li	a2,0
	li	a1,-1
	li	a0,-1
	call	ShellPrintHiiEx@plt
	.loc 1 4309 3
	la	a5,gShellDebug1HiiHandle
	ld	a4,0(a5)
	.loc 1 4315 6
	ld	a5,-24(s0)
	lhu	a5,0(a5)
	.loc 1 4315 21
	sext.w	a5,a5
	andi	a5,a5,4
	sext.w	a5,a5
	.loc 1 4309 3
	srli	a5,a5,2
	andi	a5,a5,1
	andi	a5,a5,0xff
	sext.w	a5,a5
	li	a3,743
	li	a2,0
	li	a1,-1
	li	a0,-1
	call	ShellPrintHiiEx@plt
	.loc 1 4317 3
	la	a5,gShellDebug1HiiHandle
	ld	a4,0(a5)
	.loc 1 4323 6
	ld	a5,-24(s0)
	lhu	a5,0(a5)
	.loc 1 4323 21
	sext.w	a5,a5
	andi	a5,a5,8
	sext.w	a5,a5
	.loc 1 4317 3
	srli	a5,a5,3
	andi	a5,a5,1
	andi	a5,a5,0xff
	sext.w	a5,a5
	li	a3,759
	li	a2,0
	li	a1,-1
	li	a0,-1
	call	ShellPrintHiiEx@plt
	.loc 1 4325 3
	la	a5,gShellDebug1HiiHandle
	ld	a4,0(a5)
	.loc 1 4331 6
	ld	a5,-24(s0)
	lhu	a5,0(a5)
	.loc 1 4331 21
	sext.w	a5,a5
	andi	a5,a5,32
	sext.w	a5,a5
	.loc 1 4325 3
	srli	a5,a5,5
	andi	a5,a5,1
	andi	a5,a5,0xff
	sext.w	a5,a5
	li	a3,760
	li	a2,0
	li	a1,-1
	li	a0,-1
	call	ShellPrintHiiEx@plt
	.loc 1 4338 6
	lw	a5,-28(s0)
	sext.w	a4,a5
	li	a5,1
	bne	a4,a5,.L195
	.loc 1 4339 5
	la	a5,gShellDebug1HiiHandle
	ld	a4,0(a5)
	.loc 1 4345 8
	ld	a5,-24(s0)
	lhu	a5,0(a5)
	.loc 1 4345 23
	sext.w	a5,a5
	andi	a5,a5,64
	sext.w	a5,a5
	.loc 1 4339 5
	srli	a5,a5,6
	andi	a5,a5,1
	andi	a5,a5,0xff
	sext.w	a5,a5
	li	a3,761
	li	a2,0
	li	a1,-1
	li	a0,-1
	call	ShellPrintHiiEx@plt
	.loc 1 4347 5
	la	a5,gShellDebug1HiiHandle
	ld	a4,0(a5)
	.loc 1 4353 8
	ld	a5,-24(s0)
	lhu	a5,0(a5)
	.loc 1 4353 23
	sext.w	a5,a5
	andi	a5,a5,128
	sext.w	a5,a5
	.loc 1 4347 5
	srli	a5,a5,7
	andi	a5,a5,1
	andi	a5,a5,0xff
	sext.w	a5,a5
	li	a3,762
	li	a2,0
	li	a1,-1
	li	a0,-1
	call	ShellPrintHiiEx@plt
	.loc 1 4355 5
	la	a5,gShellDebug1HiiHandle
	ld	a4,0(a5)
	.loc 1 4361 8
	ld	a5,-24(s0)
	lhu	a5,0(a5)
	.loc 1 4361 23
	sext.w	a5,a5
	andi	a5,a5,256
	sext.w	a5,a5
	.loc 1 4355 5
	beq	a5,zero,.L196
	.loc 1 4355 5 is_stmt 0 discriminator 1
	lla	a5,.LC274
	j	.L197
.L196:
	.loc 1 4355 5 discriminator 2
	lla	a5,.LC275
.L197:
	.loc 1 4355 5 discriminator 4
	li	a3,763
	li	a2,0
	li	a1,-1
	li	a0,-1
	call	ShellPrintHiiEx@plt
	.loc 1 4363 5 is_stmt 1
	la	a5,gShellDebug1HiiHandle
	ld	a4,0(a5)
	.loc 1 4369 8
	ld	a5,-24(s0)
	lhu	a5,0(a5)
	.loc 1 4369 23
	sext.w	a5,a5
	andi	a5,a5,512
	sext.w	a5,a5
	.loc 1 4363 5
	beq	a5,zero,.L198
	.loc 1 4363 5 is_stmt 0 discriminator 1
	lla	a5,.LC274
	j	.L199
.L198:
	.loc 1 4363 5 discriminator 2
	lla	a5,.LC275
.L199:
	.loc 1 4363 5 discriminator 4
	li	a3,764
	li	a2,0
	li	a1,-1
	li	a0,-1
	call	ShellPrintHiiEx@plt
	.loc 1 4371 5 is_stmt 1
	la	a5,gShellDebug1HiiHandle
	ld	a4,0(a5)
	.loc 1 4377 8
	ld	a5,-24(s0)
	lhu	a5,0(a5)
	.loc 1 4377 23
	sext.w	a5,a5
	andi	a5,a5,1024
	sext.w	a5,a5
	.loc 1 4371 5
	srli	a5,a5,10
	andi	a5,a5,1
	andi	a5,a5,0xff
	sext.w	a5,a5
	li	a3,765
	li	a2,0
	li	a1,-1
	li	a0,-1
	call	ShellPrintHiiEx@plt
	.loc 1 4379 5
	la	a5,gShellDebug1HiiHandle
	ld	a3,0(a5)
	.loc 1 4385 8
	ld	a5,-24(s0)
	lhu	a5,0(a5)
	.loc 1 4385 23
	sext.w	a4,a5
	li	a5,4096
	addi	a5,a5,-2048
	and	a5,a4,a5
	sext.w	a5,a5
	.loc 1 4379 5
	srli	a5,a5,11
	andi	a5,a5,1
	andi	a5,a5,0xff
	sext.w	a5,a5
	mv	a4,a3
	li	a3,766
	li	a2,0
	li	a1,-1
	li	a0,-1
	call	ShellPrintHiiEx@plt
	j	.L200
.L195:
	.loc 1 4388 5
	la	a5,gShellDebug1HiiHandle
	ld	a4,0(a5)
	.loc 1 4394 8
	ld	a5,-24(s0)
	lhu	a5,0(a5)
	.loc 1 4394 23
	sext.w	a5,a5
	andi	a5,a5,64
	sext.w	a5,a5
	.loc 1 4388 5
	srli	a5,a5,6
	andi	a5,a5,1
	andi	a5,a5,0xff
	sext.w	a5,a5
	li	a3,767
	li	a2,0
	li	a1,-1
	li	a0,-1
	call	ShellPrintHiiEx@plt
	.loc 1 4396 5
	la	a5,gShellDebug1HiiHandle
	ld	a4,0(a5)
	.loc 1 4402 8
	ld	a5,-24(s0)
	lhu	a5,0(a5)
	.loc 1 4402 23
	sext.w	a5,a5
	andi	a5,a5,128
	sext.w	a5,a5
	.loc 1 4396 5
	srli	a5,a5,7
	andi	a5,a5,1
	andi	a5,a5,0xff
	sext.w	a5,a5
	li	a3,768
	li	a2,0
	li	a1,-1
	li	a0,-1
	call	ShellPrintHiiEx@plt
	.loc 1 4404 5
	la	a5,gShellDebug1HiiHandle
	ld	a4,0(a5)
	.loc 1 4410 8
	ld	a5,-24(s0)
	lhu	a5,0(a5)
	.loc 1 4410 23
	sext.w	a5,a5
	andi	a5,a5,1024
	sext.w	a5,a5
	.loc 1 4404 5
	srli	a5,a5,10
	andi	a5,a5,1
	andi	a5,a5,0xff
	sext.w	a5,a5
	li	a3,769
	li	a2,0
	li	a1,-1
	li	a0,-1
	call	ShellPrintHiiEx@plt
.L200:
	.loc 1 4414 10
	li	a5,0
	.loc 1 4415 1
	mv	a0,a5
	ld	ra,24(sp)
	.cfi_restore 1
	ld	s0,16(sp)
	.cfi_restore 8
	.cfi_def_cfa 2, 32
	addi	sp,sp,32
	.cfi_def_cfa_offset 0
	jr	ra
	.cfi_endproc
.LFE13:
	.size	PciExplainBridgeControl, .-PciExplainBridgeControl
	.section	.text.LocatePciCapability,"ax",@progbits
	.align	1
	.globl	LocatePciCapability
	.type	LocatePciCapability, @function
LocatePciCapability:
.LFB14:
	.loc 1 4431 1
	.cfi_startproc
	addi	sp,sp,-48
	.cfi_def_cfa_offset 48
	sd	ra,40(sp)
	sd	s0,32(sp)
	.cfi_offset 1, -8
	.cfi_offset 8, -16
	addi	s0,sp,48
	.cfi_def_cfa 8, 0
	sd	a0,-40(s0)
	mv	a5,a1
	sb	a5,-41(s0)
	.loc 1 4438 27
	ld	a5,-40(s0)
	lbu	a4,6(a5)
	lbu	a5,7(a5)
	slli	a5,a5,8
	or	a5,a5,a4
	slli	a5,a5,48
	srli	a5,a5,48
	.loc 1 4438 35
	sext.w	a5,a5
	andi	a5,a5,16
	sext.w	a5,a5
	.loc 1 4438 6
	bne	a5,zero,.L203
	.loc 1 4439 12
	li	a5,0
	j	.L204
.L203:
	.loc 1 4442 48
	ld	a5,-40(s0)
	lbu	a5,14(a5)
	.loc 1 4442 11
	sext.w	a5,a5
	andi	a5,a5,127
	sext.w	a5,a5
	.loc 1 4442 3
	li	a4,2
	beq	a5,a4,.L205
	li	a4,2
	bgtu	a5,a4,.L206
	beq	a5,zero,.L207
	li	a4,1
	beq	a5,a4,.L208
	j	.L206
.L207:
	.loc 1 4444 21
	ld	a5,-40(s0)
	lbu	a5,52(a5)
	sb	a5,-17(s0)
	.loc 1 4445 7
	j	.L209
.L208:
	.loc 1 4447 21
	ld	a5,-40(s0)
	lbu	a5,52(a5)
	sb	a5,-17(s0)
	.loc 1 4448 7
	j	.L209
.L205:
	.loc 1 4450 21
	ld	a5,-40(s0)
	lbu	a5,20(a5)
	sb	a5,-17(s0)
	.loc 1 4451 7
	j	.L209
.L206:
	.loc 1 4453 14
	li	a5,0
	j	.L204
.L209:
	.loc 1 4456 9
	j	.L210
.L214:
	.loc 1 4457 23
	lbu	a5,-17(s0)
	.loc 1 4457 21
	ld	a4,-40(s0)
	add	a5,a4,a5
	sd	a5,-32(s0)
	.loc 1 4458 24
	ld	a5,-32(s0)
	lbu	a4,0(a5)
	.loc 1 4458 8
	lbu	a5,-41(s0)
	andi	a5,a5,0xff
	bne	a5,a4,.L211
	.loc 1 4459 14
	lbu	a5,-17(s0)
	j	.L204
.L211:
	.loc 1 4466 41
	ld	a5,-32(s0)
	lbu	a4,1(a5)
	.loc 1 4466 8
	lbu	a5,-17(s0)
	andi	a5,a5,0xff
	beq	a5,a4,.L215
	.loc 1 4470 19
	ld	a5,-32(s0)
	lbu	a5,1(a5)
	sb	a5,-17(s0)
.L210:
	.loc 1 4456 34
	lbu	a5,-17(s0)
	andi	a4,a5,0xff
	li	a5,63
	bleu	a4,a5,.L213
	.loc 1 4456 53 discriminator 1
	lbu	a5,-17(s0)
	sext.w	a5,a5
	andi	a5,a5,3
	sext.w	a5,a5
	.loc 1 4456 34 discriminator 1
	beq	a5,zero,.L214
	j	.L213
.L215:
	.loc 1 4467 7
	nop
.L213:
	.loc 1 4473 10
	li	a5,0
.L204:
	.loc 1 4474 1
	mv	a0,a5
	ld	ra,40(sp)
	.cfi_restore 1
	ld	s0,32(sp)
	.cfi_restore 8
	.cfi_def_cfa 2, 48
	addi	sp,sp,48
	.cfi_def_cfa_offset 0
	jr	ra
	.cfi_endproc
.LFE14:
	.size	LocatePciCapability, .-LocatePciCapability
	.section	.rodata
	.align	3
.LC276:
	.string	" "
	.string	" "
	.string	"C"
	.string	"a"
	.string	"p"
	.string	"a"
	.string	"b"
	.string	"i"
	.string	"l"
	.string	"i"
	.string	"t"
	.string	"y"
	.string	" "
	.string	"V"
	.string	"e"
	.string	"r"
	.string	"s"
	.string	"i"
	.string	"o"
	.string	"n"
	.string	"("
	.string	"3"
	.string	":"
	.string	"0"
	.string	")"
	.string	":"
	.string	" "
	.string	" "
	.string	" "
	.string	" "
	.string	" "
	.string	" "
	.string	" "
	.string	" "
	.string	" "
	.string	" "
	.string	"%"
	.string	"E"
	.string	"0"
	.string	"x"
	.string	"%"
	.string	"0"
	.string	"4"
	.string	"x"
	.string	"%"
	.string	"N"
	.string	"\r"
	.string	"\n"
	.zero	2
	.align	3
.LC277:
	.string	" "
	.string	" "
	.string	"D"
	.string	"e"
	.string	"v"
	.string	"i"
	.string	"c"
	.string	"e"
	.string	"/"
	.string	"P"
	.string	"o"
	.string	"r"
	.string	"t"
	.string	"T"
	.string	"y"
	.string	"p"
	.string	"e"
	.string	"("
	.string	"7"
	.string	":"
	.string	"4"
	.string	")"
	.string	":"
	.string	" "
	.string	" "
	.string	" "
	.string	" "
	.string	" "
	.string	" "
	.string	" "
	.string	" "
	.string	" "
	.string	" "
	.string	" "
	.string	" "
	.string	" "
	.string	"%"
	.string	"E"
	.string	"%"
	.string	"s"
	.string	"%"
	.string	"N"
	.string	"\r"
	.string	"\n"
	.zero	2
	.align	3
.LC278:
	.string	" "
	.string	" "
	.string	"S"
	.string	"l"
	.string	"o"
	.string	"t"
	.string	" "
	.string	"I"
	.string	"m"
	.string	"p"
	.string	"l"
	.string	"e"
	.string	"m"
	.string	"e"
	.string	"n"
	.string	"t"
	.string	"e"
	.string	"d"
	.string	"("
	.string	"8"
	.string	")"
	.string	":"
	.string	" "
	.string	" "
	.string	" "
	.string	" "
	.string	" "
	.string	" "
	.string	" "
	.string	" "
	.string	" "
	.string	" "
	.string	" "
	.string	" "
	.string	" "
	.string	" "
	.string	"%"
	.string	"E"
	.string	"%"
	.string	"d"
	.string	"%"
	.string	"N"
	.string	"\r"
	.string	"\n"
	.zero	2
	.align	3
.LC279:
	.string	" "
	.string	" "
	.string	"I"
	.string	"n"
	.string	"t"
	.string	"e"
	.string	"r"
	.string	"r"
	.string	"u"
	.string	"p"
	.string	"t"
	.string	" "
	.string	"M"
	.string	"e"
	.string	"s"
	.string	"s"
	.string	"a"
	.string	"g"
	.string	"e"
	.string	" "
	.string	"N"
	.string	"u"
	.string	"m"
	.string	"b"
	.string	"e"
	.string	"r"
	.string	"("
	.string	"1"
	.string	"3"
	.string	":"
	.string	"9"
	.string	")"
	.string	":"
	.string	" "
	.string	" "
	.string	" "
	.string	"%"
	.string	"E"
	.string	"0"
	.string	"x"
	.string	"%"
	.string	"0"
	.string	"5"
	.string	"x"
	.string	"%"
	.string	"N"
	.string	"\r"
	.string	"\n"
	.zero	2
	.section	.text.ExplainPcieCapReg,"ax",@progbits
	.align	1
	.globl	ExplainPcieCapReg
	.type	ExplainPcieCapReg, @function
ExplainPcieCapReg:
.LFB15:
	.loc 1 4487 1
	.cfi_startproc
	addi	sp,sp,-48
	.cfi_def_cfa_offset 48
	sd	ra,40(sp)
	sd	s0,32(sp)
	.cfi_offset 1, -8
	.cfi_offset 8, -16
	addi	s0,sp,48
	.cfi_def_cfa 8, 0
	sd	a0,-40(s0)
	.loc 1 4494 35
	ld	a5,-40(s0)
	lbu	a5,2(a5)
	andi	a5,a5,15
	andi	a5,a5,0xff
	.loc 1 4490 3
	sext.w	a5,a5
	mv	a3,a5
	lla	a2,.LC276
	li	a1,-1
	li	a0,-1
	call	ShellPrintEx@plt
	.loc 1 4496 37
	ld	a5,-40(s0)
	lbu	a5,2(a5)
	srliw	a5,a5,4
	andi	a5,a5,0xff
	.loc 1 4496 6
	mv	a4,a5
	li	a5,10
	bgtu	a4,a5,.L217
	.loc 1 4497 72
	ld	a5,-40(s0)
	lbu	a5,2(a5)
	srliw	a5,a5,4
	andi	a5,a5,0xff
	sext.w	a5,a5
	.loc 1 4497 20
	lla	a4,DevicePortTypeTable
	slli	a5,a5,3
	add	a5,a4,a5
	ld	a5,0(a5)
	sd	a5,-24(s0)
	j	.L218
.L217:
	.loc 1 4499 20
	lla	a5,.LC226
	sd	a5,-24(s0)
.L218:
	.loc 1 4502 3
	ld	a3,-24(s0)
	lla	a2,.LC277
	li	a1,-1
	li	a0,-1
	call	ShellPrintEx@plt
	.loc 1 4513 54
	ld	a5,-40(s0)
	lbu	a5,2(a5)
	andi	a5,a5,-16
	andi	a5,a5,0xff
	.loc 1 4513 6
	mv	a4,a5
	li	a5,64
	beq	a4,a5,.L219
	.loc 1 4514 54
	ld	a5,-40(s0)
	lbu	a5,2(a5)
	andi	a5,a5,-16
	andi	a5,a5,0xff
	.loc 1 4513 60 discriminator 1
	mv	a4,a5
	li	a5,96
	bne	a4,a5,.L220
.L219:
	.loc 1 4520 37
	ld	a5,-40(s0)
	lbu	a5,3(a5)
	andi	a5,a5,1
	andi	a5,a5,0xff
	.loc 1 4516 5
	sext.w	a5,a5
	mv	a3,a5
	lla	a2,.LC278
	li	a1,-1
	li	a0,-1
	call	ShellPrintEx@plt
.L220:
	.loc 1 4528 35
	ld	a5,-40(s0)
	lbu	a5,3(a5)
	srliw	a5,a5,1
	andi	a5,a5,31
	andi	a5,a5,0xff
	.loc 1 4524 3
	sext.w	a5,a5
	mv	a3,a5
	lla	a2,.LC279
	li	a1,-1
	li	a0,-1
	call	ShellPrintEx@plt
	.loc 1 4530 10
	li	a5,0
	.loc 1 4531 1
	mv	a0,a5
	ld	ra,40(sp)
	.cfi_restore 1
	ld	s0,32(sp)
	.cfi_restore 8
	.cfi_def_cfa 2, 48
	addi	sp,sp,48
	.cfi_def_cfa_offset 0
	jr	ra
	.cfi_endproc
.LFE15:
	.size	ExplainPcieCapReg, .-ExplainPcieCapReg
	.section	.rodata
	.align	3
.LC280:
	.string	" "
	.string	" "
	.string	"M"
	.string	"a"
	.string	"x"
	.string	"_"
	.string	"P"
	.string	"a"
	.string	"y"
	.string	"l"
	.string	"o"
	.string	"a"
	.string	"d"
	.string	"_"
	.string	"S"
	.string	"i"
	.string	"z"
	.string	"e"
	.string	" "
	.string	"S"
	.string	"u"
	.string	"p"
	.string	"p"
	.string	"o"
	.string	"r"
	.string	"t"
	.string	"e"
	.string	"d"
	.string	"("
	.string	"2"
	.string	":"
	.string	"0"
	.string	")"
	.string	":"
	.string	" "
	.string	" "
	.string	" "
	.string	" "
	.string	" "
	.string	" "
	.string	" "
	.string	" "
	.string	" "
	.string	" "
	.zero	2
	.align	3
.LC281:
	.string	"%"
	.string	"E"
	.string	"%"
	.string	"d"
	.string	" "
	.string	"b"
	.string	"y"
	.string	"t"
	.string	"e"
	.string	"s"
	.string	"%"
	.string	"N"
	.string	"\r"
	.string	"\n"
	.zero	2
	.align	3
.LC282:
	.string	"%"
	.string	"E"
	.string	"U"
	.string	"n"
	.string	"k"
	.string	"n"
	.string	"o"
	.string	"w"
	.string	"n"
	.string	"%"
	.string	"N"
	.string	"\r"
	.string	"\n"
	.zero	2
	.align	3
.LC283:
	.string	" "
	.string	" "
	.string	"P"
	.string	"h"
	.string	"a"
	.string	"n"
	.string	"t"
	.string	"o"
	.string	"m"
	.string	" "
	.string	"F"
	.string	"u"
	.string	"n"
	.string	"c"
	.string	"t"
	.string	"i"
	.string	"o"
	.string	"n"
	.string	"s"
	.string	" "
	.string	"S"
	.string	"u"
	.string	"p"
	.string	"p"
	.string	"o"
	.string	"r"
	.string	"t"
	.string	"e"
	.string	"d"
	.string	"("
	.string	"4"
	.string	":"
	.string	"3"
	.string	")"
	.string	":"
	.string	" "
	.string	" "
	.string	" "
	.string	" "
	.string	" "
	.string	" "
	.string	" "
	.string	" "
	.string	" "
	.string	"%"
	.string	"E"
	.string	"%"
	.string	"d"
	.string	"%"
	.string	"N"
	.string	"\r"
	.string	"\n"
	.zero	2
	.align	3
.LC284:
	.string	" "
	.string	" "
	.string	"E"
	.string	"x"
	.string	"t"
	.string	"e"
	.string	"n"
	.string	"d"
	.string	"e"
	.string	"d"
	.string	" "
	.string	"T"
	.string	"a"
	.string	"g"
	.string	" "
	.string	"F"
	.string	"i"
	.string	"e"
	.string	"l"
	.string	"d"
	.string	" "
	.string	"S"
	.string	"u"
	.string	"p"
	.string	"p"
	.string	"o"
	.string	"r"
	.string	"t"
	.string	"e"
	.string	"d"
	.string	"("
	.string	"5"
	.string	")"
	.string	":"
	.string	" "
	.string	" "
	.string	" "
	.string	" "
	.string	" "
	.string	" "
	.string	" "
	.string	" "
	.string	" "
	.string	" "
	.string	"%"
	.string	"E"
	.string	"%"
	.string	"d"
	.string	"-"
	.string	"b"
	.string	"i"
	.string	"t"
	.string	" "
	.string	"T"
	.string	"a"
	.string	"g"
	.string	" "
	.string	"f"
	.string	"i"
	.string	"e"
	.string	"l"
	.string	"d"
	.string	" "
	.string	"s"
	.string	"u"
	.string	"p"
	.string	"p"
	.string	"o"
	.string	"r"
	.string	"t"
	.string	"e"
	.string	"d"
	.string	"%"
	.string	"N"
	.string	"\r"
	.string	"\n"
	.zero	2
	.align	3
.LC285:
	.string	" "
	.string	" "
	.string	"E"
	.string	"n"
	.string	"d"
	.string	"p"
	.string	"o"
	.string	"i"
	.string	"n"
	.string	"t"
	.string	" "
	.string	"L"
	.string	"0"
	.string	"s"
	.string	" "
	.string	"A"
	.string	"c"
	.string	"c"
	.string	"e"
	.string	"p"
	.string	"t"
	.string	"a"
	.string	"b"
	.string	"l"
	.string	"e"
	.string	" "
	.string	"L"
	.string	"a"
	.string	"t"
	.string	"e"
	.string	"n"
	.string	"c"
	.string	"y"
	.string	"("
	.string	"8"
	.string	":"
	.string	"6"
	.string	")"
	.string	":"
	.string	" "
	.string	" "
	.string	" "
	.string	" "
	.string	" "
	.zero	2
	.align	3
.LC286:
	.string	"%"
	.string	"E"
	.string	"M"
	.string	"a"
	.string	"x"
	.string	"i"
	.string	"m"
	.string	"u"
	.string	"m"
	.string	" "
	.string	"o"
	.string	"f"
	.string	" "
	.string	"%"
	.string	"d"
	.string	" "
	.string	"n"
	.string	"s"
	.string	"%"
	.string	"N"
	.string	"\r"
	.string	"\n"
	.zero	2
	.align	3
.LC287:
	.string	"%"
	.string	"E"
	.string	"M"
	.string	"a"
	.string	"x"
	.string	"i"
	.string	"m"
	.string	"u"
	.string	"m"
	.string	" "
	.string	"o"
	.string	"f"
	.string	" "
	.string	"%"
	.string	"d"
	.string	" "
	.string	"u"
	.string	"s"
	.string	"%"
	.string	"N"
	.string	"\r"
	.string	"\n"
	.zero	2
	.align	3
.LC288:
	.string	"%"
	.string	"E"
	.string	"N"
	.string	"o"
	.string	" "
	.string	"l"
	.string	"i"
	.string	"m"
	.string	"i"
	.string	"t"
	.string	"%"
	.string	"N"
	.string	"\r"
	.string	"\n"
	.zero	2
	.align	3
.LC289:
	.string	" "
	.string	" "
	.string	"E"
	.string	"n"
	.string	"d"
	.string	"p"
	.string	"o"
	.string	"i"
	.string	"n"
	.string	"t"
	.string	" "
	.string	"L"
	.string	"1"
	.string	" "
	.string	"A"
	.string	"c"
	.string	"c"
	.string	"e"
	.string	"p"
	.string	"t"
	.string	"a"
	.string	"b"
	.string	"l"
	.string	"e"
	.string	" "
	.string	"L"
	.string	"a"
	.string	"t"
	.string	"e"
	.string	"n"
	.string	"c"
	.string	"y"
	.string	"("
	.string	"1"
	.string	"1"
	.string	":"
	.string	"9"
	.string	")"
	.string	":"
	.string	" "
	.string	" "
	.string	" "
	.string	" "
	.string	" "
	.zero	2
	.align	3
.LC290:
	.string	" "
	.string	" "
	.string	"R"
	.string	"o"
	.string	"l"
	.string	"e"
	.string	"-"
	.string	"b"
	.string	"a"
	.string	"s"
	.string	"e"
	.string	"d"
	.string	" "
	.string	"E"
	.string	"r"
	.string	"r"
	.string	"o"
	.string	"r"
	.string	" "
	.string	"R"
	.string	"e"
	.string	"p"
	.string	"o"
	.string	"r"
	.string	"t"
	.string	"i"
	.string	"n"
	.string	"g"
	.string	"("
	.string	"1"
	.string	"5"
	.string	")"
	.string	":"
	.string	" "
	.string	" "
	.string	" "
	.string	" "
	.string	" "
	.string	" "
	.string	" "
	.string	" "
	.string	" "
	.string	" "
	.string	" "
	.string	"%"
	.string	"E"
	.string	"%"
	.string	"d"
	.string	"%"
	.string	"N"
	.string	"\r"
	.string	"\n"
	.zero	2
	.align	3
.LC291:
	.string	" "
	.string	" "
	.string	"C"
	.string	"a"
	.string	"p"
	.string	"t"
	.string	"u"
	.string	"r"
	.string	"e"
	.string	"d"
	.string	" "
	.string	"S"
	.string	"l"
	.string	"o"
	.string	"t"
	.string	" "
	.string	"P"
	.string	"o"
	.string	"w"
	.string	"e"
	.string	"r"
	.string	" "
	.string	"L"
	.string	"i"
	.string	"m"
	.string	"i"
	.string	"t"
	.string	" "
	.string	"V"
	.string	"a"
	.string	"l"
	.string	"u"
	.string	"e"
	.string	"("
	.string	"2"
	.string	"5"
	.string	":"
	.string	"1"
	.string	"8"
	.string	")"
	.string	":"
	.string	" "
	.string	" "
	.string	" "
	.string	"%"
	.string	"E"
	.string	"0"
	.string	"x"
	.string	"%"
	.string	"0"
	.string	"2"
	.string	"x"
	.string	"%"
	.string	"N"
	.string	"\r"
	.string	"\n"
	.zero	2
	.align	3
.LC292:
	.string	" "
	.string	" "
	.string	"C"
	.string	"a"
	.string	"p"
	.string	"t"
	.string	"u"
	.string	"r"
	.string	"e"
	.string	"d"
	.string	" "
	.string	"S"
	.string	"l"
	.string	"o"
	.string	"t"
	.string	" "
	.string	"P"
	.string	"o"
	.string	"w"
	.string	"e"
	.string	"r"
	.string	" "
	.string	"L"
	.string	"i"
	.string	"m"
	.string	"i"
	.string	"t"
	.string	" "
	.string	"S"
	.string	"c"
	.string	"a"
	.string	"l"
	.string	"e"
	.string	"("
	.string	"2"
	.string	"7"
	.string	":"
	.string	"2"
	.string	"6"
	.string	")"
	.string	":"
	.string	" "
	.string	" "
	.string	" "
	.string	"%"
	.string	"E"
	.string	"%"
	.string	"s"
	.string	"%"
	.string	"N"
	.string	"\r"
	.string	"\n"
	.zero	2
	.align	3
.LC293:
	.string	" "
	.string	" "
	.string	"F"
	.string	"u"
	.string	"n"
	.string	"c"
	.string	"t"
	.string	"i"
	.string	"o"
	.string	"n"
	.string	" "
	.string	"L"
	.string	"e"
	.string	"v"
	.string	"e"
	.string	"l"
	.string	" "
	.string	"R"
	.string	"e"
	.string	"s"
	.string	"e"
	.string	"t"
	.string	" "
	.string	"C"
	.string	"a"
	.string	"p"
	.string	"a"
	.string	"b"
	.string	"i"
	.string	"l"
	.string	"i"
	.string	"t"
	.string	"y"
	.string	"("
	.string	"2"
	.string	"8"
	.string	")"
	.string	":"
	.string	" "
	.string	" "
	.string	" "
	.string	" "
	.string	" "
	.string	" "
	.string	"%"
	.string	"E"
	.string	"%"
	.string	"d"
	.string	"%"
	.string	"N"
	.string	"\r"
	.string	"\n"
	.zero	2
	.section	.text.ExplainPcieDeviceCap,"ax",@progbits
	.align	1
	.globl	ExplainPcieDeviceCap
	.type	ExplainPcieDeviceCap, @function
ExplainPcieDeviceCap:
.LFB16:
	.loc 1 4544 1
	.cfi_startproc
	addi	sp,sp,-48
	.cfi_def_cfa_offset 48
	sd	ra,40(sp)
	sd	s0,32(sp)
	.cfi_offset 1, -8
	.cfi_offset 8, -16
	addi	s0,sp,48
	.cfi_def_cfa 8, 0
	sd	a0,-40(s0)
	.loc 1 4549 57
	ld	a5,-40(s0)
	lbu	a5,2(a5)
	srliw	a5,a5,4
	andi	a5,a5,0xff
	.loc 1 4549 18
	sb	a5,-17(s0)
	.loc 1 4550 3
	lla	a2,.LC280
	li	a1,-1
	li	a0,-1
	call	ShellPrintEx@plt
	.loc 1 4551 43
	ld	a5,-40(s0)
	lbu	a5,4(a5)
	andi	a5,a5,7
	andi	a5,a5,0xff
	.loc 1 4551 6
	mv	a4,a5
	li	a5,5
	bgtu	a4,a5,.L223
	.loc 1 4552 90
	ld	a5,-40(s0)
	lbu	a5,4(a5)
	andi	a5,a5,7
	andi	a5,a5,0xff
	sext.w	a5,a5
	.loc 1 4552 106
	addiw	a5,a5,7
	sext.w	a5,a5
	.loc 1 4552 5
	li	a4,1
	sllw	a5,a4,a5
	sext.w	a5,a5
	mv	a3,a5
	lla	a2,.LC281
	li	a1,-1
	li	a0,-1
	call	ShellPrintEx@plt
	j	.L224
.L223:
	.loc 1 4554 5
	lla	a2,.LC282
	li	a1,-1
	li	a0,-1
	call	ShellPrintEx@plt
.L224:
	.loc 1 4561 41
	ld	a5,-40(s0)
	lbu	a5,4(a5)
	srliw	a5,a5,3
	andi	a5,a5,3
	andi	a5,a5,0xff
	.loc 1 4557 3
	sext.w	a5,a5
	mv	a3,a5
	lla	a2,.LC283
	li	a1,-1
	li	a0,-1
	call	ShellPrintEx@plt
	.loc 1 4567 59
	ld	a5,-40(s0)
	lbu	a5,4(a5)
	andi	a5,a5,32
	andi	a5,a5,0xff
	.loc 1 4563 3
	beq	a5,zero,.L225
	.loc 1 4563 3 is_stmt 0 discriminator 1
	li	a5,8
	j	.L226
.L225:
	.loc 1 4563 3 discriminator 2
	li	a5,5
.L226:
	.loc 1 4563 3 discriminator 4
	mv	a3,a5
	lla	a2,.LC284
	li	a1,-1
	li	a0,-1
	call	ShellPrintEx@plt
	.loc 1 4572 6 is_stmt 1
	lbu	a5,-17(s0)
	andi	a5,a5,0xff
	beq	a5,zero,.L227
	.loc 1 4572 30 discriminator 1
	lbu	a5,-17(s0)
	andi	a4,a5,0xff
	li	a5,1
	beq	a4,a5,.L227
	.loc 1 4572 55 discriminator 2
	lbu	a5,-17(s0)
	andi	a4,a5,0xff
	li	a5,9
	bne	a4,a5,.L228
.L227:
	.loc 1 4573 61
	ld	a5,-40(s0)
	lbu	a4,4(a5)
	srliw	a4,a4,6
	andi	a4,a4,0xff
	lbu	a5,5(a5)
	andi	a5,a5,1
	slli	a5,a5,2
	or	a5,a5,a4
	andi	a5,a5,0xff
	.loc 1 4573 16
	sb	a5,-18(s0)
	.loc 1 4574 60
	ld	a5,-40(s0)
	lbu	a5,5(a5)
	srliw	a5,a5,1
	andi	a5,a5,7
	andi	a5,a5,0xff
	.loc 1 4574 15
	sb	a5,-19(s0)
	.loc 1 4575 5
	lla	a2,.LC285
	li	a1,-1
	li	a0,-1
	call	ShellPrintEx@plt
	.loc 1 4576 8
	lbu	a5,-18(s0)
	andi	a4,a5,0xff
	li	a5,3
	bgtu	a4,a5,.L229
	.loc 1 4577 75
	lbu	a5,-18(s0)
	sext.w	a5,a5
	addiw	a5,a5,6
	sext.w	a5,a5
	.loc 1 4577 7
	li	a4,1
	sllw	a5,a4,a5
	sext.w	a5,a5
	mv	a3,a5
	lla	a2,.LC286
	li	a1,-1
	li	a0,-1
	call	ShellPrintEx@plt
	j	.L230
.L229:
	.loc 1 4579 10
	lbu	a5,-18(s0)
	andi	a4,a5,0xff
	li	a5,6
	bgtu	a4,a5,.L231
	.loc 1 4580 77
	lbu	a5,-18(s0)
	sext.w	a5,a5
	addiw	a5,a5,-3
	sext.w	a5,a5
	.loc 1 4580 9
	li	a4,1
	sllw	a5,a4,a5
	sext.w	a5,a5
	mv	a3,a5
	lla	a2,.LC287
	li	a1,-1
	li	a0,-1
	call	ShellPrintEx@plt
	j	.L230
.L231:
	.loc 1 4582 9
	lla	a2,.LC288
	li	a1,-1
	li	a0,-1
	call	ShellPrintEx@plt
.L230:
	.loc 1 4586 5
	lla	a2,.LC289
	li	a1,-1
	li	a0,-1
	call	ShellPrintEx@plt
	.loc 1 4587 8
	lbu	a5,-19(s0)
	andi	a4,a5,0xff
	li	a5,6
	bgtu	a4,a5,.L232
	.loc 1 4588 74
	lbu	a5,-19(s0)
	sext.w	a5,a5
	addiw	a5,a5,1
	sext.w	a5,a5
	.loc 1 4588 7
	li	a4,1
	sllw	a5,a4,a5
	sext.w	a5,a5
	mv	a3,a5
	lla	a2,.LC287
	li	a1,-1
	li	a0,-1
	call	ShellPrintEx@plt
	j	.L228
.L232:
	.loc 1 4590 7
	lla	a2,.LC288
	li	a1,-1
	li	a0,-1
	call	ShellPrintEx@plt
.L228:
	.loc 1 4598 41
	ld	a5,-40(s0)
	lbu	a5,5(a5)
	srliw	a5,a5,7
	andi	a5,a5,0xff
	.loc 1 4594 3
	sext.w	a5,a5
	mv	a3,a5
	lla	a2,.LC290
	li	a1,-1
	li	a0,-1
	call	ShellPrintEx@plt
	.loc 1 4605 6
	lbu	a5,-17(s0)
	andi	a4,a5,0xff
	li	a5,5
	bne	a4,a5,.L233
	.loc 1 4610 43
	ld	a5,-40(s0)
	lbu	a4,6(a5)
	srliw	a4,a4,2
	andi	a4,a4,0xff
	lbu	a5,7(a5)
	andi	a5,a5,3
	slli	a5,a5,6
	or	a5,a5,a4
	andi	a5,a5,0xff
	.loc 1 4606 5
	sext.w	a5,a5
	mv	a3,a5
	lla	a2,.LC291
	li	a1,-1
	li	a0,-1
	call	ShellPrintEx@plt
	.loc 1 4616 64
	ld	a5,-40(s0)
	lbu	a5,7(a5)
	srliw	a5,a5,2
	andi	a5,a5,3
	andi	a5,a5,0xff
	sext.w	a5,a5
	.loc 1 4612 5
	lla	a4,SlotPwrLmtScaleTable
	slli	a5,a5,3
	add	a5,a4,a5
	ld	a5,0(a5)
	mv	a3,a5
	lla	a2,.LC292
	li	a1,-1
	li	a0,-1
	call	ShellPrintEx@plt
.L233:
	.loc 1 4623 6
	lbu	a5,-17(s0)
	andi	a5,a5,0xff
	beq	a5,zero,.L234
	.loc 1 4623 30 discriminator 1
	lbu	a5,-17(s0)
	andi	a4,a5,0xff
	li	a5,1
	beq	a4,a5,.L234
	.loc 1 4623 55 discriminator 2
	lbu	a5,-17(s0)
	andi	a4,a5,0xff
	li	a5,9
	bne	a4,a5,.L235
.L234:
	.loc 1 4628 43
	ld	a5,-40(s0)
	lbu	a5,7(a5)
	srliw	a5,a5,4
	andi	a5,a5,1
	andi	a5,a5,0xff
	.loc 1 4624 5
	sext.w	a5,a5
	mv	a3,a5
	lla	a2,.LC293
	li	a1,-1
	li	a0,-1
	call	ShellPrintEx@plt
.L235:
	.loc 1 4632 10
	li	a5,0
	.loc 1 4633 1
	mv	a0,a5
	ld	ra,40(sp)
	.cfi_restore 1
	ld	s0,32(sp)
	.cfi_restore 8
	.cfi_def_cfa 2, 48
	addi	sp,sp,48
	.cfi_def_cfa_offset 0
	jr	ra
	.cfi_endproc
.LFE16:
	.size	ExplainPcieDeviceCap, .-ExplainPcieDeviceCap
	.section	.rodata
	.align	3
.LC294:
	.string	" "
	.string	" "
	.string	"C"
	.string	"o"
	.string	"r"
	.string	"r"
	.string	"e"
	.string	"c"
	.string	"t"
	.string	"a"
	.string	"b"
	.string	"l"
	.string	"e"
	.string	" "
	.string	"E"
	.string	"r"
	.string	"r"
	.string	"o"
	.string	"r"
	.string	" "
	.string	"R"
	.string	"e"
	.string	"p"
	.string	"o"
	.string	"r"
	.string	"t"
	.string	"i"
	.string	"n"
	.string	"g"
	.string	" "
	.string	"E"
	.string	"n"
	.string	"a"
	.string	"b"
	.string	"l"
	.string	"e"
	.string	"("
	.string	"0"
	.string	")"
	.string	":"
	.string	" "
	.string	" "
	.string	" "
	.string	" "
	.string	"%"
	.string	"E"
	.string	"%"
	.string	"d"
	.string	"%"
	.string	"N"
	.string	"\r"
	.string	"\n"
	.zero	2
	.align	3
.LC295:
	.string	" "
	.string	" "
	.string	"N"
	.string	"o"
	.string	"n"
	.string	"-"
	.string	"F"
	.string	"a"
	.string	"t"
	.string	"a"
	.string	"l"
	.string	" "
	.string	"E"
	.string	"r"
	.string	"r"
	.string	"o"
	.string	"r"
	.string	" "
	.string	"R"
	.string	"e"
	.string	"p"
	.string	"o"
	.string	"r"
	.string	"t"
	.string	"i"
	.string	"n"
	.string	"g"
	.string	" "
	.string	"E"
	.string	"n"
	.string	"a"
	.string	"b"
	.string	"l"
	.string	"e"
	.string	"("
	.string	"1"
	.string	")"
	.string	":"
	.string	" "
	.string	" "
	.string	" "
	.string	" "
	.string	" "
	.string	" "
	.string	"%"
	.string	"E"
	.string	"%"
	.string	"d"
	.string	"%"
	.string	"N"
	.string	"\r"
	.string	"\n"
	.zero	2
	.align	3
.LC296:
	.string	" "
	.string	" "
	.string	"F"
	.string	"a"
	.string	"t"
	.string	"a"
	.string	"l"
	.string	" "
	.string	"E"
	.string	"r"
	.string	"r"
	.string	"o"
	.string	"r"
	.string	" "
	.string	"R"
	.string	"e"
	.string	"p"
	.string	"o"
	.string	"r"
	.string	"t"
	.string	"i"
	.string	"n"
	.string	"g"
	.string	" "
	.string	"E"
	.string	"n"
	.string	"a"
	.string	"b"
	.string	"l"
	.string	"e"
	.string	"("
	.string	"2"
	.string	")"
	.string	":"
	.string	" "
	.string	" "
	.string	" "
	.string	" "
	.string	" "
	.string	" "
	.string	" "
	.string	" "
	.string	" "
	.string	" "
	.string	"%"
	.string	"E"
	.string	"%"
	.string	"d"
	.string	"%"
	.string	"N"
	.string	"\r"
	.string	"\n"
	.zero	2
	.align	3
.LC297:
	.string	" "
	.string	" "
	.string	"U"
	.string	"n"
	.string	"s"
	.string	"u"
	.string	"p"
	.string	"p"
	.string	"o"
	.string	"r"
	.string	"t"
	.string	"e"
	.string	"d"
	.string	" "
	.string	"R"
	.string	"e"
	.string	"q"
	.string	"u"
	.string	"e"
	.string	"s"
	.string	"t"
	.string	" "
	.string	"R"
	.string	"e"
	.string	"p"
	.string	"o"
	.string	"r"
	.string	"t"
	.string	"i"
	.string	"n"
	.string	"g"
	.string	" "
	.string	"E"
	.string	"n"
	.string	"a"
	.string	"b"
	.string	"l"
	.string	"e"
	.string	"("
	.string	"3"
	.string	")"
	.string	":"
	.string	" "
	.string	" "
	.string	"%"
	.string	"E"
	.string	"%"
	.string	"d"
	.string	"%"
	.string	"N"
	.string	"\r"
	.string	"\n"
	.zero	2
	.align	3
.LC298:
	.string	" "
	.string	" "
	.string	"E"
	.string	"n"
	.string	"a"
	.string	"b"
	.string	"l"
	.string	"e"
	.string	" "
	.string	"R"
	.string	"e"
	.string	"l"
	.string	"a"
	.string	"x"
	.string	"e"
	.string	"d"
	.string	" "
	.string	"O"
	.string	"r"
	.string	"d"
	.string	"e"
	.string	"r"
	.string	"i"
	.string	"n"
	.string	"g"
	.string	"("
	.string	"4"
	.string	")"
	.string	":"
	.string	" "
	.string	" "
	.string	" "
	.string	" "
	.string	" "
	.string	" "
	.string	" "
	.string	" "
	.string	" "
	.string	" "
	.string	" "
	.string	" "
	.string	" "
	.string	" "
	.string	" "
	.string	"%"
	.string	"E"
	.string	"%"
	.string	"d"
	.string	"%"
	.string	"N"
	.string	"\r"
	.string	"\n"
	.zero	2
	.align	3
.LC299:
	.string	" "
	.string	" "
	.string	"M"
	.string	"a"
	.string	"x"
	.string	"_"
	.string	"P"
	.string	"a"
	.string	"y"
	.string	"l"
	.string	"o"
	.string	"a"
	.string	"d"
	.string	"_"
	.string	"S"
	.string	"i"
	.string	"z"
	.string	"e"
	.string	"("
	.string	"7"
	.string	":"
	.string	"5"
	.string	")"
	.string	":"
	.string	" "
	.string	" "
	.string	" "
	.string	" "
	.string	" "
	.string	" "
	.string	" "
	.string	" "
	.string	" "
	.string	" "
	.string	" "
	.string	" "
	.string	" "
	.string	" "
	.string	" "
	.string	" "
	.string	" "
	.string	" "
	.string	" "
	.string	" "
	.zero	2
	.align	3
.LC300:
	.string	" "
	.string	" "
	.string	"E"
	.string	"x"
	.string	"t"
	.string	"e"
	.string	"n"
	.string	"d"
	.string	"e"
	.string	"d"
	.string	" "
	.string	"T"
	.string	"a"
	.string	"g"
	.string	" "
	.string	"F"
	.string	"i"
	.string	"e"
	.string	"l"
	.string	"d"
	.string	" "
	.string	"E"
	.string	"n"
	.string	"a"
	.string	"b"
	.string	"l"
	.string	"e"
	.string	"("
	.string	"8"
	.string	")"
	.string	":"
	.string	" "
	.string	" "
	.string	" "
	.string	" "
	.string	" "
	.string	" "
	.string	" "
	.string	" "
	.string	" "
	.string	" "
	.string	" "
	.string	" "
	.string	" "
	.string	"%"
	.string	"E"
	.string	"%"
	.string	"d"
	.string	"%"
	.string	"N"
	.string	"\r"
	.string	"\n"
	.zero	2
	.align	3
.LC301:
	.string	" "
	.string	" "
	.string	"P"
	.string	"h"
	.string	"a"
	.string	"n"
	.string	"t"
	.string	"o"
	.string	"m"
	.string	" "
	.string	"F"
	.string	"u"
	.string	"n"
	.string	"c"
	.string	"t"
	.string	"i"
	.string	"o"
	.string	"n"
	.string	"s"
	.string	" "
	.string	"E"
	.string	"n"
	.string	"a"
	.string	"b"
	.string	"l"
	.string	"e"
	.string	"("
	.string	"9"
	.string	")"
	.string	":"
	.string	" "
	.string	" "
	.string	" "
	.string	" "
	.string	" "
	.string	" "
	.string	" "
	.string	" "
	.string	" "
	.string	" "
	.string	" "
	.string	" "
	.string	" "
	.string	" "
	.string	"%"
	.string	"E"
	.string	"%"
	.string	"d"
	.string	"%"
	.string	"N"
	.string	"\r"
	.string	"\n"
	.zero	2
	.align	3
.LC302:
	.string	" "
	.string	" "
	.string	"A"
	.string	"u"
	.string	"x"
	.string	"i"
	.string	"l"
	.string	"i"
	.string	"a"
	.string	"r"
	.string	"y"
	.string	" "
	.string	"("
	.string	"A"
	.string	"U"
	.string	"X"
	.string	")"
	.string	" "
	.string	"P"
	.string	"o"
	.string	"w"
	.string	"e"
	.string	"r"
	.string	" "
	.string	"P"
	.string	"M"
	.string	" "
	.string	"E"
	.string	"n"
	.string	"a"
	.string	"b"
	.string	"l"
	.string	"e"
	.string	"("
	.string	"1"
	.string	"0"
	.string	")"
	.string	":"
	.string	" "
	.string	" "
	.string	" "
	.string	" "
	.string	" "
	.string	" "
	.string	"%"
	.string	"E"
	.string	"%"
	.string	"d"
	.string	"%"
	.string	"N"
	.string	"\r"
	.string	"\n"
	.zero	2
	.align	3
.LC303:
	.string	" "
	.string	" "
	.string	"E"
	.string	"n"
	.string	"a"
	.string	"b"
	.string	"l"
	.string	"e"
	.string	" "
	.string	"N"
	.string	"o"
	.string	" "
	.string	"S"
	.string	"n"
	.string	"o"
	.string	"o"
	.string	"p"
	.string	"("
	.string	"1"
	.string	"1"
	.string	")"
	.string	":"
	.string	" "
	.string	" "
	.string	" "
	.string	" "
	.string	" "
	.string	" "
	.string	" "
	.string	" "
	.string	" "
	.string	" "
	.string	" "
	.string	" "
	.string	" "
	.string	" "
	.string	" "
	.string	" "
	.string	" "
	.string	" "
	.string	" "
	.string	" "
	.string	" "
	.string	" "
	.string	"%"
	.string	"E"
	.string	"%"
	.string	"d"
	.string	"%"
	.string	"N"
	.string	"\r"
	.string	"\n"
	.zero	2
	.align	3
.LC304:
	.string	" "
	.string	" "
	.string	"M"
	.string	"a"
	.string	"x"
	.string	"_"
	.string	"R"
	.string	"e"
	.string	"a"
	.string	"d"
	.string	"_"
	.string	"R"
	.string	"e"
	.string	"q"
	.string	"u"
	.string	"e"
	.string	"s"
	.string	"t"
	.string	"_"
	.string	"S"
	.string	"i"
	.string	"z"
	.string	"e"
	.string	"("
	.string	"1"
	.string	"4"
	.string	":"
	.string	"1"
	.string	"2"
	.string	")"
	.string	":"
	.string	" "
	.string	" "
	.string	" "
	.string	" "
	.string	" "
	.string	" "
	.string	" "
	.string	" "
	.string	" "
	.string	" "
	.string	" "
	.string	" "
	.string	" "
	.zero	2
	.align	3
.LC305:
	.string	" "
	.string	" "
	.string	"B"
	.string	"r"
	.string	"i"
	.string	"d"
	.string	"g"
	.string	"e"
	.string	" "
	.string	"C"
	.string	"o"
	.string	"n"
	.string	"f"
	.string	"i"
	.string	"g"
	.string	"u"
	.string	"r"
	.string	"a"
	.string	"t"
	.string	"i"
	.string	"o"
	.string	"n"
	.string	" "
	.string	"R"
	.string	"e"
	.string	"t"
	.string	"r"
	.string	"y"
	.string	" "
	.string	"E"
	.string	"n"
	.string	"a"
	.string	"b"
	.string	"l"
	.string	"e"
	.string	"("
	.string	"1"
	.string	"5"
	.string	")"
	.string	":"
	.string	" "
	.string	" "
	.string	"%"
	.string	"E"
	.string	"%"
	.string	"d"
	.string	"%"
	.string	"N"
	.string	"\r"
	.string	"\n"
	.zero	2
	.section	.text.ExplainPcieDeviceControl,"ax",@progbits
	.align	1
	.globl	ExplainPcieDeviceControl
	.type	ExplainPcieDeviceControl, @function
ExplainPcieDeviceControl:
.LFB17:
	.loc 1 4646 1
	.cfi_startproc
	addi	sp,sp,-32
	.cfi_def_cfa_offset 32
	sd	ra,24(sp)
	sd	s0,16(sp)
	.cfi_offset 1, -8
	.cfi_offset 8, -16
	addi	s0,sp,32
	.cfi_def_cfa 8, 0
	sd	a0,-24(s0)
	.loc 1 4651 38
	ld	a5,-24(s0)
	lbu	a5,8(a5)
	andi	a5,a5,1
	andi	a5,a5,0xff
	.loc 1 4647 3
	sext.w	a5,a5
	mv	a3,a5
	lla	a2,.LC294
	li	a1,-1
	li	a0,-1
	call	ShellPrintEx@plt
	.loc 1 4657 38
	ld	a5,-24(s0)
	lbu	a5,8(a5)
	srliw	a5,a5,1
	andi	a5,a5,1
	andi	a5,a5,0xff
	.loc 1 4653 3
	sext.w	a5,a5
	mv	a3,a5
	lla	a2,.LC295
	li	a1,-1
	li	a0,-1
	call	ShellPrintEx@plt
	.loc 1 4663 38
	ld	a5,-24(s0)
	lbu	a5,8(a5)
	srliw	a5,a5,2
	andi	a5,a5,1
	andi	a5,a5,0xff
	.loc 1 4659 3
	sext.w	a5,a5
	mv	a3,a5
	lla	a2,.LC296
	li	a1,-1
	li	a0,-1
	call	ShellPrintEx@plt
	.loc 1 4669 38
	ld	a5,-24(s0)
	lbu	a5,8(a5)
	srliw	a5,a5,3
	andi	a5,a5,1
	andi	a5,a5,0xff
	.loc 1 4665 3
	sext.w	a5,a5
	mv	a3,a5
	lla	a2,.LC297
	li	a1,-1
	li	a0,-1
	call	ShellPrintEx@plt
	.loc 1 4675 38
	ld	a5,-24(s0)
	lbu	a5,8(a5)
	srliw	a5,a5,4
	andi	a5,a5,1
	andi	a5,a5,0xff
	.loc 1 4671 3
	sext.w	a5,a5
	mv	a3,a5
	lla	a2,.LC298
	li	a1,-1
	li	a0,-1
	call	ShellPrintEx@plt
	.loc 1 4677 3
	lla	a2,.LC299
	li	a1,-1
	li	a0,-1
	call	ShellPrintEx@plt
	.loc 1 4678 40
	ld	a5,-24(s0)
	lbu	a5,8(a5)
	srliw	a5,a5,5
	andi	a5,a5,0xff
	.loc 1 4678 6
	mv	a4,a5
	li	a5,5
	bgtu	a4,a5,.L238
	.loc 1 4679 87
	ld	a5,-24(s0)
	lbu	a5,8(a5)
	srliw	a5,a5,5
	andi	a5,a5,0xff
	sext.w	a5,a5
	.loc 1 4679 103
	addiw	a5,a5,7
	sext.w	a5,a5
	.loc 1 4679 5
	li	a4,1
	sllw	a5,a4,a5
	sext.w	a5,a5
	mv	a3,a5
	lla	a2,.LC281
	li	a1,-1
	li	a0,-1
	call	ShellPrintEx@plt
	j	.L239
.L238:
	.loc 1 4681 5
	lla	a2,.LC282
	li	a1,-1
	li	a0,-1
	call	ShellPrintEx@plt
.L239:
	.loc 1 4688 38
	ld	a5,-24(s0)
	lbu	a5,9(a5)
	andi	a5,a5,1
	andi	a5,a5,0xff
	.loc 1 4684 3
	sext.w	a5,a5
	mv	a3,a5
	lla	a2,.LC300
	li	a1,-1
	li	a0,-1
	call	ShellPrintEx@plt
	.loc 1 4694 38
	ld	a5,-24(s0)
	lbu	a5,9(a5)
	srliw	a5,a5,1
	andi	a5,a5,1
	andi	a5,a5,0xff
	.loc 1 4690 3
	sext.w	a5,a5
	mv	a3,a5
	lla	a2,.LC301
	li	a1,-1
	li	a0,-1
	call	ShellPrintEx@plt
	.loc 1 4700 38
	ld	a5,-24(s0)
	lbu	a5,9(a5)
	srliw	a5,a5,2
	andi	a5,a5,1
	andi	a5,a5,0xff
	.loc 1 4696 3
	sext.w	a5,a5
	mv	a3,a5
	lla	a2,.LC302
	li	a1,-1
	li	a0,-1
	call	ShellPrintEx@plt
	.loc 1 4706 38
	ld	a5,-24(s0)
	lbu	a5,9(a5)
	srliw	a5,a5,3
	andi	a5,a5,1
	andi	a5,a5,0xff
	.loc 1 4702 3
	sext.w	a5,a5
	mv	a3,a5
	lla	a2,.LC303
	li	a1,-1
	li	a0,-1
	call	ShellPrintEx@plt
	.loc 1 4708 3
	lla	a2,.LC304
	li	a1,-1
	li	a0,-1
	call	ShellPrintEx@plt
	.loc 1 4709 40
	ld	a5,-24(s0)
	lbu	a5,9(a5)
	srliw	a5,a5,4
	andi	a5,a5,7
	andi	a5,a5,0xff
	.loc 1 4709 6
	mv	a4,a5
	li	a5,5
	bgtu	a4,a5,.L240
	.loc 1 4710 87
	ld	a5,-24(s0)
	lbu	a5,9(a5)
	srliw	a5,a5,4
	andi	a5,a5,7
	andi	a5,a5,0xff
	sext.w	a5,a5
	.loc 1 4710 107
	addiw	a5,a5,7
	sext.w	a5,a5
	.loc 1 4710 5
	li	a4,1
	sllw	a5,a4,a5
	sext.w	a5,a5
	mv	a3,a5
	lla	a2,.LC281
	li	a1,-1
	li	a0,-1
	call	ShellPrintEx@plt
	j	.L241
.L240:
	.loc 1 4712 5
	lla	a2,.LC282
	li	a1,-1
	li	a0,-1
	call	ShellPrintEx@plt
.L241:
	.loc 1 4718 53
	ld	a5,-24(s0)
	lbu	a5,2(a5)
	andi	a5,a5,-16
	andi	a5,a5,0xff
	.loc 1 4718 6
	mv	a4,a5
	li	a5,112
	bne	a4,a5,.L242
	.loc 1 4723 40
	ld	a5,-24(s0)
	lbu	a5,9(a5)
	srliw	a5,a5,7
	andi	a5,a5,0xff
	.loc 1 4719 5
	sext.w	a5,a5
	mv	a3,a5
	lla	a2,.LC305
	li	a1,-1
	li	a0,-1
	call	ShellPrintEx@plt
.L242:
	.loc 1 4727 10
	li	a5,0
	.loc 1 4728 1
	mv	a0,a5
	ld	ra,24(sp)
	.cfi_restore 1
	ld	s0,16(sp)
	.cfi_restore 8
	.cfi_def_cfa 2, 32
	addi	sp,sp,32
	.cfi_def_cfa_offset 0
	jr	ra
	.cfi_endproc
.LFE17:
	.size	ExplainPcieDeviceControl, .-ExplainPcieDeviceControl
	.section	.rodata
	.align	3
.LC306:
	.string	" "
	.string	" "
	.string	"C"
	.string	"o"
	.string	"r"
	.string	"r"
	.string	"e"
	.string	"c"
	.string	"t"
	.string	"a"
	.string	"b"
	.string	"l"
	.string	"e"
	.string	" "
	.string	"E"
	.string	"r"
	.string	"r"
	.string	"o"
	.string	"r"
	.string	" "
	.string	"D"
	.string	"e"
	.string	"t"
	.string	"e"
	.string	"c"
	.string	"t"
	.string	"e"
	.string	"d"
	.string	"("
	.string	"0"
	.string	")"
	.string	":"
	.string	" "
	.string	" "
	.string	" "
	.string	" "
	.string	" "
	.string	" "
	.string	" "
	.string	" "
	.string	" "
	.string	" "
	.string	" "
	.string	" "
	.string	"%"
	.string	"E"
	.string	"%"
	.string	"d"
	.string	"%"
	.string	"N"
	.string	"\r"
	.string	"\n"
	.zero	2
	.align	3
.LC307:
	.string	" "
	.string	" "
	.string	"N"
	.string	"o"
	.string	"n"
	.string	"-"
	.string	"F"
	.string	"a"
	.string	"t"
	.string	"a"
	.string	"l"
	.string	" "
	.string	"E"
	.string	"r"
	.string	"r"
	.string	"o"
	.string	"r"
	.string	" "
	.string	"D"
	.string	"e"
	.string	"t"
	.string	"e"
	.string	"c"
	.string	"t"
	.string	"e"
	.string	"d"
	.string	"("
	.string	"1"
	.string	")"
	.string	":"
	.string	" "
	.string	" "
	.string	" "
	.string	" "
	.string	" "
	.string	" "
	.string	" "
	.string	" "
	.string	" "
	.string	" "
	.string	" "
	.string	" "
	.string	" "
	.string	" "
	.string	"%"
	.string	"E"
	.string	"%"
	.string	"d"
	.string	"%"
	.string	"N"
	.string	"\r"
	.string	"\n"
	.zero	2
	.align	3
.LC308:
	.string	" "
	.string	" "
	.string	"F"
	.string	"a"
	.string	"t"
	.string	"a"
	.string	"l"
	.string	" "
	.string	"E"
	.string	"r"
	.string	"r"
	.string	"o"
	.string	"r"
	.string	" "
	.string	"D"
	.string	"e"
	.string	"t"
	.string	"e"
	.string	"c"
	.string	"t"
	.string	"e"
	.string	"d"
	.string	"("
	.string	"2"
	.string	")"
	.string	":"
	.string	" "
	.string	" "
	.string	" "
	.string	" "
	.string	" "
	.string	" "
	.string	" "
	.string	" "
	.string	" "
	.string	" "
	.string	" "
	.string	" "
	.string	" "
	.string	" "
	.string	" "
	.string	" "
	.string	" "
	.string	" "
	.string	"%"
	.string	"E"
	.string	"%"
	.string	"d"
	.string	"%"
	.string	"N"
	.string	"\r"
	.string	"\n"
	.zero	2
	.align	3
.LC309:
	.string	" "
	.string	" "
	.string	"U"
	.string	"n"
	.string	"s"
	.string	"u"
	.string	"p"
	.string	"p"
	.string	"o"
	.string	"r"
	.string	"t"
	.string	"e"
	.string	"d"
	.string	" "
	.string	"R"
	.string	"e"
	.string	"q"
	.string	"u"
	.string	"e"
	.string	"s"
	.string	"t"
	.string	" "
	.string	"D"
	.string	"e"
	.string	"t"
	.string	"e"
	.string	"c"
	.string	"t"
	.string	"e"
	.string	"d"
	.string	"("
	.string	"3"
	.string	")"
	.string	":"
	.string	" "
	.string	" "
	.string	" "
	.string	" "
	.string	" "
	.string	" "
	.string	" "
	.string	" "
	.string	" "
	.string	" "
	.string	"%"
	.string	"E"
	.string	"%"
	.string	"d"
	.string	"%"
	.string	"N"
	.string	"\r"
	.string	"\n"
	.zero	2
	.align	3
.LC310:
	.string	" "
	.string	" "
	.string	"A"
	.string	"U"
	.string	"X"
	.string	" "
	.string	"P"
	.string	"o"
	.string	"w"
	.string	"e"
	.string	"r"
	.string	" "
	.string	"D"
	.string	"e"
	.string	"t"
	.string	"e"
	.string	"c"
	.string	"t"
	.string	"e"
	.string	"d"
	.string	"("
	.string	"4"
	.string	")"
	.string	":"
	.string	" "
	.string	" "
	.string	" "
	.string	" "
	.string	" "
	.string	" "
	.string	" "
	.string	" "
	.string	" "
	.string	" "
	.string	" "
	.string	" "
	.string	" "
	.string	" "
	.string	" "
	.string	" "
	.string	" "
	.string	" "
	.string	" "
	.string	" "
	.string	"%"
	.string	"E"
	.string	"%"
	.string	"d"
	.string	"%"
	.string	"N"
	.string	"\r"
	.string	"\n"
	.zero	2
	.align	3
.LC311:
	.string	" "
	.string	" "
	.string	"T"
	.string	"r"
	.string	"a"
	.string	"n"
	.string	"s"
	.string	"a"
	.string	"c"
	.string	"t"
	.string	"i"
	.string	"o"
	.string	"n"
	.string	"s"
	.string	" "
	.string	"P"
	.string	"e"
	.string	"n"
	.string	"d"
	.string	"i"
	.string	"n"
	.string	"g"
	.string	"("
	.string	"5"
	.string	")"
	.string	":"
	.string	" "
	.string	" "
	.string	" "
	.string	" "
	.string	" "
	.string	" "
	.string	" "
	.string	" "
	.string	" "
	.string	" "
	.string	" "
	.string	" "
	.string	" "
	.string	" "
	.string	" "
	.string	" "
	.string	" "
	.string	" "
	.string	"%"
	.string	"E"
	.string	"%"
	.string	"d"
	.string	"%"
	.string	"N"
	.string	"\r"
	.string	"\n"
	.zero	2
	.section	.text.ExplainPcieDeviceStatus,"ax",@progbits
	.align	1
	.globl	ExplainPcieDeviceStatus
	.type	ExplainPcieDeviceStatus, @function
ExplainPcieDeviceStatus:
.LFB18:
	.loc 1 4741 1
	.cfi_startproc
	addi	sp,sp,-32
	.cfi_def_cfa_offset 32
	sd	ra,24(sp)
	sd	s0,16(sp)
	.cfi_offset 1, -8
	.cfi_offset 8, -16
	addi	s0,sp,32
	.cfi_def_cfa 8, 0
	sd	a0,-24(s0)
	.loc 1 4746 37
	ld	a5,-24(s0)
	lbu	a5,10(a5)
	andi	a5,a5,1
	andi	a5,a5,0xff
	.loc 1 4742 3
	sext.w	a5,a5
	mv	a3,a5
	lla	a2,.LC306
	li	a1,-1
	li	a0,-1
	call	ShellPrintEx@plt
	.loc 1 4752 37
	ld	a5,-24(s0)
	lbu	a5,10(a5)
	srliw	a5,a5,1
	andi	a5,a5,1
	andi	a5,a5,0xff
	.loc 1 4748 3
	sext.w	a5,a5
	mv	a3,a5
	lla	a2,.LC307
	li	a1,-1
	li	a0,-1
	call	ShellPrintEx@plt
	.loc 1 4758 37
	ld	a5,-24(s0)
	lbu	a5,10(a5)
	srliw	a5,a5,2
	andi	a5,a5,1
	andi	a5,a5,0xff
	.loc 1 4754 3
	sext.w	a5,a5
	mv	a3,a5
	lla	a2,.LC308
	li	a1,-1
	li	a0,-1
	call	ShellPrintEx@plt
	.loc 1 4764 37
	ld	a5,-24(s0)
	lbu	a5,10(a5)
	srliw	a5,a5,3
	andi	a5,a5,1
	andi	a5,a5,0xff
	.loc 1 4760 3
	sext.w	a5,a5
	mv	a3,a5
	lla	a2,.LC309
	li	a1,-1
	li	a0,-1
	call	ShellPrintEx@plt
	.loc 1 4770 37
	ld	a5,-24(s0)
	lbu	a5,10(a5)
	srliw	a5,a5,4
	andi	a5,a5,1
	andi	a5,a5,0xff
	.loc 1 4766 3
	sext.w	a5,a5
	mv	a3,a5
	lla	a2,.LC310
	li	a1,-1
	li	a0,-1
	call	ShellPrintEx@plt
	.loc 1 4776 37
	ld	a5,-24(s0)
	lbu	a5,10(a5)
	srliw	a5,a5,5
	andi	a5,a5,1
	andi	a5,a5,0xff
	.loc 1 4772 3
	sext.w	a5,a5
	mv	a3,a5
	lla	a2,.LC311
	li	a1,-1
	li	a0,-1
	call	ShellPrintEx@plt
	.loc 1 4778 10
	li	a5,0
	.loc 1 4779 1
	mv	a0,a5
	ld	ra,24(sp)
	.cfi_restore 1
	ld	s0,16(sp)
	.cfi_restore 8
	.cfi_def_cfa 2, 32
	addi	sp,sp,32
	.cfi_def_cfa_offset 0
	jr	ra
	.cfi_endproc
.LFE18:
	.size	ExplainPcieDeviceStatus, .-ExplainPcieDeviceStatus
	.section	.rodata
	.align	3
.LC312:
	.string	"2"
	.string	"."
	.string	"5"
	.string	" "
	.string	"G"
	.string	"T"
	.string	"/"
	.string	"s"
	.zero	2
	.align	3
.LC313:
	.string	"5"
	.string	"."
	.string	"0"
	.string	" "
	.string	"G"
	.string	"T"
	.string	"/"
	.string	"s"
	.zero	2
	.align	3
.LC314:
	.string	"8"
	.string	"."
	.string	"0"
	.string	" "
	.string	"G"
	.string	"T"
	.string	"/"
	.string	"s"
	.zero	2
	.align	3
.LC315:
	.string	"1"
	.string	"6"
	.string	"."
	.string	"0"
	.string	" "
	.string	"G"
	.string	"T"
	.string	"/"
	.string	"s"
	.zero	2
	.align	3
.LC316:
	.string	"3"
	.string	"2"
	.string	"."
	.string	"0"
	.string	" "
	.string	"G"
	.string	"T"
	.string	"/"
	.string	"s"
	.zero	2
	.align	3
.LC317:
	.string	"6"
	.string	"4"
	.string	"."
	.string	"0"
	.string	" "
	.string	"G"
	.string	"T"
	.string	"/"
	.string	"s"
	.zero	2
	.align	3
.LC318:
	.string	" "
	.string	" "
	.string	"M"
	.string	"a"
	.string	"x"
	.string	"i"
	.string	"m"
	.string	"u"
	.string	"m"
	.string	" "
	.string	"L"
	.string	"i"
	.string	"n"
	.string	"k"
	.string	" "
	.string	"S"
	.string	"p"
	.string	"e"
	.string	"e"
	.string	"d"
	.string	"("
	.string	"3"
	.string	":"
	.string	"0"
	.string	")"
	.string	":"
	.string	" "
	.string	" "
	.string	" "
	.string	" "
	.string	" "
	.string	" "
	.string	" "
	.string	" "
	.string	" "
	.string	" "
	.string	" "
	.string	" "
	.string	" "
	.string	" "
	.string	" "
	.string	" "
	.string	" "
	.string	" "
	.string	" "
	.string	" "
	.string	" "
	.string	" "
	.string	" "
	.string	" "
	.string	" "
	.string	" "
	.string	" "
	.string	" "
	.string	"%"
	.string	"E"
	.string	"%"
	.string	"s"
	.string	"%"
	.string	"N"
	.string	"\r"
	.string	"\n"
	.zero	2
	.align	3
.LC319:
	.string	" "
	.string	" "
	.string	"M"
	.string	"a"
	.string	"x"
	.string	"i"
	.string	"m"
	.string	"u"
	.string	"m"
	.string	" "
	.string	"L"
	.string	"i"
	.string	"n"
	.string	"k"
	.string	" "
	.string	"W"
	.string	"i"
	.string	"d"
	.string	"t"
	.string	"h"
	.string	"("
	.string	"9"
	.string	":"
	.string	"4"
	.string	")"
	.string	":"
	.string	" "
	.string	" "
	.string	" "
	.string	" "
	.string	" "
	.string	" "
	.string	" "
	.string	" "
	.string	" "
	.string	" "
	.string	" "
	.string	" "
	.string	" "
	.string	" "
	.string	" "
	.string	" "
	.string	" "
	.string	" "
	.string	" "
	.string	" "
	.string	" "
	.string	" "
	.string	" "
	.string	" "
	.string	" "
	.string	" "
	.string	" "
	.string	" "
	.string	"%"
	.string	"E"
	.string	"x"
	.string	"%"
	.string	"d"
	.string	"%"
	.string	"N"
	.string	"\r"
	.string	"\n"
	.zero	2
	.align	3
.LC320:
	.string	"N"
	.string	"o"
	.string	"t"
	.zero	2
	.align	3
.LC321:
	.string	"L"
	.string	"0"
	.string	"s"
	.zero	2
	.align	3
.LC322:
	.string	"L"
	.string	"1"
	.zero	2
	.align	3
.LC323:
	.string	"L"
	.string	"0"
	.string	"s"
	.string	" "
	.string	"a"
	.string	"n"
	.string	"d"
	.string	" "
	.string	"L"
	.string	"1"
	.zero	2
	.align	3
.LC324:
	.string	" "
	.string	" "
	.string	"A"
	.string	"c"
	.string	"t"
	.string	"i"
	.string	"v"
	.string	"e"
	.string	" "
	.string	"S"
	.string	"t"
	.string	"a"
	.string	"t"
	.string	"e"
	.string	" "
	.string	"P"
	.string	"o"
	.string	"w"
	.string	"e"
	.string	"r"
	.string	" "
	.string	"M"
	.string	"a"
	.string	"n"
	.string	"a"
	.string	"g"
	.string	"e"
	.string	"m"
	.string	"e"
	.string	"n"
	.string	"t"
	.string	" "
	.string	"S"
	.string	"u"
	.string	"p"
	.string	"p"
	.string	"o"
	.string	"r"
	.string	"t"
	.string	"("
	.string	"1"
	.string	"1"
	.string	":"
	.string	"1"
	.string	"0"
	.string	")"
	.string	":"
	.string	" "
	.string	" "
	.string	" "
	.string	" "
	.string	" "
	.string	" "
	.string	" "
	.string	"%"
	.string	"E"
	.string	"%"
	.string	"s"
	.string	" "
	.string	"S"
	.string	"u"
	.string	"p"
	.string	"p"
	.string	"o"
	.string	"r"
	.string	"t"
	.string	"e"
	.string	"d"
	.string	"%"
	.string	"N"
	.string	"\r"
	.string	"\n"
	.zero	2
	.align	3
.LC325:
	.string	" "
	.string	" "
	.string	"L"
	.string	"0"
	.string	"s"
	.string	" "
	.string	"E"
	.string	"x"
	.string	"i"
	.string	"t"
	.string	" "
	.string	"L"
	.string	"a"
	.string	"t"
	.string	"e"
	.string	"n"
	.string	"c"
	.string	"y"
	.string	"("
	.string	"1"
	.string	"4"
	.string	":"
	.string	"1"
	.string	"2"
	.string	")"
	.string	":"
	.string	" "
	.string	" "
	.string	" "
	.string	" "
	.string	" "
	.string	" "
	.string	" "
	.string	" "
	.string	" "
	.string	" "
	.string	" "
	.string	" "
	.string	" "
	.string	" "
	.string	" "
	.string	" "
	.string	" "
	.string	" "
	.string	" "
	.string	" "
	.string	" "
	.string	" "
	.string	" "
	.string	" "
	.string	" "
	.string	" "
	.string	" "
	.string	" "
	.string	"%"
	.string	"E"
	.string	"%"
	.string	"s"
	.string	"%"
	.string	"N"
	.string	"\r"
	.string	"\n"
	.zero	2
	.align	3
.LC326:
	.string	" "
	.string	" "
	.string	"L"
	.string	"1"
	.string	" "
	.string	"E"
	.string	"x"
	.string	"i"
	.string	"t"
	.string	" "
	.string	"L"
	.string	"a"
	.string	"t"
	.string	"e"
	.string	"n"
	.string	"c"
	.string	"y"
	.string	"("
	.string	"1"
	.string	"7"
	.string	":"
	.string	"1"
	.string	"5"
	.string	")"
	.string	":"
	.string	" "
	.string	" "
	.string	" "
	.string	" "
	.string	" "
	.string	" "
	.string	" "
	.string	" "
	.string	" "
	.string	" "
	.string	" "
	.string	" "
	.string	" "
	.string	" "
	.string	" "
	.string	" "
	.string	" "
	.string	" "
	.string	" "
	.string	" "
	.string	" "
	.string	" "
	.string	" "
	.string	" "
	.string	" "
	.string	" "
	.string	" "
	.string	" "
	.string	" "
	.string	"%"
	.string	"E"
	.string	"%"
	.string	"s"
	.string	"%"
	.string	"N"
	.string	"\r"
	.string	"\n"
	.zero	2
	.align	3
.LC327:
	.string	" "
	.string	" "
	.string	"C"
	.string	"l"
	.string	"o"
	.string	"c"
	.string	"k"
	.string	" "
	.string	"P"
	.string	"o"
	.string	"w"
	.string	"e"
	.string	"r"
	.string	" "
	.string	"M"
	.string	"a"
	.string	"n"
	.string	"a"
	.string	"g"
	.string	"e"
	.string	"m"
	.string	"e"
	.string	"n"
	.string	"t"
	.string	"("
	.string	"1"
	.string	"8"
	.string	")"
	.string	":"
	.string	" "
	.string	" "
	.string	" "
	.string	" "
	.string	" "
	.string	" "
	.string	" "
	.string	" "
	.string	" "
	.string	" "
	.string	" "
	.string	" "
	.string	" "
	.string	" "
	.string	" "
	.string	" "
	.string	" "
	.string	" "
	.string	" "
	.string	" "
	.string	" "
	.string	" "
	.string	" "
	.string	" "
	.string	" "
	.string	"%"
	.string	"E"
	.string	"%"
	.string	"d"
	.string	"%"
	.string	"N"
	.string	"\r"
	.string	"\n"
	.zero	2
	.align	3
.LC328:
	.string	" "
	.string	" "
	.string	"S"
	.string	"u"
	.string	"r"
	.string	"p"
	.string	"r"
	.string	"i"
	.string	"s"
	.string	"e"
	.string	" "
	.string	"D"
	.string	"o"
	.string	"w"
	.string	"n"
	.string	" "
	.string	"E"
	.string	"r"
	.string	"r"
	.string	"o"
	.string	"r"
	.string	" "
	.string	"R"
	.string	"e"
	.string	"p"
	.string	"o"
	.string	"r"
	.string	"t"
	.string	"i"
	.string	"n"
	.string	"g"
	.string	" "
	.string	"C"
	.string	"a"
	.string	"p"
	.string	"a"
	.string	"b"
	.string	"l"
	.string	"e"
	.string	"("
	.string	"1"
	.string	"9"
	.string	")"
	.string	":"
	.string	" "
	.string	" "
	.string	" "
	.string	" "
	.string	" "
	.string	" "
	.string	" "
	.string	" "
	.string	" "
	.string	" "
	.string	"%"
	.string	"E"
	.string	"%"
	.string	"d"
	.string	"%"
	.string	"N"
	.string	"\r"
	.string	"\n"
	.zero	2
	.align	3
.LC329:
	.string	" "
	.string	" "
	.string	"D"
	.string	"a"
	.string	"t"
	.string	"a"
	.string	" "
	.string	"L"
	.string	"i"
	.string	"n"
	.string	"k"
	.string	" "
	.string	"L"
	.string	"a"
	.string	"y"
	.string	"e"
	.string	"r"
	.string	" "
	.string	"L"
	.string	"i"
	.string	"n"
	.string	"k"
	.string	" "
	.string	"A"
	.string	"c"
	.string	"t"
	.string	"i"
	.string	"v"
	.string	"e"
	.string	" "
	.string	"R"
	.string	"e"
	.string	"p"
	.string	"o"
	.string	"r"
	.string	"t"
	.string	"i"
	.string	"n"
	.string	"g"
	.string	" "
	.string	"C"
	.string	"a"
	.string	"p"
	.string	"a"
	.string	"b"
	.string	"l"
	.string	"e"
	.string	"("
	.string	"2"
	.string	"0"
	.string	")"
	.string	":"
	.string	" "
	.string	" "
	.string	"%"
	.string	"E"
	.string	"%"
	.string	"d"
	.string	"%"
	.string	"N"
	.string	"\r"
	.string	"\n"
	.zero	2
	.align	3
.LC330:
	.string	" "
	.string	" "
	.string	"L"
	.string	"i"
	.string	"n"
	.string	"k"
	.string	" "
	.string	"B"
	.string	"a"
	.string	"n"
	.string	"d"
	.string	"w"
	.string	"i"
	.string	"d"
	.string	"t"
	.string	"h"
	.string	" "
	.string	"N"
	.string	"o"
	.string	"t"
	.string	"i"
	.string	"f"
	.string	"i"
	.string	"c"
	.string	"a"
	.string	"t"
	.string	"i"
	.string	"o"
	.string	"n"
	.string	" "
	.string	"C"
	.string	"a"
	.string	"p"
	.string	"a"
	.string	"b"
	.string	"i"
	.string	"l"
	.string	"i"
	.string	"t"
	.string	"y"
	.string	"("
	.string	"2"
	.string	"1"
	.string	")"
	.string	":"
	.string	" "
	.string	" "
	.string	" "
	.string	" "
	.string	" "
	.string	" "
	.string	" "
	.string	" "
	.string	" "
	.string	"%"
	.string	"E"
	.string	"%"
	.string	"d"
	.string	"%"
	.string	"N"
	.string	"\r"
	.string	"\n"
	.zero	2
	.align	3
.LC331:
	.string	" "
	.string	" "
	.string	"P"
	.string	"o"
	.string	"r"
	.string	"t"
	.string	" "
	.string	"N"
	.string	"u"
	.string	"m"
	.string	"b"
	.string	"e"
	.string	"r"
	.string	"("
	.string	"3"
	.string	"1"
	.string	":"
	.string	"2"
	.string	"4"
	.string	")"
	.string	":"
	.string	" "
	.string	" "
	.string	" "
	.string	" "
	.string	" "
	.string	" "
	.string	" "
	.string	" "
	.string	" "
	.string	" "
	.string	" "
	.string	" "
	.string	" "
	.string	" "
	.string	" "
	.string	" "
	.string	" "
	.string	" "
	.string	" "
	.string	" "
	.string	" "
	.string	" "
	.string	" "
	.string	" "
	.string	" "
	.string	" "
	.string	" "
	.string	" "
	.string	" "
	.string	" "
	.string	" "
	.string	" "
	.string	" "
	.string	"%"
	.string	"E"
	.string	"0"
	.string	"x"
	.string	"%"
	.string	"0"
	.string	"2"
	.string	"x"
	.string	"%"
	.string	"N"
	.string	"\r"
	.string	"\n"
	.zero	2
	.section	.text.ExplainPcieLinkCap,"ax",@progbits
	.align	1
	.globl	ExplainPcieLinkCap
	.type	ExplainPcieLinkCap, @function
ExplainPcieLinkCap:
.LFB19:
	.loc 1 4792 1
	.cfi_startproc
	addi	sp,sp,-48
	.cfi_def_cfa_offset 48
	sd	ra,40(sp)
	sd	s0,32(sp)
	.cfi_offset 1, -8
	.cfi_offset 8, -16
	addi	s0,sp,48
	.cfi_def_cfa 8, 0
	sd	a0,-40(s0)
	.loc 1 4796 45
	ld	a5,-40(s0)
	lbu	a5,12(a5)
	andi	a5,a5,15
	andi	a5,a5,0xff
	sext.w	a5,a5
	.loc 1 4796 3
	li	a4,6
	beq	a5,a4,.L247
	li	a4,6
	bgt	a5,a4,.L248
	li	a4,5
	beq	a5,a4,.L249
	li	a4,5
	bgt	a5,a4,.L248
	li	a4,4
	beq	a5,a4,.L250
	li	a4,4
	bgt	a5,a4,.L248
	li	a4,3
	beq	a5,a4,.L251
	li	a4,3
	bgt	a5,a4,.L248
	li	a4,1
	beq	a5,a4,.L252
	li	a4,2
	beq	a5,a4,.L253
	j	.L248
.L252:
	.loc 1 4798 20
	lla	a5,.LC312
	sd	a5,-24(s0)
	.loc 1 4799 7
	j	.L254
.L253:
	.loc 1 4801 20
	lla	a5,.LC313
	sd	a5,-24(s0)
	.loc 1 4802 7
	j	.L254
.L251:
	.loc 1 4804 20
	lla	a5,.LC314
	sd	a5,-24(s0)
	.loc 1 4805 7
	j	.L254
.L250:
	.loc 1 4807 20
	lla	a5,.LC315
	sd	a5,-24(s0)
	.loc 1 4808 7
	j	.L254
.L249:
	.loc 1 4810 20
	lla	a5,.LC316
	sd	a5,-24(s0)
	.loc 1 4811 7
	j	.L254
.L247:
	.loc 1 4813 20
	lla	a5,.LC317
	sd	a5,-24(s0)
	.loc 1 4814 7
	j	.L254
.L248:
	.loc 1 4816 20
	lla	a5,.LC257
	sd	a5,-24(s0)
	.loc 1 4817 7
	nop
.L254:
	.loc 1 4820 3
	ld	a3,-24(s0)
	lla	a2,.LC318
	li	a1,-1
	li	a0,-1
	call	ShellPrintEx@plt
	.loc 1 4830 39
	ld	a5,-40(s0)
	lbu	a4,12(a5)
	srliw	a4,a4,4
	andi	a4,a4,0xff
	lbu	a5,13(a5)
	andi	a5,a5,3
	slli	a5,a5,4
	or	a5,a5,a4
	andi	a5,a5,0xff
	.loc 1 4826 3
	sext.w	a5,a5
	mv	a3,a5
	lla	a2,.LC319
	li	a1,-1
	li	a0,-1
	call	ShellPrintEx@plt
	.loc 1 4832 45
	ld	a5,-40(s0)
	lbu	a5,13(a5)
	srliw	a5,a5,2
	andi	a5,a5,3
	andi	a5,a5,0xff
	sext.w	a5,a5
	.loc 1 4832 3
	li	a4,3
	beq	a5,a4,.L255
	li	a4,3
	bgt	a5,a4,.L256
	li	a4,2
	beq	a5,a4,.L257
	li	a4,2
	bgt	a5,a4,.L256
	beq	a5,zero,.L258
	li	a4,1
	beq	a5,a4,.L259
	j	.L256
.L258:
	.loc 1 4834 17
	lla	a5,.LC320
	sd	a5,-32(s0)
	.loc 1 4835 7
	j	.L260
.L259:
	.loc 1 4837 17
	lla	a5,.LC321
	sd	a5,-32(s0)
	.loc 1 4838 7
	j	.L260
.L257:
	.loc 1 4840 17
	lla	a5,.LC322
	sd	a5,-32(s0)
	.loc 1 4841 7
	j	.L260
.L255:
	.loc 1 4843 17
	lla	a5,.LC323
	sd	a5,-32(s0)
	.loc 1 4844 7
	j	.L260
.L256:
	.loc 1 4846 17
	lla	a5,.LC257
	sd	a5,-32(s0)
	.loc 1 4847 7
	nop
.L260:
	.loc 1 4850 3
	ld	a3,-32(s0)
	lla	a2,.LC324
	li	a1,-1
	li	a0,-1
	call	ShellPrintEx@plt
	.loc 1 4860 58
	ld	a5,-40(s0)
	lbu	a5,13(a5)
	srliw	a5,a5,4
	andi	a5,a5,7
	andi	a5,a5,0xff
	sext.w	a5,a5
	.loc 1 4856 3
	lla	a4,L0sLatencyStrTable
	slli	a5,a5,3
	add	a5,a4,a5
	ld	a5,0(a5)
	mv	a3,a5
	lla	a2,.LC325
	li	a1,-1
	li	a0,-1
	call	ShellPrintEx@plt
	.loc 1 4866 57
	ld	a5,-40(s0)
	lbu	a4,13(a5)
	srliw	a4,a4,7
	andi	a4,a4,0xff
	lbu	a5,14(a5)
	andi	a5,a5,3
	slli	a5,a5,1
	or	a5,a5,a4
	andi	a5,a5,0xff
	sext.w	a5,a5
	.loc 1 4862 3
	lla	a4,L1LatencyStrTable
	slli	a5,a5,3
	add	a5,a4,a5
	ld	a5,0(a5)
	mv	a3,a5
	lla	a2,.LC326
	li	a1,-1
	li	a0,-1
	call	ShellPrintEx@plt
	.loc 1 4872 39
	ld	a5,-40(s0)
	lbu	a5,14(a5)
	srliw	a5,a5,2
	andi	a5,a5,1
	andi	a5,a5,0xff
	.loc 1 4868 3
	sext.w	a5,a5
	mv	a3,a5
	lla	a2,.LC327
	li	a1,-1
	li	a0,-1
	call	ShellPrintEx@plt
	.loc 1 4878 39
	ld	a5,-40(s0)
	lbu	a5,14(a5)
	srliw	a5,a5,3
	andi	a5,a5,1
	andi	a5,a5,0xff
	.loc 1 4874 3
	sext.w	a5,a5
	mv	a3,a5
	lla	a2,.LC328
	li	a1,-1
	li	a0,-1
	call	ShellPrintEx@plt
	.loc 1 4884 39
	ld	a5,-40(s0)
	lbu	a5,14(a5)
	srliw	a5,a5,4
	andi	a5,a5,1
	andi	a5,a5,0xff
	.loc 1 4880 3
	sext.w	a5,a5
	mv	a3,a5
	lla	a2,.LC329
	li	a1,-1
	li	a0,-1
	call	ShellPrintEx@plt
	.loc 1 4890 39
	ld	a5,-40(s0)
	lbu	a5,14(a5)
	srliw	a5,a5,5
	andi	a5,a5,1
	andi	a5,a5,0xff
	.loc 1 4886 3
	sext.w	a5,a5
	mv	a3,a5
	lla	a2,.LC330
	li	a1,-1
	li	a0,-1
	call	ShellPrintEx@plt
	.loc 1 4896 39
	ld	a5,-40(s0)
	lbu	a5,15(a5)
	.loc 1 4892 3
	sext.w	a5,a5
	mv	a3,a5
	lla	a2,.LC331
	li	a1,-1
	li	a0,-1
	call	ShellPrintEx@plt
	.loc 1 4898 10
	li	a5,0
	.loc 1 4899 1
	mv	a0,a5
	ld	ra,40(sp)
	.cfi_restore 1
	ld	s0,32(sp)
	.cfi_restore 8
	.cfi_def_cfa 2, 48
	addi	sp,sp,48
	.cfi_def_cfa_offset 0
	jr	ra
	.cfi_endproc
.LFE19:
	.size	ExplainPcieLinkCap, .-ExplainPcieLinkCap
	.section	.rodata
	.align	3
.LC332:
	.string	" "
	.string	" "
	.string	"A"
	.string	"c"
	.string	"t"
	.string	"i"
	.string	"v"
	.string	"e"
	.string	" "
	.string	"S"
	.string	"t"
	.string	"a"
	.string	"t"
	.string	"e"
	.string	" "
	.string	"P"
	.string	"o"
	.string	"w"
	.string	"e"
	.string	"r"
	.string	" "
	.string	"M"
	.string	"a"
	.string	"n"
	.string	"a"
	.string	"g"
	.string	"e"
	.string	"m"
	.string	"e"
	.string	"n"
	.string	"t"
	.string	" "
	.string	"C"
	.string	"o"
	.string	"n"
	.string	"t"
	.string	"r"
	.string	"o"
	.string	"l"
	.string	"("
	.string	"1"
	.string	":"
	.string	"0"
	.string	")"
	.string	":"
	.string	" "
	.string	" "
	.string	" "
	.string	" "
	.string	" "
	.string	" "
	.string	" "
	.string	" "
	.string	" "
	.string	"%"
	.string	"E"
	.string	"%"
	.string	"s"
	.string	"%"
	.string	"N"
	.string	"\r"
	.string	"\n"
	.zero	2
	.align	3
.LC333:
	.string	" "
	.string	" "
	.string	"R"
	.string	"e"
	.string	"a"
	.string	"d"
	.string	" "
	.string	"C"
	.string	"o"
	.string	"m"
	.string	"p"
	.string	"l"
	.string	"e"
	.string	"t"
	.string	"i"
	.string	"o"
	.string	"n"
	.string	" "
	.string	"B"
	.string	"o"
	.string	"u"
	.string	"n"
	.string	"d"
	.string	"a"
	.string	"r"
	.string	"y"
	.string	" "
	.string	"("
	.string	"R"
	.string	"C"
	.string	"B"
	.string	")"
	.string	"("
	.string	"3"
	.string	")"
	.string	":"
	.string	" "
	.string	" "
	.string	" "
	.string	" "
	.string	" "
	.string	" "
	.string	" "
	.string	" "
	.string	" "
	.string	" "
	.string	" "
	.string	" "
	.string	" "
	.string	" "
	.string	" "
	.string	" "
	.string	" "
	.string	" "
	.string	"%"
	.string	"E"
	.string	"%"
	.string	"d"
	.string	" "
	.string	"b"
	.string	"y"
	.string	"t"
	.string	"e"
	.string	"%"
	.string	"N"
	.string	"\r"
	.string	"\n"
	.zero	2
	.align	3
.LC334:
	.string	" "
	.string	" "
	.string	"L"
	.string	"i"
	.string	"n"
	.string	"k"
	.string	" "
	.string	"D"
	.string	"i"
	.string	"s"
	.string	"a"
	.string	"b"
	.string	"l"
	.string	"e"
	.string	"("
	.string	"4"
	.string	")"
	.string	":"
	.string	" "
	.string	" "
	.string	" "
	.string	" "
	.string	" "
	.string	" "
	.string	" "
	.string	" "
	.string	" "
	.string	" "
	.string	" "
	.string	" "
	.string	" "
	.string	" "
	.string	" "
	.string	" "
	.string	" "
	.string	" "
	.string	" "
	.string	" "
	.string	" "
	.string	" "
	.string	" "
	.string	" "
	.string	" "
	.string	" "
	.string	" "
	.string	" "
	.string	" "
	.string	" "
	.string	" "
	.string	" "
	.string	" "
	.string	" "
	.string	" "
	.string	" "
	.string	"%"
	.string	"E"
	.string	"%"
	.string	"d"
	.string	"%"
	.string	"N"
	.string	"\r"
	.string	"\n"
	.zero	2
	.align	3
.LC335:
	.string	" "
	.string	" "
	.string	"C"
	.string	"o"
	.string	"m"
	.string	"m"
	.string	"o"
	.string	"n"
	.string	" "
	.string	"C"
	.string	"l"
	.string	"o"
	.string	"c"
	.string	"k"
	.string	" "
	.string	"C"
	.string	"o"
	.string	"n"
	.string	"f"
	.string	"i"
	.string	"g"
	.string	"u"
	.string	"r"
	.string	"a"
	.string	"t"
	.string	"i"
	.string	"o"
	.string	"n"
	.string	"("
	.string	"6"
	.string	")"
	.string	":"
	.string	" "
	.string	" "
	.string	" "
	.string	" "
	.string	" "
	.string	" "
	.string	" "
	.string	" "
	.string	" "
	.string	" "
	.string	" "
	.string	" "
	.string	" "
	.string	" "
	.string	" "
	.string	" "
	.string	" "
	.string	" "
	.string	" "
	.string	" "
	.string	" "
	.string	" "
	.string	"%"
	.string	"E"
	.string	"%"
	.string	"d"
	.string	"%"
	.string	"N"
	.string	"\r"
	.string	"\n"
	.zero	2
	.align	3
.LC336:
	.string	" "
	.string	" "
	.string	"E"
	.string	"x"
	.string	"t"
	.string	"e"
	.string	"n"
	.string	"d"
	.string	"e"
	.string	"d"
	.string	" "
	.string	"S"
	.string	"y"
	.string	"n"
	.string	"c"
	.string	"h"
	.string	"("
	.string	"7"
	.string	")"
	.string	":"
	.string	" "
	.string	" "
	.string	" "
	.string	" "
	.string	" "
	.string	" "
