	.file	"UefiShellDebug1CommandsLib.c"
	.option pic
	.option norelax
	.attribute arch, "rv64i2p1_m2p0_a2p1_f2p2_d2p2_c2p0_zicsr2p0_zifencei2p0_zmmul1p0_zaamo1p0_zalrsc1p0_zca1p0_zcd1p0"
	.attribute unaligned_access, 0
	.attribute stack_align, 16
	.text
.Ltext0:
	.cfi_sections	.debug_frame
	.file 0 "/home/kapoagaeming/Downloads/spacemit-image-builder/components/Build/Milk-V-Jupiter/RELEASE_GCC5/RISCV64/ShellPkg/Library/UefiShellDebug1CommandsLib/UefiShellDebug1CommandsLib" "/home/kapoagaeming/Downloads/spacemit-image-builder/components/edk2/ShellPkg/Library/UefiShellDebug1CommandsLib/UefiShellDebug1CommandsLib.c"
	.section	.rodata.mFileName,"a"
	.align	3
	.type	mFileName, @object
	.size	mFileName, 30
mFileName:
	.string	"D"
	.string	"e"
	.string	"b"
	.string	"u"
	.string	"g"
	.string	"1"
	.string	"C"
	.string	"o"
	.string	"m"
	.string	"m"
	.string	"a"
	.string	"n"
	.string	"d"
	.string	"s"
	.zero	2
	.globl	gShellDebug1HiiHandle
	.section	.bss.gShellDebug1HiiHandle,"aw",@nobits
	.align	3
	.type	gShellDebug1HiiHandle, @object
	.size	gShellDebug1HiiHandle, 8
gShellDebug1HiiHandle:
	.zero	8
	.section	.text.ShellCommandGetManFileNameDebug1,"ax",@progbits
	.align	1
	.globl	ShellCommandGetManFileNameDebug1
	.type	ShellCommandGetManFileNameDebug1, @function
ShellCommandGetManFileNameDebug1:
.LFB0:
	.file 1 "/home/kapoagaeming/Downloads/spacemit-image-builder/components/edk2/ShellPkg/Library/UefiShellDebug1CommandsLib/UefiShellDebug1CommandsLib.c"
	.loc 1 26 1
	.cfi_startproc
	addi	sp,sp,-16
	.cfi_def_cfa_offset 16
	sd	ra,8(sp)
	sd	s0,0(sp)
	.cfi_offset 1, -8
	.cfi_offset 8, -16
	addi	s0,sp,16
	.cfi_def_cfa 8, 0
	.loc 1 27 10
	lla	a5,mFileName
	.loc 1 28 1
	mv	a0,a5
	ld	ra,8(sp)
	.cfi_restore 1
	ld	s0,0(sp)
	.cfi_restore 8
	.cfi_def_cfa 2, 16
	addi	sp,sp,16
	.cfi_def_cfa_offset 0
	jr	ra
	.cfi_endproc
.LFE0:
	.size	ShellCommandGetManFileNameDebug1, .-ShellCommandGetManFileNameDebug1
	.section	.rodata
	.align	3
.LC0:
	.string	"D"
	.string	"e"
	.string	"b"
	.string	"u"
	.string	"g"
	.string	"1"
	.zero	2
	.align	3
.LC1:
	.string	"s"
	.string	"e"
	.string	"t"
	.string	"s"
	.string	"i"
	.string	"z"
	.string	"e"
	.zero	2
	.align	3
.LC2:
	.string	"c"
	.string	"o"
	.string	"m"
	.string	"p"
	.zero	2
	.align	3
.LC3:
	.string	"m"
	.string	"o"
	.string	"d"
	.string	"e"
	.zero	2
	.align	3
.LC4:
	.string	"m"
	.string	"e"
	.string	"m"
	.string	"m"
	.string	"a"
	.string	"p"
	.zero	2
	.align	3
.LC5:
	.string	"e"
	.string	"f"
	.string	"i"
	.string	"c"
	.string	"o"
	.string	"m"
	.string	"p"
	.string	"r"
	.string	"e"
	.string	"s"
	.string	"s"
	.zero	2
	.align	3
.LC6:
	.string	"e"
	.string	"f"
	.string	"i"
	.string	"d"
	.string	"e"
	.string	"c"
	.string	"o"
	.string	"m"
	.string	"p"
	.string	"r"
	.string	"e"
	.string	"s"
	.string	"s"
	.zero	2
	.align	3
.LC7:
	.string	"d"
	.string	"m"
	.string	"e"
	.string	"m"
	.zero	2
	.align	3
.LC8:
	.string	"l"
	.string	"o"
	.string	"a"
	.string	"d"
	.string	"p"
	.string	"c"
	.string	"i"
	.string	"r"
	.string	"o"
	.string	"m"
	.zero	2
	.align	3
.LC9:
	.string	"m"
	.string	"m"
	.zero	2
	.align	3
.LC10:
	.string	"s"
	.string	"e"
	.string	"t"
	.string	"v"
	.string	"a"
	.string	"r"
	.zero	2
	.align	3
.LC11:
	.string	"s"
	.string	"e"
	.string	"r"
	.string	"m"
	.string	"o"
	.string	"d"
	.string	"e"
	.zero	2
	.align	3
.LC12:
	.string	"p"
	.string	"c"
	.string	"i"
	.zero	2
	.align	3
.LC13:
	.string	"s"
	.string	"m"
	.string	"b"
	.string	"i"
	.string	"o"
	.string	"s"
	.string	"v"
	.string	"i"
	.string	"e"
	.string	"w"
	.zero	2
	.align	3
.LC14:
	.string	"d"
	.string	"m"
	.string	"p"
	.string	"s"
	.string	"t"
	.string	"o"
	.string	"r"
	.string	"e"
	.zero	2
	.align	3
.LC15:
	.string	"d"
	.string	"b"
	.string	"l"
	.string	"k"
	.zero	2
	.align	3
.LC16:
	.string	"e"
	.string	"d"
	.string	"i"
	.string	"t"
	.zero	2
	.align	3
.LC17:
	.string	"h"
	.string	"e"
	.string	"x"
	.string	"e"
	.string	"d"
	.string	"i"
	.string	"t"
	.zero	2
	.align	3
.LC18:
	.string	"m"
	.string	"e"
	.string	"m"
	.zero	2
	.section	.text.UefiShellDebug1CommandsLibConstructor,"ax",@progbits
	.align	1
	.globl	UefiShellDebug1CommandsLibConstructor
	.type	UefiShellDebug1CommandsLibConstructor, @function
UefiShellDebug1CommandsLibConstructor:
.LFB1:
	.loc 1 45 1
	.cfi_startproc
	addi	sp,sp,-32
	.cfi_def_cfa_offset 32
	sd	ra,24(sp)
	sd	s0,16(sp)
	.cfi_offset 1, -8
	.cfi_offset 8, -16
	addi	s0,sp,32
	.cfi_def_cfa 8, 0
	sd	a0,-24(s0)
	sd	a1,-32(s0)
	.loc 1 49 47
	la	a5,_gPcd_FixedAtBuild_PcdShellProfileMask
	lbu	a5,0(a5)
	sext.w	a5,a5
	andi	a5,a5,2
	sext.w	a5,a5
	.loc 1 49 6
	bne	a5,zero,.L4
	.loc 1 50 12
	li	a5,0
	j	.L5
.L4:
	.loc 1 56 27
	la	a5,gImageHandle
	ld	a5,0(a5)
	li	a3,0
	la	a2,UefiShellDebug1CommandsLibStrings
	mv	a1,a5
	la	a0,gShellDebug1HiiGuid
	call	HiiAddPackages@plt
	mv	a4,a0
	.loc 1 56 25 discriminator 1
	lla	a5,gShellDebug1HiiHandle
	sd	a4,0(a5)
	.loc 1 57 29
	lla	a5,gShellDebug1HiiHandle
	ld	a5,0(a5)
	.loc 1 57 6
	bne	a5,zero,.L6
	.loc 1 58 12
	li	a5,-1
	slli	a5,a5,63
	addi	a5,a5,7
	j	.L5
.L6:
	.loc 1 64 3
	lla	a5,gShellDebug1HiiHandle
	ld	a5,0(a5)
	li	a7,808
	mv	a6,a5
	li	a5,1
	lla	a4,.LC0
	li	a3,0
	lla	a2,ShellCommandGetManFileNameDebug1
	la	a1,ShellCommandRunSetSize
	lla	a0,.LC1
	call	ShellCommandRegisterCommandName@plt
	.loc 1 65 3
	lla	a5,gShellDebug1HiiHandle
	ld	a5,0(a5)
	li	a7,807
	mv	a6,a5
	li	a5,1
	lla	a4,.LC0
	li	a3,0
	lla	a2,ShellCommandGetManFileNameDebug1
	la	a1,ShellCommandRunComp
	lla	a0,.LC2
	call	ShellCommandRegisterCommandName@plt
	.loc 1 66 3
	lla	a5,gShellDebug1HiiHandle
	ld	a5,0(a5)
	li	a7,809
	mv	a6,a5
	li	a5,1
	lla	a4,.LC0
	li	a3,0
	lla	a2,ShellCommandGetManFileNameDebug1
	la	a1,ShellCommandRunMode
	lla	a0,.LC3
	call	ShellCommandRegisterCommandName@plt
	.loc 1 67 3
	lla	a5,gShellDebug1HiiHandle
	ld	a5,0(a5)
	li	a7,810
	mv	a6,a5
	li	a5,1
	lla	a4,.LC0
	li	a3,0
	lla	a2,ShellCommandGetManFileNameDebug1
	la	a1,ShellCommandRunMemMap
	lla	a0,.LC4
	call	ShellCommandRegisterCommandName@plt
	.loc 1 68 3
	lla	a5,gShellDebug1HiiHandle
	ld	a5,0(a5)
	li	a7,811
	mv	a6,a5
	li	a5,1
	lla	a4,.LC0
	li	a3,0
	lla	a2,ShellCommandGetManFileNameDebug1
	la	a1,ShellCommandRunEfiCompress
	lla	a0,.LC5
	call	ShellCommandRegisterCommandName@plt
	.loc 1 69 3
	lla	a5,gShellDebug1HiiHandle
	ld	a5,0(a5)
	li	a7,812
	mv	a6,a5
	li	a5,1
	lla	a4,.LC0
	li	a3,0
	lla	a2,ShellCommandGetManFileNameDebug1
	la	a1,ShellCommandRunEfiDecompress
	lla	a0,.LC6
	call	ShellCommandRegisterCommandName@plt
	.loc 1 70 3
	lla	a5,gShellDebug1HiiHandle
	ld	a5,0(a5)
	li	a7,813
	mv	a6,a5
	li	a5,1
	lla	a4,.LC0
	li	a3,0
	lla	a2,ShellCommandGetManFileNameDebug1
	la	a1,ShellCommandRunDmem
	lla	a0,.LC7
	call	ShellCommandRegisterCommandName@plt
	.loc 1 71 3
	lla	a5,gShellDebug1HiiHandle
	ld	a5,0(a5)
	li	a7,815
	mv	a6,a5
	li	a5,1
	lla	a4,.LC0
	li	a3,0
	lla	a2,ShellCommandGetManFileNameDebug1
	la	a1,ShellCommandRunLoadPciRom
	lla	a0,.LC8
	call	ShellCommandRegisterCommandName@plt
	.loc 1 72 3
	lla	a5,gShellDebug1HiiHandle
	ld	a5,0(a5)
	li	a7,814
	mv	a6,a5
	li	a5,1
	lla	a4,.LC0
	li	a3,0
	lla	a2,ShellCommandGetManFileNameDebug1
	la	a1,ShellCommandRunMm
	lla	a0,.LC9
	call	ShellCommandRegisterCommandName@plt
	.loc 1 73 3
	lla	a5,gShellDebug1HiiHandle
	ld	a5,0(a5)
	li	a7,816
	mv	a6,a5
	li	a5,1
	lla	a4,.LC0
	li	a3,0
	lla	a2,ShellCommandGetManFileNameDebug1
	la	a1,ShellCommandRunSetVar
	lla	a0,.LC10
	call	ShellCommandRegisterCommandName@plt
	.loc 1 74 3
	lla	a5,gShellDebug1HiiHandle
	ld	a5,0(a5)
	li	a7,817
	mv	a6,a5
	li	a5,1
	lla	a4,.LC0
	li	a3,0
	lla	a2,ShellCommandGetManFileNameDebug1
	la	a1,ShellCommandRunSerMode
	lla	a0,.LC11
	call	ShellCommandRegisterCommandName@plt
	.loc 1 75 3
	lla	a5,gShellDebug1HiiHandle
	ld	a5,0(a5)
	li	a7,818
	mv	a6,a5
	li	a5,1
	lla	a4,.LC0
	li	a3,0
	lla	a2,ShellCommandGetManFileNameDebug1
	la	a1,ShellCommandRunPci
	lla	a0,.LC12
	call	ShellCommandRegisterCommandName@plt
	.loc 1 76 3
	lla	a5,gShellDebug1HiiHandle
	ld	a5,0(a5)
	li	a7,819
	mv	a6,a5
	li	a5,1
	lla	a4,.LC0
	li	a3,0
	lla	a2,ShellCommandGetManFileNameDebug1
	la	a1,ShellCommandRunSmbiosView
	lla	a0,.LC13
	call	ShellCommandRegisterCommandName@plt
	.loc 1 77 3
	lla	a5,gShellDebug1HiiHandle
	ld	a5,0(a5)
	li	a7,820
	mv	a6,a5
	li	a5,1
	lla	a4,.LC0
	li	a3,0
	lla	a2,ShellCommandGetManFileNameDebug1
	la	a1,ShellCommandRunDmpStore
	lla	a0,.LC14
	call	ShellCommandRegisterCommandName@plt
	.loc 1 78 3
	lla	a5,gShellDebug1HiiHandle
	ld	a5,0(a5)
	li	a7,821
	mv	a6,a5
	li	a5,1
	lla	a4,.LC0
	li	a3,0
	lla	a2,ShellCommandGetManFileNameDebug1
	la	a1,ShellCommandRunDblk
	lla	a0,.LC15
	call	ShellCommandRegisterCommandName@plt
	.loc 1 79 3
	lla	a5,gShellDebug1HiiHandle
	ld	a5,0(a5)
	li	a7,822
	mv	a6,a5
	li	a5,1
	lla	a4,.LC0
	li	a3,0
	lla	a2,ShellCommandGetManFileNameDebug1
	la	a1,ShellCommandRunEdit
	lla	a0,.LC16
	call	ShellCommandRegisterCommandName@plt
	.loc 1 80 3
	lla	a5,gShellDebug1HiiHandle
	ld	a5,0(a5)
	li	a7,823
	mv	a6,a5
	li	a5,1
	lla	a4,.LC0
	li	a3,0
	lla	a2,ShellCommandGetManFileNameDebug1
	la	a1,ShellCommandRunHexEdit
	lla	a0,.LC17
	call	ShellCommandRegisterCommandName@plt
	.loc 1 82 3
	lla	a1,.LC18
	lla	a0,.LC7
	call	ShellCommandRegisterAlias@plt
	.loc 1 84 3
	lla	a2,.LC0
	ld	a1,-32(s0)
	ld	a0,-24(s0)
	call	BcfgLibraryRegisterBcfgCommand@plt
	.loc 1 86 10
	li	a5,0
.L5:
	.loc 1 87 1
	mv	a0,a5
	ld	ra,24(sp)
	.cfi_restore 1
	ld	s0,16(sp)
	.cfi_restore 8
	.cfi_def_cfa 2, 32
	addi	sp,sp,32
	.cfi_def_cfa_offset 0
	jr	ra
	.cfi_endproc
.LFE1:
	.size	UefiShellDebug1CommandsLibConstructor, .-UefiShellDebug1CommandsLibConstructor
	.section	.text.UefiShellDebug1CommandsLibDestructor,"ax",@progbits
	.align	1
	.globl	UefiShellDebug1CommandsLibDestructor
	.type	UefiShellDebug1CommandsLibDestructor, @function
UefiShellDebug1CommandsLibDestructor:
.LFB2:
	.loc 1 101 1
	.cfi_startproc
	addi	sp,sp,-32
	.cfi_def_cfa_offset 32
	sd	ra,24(sp)
	sd	s0,16(sp)
	.cfi_offset 1, -8
	.cfi_offset 8, -16
	addi	s0,sp,32
	.cfi_def_cfa 8, 0
	sd	a0,-24(s0)
	sd	a1,-32(s0)
	.loc 1 102 29
	lla	a5,gShellDebug1HiiHandle
	ld	a5,0(a5)
	.loc 1 102 6
	beq	a5,zero,.L8
	.loc 1 103 5
	lla	a5,gShellDebug1HiiHandle
	ld	a5,0(a5)
	mv	a0,a5
	call	HiiRemovePackages@plt
.L8:
	.loc 1 106 3
	ld	a1,-32(s0)
	ld	a0,-24(s0)
	call	BcfgLibraryUnregisterBcfgCommand@plt
	.loc 1 107 10
	li	a5,0
	.loc 1 108 1
	mv	a0,a5
	ld	ra,24(sp)
	.cfi_restore 1
	ld	s0,16(sp)
	.cfi_restore 8
	.cfi_def_cfa 2, 32
	addi	sp,sp,32
	.cfi_def_cfa_offset 0
	jr	ra
	.cfi_endproc
.LFE2:
	.size	UefiShellDebug1CommandsLibDestructor, .-UefiShellDebug1CommandsLibDestructor
	.section	.text.GetSystemConfigurationTable,"ax",@progbits
	.align	1
	.globl	GetSystemConfigurationTable
	.type	GetSystemConfigurationTable, @function
GetSystemConfigurationTable:
.LFB3:
	.loc 1 125 1
	.cfi_startproc
	addi	sp,sp,-48
	.cfi_def_cfa_offset 48
	sd	ra,40(sp)
	sd	s0,32(sp)
	.cfi_offset 1, -8
	.cfi_offset 8, -16
	addi	s0,sp,48
	.cfi_def_cfa 8, 0
	sd	a0,-40(s0)
	sd	a1,-48(s0)
	.loc 1 130 14
	sd	zero,-24(s0)
	.loc 1 130 3
	j	.L11
.L14:
	.loc 1 131 38
	la	a5,gST
	ld	a5,0(a5)
	ld	a3,112(a5)
	.loc 1 131 58
	ld	a4,-24(s0)
	mv	a5,a4
	slli	a5,a5,1
	add	a5,a5,a4
	slli	a5,a5,3
	add	a5,a3,a5
	.loc 1 131 9
	mv	a1,a5
	ld	a0,-40(s0)
	call	CompareGuid@plt
	mv	a5,a0
	.loc 1 131 8 discriminator 1
	beq	a5,zero,.L12
	.loc 1 132 19
	la	a5,gST
	ld	a5,0(a5)
	ld	a3,112(a5)
	.loc 1 132 39
	ld	a4,-24(s0)
	mv	a5,a4
	slli	a5,a5,1
	add	a5,a5,a4
	slli	a5,a5,3
	add	a5,a3,a5
	.loc 1 132 46
	ld	a4,16(a5)
	.loc 1 132 14
	ld	a5,-48(s0)
	sd	a4,0(a5)
	.loc 1 133 14
	li	a5,0
	j	.L13
.L12:
	.loc 1 130 59 discriminator 2
	ld	a5,-24(s0)
	addi	a5,a5,1
	sd	a5,-24(s0)
.L11:
	.loc 1 130 30 discriminator 1
	la	a5,gST
	ld	a5,0(a5)
	ld	a5,104(a5)
	.loc 1 130 25 discriminator 1
	ld	a4,-24(s0)
	bltu	a4,a5,.L14
	.loc 1 137 10
	li	a5,-1
	slli	a5,a5,63
	addi	a5,a5,14
.L13:
	.loc 1 138 1
	mv	a0,a5
	ld	ra,40(sp)
	.cfi_restore 1
	ld	s0,32(sp)
	.cfi_restore 8
	.cfi_def_cfa 2, 48
	addi	sp,sp,48
	.cfi_def_cfa_offset 0
	jr	ra
	.cfi_endproc
.LFE3:
	.size	GetSystemConfigurationTable, .-GetSystemConfigurationTable
	.section	.text.EditorClearLine,"ax",@progbits
	.align	1
	.globl	EditorClearLine
	.type	EditorClearLine, @function
EditorClearLine:
.LFB4:
	.loc 1 153 1
	.cfi_startproc
	addi	sp,sp,-464
	.cfi_def_cfa_offset 464
	sd	ra,456(sp)
	sd	s0,448(sp)
	.cfi_offset 1, -8
	.cfi_offset 8, -16
	addi	s0,sp,464
	.cfi_def_cfa 8, 0
	sd	a0,-440(s0)
	sd	a1,-448(s0)
	sd	a2,-456(s0)
	.loc 1 157 6
	ld	a5,-440(s0)
	bne	a5,zero,.L16
	.loc 1 158 9
	li	a5,1
	sd	a5,-440(s0)
.L16:
	.loc 1 165 3
	addi	a5,s0,-424
	li	a2,32
	li	a1,400
	mv	a0,a5
	call	SetMem16@plt
	.loc 1 166 50
	sh	zero,-26(s0)
	.loc 1 168 12
	li	a5,1
	sd	a5,-24(s0)
	.loc 1 168 3
	j	.L17
.L20:
	.loc 1 169 52
	ld	a5,-24(s0)
	addi	a5,a5,199
	.loc 1 169 8
	ld	a4,-448(s0)
	bgeu	a4,a5,.L18
	.loc 1 170 10
	ld	a4,-440(s0)
	ld	a5,-456(s0)
	bne	a4,a5,.L19
	.loc 1 174 23
	ld	a5,-448(s0)
	addi	a4,a5,-1
	.loc 1 174 28
	lla	a5,.LC19
	ld	a5,0(a5)
	mulhu	a5,a4,a5
	sub	a3,a4,a5
	srli	a3,a3,1
	add	a5,a5,a3
	srli	a5,a5,7
	li	a3,199
	mul	a5,a5,a3
	sub	a5,a4,a5
	.loc 1 174 74
	addi	a4,s0,-424
	slli	a5,a5,1
	add	a5,a5,a4
	sh	zero,0(a5)
	j	.L18
.L19:
	.loc 1 176 22
	ld	a4,-448(s0)
	lla	a5,.LC19
	ld	a5,0(a5)
	mulhu	a5,a4,a5
	sub	a3,a4,a5
	srli	a3,a3,1
	add	a5,a5,a3
	srli	a5,a5,7
	li	a3,199
	mul	a5,a5,a3
	sub	a5,a4,a5
	.loc 1 176 68
	addi	a4,s0,-424
	slli	a5,a5,1
	add	a5,a5,a4
	sh	zero,0(a5)
.L18:
	.loc 1 183 19
	ld	a5,-24(s0)
	sext.w	a5,a5
	.loc 1 183 30
	addiw	a5,a5,-1
	sext.w	a4,a5
	.loc 1 183 35
	ld	a5,-440(s0)
	sext.w	a5,a5
	.loc 1 183 46
	addiw	a5,a5,-1
	sext.w	a5,a5
	.loc 1 183 5
	addi	a3,s0,-424
	mv	a2,a3
	mv	a1,a5
	mv	a0,a4
	call	ShellPrintEx@plt
	.loc 1 168 37 discriminator 2
	ld	a5,-24(s0)
	addi	a5,a5,199
	sd	a5,-24(s0)
.L17:
	.loc 1 168 21 discriminator 1
	ld	a4,-24(s0)
	ld	a5,-448(s0)
	bleu	a4,a5,.L20
	.loc 1 185 1
	nop
	nop
	ld	ra,456(sp)
	.cfi_restore 1
	ld	s0,448(sp)
	.cfi_restore 8
	.cfi_def_cfa 2, 464
	addi	sp,sp,464
	.cfi_def_cfa_offset 0
	jr	ra
	.cfi_endproc
.LFE4:
	.size	EditorClearLine, .-EditorClearLine
	.section	.text.IsValidFileNameChar,"ax",@progbits
	.align	1
	.globl	IsValidFileNameChar
	.type	IsValidFileNameChar, @function
IsValidFileNameChar:
.LFB5:
	.loc 1 199 1
	.cfi_startproc
	addi	sp,sp,-32
	.cfi_def_cfa_offset 32
	sd	ra,24(sp)
	sd	s0,16(sp)
	.cfi_offset 1, -8
	.cfi_offset 8, -16
	addi	s0,sp,32
	.cfi_def_cfa 8, 0
	mv	a5,a0
	sh	a5,-18(s0)
	.loc 1 203 6
	lhu	a5,-18(s0)
	sext.w	a4,a5
	li	a5,31
	bleu	a4,a5,.L22
	.loc 1 203 19 discriminator 1
	lhu	a5,-18(s0)
	sext.w	a4,a5
	li	a5,34
	beq	a4,a5,.L22
	.loc 1 203 36 discriminator 2
	lhu	a5,-18(s0)
	sext.w	a4,a5
	li	a5,42
	beq	a4,a5,.L22
	.loc 1 203 52 discriminator 3
	lhu	a5,-18(s0)
	sext.w	a4,a5
	li	a5,47
	beq	a4,a5,.L22
	.loc 1 203 68 discriminator 4
	lhu	a5,-18(s0)
	sext.w	a4,a5
	li	a5,60
	beq	a4,a5,.L22
	.loc 1 203 84 discriminator 5
	lhu	a5,-18(s0)
	sext.w	a4,a5
	li	a5,62
	beq	a4,a5,.L22
	.loc 1 203 100 discriminator 6
	lhu	a5,-18(s0)
	sext.w	a4,a5
	li	a5,63
	beq	a4,a5,.L22
	.loc 1 203 116 discriminator 7
	lhu	a5,-18(s0)
	sext.w	a4,a5
	li	a5,124
	bne	a4,a5,.L23
.L22:
	.loc 1 204 12
	li	a5,0
	j	.L24
.L23:
	.loc 1 207 10
	li	a5,1
.L24:
	.loc 1 208 1
	mv	a0,a5
	ld	ra,24(sp)
	.cfi_restore 1
	ld	s0,16(sp)
	.cfi_restore 8
	.cfi_def_cfa 2, 32
	addi	sp,sp,32
	.cfi_def_cfa_offset 0
	jr	ra
	.cfi_endproc
.LFE5:
	.size	IsValidFileNameChar, .-IsValidFileNameChar
	.section	.text.IsValidFileName,"ax",@progbits
	.align	1
	.globl	IsValidFileName
	.type	IsValidFileName, @function
IsValidFileName:
.LFB6:
	.loc 1 222 1
	.cfi_startproc
	addi	sp,sp,-48
	.cfi_def_cfa_offset 48
	sd	ra,40(sp)
	sd	s0,32(sp)
	.cfi_offset 1, -8
	.cfi_offset 8, -16
	addi	s0,sp,48
	.cfi_def_cfa 8, 0
	sd	a0,-40(s0)
	.loc 1 229 12
	sd	zero,-32(s0)
	.loc 1 229 25
	ld	a0,-40(s0)
	call	StrLen@plt
	mv	a5,a0
	.loc 1 229 23 discriminator 1
	addi	a5,a5,-1
	sd	a5,-24(s0)
	.loc 1 229 3
	j	.L26
.L28:
	.loc 1 230 14
	ld	a5,-24(s0)
	slli	a5,a5,1
	ld	a4,-40(s0)
	add	a5,a4,a5
	lhu	a5,0(a5)
	.loc 1 230 8
	sext.w	a4,a5
	li	a5,92
	beq	a4,a5,.L27
	.loc 1 230 39 discriminator 1
	ld	a5,-24(s0)
	slli	a5,a5,1
	ld	a4,-40(s0)
	add	a5,a4,a5
	lhu	a5,0(a5)
	.loc 1 230 31 discriminator 1
	sext.w	a4,a5
	li	a5,58
	beq	a4,a5,.L27
	.loc 1 229 65 discriminator 3
	ld	a5,-24(s0)
	addi	a5,a5,-1
	sd	a5,-24(s0)
	.loc 1 229 72 discriminator 3
	ld	a5,-32(s0)
	addi	a5,a5,1
	sd	a5,-32(s0)
.L26:
	.loc 1 229 54 discriminator 2
	ld	a4,-24(s0)
	li	a5,-1
	bne	a4,a5,.L28
.L27:
	.loc 1 235 6
	ld	a5,-32(s0)
	beq	a5,zero,.L29
	.loc 1 235 18 discriminator 1
	ld	a4,-32(s0)
	li	a5,255
	bleu	a4,a5,.L30
.L29:
	.loc 1 236 12
	li	a5,0
	j	.L31
.L30:
	.loc 1 242 14
	sd	zero,-24(s0)
	.loc 1 242 3
	j	.L32
.L34:
	.loc 1 243 35
	ld	a5,-24(s0)
	slli	a5,a5,1
	ld	a4,-40(s0)
	add	a5,a4,a5
	.loc 1 243 10
	lhu	a5,0(a5)
	mv	a0,a5
	call	IsValidFileNameChar
	mv	a5,a0
	.loc 1 243 8 discriminator 1
	bne	a5,zero,.L33
	.loc 1 244 14
	li	a5,0
	j	.L31
.L33:
	.loc 1 242 47 discriminator 2
	ld	a5,-24(s0)
	addi	a5,a5,1
	sd	a5,-24(s0)
.L32:
	.loc 1 242 27 discriminator 1
	ld	a0,-40(s0)
	call	StrLen@plt
	mv	a4,a0
	.loc 1 242 25 discriminator 3
	ld	a5,-24(s0)
	bltu	a5,a4,.L34
	.loc 1 248 10
	li	a5,1
.L31:
	.loc 1 249 1
	mv	a0,a5
	ld	ra,40(sp)
	.cfi_restore 1
	ld	s0,32(sp)
	.cfi_restore 8
	.cfi_def_cfa 2, 48
	addi	sp,sp,48
	.cfi_def_cfa_offset 0
	jr	ra
	.cfi_endproc
.LFE6:
	.size	IsValidFileName, .-IsValidFileName
	.section	.rodata
	.align	3
.LC20:
	.string	"N"
	.string	"e"
	.string	"w"
	.string	"F"
	.string	"i"
	.string	"l"
	.string	"e"
	.string	"%"
	.string	"d"
	.string	"."
	.string	"%"
	.string	"s"
	.zero	2
	.section	.text.EditGetDefaultFileName,"ax",@progbits
	.align	1
	.globl	EditGetDefaultFileName
	.type	EditGetDefaultFileName, @function
EditGetDefaultFileName:
.LFB7:
	.loc 1 263 1
	.cfi_startproc
	addi	sp,sp,-64
	.cfi_def_cfa_offset 64
	sd	ra,56(sp)
	sd	s0,48(sp)
	.cfi_offset 1, -8
	.cfi_offset 8, -16
	addi	s0,sp,64
	.cfi_def_cfa 8, 0
	sd	a0,-56(s0)
	.loc 1 268 10
	sd	zero,-24(s0)
.L39:
	.loc 1 271 19
	ld	a3,-56(s0)
	ld	a2,-24(s0)
	lla	a1,.LC20
	li	a0,0
	call	CatSPrint@plt
	sd	a0,-32(s0)
	.loc 1 272 8
	ld	a5,-32(s0)
	bne	a5,zero,.L36
	.loc 1 274 14
	li	a5,0
	j	.L37
.L36:
	.loc 1 280 14
	ld	a0,-32(s0)
	call	ShellFileExists@plt
	sd	a0,-40(s0)
	.loc 1 282 8
	ld	a4,-40(s0)
	li	a5,-1
	slli	a5,a5,63
	addi	a5,a5,14
	bne	a4,a5,.L38
	.loc 1 283 14
	ld	a5,-32(s0)
	j	.L37
.L38:
	.loc 1 286 5
	ld	a0,-32(s0)
	call	FreePool@plt
	.loc 1 287 17
	sd	zero,-32(s0)
	.loc 1 288 11
	ld	a5,-24(s0)
	addi	a5,a5,1
	sd	a5,-24(s0)
	.loc 1 289 19
	ld	a5,-24(s0)
	bne	a5,zero,.L39
	.loc 1 291 3
	ld	a0,-32(s0)
	call	FreePool@plt
	.loc 1 292 10
	li	a5,0
.L37:
	.loc 1 293 1
	mv	a0,a5
	ld	ra,56(sp)
	.cfi_restore 1
	ld	s0,48(sp)
	.cfi_restore 8
	.cfi_def_cfa 2, 64
	addi	sp,sp,64
	.cfi_def_cfa_offset 0
	jr	ra
	.cfi_endproc
.LFE7:
	.size	EditGetDefaultFileName, .-EditGetDefaultFileName
	.section	.text.ReadFileIntoBuffer,"ax",@progbits
	.align	1
	.globl	ReadFileIntoBuffer
	.type	ReadFileIntoBuffer, @function
ReadFileIntoBuffer:
.LFB8:
	.loc 1 323 1
	.cfi_startproc
	addi	sp,sp,-96
	.cfi_def_cfa_offset 96
	sd	ra,88(sp)
	sd	s0,80(sp)
	.cfi_offset 1, -8
	.cfi_offset 8, -16
	addi	s0,sp,96
	.cfi_def_cfa 8, 0
	sd	a0,-72(s0)
	sd	a1,-80(s0)
	sd	a2,-88(s0)
	sd	a3,-96(s0)
	.loc 1 331 18
	sd	zero,-24(s0)
	.loc 1 332 12
	sd	zero,-56(s0)
	.loc 1 333 14
	sd	zero,-64(s0)
	.loc 1 334 14
	sb	zero,-25(s0)
	.loc 1 335 10
	sd	zero,-40(s0)
	.loc 1 336 8
	sd	zero,-48(s0)
	.loc 1 338 6
	ld	a5,-72(s0)
	beq	a5,zero,.L41
	.loc 1 338 34 discriminator 1
	ld	a5,-80(s0)
	beq	a5,zero,.L41
	.loc 1 338 62 discriminator 2
	ld	a5,-96(s0)
	bne	a5,zero,.L42
.L41:
	.loc 1 339 12
	li	a5,-1
	slli	a5,a5,63
	addi	a5,a5,2
	j	.L57
.L42:
	.loc 1 345 12
	addi	a5,s0,-64
	li	a3,0
	li	a2,1
	mv	a1,a5
	ld	a0,-72(s0)
	call	ShellOpenFileByName@plt
	sd	a0,-40(s0)
	.loc 1 347 7
	ld	a5,-40(s0)
	.loc 1 347 6
	blt	a5,zero,.L44
	.loc 1 349 20
	ld	a5,-64(s0)
	.loc 1 349 8
	bne	a5,zero,.L45
	.loc 1 350 14
	li	a5,-1
	slli	a5,a5,63
	addi	a5,a5,1
	j	.L57
.L45:
	.loc 1 353 12
	ld	a5,-64(s0)
	mv	a0,a5
	call	ShellGetFileInfo@plt
	sd	a0,-48(s0)
	.loc 1 355 13
	ld	a5,-48(s0)
	ld	a5,72(a5)
	.loc 1 355 25
	andi	a5,a5,16
	.loc 1 355 8
	beq	a5,zero,.L46
	.loc 1 356 7
	ld	a0,-48(s0)
	call	FreePool@plt
	.loc 1 357 14
	li	a5,-1
	slli	a5,a5,63
	addi	a5,a5,2
	j	.L57
.L46:
	.loc 1 360 13
	ld	a5,-48(s0)
	ld	a5,72(a5)
	.loc 1 360 25
	andi	a5,a5,1
	.loc 1 360 8
	beq	a5,zero,.L47
	.loc 1 361 17
	ld	a5,-96(s0)
	li	a4,1
	sb	a4,0(a5)
	j	.L48
.L47:
	.loc 1 363 17
	ld	a5,-96(s0)
	sb	zero,0(a5)
.L48:
	.loc 1 369 27
	ld	a5,-48(s0)
	ld	a5,8(a5)
	.loc 1 369 14
	sd	a5,-56(s0)
	.loc 1 371 5
	ld	a0,-48(s0)
	call	FreePool@plt
	j	.L49
.L44:
	.loc 1 372 13
	ld	a4,-40(s0)
	li	a5,-1
	slli	a5,a5,63
	addi	a5,a5,14
	bne	a4,a5,.L49
	.loc 1 376 14
	addi	a4,s0,-64
	li	a3,0
	li	a5,-1
	slli	a5,a5,63
	addi	a2,a5,3
	mv	a1,a4
	ld	a0,-72(s0)
	call	ShellOpenFileByName@plt
	sd	a0,-40(s0)
	.loc 1 377 36
	ld	a5,-40(s0)
	.loc 1 377 8
	bge	a5,zero,.L50
	.loc 1 378 14
	ld	a5,-40(s0)
	j	.L57
.L50:
	.loc 1 383 16
	addi	a5,s0,-64
	mv	a0,a5
	call	ShellDeleteFile@plt
	sd	a0,-40(s0)
	.loc 1 384 10
	ld	a4,-40(s0)
	li	a5,2
	bne	a4,a5,.L51
	.loc 1 385 16
	li	a5,-1
	slli	a5,a5,63
	addi	a5,a5,15
	sd	a5,-40(s0)
.L51:
	.loc 1 388 38
	ld	a5,-40(s0)
	.loc 1 388 10
	bge	a5,zero,.L52
	.loc 1 389 16
	ld	a5,-40(s0)
	j	.L57
.L52:
	.loc 1 396 16
	li	a5,1
	sb	a5,-25(s0)
	.loc 1 397 15
	ld	a5,-96(s0)
	sb	zero,0(a5)
.L49:
	.loc 1 403 6
	lbu	a5,-25(s0)
	andi	a5,a5,0xff
	bne	a5,zero,.L53
	.loc 1 407 22
	ld	a5,-56(s0)
	mv	a0,a5
	call	AllocateZeroPool@plt
	sd	a0,-24(s0)
	.loc 1 408 8
	ld	a5,-24(s0)
	bne	a5,zero,.L54
	.loc 1 409 14
	li	a5,-1
	slli	a5,a5,63
	addi	a5,a5,9
	j	.L57
.L54:
	.loc 1 415 14
	ld	a5,-64(s0)
	addi	a4,s0,-56
	ld	a2,-24(s0)
	mv	a1,a4
	mv	a0,a5
	call	ShellReadFile@plt
	sd	a0,-40(s0)
	.loc 1 416 5
	addi	a5,s0,-64
	mv	a0,a5
	call	ShellCloseFile@plt
	.loc 1 417 16
	sd	zero,-64(s0)
	.loc 1 418 36
	ld	a5,-40(s0)
	.loc 1 418 8
	bge	a5,zero,.L53
	.loc 1 419 15
	ld	a5,-24(s0)
	beq	a5,zero,.L55
	.loc 1 419 52 discriminator 1
	ld	a0,-24(s0)
	call	FreePool@plt
	.loc 1 419 97 discriminator 2
	sd	zero,-24(s0)
.L55:
	.loc 1 420 14
	li	a5,-1
	slli	a5,a5,63
	addi	a5,a5,1
	j	.L57
.L53:
	.loc 1 424 11
	ld	a5,-80(s0)
	ld	a4,-24(s0)
	sd	a4,0(a5)
	.loc 1 425 6
	ld	a5,-88(s0)
	beq	a5,zero,.L56
	.loc 1 426 17
	ld	a4,-56(s0)
	ld	a5,-88(s0)
	sd	a4,0(a5)
.L56:
	.loc 1 429 10
	li	a5,0
.L57:
	.loc 1 430 1
	mv	a0,a5
	ld	ra,88(sp)
	.cfi_restore 1
	ld	s0,80(sp)
	.cfi_restore 8
	.cfi_def_cfa 2, 96
	addi	sp,sp,96
	.cfi_def_cfa_offset 0
	jr	ra
	.cfi_endproc
.LFE8:
	.size	ReadFileIntoBuffer, .-ReadFileIntoBuffer
	.section	.rodata
	.align	3
.LC19:
	.dword	5283740764831379107
	.text
.Letext0:
	.file 2 "/home/kapoagaeming/Downloads/spacemit-image-builder/components/edk2/MdePkg/Include/RiscV64/ProcessorBind.h"
	.file 3 "/home/kapoagaeming/Downloads/spacemit-image-builder/components/edk2/MdePkg/Include/Base.h"
	.file 4 "/home/kapoagaeming/Downloads/spacemit-image-builder/components/edk2/MdePkg/Include/Uefi/UefiBaseType.h"
	.file 5 "/home/kapoagaeming/Downloads/spacemit-image-builder/components/edk2/MdePkg/Include/Uefi/UefiMultiPhase.h"
	.file 6 "/home/kapoagaeming/Downloads/spacemit-image-builder/components/edk2/MdePkg/Include/Protocol/DevicePath.h"
	.file 7 "/home/kapoagaeming/Downloads/spacemit-image-builder/components/edk2/MdePkg/Include/Protocol/SimpleTextIn.h"
	.file 8 "/home/kapoagaeming/Downloads/spacemit-image-builder/components/edk2/MdePkg/Include/Protocol/SimpleTextOut.h"
	.file 9 "/home/kapoagaeming/Downloads/spacemit-image-builder/components/edk2/MdePkg/Include/Uefi/UefiSpec.h"
	.file 10 "/home/kapoagaeming/Downloads/spacemit-image-builder/components/edk2/MdePkg/Include/Uefi/UefiInternalFormRepresentation.h"
	.file 11 "/home/kapoagaeming/Downloads/spacemit-image-builder/components/Build/Milk-V-Jupiter/RELEASE_GCC5/RISCV64/ShellPkg/Library/UefiShellDebug1CommandsLib/UefiShellDebug1CommandsLib/DEBUG/AutoGen.h"
	.file 12 "/home/kapoagaeming/Downloads/spacemit-image-builder/components/Build/Milk-V-Jupiter/RELEASE_GCC5/RISCV64/ShellPkg/Library/UefiShellDebug1CommandsLib/UefiShellDebug1CommandsLib/DEBUG/UefiShellDebug1CommandsLibStrDefs.h"
	.file 13 "/home/kapoagaeming/Downloads/spacemit-image-builder/components/edk2/MdePkg/Include/Guid/FileInfo.h"
	.file 14 "/home/kapoagaeming/Downloads/spacemit-image-builder/components/edk2/MdePkg/Include/Protocol/Shell.h"
	.file 15 "/home/kapoagaeming/Downloads/spacemit-image-builder/components/edk2/MdePkg/Include/Library/UefiBootServicesTableLib.h"
	.file 16 "/home/kapoagaeming/Downloads/spacemit-image-builder/components/edk2/ShellPkg/Include/Library/ShellCommandLib.h"
	.file 17 "/home/kapoagaeming/Downloads/spacemit-image-builder/components/edk2/ShellPkg/Library/UefiShellDebug1CommandsLib/UefiShellDebug1CommandsLib.h"
	.file 18 "/home/kapoagaeming/Downloads/spacemit-image-builder/components/edk2/ShellPkg/Include/Library/ShellLib.h"
	.file 19 "/home/kapoagaeming/Downloads/spacemit-image-builder/components/edk2/MdePkg/Include/Library/MemoryAllocationLib.h"
	.file 20 "/home/kapoagaeming/Downloads/spacemit-image-builder/components/edk2/MdePkg/Include/Library/UefiLib.h"
	.file 21 "/home/kapoagaeming/Downloads/spacemit-image-builder/components/edk2/MdePkg/Include/Library/BaseLib.h"
	.file 22 "/home/kapoagaeming/Downloads/spacemit-image-builder/components/edk2/MdePkg/Include/Library/BaseMemoryLib.h"
	.file 23 "/home/kapoagaeming/Downloads/spacemit-image-builder/components/edk2/ShellPkg/Include/Library/BcfgCommandLib.h"
	.file 24 "/home/kapoagaeming/Downloads/spacemit-image-builder/components/edk2/MdeModulePkg/Include/Library/HiiLib.h"
	.section	.note.GNU-stack,"",@progbits
