	.file	"FwVolBlock.c"
	.option pic
	.option norelax
	.attribute arch, "rv64i2p1_m2p0_a2p1_f2p2_d2p2_c2p0_zicsr2p0_zifencei2p0_zmmul1p0_zaamo1p0_zalrsc1p0_zca1p0_zcd1p0"
	.attribute unaligned_access, 0
	.attribute stack_align, 16
	.text
.Ltext0:
	.cfi_sections	.debug_frame
	.file 0 "/home/kapoagaeming/spacemit-image-builder/components/Build/Milk-V-Jupiter/RELEASE_GCC5/RISCV64/MdeModulePkg/Core/Dxe/DxeMain" "/home/kapoagaeming/spacemit-image-builder/components/edk2/MdeModulePkg/Core/Dxe/FwVolBlock/FwVolBlock.c"
	.globl	mFvMemmapDevicePathTemplate
	.section	.data.mFvMemmapDevicePathTemplate,"aw"
	.align	3
	.type	mFvMemmapDevicePathTemplate, @object
	.size	mFvMemmapDevicePathTemplate, 28
mFvMemmapDevicePathTemplate:
	.byte	1
	.byte	3
	.string	"\030"
	.word	11
	.dword	0
	.dword	0
	.byte	127
	.byte	-1
	.string	"\004"
	.globl	mFvPIWGDevicePathTemplate
	.section	.data.mFvPIWGDevicePathTemplate,"aw"
	.align	3
	.type	mFvPIWGDevicePathTemplate, @object
	.size	mFvPIWGDevicePathTemplate, 24
mFvPIWGDevicePathTemplate:
	.byte	4
	.byte	7
	.string	"\024"
	.word	0
	.zero	12
	.byte	127
	.byte	-1
	.string	"\004"
	.globl	mFwVolBlock
	.section	.data.rel.local.mFwVolBlock,"aw"
	.align	3
	.type	mFwVolBlock, @object
	.size	mFwVolBlock, 128
mFwVolBlock:
	.dword	1112950367
	.dword	0
	.dword	0
	.dword	FwVolBlockGetAttributes
	.dword	FwVolBlockSetAttributes
	.dword	FwVolBlockGetPhysicalAddress
	.dword	FwVolBlockGetBlockSize
	.dword	FwVolBlockReadBlock
	.dword	FwVolBlockWriteBlock
	.dword	FwVolBlockEraseBlock
	.dword	0
	.dword	0
	.dword	0
	.word	0
	.zero	4
	.dword	0
	.word	0
	.zero	4
	.section	.text.FwVolBlockGetAttributes,"ax",@progbits
	.align	1
	.globl	FwVolBlockGetAttributes
	.type	FwVolBlockGetAttributes, @function
FwVolBlockGetAttributes:
.LFB0:
	.file 1 "/home/kapoagaeming/spacemit-image-builder/components/edk2/MdeModulePkg/Core/Dxe/FwVolBlock/FwVolBlock.c"
	.loc 1 97 1
	.cfi_startproc
	addi	sp,sp,-48
	.cfi_def_cfa_offset 48
	sd	ra,40(sp)
	sd	s0,32(sp)
	.cfi_offset 1, -8
	.cfi_offset 8, -16
	addi	s0,sp,48
	.cfi_def_cfa 8, 0
	sd	a0,-40(s0)
	sd	a1,-48(s0)
	.loc 1 100 17
	ld	a5,-40(s0)
	addi	a5,a5,-24
	.loc 1 100 149
	ld	a4,0(a5)
	.loc 1 100 234
	li	a5,1112948736
	addi	a5,a5,1631
	bne	a4,a5,.L2
	.loc 1 100 13 discriminator 1
	ld	a5,-40(s0)
	addi	a5,a5,-24
	sd	a5,-24(s0)
	j	.L3
.L2:
	.loc 1 100 13 is_stmt 0 discriminator 2
	sd	zero,-24(s0)
.L3:
	.loc 1 105 26 is_stmt 1
	ld	a5,-24(s0)
	lw	a5,104(a5)
	.loc 1 105 42
	andi	a5,a5,-33
	sext.w	a4,a5
	.loc 1 105 15
	ld	a5,-48(s0)
	sw	a4,0(a5)
	.loc 1 107 10
	li	a5,0
	.loc 1 108 1
	mv	a0,a5
	ld	ra,40(sp)
	.cfi_restore 1
	ld	s0,32(sp)
	.cfi_restore 8
	.cfi_def_cfa 2, 48
	addi	sp,sp,48
	.cfi_def_cfa_offset 0
	jr	ra
	.cfi_endproc
.LFE0:
	.size	FwVolBlockGetAttributes, .-FwVolBlockGetAttributes
	.section	.text.FwVolBlockSetAttributes,"ax",@progbits
	.align	1
	.globl	FwVolBlockSetAttributes
	.type	FwVolBlockSetAttributes, @function
FwVolBlockSetAttributes:
.LFB1:
	.loc 1 129 1
	.cfi_startproc
	addi	sp,sp,-32
	.cfi_def_cfa_offset 32
	sd	ra,24(sp)
	sd	s0,16(sp)
	.cfi_offset 1, -8
	.cfi_offset 8, -16
	addi	s0,sp,32
	.cfi_def_cfa 8, 0
	sd	a0,-24(s0)
	sd	a1,-32(s0)
	.loc 1 130 10
	li	a5,-1
	slli	a5,a5,63
	addi	a5,a5,3
	.loc 1 131 1
	mv	a0,a5
	ld	ra,24(sp)
	.cfi_restore 1
	ld	s0,16(sp)
	.cfi_restore 8
	.cfi_def_cfa 2, 32
	addi	sp,sp,32
	.cfi_def_cfa_offset 0
	jr	ra
	.cfi_endproc
.LFE1:
	.size	FwVolBlockSetAttributes, .-FwVolBlockSetAttributes
	.section	.text.FwVolBlockEraseBlock,"ax",@progbits
	.align	1
	.globl	FwVolBlockEraseBlock
	.type	FwVolBlockEraseBlock, @function
FwVolBlockEraseBlock:
.LFB2:
	.loc 1 162 1
	.cfi_startproc
	addi	sp,sp,-96
	.cfi_def_cfa_offset 96
	sd	ra,24(sp)
	sd	s0,16(sp)
	.cfi_offset 1, -72
	.cfi_offset 8, -80
	addi	s0,sp,32
	.cfi_def_cfa 8, 64
	sd	a0,-24(s0)
	sd	a1,8(s0)
	sd	a2,16(s0)
	sd	a3,24(s0)
	sd	a4,32(s0)
	sd	a5,40(s0)
	sd	a6,48(s0)
	sd	a7,56(s0)
	.loc 1 163 10
	li	a5,-1
	slli	a5,a5,63
	addi	a5,a5,3
	.loc 1 164 1
	mv	a0,a5
	ld	ra,24(sp)
	.cfi_restore 1
	ld	s0,16(sp)
	.cfi_restore 8
	.cfi_def_cfa 2, 96
	addi	sp,sp,96
	.cfi_def_cfa_offset 0
	jr	ra
	.cfi_endproc
.LFE2:
	.size	FwVolBlockEraseBlock, .-FwVolBlockEraseBlock
	.section	.text.FwVolBlockReadBlock,"ax",@progbits
	.align	1
	.globl	FwVolBlockReadBlock
	.type	FwVolBlockReadBlock, @function
FwVolBlockReadBlock:
.LFB3:
	.loc 1 195 1
	.cfi_startproc
	addi	sp,sp,-112
	.cfi_def_cfa_offset 112
	sd	ra,104(sp)
	sd	s0,96(sp)
	.cfi_offset 1, -8
	.cfi_offset 8, -16
	addi	s0,sp,112
	.cfi_def_cfa 8, 0
	sd	a0,-72(s0)
	sd	a1,-80(s0)
	sd	a2,-88(s0)
	sd	a3,-96(s0)
	sd	a4,-104(s0)
	.loc 1 203 17
	ld	a5,-72(s0)
	addi	a5,a5,-24
	.loc 1 203 149
	ld	a4,0(a5)
	.loc 1 203 234
	li	a5,1112948736
	addi	a5,a5,1631
	bne	a4,a5,.L10
	.loc 1 203 13 discriminator 1
	ld	a5,-72(s0)
	addi	a5,a5,-24
	sd	a5,-24(s0)
	j	.L11
.L10:
	.loc 1 203 13 is_stmt 0 discriminator 2
	sd	zero,-24(s0)
.L11:
	.loc 1 208 17 is_stmt 1
	ld	a5,-24(s0)
	lw	a5,104(a5)
	.loc 1 208 33
	andi	a5,a5,4
	sext.w	a5,a5
	.loc 1 208 6
	bne	a5,zero,.L12
	.loc 1 209 12
	li	a5,-1
	slli	a5,a5,63
	addi	a5,a5,15
	j	.L13
.L12:
	.loc 1 212 12
	ld	a5,-80(s0)
	sd	a5,-40(s0)
	.loc 1 213 28
	ld	a5,-24(s0)
	ld	a5,88(a5)
	.loc 1 213 6
	ld	a4,-40(s0)
	bltu	a4,a5,.L14
	.loc 1 217 15
	ld	a5,-96(s0)
	sd	zero,0(a5)
	.loc 1 218 12
	li	a5,-1
	slli	a5,a5,63
	addi	a5,a5,4
	j	.L13
.L14:
	.loc 1 221 25
	ld	a5,-24(s0)
	ld	a4,96(a5)
	.loc 1 221 35
	ld	a5,-40(s0)
	slli	a5,a5,4
	add	a5,a4,a5
	.loc 1 221 45
	ld	a5,8(a5)
	.loc 1 221 6
	ld	a4,-88(s0)
	bleu	a4,a5,.L15
	.loc 1 225 15
	ld	a5,-96(s0)
	sd	zero,0(a5)
	.loc 1 226 12
	li	a5,-1
	slli	a5,a5,63
	addi	a5,a5,4
	j	.L13
.L15:
	.loc 1 229 18
	ld	a5,-96(s0)
	ld	a5,0(a5)
	sd	a5,-32(s0)
	.loc 1 230 14
	ld	a4,-88(s0)
	ld	a5,-32(s0)
	add	a4,a4,a5
	.loc 1 230 42
	ld	a5,-24(s0)
	ld	a3,96(a5)
	.loc 1 230 52
	ld	a5,-40(s0)
	slli	a5,a5,4
	add	a5,a3,a5
	.loc 1 230 62
	ld	a5,8(a5)
	.loc 1 230 6
	bleu	a4,a5,.L16
	.loc 1 234 31
	ld	a5,-24(s0)
	ld	a4,96(a5)
	.loc 1 234 41
	ld	a5,-40(s0)
	slli	a5,a5,4
	add	a5,a4,a5
	.loc 1 234 51
	ld	a4,8(a5)
	.loc 1 234 20
	ld	a5,-88(s0)
	sub	a5,a4,a5
	sd	a5,-32(s0)
.L16:
	.loc 1 237 23
	ld	a5,-24(s0)
	ld	a4,96(a5)
	.loc 1 237 33
	ld	a5,-40(s0)
	slli	a5,a5,4
	add	a5,a4,a5
	.loc 1 237 12
	ld	a5,0(a5)
	sd	a5,-48(s0)
	.loc 1 238 64
	ld	a5,-24(s0)
	ld	a5,112(a5)
	.loc 1 238 15
	sd	a5,-56(s0)
	.loc 1 239 47
	ld	a4,-48(s0)
	ld	a5,-88(s0)
	add	a5,a4,a5
	.loc 1 239 13
	ld	a4,-56(s0)
	add	a5,a4,a5
	sd	a5,-64(s0)
	.loc 1 244 3
	ld	a2,-32(s0)
	ld	a1,-64(s0)
	ld	a0,-104(s0)
	call	CopyMem@plt
	.loc 1 246 25
	ld	a5,-96(s0)
	ld	a5,0(a5)
	.loc 1 246 6
	ld	a4,-32(s0)
	bne	a4,a5,.L17
	.loc 1 247 12
	li	a5,0
	j	.L13
.L17:
	.loc 1 250 13
	ld	a5,-96(s0)
	ld	a4,-32(s0)
	sd	a4,0(a5)
	.loc 1 251 10
	li	a5,-1
	slli	a5,a5,63
	addi	a5,a5,4
.L13:
	.loc 1 252 1
	mv	a0,a5
	ld	ra,104(sp)
	.cfi_restore 1
	ld	s0,96(sp)
	.cfi_restore 8
	.cfi_def_cfa 2, 112
	addi	sp,sp,112
	.cfi_def_cfa_offset 0
	jr	ra
	.cfi_endproc
.LFE3:
	.size	FwVolBlockReadBlock, .-FwVolBlockReadBlock
	.section	.text.FwVolBlockWriteBlock,"ax",@progbits
	.align	1
	.globl	FwVolBlockWriteBlock
	.type	FwVolBlockWriteBlock, @function
FwVolBlockWriteBlock:
.LFB4:
	.loc 1 287 1
	.cfi_startproc
	addi	sp,sp,-64
	.cfi_def_cfa_offset 64
	sd	ra,56(sp)
	sd	s0,48(sp)
	.cfi_offset 1, -8
	.cfi_offset 8, -16
	addi	s0,sp,64
	.cfi_def_cfa 8, 0
	sd	a0,-24(s0)
	sd	a1,-32(s0)
	sd	a2,-40(s0)
	sd	a3,-48(s0)
	sd	a4,-56(s0)
	.loc 1 288 10
	li	a5,-1
	slli	a5,a5,63
	addi	a5,a5,3
	.loc 1 289 1
	mv	a0,a5
	ld	ra,56(sp)
	.cfi_restore 1
	ld	s0,48(sp)
	.cfi_restore 8
	.cfi_def_cfa 2, 64
	addi	sp,sp,64
	.cfi_def_cfa_offset 0
	jr	ra
	.cfi_endproc
.LFE4:
	.size	FwVolBlockWriteBlock, .-FwVolBlockWriteBlock
	.section	.text.FwVolBlockGetPhysicalAddress,"ax",@progbits
	.align	1
	.globl	FwVolBlockGetPhysicalAddress
	.type	FwVolBlockGetPhysicalAddress, @function
FwVolBlockGetPhysicalAddress:
.LFB5:
	.loc 1 307 1
	.cfi_startproc
	addi	sp,sp,-48
	.cfi_def_cfa_offset 48
	sd	ra,40(sp)
	sd	s0,32(sp)
	.cfi_offset 1, -8
	.cfi_offset 8, -16
	addi	s0,sp,48
	.cfi_def_cfa 8, 0
	sd	a0,-40(s0)
	sd	a1,-48(s0)
	.loc 1 310 17
	ld	a5,-40(s0)
	addi	a5,a5,-24
	.loc 1 310 149
	ld	a4,0(a5)
	.loc 1 310 234
	li	a5,1112948736
	addi	a5,a5,1631
	bne	a4,a5,.L21
	.loc 1 310 13 discriminator 1
	ld	a5,-40(s0)
	addi	a5,a5,-24
	sd	a5,-24(s0)
	j	.L22
.L21:
	.loc 1 310 13 is_stmt 0 discriminator 2
	sd	zero,-24(s0)
.L22:
	.loc 1 312 17 is_stmt 1
	ld	a5,-24(s0)
	lw	a5,104(a5)
	.loc 1 312 33
	andi	a5,a5,1024
	sext.w	a5,a5
	.loc 1 312 6
	beq	a5,zero,.L23
	.loc 1 313 25
	ld	a5,-24(s0)
	ld	a4,112(a5)
	.loc 1 313 14
	ld	a5,-48(s0)
	sd	a4,0(a5)
	.loc 1 314 12
	li	a5,0
	j	.L24
.L23:
	.loc 1 317 10
	li	a5,-1
	slli	a5,a5,63
	addi	a5,a5,3
.L24:
	.loc 1 318 1
	mv	a0,a5
	ld	ra,40(sp)
	.cfi_restore 1
	ld	s0,32(sp)
	.cfi_restore 8
	.cfi_def_cfa 2, 48
	addi	sp,sp,48
	.cfi_def_cfa_offset 0
	jr	ra
	.cfi_endproc
.LFE5:
	.size	FwVolBlockGetPhysicalAddress, .-FwVolBlockGetPhysicalAddress
	.section	.text.FwVolBlockGetBlockSize,"ax",@progbits
	.align	1
	.globl	FwVolBlockGetBlockSize
	.type	FwVolBlockGetBlockSize, @function
FwVolBlockGetBlockSize:
.LFB6:
	.loc 1 345 1
	.cfi_startproc
	addi	sp,sp,-80
	.cfi_def_cfa_offset 80
	sd	ra,72(sp)
	sd	s0,64(sp)
	.cfi_offset 1, -8
	.cfi_offset 8, -16
	addi	s0,sp,80
	.cfi_def_cfa 8, 0
	sd	a0,-56(s0)
	sd	a1,-64(s0)
	sd	a2,-72(s0)
	sd	a3,-80(s0)
	.loc 1 351 17
	ld	a5,-56(s0)
	addi	a5,a5,-24
	.loc 1 351 149
	ld	a4,0(a5)
	.loc 1 351 234
	li	a5,1112948736
	addi	a5,a5,1631
	bne	a4,a5,.L26
	.loc 1 351 13 discriminator 1
	ld	a5,-56(s0)
	addi	a5,a5,-24
	sd	a5,-32(s0)
	j	.L27
.L26:
	.loc 1 351 13 is_stmt 0 discriminator 2
	sd	zero,-32(s0)
.L27:
	.loc 1 356 23 is_stmt 1
	ld	a5,-32(s0)
	ld	a5,88(a5)
	.loc 1 356 6
	ld	a4,-64(s0)
	bltu	a4,a5,.L28
	.loc 1 357 12
	li	a5,-1
	slli	a5,a5,63
	addi	a5,a5,2
	j	.L29
.L28:
	.loc 1 360 64
	ld	a5,-32(s0)
	ld	a5,112(a5)
	.loc 1 360 15
	sd	a5,-48(s0)
	.loc 1 362 20
	ld	a5,-48(s0)
	addi	a5,a5,56
	sd	a5,-40(s0)
	.loc 1 367 15
	sd	zero,-24(s0)
	.loc 1 368 9
	j	.L30
.L33:
	.loc 1 369 36
	ld	a5,-40(s0)
	lw	a5,0(a5)
	slli	a5,a5,32
	srli	a5,a5,32
	.loc 1 369 17
	ld	a4,-24(s0)
	add	a5,a4,a5
	sd	a5,-24(s0)
	.loc 1 370 8
	ld	a4,-64(s0)
	ld	a5,-24(s0)
	bltu	a4,a5,.L34
	.loc 1 377 21
	ld	a5,-40(s0)
	addi	a5,a5,8
	sd	a5,-40(s0)
.L30:
	.loc 1 368 27
	ld	a5,-40(s0)
	lw	a5,0(a5)
	.loc 1 368 45
	bne	a5,zero,.L33
	.loc 1 368 65 discriminator 1
	ld	a5,-40(s0)
	lw	a5,4(a5)
	.loc 1 368 45 discriminator 1
	bne	a5,zero,.L33
	j	.L32
.L34:
	.loc 1 374 7
	nop
.L32:
	.loc 1 380 32
	ld	a5,-40(s0)
	lw	a5,4(a5)
	slli	a4,a5,32
	srli	a4,a4,32
	.loc 1 380 14
	ld	a5,-72(s0)
	sd	a4,0(a5)
	.loc 1 381 33
	ld	a4,-24(s0)
	ld	a5,-64(s0)
	sub	a4,a4,a5
	.loc 1 381 19
	ld	a5,-80(s0)
	sd	a4,0(a5)
	.loc 1 383 10
	li	a5,0
.L29:
	.loc 1 384 1
	mv	a0,a5
	ld	ra,72(sp)
	.cfi_restore 1
	ld	s0,64(sp)
	.cfi_restore 8
	.cfi_def_cfa 2, 80
	addi	sp,sp,80
	.cfi_def_cfa_offset 0
	jr	ra
	.cfi_endproc
.LFE6:
	.size	FwVolBlockGetBlockSize, .-FwVolBlockGetBlockSize
	.section	.text.GetFvbAuthenticationStatus,"ax",@progbits
	.align	1
	.globl	GetFvbAuthenticationStatus
	.type	GetFvbAuthenticationStatus, @function
GetFvbAuthenticationStatus:
.LFB7:
	.loc 1 399 1
	.cfi_startproc
	addi	sp,sp,-48
	.cfi_def_cfa_offset 48
	sd	ra,40(sp)
	sd	s0,32(sp)
	.cfi_offset 1, -8
	.cfi_offset 8, -16
	addi	s0,sp,48
	.cfi_def_cfa 8, 0
	sd	a0,-40(s0)
	.loc 1 403 24
	sw	zero,-20(s0)
	.loc 1 404 13
	ld	a5,-40(s0)
	addi	a5,a5,-24
	sd	a5,-32(s0)
	.loc 1 405 16
	ld	a5,-32(s0)
	ld	a4,0(a5)
	.loc 1 405 6
	li	a5,1112948736
	addi	a5,a5,1631
	bne	a4,a5,.L36
	.loc 1 406 26
	ld	a5,-32(s0)
	lw	a5,120(a5)
	sw	a5,-20(s0)
.L36:
	.loc 1 409 10
	lw	a5,-20(s0)
	.loc 1 410 1
	mv	a0,a5
	ld	ra,40(sp)
	.cfi_restore 1
	ld	s0,32(sp)
	.cfi_restore 8
	.cfi_def_cfa 2, 48
	addi	sp,sp,48
	.cfi_def_cfa_offset 0
	jr	ra
	.cfi_endproc
.LFE7:
	.size	GetFvbAuthenticationStatus, .-GetFvbAuthenticationStatus
	.section	.text.ProduceFVBProtocolOnBuffer,"ax",@progbits
	.align	1
	.globl	ProduceFVBProtocolOnBuffer
	.type	ProduceFVBProtocolOnBuffer, @function
ProduceFVBProtocolOnBuffer:
.LFB8:
	.loc 1 439 1
	.cfi_startproc
	addi	sp,sp,-128
	.cfi_def_cfa_offset 128
	sd	ra,120(sp)
	sd	s0,112(sp)
	.cfi_offset 1, -8
	.cfi_offset 8, -16
	addi	s0,sp,128
	.cfi_def_cfa 8, 0
	sd	a0,-88(s0)
	sd	a1,-96(s0)
	sd	a2,-104(s0)
	mv	a5,a3
	sd	a4,-120(s0)
	sw	a5,-108(s0)
	.loc 1 449 15
	sw	zero,-44(s0)
	.loc 1 450 15
	ld	a5,-88(s0)
	sd	a5,-64(s0)
	.loc 1 454 18
	ld	a5,-64(s0)
	lw	a4,40(a5)
	.loc 1 454 6
	li	a5,1213612032
	addi	a5,a5,1631
	beq	a4,a5,.L39
	.loc 1 455 12
	li	a5,-1
	slli	a5,a5,63
	addi	a5,a5,10
	j	.L40
.L39:
	.loc 1 463 19
	ld	a5,-64(s0)
	lw	a5,44(a5)
	.loc 1 463 6
	blt	a5,zero,.L41
	.loc 1 467 37
	ld	a5,-64(s0)
	lw	a5,44(a5)
	.loc 1 467 64
	srliw	a5,a5,16
	sext.w	a5,a5
	andi	a5,a5,31
	sext.w	a5,a5
	.loc 1 467 21
	li	a4,1
	sllw	a5,a4,a5
	sext.w	a5,a5
	.loc 1 467 17
	sw	a5,-44(s0)
	.loc 1 471 8
	lw	a5,-44(s0)
	sext.w	a4,a5
	li	a5,7
	bgtu	a4,a5,.L42
	.loc 1 472 19
	li	a5,8
	sw	a5,-44(s0)
.L42:
	.loc 1 475 28
	lwu	a5,-44(s0)
	ld	a4,-88(s0)
	remu	a5,a4,a5
	.loc 1 475 8
	beq	a5,zero,.L41
	.loc 1 486 14
	li	a5,-1
	slli	a5,a5,63
	addi	a5,a5,10
	j	.L40
.L41:
	.loc 1 493 12
	lla	a1,mFwVolBlock
	li	a0,128
	call	AllocateCopyPool@plt
	sd	a0,-72(s0)
	.loc 1 494 6
	ld	a5,-72(s0)
	bne	a5,zero,.L43
	.loc 1 495 12
	li	a5,-1
	slli	a5,a5,63
	addi	a5,a5,9
	j	.L40
.L43:
	.loc 1 498 23
	ld	a5,-72(s0)
	ld	a4,-88(s0)
	sd	a4,112(a5)
	.loc 1 499 38
	ld	a5,-64(s0)
	lw	a4,44(a5)
	.loc 1 499 25
	ld	a5,-72(s0)
	sw	a4,104(a5)
	.loc 1 500 43
	ld	a5,-72(s0)
	ld	a4,-104(s0)
	sd	a4,80(a5)
	.loc 1 501 32
	ld	a5,-72(s0)
	lw	a4,-108(s0)
	sw	a4,120(a5)
	.loc 1 507 21
	ld	a5,-72(s0)
	sd	zero,88(a5)
	.loc 1 508 25
	ld	a5,-64(s0)
	addi	a5,a5,56
	sd	a5,-56(s0)
	.loc 1 508 3
	j	.L44
.L45:
	.loc 1 512 11
	ld	a5,-72(s0)
	ld	a4,88(a5)
	.loc 1 512 42
	ld	a5,-56(s0)
	lw	a5,0(a5)
	slli	a5,a5,32
	srli	a5,a5,32
	.loc 1 512 23
	add	a4,a4,a5
	ld	a5,-72(s0)
	sd	a4,88(a5)
	.loc 1 510 24
	ld	a5,-56(s0)
	addi	a5,a5,8
	sd	a5,-56(s0)
.L44:
	.loc 1 509 24
	ld	a5,-56(s0)
	lw	a5,0(a5)
	.loc 1 509 36
	bne	a5,zero,.L45
	.loc 1 518 13
	ld	a5,-72(s0)
	ld	a4,88(a5)
	.loc 1 518 6
	li	a5,-17
	srli	a5,a5,4
	bleu	a4,a5,.L46
	.loc 1 519 5
	ld	a0,-72(s0)
	call	CoreFreePool@plt
	.loc 1 520 12
	li	a5,-1
	slli	a5,a5,63
	addi	a5,a5,9
	j	.L40
.L46:
	.loc 1 523 42
	ld	a5,-72(s0)
	ld	a5,88(a5)
	.loc 1 523 54
	slli	a5,a5,4
	.loc 1 523 22
	mv	a0,a5
	call	AllocatePool@plt
	mv	a4,a0
	.loc 1 523 20 discriminator 1
	ld	a5,-72(s0)
	sd	a4,96(a5)
	.loc 1 524 13
	ld	a5,-72(s0)
	ld	a5,96(a5)
	.loc 1 524 6
	bne	a5,zero,.L47
	.loc 1 525 5
	ld	a0,-72(s0)
	call	CoreFreePool@plt
	.loc 1 526 12
	li	a5,-1
	slli	a5,a5,63
	addi	a5,a5,9
	j	.L40
.L47:
	.loc 1 532 14
	sd	zero,-24(s0)
	.loc 1 533 16
	sd	zero,-40(s0)
	.loc 1 534 25
	ld	a5,-64(s0)
	addi	a5,a5,56
	sd	a5,-56(s0)
	.loc 1 534 3
	j	.L48
.L51:
	.loc 1 537 22
	sd	zero,-32(s0)
	.loc 1 537 5
	j	.L49
.L50:
	.loc 1 538 13
	ld	a5,-72(s0)
	ld	a4,96(a5)
	.loc 1 538 23
	ld	a5,-24(s0)
	slli	a5,a5,4
	add	a5,a4,a5
	.loc 1 538 41
	ld	a4,-40(s0)
	sd	a4,0(a5)
	.loc 1 539 61
	ld	a5,-56(s0)
	lw	a3,4(a5)
	.loc 1 539 13
	ld	a5,-72(s0)
	ld	a4,96(a5)
	.loc 1 539 23
	ld	a5,-24(s0)
	slli	a5,a5,4
	add	a5,a4,a5
	.loc 1 539 61
	slli	a4,a3,32
	srli	a4,a4,32
	.loc 1 539 43
	sd	a4,8(a5)
	.loc 1 540 39
	ld	a5,-56(s0)
	lw	a5,4(a5)
	slli	a5,a5,32
	srli	a5,a5,32
	.loc 1 540 20
	ld	a4,-40(s0)
	add	a5,a4,a5
	sd	a5,-40(s0)
	.loc 1 541 17
	ld	a5,-24(s0)
	addi	a5,a5,1
	sd	a5,-24(s0)
	.loc 1 537 81 discriminator 3
	ld	a5,-32(s0)
	addi	a5,a5,1
	sd	a5,-32(s0)
.L49:
	.loc 1 537 57 discriminator 1
	ld	a5,-56(s0)
	lw	a5,0(a5)
	slli	a5,a5,32
	srli	a5,a5,32
	.loc 1 537 39 discriminator 1
	ld	a4,-32(s0)
	bltu	a4,a5,.L50
	.loc 1 535 58
	ld	a5,-56(s0)
	addi	a5,a5,8
	sd	a5,-56(s0)
.L48:
	.loc 1 535 24 discriminator 1
	ld	a5,-56(s0)
	lw	a5,0(a5)
	.loc 1 535 36 discriminator 1
	bne	a5,zero,.L51
	.loc 1 548 18
	ld	a5,-64(s0)
	lhu	a5,52(a5)
	.loc 1 548 6
	bne	a5,zero,.L52
	.loc 1 552 54
	lla	a1,mFvMemmapDevicePathTemplate
	li	a0,28
	call	AllocateCopyPool@plt
	mv	a4,a0
	.loc 1 552 24 discriminator 1
	ld	a5,-72(s0)
	sd	a4,16(a5)
	.loc 1 553 15
	ld	a5,-72(s0)
	ld	a5,16(a5)
	.loc 1 553 8
	bne	a5,zero,.L53
	.loc 1 554 23
	ld	a5,-72(s0)
	ld	a5,96(a5)
	.loc 1 554 7
	mv	a0,a5
	call	FreePool@plt
	.loc 1 555 7
	ld	a0,-72(s0)
	call	FreePool@plt
	.loc 1 556 14
	li	a5,-1
	slli	a5,a5,63
	addi	a5,a5,9
	j	.L40
.L53:
	.loc 1 559 37
	ld	a5,-72(s0)
	ld	a5,16(a5)
	.loc 1 559 82
	ld	a4,-88(s0)
	andi	a4,a4,255
	lbu	a3,8(a5)
	andi	a3,a3,0
	or	a4,a3,a4
	sb	a4,8(a5)
	ld	a4,-88(s0)
	srli	a4,a4,8
	andi	a4,a4,255
	lbu	a3,9(a5)
	andi	a3,a3,0
	or	a4,a3,a4
	sb	a4,9(a5)
	ld	a4,-88(s0)
	srli	a4,a4,16
	andi	a4,a4,255
	lbu	a3,10(a5)
	andi	a3,a3,0
	or	a4,a3,a4
	sb	a4,10(a5)
	ld	a4,-88(s0)
	srli	a4,a4,24
	andi	a4,a4,255
	lbu	a3,11(a5)
	andi	a3,a3,0
	or	a4,a3,a4
	sb	a4,11(a5)
	ld	a4,-88(s0)
	srli	a4,a4,32
	andi	a4,a4,255
	lbu	a3,12(a5)
	andi	a3,a3,0
	or	a4,a3,a4
	sb	a4,12(a5)
	ld	a4,-88(s0)
	srli	a4,a4,40
	andi	a4,a4,255
	lbu	a3,13(a5)
	andi	a3,a3,0
	or	a4,a3,a4
	sb	a4,13(a5)
	ld	a4,-88(s0)
	srli	a4,a4,48
	andi	a4,a4,255
	lbu	a3,14(a5)
	andi	a3,a3,0
	or	a4,a3,a4
	sb	a4,14(a5)
	ld	a4,-88(s0)
	srli	a4,a4,56
	lbu	a3,15(a5)
	andi	a3,a3,0
	or	a4,a3,a4
	sb	a4,15(a5)
	.loc 1 560 107
	ld	a5,-64(s0)
	ld	a4,32(a5)
	.loc 1 560 94
	ld	a5,-88(s0)
	add	a4,a4,a5
	.loc 1 560 37
	ld	a5,-72(s0)
	ld	a5,16(a5)
	.loc 1 560 118
	addi	a4,a4,-1
	.loc 1 560 80
	andi	a3,a4,255
	lbu	a2,16(a5)
	andi	a2,a2,0
	or	a3,a2,a3
	sb	a3,16(a5)
	srli	a3,a4,8
	andi	a3,a3,255
	lbu	a2,17(a5)
	andi	a2,a2,0
	or	a3,a2,a3
	sb	a3,17(a5)
	srli	a3,a4,16
	andi	a3,a3,255
	lbu	a2,18(a5)
	andi	a2,a2,0
	or	a3,a2,a3
	sb	a3,18(a5)
	srli	a3,a4,24
	andi	a3,a3,255
	lbu	a2,19(a5)
	andi	a2,a2,0
	or	a3,a2,a3
	sb	a3,19(a5)
	srli	a3,a4,32
	andi	a3,a3,255
	lbu	a2,20(a5)
	andi	a2,a2,0
	or	a3,a2,a3
	sb	a3,20(a5)
	srli	a3,a4,40
	andi	a3,a3,255
	lbu	a2,21(a5)
	andi	a2,a2,0
	or	a3,a2,a3
	sb	a3,21(a5)
	srli	a3,a4,48
	andi	a3,a3,255
	lbu	a2,22(a5)
	andi	a2,a2,0
	or	a3,a2,a3
	sb	a3,22(a5)
	srli	a4,a4,56
	lbu	a3,23(a5)
	andi	a3,a3,0
	or	a4,a3,a4
	sb	a4,23(a5)
	j	.L54
.L52:
	.loc 1 565 54
	lla	a1,mFvPIWGDevicePathTemplate
	li	a0,24
	call	AllocateCopyPool@plt
	mv	a4,a0
	.loc 1 565 24 discriminator 1
	ld	a5,-72(s0)
	sd	a4,16(a5)
	.loc 1 566 15
	ld	a5,-72(s0)
	ld	a5,16(a5)
	.loc 1 566 8
	bne	a5,zero,.L55
	.loc 1 567 23
	ld	a5,-72(s0)
	ld	a5,96(a5)
	.loc 1 567 7
	mv	a0,a5
	call	FreePool@plt
	.loc 1 568 7
	ld	a0,-72(s0)
	call	FreePool@plt
	.loc 1 569 14
	li	a5,-1
	slli	a5,a5,63
	addi	a5,a5,9
	j	.L40
.L55:
	.loc 1 573 38
	ld	a5,-72(s0)
	ld	a5,16(a5)
	.loc 1 573 7
	addi	a4,a5,4
	.loc 1 574 48
	ld	a5,-64(s0)
	lhu	a5,52(a5)
	mv	a3,a5
	.loc 1 574 35
	ld	a5,-88(s0)
	add	a5,a3,a5
	.loc 1 572 5
	mv	a1,a5
	mv	a0,a4
	call	CopyGuid@plt
.L54:
	.loc 1 582 12
	ld	a5,-72(s0)
	addi	a0,a5,8
	ld	a5,-72(s0)
	addi	a2,a5,24
	ld	a5,-72(s0)
	ld	a4,16(a5)
	li	a5,0
	la	a3,gEfiDevicePathProtocolGuid
	la	a1,gEfiFirmwareVolumeBlockProtocolGuid
	call	CoreInstallMultipleProtocolInterfaces@plt
	sd	a0,-80(s0)
	.loc 1 594 6
	ld	a5,-120(s0)
	beq	a5,zero,.L56
	.loc 1 595 25
	ld	a5,-72(s0)
	ld	a4,8(a5)
	.loc 1 595 17
	ld	a5,-120(s0)
	sd	a4,0(a5)
.L56:
	.loc 1 598 10
	ld	a5,-80(s0)
.L40:
	.loc 1 599 1
	mv	a0,a5
	ld	ra,120(sp)
	.cfi_restore 1
	ld	s0,112(sp)
	.cfi_restore 8
	.cfi_def_cfa 2, 128
	addi	sp,sp,128
	.cfi_def_cfa_offset 0
	jr	ra
	.cfi_endproc
.LFE8:
	.size	ProduceFVBProtocolOnBuffer, .-ProduceFVBProtocolOnBuffer
	.section	.text.FwVolBlockDriverInit,"ax",@progbits
	.align	1
	.globl	FwVolBlockDriverInit
	.type	FwVolBlockDriverInit, @function
FwVolBlockDriverInit:
.LFB9:
	.loc 1 617 1
	.cfi_startproc
	addi	sp,sp,-64
	.cfi_def_cfa_offset 64
	sd	ra,56(sp)
	sd	s0,48(sp)
	.cfi_offset 1, -8
	.cfi_offset 8, -16
	addi	s0,sp,64
	.cfi_def_cfa 8, 0
	sd	a0,-56(s0)
	sd	a1,-64(s0)
	.loc 1 625 15
	call	GetHobList@plt
	mv	a5,a0
	.loc 1 625 13 discriminator 1
	sd	a5,-32(s0)
	.loc 1 626 9
	j	.L58
.L63:
	.loc 1 627 26
	sw	zero,-20(s0)
	.loc 1 631 18
	call	GetHobList@plt
	mv	a5,a0
	.loc 1 631 16 discriminator 1
	sd	a5,-40(s0)
	.loc 1 632 11
	j	.L59
.L62:
	.loc 1 633 18
	ld	a5,-40(s0)
	.loc 1 633 34
	ld	a4,8(a5)
	.loc 1 633 56
	ld	a5,-32(s0)
	.loc 1 633 71
	ld	a5,8(a5)
	.loc 1 633 10
	bne	a4,a5,.L60
	.loc 1 634 18
	ld	a5,-40(s0)
	.loc 1 634 34
	ld	a4,16(a5)
	.loc 1 634 51
	ld	a5,-32(s0)
	.loc 1 634 66
	ld	a5,16(a5)
	.loc 1 633 86 discriminator 1
	bne	a4,a5,.L60
	.loc 1 636 38
	ld	a5,-40(s0)
	.loc 1 636 30
	lw	a5,24(a5)
	sw	a5,-20(s0)
	.loc 1 637 9
	j	.L61
.L60:
	.loc 1 640 40
	addi	a5,s0,-40
	.loc 1 640 29
	ld	a5,0(a5)
	.loc 1 640 82
	addi	a4,s0,-40
	.loc 1 640 54
	ld	a4,0(a4)
	.loc 1 640 92
	lhu	a4,2(a4)
	.loc 1 640 50
	add	a5,a5,a4
	.loc 1 640 18
	sd	a5,-40(s0)
.L59:
	.loc 1 632 52
	ld	a5,-40(s0)
	.loc 1 632 26
	mv	a1,a5
	li	a0,12
	call	GetNextHob@plt
	mv	a5,a0
	.loc 1 632 24 discriminator 1
	sd	a5,-40(s0)
	.loc 1 632 19 discriminator 1
	ld	a5,-40(s0)
	.loc 1 632 59 discriminator 1
	bne	a5,zero,.L62
.L61:
	.loc 1 646 38
	ld	a5,-32(s0)
	.loc 1 646 5
	ld	a0,8(a5)
	.loc 1 646 73
	ld	a5,-32(s0)
	.loc 1 646 5
	ld	a5,16(a5)
	lw	a3,-20(s0)
	li	a4,0
	li	a2,0
	mv	a1,a5
	call	ProduceFVBProtocolOnBuffer
	.loc 1 647 37
	addi	a5,s0,-32
	.loc 1 647 26
	ld	a5,0(a5)
	.loc 1 647 78
	addi	a4,s0,-32
	.loc 1 647 50
	ld	a4,0(a4)
	.loc 1 647 87
	lhu	a4,2(a4)
	.loc 1 647 46
	add	a5,a5,a4
	.loc 1 647 15
	sd	a5,-32(s0)
.L58:
	.loc 1 626 48
	ld	a5,-32(s0)
	.loc 1 626 23
	mv	a1,a5
	li	a0,5
	call	GetNextHob@plt
	mv	a5,a0
	.loc 1 626 21 discriminator 1
	sd	a5,-32(s0)
	.loc 1 626 16 discriminator 1
	ld	a5,-32(s0)
	.loc 1 626 55 discriminator 1
	bne	a5,zero,.L63
	.loc 1 650 10
	li	a5,0
	.loc 1 651 1
	mv	a0,a5
	ld	ra,56(sp)
	.cfi_restore 1
	ld	s0,48(sp)
	.cfi_restore 8
	.cfi_def_cfa 2, 64
	addi	sp,sp,64
	.cfi_def_cfa_offset 0
	jr	ra
	.cfi_endproc
.LFE9:
	.size	FwVolBlockDriverInit, .-FwVolBlockDriverInit
	.section	.text.CoreProcessFirmwareVolume,"ax",@progbits
	.align	1
	.globl	CoreProcessFirmwareVolume
	.type	CoreProcessFirmwareVolume, @function
CoreProcessFirmwareVolume:
.LFB10:
	.loc 1 681 1
	.cfi_startproc
	addi	sp,sp,-64
	.cfi_def_cfa_offset 64
	sd	ra,56(sp)
	sd	s0,48(sp)
	.cfi_offset 1, -8
	.cfi_offset 8, -16
	addi	s0,sp,64
	.cfi_def_cfa 8, 0
	sd	a0,-40(s0)
	sd	a1,-48(s0)
	sd	a2,-56(s0)
	.loc 1 685 21
	ld	a5,-56(s0)
	sd	zero,0(a5)
	.loc 1 686 12
	ld	a5,-40(s0)
	ld	a4,-56(s0)
	li	a3,0
	li	a2,0
	ld	a1,-48(s0)
	mv	a0,a5
	call	ProduceFVBProtocolOnBuffer
	sd	a0,-24(s0)
	.loc 1 701 7
	ld	a5,-24(s0)
	.loc 1 701 6
	blt	a5,zero,.L66
	.loc 1 703 9
	sd	zero,-32(s0)
	.loc 1 704 14
	ld	a5,-56(s0)
	ld	a5,0(a5)
	addi	a4,s0,-32
	mv	a2,a4
	la	a1,gEfiFirmwareVolume2ProtocolGuid
	mv	a0,a5
	call	CoreHandleProtocol@plt
	sd	a0,-24(s0)
	.loc 1 705 36
	ld	a5,-24(s0)
	.loc 1 705 8
	blt	a5,zero,.L67
	.loc 1 705 70 discriminator 1
	ld	a5,-32(s0)
	.loc 1 705 62 discriminator 1
	bne	a5,zero,.L68
.L67:
	.loc 1 706 14
	li	a5,-1
	slli	a5,a5,63
	addi	a5,a5,10
	j	.L70
.L68:
	.loc 1 709 12
	li	a5,0
	j	.L70
.L66:
	.loc 1 712 10
	ld	a5,-24(s0)
.L70:
	.loc 1 713 1
	mv	a0,a5
	ld	ra,56(sp)
	.cfi_restore 1
	ld	s0,48(sp)
	.cfi_restore 8
	.cfi_def_cfa 2, 64
	addi	sp,sp,64
	.cfi_def_cfa_offset 0
	jr	ra
	.cfi_endproc
.LFE10:
	.size	CoreProcessFirmwareVolume, .-CoreProcessFirmwareVolume
	.text
.Letext0:
	.file 2 "/home/kapoagaeming/spacemit-image-builder/components/edk2/MdePkg/Include/RiscV64/ProcessorBind.h"
	.file 3 "/home/kapoagaeming/spacemit-image-builder/components/edk2/MdePkg/Include/Base.h"
	.file 4 "/home/kapoagaeming/spacemit-image-builder/components/edk2/MdePkg/Include/Uefi/UefiBaseType.h"
	.file 5 "/home/kapoagaeming/spacemit-image-builder/components/edk2/MdePkg/Include/Uefi/UefiMultiPhase.h"
	.file 6 "/home/kapoagaeming/spacemit-image-builder/components/edk2/MdePkg/Include/Protocol/DevicePath.h"
	.file 7 "/home/kapoagaeming/spacemit-image-builder/components/edk2/MdePkg/Include/Protocol/SimpleTextIn.h"
	.file 8 "/home/kapoagaeming/spacemit-image-builder/components/edk2/MdePkg/Include/Protocol/SimpleTextOut.h"
	.file 9 "/home/kapoagaeming/spacemit-image-builder/components/edk2/MdePkg/Include/Uefi/UefiSpec.h"
	.file 10 "/home/kapoagaeming/spacemit-image-builder/components/edk2/MdePkg/Include/Pi/PiFirmwareVolume.h"
	.file 11 "/home/kapoagaeming/spacemit-image-builder/components/edk2/MdePkg/Include/Pi/PiBootMode.h"
	.file 12 "/home/kapoagaeming/spacemit-image-builder/components/edk2/MdePkg/Include/Pi/PiHob.h"
	.file 13 "/home/kapoagaeming/spacemit-image-builder/components/Build/Milk-V-Jupiter/RELEASE_GCC5/RISCV64/MdeModulePkg/Core/Dxe/DxeMain/DEBUG/AutoGen.h"
	.file 14 "/home/kapoagaeming/spacemit-image-builder/components/edk2/MdePkg/Include/Protocol/FirmwareVolumeBlock.h"
	.file 15 "/home/kapoagaeming/spacemit-image-builder/components/edk2/MdeModulePkg/Core/Dxe/FwVolBlock/FwVolBlock.h"
	.file 16 "/home/kapoagaeming/spacemit-image-builder/components/edk2/MdeModulePkg/Core/Dxe/DxeMain.h"
	.file 17 "/home/kapoagaeming/spacemit-image-builder/components/edk2/MdePkg/Include/Library/HobLib.h"
	.file 18 "/home/kapoagaeming/spacemit-image-builder/components/edk2/MdePkg/Include/Library/BaseMemoryLib.h"
	.file 19 "/home/kapoagaeming/spacemit-image-builder/components/edk2/MdePkg/Include/Library/MemoryAllocationLib.h"
	.section	.note.GNU-stack,"",@progbits
