	.file	"Ehci.c"
	.option pic
	.option norelax
	.attribute arch, "rv64i2p1_m2p0_a2p1_f2p2_d2p2_c2p0_zicsr2p0_zifencei2p0_zmmul1p0_zaamo1p0_zalrsc1p0_zca1p0_zcd1p0"
	.attribute unaligned_access, 0
	.attribute stack_align, 16
	.text
.Ltext0:
	.cfi_sections	.debug_frame
	.file 0 "/home/kapoagaeming/Downloads/spacemit-image-builder/components/Build/Milk-V-Jupiter/RELEASE_GCC5/RISCV64/Silicon/Spacemit/Override/MdeModulePkg/Bus/Pci/EhciDxe/EhciDxe" "/home/kapoagaeming/Downloads/spacemit-image-builder/components/edk2-platforms/Silicon/Spacemit/Override/MdeModulePkg/Bus/Pci/EhciDxe/Ehci.c"
	.globl	mUsbPortStateMap
	.section	.data.mUsbPortStateMap,"aw"
	.align	3
	.type	mUsbPortStateMap, @object
	.size	mUsbPortStateMap, 28
mUsbPortStateMap:
	.half	1
	.half	1
	.half	4
	.half	2
	.half	128
	.half	4
	.half	16
	.half	8
	.half	256
	.half	16
	.half	4096
	.half	256
	.half	8192
	.half	8192
	.globl	mUsbPortChangeMap
	.section	.data.mUsbPortChangeMap,"aw"
	.align	3
	.type	mUsbPortChangeMap, @object
	.size	mUsbPortChangeMap, 12
mUsbPortChangeMap:
	.half	2
	.half	1
	.half	8
	.half	2
	.half	32
	.half	8
	.globl	gEhciDriverBinding
	.section	.data.rel.local.gEhciDriverBinding,"aw"
	.align	3
	.type	gEhciDriverBinding, @object
	.size	gEhciDriverBinding, 48
gEhciDriverBinding:
	.dword	EhcDriverBindingSupported
	.dword	EhcDriverBindingStart
	.dword	EhcDriverBindingStop
	.word	48
	.zero	4
	.dword	0
	.dword	0
	.section	.text.EhcGetCapability,"ax",@progbits
	.align	1
	.globl	EhcGetCapability
	.type	EhcGetCapability, @function
EhcGetCapability:
.LFB0:
	.file 1 "/home/kapoagaeming/Downloads/spacemit-image-builder/components/edk2-platforms/Silicon/Spacemit/Override/MdeModulePkg/Bus/Pci/EhciDxe/Ehci.c"
	.loc 1 72 1
	.cfi_startproc
	addi	sp,sp,-64
	.cfi_def_cfa_offset 64
	sd	ra,56(sp)
	sd	s0,48(sp)
	.cfi_offset 1, -8
	.cfi_offset 8, -16
	addi	s0,sp,64
	.cfi_def_cfa 8, 0
	sd	a0,-40(s0)
	sd	a1,-48(s0)
	sd	a2,-56(s0)
	sd	a3,-64(s0)
	.loc 1 76 6
	ld	a5,-48(s0)
	beq	a5,zero,.L2
	.loc 1 76 34 discriminator 1
	ld	a5,-56(s0)
	beq	a5,zero,.L2
	.loc 1 76 66 discriminator 2
	ld	a5,-64(s0)
	bne	a5,zero,.L3
.L2:
	.loc 1 77 12
	li	a5,-1
	slli	a5,a5,63
	addi	a5,a5,2
	j	.L4
.L3:
	.loc 1 80 15
	la	a5,gBS
	ld	a5,0(a5)
	ld	a5,24(a5)
	.loc 1 80 12
	li	a0,16
	jalr	a5
.LVL0:
	sd	a0,-32(s0)
	.loc 1 81 11
	ld	a5,-40(s0)
	addi	a5,a5,-8
	.loc 1 81 107
	ld	a4,0(a5)
	.loc 1 81 192
	li	a5,1768124416
	addi	a5,a5,-1947
	bne	a4,a5,.L5
	.loc 1 81 7 discriminator 1
	ld	a5,-40(s0)
	addi	a5,a5,-8
	sd	a5,-24(s0)
	j	.L6
.L5:
	.loc 1 81 7 is_stmt 0 discriminator 2
	sd	zero,-24(s0)
.L6:
	.loc 1 83 13 is_stmt 1
	ld	a5,-48(s0)
	li	a4,2
	sb	a4,0(a5)
	.loc 1 84 28
	ld	a5,-24(s0)
	lw	a5,232(a5)
	.loc 1 84 17
	andi	a5,a5,0xff
	andi	a5,a5,15
	andi	a4,a5,0xff
	.loc 1 84 15
	ld	a5,-56(s0)
	sb	a4,0(a5)
	.loc 1 85 31
	ld	a5,-24(s0)
	lbu	a4,260(a5)
	.loc 1 85 19
	ld	a5,-64(s0)
	sb	a4,0(a5)
	.loc 1 89 6
	la	a5,gBS
	ld	a5,0(a5)
	ld	a5,32(a5)
	.loc 1 89 3
	ld	a0,-32(s0)
	jalr	a5
.LVL1:
	.loc 1 90 10
	li	a5,0
.L4:
	.loc 1 91 1
	mv	a0,a5
	ld	ra,56(sp)
	.cfi_restore 1
	ld	s0,48(sp)
	.cfi_restore 8
	.cfi_def_cfa 2, 64
	addi	sp,sp,64
	.cfi_def_cfa_offset 0
	jr	ra
	.cfi_endproc
.LFE0:
	.size	EhcGetCapability, .-EhcGetCapability
	.section	.text.EhcReset,"ax",@progbits
	.align	1
	.globl	EhcReset
	.type	EhcReset, @function
EhcReset:
.LFB1:
	.loc 1 112 1
	.cfi_startproc
	addi	sp,sp,-64
	.cfi_def_cfa_offset 64
	sd	ra,56(sp)
	sd	s0,48(sp)
	.cfi_offset 1, -8
	.cfi_offset 8, -16
	addi	s0,sp,64
	.cfi_def_cfa 8, 0
	sd	a0,-56(s0)
	mv	a5,a1
	sh	a5,-58(s0)
	.loc 1 117 11
	ld	a5,-56(s0)
	addi	a5,a5,-8
	.loc 1 117 107
	ld	a4,0(a5)
	.loc 1 117 192
	li	a5,1768124416
	addi	a5,a5,-1947
	bne	a4,a5,.L8
	.loc 1 117 7 discriminator 1
	ld	a5,-56(s0)
	addi	a5,a5,-8
	sd	a5,-32(s0)
	j	.L9
.L8:
	.loc 1 117 7 is_stmt 0 discriminator 2
	sd	zero,-32(s0)
.L9:
	.loc 1 119 10 is_stmt 1
	ld	a5,-32(s0)
	ld	a5,128(a5)
	.loc 1 119 6
	beq	a5,zero,.L10
	.loc 1 123 6
	call	ReportProgressCodeEnabled@plt
	mv	a5,a0
	.loc 1 123 182 discriminator 1
	beq	a5,zero,.L11
	.loc 1 123 168 discriminator 4
	ld	a5,-32(s0)
	ld	a5,128(a5)
	.loc 1 123 82 discriminator 4
	mv	a2,a5
	li	a5,33685504
	addi	a1,a5,1
	li	a0,1
	call	ReportStatusCodeWithDevicePath@plt
	.loc 1 123 182
	j	.L10
.L11:
	.loc 1 123 185 discriminator 5
	call	ReportErrorCodeEnabled@plt
	.loc 1 123 361 discriminator 9
	call	ReportDebugCodeEnabled@plt
.L10:
	.loc 1 130 15
	la	a5,gBS
	ld	a5,0(a5)
	ld	a5,24(a5)
	.loc 1 130 12
	li	a0,16
	jalr	a5
.LVL2:
	sd	a0,-40(s0)
	.loc 1 132 3
	lhu	a5,-58(s0)
	sext.w	a5,a5
	li	a4,8
	beq	a5,a4,.L12
	li	a4,8
	bgt	a5,a4,.L13
	li	a4,2
	bgt	a5,a4,.L14
	bgt	a5,zero,.L15
	j	.L13
.L14:
	li	a4,4
	beq	a5,a4,.L12
	j	.L13
.L15:
	.loc 1 141 11
	li	a1,0
	ld	a0,-32(s0)
	call	EhcIsDebugPortInUse@plt
	mv	a5,a0
	.loc 1 141 10 discriminator 1
	beq	a5,zero,.L16
	.loc 1 142 16
	sd	zero,-24(s0)
	.loc 1 143 9
	j	.L21
.L16:
	.loc 1 146 12
	ld	a0,-32(s0)
	call	EhcIsHalt@plt
	mv	a5,a0
	.loc 1 146 10 discriminator 1
	bne	a5,zero,.L18
	.loc 1 147 18
	li	a5,8192
	addi	a1,a5,1808
	ld	a0,-32(s0)
	call	EhcHaltHC@plt
	sd	a0,-24(s0)
	.loc 1 149 40
	ld	a5,-24(s0)
	.loc 1 149 12
	bge	a5,zero,.L18
	.loc 1 150 18
	li	a5,-1
	slli	a5,a5,63
	addi	a5,a5,7
	sd	a5,-24(s0)
	.loc 1 151 11
	j	.L21
.L18:
	.loc 1 159 7
	ld	a0,-32(s0)
	call	EhciDelAllAsyncIntTransfers@plt
	.loc 1 160 7
	ld	a0,-32(s0)
	call	EhcAckAllInterrupt@plt
	.loc 1 161 7
	ld	a0,-32(s0)
	call	EhcFreeSched@plt
	.loc 1 163 16
	li	a5,999424
	addi	a1,a5,576
	ld	a0,-32(s0)
	call	EhcResetHC@plt
	sd	a0,-24(s0)
	.loc 1 165 38
	ld	a5,-24(s0)
	.loc 1 165 10
	blt	a5,zero,.L22
	.loc 1 169 16
	ld	a0,-32(s0)
	call	EhcInitHC@plt
	sd	a0,-24(s0)
	.loc 1 170 7
	j	.L21
.L12:
	.loc 1 174 14
	li	a5,-1
	slli	a5,a5,63
	addi	a5,a5,3
	sd	a5,-24(s0)
	.loc 1 175 7
	j	.L21
.L13:
	.loc 1 178 14
	li	a5,-1
	slli	a5,a5,63
	addi	a5,a5,2
	sd	a5,-24(s0)
	j	.L21
.L17:
.L22:
	.loc 1 166 9
	nop
.L21:
	.loc 1 183 6
	la	a5,gBS
	ld	a5,0(a5)
	ld	a5,32(a5)
	.loc 1 183 3
	ld	a0,-40(s0)
	jalr	a5
.LVL3:
	.loc 1 184 10
	ld	a5,-24(s0)
	.loc 1 185 1
	mv	a0,a5
	ld	ra,56(sp)
	.cfi_restore 1
	ld	s0,48(sp)
	.cfi_restore 8
	.cfi_def_cfa 2, 64
	addi	sp,sp,64
	.cfi_def_cfa_offset 0
	jr	ra
	.cfi_endproc
.LFE1:
	.size	EhcReset, .-EhcReset
	.section	.text.EhcGetState,"ax",@progbits
	.align	1
	.globl	EhcGetState
	.type	EhcGetState, @function
EhcGetState:
.LFB2:
	.loc 1 206 1
	.cfi_startproc
	addi	sp,sp,-48
	.cfi_def_cfa_offset 48
	sd	ra,40(sp)
	sd	s0,32(sp)
	.cfi_offset 1, -8
	.cfi_offset 8, -16
	addi	s0,sp,48
	.cfi_def_cfa 8, 0
	sd	a0,-40(s0)
	sd	a1,-48(s0)
	.loc 1 210 6
	ld	a5,-48(s0)
	bne	a5,zero,.L24
	.loc 1 211 12
	li	a5,-1
	slli	a5,a5,63
	addi	a5,a5,2
	j	.L25
.L24:
	.loc 1 214 15
	la	a5,gBS
	ld	a5,0(a5)
	ld	a5,24(a5)
	.loc 1 214 12
	li	a0,16
	jalr	a5
.LVL4:
	sd	a0,-32(s0)
	.loc 1 215 11
	ld	a5,-40(s0)
	addi	a5,a5,-8
	.loc 1 215 107
	ld	a4,0(a5)
	.loc 1 215 192
	li	a5,1768124416
	addi	a5,a5,-1947
	bne	a4,a5,.L26
	.loc 1 215 7 discriminator 1
	ld	a5,-40(s0)
	addi	a5,a5,-8
	sd	a5,-24(s0)
	j	.L27
.L26:
	.loc 1 215 7 is_stmt 0 discriminator 2
	sd	zero,-24(s0)
.L27:
	.loc 1 217 21 is_stmt 1
	li	a1,4
	ld	a0,-24(s0)
	call	EhcReadOpReg@plt
	mv	a5,a0
	.loc 1 217 51 discriminator 1
	mv	a4,a5
	li	a5,4096
	and	a5,a4,a5
	sext.w	a4,a5
	.loc 1 217 6 discriminator 1
	li	a5,4096
	bne	a4,a5,.L28
	.loc 1 218 12
	ld	a5,-48(s0)
	sw	zero,0(a5)
	j	.L29
.L28:
	.loc 1 220 12
	ld	a5,-48(s0)
	li	a4,1
	sw	a4,0(a5)
.L29:
	.loc 1 223 6
	la	a5,gBS
	ld	a5,0(a5)
	ld	a5,32(a5)
	.loc 1 223 3
	ld	a0,-32(s0)
	jalr	a5
.LVL5:
	.loc 1 226 10
	li	a5,0
.L25:
	.loc 1 227 1
	mv	a0,a5
	ld	ra,40(sp)
	.cfi_restore 1
	ld	s0,32(sp)
	.cfi_restore 8
	.cfi_def_cfa 2, 48
	addi	sp,sp,48
	.cfi_def_cfa_offset 0
	jr	ra
	.cfi_endproc
.LFE2:
	.size	EhcGetState, .-EhcGetState
	.section	.text.EhcSetState,"ax",@progbits
	.align	1
	.globl	EhcSetState
	.type	EhcSetState, @function
EhcSetState:
.LFB3:
	.loc 1 247 1
	.cfi_startproc
	addi	sp,sp,-64
	.cfi_def_cfa_offset 64
	sd	ra,56(sp)
	sd	s0,48(sp)
	.cfi_offset 1, -8
	.cfi_offset 8, -16
	addi	s0,sp,64
	.cfi_def_cfa 8, 0
	sd	a0,-56(s0)
	mv	a5,a1
	sw	a5,-60(s0)
	.loc 1 253 12
	addi	a5,s0,-44
	mv	a1,a5
	ld	a0,-56(s0)
	call	EhcGetState
	sd	a0,-32(s0)
	.loc 1 255 34
	ld	a5,-32(s0)
	.loc 1 255 6
	bge	a5,zero,.L31
	.loc 1 256 12
	li	a5,-1
	slli	a5,a5,63
	addi	a5,a5,7
	j	.L43
.L31:
	.loc 1 259 16
	lw	a5,-44(s0)
	.loc 1 259 6
	lw	a4,-60(s0)
	sext.w	a4,a4
	bne	a4,a5,.L33
	.loc 1 260 12
	li	a5,0
	j	.L43
.L33:
	.loc 1 263 15
	la	a5,gBS
	ld	a5,0(a5)
	ld	a5,24(a5)
	.loc 1 263 12
	li	a0,16
	jalr	a5
.LVL6:
	sd	a0,-40(s0)
	.loc 1 264 11
	ld	a5,-56(s0)
	addi	a5,a5,-8
	.loc 1 264 107
	ld	a4,0(a5)
	.loc 1 264 192
	li	a5,1768124416
	addi	a5,a5,-1947
	bne	a4,a5,.L34
	.loc 1 264 7 discriminator 1
	ld	a5,-56(s0)
	addi	a5,a5,-8
	sd	a5,-24(s0)
	j	.L35
.L34:
	.loc 1 264 7 is_stmt 0 discriminator 2
	sd	zero,-24(s0)
.L35:
	.loc 1 266 3 is_stmt 1
	lw	a5,-60(s0)
	sext.w	a4,a5
	li	a5,2
	beq	a4,a5,.L36
	lw	a5,-60(s0)
	sext.w	a4,a5
	li	a5,2
	bgtu	a4,a5,.L37
	lw	a5,-60(s0)
	sext.w	a5,a5
	beq	a5,zero,.L38
	lw	a5,-60(s0)
	sext.w	a4,a5
	li	a5,1
	beq	a4,a5,.L39
	j	.L37
.L38:
	.loc 1 268 16
	li	a5,8192
	addi	a1,a5,1808
	ld	a0,-24(s0)
	call	EhcHaltHC@plt
	sd	a0,-32(s0)
	.loc 1 269 7
	j	.L44
.L39:
	.loc 1 272 25
	li	a1,4
	ld	a0,-24(s0)
	call	EhcReadOpReg@plt
	mv	a5,a0
	.loc 1 272 55 discriminator 1
	andi	a5,a5,16
	sext.w	a4,a5
	.loc 1 272 10 discriminator 1
	li	a5,16
	bne	a4,a5,.L41
	.loc 1 273 16
	li	a5,-1
	slli	a5,a5,63
	addi	a5,a5,7
	sd	a5,-32(s0)
	.loc 1 274 9
	j	.L44
.L41:
	.loc 1 282 26
	li	a1,4
	ld	a0,-24(s0)
	call	EhcReadOpReg@plt
	mv	a5,a0
	.loc 1 282 56 discriminator 1
	mv	a4,a5
	li	a5,4096
	and	a5,a4,a5
	sext.w	a4,a5
	.loc 1 282 10 discriminator 1
	li	a5,4096
	beq	a4,a5,.L42
	.loc 1 283 16
	li	a5,-1
	slli	a5,a5,63
	addi	a5,a5,7
	sd	a5,-32(s0)
	.loc 1 284 9
	j	.L44
.L42:
	.loc 1 287 16
	li	a5,8192
	addi	a1,a5,1808
	ld	a0,-24(s0)
	call	EhcRunHC@plt
	sd	a0,-32(s0)
	.loc 1 288 7
	j	.L44
.L36:
	.loc 1 291 14
	li	a5,-1
	slli	a5,a5,63
	addi	a5,a5,3
	sd	a5,-32(s0)
	.loc 1 292 7
	j	.L44
.L37:
	.loc 1 295 14
	li	a5,-1
	slli	a5,a5,63
	addi	a5,a5,2
	sd	a5,-32(s0)
.L44:
	.loc 1 299 6
	la	a5,gBS
	ld	a5,0(a5)
	ld	a5,32(a5)
	.loc 1 299 3
	ld	a0,-40(s0)
	jalr	a5
.LVL7:
	.loc 1 300 10
	ld	a5,-32(s0)
.L43:
	.loc 1 301 1
	mv	a0,a5
	ld	ra,56(sp)
	.cfi_restore 1
	ld	s0,48(sp)
	.cfi_restore 8
	.cfi_def_cfa 2, 64
	addi	sp,sp,64
	.cfi_def_cfa_offset 0
	jr	ra
	.cfi_endproc
.LFE3:
	.size	EhcSetState, .-EhcSetState
	.section	.text.EhcGetRootHubPortStatus,"ax",@progbits
	.align	1
	.globl	EhcGetRootHubPortStatus
	.type	EhcGetRootHubPortStatus, @function
EhcGetRootHubPortStatus:
.LFB4:
	.loc 1 324 1
	.cfi_startproc
	addi	sp,sp,-112
	.cfi_def_cfa_offset 112
	sd	ra,104(sp)
	sd	s0,96(sp)
	.cfi_offset 1, -8
	.cfi_offset 8, -16
	addi	s0,sp,112
	.cfi_def_cfa 8, 0
	sd	a0,-88(s0)
	mv	a5,a1
	sd	a2,-104(s0)
	sb	a5,-89(s0)
	.loc 1 334 6
	ld	a5,-104(s0)
	bne	a5,zero,.L46
	.loc 1 335 12
	li	a5,-1
	slli	a5,a5,63
	addi	a5,a5,2
	j	.L47
.L46:
	.loc 1 338 15
	la	a5,gBS
	ld	a5,0(a5)
	ld	a5,24(a5)
	.loc 1 338 12
	li	a0,16
	jalr	a5
.LVL8:
	sd	a0,-48(s0)
	.loc 1 340 11
	ld	a5,-88(s0)
	addi	a5,a5,-8
	.loc 1 340 107
	ld	a4,0(a5)
	.loc 1 340 192
	li	a5,1768124416
	addi	a5,a5,-1947
	bne	a4,a5,.L48
	.loc 1 340 7 discriminator 1
	ld	a5,-88(s0)
	addi	a5,a5,-8
	sd	a5,-24(s0)
	j	.L49
.L48:
	.loc 1 340 7 is_stmt 0 discriminator 2
	sd	zero,-24(s0)
.L49:
	.loc 1 341 10 is_stmt 1
	sd	zero,-40(s0)
	.loc 1 343 19
	ld	a5,-24(s0)
	lw	a5,232(a5)
	.loc 1 343 13
	andi	a5,a5,15
	sw	a5,-52(s0)
	.loc 1 345 18
	lbu	a5,-89(s0)
	sext.w	a5,a5
	.loc 1 345 6
	lw	a4,-52(s0)
	sext.w	a4,a4
	bgtu	a4,a5,.L50
	.loc 1 346 12
	li	a5,-1
	slli	a5,a5,63
	addi	a5,a5,2
	sd	a5,-40(s0)
	.loc 1 347 5
	j	.L51
.L50:
	.loc 1 350 26
	lbu	a5,-89(s0)
	sext.w	a5,a5
	addiw	a5,a5,17
	sext.w	a5,a5
	slliw	a5,a5,2
	sext.w	a5,a5
	.loc 1 350 10
	sw	a5,-56(s0)
	.loc 1 351 26
	ld	a5,-104(s0)
	sh	zero,0(a5)
	.loc 1 352 32
	ld	a5,-104(s0)
	sh	zero,2(a5)
	.loc 1 354 7
	addi	a5,s0,-89
	mv	a1,a5
	ld	a0,-24(s0)
	call	EhcIsDebugPortInUse@plt
	mv	a5,a0
	.loc 1 354 6 discriminator 1
	bne	a5,zero,.L66
	.loc 1 358 11
	lw	a5,-56(s0)
	mv	a1,a5
	ld	a0,-24(s0)
	call	EhcReadOpReg@plt
	mv	a5,a0
	sw	a5,-60(s0)
	.loc 1 366 11
	ld	a5,-24(s0)
	lbu	a5,261(a5)
	.loc 1 366 6
	bne	a5,zero,.L53
	.loc 1 367 29
	lw	a5,-60(s0)
	andi	a5,a5,1024
	sext.w	a5,a5
	.loc 1 367 8
	beq	a5,zero,.L54
	.loc 1 368 17
	ld	a5,-104(s0)
	lhu	a5,0(a5)
	.loc 1 368 30
	ori	a5,a5,512
	slli	a4,a5,48
	srli	a4,a4,48
	ld	a5,-104(s0)
	sh	a4,0(a5)
	j	.L55
.L54:
	.loc 1 369 36
	lw	a5,-60(s0)
	andi	a5,a5,4
	sext.w	a5,a5
	.loc 1 369 15
	beq	a5,zero,.L55
	.loc 1 370 17
	ld	a5,-104(s0)
	lhu	a5,0(a5)
	.loc 1 370 30
	ori	a5,a5,1024
	slli	a4,a5,48
	srli	a4,a4,48
	ld	a5,-104(s0)
	sh	a4,0(a5)
	j	.L55
.L53:
	.loc 1 373 20
	lw	a5,-60(s0)
	srliw	a5,a5,26
	sext.w	a5,a5
	.loc 1 373 29
	andi	a5,a5,3
	sext.w	a5,a5
	.loc 1 373 5
	beq	a5,zero,.L67
	li	a4,1
	bne	a5,a4,.L65
	.loc 1 377 19
	ld	a5,-104(s0)
	lhu	a5,0(a5)
	.loc 1 377 32
	ori	a5,a5,512
	slli	a4,a5,48
	srli	a4,a4,48
	ld	a5,-104(s0)
	sh	a4,0(a5)
	.loc 1 378 9
	j	.L55
.L65:
	.loc 1 381 19
	ld	a5,-104(s0)
	lhu	a5,0(a5)
	.loc 1 381 32
	ori	a5,a5,1024
	slli	a4,a5,48
	srli	a4,a4,48
	ld	a5,-104(s0)
	sh	a4,0(a5)
	.loc 1 382 9
	j	.L55
.L67:
	.loc 1 375 9
	nop
.L55:
	.loc 1 389 11
	li	a5,7
	sd	a5,-72(s0)
	.loc 1 391 14
	sd	zero,-32(s0)
	.loc 1 391 3
	j	.L59
.L61:
	.loc 1 392 55
	lla	a4,mUsbPortStateMap
	ld	a5,-32(s0)
	slli	a5,a5,2
	add	a5,a4,a5
	lhu	a5,0(a5)
	sext.w	a5,a5
	.loc 1 392 29
	lw	a4,-60(s0)
	and	a5,a4,a5
	sext.w	a4,a5
	.loc 1 392 93
	lla	a3,mUsbPortStateMap
	ld	a5,-32(s0)
	slli	a5,a5,2
	add	a5,a3,a5
	lhu	a5,0(a5)
	sext.w	a5,a5
	.loc 1 392 8
	bne	a4,a5,.L60
	.loc 1 393 51
	ld	a5,-104(s0)
	lhu	a4,0(a5)
	.loc 1 393 89
	lla	a3,mUsbPortStateMap
	ld	a5,-32(s0)
	slli	a5,a5,2
	add	a5,a3,a5
	lhu	a5,2(a5)
	.loc 1 393 32
	or	a5,a4,a5
	slli	a4,a5,48
	srli	a4,a4,48
	.loc 1 393 30
	ld	a5,-104(s0)
	sh	a4,0(a5)
.L60:
	.loc 1 391 41 discriminator 2
	ld	a5,-32(s0)
	addi	a5,a5,1
	sd	a5,-32(s0)
.L59:
	.loc 1 391 25 discriminator 1
	ld	a4,-32(s0)
	ld	a5,-72(s0)
	bltu	a4,a5,.L61
	.loc 1 397 11
	li	a5,3
	sd	a5,-72(s0)
	.loc 1 399 14
	sd	zero,-32(s0)
	.loc 1 399 3
	j	.L62
.L64:
	.loc 1 400 56
	lla	a4,mUsbPortChangeMap
	ld	a5,-32(s0)
	slli	a5,a5,2
	add	a5,a4,a5
	lhu	a5,0(a5)
	sext.w	a5,a5
	.loc 1 400 29
	lw	a4,-60(s0)
	and	a5,a4,a5
	sext.w	a4,a5
	.loc 1 400 95
	lla	a3,mUsbPortChangeMap
	ld	a5,-32(s0)
	slli	a5,a5,2
	add	a5,a3,a5
	lhu	a5,0(a5)
	sext.w	a5,a5
	.loc 1 400 8
	bne	a4,a5,.L63
	.loc 1 401 57
	ld	a5,-104(s0)
	lhu	a4,2(a5)
	.loc 1 401 102
	lla	a3,mUsbPortChangeMap
	ld	a5,-32(s0)
	slli	a5,a5,2
	add	a5,a3,a5
	lhu	a5,2(a5)
	.loc 1 401 38
	or	a5,a4,a5
	slli	a4,a5,48
	srli	a4,a4,48
	.loc 1 401 36
	ld	a5,-104(s0)
	sh	a4,2(a5)
.L63:
	.loc 1 399 41 discriminator 2
	ld	a5,-32(s0)
	addi	a5,a5,1
	sd	a5,-32(s0)
.L62:
	.loc 1 399 25 discriminator 1
	ld	a4,-32(s0)
	ld	a5,-72(s0)
	bltu	a4,a5,.L64
	.loc 1 405 1
	j	.L51
.L66:
	.loc 1 355 5
	nop
.L51:
	.loc 1 406 6
	la	a5,gBS
	ld	a5,0(a5)
	ld	a5,32(a5)
	.loc 1 406 3
	ld	a0,-48(s0)
	jalr	a5
.LVL9:
	.loc 1 407 10
	ld	a5,-40(s0)
.L47:
	.loc 1 408 1
	mv	a0,a5
	ld	ra,104(sp)
	.cfi_restore 1
	ld	s0,96(sp)
	.cfi_restore 8
	.cfi_def_cfa 2, 112
	addi	sp,sp,112
	.cfi_def_cfa_offset 0
	jr	ra
	.cfi_endproc
.LFE4:
	.size	EhcGetRootHubPortStatus, .-EhcGetRootHubPortStatus
	.section	.text.EhcSetRootHubPortFeature,"ax",@progbits
	.align	1
	.globl	EhcSetRootHubPortFeature
	.type	EhcSetRootHubPortFeature, @function
EhcSetRootHubPortFeature:
.LFB5:
	.loc 1 429 1
	.cfi_startproc
	addi	sp,sp,-80
	.cfi_def_cfa_offset 80
	sd	ra,72(sp)
	sd	s0,64(sp)
	.cfi_offset 1, -8
	.cfi_offset 8, -16
	addi	s0,sp,80
	.cfi_def_cfa 8, 0
	sd	a0,-72(s0)
	mv	a5,a1
	mv	a4,a2
	sb	a5,-73(s0)
	mv	a5,a4
	sw	a5,-80(s0)
	.loc 1 437 15
	la	a5,gBS
	ld	a5,0(a5)
	ld	a5,24(a5)
	.loc 1 437 12
	li	a0,16
	jalr	a5
.LVL10:
	sd	a0,-40(s0)
	.loc 1 438 11
	ld	a5,-72(s0)
	addi	a5,a5,-8
	.loc 1 438 107
	ld	a4,0(a5)
	.loc 1 438 192
	li	a5,1768124416
	addi	a5,a5,-1947
	bne	a4,a5,.L69
	.loc 1 438 7 discriminator 1
	ld	a5,-72(s0)
	addi	a5,a5,-8
	sd	a5,-32(s0)
	j	.L70
.L69:
	.loc 1 438 7 is_stmt 0 discriminator 2
	sd	zero,-32(s0)
.L70:
	.loc 1 439 10 is_stmt 1
	sd	zero,-24(s0)
	.loc 1 441 19
	ld	a5,-32(s0)
	lw	a5,232(a5)
	.loc 1 441 13
	andi	a5,a5,15
	sw	a5,-44(s0)
	.loc 1 443 18
	lbu	a5,-73(s0)
	sext.w	a5,a5
	.loc 1 443 6
	lw	a4,-44(s0)
	sext.w	a4,a4
	bgtu	a4,a5,.L71
	.loc 1 444 12
	li	a5,-1
	slli	a5,a5,63
	addi	a5,a5,2
	sd	a5,-24(s0)
	.loc 1 445 5
	j	.L84
.L71:
	.loc 1 448 26
	lbu	a5,-73(s0)
	sext.w	a5,a5
	addiw	a5,a5,17
	sext.w	a5,a5
	slliw	a5,a5,2
	sext.w	a5,a5
	.loc 1 448 10
	sw	a5,-48(s0)
	.loc 1 449 11
	lw	a5,-48(s0)
	mv	a1,a5
	ld	a0,-32(s0)
	call	EhcReadOpReg@plt
	mv	a5,a0
	sw	a5,-52(s0)
	.loc 1 455 9
	lw	a5,-52(s0)
	andi	a5,a5,-43
	sw	a5,-52(s0)
	.loc 1 457 3
	lw	a5,-80(s0)
	sext.w	a4,a5
	li	a5,13
	beq	a4,a5,.L73
	lw	a5,-80(s0)
	sext.w	a4,a5
	li	a5,13
	bgtu	a4,a5,.L74
	lw	a5,-80(s0)
	sext.w	a4,a5
	li	a5,8
	beq	a4,a5,.L75
	lw	a5,-80(s0)
	sext.w	a4,a5
	li	a5,8
	bgtu	a4,a5,.L74
	lw	a5,-80(s0)
	sext.w	a4,a5
	li	a5,4
	beq	a4,a5,.L76
	lw	a5,-80(s0)
	sext.w	a4,a5
	li	a5,4
	bgtu	a4,a5,.L74
	lw	a5,-80(s0)
	sext.w	a4,a5
	li	a5,1
	beq	a4,a5,.L77
	lw	a5,-80(s0)
	sext.w	a4,a5
	li	a5,2
	beq	a4,a5,.L78
	j	.L74
.L77:
	.loc 1 463 13
	lw	a5,-52(s0)
	ori	a5,a5,4
	sw	a5,-52(s0)
	.loc 1 464 7
	lw	a4,-52(s0)
	lw	a5,-48(s0)
	mv	a2,a4
	mv	a1,a5
	ld	a0,-32(s0)
	call	EhcWriteOpReg@plt
	.loc 1 465 7
	j	.L79
.L78:
	.loc 1 468 13
	lw	a5,-52(s0)
	ori	a5,a5,128
	sw	a5,-52(s0)
	.loc 1 469 7
	lw	a4,-52(s0)
	lw	a5,-48(s0)
	mv	a2,a4
	mv	a1,a5
	ld	a0,-32(s0)
	call	EhcWriteOpReg@plt
	.loc 1 470 7
	j	.L79
.L76:
	.loc 1 476 11
	ld	a0,-32(s0)
	call	EhcIsHalt@plt
	mv	a5,a0
	.loc 1 476 10 discriminator 1
	beq	a5,zero,.L80
	.loc 1 477 18
	li	a5,8192
	addi	a1,a5,1808
	ld	a0,-32(s0)
	call	EhcRunHC@plt
	sd	a0,-24(s0)
	.loc 1 479 40
	ld	a5,-24(s0)
	.loc 1 479 12
	blt	a5,zero,.L85
.L80:
	.loc 1 488 13
	lw	a5,-52(s0)
	ori	a5,a5,256
	sw	a5,-52(s0)
	.loc 1 489 13
	lw	a5,-52(s0)
	andi	a5,a5,-5
	sw	a5,-52(s0)
	.loc 1 490 7
	lw	a4,-52(s0)
	lw	a5,-48(s0)
	mv	a2,a4
	mv	a1,a5
	ld	a0,-32(s0)
	call	EhcWriteOpReg@plt
	.loc 1 491 7
	j	.L79
.L75:
	.loc 1 498 15
	ld	a5,-32(s0)
	lw	a5,232(a5)
	.loc 1 498 32
	andi	a5,a5,16
	sext.w	a5,a5
	.loc 1 498 10
	beq	a5,zero,.L86
	.loc 1 499 15
	lw	a5,-52(s0)
	mv	a4,a5
	li	a5,4096
	or	a5,a4,a5
	sw	a5,-52(s0)
	.loc 1 500 9
	lw	a4,-52(s0)
	lw	a5,-48(s0)
	mv	a2,a4
	mv	a1,a5
	ld	a0,-32(s0)
	call	EhcWriteOpReg@plt
	.loc 1 503 7
	j	.L86
.L73:
	.loc 1 506 15
	ld	a5,-32(s0)
	lbu	a5,261(a5)
	.loc 1 506 10
	bne	a5,zero,.L87
	.loc 1 507 15
	lw	a5,-52(s0)
	mv	a4,a5
	li	a5,8192
	or	a5,a4,a5
	sw	a5,-52(s0)
	.loc 1 508 9
	lw	a4,-52(s0)
	lw	a5,-48(s0)
	mv	a2,a4
	mv	a1,a5
	ld	a0,-32(s0)
	call	EhcWriteOpReg@plt
	.loc 1 510 7
	j	.L87
.L74:
	.loc 1 513 14
	li	a5,-1
	slli	a5,a5,63
	addi	a5,a5,2
	sd	a5,-24(s0)
	j	.L79
.L85:
	.loc 1 481 11
	nop
	j	.L79
.L86:
	.loc 1 503 7
	nop
	j	.L79
.L87:
	.loc 1 510 7
	nop
.L79:
	.loc 1 517 3
	li	a1,0
	ld	a0,-32(s0)
	call	EhcReadOpReg@plt
	.loc 1 518 6
	la	a5,gBS
	ld	a5,0(a5)
	ld	a5,248(a5)
	.loc 1 518 3
	li	a4,4096
	addi	a0,a4,904
	jalr	a5
.LVL11:
.L72:
.L84:
	.loc 1 523 6
	la	a5,gBS
	ld	a5,0(a5)
	ld	a5,32(a5)
	.loc 1 523 3
	ld	a0,-40(s0)
	jalr	a5
.LVL12:
	.loc 1 524 10
	ld	a5,-24(s0)
	.loc 1 525 1
	mv	a0,a5
	ld	ra,72(sp)
	.cfi_restore 1
	ld	s0,64(sp)
	.cfi_restore 8
	.cfi_def_cfa 2, 80
	addi	sp,sp,80
	.cfi_def_cfa_offset 0
	jr	ra
	.cfi_endproc
.LFE5:
	.size	EhcSetRootHubPortFeature, .-EhcSetRootHubPortFeature
	.section	.text.EhcClearRootHubPortFeature,"ax",@progbits
	.align	1
	.globl	EhcClearRootHubPortFeature
	.type	EhcClearRootHubPortFeature, @function
EhcClearRootHubPortFeature:
.LFB6:
	.loc 1 549 1
	.cfi_startproc
	addi	sp,sp,-80
	.cfi_def_cfa_offset 80
	sd	ra,72(sp)
	sd	s0,64(sp)
	.cfi_offset 1, -8
	.cfi_offset 8, -16
	addi	s0,sp,80
	.cfi_def_cfa 8, 0
	sd	a0,-72(s0)
	mv	a5,a1
	mv	a4,a2
	sb	a5,-73(s0)
	mv	a5,a4
	sw	a5,-80(s0)
	.loc 1 557 15
	la	a5,gBS
	ld	a5,0(a5)
	ld	a5,24(a5)
	.loc 1 557 12
	li	a0,16
	jalr	a5
.LVL13:
	sd	a0,-40(s0)
	.loc 1 558 11
	ld	a5,-72(s0)
	addi	a5,a5,-8
	.loc 1 558 107
	ld	a4,0(a5)
	.loc 1 558 192
	li	a5,1768124416
	addi	a5,a5,-1947
	bne	a4,a5,.L89
	.loc 1 558 7 discriminator 1
	ld	a5,-72(s0)
	addi	a5,a5,-8
	sd	a5,-24(s0)
	j	.L90
.L89:
	.loc 1 558 7 is_stmt 0 discriminator 2
	sd	zero,-24(s0)
.L90:
	.loc 1 559 10 is_stmt 1
	sd	zero,-32(s0)
	.loc 1 561 19
	ld	a5,-24(s0)
	lw	a5,232(a5)
	.loc 1 561 13
	andi	a5,a5,15
	sw	a5,-44(s0)
	.loc 1 563 18
	lbu	a5,-73(s0)
	sext.w	a5,a5
	.loc 1 563 6
	lw	a4,-44(s0)
	sext.w	a4,a4
	bgtu	a4,a5,.L91
	.loc 1 564 12
	li	a5,-1
	slli	a5,a5,63
	addi	a5,a5,2
	sd	a5,-32(s0)
	.loc 1 565 5
	j	.L107
.L91:
	.loc 1 568 17
	lbu	a5,-73(s0)
	sext.w	a5,a5
	addiw	a5,a5,17
	sext.w	a5,a5
	slliw	a5,a5,2
	sext.w	a5,a5
	.loc 1 568 10
	sw	a5,-48(s0)
	.loc 1 569 11
	lw	a5,-48(s0)
	mv	a1,a5
	ld	a0,-24(s0)
	call	EhcReadOpReg@plt
	mv	a5,a0
	sw	a5,-52(s0)
	.loc 1 570 9
	lw	a5,-52(s0)
	andi	a5,a5,-43
	sw	a5,-52(s0)
	.loc 1 572 3
	lw	a5,-80(s0)
	sext.w	a4,a5
	li	a5,20
	beq	a4,a5,.L108
	lw	a5,-80(s0)
	sext.w	a4,a5
	li	a5,20
	bgtu	a4,a5,.L94
	lw	a5,-80(s0)
	sext.w	a4,a5
	li	a5,19
	beq	a4,a5,.L95
	lw	a5,-80(s0)
	sext.w	a4,a5
	li	a5,19
	bgtu	a4,a5,.L94
	lw	a5,-80(s0)
	sext.w	a4,a5
	li	a5,18
	beq	a4,a5,.L108
	lw	a5,-80(s0)
	sext.w	a4,a5
	li	a5,18
	bgtu	a4,a5,.L94
	lw	a5,-80(s0)
	sext.w	a4,a5
	li	a5,17
	beq	a4,a5,.L96
	lw	a5,-80(s0)
	sext.w	a4,a5
	li	a5,17
	bgtu	a4,a5,.L94
	lw	a5,-80(s0)
	sext.w	a4,a5
	li	a5,16
	beq	a4,a5,.L97
	lw	a5,-80(s0)
	sext.w	a4,a5
	li	a5,16
	bgtu	a4,a5,.L94
	lw	a5,-80(s0)
	sext.w	a4,a5
	li	a5,13
	beq	a4,a5,.L98
	lw	a5,-80(s0)
	sext.w	a4,a5
	li	a5,13
	bgtu	a4,a5,.L94
	lw	a5,-80(s0)
	sext.w	a4,a5
	li	a5,8
	beq	a4,a5,.L99
	lw	a5,-80(s0)
	sext.w	a4,a5
	li	a5,8
	bgtu	a4,a5,.L94
	lw	a5,-80(s0)
	sext.w	a4,a5
	li	a5,4
	beq	a4,a5,.L100
	lw	a5,-80(s0)
	sext.w	a4,a5
	li	a5,4
	bgtu	a4,a5,.L94
	lw	a5,-80(s0)
	sext.w	a4,a5
	li	a5,1
	beq	a4,a5,.L101
	lw	a5,-80(s0)
	sext.w	a4,a5
	li	a5,2
	beq	a4,a5,.L102
	j	.L94
.L101:
	.loc 1 577 13
	lw	a5,-52(s0)
	andi	a5,a5,-5
	sw	a5,-52(s0)
	.loc 1 578 7
	lw	a4,-52(s0)
	lw	a5,-48(s0)
	mv	a2,a4
	mv	a1,a5
	ld	a0,-24(s0)
	call	EhcWriteOpReg@plt
	.loc 1 579 7
	j	.L103
.L102:
	.loc 1 589 13
	lw	a5,-52(s0)
	andi	a5,a5,-65
	sw	a5,-52(s0)
	.loc 1 590 7
	lw	a4,-52(s0)
	lw	a5,-48(s0)
	mv	a2,a4
	mv	a1,a5
	ld	a0,-24(s0)
	call	EhcWriteOpReg@plt
	.loc 1 591 7
	j	.L103
.L100:
	.loc 1 597 13
	lw	a5,-52(s0)
	andi	a5,a5,-257
	sw	a5,-52(s0)
	.loc 1 598 7
	lw	a4,-52(s0)
	lw	a5,-48(s0)
	mv	a2,a4
	mv	a1,a5
	ld	a0,-24(s0)
	call	EhcWriteOpReg@plt
	.loc 1 599 7
	j	.L103
.L98:
	.loc 1 605 15
	ld	a5,-24(s0)
	lbu	a5,261(a5)
	.loc 1 605 10
	bne	a5,zero,.L109
	.loc 1 606 15
	lw	a5,-52(s0)
	mv	a4,a5
	li	a5,-8192
	addi	a5,a5,-1
	and	a5,a4,a5
	sw	a5,-52(s0)
	.loc 1 607 9
	lw	a4,-52(s0)
	lw	a5,-48(s0)
	mv	a2,a4
	mv	a1,a5
	ld	a0,-24(s0)
	call	EhcWriteOpReg@plt
	.loc 1 609 7
	j	.L109
.L97:
	.loc 1 615 13
	lw	a5,-52(s0)
	ori	a5,a5,2
	sw	a5,-52(s0)
	.loc 1 616 7
	lw	a4,-52(s0)
	lw	a5,-48(s0)
	mv	a2,a4
	mv	a1,a5
	ld	a0,-24(s0)
	call	EhcWriteOpReg@plt
	.loc 1 617 7
	j	.L103
.L96:
	.loc 1 623 13
	lw	a5,-52(s0)
	ori	a5,a5,8
	sw	a5,-52(s0)
	.loc 1 624 7
	lw	a4,-52(s0)
	lw	a5,-48(s0)
	mv	a2,a4
	mv	a1,a5
	ld	a0,-24(s0)
	call	EhcWriteOpReg@plt
	.loc 1 625 7
	j	.L103
.L95:
	.loc 1 631 13
	lw	a5,-52(s0)
	ori	a5,a5,32
	sw	a5,-52(s0)
	.loc 1 632 7
	lw	a4,-52(s0)
	lw	a5,-48(s0)
	mv	a2,a4
	mv	a1,a5
	ld	a0,-24(s0)
	call	EhcWriteOpReg@plt
	.loc 1 633 7
	j	.L103
.L99:
	.loc 1 639 15
	ld	a5,-24(s0)
	lw	a5,236(a5)
	.loc 1 639 29
	andi	a5,a5,16
	sext.w	a5,a5
	.loc 1 639 10
	beq	a5,zero,.L110
	.loc 1 640 15
	lw	a5,-52(s0)
	mv	a4,a5
	li	a5,-4096
	addi	a5,a5,-1
	and	a5,a4,a5
	sw	a5,-52(s0)
	.loc 1 641 9
	lw	a4,-52(s0)
	lw	a5,-48(s0)
	mv	a2,a4
	mv	a1,a5
	ld	a0,-24(s0)
	call	EhcWriteOpReg@plt
	.loc 1 644 7
	j	.L110
.L94:
	.loc 1 653 14
	li	a5,-1
	slli	a5,a5,63
	addi	a5,a5,2
	sd	a5,-32(s0)
	.loc 1 654 7
	j	.L103
.L108:
	.loc 1 650 7
	nop
	j	.L103
.L109:
	.loc 1 609 7
	nop
	j	.L103
.L110:
	.loc 1 644 7
	nop
.L103:
	.loc 1 658 3
	li	a1,0
	ld	a0,-24(s0)
	call	EhcReadOpReg@plt
	.loc 1 659 6
	la	a5,gBS
	ld	a5,0(a5)
	ld	a5,248(a5)
	.loc 1 659 3
	li	a4,4096
	addi	a0,a4,904
	jalr	a5
.LVL14:
.L92:
.L107:
	.loc 1 663 6
	la	a5,gBS
	ld	a5,0(a5)
	ld	a5,32(a5)
	.loc 1 663 3
	ld	a0,-40(s0)
	jalr	a5
.LVL15:
	.loc 1 664 10
	ld	a5,-32(s0)
	.loc 1 665 1
	mv	a0,a5
	ld	ra,72(sp)
	.cfi_restore 1
	ld	s0,64(sp)
	.cfi_restore 8
	.cfi_def_cfa 2, 80
	addi	sp,sp,80
	.cfi_def_cfa_offset 0
	jr	ra
	.cfi_endproc
.LFE6:
	.size	EhcClearRootHubPortFeature, .-EhcClearRootHubPortFeature
	.section	.text.EhcControlTransfer,"ax",@progbits
	.align	1
	.globl	EhcControlTransfer
	.type	EhcControlTransfer, @function
EhcControlTransfer:
.LFB7:
	.loc 1 706 1
	.cfi_startproc
	addi	sp,sp,-160
	.cfi_def_cfa_offset 160
	sd	ra,152(sp)
	sd	s0,144(sp)
	.cfi_offset 1, -8
	.cfi_offset 8, -16
	addi	s0,sp,160
	.cfi_def_cfa 8, 0
	sd	a0,-72(s0)
	sd	a3,-88(s0)
	sd	a4,-96(s0)
	mv	a4,a5
	sd	a6,-104(s0)
	sd	a7,-112(s0)
	mv	a5,a1
	sb	a5,-73(s0)
	mv	a5,a2
	sb	a5,-74(s0)
	mv	a5,a4
	sw	a5,-80(s0)
	.loc 1 716 6
	ld	a5,-96(s0)
	beq	a5,zero,.L112
	.loc 1 716 33 discriminator 1
	ld	a5,16(s0)
	bne	a5,zero,.L113
.L112:
	.loc 1 717 12
	li	a5,-1
	slli	a5,a5,63
	addi	a5,a5,2
	j	.L114
.L113:
	.loc 1 720 6
	lw	a5,-80(s0)
	sext.w	a5,a5
	beq	a5,zero,.L115
	.loc 1 720 43 discriminator 1
	lw	a5,-80(s0)
	sext.w	a4,a5
	li	a5,1
	beq	a4,a5,.L115
	.loc 1 721 44
	lw	a5,-80(s0)
	sext.w	a4,a5
	li	a5,2
	beq	a4,a5,.L115
	.loc 1 724 12
	li	a5,-1
	slli	a5,a5,63
	addi	a5,a5,2
	j	.L114
.L115:
	.loc 1 727 6
	lw	a5,-80(s0)
	sext.w	a4,a5
	li	a5,2
	bne	a4,a5,.L116
	.loc 1 727 43 discriminator 1
	ld	a5,-104(s0)
	bne	a5,zero,.L117
	.loc 1 728 35
	ld	a5,-112(s0)
	ld	a5,0(a5)
	.loc 1 728 31
	beq	a5,zero,.L116
.L117:
	.loc 1 730 12
	li	a5,-1
	slli	a5,a5,63
	addi	a5,a5,2
	j	.L114
.L116:
	.loc 1 733 6
	lw	a5,-80(s0)
	sext.w	a4,a5
	li	a5,2
	beq	a4,a5,.L118
	.loc 1 733 43 discriminator 1
	ld	a5,-104(s0)
	beq	a5,zero,.L119
	.loc 1 734 35
	ld	a5,-112(s0)
	ld	a5,0(a5)
	.loc 1 734 31
	bne	a5,zero,.L118
.L119:
	.loc 1 736 12
	li	a5,-1
	slli	a5,a5,63
	addi	a5,a5,2
	j	.L114
.L118:
	.loc 1 739 6
	ld	a4,-88(s0)
	li	a5,8
	beq	a4,a5,.L120
	.loc 1 739 34 discriminator 1
	ld	a4,-88(s0)
	li	a5,16
	beq	a4,a5,.L120
	.loc 1 739 65 discriminator 2
	ld	a4,-88(s0)
	li	a5,32
	beq	a4,a5,.L120
	.loc 1 740 35
	ld	a4,-88(s0)
	li	a5,64
	beq	a4,a5,.L120
	.loc 1 742 12
	li	a5,-1
	slli	a5,a5,63
	addi	a5,a5,2
	j	.L114
.L120:
	.loc 1 745 6
	lbu	a5,-74(s0)
	andi	a4,a5,0xff
	li	a5,1
	bne	a4,a5,.L121
	.loc 1 745 31 discriminator 1
	ld	a4,-88(s0)
	li	a5,8
	beq	a4,a5,.L121
	.loc 1 746 12
	li	a5,-1
	slli	a5,a5,63
	addi	a5,a5,2
	j	.L114
.L121:
	.loc 1 749 15
	la	a5,gBS
	ld	a5,0(a5)
	ld	a5,24(a5)
	.loc 1 749 12
	li	a0,16
	jalr	a5
.LVL16:
	sd	a0,-48(s0)
	.loc 1 750 11
	ld	a5,-72(s0)
	addi	a5,a5,-8
	.loc 1 750 107
	ld	a4,0(a5)
	.loc 1 750 192
	li	a5,1768124416
	addi	a5,a5,-1947
	bne	a4,a5,.L122
	.loc 1 750 7 discriminator 1
	ld	a5,-72(s0)
	addi	a5,a5,-8
	sd	a5,-40(s0)
	j	.L123
.L122:
	.loc 1 750 7 is_stmt 0 discriminator 2
	sd	zero,-40(s0)
.L123:
	.loc 1 752 10 is_stmt 1
	li	a5,-1
	slli	a5,a5,63
	addi	a5,a5,7
	sd	a5,-24(s0)
	.loc 1 753 19
	ld	a5,16(s0)
	li	a4,256
	sw	a4,0(a5)
	.loc 1 755 7
	ld	a0,-40(s0)
	call	EhcIsHalt@plt
	mv	a5,a0
	.loc 1 755 6 discriminator 1
	bne	a5,zero,.L124
	.loc 1 755 26 discriminator 2
	ld	a0,-40(s0)
	call	EhcIsSysError@plt
	mv	a5,a0
	.loc 1 755 23 discriminator 3
	beq	a5,zero,.L125
.L124:
	.loc 1 758 5
	ld	a0,-40(s0)
	call	EhcAckAllInterrupt@plt
	.loc 1 759 5
	j	.L126
.L125:
	.loc 1 762 3
	ld	a0,-40(s0)
	call	EhcAckAllInterrupt@plt
	.loc 1 773 14
	lw	a5,-80(s0)
	sext.w	a5,a5
	bne	a5,zero,.L127
	.loc 1 773 12 discriminator 1
	li	a5,-128
	sb	a5,-25(s0)
	j	.L128
.L127:
	.loc 1 773 12 is_stmt 0 discriminator 2
	sb	zero,-25(s0)
.L128:
	.loc 1 774 9 is_stmt 1
	ld	a5,-112(s0)
	ld	a5,0(a5)
	lbu	a3,-74(s0)
	lbu	a2,-25(s0)
	lbu	a1,-73(s0)
	li	a4,1
	sd	a4,40(sp)
	sd	zero,32(sp)
	sd	zero,24(sp)
	sd	a5,16(sp)
	ld	a5,-104(s0)
	sd	a5,8(sp)
	ld	a5,-96(s0)
	sd	a5,0(sp)
	li	a7,1
	ld	a6,8(s0)
	ld	a5,-88(s0)
	li	a4,0
	ld	a0,-40(s0)
	call	EhcCreateUrb@plt
	sd	a0,-56(s0)
	.loc 1 791 6
	ld	a5,-56(s0)
	bne	a5,zero,.L129
	.loc 1 794 12
	li	a5,-1
	slli	a5,a5,63
	addi	a5,a5,9
	sd	a5,-24(s0)
	.loc 1 795 5
	j	.L126
.L129:
	.loc 1 798 3
	ld	a5,-56(s0)
	ld	a5,144(a5)
	mv	a1,a5
	ld	a0,-40(s0)
	call	EhcLinkQhToAsync@plt
	.loc 1 799 12
	ld	a2,0(s0)
	ld	a1,-56(s0)
	ld	a0,-40(s0)
	call	EhcExecTransfer@plt
	sd	a0,-24(s0)
	.loc 1 800 3
	ld	a5,-56(s0)
	ld	a5,144(a5)
	mv	a1,a5
	ld	a0,-40(s0)
	call	EhcUnlinkQhFromAsync@plt
	.loc 1 806 24
	ld	a5,-56(s0)
	lw	a4,152(a5)
	.loc 1 806 19
	ld	a5,16(s0)
	sw	a4,0(a5)
	.loc 1 807 20
	ld	a5,-56(s0)
	ld	a4,160(a5)
	.loc 1 807 15
	ld	a5,-112(s0)
	sd	a4,0(a5)
	.loc 1 809 7
	ld	a5,16(s0)
	lw	a5,0(a5)
	.loc 1 809 6
	bne	a5,zero,.L130
	.loc 1 810 12
	sd	zero,-24(s0)
.L130:
	.loc 1 813 3
	ld	a0,-40(s0)
	call	EhcAckAllInterrupt@plt
	.loc 1 814 3
	ld	a1,-56(s0)
	ld	a0,-40(s0)
	call	EhcFreeUrb@plt
.L126:
	.loc 1 817 6
	ld	a5,-40(s0)
	ld	a5,120(a5)
	.loc 1 817 13
	ld	a5,104(a5)
	.loc 1 817 3
	ld	a4,-40(s0)
	ld	a4,120(a4)
	mv	a0,a4
	jalr	a5
.LVL17:
	.loc 1 818 6
	la	a5,gBS
	ld	a5,0(a5)
	ld	a5,32(a5)
	.loc 1 818 3
	ld	a0,-48(s0)
	jalr	a5
.LVL18:
	.loc 1 824 10
	ld	a5,-24(s0)
.L114:
	.loc 1 825 1
	mv	a0,a5
	ld	ra,152(sp)
	.cfi_restore 1
	ld	s0,144(sp)
	.cfi_restore 8
	.cfi_def_cfa 2, 160
	addi	sp,sp,160
	.cfi_def_cfa_offset 0
	jr	ra
	.cfi_endproc
.LFE7:
	.size	EhcControlTransfer, .-EhcControlTransfer
	.section	.text.EhcBulkTransfer,"ax",@progbits
	.align	1
	.globl	EhcBulkTransfer
	.type	EhcBulkTransfer, @function
EhcBulkTransfer:
.LFB8:
	.loc 1 873 1
	.cfi_startproc
	addi	sp,sp,-160
	.cfi_def_cfa_offset 160
	sd	ra,152(sp)
	sd	s0,144(sp)
	.cfi_offset 1, -8
	.cfi_offset 8, -16
	addi	s0,sp,160
	.cfi_def_cfa 8, 0
	sd	a0,-72(s0)
	sd	a4,-88(s0)
	mv	a4,a5
	sd	a6,-96(s0)
	sd	a7,-104(s0)
	mv	a5,a1
	sb	a5,-73(s0)
	mv	a5,a2
	sb	a5,-74(s0)
	mv	a5,a3
	sb	a5,-75(s0)
	mv	a5,a4
	sb	a5,-76(s0)
	.loc 1 883 6
	ld	a5,-104(s0)
	beq	a5,zero,.L132
	.loc 1 883 40 discriminator 1
	ld	a5,-104(s0)
	ld	a5,0(a5)
	.loc 1 883 36 discriminator 1
	beq	a5,zero,.L132
	.loc 1 883 58 discriminator 2
	ld	a5,-96(s0)
	beq	a5,zero,.L132
	.loc 1 884 38
	ld	a5,-96(s0)
	ld	a5,0(a5)
	.loc 1 884 30
	beq	a5,zero,.L132
	.loc 1 884 59 discriminator 1
	ld	a5,24(s0)
	bne	a5,zero,.L133
.L132:
	.loc 1 886 12
	li	a5,-1
	slli	a5,a5,63
	addi	a5,a5,2
	j	.L134
.L133:
	.loc 1 889 8
	ld	a5,0(s0)
	lbu	a5,0(a5)
	.loc 1 889 6
	beq	a5,zero,.L135
	.loc 1 889 30 discriminator 1
	ld	a5,0(s0)
	lbu	a5,0(a5)
	.loc 1 889 26 discriminator 1
	mv	a4,a5
	li	a5,1
	beq	a4,a5,.L135
	.loc 1 890 12
	li	a5,-1
	slli	a5,a5,63
	addi	a5,a5,2
	j	.L134
.L135:
	.loc 1 893 6
	lbu	a5,-75(s0)
	andi	a4,a5,0xff
	li	a5,1
	beq	a4,a5,.L136
	.loc 1 893 31 discriminator 1
	lbu	a5,-75(s0)
	andi	a5,a5,0xff
	bne	a5,zero,.L137
	.loc 1 894 32
	ld	a4,-88(s0)
	li	a5,64
	bgtu	a4,a5,.L136
.L137:
	.loc 1 894 63 discriminator 1
	lbu	a5,-75(s0)
	andi	a4,a5,0xff
	li	a5,2
	bne	a4,a5,.L138
	.loc 1 895 32
	ld	a4,-88(s0)
	li	a5,512
	bleu	a4,a5,.L138
.L136:
	.loc 1 897 12
	li	a5,-1
	slli	a5,a5,63
	addi	a5,a5,2
	j	.L134
.L138:
	.loc 1 900 15
	la	a5,gBS
	ld	a5,0(a5)
	ld	a5,24(a5)
	.loc 1 900 12
	li	a0,16
	jalr	a5
.LVL19:
	sd	a0,-40(s0)
	.loc 1 901 11
	ld	a5,-72(s0)
	addi	a5,a5,-8
	.loc 1 901 107
	ld	a4,0(a5)
	.loc 1 901 192
	li	a5,1768124416
	addi	a5,a5,-1947
	bne	a4,a5,.L139
	.loc 1 901 7 discriminator 1
	ld	a5,-72(s0)
	addi	a5,a5,-8
	sd	a5,-32(s0)
	j	.L140
.L139:
	.loc 1 901 7 is_stmt 0 discriminator 2
	sd	zero,-32(s0)
.L140:
	.loc 1 903 19 is_stmt 1
	ld	a5,24(s0)
	li	a4,256
	sw	a4,0(a5)
	.loc 1 904 10
	li	a5,-1
	slli	a5,a5,63
	addi	a5,a5,7
	sd	a5,-24(s0)
	.loc 1 906 7
	ld	a0,-32(s0)
	call	EhcIsHalt@plt
	mv	a5,a0
	.loc 1 906 6 discriminator 1
	bne	a5,zero,.L141
	.loc 1 906 26 discriminator 2
	ld	a0,-32(s0)
	call	EhcIsSysError@plt
	mv	a5,a0
	.loc 1 906 23 discriminator 3
	beq	a5,zero,.L142
.L141:
	.loc 1 909 5
	ld	a0,-32(s0)
	call	EhcAckAllInterrupt@plt
	.loc 1 910 5
	j	.L143
.L142:
	.loc 1 913 3
	ld	a0,-32(s0)
	call	EhcAckAllInterrupt@plt
	.loc 1 919 9
	ld	a5,0(s0)
	lbu	t1,0(a5)
	ld	a5,-96(s0)
	ld	a5,0(a5)
	ld	a4,-104(s0)
	ld	a4,0(a4)
	lbu	a0,-75(s0)
	lbu	a2,-74(s0)
	lbu	a1,-73(s0)
	li	a3,1
	sd	a3,40(sp)
	sd	zero,32(sp)
	sd	zero,24(sp)
	sd	a4,16(sp)
	sd	a5,8(sp)
	sd	zero,0(sp)
	li	a7,2
	ld	a6,16(s0)
	ld	a5,-88(s0)
	mv	a4,t1
	mv	a3,a0
	ld	a0,-32(s0)
	call	EhcCreateUrb@plt
	sd	a0,-48(s0)
	.loc 1 936 6
	ld	a5,-48(s0)
	bne	a5,zero,.L144
	.loc 1 939 12
	li	a5,-1
	slli	a5,a5,63
	addi	a5,a5,9
	sd	a5,-24(s0)
	.loc 1 940 5
	j	.L143
.L144:
	.loc 1 943 3
	ld	a5,-48(s0)
	ld	a5,144(a5)
	mv	a1,a5
	ld	a0,-32(s0)
	call	EhcLinkQhToAsync@plt
	.loc 1 944 12
	ld	a2,8(s0)
	ld	a1,-48(s0)
	ld	a0,-32(s0)
	call	EhcExecTransfer@plt
	sd	a0,-24(s0)
	.loc 1 945 3
	ld	a5,-48(s0)
	ld	a5,144(a5)
	mv	a1,a5
	ld	a0,-32(s0)
	call	EhcUnlinkQhFromAsync@plt
	.loc 1 947 24
	ld	a5,-48(s0)
	lw	a4,152(a5)
	.loc 1 947 19
	ld	a5,24(s0)
	sw	a4,0(a5)
	.loc 1 948 20
	ld	a5,-48(s0)
	ld	a4,160(a5)
	.loc 1 948 15
	ld	a5,-104(s0)
	sd	a4,0(a5)
	.loc 1 949 20
	ld	a5,-48(s0)
	lbu	a4,168(a5)
	.loc 1 949 15
	ld	a5,0(s0)
	sb	a4,0(a5)
	.loc 1 951 7
	ld	a5,24(s0)
	lw	a5,0(a5)
	.loc 1 951 6
	bne	a5,zero,.L145
	.loc 1 952 12
	sd	zero,-24(s0)
.L145:
	.loc 1 955 3
	ld	a0,-32(s0)
	call	EhcAckAllInterrupt@plt
	.loc 1 956 3
	ld	a1,-48(s0)
	ld	a0,-32(s0)
	call	EhcFreeUrb@plt
.L143:
	.loc 1 959 6
	ld	a5,-32(s0)
	ld	a5,120(a5)
	.loc 1 959 13
	ld	a5,104(a5)
	.loc 1 959 3
	ld	a4,-32(s0)
	ld	a4,120(a4)
	mv	a0,a4
	jalr	a5
.LVL20:
	.loc 1 960 6
	la	a5,gBS
	ld	a5,0(a5)
	ld	a5,32(a5)
	.loc 1 960 3
	ld	a0,-40(s0)
	jalr	a5
.LVL21:
	.loc 1 962 34
	ld	a5,-24(s0)
	.loc 1 962 6
	bge	a5,zero,.L146
	.loc 1 963 8
	ld	a4,-24(s0)
	li	a5,-1
	slli	a5,a5,63
	addi	a5,a5,18
	bne	a4,a5,.L147
	.loc 1 964 23
	li	a5,4194304
	sd	a5,-56(s0)
	j	.L146
.L147:
	.loc 1 966 23
	li	a5,1
	slli	a5,a5,31
	sd	a5,-56(s0)
.L146:
	.loc 1 972 10
	ld	a5,-24(s0)
.L134:
	.loc 1 973 1
	mv	a0,a5
	ld	ra,152(sp)
	.cfi_restore 1
	ld	s0,144(sp)
	.cfi_restore 8
	.cfi_def_cfa 2, 160
	addi	sp,sp,160
	.cfi_def_cfa_offset 0
	jr	ra
	.cfi_endproc
.LFE8:
	.size	EhcBulkTransfer, .-EhcBulkTransfer
	.section	.text.EhcAsyncInterruptTransfer,"ax",@progbits
	.align	1
	.globl	EhcAsyncInterruptTransfer
	.type	EhcAsyncInterruptTransfer, @function
EhcAsyncInterruptTransfer:
.LFB9:
	.loc 1 1020 1
	.cfi_startproc
	addi	sp,sp,-128
	.cfi_def_cfa_offset 128
	sd	ra,120(sp)
	sd	s0,112(sp)
	.cfi_offset 1, -8
	.cfi_offset 8, -16
	addi	s0,sp,128
	.cfi_def_cfa 8, 0
	sd	a0,-56(s0)
	sd	a4,-72(s0)
	mv	a4,a5
	sd	a6,-80(s0)
	sd	a7,-88(s0)
	mv	a5,a1
	sb	a5,-57(s0)
	mv	a5,a2
	sb	a5,-58(s0)
	mv	a5,a3
	sb	a5,-59(s0)
	mv	a5,a4
	sb	a5,-60(s0)
	.loc 1 1029 7
	lb	a5,-58(s0)
	.loc 1 1029 6
	blt	a5,zero,.L149
	.loc 1 1030 12
	li	a5,-1
	slli	a5,a5,63
	addi	a5,a5,2
	j	.L150
.L149:
	.loc 1 1033 6
	lbu	a5,-60(s0)
	andi	a5,a5,0xff
	beq	a5,zero,.L151
	.loc 1 1034 8
	ld	a5,0(s0)
	bne	a5,zero,.L152
	.loc 1 1035 14
	li	a5,-1
	slli	a5,a5,63
	addi	a5,a5,2
	j	.L150
.L152:
	.loc 1 1038 10
	ld	a5,-80(s0)
	lbu	a5,0(a5)
	.loc 1 1038 8
	mv	a4,a5
	li	a5,1
	beq	a4,a5,.L153
	.loc 1 1038 32 discriminator 1
	ld	a5,-80(s0)
	lbu	a5,0(a5)
	.loc 1 1038 28 discriminator 1
	beq	a5,zero,.L153
	.loc 1 1039 14
	li	a5,-1
	slli	a5,a5,63
	addi	a5,a5,2
	j	.L150
.L153:
	.loc 1 1042 8
	ld	a4,-88(s0)
	li	a5,255
	bgtu	a4,a5,.L154
	.loc 1 1042 33 discriminator 1
	ld	a5,-88(s0)
	bne	a5,zero,.L151
.L154:
	.loc 1 1043 14
	li	a5,-1
	slli	a5,a5,63
	addi	a5,a5,2
	j	.L150
.L151:
	.loc 1 1047 15
	la	a5,gBS
	ld	a5,0(a5)
	ld	a5,24(a5)
	.loc 1 1047 12
	li	a0,16
	jalr	a5
.LVL22:
	sd	a0,-40(s0)
	.loc 1 1048 11
	ld	a5,-56(s0)
	addi	a5,a5,-8
	.loc 1 1048 107
	ld	a4,0(a5)
	.loc 1 1048 192
	li	a5,1768124416
	addi	a5,a5,-1947
	bne	a4,a5,.L155
	.loc 1 1048 7 discriminator 1
	ld	a5,-56(s0)
	addi	a5,a5,-8
	sd	a5,-32(s0)
	j	.L156
.L155:
	.loc 1 1048 7 is_stmt 0 discriminator 2
	sd	zero,-32(s0)
.L156:
	.loc 1 1054 6 is_stmt 1
	lbu	a5,-60(s0)
	andi	a5,a5,0xff
	bne	a5,zero,.L157
	.loc 1 1055 14
	lbu	a4,-58(s0)
	lbu	a5,-57(s0)
	ld	a3,-80(s0)
	mv	a2,a4
	mv	a1,a5
	ld	a0,-32(s0)
	call	EhciDelAsyncIntTransfer@plt
	sd	a0,-24(s0)
	.loc 1 1058 5
	j	.L158
.L157:
	.loc 1 1061 10
	sd	zero,-24(s0)
	.loc 1 1063 7
	ld	a0,-32(s0)
	call	EhcIsHalt@plt
	mv	a5,a0
	.loc 1 1063 6 discriminator 1
	bne	a5,zero,.L159
	.loc 1 1063 26 discriminator 2
	ld	a0,-32(s0)
	call	EhcIsSysError@plt
	mv	a5,a0
	.loc 1 1063 23 discriminator 3
	beq	a5,zero,.L160
.L159:
	.loc 1 1065 5
	ld	a0,-32(s0)
	call	EhcAckAllInterrupt@plt
	.loc 1 1067 12
	li	a5,-1
	slli	a5,a5,63
	addi	a5,a5,7
	sd	a5,-24(s0)
	.loc 1 1068 5
	j	.L158
.L160:
	.loc 1 1071 3
	ld	a0,-32(s0)
	call	EhcAckAllInterrupt@plt
	.loc 1 1073 9
	ld	a5,-80(s0)
	lbu	a4,0(a5)
	lbu	a3,-59(s0)
	lbu	a2,-58(s0)
	lbu	a1,-57(s0)
	ld	a5,-88(s0)
	sd	a5,16(sp)
	ld	a5,24(s0)
	sd	a5,8(sp)
	ld	a5,16(s0)
	sd	a5,0(sp)
	ld	a7,0(s0)
	ld	a6,8(s0)
	ld	a5,-72(s0)
	ld	a0,-32(s0)
	call	EhciInsertAsyncIntTransfer@plt
	sd	a0,-48(s0)
	.loc 1 1087 6
	ld	a5,-48(s0)
	bne	a5,zero,.L161
	.loc 1 1088 12
	li	a5,-1
	slli	a5,a5,63
	addi	a5,a5,9
	sd	a5,-24(s0)
	.loc 1 1089 5
	j	.L158
.L161:
	.loc 1 1092 1
	nop
.L158:
	.loc 1 1093 6
	ld	a5,-32(s0)
	ld	a5,120(a5)
	.loc 1 1093 13
	ld	a5,104(a5)
	.loc 1 1093 3
	ld	a4,-32(s0)
	ld	a4,120(a4)
	mv	a0,a4
	jalr	a5
.LVL23:
	.loc 1 1094 6
	la	a5,gBS
	ld	a5,0(a5)
	ld	a5,32(a5)
	.loc 1 1094 3
	ld	a0,-40(s0)
	jalr	a5
.LVL24:
	.loc 1 1096 10
	ld	a5,-24(s0)
.L150:
	.loc 1 1097 1
	mv	a0,a5
	ld	ra,120(sp)
	.cfi_restore 1
	ld	s0,112(sp)
	.cfi_restore 8
	.cfi_def_cfa 2, 128
	addi	sp,sp,128
	.cfi_def_cfa_offset 0
	jr	ra
	.cfi_endproc
.LFE9:
	.size	EhcAsyncInterruptTransfer, .-EhcAsyncInterruptTransfer
	.section	.text.EhcSyncInterruptTransfer,"ax",@progbits
	.align	1
	.globl	EhcSyncInterruptTransfer
	.type	EhcSyncInterruptTransfer, @function
EhcSyncInterruptTransfer:
.LFB10:
	.loc 1 1141 1
	.cfi_startproc
	addi	sp,sp,-144
	.cfi_def_cfa_offset 144
	sd	ra,136(sp)
	sd	s0,128(sp)
	.cfi_offset 1, -8
	.cfi_offset 8, -16
	addi	s0,sp,144
	.cfi_def_cfa 8, 0
	sd	a0,-56(s0)
	sd	a4,-72(s0)
	sd	a5,-80(s0)
	sd	a6,-88(s0)
	sd	a7,-96(s0)
	mv	a5,a1
	sb	a5,-57(s0)
	mv	a5,a2
	sb	a5,-58(s0)
	mv	a5,a3
	sb	a5,-59(s0)
	.loc 1 1150 6
	ld	a5,-88(s0)
	beq	a5,zero,.L163
	.loc 1 1150 40 discriminator 1
	ld	a5,-88(s0)
	ld	a5,0(a5)
	.loc 1 1150 36 discriminator 1
	beq	a5,zero,.L163
	.loc 1 1150 58 discriminator 2
	ld	a5,-80(s0)
	beq	a5,zero,.L163
	.loc 1 1151 30
	ld	a5,16(s0)
	bne	a5,zero,.L164
.L163:
	.loc 1 1153 12
	li	a5,-1
	slli	a5,a5,63
	addi	a5,a5,2
	j	.L165
.L164:
	.loc 1 1156 8
	ld	a5,-96(s0)
	lbu	a5,0(a5)
	.loc 1 1156 6
	mv	a4,a5
	li	a5,1
	beq	a4,a5,.L166
	.loc 1 1156 30 discriminator 1
	ld	a5,-96(s0)
	lbu	a5,0(a5)
	.loc 1 1156 26 discriminator 1
	beq	a5,zero,.L166
	.loc 1 1157 12
	li	a5,-1
	slli	a5,a5,63
	addi	a5,a5,2
	j	.L165
.L166:
	.loc 1 1160 6
	lbu	a5,-59(s0)
	andi	a4,a5,0xff
	li	a5,1
	bne	a4,a5,.L167
	.loc 1 1160 32 discriminator 1
	ld	a4,-72(s0)
	li	a5,8
	bne	a4,a5,.L168
.L167:
	.loc 1 1160 63 discriminator 3
	lbu	a5,-59(s0)
	andi	a5,a5,0xff
	bne	a5,zero,.L169
	.loc 1 1161 32
	ld	a4,-72(s0)
	li	a5,64
	bgtu	a4,a5,.L168
.L169:
	.loc 1 1161 63 discriminator 1
	lbu	a5,-59(s0)
	andi	a4,a5,0xff
	li	a5,2
	bne	a4,a5,.L170
	.loc 1 1162 32
	ld	a4,-72(s0)
	li	a5,4096
	addi	a5,a5,-1024
	bleu	a4,a5,.L170
.L168:
	.loc 1 1164 12
	li	a5,-1
	slli	a5,a5,63
	addi	a5,a5,2
	j	.L165
.L170:
	.loc 1 1167 15
	la	a5,gBS
	ld	a5,0(a5)
	ld	a5,24(a5)
	.loc 1 1167 12
	li	a0,16
	jalr	a5
.LVL25:
	sd	a0,-40(s0)
	.loc 1 1168 11
	ld	a5,-56(s0)
	addi	a5,a5,-8
	.loc 1 1168 107
	ld	a4,0(a5)
	.loc 1 1168 192
	li	a5,1768124416
	addi	a5,a5,-1947
	bne	a4,a5,.L171
	.loc 1 1168 7 discriminator 1
	ld	a5,-56(s0)
	addi	a5,a5,-8
	sd	a5,-32(s0)
	j	.L172
.L171:
	.loc 1 1168 7 is_stmt 0 discriminator 2
	sd	zero,-32(s0)
.L172:
	.loc 1 1170 19 is_stmt 1
	ld	a5,16(s0)
	li	a4,256
	sw	a4,0(a5)
	.loc 1 1171 10
	li	a5,-1
	slli	a5,a5,63
	addi	a5,a5,7
	sd	a5,-24(s0)
	.loc 1 1173 7
	ld	a0,-32(s0)
	call	EhcIsHalt@plt
	mv	a5,a0
	.loc 1 1173 6 discriminator 1
	bne	a5,zero,.L173
	.loc 1 1173 26 discriminator 2
	ld	a0,-32(s0)
	call	EhcIsSysError@plt
	mv	a5,a0
	.loc 1 1173 23 discriminator 3
	beq	a5,zero,.L174
.L173:
	.loc 1 1176 5
	ld	a0,-32(s0)
	call	EhcAckAllInterrupt@plt
	.loc 1 1177 5
	j	.L175
.L174:
	.loc 1 1180 3
	ld	a0,-32(s0)
	call	EhcAckAllInterrupt@plt
	.loc 1 1182 9
	ld	a5,-96(s0)
	lbu	a0,0(a5)
	ld	a5,-88(s0)
	ld	a5,0(a5)
	lbu	a3,-59(s0)
	lbu	a2,-58(s0)
	lbu	a1,-57(s0)
	li	a4,1
	sd	a4,40(sp)
	sd	zero,32(sp)
	sd	zero,24(sp)
	sd	a5,16(sp)
	ld	a5,-80(s0)
	sd	a5,8(sp)
	sd	zero,0(sp)
	li	a7,4
	ld	a6,8(s0)
	ld	a5,-72(s0)
	mv	a4,a0
	ld	a0,-32(s0)
	call	EhcCreateUrb@plt
	sd	a0,-48(s0)
	.loc 1 1199 6
	ld	a5,-48(s0)
	bne	a5,zero,.L176
	.loc 1 1202 12
	li	a5,-1
	slli	a5,a5,63
	addi	a5,a5,9
	sd	a5,-24(s0)
	.loc 1 1203 5
	j	.L175
.L176:
	.loc 1 1206 3
	ld	a5,-48(s0)
	ld	a5,144(a5)
	mv	a1,a5
	ld	a0,-32(s0)
	call	EhcLinkQhToPeriod@plt
	.loc 1 1207 12
	ld	a2,0(s0)
	ld	a1,-48(s0)
	ld	a0,-32(s0)
	call	EhcExecTransfer@plt
	sd	a0,-24(s0)
	.loc 1 1208 3
	ld	a5,-48(s0)
	ld	a5,144(a5)
	mv	a1,a5
	ld	a0,-32(s0)
	call	EhcUnlinkQhFromPeriod@plt
	.loc 1 1210 24
	ld	a5,-48(s0)
	lw	a4,152(a5)
	.loc 1 1210 19
	ld	a5,16(s0)
	sw	a4,0(a5)
	.loc 1 1211 20
	ld	a5,-48(s0)
	ld	a4,160(a5)
	.loc 1 1211 15
	ld	a5,-88(s0)
	sd	a4,0(a5)
	.loc 1 1212 20
	ld	a5,-48(s0)
	lbu	a4,168(a5)
	.loc 1 1212 15
	ld	a5,-96(s0)
	sb	a4,0(a5)
	.loc 1 1214 7
	ld	a5,16(s0)
	lw	a5,0(a5)
	.loc 1 1214 6
	bne	a5,zero,.L177
	.loc 1 1215 12
	sd	zero,-24(s0)
.L177:
	.loc 1 1218 3
	ld	a1,-48(s0)
	ld	a0,-32(s0)
	call	EhcFreeUrb@plt
.L175:
	.loc 1 1220 6
	ld	a5,-32(s0)
	ld	a5,120(a5)
	.loc 1 1220 13
	ld	a5,104(a5)
	.loc 1 1220 3
	ld	a4,-32(s0)
	ld	a4,120(a4)
	mv	a0,a4
	jalr	a5
.LVL26:
	.loc 1 1221 6
	la	a5,gBS
	ld	a5,0(a5)
	ld	a5,32(a5)
	.loc 1 1221 3
	ld	a0,-40(s0)
	jalr	a5
.LVL27:
	.loc 1 1227 10
	ld	a5,-24(s0)
.L165:
	.loc 1 1228 1
	mv	a0,a5
	ld	ra,136(sp)
	.cfi_restore 1
	ld	s0,128(sp)
	.cfi_restore 8
	.cfi_def_cfa 2, 144
	addi	sp,sp,144
	.cfi_def_cfa_offset 0
	jr	ra
	.cfi_endproc
.LFE10:
	.size	EhcSyncInterruptTransfer, .-EhcSyncInterruptTransfer
	.section	.text.EhcIsochronousTransfer,"ax",@progbits
	.align	1
	.globl	EhcIsochronousTransfer
	.type	EhcIsochronousTransfer, @function
EhcIsochronousTransfer:
.LFB11:
	.loc 1 1265 1
	.cfi_startproc
	addi	sp,sp,-64
	.cfi_def_cfa_offset 64
	sd	ra,56(sp)
	sd	s0,48(sp)
	.cfi_offset 1, -8
	.cfi_offset 8, -16
	addi	s0,sp,64
	.cfi_def_cfa 8, 0
	sd	a0,-24(s0)
	sd	a4,-40(s0)
	mv	a4,a5
	sd	a6,-48(s0)
	sd	a7,-56(s0)
	mv	a5,a1
	sb	a5,-25(s0)
	mv	a5,a2
	sb	a5,-26(s0)
	mv	a5,a3
	sb	a5,-27(s0)
	mv	a5,a4
	sb	a5,-28(s0)
	.loc 1 1266 10
	li	a5,-1
	slli	a5,a5,63
	addi	a5,a5,3
	.loc 1 1267 1
	mv	a0,a5
	ld	ra,56(sp)
	.cfi_restore 1
	ld	s0,48(sp)
	.cfi_restore 8
	.cfi_def_cfa 2, 64
	addi	sp,sp,64
	.cfi_def_cfa_offset 0
	jr	ra
	.cfi_endproc
.LFE11:
	.size	EhcIsochronousTransfer, .-EhcIsochronousTransfer
	.section	.text.EhcAsyncIsochronousTransfer,"ax",@progbits
	.align	1
	.globl	EhcAsyncIsochronousTransfer
	.type	EhcAsyncIsochronousTransfer, @function
EhcAsyncIsochronousTransfer:
.LFB12:
	.loc 1 1307 1
	.cfi_startproc
	addi	sp,sp,-64
	.cfi_def_cfa_offset 64
	sd	ra,56(sp)
	sd	s0,48(sp)
	.cfi_offset 1, -8
	.cfi_offset 8, -16
	addi	s0,sp,64
	.cfi_def_cfa 8, 0
	sd	a0,-24(s0)
	sd	a4,-40(s0)
	mv	a4,a5
	sd	a6,-48(s0)
	sd	a7,-56(s0)
	mv	a5,a1
	sb	a5,-25(s0)
	mv	a5,a2
	sb	a5,-26(s0)
	mv	a5,a3
	sb	a5,-27(s0)
	mv	a5,a4
	sb	a5,-28(s0)
	.loc 1 1308 10
	li	a5,-1
	slli	a5,a5,63
	addi	a5,a5,3
	.loc 1 1309 1
	mv	a0,a5
	ld	ra,56(sp)
	.cfi_restore 1
	ld	s0,48(sp)
	.cfi_restore 8
	.cfi_def_cfa 2, 64
	addi	sp,sp,64
	.cfi_def_cfa_offset 0
	jr	ra
	.cfi_endproc
.LFE12:
	.size	EhcAsyncIsochronousTransfer, .-EhcAsyncIsochronousTransfer
	.section	.text.EhcDriverEntryPoint,"ax",@progbits
	.align	1
	.globl	EhcDriverEntryPoint
	.type	EhcDriverEntryPoint, @function
EhcDriverEntryPoint:
.LFB13:
	.loc 1 1327 1
	.cfi_startproc
	addi	sp,sp,-32
	.cfi_def_cfa_offset 32
	sd	ra,24(sp)
	sd	s0,16(sp)
	.cfi_offset 1, -8
	.cfi_offset 8, -16
	addi	s0,sp,32
	.cfi_def_cfa 8, 0
	sd	a0,-24(s0)
	sd	a1,-32(s0)
	.loc 1 1328 10
	la	a5,gEhciComponentName2
	la	a4,gEhciComponentName
	ld	a3,-24(s0)
	lla	a2,gEhciDriverBinding
	ld	a1,-32(s0)
	ld	a0,-24(s0)
	call	EfiLibInstallDriverBindingComponentName2@plt
	mv	a5,a0
	.loc 1 1336 1
	mv	a0,a5
	ld	ra,24(sp)
	.cfi_restore 1
	ld	s0,16(sp)
	.cfi_restore 8
	.cfi_def_cfa 2, 32
	addi	sp,sp,32
	.cfi_def_cfa_offset 0
	jr	ra
	.cfi_endproc
.LFE13:
	.size	EhcDriverEntryPoint, .-EhcDriverEntryPoint
	.section	.text.EhcDriverBindingSupported,"ax",@progbits
	.align	1
	.globl	EhcDriverBindingSupported
	.type	EhcDriverBindingSupported, @function
EhcDriverBindingSupported:
.LFB14:
	.loc 1 1358 1
	.cfi_startproc
	addi	sp,sp,-80
	.cfi_def_cfa_offset 80
	sd	ra,72(sp)
	sd	s0,64(sp)
	.cfi_offset 1, -8
	.cfi_offset 8, -16
	addi	s0,sp,80
	.cfi_def_cfa 8, 0
	sd	a0,-56(s0)
	sd	a1,-64(s0)
	sd	a2,-72(s0)
	.loc 1 1366 15
	la	a5,gBS
	ld	a5,0(a5)
	ld	a6,280(a5)
	.loc 1 1366 12
	ld	a5,-56(s0)
	ld	a3,40(a5)
	addi	a2,s0,-32
	li	a5,16
	ld	a4,-64(s0)
	la	a1,gEfiPciIoProtocolGuid
	ld	a0,-64(s0)
	jalr	a6
.LVL28:
	sd	a0,-24(s0)
	.loc 1 1375 34
	ld	a5,-24(s0)
	.loc 1 1375 6
	bge	a5,zero,.L185
	.loc 1 1376 12
	li	a5,-1
	slli	a5,a5,63
	addi	a5,a5,3
	j	.L190
.L185:
	.loc 1 1379 17
	ld	a5,-32(s0)
	.loc 1 1379 22
	ld	a5,48(a5)
	.loc 1 1379 12
	ld	a0,-32(s0)
	addi	a4,s0,-40
	li	a3,3
	li	a2,9
	li	a1,0
	jalr	a5
.LVL29:
	sd	a0,-24(s0)
	.loc 1 1387 34
	ld	a5,-24(s0)
	.loc 1 1387 6
	bge	a5,zero,.L187
	.loc 1 1388 12
	li	a5,-1
	slli	a5,a5,63
	addi	a5,a5,3
	sd	a5,-24(s0)
	.loc 1 1389 5
	j	.L188
.L187:
	.loc 1 1395 21
	lbu	a5,-38(s0)
	.loc 1 1395 6
	mv	a4,a5
	li	a5,12
	bne	a4,a5,.L189
	.loc 1 1395 56 discriminator 1
	lbu	a5,-39(s0)
	.loc 1 1395 40 discriminator 1
	mv	a4,a5
	li	a5,3
	bne	a4,a5,.L189
	.loc 1 1396 23
	lbu	a5,-40(s0)
	.loc 1 1396 6
	mv	a4,a5
	li	a5,32
	beq	a4,a5,.L191
	.loc 1 1396 63 discriminator 1
	lbu	a5,-40(s0)
	.loc 1 1396 47 discriminator 1
	beq	a5,zero,.L191
	.loc 1 1396 103 discriminator 2
	lbu	a5,-40(s0)
	.loc 1 1396 87 discriminator 2
	mv	a4,a5
	li	a5,16
	beq	a4,a5,.L191
.L189:
	.loc 1 1398 12
	li	a5,-1
	slli	a5,a5,63
	addi	a5,a5,3
	sd	a5,-24(s0)
	j	.L188
.L191:
	.loc 1 1401 1
	nop
.L188:
	.loc 1 1402 6
	la	a5,gBS
	ld	a5,0(a5)
	ld	a5,288(a5)
	.loc 1 1402 3
	ld	a4,-56(s0)
	ld	a4,40(a4)
	ld	a3,-64(s0)
	mv	a2,a4
	la	a1,gEfiPciIoProtocolGuid
	ld	a0,-64(s0)
	jalr	a5
.LVL30:
	.loc 1 1409 10
	ld	a5,-24(s0)
.L190:
	.loc 1 1410 1
	mv	a0,a5
	ld	ra,72(sp)
	.cfi_restore 1
	ld	s0,64(sp)
	.cfi_restore 8
	.cfi_def_cfa 2, 80
	addi	sp,sp,80
	.cfi_def_cfa_offset 0
	jr	ra
	.cfi_endproc
.LFE14:
	.size	EhcDriverBindingSupported, .-EhcDriverBindingSupported
	.section	.text.EhcGetUsbDebugPortInfo,"ax",@progbits
	.align	1
	.globl	EhcGetUsbDebugPortInfo
	.type	EhcGetUsbDebugPortInfo, @function
EhcGetUsbDebugPortInfo:
.LFB15:
	.loc 1 1425 1
	.cfi_startproc
	addi	sp,sp,-64
	.cfi_def_cfa_offset 64
	sd	ra,56(sp)
	sd	s0,48(sp)
	.cfi_offset 1, -8
	.cfi_offset 8, -16
	addi	s0,sp,64
	.cfi_def_cfa 8, 0
	sd	a0,-56(s0)
	.loc 1 1434 9
	ld	a5,-56(s0)
	ld	a5,120(a5)
	sd	a5,-24(s0)
	.loc 1 1439 22
	ld	a5,-24(s0)
	ld	a5,48(a5)
	.loc 1 1439 12
	addi	a4,s0,-34
	li	a3,2
	li	a2,6
	li	a1,0
	ld	a0,-24(s0)
	jalr	a5
.LVL31:
	sd	a0,-32(s0)
	.loc 1 1447 34
	ld	a5,-32(s0)
	.loc 1 1447 6
	bge	a5,zero,.L193
	.loc 1 1448 12
	ld	a5,-32(s0)
	j	.L204
.L193:
	.loc 1 1451 18
	lhu	a5,-34(s0)
	sext.w	a5,a5
	andi	a5,a5,16
	sext.w	a5,a5
	.loc 1 1451 6
	bne	a5,zero,.L195
	.loc 1 1455 12
	li	a5,-1
	slli	a5,a5,63
	addi	a5,a5,3
	j	.L204
.L195:
	.loc 1 1461 22
	ld	a5,-24(s0)
	ld	a5,48(a5)
	.loc 1 1461 12
	addi	a4,s0,-35
	li	a3,1
	li	a2,52
	li	a1,0
	ld	a0,-24(s0)
	jalr	a5
.LVL32:
	sd	a0,-32(s0)
	.loc 1 1469 34
	ld	a5,-32(s0)
	.loc 1 1469 6
	bge	a5,zero,.L197
	.loc 1 1470 12
	ld	a5,-32(s0)
	j	.L204
.L201:
	.loc 1 1477 24
	ld	a5,-24(s0)
	ld	a5,48(a5)
	.loc 1 1477 14
	lbu	a4,-35(s0)
	sext.w	a2,a4
	addi	a4,s0,-36
	li	a3,1
	li	a1,0
	ld	a0,-24(s0)
	jalr	a5
.LVL33:
	sd	a0,-32(s0)
	.loc 1 1485 36
	ld	a5,-32(s0)
	.loc 1 1485 8
	bge	a5,zero,.L198
	.loc 1 1486 14
	ld	a5,-32(s0)
	j	.L204
.L198:
	.loc 1 1489 22
	lbu	a5,-36(s0)
	.loc 1 1489 8
	mv	a4,a5
	li	a5,10
	beq	a4,a5,.L205
	.loc 1 1493 24
	ld	a5,-24(s0)
	ld	a5,48(a5)
	.loc 1 1496 41
	lbu	a4,-35(s0)
	sext.w	a4,a4
	addiw	a4,a4,1
	sext.w	a4,a4
	.loc 1 1493 14
	mv	a2,a4
	addi	a4,s0,-35
	li	a3,1
	li	a1,0
	ld	a0,-24(s0)
	jalr	a5
.LVL34:
	sd	a0,-32(s0)
	.loc 1 1501 36
	ld	a5,-32(s0)
	.loc 1 1501 8
	bge	a5,zero,.L197
	.loc 1 1502 14
	ld	a5,-32(s0)
	j	.L204
.L197:
	.loc 1 1476 24
	lbu	a5,-35(s0)
	bne	a5,zero,.L201
	j	.L200
.L205:
	.loc 1 1490 7
	nop
.L200:
	.loc 1 1509 21
	lbu	a5,-35(s0)
	.loc 1 1509 6
	bne	a5,zero,.L202
	.loc 1 1510 12
	li	a5,-1
	slli	a5,a5,63
	addi	a5,a5,3
	j	.L204
.L202:
	.loc 1 1516 22
	ld	a5,-24(s0)
	ld	a5,48(a5)
	.loc 1 1516 12
	ld	a4,-56(s0)
	ld	a0,120(a4)
	.loc 1 1519 39
	lbu	a4,-35(s0)
	sext.w	a4,a4
	addiw	a4,a4,2
	sext.w	a4,a4
	.loc 1 1516 12
	mv	a2,a4
	addi	a4,s0,-38
	li	a3,2
	li	a1,0
	jalr	a5
.LVL35:
	sd	a0,-32(s0)
	.loc 1 1524 34
	ld	a5,-32(s0)
	.loc 1 1524 6
	bge	a5,zero,.L203
	.loc 1 1525 12
	ld	a5,-32(s0)
	j	.L204
.L203:
	.loc 1 1528 36
	lhu	a4,-38(s0)
	li	a5,8192
	addi	a5,a5,-1
	and	a5,a4,a5
	slli	a4,a5,48
	srli	a4,a4,48
	.loc 1 1528 24
	ld	a5,-56(s0)
	sh	a4,256(a5)
	.loc 1 1529 26
	lhu	a5,-38(s0)
	srliw	a5,a5,13
	slli	a5,a5,48
	srli	a5,a5,48
	andi	a5,a5,0xff
	addiw	a5,a5,-1
	andi	a4,a5,0xff
	.loc 1 1529 24
	ld	a5,-56(s0)
	sb	a4,258(a5)
	.loc 1 1530 35
	ld	a5,-56(s0)
	lw	a5,232(a5)
	.loc 1 1530 66
	srliw	a5,a5,20
	sext.w	a5,a5
	.loc 1 1530 23
	andi	a5,a5,0xff
	andi	a5,a5,15
	andi	a4,a5,0xff
	.loc 1 1530 21
	ld	a5,-56(s0)
	sb	a4,259(a5)
	.loc 1 1532 10
	li	a5,0
.L204:
	.loc 1 1533 1
	mv	a0,a5
	ld	ra,56(sp)
	.cfi_restore 1
	ld	s0,48(sp)
	.cfi_restore 8
	.cfi_def_cfa 2, 64
	addi	sp,sp,64
	.cfi_def_cfa_offset 0
	jr	ra
	.cfi_endproc
.LFE15:
	.size	EhcGetUsbDebugPortInfo, .-EhcGetUsbDebugPortInfo
	.section	.text.EhcCreateUsb2Hc,"ax",@progbits
	.align	1
	.globl	EhcCreateUsb2Hc
	.type	EhcCreateUsb2Hc, @function
EhcCreateUsb2Hc:
.LFB16:
	.loc 1 1552 1
	.cfi_startproc
	addi	sp,sp,-64
	.cfi_def_cfa_offset 64
	sd	ra,56(sp)
	sd	s0,48(sp)
	.cfi_offset 1, -8
	.cfi_offset 8, -16
	addi	s0,sp,64
	.cfi_def_cfa 8, 0
	sd	a0,-40(s0)
	sd	a1,-48(s0)
	sd	a2,-56(s0)
	.loc 1 1556 9
	li	a0,264
	call	AllocateZeroPool@plt
	sd	a0,-24(s0)
	.loc 1 1558 6
	ld	a5,-24(s0)
	bne	a5,zero,.L207
	.loc 1 1559 12
	li	a5,0
	j	.L208
.L207:
	.loc 1 1565 18
	ld	a5,-24(s0)
	li	a4,1768124416
	addi	a4,a4,-1947
	sd	a4,0(a5)
	.loc 1 1567 29
	ld	a5,-24(s0)
	lla	a4,EhcGetCapability
	sd	a4,8(a5)
	.loc 1 1568 21
	ld	a5,-24(s0)
	lla	a4,EhcReset
	sd	a4,16(a5)
	.loc 1 1569 24
	ld	a5,-24(s0)
	lla	a4,EhcGetState
	sd	a4,24(a5)
	.loc 1 1570 24
	ld	a5,-24(s0)
	lla	a4,EhcSetState
	sd	a4,32(a5)
	.loc 1 1571 31
	ld	a5,-24(s0)
	lla	a4,EhcControlTransfer
	sd	a4,40(a5)
	.loc 1 1572 28
	ld	a5,-24(s0)
	lla	a4,EhcBulkTransfer
	sd	a4,48(a5)
	.loc 1 1573 38
	ld	a5,-24(s0)
	lla	a4,EhcAsyncInterruptTransfer
	sd	a4,56(a5)
	.loc 1 1574 37
	ld	a5,-24(s0)
	lla	a4,EhcSyncInterruptTransfer
	sd	a4,64(a5)
	.loc 1 1575 35
	ld	a5,-24(s0)
	lla	a4,EhcIsochronousTransfer
	sd	a4,72(a5)
	.loc 1 1576 40
	ld	a5,-24(s0)
	lla	a4,EhcAsyncIsochronousTransfer
	sd	a4,80(a5)
	.loc 1 1577 36
	ld	a5,-24(s0)
	lla	a4,EhcGetRootHubPortStatus
	sd	a4,88(a5)
	.loc 1 1578 37
	ld	a5,-24(s0)
	lla	a4,EhcSetRootHubPortFeature
	sd	a4,96(a5)
	.loc 1 1579 39
	ld	a5,-24(s0)
	lla	a4,EhcClearRootHubPortFeature
	sd	a4,104(a5)
	.loc 1 1580 29
	ld	a5,-24(s0)
	li	a4,2
	sh	a4,112(a5)
	.loc 1 1581 29
	ld	a5,-24(s0)
	sh	zero,114(a5)
	.loc 1 1583 14
	ld	a5,-24(s0)
	ld	a4,-40(s0)
	sd	a4,120(a5)
	.loc 1 1584 19
	ld	a5,-24(s0)
	ld	a4,-48(s0)
	sd	a4,128(a5)
	.loc 1 1585 30
	ld	a5,-24(s0)
	ld	a4,-56(s0)
	sd	a4,136(a5)
	.loc 1 1587 3
	ld	a5,-24(s0)
	addi	a5,a5,216
	mv	a0,a5
	call	InitializeListHead@plt
	.loc 1 1589 25
	li	a1,4
	ld	a0,-24(s0)
	call	EhcReadCapRegister@plt
	mv	a5,a0
	mv	a4,a5
	.loc 1 1589 23 discriminator 1
	ld	a5,-24(s0)
	sw	a4,232(a5)
	.loc 1 1590 22
	li	a1,8
	ld	a0,-24(s0)
	call	EhcReadCapRegister@plt
	mv	a5,a0
	mv	a4,a5
	.loc 1 1590 20 discriminator 1
	ld	a5,-24(s0)
	sw	a4,236(a5)
	.loc 1 1591 17
	li	a1,0
	ld	a0,-24(s0)
	call	EhcReadCapRegister@plt
	mv	a5,a0
	.loc 1 1591 45 discriminator 1
	andi	a5,a5,255
	sext.w	a4,a5
	.loc 1 1591 15 discriminator 1
	ld	a5,-24(s0)
	sw	a4,240(a5)
	.loc 1 1598 10
	ld	a5,-24(s0)
	lw	a5,240(a5)
	.loc 1 1598 6
	bne	a5,zero,.L209
	.loc 1 1599 8
	la	a5,gBS
	ld	a5,0(a5)
	ld	a5,72(a5)
	.loc 1 1599 5
	ld	a0,-24(s0)
	jalr	a5
.LVL36:
	.loc 1 1600 12
	li	a5,0
	j	.L208
.L209:
	.loc 1 1603 3
	ld	a0,-24(s0)
	call	EhcGetUsbDebugPortInfo
	.loc 1 1608 15
	la	a5,gBS
	ld	a5,0(a5)
	ld	a5,80(a5)
	.loc 1 1608 12
	ld	a4,-24(s0)
	addi	a4,a4,160
	ld	a3,-24(s0)
	la	a2,EhcMonitorAsyncRequests
	li	a1,16
	li	a0,-2147483648
	addi	a0,a0,512
	jalr	a5
.LVL37:
	sd	a0,-32(s0)
	.loc 1 1616 34
	ld	a5,-32(s0)
	.loc 1 1616 6
	bge	a5,zero,.L210
	.loc 1 1617 8
	la	a5,gBS
	ld	a5,0(a5)
	ld	a5,72(a5)
	.loc 1 1617 5
	ld	a0,-24(s0)
	jalr	a5
.LVL38:
	.loc 1 1618 12
	li	a5,0
	j	.L208
.L210:
	.loc 1 1621 10
	ld	a5,-24(s0)
.L208:
	.loc 1 1622 1
	mv	a0,a5
	ld	ra,56(sp)
	.cfi_restore 1
	ld	s0,48(sp)
	.cfi_restore 8
	.cfi_def_cfa 2, 64
	addi	sp,sp,64
	.cfi_def_cfa_offset 0
	jr	ra
	.cfi_endproc
.LFE16:
	.size	EhcCreateUsb2Hc, .-EhcCreateUsb2Hc
	.section	.text.EhcExitBootService,"ax",@progbits
	.align	1
	.globl	EhcExitBootService
	.type	EhcExitBootService, @function
EhcExitBootService:
.LFB17:
	.loc 1 1638 1
	.cfi_startproc
	addi	sp,sp,-48
	.cfi_def_cfa_offset 48
	sd	ra,40(sp)
	sd	s0,32(sp)
	.cfi_offset 1, -8
	.cfi_offset 8, -16
	addi	s0,sp,48
	.cfi_def_cfa 8, 0
	sd	a0,-40(s0)
	sd	a1,-48(s0)
	.loc 1 1641 7
	ld	a5,-48(s0)
	sd	a5,-24(s0)
	.loc 1 1646 3
	li	a5,999424
	addi	a1,a5,576
	ld	a0,-24(s0)
	call	EhcResetHC@plt
	.loc 1 1647 1
	nop
	ld	ra,40(sp)
	.cfi_restore 1
	ld	s0,32(sp)
	.cfi_restore 8
	.cfi_def_cfa 2, 48
	addi	sp,sp,48
	.cfi_def_cfa_offset 0
	jr	ra
	.cfi_endproc
.LFE17:
	.size	EhcExitBootService, .-EhcExitBootService
	.section	.rodata
	.align	3
.LC0:
	.string	"E"
	.string	"n"
	.string	"h"
	.string	"a"
	.string	"n"
	.string	"c"
	.string	"e"
	.string	"d"
	.string	" "
	.string	"H"
	.string	"o"
	.string	"s"
	.string	"t"
	.string	" "
	.string	"C"
	.string	"o"
	.string	"n"
	.string	"t"
	.string	"r"
	.string	"o"
	.string	"l"
	.string	"l"
	.string	"e"
	.string	"r"
	.string	" "
	.string	"("
	.string	"U"
	.string	"S"
	.string	"B"
	.string	" "
	.string	"2"
	.string	"."
	.string	"0"
	.string	")"
	.zero	2
	.align	3
.LC1:
	.string	"eng"
	.align	3
.LC2:
	.string	"en"
	.section	.text.EhcDriverBindingStart,"ax",@progbits
	.align	1
	.globl	EhcDriverBindingStart
	.type	EhcDriverBindingStart, @function
EhcDriverBindingStart:
.LFB18:
	.loc 1 1669 1
	.cfi_startproc
	addi	sp,sp,-224
	.cfi_def_cfa_offset 224
	sd	ra,216(sp)
	sd	s0,208(sp)
	sd	s1,200(sp)
	sd	s2,192(sp)
	.cfi_offset 1, -8
	.cfi_offset 8, -16
	.cfi_offset 9, -24
	.cfi_offset 18, -32
	addi	s0,sp,224
	.cfi_def_cfa 8, 0
	sd	a0,-200(s0)
	sd	a1,-208(s0)
	sd	a2,-216(s0)
	.loc 1 1694 15
	la	a5,gBS
	ld	a5,0(a5)
	ld	a6,280(a5)
	.loc 1 1694 12
	ld	a0,-208(s0)
	ld	a5,-200(s0)
	ld	a3,40(a5)
	ld	a4,-208(s0)
	addi	a2,s0,-72
	li	a5,16
	la	a1,gEfiPciIoProtocolGuid
	jalr	a6
.LVL39:
	sd	a0,-56(s0)
	.loc 1 1703 34
	ld	a5,-56(s0)
	.loc 1 1703 6
	bge	a5,zero,.L213
	.loc 1 1704 12
	ld	a5,-56(s0)
	j	.L240
.L213:
	.loc 1 1710 16
	sd	zero,-192(s0)
	.loc 1 1711 15
	la	a5,gBS
	ld	a5,0(a5)
	ld	a6,280(a5)
	.loc 1 1711 12
	ld	a0,-208(s0)
	ld	a5,-200(s0)
	ld	a3,40(a5)
	ld	a4,-208(s0)
	addi	a2,s0,-192
	li	a5,2
	la	a1,gEfiDevicePathProtocolGuid
	jalr	a6
.LVL40:
	sd	a0,-56(s0)
	.loc 1 1720 22
	sb	zero,-41(s0)
	.loc 1 1724 17
	ld	a5,-72(s0)
	ld	a5,120(a5)
	.loc 1 1724 12
	ld	a4,-72(s0)
	addi	a3,s0,-96
	li	a2,0
	li	a1,0
	mv	a0,a4
	jalr	a5
.LVL41:
	sd	a0,-56(s0)
	.loc 1 1731 34
	ld	a5,-56(s0)
	.loc 1 1731 6
	blt	a5,zero,.L241
	.loc 1 1735 22
	li	a5,1
	sb	a5,-41(s0)
	.loc 1 1737 17
	ld	a5,-72(s0)
	ld	a5,120(a5)
	.loc 1 1737 12
	ld	a4,-72(s0)
	addi	a3,s0,-88
	li	a2,0
	li	a1,4
	mv	a0,a4
	jalr	a5
.LVL42:
	sd	a0,-56(s0)
	.loc 1 1743 7
	ld	a5,-56(s0)
	.loc 1 1743 6
	blt	a5,zero,.L217
	.loc 1 1744 14
	ld	a5,-88(s0)
	andi	a5,a5,1792
	sd	a5,-88(s0)
	.loc 1 1745 19
	ld	a5,-72(s0)
	ld	a5,120(a5)
	.loc 1 1745 14
	ld	a4,-72(s0)
	ld	a2,-88(s0)
	li	a3,0
	li	a1,2
	mv	a0,a4
	jalr	a5
.LVL43:
	sd	a0,-56(s0)
.L217:
	.loc 1 1753 34
	ld	a5,-56(s0)
	.loc 1 1753 6
	blt	a5,zero,.L242
	.loc 1 1761 17
	ld	a5,-72(s0)
	.loc 1 1761 22
	ld	a5,48(a5)
	.loc 1 1761 12
	ld	a0,-72(s0)
	addi	a4,s0,-104
	li	a3,3
	li	a2,9
	li	a1,0
	jalr	a5
.LVL44:
	sd	a0,-56(s0)
	.loc 1 1769 34
	ld	a5,-56(s0)
	.loc 1 1769 6
	bge	a5,zero,.L219
	.loc 1 1770 12
	li	a5,-1
	slli	a5,a5,63
	addi	a5,a5,3
	sd	a5,-56(s0)
	.loc 1 1771 5
	j	.L216
.L219:
	.loc 1 1779 21
	lbu	a5,-104(s0)
	.loc 1 1779 6
	beq	a5,zero,.L220
	.loc 1 1779 61 discriminator 2
	lbu	a5,-104(s0)
	.loc 1 1779 45 discriminator 2
	mv	a4,a5
	li	a5,16
	bne	a4,a5,.L221
.L220:
	.loc 1 1780 20
	lbu	a5,-102(s0)
	.loc 1 1779 86 discriminator 3
	mv	a4,a5
	li	a5,12
	bne	a4,a5,.L221
	.loc 1 1781 20
	lbu	a5,-103(s0)
	.loc 1 1780 39
	mv	a4,a5
	li	a5,3
	bne	a4,a5,.L221
	.loc 1 1783 19
	ld	a5,-72(s0)
	ld	a5,112(a5)
	.loc 1 1783 14
	ld	a0,-72(s0)
	addi	a4,s0,-152
	addi	a3,s0,-144
	addi	a2,s0,-136
	addi	a1,s0,-128
	jalr	a5
.LVL45:
	sd	a0,-56(s0)
	.loc 1 1790 36
	ld	a5,-56(s0)
	.loc 1 1790 8
	blt	a5,zero,.L243
	.loc 1 1794 17
	la	a5,gBS
	ld	a5,0(a5)
	ld	a5,312(a5)
	.loc 1 1794 14
	addi	a4,s0,-112
	addi	a3,s0,-120
	li	a2,0
	la	a1,gEfiPciIoProtocolGuid
	li	a0,2
	jalr	a5
.LVL46:
	sd	a0,-56(s0)
	.loc 1 1801 36
	ld	a5,-56(s0)
	.loc 1 1801 8
	blt	a5,zero,.L244
	.loc 1 1805 16
	sd	zero,-40(s0)
	.loc 1 1805 5
	j	.L224
.L228:
	.loc 1 1809 19
	la	a5,gBS
	ld	a5,0(a5)
	ld	a5,152(a5)
	.loc 1 1810 35
	ld	a3,-112(s0)
	ld	a4,-40(s0)
	slli	a4,a4,3
	add	a4,a3,a4
	.loc 1 1809 16
	ld	a4,0(a4)
	addi	a3,s0,-80
	mv	a2,a3
	la	a1,gEfiPciIoProtocolGuid
	mv	a0,a4
	jalr	a5
.LVL47:
	sd	a0,-56(s0)
	.loc 1 1816 24
	ld	a5,-80(s0)
	.loc 1 1816 29
	ld	a5,48(a5)
	.loc 1 1816 16
	ld	a0,-80(s0)
	addi	a4,s0,-104
	li	a3,3
	li	a2,9
	li	a1,0
	jalr	a5
.LVL48:
	sd	a0,-56(s0)
	.loc 1 1824 38
	ld	a5,-56(s0)
	.loc 1 1824 10
	bge	a5,zero,.L225
	.loc 1 1825 16
	li	a5,-1
	slli	a5,a5,63
	addi	a5,a5,3
	sd	a5,-56(s0)
	.loc 1 1826 9
	j	.L216
.L225:
	.loc 1 1829 24
	lbu	a5,-104(s0)
	.loc 1 1829 10
	mv	a4,a5
	li	a5,32
	bne	a4,a5,.L226
	.loc 1 1830 24
	lbu	a5,-102(s0)
	.loc 1 1829 48 discriminator 1
	mv	a4,a5
	li	a5,12
	bne	a4,a5,.L226
	.loc 1 1831 24
	lbu	a5,-103(s0)
	.loc 1 1830 43
	mv	a4,a5
	li	a5,3
	bne	a4,a5,.L226
	.loc 1 1833 26
	ld	a5,-80(s0)
	ld	a5,112(a5)
	.loc 1 1833 18
	ld	a0,-80(s0)
	addi	a4,s0,-184
	addi	a3,s0,-176
	addi	a2,s0,-168
	addi	a1,s0,-160
	jalr	a5
.LVL49:
	sd	a0,-56(s0)
	.loc 1 1840 40
	ld	a5,-56(s0)
	.loc 1 1840 12
	blt	a5,zero,.L245
	.loc 1 1848 27
	ld	a4,-168(s0)
	ld	a5,-136(s0)
	.loc 1 1848 12
	bne	a4,a5,.L226
	.loc 1 1849 14
	la	a5,gBS
	ld	a5,0(a5)
	ld	a5,288(a5)
	.loc 1 1849 11
	ld	a0,-208(s0)
	ld	a4,-200(s0)
	ld	a4,40(a4)
	ld	a3,-208(s0)
	mv	a2,a4
	la	a1,gEfiPciIoProtocolGuid
	jalr	a5
.LVL50:
	.loc 1 1855 52
	ld	a4,-112(s0)
	ld	a5,-40(s0)
	slli	a5,a5,3
	add	a5,a4,a5
	.loc 1 1855 11
	ld	a5,0(a5)
	li	a2,0
	mv	a1,a5
	ld	a0,-200(s0)
	call	EhcDriverBindingStart
.L226:
	.loc 1 1805 51 discriminator 2
	ld	a5,-40(s0)
	addi	a5,a5,1
	sd	a5,-40(s0)
.L224:
	.loc 1 1805 27 discriminator 1
	ld	a5,-120(s0)
	ld	a4,-40(s0)
	bltu	a4,a5,.L228
	.loc 1 1860 12
	li	a5,-1
	slli	a5,a5,63
	addi	a5,a5,14
	sd	a5,-56(s0)
	.loc 1 1861 5
	j	.L216
.L221:
	.loc 1 1867 9
	ld	a5,-72(s0)
	ld	a4,-192(s0)
	ld	a3,-96(s0)
	mv	a2,a3
	mv	a1,a4
	mv	a0,a5
	call	EhcCreateUsb2Hc
	sd	a0,-64(s0)
	.loc 1 1869 6
	ld	a5,-64(s0)
	bne	a5,zero,.L229
	.loc 1 1872 12
	li	a5,-1
	slli	a5,a5,63
	addi	a5,a5,9
	sd	a5,-56(s0)
	.loc 1 1873 5
	j	.L216
.L229:
	.loc 1 1880 23
	ld	a5,-64(s0)
	lw	a5,236(a5)
	.loc 1 1880 38
	andi	a5,a5,1
	sext.w	a5,a5
	.loc 1 1880 6
	beq	a5,zero,.L230
	.loc 1 1881 19
	ld	a5,-72(s0)
	ld	a5,120(a5)
	.loc 1 1881 14
	ld	a4,-72(s0)
	li	a3,0
	li	a2,32768
	li	a1,2
	mv	a0,a4
	jalr	a5
.LVL51:
	sd	a0,-56(s0)
	.loc 1 1887 9
	ld	a5,-56(s0)
	.loc 1 1887 8
	blt	a5,zero,.L230
	.loc 1 1888 28
	ld	a5,-64(s0)
	li	a4,1
	sb	a4,260(a5)
.L230:
	.loc 1 1900 15
	la	a5,gBS
	ld	a5,0(a5)
	ld	a5,128(a5)
	.loc 1 1904 19
	ld	a4,-64(s0)
	addi	a3,a4,8
	.loc 1 1900 12
	addi	a4,s0,-208
	li	a2,0
	la	a1,gEfiUsb2HcProtocolGuid
	mv	a0,a4
	jalr	a5
.LVL52:
	sd	a0,-56(s0)
	.loc 1 1907 34
	ld	a5,-56(s0)
	.loc 1 1907 6
	blt	a5,zero,.L246
	.loc 1 1916 7
	la	a5,_gPcd_FixedAtBuild_PcdTurnOffUsbLegacySupport
	lbu	a5,0(a5)
	.loc 1 1916 6
	beq	a5,zero,.L233
	.loc 1 1917 5
	ld	a0,-64(s0)
	call	EhcClearLegacySupport@plt
.L233:
	.loc 1 1920 14
	ld	a5,-64(s0)
	li	a4,1
	sb	a4,261(a5)
	.loc 1 1923 8
	li	a1,0
	ld	a0,-64(s0)
	call	EhcIsDebugPortInUse@plt
	mv	a5,a0
	.loc 1 1923 6 discriminator 1
	bne	a5,zero,.L234
	.loc 1 1924 5
	li	a5,999424
	addi	a1,a5,576
	ld	a0,-64(s0)
	call	EhcResetHC@plt
.L234:
	.loc 1 1927 12
	ld	a0,-64(s0)
	call	EhcInitHC@plt
	sd	a0,-56(s0)
	.loc 1 1929 34
	ld	a5,-56(s0)
	.loc 1 1929 6
	blt	a5,zero,.L247
	.loc 1 1937 15
	la	a5,gBS
	ld	a5,0(a5)
	ld	s1,88(a5)
	.loc 1 1937 12
	ld	a5,-64(s0)
	ld	s2,160(a5)
	li	a5,8192
	addi	a1,a5,1808
	li	a0,1
	call	MultU64x32@plt
	mv	a5,a0
	.loc 1 1937 12 is_stmt 0 discriminator 1
	mv	a2,a5
	li	a1,1
	mv	a0,s2
	jalr	s1
.LVL53:
	sd	a0,-56(s0)
	.loc 1 1939 34 is_stmt 1
	ld	a5,-56(s0)
	.loc 1 1939 6
	bge	a5,zero,.L237
	.loc 1 1942 5
	li	a5,8192
	addi	a1,a5,1808
	ld	a0,-64(s0)
	call	EhcHaltHC@plt
	.loc 1 1943 5
	j	.L236
.L237:
	.loc 1 1949 15
	la	a5,gBS
	ld	a5,0(a5)
	ld	a6,368(a5)
	.loc 1 1949 12
	ld	a5,-64(s0)
	addi	a5,a5,168
	la	a4,gEfiEventExitBootServicesGuid
	ld	a3,-64(s0)
	lla	a2,EhcExitBootService
	li	a1,16
	li	a0,512
	jalr	a6
.LVL54:
	sd	a0,-56(s0)
	.loc 1 1957 34
	ld	a5,-56(s0)
	.loc 1 1957 6
	blt	a5,zero,.L248
	.loc 1 1967 23
	la	a5,gEhciComponentName
	ld	a1,16(a5)
	.loc 1 1965 3
	ld	a5,-64(s0)
	addi	a5,a5,248
	li	a4,1
	lla	a3,.LC0
	mv	a2,a5
	lla	a0,.LC1
	call	AddUnicodeString2@plt
	.loc 1 1974 24
	la	a5,gEhciComponentName2
	ld	a1,16(a5)
	.loc 1 1972 3
	ld	a5,-64(s0)
	addi	a5,a5,248
	li	a4,0
	lla	a3,.LC0
	mv	a2,a5
	lla	a0,.LC2
	call	AddUnicodeString2@plt
	.loc 1 1981 10
	li	a5,0
	j	.L240
.L247:
	.loc 1 1931 5
	nop
	j	.L236
.L248:
	.loc 1 1958 5
	nop
.L236:
	.loc 1 1984 6
	la	a5,gBS
	ld	a5,0(a5)
	ld	a5,144(a5)
	.loc 1 1984 3
	ld	a3,-208(s0)
	.loc 1 1987 10
	ld	a4,-64(s0)
	addi	a4,a4,8
	.loc 1 1984 3
	mv	a2,a4
	la	a1,gEfiUsb2HcProtocolGuid
	mv	a0,a3
	jalr	a5
.LVL55:
	j	.L232
.L246:
	.loc 1 1909 5
	nop
.L232:
	.loc 1 1991 3
	ld	a0,-64(s0)
	call	EhcFreeSched@plt
	.loc 1 1992 6
	la	a5,gBS
	ld	a5,0(a5)
	ld	a5,112(a5)
	.loc 1 1992 3
	ld	a4,-64(s0)
	ld	a4,160(a4)
	mv	a0,a4
	jalr	a5
.LVL56:
	.loc 1 1993 6
	la	a5,gBS
	ld	a5,0(a5)
	ld	a5,72(a5)
	.loc 1 1993 3
	ld	a0,-64(s0)
	jalr	a5
.LVL57:
	j	.L216
.L241:
	.loc 1 1732 5
	nop
	j	.L216
.L242:
	.loc 1 1755 5
	nop
	j	.L216
.L243:
	.loc 1 1791 7
	nop
	j	.L216
.L244:
	.loc 1 1802 7
	nop
	j	.L216
.L245:
	.loc 1 1841 11
	nop
.L216:
	.loc 1 1996 6
	lbu	a5,-41(s0)
	andi	a5,a5,0xff
	beq	a5,zero,.L239
	.loc 1 2000 10
	ld	a5,-72(s0)
	ld	a5,120(a5)
	.loc 1 2000 5
	ld	a4,-72(s0)
	ld	a2,-96(s0)
	li	a3,0
	li	a1,1
	mv	a0,a4
	jalr	a5
.LVL58:
.L239:
	.loc 1 2008 6
	la	a5,gBS
	ld	a5,0(a5)
	ld	a5,288(a5)
	.loc 1 2008 3
	ld	a0,-208(s0)
	ld	a4,-200(s0)
	ld	a4,40(a4)
	ld	a3,-208(s0)
	mv	a2,a4
	la	a1,gEfiPciIoProtocolGuid
	jalr	a5
.LVL59:
	.loc 1 2015 10
	ld	a5,-56(s0)
.L240:
	.loc 1 2016 1
	mv	a0,a5
	ld	ra,216(sp)
	.cfi_restore 1
	ld	s0,208(sp)
	.cfi_restore 8
	.cfi_def_cfa 2, 224
	ld	s1,200(sp)
	.cfi_restore 9
	ld	s2,192(sp)
	.cfi_restore 18
	addi	sp,sp,224
	.cfi_def_cfa_offset 0
	jr	ra
	.cfi_endproc
.LFE18:
	.size	EhcDriverBindingStart, .-EhcDriverBindingStart
	.section	.text.EhcDriverBindingStop,"ax",@progbits
	.align	1
	.globl	EhcDriverBindingStop
	.type	EhcDriverBindingStop, @function
EhcDriverBindingStop:
.LFB19:
	.loc 1 2039 1
	.cfi_startproc
	addi	sp,sp,-96
	.cfi_def_cfa_offset 96
	sd	ra,88(sp)
	sd	s0,80(sp)
	sd	s1,72(sp)
	sd	s2,64(sp)
	.cfi_offset 1, -8
	.cfi_offset 8, -16
	.cfi_offset 9, -24
	.cfi_offset 18, -32
	addi	s0,sp,96
	.cfi_def_cfa 8, 0
	sd	a0,-72(s0)
	sd	a1,-80(s0)
	sd	a2,-88(s0)
	sd	a3,-96(s0)
	.loc 1 2050 15
	la	a5,gBS
	ld	a5,0(a5)
	ld	a6,280(a5)
	.loc 1 2050 12
	ld	a5,-72(s0)
	ld	a3,40(a5)
	addi	a2,s0,-64
	li	a5,2
	ld	a4,-80(s0)
	la	a1,gEfiUsb2HcProtocolGuid
	ld	a0,-80(s0)
	jalr	a6
.LVL60:
	sd	a0,-48(s0)
	.loc 1 2059 34
	ld	a5,-48(s0)
	.loc 1 2059 6
	bge	a5,zero,.L250
	.loc 1 2060 12
	ld	a5,-48(s0)
	j	.L258
.L250:
	.loc 1 2063 27
	ld	a5,-64(s0)
	.loc 1 2063 11
	addi	a5,a5,-8
	.loc 1 2063 109
	ld	a4,0(a5)
	.loc 1 2063 194
	li	a5,1768124416
	addi	a5,a5,-1947
	bne	a4,a5,.L252
	.loc 1 2063 213 discriminator 1
	ld	a5,-64(s0)
	.loc 1 2063 7 discriminator 1
	addi	a5,a5,-8
	sd	a5,-40(s0)
	j	.L253
.L252:
	.loc 1 2063 7 is_stmt 0 discriminator 2
	sd	zero,-40(s0)
.L253:
	.loc 1 2064 9 is_stmt 1
	ld	a5,-40(s0)
	ld	a5,120(a5)
	sd	a5,-56(s0)
	.loc 1 2066 15
	la	a5,gBS
	ld	a5,0(a5)
	ld	a5,144(a5)
	.loc 1 2066 12
	ld	a4,-64(s0)
	mv	a2,a4
	la	a1,gEfiUsb2HcProtocolGuid
	ld	a0,-80(s0)
	jalr	a5
.LVL61:
	sd	a0,-48(s0)
	.loc 1 2072 34
	ld	a5,-48(s0)
	.loc 1 2072 6
	bge	a5,zero,.L254
	.loc 1 2073 12
	ld	a5,-48(s0)
	j	.L258
.L254:
	.loc 1 2080 6
	la	a5,gBS
	ld	a5,0(a5)
	ld	s1,88(a5)
	.loc 1 2080 3
	ld	a5,-40(s0)
	ld	s2,160(a5)
	li	a5,8192
	addi	a1,a5,1808
	li	a0,1
	call	MultU64x32@plt
	mv	a5,a0
	.loc 1 2080 3 is_stmt 0 discriminator 1
	mv	a2,a5
	li	a1,0
	mv	a0,s2
	jalr	s1
.LVL62:
	.loc 1 2081 3 is_stmt 1
	li	a5,8192
	addi	a1,a5,1808
	ld	a0,-40(s0)
	call	EhcHaltHC@plt
	.loc 1 2083 10
	ld	a5,-40(s0)
	ld	a5,160(a5)
	.loc 1 2083 6
	beq	a5,zero,.L255
	.loc 1 2084 8
	la	a5,gBS
	ld	a5,0(a5)
	ld	a5,112(a5)
	.loc 1 2084 5
	ld	a4,-40(s0)
	ld	a4,160(a4)
	mv	a0,a4
	jalr	a5
.LVL63:
.L255:
	.loc 1 2087 10
	ld	a5,-40(s0)
	ld	a5,168(a5)
	.loc 1 2087 6
	beq	a5,zero,.L256
	.loc 1 2088 8
	la	a5,gBS
	ld	a5,0(a5)
	ld	a5,112(a5)
	.loc 1 2088 5
	ld	a4,-40(s0)
	ld	a4,168(a4)
	mv	a0,a4
	jalr	a5
.LVL64:
.L256:
	.loc 1 2091 3
	ld	a0,-40(s0)
	call	EhcFreeSched@plt
	.loc 1 2093 10
	ld	a5,-40(s0)
	ld	a5,248(a5)
	.loc 1 2093 6
	beq	a5,zero,.L257
	.loc 1 2094 5
	ld	a5,-40(s0)
	ld	a5,248(a5)
	mv	a0,a5
	call	FreeUnicodeStringTable@plt
.L257:
	.loc 1 2101 3
	li	a2,1
	li	a1,64
	ld	a0,-40(s0)
	call	EhcClearOpRegBit@plt
	.loc 1 2106 8
	ld	a5,-56(s0)
	ld	a5,120(a5)
	.loc 1 2106 3
	ld	a4,-40(s0)
	ld	a4,136(a4)
	li	a3,0
	mv	a2,a4
	li	a1,1
	ld	a0,-56(s0)
	jalr	a5
.LVL65:
	.loc 1 2113 6
	la	a5,gBS
	ld	a5,0(a5)
	ld	a5,288(a5)
	.loc 1 2113 3
	ld	a4,-72(s0)
	ld	a4,40(a4)
	ld	a3,-80(s0)
	mv	a2,a4
	la	a1,gEfiPciIoProtocolGuid
	ld	a0,-80(s0)
	jalr	a5
.LVL66:
	.loc 1 2120 3
	ld	a0,-40(s0)
	call	FreePool@plt
	.loc 1 2122 10
	li	a5,0
.L258:
	.loc 1 2123 1
	mv	a0,a5
	ld	ra,88(sp)
	.cfi_restore 1
	ld	s0,80(sp)
	.cfi_restore 8
	.cfi_def_cfa 2, 96
	ld	s1,72(sp)
	.cfi_restore 9
	ld	s2,64(sp)
	.cfi_restore 18
	addi	sp,sp,96
	.cfi_def_cfa_offset 0
	jr	ra
	.cfi_endproc
.LFE19:
	.size	EhcDriverBindingStop, .-EhcDriverBindingStop
	.text
.Letext0:
	.file 2 "/home/kapoagaeming/Downloads/spacemit-image-builder/components/edk2/MdePkg/Include/RiscV64/ProcessorBind.h"
	.file 3 "/home/kapoagaeming/Downloads/spacemit-image-builder/components/edk2/MdePkg/Include/Base.h"
	.file 4 "/home/kapoagaeming/Downloads/spacemit-image-builder/components/edk2/MdePkg/Include/Uefi/UefiBaseType.h"
	.file 5 "/home/kapoagaeming/Downloads/spacemit-image-builder/components/edk2/MdePkg/Include/Uefi/UefiMultiPhase.h"
	.file 6 "/home/kapoagaeming/Downloads/spacemit-image-builder/components/edk2/MdePkg/Include/Protocol/DevicePath.h"
	.file 7 "/home/kapoagaeming/Downloads/spacemit-image-builder/components/edk2/MdePkg/Include/Protocol/SimpleTextIn.h"
	.file 8 "/home/kapoagaeming/Downloads/spacemit-image-builder/components/edk2/MdePkg/Include/Protocol/SimpleTextOut.h"
	.file 9 "/home/kapoagaeming/Downloads/spacemit-image-builder/components/edk2/MdePkg/Include/Uefi/UefiSpec.h"
	.file 10 "/home/kapoagaeming/Downloads/spacemit-image-builder/components/Build/Milk-V-Jupiter/RELEASE_GCC5/RISCV64/Silicon/Spacemit/Override/MdeModulePkg/Bus/Pci/EhciDxe/EhciDxe/DEBUG/AutoGen.h"
	.file 11 "/home/kapoagaeming/Downloads/spacemit-image-builder/components/edk2/MdePkg/Include/IndustryStandard/Usb.h"
	.file 12 "/home/kapoagaeming/Downloads/spacemit-image-builder/components/edk2/MdePkg/Include/Protocol/UsbIo.h"
	.file 13 "/home/kapoagaeming/Downloads/spacemit-image-builder/components/edk2/MdePkg/Include/Protocol/Usb2HostController.h"
	.file 14 "/home/kapoagaeming/Downloads/spacemit-image-builder/components/edk2/MdePkg/Include/Protocol/PciIo.h"
	.file 15 "/home/kapoagaeming/Downloads/spacemit-image-builder/components/edk2/MdePkg/Include/Protocol/DriverBinding.h"
	.file 16 "/home/kapoagaeming/Downloads/spacemit-image-builder/components/edk2/MdePkg/Include/Protocol/ComponentName.h"
	.file 17 "/home/kapoagaeming/Downloads/spacemit-image-builder/components/edk2/MdePkg/Include/Protocol/ComponentName2.h"
	.file 18 "/home/kapoagaeming/Downloads/spacemit-image-builder/components/edk2/MdePkg/Include/Library/UefiLib.h"
	.file 19 "/home/kapoagaeming/Downloads/spacemit-image-builder/components/edk2/MdePkg/Include/Pi/PiStatusCode.h"
	.file 20 "/home/kapoagaeming/Downloads/spacemit-image-builder/components/edk2-platforms/Silicon/Spacemit/Override/MdeModulePkg/Bus/Pci/EhciDxe/Ehci.h"
	.file 21 "/home/kapoagaeming/Downloads/spacemit-image-builder/components/edk2-platforms/Silicon/Spacemit/Override/MdeModulePkg/Bus/Pci/EhciDxe/UsbHcMem.h"
	.file 22 "/home/kapoagaeming/Downloads/spacemit-image-builder/components/edk2-platforms/Silicon/Spacemit/Override/MdeModulePkg/Bus/Pci/EhciDxe/EhciReg.h"
	.file 23 "/home/kapoagaeming/Downloads/spacemit-image-builder/components/edk2-platforms/Silicon/Spacemit/Override/MdeModulePkg/Bus/Pci/EhciDxe/EhciUrb.h"
	.file 24 "/home/kapoagaeming/Downloads/spacemit-image-builder/components/edk2/MdePkg/Include/Library/MemoryAllocationLib.h"
	.file 25 "/home/kapoagaeming/Downloads/spacemit-image-builder/components/edk2/MdePkg/Include/Library/BaseLib.h"
	.file 26 "/home/kapoagaeming/Downloads/spacemit-image-builder/components/edk2-platforms/Silicon/Spacemit/Override/MdeModulePkg/Bus/Pci/EhciDxe/EhciSched.h"
	.file 27 "/home/kapoagaeming/Downloads/spacemit-image-builder/components/edk2/MdePkg/Include/Library/ReportStatusCodeLib.h"
	.file 28 "/home/kapoagaeming/Downloads/spacemit-image-builder/components/edk2/MdePkg/Include/Library/UefiBootServicesTableLib.h"
	.section	.note.GNU-stack,"",@progbits
