	.file	"EhciDebug.c"
	.option pic
	.option norelax
	.attribute arch, "rv64i2p1_m2p0_a2p1_f2p2_d2p2_c2p0_zicsr2p0_zifencei2p0_zmmul1p0_zaamo1p0_zalrsc1p0_zca1p0_zcd1p0"
	.attribute unaligned_access, 0
	.attribute stack_align, 16
	.text
.Ltext0:
	.cfi_sections	.debug_frame
	.file 0 "/home/kapoagaeming/spacemit-image-builder/components/Build/Milk-V-Jupiter/RELEASE_GCC5/RISCV64/Silicon/Spacemit/Override/MdeModulePkg/Bus/Pci/EhciDxe/EhciDxe" "/home/kapoagaeming/spacemit-image-builder/components/edk2-platforms/Silicon/Spacemit/Override/MdeModulePkg/Bus/Pci/EhciDxe/EhciDebug.c"
	.section	.text.EhcDumpStatus,"ax",@progbits
	.align	1
	.globl	EhcDumpStatus
	.type	EhcDumpStatus, @function
EhcDumpStatus:
.LFB0:
	.file 1 "/home/kapoagaeming/spacemit-image-builder/components/edk2-platforms/Silicon/Spacemit/Override/MdeModulePkg/Bus/Pci/EhciDxe/EhciDebug.c"
	.loc 1 23 1
	.cfi_startproc
	addi	sp,sp,-32
	.cfi_def_cfa_offset 32
	sd	ra,24(sp)
	sd	s0,16(sp)
	.cfi_offset 1, -8
	.cfi_offset 8, -16
	addi	s0,sp,32
	.cfi_def_cfa 8, 0
	mv	a5,a0
	sw	a5,-20(s0)
	.loc 1 57 1
	nop
	ld	ra,24(sp)
	.cfi_restore 1
	ld	s0,16(sp)
	.cfi_restore 8
	.cfi_def_cfa 2, 32
	addi	sp,sp,32
	.cfi_def_cfa_offset 0
	jr	ra
	.cfi_endproc
.LFE0:
	.size	EhcDumpStatus, .-EhcDumpStatus
	.section	.text.EhcDumpQtd,"ax",@progbits
	.align	1
	.globl	EhcDumpQtd
	.type	EhcDumpQtd, @function
EhcDumpQtd:
.LFB1:
	.loc 1 71 1
	.cfi_startproc
	addi	sp,sp,-48
	.cfi_def_cfa_offset 48
	sd	ra,40(sp)
	sd	s0,32(sp)
	.cfi_offset 1, -8
	.cfi_offset 8, -16
	addi	s0,sp,48
	.cfi_def_cfa 8, 0
	sd	a0,-40(s0)
	sd	a1,-48(s0)
	.loc 1 81 9
	ld	a5,-40(s0)
	sd	a5,-32(s0)
	.loc 1 86 23
	ld	a5,-32(s0)
	lbu	a5,8(a5)
	.loc 1 86 3
	sext.w	a5,a5
	mv	a0,a5
	call	EhcDumpStatus
	.loc 1 88 18
	ld	a5,-32(s0)
	lbu	a5,9(a5)
	andi	a5,a5,3
	andi	a5,a5,0xff
	.loc 1 88 6
	mv	a4,a5
	li	a5,2
	.loc 1 102 14
	sd	zero,-24(s0)
	.loc 1 102 3
	j	.L4
.L5:
	.loc 1 102 35 discriminator 2
	ld	a5,-24(s0)
	addi	a5,a5,1
	sd	a5,-24(s0)
.L4:
	.loc 1 102 25 discriminator 1
	ld	a4,-24(s0)
	li	a5,4
	bleu	a4,a5,.L5
	.loc 1 105 1
	nop
	nop
	ld	ra,40(sp)
	.cfi_restore 1
	ld	s0,32(sp)
	.cfi_restore 8
	.cfi_def_cfa 2, 48
	addi	sp,sp,48
	.cfi_def_cfa_offset 0
	jr	ra
	.cfi_endproc
.LFE1:
	.size	EhcDumpQtd, .-EhcDumpQtd
	.section	.text.EhcDumpQh,"ax",@progbits
	.align	1
	.globl	EhcDumpQh
	.type	EhcDumpQh, @function
EhcDumpQh:
.LFB2:
	.loc 1 121 1
	.cfi_startproc
	addi	sp,sp,-80
	.cfi_def_cfa_offset 80
	sd	ra,72(sp)
	sd	s0,64(sp)
	.cfi_offset 1, -8
	.cfi_offset 8, -16
	addi	s0,sp,80
	.cfi_def_cfa 8, 0
	sd	a0,-56(s0)
	sd	a1,-64(s0)
	mv	a5,a2
	sb	a5,-65(s0)
	.loc 1 139 8
	ld	a5,-56(s0)
	sd	a5,-48(s0)
	.loc 1 164 22
	ld	a5,-48(s0)
	lbu	a5,24(a5)
	.loc 1 164 3
	sext.w	a5,a5
	mv	a0,a5
	call	EhcDumpStatus
	.loc 1 166 17
	ld	a5,-48(s0)
	lbu	a5,25(a5)
	andi	a5,a5,3
	andi	a5,a5,0xff
	.loc 1 166 6
	mv	a4,a5
	li	a5,2
	.loc 1 180 14
	sd	zero,-24(s0)
	.loc 1 180 3
	j	.L8
.L9:
	.loc 1 180 35 discriminator 2
	ld	a5,-24(s0)
	addi	a5,a5,1
	sd	a5,-24(s0)
.L8:
	.loc 1 180 25 discriminator 1
	ld	a4,-24(s0)
	li	a5,4
	bleu	a4,a5,.L9
	.loc 1 186 13
	ld	a5,-56(s0)
	ld	a5,80(a5)
	sd	a5,-32(s0)
	.loc 1 186 3
	j	.L10
.L12:
	.loc 1 187 9
	ld	a5,-32(s0)
	addi	a5,a5,-56
	sd	a5,-40(s0)
	.loc 1 188 5
	li	a1,0
	ld	a0,-40(s0)
	call	EhcDumpQtd
	.loc 1 190 8
	lbu	a5,-65(s0)
	andi	a5,a5,0xff
	beq	a5,zero,.L11
	.loc 1 190 24 discriminator 1
	ld	a5,-40(s0)
	ld	a5,80(a5)
	.loc 1 190 17 discriminator 1
	beq	a5,zero,.L11
	.loc 1 191 7
	ld	a5,-40(s0)
	ld	a4,72(a5)
	ld	a5,-40(s0)
	ld	a5,80(a5)
	mv	a1,a5
	mv	a0,a4
	call	EhcDumpBuf
.L11:
	.loc 1 186 69 discriminator 2
	ld	a5,-32(s0)
	ld	a5,0(a5)
	sd	a5,-32(s0)
.L10:
	.loc 1 186 51 discriminator 1
	ld	a5,-56(s0)
	addi	a5,a5,80
	.loc 1 186 47 discriminator 1
	ld	a4,-32(s0)
	bne	a4,a5,.L12
	.loc 1 194 1
	nop
	nop
	ld	ra,72(sp)
	.cfi_restore 1
	ld	s0,64(sp)
	.cfi_restore 8
	.cfi_def_cfa 2, 80
	addi	sp,sp,80
	.cfi_def_cfa_offset 0
	jr	ra
	.cfi_endproc
.LFE2:
	.size	EhcDumpQh, .-EhcDumpQh
	.section	.text.EhcDumpBuf,"ax",@progbits
	.align	1
	.globl	EhcDumpBuf
	.type	EhcDumpBuf, @function
EhcDumpBuf:
.LFB3:
	.loc 1 208 1
	.cfi_startproc
	addi	sp,sp,-48
	.cfi_def_cfa_offset 48
	sd	ra,40(sp)
	sd	s0,32(sp)
	.cfi_offset 1, -8
	.cfi_offset 8, -16
	addi	s0,sp,48
	.cfi_def_cfa 8, 0
	sd	a0,-40(s0)
	sd	a1,-48(s0)
	.loc 1 211 14
	sd	zero,-24(s0)
	.loc 1 211 3
	j	.L14
.L16:
	.loc 1 211 37 discriminator 2
	ld	a5,-24(s0)
	addi	a5,a5,1
	sd	a5,-24(s0)
.L14:
	.loc 1 211 25 discriminator 1
	ld	a4,-24(s0)
	ld	a5,-48(s0)
	bltu	a4,a5,.L16
	.loc 1 220 1
	nop
	nop
	ld	ra,40(sp)
	.cfi_restore 1
	ld	s0,32(sp)
	.cfi_restore 8
	.cfi_def_cfa 2, 48
	addi	sp,sp,48
	.cfi_def_cfa_offset 0
	jr	ra
	.cfi_endproc
.LFE3:
	.size	EhcDumpBuf, .-EhcDumpBuf
	.text
.Letext0:
	.file 2 "/home/kapoagaeming/spacemit-image-builder/components/edk2/MdePkg/Include/RiscV64/ProcessorBind.h"
	.file 3 "/home/kapoagaeming/spacemit-image-builder/components/edk2/MdePkg/Include/Base.h"
	.file 4 "/home/kapoagaeming/spacemit-image-builder/components/edk2-platforms/Silicon/Spacemit/Override/MdeModulePkg/Bus/Pci/EhciDxe/EhciUrb.h"
	.section	.note.GNU-stack,"",@progbits
