	.file	"EhciUrb.c"
	.option pic
	.option norelax
	.attribute arch, "rv64i2p1_m2p0_a2p1_f2p2_d2p2_c2p0_zicsr2p0_zifencei2p0_zmmul1p0_zaamo1p0_zalrsc1p0_zca1p0_zcd1p0"
	.attribute unaligned_access, 0
	.attribute stack_align, 16
	.text
.Ltext0:
	.cfi_sections	.debug_frame
	.file 0 "/home/kapoagaeming/spacemit-image-builder/components/Build/Milk-V-Jupiter/RELEASE_GCC5/RISCV64/Silicon/Spacemit/Override/MdeModulePkg/Bus/Pci/EhciDxe/EhciDxe" "/home/kapoagaeming/spacemit-image-builder/components/edk2-platforms/Silicon/Spacemit/Override/MdeModulePkg/Bus/Pci/EhciDxe/EhciUrb.c"
	.section	.text.EhcCreateQtd,"ax",@progbits
	.align	1
	.globl	EhcCreateQtd
	.type	EhcCreateQtd, @function
EhcCreateQtd:
.LFB0:
	.file 1 "/home/kapoagaeming/spacemit-image-builder/components/edk2-platforms/Silicon/Spacemit/Override/MdeModulePkg/Bus/Pci/EhciDxe/EhciUrb.c"
	.loc 1 38 1
	.cfi_startproc
	addi	sp,sp,-112
	.cfi_def_cfa_offset 112
	sd	ra,104(sp)
	sd	s0,96(sp)
	.cfi_offset 1, -8
	.cfi_offset 8, -16
	addi	s0,sp,112
	.cfi_def_cfa 8, 0
	sd	a0,-72(s0)
	sd	a1,-80(s0)
	sd	a2,-88(s0)
	sd	a3,-96(s0)
	mv	a3,a4
	mv	a4,a5
	sd	a6,-112(s0)
	mv	a5,a3
	sb	a5,-97(s0)
	mv	a5,a4
	sb	a5,-98(s0)
	.loc 1 47 9
	ld	a5,-72(s0)
	ld	a5,144(a5)
	li	a1,88
	mv	a0,a5
	call	UsbHcAllocateMem@plt
	sd	a0,-40(s0)
	.loc 1 49 6
	ld	a5,-40(s0)
	bne	a5,zero,.L2
	.loc 1 50 12
	li	a5,0
	j	.L3
.L2:
	.loc 1 53 18
	ld	a5,-40(s0)
	li	a4,1413632000
	addi	a4,a4,853
	sw	a4,52(a5)
	.loc 1 54 13
	ld	a5,-40(s0)
	ld	a4,-80(s0)
	sd	a4,72(a5)
	.loc 1 55 16
	ld	a5,-40(s0)
	sd	zero,80(a5)
	.loc 1 57 3
	ld	a5,-40(s0)
	addi	a5,a5,56
	mv	a0,a5
	call	InitializeListHead@plt
	.loc 1 59 9
	ld	a5,-40(s0)
	sd	a5,-48(s0)
	.loc 1 60 18
	ld	a5,-48(s0)
	lbu	a4,0(a5)
	andi	a4,a4,0
	ori	a4,a4,1
	sb	a4,0(a5)
	lbu	a4,1(a5)
	andi	a4,a4,0
	sb	a4,1(a5)
	lbu	a4,2(a5)
	andi	a4,a4,0
	sb	a4,2(a5)
	lbu	a4,3(a5)
	andi	a4,a4,0
	sb	a4,3(a5)
	.loc 1 61 18
	ld	a5,-48(s0)
	lbu	a4,4(a5)
	andi	a4,a4,0
	ori	a4,a4,1
	sb	a4,4(a5)
	lbu	a4,5(a5)
	andi	a4,a4,0
	sb	a4,5(a5)
	lbu	a4,6(a5)
	andi	a4,a4,0
	sb	a4,6(a5)
	lbu	a4,7(a5)
	andi	a4,a4,0
	sb	a4,7(a5)
	.loc 1 62 17
	ld	a5,-48(s0)
	li	a4,-128
	sb	a4,8(a5)
	.loc 1 63 14
	lbu	a5,-97(s0)
	andi	a5,a5,3
	andi	a4,a5,0xff
	ld	a5,-48(s0)
	andi	a4,a4,3
	lbu	a3,9(a5)
	andi	a3,a3,-4
	or	a4,a3,a4
	sb	a4,9(a5)
	.loc 1 64 17
	ld	a5,-48(s0)
	lbu	a4,9(a5)
	ori	a4,a4,12
	sb	a4,9(a5)
	.loc 1 65 14
	ld	a5,-48(s0)
	lbu	a4,9(a5)
	andi	a4,a4,127
	sb	a4,9(a5)
	.loc 1 66 21
	ld	a5,-48(s0)
	lbu	a4,10(a5)
	andi	a4,a4,0
	sb	a4,10(a5)
	lbu	a4,11(a5)
	andi	a4,a4,-128
	sb	a4,11(a5)
	.loc 1 67 21
	lbu	a5,-98(s0)
	andi	a5,a5,1
	andi	a4,a5,0xff
	ld	a5,-48(s0)
	slliw	a4,a4,7
	mv	a2,a4
	lbu	a4,11(a5)
	andi	a4,a4,127
	mv	a3,a4
	mv	a4,a2
	or	a4,a3,a4
	sb	a4,11(a5)
	.loc 1 72 6
	ld	a5,-80(s0)
	beq	a5,zero,.L4
	.loc 1 73 9
	sd	zero,-32(s0)
	.loc 1 75 16
	sd	zero,-24(s0)
	.loc 1 75 5
	j	.L5
.L8:
	.loc 1 81 29
	ld	a5,-88(s0)
	sext.w	a4,a5
	.loc 1 81 26
	ld	a3,-48(s0)
	ld	a5,-24(s0)
	slli	a5,a5,2
	add	a5,a3,a5
	slli	a3,a4,32
	srli	a3,a3,32
	andi	a3,a3,255
	lbu	a2,12(a5)
	andi	a2,a2,0
	or	a3,a2,a3
	sb	a3,12(a5)
	srliw	a3,a4,8
	slli	a3,a3,32
	srli	a3,a3,32
	andi	a3,a3,255
	lbu	a2,13(a5)
	andi	a2,a2,0
	or	a3,a2,a3
	sb	a3,13(a5)
	srliw	a3,a4,16
	slli	a3,a3,32
	srli	a3,a3,32
	andi	a3,a3,255
	lbu	a2,14(a5)
	andi	a2,a2,0
	or	a3,a2,a3
	sb	a3,14(a5)
	srliw	a4,a4,24
	slli	a4,a4,32
	srli	a4,a4,32
	lbu	a3,15(a5)
	andi	a3,a3,0
	or	a4,a3,a4
	sb	a4,15(a5)
	.loc 1 82 42
	ld	a5,-88(s0)
	li	a1,32
	mv	a0,a5
	call	RShiftU64@plt
	mv	a5,a0
	.loc 1 82 33 discriminator 1
	sext.w	a4,a5
	.loc 1 82 30 discriminator 1
	ld	a3,-48(s0)
	ld	a5,-24(s0)
	addi	a5,a5,8
	slli	a5,a5,2
	add	a5,a3,a5
	slli	a3,a4,32
	srli	a3,a3,32
	andi	a3,a3,255
	lbu	a2,0(a5)
	andi	a2,a2,0
	or	a3,a2,a3
	sb	a3,0(a5)
	srliw	a3,a4,8
	slli	a3,a3,32
	srli	a3,a3,32
	andi	a3,a3,255
	lbu	a2,1(a5)
	andi	a2,a2,0
	or	a3,a2,a3
	sb	a3,1(a5)
	srliw	a3,a4,16
	slli	a3,a3,32
	srli	a3,a3,32
	andi	a3,a3,255
	lbu	a2,2(a5)
	andi	a2,a2,0
	or	a3,a2,a3
	sb	a3,2(a5)
	srliw	a4,a4,24
	slli	a4,a4,32
	srli	a4,a4,32
	lbu	a3,3(a5)
	andi	a3,a3,0
	or	a4,a3,a4
	sb	a4,3(a5)
	.loc 1 84 29
	ld	a5,-88(s0)
	sext.w	a5,a5
	.loc 1 84 72
	mv	a4,a5
	li	a5,4096
	addi	a5,a5,-1
	and	a5,a4,a5
	sext.w	a5,a5
	.loc 1 84 25
	li	a4,4096
	subw	a5,a4,a5
	sext.w	a5,a5
	.loc 1 84 18
	slli	a5,a5,32
	srli	a5,a5,32
	sd	a5,-56(s0)
	.loc 1 86 15
	ld	a4,-32(s0)
	ld	a5,-56(s0)
	add	a5,a4,a5
	.loc 1 86 10
	ld	a4,-96(s0)
	bgtu	a4,a5,.L6
	.loc 1 87 13
	ld	a5,-96(s0)
	sd	a5,-32(s0)
	.loc 1 88 9
	j	.L7
.L6:
	.loc 1 91 11
	ld	a4,-32(s0)
	ld	a5,-56(s0)
	add	a5,a4,a5
	sd	a5,-32(s0)
	.loc 1 92 12
	ld	a4,-80(s0)
	ld	a5,-56(s0)
	add	a5,a4,a5
	sd	a5,-80(s0)
	.loc 1 93 15
	ld	a4,-88(s0)
	ld	a5,-56(s0)
	add	a5,a4,a5
	sd	a5,-88(s0)
	.loc 1 75 38 discriminator 2
	ld	a5,-24(s0)
	addi	a5,a5,1
	sd	a5,-24(s0)
.L5:
	.loc 1 75 27 discriminator 1
	ld	a4,-24(s0)
	li	a5,4
	bleu	a4,a5,.L8
.L7:
	.loc 1 102 8
	ld	a4,-32(s0)
	ld	a5,-96(s0)
	bgeu	a4,a5,.L9
	.loc 1 103 23
	ld	a4,-32(s0)
	ld	a5,-112(s0)
	remu	a5,a4,a5
	.loc 1 103 11
	ld	a4,-32(s0)
	sub	a5,a4,a5
	sd	a5,-32(s0)
.L9:
	.loc 1 106 25
	ld	a5,-32(s0)
	mv	a4,a5
	li	a5,32768
	addi	a5,a5,-1
	and	a5,a4,a5
	slli	a4,a5,48
	srli	a4,a4,48
	.loc 1 106 23
	ld	a5,-48(s0)
	andi	a3,a4,255
	lbu	a2,10(a5)
	andi	a2,a2,0
	or	a3,a2,a3
	sb	a3,10(a5)
	srliw	a4,a4,8
	slli	a4,a4,48
	srli	a4,a4,48
	andi	a4,a4,127
	andi	a4,a4,127
	lbu	a3,11(a5)
	andi	a3,a3,-128
	or	a4,a3,a4
	sb	a4,11(a5)
	.loc 1 107 18
	ld	a5,-40(s0)
	ld	a4,-32(s0)
	sd	a4,80(a5)
.L4:
	.loc 1 110 10
	ld	a5,-40(s0)
.L3:
	.loc 1 111 1
	mv	a0,a5
	ld	ra,104(sp)
	.cfi_restore 1
	ld	s0,96(sp)
	.cfi_restore 8
	.cfi_def_cfa 2, 112
	addi	sp,sp,112
	.cfi_def_cfa_offset 0
	jr	ra
	.cfi_endproc
.LFE0:
	.size	EhcCreateQtd, .-EhcCreateQtd
	.section	.text.EhcInitIntQh,"ax",@progbits
	.align	1
	.globl	EhcInitIntQh
	.type	EhcInitIntQh, @function
EhcInitIntQh:
.LFB1:
	.loc 1 129 1
	.cfi_startproc
	addi	sp,sp,-32
	.cfi_def_cfa_offset 32
	sd	ra,24(sp)
	sd	s0,16(sp)
	.cfi_offset 1, -8
	.cfi_offset 8, -16
	addi	s0,sp,32
	.cfi_def_cfa 8, 0
	sd	a0,-24(s0)
	sd	a1,-32(s0)
	.loc 1 137 9
	ld	a5,-24(s0)
	lbu	a5,8(a5)
	.loc 1 137 6
	mv	a4,a5
	li	a5,2
	bne	a4,a5,.L11
	.loc 1 138 17
	ld	a5,-32(s0)
	li	a4,1
	sb	a4,8(a5)
	.loc 1 139 5
	j	.L10
.L11:
	.loc 1 153 15
	ld	a5,-32(s0)
	li	a4,2
	sb	a4,8(a5)
	.loc 1 154 15
	ld	a5,-32(s0)
	li	a4,56
	sb	a4,9(a5)
.L10:
	.loc 1 155 1
	ld	ra,24(sp)
	.cfi_restore 1
	ld	s0,16(sp)
	.cfi_restore 8
	.cfi_def_cfa 2, 32
	addi	sp,sp,32
	.cfi_def_cfa_offset 0
	jr	ra
	.cfi_endproc
.LFE1:
	.size	EhcInitIntQh, .-EhcInitIntQh
	.section	.text.EhcCreateQh,"ax",@progbits
	.align	1
	.globl	EhcCreateQh
	.type	EhcCreateQh, @function
EhcCreateQh:
.LFB2:
	.loc 1 171 1
	.cfi_startproc
	addi	sp,sp,-48
	.cfi_def_cfa_offset 48
	sd	ra,40(sp)
	sd	s0,32(sp)
	.cfi_offset 1, -8
	.cfi_offset 8, -16
	addi	s0,sp,48
	.cfi_def_cfa 8, 0
	sd	a0,-40(s0)
	sd	a1,-48(s0)
	.loc 1 175 8
	ld	a5,-40(s0)
	ld	a5,144(a5)
	li	a1,104
	mv	a0,a5
	call	UsbHcAllocateMem@plt
	sd	a0,-24(s0)
	.loc 1 177 6
	ld	a5,-24(s0)
	bne	a5,zero,.L14
	.loc 1 178 12
	li	a5,0
	j	.L15
.L14:
	.loc 1 181 17
	ld	a5,-24(s0)
	li	a4,1212305408
	addi	a4,a4,853
	sw	a4,68(a5)
	.loc 1 182 14
	ld	a5,-24(s0)
	sd	zero,72(a5)
	.loc 1 183 20
	ld	a5,-48(s0)
	ld	a4,40(a5)
	.loc 1 183 16
	ld	a5,-24(s0)
	sd	a4,96(a5)
	.loc 1 185 3
	ld	a5,-24(s0)
	addi	a5,a5,80
	mv	a0,a5
	call	InitializeListHead@plt
	.loc 1 187 8
	ld	a5,-24(s0)
	sd	a5,-32(s0)
	.loc 1 188 21
	ld	a5,-32(s0)
	lbu	a4,0(a5)
	andi	a4,a4,0
	ori	a4,a4,1
	sb	a4,0(a5)
	lbu	a4,1(a5)
	andi	a4,a4,0
	sb	a4,1(a5)
	lbu	a4,2(a5)
	andi	a4,a4,0
	sb	a4,2(a5)
	lbu	a4,3(a5)
	andi	a4,a4,0
	sb	a4,3(a5)
	.loc 1 189 24
	ld	a5,-48(s0)
	lbu	a5,0(a5)
	andi	a5,a5,127
	andi	a4,a5,0xff
	.loc 1 189 20
	ld	a5,-32(s0)
	andi	a4,a4,127
	lbu	a3,4(a5)
	andi	a3,a3,-128
	or	a4,a3,a4
	sb	a4,4(a5)
	.loc 1 190 18
	ld	a5,-32(s0)
	lbu	a4,4(a5)
	andi	a4,a4,127
	sb	a4,4(a5)
	.loc 1 191 19
	ld	a5,-48(s0)
	lbu	a5,1(a5)
	andi	a5,a5,15
	andi	a4,a5,0xff
	.loc 1 191 15
	ld	a5,-32(s0)
	andi	a4,a4,15
	lbu	a3,5(a5)
	andi	a3,a3,-16
	or	a4,a3,a4
	sb	a4,5(a5)
	.loc 1 192 21
	ld	a5,-48(s0)
	lbu	a5,8(a5)
	andi	a5,a5,3
	andi	a4,a5,0xff
	.loc 1 192 17
	ld	a5,-32(s0)
	andi	a4,a4,3
	slliw	a4,a4,4
	mv	a2,a4
	lbu	a4,5(a5)
	andi	a4,a4,-49
	mv	a3,a4
	mv	a4,a2
	or	a4,a3,a4
	sb	a4,5(a5)
	.loc 1 193 16
	ld	a5,-32(s0)
	lbu	a4,5(a5)
	andi	a4,a4,-65
	sb	a4,5(a5)
	.loc 1 194 21
	ld	a5,-32(s0)
	lbu	a4,5(a5)
	andi	a4,a4,127
	sb	a4,5(a5)
	.loc 1 195 34
	ld	a5,-48(s0)
	ld	a5,16(a5)
	.loc 1 195 24
	andi	a5,a5,2047
	slli	a4,a5,48
	srli	a4,a4,48
	.loc 1 195 22
	ld	a5,-32(s0)
	andi	a3,a4,255
	lbu	a2,6(a5)
	andi	a2,a2,0
	or	a3,a2,a3
	sb	a3,6(a5)
	srliw	a4,a4,8
	slli	a4,a4,48
	srli	a4,a4,48
	andi	a4,a4,7
	andi	a4,a4,7
	lbu	a3,7(a5)
	andi	a3,a3,-8
	or	a4,a3,a4
	sb	a4,7(a5)
	.loc 1 196 16
	ld	a5,-32(s0)
	lbu	a4,7(a5)
	andi	a4,a4,-9
	sb	a4,7(a5)
	.loc 1 197 19
	ld	a5,-32(s0)
	lbu	a4,7(a5)
	andi	a4,a4,15
	ori	a4,a4,48
	sb	a4,7(a5)
	.loc 1 198 21
	ld	a5,-48(s0)
	lbu	a5,24(a5)
	andi	a5,a5,127
	andi	a4,a5,0xff
	.loc 1 198 17
	ld	a5,-32(s0)
	andi	a4,a4,127
	lbu	a3,10(a5)
	andi	a3,a3,-128
	or	a4,a3,a4
	sb	a4,10(a5)
	.loc 1 199 21
	ld	a5,-48(s0)
	lbu	a5,25(a5)
	andi	a5,a5,127
	andi	a4,a5,0xff
	.loc 1 199 17
	ld	a5,-32(s0)
	andi	a3,a4,1
	slliw	a3,a3,7
	mv	a1,a3
	lbu	a3,10(a5)
	andi	a3,a3,127
	mv	a2,a3
	mv	a3,a1
	or	a3,a2,a3
	sb	a3,10(a5)
	srliw	a4,a4,1
	andi	a4,a4,0xff
	andi	a4,a4,63
	andi	a4,a4,63
	lbu	a3,11(a5)
	andi	a3,a3,-64
	or	a4,a3,a4
	sb	a4,11(a5)
	.loc 1 200 20
	ld	a5,-32(s0)
	lbu	a4,11(a5)
	andi	a4,a4,63
	ori	a4,a4,64
	sb	a4,11(a5)
	.loc 1 201 24
	ld	a5,-48(s0)
	lbu	a5,26(a5)
	andi	a5,a5,1
	andi	a4,a5,0xff
	.loc 1 201 20
	ld	a5,-32(s0)
	slliw	a4,a4,7
	mv	a2,a4
	lbu	a4,27(a5)
	andi	a4,a4,127
	mv	a3,a4
	mv	a4,a2
	or	a4,a3,a4
	sb	a4,27(a5)
	.loc 1 203 9
	ld	a5,-48(s0)
	lbu	a5,8(a5)
	.loc 1 203 6
	mv	a4,a5
	li	a5,2
	beq	a4,a5,.L16
	.loc 1 204 18
	ld	a5,-32(s0)
	lbu	a4,24(a5)
	ld	a5,-32(s0)
	sb	a4,24(a5)
.L16:
	.loc 1 207 13
	ld	a5,-48(s0)
	ld	a5,32(a5)
	.loc 1 207 3
	li	a4,8
	beq	a5,a4,.L17
	li	a4,8
	bgtu	a5,a4,.L18
	li	a4,4
	beq	a5,a4,.L17
	li	a4,4
	bgtu	a5,a4,.L18
	li	a4,1
	beq	a5,a4,.L19
	li	a4,2
	beq	a5,a4,.L20
	j	.L18
.L19:
	.loc 1 214 20
	ld	a5,-32(s0)
	lbu	a4,5(a5)
	ori	a4,a4,64
	sb	a4,5(a5)
	.loc 1 216 13
	ld	a5,-48(s0)
	lbu	a5,8(a5)
	.loc 1 216 10
	mv	a4,a5
	li	a5,2
	beq	a4,a5,.L23
	.loc 1 217 22
	ld	a5,-32(s0)
	lbu	a4,7(a5)
	ori	a4,a4,8
	sb	a4,7(a5)
	.loc 1 220 7
	j	.L23
.L17:
	.loc 1 228 23
	ld	a5,-32(s0)
	lbu	a4,7(a5)
	andi	a4,a4,15
	sb	a4,7(a5)
	.loc 1 229 7
	ld	a1,-32(s0)
	ld	a0,-48(s0)
	call	EhcInitIntQh
	.loc 1 230 7
	j	.L18
.L20:
	.loc 1 233 14
	ld	a5,-48(s0)
	lbu	a5,8(a5)
	.loc 1 233 10
	mv	a4,a5
	li	a5,2
	bne	a4,a5,.L24
	.loc 1 233 42 discriminator 1
	ld	a5,-48(s0)
	lw	a4,4(a5)
	.loc 1 233 36 discriminator 1
	li	a5,1
	bne	a4,a5,.L24
	.loc 1 234 13
	ld	a5,-32(s0)
	lbu	a5,24(a5)
	.loc 1 234 22
	ori	a5,a5,1
	andi	a4,a5,0xff
	ld	a5,-32(s0)
	sb	a4,24(a5)
	.loc 1 237 7
	j	.L24
.L23:
	.loc 1 220 7
	nop
	j	.L18
.L24:
	.loc 1 237 7
	nop
.L18:
	.loc 1 240 10
	ld	a5,-24(s0)
.L15:
	.loc 1 241 1
	mv	a0,a5
	ld	ra,40(sp)
	.cfi_restore 1
	ld	s0,32(sp)
	.cfi_restore 8
	.cfi_def_cfa 2, 48
	addi	sp,sp,48
	.cfi_def_cfa_offset 0
	jr	ra
	.cfi_endproc
.LFE2:
	.size	EhcCreateQh, .-EhcCreateQh
	.section	.text.EhcConvertPollRate,"ax",@progbits
	.align	1
	.globl	EhcConvertPollRate
	.type	EhcConvertPollRate, @function
EhcConvertPollRate:
.LFB3:
	.loc 1 260 1
	.cfi_startproc
	addi	sp,sp,-48
	.cfi_def_cfa_offset 48
	sd	ra,40(sp)
	sd	s0,32(sp)
	.cfi_offset 1, -8
	.cfi_offset 8, -16
	addi	s0,sp,48
	.cfi_def_cfa 8, 0
	sd	a0,-40(s0)
	.loc 1 263 6
	ld	a5,-40(s0)
	bne	a5,zero,.L26
	.loc 1 264 12
	li	a5,1
	j	.L27
.L26:
	.loc 1 270 12
	sd	zero,-24(s0)
	.loc 1 272 9
	j	.L28
.L29:
	.loc 1 273 14
	ld	a5,-40(s0)
	srli	a5,a5,1
	sd	a5,-40(s0)
	.loc 1 274 13
	ld	a5,-24(s0)
	addi	a5,a5,1
	sd	a5,-24(s0)
.L28:
	.loc 1 272 19
	ld	a5,-40(s0)
	bne	a5,zero,.L29
	.loc 1 277 32
	ld	a5,-24(s0)
	sext.w	a5,a5
	addiw	a5,a5,-1
	sext.w	a5,a5
	.loc 1 277 19
	mv	a4,a5
	li	a5,1
	sll	a5,a5,a4
.L27:
	.loc 1 278 1
	mv	a0,a5
	ld	ra,40(sp)
	.cfi_restore 1
	ld	s0,32(sp)
	.cfi_restore 8
	.cfi_def_cfa 2, 48
	addi	sp,sp,48
	.cfi_def_cfa_offset 0
	jr	ra
	.cfi_endproc
.LFE3:
	.size	EhcConvertPollRate, .-EhcConvertPollRate
	.section	.text.EhcFreeQtds,"ax",@progbits
	.align	1
	.globl	EhcFreeQtds
	.type	EhcFreeQtds, @function
EhcFreeQtds:
.LFB4:
	.loc 1 292 1
	.cfi_startproc
	addi	sp,sp,-64
	.cfi_def_cfa_offset 64
	sd	ra,56(sp)
	sd	s0,48(sp)
	.cfi_offset 1, -8
	.cfi_offset 8, -16
	addi	s0,sp,64
	.cfi_def_cfa 8, 0
	sd	a0,-56(s0)
	sd	a1,-64(s0)
	.loc 1 297 13
	ld	a5,-64(s0)
	ld	a5,0(a5)
	sd	a5,-24(s0)
	.loc 1 297 41
	ld	a5,-24(s0)
	ld	a5,0(a5)
	sd	a5,-32(s0)
	.loc 1 297 3
	j	.L31
.L32:
	.loc 1 298 9
	ld	a5,-24(s0)
	addi	a5,a5,-56
	sd	a5,-40(s0)
	.loc 1 300 22
	ld	a5,-40(s0)
	addi	a5,a5,56
	.loc 1 300 5
	mv	a0,a5
	call	RemoveEntryList@plt
	.loc 1 301 5
	ld	a5,-56(s0)
	ld	a5,144(a5)
	li	a2,88
	ld	a1,-40(s0)
	mv	a0,a5
	call	UsbHcFreeMem@plt
	.loc 1 297 86 discriminator 3
	ld	a5,-32(s0)
	sd	a5,-24(s0)
	.loc 1 297 99 discriminator 3
	ld	a5,-24(s0)
	ld	a5,0(a5)
	sd	a5,-32(s0)
.L31:
	.loc 1 297 69 discriminator 1
	ld	a4,-24(s0)
	ld	a5,-64(s0)
	bne	a4,a5,.L32
	.loc 1 303 1
	nop
	nop
	ld	ra,56(sp)
	.cfi_restore 1
	ld	s0,48(sp)
	.cfi_restore 8
	.cfi_def_cfa 2, 64
	addi	sp,sp,64
	.cfi_def_cfa_offset 0
	jr	ra
	.cfi_endproc
.LFE4:
	.size	EhcFreeQtds, .-EhcFreeQtds
	.section	.text.EhcFreeUrb,"ax",@progbits
	.align	1
	.globl	EhcFreeUrb
	.type	EhcFreeUrb, @function
EhcFreeUrb:
.LFB5:
	.loc 1 317 1
	.cfi_startproc
	addi	sp,sp,-48
	.cfi_def_cfa_offset 48
	sd	ra,40(sp)
	sd	s0,32(sp)
	.cfi_offset 1, -8
	.cfi_offset 8, -16
	addi	s0,sp,48
	.cfi_def_cfa 8, 0
	sd	a0,-40(s0)
	sd	a1,-48(s0)
	.loc 1 320 9
	ld	a5,-40(s0)
	ld	a5,120(a5)
	sd	a5,-24(s0)
	.loc 1 322 10
	ld	a5,-48(s0)
	ld	a5,80(a5)
	.loc 1 322 6
	beq	a5,zero,.L34
	.loc 1 323 10
	ld	a5,-24(s0)
	ld	a5,80(a5)
	.loc 1 323 5
	ld	a4,-48(s0)
	ld	a4,88(a4)
	mv	a1,a4
	ld	a0,-24(s0)
	jalr	a5
.LVL0:
.L34:
	.loc 1 326 10
	ld	a5,-48(s0)
	ld	a5,120(a5)
	.loc 1 326 6
	beq	a5,zero,.L35
	.loc 1 327 10
	ld	a5,-24(s0)
	ld	a5,80(a5)
	.loc 1 327 5
	ld	a4,-48(s0)
	ld	a4,120(a4)
	mv	a1,a4
	ld	a0,-24(s0)
	jalr	a5
.LVL1:
.L35:
	.loc 1 330 10
	ld	a5,-48(s0)
	ld	a5,144(a5)
	.loc 1 330 6
	beq	a5,zero,.L36
	.loc 1 335 27
	ld	a5,-48(s0)
	ld	a5,144(a5)
	.loc 1 335 5
	addi	a5,a5,80
	mv	a1,a5
	ld	a0,-40(s0)
	call	EhcFreeQtds
	.loc 1 336 5
	ld	a5,-40(s0)
	ld	a4,144(a5)
	.loc 1 336 36
	ld	a5,-48(s0)
	ld	a5,144(a5)
	.loc 1 336 5
	li	a2,104
	mv	a1,a5
	mv	a0,a4
	call	UsbHcFreeMem@plt
.L36:
	.loc 1 339 6
	la	a5,gBS
	ld	a5,0(a5)
	ld	a5,72(a5)
	.loc 1 339 3
	ld	a0,-48(s0)
	jalr	a5
.LVL2:
	.loc 1 340 1
	nop
	ld	ra,40(sp)
	.cfi_restore 1
	ld	s0,32(sp)
	.cfi_restore 8
	.cfi_def_cfa 2, 48
	addi	sp,sp,48
	.cfi_def_cfa_offset 0
	jr	ra
	.cfi_endproc
.LFE5:
	.size	EhcFreeUrb, .-EhcFreeUrb
	.section	.text.EhcCreateQtds,"ax",@progbits
	.align	1
	.globl	EhcCreateQtds
	.type	EhcCreateQtds, @function
EhcCreateQtds:
.LFB6:
	.loc 1 357 1
	.cfi_startproc
	addi	sp,sp,-112
	.cfi_def_cfa_offset 112
	sd	ra,104(sp)
	sd	s0,96(sp)
	.cfi_offset 1, -8
	.cfi_offset 8, -16
	addi	s0,sp,112
	.cfi_def_cfa 8, 0
	sd	a0,-104(s0)
	sd	a1,-112(s0)
	.loc 1 378 10
	sb	zero,-37(s0)
	.loc 1 379 6
	ld	a5,-112(s0)
	ld	a5,144(a5)
	sd	a5,-64(s0)
	.loc 1 380 6
	ld	a5,-112(s0)
	addi	a5,a5,24
	sd	a5,-72(s0)
	.loc 1 381 13
	sd	zero,-24(s0)
	.loc 1 382 13
	li	a5,1
	sw	a5,-36(s0)
	.loc 1 384 13
	ld	a5,-104(s0)
	ld	a4,144(a5)
	.loc 1 384 60
	ld	a5,-104(s0)
	ld	a5,152(a5)
	.loc 1 384 13
	li	a2,88
	mv	a1,a5
	mv	a0,a4
	call	UsbHcGetPciAddressForHostMem@plt
	sd	a0,-80(s0)
	.loc 1 385 9
	ld	a5,-72(s0)
	lw	a5,4(a5)
	.loc 1 385 6
	bne	a5,zero,.L38
	.loc 1 386 18
	ld	a5,-80(s0)
	sext.w	a5,a5
	.loc 1 386 15
	andi	a5,a5,-32
	sw	a5,-36(s0)
.L38:
	.loc 1 392 14
	ld	a5,-112(s0)
	ld	a4,56(a5)
	.loc 1 392 6
	li	a5,1
	bne	a4,a5,.L39
	.loc 1 393 9
	li	a5,8
	sd	a5,-48(s0)
	.loc 1 394 42
	ld	a5,-112(s0)
	ld	a1,72(a5)
	.loc 1 394 65
	ld	a5,-112(s0)
	ld	a2,80(a5)
	.loc 1 394 95
	ld	a5,-72(s0)
	ld	a5,16(a5)
	.loc 1 394 11
	mv	a6,a5
	li	a5,0
	li	a4,2
	ld	a3,-48(s0)
	ld	a0,-104(s0)
	call	EhcCreateQtd
	sd	a0,-88(s0)
	.loc 1 396 8
	ld	a5,-88(s0)
	bne	a5,zero,.L40
	.loc 1 397 14
	li	a5,-1
	slli	a5,a5,63
	addi	a5,a5,9
	j	.L41
.L40:
	.loc 1 400 5
	ld	a5,-64(s0)
	addi	a4,a5,80
	ld	a5,-88(s0)
	addi	a5,a5,56
	mv	a1,a5
	mv	a0,a4
	call	InsertTailList@plt
	.loc 1 408 11
	ld	a5,-72(s0)
	lw	a5,4(a5)
	.loc 1 408 8
	bne	a5,zero,.L42
	.loc 1 409 11
	sb	zero,-49(s0)
	j	.L43
.L42:
	.loc 1 411 11
	li	a5,1
	sb	a5,-49(s0)
.L43:
	.loc 1 414 77
	ld	a5,-72(s0)
	ld	a5,16(a5)
	.loc 1 414 17
	lbu	a4,-49(s0)
	mv	a6,a5
	li	a5,1
	li	a3,0
	li	a2,0
	li	a1,0
	ld	a0,-104(s0)
	call	EhcCreateQtd
	sd	a0,-24(s0)
	.loc 1 416 8
	ld	a5,-24(s0)
	beq	a5,zero,.L58
	.loc 1 420 11
	ld	a5,-72(s0)
	lw	a5,4(a5)
	.loc 1 420 8
	bne	a5,zero,.L46
	.loc 1 421 17
	ld	a5,-104(s0)
	ld	a5,144(a5)
	li	a2,88
	ld	a1,-24(s0)
	mv	a0,a5
	call	UsbHcGetPciAddressForHostMem@plt
	sd	a0,-80(s0)
	.loc 1 422 20
	ld	a5,-80(s0)
	sext.w	a5,a5
	.loc 1 422 17
	andi	a5,a5,-32
	sw	a5,-36(s0)
.L46:
	.loc 1 425 12
	li	a5,1
	sb	a5,-37(s0)
.L39:
	.loc 1 431 9
	ld	a5,-72(s0)
	lw	a5,4(a5)
	.loc 1 431 6
	bne	a5,zero,.L47
	.loc 1 432 9
	li	a5,1
	sb	a5,-49(s0)
	j	.L48
.L47:
	.loc 1 434 9
	sb	zero,-49(s0)
.L48:
	.loc 1 437 7
	sd	zero,-88(s0)
	.loc 1 438 7
	sd	zero,-48(s0)
	.loc 1 440 9
	j	.L49
.L52:
	.loc 1 443 25
	ld	a5,-112(s0)
	ld	a4,96(a5)
	.loc 1 441 11
	ld	a5,-48(s0)
	add	a1,a4,a5
	.loc 1 444 25
	ld	a5,-112(s0)
	ld	a4,112(a5)
	.loc 1 441 11
	ld	a5,-48(s0)
	add	a2,a4,a5
	.loc 1 445 16
	ld	a5,-112(s0)
	ld	a4,104(a5)
	.loc 1 445 26
	ld	a5,-48(s0)
	sub	a3,a4,a5
	.loc 1 448 15
	ld	a5,-72(s0)
	ld	a0,16(a5)
	.loc 1 441 11
	lbu	a5,-37(s0)
	lbu	a4,-49(s0)
	mv	a6,a0
	ld	a0,-104(s0)
	call	EhcCreateQtd
	sd	a0,-88(s0)
	.loc 1 451 8
	ld	a5,-88(s0)
	beq	a5,zero,.L59
	.loc 1 455 24
	ld	a5,-88(s0)
	lw	a4,-36(s0)
	sw	a4,4(a5)
	.loc 1 456 5
	ld	a5,-64(s0)
	addi	a4,a5,80
	ld	a5,-88(s0)
	addi	a5,a5,56
	mv	a1,a5
	mv	a0,a4
	call	InsertTailList@plt
	.loc 1 461 14
	ld	a5,-88(s0)
	ld	a4,80(a5)
	.loc 1 461 28
	ld	a5,-72(s0)
	ld	a5,16(a5)
	.loc 1 461 24
	add	a5,a4,a5
	.loc 1 461 40
	addi	a4,a5,-1
	.loc 1 461 49
	ld	a5,-72(s0)
	ld	a5,16(a5)
	.loc 1 461 45
	divu	a5,a4,a5
	.loc 1 461 62
	andi	a5,a5,1
	.loc 1 461 8
	beq	a5,zero,.L51
	.loc 1 462 14
	lbu	a5,-37(s0)
	mv	a4,a5
	li	a5,1
	subw	a5,a5,a4
	sb	a5,-37(s0)
.L51:
	.loc 1 465 15
	ld	a5,-88(s0)
	ld	a5,80(a5)
	.loc 1 465 9
	ld	a4,-48(s0)
	add	a5,a4,a5
	sd	a5,-48(s0)
.L49:
	.loc 1 440 19
	ld	a5,-112(s0)
	ld	a5,104(a5)
	.loc 1 440 14
	ld	a4,-48(s0)
	bltu	a4,a5,.L52
	.loc 1 471 9
	ld	a5,-72(s0)
	ld	a4,32(a5)
	.loc 1 471 6
	li	a5,1
	bne	a4,a5,.L53
	.loc 1 472 5
	ld	a5,-64(s0)
	addi	a4,a5,80
	ld	a5,-24(s0)
	addi	a5,a5,56
	mv	a1,a5
	mv	a0,a4
	call	InsertTailList@plt
.L53:
	.loc 1 478 13
	ld	a5,-64(s0)
	ld	a5,80(a5)
	sd	a5,-32(s0)
	.loc 1 478 3
	j	.L54
.L57:
	.loc 1 479 9
	ld	a5,-32(s0)
	addi	a5,a5,-56
	sd	a5,-88(s0)
	.loc 1 484 14
	ld	a5,-32(s0)
	ld	a4,0(a5)
	.loc 1 484 31
	ld	a5,-64(s0)
	addi	a5,a5,80
	.loc 1 484 8
	beq	a4,a5,.L60
	.loc 1 488 54
	ld	a5,-32(s0)
	ld	a5,0(a5)
	.loc 1 488 13
	addi	a5,a5,-56
	sd	a5,-96(s0)
	.loc 1 489 15
	ld	a5,-104(s0)
	ld	a5,144(a5)
	li	a2,88
	ld	a1,-96(s0)
	mv	a0,a5
	call	UsbHcGetPciAddressForHostMem@plt
	sd	a0,-80(s0)
	.loc 1 490 27
	ld	a5,-80(s0)
	sext.w	a5,a5
	andi	a5,a5,-32
	sext.w	a4,a5
	.loc 1 490 24
	ld	a5,-88(s0)
	sw	a4,0(a5)
	.loc 1 478 69 discriminator 2
	ld	a5,-32(s0)
	ld	a5,0(a5)
	sd	a5,-32(s0)
.L54:
	.loc 1 478 51 discriminator 1
	ld	a5,-64(s0)
	addi	a5,a5,80
	.loc 1 478 47 discriminator 1
	ld	a4,-32(s0)
	bne	a4,a5,.L57
	j	.L56
.L60:
	.loc 1 485 7
	nop
.L56:
	.loc 1 496 55
	ld	a5,-64(s0)
	ld	a5,80(a5)
	.loc 1 496 11
	addi	a5,a5,-56
	sd	a5,-96(s0)
	.loc 1 497 13
	ld	a5,-104(s0)
	ld	a5,144(a5)
	li	a2,88
	ld	a1,-96(s0)
	mv	a0,a5
	call	UsbHcGetPciAddressForHostMem@plt
	sd	a0,-80(s0)
	.loc 1 498 23
	ld	a5,-80(s0)
	sext.w	a5,a5
	andi	a5,a5,-32
	sext.w	a4,a5
	.loc 1 498 20
	ld	a5,-64(s0)
	sw	a4,16(a5)
	.loc 1 499 10
	li	a5,0
	j	.L41
.L58:
	.loc 1 417 7
	nop
	j	.L45
.L59:
	.loc 1 452 7
	nop
.L45:
	.loc 1 502 3
	ld	a5,-64(s0)
	addi	a5,a5,80
	mv	a1,a5
	ld	a0,-104(s0)
	call	EhcFreeQtds
	.loc 1 503 10
	li	a5,-1
	slli	a5,a5,63
	addi	a5,a5,9
.L41:
	.loc 1 504 1
	mv	a0,a5
	ld	ra,104(sp)
	.cfi_restore 1
	ld	s0,96(sp)
	.cfi_restore 8
	.cfi_def_cfa 2, 112
	addi	sp,sp,112
	.cfi_def_cfa_offset 0
	jr	ra
	.cfi_endproc
.LFE6:
	.size	EhcCreateQtds, .-EhcCreateQtds
	.section	.text.EhcCreateUrb,"ax",@progbits
	.align	1
	.globl	EhcCreateUrb
	.type	EhcCreateUrb, @function
EhcCreateUrb:
.LFB7:
	.loc 1 544 1
	.cfi_startproc
	addi	sp,sp,-128
	.cfi_def_cfa_offset 128
	sd	ra,120(sp)
	sd	s0,112(sp)
	.cfi_offset 1, -8
	.cfi_offset 8, -16
	addi	s0,sp,128
	.cfi_def_cfa 8, 0
	sd	a0,-88(s0)
	sd	a5,-104(s0)
	sd	a6,-112(s0)
	sd	a7,-120(s0)
	mv	a5,a1
	sb	a5,-89(s0)
	mv	a5,a2
	sb	a5,-90(s0)
	mv	a5,a3
	sb	a5,-91(s0)
	mv	a5,a4
	sb	a5,-92(s0)
	.loc 1 554 9
	li	a0,176
	call	AllocateZeroPool@plt
	sd	a0,-32(s0)
	.loc 1 556 6
	ld	a5,-32(s0)
	bne	a5,zero,.L62
	.loc 1 557 12
	li	a5,0
	j	.L76
.L62:
	.loc 1 560 18
	ld	a5,-32(s0)
	li	a4,1380077568
	addi	a4,a4,853
	sw	a4,0(a5)
	.loc 1 561 3
	ld	a5,-32(s0)
	addi	a5,a5,8
	mv	a0,a5
	call	InitializeListHead@plt
	.loc 1 563 6
	ld	a5,-32(s0)
	addi	a5,a5,24
	sd	a5,-40(s0)
	.loc 1 564 15
	ld	a5,-40(s0)
	lbu	a4,-89(s0)
	sb	a4,0(a5)
	.loc 1 565 16
	lbu	a5,-90(s0)
	andi	a5,a5,15
	andi	a4,a5,0xff
	.loc 1 565 14
	ld	a5,-40(s0)
	sb	a4,1(a5)
	.loc 1 566 37
	lb	a5,-90(s0)
	.loc 1 566 58
	not	a5,a5
	andi	a5,a5,0xff
	srliw	a5,a5,7
	andi	a5,a5,0xff
	sext.w	a4,a5
	.loc 1 566 17
	ld	a5,-40(s0)
	sw	a4,4(a5)
	.loc 1 567 16
	ld	a5,-40(s0)
	lbu	a4,-91(s0)
	sb	a4,8(a5)
	.loc 1 568 17
	ld	a5,-40(s0)
	ld	a4,-104(s0)
	sd	a4,16(a5)
	.loc 1 570 15
	ld	a5,-40(s0)
	sb	zero,24(a5)
	.loc 1 571 15
	ld	a5,-40(s0)
	sb	zero,25(a5)
	.loc 1 573 6
	lbu	a5,-91(s0)
	andi	a4,a5,0xff
	li	a5,2
	beq	a4,a5,.L64
	.loc 1 576 22
	ld	a5,-112(s0)
	lbu	a4,0(a5)
	.loc 1 576 17
	ld	a5,-40(s0)
	sb	a4,24(a5)
	.loc 1 577 22
	ld	a5,-112(s0)
	lbu	a4,1(a5)
	.loc 1 577 17
	ld	a5,-40(s0)
	sb	a4,25(a5)
.L64:
	.loc 1 580 14
	ld	a5,-40(s0)
	lbu	a4,-92(s0)
	sb	a4,26(a5)
	.loc 1 581 12
	ld	a5,-40(s0)
	ld	a4,-120(s0)
	sd	a4,32(a5)
	.loc 1 582 18
	ld	a0,40(s0)
	call	EhcConvertPollRate
	mv	a4,a0
	.loc 1 582 16 discriminator 1
	ld	a5,-40(s0)
	sd	a4,40(a5)
	.loc 1 584 16
	ld	a5,-32(s0)
	ld	a4,0(s0)
	sd	a4,72(a5)
	.loc 1 585 13
	ld	a5,-32(s0)
	ld	a4,8(s0)
	sd	a4,96(a5)
	.loc 1 586 16
	ld	a5,-32(s0)
	ld	a4,16(s0)
	sd	a4,104(a5)
	.loc 1 587 17
	ld	a5,-32(s0)
	ld	a4,24(s0)
	sd	a4,128(a5)
	.loc 1 588 16
	ld	a5,-32(s0)
	ld	a4,32(s0)
	sd	a4,136(a5)
	.loc 1 590 9
	ld	a5,-88(s0)
	ld	a5,120(a5)
	sd	a5,-48(s0)
	.loc 1 591 13
	ld	a5,-32(s0)
	addi	a5,a5,24
	mv	a1,a5
	ld	a0,-88(s0)
	call	EhcCreateQh
	mv	a4,a0
	.loc 1 591 11 discriminator 1
	ld	a5,-32(s0)
	sd	a4,144(a5)
	.loc 1 593 10
	ld	a5,-32(s0)
	ld	a5,144(a5)
	.loc 1 593 6
	beq	a5,zero,.L77
	.loc 1 600 6
	ld	a5,0(s0)
	beq	a5,zero,.L67
	.loc 1 601 9
	li	a5,8
	sd	a5,-72(s0)
	.loc 1 602 11
	sw	zero,-20(s0)
	.loc 1 603 19
	ld	a5,-48(s0)
	ld	a6,72(a5)
	.loc 1 603 14
	addi	a5,s0,-80
	addi	a4,s0,-64
	addi	a3,s0,-72
	lw	a1,-20(s0)
	ld	a2,0(s0)
	ld	a0,-48(s0)
	jalr	a6
.LVL3:
	sd	a0,-56(s0)
	.loc 1 605 36
	ld	a5,-56(s0)
	.loc 1 605 8
	blt	a5,zero,.L78
	.loc 1 605 70 discriminator 1
	ld	a4,-72(s0)
	.loc 1 605 62 discriminator 1
	li	a5,8
	bne	a4,a5,.L78
	.loc 1 609 23
	ld	a5,-64(s0)
	mv	a4,a5
	.loc 1 609 21
	ld	a5,-32(s0)
	sd	a4,80(a5)
	.loc 1 610 21
	ld	a4,-80(s0)
	ld	a5,-32(s0)
	sd	a4,88(a5)
.L67:
	.loc 1 613 6
	ld	a5,8(s0)
	beq	a5,zero,.L70
	.loc 1 614 9
	ld	a5,16(s0)
	sd	a5,-72(s0)
	.loc 1 616 11
	ld	a5,-40(s0)
	lw	a5,4(a5)
	.loc 1 616 8
	bne	a5,zero,.L71
	.loc 1 617 13
	li	a5,1
	sw	a5,-20(s0)
	j	.L72
.L71:
	.loc 1 619 13
	sw	zero,-20(s0)
.L72:
	.loc 1 622 19
	ld	a5,-48(s0)
	ld	a6,72(a5)
	.loc 1 622 14
	addi	a5,s0,-80
	addi	a4,s0,-64
	addi	a3,s0,-72
	lw	a1,-20(s0)
	ld	a2,8(s0)
	ld	a0,-48(s0)
	jalr	a6
.LVL4:
	sd	a0,-56(s0)
	.loc 1 624 36
	ld	a5,-56(s0)
	.loc 1 624 8
	blt	a5,zero,.L79
	.loc 1 624 70 discriminator 1
	ld	a5,-72(s0)
	.loc 1 624 62 discriminator 1
	ld	a4,16(s0)
	bne	a4,a5,.L79
	.loc 1 628 20
	ld	a5,-64(s0)
	mv	a4,a5
	.loc 1 628 18
	ld	a5,-32(s0)
	sd	a4,112(a5)
	.loc 1 629 18
	ld	a4,-80(s0)
	ld	a5,-32(s0)
	sd	a4,120(a5)
.L70:
	.loc 1 632 12
	ld	a1,-32(s0)
	ld	a0,-88(s0)
	call	EhcCreateQtds
	sd	a0,-56(s0)
	.loc 1 634 34
	ld	a5,-56(s0)
	.loc 1 634 6
	blt	a5,zero,.L80
	.loc 1 638 10
	ld	a5,-32(s0)
	j	.L76
.L77:
	.loc 1 594 5
	nop
	j	.L66
.L78:
	.loc 1 606 7
	nop
	j	.L66
.L79:
	.loc 1 625 7
	nop
	j	.L66
.L80:
	.loc 1 635 5
	nop
.L66:
	.loc 1 641 3
	ld	a1,-32(s0)
	ld	a0,-88(s0)
	call	EhcFreeUrb
	.loc 1 642 10
	li	a5,0
.L76:
	.loc 1 643 1
	mv	a0,a5
	ld	ra,120(sp)
	.cfi_restore 1
	ld	s0,112(sp)
	.cfi_restore 8
	.cfi_def_cfa 2, 128
	addi	sp,sp,128
	.cfi_def_cfa_offset 0
	jr	ra
	.cfi_endproc
.LFE7:
	.size	EhcCreateUrb, .-EhcCreateUrb
	.text
.Letext0:
	.file 2 "/home/kapoagaeming/spacemit-image-builder/components/edk2/MdePkg/Include/RiscV64/ProcessorBind.h"
	.file 3 "/home/kapoagaeming/spacemit-image-builder/components/edk2/MdePkg/Include/Base.h"
	.file 4 "/home/kapoagaeming/spacemit-image-builder/components/edk2/MdePkg/Include/Uefi/UefiBaseType.h"
	.file 5 "/home/kapoagaeming/spacemit-image-builder/components/edk2/MdePkg/Include/Uefi/UefiMultiPhase.h"
	.file 6 "/home/kapoagaeming/spacemit-image-builder/components/edk2/MdePkg/Include/Protocol/DevicePath.h"
	.file 7 "/home/kapoagaeming/spacemit-image-builder/components/edk2/MdePkg/Include/Uefi/UefiSpec.h"
	.file 8 "/home/kapoagaeming/spacemit-image-builder/components/edk2/MdePkg/Include/IndustryStandard/Usb.h"
	.file 9 "/home/kapoagaeming/spacemit-image-builder/components/edk2/MdePkg/Include/Protocol/UsbIo.h"
	.file 10 "/home/kapoagaeming/spacemit-image-builder/components/edk2/MdePkg/Include/Protocol/Usb2HostController.h"
	.file 11 "/home/kapoagaeming/spacemit-image-builder/components/edk2/MdePkg/Include/Protocol/PciIo.h"
	.file 12 "/home/kapoagaeming/spacemit-image-builder/components/edk2/MdePkg/Include/Library/UefiLib.h"
	.file 13 "/home/kapoagaeming/spacemit-image-builder/components/edk2-platforms/Silicon/Spacemit/Override/MdeModulePkg/Bus/Pci/EhciDxe/Ehci.h"
	.file 14 "/home/kapoagaeming/spacemit-image-builder/components/edk2-platforms/Silicon/Spacemit/Override/MdeModulePkg/Bus/Pci/EhciDxe/UsbHcMem.h"
	.file 15 "/home/kapoagaeming/spacemit-image-builder/components/edk2-platforms/Silicon/Spacemit/Override/MdeModulePkg/Bus/Pci/EhciDxe/EhciUrb.h"
	.file 16 "/home/kapoagaeming/spacemit-image-builder/components/edk2/MdePkg/Include/Library/MemoryAllocationLib.h"
	.file 17 "/home/kapoagaeming/spacemit-image-builder/components/edk2/MdePkg/Include/Library/BaseLib.h"
	.file 18 "/home/kapoagaeming/spacemit-image-builder/components/edk2/MdePkg/Include/Library/UefiBootServicesTableLib.h"
	.section	.note.GNU-stack,"",@progbits
