	.file	"FrontPageCustomizedUiSupport.c"
	.option pic
	.option norelax
	.attribute arch, "rv64i2p1_m2p0_a2p1_f2p2_d2p2_c2p0_zicsr2p0_zifencei2p0_zmmul1p0_zaamo1p0_zalrsc1p0_zca1p0_zcd1p0"
	.attribute unaligned_access, 0
	.attribute stack_align, 16
	.text
.Ltext0:
	.cfi_sections	.debug_frame
	.file 0 "/home/kapoagaeming/Downloads/spacemit-image-builder/components/Build/Milk-V-Jupiter/RELEASE_GCC5/RISCV64/MdeModulePkg/Application/UiApp/UiApp" "/home/kapoagaeming/Downloads/spacemit-image-builder/components/edk2/MdeModulePkg/Application/UiApp/FrontPageCustomizedUiSupport.c"
	.globl	gLanguageString
	.section	.bss.gLanguageString,"aw",@nobits
	.align	3
	.type	gLanguageString, @object
	.size	gLanguageString, 8
gLanguageString:
	.zero	8
	.globl	gLanguageToken
	.section	.bss.gLanguageToken,"aw",@nobits
	.align	3
	.type	gLanguageToken, @object
	.size	gLanguageToken, 8
gLanguageToken:
	.zero	8
	.globl	gHiiDriverList
	.section	.bss.gHiiDriverList,"aw",@nobits
	.align	3
	.type	gHiiDriverList, @object
	.size	gHiiDriverList, 8
gHiiDriverList:
	.zero	8
	.globl	gCurrentLanguageIndex
	.section	.bss.gCurrentLanguageIndex,"aw",@nobits
	.type	gCurrentLanguageIndex, @object
	.size	gCurrentLanguageIndex, 1
gCurrentLanguageIndex:
	.zero	1
	.section	.text.GetNextLanguage,"ax",@progbits
	.align	1
	.globl	GetNextLanguage
	.type	GetNextLanguage, @function
GetNextLanguage:
.LFB0:
	.file 1 "/home/kapoagaeming/Downloads/spacemit-image-builder/components/edk2/MdeModulePkg/Application/UiApp/FrontPageCustomizedUiSupport.c"
	.loc 1 73 1
	.cfi_startproc
	addi	sp,sp,-48
	.cfi_def_cfa_offset 48
	sd	ra,40(sp)
	sd	s0,32(sp)
	.cfi_offset 1, -8
	.cfi_offset 8, -16
	addi	s0,sp,48
	.cfi_def_cfa 8, 0
	sd	a0,-40(s0)
	sd	a1,-48(s0)
	.loc 1 81 9
	sd	zero,-24(s0)
	.loc 1 82 13
	ld	a5,-40(s0)
	ld	a5,0(a5)
	sd	a5,-32(s0)
	.loc 1 83 9
	j	.L2
.L4:
	.loc 1 84 10
	ld	a5,-24(s0)
	addi	a5,a5,1
	sd	a5,-24(s0)
.L2:
	.loc 1 83 19
	ld	a4,-32(s0)
	ld	a5,-24(s0)
	add	a5,a4,a5
	lbu	a5,0(a5)
	.loc 1 83 32
	beq	a5,zero,.L3
	.loc 1 83 44 discriminator 1
	ld	a4,-32(s0)
	ld	a5,-24(s0)
	add	a5,a4,a5
	lbu	a5,0(a5)
	.loc 1 83 32 discriminator 1
	mv	a4,a5
	li	a5,59
	bne	a4,a5,.L4
.L3:
	.loc 1 87 3
	ld	a2,-24(s0)
	ld	a1,-32(s0)
	ld	a0,-48(s0)
	call	CopyMem@plt
	.loc 1 88 7
	ld	a4,-48(s0)
	ld	a5,-24(s0)
	add	a5,a4,a5
	.loc 1 88 15
	sb	zero,0(a5)
	.loc 1 90 16
	ld	a4,-32(s0)
	ld	a5,-24(s0)
	add	a5,a4,a5
	lbu	a5,0(a5)
	.loc 1 90 6
	mv	a4,a5
	li	a5,59
	bne	a4,a5,.L5
	.loc 1 91 10
	ld	a5,-24(s0)
	addi	a5,a5,1
	sd	a5,-24(s0)
.L5:
	.loc 1 94 25
	ld	a4,-32(s0)
	ld	a5,-24(s0)
	add	a4,a4,a5
	.loc 1 94 13
	ld	a5,-40(s0)
	sd	a4,0(a5)
	.loc 1 95 1
	nop
	ld	ra,40(sp)
	.cfi_restore 1
	ld	s0,32(sp)
	.cfi_restore 8
	.cfi_def_cfa 2, 48
	addi	sp,sp,48
	.cfi_def_cfa_offset 0
	jr	ra
	.cfi_endproc
.LFE0:
	.size	GetNextLanguage, .-GetNextLanguage
	.section	.rodata
	.align	3
.LC0:
	.string	"P"
	.string	"l"
	.string	"a"
	.string	"t"
	.string	"f"
	.string	"o"
	.string	"r"
	.string	"m"
	.string	"L"
	.string	"a"
	.string	"n"
	.string	"g"
	.zero	2
	.section	.text.LanguageChangeHandler,"ax",@progbits
	.align	1
	.globl	LanguageChangeHandler
	.type	LanguageChangeHandler, @function
LanguageChangeHandler:
.LFB1:
	.loc 1 111 1
	.cfi_startproc
	addi	sp,sp,-80
	.cfi_def_cfa_offset 80
	sd	ra,72(sp)
	sd	s0,64(sp)
	sd	s1,56(sp)
	.cfi_offset 1, -8
	.cfi_offset 8, -16
	.cfi_offset 9, -24
	addi	s0,sp,80
	.cfi_def_cfa 8, 0
	sd	a0,-72(s0)
	.loc 1 120 10
	lla	a5,gLanguageString
	ld	a5,0(a5)
	mv	a0,a5
	call	AsciiStrSize@plt
	mv	a5,a0
	.loc 1 120 10 is_stmt 0 discriminator 1
	mv	a0,a5
	call	AllocatePool@plt
	sd	a0,-48(s0)
	.loc 1 123 9 is_stmt 1
	sd	zero,-40(s0)
	.loc 1 124 12
	lla	a5,gLanguageString
	ld	a5,0(a5)
	sd	a5,-64(s0)
	.loc 1 125 9
	j	.L7
.L10:
	.loc 1 126 5
	addi	a5,s0,-64
	ld	a1,-48(s0)
	mv	a0,a5
	call	GetNextLanguage
	.loc 1 128 23
	ld	a5,-72(s0)
	lbu	a5,0(a5)
	mv	a4,a5
	.loc 1 128 8
	ld	a5,-40(s0)
	bne	a5,a4,.L8
	.loc 1 129 36
	ld	a5,-72(s0)
	lbu	a4,0(a5)
	.loc 1 129 29
	lla	a5,gCurrentLanguageIndex
	sb	a4,0(a5)
	.loc 1 130 7
	j	.L9
.L8:
	.loc 1 133 10
	ld	a5,-40(s0)
	addi	a5,a5,1
	sd	a5,-40(s0)
.L7:
	.loc 1 125 10
	ld	a5,-64(s0)
	lbu	a5,0(a5)
	.loc 1 125 20
	bne	a5,zero,.L10
.L9:
	.loc 1 136 21
	ld	a5,-72(s0)
	lbu	a5,0(a5)
	mv	a4,a5
	.loc 1 136 6
	ld	a5,-40(s0)
	bne	a5,a4,.L11
	.loc 1 137 17
	la	a5,gRT
	ld	a5,0(a5)
	ld	s1,88(a5)
	.loc 1 137 14
	ld	a0,-48(s0)
	call	AsciiStrSize@plt
	mv	a5,a0
	.loc 1 137 14 is_stmt 0 discriminator 1
	ld	a4,-48(s0)
	mv	a3,a5
	li	a2,7
	la	a1,gEfiGlobalVariableGuid
	lla	a0,.LC0
	jalr	s1
.LVL0:
	sd	a0,-56(s0)
	.loc 1 144 36 is_stmt 1
	ld	a5,-56(s0)
	.loc 1 144 8
	bge	a5,zero,.L11
	.loc 1 145 7
	ld	a0,-48(s0)
	call	FreePool@plt
	.loc 1 146 14
	li	a5,-1
	slli	a5,a5,63
	addi	a5,a5,7
	j	.L13
.L11:
	.loc 1 152 3
	ld	a0,-48(s0)
	call	FreePool@plt
	.loc 1 154 10
	li	a5,0
.L13:
	.loc 1 155 1
	mv	a0,a5
	ld	ra,72(sp)
	.cfi_restore 1
	ld	s0,64(sp)
	.cfi_restore 8
	.cfi_def_cfa 2, 80
	ld	s1,56(sp)
	.cfi_restore 9
	addi	sp,sp,80
	.cfi_def_cfa_offset 0
	jr	ra
	.cfi_endproc
.LFE1:
	.size	LanguageChangeHandler, .-LanguageChangeHandler
	.section	.text.UiSupportLibCallbackHandler,"ax",@progbits
	.align	1
	.globl	UiSupportLibCallbackHandler
	.type	UiSupportLibCallbackHandler, @function
UiSupportLibCallbackHandler:
.LFB2:
	.loc 1 184 1
	.cfi_startproc
	addi	sp,sp,-64
	.cfi_def_cfa_offset 64
	sd	ra,56(sp)
	sd	s0,48(sp)
	.cfi_offset 1, -8
	.cfi_offset 8, -16
	addi	s0,sp,64
	.cfi_def_cfa 8, 0
	sd	a0,-24(s0)
	sd	a1,-32(s0)
	sd	a4,-48(s0)
	sd	a5,-56(s0)
	sd	a6,-64(s0)
	mv	a5,a2
	sh	a5,-34(s0)
	mv	a5,a3
	sb	a5,-35(s0)
	.loc 1 185 6
	lhu	a5,-34(s0)
	sext.w	a4,a5
	li	a5,4096
	beq	a4,a5,.L15
	.loc 1 185 30 discriminator 1
	lhu	a5,-34(s0)
	sext.w	a4,a5
	li	a5,4096
	addi	a5,a5,1
	beq	a4,a5,.L15
	.loc 1 186 30
	lhu	a5,-34(s0)
	sext.w	a4,a5
	li	a5,4096
	addi	a5,a5,2
	beq	a4,a5,.L15
	.loc 1 189 12
	li	a5,0
	j	.L16
.L15:
	.loc 1 192 6
	ld	a4,-32(s0)
	li	a5,2
	bne	a4,a5,.L17
	.loc 1 193 8
	lhu	a5,-34(s0)
	sext.w	a4,a5
	li	a5,4096
	addi	a5,a5,2
	bne	a4,a5,.L18
	.loc 1 194 17
	lla	a5,gCurrentLanguageIndex
	lbu	a4,0(a5)
	ld	a5,-48(s0)
	sb	a4,0(a5)
	.loc 1 195 15
	ld	a5,-64(s0)
	sd	zero,0(a5)
	j	.L19
.L18:
	.loc 1 197 15
	ld	a5,-64(s0)
	li	a4,-1
	slli	a4,a4,63
	addi	a4,a4,3
	sd	a4,0(a5)
.L19:
	.loc 1 200 12
	li	a5,1
	j	.L16
.L17:
	.loc 1 203 6
	ld	a4,-32(s0)
	li	a5,1
	beq	a4,a5,.L20
	.loc 1 207 13
	ld	a5,-64(s0)
	li	a4,-1
	slli	a4,a4,63
	addi	a4,a4,3
	sd	a4,0(a5)
	.loc 1 208 12
	li	a5,1
	j	.L16
.L20:
	.loc 1 211 6
	ld	a4,-32(s0)
	li	a5,1
	bne	a4,a5,.L21
	.loc 1 212 8
	ld	a5,-48(s0)
	beq	a5,zero,.L22
	.loc 1 212 33 discriminator 1
	ld	a5,-56(s0)
	bne	a5,zero,.L23
.L22:
	.loc 1 213 15
	ld	a5,-64(s0)
	li	a4,-1
	slli	a4,a4,63
	addi	a4,a4,2
	sd	a4,0(a5)
	.loc 1 214 14
	li	a5,1
	j	.L16
.L23:
	.loc 1 217 13
	ld	a5,-64(s0)
	sd	zero,0(a5)
	.loc 1 218 5
	lhu	a5,-34(s0)
	sext.w	a5,a5
	li	a4,4096
	addi	a4,a4,2
	beq	a5,a4,.L24
	li	a4,4096
	addi	a4,a4,2
	bgt	a5,a4,.L28
	li	a4,4096
	beq	a5,a4,.L26
	li	a4,4096
	addi	a4,a4,1
	beq	a5,a4,.L27
	.loc 1 238 9
	j	.L28
.L26:
	.loc 1 223 24
	ld	a5,-56(s0)
	li	a4,3
	sd	a4,0(a5)
	.loc 1 224 9
	j	.L21
.L24:
	.loc 1 227 19
	ld	a0,-48(s0)
	call	LanguageChangeHandler
	mv	a4,a0
	.loc 1 227 17 discriminator 1
	ld	a5,-64(s0)
	sd	a4,0(a5)
	.loc 1 228 9
	j	.L21
.L27:
	.loc 1 234 12
	la	a5,gRT
	ld	a5,0(a5)
	ld	a5,104(a5)
	.loc 1 234 9
	li	a3,0
	li	a2,0
	li	a1,0
	li	a0,0
	jalr	a5
.LVL1:
	.loc 1 235 17
	ld	a5,-64(s0)
	li	a4,-1
	slli	a4,a4,63
	addi	a4,a4,3
	sd	a4,0(a5)
.L28:
	.loc 1 238 9
	nop
.L21:
	.loc 1 242 10
	li	a5,1
.L16:
	.loc 1 243 1
	mv	a0,a5
	ld	ra,56(sp)
	.cfi_restore 1
	ld	s0,48(sp)
	.cfi_restore 8
	.cfi_def_cfa 2, 64
	addi	sp,sp,64
	.cfi_def_cfa_offset 0
	jr	ra
	.cfi_endproc
.LFE2:
	.size	UiSupportLibCallbackHandler, .-UiSupportLibCallbackHandler
	.section	.rodata
	.align	3
.LC1:
	.string	"P"
	.string	"l"
	.string	"a"
	.string	"t"
	.string	"f"
	.string	"o"
	.string	"r"
	.string	"m"
	.string	"L"
	.string	"a"
	.string	"n"
	.string	"g"
	.string	"C"
	.string	"o"
	.string	"d"
	.string	"e"
	.string	"s"
	.zero	2
	.section	.text.UiCreateLanguageMenu,"ax",@progbits
	.align	1
	.globl	UiCreateLanguageMenu
	.type	UiCreateLanguageMenu, @function
UiCreateLanguageMenu:
.LFB3:
	.loc 1 257 1
	.cfi_startproc
	addi	sp,sp,-144
	.cfi_def_cfa_offset 144
	sd	ra,136(sp)
	sd	s0,128(sp)
	sd	s1,120(sp)
	.cfi_offset 1, -8
	.cfi_offset 8, -16
	.cfi_offset 9, -24
	addi	s0,sp,144
	.cfi_def_cfa 8, 0
	sd	a0,-120(s0)
	sd	a1,-128(s0)
	.loc 1 269 8
	sd	zero,-40(s0)
	.loc 1 270 16
	sd	zero,-56(s0)
	.loc 1 275 25
	call	HiiAllocateOpCodeHandle@plt
	sd	a0,-72(s0)
	.loc 1 278 3
	addi	a5,s0,-96
	li	a2,0
	mv	a1,a5
	lla	a0,.LC0
	call	GetEfiGlobalVariable2@plt
	.loc 1 283 3
	li	a2,0
	lla	a1,gLanguageString
	lla	a0,.LC1
	call	GetEfiGlobalVariable2@plt
	.loc 1 284 23
	lla	a5,gLanguageString
	ld	a5,0(a5)
	.loc 1 284 6
	bne	a5,zero,.L30
	.loc 1 285 23
	la	a0,_gPcd_FixedAtBuild_PcdUefiVariableDefaultPlatformLangCodes
	call	AsciiStrSize@plt
	mv	a5,a0
	.loc 1 285 23 is_stmt 0 discriminator 1
	la	a1,_gPcd_FixedAtBuild_PcdUefiVariableDefaultPlatformLangCodes
	mv	a0,a5
	call	AllocateCopyPool@plt
	mv	a4,a0
	.loc 1 285 21 is_stmt 1 discriminator 2
	lla	a5,gLanguageString
	sd	a4,0(a5)
.L30:
	.loc 1 292 22
	lla	a5,gLanguageToken
	ld	a5,0(a5)
	.loc 1 292 6
	bne	a5,zero,.L31
	.loc 1 296 14
	lla	a5,gLanguageString
	ld	a5,0(a5)
	sd	a5,-88(s0)
	.loc 1 297 12
	lla	a5,gLanguageString
	ld	a5,0(a5)
	mv	a0,a5
	call	AsciiStrSize@plt
	mv	a5,a0
	.loc 1 297 12 is_stmt 0 discriminator 1
	mv	a0,a5
	call	AllocatePool@plt
	sd	a0,-40(s0)
	.loc 1 300 17 is_stmt 1
	sd	zero,-48(s0)
	.loc 1 301 11
	j	.L32
.L33:
	.loc 1 302 7
	addi	a5,s0,-88
	ld	a1,-40(s0)
	mv	a0,a5
	call	GetNextLanguage
	.loc 1 303 18
	ld	a5,-48(s0)
	addi	a5,a5,1
	sd	a5,-48(s0)
.L32:
	.loc 1 301 12
	ld	a5,-88(s0)
	lbu	a5,0(a5)
	.loc 1 301 22
	bne	a5,zero,.L33
	.loc 1 309 53
	ld	a5,-48(s0)
	addi	a5,a5,1
	.loc 1 309 58
	slli	a5,a5,1
	.loc 1 309 22
	mv	a0,a5
	call	AllocateZeroPool@plt
	mv	a4,a0
	.loc 1 309 20 discriminator 1
	lla	a5,gLanguageToken
	sd	a4,0(a5)
	.loc 1 312 17
	la	a5,gBS
	ld	a5,0(a5)
	ld	a5,320(a5)
	.loc 1 312 14
	addi	a4,s0,-112
	mv	a2,a4
	li	a1,0
	la	a0,gEfiHiiStringProtocolGuid
	jalr	a5
.LVL2:
	sd	a0,-64(s0)
	.loc 1 315 14
	lla	a5,gLanguageString
	ld	a5,0(a5)
	sd	a5,-88(s0)
	.loc 1 316 17
	sd	zero,-48(s0)
	.loc 1 317 11
	j	.L34
.L37:
	.loc 1 318 7
	addi	a5,s0,-88
	ld	a1,-40(s0)
	mv	a0,a5
	call	GetNextLanguage
	.loc 1 320 18
	sd	zero,-104(s0)
	.loc 1 321 25
	ld	a5,-112(s0)
	ld	a7,8(a5)
	.loc 1 321 16
	ld	a0,-112(s0)
	addi	a5,s0,-104
	li	a6,0
	ld	a4,-56(s0)
	li	a3,1
	ld	a2,-120(s0)
	ld	a1,-40(s0)
	jalr	a7
.LVL3:
	sd	a0,-64(s0)
	.loc 1 322 10
	ld	a4,-64(s0)
	li	a5,-1
	slli	a5,a5,63
	addi	a5,a5,5
	bne	a4,a5,.L35
	.loc 1 323 24
	ld	a5,-104(s0)
	mv	a0,a5
	call	AllocateZeroPool@plt
	sd	a0,-56(s0)
	.loc 1 325 27
	ld	a5,-112(s0)
	ld	a7,8(a5)
	.loc 1 325 18
	ld	a0,-112(s0)
	addi	a5,s0,-104
	li	a6,0
	ld	a4,-56(s0)
	li	a3,1
	ld	a2,-120(s0)
	ld	a1,-40(s0)
	jalr	a7
.LVL4:
	sd	a0,-64(s0)
.L35:
	.loc 1 329 38
	ld	a5,-64(s0)
	.loc 1 329 10
	bge	a5,zero,.L36
	.loc 1 330 20
	ld	a0,-40(s0)
	call	AsciiStrSize@plt
	sd	a0,-80(s0)
	.loc 1 331 47
	ld	a5,-80(s0)
	slli	a5,a5,1
	.loc 1 331 24
	mv	a0,a5
	call	AllocatePool@plt
	sd	a0,-56(s0)
	.loc 1 333 9
	ld	a2,-80(s0)
	ld	a1,-56(s0)
	ld	a0,-40(s0)
	call	AsciiStrToUnicodeStrS@plt
.L36:
	.loc 1 337 21
	lla	a5,gLanguageToken
	ld	a4,0(a5)
	ld	a5,-48(s0)
	slli	a5,a5,1
	add	s1,a4,a5
	.loc 1 337 37
	li	a3,0
	ld	a2,-56(s0)
	li	a1,0
	ld	a0,-120(s0)
	call	HiiSetString@plt
	mv	a5,a0
	.loc 1 337 35 discriminator 1
	sh	a5,0(s1)
	.loc 1 338 7
	ld	a0,-56(s0)
	call	FreePool@plt
	.loc 1 340 18
	ld	a5,-48(s0)
	addi	a5,a5,1
	sd	a5,-48(s0)
.L34:
	.loc 1 317 12
	ld	a5,-88(s0)
	lbu	a5,0(a5)
	.loc 1 317 22
	bne	a5,zero,.L37
.L31:
	.loc 1 345 12
	lla	a5,gLanguageString
	ld	a5,0(a5)
	sd	a5,-88(s0)
	.loc 1 346 15
	sd	zero,-48(s0)
	.loc 1 347 6
	ld	a5,-40(s0)
	bne	a5,zero,.L39
	.loc 1 348 12
	lla	a5,gLanguageString
	ld	a5,0(a5)
	mv	a0,a5
	call	AsciiStrSize@plt
	mv	a5,a0
	.loc 1 348 12 is_stmt 0 discriminator 1
	mv	a0,a5
	call	AllocatePool@plt
	sd	a0,-40(s0)
	.loc 1 352 9 is_stmt 1
	j	.L39
.L42:
	.loc 1 353 5
	addi	a5,s0,-88
	ld	a1,-40(s0)
	mv	a0,a5
	call	GetNextLanguage
	.loc 1 355 22
	ld	a5,-96(s0)
	.loc 1 355 8
	beq	a5,zero,.L40
	.loc 1 355 43 discriminator 1
	ld	a5,-96(s0)
	mv	a1,a5
	ld	a0,-40(s0)
	call	AsciiStrCmp@plt
	mv	a5,a0
	.loc 1 355 39 discriminator 2
	bne	a5,zero,.L40
	.loc 1 358 23
	lla	a5,gLanguageToken
	ld	a4,0(a5)
	ld	a5,-48(s0)
	slli	a5,a5,1
	add	a5,a4,a5
	.loc 1 356 7
	lhu	a5,0(a5)
	.loc 1 361 9
	ld	a4,-48(s0)
	andi	a4,a4,0xff
	.loc 1 356 7
	li	a3,0
	li	a2,16
	mv	a1,a5
	ld	a0,-72(s0)
	call	HiiCreateOneOfOptionOpCode@plt
	.loc 1 363 31
	ld	a5,-48(s0)
	andi	a4,a5,0xff
	.loc 1 363 29
	lla	a5,gCurrentLanguageIndex
	sb	a4,0(a5)
	j	.L41
.L40:
	.loc 1 367 23
	lla	a5,gLanguageToken
	ld	a4,0(a5)
	ld	a5,-48(s0)
	slli	a5,a5,1
	add	a5,a4,a5
	.loc 1 365 7
	lhu	a5,0(a5)
	.loc 1 370 9
	ld	a4,-48(s0)
	andi	a4,a4,0xff
	.loc 1 365 7
	li	a3,0
	li	a2,0
	mv	a1,a5
	ld	a0,-72(s0)
	call	HiiCreateOneOfOptionOpCode@plt
.L41:
	.loc 1 374 16
	ld	a5,-48(s0)
	addi	a5,a5,1
	sd	a5,-48(s0)
.L39:
	.loc 1 352 10
	ld	a5,-88(s0)
	lbu	a5,0(a5)
	.loc 1 352 20
	bne	a5,zero,.L42
	.loc 1 377 19
	ld	a5,-96(s0)
	.loc 1 377 6
	beq	a5,zero,.L43
	.loc 1 378 5
	ld	a5,-96(s0)
	mv	a0,a5
	call	FreePool@plt
.L43:
	.loc 1 381 3
	ld	a0,-40(s0)
	call	FreePool@plt
	.loc 1 383 3
	sd	zero,8(sp)
	ld	a5,-72(s0)
	sd	a5,0(sp)
	li	a7,0
	li	a6,4
	li	a5,10
	li	a4,9
	li	a3,0
	li	a2,0
	li	a1,4096
	addi	a1,a1,2
	ld	a0,-128(s0)
	call	HiiCreateOneOfOpCode@plt
	.loc 1 396 3
	ld	a0,-72(s0)
	call	HiiFreeOpCodeHandle@plt
	.loc 1 397 1
	nop
	ld	ra,136(sp)
	.cfi_restore 1
	ld	s0,128(sp)
	.cfi_restore 8
	.cfi_def_cfa 2, 144
	ld	s1,120(sp)
	.cfi_restore 9
	addi	sp,sp,144
	.cfi_def_cfa_offset 0
	jr	ra
	.cfi_endproc
.LFE3:
	.size	UiCreateLanguageMenu, .-UiCreateLanguageMenu
	.section	.text.UiCreateContinueMenu,"ax",@progbits
	.align	1
	.globl	UiCreateContinueMenu
	.type	UiCreateContinueMenu, @function
UiCreateContinueMenu:
.LFB4:
	.loc 1 411 1
	.cfi_startproc
	addi	sp,sp,-32
	.cfi_def_cfa_offset 32
	sd	ra,24(sp)
	sd	s0,16(sp)
	.cfi_offset 1, -8
	.cfi_offset 8, -16
	addi	s0,sp,32
	.cfi_def_cfa 8, 0
	sd	a0,-24(s0)
	sd	a1,-32(s0)
	.loc 1 412 3
	li	a5,0
	li	a4,4
	li	a3,8
	li	a2,8
	li	a1,4096
	ld	a0,-32(s0)
	call	HiiCreateActionOpCode@plt
	.loc 1 420 1
	nop
	ld	ra,24(sp)
	.cfi_restore 1
	ld	s0,16(sp)
	.cfi_restore 8
	.cfi_def_cfa 2, 32
	addi	sp,sp,32
	.cfi_def_cfa_offset 0
	jr	ra
	.cfi_endproc
.LFE4:
	.size	UiCreateContinueMenu, .-UiCreateContinueMenu
	.section	.text.UiCreateEmptyLine,"ax",@progbits
	.align	1
	.globl	UiCreateEmptyLine
	.type	UiCreateEmptyLine, @function
UiCreateEmptyLine:
.LFB5:
	.loc 1 434 1
	.cfi_startproc
	addi	sp,sp,-32
	.cfi_def_cfa_offset 32
	sd	ra,24(sp)
	sd	s0,16(sp)
	.cfi_offset 1, -8
	.cfi_offset 8, -16
	addi	s0,sp,32
	.cfi_def_cfa 8, 0
	sd	a0,-24(s0)
	sd	a1,-32(s0)
	.loc 1 435 3
	li	a4,0
	li	a3,0
	li	a2,0
	li	a1,19
	ld	a0,-32(s0)
	call	HiiCreateSubTitleOpCode@plt
	.loc 1 436 1
	nop
	ld	ra,24(sp)
	.cfi_restore 1
	ld	s0,16(sp)
	.cfi_restore 8
	.cfi_def_cfa 2, 32
	addi	sp,sp,32
	.cfi_def_cfa_offset 0
	jr	ra
	.cfi_endproc
.LFE5:
	.size	UiCreateEmptyLine, .-UiCreateEmptyLine
	.section	.text.UiCreateResetMenu,"ax",@progbits
	.align	1
	.globl	UiCreateResetMenu
	.type	UiCreateResetMenu, @function
UiCreateResetMenu:
.LFB6:
	.loc 1 450 1
	.cfi_startproc
	addi	sp,sp,-32
	.cfi_def_cfa_offset 32
	sd	ra,24(sp)
	sd	s0,16(sp)
	.cfi_offset 1, -8
	.cfi_offset 8, -16
	addi	s0,sp,32
	.cfi_def_cfa 8, 0
	sd	a0,-24(s0)
	sd	a1,-32(s0)
	.loc 1 451 3
	li	a5,0
	li	a4,4
	li	a3,13
	li	a2,13
	li	a1,4096
	addi	a1,a1,1
	ld	a0,-32(s0)
	call	HiiCreateActionOpCode@plt
	.loc 1 459 1
	nop
	ld	ra,24(sp)
	.cfi_restore 1
	ld	s0,16(sp)
	.cfi_restore 8
	.cfi_def_cfa 2, 32
	addi	sp,sp,32
	.cfi_def_cfa_offset 0
	jr	ra
	.cfi_endproc
.LFE6:
	.size	UiCreateResetMenu, .-UiCreateResetMenu
	.section	.text.ExtractDevicePathFromHiiHandle,"ax",@progbits
	.align	1
	.globl	ExtractDevicePathFromHiiHandle
	.type	ExtractDevicePathFromHiiHandle, @function
ExtractDevicePathFromHiiHandle:
.LFB7:
	.loc 1 474 1
	.cfi_startproc
	addi	sp,sp,-48
	.cfi_def_cfa_offset 48
	sd	ra,40(sp)
	sd	s0,32(sp)
	.cfi_offset 1, -8
	.cfi_offset 8, -16
	addi	s0,sp,48
	.cfi_def_cfa 8, 0
	sd	a0,-40(s0)
	.loc 1 480 6
	ld	a5,-40(s0)
	bne	a5,zero,.L48
	.loc 1 481 12
	li	a5,0
	j	.L51
.L48:
	.loc 1 484 24
	la	a5,gHiiDatabase
	ld	a5,0(a5)
	ld	a5,80(a5)
	.loc 1 484 12
	la	a4,gHiiDatabase
	ld	a4,0(a4)
	addi	a3,s0,-32
	mv	a2,a3
	ld	a1,-40(s0)
	mv	a0,a4
	jalr	a5
.LVL5:
	sd	a0,-24(s0)
	.loc 1 485 34
	ld	a5,-24(s0)
	.loc 1 485 6
	bge	a5,zero,.L50
	.loc 1 486 12
	li	a5,0
	j	.L51
.L50:
	.loc 1 489 10
	ld	a5,-32(s0)
	.loc 1 489 35
	mv	a0,a5
	call	DevicePathFromHandle@plt
	mv	a5,a0
	.loc 1 489 10 discriminator 1
	li	a2,0
	li	a1,0
	mv	a0,a5
	call	ConvertDevicePathToText@plt
	mv	a5,a0
.L51:
	.loc 1 490 1
	mv	a0,a5
	ld	ra,40(sp)
	.cfi_restore 1
	ld	s0,32(sp)
	.cfi_restore 8
	.cfi_def_cfa 2, 48
	addi	sp,sp,48
	.cfi_def_cfa_offset 0
	jr	ra
	.cfi_endproc
.LFE7:
	.size	ExtractDevicePathFromHiiHandle, .-ExtractDevicePathFromHiiHandle
	.section	.text.RequiredDriver,"ax",@progbits
	.align	1
	.globl	RequiredDriver
	.type	RequiredDriver, @function
RequiredDriver:
.LFB8:
	.loc 1 512 1
	.cfi_startproc
	addi	sp,sp,-128
	.cfi_def_cfa_offset 128
	sd	ra,120(sp)
	sd	s0,112(sp)
	.cfi_offset 1, -8
	.cfi_offset 8, -16
	addi	s0,sp,128
	.cfi_def_cfa 8, 0
	sd	a0,-88(s0)
	sd	a1,-96(s0)
	sd	a2,-104(s0)
	sd	a3,-112(s0)
	sd	a4,-120(s0)
	.loc 1 522 12
	addi	a4,s0,-80
	addi	a5,s0,-72
	mv	a2,a4
	mv	a1,a5
	ld	a0,-88(s0)
	call	HiiGetFormSetFromHiiHandle@plt
	sd	a0,-64(s0)
	.loc 1 523 34
	ld	a5,-64(s0)
	.loc 1 523 6
	bge	a5,zero,.L53
	.loc 1 524 12
	li	a5,0
	j	.L63
.L53:
	.loc 1 527 10
	sb	zero,-49(s0)
	.loc 1 528 12
	sd	zero,-48(s0)
	.loc 1 529 7
	ld	a5,-72(s0)
	sd	a5,-40(s0)
	.loc 1 530 9
	j	.L55
.L62:
	.loc 1 531 43
	ld	a5,-40(s0)
	lbu	a5,1(a5)
	andi	a5,a5,127
	andi	a5,a5,0xff
	mv	a4,a5
	.loc 1 531 14
	ld	a5,-48(s0)
	add	a5,a5,a4
	sd	a5,-48(s0)
	.loc 1 533 35
	ld	a5,-40(s0)
	lbu	a5,1(a5)
	andi	a5,a5,127
	andi	a5,a5,0xff
	.loc 1 533 8
	mv	a4,a5
	li	a5,22
	bgtu	a4,a5,.L56
	.loc 1 534 40
	ld	a5,-40(s0)
	lbu	a5,1(a5)
	andi	a5,a5,127
	andi	a5,a5,0xff
	mv	a4,a5
	.loc 1 534 11
	ld	a5,-40(s0)
	add	a5,a5,a4
	sd	a5,-40(s0)
	.loc 1 535 7
	j	.L55
.L56:
	.loc 1 538 53
	ld	a5,-40(s0)
	lbu	a5,22(a5)
	.loc 1 538 18
	andi	a5,a5,3
	sb	a5,-17(s0)
	.loc 1 539 15
	ld	a5,-40(s0)
	addi	a5,a5,23
	sd	a5,-32(s0)
	.loc 1 540 11
	j	.L58
.L61:
	.loc 1 541 12
	ld	a1,-32(s0)
	ld	a0,-96(s0)
	call	CompareGuid@plt
	mv	a5,a0
	.loc 1 541 10 discriminator 1
	bne	a5,zero,.L59
	.loc 1 542 18
	ld	a5,-32(s0)
	addi	a5,a5,16
	sd	a5,-32(s0)
	.loc 1 543 9
	j	.L58
.L59:
	.loc 1 546 44
	ld	a5,-40(s0)
	lbu	a4,18(a5)
	lbu	a5,19(a5)
	slli	a5,a5,8
	or	a5,a5,a4
	slli	a4,a5,48
	srli	a4,a4,48
	.loc 1 546 17
	ld	a5,-104(s0)
	sh	a4,0(a5)
	.loc 1 547 42
	ld	a5,-40(s0)
	lbu	a4,20(a5)
	lbu	a5,21(a5)
	slli	a5,a5,8
	or	a5,a5,a4
	slli	a4,a5,48
	srli	a4,a4,48
	.loc 1 547 15
	ld	a5,-112(s0)
	sh	a4,0(a5)
	.loc 1 548 29
	ld	a5,-40(s0)
	addi	a5,a5,2
	.loc 1 548 7
	li	a2,16
	mv	a1,a5
	ld	a0,-120(s0)
	call	CopyMem@plt
	.loc 1 549 14
	li	a5,1
	sb	a5,-49(s0)
.L58:
	.loc 1 540 24
	lbu	a5,-17(s0)
	addiw	a4,a5,-1
	sb	a4,-17(s0)
	.loc 1 540 27
	bne	a5,zero,.L61
.L55:
	.loc 1 530 19
	ld	a5,-80(s0)
	ld	a4,-48(s0)
	bltu	a4,a5,.L62
	.loc 1 553 3
	ld	a5,-72(s0)
	mv	a0,a5
	call	FreePool@plt
	.loc 1 555 10
	lbu	a5,-49(s0)
.L63:
	.loc 1 556 1
	mv	a0,a5
	ld	ra,120(sp)
	.cfi_restore 1
	ld	s0,112(sp)
	.cfi_restore 8
	.cfi_def_cfa 2, 128
	addi	sp,sp,128
	.cfi_def_cfa_offset 0
	jr	ra
	.cfi_endproc
.LFE8:
	.size	RequiredDriver, .-RequiredDriver
	.section	.text.UiListThirdPartyDrivers,"ax",@progbits
	.align	1
	.globl	UiListThirdPartyDrivers
	.type	UiListThirdPartyDrivers, @function
UiListThirdPartyDrivers:
.LFB9:
	.loc 1 577 1
	.cfi_startproc
	addi	sp,sp,-160
	.cfi_def_cfa_offset 160
	sd	ra,152(sp)
	sd	s0,144(sp)
	sd	s1,136(sp)
	.cfi_offset 1, -8
	.cfi_offset 8, -16
	.cfi_offset 9, -24
	addi	s0,sp,160
	.cfi_def_cfa 8, 0
	sd	a0,-120(s0)
	sd	a1,-128(s0)
	sd	a2,-136(s0)
	sd	a3,-144(s0)
	.loc 1 590 22
	lla	a5,gHiiDriverList
	ld	a5,0(a5)
	.loc 1 590 6
	beq	a5,zero,.L65
	.loc 1 591 5
	lla	a5,gHiiDriverList
	ld	a5,0(a5)
	mv	a0,a5
	call	FreePool@plt
.L65:
	.loc 1 594 16
	li	a0,0
	call	HiiGetHiiHandles@plt
	sd	a0,-80(s0)
	.loc 1 597 20
	li	a0,224
	call	AllocateZeroPool@plt
	mv	a4,a0
	.loc 1 597 18 discriminator 1
	lla	a5,gHiiDriverList
	sd	a4,0(a5)
	.loc 1 599 17
	lla	a5,gHiiDriverList
	ld	a5,0(a5)
	sd	a5,-72(s0)
	.loc 1 600 15
	li	a5,8
	sd	a5,-64(s0)
	.loc 1 602 14
	sd	zero,-40(s0)
	.loc 1 602 25
	sd	zero,-56(s0)
	.loc 1 602 3
	j	.L66
.L74:
	.loc 1 603 36
	ld	a5,-40(s0)
	slli	a5,a5,3
	ld	a4,-80(s0)
	add	a5,a4,a5
	.loc 1 603 10
	ld	a0,0(a5)
	.loc 1 603 91
	lla	a5,gHiiDriverList
	ld	a3,0(a5)
	ld	a4,-56(s0)
	mv	a5,a4
	slli	a5,a5,3
	sub	a5,a5,a4
	slli	a5,a5,2
	add	a5,a3,a5
	.loc 1 603 76
	addi	a4,a5,8
	.loc 1 603 10
	addi	a3,s0,-92
	addi	a5,s0,-90
	mv	a2,a5
	ld	a1,-128(s0)
	call	RequiredDriver
	mv	a5,a0
	.loc 1 603 8 discriminator 1
	beq	a5,zero,.L79
	.loc 1 607 38
	ld	a5,-40(s0)
	slli	a5,a5,3
	ld	a4,-80(s0)
	add	a5,a4,a5
	.loc 1 607 14
	ld	a5,0(a5)
	lhu	a4,-90(s0)
	li	a2,0
	mv	a1,a4
	mv	a0,a5
	call	HiiGetString@plt
	sd	a0,-48(s0)
	.loc 1 608 8
	ld	a5,-48(s0)
	bne	a5,zero,.L69
	.loc 1 609 16
	la	a5,gStringPackHandle
	ld	a5,0(a5)
	li	a2,0
	li	a1,11
	mv	a0,a5
	call	HiiGetString@plt
	sd	a0,-48(s0)
	j	.L70
.L69:
	.loc 1 611 15
	ld	a5,-136(s0)
	beq	a5,zero,.L70
	.loc 1 615 22
	sb	zero,-105(s0)
	.loc 1 616 11
	addi	a3,s0,-105
	addi	a4,s0,-104
	ld	a5,-136(s0)
	mv	a2,a3
	mv	a1,a4
	ld	a0,-48(s0)
	jalr	a5
.LVL6:
	mv	a5,a0
	.loc 1 616 10 discriminator 1
	beq	a5,zero,.L70
	.loc 1 617 9
	ld	a0,-48(s0)
	call	FreePool@plt
	.loc 1 618 16
	ld	a5,-104(s0)
	sd	a5,-48(s0)
	.loc 1 619 22
	ld	a4,-56(s0)
	mv	a5,a4
	slli	a5,a5,3
	sub	a5,a5,a4
	slli	a5,a5,2
	mv	a4,a5
	ld	a5,-72(s0)
	add	a5,a5,a4
	.loc 1 619 45
	lbu	a4,-105(s0)
	sb	a4,24(a5)
.L70:
	.loc 1 623 18
	ld	a4,-56(s0)
	mv	a5,a4
	slli	a5,a5,3
	sub	a5,a5,a4
	slli	a5,a5,2
	mv	a4,a5
	ld	a5,-72(s0)
	add	s1,a5,a4
	.loc 1 623 37
	li	a3,0
	ld	a2,-48(s0)
	li	a1,0
	ld	a0,-120(s0)
	call	HiiSetString@plt
	mv	a5,a0
	.loc 1 623 35 discriminator 1
	sh	a5,0(s1)
	.loc 1 624 5
	ld	a0,-48(s0)
	call	FreePool@plt
	.loc 1 626 38
	ld	a5,-40(s0)
	slli	a5,a5,3
	ld	a4,-80(s0)
	add	a5,a4,a5
	.loc 1 626 14
	ld	a5,0(a5)
	lhu	a4,-92(s0)
	li	a2,0
	mv	a1,a4
	mv	a0,a5
	call	HiiGetString@plt
	sd	a0,-48(s0)
	.loc 1 627 8
	ld	a5,-48(s0)
	bne	a5,zero,.L71
	.loc 1 628 16
	la	a5,gStringPackHandle
	ld	a5,0(a5)
	li	a2,0
	li	a1,11
	mv	a0,a5
	call	HiiGetString@plt
	sd	a0,-48(s0)
.L71:
	.loc 1 632 18
	ld	a4,-56(s0)
	mv	a5,a4
	slli	a5,a5,3
	sub	a5,a5,a4
	slli	a5,a5,2
	mv	a4,a5
	ld	a5,-72(s0)
	add	s1,a5,a4
	.loc 1 632 35
	li	a3,0
	ld	a2,-48(s0)
	li	a1,0
	ld	a0,-120(s0)
	call	HiiSetString@plt
	mv	a5,a0
	.loc 1 632 33 discriminator 1
	sh	a5,2(s1)
	.loc 1 633 5
	ld	a0,-48(s0)
	call	FreePool@plt
	.loc 1 635 63
	ld	a5,-40(s0)
	slli	a5,a5,3
	ld	a4,-80(s0)
	add	a5,a4,a5
	.loc 1 635 21
	ld	a5,0(a5)
	mv	a0,a5
	call	ExtractDevicePathFromHiiHandle
	sd	a0,-88(s0)
	.loc 1 636 8
	ld	a5,-88(s0)
	beq	a5,zero,.L72
	.loc 1 637 20
	ld	a4,-56(s0)
	mv	a5,a4
	slli	a5,a5,3
	sub	a5,a5,a4
	slli	a5,a5,2
	mv	a4,a5
	ld	a5,-72(s0)
	add	s1,a5,a4
	.loc 1 637 43
	li	a3,0
	ld	a2,-88(s0)
	li	a1,0
	ld	a0,-120(s0)
	call	HiiSetString@plt
	mv	a5,a0
	.loc 1 637 41 discriminator 1
	sh	a5,4(s1)
	.loc 1 638 7
	ld	a0,-88(s0)
	call	FreePool@plt
	j	.L73
.L72:
	.loc 1 640 20
	ld	a4,-56(s0)
	mv	a5,a4
	slli	a5,a5,3
	sub	a5,a5,a4
	slli	a5,a5,2
	mv	a4,a5
	ld	a5,-72(s0)
	add	a5,a5,a4
	.loc 1 640 41
	sh	zero,4(a5)
.L73:
	.loc 1 643 10
	ld	a5,-56(s0)
	addi	a5,a5,1
	sd	a5,-56(s0)
	.loc 1 644 8
	ld	a4,-56(s0)
	ld	a5,-64(s0)
	bltu	a4,a5,.L68
	.loc 1 646 37
	ld	a4,-64(s0)
	mv	a5,a4
	slli	a5,a5,3
	sub	a5,a5,a4
	slli	a5,a5,2
	mv	a3,a5
	.loc 1 645 23
	ld	a4,-56(s0)
	mv	a5,a4
	slli	a5,a5,3
	sub	a5,a5,a4
	slli	a5,a5,2
	addi	a4,a5,224
	lla	a5,gHiiDriverList
	ld	a5,0(a5)
	mv	a2,a5
	mv	a1,a4
	mv	a0,a3
	call	ReallocatePool@plt
	sd	a0,-72(s0)
	.loc 1 652 22
	lla	a5,gHiiDriverList
	ld	a4,-72(s0)
	sd	a4,0(a5)
	.loc 1 653 19
	ld	a5,-64(s0)
	addi	a5,a5,8
	sd	a5,-64(s0)
	j	.L68
.L79:
	.loc 1 604 7
	nop
.L68:
	.loc 1 602 70 discriminator 2
	ld	a5,-40(s0)
	addi	a5,a5,1
	sd	a5,-40(s0)
.L66:
	.loc 1 602 40 discriminator 1
	ld	a5,-40(s0)
	slli	a5,a5,3
	ld	a4,-80(s0)
	add	a5,a4,a5
	ld	a5,0(a5)
	.loc 1 602 48 discriminator 1
	bne	a5,zero,.L74
	.loc 1 657 3
	ld	a0,-80(s0)
	call	FreePool@plt
	.loc 1 659 9
	sd	zero,-40(s0)
	.loc 1 660 9
	j	.L75
.L77:
	.loc 1 664 21
	lla	a5,gHiiDriverList
	ld	a3,0(a5)
	ld	a4,-40(s0)
	mv	a5,a4
	slli	a5,a5,3
	sub	a5,a5,a4
	slli	a5,a5,2
	add	a5,a3,a5
	.loc 1 661 5
	lhu	a2,0(a5)
	.loc 1 665 21
	lla	a5,gHiiDriverList
	ld	a3,0(a5)
	ld	a4,-40(s0)
	mv	a5,a4
	slli	a5,a5,3
	sub	a5,a5,a4
	slli	a5,a5,2
	add	a5,a3,a5
	.loc 1 661 5
	lhu	a1,2(a5)
	ld	a5,-40(s0)
	slli	a4,a5,48
	srli	a4,a4,48
	.loc 1 667 7
	li	a5,8192
	addw	a5,a4,a5
	slli	a0,a5,48
	srli	a0,a0,48
	.loc 1 669 22
	lla	a5,gHiiDriverList
	ld	a3,0(a5)
	ld	a4,-40(s0)
	mv	a5,a4
	slli	a5,a5,3
	sub	a5,a5,a4
	slli	a5,a5,2
	add	a5,a3,a5
	.loc 1 661 5
	addi	a6,a5,8
	.loc 1 670 21
	lla	a5,gHiiDriverList
	ld	a3,0(a5)
	ld	a4,-40(s0)
	mv	a5,a4
	slli	a5,a5,3
	sub	a5,a5,a4
	slli	a5,a5,2
	add	a5,a3,a5
	.loc 1 661 5
	lhu	a5,4(a5)
	sd	a5,0(sp)
	mv	a7,a6
	li	a6,0
	mv	a5,a0
	li	a4,0
	mv	a3,a1
	li	a1,0
	ld	a0,-144(s0)
	call	HiiCreateGotoExOpCode@plt
	.loc 1 673 23
	lla	a5,gHiiDriverList
	ld	a3,0(a5)
	ld	a4,-40(s0)
	mv	a5,a4
	slli	a5,a5,3
	sub	a5,a5,a4
	slli	a5,a5,2
	add	a5,a3,a5
	.loc 1 673 30
	lbu	a5,24(a5)
	.loc 1 673 8
	beq	a5,zero,.L76
	.loc 1 674 7
	ld	a1,-144(s0)
	ld	a0,-120(s0)
	call	UiCreateEmptyLine
.L76:
	.loc 1 677 10
	ld	a5,-40(s0)
	addi	a5,a5,1
	sd	a5,-40(s0)
.L75:
	.loc 1 660 24
	lla	a5,gHiiDriverList
	ld	a3,0(a5)
	ld	a4,-40(s0)
	mv	a5,a4
	slli	a5,a5,3
	sub	a5,a5,a4
	slli	a5,a5,2
	add	a5,a3,a5
	.loc 1 660 31
	lhu	a5,0(a5)
	.loc 1 660 41
	bne	a5,zero,.L77
	.loc 1 680 10
	li	a5,0
	.loc 1 681 1
	mv	a0,a5
	ld	ra,152(sp)
	.cfi_restore 1
	ld	s0,144(sp)
	.cfi_restore 8
	.cfi_def_cfa 2, 160
	ld	s1,136(sp)
	.cfi_restore 9
	addi	sp,sp,160
	.cfi_def_cfa_offset 0
	jr	ra
	.cfi_endproc
.LFE9:
	.size	UiListThirdPartyDrivers, .-UiListThirdPartyDrivers
	.text
.Letext0:
	.file 2 "/home/kapoagaeming/Downloads/spacemit-image-builder/components/edk2/MdePkg/Include/RiscV64/ProcessorBind.h"
	.file 3 "/home/kapoagaeming/Downloads/spacemit-image-builder/components/edk2/MdePkg/Include/Base.h"
	.file 4 "/home/kapoagaeming/Downloads/spacemit-image-builder/components/edk2/MdePkg/Include/Uefi/UefiBaseType.h"
	.file 5 "/home/kapoagaeming/Downloads/spacemit-image-builder/components/edk2/MdePkg/Include/Uefi/UefiMultiPhase.h"
	.file 6 "/home/kapoagaeming/Downloads/spacemit-image-builder/components/edk2/MdePkg/Include/Protocol/DevicePath.h"
	.file 7 "/home/kapoagaeming/Downloads/spacemit-image-builder/components/edk2/MdePkg/Include/Uefi/UefiSpec.h"
	.file 8 "/home/kapoagaeming/Downloads/spacemit-image-builder/components/edk2/MdePkg/Include/Uefi/UefiInternalFormRepresentation.h"
	.file 9 "/home/kapoagaeming/Downloads/spacemit-image-builder/components/Build/Milk-V-Jupiter/RELEASE_GCC5/RISCV64/MdeModulePkg/Application/UiApp/UiApp/DEBUG/AutoGen.h"
	.file 10 "/home/kapoagaeming/Downloads/spacemit-image-builder/components/edk2/MdePkg/Include/Protocol/FormBrowser2.h"
	.file 11 "/home/kapoagaeming/Downloads/spacemit-image-builder/components/edk2/MdePkg/Include/Protocol/HiiConfigAccess.h"
	.file 12 "/home/kapoagaeming/Downloads/spacemit-image-builder/components/edk2/MdePkg/Include/Protocol/HiiFont.h"
	.file 13 "/home/kapoagaeming/Downloads/spacemit-image-builder/components/edk2/MdePkg/Include/Protocol/HiiString.h"
	.file 14 "/home/kapoagaeming/Downloads/spacemit-image-builder/components/edk2/MdePkg/Include/Protocol/HiiDatabase.h"
	.file 15 "/home/kapoagaeming/Downloads/spacemit-image-builder/components/edk2/MdeModulePkg/Include/Library/UefiHiiServicesLib.h"
	.file 16 "/home/kapoagaeming/Downloads/spacemit-image-builder/components/edk2/MdePkg/Include/Library/UefiRuntimeServicesTableLib.h"
	.file 17 "/home/kapoagaeming/Downloads/spacemit-image-builder/components/edk2/MdePkg/Include/Library/UefiBootServicesTableLib.h"
	.file 18 "/home/kapoagaeming/Downloads/spacemit-image-builder/components/edk2/MdeModulePkg/Application/UiApp/FrontPageCustomizedUiSupport.h"
	.file 19 "/home/kapoagaeming/Downloads/spacemit-image-builder/components/edk2/MdeModulePkg/Include/Library/HiiLib.h"
	.file 20 "/home/kapoagaeming/Downloads/spacemit-image-builder/components/edk2/MdePkg/Include/Library/MemoryAllocationLib.h"
	.file 21 "/home/kapoagaeming/Downloads/spacemit-image-builder/components/edk2/MdePkg/Include/Library/BaseMemoryLib.h"
	.file 22 "/home/kapoagaeming/Downloads/spacemit-image-builder/components/edk2/MdePkg/Include/Library/DevicePathLib.h"
	.file 23 "/home/kapoagaeming/Downloads/spacemit-image-builder/components/edk2/MdePkg/Include/Library/BaseLib.h"
	.file 24 "/home/kapoagaeming/Downloads/spacemit-image-builder/components/edk2/MdePkg/Include/Library/UefiLib.h"
	.section	.note.GNU-stack,"",@progbits
