	.file	"String.c"
	.option pic
	.option norelax
	.attribute arch, "rv64i2p1_m2p0_a2p1_f2p2_d2p2_c2p0_zicsr2p0_zifencei2p0_zmmul1p0_zaamo1p0_zalrsc1p0_zca1p0_zcd1p0"
	.attribute unaligned_access, 0
	.attribute stack_align, 16
	.text
.Ltext0:
	.cfi_sections	.debug_frame
	.file 0 "/home/kapoagaeming/Downloads/spacemit-image-builder/components/Build/Milk-V-Jupiter/RELEASE_GCC5/RISCV64/MdeModulePkg/Application/UiApp/UiApp" "/home/kapoagaeming/Downloads/spacemit-image-builder/components/edk2/MdeModulePkg/Application/UiApp/String.c"
	.globl	gStringPackHandle
	.section	.bss.gStringPackHandle,"aw",@nobits
	.align	3
	.type	gStringPackHandle, @object
	.size	gStringPackHandle, 8
gStringPackHandle:
	.zero	8
	.globl	mUiStringPackGuid
	.section	.data.mUiStringPackGuid,"aw"
	.align	3
	.type	mUiStringPackGuid, @object
	.size	mUiStringPackGuid, 16
mUiStringPackGuid:
	.word	325726280
	.half	29994
	.half	19446
	.base64	"p1cJNhGVOO0="
	.globl	mFontPackageGuid
	.section	.data.mFontPackageGuid,"aw"
	.align	3
	.type	mFontPackageGuid, @object
	.size	mFontPackageGuid, 16
mFontPackageGuid:
	.word	2022970448
	.half	-28501
	.half	20401
	.base64	"t19YkhTiSgw="
	.globl	mFontBin
	.section	.data.mFontBin,"aw"
	.align	3
	.type	mFontBin, @object
	.size	mFontBin, 3488
mFontBin:
	.word	3488
	.byte	156
	.byte	13
	.byte	0
	.byte	7
	.half	8
	.half	0
	.half	1488
	.byte	0
	.base64	"AAAATm5iMjI8aExMRnZyAAAAAA=="
	.half	1489
	.byte	0
	.base64	"AAAAeHwMDAwMDAwMDH5+AAAAAA=="
	.half	1490
	.byte	0
	.base64	"AAAAeHwMDAwMDAwcPmZmAAAAAA=="
	.half	1491
	.byte	0
	.base64	"AAAAfn4MDAwMDAwMDAwMAAAAAA=="
	.half	1492
	.byte	0
	.base64	"AAAAfH4GBgYGZmZmZmZmAAAAAA=="
	.half	1493
	.byte	0
	.base64	"AAAAPDwMDAwMDAwMDAwMAAAAAA=="
	.half	1494
	.byte	0
	.base64	"AAAAODgeHhgYGBgYGBgYAAAAAA=="
	.half	0
	.byte	0
	.zero	19
	.zero	3300
	.section	.text.InitializeStringSupport,"ax",@progbits
	.align	1
	.globl	InitializeStringSupport
	.type	InitializeStringSupport, @function
InitializeStringSupport:
.LFB0:
	.file 1 "/home/kapoagaeming/Downloads/spacemit-image-builder/components/edk2/MdeModulePkg/Application/UiApp/String.c"
	.loc 1 261 1
	.cfi_startproc
	addi	sp,sp,-16
	.cfi_def_cfa_offset 16
	sd	ra,8(sp)
	sd	s0,0(sp)
	.cfi_offset 1, -8
	.cfi_offset 8, -16
	addi	s0,sp,16
	.cfi_def_cfa 8, 0
	.loc 1 262 23
	la	a5,gImageHandle
	ld	a5,0(a5)
	li	a3,0
	la	a2,UiAppStrings
	mv	a1,a5
	lla	a0,mUiStringPackGuid
	call	HiiAddPackages@plt
	mv	a4,a0
	.loc 1 262 21 discriminator 1
	lla	a5,gStringPackHandle
	sd	a4,0(a5)
	.loc 1 269 1
	nop
	ld	ra,8(sp)
	.cfi_restore 1
	ld	s0,0(sp)
	.cfi_restore 8
	.cfi_def_cfa 2, 16
	addi	sp,sp,16
	.cfi_def_cfa_offset 0
	jr	ra
	.cfi_endproc
.LFE0:
	.size	InitializeStringSupport, .-InitializeStringSupport
	.section	.text.UninitializeStringSupport,"ax",@progbits
	.align	1
	.globl	UninitializeStringSupport
	.type	UninitializeStringSupport, @function
UninitializeStringSupport:
.LFB1:
	.loc 1 279 1
	.cfi_startproc
	addi	sp,sp,-16
	.cfi_def_cfa_offset 16
	sd	ra,8(sp)
	sd	s0,0(sp)
	.cfi_offset 1, -8
	.cfi_offset 8, -16
	addi	s0,sp,16
	.cfi_def_cfa 8, 0
	.loc 1 280 3
	lla	a5,gStringPackHandle
	ld	a5,0(a5)
	mv	a0,a5
	call	HiiRemovePackages@plt
	.loc 1 281 1
	nop
	ld	ra,8(sp)
	.cfi_restore 1
	ld	s0,0(sp)
	.cfi_restore 8
	.cfi_def_cfa 2, 16
	addi	sp,sp,16
	.cfi_def_cfa_offset 0
	jr	ra
	.cfi_endproc
.LFE1:
	.size	UninitializeStringSupport, .-UninitializeStringSupport
	.section	.text.GetStringById,"ax",@progbits
	.align	1
	.globl	GetStringById
	.type	GetStringById, @function
GetStringById:
.LFB2:
	.loc 1 297 1
	.cfi_startproc
	addi	sp,sp,-32
	.cfi_def_cfa_offset 32
	sd	ra,24(sp)
	sd	s0,16(sp)
	.cfi_offset 1, -8
	.cfi_offset 8, -16
	addi	s0,sp,32
	.cfi_def_cfa 8, 0
	mv	a5,a0
	sh	a5,-18(s0)
	.loc 1 298 10
	lla	a5,gStringPackHandle
	ld	a5,0(a5)
	lhu	a4,-18(s0)
	li	a2,0
	mv	a1,a4
	mv	a0,a5
	call	HiiGetString@plt
	mv	a5,a0
	.loc 1 299 1
	mv	a0,a5
	ld	ra,24(sp)
	.cfi_restore 1
	ld	s0,16(sp)
	.cfi_restore 8
	.cfi_def_cfa 2, 32
	addi	sp,sp,32
	.cfi_def_cfa_offset 0
	jr	ra
	.cfi_endproc
.LFE2:
	.size	GetStringById, .-GetStringById
	.section	.text.ExportFonts,"ax",@progbits
	.align	1
	.globl	ExportFonts
	.type	ExportFonts, @function
ExportFonts:
.LFB3:
	.loc 1 309 1
	.cfi_startproc
	addi	sp,sp,-16
	.cfi_def_cfa_offset 16
	sd	ra,8(sp)
	sd	s0,0(sp)
	.cfi_offset 1, -8
	.cfi_offset 8, -16
	addi	s0,sp,16
	.cfi_def_cfa 8, 0
	.loc 1 310 10
	la	a5,gImageHandle
	ld	a5,0(a5)
	li	a3,0
	lla	a2,mFontBin
	mv	a1,a5
	lla	a0,mFontPackageGuid
	call	HiiAddPackages@plt
	mv	a5,a0
	.loc 1 316 1
	mv	a0,a5
	ld	ra,8(sp)
	.cfi_restore 1
	ld	s0,0(sp)
	.cfi_restore 8
	.cfi_def_cfa 2, 16
	addi	sp,sp,16
	.cfi_def_cfa_offset 0
	jr	ra
	.cfi_endproc
.LFE3:
	.size	ExportFonts, .-ExportFonts
	.text
.Letext0:
	.file 2 "/home/kapoagaeming/Downloads/spacemit-image-builder/components/edk2/MdePkg/Include/RiscV64/ProcessorBind.h"
	.file 3 "/home/kapoagaeming/Downloads/spacemit-image-builder/components/edk2/MdePkg/Include/Base.h"
	.file 4 "/home/kapoagaeming/Downloads/spacemit-image-builder/components/edk2/MdePkg/Include/Uefi/UefiBaseType.h"
	.file 5 "/home/kapoagaeming/Downloads/spacemit-image-builder/components/edk2/MdePkg/Include/Uefi/UefiInternalFormRepresentation.h"
	.file 6 "/home/kapoagaeming/Downloads/spacemit-image-builder/components/Build/Milk-V-Jupiter/RELEASE_GCC5/RISCV64/MdeModulePkg/Application/UiApp/UiApp/DEBUG/UiAppStrDefs.h"
	.file 7 "/home/kapoagaeming/Downloads/spacemit-image-builder/components/edk2/MdePkg/Include/Library/UefiBootServicesTableLib.h"
	.file 8 "/home/kapoagaeming/Downloads/spacemit-image-builder/components/edk2/MdeModulePkg/Application/UiApp/String.h"
	.file 9 "/home/kapoagaeming/Downloads/spacemit-image-builder/components/edk2/MdeModulePkg/Include/Library/HiiLib.h"
	.section	.note.GNU-stack,"",@progbits
