	.file	"DevicePathToText.c"
	.option pic
	.option norelax
	.attribute arch, "rv64i2p1_m2p0_a2p1_f2p2_d2p2_c2p0_zicsr2p0_zifencei2p0_zmmul1p0_zaamo1p0_zalrsc1p0_zca1p0_zcd1p0"
	.attribute unaligned_access, 0
	.attribute stack_align, 16
	.text
.Ltext0:
	.cfi_sections	.debug_frame
	.file 0 "/home/kapoagaeming/spacemit-image-builder/components/Build/Milk-V-Jupiter/RELEASE_GCC5/RISCV64/MdePkg/Library/UefiDevicePathLib/UefiDevicePathLib" "/home/kapoagaeming/spacemit-image-builder/components/edk2/MdePkg/Library/UefiDevicePathLib/DevicePathToText.c"
	.section	.text.UefiDevicePathLibCatPrint,"ax",@progbits
	.align	1
	.globl	UefiDevicePathLibCatPrint
	.type	UefiDevicePathLibCatPrint, @function
UefiDevicePathLibCatPrint:
.LFB0:
	.file 1 "/home/kapoagaeming/spacemit-image-builder/components/edk2/MdePkg/Library/UefiDevicePathLib/DevicePathToText.c"
	.loc 1 33 1
	.cfi_startproc
	addi	sp,sp,-112
	.cfi_def_cfa_offset 112
	sd	ra,56(sp)
	sd	s0,48(sp)
	.cfi_offset 1, -56
	.cfi_offset 8, -64
	addi	s0,sp,64
	.cfi_def_cfa 8, 48
	sd	a0,-40(s0)
	sd	a1,-48(s0)
	sd	a2,0(s0)
	sd	a3,8(s0)
	sd	a4,16(s0)
	sd	a5,24(s0)
	sd	a6,32(s0)
	sd	a7,40(s0)
	.loc 1 37 3
	addi	a5,s0,48
	sd	a5,-56(s0)
	ld	a5,-56(s0)
	addi	a5,a5,-48
	sd	a5,-32(s0)
	.loc 1 38 11
	ld	a5,-32(s0)
	mv	a1,a5
	ld	a0,-48(s0)
	call	SPrintLength@plt
	sd	a0,-24(s0)
	.loc 1 41 11
	ld	a5,-40(s0)
	ld	a4,8(a5)
	.loc 1 41 19
	ld	a5,-24(s0)
	add	a5,a4,a5
	addi	a5,a5,1
	.loc 1 41 34
	slli	a4,a5,1
	.loc 1 41 57
	ld	a5,-40(s0)
	ld	a5,16(a5)
	.loc 1 41 6
	bleu	a4,a5,.L2
	.loc 1 42 25
	ld	a5,-40(s0)
	ld	a4,8(a5)
	.loc 1 42 42
	ld	a5,-24(s0)
	addi	a5,a5,1
	.loc 1 42 47
	slli	a5,a5,1
	.loc 1 42 33
	add	a5,a4,a5
	.loc 1 42 52
	slli	a4,a5,1
	.loc 1 42 19
	ld	a5,-40(s0)
	sd	a4,16(a5)
	.loc 1 44 26
	ld	a5,-40(s0)
	ld	a5,8(a5)
	.loc 1 44 34
	slli	a4,a5,1
	.loc 1 43 16
	ld	a5,-40(s0)
	ld	a3,16(a5)
	.loc 1 46 26
	ld	a5,-40(s0)
	ld	a5,0(a5)
	.loc 1 43 16
	mv	a2,a5
	mv	a1,a3
	mv	a0,a4
	call	ReallocatePool@plt
	mv	a4,a0
	.loc 1 43 14 discriminator 1
	ld	a5,-40(s0)
	sd	a4,0(a5)
.L2:
	.loc 1 51 3
	addi	a5,s0,48
	sd	a5,-56(s0)
	ld	a5,-56(s0)
	addi	a5,a5,-48
	sd	a5,-32(s0)
	.loc 1 52 23
	ld	a5,-40(s0)
	ld	a4,0(a5)
	.loc 1 52 32
	ld	a5,-40(s0)
	ld	a5,8(a5)
	.loc 1 52 28
	slli	a5,a5,1
	.loc 1 52 3
	add	a0,a4,a5
	.loc 1 52 45
	ld	a5,-40(s0)
	ld	a4,16(a5)
	.loc 1 52 61
	ld	a5,-40(s0)
	ld	a5,8(a5)
	.loc 1 52 69
	slli	a5,a5,1
	.loc 1 52 56
	sub	a5,a4,a5
	.loc 1 52 3
	ld	a4,-32(s0)
	mv	a3,a4
	ld	a2,-48(s0)
	mv	a1,a5
	call	UnicodeVSPrint@plt
	.loc 1 53 6
	ld	a5,-40(s0)
	ld	a4,8(a5)
	.loc 1 53 14
	ld	a5,-24(s0)
	add	a4,a4,a5
	ld	a5,-40(s0)
	sd	a4,8(a5)
	.loc 1 56 13
	ld	a5,-40(s0)
	ld	a5,0(a5)
	.loc 1 57 1
	mv	a0,a5
	ld	ra,56(sp)
	.cfi_restore 1
	ld	s0,48(sp)
	.cfi_restore 8
	.cfi_def_cfa 2, 112
	addi	sp,sp,112
	.cfi_def_cfa_offset 0
	jr	ra
	.cfi_endproc
.LFE0:
	.size	UefiDevicePathLibCatPrint, .-UefiDevicePathLibCatPrint
	.section	.rodata
	.align	3
.LC0:
	.string	"P"
	.string	"c"
	.string	"i"
	.string	"("
	.string	"0"
	.string	"x"
	.string	"%"
	.string	"x"
	.string	","
	.string	"0"
	.string	"x"
	.string	"%"
	.string	"x"
	.string	")"
	.zero	2
	.section	.text.DevPathToTextPci,"ax",@progbits
	.align	1
	.globl	DevPathToTextPci
	.type	DevPathToTextPci, @function
DevPathToTextPci:
.LFB1:
	.loc 1 79 1
	.cfi_startproc
	addi	sp,sp,-64
	.cfi_def_cfa_offset 64
	sd	ra,56(sp)
	sd	s0,48(sp)
	.cfi_offset 1, -8
	.cfi_offset 8, -16
	addi	s0,sp,64
	.cfi_def_cfa 8, 0
	sd	a0,-40(s0)
	sd	a1,-48(s0)
	mv	a5,a2
	mv	a4,a3
	sb	a5,-49(s0)
	mv	a5,a4
	sb	a5,-50(s0)
	.loc 1 82 7
	ld	a5,-48(s0)
	sd	a5,-24(s0)
	.loc 1 83 57
	ld	a5,-24(s0)
	lbu	a5,5(a5)
	.loc 1 83 3
	sext.w	a4,a5
	.loc 1 83 70
	ld	a5,-24(s0)
	lbu	a5,4(a5)
	.loc 1 83 3
	sext.w	a5,a5
	mv	a3,a5
	mv	a2,a4
	lla	a1,.LC0
	ld	a0,-40(s0)
	call	UefiDevicePathLibCatPrint
	.loc 1 84 1
	nop
	ld	ra,56(sp)
	.cfi_restore 1
	ld	s0,48(sp)
	.cfi_restore 8
	.cfi_def_cfa 2, 64
	addi	sp,sp,64
	.cfi_def_cfa_offset 0
	jr	ra
	.cfi_endproc
.LFE1:
	.size	DevPathToTextPci, .-DevPathToTextPci
	.section	.rodata
	.align	3
.LC1:
	.string	"P"
	.string	"c"
	.string	"C"
	.string	"a"
	.string	"r"
	.string	"d"
	.string	"("
	.string	"0"
	.string	"x"
	.string	"%"
	.string	"x"
	.string	")"
	.zero	2
	.section	.text.DevPathToTextPccard,"ax",@progbits
	.align	1
	.globl	DevPathToTextPccard
	.type	DevPathToTextPccard, @function
DevPathToTextPccard:
.LFB2:
	.loc 1 106 1
	.cfi_startproc
	addi	sp,sp,-64
	.cfi_def_cfa_offset 64
	sd	ra,56(sp)
	sd	s0,48(sp)
	.cfi_offset 1, -8
	.cfi_offset 8, -16
	addi	s0,sp,64
	.cfi_def_cfa 8, 0
	sd	a0,-40(s0)
	sd	a1,-48(s0)
	mv	a5,a2
	mv	a4,a3
	sb	a5,-49(s0)
	mv	a5,a4
	sb	a5,-50(s0)
	.loc 1 109 10
	ld	a5,-48(s0)
	sd	a5,-24(s0)
	.loc 1 110 58
	ld	a5,-24(s0)
	lbu	a5,4(a5)
	.loc 1 110 3
	sext.w	a5,a5
	mv	a2,a5
	lla	a1,.LC1
	ld	a0,-40(s0)
	call	UefiDevicePathLibCatPrint
	.loc 1 111 1
	nop
	ld	ra,56(sp)
	.cfi_restore 1
	ld	s0,48(sp)
	.cfi_restore 8
	.cfi_def_cfa 2, 64
	addi	sp,sp,64
	.cfi_def_cfa_offset 0
	jr	ra
	.cfi_endproc
.LFE2:
	.size	DevPathToTextPccard, .-DevPathToTextPccard
	.section	.rodata
	.align	3
.LC2:
	.string	"M"
	.string	"e"
	.string	"m"
	.string	"o"
	.string	"r"
	.string	"y"
	.string	"M"
	.string	"a"
	.string	"p"
	.string	"p"
	.string	"e"
	.string	"d"
	.string	"("
	.string	"0"
	.string	"x"
	.string	"%"
	.string	"x"
	.string	","
	.string	"0"
	.string	"x"
	.string	"%"
	.string	"l"
	.string	"x"
	.string	","
	.string	"0"
	.string	"x"
	.string	"%"
	.string	"l"
	.string	"x"
	.string	")"
	.zero	2
	.section	.text.DevPathToTextMemMap,"ax",@progbits
	.align	1
	.globl	DevPathToTextMemMap
	.type	DevPathToTextMemMap, @function
DevPathToTextMemMap:
.LFB3:
	.loc 1 133 1
	.cfi_startproc
	addi	sp,sp,-64
	.cfi_def_cfa_offset 64
	sd	ra,56(sp)
	sd	s0,48(sp)
	.cfi_offset 1, -8
	.cfi_offset 8, -16
	addi	s0,sp,64
	.cfi_def_cfa 8, 0
	sd	a0,-40(s0)
	sd	a1,-48(s0)
	mv	a5,a2
	mv	a4,a3
	sb	a5,-49(s0)
	mv	a5,a4
	sb	a5,-50(s0)
	.loc 1 136 10
	ld	a5,-48(s0)
	sd	a5,-24(s0)
	.loc 1 137 3
	ld	a5,-24(s0)
	lbu	a4,4(a5)
	lbu	a3,5(a5)
	slli	a3,a3,8
	or	a4,a3,a4
	lbu	a3,6(a5)
	slli	a3,a3,16
	or	a4,a3,a4
	lbu	a5,7(a5)
	slli	a5,a5,24
	or	a5,a5,a4
	sext.w	a2,a5
	ld	a5,-24(s0)
	lbu	a4,8(a5)
	lbu	a3,9(a5)
	slli	a3,a3,8
	or	a4,a3,a4
	lbu	a3,10(a5)
	slli	a3,a3,16
	or	a4,a3,a4
	lbu	a3,11(a5)
	slli	a3,a3,24
	or	a4,a3,a4
	lbu	a3,12(a5)
	slli	a3,a3,32
	or	a4,a3,a4
	lbu	a3,13(a5)
	slli	a3,a3,40
	or	a4,a3,a4
	lbu	a3,14(a5)
	slli	a3,a3,48
	or	a4,a3,a4
	lbu	a5,15(a5)
	slli	a5,a5,56
	or	a5,a5,a4
	mv	a1,a5
	ld	a5,-24(s0)
	lbu	a4,16(a5)
	lbu	a3,17(a5)
	slli	a3,a3,8
	or	a4,a3,a4
	lbu	a3,18(a5)
	slli	a3,a3,16
	or	a4,a3,a4
	lbu	a3,19(a5)
	slli	a3,a3,24
	or	a4,a3,a4
	lbu	a3,20(a5)
	slli	a3,a3,32
	or	a4,a3,a4
	lbu	a3,21(a5)
	slli	a3,a3,40
	or	a4,a3,a4
	lbu	a3,22(a5)
	slli	a3,a3,48
	or	a4,a3,a4
	lbu	a5,23(a5)
	slli	a5,a5,56
	or	a5,a5,a4
	mv	a4,a5
	mv	a3,a1
	lla	a1,.LC2
	ld	a0,-40(s0)
	call	UefiDevicePathLibCatPrint
	.loc 1 144 1
	nop
	ld	ra,56(sp)
	.cfi_restore 1
	ld	s0,48(sp)
	.cfi_restore 8
	.cfi_def_cfa 2, 64
	addi	sp,sp,64
	.cfi_def_cfa_offset 0
	jr	ra
	.cfi_endproc
.LFE3:
	.size	DevPathToTextMemMap, .-DevPathToTextMemMap
	.section	.rodata
	.align	3
.LC3:
	.string	"H"
	.string	"w"
	.zero	2
	.align	3
.LC4:
	.string	"M"
	.string	"s"
	.string	"g"
	.zero	2
	.align	3
.LC5:
	.string	"V"
	.string	"e"
	.string	"n"
	.string	"P"
	.string	"c"
	.string	"A"
	.string	"n"
	.string	"s"
	.string	"i"
	.string	"("
	.string	")"
	.zero	2
	.align	3
.LC6:
	.string	"V"
	.string	"e"
	.string	"n"
	.string	"V"
	.string	"t"
	.string	"1"
	.string	"0"
	.string	"0"
	.string	"("
	.string	")"
	.zero	2
	.align	3
.LC7:
	.string	"V"
	.string	"e"
	.string	"n"
	.string	"V"
	.string	"t"
	.string	"1"
	.string	"0"
	.string	"0"
	.string	"P"
	.string	"l"
	.string	"u"
	.string	"s"
	.string	"("
	.string	")"
	.zero	2
	.align	3
.LC8:
	.string	"V"
	.string	"e"
	.string	"n"
	.string	"U"
	.string	"t"
	.string	"f"
	.string	"8"
	.string	"("
	.string	")"
	.zero	2
	.align	3
.LC9:
	.string	"N"
	.string	"o"
	.string	"n"
	.string	"e"
	.zero	2
	.align	3
.LC10:
	.string	"U"
	.string	"a"
	.string	"r"
	.string	"t"
	.string	"F"
	.string	"l"
	.string	"o"
	.string	"w"
	.string	"C"
	.string	"t"
	.string	"r"
	.string	"l"
	.string	"("
	.string	"%"
	.string	"s"
	.string	")"
	.zero	2
	.align	3
.LC11:
	.string	"H"
	.string	"a"
	.string	"r"
	.string	"d"
	.string	"w"
	.string	"a"
	.string	"r"
	.string	"e"
	.zero	2
	.align	3
.LC12:
	.string	"X"
	.string	"o"
	.string	"n"
	.string	"X"
	.string	"o"
	.string	"f"
	.string	"f"
	.zero	2
	.align	3
.LC13:
	.string	"S"
	.string	"A"
	.string	"S"
	.string	"("
	.string	"0"
	.string	"x"
	.string	"%"
	.string	"l"
	.string	"x"
	.string	","
	.string	"0"
	.string	"x"
	.string	"%"
	.string	"l"
	.string	"x"
	.string	","
	.string	"0"
	.string	"x"
	.string	"%"
	.string	"x"
	.string	","
	.zero	2
	.align	3
.LC14:
	.string	"N"
	.string	"o"
	.string	"T"
	.string	"o"
	.string	"p"
	.string	"o"
	.string	"l"
	.string	"o"
	.string	"g"
	.string	"y"
	.string	","
	.string	"0"
	.string	","
	.string	"0"
	.string	","
	.string	"0"
	.string	","
	.zero	2
	.align	3
.LC15:
	.string	"S"
	.string	"A"
	.string	"T"
	.string	"A"
	.zero	2
	.align	3
.LC16:
	.string	"S"
	.string	"A"
	.string	"S"
	.zero	2
	.align	3
.LC17:
	.string	"E"
	.string	"x"
	.string	"t"
	.string	"e"
	.string	"r"
	.string	"n"
	.string	"a"
	.string	"l"
	.zero	2
	.align	3
.LC18:
	.string	"I"
	.string	"n"
	.string	"t"
	.string	"e"
	.string	"r"
	.string	"n"
	.string	"a"
	.string	"l"
	.zero	2
	.align	3
.LC19:
	.string	"E"
	.string	"x"
	.string	"p"
	.string	"a"
	.string	"n"
	.string	"d"
	.string	"e"
	.string	"d"
	.zero	2
	.align	3
.LC20:
	.string	"D"
	.string	"i"
	.string	"r"
	.string	"e"
	.string	"c"
	.string	"t"
	.zero	2
	.align	3
.LC21:
	.string	"%"
	.string	"s"
	.string	","
	.string	"%"
	.string	"s"
	.string	","
	.string	"%"
	.string	"s"
	.string	","
	.zero	2
	.align	3
.LC22:
	.string	"0"
	.string	","
	.zero	2
	.align	3
.LC23:
	.string	"0"
	.string	"x"
	.string	"%"
	.string	"x"
	.string	","
	.zero	2
	.align	3
.LC24:
	.string	"0"
	.string	"x"
	.string	"%"
	.string	"x"
	.string	","
	.string	"0"
	.string	","
	.string	"0"
	.string	","
	.string	"0"
	.string	","
	.zero	2
	.align	3
.LC25:
	.string	"0"
	.string	"x"
	.string	"%"
	.string	"x"
	.string	")"
	.zero	2
	.align	3
.LC26:
	.string	"D"
	.string	"e"
	.string	"b"
	.string	"u"
	.string	"g"
	.string	"P"
	.string	"o"
	.string	"r"
	.string	"t"
	.string	"("
	.string	")"
	.zero	2
	.align	3
.LC27:
	.string	"M"
	.string	"e"
	.string	"d"
	.string	"i"
	.string	"a"
	.zero	2
	.align	3
.LC28:
	.string	"?"
	.zero	2
	.align	3
.LC29:
	.string	"V"
	.string	"e"
	.string	"n"
	.string	"%"
	.string	"s"
	.string	"("
	.string	"%"
	.string	"g"
	.zero	2
	.align	3
.LC30:
	.string	","
	.zero	2
	.align	3
.LC31:
	.string	"%"
	.string	"0"
	.string	"2"
	.string	"x"
	.zero	2
	.align	3
.LC32:
	.string	")"
	.zero	2
	.section	.text.DevPathToTextVendor,"ax",@progbits
	.align	1
	.globl	DevPathToTextVendor
	.type	DevPathToTextVendor, @function
DevPathToTextVendor:
.LFB4:
	.loc 1 166 1
	.cfi_startproc
	addi	sp,sp,-96
	.cfi_def_cfa_offset 96
	sd	ra,88(sp)
	sd	s0,80(sp)
	.cfi_offset 1, -8
	.cfi_offset 8, -16
	addi	s0,sp,96
	.cfi_def_cfa 8, 0
	sd	a0,-72(s0)
	sd	a1,-80(s0)
	mv	a5,a2
	mv	a4,a3
	sb	a5,-81(s0)
	mv	a5,a4
	sb	a5,-82(s0)
	.loc 1 174 10
	ld	a5,-80(s0)
	sd	a5,-40(s0)
	.loc 1 175 27
	ld	a5,-40(s0)
	.loc 1 175 11
	mv	a0,a5
	call	DevicePathType@plt
	mv	a5,a0
	.loc 1 175 11 is_stmt 0 discriminator 1
	sext.w	a5,a5
	.loc 1 175 3 is_stmt 1 discriminator 1
	li	a4,4
	beq	a5,a4,.L8
	li	a4,4
	bgt	a5,a4,.L9
	li	a4,1
	beq	a5,a4,.L10
	li	a4,3
	beq	a5,a4,.L11
	j	.L9
.L10:
	.loc 1 177 12
	lla	a5,.LC3
	sd	a5,-24(s0)
	.loc 1 178 7
	j	.L12
.L11:
	.loc 1 181 12
	lla	a5,.LC4
	sd	a5,-24(s0)
	.loc 1 182 10
	lbu	a5,-82(s0)
	andi	a5,a5,0xff
	beq	a5,zero,.L40
	.loc 1 183 26
	ld	a5,-40(s0)
	addi	a5,a5,4
	.loc 1 183 13
	la	a1,gEfiPcAnsiGuid
	mv	a0,a5
	call	CompareGuid@plt
	mv	a5,a0
	.loc 1 183 12 discriminator 1
	beq	a5,zero,.L14
	.loc 1 184 11
	lla	a1,.LC5
	ld	a0,-72(s0)
	call	UefiDevicePathLibCatPrint
	.loc 1 185 11
	j	.L7
.L14:
	.loc 1 186 33
	ld	a5,-40(s0)
	addi	a5,a5,4
	.loc 1 186 20
	la	a1,gEfiVT100Guid
	mv	a0,a5
	call	CompareGuid@plt
	mv	a5,a0
	.loc 1 186 19 discriminator 1
	beq	a5,zero,.L16
	.loc 1 187 11
	lla	a1,.LC6
	ld	a0,-72(s0)
	call	UefiDevicePathLibCatPrint
	.loc 1 188 11
	j	.L7
.L16:
	.loc 1 189 33
	ld	a5,-40(s0)
	addi	a5,a5,4
	.loc 1 189 20
	la	a1,gEfiVT100PlusGuid
	mv	a0,a5
	call	CompareGuid@plt
	mv	a5,a0
	.loc 1 189 19 discriminator 1
	beq	a5,zero,.L17
	.loc 1 190 11
	lla	a1,.LC7
	ld	a0,-72(s0)
	call	UefiDevicePathLibCatPrint
	.loc 1 191 11
	j	.L7
.L17:
	.loc 1 192 33
	ld	a5,-40(s0)
	addi	a5,a5,4
	.loc 1 192 20
	la	a1,gEfiVTUTF8Guid
	mv	a0,a5
	call	CompareGuid@plt
	mv	a5,a0
	.loc 1 192 19 discriminator 1
	beq	a5,zero,.L18
	.loc 1 193 11
	lla	a1,.LC8
	ld	a0,-72(s0)
	call	UefiDevicePathLibCatPrint
	.loc 1 194 11
	j	.L7
.L18:
	.loc 1 195 33
	ld	a5,-40(s0)
	addi	a5,a5,4
	.loc 1 195 20
	la	a1,gEfiUartDevicePathGuid
	mv	a0,a5
	call	CompareGuid@plt
	mv	a5,a0
	.loc 1 195 19 discriminator 1
	beq	a5,zero,.L19
	.loc 1 196 26
	ld	a5,-40(s0)
	lbu	a4,20(a5)
	lbu	a3,21(a5)
	slli	a3,a3,8
	or	a4,a3,a4
	lbu	a3,22(a5)
	slli	a3,a3,16
	or	a4,a3,a4
	lbu	a5,23(a5)
	slli	a5,a5,24
	or	a5,a5,a4
	sw	a5,-48(s0)
	.loc 1 197 34
	lw	a5,-48(s0)
	andi	a5,a5,3
	sext.w	a5,a5
	.loc 1 197 11
	li	a4,2
	beq	a5,a4,.L20
	li	a4,2
	bgtu	a5,a4,.L41
	beq	a5,zero,.L22
	li	a4,1
	beq	a5,a4,.L23
	.loc 1 211 15
	j	.L41
.L22:
	.loc 1 199 15
	lla	a2,.LC9
	lla	a1,.LC10
	ld	a0,-72(s0)
	call	UefiDevicePathLibCatPrint
	.loc 1 200 15
	j	.L24
.L23:
	.loc 1 203 15
	lla	a2,.LC11
	lla	a1,.LC10
	ld	a0,-72(s0)
	call	UefiDevicePathLibCatPrint
	.loc 1 204 15
	j	.L24
.L20:
	.loc 1 207 15
	lla	a2,.LC12
	lla	a1,.LC10
	ld	a0,-72(s0)
	call	UefiDevicePathLibCatPrint
	.loc 1 208 15
	j	.L24
.L41:
	.loc 1 211 15
	nop
.L24:
	.loc 1 214 11
	j	.L7
.L19:
	.loc 1 215 33
	ld	a5,-40(s0)
	addi	a5,a5,4
	.loc 1 215 20
	la	a1,gEfiSasDevicePathGuid
	mv	a0,a5
	call	CompareGuid@plt
	mv	a5,a0
	.loc 1 215 19 discriminator 1
	beq	a5,zero,.L25
	.loc 1 216 11
	ld	a5,-40(s0)
	lbu	a4,24(a5)
	lbu	a3,25(a5)
	slli	a3,a3,8
	or	a4,a3,a4
	lbu	a3,26(a5)
	slli	a3,a3,16
	or	a4,a3,a4
	lbu	a3,27(a5)
	slli	a3,a3,24
	or	a4,a3,a4
	lbu	a3,28(a5)
	slli	a3,a3,32
	or	a4,a3,a4
	lbu	a3,29(a5)
	slli	a3,a3,40
	or	a4,a3,a4
	lbu	a3,30(a5)
	slli	a3,a3,48
	or	a4,a3,a4
	lbu	a5,31(a5)
	slli	a5,a5,56
	or	a5,a5,a4
	mv	a2,a5
	ld	a5,-40(s0)
	lbu	a4,32(a5)
	lbu	a3,33(a5)
	slli	a3,a3,8
	or	a4,a3,a4
	lbu	a3,34(a5)
	slli	a3,a3,16
	or	a4,a3,a4
	lbu	a3,35(a5)
	slli	a3,a3,24
	or	a4,a3,a4
	lbu	a3,36(a5)
	slli	a3,a3,32
	or	a4,a3,a4
	lbu	a3,37(a5)
	slli	a3,a3,40
	or	a4,a3,a4
	lbu	a3,38(a5)
	slli	a3,a3,48
	or	a4,a3,a4
	lbu	a5,39(a5)
	slli	a5,a5,56
	or	a5,a5,a4
	mv	a3,a5
	.loc 1 221 40
	ld	a5,-40(s0)
	lbu	a4,42(a5)
	lbu	a5,43(a5)
	slli	a5,a5,8
	or	a5,a5,a4
	slli	a5,a5,48
	srli	a5,a5,48
	.loc 1 216 11
	sext.w	a5,a5
	mv	a4,a5
	lla	a1,.LC13
	ld	a0,-72(s0)
	call	UefiDevicePathLibCatPrint
	.loc 1 223 16
	ld	a5,-40(s0)
	lbu	a4,40(a5)
	lbu	a5,41(a5)
	slli	a5,a5,8
	or	a5,a5,a4
	sh	a5,-42(s0)
	.loc 1 224 22
	lhu	a5,-42(s0)
	sext.w	a5,a5
	andi	a5,a5,15
	sext.w	a5,a5
	.loc 1 224 14
	bne	a5,zero,.L26
	.loc 1 224 46 discriminator 1
	lhu	a5,-42(s0)
	sext.w	a5,a5
	andi	a5,a5,128
	sext.w	a5,a5
	.loc 1 224 36 discriminator 1
	bne	a5,zero,.L26
	.loc 1 225 13
	lla	a1,.LC14
	ld	a0,-72(s0)
	call	UefiDevicePathLibCatPrint
	j	.L27
.L26:
	.loc 1 226 29
	lhu	a5,-42(s0)
	sext.w	a5,a5
	andi	a5,a5,15
	sext.w	a4,a5
	.loc 1 226 21
	li	a5,2
	bgt	a4,a5,.L28
	.loc 1 226 53 discriminator 1
	lhu	a5,-42(s0)
	sext.w	a5,a5
	andi	a5,a5,128
	sext.w	a5,a5
	.loc 1 226 43 discriminator 1
	bne	a5,zero,.L28
	.loc 1 230 22
	lhu	a5,-42(s0)
	sext.w	a5,a5
	andi	a5,a5,16
	sext.w	a5,a5
	.loc 1 227 13
	beq	a5,zero,.L29
	.loc 1 227 13 is_stmt 0 discriminator 1
	lla	a5,.LC15
	j	.L30
.L29:
	.loc 1 227 13 discriminator 2
	lla	a5,.LC16
.L30:
	.loc 1 231 22 is_stmt 1
	lhu	a4,-42(s0)
	sext.w	a4,a4
	andi	a4,a4,32
	sext.w	a4,a4
	.loc 1 227 13 discriminator 4
	beq	a4,zero,.L31
	.loc 1 227 13 is_stmt 0 discriminator 5
	lla	a3,.LC17
	j	.L32
.L31:
	.loc 1 227 13 discriminator 6
	lla	a3,.LC18
.L32:
	.loc 1 232 22 is_stmt 1
	lhu	a4,-42(s0)
	sext.w	a4,a4
	andi	a4,a4,64
	sext.w	a4,a4
	.loc 1 227 13 discriminator 8
	beq	a4,zero,.L33
	.loc 1 227 13 is_stmt 0 discriminator 9
	lla	a4,.LC19
	j	.L34
.L33:
	.loc 1 227 13 discriminator 10
	lla	a4,.LC20
.L34:
	.loc 1 227 13 discriminator 12
	mv	a2,a5
	lla	a1,.LC21
	ld	a0,-72(s0)
	call	UefiDevicePathLibCatPrint
	.loc 1 234 23 is_stmt 1
	lhu	a5,-42(s0)
	sext.w	a5,a5
	andi	a5,a5,15
	sext.w	a4,a5
	.loc 1 234 16
	li	a5,1
	bne	a4,a5,.L35
	.loc 1 235 15
	lla	a1,.LC22
	ld	a0,-72(s0)
	call	UefiDevicePathLibCatPrint
	.loc 1 234 16
	j	.L27
.L35:
	.loc 1 240 70
	lhu	a5,-42(s0)
	srliw	a5,a5,8
	slli	a5,a5,48
	srli	a5,a5,48
	sext.w	a5,a5
	andi	a5,a5,255
	sext.w	a5,a5
	.loc 1 240 15
	addiw	a5,a5,1
	sext.w	a5,a5
	mv	a2,a5
	lla	a1,.LC23
	ld	a0,-72(s0)
	call	UefiDevicePathLibCatPrint
	.loc 1 234 16
	j	.L27
.L28:
	.loc 1 243 13
	lhu	a5,-42(s0)
	sext.w	a5,a5
	mv	a2,a5
	lla	a1,.LC24
	ld	a0,-72(s0)
	call	UefiDevicePathLibCatPrint
.L27:
	.loc 1 246 11
	ld	a5,-40(s0)
	lbu	a4,20(a5)
	lbu	a3,21(a5)
	slli	a3,a3,8
	or	a4,a3,a4
	lbu	a3,22(a5)
	slli	a3,a3,16
	or	a4,a3,a4
	lbu	a5,23(a5)
	slli	a5,a5,24
	or	a5,a5,a4
	sext.w	a5,a5
	mv	a2,a5
	lla	a1,.LC25
	ld	a0,-72(s0)
	call	UefiDevicePathLibCatPrint
	.loc 1 247 11
	j	.L7
.L25:
	.loc 1 248 33
	ld	a5,-40(s0)
	addi	a5,a5,4
	.loc 1 248 20
	la	a1,gEfiDebugPortProtocolGuid
	mv	a0,a5
	call	CompareGuid@plt
	mv	a5,a0
	.loc 1 248 19 discriminator 1
	beq	a5,zero,.L40
	.loc 1 249 11
	lla	a1,.LC26
	ld	a0,-72(s0)
	call	UefiDevicePathLibCatPrint
	.loc 1 250 11
	j	.L7
.L8:
	.loc 1 257 12
	lla	a5,.LC27
	sd	a5,-24(s0)
	.loc 1 258 7
	j	.L12
.L9:
	.loc 1 261 12
	lla	a5,.LC28
	sd	a5,-24(s0)
	.loc 1 262 7
	j	.L12
.L40:
	.loc 1 254 7
	nop
.L12:
	.loc 1 265 38
	ld	a5,-40(s0)
	.loc 1 265 16
	mv	a0,a5
	call	DevicePathNodeLength@plt
	mv	a5,a0
	.loc 1 265 14 discriminator 1
	addi	a5,a5,-20
	sd	a5,-56(s0)
	.loc 1 266 3
	ld	a5,-40(s0)
	addi	a5,a5,4
	mv	a3,a5
	ld	a2,-24(s0)
	lla	a1,.LC29
	ld	a0,-72(s0)
	call	UefiDevicePathLibCatPrint
	.loc 1 267 6
	ld	a5,-56(s0)
	beq	a5,zero,.L37
	.loc 1 268 5
	lla	a1,.LC30
	ld	a0,-72(s0)
	call	UefiDevicePathLibCatPrint
	.loc 1 269 16
	sd	zero,-32(s0)
	.loc 1 269 5
	j	.L38
.L39:
	.loc 1 270 107
	ld	a4,-40(s0)
	ld	a5,-32(s0)
	add	a5,a4,a5
	lbu	a5,20(a5)
	.loc 1 270 7
	sext.w	a5,a5
	mv	a2,a5
	lla	a1,.LC31
	ld	a0,-72(s0)
	call	UefiDevicePathLibCatPrint
	.loc 1 269 46 discriminator 3
	ld	a5,-32(s0)
	addi	a5,a5,1
	sd	a5,-32(s0)
.L38:
	.loc 1 269 27 discriminator 1
	ld	a4,-32(s0)
	ld	a5,-56(s0)
	bltu	a4,a5,.L39
.L37:
	.loc 1 274 3
	lla	a1,.LC32
	ld	a0,-72(s0)
	call	UefiDevicePathLibCatPrint
.L7:
	.loc 1 275 1
	ld	ra,88(sp)
	.cfi_restore 1
	ld	s0,80(sp)
	.cfi_restore 8
	.cfi_def_cfa 2, 96
	addi	sp,sp,96
	.cfi_def_cfa_offset 0
	jr	ra
	.cfi_endproc
.LFE4:
	.size	DevPathToTextVendor, .-DevPathToTextVendor
	.section	.rodata
	.align	3
.LC33:
	.string	"C"
	.string	"t"
	.string	"r"
	.string	"l"
	.string	"("
	.string	"0"
	.string	"x"
	.string	"%"
	.string	"x"
	.string	")"
	.zero	2
	.section	.text.DevPathToTextController,"ax",@progbits
	.align	1
	.globl	DevPathToTextController
	.type	DevPathToTextController, @function
DevPathToTextController:
.LFB5:
	.loc 1 297 1
	.cfi_startproc
	addi	sp,sp,-64
	.cfi_def_cfa_offset 64
	sd	ra,56(sp)
	sd	s0,48(sp)
	.cfi_offset 1, -8
	.cfi_offset 8, -16
	addi	s0,sp,64
	.cfi_def_cfa 8, 0
	sd	a0,-40(s0)
	sd	a1,-48(s0)
	mv	a5,a2
	mv	a4,a3
	sb	a5,-49(s0)
	mv	a5,a4
	sb	a5,-50(s0)
	.loc 1 300 14
	ld	a5,-48(s0)
	sd	a5,-24(s0)
	.loc 1 301 3
	ld	a5,-24(s0)
	lbu	a4,4(a5)
	lbu	a3,5(a5)
	slli	a3,a3,8
	or	a4,a3,a4
	lbu	a3,6(a5)
	slli	a3,a3,16
	or	a4,a3,a4
	lbu	a5,7(a5)
	slli	a5,a5,24
	or	a5,a5,a4
	sext.w	a5,a5
	mv	a2,a5
	lla	a1,.LC33
	ld	a0,-40(s0)
	call	UefiDevicePathLibCatPrint
	.loc 1 306 1
	nop
	ld	ra,56(sp)
	.cfi_restore 1
	ld	s0,48(sp)
	.cfi_restore 8
	.cfi_def_cfa 2, 64
	addi	sp,sp,64
	.cfi_def_cfa_offset 0
	jr	ra
	.cfi_endproc
.LFE5:
	.size	DevPathToTextController, .-DevPathToTextController
	.section	.rodata
	.align	3
.LC34:
	.string	"B"
	.string	"M"
	.string	"C"
	.string	"("
	.string	"0"
	.string	"x"
	.string	"%"
	.string	"x"
	.string	","
	.string	"0"
	.string	"x"
	.string	"%"
	.string	"l"
	.string	"x"
	.string	")"
	.zero	2
	.section	.text.DevPathToTextBmc,"ax",@progbits
	.align	1
	.globl	DevPathToTextBmc
	.type	DevPathToTextBmc, @function
DevPathToTextBmc:
.LFB6:
	.loc 1 328 1
	.cfi_startproc
	addi	sp,sp,-80
	.cfi_def_cfa_offset 80
	sd	ra,72(sp)
	sd	s0,64(sp)
	sd	s1,56(sp)
	.cfi_offset 1, -8
	.cfi_offset 8, -16
	.cfi_offset 9, -24
	addi	s0,sp,80
	.cfi_def_cfa 8, 0
	sd	a0,-56(s0)
	sd	a1,-64(s0)
	mv	a5,a2
	mv	a4,a3
	sb	a5,-65(s0)
	mv	a5,a4
	sb	a5,-66(s0)
	.loc 1 331 7
	ld	a5,-64(s0)
	sd	a5,-40(s0)
	.loc 1 335 8
	ld	a5,-40(s0)
	lbu	a5,4(a5)
	.loc 1 332 3
	sext.w	s1,a5
	.loc 1 336 33
	ld	a5,-40(s0)
	addi	a5,a5,5
	.loc 1 332 3
	mv	a0,a5
	call	ReadUnaligned64@plt
	mv	a5,a0
	.loc 1 332 3 is_stmt 0 discriminator 1
	mv	a3,a5
	mv	a2,s1
	lla	a1,.LC34
	ld	a0,-56(s0)
	call	UefiDevicePathLibCatPrint
	.loc 1 338 1 is_stmt 1
	nop
	ld	ra,72(sp)
	.cfi_restore 1
	ld	s0,64(sp)
	.cfi_restore 8
	.cfi_def_cfa 2, 80
	ld	s1,56(sp)
	.cfi_restore 9
	addi	sp,sp,80
	.cfi_def_cfa_offset 0
	jr	ra
	.cfi_endproc
.LFE6:
	.size	DevPathToTextBmc, .-DevPathToTextBmc
	.section	.rodata
	.align	3
.LC35:
	.string	"P"
	.string	"c"
	.string	"i"
	.string	"R"
	.string	"o"
	.string	"o"
	.string	"t"
	.string	"("
	.string	"0"
	.string	"x"
	.string	"%"
	.string	"x"
	.string	")"
	.zero	2
	.align	3
.LC36:
	.string	"P"
	.string	"c"
	.string	"i"
	.string	"e"
	.string	"R"
	.string	"o"
	.string	"o"
	.string	"t"
	.string	"("
	.string	"0"
	.string	"x"
	.string	"%"
	.string	"x"
	.string	")"
	.zero	2
	.align	3
.LC37:
	.string	"F"
	.string	"l"
	.string	"o"
	.string	"p"
	.string	"p"
	.string	"y"
	.string	"("
	.string	"0"
	.string	"x"
	.string	"%"
	.string	"x"
	.string	")"
	.zero	2
	.align	3
.LC38:
	.string	"K"
	.string	"e"
	.string	"y"
	.string	"b"
	.string	"o"
	.string	"a"
	.string	"r"
	.string	"d"
	.string	"("
	.string	"0"
	.string	"x"
	.string	"%"
	.string	"x"
	.string	")"
	.zero	2
	.align	3
.LC39:
	.string	"S"
	.string	"e"
	.string	"r"
	.string	"i"
	.string	"a"
	.string	"l"
	.string	"("
	.string	"0"
	.string	"x"
	.string	"%"
	.string	"x"
	.string	")"
	.zero	2
	.align	3
.LC40:
	.string	"P"
	.string	"a"
	.string	"r"
	.string	"a"
	.string	"l"
	.string	"l"
	.string	"e"
	.string	"l"
	.string	"P"
	.string	"o"
	.string	"r"
	.string	"t"
	.string	"("
	.string	"0"
	.string	"x"
	.string	"%"
	.string	"x"
	.string	")"
	.zero	2
	.align	3
.LC41:
	.string	"A"
	.string	"c"
	.string	"p"
	.string	"i"
	.string	"("
	.string	"P"
	.string	"N"
	.string	"P"
	.string	"%"
	.string	"0"
	.string	"4"
	.string	"x"
	.string	","
	.string	"0"
	.string	"x"
	.string	"%"
	.string	"x"
	.string	")"
	.zero	2
	.align	3
.LC42:
	.string	"A"
	.string	"c"
	.string	"p"
	.string	"i"
	.string	"("
	.string	"0"
	.string	"x"
	.string	"%"
	.string	"0"
	.string	"8"
	.string	"x"
	.string	","
	.string	"0"
	.string	"x"
	.string	"%"
	.string	"x"
	.string	")"
	.zero	2
	.section	.text.DevPathToTextAcpi,"ax",@progbits
	.align	1
	.globl	DevPathToTextAcpi
	.type	DevPathToTextAcpi, @function
DevPathToTextAcpi:
.LFB7:
	.loc 1 360 1
	.cfi_startproc
	addi	sp,sp,-64
	.cfi_def_cfa_offset 64
	sd	ra,56(sp)
	sd	s0,48(sp)
	.cfi_offset 1, -8
	.cfi_offset 8, -16
	addi	s0,sp,64
	.cfi_def_cfa 8, 0
	sd	a0,-40(s0)
	sd	a1,-48(s0)
	mv	a5,a2
	mv	a4,a3
	sb	a5,-49(s0)
	mv	a5,a4
	sb	a5,-50(s0)
	.loc 1 363 8
	ld	a5,-48(s0)
	sd	a5,-24(s0)
	.loc 1 364 12
	ld	a5,-24(s0)
	lbu	a4,4(a5)
	lbu	a3,5(a5)
	slli	a3,a3,8
	or	a4,a3,a4
	lbu	a3,6(a5)
	slli	a3,a3,16
	or	a4,a3,a4
	lbu	a5,7(a5)
	slli	a5,a5,24
	or	a5,a5,a4
	sext.w	a5,a5
	.loc 1 364 18
	slli	a5,a5,48
	srli	a5,a5,48
	sext.w	a4,a5
	.loc 1 364 6
	li	a5,16384
	addi	a5,a5,464
	bne	a4,a5,.L45
	.loc 1 365 19
	ld	a5,-24(s0)
	lbu	a4,4(a5)
	lbu	a3,5(a5)
	slli	a3,a3,8
	or	a4,a3,a4
	lbu	a3,6(a5)
	slli	a3,a3,16
	or	a4,a3,a4
	lbu	a5,7(a5)
	slli	a5,a5,24
	or	a5,a5,a4
	sext.w	a5,a5
	.loc 1 365 26
	srliw	a5,a5,16
	sext.w	a5,a5
	.loc 1 365 5
	li	a4,4096
	addi	a4,a4,-1528
	beq	a5,a4,.L46
	li	a4,4096
	addi	a4,a4,-1528
	bgtu	a5,a4,.L47
	li	a4,4096
	addi	a4,a4,-1533
	beq	a5,a4,.L48
	li	a4,4096
	addi	a4,a4,-1533
	bgtu	a5,a4,.L47
	li	a4,1540
	beq	a5,a4,.L49
	li	a4,1540
	bgtu	a5,a4,.L47
	li	a4,1281
	beq	a5,a4,.L50
	li	a4,1281
	bgtu	a5,a4,.L47
	li	a4,769
	beq	a5,a4,.L51
	li	a4,1025
	beq	a5,a4,.L52
	j	.L47
.L48:
	.loc 1 367 9
	ld	a5,-24(s0)
	lbu	a4,8(a5)
	lbu	a3,9(a5)
	slli	a3,a3,8
	or	a4,a3,a4
	lbu	a3,10(a5)
	slli	a3,a3,16
	or	a4,a3,a4
	lbu	a5,11(a5)
	slli	a5,a5,24
	or	a5,a5,a4
	sext.w	a5,a5
	mv	a2,a5
	lla	a1,.LC35
	ld	a0,-40(s0)
	call	UefiDevicePathLibCatPrint
	.loc 1 368 9
	j	.L54
.L46:
	.loc 1 371 9
	ld	a5,-24(s0)
	lbu	a4,8(a5)
	lbu	a3,9(a5)
	slli	a3,a3,8
	or	a4,a3,a4
	lbu	a3,10(a5)
	slli	a3,a3,16
	or	a4,a3,a4
	lbu	a5,11(a5)
	slli	a5,a5,24
	or	a5,a5,a4
	sext.w	a5,a5
	mv	a2,a5
	lla	a1,.LC36
	ld	a0,-40(s0)
	call	UefiDevicePathLibCatPrint
	.loc 1 372 9
	j	.L54
.L49:
	.loc 1 375 9
	ld	a5,-24(s0)
	lbu	a4,8(a5)
	lbu	a3,9(a5)
	slli	a3,a3,8
	or	a4,a3,a4
	lbu	a3,10(a5)
	slli	a3,a3,16
	or	a4,a3,a4
	lbu	a5,11(a5)
	slli	a5,a5,24
	or	a5,a5,a4
	sext.w	a5,a5
	mv	a2,a5
	lla	a1,.LC37
	ld	a0,-40(s0)
	call	UefiDevicePathLibCatPrint
	.loc 1 376 9
	j	.L54
.L51:
	.loc 1 379 9
	ld	a5,-24(s0)
	lbu	a4,8(a5)
	lbu	a3,9(a5)
	slli	a3,a3,8
	or	a4,a3,a4
	lbu	a3,10(a5)
	slli	a3,a3,16
	or	a4,a3,a4
	lbu	a5,11(a5)
	slli	a5,a5,24
	or	a5,a5,a4
	sext.w	a5,a5
	mv	a2,a5
	lla	a1,.LC38
	ld	a0,-40(s0)
	call	UefiDevicePathLibCatPrint
	.loc 1 380 9
	j	.L54
.L50:
	.loc 1 383 9
	ld	a5,-24(s0)
	lbu	a4,8(a5)
	lbu	a3,9(a5)
	slli	a3,a3,8
	or	a4,a3,a4
	lbu	a3,10(a5)
	slli	a3,a3,16
	or	a4,a3,a4
	lbu	a5,11(a5)
	slli	a5,a5,24
	or	a5,a5,a4
	sext.w	a5,a5
	mv	a2,a5
	lla	a1,.LC39
	ld	a0,-40(s0)
	call	UefiDevicePathLibCatPrint
	.loc 1 384 9
	j	.L54
.L52:
	.loc 1 387 9
	ld	a5,-24(s0)
	lbu	a4,8(a5)
	lbu	a3,9(a5)
	slli	a3,a3,8
	or	a4,a3,a4
	lbu	a3,10(a5)
	slli	a3,a3,16
	or	a4,a3,a4
	lbu	a5,11(a5)
	slli	a5,a5,24
	or	a5,a5,a4
	sext.w	a5,a5
	mv	a2,a5
	lla	a1,.LC40
	ld	a0,-40(s0)
	call	UefiDevicePathLibCatPrint
	.loc 1 388 9
	j	.L54
.L47:
	.loc 1 391 70
	ld	a5,-24(s0)
	lbu	a4,4(a5)
	lbu	a3,5(a5)
	slli	a3,a3,8
	or	a4,a3,a4
	lbu	a3,6(a5)
	slli	a3,a3,16
	or	a4,a3,a4
	lbu	a5,7(a5)
	slli	a5,a5,24
	or	a5,a5,a4
	sext.w	a5,a5
	.loc 1 391 9
	srliw	a5,a5,16
	sext.w	a2,a5
	ld	a5,-24(s0)
	lbu	a4,8(a5)
	lbu	a3,9(a5)
	slli	a3,a3,8
	or	a4,a3,a4
	lbu	a3,10(a5)
	slli	a3,a3,16
	or	a4,a3,a4
	lbu	a5,11(a5)
	slli	a5,a5,24
	or	a5,a5,a4
	sext.w	a5,a5
	mv	a3,a5
	lla	a1,.LC41
	ld	a0,-40(s0)
	call	UefiDevicePathLibCatPrint
	.loc 1 392 9
	j	.L54
.L45:
	.loc 1 395 5
	ld	a5,-24(s0)
	lbu	a4,4(a5)
	lbu	a3,5(a5)
	slli	a3,a3,8
	or	a4,a3,a4
	lbu	a3,6(a5)
	slli	a3,a3,16
	or	a4,a3,a4
	lbu	a5,7(a5)
	slli	a5,a5,24
	or	a5,a5,a4
	sext.w	a2,a5
	ld	a5,-24(s0)
	lbu	a4,8(a5)
	lbu	a3,9(a5)
	slli	a3,a3,8
	or	a4,a3,a4
	lbu	a3,10(a5)
	slli	a3,a3,16
	or	a4,a3,a4
	lbu	a5,11(a5)
	slli	a5,a5,24
	or	a5,a5,a4
	sext.w	a5,a5
	mv	a3,a5
	lla	a1,.LC42
	ld	a0,-40(s0)
	call	UefiDevicePathLibCatPrint
	.loc 1 397 1
	nop
.L54:
	nop
	ld	ra,56(sp)
	.cfi_restore 1
	ld	s0,48(sp)
	.cfi_restore 8
	.cfi_def_cfa 2, 64
	addi	sp,sp,64
	.cfi_def_cfa_offset 0
	jr	ra
	.cfi_endproc
.LFE7:
	.size	DevPathToTextAcpi, .-DevPathToTextAcpi
	.section	.rodata
	.align	3
.LC43:
	.string	"P"
	.string	"c"
	.string	"i"
	.string	"R"
	.string	"o"
	.string	"o"
	.string	"t"
	.string	"("
	.string	"%"
	.string	"a"
	.string	")"
	.zero	2
	.align	3
.LC44:
	.string	"P"
	.string	"c"
	.string	"i"
	.string	"e"
	.string	"R"
	.string	"o"
	.string	"o"
	.string	"t"
	.string	"("
	.string	"%"
	.string	"a"
	.string	")"
	.zero	2
	.align	3
.LC45:
	.string	"%"
	.string	"c"
	.string	"%"
	.string	"c"
	.string	"%"
	.string	"c"
	.string	"%"
	.string	"0"
	.string	"4"
	.string	"X"
	.zero	2
	.align	3
.LC46:
	.string	"A"
	.string	"c"
	.string	"p"
	.string	"i"
	.string	"E"
	.string	"x"
	.string	"p"
	.string	"("
	.string	"%"
	.string	"s"
	.string	","
	.string	"0"
	.string	","
	.string	"%"
	.string	"a"
	.string	")"
	.zero	2
	.align	3
.LC47:
	.string	"A"
	.string	"c"
	.string	"p"
	.string	"i"
	.string	"E"
	.string	"x"
	.string	"p"
	.string	"("
	.string	"%"
	.string	"s"
	.string	","
	.string	"%"
	.string	"s"
	.string	","
	.string	"%"
	.string	"a"
	.string	")"
	.zero	2
	.align	3
.LC48:
	.string	"A"
	.string	"c"
	.string	"p"
	.string	"i"
	.string	"E"
	.string	"x"
	.string	"("
	.string	"%"
	.string	"a"
	.string	","
	.zero	2
	.align	3
.LC49:
	.string	"A"
	.string	"c"
	.string	"p"
	.string	"i"
	.string	"E"
	.string	"x"
	.string	"("
	.string	"%"
	.string	"s"
	.string	","
	.zero	2
	.align	3
.LC50:
	.string	"%"
	.string	"a"
	.string	","
	.zero	2
	.align	3
.LC51:
	.string	"%"
	.string	"s"
	.string	","
	.zero	2
	.align	3
.LC52:
	.string	"%"
	.string	"a"
	.string	")"
	.zero	2
	.align	3
.LC53:
	.string	"A"
	.string	"c"
	.string	"p"
	.string	"i"
	.string	"E"
	.string	"x"
	.string	"("
	.string	"%"
	.string	"s"
	.string	","
	.string	"%"
	.string	"s"
	.string	","
	.string	"0"
	.string	"x"
	.string	"%"
	.string	"x"
	.string	","
	.string	"%"
	.string	"a"
	.string	","
	.string	"%"
	.string	"a"
	.string	","
	.string	"%"
	.string	"a"
	.string	")"
	.zero	2
	.section	.text.DevPathToTextAcpiEx,"ax",@progbits
	.align	1
	.globl	DevPathToTextAcpiEx
	.type	DevPathToTextAcpiEx, @function
DevPathToTextAcpiEx:
.LFB8:
	.loc 1 419 1
	.cfi_startproc
	addi	sp,sp,-160
	.cfi_def_cfa_offset 160
	sd	ra,152(sp)
	sd	s0,144(sp)
	.cfi_offset 1, -8
	.cfi_offset 8, -16
	addi	s0,sp,160
	.cfi_def_cfa 8, 0
	sd	a0,-136(s0)
	sd	a1,-144(s0)
	mv	a5,a2
	mv	a4,a3
	sb	a5,-145(s0)
	mv	a5,a4
	sb	a5,-146(s0)
	.loc 1 432 15
	sb	zero,-34(s0)
	.loc 1 433 15
	li	a5,1
	sb	a5,-35(s0)
	.loc 1 434 15
	li	a5,2
	sb	a5,-36(s0)
	.loc 1 435 10
	ld	a5,-144(s0)
	sd	a5,-48(s0)
	.loc 1 436 10
	lbu	a5,-34(s0)
	sext.w	a4,a5
	.loc 1 436 24
	addi	a5,s0,-128
	slli	a4,a4,3
	add	a5,a4,a5
	sd	zero,0(a5)
	.loc 1 437 10
	lbu	a5,-35(s0)
	sext.w	a4,a5
	.loc 1 437 24
	addi	a5,s0,-128
	slli	a4,a4,3
	add	a5,a4,a5
	sd	zero,0(a5)
	.loc 1 438 10
	lbu	a5,-36(s0)
	sext.w	a4,a5
	.loc 1 438 24
	addi	a5,s0,-128
	slli	a4,a4,3
	add	a5,a4,a5
	sd	zero,0(a5)
	.loc 1 439 17
	li	a5,16
	sd	a5,-24(s0)
	.loc 1 440 14
	ld	a5,-48(s0)
	addi	a5,a5,16
	sd	a5,-32(s0)
	.loc 1 441 12
	sb	zero,-33(s0)
	.loc 1 442 9
	j	.L56
.L58:
	.loc 1 443 12
	lbu	a5,-33(s0)
	sext.w	a4,a5
	.loc 1 443 23
	addi	a5,s0,-128
	slli	a4,a4,3
	add	a5,a4,a5
	ld	a4,-32(s0)
	sd	a4,0(a5)
	.loc 1 444 24
	ld	a0,-32(s0)
	call	AsciiStrLen@plt
	mv	a5,a0
	.loc 1 444 22 discriminator 1
	addi	a5,a5,1
	sd	a5,-56(s0)
	.loc 1 445 19
	ld	a4,-24(s0)
	ld	a5,-56(s0)
	add	a5,a4,a5
	sd	a5,-24(s0)
	.loc 1 446 16
	ld	a4,-32(s0)
	ld	a5,-56(s0)
	add	a5,a4,a5
	sd	a5,-32(s0)
	.loc 1 447 13
	lbu	a5,-33(s0)
	addiw	a5,a5,1
	sb	a5,-33(s0)
.L56:
	.loc 1 442 47
	ld	a5,-48(s0)
	lbu	a5,2(a5)
	mv	a4,a5
	.loc 1 442 51
	ld	a5,-24(s0)
	bgeu	a5,a4,.L57
	.loc 1 442 51 is_stmt 0 discriminator 1
	lbu	a5,-33(s0)
	andi	a4,a5,0xff
	li	a5,2
	bleu	a4,a5,.L58
.L57:
	.loc 1 450 6 is_stmt 1
	lbu	a5,-145(s0)
	andi	a5,a5,0xff
	beq	a5,zero,.L59
	.loc 1 451 18
	ld	a5,-48(s0)
	lbu	a4,4(a5)
	lbu	a3,5(a5)
	slli	a3,a3,8
	or	a4,a3,a4
	lbu	a3,6(a5)
	slli	a3,a3,16
	or	a4,a3,a4
	lbu	a5,7(a5)
	slli	a5,a5,24
	or	a5,a5,a4
	sext.w	a5,a5
	.loc 1 451 25
	srliw	a5,a5,16
	sext.w	a4,a5
	.loc 1 451 8
	li	a5,4096
	addi	a5,a5,-1533
	beq	a4,a5,.L60
	.loc 1 452 19
	ld	a5,-48(s0)
	lbu	a4,12(a5)
	lbu	a3,13(a5)
	slli	a3,a3,8
	or	a4,a3,a4
	lbu	a3,14(a5)
	slli	a3,a3,16
	or	a4,a3,a4
	lbu	a5,15(a5)
	slli	a5,a5,24
	or	a5,a5,a4
	sext.w	a5,a5
	.loc 1 452 26
	srliw	a5,a5,16
	sext.w	a4,a5
	.loc 1 451 43 discriminator 1
	li	a5,4096
	addi	a5,a5,-1533
	bne	a4,a5,.L61
	.loc 1 452 56
	ld	a5,-48(s0)
	lbu	a4,4(a5)
	lbu	a3,5(a5)
	slli	a3,a3,8
	or	a4,a3,a4
	lbu	a3,6(a5)
	slli	a3,a3,16
	or	a4,a3,a4
	lbu	a5,7(a5)
	slli	a5,a5,24
	or	a5,a5,a4
	sext.w	a5,a5
	.loc 1 452 63
	srliw	a5,a5,16
	sext.w	a4,a5
	.loc 1 452 44
	li	a5,4096
	addi	a5,a5,-1528
	beq	a4,a5,.L61
.L60:
	.loc 1 454 18
	lbu	a5,-35(s0)
	sext.w	a4,a5
	addi	a5,s0,-128
	slli	a4,a4,3
	add	a5,a4,a5
	ld	a5,0(a5)
	.loc 1 454 10
	beq	a5,zero,.L62
	.loc 1 455 9
	lbu	a5,-35(s0)
	sext.w	a4,a5
	addi	a5,s0,-128
	slli	a4,a4,3
	add	a5,a4,a5
	ld	a5,0(a5)
	mv	a2,a5
	lla	a1,.LC43
	ld	a0,-136(s0)
	call	UefiDevicePathLibCatPrint
	.loc 1 460 7
	j	.L55
.L62:
	.loc 1 457 9
	ld	a5,-48(s0)
	lbu	a4,8(a5)
	lbu	a3,9(a5)
	slli	a3,a3,8
	or	a4,a3,a4
	lbu	a3,10(a5)
	slli	a3,a3,16
	or	a4,a3,a4
	lbu	a5,11(a5)
	slli	a5,a5,24
	or	a5,a5,a4
	sext.w	a5,a5
	mv	a2,a5
	lla	a1,.LC35
	ld	a0,-136(s0)
	call	UefiDevicePathLibCatPrint
	.loc 1 460 7
	j	.L55
.L61:
	.loc 1 463 18
	ld	a5,-48(s0)
	lbu	a4,4(a5)
	lbu	a3,5(a5)
	slli	a3,a3,8
	or	a4,a3,a4
	lbu	a3,6(a5)
	slli	a3,a3,16
	or	a4,a3,a4
	lbu	a5,7(a5)
	slli	a5,a5,24
	or	a5,a5,a4
	sext.w	a5,a5
	.loc 1 463 25
	srliw	a5,a5,16
	sext.w	a4,a5
	.loc 1 463 8
	li	a5,4096
	addi	a5,a5,-1528
	beq	a4,a5,.L65
	.loc 1 463 55 discriminator 1
	ld	a5,-48(s0)
	lbu	a4,12(a5)
	lbu	a3,13(a5)
	slli	a3,a3,8
	or	a4,a3,a4
	lbu	a3,14(a5)
	slli	a3,a3,16
	or	a4,a3,a4
	lbu	a5,15(a5)
	slli	a5,a5,24
	or	a5,a5,a4
	sext.w	a5,a5
	.loc 1 463 62 discriminator 1
	srliw	a5,a5,16
	sext.w	a4,a5
	.loc 1 463 43 discriminator 1
	li	a5,4096
	addi	a5,a5,-1528
	bne	a4,a5,.L59
.L65:
	.loc 1 464 18
	lbu	a5,-35(s0)
	sext.w	a4,a5
	addi	a5,s0,-128
	slli	a4,a4,3
	add	a5,a4,a5
	ld	a5,0(a5)
	.loc 1 464 10
	beq	a5,zero,.L66
	.loc 1 465 9
	lbu	a5,-35(s0)
	sext.w	a4,a5
	addi	a5,s0,-128
	slli	a4,a4,3
	add	a5,a4,a5
	ld	a5,0(a5)
	mv	a2,a5
	lla	a1,.LC44
	ld	a0,-136(s0)
	call	UefiDevicePathLibCatPrint
	.loc 1 470 7
	j	.L55
.L66:
	.loc 1 467 9
	ld	a5,-48(s0)
	lbu	a4,8(a5)
	lbu	a3,9(a5)
	slli	a3,a3,8
	or	a4,a3,a4
	lbu	a3,10(a5)
	slli	a3,a3,16
	or	a4,a3,a4
	lbu	a5,11(a5)
	slli	a5,a5,24
	or	a5,a5,a4
	sext.w	a5,a5
	mv	a2,a5
	lla	a1,.LC36
	ld	a0,-136(s0)
	call	UefiDevicePathLibCatPrint
	.loc 1 470 7
	j	.L55
.L59:
	.loc 1 481 13
	ld	a5,-48(s0)
	lbu	a4,4(a5)
	lbu	a3,5(a5)
	slli	a3,a3,8
	or	a4,a3,a4
	lbu	a3,6(a5)
	slli	a3,a3,16
	or	a4,a3,a4
	lbu	a5,7(a5)
	slli	a5,a5,24
	or	a5,a5,a4
	sext.w	a5,a5
	.loc 1 481 19
	srliw	a5,a5,10
	sext.w	a5,a5
	.loc 1 481 26
	andi	a5,a5,31
	sext.w	a5,a5
	.loc 1 477 3
	addiw	a5,a5,64
	sext.w	a2,a5
	.loc 1 482 13
	ld	a5,-48(s0)
	lbu	a4,4(a5)
	lbu	a3,5(a5)
	slli	a3,a3,8
	or	a4,a3,a4
	lbu	a3,6(a5)
	slli	a3,a3,16
	or	a4,a3,a4
	lbu	a5,7(a5)
	slli	a5,a5,24
	or	a5,a5,a4
	sext.w	a5,a5
	.loc 1 482 19
	srliw	a5,a5,5
	sext.w	a5,a5
	.loc 1 482 25
	andi	a5,a5,31
	sext.w	a5,a5
	.loc 1 477 3
	addiw	a5,a5,64
	sext.w	a1,a5
	.loc 1 483 19
	ld	a5,-48(s0)
	lbu	a4,4(a5)
	lbu	a3,5(a5)
	slli	a3,a3,8
	or	a4,a3,a4
	lbu	a3,6(a5)
	slli	a3,a3,16
	or	a4,a3,a4
	lbu	a5,7(a5)
	slli	a5,a5,24
	or	a5,a5,a4
	sext.w	a5,a5
	.loc 1 483 25
	andi	a5,a5,31
	sext.w	a5,a5
	.loc 1 477 3
	addiw	a5,a5,64
	sext.w	a7,a5
	.loc 1 484 12
	ld	a5,-48(s0)
	lbu	a4,4(a5)
	lbu	a3,5(a5)
	slli	a3,a3,8
	or	a4,a3,a4
	lbu	a3,6(a5)
	slli	a3,a3,16
	or	a4,a3,a4
	lbu	a5,7(a5)
	slli	a5,a5,24
	or	a5,a5,a4
	sext.w	a5,a5
	.loc 1 477 3
	srliw	a5,a5,16
	sext.w	a5,a5
	addi	a0,s0,-80
	mv	a6,a5
	mv	a5,a7
	mv	a4,a1
	mv	a3,a2
	lla	a2,.LC45
	li	a1,22
	call	UnicodeSPrint@plt
	.loc 1 490 13
	ld	a5,-48(s0)
	lbu	a4,12(a5)
	lbu	a3,13(a5)
	slli	a3,a3,8
	or	a4,a3,a4
	lbu	a3,14(a5)
	slli	a3,a3,16
	or	a4,a3,a4
	lbu	a5,15(a5)
	slli	a5,a5,24
	or	a5,a5,a4
	sext.w	a5,a5
	.loc 1 490 19
	srliw	a5,a5,10
	sext.w	a5,a5
	.loc 1 490 26
	andi	a5,a5,31
	sext.w	a5,a5
	.loc 1 486 3
	addiw	a5,a5,64
	sext.w	a2,a5
	.loc 1 491 13
	ld	a5,-48(s0)
	lbu	a4,12(a5)
	lbu	a3,13(a5)
	slli	a3,a3,8
	or	a4,a3,a4
	lbu	a3,14(a5)
	slli	a3,a3,16
	or	a4,a3,a4
	lbu	a5,15(a5)
	slli	a5,a5,24
	or	a5,a5,a4
	sext.w	a5,a5
	.loc 1 491 19
	srliw	a5,a5,5
	sext.w	a5,a5
	.loc 1 491 25
	andi	a5,a5,31
	sext.w	a5,a5
	.loc 1 486 3
	addiw	a5,a5,64
	sext.w	a1,a5
	.loc 1 492 19
	ld	a5,-48(s0)
	lbu	a4,12(a5)
	lbu	a3,13(a5)
	slli	a3,a3,8
	or	a4,a3,a4
	lbu	a3,14(a5)
	slli	a3,a3,16
	or	a4,a3,a4
	lbu	a5,15(a5)
	slli	a5,a5,24
	or	a5,a5,a4
	sext.w	a5,a5
	.loc 1 492 25
	andi	a5,a5,31
	sext.w	a5,a5
	.loc 1 486 3
	addiw	a5,a5,64
	sext.w	a7,a5
	.loc 1 493 12
	ld	a5,-48(s0)
	lbu	a4,12(a5)
	lbu	a3,13(a5)
	slli	a3,a3,8
	or	a4,a3,a4
	lbu	a3,14(a5)
	slli	a3,a3,16
	or	a4,a3,a4
	lbu	a5,15(a5)
	slli	a5,a5,24
	or	a5,a5,a4
	sext.w	a5,a5
	.loc 1 486 3
	srliw	a5,a5,16
	sext.w	a5,a5
	addi	a0,s0,-104
	mv	a6,a5
	mv	a5,a7
	mv	a4,a1
	mv	a3,a2
	lla	a2,.LC45
	li	a1,22
	call	UnicodeSPrint@plt
	.loc 1 496 16
	lbu	a5,-34(s0)
	sext.w	a4,a5
	addi	a5,s0,-128
	slli	a4,a4,3
	add	a5,a4,a5
	ld	a5,0(a5)
	.loc 1 496 6
	beq	a5,zero,.L68
	.loc 1 496 59 discriminator 1
	lbu	a5,-34(s0)
	sext.w	a4,a5
	addi	a5,s0,-128
	slli	a4,a4,3
	add	a5,a4,a5
	ld	a5,0(a5)
	.loc 1 496 51 discriminator 1
	lbu	a5,0(a5)
	.loc 1 496 47 discriminator 1
	bne	a5,zero,.L68
	.loc 1 497 16
	lbu	a5,-36(s0)
	sext.w	a4,a5
	addi	a5,s0,-128
	slli	a4,a4,3
	add	a5,a4,a5
	ld	a5,0(a5)
	.loc 1 496 83 discriminator 2
	beq	a5,zero,.L68
	.loc 1 497 59
	lbu	a5,-36(s0)
	sext.w	a4,a5
	addi	a5,s0,-128
	slli	a4,a4,3
	add	a5,a4,a5
	ld	a5,0(a5)
	.loc 1 497 51
	lbu	a5,0(a5)
	.loc 1 497 47
	bne	a5,zero,.L68
	.loc 1 498 16
	lbu	a5,-35(s0)
	sext.w	a4,a5
	addi	a5,s0,-128
	slli	a4,a4,3
	add	a5,a4,a5
	ld	a5,0(a5)
	.loc 1 497 83 discriminator 1
	beq	a5,zero,.L68
	.loc 1 498 59
	lbu	a5,-35(s0)
	sext.w	a4,a5
	addi	a5,s0,-128
	slli	a4,a4,3
	add	a5,a4,a5
	ld	a5,0(a5)
	.loc 1 498 51
	lbu	a5,0(a5)
	.loc 1 498 47
	beq	a5,zero,.L68
	.loc 1 503 15
	ld	a5,-48(s0)
	lbu	a4,12(a5)
	lbu	a3,13(a5)
	slli	a3,a3,8
	or	a4,a3,a4
	lbu	a3,14(a5)
	slli	a3,a3,16
	or	a4,a3,a4
	lbu	a5,15(a5)
	slli	a5,a5,24
	or	a5,a5,a4
	sext.w	a5,a5
	.loc 1 503 8
	bne	a5,zero,.L69
	.loc 1 504 7
	lbu	a5,-35(s0)
	sext.w	a4,a5
	addi	a5,s0,-128
	slli	a4,a4,3
	add	a5,a4,a5
	ld	a4,0(a5)
	addi	a5,s0,-80
	mv	a3,a4
	mv	a2,a5
	lla	a1,.LC46
	ld	a0,-136(s0)
	call	UefiDevicePathLibCatPrint
	.loc 1 503 8
	j	.L55
.L69:
	.loc 1 511 7
	lbu	a5,-35(s0)
	sext.w	a4,a5
	addi	a5,s0,-128
	slli	a4,a4,3
	add	a5,a4,a5
	ld	a4,0(a5)
	addi	a3,s0,-104
	addi	a5,s0,-80
	mv	a2,a5
	lla	a1,.LC47
	ld	a0,-136(s0)
	call	UefiDevicePathLibCatPrint
	.loc 1 503 8
	j	.L55
.L68:
	.loc 1 520 8
	lbu	a5,-145(s0)
	andi	a5,a5,0xff
	beq	a5,zero,.L72
	.loc 1 521 18
	lbu	a5,-34(s0)
	sext.w	a4,a5
	addi	a5,s0,-128
	slli	a4,a4,3
	add	a5,a4,a5
	ld	a5,0(a5)
	.loc 1 521 10
	beq	a5,zero,.L73
	.loc 1 522 9
	lbu	a5,-34(s0)
	sext.w	a4,a5
	addi	a5,s0,-128
	slli	a4,a4,3
	add	a5,a4,a5
	ld	a5,0(a5)
	mv	a2,a5
	lla	a1,.LC48
	ld	a0,-136(s0)
	call	UefiDevicePathLibCatPrint
	j	.L74
.L73:
	.loc 1 524 9
	addi	a5,s0,-80
	mv	a2,a5
	lla	a1,.LC49
	ld	a0,-136(s0)
	call	UefiDevicePathLibCatPrint
.L74:
	.loc 1 527 18
	lbu	a5,-36(s0)
	sext.w	a4,a5
	addi	a5,s0,-128
	slli	a4,a4,3
	add	a5,a4,a5
	ld	a5,0(a5)
	.loc 1 527 10
	beq	a5,zero,.L75
	.loc 1 528 9
	lbu	a5,-36(s0)
	sext.w	a4,a5
	addi	a5,s0,-128
	slli	a4,a4,3
	add	a5,a4,a5
	ld	a5,0(a5)
	mv	a2,a5
	lla	a1,.LC50
	ld	a0,-136(s0)
	call	UefiDevicePathLibCatPrint
	j	.L76
.L75:
	.loc 1 530 9
	addi	a5,s0,-104
	mv	a2,a5
	lla	a1,.LC51
	ld	a0,-136(s0)
	call	UefiDevicePathLibCatPrint
.L76:
	.loc 1 533 18
	lbu	a5,-35(s0)
	sext.w	a4,a5
	addi	a5,s0,-128
	slli	a4,a4,3
	add	a5,a4,a5
	ld	a5,0(a5)
	.loc 1 533 10
	beq	a5,zero,.L77
	.loc 1 534 9
	lbu	a5,-35(s0)
	sext.w	a4,a5
	addi	a5,s0,-128
	slli	a4,a4,3
	add	a5,a4,a5
	ld	a5,0(a5)
	mv	a2,a5
	lla	a1,.LC52
	ld	a0,-136(s0)
	call	UefiDevicePathLibCatPrint
	j	.L55
.L77:
	.loc 1 536 9
	ld	a5,-48(s0)
	lbu	a4,8(a5)
	lbu	a3,9(a5)
	slli	a3,a3,8
	or	a4,a3,a4
	lbu	a3,10(a5)
	slli	a3,a3,16
	or	a4,a3,a4
	lbu	a5,11(a5)
	slli	a5,a5,24
	or	a5,a5,a4
	sext.w	a5,a5
	mv	a2,a5
	lla	a1,.LC25
	ld	a0,-136(s0)
	call	UefiDevicePathLibCatPrint
	j	.L55
.L72:
	.loc 1 539 7
	ld	a5,-48(s0)
	lbu	a4,8(a5)
	lbu	a3,9(a5)
	slli	a3,a3,8
	or	a4,a3,a4
	lbu	a3,10(a5)
	slli	a3,a3,16
	or	a4,a3,a4
	lbu	a5,11(a5)
	slli	a5,a5,24
	or	a5,a5,a4
	sext.w	a1,a5
	lbu	a5,-34(s0)
	sext.w	a4,a5
	addi	a5,s0,-128
	slli	a4,a4,3
	add	a5,a4,a5
	ld	a0,0(a5)
	lbu	a5,-36(s0)
	sext.w	a4,a5
	addi	a5,s0,-128
	slli	a4,a4,3
	add	a5,a4,a5
	ld	a6,0(a5)
	lbu	a5,-35(s0)
	sext.w	a4,a5
	addi	a5,s0,-128
	slli	a4,a4,3
	add	a5,a4,a5
	ld	a5,0(a5)
	addi	a3,s0,-104
	addi	a2,s0,-80
	mv	a7,a5
	mv	a5,a0
	mv	a4,a1
	lla	a1,.LC53
	ld	a0,-136(s0)
	call	UefiDevicePathLibCatPrint
.L55:
	.loc 1 551 1
	ld	ra,152(sp)
	.cfi_restore 1
	ld	s0,144(sp)
	.cfi_restore 8
	.cfi_def_cfa 2, 160
	addi	sp,sp,160
	.cfi_def_cfa_offset 0
	jr	ra
	.cfi_endproc
.LFE8:
	.size	DevPathToTextAcpiEx, .-DevPathToTextAcpiEx
	.section	.rodata
	.align	3
.LC54:
	.string	"A"
	.string	"c"
	.string	"p"
	.string	"i"
	.string	"A"
	.string	"d"
	.string	"r"
	.string	"("
	.string	"0"
	.string	"x"
	.string	"%"
	.string	"x"
	.zero	2
	.align	3
.LC55:
	.string	","
	.string	"0"
	.string	"x"
	.string	"%"
	.string	"x"
	.zero	2
	.section	.text.DevPathToTextAcpiAdr,"ax",@progbits
	.align	1
	.globl	DevPathToTextAcpiAdr
	.type	DevPathToTextAcpiAdr, @function
DevPathToTextAcpiAdr:
.LFB9:
	.loc 1 573 1
	.cfi_startproc
	addi	sp,sp,-80
	.cfi_def_cfa_offset 80
	sd	ra,72(sp)
	sd	s0,64(sp)
	.cfi_offset 1, -8
	.cfi_offset 8, -16
	addi	s0,sp,80
	.cfi_def_cfa 8, 0
	sd	a0,-56(s0)
	sd	a1,-64(s0)
	mv	a5,a2
	mv	a4,a3
	sb	a5,-65(s0)
	mv	a5,a4
	sb	a5,-66(s0)
	.loc 1 579 11
	ld	a5,-64(s0)
	sd	a5,-32(s0)
	.loc 1 580 20
	ld	a0,-32(s0)
	call	DevicePathNodeLength@plt
	mv	a5,a0
	.loc 1 580 10 discriminator 1
	sh	a5,-34(s0)
	.loc 1 581 41
	lhu	a5,-34(s0)
	sext.w	a5,a5
	addiw	a5,a5,-8
	sext.w	a5,a5
	.loc 1 581 46
	sraiw	a4,a5,31
	srliw	a4,a4,30
	addw	a5,a4,a5
	sraiw	a5,a5,2
	sext.w	a5,a5
	.loc 1 581 22
	sh	a5,-36(s0)
	.loc 1 583 3
	ld	a5,-32(s0)
	lbu	a4,4(a5)
	lbu	a3,5(a5)
	slli	a3,a3,8
	or	a4,a3,a4
	lbu	a3,6(a5)
	slli	a3,a3,16
	or	a4,a3,a4
	lbu	a5,7(a5)
	slli	a5,a5,24
	or	a5,a5,a4
	sext.w	a5,a5
	mv	a2,a5
	lla	a1,.LC54
	ld	a0,-56(s0)
	call	UefiDevicePathLibCatPrint
	.loc 1 584 14
	sh	zero,-18(s0)
	.loc 1 584 3
	j	.L80
.L81:
	.loc 1 585 88
	lhu	a5,-18(s0)
	sext.w	a5,a5
	slliw	a5,a5,2
	sext.w	a5,a5
	.loc 1 585 80
	addi	a5,a5,8
	.loc 1 585 48
	ld	a4,-32(s0)
	add	a5,a4,a5
	.loc 1 585 5
	lw	a5,0(a5)
	mv	a2,a5
	lla	a1,.LC55
	ld	a0,-56(s0)
	call	UefiDevicePathLibCatPrint
	.loc 1 584 52 discriminator 3
	lhu	a5,-18(s0)
	addiw	a5,a5,1
	sh	a5,-18(s0)
.L80:
	.loc 1 584 25 discriminator 1
	lhu	a4,-18(s0)
	lhu	a5,-36(s0)
	sext.w	a4,a4
	sext.w	a5,a5
	bltu	a4,a5,.L81
	.loc 1 588 3
	lla	a1,.LC32
	ld	a0,-56(s0)
	call	UefiDevicePathLibCatPrint
	.loc 1 589 1
	nop
	ld	ra,72(sp)
	.cfi_restore 1
	ld	s0,64(sp)
	.cfi_restore 8
	.cfi_def_cfa 2, 80
	addi	sp,sp,80
	.cfi_def_cfa_offset 0
	jr	ra
	.cfi_endproc
.LFE9:
	.size	DevPathToTextAcpiAdr, .-DevPathToTextAcpiAdr
	.section	.rodata
	.align	3
.LC56:
	.string	"A"
	.string	"t"
	.string	"a"
	.string	"("
	.string	"0"
	.string	"x"
	.string	"%"
	.string	"x"
	.string	")"
	.zero	2
	.align	3
.LC57:
	.string	"S"
	.string	"e"
	.string	"c"
	.string	"o"
	.string	"n"
	.string	"d"
	.string	"a"
	.string	"r"
	.string	"y"
	.zero	2
	.align	3
.LC58:
	.string	"P"
	.string	"r"
	.string	"i"
	.string	"m"
	.string	"a"
	.string	"r"
	.string	"y"
	.zero	2
	.align	3
.LC59:
	.string	"S"
	.string	"l"
	.string	"a"
	.string	"v"
	.string	"e"
	.zero	2
	.align	3
.LC60:
	.string	"M"
	.string	"a"
	.string	"s"
	.string	"t"
	.string	"e"
	.string	"r"
	.zero	2
	.align	3
.LC61:
	.string	"A"
	.string	"t"
	.string	"a"
	.string	"("
	.string	"%"
	.string	"s"
	.string	","
	.string	"%"
	.string	"s"
	.string	","
	.string	"0"
	.string	"x"
	.string	"%"
	.string	"x"
	.string	")"
	.zero	2
	.section	.text.DevPathToTextAtapi,"ax",@progbits
	.align	1
	.globl	DevPathToTextAtapi
	.type	DevPathToTextAtapi, @function
DevPathToTextAtapi:
.LFB10:
	.loc 1 611 1
	.cfi_startproc
	addi	sp,sp,-64
	.cfi_def_cfa_offset 64
	sd	ra,56(sp)
	sd	s0,48(sp)
	.cfi_offset 1, -8
	.cfi_offset 8, -16
	addi	s0,sp,64
	.cfi_def_cfa 8, 0
	sd	a0,-40(s0)
	sd	a1,-48(s0)
	mv	a5,a2
	mv	a4,a3
	sb	a5,-49(s0)
	mv	a5,a4
	sb	a5,-50(s0)
	.loc 1 614 9
	ld	a5,-48(s0)
	sd	a5,-24(s0)
	.loc 1 616 6
	lbu	a5,-49(s0)
	andi	a5,a5,0xff
	beq	a5,zero,.L83
	.loc 1 617 56
	ld	a5,-24(s0)
	lbu	a4,6(a5)
	lbu	a5,7(a5)
	slli	a5,a5,8
	or	a5,a5,a4
	slli	a5,a5,48
	srli	a5,a5,48
	.loc 1 617 5
	sext.w	a5,a5
	mv	a2,a5
	lla	a1,.LC56
	ld	a0,-40(s0)
	call	UefiDevicePathLibCatPrint
	.loc 1 627 1
	j	.L89
.L83:
	.loc 1 622 13
	ld	a5,-24(s0)
	lbu	a5,4(a5)
	.loc 1 619 5
	mv	a4,a5
	li	a5,1
	bne	a4,a5,.L85
	.loc 1 619 5 is_stmt 0 discriminator 1
	lla	a2,.LC57
	j	.L86
.L85:
	.loc 1 619 5 discriminator 2
	lla	a2,.LC58
.L86:
	.loc 1 623 13 is_stmt 1
	ld	a5,-24(s0)
	lbu	a5,5(a5)
	.loc 1 619 5 discriminator 4
	mv	a4,a5
	li	a5,1
	bne	a4,a5,.L87
	.loc 1 619 5 is_stmt 0 discriminator 5
	lla	a3,.LC59
	j	.L88
.L87:
	.loc 1 619 5 discriminator 6
	lla	a3,.LC60
.L88:
	.loc 1 624 12 is_stmt 1
	ld	a5,-24(s0)
	lbu	a4,6(a5)
	lbu	a5,7(a5)
	slli	a5,a5,8
	or	a5,a5,a4
	slli	a5,a5,48
	srli	a5,a5,48
	.loc 1 619 5 discriminator 8
	sext.w	a5,a5
	mv	a4,a5
	lla	a1,.LC61
	ld	a0,-40(s0)
	call	UefiDevicePathLibCatPrint
.L89:
	.loc 1 627 1
	nop
	ld	ra,56(sp)
	.cfi_restore 1
	ld	s0,48(sp)
	.cfi_restore 8
	.cfi_def_cfa 2, 64
	addi	sp,sp,64
	.cfi_def_cfa_offset 0
	jr	ra
	.cfi_endproc
.LFE10:
	.size	DevPathToTextAtapi, .-DevPathToTextAtapi
	.section	.rodata
	.align	3
.LC62:
	.string	"S"
	.string	"c"
	.string	"s"
	.string	"i"
	.string	"("
	.string	"0"
	.string	"x"
	.string	"%"
	.string	"x"
	.string	","
	.string	"0"
	.string	"x"
	.string	"%"
	.string	"x"
	.string	")"
	.zero	2
	.section	.text.DevPathToTextScsi,"ax",@progbits
	.align	1
	.globl	DevPathToTextScsi
	.type	DevPathToTextScsi, @function
DevPathToTextScsi:
.LFB11:
	.loc 1 649 1
	.cfi_startproc
	addi	sp,sp,-64
	.cfi_def_cfa_offset 64
	sd	ra,56(sp)
	sd	s0,48(sp)
	.cfi_offset 1, -8
	.cfi_offset 8, -16
	addi	s0,sp,64
	.cfi_def_cfa 8, 0
	sd	a0,-40(s0)
	sd	a1,-48(s0)
	mv	a5,a2
	mv	a4,a3
	sb	a5,-49(s0)
	mv	a5,a4
	sb	a5,-50(s0)
	.loc 1 652 8
	ld	a5,-48(s0)
	sd	a5,-24(s0)
	.loc 1 653 59
	ld	a5,-24(s0)
	lbu	a4,4(a5)
	lbu	a5,5(a5)
	slli	a5,a5,8
	or	a5,a5,a4
	slli	a5,a5,48
	srli	a5,a5,48
	.loc 1 653 3
	sext.w	a2,a5
	.loc 1 653 70
	ld	a5,-24(s0)
	lbu	a4,6(a5)
	lbu	a5,7(a5)
	slli	a5,a5,8
	or	a5,a5,a4
	slli	a5,a5,48
	srli	a5,a5,48
	.loc 1 653 3
	sext.w	a5,a5
	mv	a3,a5
	lla	a1,.LC62
	ld	a0,-40(s0)
	call	UefiDevicePathLibCatPrint
	.loc 1 654 1
	nop
	ld	ra,56(sp)
	.cfi_restore 1
	ld	s0,48(sp)
	.cfi_restore 8
	.cfi_def_cfa 2, 64
	addi	sp,sp,64
	.cfi_def_cfa_offset 0
	jr	ra
	.cfi_endproc
.LFE11:
	.size	DevPathToTextScsi, .-DevPathToTextScsi
	.section	.rodata
	.align	3
.LC63:
	.string	"F"
	.string	"i"
	.string	"b"
	.string	"r"
	.string	"e"
	.string	"("
	.string	"0"
	.string	"x"
	.string	"%"
	.string	"l"
	.string	"x"
	.string	","
	.string	"0"
	.string	"x"
	.string	"%"
	.string	"l"
	.string	"x"
	.string	")"
	.zero	2
	.section	.text.DevPathToTextFibre,"ax",@progbits
	.align	1
	.globl	DevPathToTextFibre
	.type	DevPathToTextFibre, @function
DevPathToTextFibre:
.LFB12:
	.loc 1 676 1
	.cfi_startproc
	addi	sp,sp,-64
	.cfi_def_cfa_offset 64
	sd	ra,56(sp)
	sd	s0,48(sp)
	.cfi_offset 1, -8
	.cfi_offset 8, -16
	addi	s0,sp,64
	.cfi_def_cfa 8, 0
	sd	a0,-40(s0)
	sd	a1,-48(s0)
	mv	a5,a2
	mv	a4,a3
	sb	a5,-49(s0)
	mv	a5,a4
	sb	a5,-50(s0)
	.loc 1 679 9
	ld	a5,-48(s0)
	sd	a5,-24(s0)
	.loc 1 680 3
	ld	a5,-24(s0)
	lbu	a4,8(a5)
	lbu	a3,9(a5)
	slli	a3,a3,8
	or	a4,a3,a4
	lbu	a3,10(a5)
	slli	a3,a3,16
	or	a4,a3,a4
	lbu	a3,11(a5)
	slli	a3,a3,24
	or	a4,a3,a4
	lbu	a3,12(a5)
	slli	a3,a3,32
	or	a4,a3,a4
	lbu	a3,13(a5)
	slli	a3,a3,40
	or	a4,a3,a4
	lbu	a3,14(a5)
	slli	a3,a3,48
	or	a4,a3,a4
	lbu	a5,15(a5)
	slli	a5,a5,56
	or	a5,a5,a4
	mv	a2,a5
	ld	a5,-24(s0)
	lbu	a4,16(a5)
	lbu	a3,17(a5)
	slli	a3,a3,8
	or	a4,a3,a4
	lbu	a3,18(a5)
	slli	a3,a3,16
	or	a4,a3,a4
	lbu	a3,19(a5)
	slli	a3,a3,24
	or	a4,a3,a4
	lbu	a3,20(a5)
	slli	a3,a3,32
	or	a4,a3,a4
	lbu	a3,21(a5)
	slli	a3,a3,40
	or	a4,a3,a4
	lbu	a3,22(a5)
	slli	a3,a3,48
	or	a4,a3,a4
	lbu	a5,23(a5)
	slli	a5,a5,56
	or	a5,a5,a4
	mv	a3,a5
	lla	a1,.LC63
	ld	a0,-40(s0)
	call	UefiDevicePathLibCatPrint
	.loc 1 681 1
	nop
	ld	ra,56(sp)
	.cfi_restore 1
	ld	s0,48(sp)
	.cfi_restore 8
	.cfi_def_cfa 2, 64
	addi	sp,sp,64
	.cfi_def_cfa_offset 0
	jr	ra
	.cfi_endproc
.LFE12:
	.size	DevPathToTextFibre, .-DevPathToTextFibre
	.section	.rodata
	.align	3
.LC64:
	.string	"F"
	.string	"i"
	.string	"b"
	.string	"r"
	.string	"e"
	.string	"E"
	.string	"x"
	.string	"("
	.string	"0"
	.string	"x"
	.zero	2
	.align	3
.LC65:
	.string	","
	.string	"0"
	.string	"x"
	.zero	2
	.section	.text.DevPathToTextFibreEx,"ax",@progbits
	.align	1
	.globl	DevPathToTextFibreEx
	.type	DevPathToTextFibreEx, @function
DevPathToTextFibreEx:
.LFB13:
	.loc 1 703 1
	.cfi_startproc
	addi	sp,sp,-64
	.cfi_def_cfa_offset 64
	sd	ra,56(sp)
	sd	s0,48(sp)
	.cfi_offset 1, -8
	.cfi_offset 8, -16
	addi	s0,sp,64
	.cfi_def_cfa 8, 0
	sd	a0,-40(s0)
	sd	a1,-48(s0)
	mv	a5,a2
	mv	a4,a3
	sb	a5,-49(s0)
	mv	a5,a4
	sb	a5,-50(s0)
	.loc 1 707 11
	ld	a5,-48(s0)
	sd	a5,-32(s0)
	.loc 1 708 3
	lla	a1,.LC64
	ld	a0,-40(s0)
	call	UefiDevicePathLibCatPrint
	.loc 1 709 14
	sd	zero,-24(s0)
	.loc 1 709 3
	j	.L93
.L94:
	.loc 1 710 58
	ld	a4,-32(s0)
	ld	a5,-24(s0)
	add	a5,a4,a5
	lbu	a5,8(a5)
	.loc 1 710 5
	sext.w	a5,a5
	mv	a2,a5
	lla	a1,.LC31
	ld	a0,-40(s0)
	call	UefiDevicePathLibCatPrint
	.loc 1 709 82 discriminator 3
	ld	a5,-24(s0)
	addi	a5,a5,1
	sd	a5,-24(s0)
.L93:
	.loc 1 709 25 discriminator 1
	ld	a4,-24(s0)
	li	a5,7
	bleu	a4,a5,.L94
	.loc 1 713 3
	lla	a1,.LC65
	ld	a0,-40(s0)
	call	UefiDevicePathLibCatPrint
	.loc 1 714 14
	sd	zero,-24(s0)
	.loc 1 714 3
	j	.L95
.L96:
	.loc 1 715 58
	ld	a4,-32(s0)
	ld	a5,-24(s0)
	add	a5,a4,a5
	lbu	a5,16(a5)
	.loc 1 715 5
	sext.w	a5,a5
	mv	a2,a5
	lla	a1,.LC31
	ld	a0,-40(s0)
	call	UefiDevicePathLibCatPrint
	.loc 1 714 82 discriminator 3
	ld	a5,-24(s0)
	addi	a5,a5,1
	sd	a5,-24(s0)
.L95:
	.loc 1 714 25 discriminator 1
	ld	a4,-24(s0)
	li	a5,7
	bleu	a4,a5,.L96
	.loc 1 718 3
	lla	a1,.LC32
	ld	a0,-40(s0)
	call	UefiDevicePathLibCatPrint
	.loc 1 719 1
	nop
	ld	ra,56(sp)
	.cfi_restore 1
	ld	s0,48(sp)
	.cfi_restore 8
	.cfi_def_cfa 2, 64
	addi	sp,sp,64
	.cfi_def_cfa_offset 0
	jr	ra
	.cfi_endproc
.LFE13:
	.size	DevPathToTextFibreEx, .-DevPathToTextFibreEx
	.section	.rodata
	.align	3
.LC66:
	.string	"S"
	.string	"a"
	.string	"s"
	.string	"E"
	.string	"x"
	.string	"("
	.string	"0"
	.string	"x"
	.zero	2
	.align	3
.LC67:
	.string	","
	.string	"0"
	.string	"x"
	.string	"%"
	.string	"x"
	.string	","
	.zero	2
	.align	3
.LC68:
	.string	"N"
	.string	"o"
	.string	"T"
	.string	"o"
	.string	"p"
	.string	"o"
	.string	"l"
	.string	"o"
	.string	"g"
	.string	"y"
	.string	","
	.string	"0"
	.string	","
	.string	"0"
	.string	","
	.string	"0"
	.zero	2
	.align	3
.LC69:
	.string	"0"
	.zero	2
	.align	3
.LC70:
	.string	"0"
	.string	"x"
	.string	"%"
	.string	"x"
	.zero	2
	.align	3
.LC71:
	.string	"0"
	.string	"x"
	.string	"%"
	.string	"x"
	.string	","
	.string	"0"
	.string	","
	.string	"0"
	.string	","
	.string	"0"
	.zero	2
	.section	.text.DevPathToTextSasEx,"ax",@progbits
	.align	1
	.globl	DevPathToTextSasEx
	.type	DevPathToTextSasEx, @function
DevPathToTextSasEx:
.LFB14:
	.loc 1 741 1
	.cfi_startproc
	addi	sp,sp,-64
	.cfi_def_cfa_offset 64
	sd	ra,56(sp)
	sd	s0,48(sp)
	.cfi_offset 1, -8
	.cfi_offset 8, -16
	addi	s0,sp,64
	.cfi_def_cfa 8, 0
	sd	a0,-40(s0)
	sd	a1,-48(s0)
	mv	a5,a2
	mv	a4,a3
	sb	a5,-49(s0)
	mv	a5,a4
	sb	a5,-50(s0)
	.loc 1 745 9
	ld	a5,-48(s0)
	sd	a5,-32(s0)
	.loc 1 746 3
	lla	a1,.LC66
	ld	a0,-40(s0)
	call	UefiDevicePathLibCatPrint
	.loc 1 748 14
	sd	zero,-24(s0)
	.loc 1 748 3
	j	.L98
.L99:
	.loc 1 749 63
	ld	a4,-32(s0)
	ld	a5,-24(s0)
	add	a5,a4,a5
	lbu	a5,4(a5)
	.loc 1 749 5
	sext.w	a5,a5
	mv	a2,a5
	lla	a1,.LC31
	ld	a0,-40(s0)
	call	UefiDevicePathLibCatPrint
	.loc 1 748 92 discriminator 3
	ld	a5,-24(s0)
	addi	a5,a5,1
	sd	a5,-24(s0)
.L98:
	.loc 1 748 25 discriminator 1
	ld	a4,-24(s0)
	li	a5,7
	bleu	a4,a5,.L99
	.loc 1 752 3
	lla	a1,.LC65
	ld	a0,-40(s0)
	call	UefiDevicePathLibCatPrint
	.loc 1 753 14
	sd	zero,-24(s0)
	.loc 1 753 3
	j	.L100
.L101:
	.loc 1 754 56
	ld	a4,-32(s0)
	ld	a5,-24(s0)
	add	a5,a4,a5
	lbu	a5,12(a5)
	.loc 1 754 5
	sext.w	a5,a5
	mv	a2,a5
	lla	a1,.LC31
	ld	a0,-40(s0)
	call	UefiDevicePathLibCatPrint
	.loc 1 753 78 discriminator 3
	ld	a5,-24(s0)
	addi	a5,a5,1
	sd	a5,-24(s0)
.L100:
	.loc 1 753 25 discriminator 1
	ld	a4,-24(s0)
	li	a5,7
	bleu	a4,a5,.L101
	.loc 1 757 51
	ld	a5,-32(s0)
	lbu	a4,22(a5)
	lbu	a5,23(a5)
	slli	a5,a5,8
	or	a5,a5,a4
	slli	a5,a5,48
	srli	a5,a5,48
	.loc 1 757 3
	sext.w	a5,a5
	mv	a2,a5
	lla	a1,.LC67
	ld	a0,-40(s0)
	call	UefiDevicePathLibCatPrint
	.loc 1 759 14
	ld	a5,-32(s0)
	lbu	a4,20(a5)
	lbu	a5,21(a5)
	slli	a5,a5,8
	or	a5,a5,a4
	slli	a5,a5,48
	srli	a5,a5,48
	.loc 1 759 31
	sext.w	a5,a5
	andi	a5,a5,15
	sext.w	a5,a5
	.loc 1 759 6
	bne	a5,zero,.L102
	.loc 1 759 55 discriminator 1
	ld	a5,-32(s0)
	lbu	a4,20(a5)
	lbu	a5,21(a5)
	slli	a5,a5,8
	or	a5,a5,a4
	slli	a5,a5,48
	srli	a5,a5,48
	.loc 1 759 72 discriminator 1
	sext.w	a5,a5
	andi	a5,a5,128
	sext.w	a5,a5
	.loc 1 759 45 discriminator 1
	bne	a5,zero,.L102
	.loc 1 760 5
	lla	a1,.LC68
	ld	a0,-40(s0)
	call	UefiDevicePathLibCatPrint
	j	.L103
.L102:
	.loc 1 761 21
	ld	a5,-32(s0)
	lbu	a4,20(a5)
	lbu	a5,21(a5)
	slli	a5,a5,8
	or	a5,a5,a4
	slli	a5,a5,48
	srli	a5,a5,48
	.loc 1 761 38
	sext.w	a5,a5
	andi	a5,a5,15
	sext.w	a4,a5
	.loc 1 761 13
	li	a5,2
	bgt	a4,a5,.L104
	.loc 1 761 62 discriminator 1
	ld	a5,-32(s0)
	lbu	a4,20(a5)
	lbu	a5,21(a5)
	slli	a5,a5,8
	or	a5,a5,a4
	slli	a5,a5,48
	srli	a5,a5,48
	.loc 1 761 79 discriminator 1
	sext.w	a5,a5
	andi	a5,a5,128
	sext.w	a5,a5
	.loc 1 761 52 discriminator 1
	bne	a5,zero,.L104
	.loc 1 765 14
	ld	a5,-32(s0)
	lbu	a4,20(a5)
	lbu	a5,21(a5)
	slli	a5,a5,8
	or	a5,a5,a4
	slli	a5,a5,48
	srli	a5,a5,48
	.loc 1 765 31
	sext.w	a5,a5
	andi	a5,a5,16
	sext.w	a5,a5
	.loc 1 762 5
	beq	a5,zero,.L105
	.loc 1 762 5 is_stmt 0 discriminator 1
	lla	a2,.LC15
	j	.L106
.L105:
	.loc 1 762 5 discriminator 2
	lla	a2,.LC16
.L106:
	.loc 1 766 14 is_stmt 1
	ld	a5,-32(s0)
	lbu	a4,20(a5)
	lbu	a5,21(a5)
	slli	a5,a5,8
	or	a5,a5,a4
	slli	a5,a5,48
	srli	a5,a5,48
	.loc 1 766 31
	sext.w	a5,a5
	andi	a5,a5,32
	sext.w	a5,a5
	.loc 1 762 5 discriminator 4
	beq	a5,zero,.L107
	.loc 1 762 5 is_stmt 0 discriminator 5
	lla	a3,.LC17
	j	.L108
.L107:
	.loc 1 762 5 discriminator 6
	lla	a3,.LC18
.L108:
	.loc 1 767 14 is_stmt 1
	ld	a5,-32(s0)
	lbu	a4,20(a5)
	lbu	a5,21(a5)
	slli	a5,a5,8
	or	a5,a5,a4
	slli	a5,a5,48
	srli	a5,a5,48
	.loc 1 767 31
	sext.w	a5,a5
	andi	a5,a5,64
	sext.w	a5,a5
	.loc 1 762 5 discriminator 8
	beq	a5,zero,.L109
	.loc 1 762 5 is_stmt 0 discriminator 9
	lla	a5,.LC19
	j	.L110
.L109:
	.loc 1 762 5 discriminator 10
	lla	a5,.LC20
.L110:
	.loc 1 762 5 discriminator 12
	mv	a4,a5
	lla	a1,.LC21
	ld	a0,-40(s0)
	call	UefiDevicePathLibCatPrint
	.loc 1 769 15 is_stmt 1
	ld	a5,-32(s0)
	lbu	a4,20(a5)
	lbu	a5,21(a5)
	slli	a5,a5,8
	or	a5,a5,a4
	slli	a5,a5,48
	srli	a5,a5,48
	.loc 1 769 32
	sext.w	a5,a5
	andi	a5,a5,15
	sext.w	a4,a5
	.loc 1 769 8
	li	a5,1
	bne	a4,a5,.L111
	.loc 1 770 7
	lla	a1,.LC69
	ld	a0,-40(s0)
	call	UefiDevicePathLibCatPrint
	.loc 1 769 8
	j	.L103
.L111:
	.loc 1 775 55
	ld	a5,-32(s0)
	lbu	a4,20(a5)
	lbu	a5,21(a5)
	slli	a5,a5,8
	or	a5,a5,a4
	slli	a5,a5,48
	srli	a5,a5,48
	.loc 1 775 78
	srliw	a5,a5,8
	slli	a5,a5,48
	srli	a5,a5,48
	sext.w	a5,a5
	andi	a5,a5,255
	sext.w	a5,a5
	.loc 1 775 7
	addiw	a5,a5,1
	sext.w	a5,a5
	mv	a2,a5
	lla	a1,.LC70
	ld	a0,-40(s0)
	call	UefiDevicePathLibCatPrint
	.loc 1 769 8
	j	.L103
.L104:
	.loc 1 778 57
	ld	a5,-32(s0)
	lbu	a4,20(a5)
	lbu	a5,21(a5)
	slli	a5,a5,8
	or	a5,a5,a4
	slli	a5,a5,48
	srli	a5,a5,48
	.loc 1 778 5
	sext.w	a5,a5
	mv	a2,a5
	lla	a1,.LC71
	ld	a0,-40(s0)
	call	UefiDevicePathLibCatPrint
.L103:
	.loc 1 781 3
	lla	a1,.LC32
	ld	a0,-40(s0)
	call	UefiDevicePathLibCatPrint
	.loc 1 782 3
	nop
	.loc 1 783 1
	ld	ra,56(sp)
	.cfi_restore 1
	ld	s0,48(sp)
	.cfi_restore 8
	.cfi_def_cfa 2, 64
	addi	sp,sp,64
	.cfi_def_cfa_offset 0
	jr	ra
	.cfi_endproc
.LFE14:
	.size	DevPathToTextSasEx, .-DevPathToTextSasEx
	.section	.rodata
	.align	3
.LC72:
	.string	"N"
	.string	"V"
	.string	"M"
	.string	"e"
	.string	"("
	.string	"0"
	.string	"x"
	.string	"%"
	.string	"x"
	.string	","
	.string	"%"
	.string	"0"
	.string	"2"
	.string	"x"
	.string	"-"
	.string	"%"
	.string	"0"
	.string	"2"
	.string	"x"
	.string	"-"
	.string	"%"
	.string	"0"
	.string	"2"
	.string	"x"
	.string	"-"
	.string	"%"
	.string	"0"
	.string	"2"
	.string	"x"
	.string	"-"
	.string	"%"
	.string	"0"
	.string	"2"
	.string	"x"
	.string	"-"
	.string	"%"
	.string	"0"
	.string	"2"
	.string	"x"
	.string	"-"
	.string	"%"
	.string	"0"
	.string	"2"
	.string	"x"
	.string	"-"
	.string	"%"
	.string	"0"
	.string	"2"
	.string	"x"
	.string	")"
	.zero	2
	.section	.text.DevPathToTextNVMe,"ax",@progbits
	.align	1
	.globl	DevPathToTextNVMe
	.type	DevPathToTextNVMe, @function
DevPathToTextNVMe:
.LFB15:
	.loc 1 805 1
	.cfi_startproc
	addi	sp,sp,-96
	.cfi_def_cfa_offset 96
	sd	ra,88(sp)
	sd	s0,80(sp)
	.cfi_offset 1, -8
	.cfi_offset 8, -16
	addi	s0,sp,96
	.cfi_def_cfa 8, 0
	sd	a0,-40(s0)
	sd	a1,-48(s0)
	mv	a5,a2
	mv	a4,a3
	sb	a5,-49(s0)
	mv	a5,a4
	sb	a5,-50(s0)
	.loc 1 809 8
	ld	a5,-48(s0)
	sd	a5,-24(s0)
	.loc 1 810 8
	ld	a5,-24(s0)
	addi	a5,a5,8
	sd	a5,-32(s0)
	.loc 1 811 3
	ld	a5,-24(s0)
	lbu	a4,4(a5)
	lbu	a3,5(a5)
	slli	a3,a3,8
	or	a4,a3,a4
	lbu	a3,6(a5)
	slli	a3,a3,16
	or	a4,a3,a4
	lbu	a5,7(a5)
	slli	a5,a5,24
	or	a5,a5,a4
	sext.w	a2,a5
	.loc 1 815 9
	ld	a5,-32(s0)
	addi	a5,a5,7
	lbu	a5,0(a5)
	.loc 1 811 3
	sext.w	a1,a5
	.loc 1 816 9
	ld	a5,-32(s0)
	addi	a5,a5,6
	lbu	a5,0(a5)
	.loc 1 811 3
	sext.w	a0,a5
	.loc 1 817 9
	ld	a5,-32(s0)
	addi	a5,a5,5
	lbu	a5,0(a5)
	.loc 1 811 3
	sext.w	t1,a5
	.loc 1 818 9
	ld	a5,-32(s0)
	addi	a5,a5,4
	lbu	a5,0(a5)
	.loc 1 811 3
	sext.w	a6,a5
	.loc 1 819 9
	ld	a5,-32(s0)
	addi	a5,a5,3
	lbu	a5,0(a5)
	.loc 1 811 3
	sext.w	a7,a5
	.loc 1 820 9
	ld	a5,-32(s0)
	addi	a5,a5,2
	lbu	a5,0(a5)
	.loc 1 811 3
	sext.w	a5,a5
	.loc 1 821 9
	ld	a4,-32(s0)
	addi	a4,a4,1
	lbu	a4,0(a4)
	.loc 1 811 3
	sext.w	a4,a4
	.loc 1 822 9
	ld	a3,-32(s0)
	lbu	a3,0(a3)
	.loc 1 811 3
	sext.w	a3,a3
	sd	a3,16(sp)
	sd	a4,8(sp)
	sd	a5,0(sp)
	mv	a5,t1
	mv	a4,a0
	mv	a3,a1
	lla	a1,.LC72
	ld	a0,-40(s0)
	call	UefiDevicePathLibCatPrint
	.loc 1 824 1
	nop
	ld	ra,88(sp)
	.cfi_restore 1
	ld	s0,80(sp)
	.cfi_restore 8
	.cfi_def_cfa 2, 96
	addi	sp,sp,96
	.cfi_def_cfa_offset 0
	jr	ra
	.cfi_endproc
.LFE15:
	.size	DevPathToTextNVMe, .-DevPathToTextNVMe
	.section	.rodata
	.align	3
.LC73:
	.string	"U"
	.string	"F"
	.string	"S"
	.string	"("
	.string	"0"
	.string	"x"
	.string	"%"
	.string	"x"
	.string	","
	.string	"0"
	.string	"x"
	.string	"%"
	.string	"x"
	.string	")"
	.zero	2
	.section	.text.DevPathToTextUfs,"ax",@progbits
	.align	1
	.globl	DevPathToTextUfs
	.type	DevPathToTextUfs, @function
DevPathToTextUfs:
.LFB16:
	.loc 1 846 1
	.cfi_startproc
	addi	sp,sp,-64
	.cfi_def_cfa_offset 64
	sd	ra,56(sp)
	sd	s0,48(sp)
	.cfi_offset 1, -8
	.cfi_offset 8, -16
	addi	s0,sp,64
	.cfi_def_cfa 8, 0
	sd	a0,-40(s0)
	sd	a1,-48(s0)
	mv	a5,a2
	mv	a4,a3
	sb	a5,-49(s0)
	mv	a5,a4
	sb	a5,-50(s0)
	.loc 1 849 7
	ld	a5,-48(s0)
	sd	a5,-24(s0)
	.loc 1 850 57
	ld	a5,-24(s0)
	lbu	a5,4(a5)
	.loc 1 850 3
	sext.w	a4,a5
	.loc 1 850 67
	ld	a5,-24(s0)
	lbu	a5,5(a5)
	.loc 1 850 3
	sext.w	a5,a5
	mv	a3,a5
	mv	a2,a4
	lla	a1,.LC73
	ld	a0,-40(s0)
	call	UefiDevicePathLibCatPrint
	.loc 1 851 1
	nop
	ld	ra,56(sp)
	.cfi_restore 1
	ld	s0,48(sp)
	.cfi_restore 8
	.cfi_def_cfa 2, 64
	addi	sp,sp,64
	.cfi_def_cfa_offset 0
	jr	ra
	.cfi_endproc
.LFE16:
	.size	DevPathToTextUfs, .-DevPathToTextUfs
	.section	.rodata
	.align	3
.LC74:
	.string	"S"
	.string	"D"
	.string	"("
	.string	"0"
	.string	"x"
	.string	"%"
	.string	"x"
	.string	")"
	.zero	2
	.section	.text.DevPathToTextSd,"ax",@progbits
	.align	1
	.globl	DevPathToTextSd
	.type	DevPathToTextSd, @function
DevPathToTextSd:
.LFB17:
	.loc 1 873 1
	.cfi_startproc
	addi	sp,sp,-64
	.cfi_def_cfa_offset 64
	sd	ra,56(sp)
	sd	s0,48(sp)
	.cfi_offset 1, -8
	.cfi_offset 8, -16
	addi	s0,sp,64
	.cfi_def_cfa 8, 0
	sd	a0,-40(s0)
	sd	a1,-48(s0)
	mv	a5,a2
	mv	a4,a3
	sb	a5,-49(s0)
	mv	a5,a4
	sb	a5,-50(s0)
	.loc 1 876 6
	ld	a5,-48(s0)
	sd	a5,-24(s0)
	.loc 1 880 7
	ld	a5,-24(s0)
	lbu	a5,4(a5)
	.loc 1 877 3
	sext.w	a5,a5
	mv	a2,a5
	lla	a1,.LC74
	ld	a0,-40(s0)
	call	UefiDevicePathLibCatPrint
	.loc 1 882 1
	nop
	ld	ra,56(sp)
	.cfi_restore 1
	ld	s0,48(sp)
	.cfi_restore 8
	.cfi_def_cfa 2, 64
	addi	sp,sp,64
	.cfi_def_cfa_offset 0
	jr	ra
	.cfi_endproc
.LFE17:
	.size	DevPathToTextSd, .-DevPathToTextSd
	.section	.rodata
	.align	3
.LC75:
	.string	"e"
	.string	"M"
	.string	"M"
	.string	"C"
	.string	"("
	.string	"0"
	.string	"x"
	.string	"%"
	.string	"x"
	.string	")"
	.zero	2
	.section	.text.DevPathToTextEmmc,"ax",@progbits
	.align	1
	.globl	DevPathToTextEmmc
	.type	DevPathToTextEmmc, @function
DevPathToTextEmmc:
.LFB18:
	.loc 1 904 1
	.cfi_startproc
	addi	sp,sp,-64
	.cfi_def_cfa_offset 64
	sd	ra,56(sp)
	sd	s0,48(sp)
	.cfi_offset 1, -8
	.cfi_offset 8, -16
	addi	s0,sp,64
	.cfi_def_cfa 8, 0
	sd	a0,-40(s0)
	sd	a1,-48(s0)
	mv	a5,a2
	mv	a4,a3
	sb	a5,-49(s0)
	mv	a5,a4
	sb	a5,-50(s0)
	.loc 1 907 8
	ld	a5,-48(s0)
	sd	a5,-24(s0)
	.loc 1 911 9
	ld	a5,-24(s0)
	lbu	a5,4(a5)
	.loc 1 908 3
	sext.w	a5,a5
	mv	a2,a5
	lla	a1,.LC75
	ld	a0,-40(s0)
	call	UefiDevicePathLibCatPrint
	.loc 1 913 1
	nop
	ld	ra,56(sp)
	.cfi_restore 1
	ld	s0,48(sp)
	.cfi_restore 8
	.cfi_def_cfa 2, 64
	addi	sp,sp,64
	.cfi_def_cfa_offset 0
	jr	ra
	.cfi_endproc
.LFE18:
	.size	DevPathToTextEmmc, .-DevPathToTextEmmc
	.section	.rodata
	.align	3
.LC76:
	.string	"I"
	.string	"1"
	.string	"3"
	.string	"9"
	.string	"4"
	.string	"("
	.string	"%"
	.string	"0"
	.string	"1"
	.string	"6"
	.string	"l"
	.string	"x"
	.string	")"
	.zero	2
	.section	.text.DevPathToText1394,"ax",@progbits
	.align	1
	.globl	DevPathToText1394
	.type	DevPathToText1394, @function
DevPathToText1394:
.LFB19:
	.loc 1 935 1
	.cfi_startproc
	addi	sp,sp,-64
	.cfi_def_cfa_offset 64
	sd	ra,56(sp)
	sd	s0,48(sp)
	.cfi_offset 1, -8
	.cfi_offset 8, -16
	addi	s0,sp,64
	.cfi_def_cfa 8, 0
	sd	a0,-40(s0)
	sd	a1,-48(s0)
	mv	a5,a2
	mv	a4,a3
	sb	a5,-49(s0)
	mv	a5,a4
	sb	a5,-50(s0)
	.loc 1 938 16
	ld	a5,-48(s0)
	sd	a5,-24(s0)
	.loc 1 942 3
	ld	a5,-24(s0)
	lbu	a4,8(a5)
	lbu	a3,9(a5)
	slli	a3,a3,8
	or	a4,a3,a4
	lbu	a3,10(a5)
	slli	a3,a3,16
	or	a4,a3,a4
	lbu	a3,11(a5)
	slli	a3,a3,24
	or	a4,a3,a4
	lbu	a3,12(a5)
	slli	a3,a3,32
	or	a4,a3,a4
	lbu	a3,13(a5)
	slli	a3,a3,40
	or	a4,a3,a4
	lbu	a3,14(a5)
	slli	a3,a3,48
	or	a4,a3,a4
	lbu	a5,15(a5)
	slli	a5,a5,56
	or	a5,a5,a4
	mv	a2,a5
	lla	a1,.LC76
	ld	a0,-40(s0)
	call	UefiDevicePathLibCatPrint
	.loc 1 943 1
	nop
	ld	ra,56(sp)
	.cfi_restore 1
	ld	s0,48(sp)
	.cfi_restore 8
	.cfi_def_cfa 2, 64
	addi	sp,sp,64
	.cfi_def_cfa_offset 0
	jr	ra
	.cfi_endproc
.LFE19:
	.size	DevPathToText1394, .-DevPathToText1394
	.section	.rodata
	.align	3
.LC77:
	.string	"U"
	.string	"S"
	.string	"B"
	.string	"("
	.string	"0"
	.string	"x"
	.string	"%"
	.string	"x"
	.string	","
	.string	"0"
	.string	"x"
	.string	"%"
	.string	"x"
	.string	")"
	.zero	2
	.section	.text.DevPathToTextUsb,"ax",@progbits
	.align	1
	.globl	DevPathToTextUsb
	.type	DevPathToTextUsb, @function
DevPathToTextUsb:
.LFB20:
	.loc 1 965 1
	.cfi_startproc
	addi	sp,sp,-64
	.cfi_def_cfa_offset 64
	sd	ra,56(sp)
	sd	s0,48(sp)
	.cfi_offset 1, -8
	.cfi_offset 8, -16
	addi	s0,sp,64
	.cfi_def_cfa 8, 0
	sd	a0,-40(s0)
	sd	a1,-48(s0)
	mv	a5,a2
	mv	a4,a3
	sb	a5,-49(s0)
	mv	a5,a4
	sb	a5,-50(s0)
	.loc 1 968 7
	ld	a5,-48(s0)
	sd	a5,-24(s0)
	.loc 1 969 57
	ld	a5,-24(s0)
	lbu	a5,4(a5)
	.loc 1 969 3
	sext.w	a4,a5
	.loc 1 969 80
	ld	a5,-24(s0)
	lbu	a5,5(a5)
	.loc 1 969 3
	sext.w	a5,a5
	mv	a3,a5
	mv	a2,a4
	lla	a1,.LC77
	ld	a0,-40(s0)
	call	UefiDevicePathLibCatPrint
	.loc 1 970 1
	nop
	ld	ra,56(sp)
	.cfi_restore 1
	ld	s0,48(sp)
	.cfi_restore 8
	.cfi_def_cfa 2, 64
	addi	sp,sp,64
	.cfi_def_cfa_offset 0
	jr	ra
	.cfi_endproc
.LFE20:
	.size	DevPathToTextUsb, .-DevPathToTextUsb
	.section	.rodata
	.align	3
.LC78:
	.string	"U"
	.string	"s"
	.string	"b"
	.string	"W"
	.string	"w"
	.string	"i"
	.string	"d"
	.string	"("
	.string	"0"
	.string	"x"
	.string	"%"
	.string	"x"
	.string	","
	.string	"0"
	.string	"x"
	.string	"%"
	.string	"x"
	.string	","
	.string	"0"
	.string	"x"
	.string	"%"
	.string	"x"
	.string	","
	.string	"\""
	.string	"%"
	.string	"s"
	.string	"\""
	.string	")"
	.zero	2
	.section	.text.DevPathToTextUsbWWID,"ax",@progbits
	.align	1
	.globl	DevPathToTextUsbWWID
	.type	DevPathToTextUsbWWID, @function
DevPathToTextUsbWWID:
.LFB21:
	.loc 1 992 1
	.cfi_startproc
	addi	sp,sp,-80
	.cfi_def_cfa_offset 80
	sd	ra,72(sp)
	sd	s0,64(sp)
	.cfi_offset 1, -8
	.cfi_offset 8, -16
	addi	s0,sp,80
	.cfi_def_cfa 8, 0
	sd	a0,-56(s0)
	sd	a1,-64(s0)
	mv	a5,a2
	mv	a4,a3
	sb	a5,-65(s0)
	mv	a5,a4
	sb	a5,-66(s0)
	.loc 1 998 11
	ld	a5,-64(s0)
	sd	a5,-32(s0)
	.loc 1 1000 19
	ld	a5,-32(s0)
	addi	a5,a5,10
	sd	a5,-24(s0)
	.loc 1 1001 22
	ld	a0,-32(s0)
	call	DevicePathNodeLength@plt
	mv	a5,a0
	.loc 1 1001 81 discriminator 1
	addi	a5,a5,-10
	.loc 1 1001 114 discriminator 1
	srli	a5,a5,1
	.loc 1 1001 10 discriminator 1
	sh	a5,-34(s0)
	.loc 1 1002 6
	lhu	a5,-34(s0)
	sext.w	a5,a5
	beq	a5,zero,.L121
	.loc 1 1002 40 discriminator 1
	lhu	a5,-34(s0)
	slli	a5,a5,1
	addi	a5,a5,-2
	ld	a4,-24(s0)
	add	a5,a4,a5
	lhu	a5,0(a5)
	.loc 1 1002 21 discriminator 1
	beq	a5,zero,.L121
	.loc 1 1006 36
	lhu	a5,-34(s0)
	sext.w	a5,a5
	addiw	a5,a5,1
	sext.w	a5,a5
	.loc 1 1006 41
	slli	a5,a5,1
	.loc 1 1006 14
	mv	a0,a5
	call	AllocatePool@plt
	sd	a0,-48(s0)
	.loc 1 1008 5
	lhu	a5,-34(s0)
	.loc 1 1008 46
	slli	a5,a5,1
	.loc 1 1008 5
	mv	a2,a5
	ld	a1,-24(s0)
	ld	a0,-48(s0)
	call	CopyMem@plt
	.loc 1 1009 11
	lhu	a5,-34(s0)
	slli	a5,a5,1
	ld	a4,-48(s0)
	add	a5,a4,a5
	.loc 1 1009 20
	sh	zero,0(a5)
	.loc 1 1010 21
	ld	a5,-48(s0)
	sd	a5,-24(s0)
.L121:
	.loc 1 1016 12
	ld	a5,-32(s0)
	lbu	a4,6(a5)
	lbu	a5,7(a5)
	slli	a5,a5,8
	or	a5,a5,a4
	slli	a5,a5,48
	srli	a5,a5,48
	.loc 1 1013 3
	sext.w	a2,a5
	.loc 1 1017 12
	ld	a5,-32(s0)
	lbu	a4,8(a5)
	lbu	a5,9(a5)
	slli	a5,a5,8
	or	a5,a5,a4
	slli	a5,a5,48
	srli	a5,a5,48
	.loc 1 1013 3
	sext.w	a3,a5
	.loc 1 1018 12
	ld	a5,-32(s0)
	lbu	a4,4(a5)
	lbu	a5,5(a5)
	slli	a5,a5,8
	or	a5,a5,a4
	slli	a5,a5,48
	srli	a5,a5,48
	.loc 1 1013 3
	sext.w	a4,a5
	ld	a5,-24(s0)
	lla	a1,.LC78
	ld	a0,-56(s0)
	call	UefiDevicePathLibCatPrint
	.loc 1 1021 1
	nop
	ld	ra,72(sp)
	.cfi_restore 1
	ld	s0,64(sp)
	.cfi_restore 8
	.cfi_def_cfa 2, 80
	addi	sp,sp,80
	.cfi_def_cfa_offset 0
	jr	ra
	.cfi_endproc
.LFE21:
	.size	DevPathToTextUsbWWID, .-DevPathToTextUsbWWID
	.section	.rodata
	.align	3
.LC79:
	.string	"U"
	.string	"n"
	.string	"i"
	.string	"t"
	.string	"("
	.string	"0"
	.string	"x"
	.string	"%"
	.string	"x"
	.string	")"
	.zero	2
	.section	.text.DevPathToTextLogicalUnit,"ax",@progbits
	.align	1
	.globl	DevPathToTextLogicalUnit
	.type	DevPathToTextLogicalUnit, @function
DevPathToTextLogicalUnit:
.LFB22:
	.loc 1 1043 1
	.cfi_startproc
	addi	sp,sp,-64
	.cfi_def_cfa_offset 64
	sd	ra,56(sp)
	sd	s0,48(sp)
	.cfi_offset 1, -8
	.cfi_offset 8, -16
	addi	s0,sp,64
	.cfi_def_cfa 8, 0
	sd	a0,-40(s0)
	sd	a1,-48(s0)
	mv	a5,a2
	mv	a4,a3
	sb	a5,-49(s0)
	mv	a5,a4
	sb	a5,-50(s0)
	.loc 1 1046 15
	ld	a5,-48(s0)
	sd	a5,-24(s0)
	.loc 1 1047 61
	ld	a5,-24(s0)
	lbu	a5,4(a5)
	.loc 1 1047 3
	sext.w	a5,a5
	mv	a2,a5
	lla	a1,.LC79
	ld	a0,-40(s0)
	call	UefiDevicePathLibCatPrint
	.loc 1 1048 1
	nop
	ld	ra,56(sp)
	.cfi_restore 1
	ld	s0,48(sp)
	.cfi_restore 8
	.cfi_def_cfa 2, 64
	addi	sp,sp,64
	.cfi_def_cfa_offset 0
	jr	ra
	.cfi_endproc
.LFE22:
	.size	DevPathToTextLogicalUnit, .-DevPathToTextLogicalUnit
	.section	.rodata
	.align	3
.LC80:
	.string	"U"
	.string	"s"
	.string	"b"
	.string	"A"
	.string	"u"
	.string	"d"
	.string	"i"
	.string	"o"
	.zero	2
	.align	3
.LC81:
	.string	"U"
	.string	"s"
	.string	"b"
	.string	"C"
	.string	"D"
	.string	"C"
	.string	"C"
	.string	"o"
	.string	"n"
	.string	"t"
	.string	"r"
	.string	"o"
	.string	"l"
	.zero	2
	.align	3
.LC82:
	.string	"U"
	.string	"s"
	.string	"b"
	.string	"H"
	.string	"I"
	.string	"D"
	.zero	2
	.align	3
.LC83:
	.string	"U"
	.string	"s"
	.string	"b"
	.string	"I"
	.string	"m"
	.string	"a"
	.string	"g"
	.string	"e"
	.zero	2
	.align	3
.LC84:
	.string	"U"
	.string	"s"
	.string	"b"
	.string	"P"
	.string	"r"
	.string	"i"
	.string	"n"
	.string	"t"
	.string	"e"
	.string	"r"
	.zero	2
	.align	3
.LC85:
	.string	"U"
	.string	"s"
	.string	"b"
	.string	"M"
	.string	"a"
	.string	"s"
	.string	"s"
	.string	"S"
	.string	"t"
	.string	"o"
	.string	"r"
	.string	"a"
	.string	"g"
	.string	"e"
	.zero	2
	.align	3
.LC86:
	.string	"U"
	.string	"s"
	.string	"b"
	.string	"H"
	.string	"u"
	.string	"b"
	.zero	2
	.align	3
.LC87:
	.string	"U"
	.string	"s"
	.string	"b"
	.string	"C"
	.string	"D"
	.string	"C"
	.string	"D"
	.string	"a"
	.string	"t"
	.string	"a"
	.zero	2
	.align	3
.LC88:
	.string	"U"
	.string	"s"
	.string	"b"
	.string	"S"
	.string	"m"
	.string	"a"
	.string	"r"
	.string	"t"
	.string	"C"
	.string	"a"
	.string	"r"
	.string	"d"
	.zero	2
	.align	3
.LC89:
	.string	"U"
	.string	"s"
	.string	"b"
	.string	"V"
	.string	"i"
	.string	"d"
	.string	"e"
	.string	"o"
	.zero	2
	.align	3
.LC90:
	.string	"U"
	.string	"s"
	.string	"b"
	.string	"D"
	.string	"i"
	.string	"a"
	.string	"g"
	.string	"n"
	.string	"o"
	.string	"s"
	.string	"t"
	.string	"i"
	.string	"c"
	.zero	2
	.align	3
.LC91:
	.string	"U"
	.string	"s"
	.string	"b"
	.string	"W"
	.string	"i"
	.string	"r"
	.string	"e"
	.string	"l"
	.string	"e"
	.string	"s"
	.string	"s"
	.zero	2
	.align	3
.LC92:
	.string	"("
	.string	"0"
	.string	"x"
	.string	"%"
	.string	"x"
	.string	","
	.string	"0"
	.string	"x"
	.string	"%"
	.string	"x"
	.string	","
	.string	"0"
	.string	"x"
	.string	"%"
	.string	"x"
	.string	","
	.string	"0"
	.string	"x"
	.string	"%"
	.string	"x"
	.string	")"
	.zero	2
	.align	3
.LC93:
	.string	"U"
	.string	"s"
	.string	"b"
	.string	"D"
	.string	"e"
	.string	"v"
	.string	"i"
	.string	"c"
	.string	"e"
	.string	"F"
	.string	"i"
	.string	"r"
	.string	"m"
	.string	"w"
	.string	"a"
	.string	"r"
	.string	"e"
	.string	"U"
	.string	"p"
	.string	"d"
	.string	"a"
	.string	"t"
	.string	"e"
	.string	"("
	.string	"0"
	.string	"x"
	.string	"%"
	.string	"x"
	.string	","
	.string	"0"
	.string	"x"
	.string	"%"
	.string	"x"
	.string	","
	.string	"0"
	.string	"x"
	.string	"%"
	.string	"x"
	.string	")"
	.zero	2
	.align	3
.LC94:
	.string	"U"
	.string	"s"
	.string	"b"
	.string	"I"
	.string	"r"
	.string	"d"
	.string	"a"
	.string	"B"
	.string	"r"
	.string	"i"
	.string	"d"
	.string	"g"
	.string	"e"
	.string	"("
	.string	"0"
	.string	"x"
	.string	"%"
	.string	"x"
	.string	","
	.string	"0"
	.string	"x"
	.string	"%"
	.string	"x"
	.string	","
	.string	"0"
	.string	"x"
	.string	"%"
	.string	"x"
	.string	")"
	.zero	2
	.align	3
.LC95:
	.string	"U"
	.string	"s"
	.string	"b"
	.string	"T"
	.string	"e"
	.string	"s"
	.string	"t"
	.string	"A"
	.string	"n"
	.string	"d"
	.string	"M"
	.string	"e"
	.string	"a"
	.string	"s"
	.string	"u"
	.string	"r"
	.string	"e"
	.string	"m"
	.string	"e"
	.string	"n"
	.string	"t"
	.string	"("
	.string	"0"
	.string	"x"
	.string	"%"
	.string	"x"
	.string	","
	.string	"0"
	.string	"x"
	.string	"%"
	.string	"x"
	.string	","
	.string	"0"
	.string	"x"
	.string	"%"
	.string	"x"
	.string	")"
	.zero	2
	.align	3
.LC96:
	.string	"U"
	.string	"s"
	.string	"b"
	.string	"C"
	.string	"l"
	.string	"a"
	.string	"s"
	.string	"s"
	.string	"("
	.string	"0"
	.string	"x"
	.string	"%"
	.string	"x"
	.string	","
	.string	"0"
	.string	"x"
	.string	"%"
	.string	"x"
	.string	","
	.string	"0"
	.string	"x"
	.string	"%"
	.string	"x"
	.string	","
	.string	"0"
	.string	"x"
	.string	"%"
	.string	"x"
	.string	","
	.string	"0"
	.string	"x"
	.string	"%"
	.string	"x"
	.string	")"
	.zero	2
	.section	.text.DevPathToTextUsbClass,"ax",@progbits
	.align	1
	.globl	DevPathToTextUsbClass
	.type	DevPathToTextUsbClass, @function
DevPathToTextUsbClass:
.LFB23:
	.loc 1 1070 1
	.cfi_startproc
	addi	sp,sp,-64
	.cfi_def_cfa_offset 64
	sd	ra,56(sp)
	sd	s0,48(sp)
	.cfi_offset 1, -8
	.cfi_offset 8, -16
	addi	s0,sp,64
	.cfi_def_cfa 8, 0
	sd	a0,-40(s0)
	sd	a1,-48(s0)
	mv	a5,a2
	mv	a4,a3
	sb	a5,-49(s0)
	mv	a5,a4
	sb	a5,-50(s0)
	.loc 1 1074 12
	ld	a5,-48(s0)
	sd	a5,-32(s0)
	.loc 1 1076 19
	li	a5,1
	sb	a5,-17(s0)
	.loc 1 1077 19
	ld	a5,-32(s0)
	lbu	a5,8(a5)
	sext.w	a5,a5
	.loc 1 1077 3
	li	a4,224
	beq	a5,a4,.L124
	li	a4,224
	bgt	a5,a4,.L125
	li	a4,220
	beq	a5,a4,.L126
	li	a4,220
	bgt	a5,a4,.L125
	li	a4,14
	beq	a5,a4,.L127
	li	a4,14
	bgt	a5,a4,.L125
	li	a4,11
	beq	a5,a4,.L128
	li	a4,11
	bgt	a5,a4,.L125
	li	a4,10
	beq	a5,a4,.L129
	li	a4,10
	bgt	a5,a4,.L125
	li	a4,9
	beq	a5,a4,.L130
	li	a4,9
	bgt	a5,a4,.L125
	li	a4,8
	beq	a5,a4,.L131
	li	a4,8
	bgt	a5,a4,.L125
	li	a4,7
	beq	a5,a4,.L132
	li	a4,7
	bgt	a5,a4,.L125
	li	a4,6
	beq	a5,a4,.L133
	li	a4,6
	bgt	a5,a4,.L125
	li	a4,3
	beq	a5,a4,.L134
	li	a4,3
	bgt	a5,a4,.L125
	li	a4,1
	beq	a5,a4,.L135
	li	a4,2
	beq	a5,a4,.L136
	j	.L125
.L135:
	.loc 1 1079 7
	lla	a1,.LC80
	ld	a0,-40(s0)
	call	UefiDevicePathLibCatPrint
	.loc 1 1080 7
	j	.L137
.L136:
	.loc 1 1083 7
	lla	a1,.LC81
	ld	a0,-40(s0)
	call	UefiDevicePathLibCatPrint
	.loc 1 1084 7
	j	.L137
.L134:
	.loc 1 1087 7
	lla	a1,.LC82
	ld	a0,-40(s0)
	call	UefiDevicePathLibCatPrint
	.loc 1 1088 7
	j	.L137
.L133:
	.loc 1 1091 7
	lla	a1,.LC83
	ld	a0,-40(s0)
	call	UefiDevicePathLibCatPrint
	.loc 1 1092 7
	j	.L137
.L132:
	.loc 1 1095 7
	lla	a1,.LC84
	ld	a0,-40(s0)
	call	UefiDevicePathLibCatPrint
	.loc 1 1096 7
	j	.L137
.L131:
	.loc 1 1099 7
	lla	a1,.LC85
	ld	a0,-40(s0)
	call	UefiDevicePathLibCatPrint
	.loc 1 1100 7
	j	.L137
.L130:
	.loc 1 1103 7
	lla	a1,.LC86
	ld	a0,-40(s0)
	call	UefiDevicePathLibCatPrint
	.loc 1 1104 7
	j	.L137
.L129:
	.loc 1 1107 7
	lla	a1,.LC87
	ld	a0,-40(s0)
	call	UefiDevicePathLibCatPrint
	.loc 1 1108 7
	j	.L137
.L128:
	.loc 1 1111 7
	lla	a1,.LC88
	ld	a0,-40(s0)
	call	UefiDevicePathLibCatPrint
	.loc 1 1112 7
	j	.L137
.L127:
	.loc 1 1115 7
	lla	a1,.LC89
	ld	a0,-40(s0)
	call	UefiDevicePathLibCatPrint
	.loc 1 1116 7
	j	.L137
.L126:
	.loc 1 1119 7
	lla	a1,.LC90
	ld	a0,-40(s0)
	call	UefiDevicePathLibCatPrint
	.loc 1 1120 7
	j	.L137
.L124:
	.loc 1 1123 7
	lla	a1,.LC91
	ld	a0,-40(s0)
	call	UefiDevicePathLibCatPrint
	.loc 1 1124 7
	j	.L137
.L125:
	.loc 1 1127 23
	sb	zero,-17(s0)
	.loc 1 1128 7
	nop
.L137:
	.loc 1 1131 6
	lbu	a5,-17(s0)
	andi	a5,a5,0xff
	beq	a5,zero,.L138
	.loc 1 1135 15
	ld	a5,-32(s0)
	lbu	a4,4(a5)
	lbu	a5,5(a5)
	slli	a5,a5,8
	or	a5,a5,a4
	slli	a5,a5,48
	srli	a5,a5,48
	.loc 1 1132 5
	sext.w	a2,a5
	.loc 1 1136 15
	ld	a5,-32(s0)
	lbu	a4,6(a5)
	lbu	a5,7(a5)
	slli	a5,a5,8
	or	a5,a5,a4
	slli	a5,a5,48
	srli	a5,a5,48
	.loc 1 1132 5
	sext.w	a3,a5
	.loc 1 1137 15
	ld	a5,-32(s0)
	lbu	a5,9(a5)
	.loc 1 1132 5
	sext.w	a4,a5
	.loc 1 1138 15
	ld	a5,-32(s0)
	lbu	a5,10(a5)
	.loc 1 1132 5
	sext.w	a5,a5
	lla	a1,.LC92
	ld	a0,-40(s0)
	call	UefiDevicePathLibCatPrint
	.loc 1 1140 5
	j	.L123
.L138:
	.loc 1 1143 15
	ld	a5,-32(s0)
	lbu	a5,8(a5)
	.loc 1 1143 6
	mv	a4,a5
	li	a5,254
	bne	a4,a5,.L140
	.loc 1 1144 17
	ld	a5,-32(s0)
	lbu	a5,9(a5)
	.loc 1 1144 8
	mv	a4,a5
	li	a5,1
	bne	a4,a5,.L141
	.loc 1 1148 17
	ld	a5,-32(s0)
	lbu	a4,4(a5)
	lbu	a5,5(a5)
	slli	a5,a5,8
	or	a5,a5,a4
	slli	a5,a5,48
	srli	a5,a5,48
	.loc 1 1145 7
	sext.w	a2,a5
	.loc 1 1149 17
	ld	a5,-32(s0)
	lbu	a4,6(a5)
	lbu	a5,7(a5)
	slli	a5,a5,8
	or	a5,a5,a4
	slli	a5,a5,48
	srli	a5,a5,48
	.loc 1 1145 7
	sext.w	a3,a5
	.loc 1 1150 17
	ld	a5,-32(s0)
	lbu	a5,10(a5)
	.loc 1 1145 7
	sext.w	a5,a5
	mv	a4,a5
	lla	a1,.LC93
	ld	a0,-40(s0)
	call	UefiDevicePathLibCatPrint
	.loc 1 1152 7
	j	.L123
.L141:
	.loc 1 1153 24
	ld	a5,-32(s0)
	lbu	a5,9(a5)
	.loc 1 1153 15
	mv	a4,a5
	li	a5,2
	bne	a4,a5,.L142
	.loc 1 1157 17
	ld	a5,-32(s0)
	lbu	a4,4(a5)
	lbu	a5,5(a5)
	slli	a5,a5,8
	or	a5,a5,a4
	slli	a5,a5,48
	srli	a5,a5,48
	.loc 1 1154 7
	sext.w	a2,a5
	.loc 1 1158 17
	ld	a5,-32(s0)
	lbu	a4,6(a5)
	lbu	a5,7(a5)
	slli	a5,a5,8
	or	a5,a5,a4
	slli	a5,a5,48
	srli	a5,a5,48
	.loc 1 1154 7
	sext.w	a3,a5
	.loc 1 1159 17
	ld	a5,-32(s0)
	lbu	a5,10(a5)
	.loc 1 1154 7
	sext.w	a5,a5
	mv	a4,a5
	lla	a1,.LC94
	ld	a0,-40(s0)
	call	UefiDevicePathLibCatPrint
	.loc 1 1161 7
	j	.L123
.L142:
	.loc 1 1162 24
	ld	a5,-32(s0)
	lbu	a5,9(a5)
	.loc 1 1162 15
	mv	a4,a5
	li	a5,3
	bne	a4,a5,.L140
	.loc 1 1166 17
	ld	a5,-32(s0)
	lbu	a4,4(a5)
	lbu	a5,5(a5)
	slli	a5,a5,8
	or	a5,a5,a4
	slli	a5,a5,48
	srli	a5,a5,48
	.loc 1 1163 7
	sext.w	a2,a5
	.loc 1 1167 17
	ld	a5,-32(s0)
	lbu	a4,6(a5)
	lbu	a5,7(a5)
	slli	a5,a5,8
	or	a5,a5,a4
	slli	a5,a5,48
	srli	a5,a5,48
	.loc 1 1163 7
	sext.w	a3,a5
	.loc 1 1168 17
	ld	a5,-32(s0)
	lbu	a5,10(a5)
	.loc 1 1163 7
	sext.w	a5,a5
	mv	a4,a5
	lla	a1,.LC95
	ld	a0,-40(s0)
	call	UefiDevicePathLibCatPrint
	.loc 1 1170 7
	j	.L123
.L140:
	.loc 1 1177 13
	ld	a5,-32(s0)
	lbu	a4,4(a5)
	lbu	a5,5(a5)
	slli	a5,a5,8
	or	a5,a5,a4
	slli	a5,a5,48
	srli	a5,a5,48
	.loc 1 1174 3
	sext.w	a2,a5
	.loc 1 1178 13
	ld	a5,-32(s0)
	lbu	a4,6(a5)
	lbu	a5,7(a5)
	slli	a5,a5,8
	or	a5,a5,a4
	slli	a5,a5,48
	srli	a5,a5,48
	.loc 1 1174 3
	sext.w	a3,a5
	.loc 1 1179 13
	ld	a5,-32(s0)
	lbu	a5,8(a5)
	.loc 1 1174 3
	sext.w	a4,a5
	.loc 1 1180 13
	ld	a5,-32(s0)
	lbu	a5,9(a5)
	.loc 1 1174 3
	sext.w	a1,a5
	.loc 1 1181 13
	ld	a5,-32(s0)
	lbu	a5,10(a5)
	.loc 1 1174 3
	sext.w	a5,a5
	mv	a6,a5
	mv	a5,a1
	lla	a1,.LC96
	ld	a0,-40(s0)
	call	UefiDevicePathLibCatPrint
.L123:
	.loc 1 1183 1
	ld	ra,56(sp)
	.cfi_restore 1
	ld	s0,48(sp)
	.cfi_restore 8
	.cfi_def_cfa 2, 64
	addi	sp,sp,64
	.cfi_def_cfa_offset 0
	jr	ra
	.cfi_endproc
.LFE23:
	.size	DevPathToTextUsbClass, .-DevPathToTextUsbClass
	.section	.rodata
	.align	3
.LC97:
	.string	"S"
	.string	"a"
	.string	"t"
	.string	"a"
	.string	"("
	.string	"0"
	.string	"x"
	.string	"%"
	.string	"x"
	.string	","
	.string	"0"
	.string	"x"
	.string	"%"
	.string	"x"
	.string	","
	.string	"0"
	.string	"x"
	.string	"%"
	.string	"x"
	.string	")"
	.zero	2
	.section	.text.DevPathToTextSata,"ax",@progbits
	.align	1
	.globl	DevPathToTextSata
	.type	DevPathToTextSata, @function
DevPathToTextSata:
.LFB24:
	.loc 1 1205 1
	.cfi_startproc
	addi	sp,sp,-64
	.cfi_def_cfa_offset 64
	sd	ra,56(sp)
	sd	s0,48(sp)
	.cfi_offset 1, -8
	.cfi_offset 8, -16
	addi	s0,sp,64
	.cfi_def_cfa 8, 0
	sd	a0,-40(s0)
	sd	a1,-48(s0)
	mv	a5,a2
	mv	a4,a3
	sb	a5,-49(s0)
	mv	a5,a4
	sb	a5,-50(s0)
	.loc 1 1208 8
	ld	a5,-48(s0)
	sd	a5,-24(s0)
	.loc 1 1212 9
	ld	a5,-24(s0)
	lbu	a4,4(a5)
	lbu	a5,5(a5)
	slli	a5,a5,8
	or	a5,a5,a4
	slli	a5,a5,48
	srli	a5,a5,48
	.loc 1 1209 3
	sext.w	a2,a5
	.loc 1 1213 9
	ld	a5,-24(s0)
	lbu	a4,6(a5)
	lbu	a5,7(a5)
	slli	a5,a5,8
	or	a5,a5,a4
	slli	a5,a5,48
	srli	a5,a5,48
	.loc 1 1209 3
	sext.w	a3,a5
	.loc 1 1214 9
	ld	a5,-24(s0)
	lbu	a4,8(a5)
	lbu	a5,9(a5)
	slli	a5,a5,8
	or	a5,a5,a4
	slli	a5,a5,48
	srli	a5,a5,48
	.loc 1 1209 3
	sext.w	a5,a5
	mv	a4,a5
	lla	a1,.LC97
	ld	a0,-40(s0)
	call	UefiDevicePathLibCatPrint
	.loc 1 1216 1
	nop
	ld	ra,56(sp)
	.cfi_restore 1
	ld	s0,48(sp)
	.cfi_restore 8
	.cfi_def_cfa 2, 64
	addi	sp,sp,64
	.cfi_def_cfa_offset 0
	jr	ra
	.cfi_endproc
.LFE24:
	.size	DevPathToTextSata, .-DevPathToTextSata
	.section	.rodata
	.align	3
.LC98:
	.string	"I"
	.string	"2"
	.string	"O"
	.string	"("
	.string	"0"
	.string	"x"
	.string	"%"
	.string	"x"
	.string	")"
	.zero	2
	.section	.text.DevPathToTextI2O,"ax",@progbits
	.align	1
	.globl	DevPathToTextI2O
	.type	DevPathToTextI2O, @function
DevPathToTextI2O:
.LFB25:
	.loc 1 1238 1
	.cfi_startproc
	addi	sp,sp,-64
	.cfi_def_cfa_offset 64
	sd	ra,56(sp)
	sd	s0,48(sp)
	.cfi_offset 1, -8
	.cfi_offset 8, -16
	addi	s0,sp,64
	.cfi_def_cfa 8, 0
	sd	a0,-40(s0)
	sd	a1,-48(s0)
	mv	a5,a2
	mv	a4,a3
	sb	a5,-49(s0)
	mv	a5,a4
	sb	a5,-50(s0)
	.loc 1 1241 14
	ld	a5,-48(s0)
	sd	a5,-24(s0)
	.loc 1 1242 3
	ld	a5,-24(s0)
	lbu	a4,4(a5)
	lbu	a3,5(a5)
	slli	a3,a3,8
	or	a4,a3,a4
	lbu	a3,6(a5)
	slli	a3,a3,16
	or	a4,a3,a4
	lbu	a5,7(a5)
	slli	a5,a5,24
	or	a5,a5,a4
	sext.w	a5,a5
	mv	a2,a5
	lla	a1,.LC98
	ld	a0,-40(s0)
	call	UefiDevicePathLibCatPrint
	.loc 1 1243 1
	nop
	ld	ra,56(sp)
	.cfi_restore 1
	ld	s0,48(sp)
	.cfi_restore 8
	.cfi_def_cfa 2, 64
	addi	sp,sp,64
	.cfi_def_cfa_offset 0
	jr	ra
	.cfi_endproc
.LFE25:
	.size	DevPathToTextI2O, .-DevPathToTextI2O
	.section	.rodata
	.align	3
.LC99:
	.string	"M"
	.string	"A"
	.string	"C"
	.string	"("
	.zero	2
	.align	3
.LC100:
	.string	","
	.string	"0"
	.string	"x"
	.string	"%"
	.string	"x"
	.string	")"
	.zero	2
	.section	.text.DevPathToTextMacAddr,"ax",@progbits
	.align	1
	.globl	DevPathToTextMacAddr
	.type	DevPathToTextMacAddr, @function
DevPathToTextMacAddr:
.LFB26:
	.loc 1 1265 1
	.cfi_startproc
	addi	sp,sp,-80
	.cfi_def_cfa_offset 80
	sd	ra,72(sp)
	sd	s0,64(sp)
	.cfi_offset 1, -8
	.cfi_offset 8, -16
	addi	s0,sp,80
	.cfi_def_cfa 8, 0
	sd	a0,-56(s0)
	sd	a1,-64(s0)
	mv	a5,a2
	mv	a4,a3
	sb	a5,-65(s0)
	mv	a5,a4
	sb	a5,-66(s0)
	.loc 1 1270 14
	ld	a5,-64(s0)
	sd	a5,-40(s0)
	.loc 1 1272 17
	li	a5,32
	sd	a5,-24(s0)
	.loc 1 1273 18
	ld	a5,-40(s0)
	lbu	a5,36(a5)
	.loc 1 1273 6
	mv	a4,a5
	li	a5,1
	beq	a4,a5,.L146
	.loc 1 1273 50 discriminator 1
	ld	a5,-40(s0)
	lbu	a5,36(a5)
	.loc 1 1273 36 discriminator 1
	bne	a5,zero,.L147
.L146:
	.loc 1 1274 19
	li	a5,6
	sd	a5,-24(s0)
.L147:
	.loc 1 1277 3
	lla	a1,.LC99
	ld	a0,-56(s0)
	call	UefiDevicePathLibCatPrint
	.loc 1 1279 14
	sd	zero,-32(s0)
	.loc 1 1279 3
	j	.L148
.L149:
	.loc 1 1280 73
	ld	a4,-40(s0)
	ld	a5,-32(s0)
	add	a5,a4,a5
	lbu	a5,4(a5)
	.loc 1 1280 5
	sext.w	a5,a5
	mv	a2,a5
	lla	a1,.LC31
	ld	a0,-56(s0)
	call	UefiDevicePathLibCatPrint
	.loc 1 1279 47 discriminator 3
	ld	a5,-32(s0)
	addi	a5,a5,1
	sd	a5,-32(s0)
.L148:
	.loc 1 1279 25 discriminator 1
	ld	a4,-32(s0)
	ld	a5,-24(s0)
	bltu	a4,a5,.L149
	.loc 1 1283 56
	ld	a5,-40(s0)
	lbu	a5,36(a5)
	.loc 1 1283 3
	sext.w	a5,a5
	mv	a2,a5
	lla	a1,.LC100
	ld	a0,-56(s0)
	call	UefiDevicePathLibCatPrint
	.loc 1 1284 1
	nop
	ld	ra,72(sp)
	.cfi_restore 1
	ld	s0,64(sp)
	.cfi_restore 8
	.cfi_def_cfa 2, 80
	addi	sp,sp,80
	.cfi_def_cfa_offset 0
	jr	ra
	.cfi_endproc
.LFE26:
	.size	DevPathToTextMacAddr, .-DevPathToTextMacAddr
	.section	.rodata
	.align	3
.LC101:
	.string	"T"
	.string	"C"
	.string	"P"
	.zero	2
	.align	3
.LC102:
	.string	"U"
	.string	"D"
	.string	"P"
	.zero	2
	.section	.text.CatNetworkProtocol,"ax",@progbits
	.align	1
	.globl	CatNetworkProtocol
	.type	CatNetworkProtocol, @function
CatNetworkProtocol:
.LFB27:
	.loc 1 1298 1
	.cfi_startproc
	addi	sp,sp,-32
	.cfi_def_cfa_offset 32
	sd	ra,24(sp)
	sd	s0,16(sp)
	.cfi_offset 1, -8
	.cfi_offset 8, -16
	addi	s0,sp,32
	.cfi_def_cfa 8, 0
	sd	a0,-24(s0)
	mv	a5,a1
	sh	a5,-26(s0)
	.loc 1 1299 6
	lhu	a5,-26(s0)
	sext.w	a4,a5
	li	a5,6
	bne	a4,a5,.L151
	.loc 1 1300 5
	lla	a1,.LC101
	ld	a0,-24(s0)
	call	UefiDevicePathLibCatPrint
	.loc 1 1306 1
	j	.L154
.L151:
	.loc 1 1301 13
	lhu	a5,-26(s0)
	sext.w	a4,a5
	li	a5,17
	bne	a4,a5,.L153
	.loc 1 1302 5
	lla	a1,.LC102
	ld	a0,-24(s0)
	call	UefiDevicePathLibCatPrint
	.loc 1 1306 1
	j	.L154
.L153:
	.loc 1 1304 5
	lhu	a5,-26(s0)
	sext.w	a5,a5
	mv	a2,a5
	lla	a1,.LC70
	ld	a0,-24(s0)
	call	UefiDevicePathLibCatPrint
.L154:
	.loc 1 1306 1
	nop
	ld	ra,24(sp)
	.cfi_restore 1
	ld	s0,16(sp)
	.cfi_restore 8
	.cfi_def_cfa 2, 32
	addi	sp,sp,32
	.cfi_def_cfa_offset 0
	jr	ra
	.cfi_endproc
.LFE27:
	.size	CatNetworkProtocol, .-CatNetworkProtocol
	.section	.rodata
	.align	3
.LC103:
	.string	"%"
	.string	"d"
	.string	"."
	.string	"%"
	.string	"d"
	.string	"."
	.string	"%"
	.string	"d"
	.string	"."
	.string	"%"
	.string	"d"
	.zero	2
	.section	.text.CatIPv4Address,"ax",@progbits
	.align	1
	.globl	CatIPv4Address
	.type	CatIPv4Address, @function
CatIPv4Address:
.LFB28:
	.loc 1 1319 1
	.cfi_startproc
	addi	sp,sp,-32
	.cfi_def_cfa_offset 32
	sd	ra,24(sp)
	sd	s0,16(sp)
	.cfi_offset 1, -8
	.cfi_offset 8, -16
	addi	s0,sp,32
	.cfi_def_cfa 8, 0
	sd	a0,-24(s0)
	sd	a1,-32(s0)
	.loc 1 1320 64
	ld	a5,-32(s0)
	lbu	a5,0(a5)
	.loc 1 1320 3
	sext.w	a2,a5
	.loc 1 1320 82
	ld	a5,-32(s0)
	lbu	a5,1(a5)
	.loc 1 1320 3
	sext.w	a3,a5
	.loc 1 1320 100
	ld	a5,-32(s0)
	lbu	a5,2(a5)
	.loc 1 1320 3
	sext.w	a4,a5
	.loc 1 1320 118
	ld	a5,-32(s0)
	lbu	a5,3(a5)
	.loc 1 1320 3
	sext.w	a5,a5
	lla	a1,.LC103
	ld	a0,-24(s0)
	call	UefiDevicePathLibCatPrint
	.loc 1 1321 1
	nop
	ld	ra,24(sp)
	.cfi_restore 1
	ld	s0,16(sp)
	.cfi_restore 8
	.cfi_def_cfa 2, 32
	addi	sp,sp,32
	.cfi_def_cfa_offset 0
	jr	ra
	.cfi_endproc
.LFE28:
	.size	CatIPv4Address, .-CatIPv4Address
	.section	.rodata
	.align	3
.LC104:
	.string	"%"
	.string	"0"
	.string	"2"
	.string	"x"
	.string	"%"
	.string	"0"
	.string	"2"
	.string	"x"
	.string	":"
	.string	"%"
	.string	"0"
	.string	"2"
	.string	"x"
	.string	"%"
	.string	"0"
	.string	"2"
	.string	"x"
	.string	":"
	.string	"%"
	.string	"0"
	.string	"2"
	.string	"x"
	.string	"%"
	.string	"0"
	.string	"2"
	.string	"x"
	.string	":"
	.string	"%"
	.string	"0"
	.string	"2"
	.string	"x"
	.string	"%"
	.string	"0"
	.string	"2"
	.string	"x"
	.string	":"
	.string	"%"
	.string	"0"
	.string	"2"
	.string	"x"
	.string	"%"
	.string	"0"
	.string	"2"
	.string	"x"
	.string	":"
	.string	"%"
	.string	"0"
	.string	"2"
	.string	"x"
	.string	"%"
	.string	"0"
	.string	"2"
	.string	"x"
	.string	":"
	.string	"%"
	.string	"0"
	.string	"2"
	.string	"x"
	.string	"%"
	.string	"0"
	.string	"2"
	.string	"x"
	.string	":"
	.string	"%"
	.string	"0"
	.string	"2"
	.string	"x"
	.string	"%"
	.string	"0"
	.string	"2"
	.string	"x"
	.zero	2
	.section	.text.CatIPv6Address,"ax",@progbits
	.align	1
	.globl	CatIPv6Address
	.type	CatIPv6Address, @function
CatIPv6Address:
.LFB29:
	.loc 1 1334 1
	.cfi_startproc
	addi	sp,sp,-128
	.cfi_def_cfa_offset 128
	sd	ra,120(sp)
	sd	s0,112(sp)
	sd	s1,104(sp)
	.cfi_offset 1, -8
	.cfi_offset 8, -16
	.cfi_offset 9, -24
	addi	s0,sp,128
	.cfi_def_cfa 8, 0
	sd	a0,-40(s0)
	sd	a1,-48(s0)
	.loc 1 1338 18
	ld	a5,-48(s0)
	lbu	a5,0(a5)
	.loc 1 1335 3
	sext.w	t4,a5
	.loc 1 1339 18
	ld	a5,-48(s0)
	lbu	a5,1(a5)
	.loc 1 1335 3
	sext.w	t5,a5
	.loc 1 1340 18
	ld	a5,-48(s0)
	lbu	a5,2(a5)
	.loc 1 1335 3
	sext.w	t6,a5
	.loc 1 1341 18
	ld	a5,-48(s0)
	lbu	a5,3(a5)
	.loc 1 1335 3
	sext.w	t0,a5
	.loc 1 1342 18
	ld	a5,-48(s0)
	lbu	a5,4(a5)
	.loc 1 1335 3
	sext.w	t2,a5
	.loc 1 1343 18
	ld	a5,-48(s0)
	lbu	a5,5(a5)
	.loc 1 1335 3
	sext.w	s1,a5
	.loc 1 1344 18
	ld	a5,-48(s0)
	lbu	a5,6(a5)
	.loc 1 1335 3
	sext.w	a5,a5
	.loc 1 1345 18
	ld	a4,-48(s0)
	lbu	a4,7(a4)
	.loc 1 1335 3
	sext.w	a4,a4
	.loc 1 1346 18
	ld	a3,-48(s0)
	lbu	a3,8(a3)
	.loc 1 1335 3
	sext.w	a3,a3
	.loc 1 1347 18
	ld	a2,-48(s0)
	lbu	a2,9(a2)
	.loc 1 1335 3
	sext.w	a2,a2
	.loc 1 1348 18
	ld	a1,-48(s0)
	lbu	a1,10(a1)
	.loc 1 1335 3
	sext.w	a1,a1
	.loc 1 1349 18
	ld	a0,-48(s0)
	lbu	a0,11(a0)
	.loc 1 1335 3
	sext.w	a0,a0
	.loc 1 1350 18
	ld	a6,-48(s0)
	lbu	a6,12(a6)
	.loc 1 1335 3
	sext.w	a6,a6
	.loc 1 1351 18
	ld	a7,-48(s0)
	lbu	a7,13(a7)
	.loc 1 1335 3
	sext.w	a7,a7
	.loc 1 1352 18
	ld	t1,-48(s0)
	lbu	t1,14(t1)
	.loc 1 1335 3
	sext.w	t1,t1
	.loc 1 1353 18
	ld	t3,-48(s0)
	lbu	t3,15(t3)
	.loc 1 1335 3
	sext.w	t3,t3
	sd	t3,72(sp)
	sd	t1,64(sp)
	sd	a7,56(sp)
	sd	a6,48(sp)
	sd	a0,40(sp)
	sd	a1,32(sp)
	sd	a2,24(sp)
	sd	a3,16(sp)
	sd	a4,8(sp)
	sd	a5,0(sp)
	mv	a7,s1
	mv	a6,t2
	mv	a5,t0
	mv	a4,t6
	mv	a3,t5
	mv	a2,t4
	lla	a1,.LC104
	ld	a0,-40(s0)
	call	UefiDevicePathLibCatPrint
	.loc 1 1355 1
	nop
	ld	ra,120(sp)
	.cfi_restore 1
	ld	s0,112(sp)
	.cfi_restore 8
	.cfi_def_cfa 2, 128
	ld	s1,104(sp)
	.cfi_restore 9
	addi	sp,sp,128
	.cfi_def_cfa_offset 0
	jr	ra
	.cfi_endproc
.LFE29:
	.size	CatIPv6Address, .-CatIPv6Address
	.section	.rodata
	.align	3
.LC105:
	.string	"I"
	.string	"P"
	.string	"v"
	.string	"4"
	.string	"("
	.zero	2
	.align	3
.LC106:
	.string	"S"
	.string	"t"
	.string	"a"
	.string	"t"
	.string	"i"
	.string	"c"
	.zero	2
	.align	3
.LC107:
	.string	"D"
	.string	"H"
	.string	"C"
	.string	"P"
	.zero	2
	.align	3
.LC108:
	.string	","
	.string	"%"
	.string	"s"
	.string	","
	.zero	2
	.section	.text.DevPathToTextIPv4,"ax",@progbits
	.align	1
	.globl	DevPathToTextIPv4
	.type	DevPathToTextIPv4, @function
DevPathToTextIPv4:
.LFB30:
	.loc 1 1377 1
	.cfi_startproc
	addi	sp,sp,-64
	.cfi_def_cfa_offset 64
	sd	ra,56(sp)
	sd	s0,48(sp)
	.cfi_offset 1, -8
	.cfi_offset 8, -16
	addi	s0,sp,64
	.cfi_def_cfa 8, 0
	sd	a0,-40(s0)
	sd	a1,-48(s0)
	mv	a5,a2
	mv	a4,a3
	sb	a5,-49(s0)
	mv	a5,a4
	sb	a5,-50(s0)
	.loc 1 1380 13
	ld	a5,-48(s0)
	sd	a5,-24(s0)
	.loc 1 1381 3
	lla	a1,.LC105
	ld	a0,-40(s0)
	call	UefiDevicePathLibCatPrint
	.loc 1 1382 3
	ld	a5,-24(s0)
	addi	a5,a5,8
	mv	a1,a5
	ld	a0,-40(s0)
	call	CatIPv4Address
	.loc 1 1384 6
	lbu	a5,-49(s0)
	andi	a5,a5,0xff
	beq	a5,zero,.L158
	.loc 1 1385 5
	lla	a1,.LC32
	ld	a0,-40(s0)
	call	UefiDevicePathLibCatPrint
	.loc 1 1386 5
	j	.L157
.L158:
	.loc 1 1389 3
	lla	a1,.LC30
	ld	a0,-40(s0)
	call	UefiDevicePathLibCatPrint
	.loc 1 1390 3
	ld	a5,-24(s0)
	lbu	a4,16(a5)
	lbu	a5,17(a5)
	slli	a5,a5,8
	or	a5,a5,a4
	slli	a5,a5,48
	srli	a5,a5,48
	mv	a1,a5
	ld	a0,-40(s0)
	call	CatNetworkProtocol
	.loc 1 1392 53
	ld	a5,-24(s0)
	lbu	a5,18(a5)
	.loc 1 1392 3
	beq	a5,zero,.L160
	.loc 1 1392 3 is_stmt 0 discriminator 1
	lla	a5,.LC106
	j	.L161
.L160:
	.loc 1 1392 3 discriminator 2
	lla	a5,.LC107
.L161:
	.loc 1 1392 3 discriminator 4
	mv	a2,a5
	lla	a1,.LC108
	ld	a0,-40(s0)
	call	UefiDevicePathLibCatPrint
	.loc 1 1393 3 is_stmt 1
	ld	a5,-24(s0)
	addi	a5,a5,4
	mv	a1,a5
	ld	a0,-40(s0)
	call	CatIPv4Address
	.loc 1 1394 7
	ld	a0,-24(s0)
	call	DevicePathNodeLength@plt
	mv	a4,a0
	.loc 1 1394 6 discriminator 1
	li	a5,27
	bne	a4,a5,.L162
	.loc 1 1395 5
	lla	a1,.LC30
	ld	a0,-40(s0)
	call	UefiDevicePathLibCatPrint
	.loc 1 1396 5
	ld	a5,-24(s0)
	addi	a5,a5,19
	mv	a1,a5
	ld	a0,-40(s0)
	call	CatIPv4Address
	.loc 1 1397 5
	lla	a1,.LC30
	ld	a0,-40(s0)
	call	UefiDevicePathLibCatPrint
	.loc 1 1398 5
	ld	a5,-24(s0)
	addi	a5,a5,23
	mv	a1,a5
	ld	a0,-40(s0)
	call	CatIPv4Address
.L162:
	.loc 1 1401 3
	lla	a1,.LC32
	ld	a0,-40(s0)
	call	UefiDevicePathLibCatPrint
.L157:
	.loc 1 1402 1
	ld	ra,56(sp)
	.cfi_restore 1
	ld	s0,48(sp)
	.cfi_restore 8
	.cfi_def_cfa 2, 64
	addi	sp,sp,64
	.cfi_def_cfa_offset 0
	jr	ra
	.cfi_endproc
.LFE30:
	.size	DevPathToTextIPv4, .-DevPathToTextIPv4
	.section	.rodata
	.align	3
.LC109:
	.string	"I"
	.string	"P"
	.string	"v"
	.string	"6"
	.string	"("
	.zero	2
	.align	3
.LC110:
	.string	","
	.string	"S"
	.string	"t"
	.string	"a"
	.string	"t"
	.string	"i"
	.string	"c"
	.string	","
	.zero	2
	.align	3
.LC111:
	.string	","
	.string	"S"
	.string	"t"
	.string	"a"
	.string	"t"
	.string	"e"
	.string	"l"
	.string	"e"
	.string	"s"
	.string	"s"
	.string	"A"
	.string	"u"
	.string	"t"
	.string	"o"
	.string	"C"
	.string	"o"
	.string	"n"
	.string	"f"
	.string	"i"
	.string	"g"
	.string	"u"
	.string	"r"
	.string	"e"
	.string	","
	.zero	2
	.align	3
.LC112:
	.string	","
	.string	"S"
	.string	"t"
	.string	"a"
	.string	"t"
	.string	"e"
	.string	"f"
	.string	"u"
	.string	"l"
	.string	"A"
	.string	"u"
	.string	"t"
	.string	"o"
	.string	"C"
	.string	"o"
	.string	"n"
	.string	"f"
	.string	"i"
	.string	"g"
	.string	"u"
	.string	"r"
	.string	"e"
	.string	","
	.zero	2
	.section	.text.DevPathToTextIPv6,"ax",@progbits
	.align	1
	.globl	DevPathToTextIPv6
	.type	DevPathToTextIPv6, @function
DevPathToTextIPv6:
.LFB31:
	.loc 1 1424 1
	.cfi_startproc
	addi	sp,sp,-64
	.cfi_def_cfa_offset 64
	sd	ra,56(sp)
	sd	s0,48(sp)
	.cfi_offset 1, -8
	.cfi_offset 8, -16
	addi	s0,sp,64
	.cfi_def_cfa 8, 0
	sd	a0,-40(s0)
	sd	a1,-48(s0)
	mv	a5,a2
	mv	a4,a3
	sb	a5,-49(s0)
	mv	a5,a4
	sb	a5,-50(s0)
	.loc 1 1427 13
	ld	a5,-48(s0)
	sd	a5,-24(s0)
	.loc 1 1428 3
	lla	a1,.LC109
	ld	a0,-40(s0)
	call	UefiDevicePathLibCatPrint
	.loc 1 1429 3
	ld	a5,-24(s0)
	addi	a5,a5,20
	mv	a1,a5
	ld	a0,-40(s0)
	call	CatIPv6Address
	.loc 1 1430 6
	lbu	a5,-49(s0)
	andi	a5,a5,0xff
	beq	a5,zero,.L164
	.loc 1 1431 5
	lla	a1,.LC32
	ld	a0,-40(s0)
	call	UefiDevicePathLibCatPrint
	.loc 1 1432 5
	j	.L163
.L164:
	.loc 1 1435 3
	lla	a1,.LC30
	ld	a0,-40(s0)
	call	UefiDevicePathLibCatPrint
	.loc 1 1436 3
	ld	a5,-24(s0)
	lbu	a4,40(a5)
	lbu	a5,41(a5)
	slli	a5,a5,8
	or	a5,a5,a4
	slli	a5,a5,48
	srli	a5,a5,48
	mv	a1,a5
	ld	a0,-40(s0)
	call	CatNetworkProtocol
	.loc 1 1438 20
	ld	a5,-24(s0)
	lbu	a5,42(a5)
	sext.w	a5,a5
	.loc 1 1438 3
	beq	a5,zero,.L166
	li	a4,1
	beq	a5,a4,.L167
	j	.L171
.L166:
	.loc 1 1440 7
	lla	a1,.LC110
	ld	a0,-40(s0)
	call	UefiDevicePathLibCatPrint
	.loc 1 1441 7
	j	.L169
.L167:
	.loc 1 1443 7
	lla	a1,.LC111
	ld	a0,-40(s0)
	call	UefiDevicePathLibCatPrint
	.loc 1 1444 7
	j	.L169
.L171:
	.loc 1 1446 7
	lla	a1,.LC112
	ld	a0,-40(s0)
	call	UefiDevicePathLibCatPrint
	.loc 1 1447 7
	nop
.L169:
	.loc 1 1450 3
	ld	a5,-24(s0)
	addi	a5,a5,4
	mv	a1,a5
	ld	a0,-40(s0)
	call	CatIPv6Address
	.loc 1 1452 7
	ld	a0,-24(s0)
	call	DevicePathNodeLength@plt
	mv	a4,a0
	.loc 1 1452 6 discriminator 1
	li	a5,60
	bne	a4,a5,.L170
	.loc 1 1453 57
	ld	a5,-24(s0)
	lbu	a5,43(a5)
	.loc 1 1453 5
	sext.w	a5,a5
	mv	a2,a5
	lla	a1,.LC67
	ld	a0,-40(s0)
	call	UefiDevicePathLibCatPrint
	.loc 1 1454 5
	ld	a5,-24(s0)
	addi	a5,a5,44
	mv	a1,a5
	ld	a0,-40(s0)
	call	CatIPv6Address
.L170:
	.loc 1 1457 3
	lla	a1,.LC32
	ld	a0,-40(s0)
	call	UefiDevicePathLibCatPrint
.L163:
	.loc 1 1458 1
	ld	ra,56(sp)
	.cfi_restore 1
	ld	s0,48(sp)
	.cfi_restore 8
	.cfi_def_cfa 2, 64
	addi	sp,sp,64
	.cfi_def_cfa_offset 0
	jr	ra
	.cfi_endproc
.LFE31:
	.size	DevPathToTextIPv6, .-DevPathToTextIPv6
	.section	.rodata
	.align	3
.LC113:
	.string	"I"
	.string	"n"
	.string	"f"
	.string	"i"
	.string	"n"
	.string	"i"
	.string	"b"
	.string	"a"
	.string	"n"
	.string	"d"
	.string	"("
	.string	"0"
	.string	"x"
	.string	"%"
	.string	"x"
	.string	","
	.string	"%"
	.string	"g"
	.string	","
	.string	"0"
	.string	"x"
	.string	"%"
	.string	"l"
	.string	"x"
	.string	","
	.string	"0"
	.string	"x"
	.string	"%"
	.string	"l"
	.string	"x"
	.string	","
	.string	"0"
	.string	"x"
	.string	"%"
	.string	"l"
	.string	"x"
	.string	")"
	.zero	2
	.section	.text.DevPathToTextInfiniBand,"ax",@progbits
	.align	1
	.globl	DevPathToTextInfiniBand
	.type	DevPathToTextInfiniBand, @function
DevPathToTextInfiniBand:
.LFB32:
	.loc 1 1480 1
	.cfi_startproc
	addi	sp,sp,-64
	.cfi_def_cfa_offset 64
	sd	ra,56(sp)
	sd	s0,48(sp)
	.cfi_offset 1, -8
	.cfi_offset 8, -16
	addi	s0,sp,64
	.cfi_def_cfa 8, 0
	sd	a0,-40(s0)
	sd	a1,-48(s0)
	mv	a5,a2
	mv	a4,a3
	sb	a5,-49(s0)
	mv	a5,a4
	sb	a5,-50(s0)
	.loc 1 1483 14
	ld	a5,-48(s0)
	sd	a5,-24(s0)
	.loc 1 1484 3
	ld	a5,-24(s0)
	lbu	a4,4(a5)
	lbu	a3,5(a5)
	slli	a3,a3,8
	or	a4,a3,a4
	lbu	a3,6(a5)
	slli	a3,a3,16
	or	a4,a3,a4
	lbu	a5,7(a5)
	slli	a5,a5,24
	or	a5,a5,a4
	sext.w	a2,a5
	.loc 1 1488 15
	ld	a5,-24(s0)
	addi	a1,a5,8
	.loc 1 1484 3
	ld	a5,-24(s0)
	lbu	a4,24(a5)
	lbu	a3,25(a5)
	slli	a3,a3,8
	or	a4,a3,a4
	lbu	a3,26(a5)
	slli	a3,a3,16
	or	a4,a3,a4
	lbu	a3,27(a5)
	slli	a3,a3,24
	or	a4,a3,a4
	lbu	a3,28(a5)
	slli	a3,a3,32
	or	a4,a3,a4
	lbu	a3,29(a5)
	slli	a3,a3,40
	or	a4,a3,a4
	lbu	a3,30(a5)
	slli	a3,a3,48
	or	a4,a3,a4
	lbu	a5,31(a5)
	slli	a5,a5,56
	or	a5,a5,a4
	mv	a0,a5
	ld	a5,-24(s0)
	lbu	a4,32(a5)
	lbu	a3,33(a5)
	slli	a3,a3,8
	or	a4,a3,a4
	lbu	a3,34(a5)
	slli	a3,a3,16
	or	a4,a3,a4
	lbu	a3,35(a5)
	slli	a3,a3,24
	or	a4,a3,a4
	lbu	a3,36(a5)
	slli	a3,a3,32
	or	a4,a3,a4
	lbu	a3,37(a5)
	slli	a3,a3,40
	or	a4,a3,a4
	lbu	a3,38(a5)
	slli	a3,a3,48
	or	a4,a3,a4
	lbu	a5,39(a5)
	slli	a5,a5,56
	or	a5,a5,a4
	mv	a7,a5
	ld	a5,-24(s0)
	lbu	a4,40(a5)
	lbu	a3,41(a5)
	slli	a3,a3,8
	or	a4,a3,a4
	lbu	a3,42(a5)
	slli	a3,a3,16
	or	a4,a3,a4
	lbu	a3,43(a5)
	slli	a3,a3,24
	or	a4,a3,a4
	lbu	a3,44(a5)
	slli	a3,a3,32
	or	a4,a3,a4
	lbu	a3,45(a5)
	slli	a3,a3,40
	or	a4,a3,a4
	lbu	a3,46(a5)
	slli	a3,a3,48
	or	a4,a3,a4
	lbu	a5,47(a5)
	slli	a5,a5,56
	or	a5,a5,a4
	mv	a6,a5
	mv	a5,a7
	mv	a4,a0
	mv	a3,a1
	lla	a1,.LC113
	ld	a0,-40(s0)
	call	UefiDevicePathLibCatPrint
	.loc 1 1493 1
	nop
	ld	ra,56(sp)
	.cfi_restore 1
	ld	s0,48(sp)
	.cfi_restore 8
	.cfi_def_cfa 2, 64
	addi	sp,sp,64
	.cfi_def_cfa_offset 0
	jr	ra
	.cfi_endproc
.LFE32:
	.size	DevPathToTextInfiniBand, .-DevPathToTextInfiniBand
	.section	.rodata
	.align	3
.LC114:
	.string	"U"
	.string	"a"
	.string	"r"
	.string	"t"
	.string	"("
	.string	"D"
	.string	"E"
	.string	"F"
	.string	"A"
	.string	"U"
	.string	"L"
	.string	"T"
	.string	","
	.zero	2
	.align	3
.LC115:
	.string	"U"
	.string	"a"
	.string	"r"
	.string	"t"
	.string	"("
	.string	"%"
	.string	"l"
	.string	"d"
	.string	","
	.zero	2
	.align	3
.LC116:
	.string	"D"
	.string	"E"
	.string	"F"
	.string	"A"
	.string	"U"
	.string	"L"
	.string	"T"
	.string	","
	.zero	2
	.align	3
.LC117:
	.string	"%"
	.string	"d"
	.string	","
	.zero	2
	.align	3
.LC118:
	.string	"%"
	.string	"c"
	.string	","
	.zero	2
	.align	3
.LC119:
	.string	"D"
	.string	")"
	.zero	2
	.align	3
.LC120:
	.string	"1"
	.string	")"
	.zero	2
	.align	3
.LC121:
	.string	"1"
	.string	"."
	.string	"5"
	.string	")"
	.zero	2
	.align	3
.LC122:
	.string	"2"
	.string	")"
	.zero	2
	.align	3
.LC123:
	.string	"x"
	.string	")"
	.zero	2
	.section	.text.DevPathToTextUart,"ax",@progbits
	.align	1
	.globl	DevPathToTextUart
	.type	DevPathToTextUart, @function
DevPathToTextUart:
.LFB33:
	.loc 1 1515 1
	.cfi_startproc
	addi	sp,sp,-64
	.cfi_def_cfa_offset 64
	sd	ra,56(sp)
	sd	s0,48(sp)
	.cfi_offset 1, -8
	.cfi_offset 8, -16
	addi	s0,sp,64
	.cfi_def_cfa 8, 0
	sd	a0,-40(s0)
	sd	a1,-48(s0)
	mv	a5,a2
	mv	a4,a3
	sb	a5,-49(s0)
	mv	a5,a4
	sb	a5,-50(s0)
	.loc 1 1519 8
	ld	a5,-48(s0)
	sd	a5,-32(s0)
	.loc 1 1520 15
	ld	a5,-32(s0)
	lbu	a5,17(a5)
	sext.w	a5,a5
	.loc 1 1520 3
	li	a4,5
	beq	a5,a4,.L174
	li	a4,5
	bgt	a5,a4,.L175
	li	a4,4
	beq	a5,a4,.L176
	li	a4,4
	bgt	a5,a4,.L175
	li	a4,3
	beq	a5,a4,.L177
	li	a4,3
	bgt	a5,a4,.L175
	li	a4,2
	beq	a5,a4,.L178
	li	a4,2
	bgt	a5,a4,.L175
	beq	a5,zero,.L179
	li	a4,1
	beq	a5,a4,.L180
	j	.L175
.L179:
	.loc 1 1522 14
	li	a5,68
	sb	a5,-17(s0)
	.loc 1 1523 7
	j	.L181
.L180:
	.loc 1 1526 14
	li	a5,78
	sb	a5,-17(s0)
	.loc 1 1527 7
	j	.L181
.L178:
	.loc 1 1530 14
	li	a5,69
	sb	a5,-17(s0)
	.loc 1 1531 7
	j	.L181
.L177:
	.loc 1 1534 14
	li	a5,79
	sb	a5,-17(s0)
	.loc 1 1535 7
	j	.L181
.L176:
	.loc 1 1538 14
	li	a5,77
	sb	a5,-17(s0)
	.loc 1 1539 7
	j	.L181
.L174:
	.loc 1 1542 14
	li	a5,83
	sb	a5,-17(s0)
	.loc 1 1543 7
	j	.L181
.L175:
	.loc 1 1546 14
	li	a5,120
	sb	a5,-17(s0)
	.loc 1 1547 7
	nop
.L181:
	.loc 1 1550 11
	ld	a5,-32(s0)
	lbu	a4,8(a5)
	lbu	a3,9(a5)
	slli	a3,a3,8
	or	a4,a3,a4
	lbu	a3,10(a5)
	slli	a3,a3,16
	or	a4,a3,a4
	lbu	a3,11(a5)
	slli	a3,a3,24
	or	a4,a3,a4
	lbu	a3,12(a5)
	slli	a3,a3,32
	or	a4,a3,a4
	lbu	a3,13(a5)
	slli	a3,a3,40
	or	a4,a3,a4
	lbu	a3,14(a5)
	slli	a3,a3,48
	or	a4,a3,a4
	lbu	a5,15(a5)
	slli	a5,a5,56
	or	a5,a5,a4
	.loc 1 1550 6
	bne	a5,zero,.L182
	.loc 1 1551 5
	lla	a1,.LC114
	ld	a0,-40(s0)
	call	UefiDevicePathLibCatPrint
	j	.L183
.L182:
	.loc 1 1553 5
	ld	a5,-32(s0)
	lbu	a4,8(a5)
	lbu	a3,9(a5)
	slli	a3,a3,8
	or	a4,a3,a4
	lbu	a3,10(a5)
	slli	a3,a3,16
	or	a4,a3,a4
	lbu	a3,11(a5)
	slli	a3,a3,24
	or	a4,a3,a4
	lbu	a3,12(a5)
	slli	a3,a3,32
	or	a4,a3,a4
	lbu	a3,13(a5)
	slli	a3,a3,40
	or	a4,a3,a4
	lbu	a3,14(a5)
	slli	a3,a3,48
	or	a4,a3,a4
	lbu	a5,15(a5)
	slli	a5,a5,56
	or	a5,a5,a4
	mv	a2,a5
	lla	a1,.LC115
	ld	a0,-40(s0)
	call	UefiDevicePathLibCatPrint
.L183:
	.loc 1 1556 11
	ld	a5,-32(s0)
	lbu	a5,16(a5)
	.loc 1 1556 6
	bne	a5,zero,.L184
	.loc 1 1557 5
	lla	a1,.LC116
	ld	a0,-40(s0)
	call	UefiDevicePathLibCatPrint
	j	.L185
.L184:
	.loc 1 1559 49
	ld	a5,-32(s0)
	lbu	a5,16(a5)
	.loc 1 1559 5
	sext.w	a5,a5
	mv	a2,a5
	lla	a1,.LC117
	ld	a0,-40(s0)
	call	UefiDevicePathLibCatPrint
.L185:
	.loc 1 1562 3
	lbu	a5,-17(s0)
	sext.w	a5,a5
	mv	a2,a5
	lla	a1,.LC118
	ld	a0,-40(s0)
	call	UefiDevicePathLibCatPrint
	.loc 1 1564 15
	ld	a5,-32(s0)
	lbu	a5,18(a5)
	sext.w	a5,a5
	.loc 1 1564 3
	li	a4,3
	beq	a5,a4,.L186
	li	a4,3
	bgt	a5,a4,.L187
	li	a4,2
	beq	a5,a4,.L188
	li	a4,2
	bgt	a5,a4,.L187
	beq	a5,zero,.L189
	li	a4,1
	beq	a5,a4,.L190
	j	.L187
.L189:
	.loc 1 1566 7
	lla	a1,.LC119
	ld	a0,-40(s0)
	call	UefiDevicePathLibCatPrint
	.loc 1 1567 7
	j	.L191
.L190:
	.loc 1 1570 7
	lla	a1,.LC120
	ld	a0,-40(s0)
	call	UefiDevicePathLibCatPrint
	.loc 1 1571 7
	j	.L191
.L188:
	.loc 1 1574 7
	lla	a1,.LC121
	ld	a0,-40(s0)
	call	UefiDevicePathLibCatPrint
	.loc 1 1575 7
	j	.L191
.L186:
	.loc 1 1578 7
	lla	a1,.LC122
	ld	a0,-40(s0)
	call	UefiDevicePathLibCatPrint
	.loc 1 1579 7
	j	.L191
.L187:
	.loc 1 1582 7
	lla	a1,.LC123
	ld	a0,-40(s0)
	call	UefiDevicePathLibCatPrint
	.loc 1 1583 7
	nop
.L191:
	.loc 1 1585 1
	nop
	ld	ra,56(sp)
	.cfi_restore 1
	ld	s0,48(sp)
	.cfi_restore 8
	.cfi_def_cfa 2, 64
	addi	sp,sp,64
	.cfi_def_cfa_offset 0
	jr	ra
	.cfi_endproc
.LFE33:
	.size	DevPathToTextUart, .-DevPathToTextUart
	.section	.rodata
	.align	3
.LC124:
	.string	"i"
	.string	"S"
	.string	"C"
	.string	"S"
	.string	"I"
	.string	"("
	.string	"%"
	.string	"a"
	.string	","
	.string	"0"
	.string	"x"
	.string	"%"
	.string	"x"
	.string	","
	.string	"0"
	.string	"x"
	.zero	2
	.align	3
.LC125:
	.string	"C"
	.string	"R"
	.string	"C"
	.string	"3"
	.string	"2"
	.string	"C"
	.zero	2
	.align	3
.LC126:
	.string	"C"
	.string	"H"
	.string	"A"
	.string	"P"
	.string	"_"
	.string	"U"
	.string	"N"
	.string	"I"
	.zero	2
	.align	3
.LC127:
	.string	"C"
	.string	"H"
	.string	"A"
	.string	"P"
	.string	"_"
	.string	"B"
	.string	"I"
	.zero	2
	.align	3
.LC128:
	.string	"r"
	.string	"e"
	.string	"s"
	.string	"e"
	.string	"r"
	.string	"v"
	.string	"e"
	.string	"d"
	.zero	2
	.align	3
.LC129:
	.string	"%"
	.string	"s"
	.string	")"
	.zero	2
	.section	.text.DevPathToTextiSCSI,"ax",@progbits
	.align	1
	.globl	DevPathToTextiSCSI
	.type	DevPathToTextiSCSI, @function
DevPathToTextiSCSI:
.LFB34:
	.loc 1 1607 1
	.cfi_startproc
	addi	sp,sp,-80
	.cfi_def_cfa_offset 80
	sd	ra,72(sp)
	sd	s0,64(sp)
	.cfi_offset 1, -8
	.cfi_offset 8, -16
	addi	s0,sp,80
	.cfi_def_cfa 8, 0
	sd	a0,-56(s0)
	sd	a1,-64(s0)
	mv	a5,a2
	mv	a4,a3
	sb	a5,-65(s0)
	mv	a5,a4
	sb	a5,-66(s0)
	.loc 1 1612 16
	ld	a5,-64(s0)
	sd	a5,-32(s0)
	.loc 1 1616 17
	ld	a5,-32(s0)
	addi	a2,a5,18
	.loc 1 1617 17
	ld	a5,-32(s0)
	lbu	a4,16(a5)
	lbu	a5,17(a5)
	slli	a5,a5,8
	or	a5,a5,a4
	slli	a5,a5,48
	srli	a5,a5,48
	.loc 1 1613 3
	sext.w	a5,a5
	mv	a3,a5
	lla	a1,.LC124
	ld	a0,-56(s0)
	call	UefiDevicePathLibCatPrint
	.loc 1 1619 14
	sd	zero,-24(s0)
	.loc 1 1619 3
	j	.L193
.L194:
	.loc 1 1620 56
	ld	a5,-32(s0)
	addi	a4,a5,8
	.loc 1 1620 75
	ld	a5,-24(s0)
	add	a5,a4,a5
	lbu	a5,0(a5)
	.loc 1 1620 5
	sext.w	a5,a5
	mv	a2,a5
	lla	a1,.LC31
	ld	a0,-56(s0)
	call	UefiDevicePathLibCatPrint
	.loc 1 1619 77 discriminator 3
	ld	a5,-24(s0)
	addi	a5,a5,1
	sd	a5,-24(s0)
.L193:
	.loc 1 1619 25 discriminator 1
	ld	a4,-24(s0)
	li	a5,7
	bleu	a4,a5,.L194
	.loc 1 1623 11
	ld	a5,-32(s0)
	lbu	a4,6(a5)
	lbu	a5,7(a5)
	slli	a5,a5,8
	or	a5,a5,a4
	sh	a5,-34(s0)
	.loc 1 1624 61
	lhu	a5,-34(s0)
	srliw	a5,a5,1
	slli	a5,a5,48
	srli	a5,a5,48
	sext.w	a5,a5
	andi	a5,a5,1
	sext.w	a5,a5
	.loc 1 1624 3
	beq	a5,zero,.L195
	.loc 1 1624 3 is_stmt 0 discriminator 1
	lla	a5,.LC125
	j	.L196
.L195:
	.loc 1 1624 3 discriminator 2
	lla	a5,.LC9
.L196:
	.loc 1 1624 3 discriminator 4
	mv	a2,a5
	lla	a1,.LC108
	ld	a0,-56(s0)
	call	UefiDevicePathLibCatPrint
	.loc 1 1625 60 is_stmt 1
	lhu	a5,-34(s0)
	srliw	a5,a5,3
	slli	a5,a5,48
	srli	a5,a5,48
	sext.w	a5,a5
	andi	a5,a5,1
	sext.w	a5,a5
	.loc 1 1625 3
	beq	a5,zero,.L197
	.loc 1 1625 3 is_stmt 0 discriminator 1
	lla	a5,.LC125
	j	.L198
.L197:
	.loc 1 1625 3 discriminator 2
	lla	a5,.LC9
.L198:
	.loc 1 1625 3 discriminator 4
	mv	a2,a5
	lla	a1,.LC51
	ld	a0,-56(s0)
	call	UefiDevicePathLibCatPrint
	.loc 1 1626 24 is_stmt 1
	lhu	a5,-34(s0)
	srliw	a5,a5,11
	slli	a5,a5,48
	srli	a5,a5,48
	sext.w	a5,a5
	andi	a5,a5,1
	sext.w	a5,a5
	.loc 1 1626 6
	beq	a5,zero,.L199
	.loc 1 1627 5
	lla	a2,.LC9
	lla	a1,.LC51
	ld	a0,-56(s0)
	call	UefiDevicePathLibCatPrint
	j	.L200
.L199:
	.loc 1 1628 31
	lhu	a5,-34(s0)
	srliw	a5,a5,12
	slli	a5,a5,48
	srli	a5,a5,48
	sext.w	a5,a5
	andi	a5,a5,1
	sext.w	a5,a5
	.loc 1 1628 13
	beq	a5,zero,.L201
	.loc 1 1629 5
	lla	a2,.LC126
	lla	a1,.LC51
	ld	a0,-56(s0)
	call	UefiDevicePathLibCatPrint
	j	.L200
.L201:
	.loc 1 1631 5
	lla	a2,.LC127
	lla	a1,.LC51
	ld	a0,-56(s0)
	call	UefiDevicePathLibCatPrint
.L200:
	.loc 1 1634 56
	ld	a5,-32(s0)
	lbu	a4,4(a5)
	lbu	a5,5(a5)
	slli	a5,a5,8
	or	a5,a5,a4
	slli	a5,a5,48
	srli	a5,a5,48
	.loc 1 1634 3
	bne	a5,zero,.L202
	.loc 1 1634 3 is_stmt 0 discriminator 1
	lla	a5,.LC101
	j	.L203
.L202:
	.loc 1 1634 3 discriminator 2
	lla	a5,.LC128
.L203:
	.loc 1 1634 3 discriminator 4
	mv	a2,a5
	lla	a1,.LC129
	ld	a0,-56(s0)
	call	UefiDevicePathLibCatPrint
	.loc 1 1635 1 is_stmt 1
	nop
	ld	ra,72(sp)
	.cfi_restore 1
	ld	s0,64(sp)
	.cfi_restore 8
	.cfi_def_cfa 2, 80
	addi	sp,sp,80
	.cfi_def_cfa_offset 0
	jr	ra
	.cfi_endproc
.LFE34:
	.size	DevPathToTextiSCSI, .-DevPathToTextiSCSI
	.section	.rodata
	.align	3
.LC130:
	.string	"V"
	.string	"l"
	.string	"a"
	.string	"n"
	.string	"("
	.string	"%"
	.string	"d"
	.string	")"
	.zero	2
	.section	.text.DevPathToTextVlan,"ax",@progbits
	.align	1
	.globl	DevPathToTextVlan
	.type	DevPathToTextVlan, @function
DevPathToTextVlan:
.LFB35:
	.loc 1 1657 1
	.cfi_startproc
	addi	sp,sp,-64
	.cfi_def_cfa_offset 64
	sd	ra,56(sp)
	sd	s0,48(sp)
	.cfi_offset 1, -8
	.cfi_offset 8, -16
	addi	s0,sp,64
	.cfi_def_cfa 8, 0
	sd	a0,-40(s0)
	sd	a1,-48(s0)
	mv	a5,a2
	mv	a4,a3
	sb	a5,-49(s0)
	mv	a5,a4
	sb	a5,-50(s0)
	.loc 1 1660 8
	ld	a5,-48(s0)
	sd	a5,-24(s0)
	.loc 1 1661 52
	ld	a5,-24(s0)
	lbu	a4,4(a5)
	lbu	a5,5(a5)
	slli	a5,a5,8
	or	a5,a5,a4
	slli	a5,a5,48
	srli	a5,a5,48
	.loc 1 1661 3
	sext.w	a5,a5
	mv	a2,a5
	lla	a1,.LC130
	ld	a0,-40(s0)
	call	UefiDevicePathLibCatPrint
	.loc 1 1662 1
	nop
	ld	ra,56(sp)
	.cfi_restore 1
	ld	s0,48(sp)
	.cfi_restore 8
	.cfi_def_cfa 2, 64
	addi	sp,sp,64
	.cfi_def_cfa_offset 0
	jr	ra
	.cfi_endproc
.LFE35:
	.size	DevPathToTextVlan, .-DevPathToTextVlan
	.section	.rodata
	.align	3
.LC131:
	.string	"B"
	.string	"l"
	.string	"u"
	.string	"e"
	.string	"t"
	.string	"o"
	.string	"o"
	.string	"t"
	.string	"h"
	.string	"("
	.string	"%"
	.string	"0"
	.string	"2"
	.string	"x"
	.string	"%"
	.string	"0"
	.string	"2"
	.string	"x"
	.string	"%"
	.string	"0"
	.string	"2"
	.string	"x"
	.string	"%"
	.string	"0"
	.string	"2"
	.string	"x"
	.string	"%"
	.string	"0"
	.string	"2"
	.string	"x"
	.string	"%"
	.string	"0"
	.string	"2"
	.string	"x"
	.string	")"
	.zero	2
	.section	.text.DevPathToTextBluetooth,"ax",@progbits
	.align	1
	.globl	DevPathToTextBluetooth
	.type	DevPathToTextBluetooth, @function
DevPathToTextBluetooth:
.LFB36:
	.loc 1 1684 1
	.cfi_startproc
	addi	sp,sp,-64
	.cfi_def_cfa_offset 64
	sd	ra,56(sp)
	sd	s0,48(sp)
	.cfi_offset 1, -8
	.cfi_offset 8, -16
	addi	s0,sp,64
	.cfi_def_cfa 8, 0
	sd	a0,-40(s0)
	sd	a1,-48(s0)
	mv	a5,a2
	mv	a4,a3
	sb	a5,-49(s0)
	mv	a5,a4
	sb	a5,-50(s0)
	.loc 1 1687 13
	ld	a5,-48(s0)
	sd	a5,-24(s0)
	.loc 1 1691 31
	ld	a5,-24(s0)
	lbu	a5,4(a5)
	.loc 1 1688 3
	sext.w	a2,a5
	.loc 1 1692 31
	ld	a5,-24(s0)
	lbu	a5,5(a5)
	.loc 1 1688 3
	sext.w	a3,a5
	.loc 1 1693 31
	ld	a5,-24(s0)
	lbu	a5,6(a5)
	.loc 1 1688 3
	sext.w	a4,a5
	.loc 1 1694 31
	ld	a5,-24(s0)
	lbu	a5,7(a5)
	.loc 1 1688 3
	sext.w	a1,a5
	.loc 1 1695 31
	ld	a5,-24(s0)
	lbu	a5,8(a5)
	.loc 1 1688 3
	sext.w	a0,a5
	.loc 1 1696 31
	ld	a5,-24(s0)
	lbu	a5,9(a5)
	.loc 1 1688 3
	sext.w	a5,a5
	mv	a7,a5
	mv	a6,a0
	mv	a5,a1
	lla	a1,.LC131
	ld	a0,-40(s0)
	call	UefiDevicePathLibCatPrint
	.loc 1 1698 1
	nop
	ld	ra,56(sp)
	.cfi_restore 1
	ld	s0,48(sp)
	.cfi_restore 8
	.cfi_def_cfa 2, 64
	addi	sp,sp,64
	.cfi_def_cfa_offset 0
	jr	ra
	.cfi_endproc
.LFE36:
	.size	DevPathToTextBluetooth, .-DevPathToTextBluetooth
	.section	.rodata
	.align	3
.LC132:
	.string	"W"
	.string	"i"
	.string	"-"
	.string	"F"
	.string	"i"
	.string	"("
	.string	"%"
	.string	"a"
	.string	")"
	.zero	2
	.section	.text.DevPathToTextWiFi,"ax",@progbits
	.align	1
	.globl	DevPathToTextWiFi
	.type	DevPathToTextWiFi, @function
DevPathToTextWiFi:
.LFB37:
	.loc 1 1720 1
	.cfi_startproc
	addi	sp,sp,-96
	.cfi_def_cfa_offset 96
	sd	ra,88(sp)
	sd	s0,80(sp)
	.cfi_offset 1, -8
	.cfi_offset 8, -16
	addi	s0,sp,96
	.cfi_def_cfa 8, 0
	sd	a0,-72(s0)
	sd	a1,-80(s0)
	mv	a5,a2
	mv	a4,a3
	sb	a5,-81(s0)
	mv	a5,a4
	sb	a5,-82(s0)
	.loc 1 1724 8
	ld	a5,-80(s0)
	sd	a5,-24(s0)
	.loc 1 1726 12
	sb	zero,-32(s0)
	.loc 1 1727 22
	ld	a5,-24(s0)
	addi	a4,a5,4
	.loc 1 1727 3
	addi	a5,s0,-64
	li	a2,32
	mv	a1,a4
	mv	a0,a5
	call	CopyMem@plt
	.loc 1 1729 3
	addi	a5,s0,-64
	mv	a2,a5
	lla	a1,.LC132
	ld	a0,-72(s0)
	call	UefiDevicePathLibCatPrint
	.loc 1 1730 1
	nop
	ld	ra,88(sp)
	.cfi_restore 1
	ld	s0,80(sp)
	.cfi_restore 8
	.cfi_def_cfa 2, 96
	addi	sp,sp,96
	.cfi_def_cfa_offset 0
	jr	ra
	.cfi_endproc
.LFE37:
	.size	DevPathToTextWiFi, .-DevPathToTextWiFi
	.section	.rodata
	.align	3
.LC133:
	.string	"B"
	.string	"l"
	.string	"u"
	.string	"e"
	.string	"t"
	.string	"o"
	.string	"o"
	.string	"t"
	.string	"h"
	.string	"L"
	.string	"E"
	.string	"("
	.string	"%"
	.string	"0"
	.string	"2"
	.string	"x"
	.string	"%"
	.string	"0"
	.string	"2"
	.string	"x"
	.string	"%"
	.string	"0"
	.string	"2"
	.string	"x"
	.string	"%"
	.string	"0"
	.string	"2"
	.string	"x"
	.string	"%"
	.string	"0"
	.string	"2"
	.string	"x"
	.string	"%"
	.string	"0"
	.string	"2"
	.string	"x"
	.string	","
	.string	"0"
	.string	"x"
	.string	"%"
	.string	"0"
	.string	"2"
	.string	"x"
	.string	")"
	.zero	2
	.section	.text.DevPathToTextBluetoothLE,"ax",@progbits
	.align	1
	.globl	DevPathToTextBluetoothLE
	.type	DevPathToTextBluetoothLE, @function
DevPathToTextBluetoothLE:
.LFB38:
	.loc 1 1752 1
	.cfi_startproc
	addi	sp,sp,-80
	.cfi_def_cfa_offset 80
	sd	ra,72(sp)
	sd	s0,64(sp)
	.cfi_offset 1, -8
	.cfi_offset 8, -16
	addi	s0,sp,80
	.cfi_def_cfa 8, 0
	sd	a0,-40(s0)
	sd	a1,-48(s0)
	mv	a5,a2
	mv	a4,a3
	sb	a5,-49(s0)
	mv	a5,a4
	sb	a5,-50(s0)
	.loc 1 1755 15
	ld	a5,-48(s0)
	sd	a5,-24(s0)
	.loc 1 1759 33
	ld	a5,-24(s0)
	lbu	a5,4(a5)
	.loc 1 1756 3
	sext.w	a2,a5
	.loc 1 1760 33
	ld	a5,-24(s0)
	lbu	a5,5(a5)
	.loc 1 1756 3
	sext.w	a3,a5
	.loc 1 1761 33
	ld	a5,-24(s0)
	lbu	a5,6(a5)
	.loc 1 1756 3
	sext.w	a4,a5
	.loc 1 1762 33
	ld	a5,-24(s0)
	lbu	a5,7(a5)
	.loc 1 1756 3
	sext.w	a1,a5
	.loc 1 1763 33
	ld	a5,-24(s0)
	lbu	a5,8(a5)
	.loc 1 1756 3
	sext.w	a0,a5
	.loc 1 1764 33
	ld	a5,-24(s0)
	lbu	a5,9(a5)
	.loc 1 1756 3
	sext.w	a6,a5
	.loc 1 1765 25
	ld	a5,-24(s0)
	lbu	a5,10(a5)
	.loc 1 1756 3
	sext.w	a5,a5
	sd	a5,0(sp)
	mv	a7,a6
	mv	a6,a0
	mv	a5,a1
	lla	a1,.LC133
	ld	a0,-40(s0)
	call	UefiDevicePathLibCatPrint
	.loc 1 1767 1
	nop
	ld	ra,72(sp)
	.cfi_restore 1
	ld	s0,64(sp)
	.cfi_restore 8
	.cfi_def_cfa 2, 80
	addi	sp,sp,80
	.cfi_def_cfa_offset 0
	jr	ra
	.cfi_endproc
.LFE38:
	.size	DevPathToTextBluetoothLE, .-DevPathToTextBluetoothLE
	.section	.rodata
	.align	3
.LC134:
	.string	"D"
	.string	"n"
	.string	"s"
	.string	"("
	.zero	2
	.section	.text.DevPathToTextDns,"ax",@progbits
	.align	1
	.globl	DevPathToTextDns
	.type	DevPathToTextDns, @function
DevPathToTextDns:
.LFB39:
	.loc 1 1789 1
	.cfi_startproc
	addi	sp,sp,-80
	.cfi_def_cfa_offset 80
	sd	ra,72(sp)
	sd	s0,64(sp)
	.cfi_offset 1, -8
	.cfi_offset 8, -16
	addi	s0,sp,80
	.cfi_def_cfa 8, 0
	sd	a0,-56(s0)
	sd	a1,-64(s0)
	mv	a5,a2
	mv	a4,a3
	sb	a5,-65(s0)
	mv	a5,a4
	sb	a5,-66(s0)
	.loc 1 1794 14
	ld	a5,-64(s0)
	sd	a5,-32(s0)
	.loc 1 1795 31
	ld	a0,-32(s0)
	call	DevicePathNodeLength@plt
	mv	a5,a0
	.loc 1 1795 22 discriminator 1
	sext.w	a5,a5
	addiw	a5,a5,-5
	sext.w	a5,a5
	.loc 1 1795 20 discriminator 1
	srliw	a5,a5,4
	sw	a5,-36(s0)
	.loc 1 1797 3
	lla	a1,.LC134
	ld	a0,-56(s0)
	call	UefiDevicePathLibCatPrint
	.loc 1 1799 25
	sw	zero,-20(s0)
	.loc 1 1799 3
	j	.L209
.L213:
	.loc 1 1800 19
	ld	a5,-32(s0)
	lbu	a5,4(a5)
	.loc 1 1800 8
	bne	a5,zero,.L210
	.loc 1 1801 7
	lwu	a5,-20(s0)
	slli	a5,a5,4
	ld	a4,-32(s0)
	add	a5,a4,a5
	addi	a5,a5,5
	mv	a1,a5
	ld	a0,-56(s0)
	call	CatIPv4Address
	j	.L211
.L210:
	.loc 1 1803 7
	lwu	a5,-20(s0)
	slli	a5,a5,4
	ld	a4,-32(s0)
	add	a5,a4,a5
	addi	a5,a5,5
	mv	a1,a5
	ld	a0,-56(s0)
	call	CatIPv6Address
.L211:
	.loc 1 1806 45
	lw	a5,-36(s0)
	addiw	a5,a5,-1
	sext.w	a5,a5
	.loc 1 1806 8
	lw	a4,-20(s0)
	sext.w	a4,a4
	bgeu	a4,a5,.L212
	.loc 1 1807 7
	lla	a1,.LC30
	ld	a0,-56(s0)
	call	UefiDevicePathLibCatPrint
.L212:
	.loc 1 1799 83 discriminator 2
	lw	a5,-20(s0)
	addiw	a5,a5,1
	sw	a5,-20(s0)
.L209:
	.loc 1 1799 47 discriminator 1
	lw	a5,-20(s0)
	mv	a4,a5
	lw	a5,-36(s0)
	sext.w	a4,a4
	sext.w	a5,a5
	bltu	a4,a5,.L213
	.loc 1 1811 3
	lla	a1,.LC32
	ld	a0,-56(s0)
	call	UefiDevicePathLibCatPrint
	.loc 1 1812 1
	nop
	ld	ra,72(sp)
	.cfi_restore 1
	ld	s0,64(sp)
	.cfi_restore 8
	.cfi_def_cfa 2, 80
	addi	sp,sp,80
	.cfi_def_cfa_offset 0
	jr	ra
	.cfi_endproc
.LFE39:
	.size	DevPathToTextDns, .-DevPathToTextDns
	.section	.rodata
	.align	3
.LC135:
	.string	"U"
	.string	"r"
	.string	"i"
	.string	"("
	.string	"%"
	.string	"a"
	.string	")"
	.zero	2
	.section	.text.DevPathToTextUri,"ax",@progbits
	.align	1
	.globl	DevPathToTextUri
	.type	DevPathToTextUri, @function
DevPathToTextUri:
.LFB40:
	.loc 1 1834 1
	.cfi_startproc
	addi	sp,sp,-80
	.cfi_def_cfa_offset 80
	sd	ra,72(sp)
	sd	s0,64(sp)
	.cfi_offset 1, -8
	.cfi_offset 8, -16
	addi	s0,sp,80
	.cfi_def_cfa 8, 0
	sd	a0,-56(s0)
	sd	a1,-64(s0)
	mv	a5,a2
	mv	a4,a3
	sb	a5,-65(s0)
	mv	a5,a4
	sb	a5,-66(s0)
	.loc 1 1842 7
	ld	a5,-64(s0)
	sd	a5,-24(s0)
	.loc 1 1843 15
	ld	a0,-24(s0)
	call	DevicePathNodeLength@plt
	mv	a5,a0
	.loc 1 1843 13 discriminator 1
	addi	a5,a5,-4
	sd	a5,-32(s0)
	.loc 1 1844 12
	ld	a5,-32(s0)
	addi	a5,a5,1
	mv	a0,a5
	call	AllocatePool@plt
	sd	a0,-40(s0)
	.loc 1 1846 6
	ld	a5,-40(s0)
	beq	a5,zero,.L217
	.loc 1 1851 23
	ld	a5,-24(s0)
	addi	a5,a5,4
	.loc 1 1851 3
	ld	a2,-32(s0)
	mv	a1,a5
	ld	a0,-40(s0)
	call	CopyMem@plt
	.loc 1 1852 9
	ld	a4,-40(s0)
	ld	a5,-32(s0)
	add	a5,a4,a5
	.loc 1 1852 21
	sb	zero,0(a5)
	.loc 1 1853 3
	ld	a2,-40(s0)
	lla	a1,.LC135
	ld	a0,-56(s0)
	call	UefiDevicePathLibCatPrint
	.loc 1 1854 3
	ld	a0,-40(s0)
	call	FreePool@plt
	j	.L214
.L217:
	.loc 1 1848 5
	nop
.L214:
	.loc 1 1855 1
	ld	ra,72(sp)
	.cfi_restore 1
	ld	s0,64(sp)
	.cfi_restore 8
	.cfi_def_cfa 2, 80
	addi	sp,sp,80
	.cfi_def_cfa_offset 0
	jr	ra
	.cfi_endproc
.LFE40:
	.size	DevPathToTextUri, .-DevPathToTextUri
	.section	.rodata
	.align	3
.LC136:
	.string	"M"
	.string	"B"
	.string	"R"
	.zero	2
	.align	3
.LC137:
	.string	"H"
	.string	"D"
	.string	"("
	.string	"%"
	.string	"d"
	.string	","
	.string	"%"
	.string	"s"
	.string	","
	.string	"0"
	.string	"x"
	.string	"%"
	.string	"0"
	.string	"8"
	.string	"x"
	.zero	2
	.align	3
.LC138:
	.string	"G"
	.string	"P"
	.string	"T"
	.zero	2
	.align	3
.LC139:
	.string	"H"
	.string	"D"
	.string	"("
	.string	"%"
	.string	"d"
	.string	","
	.string	"%"
	.string	"s"
	.string	","
	.string	"%"
	.string	"g"
	.zero	2
	.align	3
.LC140:
	.string	"H"
	.string	"D"
	.string	"("
	.string	"%"
	.string	"d"
	.string	","
	.string	"%"
	.string	"d"
	.string	","
	.string	"0"
	.zero	2
	.align	3
.LC141:
	.string	","
	.string	"0"
	.string	"x"
	.string	"%"
	.string	"l"
	.string	"x"
	.string	","
	.string	"0"
	.string	"x"
	.string	"%"
	.string	"l"
	.string	"x"
	.string	")"
	.zero	2
	.section	.text.DevPathToTextHardDrive,"ax",@progbits
	.align	1
	.globl	DevPathToTextHardDrive
	.type	DevPathToTextHardDrive, @function
DevPathToTextHardDrive:
.LFB41:
	.loc 1 1877 1
	.cfi_startproc
	addi	sp,sp,-64
	.cfi_def_cfa_offset 64
	sd	ra,56(sp)
	sd	s0,48(sp)
	.cfi_offset 1, -8
	.cfi_offset 8, -16
	addi	s0,sp,64
	.cfi_def_cfa 8, 0
	sd	a0,-40(s0)
	sd	a1,-48(s0)
	mv	a5,a2
	mv	a4,a3
	sb	a5,-49(s0)
	mv	a5,a4
	sb	a5,-50(s0)
	.loc 1 1880 6
	ld	a5,-48(s0)
	sd	a5,-24(s0)
	.loc 1 1881 13
	ld	a5,-24(s0)
	lbu	a5,41(a5)
	sext.w	a5,a5
	.loc 1 1881 3
	li	a4,1
	beq	a5,a4,.L219
	li	a4,2
	beq	a5,a4,.L220
	j	.L225
.L219:
	.loc 1 1883 7
	ld	a5,-24(s0)
	lbu	a4,4(a5)
	lbu	a3,5(a5)
	slli	a3,a3,8
	or	a4,a3,a4
	lbu	a3,6(a5)
	slli	a3,a3,16
	or	a4,a3,a4
	lbu	a5,7(a5)
	slli	a5,a5,24
	or	a5,a5,a4
	sext.w	a2,a5
	.loc 1 1888 22
	ld	a5,-24(s0)
	addi	a5,a5,24
	.loc 1 1883 7
	lw	a5,0(a5)
	mv	a4,a5
	lla	a3,.LC136
	lla	a1,.LC137
	ld	a0,-40(s0)
	call	UefiDevicePathLibCatPrint
	.loc 1 1890 7
	j	.L222
.L220:
	.loc 1 1893 7
	ld	a5,-24(s0)
	lbu	a4,4(a5)
	lbu	a3,5(a5)
	slli	a3,a3,8
	or	a4,a3,a4
	lbu	a3,6(a5)
	slli	a3,a3,16
	or	a4,a3,a4
	lbu	a5,7(a5)
	slli	a5,a5,24
	or	a5,a5,a4
	sext.w	a2,a5
	.loc 1 1898 21
	ld	a5,-24(s0)
	addi	a5,a5,24
	.loc 1 1893 7
	mv	a4,a5
	lla	a3,.LC138
	lla	a1,.LC139
	ld	a0,-40(s0)
	call	UefiDevicePathLibCatPrint
	.loc 1 1900 7
	j	.L222
.L225:
	.loc 1 1903 7
	ld	a5,-24(s0)
	lbu	a4,4(a5)
	lbu	a3,5(a5)
	slli	a3,a3,8
	or	a4,a3,a4
	lbu	a3,6(a5)
	slli	a3,a3,16
	or	a4,a3,a4
	lbu	a5,7(a5)
	slli	a5,a5,24
	or	a5,a5,a4
	sext.w	a4,a5
	.loc 1 1907 11
	ld	a5,-24(s0)
	lbu	a5,41(a5)
	.loc 1 1903 7
	sext.w	a5,a5
	mv	a3,a5
	mv	a2,a4
	lla	a1,.LC140
	ld	a0,-40(s0)
	call	UefiDevicePathLibCatPrint
	.loc 1 1909 7
	nop
.L222:
	.loc 1 1912 6
	lbu	a5,-49(s0)
	andi	a5,a5,0xff
	beq	a5,zero,.L223
	.loc 1 1913 5
	lla	a1,.LC32
	ld	a0,-40(s0)
	call	UefiDevicePathLibCatPrint
	.loc 1 1917 1
	j	.L226
.L223:
	.loc 1 1915 5
	ld	a5,-24(s0)
	lbu	a4,8(a5)
	lbu	a3,9(a5)
	slli	a3,a3,8
	or	a4,a3,a4
	lbu	a3,10(a5)
	slli	a3,a3,16
	or	a4,a3,a4
	lbu	a3,11(a5)
	slli	a3,a3,24
	or	a4,a3,a4
	lbu	a3,12(a5)
	slli	a3,a3,32
	or	a4,a3,a4
	lbu	a3,13(a5)
	slli	a3,a3,40
	or	a4,a3,a4
	lbu	a3,14(a5)
	slli	a3,a3,48
	or	a4,a3,a4
	lbu	a5,15(a5)
	slli	a5,a5,56
	or	a5,a5,a4
	mv	a2,a5
	ld	a5,-24(s0)
	lbu	a4,16(a5)
	lbu	a3,17(a5)
	slli	a3,a3,8
	or	a4,a3,a4
	lbu	a3,18(a5)
	slli	a3,a3,16
	or	a4,a3,a4
	lbu	a3,19(a5)
	slli	a3,a3,24
	or	a4,a3,a4
	lbu	a3,20(a5)
	slli	a3,a3,32
	or	a4,a3,a4
	lbu	a3,21(a5)
	slli	a3,a3,40
	or	a4,a3,a4
	lbu	a3,22(a5)
	slli	a3,a3,48
	or	a4,a3,a4
	lbu	a5,23(a5)
	slli	a5,a5,56
	or	a5,a5,a4
	mv	a3,a5
	lla	a1,.LC141
	ld	a0,-40(s0)
	call	UefiDevicePathLibCatPrint
.L226:
	.loc 1 1917 1
	nop
	ld	ra,56(sp)
	.cfi_restore 1
	ld	s0,48(sp)
	.cfi_restore 8
	.cfi_def_cfa 2, 64
	addi	sp,sp,64
	.cfi_def_cfa_offset 0
	jr	ra
	.cfi_endproc
.LFE41:
	.size	DevPathToTextHardDrive, .-DevPathToTextHardDrive
	.section	.rodata
	.align	3
.LC142:
	.string	"C"
	.string	"D"
	.string	"R"
	.string	"O"
	.string	"M"
	.string	"("
	.string	"0"
	.string	"x"
	.string	"%"
	.string	"x"
	.string	")"
	.zero	2
	.align	3
.LC143:
	.string	"C"
	.string	"D"
	.string	"R"
	.string	"O"
	.string	"M"
	.string	"("
	.string	"0"
	.string	"x"
	.string	"%"
	.string	"x"
	.string	","
	.string	"0"
	.string	"x"
	.string	"%"
	.string	"l"
	.string	"x"
	.string	","
	.string	"0"
	.string	"x"
	.string	"%"
	.string	"l"
	.string	"x"
	.string	")"
	.zero	2
	.section	.text.DevPathToTextCDROM,"ax",@progbits
	.align	1
	.globl	DevPathToTextCDROM
	.type	DevPathToTextCDROM, @function
DevPathToTextCDROM:
.LFB42:
	.loc 1 1939 1
	.cfi_startproc
	addi	sp,sp,-64
	.cfi_def_cfa_offset 64
	sd	ra,56(sp)
	sd	s0,48(sp)
	.cfi_offset 1, -8
	.cfi_offset 8, -16
	addi	s0,sp,64
	.cfi_def_cfa 8, 0
	sd	a0,-40(s0)
	sd	a1,-48(s0)
	mv	a5,a2
	mv	a4,a3
	sb	a5,-49(s0)
	mv	a5,a4
	sb	a5,-50(s0)
	.loc 1 1942 6
	ld	a5,-48(s0)
	sd	a5,-24(s0)
	.loc 1 1943 6
	lbu	a5,-49(s0)
	andi	a5,a5,0xff
	beq	a5,zero,.L228
	.loc 1 1944 5
	ld	a5,-24(s0)
	lbu	a4,4(a5)
	lbu	a3,5(a5)
	slli	a3,a3,8
	or	a4,a3,a4
	lbu	a3,6(a5)
	slli	a3,a3,16
	or	a4,a3,a4
	lbu	a5,7(a5)
	slli	a5,a5,24
	or	a5,a5,a4
	sext.w	a5,a5
	mv	a2,a5
	lla	a1,.LC142
	ld	a0,-40(s0)
	call	UefiDevicePathLibCatPrint
	.loc 1 1945 5
	j	.L227
.L228:
	.loc 1 1948 3
	ld	a5,-24(s0)
	lbu	a4,4(a5)
	lbu	a3,5(a5)
	slli	a3,a3,8
	or	a4,a3,a4
	lbu	a3,6(a5)
	slli	a3,a3,16
	or	a4,a3,a4
	lbu	a5,7(a5)
	slli	a5,a5,24
	or	a5,a5,a4
	sext.w	a2,a5
	ld	a5,-24(s0)
	lbu	a4,8(a5)
	lbu	a3,9(a5)
	slli	a3,a3,8
	or	a4,a3,a4
	lbu	a3,10(a5)
	slli	a3,a3,16
	or	a4,a3,a4
	lbu	a3,11(a5)
	slli	a3,a3,24
	or	a4,a3,a4
	lbu	a3,12(a5)
	slli	a3,a3,32
	or	a4,a3,a4
	lbu	a3,13(a5)
	slli	a3,a3,40
	or	a4,a3,a4
	lbu	a3,14(a5)
	slli	a3,a3,48
	or	a4,a3,a4
	lbu	a5,15(a5)
	slli	a5,a5,56
	or	a5,a5,a4
	mv	a1,a5
	ld	a5,-24(s0)
	lbu	a4,16(a5)
	lbu	a3,17(a5)
	slli	a3,a3,8
	or	a4,a3,a4
	lbu	a3,18(a5)
	slli	a3,a3,16
	or	a4,a3,a4
	lbu	a3,19(a5)
	slli	a3,a3,24
	or	a4,a3,a4
	lbu	a3,20(a5)
	slli	a3,a3,32
	or	a4,a3,a4
	lbu	a3,21(a5)
	slli	a3,a3,40
	or	a4,a3,a4
	lbu	a3,22(a5)
	slli	a3,a3,48
	or	a4,a3,a4
	lbu	a5,23(a5)
	slli	a5,a5,56
	or	a5,a5,a4
	mv	a4,a5
	mv	a3,a1
	lla	a1,.LC143
	ld	a0,-40(s0)
	call	UefiDevicePathLibCatPrint
.L227:
	.loc 1 1949 1
	ld	ra,56(sp)
	.cfi_restore 1
	ld	s0,48(sp)
	.cfi_restore 8
	.cfi_def_cfa 2, 64
	addi	sp,sp,64
	.cfi_def_cfa_offset 0
	jr	ra
	.cfi_endproc
.LFE42:
	.size	DevPathToTextCDROM, .-DevPathToTextCDROM
	.section	.rodata
	.align	3
.LC144:
	.string	"%"
	.string	"s"
	.zero	2
	.section	.text.DevPathToTextFilePath,"ax",@progbits
	.align	1
	.globl	DevPathToTextFilePath
	.type	DevPathToTextFilePath, @function
DevPathToTextFilePath:
.LFB43:
	.loc 1 1971 1
	.cfi_startproc
	addi	sp,sp,-64
	.cfi_def_cfa_offset 64
	sd	ra,56(sp)
	sd	s0,48(sp)
	.cfi_offset 1, -8
	.cfi_offset 8, -16
	addi	s0,sp,64
	.cfi_def_cfa 8, 0
	sd	a0,-40(s0)
	sd	a1,-48(s0)
	mv	a5,a2
	mv	a4,a3
	sb	a5,-49(s0)
	mv	a5,a4
	sb	a5,-50(s0)
	.loc 1 1974 6
	ld	a5,-48(s0)
	sd	a5,-24(s0)
	.loc 1 1975 44
	ld	a5,-24(s0)
	addi	a5,a5,4
	.loc 1 1975 3
	mv	a2,a5
	lla	a1,.LC144
	ld	a0,-40(s0)
	call	UefiDevicePathLibCatPrint
	.loc 1 1976 1
	nop
	ld	ra,56(sp)
	.cfi_restore 1
	ld	s0,48(sp)
	.cfi_restore 8
	.cfi_def_cfa 2, 64
	addi	sp,sp,64
	.cfi_def_cfa_offset 0
	jr	ra
	.cfi_endproc
.LFE43:
	.size	DevPathToTextFilePath, .-DevPathToTextFilePath
	.section	.rodata
	.align	3
.LC145:
	.string	"M"
	.string	"e"
	.string	"d"
	.string	"i"
	.string	"a"
	.string	"("
	.string	"%"
	.string	"g"
	.string	")"
	.zero	2
	.section	.text.DevPathToTextMediaProtocol,"ax",@progbits
	.align	1
	.globl	DevPathToTextMediaProtocol
	.type	DevPathToTextMediaProtocol, @function
DevPathToTextMediaProtocol:
.LFB44:
	.loc 1 1998 1
	.cfi_startproc
	addi	sp,sp,-64
	.cfi_def_cfa_offset 64
	sd	ra,56(sp)
	sd	s0,48(sp)
	.cfi_offset 1, -8
	.cfi_offset 8, -16
	addi	s0,sp,64
	.cfi_def_cfa 8, 0
	sd	a0,-40(s0)
	sd	a1,-48(s0)
	mv	a5,a2
	mv	a4,a3
	sb	a5,-49(s0)
	mv	a5,a4
	sb	a5,-50(s0)
	.loc 1 2001 13
	ld	a5,-48(s0)
	sd	a5,-24(s0)
	.loc 1 2002 3
	ld	a5,-24(s0)
	addi	a5,a5,4
	mv	a2,a5
	lla	a1,.LC145
	ld	a0,-40(s0)
	call	UefiDevicePathLibCatPrint
	.loc 1 2003 1
	nop
	ld	ra,56(sp)
	.cfi_restore 1
	ld	s0,48(sp)
	.cfi_restore 8
	.cfi_def_cfa 2, 64
	addi	sp,sp,64
	.cfi_def_cfa_offset 0
	jr	ra
	.cfi_endproc
.LFE44:
	.size	DevPathToTextMediaProtocol, .-DevPathToTextMediaProtocol
	.section	.rodata
	.align	3
.LC146:
	.string	"F"
	.string	"v"
	.string	"("
	.string	"%"
	.string	"g"
	.string	")"
	.zero	2
	.section	.text.DevPathToTextFv,"ax",@progbits
	.align	1
	.globl	DevPathToTextFv
	.type	DevPathToTextFv, @function
DevPathToTextFv:
.LFB45:
	.loc 1 2025 1
	.cfi_startproc
	addi	sp,sp,-64
	.cfi_def_cfa_offset 64
	sd	ra,56(sp)
	sd	s0,48(sp)
	.cfi_offset 1, -8
	.cfi_offset 8, -16
	addi	s0,sp,64
	.cfi_def_cfa 8, 0
	sd	a0,-40(s0)
	sd	a1,-48(s0)
	mv	a5,a2
	mv	a4,a3
	sb	a5,-49(s0)
	mv	a5,a4
	sb	a5,-50(s0)
	.loc 1 2028 6
	ld	a5,-48(s0)
	sd	a5,-24(s0)
	.loc 1 2029 3
	ld	a5,-24(s0)
	addi	a5,a5,4
	mv	a2,a5
	lla	a1,.LC146
	ld	a0,-40(s0)
	call	UefiDevicePathLibCatPrint
	.loc 1 2030 1
	nop
	ld	ra,56(sp)
	.cfi_restore 1
	ld	s0,48(sp)
	.cfi_restore 8
	.cfi_def_cfa 2, 64
	addi	sp,sp,64
	.cfi_def_cfa_offset 0
	jr	ra
	.cfi_endproc
.LFE45:
	.size	DevPathToTextFv, .-DevPathToTextFv
	.section	.rodata
	.align	3
.LC147:
	.string	"F"
	.string	"v"
	.string	"F"
	.string	"i"
	.string	"l"
	.string	"e"
	.string	"("
	.string	"%"
	.string	"g"
	.string	")"
	.zero	2
	.section	.text.DevPathToTextFvFile,"ax",@progbits
	.align	1
	.globl	DevPathToTextFvFile
	.type	DevPathToTextFvFile, @function
DevPathToTextFvFile:
.LFB46:
	.loc 1 2052 1
	.cfi_startproc
	addi	sp,sp,-64
	.cfi_def_cfa_offset 64
	sd	ra,56(sp)
	sd	s0,48(sp)
	.cfi_offset 1, -8
	.cfi_offset 8, -16
	addi	s0,sp,64
	.cfi_def_cfa 8, 0
	sd	a0,-40(s0)
	sd	a1,-48(s0)
	mv	a5,a2
	mv	a4,a3
	sb	a5,-49(s0)
	mv	a5,a4
	sb	a5,-50(s0)
	.loc 1 2055 10
	ld	a5,-48(s0)
	sd	a5,-24(s0)
	.loc 1 2056 3
	ld	a5,-24(s0)
	addi	a5,a5,4
	mv	a2,a5
	lla	a1,.LC147
	ld	a0,-40(s0)
	call	UefiDevicePathLibCatPrint
	.loc 1 2057 1
	nop
	ld	ra,56(sp)
	.cfi_restore 1
	ld	s0,48(sp)
	.cfi_restore 8
	.cfi_def_cfa 2, 64
	addi	sp,sp,64
	.cfi_def_cfa_offset 0
	jr	ra
	.cfi_endproc
.LFE46:
	.size	DevPathToTextFvFile, .-DevPathToTextFvFile
	.section	.rodata
	.align	3
.LC148:
	.string	"O"
	.string	"f"
	.string	"f"
	.string	"s"
	.string	"e"
	.string	"t"
	.string	"("
	.string	"0"
	.string	"x"
	.string	"%"
	.string	"l"
	.string	"x"
	.string	","
	.string	"0"
	.string	"x"
	.string	"%"
	.string	"l"
	.string	"x"
	.string	")"
	.zero	2
	.section	.text.DevPathRelativeOffsetRange,"ax",@progbits
	.align	1
	.globl	DevPathRelativeOffsetRange
	.type	DevPathRelativeOffsetRange, @function
DevPathRelativeOffsetRange:
.LFB47:
	.loc 1 2079 1
	.cfi_startproc
	addi	sp,sp,-64
	.cfi_def_cfa_offset 64
	sd	ra,56(sp)
	sd	s0,48(sp)
	.cfi_offset 1, -8
	.cfi_offset 8, -16
	addi	s0,sp,64
	.cfi_def_cfa 8, 0
	sd	a0,-40(s0)
	sd	a1,-48(s0)
	mv	a5,a2
	mv	a4,a3
	sb	a5,-49(s0)
	mv	a5,a4
	sb	a5,-50(s0)
	.loc 1 2082 10
	ld	a5,-48(s0)
	sd	a5,-24(s0)
	.loc 1 2083 3
	ld	a5,-24(s0)
	lbu	a4,8(a5)
	lbu	a3,9(a5)
	slli	a3,a3,8
	or	a4,a3,a4
	lbu	a3,10(a5)
	slli	a3,a3,16
	or	a4,a3,a4
	lbu	a3,11(a5)
	slli	a3,a3,24
	or	a4,a3,a4
	lbu	a3,12(a5)
	slli	a3,a3,32
	or	a4,a3,a4
	lbu	a3,13(a5)
	slli	a3,a3,40
	or	a4,a3,a4
	lbu	a3,14(a5)
	slli	a3,a3,48
	or	a4,a3,a4
	lbu	a5,15(a5)
	slli	a5,a5,56
	or	a5,a5,a4
	mv	a2,a5
	ld	a5,-24(s0)
	lbu	a4,16(a5)
	lbu	a3,17(a5)
	slli	a3,a3,8
	or	a4,a3,a4
	lbu	a3,18(a5)
	slli	a3,a3,16
	or	a4,a3,a4
	lbu	a3,19(a5)
	slli	a3,a3,24
	or	a4,a3,a4
	lbu	a3,20(a5)
	slli	a3,a3,32
	or	a4,a3,a4
	lbu	a3,21(a5)
	slli	a3,a3,40
	or	a4,a3,a4
	lbu	a3,22(a5)
	slli	a3,a3,48
	or	a4,a3,a4
	lbu	a5,23(a5)
	slli	a5,a5,56
	or	a5,a5,a4
	mv	a3,a5
	lla	a1,.LC148
	ld	a0,-40(s0)
	call	UefiDevicePathLibCatPrint
	.loc 1 2089 1
	nop
	ld	ra,56(sp)
	.cfi_restore 1
	ld	s0,48(sp)
	.cfi_restore 8
	.cfi_def_cfa 2, 64
	addi	sp,sp,64
	.cfi_def_cfa_offset 0
	jr	ra
	.cfi_endproc
.LFE47:
	.size	DevPathRelativeOffsetRange, .-DevPathRelativeOffsetRange
	.section	.rodata
	.align	3
.LC149:
	.string	"V"
	.string	"i"
	.string	"r"
	.string	"t"
	.string	"u"
	.string	"a"
	.string	"l"
	.string	"D"
	.string	"i"
	.string	"s"
	.string	"k"
	.string	"("
	.string	"0"
	.string	"x"
	.string	"%"
	.string	"l"
	.string	"x"
	.string	","
	.string	"0"
	.string	"x"
	.string	"%"
	.string	"l"
	.string	"x"
	.string	","
	.string	"%"
	.string	"d"
	.string	")"
	.zero	2
	.align	3
.LC150:
	.string	"V"
	.string	"i"
	.string	"r"
	.string	"t"
	.string	"u"
	.string	"a"
	.string	"l"
	.string	"C"
	.string	"D"
	.string	"("
	.string	"0"
	.string	"x"
	.string	"%"
	.string	"l"
	.string	"x"
	.string	","
	.string	"0"
	.string	"x"
	.string	"%"
	.string	"l"
	.string	"x"
	.string	","
	.string	"%"
	.string	"d"
	.string	")"
	.zero	2
	.align	3
.LC151:
	.string	"P"
	.string	"e"
	.string	"r"
	.string	"s"
	.string	"i"
	.string	"s"
	.string	"t"
	.string	"e"
	.string	"n"
	.string	"t"
	.string	"V"
	.string	"i"
	.string	"r"
	.string	"t"
	.string	"u"
	.string	"a"
	.string	"l"
	.string	"D"
	.string	"i"
	.string	"s"
	.string	"k"
	.string	"("
	.string	"0"
	.string	"x"
	.string	"%"
	.string	"l"
	.string	"x"
	.string	","
	.string	"0"
	.string	"x"
	.string	"%"
	.string	"l"
	.string	"x"
	.string	","
	.string	"%"
	.string	"d"
	.string	")"
	.zero	2
	.align	3
.LC152:
	.string	"P"
	.string	"e"
	.string	"r"
	.string	"s"
	.string	"i"
	.string	"s"
	.string	"t"
	.string	"e"
	.string	"n"
	.string	"t"
	.string	"V"
	.string	"i"
	.string	"r"
	.string	"t"
	.string	"u"
	.string	"a"
	.string	"l"
	.string	"C"
	.string	"D"
	.string	"("
	.string	"0"
	.string	"x"
	.string	"%"
	.string	"l"
	.string	"x"
	.string	","
	.string	"0"
	.string	"x"
	.string	"%"
	.string	"l"
	.string	"x"
	.string	","
	.string	"%"
	.string	"d"
	.string	")"
	.zero	2
	.align	3
.LC153:
	.string	"R"
	.string	"a"
	.string	"m"
	.string	"D"
	.string	"i"
	.string	"s"
	.string	"k"
	.string	"("
	.string	"0"
	.string	"x"
	.string	"%"
	.string	"l"
	.string	"x"
	.string	","
	.string	"0"
	.string	"x"
	.string	"%"
	.string	"l"
	.string	"x"
	.string	","
	.string	"%"
	.string	"d"
	.string	","
	.string	"%"
	.string	"g"
	.string	")"
	.zero	2
	.section	.text.DevPathToTextRamDisk,"ax",@progbits
	.align	1
	.globl	DevPathToTextRamDisk
	.type	DevPathToTextRamDisk, @function
DevPathToTextRamDisk:
.LFB48:
	.loc 1 2111 1
	.cfi_startproc
	addi	sp,sp,-80
	.cfi_def_cfa_offset 80
	sd	ra,72(sp)
	sd	s0,64(sp)
	sd	s1,56(sp)
	.cfi_offset 1, -8
	.cfi_offset 8, -16
	.cfi_offset 9, -24
	addi	s0,sp,80
	.cfi_def_cfa 8, 0
	sd	a0,-56(s0)
	sd	a1,-64(s0)
	mv	a5,a2
	mv	a4,a3
	sb	a5,-65(s0)
	mv	a5,a4
	sb	a5,-66(s0)
	.loc 1 2114 11
	ld	a5,-64(s0)
	sd	a5,-40(s0)
	.loc 1 2116 20
	ld	a5,-40(s0)
	addi	a5,a5,20
	.loc 1 2116 7
	la	a1,gEfiVirtualDiskGuid
	mv	a0,a5
	call	CompareGuid@plt
	mv	a5,a0
	.loc 1 2116 6 discriminator 1
	beq	a5,zero,.L236
	.loc 1 2120 47
	ld	a5,-40(s0)
	lbu	a4,8(a5)
	lbu	a3,9(a5)
	slli	a3,a3,8
	or	a4,a3,a4
	lbu	a3,10(a5)
	slli	a3,a3,16
	or	a4,a3,a4
	lbu	a5,11(a5)
	slli	a5,a5,24
	or	a5,a5,a4
	sext.w	a5,a5
	.loc 1 2120 7
	slli	a5,a5,32
	srli	a5,a5,32
	li	a1,32
	mv	a0,a5
	call	LShiftU64@plt
	mv	a2,a0
	.loc 1 2120 79 discriminator 1
	ld	a5,-40(s0)
	lbu	a4,4(a5)
	lbu	a3,5(a5)
	slli	a3,a3,8
	or	a4,a3,a4
	lbu	a3,6(a5)
	slli	a3,a3,16
	or	a4,a3,a4
	lbu	a5,7(a5)
	slli	a5,a5,24
	or	a5,a5,a4
	sext.w	a5,a5
	slli	a5,a5,32
	srli	a5,a5,32
	.loc 1 2117 5
	or	s1,a2,a5
	.loc 1 2121 45
	ld	a5,-40(s0)
	lbu	a4,16(a5)
	lbu	a3,17(a5)
	slli	a3,a3,8
	or	a4,a3,a4
	lbu	a3,18(a5)
	slli	a3,a3,16
	or	a4,a3,a4
	lbu	a5,19(a5)
	slli	a5,a5,24
	or	a5,a5,a4
	sext.w	a5,a5
	.loc 1 2121 7
	slli	a5,a5,32
	srli	a5,a5,32
	li	a1,32
	mv	a0,a5
	call	LShiftU64@plt
	mv	a2,a0
	.loc 1 2121 75 discriminator 1
	ld	a5,-40(s0)
	lbu	a4,12(a5)
	lbu	a3,13(a5)
	slli	a3,a3,8
	or	a4,a3,a4
	lbu	a3,14(a5)
	slli	a3,a3,16
	or	a4,a3,a4
	lbu	a5,15(a5)
	slli	a5,a5,24
	or	a5,a5,a4
	sext.w	a5,a5
	slli	a5,a5,32
	srli	a5,a5,32
	.loc 1 2117 5
	or	a3,a2,a5
	.loc 1 2122 14
	ld	a5,-40(s0)
	lbu	a4,36(a5)
	lbu	a5,37(a5)
	slli	a5,a5,8
	or	a5,a5,a4
	slli	a5,a5,48
	srli	a5,a5,48
	.loc 1 2117 5
	sext.w	a5,a5
	mv	a4,a5
	mv	a2,s1
	lla	a1,.LC149
	ld	a0,-56(s0)
	call	UefiDevicePathLibCatPrint
	.loc 1 2158 1
	j	.L241
.L236:
	.loc 1 2124 27
	ld	a5,-40(s0)
	addi	a5,a5,20
	.loc 1 2124 14
	la	a1,gEfiVirtualCdGuid
	mv	a0,a5
	call	CompareGuid@plt
	mv	a5,a0
	.loc 1 2124 13 discriminator 1
	beq	a5,zero,.L238
	.loc 1 2128 47
	ld	a5,-40(s0)
	lbu	a4,8(a5)
	lbu	a3,9(a5)
	slli	a3,a3,8
	or	a4,a3,a4
	lbu	a3,10(a5)
	slli	a3,a3,16
	or	a4,a3,a4
	lbu	a5,11(a5)
	slli	a5,a5,24
	or	a5,a5,a4
	sext.w	a5,a5
	.loc 1 2128 7
	slli	a5,a5,32
	srli	a5,a5,32
	li	a1,32
	mv	a0,a5
	call	LShiftU64@plt
	mv	a2,a0
	.loc 1 2128 79 discriminator 1
	ld	a5,-40(s0)
	lbu	a4,4(a5)
	lbu	a3,5(a5)
	slli	a3,a3,8
	or	a4,a3,a4
	lbu	a3,6(a5)
	slli	a3,a3,16
	or	a4,a3,a4
	lbu	a5,7(a5)
	slli	a5,a5,24
	or	a5,a5,a4
	sext.w	a5,a5
	slli	a5,a5,32
	srli	a5,a5,32
	.loc 1 2125 5
	or	s1,a2,a5
	.loc 1 2129 45
	ld	a5,-40(s0)
	lbu	a4,16(a5)
	lbu	a3,17(a5)
	slli	a3,a3,8
	or	a4,a3,a4
	lbu	a3,18(a5)
	slli	a3,a3,16
	or	a4,a3,a4
	lbu	a5,19(a5)
	slli	a5,a5,24
	or	a5,a5,a4
	sext.w	a5,a5
	.loc 1 2129 7
	slli	a5,a5,32
	srli	a5,a5,32
	li	a1,32
	mv	a0,a5
	call	LShiftU64@plt
	mv	a2,a0
	.loc 1 2129 75 discriminator 1
	ld	a5,-40(s0)
	lbu	a4,12(a5)
	lbu	a3,13(a5)
	slli	a3,a3,8
	or	a4,a3,a4
	lbu	a3,14(a5)
	slli	a3,a3,16
	or	a4,a3,a4
	lbu	a5,15(a5)
	slli	a5,a5,24
	or	a5,a5,a4
	sext.w	a5,a5
	slli	a5,a5,32
	srli	a5,a5,32
	.loc 1 2125 5
	or	a3,a2,a5
	.loc 1 2130 14
	ld	a5,-40(s0)
	lbu	a4,36(a5)
	lbu	a5,37(a5)
	slli	a5,a5,8
	or	a5,a5,a4
	slli	a5,a5,48
	srli	a5,a5,48
	.loc 1 2125 5
	sext.w	a5,a5
	mv	a4,a5
	mv	a2,s1
	lla	a1,.LC150
	ld	a0,-56(s0)
	call	UefiDevicePathLibCatPrint
	.loc 1 2158 1
	j	.L241
.L238:
	.loc 1 2132 27
	ld	a5,-40(s0)
	addi	a5,a5,20
	.loc 1 2132 14
	la	a1,gEfiPersistentVirtualDiskGuid
	mv	a0,a5
	call	CompareGuid@plt
	mv	a5,a0
	.loc 1 2132 13 discriminator 1
	beq	a5,zero,.L239
	.loc 1 2136 47
	ld	a5,-40(s0)
	lbu	a4,8(a5)
	lbu	a3,9(a5)
	slli	a3,a3,8
	or	a4,a3,a4
	lbu	a3,10(a5)
	slli	a3,a3,16
	or	a4,a3,a4
	lbu	a5,11(a5)
	slli	a5,a5,24
	or	a5,a5,a4
	sext.w	a5,a5
	.loc 1 2136 7
	slli	a5,a5,32
	srli	a5,a5,32
	li	a1,32
	mv	a0,a5
	call	LShiftU64@plt
	mv	a2,a0
	.loc 1 2136 79 discriminator 1
	ld	a5,-40(s0)
	lbu	a4,4(a5)
	lbu	a3,5(a5)
	slli	a3,a3,8
	or	a4,a3,a4
	lbu	a3,6(a5)
	slli	a3,a3,16
	or	a4,a3,a4
	lbu	a5,7(a5)
	slli	a5,a5,24
	or	a5,a5,a4
	sext.w	a5,a5
	slli	a5,a5,32
	srli	a5,a5,32
	.loc 1 2133 5
	or	s1,a2,a5
	.loc 1 2137 45
	ld	a5,-40(s0)
	lbu	a4,16(a5)
	lbu	a3,17(a5)
	slli	a3,a3,8
	or	a4,a3,a4
	lbu	a3,18(a5)
	slli	a3,a3,16
	or	a4,a3,a4
	lbu	a5,19(a5)
	slli	a5,a5,24
	or	a5,a5,a4
	sext.w	a5,a5
	.loc 1 2137 7
	slli	a5,a5,32
	srli	a5,a5,32
	li	a1,32
	mv	a0,a5
	call	LShiftU64@plt
	mv	a2,a0
	.loc 1 2137 75 discriminator 1
	ld	a5,-40(s0)
	lbu	a4,12(a5)
	lbu	a3,13(a5)
	slli	a3,a3,8
	or	a4,a3,a4
	lbu	a3,14(a5)
	slli	a3,a3,16
	or	a4,a3,a4
	lbu	a5,15(a5)
	slli	a5,a5,24
	or	a5,a5,a4
	sext.w	a5,a5
	slli	a5,a5,32
	srli	a5,a5,32
	.loc 1 2133 5
	or	a3,a2,a5
	.loc 1 2138 14
	ld	a5,-40(s0)
	lbu	a4,36(a5)
	lbu	a5,37(a5)
	slli	a5,a5,8
	or	a5,a5,a4
	slli	a5,a5,48
	srli	a5,a5,48
	.loc 1 2133 5
	sext.w	a5,a5
	mv	a4,a5
	mv	a2,s1
	lla	a1,.LC151
	ld	a0,-56(s0)
	call	UefiDevicePathLibCatPrint
	.loc 1 2158 1
	j	.L241
.L239:
	.loc 1 2140 27
	ld	a5,-40(s0)
	addi	a5,a5,20
	.loc 1 2140 14
	la	a1,gEfiPersistentVirtualCdGuid
	mv	a0,a5
	call	CompareGuid@plt
	mv	a5,a0
	.loc 1 2140 13 discriminator 1
	beq	a5,zero,.L240
	.loc 1 2144 47
	ld	a5,-40(s0)
	lbu	a4,8(a5)
	lbu	a3,9(a5)
	slli	a3,a3,8
	or	a4,a3,a4
	lbu	a3,10(a5)
	slli	a3,a3,16
	or	a4,a3,a4
	lbu	a5,11(a5)
	slli	a5,a5,24
	or	a5,a5,a4
	sext.w	a5,a5
	.loc 1 2144 7
	slli	a5,a5,32
	srli	a5,a5,32
	li	a1,32
	mv	a0,a5
	call	LShiftU64@plt
	mv	a2,a0
	.loc 1 2144 79 discriminator 1
	ld	a5,-40(s0)
	lbu	a4,4(a5)
	lbu	a3,5(a5)
	slli	a3,a3,8
	or	a4,a3,a4
	lbu	a3,6(a5)
	slli	a3,a3,16
	or	a4,a3,a4
	lbu	a5,7(a5)
	slli	a5,a5,24
	or	a5,a5,a4
	sext.w	a5,a5
	slli	a5,a5,32
	srli	a5,a5,32
	.loc 1 2141 5
	or	s1,a2,a5
	.loc 1 2145 45
	ld	a5,-40(s0)
	lbu	a4,16(a5)
	lbu	a3,17(a5)
	slli	a3,a3,8
	or	a4,a3,a4
	lbu	a3,18(a5)
	slli	a3,a3,16
	or	a4,a3,a4
	lbu	a5,19(a5)
	slli	a5,a5,24
	or	a5,a5,a4
	sext.w	a5,a5
	.loc 1 2145 7
	slli	a5,a5,32
	srli	a5,a5,32
	li	a1,32
	mv	a0,a5
	call	LShiftU64@plt
	mv	a2,a0
	.loc 1 2145 75 discriminator 1
	ld	a5,-40(s0)
	lbu	a4,12(a5)
	lbu	a3,13(a5)
	slli	a3,a3,8
	or	a4,a3,a4
	lbu	a3,14(a5)
	slli	a3,a3,16
	or	a4,a3,a4
	lbu	a5,15(a5)
	slli	a5,a5,24
	or	a5,a5,a4
	sext.w	a5,a5
	slli	a5,a5,32
	srli	a5,a5,32
	.loc 1 2141 5
	or	a3,a2,a5
	.loc 1 2146 14
	ld	a5,-40(s0)
	lbu	a4,36(a5)
	lbu	a5,37(a5)
	slli	a5,a5,8
	or	a5,a5,a4
	slli	a5,a5,48
	srli	a5,a5,48
	.loc 1 2141 5
	sext.w	a5,a5
	mv	a4,a5
	mv	a2,s1
	lla	a1,.LC152
	ld	a0,-56(s0)
	call	UefiDevicePathLibCatPrint
	.loc 1 2158 1
	j	.L241
.L240:
	.loc 1 2152 47
	ld	a5,-40(s0)
	lbu	a4,8(a5)
	lbu	a3,9(a5)
	slli	a3,a3,8
	or	a4,a3,a4
	lbu	a3,10(a5)
	slli	a3,a3,16
	or	a4,a3,a4
	lbu	a5,11(a5)
	slli	a5,a5,24
	or	a5,a5,a4
	sext.w	a5,a5
	.loc 1 2152 7
	slli	a5,a5,32
	srli	a5,a5,32
	li	a1,32
	mv	a0,a5
	call	LShiftU64@plt
	mv	a2,a0
	.loc 1 2152 79 discriminator 1
	ld	a5,-40(s0)
	lbu	a4,4(a5)
	lbu	a3,5(a5)
	slli	a3,a3,8
	or	a4,a3,a4
	lbu	a3,6(a5)
	slli	a3,a3,16
	or	a4,a3,a4
	lbu	a5,7(a5)
	slli	a5,a5,24
	or	a5,a5,a4
	sext.w	a5,a5
	slli	a5,a5,32
	srli	a5,a5,32
	.loc 1 2149 5
	or	s1,a2,a5
	.loc 1 2153 45
	ld	a5,-40(s0)
	lbu	a4,16(a5)
	lbu	a3,17(a5)
	slli	a3,a3,8
	or	a4,a3,a4
	lbu	a3,18(a5)
	slli	a3,a3,16
	or	a4,a3,a4
	lbu	a5,19(a5)
	slli	a5,a5,24
	or	a5,a5,a4
	sext.w	a5,a5
	.loc 1 2153 7
	slli	a5,a5,32
	srli	a5,a5,32
	li	a1,32
	mv	a0,a5
	call	LShiftU64@plt
	mv	a2,a0
	.loc 1 2153 75 discriminator 1
	ld	a5,-40(s0)
	lbu	a4,12(a5)
	lbu	a3,13(a5)
	slli	a3,a3,8
	or	a4,a3,a4
	lbu	a3,14(a5)
	slli	a3,a3,16
	or	a4,a3,a4
	lbu	a5,15(a5)
	slli	a5,a5,24
	or	a5,a5,a4
	sext.w	a5,a5
	slli	a5,a5,32
	srli	a5,a5,32
	.loc 1 2149 5
	or	a3,a2,a5
	.loc 1 2154 14
	ld	a5,-40(s0)
	lbu	a4,36(a5)
	lbu	a5,37(a5)
	slli	a5,a5,8
	or	a5,a5,a4
	slli	a5,a5,48
	srli	a5,a5,48
	.loc 1 2149 5
	sext.w	a4,a5
	ld	a5,-40(s0)
	addi	a5,a5,20
	mv	a2,s1
	lla	a1,.LC153
	ld	a0,-56(s0)
	call	UefiDevicePathLibCatPrint
.L241:
	.loc 1 2158 1
	nop
	ld	ra,72(sp)
	.cfi_restore 1
	ld	s0,64(sp)
	.cfi_restore 8
	.cfi_def_cfa 2, 80
	ld	s1,56(sp)
	.cfi_restore 9
	addi	sp,sp,80
	.cfi_def_cfa_offset 0
	jr	ra
	.cfi_endproc
.LFE48:
	.size	DevPathToTextRamDisk, .-DevPathToTextRamDisk
	.section	.rodata
	.align	3
.LC154:
	.string	"F"
	.string	"l"
	.string	"o"
	.string	"p"
	.string	"p"
	.string	"y"
	.zero	2
	.align	3
.LC155:
	.string	"H"
	.string	"D"
	.zero	2
	.align	3
.LC156:
	.string	"C"
	.string	"D"
	.string	"R"
	.string	"O"
	.string	"M"
	.zero	2
	.align	3
.LC157:
	.string	"P"
	.string	"C"
	.string	"M"
	.string	"C"
	.string	"I"
	.string	"A"
	.zero	2
	.align	3
.LC158:
	.string	"U"
	.string	"S"
	.string	"B"
	.zero	2
	.align	3
.LC159:
	.string	"N"
	.string	"e"
	.string	"t"
	.string	"w"
	.string	"o"
	.string	"r"
	.string	"k"
	.zero	2
	.align	3
.LC160:
	.string	"B"
	.string	"B"
	.string	"S"
	.string	"("
	.string	"%"
	.string	"s"
	.string	","
	.string	"%"
	.string	"a"
	.zero	2
	.align	3
.LC161:
	.string	"B"
	.string	"B"
	.string	"S"
	.string	"("
	.string	"0"
	.string	"x"
	.string	"%"
	.string	"x"
	.string	","
	.string	"%"
	.string	"a"
	.zero	2
	.section	.text.DevPathToTextBBS,"ax",@progbits
	.align	1
	.globl	DevPathToTextBBS
	.type	DevPathToTextBBS, @function
DevPathToTextBBS:
.LFB49:
	.loc 1 2180 1
	.cfi_startproc
	addi	sp,sp,-64
	.cfi_def_cfa_offset 64
	sd	ra,56(sp)
	sd	s0,48(sp)
	.cfi_offset 1, -8
	.cfi_offset 8, -16
	addi	s0,sp,64
	.cfi_def_cfa 8, 0
	sd	a0,-40(s0)
	sd	a1,-48(s0)
	mv	a5,a2
	mv	a4,a3
	sb	a5,-49(s0)
	mv	a5,a4
	sb	a5,-50(s0)
	.loc 1 2184 7
	ld	a5,-48(s0)
	sd	a5,-32(s0)
	.loc 1 2185 14
	ld	a5,-32(s0)
	lbu	a4,4(a5)
	lbu	a5,5(a5)
	slli	a5,a5,8
	or	a5,a5,a4
	slli	a5,a5,48
	srli	a5,a5,48
	sext.w	a5,a5
	.loc 1 2185 3
	li	a4,6
	beq	a5,a4,.L243
	li	a4,6
	bgt	a5,a4,.L244
	li	a4,5
	beq	a5,a4,.L245
	li	a4,5
	bgt	a5,a4,.L244
	li	a4,4
	beq	a5,a4,.L246
	li	a4,4
	bgt	a5,a4,.L244
	li	a4,3
	beq	a5,a4,.L247
	li	a4,3
	bgt	a5,a4,.L244
	li	a4,1
	beq	a5,a4,.L248
	li	a4,2
	beq	a5,a4,.L249
	j	.L244
.L248:
	.loc 1 2187 12
	lla	a5,.LC154
	sd	a5,-24(s0)
	.loc 1 2188 7
	j	.L250
.L249:
	.loc 1 2191 12
	lla	a5,.LC155
	sd	a5,-24(s0)
	.loc 1 2192 7
	j	.L250
.L247:
	.loc 1 2195 12
	lla	a5,.LC156
	sd	a5,-24(s0)
	.loc 1 2196 7
	j	.L250
.L246:
	.loc 1 2199 12
	lla	a5,.LC157
	sd	a5,-24(s0)
	.loc 1 2200 7
	j	.L250
.L245:
	.loc 1 2203 12
	lla	a5,.LC158
	sd	a5,-24(s0)
	.loc 1 2204 7
	j	.L250
.L243:
	.loc 1 2207 12
	lla	a5,.LC159
	sd	a5,-24(s0)
	.loc 1 2208 7
	j	.L250
.L244:
	.loc 1 2211 12
	sd	zero,-24(s0)
	.loc 1 2212 7
	nop
.L250:
	.loc 1 2215 6
	ld	a5,-24(s0)
	beq	a5,zero,.L251
	.loc 1 2216 60
	ld	a5,-32(s0)
	addi	a5,a5,8
	.loc 1 2216 5
	mv	a3,a5
	ld	a2,-24(s0)
	lla	a1,.LC160
	ld	a0,-40(s0)
	call	UefiDevicePathLibCatPrint
	j	.L252
.L251:
	.loc 1 2218 56
	ld	a5,-32(s0)
	lbu	a4,4(a5)
	lbu	a5,5(a5)
	slli	a5,a5,8
	or	a5,a5,a4
	slli	a5,a5,48
	srli	a5,a5,48
	.loc 1 2218 5
	sext.w	a4,a5
	.loc 1 2218 73
	ld	a5,-32(s0)
	addi	a5,a5,8
	.loc 1 2218 5
	mv	a3,a5
	mv	a2,a4
	lla	a1,.LC161
	ld	a0,-40(s0)
	call	UefiDevicePathLibCatPrint
.L252:
	.loc 1 2221 6
	lbu	a5,-49(s0)
	andi	a5,a5,0xff
	beq	a5,zero,.L253
	.loc 1 2222 5
	lla	a1,.LC32
	ld	a0,-40(s0)
	call	UefiDevicePathLibCatPrint
	.loc 1 2223 5
	j	.L242
.L253:
	.loc 1 2226 49
	ld	a5,-32(s0)
	lbu	a4,6(a5)
	lbu	a5,7(a5)
	slli	a5,a5,8
	or	a5,a5,a4
	slli	a5,a5,48
	srli	a5,a5,48
	.loc 1 2226 3
	sext.w	a5,a5
	mv	a2,a5
	lla	a1,.LC100
	ld	a0,-40(s0)
	call	UefiDevicePathLibCatPrint
.L242:
	.loc 1 2227 1
	ld	ra,56(sp)
	.cfi_restore 1
	ld	s0,48(sp)
	.cfi_restore 8
	.cfi_def_cfa 2, 64
	addi	sp,sp,64
	.cfi_def_cfa_offset 0
	jr	ra
	.cfi_endproc
.LFE49:
	.size	DevPathToTextBBS, .-DevPathToTextBBS
	.section	.text.DevPathToTextEndInstance,"ax",@progbits
	.align	1
	.globl	DevPathToTextEndInstance
	.type	DevPathToTextEndInstance, @function
DevPathToTextEndInstance:
.LFB50:
	.loc 1 2249 1
	.cfi_startproc
	addi	sp,sp,-48
	.cfi_def_cfa_offset 48
	sd	ra,40(sp)
	sd	s0,32(sp)
	.cfi_offset 1, -8
	.cfi_offset 8, -16
	addi	s0,sp,48
	.cfi_def_cfa 8, 0
	sd	a0,-24(s0)
	sd	a1,-32(s0)
	mv	a5,a2
	mv	a4,a3
	sb	a5,-33(s0)
	mv	a5,a4
	sb	a5,-34(s0)
	.loc 1 2250 3
	lla	a1,.LC30
	ld	a0,-24(s0)
	call	UefiDevicePathLibCatPrint
	.loc 1 2251 1
	nop
	ld	ra,40(sp)
	.cfi_restore 1
	ld	s0,32(sp)
	.cfi_restore 8
	.cfi_def_cfa 2, 48
	addi	sp,sp,48
	.cfi_def_cfa_offset 0
	jr	ra
	.cfi_endproc
.LFE50:
	.size	DevPathToTextEndInstance, .-DevPathToTextEndInstance
	.globl	mUefiDevicePathLibToTextTableGeneric
	.section	.rodata
	.align	3
.LC162:
	.string	"H"
	.string	"a"
	.string	"r"
	.string	"d"
	.string	"w"
	.string	"a"
	.string	"r"
	.string	"e"
	.string	"P"
	.string	"a"
	.string	"t"
	.string	"h"
	.zero	2
	.align	3
.LC163:
	.string	"A"
	.string	"c"
	.string	"p"
	.string	"i"
	.string	"P"
	.string	"a"
	.string	"t"
	.string	"h"
	.zero	2
	.align	3
.LC164:
	.string	"M"
	.string	"e"
	.string	"d"
	.string	"i"
	.string	"a"
	.string	"P"
	.string	"a"
	.string	"t"
	.string	"h"
	.zero	2
	.align	3
.LC165:
	.string	"B"
	.string	"b"
	.string	"s"
	.string	"P"
	.string	"a"
	.string	"t"
	.string	"h"
	.zero	2
	.section	.data.rel.ro.local.mUefiDevicePathLibToTextTableGeneric,"aw"
	.align	3
	.type	mUefiDevicePathLibToTextTableGeneric, @object
	.size	mUefiDevicePathLibToTextTableGeneric, 96
mUefiDevicePathLibToTextTableGeneric:
	.byte	1
	.zero	7
	.dword	.LC162
	.byte	2
	.zero	7
	.dword	.LC163
	.byte	3
	.zero	7
	.dword	.LC4
	.byte	4
	.zero	7
	.dword	.LC164
	.byte	5
	.zero	7
	.dword	.LC165
	.byte	0
	.zero	7
	.dword	0
	.section	.rodata
	.align	3
.LC166:
	.string	"P"
	.string	"a"
	.string	"t"
	.string	"h"
	.string	"("
	.string	"%"
	.string	"d"
	.string	","
	.string	"%"
	.string	"d"
	.zero	2
	.align	3
.LC167:
	.string	"%"
	.string	"s"
	.string	"("
	.string	"%"
	.string	"d"
	.zero	2
	.section	.text.DevPathToTextNodeGeneric,"ax",@progbits
	.align	1
	.globl	DevPathToTextNodeGeneric
	.type	DevPathToTextNodeGeneric, @function
DevPathToTextNodeGeneric:
.LFB51:
	.loc 1 2282 1
	.cfi_startproc
	addi	sp,sp,-80
	.cfi_def_cfa_offset 80
	sd	ra,72(sp)
	sd	s0,64(sp)
	sd	s1,56(sp)
	.cfi_offset 1, -8
	.cfi_offset 8, -16
	.cfi_offset 9, -24
	addi	s0,sp,80
	.cfi_def_cfa 8, 0
	sd	a0,-56(s0)
	sd	a1,-64(s0)
	mv	a5,a2
	mv	a4,a3
	sb	a5,-65(s0)
	mv	a5,a4
	sb	a5,-66(s0)
	.loc 1 2286 8
	ld	a5,-64(s0)
	sd	a5,-48(s0)
	.loc 1 2288 14
	sd	zero,-40(s0)
	.loc 1 2288 3
	j	.L257
.L260:
	.loc 1 2289 9
	ld	a0,-48(s0)
	call	DevicePathType@plt
	mv	a5,a0
	mv	a3,a5
	.loc 1 2289 77 discriminator 1
	lla	a4,mUefiDevicePathLibToTextTableGeneric
	ld	a5,-40(s0)
	slli	a5,a5,4
	add	a5,a4,a5
	lbu	a5,0(a5)
	.loc 1 2289 8 discriminator 1
	mv	a4,a3
	beq	a4,a5,.L266
	.loc 1 2288 90 discriminator 2
	ld	a5,-40(s0)
	addi	a5,a5,1
	sd	a5,-40(s0)
.L257:
	.loc 1 2288 62 discriminator 1
	lla	a4,mUefiDevicePathLibToTextTableGeneric
	ld	a5,-40(s0)
	slli	a5,a5,4
	add	a5,a4,a5
	ld	a5,8(a5)
	.loc 1 2288 68 discriminator 1
	bne	a5,zero,.L260
	j	.L259
.L266:
	.loc 1 2290 7
	nop
.L259:
	.loc 1 2294 50
	lla	a4,mUefiDevicePathLibToTextTableGeneric
	ld	a5,-40(s0)
	slli	a5,a5,4
	add	a5,a4,a5
	ld	a5,8(a5)
	.loc 1 2294 6
	bne	a5,zero,.L261
	.loc 1 2298 52
	ld	a0,-48(s0)
	call	DevicePathType@plt
	mv	a5,a0
	.loc 1 2298 5 discriminator 1
	sext.w	s1,a5
	.loc 1 2298 75 discriminator 1
	ld	a0,-48(s0)
	call	DevicePathSubType@plt
	mv	a5,a0
	.loc 1 2298 5 discriminator 2
	sext.w	a5,a5
	mv	a3,a5
	mv	a2,s1
	lla	a1,.LC166
	ld	a0,-56(s0)
	call	UefiDevicePathLibCatPrint
	j	.L262
.L261:
	.loc 1 2303 90
	lla	a4,mUefiDevicePathLibToTextTableGeneric
	ld	a5,-40(s0)
	slli	a5,a5,4
	add	a5,a4,a5
	ld	s1,8(a5)
	.loc 1 2303 97
	ld	a0,-48(s0)
	call	DevicePathSubType@plt
	mv	a5,a0
	.loc 1 2303 5 discriminator 1
	sext.w	a5,a5
	mv	a3,a5
	mv	a2,s1
	lla	a1,.LC167
	ld	a0,-56(s0)
	call	UefiDevicePathLibCatPrint
.L262:
	.loc 1 2306 9
	li	a5,4
	sd	a5,-40(s0)
	.loc 1 2307 15
	ld	a0,-48(s0)
	call	DevicePathNodeLength@plt
	mv	a4,a0
	.loc 1 2307 6 discriminator 1
	ld	a5,-40(s0)
	bgeu	a5,a4,.L263
	.loc 1 2308 5
	lla	a1,.LC30
	ld	a0,-56(s0)
	call	UefiDevicePathLibCatPrint
	.loc 1 2309 5
	j	.L264
.L265:
	.loc 1 2310 63
	ld	a4,-48(s0)
	ld	a5,-40(s0)
	add	a5,a4,a5
	lbu	a5,0(a5)
	.loc 1 2310 7
	sext.w	a5,a5
	mv	a2,a5
	lla	a1,.LC31
	ld	a0,-56(s0)
	call	UefiDevicePathLibCatPrint
	.loc 1 2309 55 discriminator 3
	ld	a5,-40(s0)
	addi	a5,a5,1
	sd	a5,-40(s0)
.L264:
	.loc 1 2309 21 discriminator 1
	ld	a0,-48(s0)
	call	DevicePathNodeLength@plt
	mv	a4,a0
	.loc 1 2309 19 discriminator 2
	ld	a5,-40(s0)
	bltu	a5,a4,.L265
.L263:
	.loc 1 2314 3
	lla	a1,.LC32
	ld	a0,-56(s0)
	call	UefiDevicePathLibCatPrint
	.loc 1 2315 1
	nop
	ld	ra,72(sp)
	.cfi_restore 1
	ld	s0,64(sp)
	.cfi_restore 8
	.cfi_def_cfa 2, 80
	ld	s1,56(sp)
	.cfi_restore 9
	addi	sp,sp,80
	.cfi_def_cfa_offset 0
	jr	ra
	.cfi_endproc
.LFE51:
	.size	DevPathToTextNodeGeneric, .-DevPathToTextNodeGeneric
	.globl	mUefiDevicePathLibToTextTable
	.section	.data.rel.ro.local.mUefiDevicePathLibToTextTable,"aw"
	.align	3
	.type	mUefiDevicePathLibToTextTable, @object
	.size	mUefiDevicePathLibToTextTable, 800
mUefiDevicePathLibToTextTable:
	.byte	1
	.byte	1
	.zero	6
	.dword	DevPathToTextPci
	.byte	1
	.byte	2
	.zero	6
	.dword	DevPathToTextPccard
	.byte	1
	.byte	3
	.zero	6
	.dword	DevPathToTextMemMap
	.byte	1
	.byte	4
	.zero	6
	.dword	DevPathToTextVendor
	.byte	1
	.byte	5
	.zero	6
	.dword	DevPathToTextController
	.byte	1
	.byte	6
	.zero	6
	.dword	DevPathToTextBmc
	.byte	2
	.byte	1
	.zero	6
	.dword	DevPathToTextAcpi
	.byte	2
	.byte	2
	.zero	6
	.dword	DevPathToTextAcpiEx
	.byte	2
	.byte	3
	.zero	6
	.dword	DevPathToTextAcpiAdr
	.byte	3
	.byte	1
	.zero	6
	.dword	DevPathToTextAtapi
	.byte	3
	.byte	2
	.zero	6
	.dword	DevPathToTextScsi
	.byte	3
	.byte	3
	.zero	6
	.dword	DevPathToTextFibre
	.byte	3
	.byte	21
	.zero	6
	.dword	DevPathToTextFibreEx
	.byte	3
	.byte	22
	.zero	6
	.dword	DevPathToTextSasEx
	.byte	3
	.byte	23
	.zero	6
	.dword	DevPathToTextNVMe
	.byte	3
	.byte	25
	.zero	6
	.dword	DevPathToTextUfs
	.byte	3
	.byte	26
	.zero	6
	.dword	DevPathToTextSd
	.byte	3
	.byte	29
	.zero	6
	.dword	DevPathToTextEmmc
	.byte	3
	.byte	4
	.zero	6
	.dword	DevPathToText1394
	.byte	3
	.byte	5
	.zero	6
	.dword	DevPathToTextUsb
	.byte	3
	.byte	16
	.zero	6
	.dword	DevPathToTextUsbWWID
	.byte	3
	.byte	17
	.zero	6
	.dword	DevPathToTextLogicalUnit
	.byte	3
	.byte	15
	.zero	6
	.dword	DevPathToTextUsbClass
	.byte	3
	.byte	18
	.zero	6
	.dword	DevPathToTextSata
	.byte	3
	.byte	6
	.zero	6
	.dword	DevPathToTextI2O
	.byte	3
	.byte	11
	.zero	6
	.dword	DevPathToTextMacAddr
	.byte	3
	.byte	12
	.zero	6
	.dword	DevPathToTextIPv4
	.byte	3
	.byte	13
	.zero	6
	.dword	DevPathToTextIPv6
	.byte	3
	.byte	9
	.zero	6
	.dword	DevPathToTextInfiniBand
	.byte	3
	.byte	14
	.zero	6
	.dword	DevPathToTextUart
	.byte	3
	.byte	10
	.zero	6
	.dword	DevPathToTextVendor
	.byte	3
	.byte	19
	.zero	6
	.dword	DevPathToTextiSCSI
	.byte	3
	.byte	20
	.zero	6
	.dword	DevPathToTextVlan
	.byte	3
	.byte	31
	.zero	6
	.dword	DevPathToTextDns
	.byte	3
	.byte	24
	.zero	6
	.dword	DevPathToTextUri
	.byte	3
	.byte	27
	.zero	6
	.dword	DevPathToTextBluetooth
	.byte	3
	.byte	28
	.zero	6
	.dword	DevPathToTextWiFi
	.byte	3
	.byte	30
	.zero	6
	.dword	DevPathToTextBluetoothLE
	.byte	4
	.byte	1
	.zero	6
	.dword	DevPathToTextHardDrive
	.byte	4
	.byte	2
	.zero	6
	.dword	DevPathToTextCDROM
	.byte	4
	.byte	3
	.zero	6
	.dword	DevPathToTextVendor
	.byte	4
	.byte	5
	.zero	6
	.dword	DevPathToTextMediaProtocol
	.byte	4
	.byte	4
	.zero	6
	.dword	DevPathToTextFilePath
	.byte	4
	.byte	7
	.zero	6
	.dword	DevPathToTextFv
	.byte	4
	.byte	6
	.zero	6
	.dword	DevPathToTextFvFile
	.byte	4
	.byte	8
	.zero	6
	.dword	DevPathRelativeOffsetRange
	.byte	4
	.byte	9
	.zero	6
	.dword	DevPathToTextRamDisk
	.byte	5
	.byte	1
	.zero	6
	.dword	DevPathToTextBBS
	.byte	127
	.byte	1
	.zero	6
	.dword	DevPathToTextEndInstance
	.byte	0
	.byte	0
	.zero	6
	.dword	0
	.section	.text.UefiDevicePathLibConvertDeviceNodeToText,"ax",@progbits
	.align	1
	.globl	UefiDevicePathLibConvertDeviceNodeToText
	.type	UefiDevicePathLibConvertDeviceNodeToText, @function
UefiDevicePathLibConvertDeviceNodeToText:
.LFB52:
	.loc 1 2392 1
	.cfi_startproc
	addi	sp,sp,-80
	.cfi_def_cfa_offset 80
	sd	ra,72(sp)
	sd	s0,64(sp)
	.cfi_offset 1, -8
	.cfi_offset 8, -16
	addi	s0,sp,80
	.cfi_def_cfa 8, 0
	sd	a0,-72(s0)
	mv	a5,a1
	mv	a4,a2
	sb	a5,-73(s0)
	mv	a5,a4
	sb	a5,-74(s0)
	.loc 1 2397 6
	ld	a5,-72(s0)
	bne	a5,zero,.L268
	.loc 1 2398 12
	li	a5,0
	j	.L274
.L268:
	.loc 1 2401 3
	addi	a5,s0,-56
	li	a1,24
	mv	a0,a5
	call	ZeroMem@plt
	.loc 1 2407 10
	lla	a5,DevPathToTextNodeGeneric
	sd	a5,-32(s0)
	.loc 1 2408 14
	sd	zero,-24(s0)
	.loc 1 2408 3
	j	.L270
.L273:
	.loc 1 2409 10
	ld	a0,-72(s0)
	call	DevicePathType@plt
	mv	a5,a0
	mv	a3,a5
	.loc 1 2409 77 discriminator 1
	lla	a4,mUefiDevicePathLibToTextTable
	ld	a5,-24(s0)
	slli	a5,a5,4
	add	a5,a4,a5
	lbu	a5,0(a5)
	.loc 1 2409 8 discriminator 1
	mv	a4,a3
	bne	a4,a5,.L271
	.loc 1 2410 10
	ld	a0,-72(s0)
	call	DevicePathSubType@plt
	mv	a5,a0
	mv	a3,a5
	.loc 1 2410 80 discriminator 1
	lla	a4,mUefiDevicePathLibToTextTable
	ld	a5,-24(s0)
	slli	a5,a5,4
	add	a5,a4,a5
	lbu	a5,1(a5)
	.loc 1 2409 84 discriminator 2
	mv	a4,a3
	bne	a4,a5,.L271
	.loc 1 2413 14
	lla	a4,mUefiDevicePathLibToTextTable
	ld	a5,-24(s0)
	slli	a5,a5,4
	add	a5,a4,a5
	ld	a5,8(a5)
	sd	a5,-32(s0)
	.loc 1 2414 7
	j	.L272
.L271:
	.loc 1 2408 87 discriminator 2
	ld	a5,-24(s0)
	addi	a5,a5,1
	sd	a5,-24(s0)
.L270:
	.loc 1 2408 55 discriminator 1
	lla	a4,mUefiDevicePathLibToTextTable
	ld	a5,-24(s0)
	slli	a5,a5,4
	add	a5,a4,a5
	ld	a5,8(a5)
	.loc 1 2408 65 discriminator 1
	bne	a5,zero,.L273
.L272:
	.loc 1 2421 3
	lbu	a3,-74(s0)
	lbu	a2,-73(s0)
	addi	a4,s0,-56
	ld	a5,-32(s0)
	ld	a1,-72(s0)
	mv	a0,a4
	jalr	a5
.LVL0:
	.loc 1 2424 13
	ld	a5,-56(s0)
.L274:
	.loc 1 2425 1
	mv	a0,a5
	ld	ra,72(sp)
	.cfi_restore 1
	ld	s0,64(sp)
	.cfi_restore 8
	.cfi_def_cfa 2, 80
	addi	sp,sp,80
	.cfi_def_cfa_offset 0
	jr	ra
	.cfi_endproc
.LFE52:
	.size	UefiDevicePathLibConvertDeviceNodeToText, .-UefiDevicePathLibConvertDeviceNodeToText
	.section	.rodata
	.align	3
.LC168:
	.string	"/"
	.zero	2
	.section	.text.UefiDevicePathLibConvertDevicePathToText,"ax",@progbits
	.align	1
	.globl	UefiDevicePathLibConvertDevicePathToText
	.type	UefiDevicePathLibConvertDevicePathToText, @function
UefiDevicePathLibConvertDevicePathToText:
.LFB53:
	.loc 1 2449 1
	.cfi_startproc
	addi	sp,sp,-96
	.cfi_def_cfa_offset 96
	sd	ra,88(sp)
	sd	s0,80(sp)
	.cfi_offset 1, -8
	.cfi_offset 8, -16
	addi	s0,sp,96
	.cfi_def_cfa 8, 0
	sd	a0,-88(s0)
	mv	a5,a1
	mv	a4,a2
	sb	a5,-89(s0)
	mv	a5,a4
	sb	a5,-90(s0)
	.loc 1 2456 6
	ld	a5,-88(s0)
	bne	a5,zero,.L276
	.loc 1 2457 12
	li	a5,0
	j	.L286
.L276:
	.loc 1 2460 3
	addi	a5,s0,-72
	li	a1,24
	mv	a0,a5
	call	ZeroMem@plt
	.loc 1 2465 8
	ld	a5,-88(s0)
	sd	a5,-24(s0)
	.loc 1 2466 9
	j	.L278
.L284:
	.loc 1 2471 12
	lla	a5,DevPathToTextNodeGeneric
	sd	a5,-40(s0)
	.loc 1 2472 16
	sd	zero,-32(s0)
	.loc 1 2472 5
	j	.L279
.L282:
	.loc 1 2473 12
	ld	a0,-24(s0)
	call	DevicePathType@plt
	mv	a5,a0
	mv	a3,a5
	.loc 1 2473 73 discriminator 1
	lla	a4,mUefiDevicePathLibToTextTable
	ld	a5,-32(s0)
	slli	a5,a5,4
	add	a5,a4,a5
	lbu	a5,0(a5)
	.loc 1 2473 10 discriminator 1
	mv	a4,a3
	bne	a4,a5,.L280
	.loc 1 2474 12
	ld	a0,-24(s0)
	call	DevicePathSubType@plt
	mv	a5,a0
	mv	a3,a5
	.loc 1 2474 76 discriminator 1
	lla	a4,mUefiDevicePathLibToTextTable
	ld	a5,-32(s0)
	slli	a5,a5,4
	add	a5,a4,a5
	lbu	a5,1(a5)
	.loc 1 2473 80 discriminator 2
	mv	a4,a3
	bne	a4,a5,.L280
	.loc 1 2477 16
	lla	a4,mUefiDevicePathLibToTextTable
	ld	a5,-32(s0)
	slli	a5,a5,4
	add	a5,a4,a5
	ld	a5,8(a5)
	sd	a5,-40(s0)
	.loc 1 2478 9
	j	.L281
.L280:
	.loc 1 2472 90 discriminator 2
	ld	a5,-32(s0)
	addi	a5,a5,1
	sd	a5,-32(s0)
.L279:
	.loc 1 2472 57 discriminator 1
	lla	a4,mUefiDevicePathLibToTextTable
	ld	a5,-32(s0)
	slli	a5,a5,4
	add	a5,a4,a5
	ld	a5,8(a5)
	.loc 1 2472 67 discriminator 1
	bne	a5,zero,.L282
.L281:
	.loc 1 2485 13
	ld	a5,-64(s0)
	.loc 1 2485 8
	beq	a5,zero,.L283
	.loc 1 2485 26 discriminator 1
	ld	a4,-40(s0)
	lla	a5,DevPathToTextEndInstance
	beq	a4,a5,.L283
	.loc 1 2486 14
	ld	a4,-72(s0)
	.loc 1 2486 22
	ld	a5,-64(s0)
	.loc 1 2486 18
	slli	a5,a5,1
	add	a5,a4,a5
	lhu	a5,0(a5)
	.loc 1 2486 10
	sext.w	a4,a5
	li	a5,44
	beq	a4,a5,.L283
	.loc 1 2487 9
	addi	a5,s0,-72
	lla	a1,.LC168
	mv	a0,a5
	call	UefiDevicePathLibCatPrint
.L283:
	.loc 1 2491 19
	ld	a0,-24(s0)
	call	DevicePathNodeLength@plt
	mv	a5,a0
	.loc 1 2491 19 is_stmt 0 discriminator 1
	ld	a1,-24(s0)
	mv	a0,a5
	call	AllocateCopyPool@plt
	sd	a0,-48(s0)
	.loc 1 2495 5 is_stmt 1
	lbu	a3,-90(s0)
	lbu	a2,-89(s0)
	addi	a4,s0,-72
	ld	a5,-40(s0)
	ld	a1,-48(s0)
	mv	a0,a4
	jalr	a5
.LVL1:
	.loc 1 2496 5
	ld	a0,-48(s0)
	call	FreePool@plt
	.loc 1 2501 12
	ld	a0,-24(s0)
	call	NextDevicePathNode@plt
	sd	a0,-24(s0)
.L278:
	.loc 1 2466 11
	ld	a0,-24(s0)
	call	IsDevicePathEnd@plt
	mv	a5,a0
	.loc 1 2466 10 discriminator 1
	beq	a5,zero,.L284
	.loc 1 2504 10
	ld	a5,-72(s0)
	.loc 1 2504 6
	bne	a5,zero,.L285
	.loc 1 2505 12
	li	a0,2
	call	AllocateZeroPool@plt
	mv	a5,a0
	j	.L286
.L285:
	.loc 1 2507 15
	ld	a5,-72(s0)
.L286:
	.loc 1 2509 1
	mv	a0,a5
	ld	ra,88(sp)
	.cfi_restore 1
	ld	s0,80(sp)
	.cfi_restore 8
	.cfi_def_cfa 2, 96
	addi	sp,sp,96
	.cfi_def_cfa_offset 0
	jr	ra
	.cfi_endproc
.LFE53:
	.size	UefiDevicePathLibConvertDevicePathToText, .-UefiDevicePathLibConvertDevicePathToText
	.text
.Letext0:
	.file 2 "/home/kapoagaeming/spacemit-image-builder/components/edk2/MdePkg/Include/RiscV64/ProcessorBind.h"
	.file 3 "/home/kapoagaeming/spacemit-image-builder/components/edk2/MdePkg/Include/Base.h"
	.file 4 "/home/kapoagaeming/spacemit-image-builder/components/edk2/MdePkg/Include/Uefi/UefiBaseType.h"
	.file 5 "/home/kapoagaeming/spacemit-image-builder/components/edk2/MdePkg/Include/Guid/PcAnsi.h"
	.file 6 "/home/kapoagaeming/spacemit-image-builder/components/edk2/MdePkg/Include/IndustryStandard/Bluetooth.h"
	.file 7 "/home/kapoagaeming/spacemit-image-builder/components/edk2/MdePkg/Include/Protocol/DevicePath.h"
	.file 8 "/home/kapoagaeming/spacemit-image-builder/components/Build/Milk-V-Jupiter/RELEASE_GCC5/RISCV64/MdePkg/Library/UefiDevicePathLib/UefiDevicePathLib/DEBUG/AutoGen.h"
	.file 9 "/home/kapoagaeming/spacemit-image-builder/components/edk2/MdePkg/Library/UefiDevicePathLib/UefiDevicePathLib.h"
	.file 10 "/home/kapoagaeming/spacemit-image-builder/components/edk2/MdePkg/Include/Library/MemoryAllocationLib.h"
	.file 11 "/home/kapoagaeming/spacemit-image-builder/components/edk2/MdePkg/Include/Library/DevicePathLib.h"
	.file 12 "/home/kapoagaeming/spacemit-image-builder/components/edk2/MdePkg/Include/Library/BaseMemoryLib.h"
	.file 13 "/home/kapoagaeming/spacemit-image-builder/components/edk2/MdePkg/Include/Library/BaseLib.h"
	.file 14 "/home/kapoagaeming/spacemit-image-builder/components/edk2/MdePkg/Include/Library/PrintLib.h"
	.section	.note.GNU-stack,"",@progbits
