	.file	"UsbMassBoot.c"
	.option pic
	.option norelax
	.attribute arch, "rv64i2p1_m2p0_a2p1_f2p2_d2p2_c2p0_zicsr2p0_zifencei2p0_zmmul1p0_zaamo1p0_zalrsc1p0_zca1p0_zcd1p0"
	.attribute unaligned_access, 0
	.attribute stack_align, 16
	.text
.Ltext0:
	.cfi_sections	.debug_frame
	.file 0 "/home/kapoagaeming/Downloads/spacemit-image-builder/components/Build/Milk-V-Jupiter/RELEASE_GCC5/RISCV64/MdeModulePkg/Bus/Usb/UsbMassStorageDxe/UsbMassStorageDxe" "/home/kapoagaeming/Downloads/spacemit-image-builder/components/edk2/MdeModulePkg/Bus/Usb/UsbMassStorageDxe/UsbMassBoot.c"
	.section	.text.UsbBootRequestSense,"ax",@progbits
	.align	1
	.globl	UsbBootRequestSense
	.type	UsbBootRequestSense, @function
UsbBootRequestSense:
.LFB0:
	.file 1 "/home/kapoagaeming/Downloads/spacemit-image-builder/components/edk2/MdeModulePkg/Bus/Usb/UsbMassStorageDxe/UsbMassBoot.c"
	.loc 1 29 1
	.cfi_startproc
	addi	sp,sp,-128
	.cfi_def_cfa_offset 128
	sd	ra,120(sp)
	sd	s0,112(sp)
	.cfi_offset 1, -8
	.cfi_offset 8, -16
	addi	s0,sp,128
	.cfi_def_cfa 8, 0
	sd	a0,-104(s0)
	.loc 1 37 13
	ld	a5,-104(s0)
	ld	a5,136(a5)
	sd	a5,-32(s0)
	.loc 1 42 3
	addi	a5,s0,-56
	li	a1,12
	mv	a0,a5
	call	ZeroMem@plt
	.loc 1 43 3
	addi	a5,s0,-80
	li	a1,18
	mv	a0,a5
	call	ZeroMem@plt
	.loc 1 45 19
	li	a5,3
	sb	a5,-56(s0)
	.loc 1 46 35
	ld	a5,-104(s0)
	lbu	a5,129(a5)
	.loc 1 46 18
	slliw	a5,a5,5
	andi	a5,a5,0xff
	.loc 1 46 16
	sb	a5,-55(s0)
	.loc 1 47 21
	li	a5,18
	sb	a5,-52(s0)
	.loc 1 49 21
	ld	a5,-32(s0)
	ld	t1,16(a5)
	.loc 1 49 12
	ld	a5,-104(s0)
	ld	a0,144(a5)
	ld	a5,-104(s0)
	lbu	a3,129(a5)
	addi	a4,s0,-80
	addi	a1,s0,-56
	addi	a5,s0,-84
	sd	a5,0(sp)
	li	a5,5001216
	addi	a7,a5,-1216
	mv	a6,a3
	li	a5,18
	li	a3,0
	li	a2,12
	jalr	t1
.LVL0:
	sd	a0,-24(s0)
	.loc 1 60 34
	ld	a5,-24(s0)
	.loc 1 60 6
	blt	a5,zero,.L2
	.loc 1 60 74 discriminator 1
	lw	a5,-84(s0)
	.loc 1 60 60 discriminator 1
	beq	a5,zero,.L3
.L2:
	.loc 1 62 9
	ld	a5,-24(s0)
	.loc 1 62 8
	blt	a5,zero,.L4
	.loc 1 63 14
	li	a5,-1
	slli	a5,a5,63
	addi	a5,a5,7
	sd	a5,-24(s0)
.L4:
	.loc 1 66 12
	ld	a5,-24(s0)
	j	.L21
.L3:
	.loc 1 73 9
	ld	a5,-104(s0)
	addi	a5,a5,80
	sd	a5,-40(s0)
	.loc 1 75 22
	lbu	a5,-78(s0)
	.loc 1 75 33
	sext.w	a5,a5
	andi	a5,a5,15
	sext.w	a5,a5
	.loc 1 75 3
	li	a4,7
	beq	a5,a4,.L6
	li	a4,7
	bgt	a5,a4,.L7
	li	a4,6
	beq	a5,a4,.L8
	li	a4,6
	bgt	a5,a4,.L7
	li	a4,5
	beq	a5,a4,.L9
	li	a4,5
	bgt	a5,a4,.L7
	li	a4,2
	beq	a5,a4,.L10
	li	a4,2
	bgt	a5,a4,.L7
	beq	a5,zero,.L11
	li	a4,1
	beq	a5,a4,.L12
	j	.L7
.L11:
	.loc 1 77 20
	lbu	a5,-68(s0)
	.loc 1 77 10
	bne	a5,zero,.L13
	.loc 1 81 16
	sd	zero,-24(s0)
	.loc 1 86 7
	j	.L22
.L13:
	.loc 1 83 16
	li	a5,-1
	slli	a5,a5,63
	addi	a5,a5,16
	sd	a5,-24(s0)
	.loc 1 86 7
	j	.L22
.L12:
	.loc 1 92 14
	li	a5,-1
	slli	a5,a5,63
	addi	a5,a5,6
	sd	a5,-24(s0)
	.loc 1 93 7
	j	.L22
.L10:
	.loc 1 96 14
	li	a5,-1
	slli	a5,a5,63
	addi	a5,a5,7
	sd	a5,-24(s0)
	.loc 1 97 20
	lbu	a5,-68(s0)
	.loc 1 97 10
	mv	a4,a5
	li	a5,58
	bne	a4,a5,.L16
	.loc 1 98 29
	ld	a5,-40(s0)
	sb	zero,5(a5)
	.loc 1 99 16
	li	a5,-1
	slli	a5,a5,63
	addi	a5,a5,12
	sd	a5,-24(s0)
	.loc 1 104 7
	j	.L23
.L16:
	.loc 1 100 27
	lbu	a5,-68(s0)
	.loc 1 100 17
	mv	a4,a5
	li	a5,4
	bne	a4,a5,.L23
	.loc 1 101 16
	li	a5,-1
	slli	a5,a5,63
	addi	a5,a5,6
	sd	a5,-24(s0)
	.loc 1 104 7
	j	.L23
.L9:
	.loc 1 107 14
	li	a5,-1
	slli	a5,a5,63
	addi	a5,a5,2
	sd	a5,-24(s0)
	.loc 1 108 7
	j	.L22
.L8:
	.loc 1 111 14
	li	a5,-1
	slli	a5,a5,63
	addi	a5,a5,7
	sd	a5,-24(s0)
	.loc 1 112 20
	lbu	a5,-68(s0)
	.loc 1 112 10
	mv	a4,a5
	li	a5,40
	bne	a4,a5,.L18
	.loc 1 116 16
	li	a5,-1
	slli	a5,a5,63
	addi	a5,a5,13
	sd	a5,-24(s0)
	.loc 1 117 25
	ld	a5,-40(s0)
	sb	zero,7(a5)
	.loc 1 118 14
	ld	a5,-40(s0)
	lw	a5,0(a5)
	.loc 1 118 23
	addiw	a5,a5,1
	sext.w	a4,a5
	ld	a5,-40(s0)
	sw	a4,0(a5)
	.loc 1 125 7
	j	.L24
.L18:
	.loc 1 119 27
	lbu	a5,-68(s0)
	.loc 1 119 17
	mv	a4,a5
	li	a5,4
	bne	a4,a5,.L20
	.loc 1 120 16
	li	a5,-1
	slli	a5,a5,63
	addi	a5,a5,6
	sd	a5,-24(s0)
	.loc 1 125 7
	j	.L24
.L20:
	.loc 1 121 27
	lbu	a5,-68(s0)
	.loc 1 121 17
	mv	a4,a5
	li	a5,58
	bne	a4,a5,.L24
	.loc 1 122 16
	li	a5,-1
	slli	a5,a5,63
	addi	a5,a5,6
	sd	a5,-24(s0)
	.loc 1 125 7
	j	.L24
.L6:
	.loc 1 128 14
	li	a5,-1
	slli	a5,a5,63
	addi	a5,a5,8
	sd	a5,-24(s0)
	.loc 1 129 23
	ld	a5,-40(s0)
	li	a4,1
	sb	a4,7(a5)
	.loc 1 130 7
	j	.L22
.L7:
	.loc 1 133 14
	li	a5,-1
	slli	a5,a5,63
	addi	a5,a5,7
	sd	a5,-24(s0)
	.loc 1 134 7
	j	.L22
.L23:
	.loc 1 104 7
	nop
	j	.L22
.L24:
	.loc 1 125 7
	nop
.L22:
	.loc 1 147 10
	ld	a5,-24(s0)
.L21:
	.loc 1 148 1
	mv	a0,a5
	ld	ra,120(sp)
	.cfi_restore 1
	ld	s0,112(sp)
	.cfi_restore 8
	.cfi_def_cfa 2, 128
	addi	sp,sp,128
	.cfi_def_cfa_offset 0
	jr	ra
	.cfi_endproc
.LFE0:
	.size	UsbBootRequestSense, .-UsbBootRequestSense
	.section	.text.UsbBootExecCmd,"ax",@progbits
	.align	1
	.globl	UsbBootExecCmd
	.type	UsbBootExecCmd, @function
UsbBootExecCmd:
.LFB1:
	.loc 1 179 1
	.cfi_startproc
	addi	sp,sp,-112
	.cfi_def_cfa_offset 112
	sd	ra,104(sp)
	sd	s0,96(sp)
	.cfi_offset 1, -8
	.cfi_offset 8, -16
	addi	s0,sp,112
	.cfi_def_cfa 8, 0
	sd	a0,-56(s0)
	sd	a1,-64(s0)
	mv	a1,a2
	mv	a2,a3
	sd	a4,-80(s0)
	mv	a3,a5
	mv	a4,a6
	mv	a5,a1
	sb	a5,-65(s0)
	mv	a5,a2
	sw	a5,-72(s0)
	mv	a5,a3
	sw	a5,-84(s0)
	mv	a5,a4
	sw	a5,-88(s0)
	.loc 1 184 13
	ld	a5,-56(s0)
	ld	a5,136(a5)
	sd	a5,-24(s0)
	.loc 1 185 21
	ld	a5,-24(s0)
	ld	t1,16(a5)
	.loc 1 185 12
	ld	a5,-56(s0)
	ld	a0,144(a5)
	ld	a5,-56(s0)
	lbu	a1,129(a5)
	lw	a6,-88(s0)
	lw	a4,-84(s0)
	lw	a3,-72(s0)
	lbu	a2,-65(s0)
	addi	a5,s0,-36
	sd	a5,0(sp)
	mv	a7,a6
	mv	a6,a1
	mv	a5,a4
	ld	a4,-80(s0)
	ld	a1,-64(s0)
	jalr	t1
.LVL1:
	sd	a0,-32(s0)
	.loc 1 197 6
	ld	a4,-32(s0)
	li	a5,-1
	slli	a5,a5,63
	addi	a5,a5,18
	bne	a4,a5,.L26
	.loc 1 199 12
	li	a5,-1
	slli	a5,a5,63
	addi	a5,a5,18
	j	.L29
.L26:
	.loc 1 206 18
	lw	a5,-36(s0)
	.loc 1 206 6
	bne	a5,zero,.L28
	.loc 1 206 27 discriminator 1
	ld	a5,-32(s0)
	.loc 1 206 24 discriminator 1
	blt	a5,zero,.L28
	.loc 1 207 12
	li	a5,0
	j	.L29
.L28:
	.loc 1 214 10
	ld	a0,-56(s0)
	call	UsbBootRequestSense
	mv	a5,a0
.L29:
	.loc 1 215 1
	mv	a0,a5
	ld	ra,104(sp)
	.cfi_restore 1
	ld	s0,96(sp)
	.cfi_restore 8
	.cfi_def_cfa 2, 112
	addi	sp,sp,112
	.cfi_def_cfa_offset 0
	jr	ra
	.cfi_endproc
.LFE1:
	.size	UsbBootExecCmd, .-UsbBootExecCmd
	.section	.text.UsbBootExecCmdWithRetry,"ax",@progbits
	.align	1
	.globl	UsbBootExecCmdWithRetry
	.type	UsbBootExecCmdWithRetry, @function
UsbBootExecCmdWithRetry:
.LFB2:
	.loc 1 248 1
	.cfi_startproc
	addi	sp,sp,-112
	.cfi_def_cfa_offset 112
	sd	ra,104(sp)
	sd	s0,96(sp)
	sd	s1,88(sp)
	sd	s2,80(sp)
	.cfi_offset 1, -8
	.cfi_offset 8, -16
	.cfi_offset 9, -24
	.cfi_offset 18, -32
	addi	s0,sp,112
	.cfi_def_cfa 8, 0
	sd	a0,-72(s0)
	sd	a1,-80(s0)
	mv	a1,a2
	mv	a2,a3
	sd	a4,-96(s0)
	mv	a3,a5
	mv	a4,a6
	mv	a5,a1
	sb	a5,-81(s0)
	mv	a5,a2
	sw	a5,-88(s0)
	mv	a5,a3
	sw	a5,-100(s0)
	mv	a5,a4
	sw	a5,-104(s0)
	.loc 1 253 9
	sd	zero,-48(s0)
	.loc 1 254 10
	sd	zero,-40(s0)
	.loc 1 255 15
	la	a5,gBS
	ld	a5,0(a5)
	ld	a5,80(a5)
	.loc 1 255 12
	addi	a4,s0,-56
	li	a3,0
	li	a2,0
	li	a1,8
	li	a0,-2147483648
	jalr	a5
.LVL2:
	sd	a0,-40(s0)
	.loc 1 262 34
	ld	a5,-40(s0)
	.loc 1 262 6
	bge	a5,zero,.L31
	.loc 1 263 12
	ld	a5,-40(s0)
	j	.L40
.L31:
	.loc 1 266 15
	la	a5,gBS
	ld	a5,0(a5)
	ld	s1,88(a5)
	.loc 1 266 12
	ld	s2,-56(s0)
	li	a5,9998336
	addi	a1,a5,1664
	li	a0,60
	call	MultU64x32@plt
	mv	a5,a0
	.loc 1 266 12 is_stmt 0 discriminator 1
	mv	a2,a5
	li	a1,2
	mv	a0,s2
	jalr	s1
.LVL3:
	sd	a0,-40(s0)
	.loc 1 267 34 is_stmt 1
	ld	a5,-40(s0)
	.loc 1 267 6
	blt	a5,zero,.L41
	.loc 1 274 9
	j	.L35
.L38:
	.loc 1 275 14
	lw	a4,-104(s0)
	lw	a5,-100(s0)
	lw	a3,-88(s0)
	lbu	a2,-81(s0)
	mv	a6,a4
	ld	a4,-96(s0)
	ld	a1,-80(s0)
	ld	a0,-72(s0)
	call	UsbBootExecCmd
	sd	a0,-40(s0)
	.loc 1 284 8
	ld	a5,-40(s0)
	beq	a5,zero,.L42
	.loc 1 284 40 discriminator 1
	ld	a4,-40(s0)
	li	a5,-1
	slli	a5,a5,63
	addi	a5,a5,12
	beq	a4,a5,.L42
	.loc 1 292 8
	ld	a4,-40(s0)
	li	a5,-1
	slli	a5,a5,63
	addi	a5,a5,6
	beq	a4,a5,.L43
	.loc 1 299 14
	ld	a5,-48(s0)
	addi	a4,a5,1
	sd	a4,-48(s0)
	.loc 1 299 8
	li	a4,4
	bgtu	a5,a4,.L44
	j	.L35
.L43:
	.loc 1 293 7
	nop
.L35:
	.loc 1 274 31
	la	a5,gBS
	ld	a5,0(a5)
	ld	a5,120(a5)
	.loc 1 274 28
	ld	a4,-56(s0)
	mv	a0,a4
	jalr	a5
.LVL4:
	mv	a5,a0
	.loc 1 274 59 discriminator 1
	blt	a5,zero,.L38
	.loc 1 304 1
	j	.L42
.L41:
	.loc 1 268 5
	nop
	j	.L34
.L42:
	.loc 1 304 1
	nop
	j	.L34
.L44:
	.loc 1 300 7
	nop
.L34:
	.loc 1 305 18
	ld	a5,-56(s0)
	.loc 1 305 6
	beq	a5,zero,.L39
	.loc 1 306 8
	la	a5,gBS
	ld	a5,0(a5)
	ld	a5,112(a5)
	.loc 1 306 5
	ld	a4,-56(s0)
	mv	a0,a4
	jalr	a5
.LVL5:
.L39:
	.loc 1 309 10
	ld	a5,-40(s0)
.L40:
	.loc 1 310 1
	mv	a0,a5
	ld	ra,104(sp)
	.cfi_restore 1
	ld	s0,96(sp)
	.cfi_restore 8
	.cfi_def_cfa 2, 112
	ld	s1,88(sp)
	.cfi_restore 9
	ld	s2,80(sp)
	.cfi_restore 18
	addi	sp,sp,112
	.cfi_def_cfa_offset 0
	jr	ra
	.cfi_endproc
.LFE2:
	.size	UsbBootExecCmdWithRetry, .-UsbBootExecCmdWithRetry
	.section	.text.UsbBootIsUnitReady,"ax",@progbits
	.align	1
	.globl	UsbBootIsUnitReady
	.type	UsbBootIsUnitReady, @function
UsbBootIsUnitReady:
.LFB3:
	.loc 1 325 1
	.cfi_startproc
	addi	sp,sp,-48
	.cfi_def_cfa_offset 48
	sd	ra,40(sp)
	sd	s0,32(sp)
	.cfi_offset 1, -8
	.cfi_offset 8, -16
	addi	s0,sp,48
	.cfi_def_cfa 8, 0
	sd	a0,-40(s0)
	.loc 1 328 3
	addi	a5,s0,-32
	li	a1,12
	mv	a0,a5
	call	ZeroMem@plt
	.loc 1 330 18
	sb	zero,-32(s0)
	.loc 1 331 34
	ld	a5,-40(s0)
	lbu	a5,129(a5)
	.loc 1 331 17
	slliw	a5,a5,5
	andi	a5,a5,0xff
	.loc 1 331 15
	sb	a5,-31(s0)
	.loc 1 333 10
	addi	a1,s0,-32
	li	a5,5001216
	addi	a6,a5,-1216
	li	a5,0
	li	a4,0
	li	a3,2
	li	a2,12
	ld	a0,-40(s0)
	call	UsbBootExecCmdWithRetry
	mv	a5,a0
	.loc 1 342 1
	mv	a0,a5
	ld	ra,40(sp)
	.cfi_restore 1
	ld	s0,32(sp)
	.cfi_restore 8
	.cfi_def_cfa 2, 48
	addi	sp,sp,48
	.cfi_def_cfa_offset 0
	jr	ra
	.cfi_endproc
.LFE3:
	.size	UsbBootIsUnitReady, .-UsbBootIsUnitReady
	.section	.text.UsbBootInquiry,"ax",@progbits
	.align	1
	.globl	UsbBootInquiry
	.type	UsbBootInquiry, @function
UsbBootInquiry:
.LFB4:
	.loc 1 358 1
	.cfi_startproc
	addi	sp,sp,-64
	.cfi_def_cfa_offset 64
	sd	ra,56(sp)
	sd	s0,48(sp)
	.cfi_offset 1, -8
	.cfi_offset 8, -16
	addi	s0,sp,64
	.cfi_def_cfa 8, 0
	sd	a0,-56(s0)
	.loc 1 363 9
	ld	a5,-56(s0)
	addi	a5,a5,80
	sd	a5,-24(s0)
	.loc 1 365 3
	addi	a5,s0,-48
	li	a1,12
	mv	a0,a5
	call	ZeroMem@plt
	.loc 1 366 12
	ld	a5,-56(s0)
	addi	a5,a5,200
	.loc 1 366 3
	li	a1,36
	mv	a0,a5
	call	ZeroMem@plt
	.loc 1 368 21
	li	a5,18
	sb	a5,-48(s0)
	.loc 1 369 37
	ld	a5,-56(s0)
	lbu	a5,129(a5)
	.loc 1 369 20
	slliw	a5,a5,5
	andi	a5,a5,0xff
	.loc 1 369 18
	sb	a5,-47(s0)
	.loc 1 370 23
	li	a5,36
	sb	a5,-44(s0)
	.loc 1 377 14
	ld	a5,-56(s0)
	addi	a4,a5,200
	.loc 1 372 12
	addi	a1,s0,-48
	li	a5,5001216
	addi	a6,a5,-1216
	li	a5,36
	li	a3,0
	li	a2,12
	ld	a0,-56(s0)
	call	UsbBootExecCmdWithRetry
	sd	a0,-32(s0)
	.loc 1 381 34
	ld	a5,-32(s0)
	.loc 1 381 6
	bge	a5,zero,.L48
	.loc 1 382 12
	ld	a5,-32(s0)
	j	.L50
.L48:
	.loc 1 389 48
	ld	a5,-56(s0)
	lbu	a5,200(a5)
	.loc 1 389 18
	andi	a5,a5,31
	andi	a4,a5,0xff
	.loc 1 389 16
	ld	a5,-56(s0)
	sb	a4,130(a5)
	.loc 1 390 60
	ld	a5,-56(s0)
	lbu	a5,201(a5)
	.loc 1 390 27
	slliw	a5,a5,24
	sraiw	a5,a5,24
	andi	a5,a5,0xff
	srliw	a5,a5,7
	andi	a5,a5,0xff
	mv	a4,a5
	.loc 1 390 25
	ld	a5,-24(s0)
	sb	a4,4(a5)
	.loc 1 394 20
	ld	a5,-24(s0)
	li	a4,512
	sw	a4,12(a5)
	.loc 1 396 10
	ld	a5,-32(s0)
.L50:
	.loc 1 397 1
	mv	a0,a5
	ld	ra,56(sp)
	.cfi_restore 1
	ld	s0,48(sp)
	.cfi_restore 8
	.cfi_def_cfa 2, 64
	addi	sp,sp,64
	.cfi_def_cfa_offset 0
	jr	ra
	.cfi_endproc
.LFE4:
	.size	UsbBootInquiry, .-UsbBootInquiry
	.section	.text.UsbBootReadCapacity16,"ax",@progbits
	.align	1
	.globl	UsbBootReadCapacity16
	.type	UsbBootReadCapacity16, @function
UsbBootReadCapacity16:
.LFB5:
	.loc 1 418 1
	.cfi_startproc
	addi	sp,sp,-112
	.cfi_def_cfa_offset 112
	sd	ra,104(sp)
	sd	s0,96(sp)
	.cfi_offset 1, -8
	.cfi_offset 8, -16
	addi	s0,sp,112
	.cfi_def_cfa 8, 0
	sd	a0,-104(s0)
	.loc 1 425 9
	ld	a5,-104(s0)
	addi	a5,a5,80
	sd	a5,-24(s0)
	.loc 1 427 23
	ld	a5,-24(s0)
	sb	zero,5(a5)
	.loc 1 428 20
	ld	a5,-24(s0)
	sd	zero,24(a5)
	.loc 1 429 20
	ld	a5,-24(s0)
	sw	zero,12(a5)
	.loc 1 431 3
	addi	a5,s0,-56
	li	a1,16
	mv	a0,a5
	call	ZeroMem@plt
	.loc 1 432 3
	addi	a5,s0,-88
	li	a1,32
	mv	a0,a5
	call	ZeroMem@plt
	.loc 1 434 18
	li	a5,-98
	sb	a5,-56(s0)
	.loc 1 435 18
	li	a5,16
	sb	a5,-55(s0)
	.loc 1 439 3
	addi	a5,s0,-56
	addi	a5,a5,2
	li	a1,8
	mv	a0,a5
	call	ZeroMem@plt
	.loc 1 441 19
	li	a5,32
	sb	a5,-43(s0)
	.loc 1 443 12
	addi	a4,s0,-88
	addi	a1,s0,-56
	li	a5,5001216
	addi	a6,a5,-1216
	li	a5,32
	li	a3,0
	li	a2,16
	ld	a0,-104(s0)
	call	UsbBootExecCmdWithRetry
	sd	a0,-32(s0)
	.loc 1 452 34
	ld	a5,-32(s0)
	.loc 1 452 6
	bge	a5,zero,.L52
	.loc 1 453 12
	ld	a5,-32(s0)
	j	.L55
.L52:
	.loc 1 460 23
	ld	a5,-24(s0)
	li	a4,1
	sb	a4,5(a5)
	.loc 1 461 22
	addi	a5,s0,-88
	mv	a0,a5
	call	ReadUnaligned64@plt
	mv	a5,a0
	.loc 1 461 22 is_stmt 0 discriminator 1
	mv	a0,a5
	call	SwapBytes64@plt
	mv	a4,a0
	.loc 1 461 20 is_stmt 1 discriminator 2
	ld	a5,-24(s0)
	sd	a4,24(a5)
	.loc 1 463 15
	addi	a5,s0,-88
	addi	a5,a5,8
	mv	a0,a5
	call	ReadUnaligned32@plt
	mv	a5,a0
	.loc 1 463 15 is_stmt 0 discriminator 1
	mv	a0,a5
	call	SwapBytes32@plt
	mv	a5,a0
	sw	a5,-36(s0)
	.loc 1 465 42 is_stmt 1
	lbu	a5,-74(s0)
	sext.w	a5,a5
	.loc 1 465 61
	slliw	a5,a5,8
	sext.w	a4,a5
	.loc 1 466 41
	lbu	a5,-73(s0)
	sext.w	a5,a5
	.loc 1 465 67
	or	a5,a4,a5
	sext.w	a5,a5
	mv	a4,a5
	.loc 1 465 27
	ld	a5,-24(s0)
	sd	a4,32(a5)
	.loc 1 467 60
	lbu	a5,-75(s0)
	sext.w	a5,a5
	.loc 1 467 45
	li	a4,1
	sllw	a5,a4,a5
	sext.w	a5,a5
	mv	a4,a5
	.loc 1 467 40
	ld	a5,-24(s0)
	sw	a4,40(a5)
	.loc 1 468 6
	lw	a5,-36(s0)
	sext.w	a5,a5
	bne	a5,zero,.L54
	.loc 1 472 12
	ld	a0,-104(s0)
	call	UsbBootRequestSense
	mv	a5,a0
	j	.L55
.L54:
	.loc 1 474 22
	ld	a5,-24(s0)
	lw	a4,-36(s0)
	sw	a4,12(a5)
	.loc 1 477 10
	ld	a5,-32(s0)
.L55:
	.loc 1 478 1
	mv	a0,a5
	ld	ra,104(sp)
	.cfi_restore 1
	ld	s0,96(sp)
	.cfi_restore 8
	.cfi_def_cfa 2, 112
	addi	sp,sp,112
	.cfi_def_cfa_offset 0
	jr	ra
	.cfi_endproc
.LFE5:
	.size	UsbBootReadCapacity16, .-UsbBootReadCapacity16
	.section	.text.UsbBootReadCapacity,"ax",@progbits
	.align	1
	.globl	UsbBootReadCapacity
	.type	UsbBootReadCapacity, @function
UsbBootReadCapacity:
.LFB6:
	.loc 1 499 1
	.cfi_startproc
	addi	sp,sp,-80
	.cfi_def_cfa_offset 80
	sd	ra,72(sp)
	sd	s0,64(sp)
	.cfi_offset 1, -8
	.cfi_offset 8, -16
	addi	s0,sp,80
	.cfi_def_cfa 8, 0
	sd	a0,-72(s0)
	.loc 1 506 9
	ld	a5,-72(s0)
	addi	a5,a5,80
	sd	a5,-32(s0)
	.loc 1 508 3
	addi	a5,s0,-48
	li	a1,12
	mv	a0,a5
	call	ZeroMem@plt
	.loc 1 509 3
	addi	a5,s0,-56
	li	a1,8
	mv	a0,a5
	call	ZeroMem@plt
	.loc 1 511 22
	li	a5,37
	sb	a5,-48(s0)
	.loc 1 512 38
	ld	a5,-72(s0)
	lbu	a5,129(a5)
	.loc 1 512 21
	slliw	a5,a5,5
	andi	a5,a5,0xff
	.loc 1 512 19
	sb	a5,-47(s0)
	.loc 1 514 12
	addi	a4,s0,-56
	addi	a1,s0,-48
	li	a5,5001216
	addi	a6,a5,-1216
	li	a5,8
	li	a3,0
	li	a2,12
	ld	a0,-72(s0)
	call	UsbBootExecCmdWithRetry
	sd	a0,-24(s0)
	.loc 1 523 34
	ld	a5,-24(s0)
	.loc 1 523 6
	bge	a5,zero,.L57
	.loc 1 524 12
	ld	a5,-24(s0)
	j	.L61
.L57:
	.loc 1 531 23
	ld	a5,-32(s0)
	li	a4,1
	sb	a4,5(a5)
	.loc 1 532 22
	addi	a5,s0,-56
	mv	a0,a5
	call	ReadUnaligned32@plt
	mv	a5,a0
	.loc 1 532 22 is_stmt 0 discriminator 1
	mv	a0,a5
	call	SwapBytes32@plt
	mv	a5,a0
	.loc 1 532 22 discriminator 2
	slli	a4,a5,32
	srli	a4,a4,32
	.loc 1 532 20 is_stmt 1 discriminator 2
	ld	a5,-32(s0)
	sd	a4,24(a5)
	.loc 1 534 15
	addi	a5,s0,-56
	addi	a5,a5,4
	mv	a0,a5
	call	ReadUnaligned32@plt
	mv	a5,a0
	.loc 1 534 15 is_stmt 0 discriminator 1
	mv	a0,a5
	call	SwapBytes32@plt
	mv	a5,a0
	sw	a5,-36(s0)
	.loc 1 535 6 is_stmt 1
	lw	a5,-36(s0)
	sext.w	a5,a5
	bne	a5,zero,.L59
	.loc 1 539 12
	ld	a0,-72(s0)
	call	UsbBootRequestSense
	mv	a5,a0
	j	.L61
.L59:
	.loc 1 541 22
	ld	a5,-32(s0)
	lw	a4,-36(s0)
	sw	a4,12(a5)
	.loc 1 544 12
	ld	a5,-32(s0)
	ld	a4,24(a5)
	.loc 1 544 6
	li	a5,-1
	srli	a5,a5,32
	bne	a4,a5,.L60
	.loc 1 545 14
	ld	a0,-72(s0)
	call	UsbBootReadCapacity16
	sd	a0,-24(s0)
	.loc 1 546 9
	ld	a5,-24(s0)
	.loc 1 546 8
	blt	a5,zero,.L60
	.loc 1 547 26
	ld	a5,-72(s0)
	li	a4,1
	sb	a4,236(a5)
.L60:
	.loc 1 551 10
	ld	a5,-24(s0)
.L61:
	.loc 1 552 1
	mv	a0,a5
	ld	ra,72(sp)
	.cfi_restore 1
	ld	s0,64(sp)
	.cfi_restore 8
	.cfi_def_cfa 2, 80
	addi	sp,sp,80
	.cfi_def_cfa_offset 0
	jr	ra
	.cfi_endproc
.LFE6:
	.size	UsbBootReadCapacity, .-UsbBootReadCapacity
	.section	.text.UsbScsiModeSense,"ax",@progbits
	.align	1
	.globl	UsbScsiModeSense
	.type	UsbScsiModeSense, @function
UsbScsiModeSense:
.LFB7:
	.loc 1 567 1
	.cfi_startproc
	addi	sp,sp,-64
	.cfi_def_cfa_offset 64
	sd	ra,56(sp)
	sd	s0,48(sp)
	.cfi_offset 1, -8
	.cfi_offset 8, -16
	addi	s0,sp,64
	.cfi_def_cfa 8, 0
	sd	a0,-56(s0)
	.loc 1 573 9
	ld	a5,-56(s0)
	addi	a5,a5,80
	sd	a5,-24(s0)
	.loc 1 575 3
	addi	a5,s0,-40
	li	a1,6
	mv	a0,a5
	call	ZeroMem@plt
	.loc 1 576 3
	addi	a5,s0,-48
	li	a1,4
	mv	a0,a5
	call	ZeroMem@plt
	.loc 1 581 23
	li	a5,26
	sb	a5,-40(s0)
	.loc 1 582 38
	ld	a5,-56(s0)
	lbu	a5,129(a5)
	.loc 1 582 22
	slliw	a5,a5,5
	andi	a5,a5,0xff
	.loc 1 582 20
	sb	a5,-39(s0)
	.loc 1 583 25
	li	a5,63
	sb	a5,-38(s0)
	.loc 1 584 28
	li	a5,4
	sb	a5,-36(s0)
	.loc 1 586 12
	addi	a4,s0,-48
	addi	a1,s0,-40
	li	a5,5001216
	addi	a6,a5,-1216
	li	a5,4
	li	a3,0
	li	a2,6
	ld	a0,-56(s0)
	call	UsbBootExecCmdWithRetry
	sd	a0,-32(s0)
	.loc 1 601 7
	ld	a5,-32(s0)
	.loc 1 601 6
	blt	a5,zero,.L63
	.loc 1 602 48
	lbu	a5,-46(s0)
	.loc 1 602 23
	slliw	a5,a5,24
	sraiw	a5,a5,24
	andi	a5,a5,0xff
	srliw	a5,a5,7
	andi	a5,a5,0xff
	mv	a4,a5
	.loc 1 602 21
	ld	a5,-24(s0)
	sb	a4,7(a5)
.L63:
	.loc 1 605 10
	ld	a5,-32(s0)
	.loc 1 606 1
	mv	a0,a5
	ld	ra,56(sp)
	.cfi_restore 1
	ld	s0,48(sp)
	.cfi_restore 8
	.cfi_def_cfa 2, 64
	addi	sp,sp,64
	.cfi_def_cfa_offset 0
	jr	ra
	.cfi_endproc
.LFE7:
	.size	UsbScsiModeSense, .-UsbScsiModeSense
	.section	.text.UsbBootGetParams,"ax",@progbits
	.align	1
	.globl	UsbBootGetParams
	.type	UsbBootGetParams, @function
UsbBootGetParams:
.LFB8:
	.loc 1 627 1
	.cfi_startproc
	addi	sp,sp,-48
	.cfi_def_cfa_offset 48
	sd	ra,40(sp)
	sd	s0,32(sp)
	.cfi_offset 1, -8
	.cfi_offset 8, -16
	addi	s0,sp,48
	.cfi_def_cfa 8, 0
	sd	a0,-40(s0)
	.loc 1 631 9
	ld	a5,-40(s0)
	addi	a5,a5,80
	sd	a5,-24(s0)
	.loc 1 633 12
	ld	a0,-40(s0)
	call	UsbBootInquiry
	sd	a0,-32(s0)
	.loc 1 634 34
	ld	a5,-32(s0)
	.loc 1 634 6
	bge	a5,zero,.L66
	.loc 1 636 12
	ld	a5,-32(s0)
	j	.L67
.L66:
	.loc 1 643 15
	ld	a5,-40(s0)
	lbu	a5,130(a5)
	.loc 1 643 6
	beq	a5,zero,.L68
	.loc 1 644 15
	ld	a5,-40(s0)
	lbu	a5,130(a5)
	.loc 1 643 30 discriminator 1
	mv	a4,a5
	li	a5,5
	beq	a4,a5,.L68
	.loc 1 645 15
	ld	a5,-40(s0)
	lbu	a5,130(a5)
	.loc 1 644 30
	mv	a4,a5
	li	a5,7
	beq	a4,a5,.L68
	.loc 1 646 15
	ld	a5,-40(s0)
	lbu	a5,130(a5)
	.loc 1 645 30
	mv	a4,a5
	li	a5,14
	beq	a4,a5,.L68
	.loc 1 649 12
	li	a5,-1
	slli	a5,a5,63
	addi	a5,a5,3
	j	.L67
.L68:
	.loc 1 656 15
	ld	a5,-40(s0)
	lbu	a5,130(a5)
	.loc 1 656 6
	mv	a4,a5
	li	a5,5
	beq	a4,a5,.L69
	.loc 1 656 41 discriminator 1
	ld	a5,-40(s0)
	lbu	a5,130(a5)
	.loc 1 656 30 discriminator 1
	mv	a4,a5
	li	a5,7
	bne	a4,a5,.L70
.L69:
	.loc 1 660 29
	ld	a5,-40(s0)
	li	a4,1
	sb	a4,128(a5)
	.loc 1 664 22
	ld	a5,-24(s0)
	li	a4,4096
	addi	a4,a4,-2048
	sw	a4,12(a5)
.L70:
	.loc 1 667 12
	ld	a0,-40(s0)
	call	UsbBootDetectMedia
	sd	a0,-32(s0)
	.loc 1 669 10
	ld	a5,-32(s0)
.L67:
	.loc 1 670 1
	mv	a0,a5
	ld	ra,40(sp)
	.cfi_restore 1
	ld	s0,32(sp)
	.cfi_restore 8
	.cfi_def_cfa 2, 48
	addi	sp,sp,48
	.cfi_def_cfa_offset 0
	jr	ra
	.cfi_endproc
.LFE8:
	.size	UsbBootGetParams, .-UsbBootGetParams
	.section	.text.UsbBootDetectMedia,"ax",@progbits
	.align	1
	.globl	UsbBootDetectMedia
	.type	UsbBootDetectMedia, @function
UsbBootDetectMedia:
.LFB9:
	.loc 1 685 1
	.cfi_startproc
	addi	sp,sp,-112
	.cfi_def_cfa_offset 112
	sd	ra,104(sp)
	sd	s0,96(sp)
	.cfi_offset 1, -8
	.cfi_offset 8, -16
	addi	s0,sp,112
	.cfi_def_cfa 8, 0
	sd	a0,-104(s0)
	.loc 1 691 9
	ld	a5,-104(s0)
	addi	a5,a5,80
	sd	a5,-32(s0)
	.loc 1 693 23
	ld	a5,-104(s0)
	addi	a4,a5,80
	.loc 1 693 3
	addi	a5,s0,-88
	li	a2,48
	mv	a1,a4
	mv	a0,a5
	call	CopyMem@plt
	.loc 1 695 53
	ld	a5,-104(s0)
	ld	a5,144(a5)
	.loc 1 695 10
	lbu	a5,6(a5)
	sb	a5,-33(s0)
	.loc 1 697 12
	ld	a0,-104(s0)
	call	UsbBootIsUnitReady
	sd	a0,-24(s0)
	.loc 1 709 7
	ld	a5,-24(s0)
	.loc 1 709 6
	blt	a5,zero,.L72
	.loc 1 710 17
	ld	a5,-104(s0)
	lbu	a5,130(a5)
	.loc 1 710 8
	mv	a4,a5
	li	a5,5
	beq	a4,a5,.L73
	.loc 1 710 32 discriminator 1
	lbu	a5,-33(s0)
	andi	a4,a5,0xff
	li	a5,6
	bne	a4,a5,.L73
	.loc 1 718 7
	ld	a0,-104(s0)
	call	UsbScsiModeSense
.L73:
	.loc 1 721 14
	ld	a0,-104(s0)
	call	UsbBootReadCapacity
	sd	a0,-24(s0)
.L72:
	.loc 1 727 34
	ld	a5,-24(s0)
	.loc 1 727 6
	bge	a5,zero,.L74
	.loc 1 727 60 discriminator 1
	ld	a4,-24(s0)
	li	a5,-1
	slli	a5,a5,63
	addi	a5,a5,12
	beq	a4,a5,.L74
	.loc 1 731 12
	ld	a5,-24(s0)
	j	.L85
.L74:
	.loc 1 737 13
	ld	a5,-32(s0)
	lw	a5,12(a5)
	.loc 1 737 6
	beq	a5,zero,.L76
	.loc 1 737 40 discriminator 1
	ld	a5,-32(s0)
	lw	a4,12(a5)
	.loc 1 737 31 discriminator 1
	li	a5,65536
	bleu	a4,a5,.L77
.L76:
	.loc 1 738 12
	li	a5,-1
	slli	a5,a5,63
	addi	a5,a5,7
	j	.L85
.L77:
	.loc 1 749 13
	ld	a5,-32(s0)
	lw	a4,0(a5)
	.loc 1 749 34
	lw	a5,-88(s0)
	.loc 1 749 6
	bne	a4,a5,.L78
	.loc 1 750 13
	ld	a5,-32(s0)
	lbu	a4,5(a5)
	.loc 1 750 39
	lbu	a5,-83(s0)
	.loc 1 749 44 discriminator 1
	bne	a4,a5,.L78
	.loc 1 751 13
	ld	a5,-32(s0)
	lbu	a4,7(a5)
	.loc 1 751 35
	lbu	a5,-81(s0)
	.loc 1 750 54
	bne	a4,a5,.L78
	.loc 1 752 13
	ld	a5,-32(s0)
	lw	a4,12(a5)
	.loc 1 752 36
	lw	a5,-76(s0)
	.loc 1 751 46
	bne	a4,a5,.L78
	.loc 1 753 13
	ld	a5,-32(s0)
	ld	a4,24(a5)
	.loc 1 753 36
	ld	a5,-64(s0)
	.loc 1 752 48
	beq	a4,a5,.L79
.L78:
	.loc 1 765 8
	la	a5,gBS
	ld	a5,0(a5)
	ld	a5,136(a5)
	.loc 1 765 5
	ld	a4,-104(s0)
	ld	a0,8(a4)
	.loc 1 768 12
	ld	a4,-104(s0)
	addi	a2,a4,32
	.loc 1 769 12
	ld	a4,-104(s0)
	addi	a4,a4,32
	.loc 1 765 5
	mv	a3,a4
	la	a1,gEfiBlockIoProtocolGuid
	jalr	a5
.LVL6:
	.loc 1 775 14
	ld	a5,-32(s0)
	lbu	a4,5(a5)
	.loc 1 775 40
	lbu	a5,-83(s0)
	.loc 1 775 8
	beq	a4,a5,.L80
	.loc 1 776 16
	ld	a5,-32(s0)
	lbu	a5,5(a5)
	.loc 1 776 10
	beq	a5,zero,.L81
	.loc 1 777 24
	ld	a5,-32(s0)
	li	a4,1
	sw	a4,0(a5)
	j	.L80
.L81:
	.loc 1 779 24
	ld	a5,-32(s0)
	sw	zero,0(a5)
.L80:
	.loc 1 783 15
	ld	a5,-32(s0)
	lbu	a4,7(a5)
	.loc 1 783 37
	lbu	a5,-81(s0)
	.loc 1 783 8
	bne	a4,a5,.L82
	.loc 1 784 15
	ld	a5,-32(s0)
	lw	a4,12(a5)
	.loc 1 784 38
	lw	a5,-76(s0)
	.loc 1 783 48 discriminator 1
	bne	a4,a5,.L82
	.loc 1 785 15
	ld	a5,-32(s0)
	ld	a4,24(a5)
	.loc 1 785 38
	ld	a5,-64(s0)
	.loc 1 784 50
	beq	a4,a5,.L83
.L82:
	.loc 1 787 12
	ld	a5,-32(s0)
	lw	a5,0(a5)
	.loc 1 787 21
	addiw	a5,a5,1
	sext.w	a4,a5
	ld	a5,-32(s0)
	sw	a4,0(a5)
.L83:
	.loc 1 790 19
	ld	a5,-32(s0)
	lbu	a5,5(a5)
	.loc 1 790 84
	beq	a5,zero,.L84
	.loc 1 790 12 discriminator 1
	li	a5,-1
	slli	a5,a5,63
	addi	a5,a5,13
	sd	a5,-24(s0)
	j	.L79
.L84:
	.loc 1 790 12 is_stmt 0 discriminator 2
	li	a5,-1
	slli	a5,a5,63
	addi	a5,a5,12
	sd	a5,-24(s0)
.L79:
	.loc 1 793 10 is_stmt 1
	ld	a5,-24(s0)
.L85:
	.loc 1 794 1
	mv	a0,a5
	ld	ra,104(sp)
	.cfi_restore 1
	ld	s0,96(sp)
	.cfi_restore 8
	.cfi_def_cfa 2, 112
	addi	sp,sp,112
	.cfi_def_cfa_offset 0
	jr	ra
	.cfi_endproc
.LFE9:
	.size	UsbBootDetectMedia, .-UsbBootDetectMedia
	.section	.text.UsbBootReadWriteBlocks,"ax",@progbits
	.align	1
	.globl	UsbBootReadWriteBlocks
	.type	UsbBootReadWriteBlocks, @function
UsbBootReadWriteBlocks:
.LFB10:
	.loc 1 817 1
	.cfi_startproc
	addi	sp,sp,-96
	.cfi_def_cfa_offset 96
	sd	ra,88(sp)
	sd	s0,80(sp)
	.cfi_offset 1, -8
	.cfi_offset 8, -16
	addi	s0,sp,96
	.cfi_def_cfa 8, 0
	sd	a0,-72(s0)
	mv	a5,a1
	sd	a3,-88(s0)
	sd	a4,-96(s0)
	sb	a5,-73(s0)
	mv	a5,a2
	sw	a5,-80(s0)
	.loc 1 826 13
	ld	a5,-72(s0)
	lw	a5,92(a5)
	sw	a5,-32(s0)
	.loc 1 827 12
	li	a5,65536
	lw	a4,-32(s0)
	divuw	a5,a5,a4
	sw	a5,-36(s0)
	.loc 1 828 10
	sd	zero,-24(s0)
	.loc 1 830 9
	j	.L87
.L95:
	.loc 1 836 36
	lwu	a5,-36(s0)
	.loc 1 836 13
	ld	a4,-88(s0)
	bgeu	a4,a5,.L88
	.loc 1 836 11 discriminator 1
	ld	a5,-88(s0)
	sw	a5,-28(s0)
	j	.L89
.L88:
	.loc 1 836 11 is_stmt 0 discriminator 2
	lw	a5,-36(s0)
	sw	a5,-28(s0)
.L89:
	.loc 1 837 11 is_stmt 1
	lw	a5,-28(s0)
	sext.w	a3,a5
	li	a4,65536
	bltu	a3,a4,.L90
	li	a5,65536
	addiw	a5,a5,-1
.L90:
	sw	a5,-28(s0)
	.loc 1 838 14
	lw	a5,-28(s0)
	mv	a4,a5
	lw	a5,-32(s0)
	mulw	a5,a4,a5
	sw	a5,-40(s0)
	.loc 1 843 13
	li	a5,5001216
	addi	a5,a5,-1216
	sw	a5,-44(s0)
	.loc 1 848 5
	addi	a5,s0,-56
	li	a1,12
	mv	a0,a5
	call	ZeroMem@plt
	.loc 1 850 16
	lbu	a5,-73(s0)
	andi	a5,a5,0xff
	beq	a5,zero,.L91
	.loc 1 850 16 is_stmt 0 discriminator 1
	li	a5,42
	j	.L92
.L91:
	.loc 1 850 16 discriminator 2
	li	a5,40
.L92:
	.loc 1 850 16 discriminator 4
	sb	a5,-56(s0)
	.loc 1 851 32 is_stmt 1
	ld	a5,-72(s0)
	lbu	a5,129(a5)
	.loc 1 851 15
	slliw	a5,a5,5
	andi	a5,a5,0xff
	.loc 1 851 13
	sb	a5,-55(s0)
	.loc 1 852 5
	lw	a5,-80(s0)
	mv	a0,a5
	call	SwapBytes32@plt
	mv	a5,a0
	mv	a4,a5
	.loc 1 852 5 is_stmt 0 discriminator 1
	addi	a5,s0,-56
	addi	a5,a5,2
	mv	a1,a4
	mv	a0,a5
	call	WriteUnaligned32@plt
	.loc 1 853 5 is_stmt 1
	lw	a5,-28(s0)
	slli	a5,a5,48
	srli	a5,a5,48
	mv	a0,a5
	call	SwapBytes16@plt
	mv	a5,a0
	mv	a4,a5
	.loc 1 853 5 is_stmt 0 discriminator 1
	addi	a5,s0,-56
	addi	a5,a5,7
	mv	a1,a4
	mv	a0,a5
	call	WriteUnaligned16@plt
	.loc 1 855 14 is_stmt 1
	lbu	a5,-73(s0)
	sext.w	a5,a5
	snez	a5,a5
	andi	a5,a5,0xff
	sext.w	a3,a5
	lw	a4,-44(s0)
	lw	a5,-40(s0)
	addi	a1,s0,-56
	mv	a6,a4
	ld	a4,-96(s0)
	li	a2,12
	ld	a0,-72(s0)
	call	UsbBootExecCmdWithRetry
	sd	a0,-24(s0)
	.loc 1 864 36
	ld	a5,-24(s0)
	.loc 1 864 8
	bge	a5,zero,.L93
	.loc 1 865 14
	ld	a5,-24(s0)
	j	.L96
.L93:
	.loc 1 875 9
	lw	a5,-80(s0)
	mv	a4,a5
	lw	a5,-28(s0)
	addw	a5,a4,a5
	sw	a5,-80(s0)
	.loc 1 876 12
	lwu	a5,-40(s0)
	ld	a4,-96(s0)
	add	a5,a4,a5
	sd	a5,-96(s0)
	.loc 1 877 16
	lwu	a5,-28(s0)
	ld	a4,-88(s0)
	sub	a5,a4,a5
	sd	a5,-88(s0)
.L87:
	.loc 1 830 21
	ld	a5,-88(s0)
	bne	a5,zero,.L95
	.loc 1 880 10
	ld	a5,-24(s0)
.L96:
	.loc 1 881 1
	mv	a0,a5
	ld	ra,88(sp)
	.cfi_restore 1
	ld	s0,80(sp)
	.cfi_restore 8
	.cfi_def_cfa 2, 96
	addi	sp,sp,96
	.cfi_def_cfa_offset 0
	jr	ra
	.cfi_endproc
.LFE10:
	.size	UsbBootReadWriteBlocks, .-UsbBootReadWriteBlocks
	.section	.text.UsbBootReadWriteBlocks16,"ax",@progbits
	.align	1
	.globl	UsbBootReadWriteBlocks16
	.type	UsbBootReadWriteBlocks16, @function
UsbBootReadWriteBlocks16:
.LFB11:
	.loc 1 903 1
	.cfi_startproc
	addi	sp,sp,-112
	.cfi_def_cfa_offset 112
	sd	ra,104(sp)
	sd	s0,96(sp)
	.cfi_offset 1, -8
	.cfi_offset 8, -16
	addi	s0,sp,112
	.cfi_def_cfa 8, 0
	sd	a0,-72(s0)
	mv	a5,a1
	sd	a2,-88(s0)
	sd	a3,-96(s0)
	sd	a4,-104(s0)
	sb	a5,-73(s0)
	.loc 1 912 13
	ld	a5,-72(s0)
	lw	a5,92(a5)
	sw	a5,-32(s0)
	.loc 1 913 12
	li	a5,65536
	lw	a4,-32(s0)
	divuw	a5,a5,a4
	sw	a5,-36(s0)
	.loc 1 914 10
	sd	zero,-24(s0)
	.loc 1 916 9
	j	.L98
.L105:
	.loc 1 920 36
	lwu	a5,-36(s0)
	.loc 1 920 13
	ld	a4,-96(s0)
	bgeu	a4,a5,.L99
	.loc 1 920 11 discriminator 1
	ld	a5,-96(s0)
	sw	a5,-28(s0)
	j	.L100
.L99:
	.loc 1 920 11 is_stmt 0 discriminator 2
	lw	a5,-36(s0)
	sw	a5,-28(s0)
.L100:
	.loc 1 921 14 is_stmt 1
	lw	a5,-28(s0)
	mv	a4,a5
	lw	a5,-32(s0)
	mulw	a5,a4,a5
	sw	a5,-40(s0)
	.loc 1 926 13
	li	a5,5001216
	addi	a5,a5,-1216
	sw	a5,-44(s0)
	.loc 1 931 5
	addi	a5,s0,-64
	li	a1,16
	mv	a0,a5
	call	ZeroMem@plt
	.loc 1 933 12
	lbu	a5,-73(s0)
	andi	a5,a5,0xff
	beq	a5,zero,.L101
	.loc 1 933 12 is_stmt 0 discriminator 1
	li	a5,138
	j	.L102
.L101:
	.loc 1 933 12 discriminator 2
	li	a5,136
.L102:
	.loc 1 933 12 discriminator 4
	sb	a5,-64(s0)
	.loc 1 934 32 is_stmt 1
	ld	a5,-72(s0)
	lbu	a5,129(a5)
	.loc 1 934 14
	slliw	a5,a5,5
	andi	a5,a5,0xff
	.loc 1 934 12
	sb	a5,-63(s0)
	.loc 1 935 5
	ld	a0,-88(s0)
	call	SwapBytes64@plt
	mv	a4,a0
	.loc 1 935 5 is_stmt 0 discriminator 1
	addi	a5,s0,-64
	addi	a5,a5,2
	mv	a1,a4
	mv	a0,a5
	call	WriteUnaligned64@plt
	.loc 1 936 5 is_stmt 1
	lw	a5,-28(s0)
	mv	a0,a5
	call	SwapBytes32@plt
	mv	a5,a0
	mv	a4,a5
	.loc 1 936 5 is_stmt 0 discriminator 1
	addi	a5,s0,-64
	addi	a5,a5,10
	mv	a1,a4
	mv	a0,a5
	call	WriteUnaligned32@plt
	.loc 1 938 14 is_stmt 1
	lbu	a5,-73(s0)
	sext.w	a5,a5
	snez	a5,a5
	andi	a5,a5,0xff
	sext.w	a3,a5
	lw	a4,-44(s0)
	lw	a5,-40(s0)
	addi	a1,s0,-64
	mv	a6,a4
	ld	a4,-104(s0)
	li	a2,16
	ld	a0,-72(s0)
	call	UsbBootExecCmdWithRetry
	sd	a0,-24(s0)
	.loc 1 947 36
	ld	a5,-24(s0)
	.loc 1 947 8
	bge	a5,zero,.L103
	.loc 1 948 14
	ld	a5,-24(s0)
	j	.L106
.L103:
	.loc 1 958 9
	lwu	a5,-28(s0)
	ld	a4,-88(s0)
	add	a5,a4,a5
	sd	a5,-88(s0)
	.loc 1 959 12
	lwu	a5,-40(s0)
	ld	a4,-104(s0)
	add	a5,a4,a5
	sd	a5,-104(s0)
	.loc 1 960 16
	lwu	a5,-28(s0)
	ld	a4,-96(s0)
	sub	a5,a4,a5
	sd	a5,-96(s0)
.L98:
	.loc 1 916 21
	ld	a5,-96(s0)
	bne	a5,zero,.L105
	.loc 1 963 10
	ld	a5,-24(s0)
.L106:
	.loc 1 964 1
	mv	a0,a5
	ld	ra,104(sp)
	.cfi_restore 1
	ld	s0,96(sp)
	.cfi_restore 8
	.cfi_def_cfa 2, 112
	addi	sp,sp,112
	.cfi_def_cfa_offset 0
	jr	ra
	.cfi_endproc
.LFE11:
	.size	UsbBootReadWriteBlocks16, .-UsbBootReadWriteBlocks16
	.section	.text.UsbClearEndpointStall,"ax",@progbits
	.align	1
	.globl	UsbClearEndpointStall
	.type	UsbClearEndpointStall, @function
UsbClearEndpointStall:
.LFB12:
	.loc 1 981 1
	.cfi_startproc
	addi	sp,sp,-64
	.cfi_def_cfa_offset 64
	sd	ra,56(sp)
	sd	s0,48(sp)
	.cfi_offset 1, -8
	.cfi_offset 8, -16
	addi	s0,sp,64
	.cfi_def_cfa 8, 0
	sd	a0,-56(s0)
	mv	a5,a1
	sb	a5,-57(s0)
	.loc 1 987 23
	li	a5,2
	sb	a5,-40(s0)
	.loc 1 988 19
	li	a5,1
	sb	a5,-39(s0)
	.loc 1 989 17
	sh	zero,-38(s0)
	.loc 1 990 17
	lbu	a5,-57(s0)
	slli	a5,a5,48
	srli	a5,a5,48
	sh	a5,-36(s0)
	.loc 1 991 18
	sh	zero,-34(s0)
	.loc 1 992 11
	li	a5,4096
	addi	a5,a5,904
	sw	a5,-20(s0)
	.loc 1 994 17
	ld	a5,-56(s0)
	ld	a7,0(a5)
	.loc 1 994 12
	addi	a5,s0,-44
	lw	a3,-20(s0)
	addi	a1,s0,-40
	mv	a6,a5
	li	a5,0
	li	a4,0
	li	a2,2
	ld	a0,-56(s0)
	jalr	a7
.LVL7:
	sd	a0,-32(s0)
	.loc 1 1004 10
	ld	a5,-32(s0)
	.loc 1 1005 1
	mv	a0,a5
	ld	ra,56(sp)
	.cfi_restore 1
	ld	s0,48(sp)
	.cfi_restore 8
	.cfi_def_cfa 2, 64
	addi	sp,sp,64
	.cfi_def_cfa_offset 0
	jr	ra
	.cfi_endproc
.LFE12:
	.size	UsbClearEndpointStall, .-UsbClearEndpointStall
	.text
.Letext0:
	.file 2 "/home/kapoagaeming/Downloads/spacemit-image-builder/components/edk2/MdePkg/Include/RiscV64/ProcessorBind.h"
	.file 3 "/home/kapoagaeming/Downloads/spacemit-image-builder/components/edk2/MdePkg/Include/Base.h"
	.file 4 "/home/kapoagaeming/Downloads/spacemit-image-builder/components/edk2/MdePkg/Include/Uefi/UefiBaseType.h"
	.file 5 "/home/kapoagaeming/Downloads/spacemit-image-builder/components/edk2/MdePkg/Include/Uefi/UefiMultiPhase.h"
	.file 6 "/home/kapoagaeming/Downloads/spacemit-image-builder/components/edk2/MdePkg/Include/Protocol/DevicePath.h"
	.file 7 "/home/kapoagaeming/Downloads/spacemit-image-builder/components/edk2/MdePkg/Include/Uefi/UefiSpec.h"
	.file 8 "/home/kapoagaeming/Downloads/spacemit-image-builder/components/edk2/MdePkg/Include/IndustryStandard/Scsi.h"
	.file 9 "/home/kapoagaeming/Downloads/spacemit-image-builder/components/edk2/MdePkg/Include/Protocol/BlockIo.h"
	.file 10 "/home/kapoagaeming/Downloads/spacemit-image-builder/components/edk2/MdePkg/Include/IndustryStandard/Usb.h"
	.file 11 "/home/kapoagaeming/Downloads/spacemit-image-builder/components/edk2/MdePkg/Include/Protocol/UsbIo.h"
	.file 12 "/home/kapoagaeming/Downloads/spacemit-image-builder/components/edk2/MdePkg/Include/Protocol/DiskInfo.h"
	.file 13 "/home/kapoagaeming/Downloads/spacemit-image-builder/components/edk2/MdeModulePkg/Bus/Usb/UsbMassStorageDxe/UsbMass.h"
	.file 14 "/home/kapoagaeming/Downloads/spacemit-image-builder/components/edk2/MdeModulePkg/Bus/Usb/UsbMassStorageDxe/UsbMassBoot.h"
	.file 15 "/home/kapoagaeming/Downloads/spacemit-image-builder/components/edk2/MdePkg/Include/Library/BaseLib.h"
	.file 16 "/home/kapoagaeming/Downloads/spacemit-image-builder/components/edk2/MdePkg/Include/Library/BaseMemoryLib.h"
	.file 17 "/home/kapoagaeming/Downloads/spacemit-image-builder/components/Build/Milk-V-Jupiter/RELEASE_GCC5/RISCV64/MdeModulePkg/Bus/Usb/UsbMassStorageDxe/UsbMassStorageDxe/DEBUG/AutoGen.h"
	.file 18 "/home/kapoagaeming/Downloads/spacemit-image-builder/components/edk2/MdePkg/Include/Library/UefiBootServicesTableLib.h"
	.section	.note.GNU-stack,"",@progbits
