	.file	"UsbMassBot.c"
	.option pic
	.option norelax
	.attribute arch, "rv64i2p1_m2p0_a2p1_f2p2_d2p2_c2p0_zicsr2p0_zifencei2p0_zmmul1p0_zaamo1p0_zalrsc1p0_zca1p0_zcd1p0"
	.attribute unaligned_access, 0
	.attribute stack_align, 16
	.text
.Ltext0:
	.cfi_sections	.debug_frame
	.file 0 "/home/kapoagaeming/Downloads/spacemit-image-builder/components/Build/Milk-V-Jupiter/RELEASE_GCC5/RISCV64/MdeModulePkg/Bus/Usb/UsbMassStorageDxe/UsbMassStorageDxe" "/home/kapoagaeming/Downloads/spacemit-image-builder/components/edk2/MdeModulePkg/Bus/Usb/UsbMassStorageDxe/UsbMassBot.c"
	.globl	mUsbBotTransport
	.section	.data.rel.local.mUsbBotTransport,"aw"
	.align	3
	.type	mUsbBotTransport, @object
	.size	mUsbBotTransport, 48
mUsbBotTransport:
	.byte	80
	.zero	7
	.dword	UsbBotInit
	.dword	UsbBotExecCommand
	.dword	UsbBotResetDevice
	.dword	UsbBotGetMaxLun
	.dword	UsbBotCleanUp
	.section	.text.UsbBotInit,"ax",@progbits
	.align	1
	.globl	UsbBotInit
	.type	UsbBotInit, @function
UsbBotInit:
.LFB0:
	.file 1 "/home/kapoagaeming/Downloads/spacemit-image-builder/components/edk2/MdeModulePkg/Bus/Usb/UsbMassStorageDxe/UsbMassBot.c"
	.loc 1 44 1
	.cfi_startproc
	addi	sp,sp,-80
	.cfi_def_cfa_offset 80
	sd	ra,72(sp)
	sd	s0,64(sp)
	.cfi_offset 1, -8
	.cfi_offset 8, -16
	addi	s0,sp,80
	.cfi_def_cfa 8, 0
	sd	a0,-72(s0)
	sd	a1,-80(s0)
	.loc 1 54 12
	li	a0,62
	call	AllocateZeroPool@plt
	sd	a0,-40(s0)
	.loc 1 57 17
	ld	a5,-40(s0)
	ld	a4,-72(s0)
	sd	a4,40(a5)
	.loc 1 63 17
	ld	a5,-72(s0)
	ld	a5,64(a5)
	.loc 1 63 12
	ld	a4,-40(s0)
	mv	a1,a4
	ld	a0,-72(s0)
	jalr	a5
.LVL0:
	sd	a0,-24(s0)
	.loc 1 65 34
	ld	a5,-24(s0)
	.loc 1 65 6
	blt	a5,zero,.L17
	.loc 1 69 13
	ld	a5,-40(s0)
	sd	a5,-48(s0)
	.loc 1 71 16
	ld	a5,-48(s0)
	lbu	a5,7(a5)
	.loc 1 71 6
	mv	a4,a5
	li	a5,80
	beq	a4,a5,.L4
	.loc 1 72 12
	li	a5,-1
	slli	a5,a5,63
	addi	a5,a5,3
	sd	a5,-24(s0)
	.loc 1 73 5
	j	.L3
.L4:
	.loc 1 79 14
	sb	zero,-25(s0)
	.loc 1 79 3
	j	.L5
.L10:
	.loc 1 80 19
	ld	a5,-72(s0)
	ld	a5,72(a5)
	.loc 1 80 14
	addi	a3,s0,-56
	lbu	a4,-25(s0)
	mv	a2,a3
	mv	a1,a4
	ld	a0,-72(s0)
	jalr	a5
.LVL1:
	sd	a0,-24(s0)
	.loc 1 82 36
	ld	a5,-24(s0)
	.loc 1 82 8
	blt	a5,zero,.L18
	.loc 1 82 77 discriminator 2
	lbu	a5,-53(s0)
	.loc 1 82 90 discriminator 2
	sext.w	a5,a5
	andi	a5,a5,3
	sext.w	a4,a5
	.loc 1 82 62 discriminator 2
	li	a5,2
	bne	a4,a5,.L18
	.loc 1 86 20
	lbu	a5,-54(s0)
	.loc 1 86 52
	slliw	a5,a5,24
	sraiw	a5,a5,24
	.loc 1 86 8
	bge	a5,zero,.L9
	.loc 1 87 16
	ld	a5,-40(s0)
	ld	a5,16(a5)
	.loc 1 86 67 discriminator 1
	bne	a5,zero,.L9
	.loc 1 89 71
	ld	a5,-40(s0)
	addi	a4,a5,48
	.loc 1 89 30
	ld	a5,-40(s0)
	sd	a4,16(a5)
	.loc 1 90 22
	ld	a5,-40(s0)
	ld	a5,16(a5)
	.loc 1 90 7
	addi	a4,s0,-56
	li	a2,7
	mv	a1,a4
	mv	a0,a5
	call	CopyMem@plt
.L9:
	.loc 1 93 20
	lbu	a5,-54(s0)
	.loc 1 93 52
	slliw	a5,a5,24
	sraiw	a5,a5,24
	.loc 1 93 8
	blt	a5,zero,.L8
	.loc 1 94 16
	ld	a5,-40(s0)
	ld	a5,24(a5)
	.loc 1 93 58 discriminator 1
	bne	a5,zero,.L8
	.loc 1 96 77
	ld	a5,-40(s0)
	addi	a4,a5,55
	.loc 1 96 31
	ld	a5,-40(s0)
	sd	a4,24(a5)
	.loc 1 97 22
	ld	a5,-40(s0)
	ld	a5,24(a5)
	.loc 1 97 7
	addi	a4,s0,-56
	li	a2,7
	mv	a1,a4
	mv	a0,a5
	call	CopyMem@plt
	j	.L8
.L18:
	.loc 1 83 7
	nop
.L8:
	.loc 1 79 57 discriminator 2
	lbu	a5,-25(s0)
	addiw	a5,a5,1
	sb	a5,-25(s0)
.L5:
	.loc 1 79 36 discriminator 1
	ld	a5,-48(s0)
	lbu	a4,4(a5)
	.loc 1 79 25 discriminator 1
	lbu	a5,-25(s0)
	andi	a5,a5,0xff
	bltu	a5,a4,.L10
	.loc 1 104 14
	ld	a5,-40(s0)
	ld	a5,16(a5)
	.loc 1 104 6
	beq	a5,zero,.L11
	.loc 1 104 58 discriminator 1
	ld	a5,-40(s0)
	ld	a5,24(a5)
	.loc 1 104 48 discriminator 1
	bne	a5,zero,.L12
.L11:
	.loc 1 105 12
	li	a5,-1
	slli	a5,a5,63
	addi	a5,a5,3
	sd	a5,-24(s0)
	.loc 1 106 5
	j	.L3
.L12:
	.loc 1 112 18
	ld	a5,-40(s0)
	li	a4,1
	sw	a4,32(a5)
	.loc 1 114 6
	ld	a5,-80(s0)
	beq	a5,zero,.L13
	.loc 1 115 14
	ld	a5,-80(s0)
	ld	a4,-40(s0)
	sd	a4,0(a5)
	j	.L14
.L13:
	.loc 1 117 5
	ld	a0,-40(s0)
	call	FreePool@plt
.L14:
	.loc 1 120 10
	li	a5,0
	j	.L16
.L17:
	.loc 1 66 5
	nop
.L3:
	.loc 1 123 3
	ld	a0,-40(s0)
	call	FreePool@plt
	.loc 1 124 10
	ld	a5,-24(s0)
.L16:
	.loc 1 125 1
	mv	a0,a5
	ld	ra,72(sp)
	.cfi_restore 1
	ld	s0,64(sp)
	.cfi_restore 8
	.cfi_def_cfa 2, 80
	addi	sp,sp,80
	.cfi_def_cfa_offset 0
	jr	ra
	.cfi_endproc
.LFE0:
	.size	UsbBotInit, .-UsbBotInit
	.section	.text.UsbBotSendCommand,"ax",@progbits
	.align	1
	.globl	UsbBotSendCommand
	.type	UsbBotSendCommand, @function
UsbBotSendCommand:
.LFB1:
	.loc 1 155 1
	.cfi_startproc
	addi	sp,sp,-112
	.cfi_def_cfa_offset 112
	sd	ra,104(sp)
	sd	s0,96(sp)
	.cfi_offset 1, -8
	.cfi_offset 8, -16
	addi	s0,sp,112
	.cfi_def_cfa 8, 0
	sd	a0,-88(s0)
	sd	a1,-96(s0)
	mv	a1,a2
	mv	a2,a3
	mv	a3,a4
	mv	a4,a5
	mv	a5,a1
	sb	a5,-97(s0)
	mv	a5,a2
	sw	a5,-104(s0)
	mv	a5,a3
	sw	a5,-108(s0)
	mv	a5,a4
	sb	a5,-98(s0)
	.loc 1 167 17
	li	a5,1128419328
	addi	a5,a5,853
	sw	a5,-64(s0)
	.loc 1 168 19
	ld	a5,-88(s0)
	lw	a5,32(a5)
	.loc 1 168 11
	sw	a5,-60(s0)
	.loc 1 169 15
	lw	a5,-108(s0)
	sw	a5,-56(s0)
	.loc 1 170 14
	lw	a5,-104(s0)
	sext.w	a5,a5
	bne	a5,zero,.L20
	.loc 1 170 14 is_stmt 0 discriminator 1
	li	a5,128
	j	.L21
.L20:
	.loc 1 170 14 discriminator 2
	li	a5,0
.L21:
	.loc 1 170 12 is_stmt 1 discriminator 4
	sb	a5,-52(s0)
	.loc 1 171 11
	lbu	a5,-98(s0)
	sb	a5,-51(s0)
	.loc 1 172 14
	lbu	a5,-97(s0)
	sb	a5,-50(s0)
	.loc 1 174 3
	addi	a5,s0,-64
	addi	a5,a5,15
	li	a1,16
	mv	a0,a5
	call	ZeroMem@plt
	.loc 1 175 3
	lbu	a4,-97(s0)
	addi	a5,s0,-64
	addi	a5,a5,15
	mv	a2,a4
	ld	a1,-96(s0)
	mv	a0,a5
	call	CopyMem@plt
	.loc 1 177 10
	sw	zero,-68(s0)
	.loc 1 178 11
	li	a5,31
	sd	a5,-80(s0)
	.loc 1 179 11
	li	a5,4096
	addi	a5,a5,-1096
	sd	a5,-32(s0)
	.loc 1 184 18
	ld	a5,-88(s0)
	ld	a5,40(a5)
	.loc 1 184 25
	ld	a6,8(a5)
	.loc 1 184 12
	ld	a5,-88(s0)
	ld	a0,40(a5)
	.loc 1 186 35
	ld	a5,-88(s0)
	ld	a5,24(a5)
	.loc 1 184 12
	lbu	a1,2(a5)
	addi	a5,s0,-68
	addi	a3,s0,-80
	addi	a2,s0,-64
	ld	a4,-32(s0)
	jalr	a6
.LVL2:
	sd	a0,-24(s0)
	.loc 1 192 34
	ld	a5,-24(s0)
	.loc 1 192 6
	bge	a5,zero,.L22
	.loc 1 193 20
	lw	a5,-68(s0)
	andi	a5,a5,2
	sext.w	a5,a5
	.loc 1 193 8
	beq	a5,zero,.L23
	.loc 1 193 36 discriminator 1
	lw	a5,-104(s0)
	sext.w	a4,a5
	li	a5,1
	bne	a4,a5,.L23
	.loc 1 198 7
	li	a1,0
	ld	a0,-88(s0)
	call	UsbBotResetDevice
	j	.L22
.L23:
	.loc 1 199 27
	lw	a5,-68(s0)
	andi	a5,a5,16
	sext.w	a5,a5
	.loc 1 199 15
	beq	a5,zero,.L22
	.loc 1 200 14
	li	a5,-1
	slli	a5,a5,63
	addi	a5,a5,6
	sd	a5,-24(s0)
.L22:
	.loc 1 204 10
	ld	a5,-24(s0)
	.loc 1 205 1
	mv	a0,a5
	ld	ra,104(sp)
	.cfi_restore 1
	ld	s0,96(sp)
	.cfi_restore 8
	.cfi_def_cfa 2, 112
	addi	sp,sp,112
	.cfi_def_cfa_offset 0
	jr	ra
	.cfi_endproc
.LFE1:
	.size	UsbBotSendCommand, .-UsbBotSendCommand
	.section	.text.UsbBotDataTransfer,"ax",@progbits
	.align	1
	.globl	UsbBotDataTransfer
	.type	UsbBotDataTransfer, @function
UsbBotDataTransfer:
.LFB2:
	.loc 1 234 1
	.cfi_startproc
	addi	sp,sp,-80
	.cfi_def_cfa_offset 80
	sd	ra,72(sp)
	sd	s0,64(sp)
	.cfi_offset 1, -8
	.cfi_offset 8, -16
	addi	s0,sp,80
	.cfi_def_cfa 8, 0
	sd	a0,-56(s0)
	mv	a5,a1
	sd	a2,-72(s0)
	sd	a3,-80(s0)
	sw	a5,-60(s0)
	mv	a5,a4
	sw	a5,-64(s0)
	.loc 1 242 6
	lw	a5,-60(s0)
	sext.w	a4,a5
	li	a5,2
	beq	a4,a5,.L26
	.loc 1 242 37 discriminator 1
	ld	a5,-80(s0)
	ld	a5,0(a5)
	.loc 1 242 33 discriminator 1
	bne	a5,zero,.L27
.L26:
	.loc 1 243 12
	li	a5,0
	j	.L34
.L27:
	.loc 1 249 6
	lw	a5,-60(s0)
	sext.w	a5,a5
	bne	a5,zero,.L29
	.loc 1 250 14
	ld	a5,-56(s0)
	ld	a5,16(a5)
	sd	a5,-32(s0)
	j	.L30
.L29:
	.loc 1 252 14
	ld	a5,-56(s0)
	ld	a5,24(a5)
	sd	a5,-32(s0)
.L30:
	.loc 1 255 10
	sw	zero,-36(s0)
	.loc 1 256 11
	lw	a5,-64(s0)
	slli	a4,a5,32
	srli	a4,a4,32
	li	a5,274878464
	addi	a5,a5,-557
	mul	a5,a4,a5
	srli	a5,a5,32
	srliw	a5,a5,6
	sw	a5,-64(s0)
	.loc 1 258 18
	ld	a5,-56(s0)
	ld	a5,40(a5)
	.loc 1 258 25
	ld	a6,8(a5)
	.loc 1 258 12
	ld	a5,-56(s0)
	ld	a0,40(a5)
	ld	a5,-32(s0)
	lbu	a1,2(a5)
	lwu	a4,-64(s0)
	addi	a5,s0,-36
	ld	a3,-80(s0)
	ld	a2,-72(s0)
	jalr	a6
.LVL3:
	sd	a0,-24(s0)
	.loc 1 266 34
	ld	a5,-24(s0)
	.loc 1 266 6
	bge	a5,zero,.L31
	.loc 1 267 20
	lw	a5,-36(s0)
	andi	a5,a5,2
	sext.w	a5,a5
	.loc 1 267 8
	beq	a5,zero,.L32
	.loc 1 270 7
	ld	a5,-56(s0)
	ld	a4,40(a5)
	ld	a5,-32(s0)
	lbu	a5,2(a5)
	mv	a1,a5
	mv	a0,a4
	call	UsbClearEndpointStall@plt
	j	.L33
.L32:
	.loc 1 271 27
	lw	a5,-36(s0)
	andi	a5,a5,16
	sext.w	a5,a5
	.loc 1 271 15
	beq	a5,zero,.L33
	.loc 1 272 14
	li	a5,-1
	slli	a5,a5,63
	addi	a5,a5,6
	sd	a5,-24(s0)
.L33:
	.loc 1 277 8
	ld	a4,-24(s0)
	li	a5,-1
	slli	a5,a5,63
	addi	a5,a5,18
	bne	a4,a5,.L31
	.loc 1 278 7
	li	a1,0
	ld	a0,-56(s0)
	call	UsbBotResetDevice
.L31:
	.loc 1 282 10
	ld	a5,-24(s0)
.L34:
	.loc 1 283 1
	mv	a0,a5
	ld	ra,72(sp)
	.cfi_restore 1
	ld	s0,64(sp)
	.cfi_restore 8
	.cfi_def_cfa 2, 80
	addi	sp,sp,80
	.cfi_def_cfa_offset 0
	jr	ra
	.cfi_endproc
.LFE2:
	.size	UsbBotDataTransfer, .-UsbBotDataTransfer
	.section	.text.UsbBotGetStatus,"ax",@progbits
	.align	1
	.globl	UsbBotGetStatus
	.type	UsbBotGetStatus, @function
UsbBotGetStatus:
.LFB3:
	.loc 1 310 1
	.cfi_startproc
	addi	sp,sp,-112
	.cfi_def_cfa_offset 112
	sd	ra,104(sp)
	sd	s0,96(sp)
	.cfi_offset 1, -8
	.cfi_offset 8, -16
	addi	s0,sp,112
	.cfi_def_cfa 8, 0
	sd	a0,-88(s0)
	mv	a5,a1
	sd	a2,-104(s0)
	sw	a5,-92(s0)
	.loc 1 320 14
	ld	a5,-104(s0)
	li	a4,2
	sb	a4,0(a5)
	.loc 1 321 10
	li	a5,-1
	slli	a5,a5,63
	addi	a5,a5,7
	sd	a5,-24(s0)
	.loc 1 322 20
	ld	a5,-88(s0)
	ld	a5,16(a5)
	.loc 1 322 12
	lbu	a5,2(a5)
	sb	a5,-29(s0)
	.loc 1 323 9
	ld	a5,-88(s0)
	ld	a5,40(a5)
	sd	a5,-40(s0)
	.loc 1 324 11
	li	a5,4096
	addi	a5,a5,-1096
	sd	a5,-48(s0)
	.loc 1 326 14
	sw	zero,-28(s0)
	.loc 1 326 3
	j	.L36
.L43:
	.loc 1 330 5
	addi	a5,s0,-64
	li	a1,13
	mv	a0,a5
	call	ZeroMem@plt
	.loc 1 331 12
	sw	zero,-76(s0)
	.loc 1 332 9
	li	a5,13
	sd	a5,-72(s0)
	.loc 1 333 19
	ld	a5,-40(s0)
	ld	a6,8(a5)
	.loc 1 333 14
	addi	a5,s0,-76
	addi	a3,s0,-72
	addi	a2,s0,-64
	lbu	a1,-29(s0)
	ld	a4,-48(s0)
	ld	a0,-40(s0)
	jalr	a6
.LVL4:
	sd	a0,-24(s0)
	.loc 1 341 36
	ld	a5,-24(s0)
	.loc 1 341 8
	bge	a5,zero,.L37
	.loc 1 342 22
	lw	a5,-76(s0)
	andi	a5,a5,2
	sext.w	a5,a5
	.loc 1 342 10
	beq	a5,zero,.L45
	.loc 1 343 9
	lbu	a5,-29(s0)
	mv	a1,a5
	ld	a0,-40(s0)
	call	UsbClearEndpointStall@plt
	.loc 1 346 7
	j	.L45
.L37:
	.loc 1 349 12
	lw	a4,-64(s0)
	.loc 1 349 8
	li	a5,1396854784
	addi	a5,a5,853
	beq	a4,a5,.L40
	.loc 1 353 16
	li	a1,0
	ld	a0,-88(s0)
	call	UsbBotResetDevice
	sd	a0,-24(s0)
	j	.L39
.L40:
	.loc 1 354 19
	lbu	a5,-52(s0)
	.loc 1 354 15
	mv	a4,a5
	li	a5,2
	bne	a4,a5,.L41
	.loc 1 358 16
	li	a1,0
	ld	a0,-88(s0)
	call	UsbBotResetDevice
	sd	a0,-24(s0)
	j	.L39
.L41:
	.loc 1 360 23
	lbu	a4,-52(s0)
	.loc 1 360 18
	ld	a5,-104(s0)
	sb	a4,0(a5)
	.loc 1 361 7
	j	.L42
.L45:
	.loc 1 346 7
	nop
.L39:
	.loc 1 326 35 discriminator 2
	lw	a5,-28(s0)
	addiw	a5,a5,1
	sw	a5,-28(s0)
.L36:
	.loc 1 326 25 discriminator 1
	lw	a5,-28(s0)
	sext.w	a4,a5
	li	a5,2
	bleu	a4,a5,.L43
.L42:
	.loc 1 368 9
	ld	a5,-88(s0)
	lw	a5,32(a5)
	.loc 1 368 17
	addiw	a5,a5,1
	sext.w	a4,a5
	ld	a5,-88(s0)
	sw	a4,32(a5)
	.loc 1 370 10
	ld	a5,-24(s0)
	.loc 1 371 1
	mv	a0,a5
	ld	ra,104(sp)
	.cfi_restore 1
	ld	s0,96(sp)
	.cfi_restore 8
	.cfi_def_cfa 2, 112
	addi	sp,sp,112
	.cfi_def_cfa_offset 0
	jr	ra
	.cfi_endproc
.LFE3:
	.size	UsbBotGetStatus, .-UsbBotGetStatus
	.section	.text.UsbBotExecCommand,"ax",@progbits
	.align	1
	.globl	UsbBotExecCommand
	.type	UsbBotExecCommand, @function
UsbBotExecCommand:
.LFB4:
	.loc 1 404 1
	.cfi_startproc
	addi	sp,sp,-96
	.cfi_def_cfa_offset 96
	sd	ra,88(sp)
	sd	s0,80(sp)
	.cfi_offset 1, -8
	.cfi_offset 8, -16
	addi	s0,sp,96
	.cfi_def_cfa 8, 0
	sd	a0,-56(s0)
	sd	a1,-64(s0)
	mv	a0,a2
	mv	a1,a3
	sd	a4,-80(s0)
	mv	a2,a5
	mv	a3,a6
	mv	a4,a7
	mv	a5,a0
	sb	a5,-65(s0)
	mv	a5,a1
	sw	a5,-72(s0)
	mv	a5,a2
	sw	a5,-84(s0)
	mv	a5,a3
	sb	a5,-66(s0)
	mv	a5,a4
	sw	a5,-88(s0)
	.loc 1 410 14
	ld	a5,0(s0)
	li	a4,1
	sw	a4,0(a5)
	.loc 1 411 10
	ld	a5,-56(s0)
	sd	a5,-24(s0)
	.loc 1 417 12
	lbu	a5,-66(s0)
	lw	a4,-84(s0)
	lw	a3,-72(s0)
	lbu	a2,-65(s0)
	ld	a1,-64(s0)
	ld	a0,-24(s0)
	call	UsbBotSendCommand
	sd	a0,-32(s0)
	.loc 1 418 34
	ld	a5,-32(s0)
	.loc 1 418 6
	bge	a5,zero,.L47
	.loc 1 420 12
	ld	a5,-32(s0)
	j	.L51
.L47:
	.loc 1 428 14
	lwu	a5,-84(s0)
	.loc 1 428 12
	sd	a5,-40(s0)
	.loc 1 429 3
	lw	a4,-88(s0)
	addi	a3,s0,-40
	lw	a5,-72(s0)
	ld	a2,-80(s0)
	mv	a1,a5
	ld	a0,-24(s0)
	call	UsbBotDataTransfer
	.loc 1 434 12
	addi	a4,s0,-41
	lw	a5,-84(s0)
	mv	a2,a4
	mv	a1,a5
	ld	a0,-24(s0)
	call	UsbBotGetStatus
	sd	a0,-32(s0)
	.loc 1 435 34
	ld	a5,-32(s0)
	.loc 1 435 6
	bge	a5,zero,.L49
	.loc 1 437 12
	ld	a5,-32(s0)
	j	.L51
.L49:
	.loc 1 440 14
	lbu	a5,-41(s0)
	.loc 1 440 6
	bne	a5,zero,.L50
	.loc 1 441 16
	ld	a5,0(s0)
	sw	zero,0(a5)
.L50:
	.loc 1 444 10
	li	a5,0
.L51:
	.loc 1 445 1
	mv	a0,a5
	ld	ra,88(sp)
	.cfi_restore 1
	ld	s0,80(sp)
	.cfi_restore 8
	.cfi_def_cfa 2, 96
	addi	sp,sp,96
	.cfi_def_cfa_offset 0
	jr	ra
	.cfi_endproc
.LFE4:
	.size	UsbBotExecCommand, .-UsbBotExecCommand
	.section	.text.UsbBotResetDevice,"ax",@progbits
	.align	1
	.globl	UsbBotResetDevice
	.type	UsbBotResetDevice, @function
UsbBotResetDevice:
.LFB5:
	.loc 1 464 1
	.cfi_startproc
	addi	sp,sp,-80
	.cfi_def_cfa_offset 80
	sd	ra,72(sp)
	sd	s0,64(sp)
	.cfi_offset 1, -8
	.cfi_offset 8, -16
	addi	s0,sp,80
	.cfi_def_cfa 8, 0
	sd	a0,-72(s0)
	mv	a5,a1
	sb	a5,-73(s0)
	.loc 1 471 10
	ld	a5,-72(s0)
	sd	a5,-24(s0)
	.loc 1 473 6
	lbu	a5,-73(s0)
	andi	a5,a5,0xff
	beq	a5,zero,.L53
	.loc 1 477 20
	ld	a5,-24(s0)
	ld	a5,40(a5)
	.loc 1 477 27
	ld	a5,96(a5)
	.loc 1 477 14
	ld	a4,-24(s0)
	ld	a4,40(a4)
	mv	a0,a4
	jalr	a5
.LVL5:
	sd	a0,-32(s0)
	.loc 1 478 36
	ld	a5,-32(s0)
	.loc 1 478 8
	bge	a5,zero,.L53
	.loc 1 479 14
	li	a5,-1
	slli	a5,a5,63
	addi	a5,a5,7
	j	.L56
.L53:
	.loc 1 487 23
	li	a5,33
	sb	a5,-48(s0)
	.loc 1 488 19
	li	a5,-1
	sb	a5,-47(s0)
	.loc 1 489 17
	sh	zero,-46(s0)
	.loc 1 490 36
	ld	a5,-24(s0)
	lbu	a5,2(a5)
	.loc 1 490 17
	sh	a5,-44(s0)
	.loc 1 491 18
	sh	zero,-42(s0)
	.loc 1 492 11
	li	a5,4096
	addi	a5,a5,-1096
	sw	a5,-36(s0)
	.loc 1 494 18
	ld	a5,-24(s0)
	ld	a5,40(a5)
	.loc 1 494 25
	ld	a7,0(a5)
	.loc 1 494 12
	ld	a5,-24(s0)
	ld	a0,40(a5)
	addi	a5,s0,-52
	lw	a3,-36(s0)
	addi	a1,s0,-48
	mv	a6,a5
	li	a5,0
	li	a4,0
	li	a2,2
	jalr	a7
.LVL6:
	sd	a0,-32(s0)
	.loc 1 504 34
	ld	a5,-32(s0)
	.loc 1 504 6
	bge	a5,zero,.L55
	.loc 1 505 12
	li	a5,-1
	slli	a5,a5,63
	addi	a5,a5,7
	j	.L56
.L55:
	.loc 1 513 6
	la	a5,gBS
	ld	a5,0(a5)
	ld	a5,248(a5)
	.loc 1 513 3
	li	a4,98304
	addi	a0,a4,1696
	jalr	a5
.LVL7:
	.loc 1 518 3
	ld	a5,-24(s0)
	ld	a4,40(a5)
	.loc 1 518 47
	ld	a5,-24(s0)
	ld	a5,16(a5)
	.loc 1 518 3
	lbu	a5,2(a5)
	mv	a1,a5
	mv	a0,a4
	call	UsbClearEndpointStall@plt
	.loc 1 519 3
	ld	a5,-24(s0)
	ld	a4,40(a5)
	.loc 1 519 47
	ld	a5,-24(s0)
	ld	a5,24(a5)
	.loc 1 519 3
	lbu	a5,2(a5)
	mv	a1,a5
	mv	a0,a4
	call	UsbClearEndpointStall@plt
	.loc 1 521 10
	ld	a5,-32(s0)
.L56:
	.loc 1 522 1
	mv	a0,a5
	ld	ra,72(sp)
	.cfi_restore 1
	ld	s0,64(sp)
	.cfi_restore 8
	.cfi_def_cfa 2, 80
	addi	sp,sp,80
	.cfi_def_cfa_offset 0
	jr	ra
	.cfi_endproc
.LFE5:
	.size	UsbBotResetDevice, .-UsbBotResetDevice
	.section	.text.UsbBotGetMaxLun,"ax",@progbits
	.align	1
	.globl	UsbBotGetMaxLun
	.type	UsbBotGetMaxLun, @function
UsbBotGetMaxLun:
.LFB6:
	.loc 1 540 1
	.cfi_startproc
	addi	sp,sp,-80
	.cfi_def_cfa_offset 80
	sd	ra,72(sp)
	sd	s0,64(sp)
	.cfi_offset 1, -8
	.cfi_offset 8, -16
	addi	s0,sp,80
	.cfi_def_cfa 8, 0
	sd	a0,-72(s0)
	sd	a1,-80(s0)
	.loc 1 547 6
	ld	a5,-72(s0)
	beq	a5,zero,.L58
	.loc 1 547 33 discriminator 1
	ld	a5,-80(s0)
	bne	a5,zero,.L59
.L58:
	.loc 1 548 12
	li	a5,-1
	slli	a5,a5,63
	addi	a5,a5,2
	j	.L63
.L59:
	.loc 1 551 10
	ld	a5,-72(s0)
	sd	a5,-24(s0)
	.loc 1 557 23
	li	a5,-95
	sb	a5,-48(s0)
	.loc 1 558 19
	li	a5,-2
	sb	a5,-47(s0)
	.loc 1 559 17
	sh	zero,-46(s0)
	.loc 1 560 36
	ld	a5,-24(s0)
	lbu	a5,2(a5)
	.loc 1 560 17
	sh	a5,-44(s0)
	.loc 1 561 18
	li	a5,1
	sh	a5,-42(s0)
	.loc 1 562 11
	li	a5,4096
	addi	a5,a5,-1096
	sw	a5,-28(s0)
	.loc 1 564 18
	ld	a5,-24(s0)
	ld	a5,40(a5)
	.loc 1 564 25
	ld	a7,0(a5)
	.loc 1 564 12
	ld	a5,-24(s0)
	ld	a0,40(a5)
	addi	a5,s0,-52
	lw	a3,-28(s0)
	addi	a1,s0,-48
	mv	a6,a5
	li	a5,1
	ld	a4,-80(s0)
	li	a2,0
	jalr	a7
.LVL8:
	sd	a0,-40(s0)
	.loc 1 573 34
	ld	a5,-40(s0)
	.loc 1 573 6
	blt	a5,zero,.L61
	.loc 1 573 64 discriminator 1
	ld	a5,-80(s0)
	lbu	a5,0(a5)
	.loc 1 573 60 discriminator 1
	mv	a4,a5
	li	a5,15
	bleu	a4,a5,.L62
.L61:
	.loc 1 583 13
	ld	a5,-80(s0)
	sb	zero,0(a5)
.L62:
	.loc 1 586 10
	li	a5,0
.L63:
	.loc 1 587 1
	mv	a0,a5
	ld	ra,72(sp)
	.cfi_restore 1
	ld	s0,64(sp)
	.cfi_restore 8
	.cfi_def_cfa 2, 80
	addi	sp,sp,80
	.cfi_def_cfa_offset 0
	jr	ra
	.cfi_endproc
.LFE6:
	.size	UsbBotGetMaxLun, .-UsbBotGetMaxLun
	.section	.text.UsbBotCleanUp,"ax",@progbits
	.align	1
	.globl	UsbBotCleanUp
	.type	UsbBotCleanUp, @function
UsbBotCleanUp:
.LFB7:
	.loc 1 601 1
	.cfi_startproc
	addi	sp,sp,-32
	.cfi_def_cfa_offset 32
	sd	ra,24(sp)
	sd	s0,16(sp)
	.cfi_offset 1, -8
	.cfi_offset 8, -16
	addi	s0,sp,32
	.cfi_def_cfa 8, 0
	sd	a0,-24(s0)
	.loc 1 602 3
	ld	a0,-24(s0)
	call	FreePool@plt
	.loc 1 603 10
	li	a5,0
	.loc 1 604 1
	mv	a0,a5
	ld	ra,24(sp)
	.cfi_restore 1
	ld	s0,16(sp)
	.cfi_restore 8
	.cfi_def_cfa 2, 32
	addi	sp,sp,32
	.cfi_def_cfa_offset 0
	jr	ra
	.cfi_endproc
.LFE7:
	.size	UsbBotCleanUp, .-UsbBotCleanUp
	.text
.Letext0:
	.file 2 "/home/kapoagaeming/Downloads/spacemit-image-builder/components/edk2/MdePkg/Include/RiscV64/ProcessorBind.h"
	.file 3 "/home/kapoagaeming/Downloads/spacemit-image-builder/components/edk2/MdePkg/Include/Base.h"
	.file 4 "/home/kapoagaeming/Downloads/spacemit-image-builder/components/edk2/MdePkg/Include/Uefi/UefiBaseType.h"
	.file 5 "/home/kapoagaeming/Downloads/spacemit-image-builder/components/edk2/MdePkg/Include/Uefi/UefiMultiPhase.h"
	.file 6 "/home/kapoagaeming/Downloads/spacemit-image-builder/components/edk2/MdePkg/Include/Protocol/DevicePath.h"
	.file 7 "/home/kapoagaeming/Downloads/spacemit-image-builder/components/edk2/MdePkg/Include/Uefi/UefiSpec.h"
	.file 8 "/home/kapoagaeming/Downloads/spacemit-image-builder/components/edk2/MdePkg/Include/IndustryStandard/Usb.h"
	.file 9 "/home/kapoagaeming/Downloads/spacemit-image-builder/components/edk2/MdePkg/Include/Protocol/UsbIo.h"
	.file 10 "/home/kapoagaeming/Downloads/spacemit-image-builder/components/edk2/MdeModulePkg/Bus/Usb/UsbMassStorageDxe/UsbMass.h"
	.file 11 "/home/kapoagaeming/Downloads/spacemit-image-builder/components/edk2/MdeModulePkg/Bus/Usb/UsbMassStorageDxe/UsbMassBot.h"
	.file 12 "/home/kapoagaeming/Downloads/spacemit-image-builder/components/edk2/MdeModulePkg/Bus/Usb/UsbMassStorageDxe/UsbMassBoot.h"
	.file 13 "/home/kapoagaeming/Downloads/spacemit-image-builder/components/edk2/MdePkg/Include/Library/BaseMemoryLib.h"
	.file 14 "/home/kapoagaeming/Downloads/spacemit-image-builder/components/edk2/MdePkg/Include/Library/MemoryAllocationLib.h"
	.file 15 "/home/kapoagaeming/Downloads/spacemit-image-builder/components/edk2/MdePkg/Include/Library/UefiBootServicesTableLib.h"
	.section	.note.GNU-stack,"",@progbits
