	.file	"UsbMassImpl.c"
	.option pic
	.option norelax
	.attribute arch, "rv64i2p1_m2p0_a2p1_f2p2_d2p2_c2p0_zicsr2p0_zifencei2p0_zmmul1p0_zaamo1p0_zalrsc1p0_zca1p0_zcd1p0"
	.attribute unaligned_access, 0
	.attribute stack_align, 16
	.text
.Ltext0:
	.cfi_sections	.debug_frame
	.file 0 "/home/kapoagaeming/Downloads/spacemit-image-builder/components/Build/Milk-V-Jupiter/RELEASE_GCC5/RISCV64/MdeModulePkg/Bus/Usb/UsbMassStorageDxe/UsbMassStorageDxe" "/home/kapoagaeming/Downloads/spacemit-image-builder/components/edk2/MdeModulePkg/Bus/Usb/UsbMassStorageDxe/UsbMassImpl.c"
	.globl	mUsbMassTransport
	.section	.data.rel.mUsbMassTransport,"aw"
	.align	3
	.type	mUsbMassTransport, @object
	.size	mUsbMassTransport, 24
mUsbMassTransport:
	.dword	mUsbCbi0Transport
	.dword	mUsbCbi1Transport
	.dword	mUsbBotTransport
	.globl	gUSBMassDriverBinding
	.section	.data.rel.local.gUSBMassDriverBinding,"aw"
	.align	3
	.type	gUSBMassDriverBinding, @object
	.size	gUSBMassDriverBinding, 48
gUSBMassDriverBinding:
	.dword	USBMassDriverBindingSupported
	.dword	USBMassDriverBindingStart
	.dword	USBMassDriverBindingStop
	.word	17
	.zero	4
	.dword	0
	.dword	0
	.section	.text.UsbMassReset,"ax",@progbits
	.align	1
	.globl	UsbMassReset
	.type	UsbMassReset, @function
UsbMassReset:
.LFB0:
	.file 1 "/home/kapoagaeming/Downloads/spacemit-image-builder/components/edk2/MdeModulePkg/Bus/Usb/UsbMassStorageDxe/UsbMassImpl.c"
	.loc 1 51 1
	.cfi_startproc
	addi	sp,sp,-64
	.cfi_def_cfa_offset 64
	sd	ra,56(sp)
	sd	s0,48(sp)
	.cfi_offset 1, -8
	.cfi_offset 8, -16
	addi	s0,sp,64
	.cfi_def_cfa 8, 0
	sd	a0,-56(s0)
	mv	a5,a1
	sb	a5,-57(s0)
	.loc 1 60 15
	la	a5,gBS
	ld	a5,0(a5)
	ld	a5,24(a5)
	.loc 1 60 12
	li	a0,8
	jalr	a5
.LVL0:
	sd	a0,-32(s0)
	.loc 1 62 15
	ld	a5,-56(s0)
	addi	a5,a5,-32
	.loc 1 62 120
	lw	a4,0(a5)
	.loc 1 62 205
	li	a5,1298296832
	addi	a5,a5,853
	bne	a4,a5,.L2
	.loc 1 62 11 discriminator 1
	ld	a5,-56(s0)
	addi	a5,a5,-32
	sd	a5,-24(s0)
	j	.L3
.L2:
	.loc 1 62 11 is_stmt 0 discriminator 2
	sd	zero,-24(s0)
.L3:
	.loc 1 63 19 is_stmt 1
	ld	a5,-24(s0)
	ld	a5,136(a5)
	.loc 1 63 30
	ld	a5,24(a5)
	.loc 1 63 12
	ld	a4,-24(s0)
	ld	a4,144(a4)
	lbu	a3,-57(s0)
	mv	a1,a3
	mv	a0,a4
	jalr	a5
.LVL1:
	sd	a0,-40(s0)
	.loc 1 65 6
	la	a5,gBS
	ld	a5,0(a5)
	ld	a5,32(a5)
	.loc 1 65 3
	ld	a0,-32(s0)
	jalr	a5
.LVL2:
	.loc 1 67 10
	ld	a5,-40(s0)
	.loc 1 68 1
	mv	a0,a5
	ld	ra,56(sp)
	.cfi_restore 1
	ld	s0,48(sp)
	.cfi_restore 8
	.cfi_def_cfa 2, 64
	addi	sp,sp,64
	.cfi_def_cfa_offset 0
	jr	ra
	.cfi_endproc
.LFE0:
	.size	UsbMassReset, .-UsbMassReset
	.section	.text.UsbMassReadBlocks,"ax",@progbits
	.align	1
	.globl	UsbMassReadBlocks
	.type	UsbMassReadBlocks, @function
UsbMassReadBlocks:
.LFB1:
	.loc 1 103 1
	.cfi_startproc
	addi	sp,sp,-112
	.cfi_def_cfa_offset 112
	sd	ra,104(sp)
	sd	s0,96(sp)
	.cfi_offset 1, -8
	.cfi_offset 8, -16
	addi	s0,sp,112
	.cfi_def_cfa 8, 0
	sd	a0,-72(s0)
	mv	a5,a1
	sd	a2,-88(s0)
	sd	a3,-96(s0)
	sd	a4,-104(s0)
	sw	a5,-76(s0)
	.loc 1 114 15
	la	a5,gBS
	ld	a5,0(a5)
	ld	a5,24(a5)
	.loc 1 114 12
	li	a0,8
	jalr	a5
.LVL3:
	sd	a0,-40(s0)
	.loc 1 115 15
	ld	a5,-72(s0)
	addi	a5,a5,-32
	.loc 1 115 120
	lw	a4,0(a5)
	.loc 1 115 205
	li	a5,1298296832
	addi	a5,a5,853
	bne	a4,a5,.L6
	.loc 1 115 11 discriminator 1
	ld	a5,-72(s0)
	addi	a5,a5,-32
	sd	a5,-24(s0)
	j	.L7
.L6:
	.loc 1 115 11 is_stmt 0 discriminator 2
	sd	zero,-24(s0)
.L7:
	.loc 1 116 9 is_stmt 1
	ld	a5,-24(s0)
	addi	a5,a5,80
	sd	a5,-48(s0)
	.loc 1 123 12
	ld	a5,-48(s0)
	lbu	a5,4(a5)
	.loc 1 123 6
	beq	a5,zero,.L8
	.loc 1 124 14
	ld	a0,-24(s0)
	call	UsbBootDetectMedia@plt
	sd	a0,-32(s0)
	.loc 1 125 36
	ld	a5,-32(s0)
	.loc 1 125 8
	blt	a5,zero,.L19
.L8:
	.loc 1 130 14
	ld	a5,-48(s0)
	lbu	a5,5(a5)
	.loc 1 130 6
	bne	a5,zero,.L10
	.loc 1 131 12
	li	a5,-1
	slli	a5,a5,63
	addi	a5,a5,12
	sd	a5,-32(s0)
	.loc 1 132 5
	j	.L9
.L10:
	.loc 1 135 23
	ld	a5,-48(s0)
	lw	a5,0(a5)
	.loc 1 135 6
	lw	a4,-76(s0)
	sext.w	a4,a4
	beq	a4,a5,.L11
	.loc 1 136 12
	li	a5,-1
	slli	a5,a5,63
	addi	a5,a5,13
	sd	a5,-32(s0)
	.loc 1 137 5
	j	.L9
.L11:
	.loc 1 140 6
	ld	a5,-96(s0)
	bne	a5,zero,.L12
	.loc 1 141 12
	sd	zero,-32(s0)
	.loc 1 142 5
	j	.L9
.L12:
	.loc 1 145 6
	ld	a5,-104(s0)
	bne	a5,zero,.L13
	.loc 1 146 12
	li	a5,-1
	slli	a5,a5,63
	addi	a5,a5,2
	sd	a5,-32(s0)
	.loc 1 147 5
	j	.L9
.L13:
	.loc 1 153 26
	ld	a5,-48(s0)
	lw	a5,12(a5)
	slli	a5,a5,32
	srli	a5,a5,32
	.loc 1 153 19
	ld	a4,-96(s0)
	remu	a5,a4,a5
	.loc 1 153 6
	beq	a5,zero,.L14
	.loc 1 154 12
	li	a5,-1
	slli	a5,a5,63
	addi	a5,a5,4
	sd	a5,-32(s0)
	.loc 1 155 5
	j	.L9
.L14:
	.loc 1 158 34
	ld	a5,-48(s0)
	lw	a5,12(a5)
	slli	a5,a5,32
	srli	a5,a5,32
	.loc 1 158 14
	ld	a4,-96(s0)
	divu	a5,a4,a5
	sd	a5,-56(s0)
	.loc 1 163 11
	ld	a4,-88(s0)
	ld	a5,-56(s0)
	add	a5,a4,a5
	.loc 1 163 24
	addi	a4,a5,-1
	.loc 1 163 35
	ld	a5,-48(s0)
	ld	a5,24(a5)
	.loc 1 163 6
	bleu	a4,a5,.L15
	.loc 1 164 12
	li	a5,-1
	slli	a5,a5,63
	addi	a5,a5,2
	sd	a5,-32(s0)
	.loc 1 165 5
	j	.L9
.L15:
	.loc 1 168 14
	ld	a5,-24(s0)
	lbu	a5,236(a5)
	.loc 1 168 6
	beq	a5,zero,.L16
	.loc 1 169 14
	ld	a4,-104(s0)
	ld	a3,-56(s0)
	ld	a2,-88(s0)
	li	a1,0
	ld	a0,-24(s0)
	call	UsbBootReadWriteBlocks16@plt
	sd	a0,-32(s0)
	j	.L17
.L16:
	.loc 1 171 14
	ld	a5,-88(s0)
	sext.w	a5,a5
	ld	a4,-104(s0)
	ld	a3,-56(s0)
	mv	a2,a5
	li	a1,0
	ld	a0,-24(s0)
	call	UsbBootReadWriteBlocks@plt
	sd	a0,-32(s0)
.L17:
	.loc 1 174 34
	ld	a5,-32(s0)
	.loc 1 174 6
	bge	a5,zero,.L20
	.loc 1 176 5
	li	a1,1
	ld	a0,-72(s0)
	call	UsbMassReset
	j	.L9
.L19:
	.loc 1 126 7
	nop
	j	.L9
.L20:
	.loc 1 179 1
	nop
.L9:
	.loc 1 180 6
	la	a5,gBS
	ld	a5,0(a5)
	ld	a5,32(a5)
	.loc 1 180 3
	ld	a0,-40(s0)
	jalr	a5
.LVL4:
	.loc 1 181 10
	ld	a5,-32(s0)
	.loc 1 182 1
	mv	a0,a5
	ld	ra,104(sp)
	.cfi_restore 1
	ld	s0,96(sp)
	.cfi_restore 8
	.cfi_def_cfa 2, 112
	addi	sp,sp,112
	.cfi_def_cfa_offset 0
	jr	ra
	.cfi_endproc
.LFE1:
	.size	UsbMassReadBlocks, .-UsbMassReadBlocks
	.section	.text.UsbMassWriteBlocks,"ax",@progbits
	.align	1
	.globl	UsbMassWriteBlocks
	.type	UsbMassWriteBlocks, @function
UsbMassWriteBlocks:
.LFB2:
	.loc 1 218 1
	.cfi_startproc
	addi	sp,sp,-112
	.cfi_def_cfa_offset 112
	sd	ra,104(sp)
	sd	s0,96(sp)
	.cfi_offset 1, -8
	.cfi_offset 8, -16
	addi	s0,sp,112
	.cfi_def_cfa 8, 0
	sd	a0,-72(s0)
	mv	a5,a1
	sd	a2,-88(s0)
	sd	a3,-96(s0)
	sd	a4,-104(s0)
	sw	a5,-76(s0)
	.loc 1 229 15
	la	a5,gBS
	ld	a5,0(a5)
	ld	a5,24(a5)
	.loc 1 229 12
	li	a0,8
	jalr	a5
.LVL5:
	sd	a0,-40(s0)
	.loc 1 230 15
	ld	a5,-72(s0)
	addi	a5,a5,-32
	.loc 1 230 120
	lw	a4,0(a5)
	.loc 1 230 205
	li	a5,1298296832
	addi	a5,a5,853
	bne	a4,a5,.L22
	.loc 1 230 11 discriminator 1
	ld	a5,-72(s0)
	addi	a5,a5,-32
	sd	a5,-24(s0)
	j	.L23
.L22:
	.loc 1 230 11 is_stmt 0 discriminator 2
	sd	zero,-24(s0)
.L23:
	.loc 1 231 9 is_stmt 1
	ld	a5,-24(s0)
	addi	a5,a5,80
	sd	a5,-48(s0)
	.loc 1 238 12
	ld	a5,-48(s0)
	lbu	a5,4(a5)
	.loc 1 238 6
	beq	a5,zero,.L24
	.loc 1 239 14
	ld	a0,-24(s0)
	call	UsbBootDetectMedia@plt
	sd	a0,-32(s0)
	.loc 1 240 36
	ld	a5,-32(s0)
	.loc 1 240 8
	blt	a5,zero,.L35
.L24:
	.loc 1 245 14
	ld	a5,-48(s0)
	lbu	a5,5(a5)
	.loc 1 245 6
	bne	a5,zero,.L26
	.loc 1 246 12
	li	a5,-1
	slli	a5,a5,63
	addi	a5,a5,12
	sd	a5,-32(s0)
	.loc 1 247 5
	j	.L25
.L26:
	.loc 1 250 23
	ld	a5,-48(s0)
	lw	a5,0(a5)
	.loc 1 250 6
	lw	a4,-76(s0)
	sext.w	a4,a4
	beq	a4,a5,.L27
	.loc 1 251 12
	li	a5,-1
	slli	a5,a5,63
	addi	a5,a5,13
	sd	a5,-32(s0)
	.loc 1 252 5
	j	.L25
.L27:
	.loc 1 255 6
	ld	a5,-96(s0)
	bne	a5,zero,.L28
	.loc 1 256 12
	sd	zero,-32(s0)
	.loc 1 257 5
	j	.L25
.L28:
	.loc 1 260 6
	ld	a5,-104(s0)
	bne	a5,zero,.L29
	.loc 1 261 12
	li	a5,-1
	slli	a5,a5,63
	addi	a5,a5,2
	sd	a5,-32(s0)
	.loc 1 262 5
	j	.L25
.L29:
	.loc 1 268 26
	ld	a5,-48(s0)
	lw	a5,12(a5)
	slli	a5,a5,32
	srli	a5,a5,32
	.loc 1 268 19
	ld	a4,-96(s0)
	remu	a5,a4,a5
	.loc 1 268 6
	beq	a5,zero,.L30
	.loc 1 269 12
	li	a5,-1
	slli	a5,a5,63
	addi	a5,a5,4
	sd	a5,-32(s0)
	.loc 1 270 5
	j	.L25
.L30:
	.loc 1 273 34
	ld	a5,-48(s0)
	lw	a5,12(a5)
	slli	a5,a5,32
	srli	a5,a5,32
	.loc 1 273 14
	ld	a4,-96(s0)
	divu	a5,a4,a5
	sd	a5,-56(s0)
	.loc 1 278 11
	ld	a4,-88(s0)
	ld	a5,-56(s0)
	add	a5,a4,a5
	.loc 1 278 24
	addi	a4,a5,-1
	.loc 1 278 35
	ld	a5,-48(s0)
	ld	a5,24(a5)
	.loc 1 278 6
	bleu	a4,a5,.L31
	.loc 1 279 12
	li	a5,-1
	slli	a5,a5,63
	addi	a5,a5,2
	sd	a5,-32(s0)
	.loc 1 280 5
	j	.L25
.L31:
	.loc 1 287 14
	ld	a5,-24(s0)
	lbu	a5,236(a5)
	.loc 1 287 6
	beq	a5,zero,.L32
	.loc 1 288 14
	ld	a4,-104(s0)
	ld	a3,-56(s0)
	ld	a2,-88(s0)
	li	a1,1
	ld	a0,-24(s0)
	call	UsbBootReadWriteBlocks16@plt
	sd	a0,-32(s0)
	j	.L33
.L32:
	.loc 1 290 14
	ld	a5,-88(s0)
	sext.w	a5,a5
	ld	a4,-104(s0)
	ld	a3,-56(s0)
	mv	a2,a5
	li	a1,1
	ld	a0,-24(s0)
	call	UsbBootReadWriteBlocks@plt
	sd	a0,-32(s0)
.L33:
	.loc 1 293 34
	ld	a5,-32(s0)
	.loc 1 293 6
	bge	a5,zero,.L36
	.loc 1 295 5
	li	a1,1
	ld	a0,-72(s0)
	call	UsbMassReset
	j	.L25
.L35:
	.loc 1 241 7
	nop
	j	.L25
.L36:
	.loc 1 298 1
	nop
.L25:
	.loc 1 299 6
	la	a5,gBS
	ld	a5,0(a5)
	ld	a5,32(a5)
	.loc 1 299 3
	ld	a0,-40(s0)
	jalr	a5
.LVL6:
	.loc 1 300 10
	ld	a5,-32(s0)
	.loc 1 301 1
	mv	a0,a5
	ld	ra,104(sp)
	.cfi_restore 1
	ld	s0,96(sp)
	.cfi_restore 8
	.cfi_def_cfa 2, 112
	addi	sp,sp,112
	.cfi_def_cfa_offset 0
	jr	ra
	.cfi_endproc
.LFE2:
	.size	UsbMassWriteBlocks, .-UsbMassWriteBlocks
	.section	.text.UsbMassFlushBlocks,"ax",@progbits
	.align	1
	.globl	UsbMassFlushBlocks
	.type	UsbMassFlushBlocks, @function
UsbMassFlushBlocks:
.LFB3:
	.loc 1 322 1
	.cfi_startproc
	addi	sp,sp,-32
	.cfi_def_cfa_offset 32
	sd	ra,24(sp)
	sd	s0,16(sp)
	.cfi_offset 1, -8
	.cfi_offset 8, -16
	addi	s0,sp,32
	.cfi_def_cfa 8, 0
	sd	a0,-24(s0)
	.loc 1 323 10
	li	a5,0
	.loc 1 324 1
	mv	a0,a5
	ld	ra,24(sp)
	.cfi_restore 1
	ld	s0,16(sp)
	.cfi_restore 8
	.cfi_def_cfa 2, 32
	addi	sp,sp,32
	.cfi_def_cfa_offset 0
	jr	ra
	.cfi_endproc
.LFE3:
	.size	UsbMassFlushBlocks, .-UsbMassFlushBlocks
	.section	.text.UsbMassInitMedia,"ax",@progbits
	.align	1
	.globl	UsbMassInitMedia
	.type	UsbMassInitMedia, @function
UsbMassInitMedia:
.LFB4:
	.loc 1 339 1
	.cfi_startproc
	addi	sp,sp,-48
	.cfi_def_cfa_offset 48
	sd	ra,40(sp)
	sd	s0,32(sp)
	.cfi_offset 1, -8
	.cfi_offset 8, -16
	addi	s0,sp,48
	.cfi_def_cfa 8, 0
	sd	a0,-40(s0)
	.loc 1 343 9
	ld	a5,-40(s0)
	addi	a5,a5,80
	sd	a5,-32(s0)
	.loc 1 349 23
	ld	a5,-32(s0)
	sb	zero,5(a5)
	.loc 1 350 27
	ld	a5,-32(s0)
	sb	zero,6(a5)
	.loc 1 351 19
	ld	a5,-32(s0)
	sb	zero,7(a5)
	.loc 1 352 23
	ld	a5,-32(s0)
	sb	zero,8(a5)
	.loc 1 353 18
	ld	a5,-32(s0)
	sw	zero,16(a5)
	.loc 1 354 18
	ld	a5,-32(s0)
	li	a4,1
	sw	a4,0(a5)
	.loc 1 356 12
	ld	a0,-40(s0)
	call	UsbBootGetParams@plt
	sd	a0,-24(s0)
	.loc 1 358 6
	ld	a4,-24(s0)
	li	a5,-1
	slli	a5,a5,63
	addi	a5,a5,13
	bne	a4,a5,.L40
	.loc 1 363 12
	sd	zero,-24(s0)
.L40:
	.loc 1 366 10
	ld	a5,-24(s0)
	.loc 1 367 1
	mv	a0,a5
	ld	ra,40(sp)
	.cfi_restore 1
	ld	s0,32(sp)
	.cfi_restore 8
	.cfi_def_cfa 2, 48
	addi	sp,sp,48
	.cfi_def_cfa_offset 0
	jr	ra
	.cfi_endproc
.LFE4:
	.size	UsbMassInitMedia, .-UsbMassInitMedia
	.section	.text.UsbMassInitTransport,"ax",@progbits
	.align	1
	.globl	UsbMassInitTransport
	.type	UsbMassInitTransport, @function
UsbMassInitTransport:
.LFB5:
	.loc 1 394 1
	.cfi_startproc
	addi	sp,sp,-112
	.cfi_def_cfa_offset 112
	sd	ra,104(sp)
	sd	s0,96(sp)
	.cfi_offset 1, -8
	.cfi_offset 8, -16
	addi	s0,sp,112
	.cfi_def_cfa 8, 0
	sd	a0,-72(s0)
	sd	a1,-80(s0)
	sd	a2,-88(s0)
	sd	a3,-96(s0)
	sd	a4,-104(s0)
	.loc 1 400 15
	la	a5,gBS
	ld	a5,0(a5)
	ld	a6,280(a5)
	.loc 1 400 12
	ld	a5,-72(s0)
	ld	a3,40(a5)
	addi	a2,s0,-40
	li	a5,16
	ld	a4,-80(s0)
	la	a1,gEfiUsbIoProtocolGuid
	ld	a0,-80(s0)
	jalr	a6
.LVL7:
	sd	a0,-32(s0)
	.loc 1 409 34
	ld	a5,-32(s0)
	.loc 1 409 6
	bge	a5,zero,.L43
	.loc 1 410 12
	ld	a5,-32(s0)
	j	.L52
.L43:
	.loc 1 413 17
	ld	a5,-40(s0)
	ld	a5,64(a5)
	.loc 1 413 12
	ld	a4,-40(s0)
	addi	a3,s0,-56
	mv	a1,a3
	mv	a0,a4
	jalr	a5
.LVL8:
	sd	a0,-32(s0)
	.loc 1 414 34
	ld	a5,-32(s0)
	.loc 1 414 6
	blt	a5,zero,.L53
	.loc 1 418 10
	li	a5,-1
	slli	a5,a5,63
	addi	a5,a5,3
	sd	a5,-32(s0)
	.loc 1 426 14
	sb	zero,-17(s0)
	.loc 1 426 3
	j	.L47
.L50:
	.loc 1 427 35
	lbu	a5,-17(s0)
	sext.w	a5,a5
	lla	a4,mUsbMassTransport
	slli	a5,a5,3
	add	a5,a4,a5
	ld	a4,0(a5)
	.loc 1 427 16
	ld	a5,-88(s0)
	sd	a4,0(a5)
	.loc 1 429 18
	lbu	a4,-49(s0)
	.loc 1 429 41
	ld	a5,-88(s0)
	ld	a5,0(a5)
	.loc 1 429 52
	lbu	a5,0(a5)
	.loc 1 429 8
	bne	a4,a5,.L48
	.loc 1 430 17
	ld	a5,-88(s0)
	ld	a5,0(a5)
	.loc 1 430 28
	ld	a5,8(a5)
	.loc 1 430 17
	ld	a4,-40(s0)
	ld	a1,-96(s0)
	mv	a0,a4
	jalr	a5
.LVL9:
	sd	a0,-32(s0)
	.loc 1 431 7
	j	.L49
.L48:
	.loc 1 426 35 discriminator 2
	lbu	a5,-17(s0)
	addiw	a5,a5,1
	sb	a5,-17(s0)
.L47:
	.loc 1 426 25 discriminator 1
	lbu	a5,-17(s0)
	andi	a4,a5,0xff
	li	a5,2
	bleu	a4,a5,.L50
.L49:
	.loc 1 435 34
	ld	a5,-32(s0)
	.loc 1 435 6
	blt	a5,zero,.L54
	.loc 1 444 8
	ld	a5,-88(s0)
	ld	a5,0(a5)
	.loc 1 444 19
	lbu	a5,0(a5)
	.loc 1 444 6
	mv	a4,a5
	li	a5,80
	bne	a4,a5,.L55
	.loc 1 445 6
	ld	a5,-88(s0)
	ld	a5,0(a5)
	.loc 1 445 17
	ld	a5,32(a5)
	.loc 1 445 6
	ld	a4,-96(s0)
	ld	a4,0(a4)
	ld	a1,-104(s0)
	mv	a0,a4
	jalr	a5
.LVL10:
	j	.L46
.L53:
	.loc 1 415 5
	nop
	j	.L46
.L54:
	.loc 1 436 5
	nop
	j	.L46
.L55:
	.loc 1 448 1
	nop
.L46:
	.loc 1 449 6
	la	a5,gBS
	ld	a5,0(a5)
	ld	a5,288(a5)
	.loc 1 449 3
	ld	a4,-72(s0)
	ld	a4,40(a4)
	ld	a3,-80(s0)
	mv	a2,a4
	la	a1,gEfiUsbIoProtocolGuid
	ld	a0,-80(s0)
	jalr	a5
.LVL11:
	.loc 1 455 10
	ld	a5,-32(s0)
.L52:
	.loc 1 456 1
	mv	a0,a5
	ld	ra,104(sp)
	.cfi_restore 1
	ld	s0,96(sp)
	.cfi_restore 8
	.cfi_def_cfa 2, 112
	addi	sp,sp,112
	.cfi_def_cfa_offset 0
	jr	ra
	.cfi_endproc
.LFE5:
	.size	UsbMassInitTransport, .-UsbMassInitTransport
	.section	.text.UsbMassInitMultiLun,"ax",@progbits
	.align	1
	.globl	UsbMassInitMultiLun
	.type	UsbMassInitMultiLun, @function
UsbMassInitMultiLun:
.LFB6:
	.loc 1 481 1
	.cfi_startproc
	addi	sp,sp,-112
	.cfi_def_cfa_offset 112
	sd	ra,104(sp)
	sd	s0,96(sp)
	.cfi_offset 1, -8
	.cfi_offset 8, -16
	addi	s0,sp,112
	.cfi_def_cfa 8, 0
	sd	a0,-72(s0)
	sd	a1,-80(s0)
	sd	a2,-88(s0)
	sd	a3,-96(s0)
	sd	a4,-104(s0)
	sb	a5,-105(s0)
	.loc 1 490 16
	li	a5,-1
	slli	a5,a5,63
	addi	a5,a5,14
	sd	a5,-32(s0)
	.loc 1 492 14
	sb	zero,-17(s0)
	.loc 1 492 3
	j	.L57
.L63:
	.loc 1 495 11
	sd	zero,-56(s0)
	.loc 1 496 15
	li	a0,240
	call	AllocateZeroPool@plt
	sd	a0,-40(s0)
	.loc 1 499 24
	ld	a5,-40(s0)
	li	a4,1298296832
	addi	a4,a4,853
	sw	a4,0(a5)
	.loc 1 500 20
	ld	a4,-56(s0)
	ld	a5,-40(s0)
	sd	a4,16(a5)
	.loc 1 501 30
	ld	a5,-40(s0)
	addi	a4,a5,80
	.loc 1 501 28
	ld	a5,-40(s0)
	sd	a4,40(a5)
	.loc 1 502 28
	ld	a5,-40(s0)
	lla	a4,UsbMassReset
	sd	a4,48(a5)
	.loc 1 503 33
	ld	a5,-40(s0)
	lla	a4,UsbMassReadBlocks
	sd	a4,56(a5)
	.loc 1 504 34
	ld	a5,-40(s0)
	lla	a4,UsbMassWriteBlocks
	sd	a4,64(a5)
	.loc 1 505 34
	ld	a5,-40(s0)
	lla	a4,UsbMassFlushBlocks
	sd	a4,72(a5)
	.loc 1 506 29
	ld	a5,-40(s0)
	sb	zero,128(a5)
	.loc 1 507 24
	ld	a5,-40(s0)
	ld	a4,-88(s0)
	sd	a4,136(a5)
	.loc 1 508 22
	ld	a5,-40(s0)
	ld	a4,-96(s0)
	sd	a4,144(a5)
	.loc 1 509 18
	ld	a5,-40(s0)
	lbu	a4,-17(s0)
	sb	a4,129(a5)
	.loc 1 514 14
	ld	a0,-40(s0)
	call	UsbMassInitMedia
	sd	a0,-48(s0)
	.loc 1 515 37
	ld	a5,-48(s0)
	.loc 1 515 8
	bge	a5,zero,.L58
	.loc 1 515 64 discriminator 1
	ld	a4,-48(s0)
	li	a5,-1
	slli	a5,a5,63
	addi	a5,a5,12
	beq	a4,a5,.L58
	.loc 1 517 7
	ld	a0,-40(s0)
	call	FreePool@plt
	.loc 1 518 7
	j	.L59
.L58:
	.loc 1 524 25
	li	a5,3
	sb	a5,-64(s0)
	.loc 1 525 28
	li	a5,17
	sb	a5,-63(s0)
	.loc 1 526 26
	ld	a5,-40(s0)
	lbu	a5,129(a5)
	.loc 1 526 17
	sb	a5,-60(s0)
	.loc 1 528 5
	addi	a5,s0,-64
	li	a1,5
	mv	a0,a5
	call	SetDevicePathNodeLength@plt
	.loc 1 530 27
	addi	a5,s0,-64
	mv	a1,a5
	ld	a0,-104(s0)
	call	AppendDevicePathNode@plt
	mv	a4,a0
	.loc 1 530 25 discriminator 1
	ld	a5,-40(s0)
	sd	a4,24(a5)
	.loc 1 532 16
	ld	a5,-40(s0)
	ld	a5,24(a5)
	.loc 1 532 8
	bne	a5,zero,.L60
	.loc 1 534 14
	li	a5,-1
	slli	a5,a5,63
	addi	a5,a5,9
	sd	a5,-48(s0)
	.loc 1 535 7
	ld	a0,-40(s0)
	call	FreePool@plt
	.loc 1 536 7
	j	.L59
.L60:
	.loc 1 539 5
	ld	a0,-40(s0)
	call	InitializeDiskInfo@plt
	.loc 1 544 17
	la	a5,gBS
	ld	a5,0(a5)
	ld	t1,328(a5)
	.loc 1 544 14
	ld	a5,-40(s0)
	addi	a0,a5,8
	ld	a5,-40(s0)
	ld	a2,24(a5)
	ld	a5,-40(s0)
	addi	a4,a5,32
	ld	a5,-40(s0)
	addi	a5,a5,152
	li	a7,0
	mv	a6,a5
	la	a5,gEfiDiskInfoProtocolGuid
	la	a3,gEfiBlockIoProtocolGuid
	la	a1,gEfiDevicePathProtocolGuid
	jalr	t1
.LVL12:
	sd	a0,-48(s0)
	.loc 1 555 36
	ld	a5,-48(s0)
	.loc 1 555 8
	bge	a5,zero,.L61
	.loc 1 557 24
	ld	a5,-40(s0)
	ld	a5,24(a5)
	.loc 1 557 7
	mv	a0,a5
	call	FreePool@plt
	.loc 1 558 7
	ld	a0,-40(s0)
	call	FreePool@plt
	.loc 1 559 7
	j	.L59
.L61:
	.loc 1 565 17
	la	a5,gBS
	ld	a5,0(a5)
	ld	a6,280(a5)
	.loc 1 565 14
	ld	a5,-72(s0)
	ld	a3,40(a5)
	ld	a5,-40(s0)
	ld	a4,8(a5)
	addi	a2,s0,-56
	li	a5,8
	la	a1,gEfiUsbIoProtocolGuid
	ld	a0,-80(s0)
	jalr	a6
.LVL13:
	sd	a0,-48(s0)
	.loc 1 574 36
	ld	a5,-48(s0)
	.loc 1 574 8
	bge	a5,zero,.L62
	.loc 1 576 10
	la	a5,gBS
	ld	a5,0(a5)
	ld	t1,336(a5)
	.loc 1 576 7
	ld	a5,-40(s0)
	ld	a0,8(a5)
	ld	a5,-40(s0)
	ld	a2,24(a5)
	ld	a5,-40(s0)
	addi	a4,a5,32
	ld	a5,-40(s0)
	addi	a5,a5,152
	li	a7,0
	mv	a6,a5
	la	a5,gEfiDiskInfoProtocolGuid
	la	a3,gEfiBlockIoProtocolGuid
	la	a1,gEfiDevicePathProtocolGuid
	jalr	t1
.LVL14:
	.loc 1 586 24
	ld	a5,-40(s0)
	ld	a5,24(a5)
	.loc 1 586 7
	mv	a0,a5
	call	FreePool@plt
	.loc 1 587 7
	ld	a0,-40(s0)
	call	FreePool@plt
	.loc 1 588 7
	j	.L59
.L62:
	.loc 1 591 18
	sd	zero,-32(s0)
.L59:
	.loc 1 492 41 discriminator 2
	lbu	a5,-17(s0)
	addiw	a5,a5,1
	sb	a5,-17(s0)
.L57:
	.loc 1 492 25 discriminator 1
	lbu	a5,-17(s0)
	mv	a4,a5
	lbu	a5,-105(s0)
	andi	a4,a4,0xff
	andi	a5,a5,0xff
	bleu	a4,a5,.L63
	.loc 1 595 10
	ld	a5,-32(s0)
	.loc 1 596 1
	mv	a0,a5
	ld	ra,104(sp)
	.cfi_restore 1
	ld	s0,96(sp)
	.cfi_restore 8
	.cfi_def_cfa 2, 112
	addi	sp,sp,112
	.cfi_def_cfa_offset 0
	jr	ra
	.cfi_endproc
.LFE6:
	.size	UsbMassInitMultiLun, .-UsbMassInitMultiLun
	.section	.text.UsbMassInitNonLun,"ax",@progbits
	.align	1
	.globl	UsbMassInitNonLun
	.type	UsbMassInitNonLun, @function
UsbMassInitNonLun:
.LFB7:
	.loc 1 617 1
	.cfi_startproc
	addi	sp,sp,-80
	.cfi_def_cfa_offset 80
	sd	ra,72(sp)
	sd	s0,64(sp)
	.cfi_offset 1, -8
	.cfi_offset 8, -16
	addi	s0,sp,80
	.cfi_def_cfa 8, 0
	sd	a0,-56(s0)
	sd	a1,-64(s0)
	sd	a2,-72(s0)
	sd	a3,-80(s0)
	.loc 1 622 9
	sd	zero,-40(s0)
	.loc 1 623 13
	li	a0,240
	call	AllocateZeroPool@plt
	sd	a0,-32(s0)
	.loc 1 626 15
	la	a5,gBS
	ld	a5,0(a5)
	ld	a6,280(a5)
	.loc 1 626 12
	ld	a0,-64(s0)
	ld	a5,-56(s0)
	ld	a3,40(a5)
	ld	a4,-64(s0)
	addi	a2,s0,-40
	li	a5,16
	la	a1,gEfiUsbIoProtocolGuid
	jalr	a6
.LVL15:
	sd	a0,-24(s0)
	.loc 1 635 34
	ld	a5,-24(s0)
	.loc 1 635 6
	blt	a5,zero,.L74
	.loc 1 640 22
	ld	a5,-32(s0)
	li	a4,1298296832
	addi	a4,a4,853
	sw	a4,0(a5)
	.loc 1 641 23
	ld	a4,-64(s0)
	ld	a5,-32(s0)
	sd	a4,8(a5)
	.loc 1 642 18
	ld	a4,-40(s0)
	ld	a5,-32(s0)
	sd	a4,16(a5)
	.loc 1 643 28
	ld	a5,-32(s0)
	addi	a4,a5,80
	.loc 1 643 26
	ld	a5,-32(s0)
	sd	a4,40(a5)
	.loc 1 644 26
	ld	a5,-32(s0)
	lla	a4,UsbMassReset
	sd	a4,48(a5)
	.loc 1 645 31
	ld	a5,-32(s0)
	lla	a4,UsbMassReadBlocks
	sd	a4,56(a5)
	.loc 1 646 32
	ld	a5,-32(s0)
	lla	a4,UsbMassWriteBlocks
	sd	a4,64(a5)
	.loc 1 647 32
	ld	a5,-32(s0)
	lla	a4,UsbMassFlushBlocks
	sd	a4,72(a5)
	.loc 1 648 27
	ld	a5,-32(s0)
	sb	zero,128(a5)
	.loc 1 649 22
	ld	a5,-32(s0)
	ld	a4,-72(s0)
	sd	a4,136(a5)
	.loc 1 650 20
	ld	a5,-32(s0)
	ld	a4,-80(s0)
	sd	a4,144(a5)
	.loc 1 655 12
	ld	a0,-32(s0)
	call	UsbMassInitMedia
	sd	a0,-24(s0)
	.loc 1 656 35
	ld	a5,-24(s0)
	.loc 1 656 6
	bge	a5,zero,.L68
	.loc 1 656 62 discriminator 1
	ld	a4,-24(s0)
	li	a5,-1
	slli	a5,a5,63
	addi	a5,a5,12
	bne	a4,a5,.L75
.L68:
	.loc 1 661 3
	ld	a0,-32(s0)
	call	InitializeDiskInfo@plt
	.loc 1 663 15
	la	a5,gBS
	ld	a5,0(a5)
	ld	a6,328(a5)
	.loc 1 663 12
	ld	a5,-32(s0)
	addi	a2,a5,32
	ld	a5,-32(s0)
	addi	a4,a5,152
	addi	a0,s0,-64
	li	a5,0
	la	a3,gEfiDiskInfoProtocolGuid
	la	a1,gEfiBlockIoProtocolGuid
	jalr	a6
.LVL16:
	sd	a0,-24(s0)
	.loc 1 671 34
	ld	a5,-24(s0)
	.loc 1 671 6
	blt	a5,zero,.L76
	.loc 1 675 10
	li	a5,0
	j	.L73
.L74:
	.loc 1 637 5
	nop
	j	.L67
.L75:
	.loc 1 658 5
	nop
	j	.L67
.L76:
	.loc 1 672 5
	nop
.L67:
	.loc 1 678 6
	ld	a5,-32(s0)
	beq	a5,zero,.L71
	.loc 1 679 5
	ld	a0,-32(s0)
	call	FreePool@plt
.L71:
	.loc 1 682 13
	ld	a5,-40(s0)
	.loc 1 682 6
	beq	a5,zero,.L72
	.loc 1 683 8
	la	a5,gBS
	ld	a5,0(a5)
	ld	a5,288(a5)
	.loc 1 683 5
	ld	a0,-64(s0)
	ld	a4,-56(s0)
	ld	a4,40(a4)
	ld	a3,-64(s0)
	mv	a2,a4
	la	a1,gEfiUsbIoProtocolGuid
	jalr	a5
.LVL17:
.L72:
	.loc 1 691 10
	ld	a5,-24(s0)
.L73:
	.loc 1 692 1
	mv	a0,a5
	ld	ra,72(sp)
	.cfi_restore 1
	ld	s0,64(sp)
	.cfi_restore 8
	.cfi_def_cfa 2, 80
	addi	sp,sp,80
	.cfi_def_cfa_offset 0
	jr	ra
	.cfi_endproc
.LFE7:
	.size	UsbMassInitNonLun, .-UsbMassInitNonLun
	.section	.text.USBMassDriverBindingSupported,"ax",@progbits
	.align	1
	.globl	USBMassDriverBindingSupported
	.type	USBMassDriverBindingSupported, @function
USBMassDriverBindingSupported:
.LFB8:
	.loc 1 712 1
	.cfi_startproc
	addi	sp,sp,-96
	.cfi_def_cfa_offset 96
	sd	ra,88(sp)
	sd	s0,80(sp)
	.cfi_offset 1, -8
	.cfi_offset 8, -16
	addi	s0,sp,96
	.cfi_def_cfa 8, 0
	sd	a0,-72(s0)
	sd	a1,-80(s0)
	sd	a2,-88(s0)
	.loc 1 719 15
	la	a5,gBS
	ld	a5,0(a5)
	ld	a6,280(a5)
	.loc 1 719 12
	ld	a5,-72(s0)
	ld	a3,40(a5)
	addi	a2,s0,-48
	li	a5,16
	ld	a4,-80(s0)
	la	a1,gEfiUsbIoProtocolGuid
	ld	a0,-80(s0)
	jalr	a6
.LVL18:
	sd	a0,-24(s0)
	.loc 1 727 34
	ld	a5,-24(s0)
	.loc 1 727 6
	bge	a5,zero,.L78
	.loc 1 728 12
	ld	a5,-24(s0)
	j	.L86
.L78:
	.loc 1 735 17
	ld	a5,-48(s0)
	ld	a5,64(a5)
	.loc 1 735 12
	ld	a4,-48(s0)
	addi	a3,s0,-64
	mv	a1,a3
	mv	a0,a4
	jalr	a5
.LVL19:
	sd	a0,-24(s0)
	.loc 1 736 34
	ld	a5,-24(s0)
	.loc 1 736 6
	blt	a5,zero,.L87
	.loc 1 740 10
	li	a5,-1
	slli	a5,a5,63
	addi	a5,a5,3
	sd	a5,-24(s0)
	.loc 1 742 16
	lbu	a5,-59(s0)
	.loc 1 742 6
	mv	a4,a5
	li	a5,8
	bne	a4,a5,.L88
	.loc 1 752 14
	sd	zero,-32(s0)
	.loc 1 752 3
	j	.L83
.L85:
	.loc 1 753 15
	lla	a4,mUsbMassTransport
	ld	a5,-32(s0)
	slli	a5,a5,3
	add	a5,a4,a5
	ld	a5,0(a5)
	sd	a5,-40(s0)
	.loc 1 754 18
	lbu	a4,-57(s0)
	.loc 1 754 49
	ld	a5,-40(s0)
	lbu	a5,0(a5)
	.loc 1 754 8
	bne	a4,a5,.L84
	.loc 1 755 25
	ld	a5,-40(s0)
	ld	a5,8(a5)
	.loc 1 755 16
	ld	a4,-48(s0)
	li	a1,0
	mv	a0,a4
	jalr	a5
.LVL20:
	sd	a0,-24(s0)
	.loc 1 756 7
	j	.L81
.L84:
	.loc 1 752 35 discriminator 2
	ld	a5,-32(s0)
	addi	a5,a5,1
	sd	a5,-32(s0)
.L83:
	.loc 1 752 25 discriminator 1
	ld	a4,-32(s0)
	li	a5,2
	bleu	a4,a5,.L85
	.loc 1 760 1
	j	.L81
.L87:
	.loc 1 737 5
	nop
	j	.L81
.L88:
	.loc 1 743 5
	nop
.L81:
	.loc 1 761 6
	la	a5,gBS
	ld	a5,0(a5)
	ld	a5,288(a5)
	.loc 1 761 3
	ld	a4,-72(s0)
	ld	a4,40(a4)
	ld	a3,-80(s0)
	mv	a2,a4
	la	a1,gEfiUsbIoProtocolGuid
	ld	a0,-80(s0)
	jalr	a5
.LVL21:
	.loc 1 768 10
	ld	a5,-24(s0)
.L86:
	.loc 1 769 1
	mv	a0,a5
	ld	ra,88(sp)
	.cfi_restore 1
	ld	s0,80(sp)
	.cfi_restore 8
	.cfi_def_cfa 2, 96
	addi	sp,sp,96
	.cfi_def_cfa_offset 0
	jr	ra
	.cfi_endproc
.LFE8:
	.size	USBMassDriverBindingSupported, .-USBMassDriverBindingSupported
	.section	.text.USBMassDriverBindingStart,"ax",@progbits
	.align	1
	.globl	USBMassDriverBindingStart
	.type	USBMassDriverBindingStart, @function
USBMassDriverBindingStart:
.LFB9:
	.loc 1 796 1
	.cfi_startproc
	addi	sp,sp,-112
	.cfi_def_cfa_offset 112
	sd	ra,104(sp)
	sd	s0,96(sp)
	.cfi_offset 1, -8
	.cfi_offset 8, -16
	addi	s0,sp,112
	.cfi_def_cfa 8, 0
	sd	a0,-88(s0)
	sd	a1,-96(s0)
	sd	a2,-104(s0)
	.loc 1 805 15
	la	a5,gBS
	ld	a5,0(a5)
	ld	a5,24(a5)
	.loc 1 805 12
	li	a0,8
	jalr	a5
.LVL22:
	sd	a0,-24(s0)
	.loc 1 807 13
	sd	zero,-40(s0)
	.loc 1 808 11
	sd	zero,-56(s0)
	.loc 1 809 10
	sb	zero,-57(s0)
	.loc 1 811 12
	addi	a4,s0,-57
	addi	a3,s0,-56
	addi	a5,s0,-40
	mv	a2,a5
	ld	a1,-96(s0)
	ld	a0,-88(s0)
	call	UsbMassInitTransport
	sd	a0,-32(s0)
	.loc 1 813 34
	ld	a5,-32(s0)
	.loc 1 813 6
	blt	a5,zero,.L96
	.loc 1 818 14
	lbu	a5,-57(s0)
	.loc 1 818 6
	bne	a5,zero,.L92
	.loc 1 822 14
	ld	a5,-40(s0)
	ld	a4,-56(s0)
	mv	a3,a4
	mv	a2,a5
	ld	a1,-96(s0)
	ld	a0,-88(s0)
	call	UsbMassInitNonLun
	sd	a0,-32(s0)
	j	.L91
.L92:
	.loc 1 830 17
	la	a5,gBS
	ld	a5,0(a5)
	ld	a6,280(a5)
	.loc 1 830 14
	ld	a5,-88(s0)
	ld	a3,40(a5)
	addi	a2,s0,-48
	li	a5,16
	ld	a4,-96(s0)
	la	a1,gEfiDevicePathProtocolGuid
	ld	a0,-96(s0)
	jalr	a6
.LVL23:
	sd	a0,-32(s0)
	.loc 1 839 36
	ld	a5,-32(s0)
	.loc 1 839 8
	blt	a5,zero,.L97
	.loc 1 844 17
	la	a5,gBS
	ld	a5,0(a5)
	ld	a6,280(a5)
	.loc 1 844 14
	ld	a5,-88(s0)
	ld	a3,40(a5)
	addi	a2,s0,-72
	li	a5,16
	ld	a4,-96(s0)
	la	a1,gEfiUsbIoProtocolGuid
	ld	a0,-96(s0)
	jalr	a6
.LVL24:
	sd	a0,-32(s0)
	.loc 1 853 36
	ld	a5,-32(s0)
	.loc 1 853 8
	bge	a5,zero,.L94
	.loc 1 855 10
	la	a5,gBS
	ld	a5,0(a5)
	ld	a5,288(a5)
	.loc 1 855 7
	ld	a4,-88(s0)
	ld	a4,40(a4)
	ld	a3,-96(s0)
	mv	a2,a4
	la	a1,gEfiDevicePathProtocolGuid
	ld	a0,-96(s0)
	jalr	a5
.LVL25:
	.loc 1 861 7
	j	.L91
.L94:
	.loc 1 868 14
	ld	a2,-40(s0)
	ld	a3,-56(s0)
	ld	a4,-48(s0)
	lbu	a5,-57(s0)
	ld	a1,-96(s0)
	ld	a0,-88(s0)
	call	UsbMassInitMultiLun
	sd	a0,-32(s0)
	.loc 1 869 36
	ld	a5,-32(s0)
	.loc 1 869 8
	bge	a5,zero,.L98
	.loc 1 870 10
	la	a5,gBS
	ld	a5,0(a5)
	ld	a5,288(a5)
	.loc 1 870 7
	ld	a4,-88(s0)
	ld	a4,40(a4)
	ld	a3,-96(s0)
	mv	a2,a4
	la	a1,gEfiDevicePathProtocolGuid
	ld	a0,-96(s0)
	jalr	a5
.LVL26:
	.loc 1 876 10
	la	a5,gBS
	ld	a5,0(a5)
	ld	a5,288(a5)
	.loc 1 876 7
	ld	a4,-88(s0)
	ld	a4,40(a4)
	ld	a3,-96(s0)
	mv	a2,a4
	la	a1,gEfiUsbIoProtocolGuid
	ld	a0,-96(s0)
	jalr	a5
.LVL27:
	.loc 1 886 1
	j	.L98
.L96:
	.loc 1 815 5
	nop
	j	.L91
.L97:
	.loc 1 841 7
	nop
	j	.L91
.L98:
	.loc 1 886 1
	nop
.L91:
	.loc 1 887 6
	la	a5,gBS
	ld	a5,0(a5)
	ld	a5,32(a5)
	.loc 1 887 3
	ld	a0,-24(s0)
	jalr	a5
.LVL28:
	.loc 1 888 10
	ld	a5,-32(s0)
	.loc 1 889 1
	mv	a0,a5
	ld	ra,104(sp)
	.cfi_restore 1
	ld	s0,96(sp)
	.cfi_restore 8
	.cfi_def_cfa 2, 112
	addi	sp,sp,112
	.cfi_def_cfa_offset 0
	jr	ra
	.cfi_endproc
.LFE9:
	.size	USBMassDriverBindingStart, .-USBMassDriverBindingStart
	.section	.text.USBMassDriverBindingStop,"ax",@progbits
	.align	1
	.globl	USBMassDriverBindingStop
	.type	USBMassDriverBindingStop, @function
USBMassDriverBindingStop:
.LFB10:
	.loc 1 913 1
	.cfi_startproc
	addi	sp,sp,-96
	.cfi_def_cfa_offset 96
	sd	ra,88(sp)
	sd	s0,80(sp)
	.cfi_offset 1, -8
	.cfi_offset 8, -16
	addi	s0,sp,96
	.cfi_def_cfa 8, 0
	sd	a0,-72(s0)
	sd	a1,-80(s0)
	sd	a2,-88(s0)
	sd	a3,-96(s0)
	.loc 1 928 6
	ld	a5,-88(s0)
	bne	a5,zero,.L100
	.loc 1 932 17
	la	a5,gBS
	ld	a5,0(a5)
	ld	a6,280(a5)
	.loc 1 932 14
	ld	a5,-72(s0)
	ld	a3,40(a5)
	addi	a2,s0,-64
	li	a5,2
	ld	a4,-80(s0)
	la	a1,gEfiBlockIoProtocolGuid
	ld	a0,-80(s0)
	jalr	a6
.LVL29:
	sd	a0,-48(s0)
	.loc 1 941 36
	ld	a5,-48(s0)
	.loc 1 941 8
	bge	a5,zero,.L101
	.loc 1 946 10
	la	a5,gBS
	ld	a5,0(a5)
	ld	a5,288(a5)
	.loc 1 946 7
	ld	a4,-72(s0)
	ld	a4,40(a4)
	ld	a3,-80(s0)
	mv	a2,a4
	la	a1,gEfiDevicePathProtocolGuid
	ld	a0,-80(s0)
	jalr	a5
.LVL30:
	.loc 1 952 10
	la	a5,gBS
	ld	a5,0(a5)
	ld	a5,288(a5)
	.loc 1 952 7
	ld	a4,-72(s0)
	ld	a4,40(a4)
	ld	a3,-80(s0)
	mv	a2,a4
	la	a1,gEfiUsbIoProtocolGuid
	ld	a0,-80(s0)
	jalr	a5
.LVL31:
	.loc 1 959 14
	li	a5,0
	j	.L115
.L101:
	.loc 1 966 37
	ld	a5,-64(s0)
	.loc 1 966 17
	addi	a5,a5,-32
	.loc 1 966 125
	lw	a4,0(a5)
	.loc 1 966 210
	li	a5,1298296832
	addi	a5,a5,853
	bne	a4,a5,.L103
	.loc 1 966 233 discriminator 1
	ld	a5,-64(s0)
	.loc 1 966 13 discriminator 1
	addi	a5,a5,-32
	sd	a5,-40(s0)
	j	.L104
.L103:
	.loc 1 966 13 is_stmt 0 discriminator 2
	sd	zero,-40(s0)
.L104:
	.loc 1 972 17 is_stmt 1
	la	a5,gBS
	ld	a5,0(a5)
	ld	a6,336(a5)
	.loc 1 972 14
	ld	a5,-40(s0)
	addi	a2,a5,32
	ld	a5,-40(s0)
	addi	a4,a5,152
	li	a5,0
	la	a3,gEfiDiskInfoProtocolGuid
	la	a1,gEfiBlockIoProtocolGuid
	ld	a0,-80(s0)
	jalr	a6
.LVL32:
	sd	a0,-48(s0)
	.loc 1 980 36
	ld	a5,-48(s0)
	.loc 1 980 8
	bge	a5,zero,.L105
	.loc 1 981 14
	ld	a5,-48(s0)
	j	.L115
.L105:
	.loc 1 984 8
	la	a5,gBS
	ld	a5,0(a5)
	ld	a5,288(a5)
	.loc 1 984 5
	ld	a4,-72(s0)
	ld	a4,40(a4)
	ld	a3,-80(s0)
	mv	a2,a4
	la	a1,gEfiUsbIoProtocolGuid
	ld	a0,-80(s0)
	jalr	a5
.LVL33:
	.loc 1 991 12
	ld	a5,-40(s0)
	ld	a5,136(a5)
	.loc 1 991 23
	ld	a5,40(a5)
	.loc 1 991 5
	ld	a4,-40(s0)
	ld	a4,144(a4)
	mv	a0,a4
	jalr	a5
.LVL34:
	.loc 1 992 5
	ld	a0,-40(s0)
	call	FreePool@plt
	.loc 1 995 12
	li	a5,0
	j	.L115
.L100:
	.loc 1 1003 22
	li	a5,1
	sb	a5,-17(s0)
	.loc 1 1005 14
	sd	zero,-32(s0)
	.loc 1 1005 3
	j	.L106
.L113:
	.loc 1 1006 17
	la	a5,gBS
	ld	a5,0(a5)
	ld	a6,280(a5)
	.loc 1 1007 38
	ld	a5,-32(s0)
	slli	a5,a5,3
	ld	a4,-96(s0)
	add	a5,a4,a5
	.loc 1 1006 14
	ld	a0,0(a5)
	ld	a5,-72(s0)
	ld	a3,40(a5)
	addi	a2,s0,-64
	li	a5,2
	ld	a4,-80(s0)
	la	a1,gEfiBlockIoProtocolGuid
	jalr	a6
.LVL35:
	sd	a0,-48(s0)
	.loc 1 1014 36
	ld	a5,-48(s0)
	.loc 1 1014 8
	bge	a5,zero,.L107
	.loc 1 1015 26
	sb	zero,-17(s0)
	.loc 1 1017 7
	j	.L108
.L107:
	.loc 1 1020 37
	ld	a5,-64(s0)
	.loc 1 1020 17
	addi	a5,a5,-32
	.loc 1 1020 125
	lw	a4,0(a5)
	.loc 1 1020 210
	li	a5,1298296832
	addi	a5,a5,853
	bne	a4,a5,.L109
	.loc 1 1020 233 discriminator 1
	ld	a5,-64(s0)
	.loc 1 1020 13 discriminator 1
	addi	a5,a5,-32
	sd	a5,-40(s0)
	j	.L110
.L109:
	.loc 1 1020 13 is_stmt 0 discriminator 2
	sd	zero,-40(s0)
.L110:
	.loc 1 1022 8 is_stmt 1
	la	a5,gBS
	ld	a5,0(a5)
	ld	a5,288(a5)
	.loc 1 1022 5
	ld	a4,-72(s0)
	ld	a2,40(a4)
	.loc 1 1026 29
	ld	a4,-32(s0)
	slli	a4,a4,3
	ld	a3,-96(s0)
	add	a4,a3,a4
	.loc 1 1022 5
	ld	a4,0(a4)
	mv	a3,a4
	la	a1,gEfiUsbIoProtocolGuid
	ld	a0,-80(s0)
	jalr	a5
.LVL36:
	.loc 1 1029 17
	la	a5,gBS
	ld	a5,0(a5)
	ld	t1,336(a5)
	.loc 1 1030 38
	ld	a5,-32(s0)
	slli	a5,a5,3
	ld	a4,-96(s0)
	add	a5,a4,a5
	.loc 1 1029 14
	ld	a0,0(a5)
	ld	a5,-40(s0)
	ld	a2,24(a5)
	ld	a5,-40(s0)
	addi	a4,a5,32
	ld	a5,-40(s0)
	addi	a5,a5,152
	li	a7,0
	mv	a6,a5
	la	a5,gEfiDiskInfoProtocolGuid
	la	a3,gEfiBlockIoProtocolGuid
	la	a1,gEfiDevicePathProtocolGuid
	jalr	t1
.LVL37:
	sd	a0,-48(s0)
	.loc 1 1040 36
	ld	a5,-48(s0)
	.loc 1 1040 8
	bge	a5,zero,.L111
	.loc 1 1044 26
	sb	zero,-17(s0)
	.loc 1 1047 10
	la	a5,gBS
	ld	a5,0(a5)
	ld	a6,280(a5)
	.loc 1 1047 7
	ld	a5,-72(s0)
	ld	a3,40(a5)
	.loc 1 1052 31
	ld	a5,-32(s0)
	slli	a5,a5,3
	ld	a4,-96(s0)
	add	a5,a4,a5
	.loc 1 1047 7
	ld	a4,0(a5)
	addi	a2,s0,-56
	li	a5,8
	la	a1,gEfiUsbIoProtocolGuid
	ld	a0,-80(s0)
	jalr	a6
.LVL38:
	j	.L108
.L111:
	.loc 1 1059 19
	ld	a5,-32(s0)
	addi	a5,a5,1
	.loc 1 1059 10
	ld	a4,-88(s0)
	bne	a4,a5,.L112
	.loc 1 1059 45 discriminator 1
	lbu	a5,-17(s0)
	andi	a5,a5,0xff
	beq	a5,zero,.L112
	.loc 1 1060 16
	ld	a5,-40(s0)
	ld	a5,136(a5)
	.loc 1 1060 27
	ld	a5,40(a5)
	.loc 1 1060 9
	ld	a4,-40(s0)
	ld	a4,144(a4)
	mv	a0,a4
	jalr	a5
.LVL39:
.L112:
	.loc 1 1063 7
	ld	a0,-40(s0)
	call	FreePool@plt
.L108:
	.loc 1 1005 50 discriminator 2
	ld	a5,-32(s0)
	addi	a5,a5,1
	sd	a5,-32(s0)
.L106:
	.loc 1 1005 25 discriminator 1
	ld	a4,-32(s0)
	ld	a5,-88(s0)
	bltu	a4,a5,.L113
	.loc 1 1067 6
	lbu	a5,-17(s0)
	andi	a5,a5,0xff
	bne	a5,zero,.L114
	.loc 1 1068 12
	li	a5,-1
	slli	a5,a5,63
	addi	a5,a5,7
	j	.L115
.L114:
	.loc 1 1072 10
	li	a5,0
.L115:
	.loc 1 1073 1
	mv	a0,a5
	ld	ra,88(sp)
	.cfi_restore 1
	ld	s0,80(sp)
	.cfi_restore 8
	.cfi_def_cfa 2, 96
	addi	sp,sp,96
	.cfi_def_cfa_offset 0
	jr	ra
	.cfi_endproc
.LFE10:
	.size	USBMassDriverBindingStop, .-USBMassDriverBindingStop
	.section	.text.USBMassStorageEntryPoint,"ax",@progbits
	.align	1
	.globl	USBMassStorageEntryPoint
	.type	USBMassStorageEntryPoint, @function
USBMassStorageEntryPoint:
.LFB11:
	.loc 1 1093 1
	.cfi_startproc
	addi	sp,sp,-48
	.cfi_def_cfa_offset 48
	sd	ra,40(sp)
	sd	s0,32(sp)
	.cfi_offset 1, -8
	.cfi_offset 8, -16
	addi	s0,sp,48
	.cfi_def_cfa 8, 0
	sd	a0,-40(s0)
	sd	a1,-48(s0)
	.loc 1 1099 12
	la	a5,gUsbMassStorageComponentName2
	la	a4,gUsbMassStorageComponentName
	ld	a3,-40(s0)
	lla	a2,gUSBMassDriverBinding
	ld	a1,-48(s0)
	ld	a0,-40(s0)
	call	EfiLibInstallDriverBindingComponentName2@plt
	sd	a0,-24(s0)
	.loc 1 1109 10
	li	a5,0
	.loc 1 1110 1
	mv	a0,a5
	ld	ra,40(sp)
	.cfi_restore 1
	ld	s0,32(sp)
	.cfi_restore 8
	.cfi_def_cfa 2, 48
	addi	sp,sp,48
	.cfi_def_cfa_offset 0
	jr	ra
	.cfi_endproc
.LFE11:
	.size	USBMassStorageEntryPoint, .-USBMassStorageEntryPoint
	.text
.Letext0:
	.file 2 "/home/kapoagaeming/Downloads/spacemit-image-builder/components/edk2/MdePkg/Include/RiscV64/ProcessorBind.h"
	.file 3 "/home/kapoagaeming/Downloads/spacemit-image-builder/components/edk2/MdePkg/Include/Base.h"
	.file 4 "/home/kapoagaeming/Downloads/spacemit-image-builder/components/edk2/MdePkg/Include/Uefi/UefiBaseType.h"
	.file 5 "/home/kapoagaeming/Downloads/spacemit-image-builder/components/edk2/MdePkg/Include/Uefi/UefiMultiPhase.h"
	.file 6 "/home/kapoagaeming/Downloads/spacemit-image-builder/components/edk2/MdePkg/Include/Protocol/DevicePath.h"
	.file 7 "/home/kapoagaeming/Downloads/spacemit-image-builder/components/edk2/MdePkg/Include/Protocol/SimpleTextIn.h"
	.file 8 "/home/kapoagaeming/Downloads/spacemit-image-builder/components/edk2/MdePkg/Include/Protocol/SimpleTextOut.h"
	.file 9 "/home/kapoagaeming/Downloads/spacemit-image-builder/components/edk2/MdePkg/Include/Uefi/UefiSpec.h"
	.file 10 "/home/kapoagaeming/Downloads/spacemit-image-builder/components/Build/Milk-V-Jupiter/RELEASE_GCC5/RISCV64/MdeModulePkg/Bus/Usb/UsbMassStorageDxe/UsbMassStorageDxe/DEBUG/AutoGen.h"
	.file 11 "/home/kapoagaeming/Downloads/spacemit-image-builder/components/edk2/MdePkg/Include/Protocol/BlockIo.h"
	.file 12 "/home/kapoagaeming/Downloads/spacemit-image-builder/components/edk2/MdePkg/Include/IndustryStandard/Usb.h"
	.file 13 "/home/kapoagaeming/Downloads/spacemit-image-builder/components/edk2/MdePkg/Include/Protocol/UsbIo.h"
	.file 14 "/home/kapoagaeming/Downloads/spacemit-image-builder/components/edk2/MdePkg/Include/Protocol/DiskInfo.h"
	.file 15 "/home/kapoagaeming/Downloads/spacemit-image-builder/components/edk2/MdePkg/Include/Protocol/DriverBinding.h"
	.file 16 "/home/kapoagaeming/Downloads/spacemit-image-builder/components/edk2/MdePkg/Include/Protocol/ComponentName.h"
	.file 17 "/home/kapoagaeming/Downloads/spacemit-image-builder/components/edk2/MdePkg/Include/Protocol/ComponentName2.h"
	.file 18 "/home/kapoagaeming/Downloads/spacemit-image-builder/components/edk2/MdeModulePkg/Bus/Usb/UsbMassStorageDxe/UsbMass.h"
	.file 19 "/home/kapoagaeming/Downloads/spacemit-image-builder/components/edk2/MdeModulePkg/Bus/Usb/UsbMassStorageDxe/UsbMassBot.h"
	.file 20 "/home/kapoagaeming/Downloads/spacemit-image-builder/components/edk2/MdeModulePkg/Bus/Usb/UsbMassStorageDxe/UsbMassCbi.h"
	.file 21 "/home/kapoagaeming/Downloads/spacemit-image-builder/components/edk2/MdeModulePkg/Bus/Usb/UsbMassStorageDxe/UsbMassBoot.h"
	.file 22 "/home/kapoagaeming/Downloads/spacemit-image-builder/components/edk2/MdeModulePkg/Bus/Usb/UsbMassStorageDxe/UsbMassImpl.h"
	.file 23 "/home/kapoagaeming/Downloads/spacemit-image-builder/components/edk2/MdePkg/Include/Library/UefiLib.h"
	.file 24 "/home/kapoagaeming/Downloads/spacemit-image-builder/components/edk2/MdePkg/Include/Library/DevicePathLib.h"
	.file 25 "/home/kapoagaeming/Downloads/spacemit-image-builder/components/edk2/MdeModulePkg/Bus/Usb/UsbMassStorageDxe/UsbMassDiskInfo.h"
	.file 26 "/home/kapoagaeming/Downloads/spacemit-image-builder/components/edk2/MdePkg/Include/Library/MemoryAllocationLib.h"
	.file 27 "/home/kapoagaeming/Downloads/spacemit-image-builder/components/edk2/MdePkg/Include/Library/UefiBootServicesTableLib.h"
	.section	.note.GNU-stack,"",@progbits
